ARM GAS  C:\Users\dev\AppData\Local\Temp\ccS7h24p.s 			page 1


   1              		.syntax unified
   2              		.cpu cortex-m4
   3              		.eabi_attribute 27, 1
   4              		.fpu fpv4-sp-d16
   5              		.eabi_attribute 20, 1
   6              		.eabi_attribute 21, 1
   7              		.eabi_attribute 23, 3
   8              		.eabi_attribute 24, 1
   9              		.eabi_attribute 25, 1
  10              		.eabi_attribute 26, 1
  11              		.eabi_attribute 30, 1
  12              		.eabi_attribute 34, 1
  13              		.eabi_attribute 18, 4
  14              		.thumb
  15              		.syntax unified
  16              		.file	"bq24298.c"
  17              		.text
  18              	.Ltext0:
  19              		.cfi_sections	.debug_frame
  20              		.section	.text.bq24298_write_reg,"ax",%progbits
  21              		.align	2
  22              		.global	bq24298_write_reg
  23              		.thumb
  24              		.thumb_func
  25              		.type	bq24298_write_reg, %function
  26              	bq24298_write_reg:
  27              	.LFB720:
  28              		.file 1 "bq24298.c"
   1:bq24298.c     **** /** 
   2:bq24298.c     ****  * Driver for BQ24298 Charger device
   3:bq24298.c     **** 
   4:bq24298.c     ****  */
   5:bq24298.c     **** 
   6:bq24298.c     **** #include <project.h>
   7:bq24298.c     **** 
   8:bq24298.c     **** #include "power.h"
   9:bq24298.c     **** #include "bq24298.h"
  10:bq24298.c     **** 
  11:bq24298.c     **** void bq24298_init( void ) {
  12:bq24298.c     ****     
  13:bq24298.c     ****     
  14:bq24298.c     ****     bq24298_write_reg(CHG_IN_SRC_CTRL_REG, 0x37);
  15:bq24298.c     ****     
  16:bq24298.c     ****     bq24298_write_reg(CHG_PWR_ON_CFG_REG, 0x0B);
  17:bq24298.c     ****     bq24298_write_reg(CHG_CHG_TERM_TMR_CTRL_REG, 0xC8);
  18:bq24298.c     ****     bq24298_write_reg(CHG_MISC_OP_CTRL_REG, 0x4B);
  19:bq24298.c     ****     
  20:bq24298.c     ****     bq24298_write_reg(CHG_PWR_ON_CFG_REG, 0x1B);  //Enable
  21:bq24298.c     **** }
  22:bq24298.c     **** 
  23:bq24298.c     **** void bq24298_write_reg(int reg, int d) {
  29              		.loc 1 23 0
  30              		.cfi_startproc
  31              		@ args = 0, pretend = 0, frame = 0
  32              		@ frame_needed = 0, uses_anonymous_args = 0
  33              	.LVL0:
  34 0000 08B5     		push	{r3, lr}
ARM GAS  C:\Users\dev\AppData\Local\Temp\ccS7h24p.s 			page 2


  35              		.cfi_def_cfa_offset 8
  36              		.cfi_offset 3, -8
  37              		.cfi_offset 14, -4
  24:bq24298.c     ****     power_i2c_write_reg(reg, d);
  38              		.loc 1 24 0
  39 0002 C9B2     		uxtb	r1, r1
  40              	.LVL1:
  41 0004 C0B2     		uxtb	r0, r0
  42              	.LVL2:
  43 0006 FFF7FEFF 		bl	power_i2c_write_reg
  44              	.LVL3:
  45 000a 08BD     		pop	{r3, pc}
  46              		.cfi_endproc
  47              	.LFE720:
  48              		.size	bq24298_write_reg, .-bq24298_write_reg
  49              		.section	.text.bq24298_init,"ax",%progbits
  50              		.align	2
  51              		.global	bq24298_init
  52              		.thumb
  53              		.thumb_func
  54              		.type	bq24298_init, %function
  55              	bq24298_init:
  56              	.LFB719:
  11:bq24298.c     ****     
  57              		.loc 1 11 0
  58              		.cfi_startproc
  59              		@ args = 0, pretend = 0, frame = 0
  60              		@ frame_needed = 0, uses_anonymous_args = 0
  61 0000 08B5     		push	{r3, lr}
  62              		.cfi_def_cfa_offset 8
  63              		.cfi_offset 3, -8
  64              		.cfi_offset 14, -4
  14:bq24298.c     ****     
  65              		.loc 1 14 0
  66 0002 3721     		movs	r1, #55
  67 0004 0020     		movs	r0, #0
  68 0006 FFF7FEFF 		bl	bq24298_write_reg
  69              	.LVL4:
  16:bq24298.c     ****     bq24298_write_reg(CHG_CHG_TERM_TMR_CTRL_REG, 0xC8);
  70              		.loc 1 16 0
  71 000a 0B21     		movs	r1, #11
  72 000c 0120     		movs	r0, #1
  73 000e FFF7FEFF 		bl	bq24298_write_reg
  74              	.LVL5:
  17:bq24298.c     ****     bq24298_write_reg(CHG_MISC_OP_CTRL_REG, 0x4B);
  75              		.loc 1 17 0
  76 0012 C821     		movs	r1, #200
  77 0014 0520     		movs	r0, #5
  78 0016 FFF7FEFF 		bl	bq24298_write_reg
  79              	.LVL6:
  18:bq24298.c     ****     
  80              		.loc 1 18 0
  81 001a 4B21     		movs	r1, #75
  82 001c 0720     		movs	r0, #7
  83 001e FFF7FEFF 		bl	bq24298_write_reg
  84              	.LVL7:
  20:bq24298.c     **** }
ARM GAS  C:\Users\dev\AppData\Local\Temp\ccS7h24p.s 			page 3


  85              		.loc 1 20 0
  86 0022 1B21     		movs	r1, #27
  87 0024 0120     		movs	r0, #1
  88 0026 FFF7FEFF 		bl	bq24298_write_reg
  89              	.LVL8:
  90 002a 08BD     		pop	{r3, pc}
  91              		.cfi_endproc
  92              	.LFE719:
  93              		.size	bq24298_init, .-bq24298_init
  94              		.section	.text.bq24298_read_reg,"ax",%progbits
  95              		.align	2
  96              		.global	bq24298_read_reg
  97              		.thumb
  98              		.thumb_func
  99              		.type	bq24298_read_reg, %function
 100              	bq24298_read_reg:
 101              	.LFB721:
  25:bq24298.c     **** }
  26:bq24298.c     **** 
  27:bq24298.c     **** 
  28:bq24298.c     **** void bq24298_read_reg(uint8_t reg, uint8_t* d, int num_regs) {
 102              		.loc 1 28 0
 103              		.cfi_startproc
 104              		@ args = 0, pretend = 0, frame = 0
 105              		@ frame_needed = 0, uses_anonymous_args = 0
 106              	.LVL9:
 107 0000 08B5     		push	{r3, lr}
 108              		.cfi_def_cfa_offset 8
 109              		.cfi_offset 3, -8
 110              		.cfi_offset 14, -4
  29:bq24298.c     ****     power_i2c_read_reg(reg, d, num_regs);
 111              		.loc 1 29 0
 112 0002 FFF7FEFF 		bl	power_i2c_read_reg
 113              	.LVL10:
 114 0006 08BD     		pop	{r3, pc}
 115              		.cfi_endproc
 116              	.LFE721:
 117              		.size	bq24298_read_reg, .-bq24298_read_reg
 118              		.text
 119              	.Letext0:
 120              		.file 2 "c:\\program files (x86)\\cypress\\psoc creator\\4.4\\psoc creator\\import\\gnu\\arm\\5.4.
 121              		.file 3 "c:\\program files (x86)\\cypress\\psoc creator\\4.4\\psoc creator\\import\\gnu\\arm\\5.4.
 122              		.file 4 "Generated_Source\\PSoC6\\pdl\\drivers/peripheral/device/cy_device.h"
 123              		.file 5 "Generated_Source\\PSoC6\\pdl\\drivers/peripheral/i2s/cy_i2s.h"
 124              		.file 6 "Generated_Source\\PSoC6\\pdl\\drivers/peripheral/sar/cy_sar.h"
 125              		.file 7 "Generated_Source\\PSoC6\\pdl\\drivers/peripheral/tcpwm/cy_tcpwm_pwm.h"
 126              		.file 8 "Generated_Source\\PSoC6\\pdl\\middleware/ble/cy_ble_stack_host_main.h"
 127              		.file 9 "Generated_Source\\PSoC6\\pdl\\middleware/ble/cy_ble_gap.h"
 128              		.file 10 "Generated_Source\\PSoC6/ADC.h"
 129              		.file 11 "Generated_Source\\PSoC6\\pdl\\cmsis/include/core_cm4.h"
 130              		.file 12 "Generated_Source\\PSoC6/PWM_TENS2.h"
 131              		.file 13 "Generated_Source\\PSoC6/AMP_PWM.h"
 132              		.file 14 "Generated_Source\\PSoC6/PWM_TENS.h"
 133              		.file 15 "Generated_Source\\PSoC6/PWM_FAN.h"
 134              		.file 16 "Generated_Source\\PSoC6/LCD_PWM.h"
 135              		.file 17 "Generated_Source\\PSoC6/I2S.h"
 136              		.file 18 "Generated_Source\\PSoC6/PWM_PEL1.h"
ARM GAS  C:\Users\dev\AppData\Local\Temp\ccS7h24p.s 			page 4


 137              		.file 19 "Generated_Source\\PSoC6/PWM_PEL2.h"
 138              		.file 20 "power.h"