ARM GAS  C:\Users\dev\AppData\Local\Temp\ccJYAN2E.s 			page 1


   1              		.syntax unified
   2              		.cpu cortex-m4
   3              		.eabi_attribute 27, 1
   4              		.fpu fpv4-sp-d16
   5              		.eabi_attribute 20, 1
   6              		.eabi_attribute 21, 1
   7              		.eabi_attribute 23, 3
   8              		.eabi_attribute 24, 1
   9              		.eabi_attribute 25, 1
  10              		.eabi_attribute 26, 1
  11              		.eabi_attribute 30, 1
  12              		.eabi_attribute 34, 1
  13              		.eabi_attribute 18, 4
  14              		.thumb
  15              		.syntax unified
  16              		.file	"cy_i2s.c"
  17              		.text
  18              	.Ltext0:
  19              		.cfi_sections	.debug_frame
  20              		.section	.text.Cy_I2S_Init,"ax",%progbits
  21              		.align	2
  22              		.global	Cy_I2S_Init
  23              		.thumb
  24              		.thumb_func
  25              		.type	Cy_I2S_Init, %function
  26              	Cy_I2S_Init:
  27              	.LFB194:
  28              		.file 1 "Generated_Source\\PSoC6\\pdl\\drivers\\peripheral\\i2s\\cy_i2s.c"
   1:Generated_Source\PSoC6\pdl\drivers\peripheral\i2s/cy_i2s.c **** /***************************************************************************//**
   2:Generated_Source\PSoC6\pdl\drivers\peripheral\i2s/cy_i2s.c **** * \file cy_i2s.c
   3:Generated_Source\PSoC6\pdl\drivers\peripheral\i2s/cy_i2s.c **** * \version 2.10
   4:Generated_Source\PSoC6\pdl\drivers\peripheral\i2s/cy_i2s.c **** *
   5:Generated_Source\PSoC6\pdl\drivers\peripheral\i2s/cy_i2s.c **** * The source code file for the I2S driver.
   6:Generated_Source\PSoC6\pdl\drivers\peripheral\i2s/cy_i2s.c **** *
   7:Generated_Source\PSoC6\pdl\drivers\peripheral\i2s/cy_i2s.c **** ********************************************************************************
   8:Generated_Source\PSoC6\pdl\drivers\peripheral\i2s/cy_i2s.c **** * \copyright
   9:Generated_Source\PSoC6\pdl\drivers\peripheral\i2s/cy_i2s.c **** * Copyright 2016-2018, Cypress Semiconductor Corporation. All rights reserved.
  10:Generated_Source\PSoC6\pdl\drivers\peripheral\i2s/cy_i2s.c **** * You may use this file only in accordance with the license, terms, conditions,
  11:Generated_Source\PSoC6\pdl\drivers\peripheral\i2s/cy_i2s.c **** * disclaimers, and limitations in the end user license agreement accompanying
  12:Generated_Source\PSoC6\pdl\drivers\peripheral\i2s/cy_i2s.c **** * the software package with which this file was provided.
  13:Generated_Source\PSoC6\pdl\drivers\peripheral\i2s/cy_i2s.c **** *******************************************************************************/
  14:Generated_Source\PSoC6\pdl\drivers\peripheral\i2s/cy_i2s.c **** 
  15:Generated_Source\PSoC6\pdl\drivers\peripheral\i2s/cy_i2s.c **** #include "cy_i2s.h"
  16:Generated_Source\PSoC6\pdl\drivers\peripheral\i2s/cy_i2s.c **** 
  17:Generated_Source\PSoC6\pdl\drivers\peripheral\i2s/cy_i2s.c **** #ifdef CY_IP_MXAUDIOSS
  18:Generated_Source\PSoC6\pdl\drivers\peripheral\i2s/cy_i2s.c **** 
  19:Generated_Source\PSoC6\pdl\drivers\peripheral\i2s/cy_i2s.c **** 
  20:Generated_Source\PSoC6\pdl\drivers\peripheral\i2s/cy_i2s.c **** /*******************************************************************************
  21:Generated_Source\PSoC6\pdl\drivers\peripheral\i2s/cy_i2s.c **** * Function Name: Cy_I2S_Init
  22:Generated_Source\PSoC6\pdl\drivers\peripheral\i2s/cy_i2s.c **** ****************************************************************************//**
  23:Generated_Source\PSoC6\pdl\drivers\peripheral\i2s/cy_i2s.c **** *
  24:Generated_Source\PSoC6\pdl\drivers\peripheral\i2s/cy_i2s.c **** * Initializes the I2S module in accordance with a configuration structure.
  25:Generated_Source\PSoC6\pdl\drivers\peripheral\i2s/cy_i2s.c **** *
  26:Generated_Source\PSoC6\pdl\drivers\peripheral\i2s/cy_i2s.c **** * \pre If the I2S module is initialized previously, the \ref Cy_I2S_DeInit()
  27:Generated_Source\PSoC6\pdl\drivers\peripheral\i2s/cy_i2s.c **** * must be called before calling this function.
  28:Generated_Source\PSoC6\pdl\drivers\peripheral\i2s/cy_i2s.c **** *
  29:Generated_Source\PSoC6\pdl\drivers\peripheral\i2s/cy_i2s.c **** * \param base      The pointer to the I2S instance address.
ARM GAS  C:\Users\dev\AppData\Local\Temp\ccJYAN2E.s 			page 2


  30:Generated_Source\PSoC6\pdl\drivers\peripheral\i2s/cy_i2s.c **** *
  31:Generated_Source\PSoC6\pdl\drivers\peripheral\i2s/cy_i2s.c **** * \param config    The pointer to a configuration structure.
  32:Generated_Source\PSoC6\pdl\drivers\peripheral\i2s/cy_i2s.c **** *
  33:Generated_Source\PSoC6\pdl\drivers\peripheral\i2s/cy_i2s.c **** * \return error / status code. See \ref cy_en_i2s_status_t.
  34:Generated_Source\PSoC6\pdl\drivers\peripheral\i2s/cy_i2s.c **** *
  35:Generated_Source\PSoC6\pdl\drivers\peripheral\i2s/cy_i2s.c **** * \funcusage
  36:Generated_Source\PSoC6\pdl\drivers\peripheral\i2s/cy_i2s.c **** * \snippet i2s\2.10\snippet\main.c snippet_Cy_I2S_Init
  37:Generated_Source\PSoC6\pdl\drivers\peripheral\i2s/cy_i2s.c **** *
  38:Generated_Source\PSoC6\pdl\drivers\peripheral\i2s/cy_i2s.c **** *******************************************************************************/
  39:Generated_Source\PSoC6\pdl\drivers\peripheral\i2s/cy_i2s.c **** cy_en_i2s_status_t Cy_I2S_Init(I2S_Type * base, cy_stc_i2s_config_t const * config)
  40:Generated_Source\PSoC6\pdl\drivers\peripheral\i2s/cy_i2s.c **** {
  29              		.loc 1 40 0
  30              		.cfi_startproc
  31              		@ args = 0, pretend = 0, frame = 0
  32              		@ frame_needed = 0, uses_anonymous_args = 0
  33              	.LVL0:
  41:Generated_Source\PSoC6\pdl\drivers\peripheral\i2s/cy_i2s.c ****     cy_en_i2s_status_t ret = CY_I2S_BAD_PARAM;
  42:Generated_Source\PSoC6\pdl\drivers\peripheral\i2s/cy_i2s.c ****     
  43:Generated_Source\PSoC6\pdl\drivers\peripheral\i2s/cy_i2s.c ****     if((NULL != base) && (NULL != config))
  34              		.loc 1 43 0
  35 0000 0028     		cmp	r0, #0
  36 0002 00F07681 		beq	.L38
  40:Generated_Source\PSoC6\pdl\drivers\peripheral\i2s/cy_i2s.c ****     cy_en_i2s_status_t ret = CY_I2S_BAD_PARAM;
  37              		.loc 1 40 0 discriminator 1
  38 0006 2DE9F041 		push	{r4, r5, r6, r7, r8, lr}
  39              		.cfi_def_cfa_offset 24
  40              		.cfi_offset 4, -24
  41              		.cfi_offset 5, -20
  42              		.cfi_offset 6, -16
  43              		.cfi_offset 7, -12
  44              		.cfi_offset 8, -8
  45              		.cfi_offset 14, -4
  46 000a 0546     		mov	r5, r0
  47              		.loc 1 43 0 discriminator 1
  48 000c 0029     		cmp	r1, #0
  49 000e 00F07281 		beq	.L39
  50 0012 0C46     		mov	r4, r1
  51              	.LBB30:
  44:Generated_Source\PSoC6\pdl\drivers\peripheral\i2s/cy_i2s.c ****     {
  45:Generated_Source\PSoC6\pdl\drivers\peripheral\i2s/cy_i2s.c ****         cy_en_i2s_ws_pw_t wsPulseWidth;
  46:Generated_Source\PSoC6\pdl\drivers\peripheral\i2s/cy_i2s.c ****         cy_en_i2s_len_t channelLength;
  47:Generated_Source\PSoC6\pdl\drivers\peripheral\i2s/cy_i2s.c ****         uint32_t channels;
  48:Generated_Source\PSoC6\pdl\drivers\peripheral\i2s/cy_i2s.c ****         uint32_t clockDiv = (uint32_t)config->clkDiv - 1U;
  52              		.loc 1 48 0
  53 0014 0E79     		ldrb	r6, [r1, #4]	@ zero_extendqisi2
  54 0016 013E     		subs	r6, r6, #1
  55              	.LVL1:
  49:Generated_Source\PSoC6\pdl\drivers\peripheral\i2s/cy_i2s.c ****         
  50:Generated_Source\PSoC6\pdl\drivers\peripheral\i2s/cy_i2s.c ****         CY_ASSERT_L2(CY_I2S_IS_CLK_DIV_VALID(clockDiv));
  56              		.loc 1 50 0
  57 0018 3F2E     		cmp	r6, #63
  58 001a 03D9     		bls	.L3
  59              		.loc 1 50 0 is_stmt 0 discriminator 1
  60 001c 3221     		movs	r1, #50
  61              	.LVL2:
  62 001e A948     		ldr	r0, .L60
  63              	.LVL3:
ARM GAS  C:\Users\dev\AppData\Local\Temp\ccJYAN2E.s 			page 3


  64 0020 FFF7FEFF 		bl	Cy_SysLib_AssertFailed
  65              	.LVL4:
  66              	.L3:
  51:Generated_Source\PSoC6\pdl\drivers\peripheral\i2s/cy_i2s.c ****         
  52:Generated_Source\PSoC6\pdl\drivers\peripheral\i2s/cy_i2s.c ****         REG_I2S_INTR_MASK(base) = 0UL; /* Disable interrupts prior to stopping the operation */
  67              		.loc 1 52 0 is_stmt 1
  68 0024 0023     		movs	r3, #0
  69 0026 C5F8083F 		str	r3, [r5, #3848]
  53:Generated_Source\PSoC6\pdl\drivers\peripheral\i2s/cy_i2s.c ****         REG_I2S_CMD(base) = 0UL; /* Stop any communication */
  70              		.loc 1 53 0
  71 002a 2B62     		str	r3, [r5, #32]
  54:Generated_Source\PSoC6\pdl\drivers\peripheral\i2s/cy_i2s.c ****         REG_I2S_TR_CTL(base) = 0UL; /* Disable any DMA triggers */
  72              		.loc 1 54 0
  73 002c 2B64     		str	r3, [r5, #64]
  55:Generated_Source\PSoC6\pdl\drivers\peripheral\i2s/cy_i2s.c ****         REG_I2S_CTL(base) = 0UL; /* Disable TX/RX sub-blocks before clock changing */
  74              		.loc 1 55 0
  75 002e 2B60     		str	r3, [r5]
  56:Generated_Source\PSoC6\pdl\drivers\peripheral\i2s/cy_i2s.c ****         
  57:Generated_Source\PSoC6\pdl\drivers\peripheral\i2s/cy_i2s.c ****         /* The clock setting */
  58:Generated_Source\PSoC6\pdl\drivers\peripheral\i2s/cy_i2s.c ****         REG_I2S_CLOCK_CTL(base) = _VAL2FLD(I2S_CLOCK_CTL_CLOCK_DIV, clockDiv) |
  76              		.loc 1 58 0
  77 0030 06F03F06 		and	r6, r6, #63
  78              	.LVL5:
  59:Generated_Source\PSoC6\pdl\drivers\peripheral\i2s/cy_i2s.c ****                                  _BOOL2FLD(I2S_CLOCK_CTL_CLOCK_SEL, config->extClk);
  79              		.loc 1 59 0
  80 0034 6379     		ldrb	r3, [r4, #5]	@ zero_extendqisi2
  81 0036 13B1     		cbz	r3, .L40
  82 0038 4FF48073 		mov	r3, #256
  83 003c 00E0     		b	.L4
  84              	.L40:
  85 003e 0023     		movs	r3, #0
  86              	.L4:
  58:Generated_Source\PSoC6\pdl\drivers\peripheral\i2s/cy_i2s.c ****                                  _BOOL2FLD(I2S_CLOCK_CTL_CLOCK_SEL, config->extClk);
  87              		.loc 1 58 0
  88 0040 1E43     		orrs	r6, r6, r3
  89 0042 2E61     		str	r6, [r5, #16]
  60:Generated_Source\PSoC6\pdl\drivers\peripheral\i2s/cy_i2s.c **** 
  61:Generated_Source\PSoC6\pdl\drivers\peripheral\i2s/cy_i2s.c ****         /* The Tx setting */
  62:Generated_Source\PSoC6\pdl\drivers\peripheral\i2s/cy_i2s.c ****         if (config->txEnabled)
  90              		.loc 1 62 0
  91 0044 2378     		ldrb	r3, [r4]	@ zero_extendqisi2
  92 0046 002B     		cmp	r3, #0
  93 0048 00F08F80 		beq	.L5
  63:Generated_Source\PSoC6\pdl\drivers\peripheral\i2s/cy_i2s.c ****         {
  64:Generated_Source\PSoC6\pdl\drivers\peripheral\i2s/cy_i2s.c ****             CY_ASSERT_L3(CY_I2S_IS_ALIGNMENT_VALID(config->txAlignment));
  94              		.loc 1 64 0
  95 004c E379     		ldrb	r3, [r4, #7]	@ zero_extendqisi2
  96 004e 032B     		cmp	r3, #3
  97 0050 03D9     		bls	.L6
  98              		.loc 1 64 0 is_stmt 0 discriminator 1
  99 0052 4021     		movs	r1, #64
 100 0054 9B48     		ldr	r0, .L60
 101 0056 FFF7FEFF 		bl	Cy_SysLib_AssertFailed
 102              	.LVL6:
 103              	.L6:
  65:Generated_Source\PSoC6\pdl\drivers\peripheral\i2s/cy_i2s.c ****             CY_ASSERT_L3(CY_I2S_IS_OVHDATA_VALID(config->txOverheadValue));
 104              		.loc 1 65 0 is_stmt 1
ARM GAS  C:\Users\dev\AppData\Local\Temp\ccJYAN2E.s 			page 4


 105 005a A37D     		ldrb	r3, [r4, #22]	@ zero_extendqisi2
 106 005c 012B     		cmp	r3, #1
 107 005e 03D9     		bls	.L7
 108              		.loc 1 65 0 is_stmt 0 discriminator 1
 109 0060 4121     		movs	r1, #65
 110 0062 9848     		ldr	r0, .L60
 111 0064 FFF7FEFF 		bl	Cy_SysLib_AssertFailed
 112              	.LVL7:
 113              	.L7:
  66:Generated_Source\PSoC6\pdl\drivers\peripheral\i2s/cy_i2s.c ****             
  67:Generated_Source\PSoC6\pdl\drivers\peripheral\i2s/cy_i2s.c ****             if ((CY_I2S_TDM_MODE_A == config->txAlignment) || (CY_I2S_TDM_MODE_B == config->txAlign
 114              		.loc 1 67 0 is_stmt 1
 115 0068 E379     		ldrb	r3, [r4, #7]	@ zero_extendqisi2
 116 006a 023B     		subs	r3, r3, #2
 117 006c DBB2     		uxtb	r3, r3
 118 006e 012B     		cmp	r3, #1
 119 0070 1AD8     		bhi	.L8
  68:Generated_Source\PSoC6\pdl\drivers\peripheral\i2s/cy_i2s.c ****             {
  69:Generated_Source\PSoC6\pdl\drivers\peripheral\i2s/cy_i2s.c ****                 channels = (uint32_t)config->txChannels - 1UL;
 120              		.loc 1 69 0
 121 0072 94F81380 		ldrb	r8, [r4, #19]	@ zero_extendqisi2
 122 0076 08F1FF38 		add	r8, r8, #-1
 123              	.LVL8:
  70:Generated_Source\PSoC6\pdl\drivers\peripheral\i2s/cy_i2s.c ****                 wsPulseWidth = config->txWsPulseWidth;
 124              		.loc 1 70 0
 125 007a 267A     		ldrb	r6, [r4, #8]	@ zero_extendqisi2
 126              	.LVL9:
  71:Generated_Source\PSoC6\pdl\drivers\peripheral\i2s/cy_i2s.c ****                 channelLength = CY_I2S_LEN32;
  72:Generated_Source\PSoC6\pdl\drivers\peripheral\i2s/cy_i2s.c ****                 
  73:Generated_Source\PSoC6\pdl\drivers\peripheral\i2s/cy_i2s.c ****                 CY_ASSERT_L2(CY_I2S_IS_CHANNELS_VALID(channels));
 127              		.loc 1 73 0
 128 007c B8F1070F 		cmp	r8, #7
 129 0080 03D9     		bls	.L9
 130              		.loc 1 73 0 is_stmt 0 discriminator 1
 131 0082 4921     		movs	r1, #73
 132 0084 8F48     		ldr	r0, .L60
 133 0086 FFF7FEFF 		bl	Cy_SysLib_AssertFailed
 134              	.LVL10:
 135              	.L9:
  74:Generated_Source\PSoC6\pdl\drivers\peripheral\i2s/cy_i2s.c ****                 CY_ASSERT_L3(CY_I2S_IS_WSPULSE_VALID(wsPulseWidth));
 136              		.loc 1 74 0 is_stmt 1
 137 008a 012E     		cmp	r6, #1
 138 008c 03D9     		bls	.L10
 139              		.loc 1 74 0 is_stmt 0 discriminator 1
 140 008e 4A21     		movs	r1, #74
 141 0090 8C48     		ldr	r0, .L60
 142 0092 FFF7FEFF 		bl	Cy_SysLib_AssertFailed
 143              	.LVL11:
 144              	.L10:
  75:Generated_Source\PSoC6\pdl\drivers\peripheral\i2s/cy_i2s.c ****                 CY_ASSERT_L3(CY_I2S_IS_LEN_VALID(config->txWordLength));
 145              		.loc 1 75 0 is_stmt 1
 146 0096 637D     		ldrb	r3, [r4, #21]	@ zero_extendqisi2
 147 0098 052B     		cmp	r3, #5
 148 009a 15D9     		bls	.L41
 149              		.loc 1 75 0 is_stmt 0 discriminator 1
 150 009c 4B21     		movs	r1, #75
 151 009e 8948     		ldr	r0, .L60
ARM GAS  C:\Users\dev\AppData\Local\Temp\ccJYAN2E.s 			page 5


 152 00a0 FFF7FEFF 		bl	Cy_SysLib_AssertFailed
 153              	.LVL12:
  71:Generated_Source\PSoC6\pdl\drivers\peripheral\i2s/cy_i2s.c ****                 channelLength = CY_I2S_LEN32;
 154              		.loc 1 71 0 is_stmt 1 discriminator 1
 155 00a4 0527     		movs	r7, #5
 156 00a6 14E0     		b	.L11
 157              	.LVL13:
 158              	.L8:
  76:Generated_Source\PSoC6\pdl\drivers\peripheral\i2s/cy_i2s.c ****             }
  77:Generated_Source\PSoC6\pdl\drivers\peripheral\i2s/cy_i2s.c ****             else
  78:Generated_Source\PSoC6\pdl\drivers\peripheral\i2s/cy_i2s.c ****             {
  79:Generated_Source\PSoC6\pdl\drivers\peripheral\i2s/cy_i2s.c ****                 channels = 1UL;
  80:Generated_Source\PSoC6\pdl\drivers\peripheral\i2s/cy_i2s.c ****                 wsPulseWidth = CY_I2S_WS_ONE_CHANNEL_LENGTH;
  81:Generated_Source\PSoC6\pdl\drivers\peripheral\i2s/cy_i2s.c ****                 channelLength = config->txChannelLength;
 159              		.loc 1 81 0
 160 00a8 277D     		ldrb	r7, [r4, #20]	@ zero_extendqisi2
 161              	.LVL14:
  82:Generated_Source\PSoC6\pdl\drivers\peripheral\i2s/cy_i2s.c ****                 
  83:Generated_Source\PSoC6\pdl\drivers\peripheral\i2s/cy_i2s.c ****                 CY_ASSERT_L3(CY_I2S_IS_CHAN_WORD_VALID(channelLength, config->txWordLength));
 162              		.loc 1 83 0
 163 00aa 052F     		cmp	r7, #5
 164 00ac 04D8     		bhi	.L12
 165              		.loc 1 83 0 is_stmt 0 discriminator 2
 166 00ae 637D     		ldrb	r3, [r4, #21]	@ zero_extendqisi2
 167 00b0 052B     		cmp	r3, #5
 168 00b2 01D8     		bhi	.L12
 169              		.loc 1 83 0 discriminator 4
 170 00b4 9F42     		cmp	r7, r3
 171 00b6 09D2     		bcs	.L42
 172              	.L12:
 173              		.loc 1 83 0 discriminator 5
 174 00b8 5321     		movs	r1, #83
 175 00ba 8248     		ldr	r0, .L60
 176 00bc FFF7FEFF 		bl	Cy_SysLib_AssertFailed
 177              	.LVL15:
  79:Generated_Source\PSoC6\pdl\drivers\peripheral\i2s/cy_i2s.c ****                 wsPulseWidth = CY_I2S_WS_ONE_CHANNEL_LENGTH;
 178              		.loc 1 79 0 is_stmt 1 discriminator 5
 179 00c0 4FF00108 		mov	r8, #1
  80:Generated_Source\PSoC6\pdl\drivers\peripheral\i2s/cy_i2s.c ****                 channelLength = config->txChannelLength;
 180              		.loc 1 80 0 discriminator 5
 181 00c4 4646     		mov	r6, r8
 182 00c6 04E0     		b	.L11
 183              	.LVL16:
 184              	.L41:
  71:Generated_Source\PSoC6\pdl\drivers\peripheral\i2s/cy_i2s.c ****                 
 185              		.loc 1 71 0
 186 00c8 0527     		movs	r7, #5
 187 00ca 02E0     		b	.L11
 188              	.LVL17:
 189              	.L42:
  79:Generated_Source\PSoC6\pdl\drivers\peripheral\i2s/cy_i2s.c ****                 wsPulseWidth = CY_I2S_WS_ONE_CHANNEL_LENGTH;
 190              		.loc 1 79 0
 191 00cc 4FF00108 		mov	r8, #1
  80:Generated_Source\PSoC6\pdl\drivers\peripheral\i2s/cy_i2s.c ****                 channelLength = config->txChannelLength;
 192              		.loc 1 80 0
 193 00d0 4646     		mov	r6, r8
 194              	.LVL18:
ARM GAS  C:\Users\dev\AppData\Local\Temp\ccJYAN2E.s 			page 6


 195              	.L11:
  84:Generated_Source\PSoC6\pdl\drivers\peripheral\i2s/cy_i2s.c ****             }
  85:Generated_Source\PSoC6\pdl\drivers\peripheral\i2s/cy_i2s.c ****             
  86:Generated_Source\PSoC6\pdl\drivers\peripheral\i2s/cy_i2s.c ****             CY_ASSERT_L2(CY_I2S_IS_TRIG_LEVEL_VALID(config->txFifoTriggerLevel, channels));
 196              		.loc 1 86 0
 197 00d2 E27D     		ldrb	r2, [r4, #23]	@ zero_extendqisi2
 198 00d4 C8F1FF03 		rsb	r3, r8, #255
 199 00d8 9A42     		cmp	r2, r3
 200 00da 03D9     		bls	.L13
 201              		.loc 1 86 0 is_stmt 0 discriminator 1
 202 00dc 5621     		movs	r1, #86
 203 00de 7948     		ldr	r0, .L60
 204 00e0 FFF7FEFF 		bl	Cy_SysLib_AssertFailed
 205              	.LVL19:
 206              	.L13:
  87:Generated_Source\PSoC6\pdl\drivers\peripheral\i2s/cy_i2s.c ****             
  88:Generated_Source\PSoC6\pdl\drivers\peripheral\i2s/cy_i2s.c ****             REG_I2S_TX_WATCHDOG(base) = config->txWatchdogValue;
 207              		.loc 1 88 0 is_stmt 1
 208 00e4 E368     		ldr	r3, [r4, #12]
 209 00e6 C5F88430 		str	r3, [r5, #132]
  89:Generated_Source\PSoC6\pdl\drivers\peripheral\i2s/cy_i2s.c **** 
  90:Generated_Source\PSoC6\pdl\drivers\peripheral\i2s/cy_i2s.c ****             REG_I2S_TX_CTL(base) = _VAL2FLD(I2S_TX_CTL_I2S_MODE, config->txAlignment) |
 210              		.loc 1 90 0
 211 00ea E379     		ldrb	r3, [r4, #7]	@ zero_extendqisi2
 212 00ec 1B02     		lsls	r3, r3, #8
 213 00ee 03F44073 		and	r3, r3, #768
  91:Generated_Source\PSoC6\pdl\drivers\peripheral\i2s/cy_i2s.c ****                                   _BOOL2FLD(I2S_TX_CTL_B_CLOCK_INV, config->txSdoLatchingTime) |
 214              		.loc 1 91 0
 215 00f2 227C     		ldrb	r2, [r4, #16]	@ zero_extendqisi2
 216 00f4 0AB1     		cbz	r2, .L43
 217 00f6 0822     		movs	r2, #8
 218 00f8 00E0     		b	.L14
 219              	.L43:
 220 00fa 0022     		movs	r2, #0
 221              	.L14:
  90:Generated_Source\PSoC6\pdl\drivers\peripheral\i2s/cy_i2s.c ****                                   _BOOL2FLD(I2S_TX_CTL_B_CLOCK_INV, config->txSdoLatchingTime) |
 222              		.loc 1 90 0
 223 00fc 1343     		orrs	r3, r3, r2
  92:Generated_Source\PSoC6\pdl\drivers\peripheral\i2s/cy_i2s.c ****                                    _VAL2FLD(I2S_TX_CTL_CH_NR, channels) |
 224              		.loc 1 92 0
 225 00fe 4FEA0818 		lsl	r8, r8, #4
 226              	.LVL20:
 227 0102 08F07008 		and	r8, r8, #112
  91:Generated_Source\PSoC6\pdl\drivers\peripheral\i2s/cy_i2s.c ****                                   _BOOL2FLD(I2S_TX_CTL_B_CLOCK_INV, config->txSdoLatchingTime) |
 228              		.loc 1 91 0
 229 0106 43EA0808 		orr	r8, r3, r8
  93:Generated_Source\PSoC6\pdl\drivers\peripheral\i2s/cy_i2s.c ****                                   _BOOL2FLD(I2S_TX_CTL_MS, config->txMasterMode) |
 230              		.loc 1 93 0
 231 010a A379     		ldrb	r3, [r4, #6]	@ zero_extendqisi2
 232 010c 0BB1     		cbz	r3, .L44
 233 010e 8023     		movs	r3, #128
 234 0110 00E0     		b	.L15
 235              	.L44:
 236 0112 0023     		movs	r3, #0
 237              	.L15:
  92:Generated_Source\PSoC6\pdl\drivers\peripheral\i2s/cy_i2s.c ****                                    _VAL2FLD(I2S_TX_CTL_CH_NR, channels) |
 238              		.loc 1 92 0
ARM GAS  C:\Users\dev\AppData\Local\Temp\ccJYAN2E.s 			page 7


 239 0114 43EA0803 		orr	r3, r3, r8
  94:Generated_Source\PSoC6\pdl\drivers\peripheral\i2s/cy_i2s.c ****                                    _VAL2FLD(I2S_TX_CTL_WS_PULSE, wsPulseWidth) |
 240              		.loc 1 94 0
 241 0118 B602     		lsls	r6, r6, #10
 242              	.LVL21:
 243 011a 06F48066 		and	r6, r6, #1024
  93:Generated_Source\PSoC6\pdl\drivers\peripheral\i2s/cy_i2s.c ****                                   _BOOL2FLD(I2S_TX_CTL_MS, config->txMasterMode) |
 244              		.loc 1 93 0
 245 011e 1E43     		orrs	r6, r6, r3
  95:Generated_Source\PSoC6\pdl\drivers\peripheral\i2s/cy_i2s.c ****                                   _BOOL2FLD(I2S_TX_CTL_WD_EN, config->txWatchdogEnable) |
 246              		.loc 1 95 0
 247 0120 637A     		ldrb	r3, [r4, #9]	@ zero_extendqisi2
 248 0122 13B1     		cbz	r3, .L45
 249 0124 4FF40053 		mov	r3, #8192
 250 0128 00E0     		b	.L16
 251              	.L45:
 252 012a 0023     		movs	r3, #0
 253              	.L16:
  94:Generated_Source\PSoC6\pdl\drivers\peripheral\i2s/cy_i2s.c ****                                    _VAL2FLD(I2S_TX_CTL_WS_PULSE, wsPulseWidth) |
 254              		.loc 1 94 0
 255 012c 1E43     		orrs	r6, r6, r3
  96:Generated_Source\PSoC6\pdl\drivers\peripheral\i2s/cy_i2s.c ****                                   _BOOL2FLD(I2S_TX_CTL_SCKO_POL, config->txSckoInversion) |
 256              		.loc 1 96 0
 257 012e 637C     		ldrb	r3, [r4, #17]	@ zero_extendqisi2
 258 0130 13B1     		cbz	r3, .L46
 259 0132 4FF08073 		mov	r3, #16777216
 260 0136 00E0     		b	.L17
 261              	.L46:
 262 0138 0023     		movs	r3, #0
 263              	.L17:
  95:Generated_Source\PSoC6\pdl\drivers\peripheral\i2s/cy_i2s.c ****                                   _BOOL2FLD(I2S_TX_CTL_WD_EN, config->txWatchdogEnable) |
 264              		.loc 1 95 0
 265 013a 3343     		orrs	r3, r3, r6
  97:Generated_Source\PSoC6\pdl\drivers\peripheral\i2s/cy_i2s.c ****                                   _BOOL2FLD(I2S_TX_CTL_SCKI_POL, config->txSckiInversion) |
 266              		.loc 1 97 0
 267 013c A27C     		ldrb	r2, [r4, #18]	@ zero_extendqisi2
 268 013e 12B1     		cbz	r2, .L47
 269 0140 4FF00072 		mov	r2, #33554432
 270 0144 00E0     		b	.L18
 271              	.L47:
 272 0146 0022     		movs	r2, #0
 273              	.L18:
  96:Generated_Source\PSoC6\pdl\drivers\peripheral\i2s/cy_i2s.c ****                                   _BOOL2FLD(I2S_TX_CTL_SCKO_POL, config->txSckoInversion) |
 274              		.loc 1 96 0
 275 0148 1343     		orrs	r3, r3, r2
  98:Generated_Source\PSoC6\pdl\drivers\peripheral\i2s/cy_i2s.c ****                                    _VAL2FLD(I2S_TX_CTL_CH_LEN, channelLength) |
 276              		.loc 1 98 0
 277 014a 3F04     		lsls	r7, r7, #16
 278              	.LVL22:
 279 014c 07F4E027 		and	r7, r7, #458752
  97:Generated_Source\PSoC6\pdl\drivers\peripheral\i2s/cy_i2s.c ****                                   _BOOL2FLD(I2S_TX_CTL_SCKI_POL, config->txSckiInversion) |
 280              		.loc 1 97 0
 281 0150 3B43     		orrs	r3, r3, r7
  99:Generated_Source\PSoC6\pdl\drivers\peripheral\i2s/cy_i2s.c ****                                    _VAL2FLD(I2S_TX_CTL_WORD_LEN, config->txWordLength) |
 282              		.loc 1 99 0
 283 0152 677D     		ldrb	r7, [r4, #21]	@ zero_extendqisi2
 284 0154 3F05     		lsls	r7, r7, #20
ARM GAS  C:\Users\dev\AppData\Local\Temp\ccJYAN2E.s 			page 8


 285 0156 07F4E007 		and	r7, r7, #7340032
  98:Generated_Source\PSoC6\pdl\drivers\peripheral\i2s/cy_i2s.c ****                                    _VAL2FLD(I2S_TX_CTL_CH_LEN, channelLength) |
 286              		.loc 1 98 0
 287 015a 3B43     		orrs	r3, r3, r7
 100:Generated_Source\PSoC6\pdl\drivers\peripheral\i2s/cy_i2s.c ****                                    _VAL2FLD(I2S_TX_CTL_OVHDATA, config->txOverheadValue);
 288              		.loc 1 100 0
 289 015c A27D     		ldrb	r2, [r4, #22]	@ zero_extendqisi2
 290 015e 1203     		lsls	r2, r2, #12
 291 0160 02F48052 		and	r2, r2, #4096
  99:Generated_Source\PSoC6\pdl\drivers\peripheral\i2s/cy_i2s.c ****                                    _VAL2FLD(I2S_TX_CTL_WORD_LEN, config->txWordLength) |
 292              		.loc 1 99 0
 293 0164 1343     		orrs	r3, r3, r2
  90:Generated_Source\PSoC6\pdl\drivers\peripheral\i2s/cy_i2s.c ****                                   _BOOL2FLD(I2S_TX_CTL_B_CLOCK_INV, config->txSdoLatchingTime) |
 294              		.loc 1 90 0
 295 0166 C5F88030 		str	r3, [r5, #128]
 296              	.L5:
 101:Generated_Source\PSoC6\pdl\drivers\peripheral\i2s/cy_i2s.c ****         }
 102:Generated_Source\PSoC6\pdl\drivers\peripheral\i2s/cy_i2s.c **** 
 103:Generated_Source\PSoC6\pdl\drivers\peripheral\i2s/cy_i2s.c ****         /* The Rx setting */
 104:Generated_Source\PSoC6\pdl\drivers\peripheral\i2s/cy_i2s.c ****         if (config->rxEnabled)
 297              		.loc 1 104 0
 298 016a 6378     		ldrb	r3, [r4, #1]	@ zero_extendqisi2
 299 016c 002B     		cmp	r3, #0
 300 016e 00F09380 		beq	.L19
 105:Generated_Source\PSoC6\pdl\drivers\peripheral\i2s/cy_i2s.c ****         {
 106:Generated_Source\PSoC6\pdl\drivers\peripheral\i2s/cy_i2s.c ****             CY_ASSERT_L3(CY_I2S_IS_ALIGNMENT_VALID(config->rxAlignment));
 301              		.loc 1 106 0
 302 0172 637E     		ldrb	r3, [r4, #25]	@ zero_extendqisi2
 303 0174 032B     		cmp	r3, #3
 304 0176 03D9     		bls	.L20
 305              		.loc 1 106 0 is_stmt 0 discriminator 1
 306 0178 6A21     		movs	r1, #106
 307 017a 5248     		ldr	r0, .L60
 308 017c FFF7FEFF 		bl	Cy_SysLib_AssertFailed
 309              	.LVL23:
 310              	.L20:
 107:Generated_Source\PSoC6\pdl\drivers\peripheral\i2s/cy_i2s.c ****             
 108:Generated_Source\PSoC6\pdl\drivers\peripheral\i2s/cy_i2s.c ****             if ((CY_I2S_TDM_MODE_A == config->rxAlignment) || (CY_I2S_TDM_MODE_B == config->rxAlign
 311              		.loc 1 108 0 is_stmt 1
 312 0180 637E     		ldrb	r3, [r4, #25]	@ zero_extendqisi2
 313 0182 023B     		subs	r3, r3, #2
 314 0184 DBB2     		uxtb	r3, r3
 315 0186 012B     		cmp	r3, #1
 316 0188 1BD8     		bhi	.L21
 109:Generated_Source\PSoC6\pdl\drivers\peripheral\i2s/cy_i2s.c ****             {
 110:Generated_Source\PSoC6\pdl\drivers\peripheral\i2s/cy_i2s.c ****                 channels = (uint32_t)config->rxChannels - 1UL;
 317              		.loc 1 110 0
 318 018a 94F82380 		ldrb	r8, [r4, #35]	@ zero_extendqisi2
 319 018e 08F1FF38 		add	r8, r8, #-1
 320              	.LVL24:
 111:Generated_Source\PSoC6\pdl\drivers\peripheral\i2s/cy_i2s.c ****                 wsPulseWidth = config->rxWsPulseWidth;
 321              		.loc 1 111 0
 322 0192 A67E     		ldrb	r6, [r4, #26]	@ zero_extendqisi2
 323              	.LVL25:
 112:Generated_Source\PSoC6\pdl\drivers\peripheral\i2s/cy_i2s.c ****                 channelLength = CY_I2S_LEN32;
 113:Generated_Source\PSoC6\pdl\drivers\peripheral\i2s/cy_i2s.c ****                 
 114:Generated_Source\PSoC6\pdl\drivers\peripheral\i2s/cy_i2s.c ****                 CY_ASSERT_L2(CY_I2S_IS_CHANNELS_VALID(channels));
ARM GAS  C:\Users\dev\AppData\Local\Temp\ccJYAN2E.s 			page 9


 324              		.loc 1 114 0
 325 0194 B8F1070F 		cmp	r8, #7
 326 0198 03D9     		bls	.L22
 327              		.loc 1 114 0 is_stmt 0 discriminator 1
 328 019a 7221     		movs	r1, #114
 329 019c 4948     		ldr	r0, .L60
 330 019e FFF7FEFF 		bl	Cy_SysLib_AssertFailed
 331              	.LVL26:
 332              	.L22:
 115:Generated_Source\PSoC6\pdl\drivers\peripheral\i2s/cy_i2s.c ****                 CY_ASSERT_L3(CY_I2S_IS_WSPULSE_VALID(wsPulseWidth));
 333              		.loc 1 115 0 is_stmt 1
 334 01a2 012E     		cmp	r6, #1
 335 01a4 03D9     		bls	.L23
 336              		.loc 1 115 0 is_stmt 0 discriminator 1
 337 01a6 7321     		movs	r1, #115
 338 01a8 4648     		ldr	r0, .L60
 339 01aa FFF7FEFF 		bl	Cy_SysLib_AssertFailed
 340              	.LVL27:
 341              	.L23:
 116:Generated_Source\PSoC6\pdl\drivers\peripheral\i2s/cy_i2s.c ****                 CY_ASSERT_L3(CY_I2S_IS_LEN_VALID(config->rxWordLength));
 342              		.loc 1 116 0 is_stmt 1
 343 01ae 94F82530 		ldrb	r3, [r4, #37]	@ zero_extendqisi2
 344 01b2 052B     		cmp	r3, #5
 345 01b4 17D9     		bls	.L48
 346              		.loc 1 116 0 is_stmt 0 discriminator 1
 347 01b6 7421     		movs	r1, #116
 348 01b8 4248     		ldr	r0, .L60
 349 01ba FFF7FEFF 		bl	Cy_SysLib_AssertFailed
 350              	.LVL28:
 112:Generated_Source\PSoC6\pdl\drivers\peripheral\i2s/cy_i2s.c ****                 channelLength = CY_I2S_LEN32;
 351              		.loc 1 112 0 is_stmt 1 discriminator 1
 352 01be 0527     		movs	r7, #5
 353 01c0 16E0     		b	.L24
 354              	.LVL29:
 355              	.L21:
 117:Generated_Source\PSoC6\pdl\drivers\peripheral\i2s/cy_i2s.c ****             }
 118:Generated_Source\PSoC6\pdl\drivers\peripheral\i2s/cy_i2s.c ****             else
 119:Generated_Source\PSoC6\pdl\drivers\peripheral\i2s/cy_i2s.c ****             {
 120:Generated_Source\PSoC6\pdl\drivers\peripheral\i2s/cy_i2s.c ****                 channels = 1UL;
 121:Generated_Source\PSoC6\pdl\drivers\peripheral\i2s/cy_i2s.c ****                 wsPulseWidth = CY_I2S_WS_ONE_CHANNEL_LENGTH;
 122:Generated_Source\PSoC6\pdl\drivers\peripheral\i2s/cy_i2s.c ****                 channelLength = config->rxChannelLength;
 356              		.loc 1 122 0
 357 01c2 94F82470 		ldrb	r7, [r4, #36]	@ zero_extendqisi2
 358              	.LVL30:
 123:Generated_Source\PSoC6\pdl\drivers\peripheral\i2s/cy_i2s.c ****                 
 124:Generated_Source\PSoC6\pdl\drivers\peripheral\i2s/cy_i2s.c ****                 CY_ASSERT_L3(CY_I2S_IS_CHAN_WORD_VALID(channelLength, config->rxWordLength));
 359              		.loc 1 124 0
 360 01c6 052F     		cmp	r7, #5
 361 01c8 05D8     		bhi	.L25
 362              		.loc 1 124 0 is_stmt 0 discriminator 2
 363 01ca 94F82530 		ldrb	r3, [r4, #37]	@ zero_extendqisi2
 364 01ce 052B     		cmp	r3, #5
 365 01d0 01D8     		bhi	.L25
 366              		.loc 1 124 0 discriminator 4
 367 01d2 9F42     		cmp	r7, r3
 368 01d4 09D2     		bcs	.L49
 369              	.L25:
ARM GAS  C:\Users\dev\AppData\Local\Temp\ccJYAN2E.s 			page 10


 370              		.loc 1 124 0 discriminator 5
 371 01d6 7C21     		movs	r1, #124
 372 01d8 3A48     		ldr	r0, .L60
 373 01da FFF7FEFF 		bl	Cy_SysLib_AssertFailed
 374              	.LVL31:
 120:Generated_Source\PSoC6\pdl\drivers\peripheral\i2s/cy_i2s.c ****                 wsPulseWidth = CY_I2S_WS_ONE_CHANNEL_LENGTH;
 375              		.loc 1 120 0 is_stmt 1 discriminator 5
 376 01de 4FF00108 		mov	r8, #1
 121:Generated_Source\PSoC6\pdl\drivers\peripheral\i2s/cy_i2s.c ****                 channelLength = config->rxChannelLength;
 377              		.loc 1 121 0 discriminator 5
 378 01e2 4646     		mov	r6, r8
 379 01e4 04E0     		b	.L24
 380              	.LVL32:
 381              	.L48:
 112:Generated_Source\PSoC6\pdl\drivers\peripheral\i2s/cy_i2s.c ****                 
 382              		.loc 1 112 0
 383 01e6 0527     		movs	r7, #5
 384 01e8 02E0     		b	.L24
 385              	.LVL33:
 386              	.L49:
 120:Generated_Source\PSoC6\pdl\drivers\peripheral\i2s/cy_i2s.c ****                 wsPulseWidth = CY_I2S_WS_ONE_CHANNEL_LENGTH;
 387              		.loc 1 120 0
 388 01ea 4FF00108 		mov	r8, #1
 121:Generated_Source\PSoC6\pdl\drivers\peripheral\i2s/cy_i2s.c ****                 channelLength = config->rxChannelLength;
 389              		.loc 1 121 0
 390 01ee 4646     		mov	r6, r8
 391              	.LVL34:
 392              	.L24:
 125:Generated_Source\PSoC6\pdl\drivers\peripheral\i2s/cy_i2s.c ****             }
 126:Generated_Source\PSoC6\pdl\drivers\peripheral\i2s/cy_i2s.c ****             
 127:Generated_Source\PSoC6\pdl\drivers\peripheral\i2s/cy_i2s.c ****             CY_ASSERT_L2(CY_I2S_IS_TRIG_LEVEL_VALID(config->rxFifoTriggerLevel, channels));
 393              		.loc 1 127 0
 394 01f0 94F82720 		ldrb	r2, [r4, #39]	@ zero_extendqisi2
 395 01f4 C8F1FF03 		rsb	r3, r8, #255
 396 01f8 9A42     		cmp	r2, r3
 397 01fa 03D9     		bls	.L26
 398              		.loc 1 127 0 is_stmt 0 discriminator 1
 399 01fc 7F21     		movs	r1, #127
 400 01fe 3148     		ldr	r0, .L60
 401 0200 FFF7FEFF 		bl	Cy_SysLib_AssertFailed
 402              	.LVL35:
 403              	.L26:
 128:Generated_Source\PSoC6\pdl\drivers\peripheral\i2s/cy_i2s.c **** 
 129:Generated_Source\PSoC6\pdl\drivers\peripheral\i2s/cy_i2s.c ****             REG_I2S_RX_WATCHDOG(base) = config->rxWatchdogValue;
 404              		.loc 1 129 0 is_stmt 1
 405 0204 E369     		ldr	r3, [r4, #28]
 406 0206 C5F8A430 		str	r3, [r5, #164]
 130:Generated_Source\PSoC6\pdl\drivers\peripheral\i2s/cy_i2s.c **** 
 131:Generated_Source\PSoC6\pdl\drivers\peripheral\i2s/cy_i2s.c ****             REG_I2S_RX_CTL(base) = _VAL2FLD(I2S_RX_CTL_I2S_MODE, config->rxAlignment) |
 407              		.loc 1 131 0
 408 020a 637E     		ldrb	r3, [r4, #25]	@ zero_extendqisi2
 409 020c 1B02     		lsls	r3, r3, #8
 410 020e 03F44073 		and	r3, r3, #768
 132:Generated_Source\PSoC6\pdl\drivers\peripheral\i2s/cy_i2s.c ****                                   _BOOL2FLD(I2S_RX_CTL_B_CLOCK_INV, config->rxSdiLatchingTime) |
 411              		.loc 1 132 0
 412 0212 94F82020 		ldrb	r2, [r4, #32]	@ zero_extendqisi2
 413 0216 0AB1     		cbz	r2, .L50
ARM GAS  C:\Users\dev\AppData\Local\Temp\ccJYAN2E.s 			page 11


 414 0218 0822     		movs	r2, #8
 415 021a 00E0     		b	.L27
 416              	.L50:
 417 021c 0022     		movs	r2, #0
 418              	.L27:
 131:Generated_Source\PSoC6\pdl\drivers\peripheral\i2s/cy_i2s.c ****                                   _BOOL2FLD(I2S_RX_CTL_B_CLOCK_INV, config->rxSdiLatchingTime) |
 419              		.loc 1 131 0
 420 021e 1343     		orrs	r3, r3, r2
 133:Generated_Source\PSoC6\pdl\drivers\peripheral\i2s/cy_i2s.c ****                                    _VAL2FLD(I2S_RX_CTL_CH_NR, channels) |
 421              		.loc 1 133 0
 422 0220 4FEA0818 		lsl	r8, r8, #4
 423              	.LVL36:
 424 0224 08F07008 		and	r8, r8, #112
 132:Generated_Source\PSoC6\pdl\drivers\peripheral\i2s/cy_i2s.c ****                                   _BOOL2FLD(I2S_RX_CTL_B_CLOCK_INV, config->rxSdiLatchingTime) |
 425              		.loc 1 132 0
 426 0228 43EA0808 		orr	r8, r3, r8
 134:Generated_Source\PSoC6\pdl\drivers\peripheral\i2s/cy_i2s.c ****                                   _BOOL2FLD(I2S_RX_CTL_MS, config->rxMasterMode) |
 427              		.loc 1 134 0
 428 022c 237E     		ldrb	r3, [r4, #24]	@ zero_extendqisi2
 429 022e 0BB1     		cbz	r3, .L51
 430 0230 8023     		movs	r3, #128
 431 0232 00E0     		b	.L28
 432              	.L51:
 433 0234 0023     		movs	r3, #0
 434              	.L28:
 133:Generated_Source\PSoC6\pdl\drivers\peripheral\i2s/cy_i2s.c ****                                    _VAL2FLD(I2S_RX_CTL_CH_NR, channels) |
 435              		.loc 1 133 0
 436 0236 43EA0803 		orr	r3, r3, r8
 135:Generated_Source\PSoC6\pdl\drivers\peripheral\i2s/cy_i2s.c ****                                    _VAL2FLD(I2S_RX_CTL_WS_PULSE, wsPulseWidth) |
 437              		.loc 1 135 0
 438 023a B602     		lsls	r6, r6, #10
 439              	.LVL37:
 440 023c 06F48066 		and	r6, r6, #1024
 134:Generated_Source\PSoC6\pdl\drivers\peripheral\i2s/cy_i2s.c ****                                   _BOOL2FLD(I2S_RX_CTL_MS, config->rxMasterMode) |
 441              		.loc 1 134 0
 442 0240 1E43     		orrs	r6, r6, r3
 136:Generated_Source\PSoC6\pdl\drivers\peripheral\i2s/cy_i2s.c ****                                   _BOOL2FLD(I2S_RX_CTL_WD_EN, config->rxWatchdogEnable) |
 443              		.loc 1 136 0
 444 0242 E37E     		ldrb	r3, [r4, #27]	@ zero_extendqisi2
 445 0244 13B1     		cbz	r3, .L52
 446 0246 4FF40053 		mov	r3, #8192
 447 024a 00E0     		b	.L29
 448              	.L52:
 449 024c 0023     		movs	r3, #0
 450              	.L29:
 135:Generated_Source\PSoC6\pdl\drivers\peripheral\i2s/cy_i2s.c ****                                    _VAL2FLD(I2S_RX_CTL_WS_PULSE, wsPulseWidth) |
 451              		.loc 1 135 0
 452 024e 1E43     		orrs	r6, r6, r3
 137:Generated_Source\PSoC6\pdl\drivers\peripheral\i2s/cy_i2s.c ****                                   _BOOL2FLD(I2S_RX_CTL_SCKO_POL, config->rxSckoInversion) |
 453              		.loc 1 137 0
 454 0250 94F82130 		ldrb	r3, [r4, #33]	@ zero_extendqisi2
 455 0254 13B1     		cbz	r3, .L53
 456 0256 4FF08073 		mov	r3, #16777216
 457 025a 00E0     		b	.L30
 458              	.L53:
 459 025c 0023     		movs	r3, #0
 460              	.L30:
ARM GAS  C:\Users\dev\AppData\Local\Temp\ccJYAN2E.s 			page 12


 136:Generated_Source\PSoC6\pdl\drivers\peripheral\i2s/cy_i2s.c ****                                   _BOOL2FLD(I2S_RX_CTL_WD_EN, config->rxWatchdogEnable) |
 461              		.loc 1 136 0
 462 025e 3343     		orrs	r3, r3, r6
 138:Generated_Source\PSoC6\pdl\drivers\peripheral\i2s/cy_i2s.c ****                                   _BOOL2FLD(I2S_RX_CTL_SCKI_POL, config->rxSckiInversion) |
 463              		.loc 1 138 0
 464 0260 94F82220 		ldrb	r2, [r4, #34]	@ zero_extendqisi2
 465 0264 12B1     		cbz	r2, .L54
 466 0266 4FF00072 		mov	r2, #33554432
 467 026a 00E0     		b	.L31
 468              	.L54:
 469 026c 0022     		movs	r2, #0
 470              	.L31:
 137:Generated_Source\PSoC6\pdl\drivers\peripheral\i2s/cy_i2s.c ****                                   _BOOL2FLD(I2S_RX_CTL_SCKO_POL, config->rxSckoInversion) |
 471              		.loc 1 137 0
 472 026e 1343     		orrs	r3, r3, r2
 139:Generated_Source\PSoC6\pdl\drivers\peripheral\i2s/cy_i2s.c ****                                    _VAL2FLD(I2S_RX_CTL_CH_LEN, channelLength) |
 473              		.loc 1 139 0
 474 0270 3F04     		lsls	r7, r7, #16
 475              	.LVL38:
 476 0272 07F4E027 		and	r7, r7, #458752
 138:Generated_Source\PSoC6\pdl\drivers\peripheral\i2s/cy_i2s.c ****                                   _BOOL2FLD(I2S_RX_CTL_SCKI_POL, config->rxSckiInversion) |
 477              		.loc 1 138 0
 478 0276 3B43     		orrs	r3, r3, r7
 140:Generated_Source\PSoC6\pdl\drivers\peripheral\i2s/cy_i2s.c ****                                    _VAL2FLD(I2S_RX_CTL_WORD_LEN, config->rxWordLength) |
 479              		.loc 1 140 0
 480 0278 94F82520 		ldrb	r2, [r4, #37]	@ zero_extendqisi2
 481 027c 1205     		lsls	r2, r2, #20
 482 027e 02F4E002 		and	r2, r2, #7340032
 139:Generated_Source\PSoC6\pdl\drivers\peripheral\i2s/cy_i2s.c ****                                    _VAL2FLD(I2S_RX_CTL_CH_LEN, channelLength) |
 483              		.loc 1 139 0
 484 0282 1343     		orrs	r3, r3, r2
 141:Generated_Source\PSoC6\pdl\drivers\peripheral\i2s/cy_i2s.c ****                                   _BOOL2FLD(I2S_RX_CTL_BIT_EXTENSION, config->rxSignExtension);
 485              		.loc 1 141 0
 486 0284 94F82620 		ldrb	r2, [r4, #38]	@ zero_extendqisi2
 487 0288 12B1     		cbz	r2, .L55
 488 028a 4FF40002 		mov	r2, #8388608
 489 028e 00E0     		b	.L32
 490              	.L55:
 491 0290 0022     		movs	r2, #0
 492              	.L32:
 140:Generated_Source\PSoC6\pdl\drivers\peripheral\i2s/cy_i2s.c ****                                    _VAL2FLD(I2S_RX_CTL_WORD_LEN, config->rxWordLength) |
 493              		.loc 1 140 0
 494 0292 1343     		orrs	r3, r3, r2
 131:Generated_Source\PSoC6\pdl\drivers\peripheral\i2s/cy_i2s.c ****                                   _BOOL2FLD(I2S_RX_CTL_B_CLOCK_INV, config->rxSdiLatchingTime) |
 495              		.loc 1 131 0
 496 0294 C5F8A030 		str	r3, [r5, #160]
 497              	.L19:
 142:Generated_Source\PSoC6\pdl\drivers\peripheral\i2s/cy_i2s.c ****         }
 143:Generated_Source\PSoC6\pdl\drivers\peripheral\i2s/cy_i2s.c **** 
 144:Generated_Source\PSoC6\pdl\drivers\peripheral\i2s/cy_i2s.c ****         /* The I2S enable setting */
 145:Generated_Source\PSoC6\pdl\drivers\peripheral\i2s/cy_i2s.c ****         if (config->txEnabled)
 498              		.loc 1 145 0
 499 0298 2378     		ldrb	r3, [r4]	@ zero_extendqisi2
 500 029a 1BB1     		cbz	r3, .L33
 146:Generated_Source\PSoC6\pdl\drivers\peripheral\i2s/cy_i2s.c ****         {
 147:Generated_Source\PSoC6\pdl\drivers\peripheral\i2s/cy_i2s.c ****             REG_I2S_CTL(base) |= I2S_CTL_TX_ENABLED_Msk;
 501              		.loc 1 147 0
ARM GAS  C:\Users\dev\AppData\Local\Temp\ccJYAN2E.s 			page 13


 502 029c 2B68     		ldr	r3, [r5]
 503 029e 43F08043 		orr	r3, r3, #1073741824
 504 02a2 2B60     		str	r3, [r5]
 505              	.L33:
 148:Generated_Source\PSoC6\pdl\drivers\peripheral\i2s/cy_i2s.c ****         }
 149:Generated_Source\PSoC6\pdl\drivers\peripheral\i2s/cy_i2s.c **** 
 150:Generated_Source\PSoC6\pdl\drivers\peripheral\i2s/cy_i2s.c ****         if (config->rxEnabled)
 506              		.loc 1 150 0
 507 02a4 6378     		ldrb	r3, [r4, #1]	@ zero_extendqisi2
 508 02a6 1BB1     		cbz	r3, .L34
 151:Generated_Source\PSoC6\pdl\drivers\peripheral\i2s/cy_i2s.c ****         {
 152:Generated_Source\PSoC6\pdl\drivers\peripheral\i2s/cy_i2s.c ****             REG_I2S_CTL(base) |= I2S_CTL_RX_ENABLED_Msk;
 509              		.loc 1 152 0
 510 02a8 2B68     		ldr	r3, [r5]
 511 02aa 43F00043 		orr	r3, r3, #-2147483648
 512 02ae 2B60     		str	r3, [r5]
 513              	.L34:
 153:Generated_Source\PSoC6\pdl\drivers\peripheral\i2s/cy_i2s.c ****         }
 154:Generated_Source\PSoC6\pdl\drivers\peripheral\i2s/cy_i2s.c **** 
 155:Generated_Source\PSoC6\pdl\drivers\peripheral\i2s/cy_i2s.c ****         /* The FIFO setting */
 156:Generated_Source\PSoC6\pdl\drivers\peripheral\i2s/cy_i2s.c ****         if (config->txEnabled)
 514              		.loc 1 156 0
 515 02b0 2378     		ldrb	r3, [r4]	@ zero_extendqisi2
 516 02b2 63B1     		cbz	r3, .L35
 157:Generated_Source\PSoC6\pdl\drivers\peripheral\i2s/cy_i2s.c ****         {
 158:Generated_Source\PSoC6\pdl\drivers\peripheral\i2s/cy_i2s.c ****             REG_I2S_TX_FIFO_CTL(base) = _VAL2FLD(I2S_TX_FIFO_CTL_TRIGGER_LEVEL, config->txFifoTrigg
 517              		.loc 1 158 0
 518 02b4 E37D     		ldrb	r3, [r4, #23]	@ zero_extendqisi2
 519 02b6 C5F80032 		str	r3, [r5, #512]
 159:Generated_Source\PSoC6\pdl\drivers\peripheral\i2s/cy_i2s.c **** 
 160:Generated_Source\PSoC6\pdl\drivers\peripheral\i2s/cy_i2s.c ****             REG_I2S_TR_CTL(base) |= _BOOL2FLD(I2S_TR_CTL_TX_REQ_EN, config->txDmaTrigger);
 520              		.loc 1 160 0
 521 02ba 2B6C     		ldr	r3, [r5, #64]
 522 02bc A278     		ldrb	r2, [r4, #2]	@ zero_extendqisi2
 523 02be 1AB1     		cbz	r2, .L56
 524 02c0 0122     		movs	r2, #1
 525 02c2 02E0     		b	.L36
 526              	.L61:
 527              		.align	2
 528              	.L60:
 529 02c4 00000000 		.word	.LC0
 530              	.L56:
 531 02c8 0022     		movs	r2, #0
 532              	.L36:
 533              		.loc 1 160 0 is_stmt 0 discriminator 4
 534 02ca 1343     		orrs	r3, r3, r2
 535 02cc 2B64     		str	r3, [r5, #64]
 536              	.L35:
 161:Generated_Source\PSoC6\pdl\drivers\peripheral\i2s/cy_i2s.c ****         }
 162:Generated_Source\PSoC6\pdl\drivers\peripheral\i2s/cy_i2s.c **** 
 163:Generated_Source\PSoC6\pdl\drivers\peripheral\i2s/cy_i2s.c ****         if (config->rxEnabled)
 537              		.loc 1 163 0 is_stmt 1
 538 02ce 6378     		ldrb	r3, [r4, #1]	@ zero_extendqisi2
 539 02d0 A3B1     		cbz	r3, .L57
 164:Generated_Source\PSoC6\pdl\drivers\peripheral\i2s/cy_i2s.c ****         {
 165:Generated_Source\PSoC6\pdl\drivers\peripheral\i2s/cy_i2s.c ****             REG_I2S_RX_FIFO_CTL(base) = _VAL2FLD(I2S_RX_FIFO_CTL_TRIGGER_LEVEL, config->rxFifoTrigg
 540              		.loc 1 165 0
ARM GAS  C:\Users\dev\AppData\Local\Temp\ccJYAN2E.s 			page 14


 541 02d2 94F82730 		ldrb	r3, [r4, #39]	@ zero_extendqisi2
 542 02d6 C5F80033 		str	r3, [r5, #768]
 166:Generated_Source\PSoC6\pdl\drivers\peripheral\i2s/cy_i2s.c **** 
 167:Generated_Source\PSoC6\pdl\drivers\peripheral\i2s/cy_i2s.c ****             REG_I2S_TR_CTL(base) |= _BOOL2FLD(I2S_TR_CTL_RX_REQ_EN, config->rxDmaTrigger);
 543              		.loc 1 167 0
 544 02da 2B6C     		ldr	r3, [r5, #64]
 545 02dc E278     		ldrb	r2, [r4, #3]	@ zero_extendqisi2
 546 02de 12B1     		cbz	r2, .L58
 547 02e0 4FF48032 		mov	r2, #65536
 548 02e4 00E0     		b	.L37
 549              	.L58:
 550 02e6 0022     		movs	r2, #0
 551              	.L37:
 552              		.loc 1 167 0 is_stmt 0 discriminator 4
 553 02e8 1343     		orrs	r3, r3, r2
 554 02ea 2B64     		str	r3, [r5, #64]
 168:Generated_Source\PSoC6\pdl\drivers\peripheral\i2s/cy_i2s.c ****         }
 169:Generated_Source\PSoC6\pdl\drivers\peripheral\i2s/cy_i2s.c ****         
 170:Generated_Source\PSoC6\pdl\drivers\peripheral\i2s/cy_i2s.c ****         ret = CY_I2S_SUCCESS;
 555              		.loc 1 170 0 is_stmt 1 discriminator 4
 556 02ec 0020     		movs	r0, #0
 557 02ee BDE8F081 		pop	{r4, r5, r6, r7, r8, pc}
 558              	.LVL39:
 559              	.L38:
 560              		.cfi_def_cfa_offset 0
 561              		.cfi_restore 4
 562              		.cfi_restore 5
 563              		.cfi_restore 6
 564              		.cfi_restore 7
 565              		.cfi_restore 8
 566              		.cfi_restore 14
 567              	.LBE30:
  41:Generated_Source\PSoC6\pdl\drivers\peripheral\i2s/cy_i2s.c ****     
 568              		.loc 1 41 0
 569 02f2 0448     		ldr	r0, .L62
 570              	.LVL40:
 171:Generated_Source\PSoC6\pdl\drivers\peripheral\i2s/cy_i2s.c ****     }
 172:Generated_Source\PSoC6\pdl\drivers\peripheral\i2s/cy_i2s.c **** 
 173:Generated_Source\PSoC6\pdl\drivers\peripheral\i2s/cy_i2s.c ****     return (ret);
 174:Generated_Source\PSoC6\pdl\drivers\peripheral\i2s/cy_i2s.c **** }
 571              		.loc 1 174 0
 572 02f4 7047     		bx	lr
 573              	.LVL41:
 574              	.L39:
 575              		.cfi_def_cfa_offset 24
 576              		.cfi_offset 4, -24
 577              		.cfi_offset 5, -20
 578              		.cfi_offset 6, -16
 579              		.cfi_offset 7, -12
 580              		.cfi_offset 8, -8
 581              		.cfi_offset 14, -4
  41:Generated_Source\PSoC6\pdl\drivers\peripheral\i2s/cy_i2s.c ****     
 582              		.loc 1 41 0
 583 02f6 0348     		ldr	r0, .L62
 584              	.LVL42:
 585 02f8 BDE8F081 		pop	{r4, r5, r6, r7, r8, pc}
 586              	.LVL43:
ARM GAS  C:\Users\dev\AppData\Local\Temp\ccJYAN2E.s 			page 15


 587              	.L57:
 588              	.LBB31:
 170:Generated_Source\PSoC6\pdl\drivers\peripheral\i2s/cy_i2s.c ****     }
 589              		.loc 1 170 0
 590 02fc 0020     		movs	r0, #0
 591              	.LVL44:
 592              	.LBE31:
 593              		.loc 1 174 0
 594 02fe BDE8F081 		pop	{r4, r5, r6, r7, r8, pc}
 595              	.LVL45:
 596              	.L63:
 597 0302 00BF     		.align	2
 598              	.L62:
 599 0304 01008200 		.word	8519681
 600              		.cfi_endproc
 601              	.LFE194:
 602              		.size	Cy_I2S_Init, .-Cy_I2S_Init
 603              		.section	.text.Cy_I2S_DeInit,"ax",%progbits
 604              		.align	2
 605              		.global	Cy_I2S_DeInit
 606              		.thumb
 607              		.thumb_func
 608              		.type	Cy_I2S_DeInit, %function
 609              	Cy_I2S_DeInit:
 610              	.LFB195:
 175:Generated_Source\PSoC6\pdl\drivers\peripheral\i2s/cy_i2s.c **** 
 176:Generated_Source\PSoC6\pdl\drivers\peripheral\i2s/cy_i2s.c **** 
 177:Generated_Source\PSoC6\pdl\drivers\peripheral\i2s/cy_i2s.c **** /*******************************************************************************
 178:Generated_Source\PSoC6\pdl\drivers\peripheral\i2s/cy_i2s.c **** * Function Name: Cy_I2S_DeInit
 179:Generated_Source\PSoC6\pdl\drivers\peripheral\i2s/cy_i2s.c **** ****************************************************************************//**
 180:Generated_Source\PSoC6\pdl\drivers\peripheral\i2s/cy_i2s.c **** *
 181:Generated_Source\PSoC6\pdl\drivers\peripheral\i2s/cy_i2s.c **** * Uninitializes the I2S module (reverts default register values).
 182:Generated_Source\PSoC6\pdl\drivers\peripheral\i2s/cy_i2s.c **** *
 183:Generated_Source\PSoC6\pdl\drivers\peripheral\i2s/cy_i2s.c **** * \param base The pointer to the I2S instance address.
 184:Generated_Source\PSoC6\pdl\drivers\peripheral\i2s/cy_i2s.c **** *
 185:Generated_Source\PSoC6\pdl\drivers\peripheral\i2s/cy_i2s.c **** * \funcusage
 186:Generated_Source\PSoC6\pdl\drivers\peripheral\i2s/cy_i2s.c **** * \snippet i2s\2.10\snippet\main.c snippet_Cy_I2S_DeInit
 187:Generated_Source\PSoC6\pdl\drivers\peripheral\i2s/cy_i2s.c **** *
 188:Generated_Source\PSoC6\pdl\drivers\peripheral\i2s/cy_i2s.c **** *******************************************************************************/
 189:Generated_Source\PSoC6\pdl\drivers\peripheral\i2s/cy_i2s.c **** void Cy_I2S_DeInit(I2S_Type * base)
 190:Generated_Source\PSoC6\pdl\drivers\peripheral\i2s/cy_i2s.c **** {
 611              		.loc 1 190 0
 612              		.cfi_startproc
 613              		@ args = 0, pretend = 0, frame = 0
 614              		@ frame_needed = 0, uses_anonymous_args = 0
 615              		@ link register save eliminated.
 616              	.LVL46:
 191:Generated_Source\PSoC6\pdl\drivers\peripheral\i2s/cy_i2s.c ****     REG_I2S_INTR_MASK(base) = 0UL; /* Disable interrupts prior to stopping the operation */
 617              		.loc 1 191 0
 618 0000 0023     		movs	r3, #0
 619 0002 C0F8083F 		str	r3, [r0, #3848]
 192:Generated_Source\PSoC6\pdl\drivers\peripheral\i2s/cy_i2s.c ****     REG_I2S_CMD(base) = 0UL;
 620              		.loc 1 192 0
 621 0006 0362     		str	r3, [r0, #32]
 193:Generated_Source\PSoC6\pdl\drivers\peripheral\i2s/cy_i2s.c ****     REG_I2S_TR_CTL(base) = 0UL;
 622              		.loc 1 193 0
 623 0008 0364     		str	r3, [r0, #64]
ARM GAS  C:\Users\dev\AppData\Local\Temp\ccJYAN2E.s 			page 16


 194:Generated_Source\PSoC6\pdl\drivers\peripheral\i2s/cy_i2s.c ****     REG_I2S_TX_FIFO_CTL(base) = 0UL;
 624              		.loc 1 194 0
 625 000a C0F80032 		str	r3, [r0, #512]
 195:Generated_Source\PSoC6\pdl\drivers\peripheral\i2s/cy_i2s.c ****     REG_I2S_RX_FIFO_CTL(base) = 0UL;
 626              		.loc 1 195 0
 627 000e C0F80033 		str	r3, [r0, #768]
 196:Generated_Source\PSoC6\pdl\drivers\peripheral\i2s/cy_i2s.c ****     REG_I2S_CTL(base) = 0UL;
 628              		.loc 1 196 0
 629 0012 0360     		str	r3, [r0]
 197:Generated_Source\PSoC6\pdl\drivers\peripheral\i2s/cy_i2s.c ****     REG_I2S_TX_CTL(base) = CY_I2S_TX_CTL_DEFAULT;
 630              		.loc 1 197 0
 631 0014 054A     		ldr	r2, .L65
 632 0016 C0F88020 		str	r2, [r0, #128]
 198:Generated_Source\PSoC6\pdl\drivers\peripheral\i2s/cy_i2s.c ****     REG_I2S_RX_CTL(base) = CY_I2S_RX_CTL_DEFAULT;
 633              		.loc 1 198 0
 634 001a C0F8A020 		str	r2, [r0, #160]
 199:Generated_Source\PSoC6\pdl\drivers\peripheral\i2s/cy_i2s.c ****     REG_I2S_TX_WATCHDOG(base) = 0UL;
 635              		.loc 1 199 0
 636 001e C0F88430 		str	r3, [r0, #132]
 200:Generated_Source\PSoC6\pdl\drivers\peripheral\i2s/cy_i2s.c ****     REG_I2S_RX_WATCHDOG(base) = 0UL;
 637              		.loc 1 200 0
 638 0022 C0F8A430 		str	r3, [r0, #164]
 201:Generated_Source\PSoC6\pdl\drivers\peripheral\i2s/cy_i2s.c ****     REG_I2S_CLOCK_CTL(base) = 0UL;
 639              		.loc 1 201 0
 640 0026 0361     		str	r3, [r0, #16]
 641 0028 7047     		bx	lr
 642              	.L66:
 643 002a 00BF     		.align	2
 644              	.L65:
 645 002c 10064400 		.word	4458000
 646              		.cfi_endproc
 647              	.LFE195:
 648              		.size	Cy_I2S_DeInit, .-Cy_I2S_DeInit
 649              		.section	.text.Cy_I2S_DeepSleepCallback,"ax",%progbits
 650              		.align	2
 651              		.global	Cy_I2S_DeepSleepCallback
 652              		.thumb
 653              		.thumb_func
 654              		.type	Cy_I2S_DeepSleepCallback, %function
 655              	Cy_I2S_DeepSleepCallback:
 656              	.LFB196:
 202:Generated_Source\PSoC6\pdl\drivers\peripheral\i2s/cy_i2s.c **** }
 203:Generated_Source\PSoC6\pdl\drivers\peripheral\i2s/cy_i2s.c **** 
 204:Generated_Source\PSoC6\pdl\drivers\peripheral\i2s/cy_i2s.c **** 
 205:Generated_Source\PSoC6\pdl\drivers\peripheral\i2s/cy_i2s.c **** /*******************************************************************************
 206:Generated_Source\PSoC6\pdl\drivers\peripheral\i2s/cy_i2s.c **** * Function Name: Cy_I2S_DeepSleepCallback
 207:Generated_Source\PSoC6\pdl\drivers\peripheral\i2s/cy_i2s.c **** ****************************************************************************//**
 208:Generated_Source\PSoC6\pdl\drivers\peripheral\i2s/cy_i2s.c **** *
 209:Generated_Source\PSoC6\pdl\drivers\peripheral\i2s/cy_i2s.c **** * This is a callback function to be used at the application layer to
 210:Generated_Source\PSoC6\pdl\drivers\peripheral\i2s/cy_i2s.c **** * manage an I2S operation during the Deep Sleep cycle. It stores the I2S state 
 211:Generated_Source\PSoC6\pdl\drivers\peripheral\i2s/cy_i2s.c **** * (Tx/Rx enabled/disabled/paused) into the context structure and stops the 
 212:Generated_Source\PSoC6\pdl\drivers\peripheral\i2s/cy_i2s.c **** * communication before entering into Deep Sleep power mode and restores the I2S
 213:Generated_Source\PSoC6\pdl\drivers\peripheral\i2s/cy_i2s.c **** * state after waking up.
 214:Generated_Source\PSoC6\pdl\drivers\peripheral\i2s/cy_i2s.c **** *
 215:Generated_Source\PSoC6\pdl\drivers\peripheral\i2s/cy_i2s.c **** * \param 
 216:Generated_Source\PSoC6\pdl\drivers\peripheral\i2s/cy_i2s.c **** * callbackParams - The pointer to the callback parameters structure, 
 217:Generated_Source\PSoC6\pdl\drivers\peripheral\i2s/cy_i2s.c **** * see \ref cy_stc_syspm_callback_params_t.
ARM GAS  C:\Users\dev\AppData\Local\Temp\ccJYAN2E.s 			page 17


 218:Generated_Source\PSoC6\pdl\drivers\peripheral\i2s/cy_i2s.c **** *
 219:Generated_Source\PSoC6\pdl\drivers\peripheral\i2s/cy_i2s.c **** * \param mode
 220:Generated_Source\PSoC6\pdl\drivers\peripheral\i2s/cy_i2s.c **** * Callback mode, see \ref cy_en_syspm_callback_mode_t
 221:Generated_Source\PSoC6\pdl\drivers\peripheral\i2s/cy_i2s.c **** *
 222:Generated_Source\PSoC6\pdl\drivers\peripheral\i2s/cy_i2s.c **** * \return the SysPm callback status \ref cy_en_syspm_status_t.
 223:Generated_Source\PSoC6\pdl\drivers\peripheral\i2s/cy_i2s.c **** *
 224:Generated_Source\PSoC6\pdl\drivers\peripheral\i2s/cy_i2s.c **** * \note Use the \ref cy_stc_i2s_context_t data type for definition of the 
 225:Generated_Source\PSoC6\pdl\drivers\peripheral\i2s/cy_i2s.c **** * *context element of the \ref cy_stc_syspm_callback_params_t structure.
 226:Generated_Source\PSoC6\pdl\drivers\peripheral\i2s/cy_i2s.c **** *
 227:Generated_Source\PSoC6\pdl\drivers\peripheral\i2s/cy_i2s.c **** * \funcusage
 228:Generated_Source\PSoC6\pdl\drivers\peripheral\i2s/cy_i2s.c **** * \snippet i2s\2.10\snippet\main.c snippet_Cy_I2S_DeepSleepCallback
 229:Generated_Source\PSoC6\pdl\drivers\peripheral\i2s/cy_i2s.c **** *
 230:Generated_Source\PSoC6\pdl\drivers\peripheral\i2s/cy_i2s.c **** *******************************************************************************/
 231:Generated_Source\PSoC6\pdl\drivers\peripheral\i2s/cy_i2s.c **** cy_en_syspm_status_t Cy_I2S_DeepSleepCallback (cy_stc_syspm_callback_params_t *callbackParams, cy_e
 232:Generated_Source\PSoC6\pdl\drivers\peripheral\i2s/cy_i2s.c **** {
 657              		.loc 1 232 0
 658              		.cfi_startproc
 659              		@ args = 0, pretend = 0, frame = 0
 660              		@ frame_needed = 0, uses_anonymous_args = 0
 661              	.LVL47:
 662 0000 70B5     		push	{r4, r5, r6, lr}
 663              		.cfi_def_cfa_offset 16
 664              		.cfi_offset 4, -16
 665              		.cfi_offset 5, -12
 666              		.cfi_offset 6, -8
 667              		.cfi_offset 14, -4
 668 0002 0646     		mov	r6, r0
 669 0004 0D46     		mov	r5, r1
 670              	.LVL48:
 233:Generated_Source\PSoC6\pdl\drivers\peripheral\i2s/cy_i2s.c ****     cy_en_syspm_status_t ret = CY_SYSPM_SUCCESS;
 234:Generated_Source\PSoC6\pdl\drivers\peripheral\i2s/cy_i2s.c ****     CY_ASSERT_L1(NULL != callbackParams->context);
 671              		.loc 1 234 0
 672 0006 4368     		ldr	r3, [r0, #4]
 673 0008 1BB9     		cbnz	r3, .L68
 674              		.loc 1 234 0 is_stmt 0 discriminator 1
 675 000a EA21     		movs	r1, #234
 676              	.LVL49:
 677 000c 4048     		ldr	r0, .L83
 678              	.LVL50:
 679 000e FFF7FEFF 		bl	Cy_SysLib_AssertFailed
 680              	.LVL51:
 681              	.L68:
 235:Generated_Source\PSoC6\pdl\drivers\peripheral\i2s/cy_i2s.c ****     I2S_Type * locBase = (I2S_Type*) callbackParams->base;
 682              		.loc 1 235 0 is_stmt 1
 683 0012 3468     		ldr	r4, [r6]
 684              	.LVL52:
 236:Generated_Source\PSoC6\pdl\drivers\peripheral\i2s/cy_i2s.c ****     uint32_t * locInterruptMask = (uint32_t*) &(((cy_stc_i2s_context_t*)(callbackParams->context))-
 685              		.loc 1 236 0
 686 0014 7668     		ldr	r6, [r6, #4]
 687              	.LVL53:
 237:Generated_Source\PSoC6\pdl\drivers\peripheral\i2s/cy_i2s.c ****     uint32_t * locState = (uint32_t*) &(((cy_stc_i2s_context_t*)(callbackParams->context))->enableS
 238:Generated_Source\PSoC6\pdl\drivers\peripheral\i2s/cy_i2s.c ****     
 239:Generated_Source\PSoC6\pdl\drivers\peripheral\i2s/cy_i2s.c ****     switch(mode)
 688              		.loc 1 239 0
 689 0016 691E     		subs	r1, r5, #1
 690 0018 0729     		cmp	r1, #7
 691 001a 76D8     		bhi	.L81
ARM GAS  C:\Users\dev\AppData\Local\Temp\ccJYAN2E.s 			page 18


 692 001c DFE801F0 		tbb	[pc, r1]
 693              	.L71:
 694 0020 04       		.byte	(.L70-.L71)/2
 695 0021 04       		.byte	(.L70-.L71)/2
 696 0022 75       		.byte	(.L81-.L71)/2
 697 0023 06       		.byte	(.L72-.L71)/2
 698 0024 75       		.byte	(.L81-.L71)/2
 699 0025 75       		.byte	(.L81-.L71)/2
 700 0026 75       		.byte	(.L81-.L71)/2
 701 0027 22       		.byte	(.L73-.L71)/2
 702              		.p2align 1
 703              	.L70:
 233:Generated_Source\PSoC6\pdl\drivers\peripheral\i2s/cy_i2s.c ****     CY_ASSERT_L1(NULL != callbackParams->context);
 704              		.loc 1 233 0
 705 0028 0020     		movs	r0, #0
 706 002a 70BD     		pop	{r4, r5, r6, pc}
 707              	.LVL54:
 708              	.L72:
 709              	.LBB32:
 710              	.LBB33:
 711              		.file 2 "Generated_Source\\PSoC6\\pdl\\drivers\\peripheral\\i2s\\cy_i2s.h"
   1:Generated_Source\PSoC6\pdl\drivers\peripheral\i2s/cy_i2s.h **** /***************************************************************************//**
   2:Generated_Source\PSoC6\pdl\drivers\peripheral\i2s/cy_i2s.h **** * \file cy_i2s.h
   3:Generated_Source\PSoC6\pdl\drivers\peripheral\i2s/cy_i2s.h **** * \version 2.10
   4:Generated_Source\PSoC6\pdl\drivers\peripheral\i2s/cy_i2s.h **** * 
   5:Generated_Source\PSoC6\pdl\drivers\peripheral\i2s/cy_i2s.h **** * The header file of the I2S driver.
   6:Generated_Source\PSoC6\pdl\drivers\peripheral\i2s/cy_i2s.h **** *
   7:Generated_Source\PSoC6\pdl\drivers\peripheral\i2s/cy_i2s.h **** ********************************************************************************
   8:Generated_Source\PSoC6\pdl\drivers\peripheral\i2s/cy_i2s.h **** * \copyright
   9:Generated_Source\PSoC6\pdl\drivers\peripheral\i2s/cy_i2s.h **** * Copyright 2016-2018, Cypress Semiconductor Corporation. All rights reserved.
  10:Generated_Source\PSoC6\pdl\drivers\peripheral\i2s/cy_i2s.h **** * You may use this file only in accordance with the license, terms, conditions,
  11:Generated_Source\PSoC6\pdl\drivers\peripheral\i2s/cy_i2s.h **** * disclaimers, and limitations in the end user license agreement accompanying
  12:Generated_Source\PSoC6\pdl\drivers\peripheral\i2s/cy_i2s.h **** * the software package with which this file was provided.
  13:Generated_Source\PSoC6\pdl\drivers\peripheral\i2s/cy_i2s.h **** *******************************************************************************/
  14:Generated_Source\PSoC6\pdl\drivers\peripheral\i2s/cy_i2s.h **** 
  15:Generated_Source\PSoC6\pdl\drivers\peripheral\i2s/cy_i2s.h **** /**
  16:Generated_Source\PSoC6\pdl\drivers\peripheral\i2s/cy_i2s.h **** * \addtogroup group_i2s
  17:Generated_Source\PSoC6\pdl\drivers\peripheral\i2s/cy_i2s.h **** * \{
  18:Generated_Source\PSoC6\pdl\drivers\peripheral\i2s/cy_i2s.h **** * The I2S driver provides a function API to manage Inter-IC Sound. 
  19:Generated_Source\PSoC6\pdl\drivers\peripheral\i2s/cy_i2s.h **** *
  20:Generated_Source\PSoC6\pdl\drivers\peripheral\i2s/cy_i2s.h **** * The functions and other declarations used in this driver are in cy_i2s.h. 
  21:Generated_Source\PSoC6\pdl\drivers\peripheral\i2s/cy_i2s.h **** * You can include cy_pdl.h (ModusToolbox only) to get access to all functions 
  22:Generated_Source\PSoC6\pdl\drivers\peripheral\i2s/cy_i2s.h **** * and declarations in the PDL.
  23:Generated_Source\PSoC6\pdl\drivers\peripheral\i2s/cy_i2s.h **** *
  24:Generated_Source\PSoC6\pdl\drivers\peripheral\i2s/cy_i2s.h **** * I2S is used to send digital audio streaming data to external I2S devices,  
  25:Generated_Source\PSoC6\pdl\drivers\peripheral\i2s/cy_i2s.h **** * such as audio codecs or simple DACs. It can also receive digital audio streaming data.
  26:Generated_Source\PSoC6\pdl\drivers\peripheral\i2s/cy_i2s.h **** *
  27:Generated_Source\PSoC6\pdl\drivers\peripheral\i2s/cy_i2s.h **** * Features:
  28:Generated_Source\PSoC6\pdl\drivers\peripheral\i2s/cy_i2s.h **** * * An industry standard NXP I2S interface.
  29:Generated_Source\PSoC6\pdl\drivers\peripheral\i2s/cy_i2s.h **** * * Supports master/slave TX/RX operation.
  30:Generated_Source\PSoC6\pdl\drivers\peripheral\i2s/cy_i2s.h **** * * Programmable Channel/Word Lengths.
  31:Generated_Source\PSoC6\pdl\drivers\peripheral\i2s/cy_i2s.h **** * * Supports External Clock operation.
  32:Generated_Source\PSoC6\pdl\drivers\peripheral\i2s/cy_i2s.h **** *
  33:Generated_Source\PSoC6\pdl\drivers\peripheral\i2s/cy_i2s.h **** * The I2S bus is an industry standard. The hardware interface was 
  34:Generated_Source\PSoC6\pdl\drivers\peripheral\i2s/cy_i2s.h **** * developed by Philips Semiconductors (now NXP Semiconductors). 
  35:Generated_Source\PSoC6\pdl\drivers\peripheral\i2s/cy_i2s.h **** *
  36:Generated_Source\PSoC6\pdl\drivers\peripheral\i2s/cy_i2s.h **** * \section group_i2s_configuration_considerations Configuration Considerations
ARM GAS  C:\Users\dev\AppData\Local\Temp\ccJYAN2E.s 			page 19


  37:Generated_Source\PSoC6\pdl\drivers\peripheral\i2s/cy_i2s.h **** *
  38:Generated_Source\PSoC6\pdl\drivers\peripheral\i2s/cy_i2s.h **** * To set up an I2S, provide the configuration parameters in the
  39:Generated_Source\PSoC6\pdl\drivers\peripheral\i2s/cy_i2s.h **** * \ref cy_stc_i2s_config_t structure. 
  40:Generated_Source\PSoC6\pdl\drivers\peripheral\i2s/cy_i2s.h **** * 
  41:Generated_Source\PSoC6\pdl\drivers\peripheral\i2s/cy_i2s.h **** * For example, for Tx configuration, set txEnabled to true, configure
  42:Generated_Source\PSoC6\pdl\drivers\peripheral\i2s/cy_i2s.h **** * txDmaTrigger (depending on whether DMA is going to be used or not), set
  43:Generated_Source\PSoC6\pdl\drivers\peripheral\i2s/cy_i2s.h **** * extClk (if an external clock is used), provide clkDiv, txMasterMode,
  44:Generated_Source\PSoC6\pdl\drivers\peripheral\i2s/cy_i2s.h **** * txAlignment, txChannels (only are is supported in I2S and Left Justified modes)
  45:Generated_Source\PSoC6\pdl\drivers\peripheral\i2s/cy_i2s.h **** * txSdoLatchingTime (for slave mode only), txChannelLength, txWordLength,
  46:Generated_Source\PSoC6\pdl\drivers\peripheral\i2s/cy_i2s.h **** * txWsPulseWidth (for TMD modes only), txWatchdogEnable and txWatchdogValue
  47:Generated_Source\PSoC6\pdl\drivers\peripheral\i2s/cy_i2s.h **** * (both for Slave mode only, and when the watchdog interrupt will be used),
  48:Generated_Source\PSoC6\pdl\drivers\peripheral\i2s/cy_i2s.h **** * either txSckoInversion or txSckiInversion (based on txMasterMode setting),
  49:Generated_Source\PSoC6\pdl\drivers\peripheral\i2s/cy_i2s.h **** * txFifoTriggerLevel (when the Trig interrupt will be used) and txOverheadValue
  50:Generated_Source\PSoC6\pdl\drivers\peripheral\i2s/cy_i2s.h **** * (only when the word length is less than channel length).
  51:Generated_Source\PSoC6\pdl\drivers\peripheral\i2s/cy_i2s.h **** * A similar setup is for the Rx configuration.
  52:Generated_Source\PSoC6\pdl\drivers\peripheral\i2s/cy_i2s.h **** *
  53:Generated_Source\PSoC6\pdl\drivers\peripheral\i2s/cy_i2s.h **** * To initialize the I2S block, call the \ref Cy_I2S_Init function, providing the
  54:Generated_Source\PSoC6\pdl\drivers\peripheral\i2s/cy_i2s.h **** * filled \ref cy_stc_i2s_config_t structure.
  55:Generated_Source\PSoC6\pdl\drivers\peripheral\i2s/cy_i2s.h **** * Before starting the transmission, clear the FIFO \ref Cy_I2S_ClearTxFifo, then
  56:Generated_Source\PSoC6\pdl\drivers\peripheral\i2s/cy_i2s.h **** * fill the first Tx data frame by calling \ref Cy_I2S_WriteTxData once for each
  57:Generated_Source\PSoC6\pdl\drivers\peripheral\i2s/cy_i2s.h **** * channel (e.g. twice for I2S mode with only two channels) with zero data. Then
  58:Generated_Source\PSoC6\pdl\drivers\peripheral\i2s/cy_i2s.h **** * call the \ref Cy_I2S_EnableTx itself.
  59:Generated_Source\PSoC6\pdl\drivers\peripheral\i2s/cy_i2s.h **** * For the reception the sequence is the same except for filling the first data
  60:Generated_Source\PSoC6\pdl\drivers\peripheral\i2s/cy_i2s.h **** * frame. Only clearing RX FIFO is enough.
  61:Generated_Source\PSoC6\pdl\drivers\peripheral\i2s/cy_i2s.h **** *
  62:Generated_Source\PSoC6\pdl\drivers\peripheral\i2s/cy_i2s.h **** * For example:
  63:Generated_Source\PSoC6\pdl\drivers\peripheral\i2s/cy_i2s.h **** * \snippet i2s\2.10\snippet\main.c snippet_Cy_I2S_Init
  64:Generated_Source\PSoC6\pdl\drivers\peripheral\i2s/cy_i2s.h **** * 
  65:Generated_Source\PSoC6\pdl\drivers\peripheral\i2s/cy_i2s.h **** * If you use a DMA, the DMA channel should be previously configured. The I2S interrupts 
  66:Generated_Source\PSoC6\pdl\drivers\peripheral\i2s/cy_i2s.h **** * (if applicable) can be enabled by calling \ref Cy_I2S_SetInterruptMask.
  67:Generated_Source\PSoC6\pdl\drivers\peripheral\i2s/cy_i2s.h **** *
  68:Generated_Source\PSoC6\pdl\drivers\peripheral\i2s/cy_i2s.h **** * For example, if the trigger interrupt is used during operation, the ISR
  69:Generated_Source\PSoC6\pdl\drivers\peripheral\i2s/cy_i2s.h **** * should call the \ref Cy_I2S_WriteTxData as many times as required for your 
  70:Generated_Source\PSoC6\pdl\drivers\peripheral\i2s/cy_i2s.h **** * FIFO payload, but not more than the FIFO size. Then call \ref Cy_I2S_ClearInterrupt 
  71:Generated_Source\PSoC6\pdl\drivers\peripheral\i2s/cy_i2s.h **** * with appropriate parameters.
  72:Generated_Source\PSoC6\pdl\drivers\peripheral\i2s/cy_i2s.h **** *
  73:Generated_Source\PSoC6\pdl\drivers\peripheral\i2s/cy_i2s.h **** * The I2S/Left Justified data formats always contains two data channels.
  74:Generated_Source\PSoC6\pdl\drivers\peripheral\i2s/cy_i2s.h **** * They are ordered one-by-one in the FIFOs and left always goes first.
  75:Generated_Source\PSoC6\pdl\drivers\peripheral\i2s/cy_i2s.h **** * So in case of mono audio stream transmission, each sample can be put twice
  76:Generated_Source\PSoC6\pdl\drivers\peripheral\i2s/cy_i2s.h **** * into the TX FIFO (in this case both channels will sound the same),
  77:Generated_Source\PSoC6\pdl\drivers\peripheral\i2s/cy_i2s.h **** * or combined with zeroes: sample1-zero-sample2-zero (in this case only the
  78:Generated_Source\PSoC6\pdl\drivers\peripheral\i2s/cy_i2s.h **** * left channel will finally sound, for a right-only case, zero should go first).
  79:Generated_Source\PSoC6\pdl\drivers\peripheral\i2s/cy_i2s.h **** * The TDM frame word order in FIFOs is similar, one-by-one.
  80:Generated_Source\PSoC6\pdl\drivers\peripheral\i2s/cy_i2s.h **** * 
  81:Generated_Source\PSoC6\pdl\drivers\peripheral\i2s/cy_i2s.h **** * If a DMA is used and the DMA channel is properly configured - no CPU activity
  82:Generated_Source\PSoC6\pdl\drivers\peripheral\i2s/cy_i2s.h **** * (or any application code) is needed for I2S operation.
  83:Generated_Source\PSoC6\pdl\drivers\peripheral\i2s/cy_i2s.h **** *
  84:Generated_Source\PSoC6\pdl\drivers\peripheral\i2s/cy_i2s.h **** * The I2S frame appears as:
  85:Generated_Source\PSoC6\pdl\drivers\peripheral\i2s/cy_i2s.h **** * \image html i2s_frame.png
  86:Generated_Source\PSoC6\pdl\drivers\peripheral\i2s/cy_i2s.h **** * This is an example for the channel length = 32. A similar case exists for the rest
  87:Generated_Source\PSoC6\pdl\drivers\peripheral\i2s/cy_i2s.h **** * channel lengths, with one limitation: the word length could be less than or equal
  88:Generated_Source\PSoC6\pdl\drivers\peripheral\i2s/cy_i2s.h **** * to the channel length. See the device technical reference manual (TRM)
  89:Generated_Source\PSoC6\pdl\drivers\peripheral\i2s/cy_i2s.h **** * for more details.
  90:Generated_Source\PSoC6\pdl\drivers\peripheral\i2s/cy_i2s.h **** *
  91:Generated_Source\PSoC6\pdl\drivers\peripheral\i2s/cy_i2s.h **** * \section group_i2s_more_information More Information
  92:Generated_Source\PSoC6\pdl\drivers\peripheral\i2s/cy_i2s.h **** * See: the the I2S chapter of the device technical reference manual (TRM);
  93:Generated_Source\PSoC6\pdl\drivers\peripheral\i2s/cy_i2s.h **** *      I2S_PDL Component datasheet;
ARM GAS  C:\Users\dev\AppData\Local\Temp\ccJYAN2E.s 			page 20


  94:Generated_Source\PSoC6\pdl\drivers\peripheral\i2s/cy_i2s.h **** *      CE218636 - PSOC 6 MCU INTER-IC SOUND (I2S) EXAMPLE.
  95:Generated_Source\PSoC6\pdl\drivers\peripheral\i2s/cy_i2s.h **** *
  96:Generated_Source\PSoC6\pdl\drivers\peripheral\i2s/cy_i2s.h **** * \section group_i2s_MISRA MISRA-C Compliance
  97:Generated_Source\PSoC6\pdl\drivers\peripheral\i2s/cy_i2s.h **** * The I2S driver has the following specific deviations:
  98:Generated_Source\PSoC6\pdl\drivers\peripheral\i2s/cy_i2s.h **** * <table class="doxtable">
  99:Generated_Source\PSoC6\pdl\drivers\peripheral\i2s/cy_i2s.h **** *   <tr>
 100:Generated_Source\PSoC6\pdl\drivers\peripheral\i2s/cy_i2s.h **** *     <th>MISRA Rule</th>
 101:Generated_Source\PSoC6\pdl\drivers\peripheral\i2s/cy_i2s.h **** *     <th>Rule Class (Required/Advisory)</th>
 102:Generated_Source\PSoC6\pdl\drivers\peripheral\i2s/cy_i2s.h **** *     <th>Rule Description</th>
 103:Generated_Source\PSoC6\pdl\drivers\peripheral\i2s/cy_i2s.h **** *     <th>Description of Deviation(s)</th>
 104:Generated_Source\PSoC6\pdl\drivers\peripheral\i2s/cy_i2s.h **** *   </tr>
 105:Generated_Source\PSoC6\pdl\drivers\peripheral\i2s/cy_i2s.h **** *   <tr>
 106:Generated_Source\PSoC6\pdl\drivers\peripheral\i2s/cy_i2s.h **** *     <td>11.4</td>
 107:Generated_Source\PSoC6\pdl\drivers\peripheral\i2s/cy_i2s.h **** *     <td>A</td>
 108:Generated_Source\PSoC6\pdl\drivers\peripheral\i2s/cy_i2s.h **** *     <td>A cast should not be performed between a pointer to the object type and
 109:Generated_Source\PSoC6\pdl\drivers\peripheral\i2s/cy_i2s.h **** *         a different pointer to the object type.</td>
 110:Generated_Source\PSoC6\pdl\drivers\peripheral\i2s/cy_i2s.h **** *     <td>The function \ref Cy_I2S_DeepSleepCallback is a callback of
 111:Generated_Source\PSoC6\pdl\drivers\peripheral\i2s/cy_i2s.h **** *         \ref cy_en_syspm_status_t type. The cast operation safety in this
 112:Generated_Source\PSoC6\pdl\drivers\peripheral\i2s/cy_i2s.h **** *         function becomes the user responsibility because the pointer is
 113:Generated_Source\PSoC6\pdl\drivers\peripheral\i2s/cy_i2s.h **** *         initialized when a callback is registered in the SysPm driver.</td>
 114:Generated_Source\PSoC6\pdl\drivers\peripheral\i2s/cy_i2s.h **** *   </tr>
 115:Generated_Source\PSoC6\pdl\drivers\peripheral\i2s/cy_i2s.h **** * </table>
 116:Generated_Source\PSoC6\pdl\drivers\peripheral\i2s/cy_i2s.h **** *
 117:Generated_Source\PSoC6\pdl\drivers\peripheral\i2s/cy_i2s.h **** * \section group_i2s_changelog Changelog
 118:Generated_Source\PSoC6\pdl\drivers\peripheral\i2s/cy_i2s.h **** * <table class="doxtable">
 119:Generated_Source\PSoC6\pdl\drivers\peripheral\i2s/cy_i2s.h **** *   <tr><th>Version</th><th>Changes</th><th>Reason for Change</th></tr>
 120:Generated_Source\PSoC6\pdl\drivers\peripheral\i2s/cy_i2s.h **** *   <tr>
 121:Generated_Source\PSoC6\pdl\drivers\peripheral\i2s/cy_i2s.h **** *     <td rowspan="2">2.10</td>
 122:Generated_Source\PSoC6\pdl\drivers\peripheral\i2s/cy_i2s.h **** *     <td>Flattened the organization of the driver source code into the single 
 123:Generated_Source\PSoC6\pdl\drivers\peripheral\i2s/cy_i2s.h **** *         source directory and the single include directory.
 124:Generated_Source\PSoC6\pdl\drivers\peripheral\i2s/cy_i2s.h **** *     </td>
 125:Generated_Source\PSoC6\pdl\drivers\peripheral\i2s/cy_i2s.h **** *     <td>Driver library directory-structure simplification.</td>
 126:Generated_Source\PSoC6\pdl\drivers\peripheral\i2s/cy_i2s.h **** *   </tr>
 127:Generated_Source\PSoC6\pdl\drivers\peripheral\i2s/cy_i2s.h **** *   <tr>
 128:Generated_Source\PSoC6\pdl\drivers\peripheral\i2s/cy_i2s.h **** *     <td>Added register access layer. Use register access macros instead
 129:Generated_Source\PSoC6\pdl\drivers\peripheral\i2s/cy_i2s.h **** *         of direct register access using dereferenced pointers.</td>
 130:Generated_Source\PSoC6\pdl\drivers\peripheral\i2s/cy_i2s.h **** *     <td>Makes register access device-independent, so that the PDL does 
 131:Generated_Source\PSoC6\pdl\drivers\peripheral\i2s/cy_i2s.h **** *         not need to be recompiled for each supported part number.</td>
 132:Generated_Source\PSoC6\pdl\drivers\peripheral\i2s/cy_i2s.h **** *   </tr>
 133:Generated_Source\PSoC6\pdl\drivers\peripheral\i2s/cy_i2s.h **** *   <tr>
 134:Generated_Source\PSoC6\pdl\drivers\peripheral\i2s/cy_i2s.h **** *     <td>2.0.1</td>
 135:Generated_Source\PSoC6\pdl\drivers\peripheral\i2s/cy_i2s.h **** *     <td>Added Low Power Callback section</td>
 136:Generated_Source\PSoC6\pdl\drivers\peripheral\i2s/cy_i2s.h **** *     <td>Documentation update and clarification</td>
 137:Generated_Source\PSoC6\pdl\drivers\peripheral\i2s/cy_i2s.h **** *   </tr>
 138:Generated_Source\PSoC6\pdl\drivers\peripheral\i2s/cy_i2s.h **** *   <tr>
 139:Generated_Source\PSoC6\pdl\drivers\peripheral\i2s/cy_i2s.h **** *     <td>2.0</td>
 140:Generated_Source\PSoC6\pdl\drivers\peripheral\i2s/cy_i2s.h **** *     <td>The slave operation is added, Left Justified and TDM modes are added</td>
 141:Generated_Source\PSoC6\pdl\drivers\peripheral\i2s/cy_i2s.h **** *     <td></td>
 142:Generated_Source\PSoC6\pdl\drivers\peripheral\i2s/cy_i2s.h **** *   </tr>
 143:Generated_Source\PSoC6\pdl\drivers\peripheral\i2s/cy_i2s.h **** *   <tr>
 144:Generated_Source\PSoC6\pdl\drivers\peripheral\i2s/cy_i2s.h **** *     <td>1.0</td>
 145:Generated_Source\PSoC6\pdl\drivers\peripheral\i2s/cy_i2s.h **** *     <td>Initial version</td>
 146:Generated_Source\PSoC6\pdl\drivers\peripheral\i2s/cy_i2s.h **** *     <td></td>
 147:Generated_Source\PSoC6\pdl\drivers\peripheral\i2s/cy_i2s.h **** *   </tr>
 148:Generated_Source\PSoC6\pdl\drivers\peripheral\i2s/cy_i2s.h **** * </table>
 149:Generated_Source\PSoC6\pdl\drivers\peripheral\i2s/cy_i2s.h **** *
 150:Generated_Source\PSoC6\pdl\drivers\peripheral\i2s/cy_i2s.h **** * \defgroup group_i2s_macros Macros
ARM GAS  C:\Users\dev\AppData\Local\Temp\ccJYAN2E.s 			page 21


 151:Generated_Source\PSoC6\pdl\drivers\peripheral\i2s/cy_i2s.h **** * \defgroup group_i2s_functions Functions
 152:Generated_Source\PSoC6\pdl\drivers\peripheral\i2s/cy_i2s.h **** *   \{
 153:Generated_Source\PSoC6\pdl\drivers\peripheral\i2s/cy_i2s.h **** *       \defgroup group_i2s_functions_syspm_callback  Low Power Callback
 154:Generated_Source\PSoC6\pdl\drivers\peripheral\i2s/cy_i2s.h **** *   \}
 155:Generated_Source\PSoC6\pdl\drivers\peripheral\i2s/cy_i2s.h **** * \defgroup group_i2s_data_structures Data Structures
 156:Generated_Source\PSoC6\pdl\drivers\peripheral\i2s/cy_i2s.h **** * \defgroup group_i2s_enums Enumerated Types
 157:Generated_Source\PSoC6\pdl\drivers\peripheral\i2s/cy_i2s.h **** */
 158:Generated_Source\PSoC6\pdl\drivers\peripheral\i2s/cy_i2s.h **** 
 159:Generated_Source\PSoC6\pdl\drivers\peripheral\i2s/cy_i2s.h **** 
 160:Generated_Source\PSoC6\pdl\drivers\peripheral\i2s/cy_i2s.h **** #if !defined CY_I2S_H
 161:Generated_Source\PSoC6\pdl\drivers\peripheral\i2s/cy_i2s.h **** #define CY_I2S_H
 162:Generated_Source\PSoC6\pdl\drivers\peripheral\i2s/cy_i2s.h **** 
 163:Generated_Source\PSoC6\pdl\drivers\peripheral\i2s/cy_i2s.h **** #include <stddef.h>
 164:Generated_Source\PSoC6\pdl\drivers\peripheral\i2s/cy_i2s.h **** #include <stdbool.h>
 165:Generated_Source\PSoC6\pdl\drivers\peripheral\i2s/cy_i2s.h **** #include "cy_device.h"
 166:Generated_Source\PSoC6\pdl\drivers\peripheral\i2s/cy_i2s.h **** #include "cy_syslib.h"
 167:Generated_Source\PSoC6\pdl\drivers\peripheral\i2s/cy_i2s.h **** #include "cy_syspm.h"
 168:Generated_Source\PSoC6\pdl\drivers\peripheral\i2s/cy_i2s.h **** 
 169:Generated_Source\PSoC6\pdl\drivers\peripheral\i2s/cy_i2s.h **** #ifdef CY_IP_MXAUDIOSS
 170:Generated_Source\PSoC6\pdl\drivers\peripheral\i2s/cy_i2s.h **** 
 171:Generated_Source\PSoC6\pdl\drivers\peripheral\i2s/cy_i2s.h **** #ifdef __cplusplus
 172:Generated_Source\PSoC6\pdl\drivers\peripheral\i2s/cy_i2s.h **** extern "C" {
 173:Generated_Source\PSoC6\pdl\drivers\peripheral\i2s/cy_i2s.h **** #endif
 174:Generated_Source\PSoC6\pdl\drivers\peripheral\i2s/cy_i2s.h **** 
 175:Generated_Source\PSoC6\pdl\drivers\peripheral\i2s/cy_i2s.h **** /** \addtogroup group_i2s_macros
 176:Generated_Source\PSoC6\pdl\drivers\peripheral\i2s/cy_i2s.h **** * \{
 177:Generated_Source\PSoC6\pdl\drivers\peripheral\i2s/cy_i2s.h **** */
 178:Generated_Source\PSoC6\pdl\drivers\peripheral\i2s/cy_i2s.h **** 
 179:Generated_Source\PSoC6\pdl\drivers\peripheral\i2s/cy_i2s.h **** /** The driver major version */
 180:Generated_Source\PSoC6\pdl\drivers\peripheral\i2s/cy_i2s.h **** #define CY_I2S_DRV_VERSION_MAJOR       2
 181:Generated_Source\PSoC6\pdl\drivers\peripheral\i2s/cy_i2s.h **** 
 182:Generated_Source\PSoC6\pdl\drivers\peripheral\i2s/cy_i2s.h **** /** The driver minor version */
 183:Generated_Source\PSoC6\pdl\drivers\peripheral\i2s/cy_i2s.h **** #define CY_I2S_DRV_VERSION_MINOR       10
 184:Generated_Source\PSoC6\pdl\drivers\peripheral\i2s/cy_i2s.h **** 
 185:Generated_Source\PSoC6\pdl\drivers\peripheral\i2s/cy_i2s.h **** /** The I2S driver identifier */
 186:Generated_Source\PSoC6\pdl\drivers\peripheral\i2s/cy_i2s.h **** #define CY_I2S_ID                      (CY_PDL_DRV_ID(0x20U))
 187:Generated_Source\PSoC6\pdl\drivers\peripheral\i2s/cy_i2s.h **** 
 188:Generated_Source\PSoC6\pdl\drivers\peripheral\i2s/cy_i2s.h **** /**
 189:Generated_Source\PSoC6\pdl\drivers\peripheral\i2s/cy_i2s.h **** * \defgroup group_i2s_macros_interrupt_masks Interrupt Masks
 190:Generated_Source\PSoC6\pdl\drivers\peripheral\i2s/cy_i2s.h **** * \{
 191:Generated_Source\PSoC6\pdl\drivers\peripheral\i2s/cy_i2s.h **** */
 192:Generated_Source\PSoC6\pdl\drivers\peripheral\i2s/cy_i2s.h **** 
 193:Generated_Source\PSoC6\pdl\drivers\peripheral\i2s/cy_i2s.h **** /** Bit 0: Less entries in the TX FIFO than specified by Trigger Level. */
 194:Generated_Source\PSoC6\pdl\drivers\peripheral\i2s/cy_i2s.h **** #define CY_I2S_INTR_TX_TRIGGER         (I2S_INTR_TX_TRIGGER_Msk)
 195:Generated_Source\PSoC6\pdl\drivers\peripheral\i2s/cy_i2s.h **** /** Bit 1: TX FIFO is not full. */
 196:Generated_Source\PSoC6\pdl\drivers\peripheral\i2s/cy_i2s.h **** #define CY_I2S_INTR_TX_NOT_FULL        (I2S_INTR_TX_NOT_FULL_Msk)
 197:Generated_Source\PSoC6\pdl\drivers\peripheral\i2s/cy_i2s.h **** /** Bit 4: TX FIFO is empty, i.e. it has 0 entries. */
 198:Generated_Source\PSoC6\pdl\drivers\peripheral\i2s/cy_i2s.h **** #define CY_I2S_INTR_TX_EMPTY           (I2S_INTR_TX_EMPTY_Msk)
 199:Generated_Source\PSoC6\pdl\drivers\peripheral\i2s/cy_i2s.h **** /** Bit 5: Attempt to write to a full TX FIFO. */
 200:Generated_Source\PSoC6\pdl\drivers\peripheral\i2s/cy_i2s.h **** #define CY_I2S_INTR_TX_OVERFLOW        (I2S_INTR_TX_OVERFLOW_Msk)
 201:Generated_Source\PSoC6\pdl\drivers\peripheral\i2s/cy_i2s.h **** /** Bit 6: Attempt to read from an empty TX FIFO.
 202:Generated_Source\PSoC6\pdl\drivers\peripheral\i2s/cy_i2s.h **** * This happens when the IP is ready to transfer data and TX_EMPTY is '1'. */
 203:Generated_Source\PSoC6\pdl\drivers\peripheral\i2s/cy_i2s.h **** #define CY_I2S_INTR_TX_UNDERFLOW       (I2S_INTR_TX_UNDERFLOW_Msk)
 204:Generated_Source\PSoC6\pdl\drivers\peripheral\i2s/cy_i2s.h **** /** Bit 8: Tx watchdog event occurs. */
 205:Generated_Source\PSoC6\pdl\drivers\peripheral\i2s/cy_i2s.h **** #define CY_I2S_INTR_TX_WD              (I2S_INTR_TX_WD_Msk)
 206:Generated_Source\PSoC6\pdl\drivers\peripheral\i2s/cy_i2s.h **** /** Bit 16: More entries in the RX FIFO than specified by Trigger Level. */
 207:Generated_Source\PSoC6\pdl\drivers\peripheral\i2s/cy_i2s.h **** #define CY_I2S_INTR_RX_TRIGGER         (I2S_INTR_RX_TRIGGER_Msk)
ARM GAS  C:\Users\dev\AppData\Local\Temp\ccJYAN2E.s 			page 22


 208:Generated_Source\PSoC6\pdl\drivers\peripheral\i2s/cy_i2s.h **** /** Bit 18: RX FIFO is not empty. */
 209:Generated_Source\PSoC6\pdl\drivers\peripheral\i2s/cy_i2s.h **** #define CY_I2S_INTR_RX_NOT_EMPTY       (I2S_INTR_RX_NOT_EMPTY_Msk)
 210:Generated_Source\PSoC6\pdl\drivers\peripheral\i2s/cy_i2s.h **** /** Bit 19: RX FIFO is full. */
 211:Generated_Source\PSoC6\pdl\drivers\peripheral\i2s/cy_i2s.h **** #define CY_I2S_INTR_RX_FULL            (I2S_INTR_RX_FULL_Msk)
 212:Generated_Source\PSoC6\pdl\drivers\peripheral\i2s/cy_i2s.h **** /** Bit 21: Attempt to write to a full RX FIFO. */
 213:Generated_Source\PSoC6\pdl\drivers\peripheral\i2s/cy_i2s.h **** #define CY_I2S_INTR_RX_OVERFLOW        (I2S_INTR_RX_OVERFLOW_Msk)
 214:Generated_Source\PSoC6\pdl\drivers\peripheral\i2s/cy_i2s.h **** /** Bit 22: Attempt to read from an empty RX FIFO. */
 215:Generated_Source\PSoC6\pdl\drivers\peripheral\i2s/cy_i2s.h **** #define CY_I2S_INTR_RX_UNDERFLOW       (I2S_INTR_RX_UNDERFLOW_Msk)
 216:Generated_Source\PSoC6\pdl\drivers\peripheral\i2s/cy_i2s.h **** /** Bit 24: Rx watchdog event occurs. */
 217:Generated_Source\PSoC6\pdl\drivers\peripheral\i2s/cy_i2s.h **** #define CY_I2S_INTR_RX_WD              (I2S_INTR_RX_WD_Msk)
 218:Generated_Source\PSoC6\pdl\drivers\peripheral\i2s/cy_i2s.h **** 
 219:Generated_Source\PSoC6\pdl\drivers\peripheral\i2s/cy_i2s.h **** /** \} group_i2s_macros_interrupt_masks */
 220:Generated_Source\PSoC6\pdl\drivers\peripheral\i2s/cy_i2s.h **** 
 221:Generated_Source\PSoC6\pdl\drivers\peripheral\i2s/cy_i2s.h **** 
 222:Generated_Source\PSoC6\pdl\drivers\peripheral\i2s/cy_i2s.h **** /**
 223:Generated_Source\PSoC6\pdl\drivers\peripheral\i2s/cy_i2s.h **** * \defgroup group_i2s_macros_current_state Current State
 224:Generated_Source\PSoC6\pdl\drivers\peripheral\i2s/cy_i2s.h **** * \{
 225:Generated_Source\PSoC6\pdl\drivers\peripheral\i2s/cy_i2s.h **** */
 226:Generated_Source\PSoC6\pdl\drivers\peripheral\i2s/cy_i2s.h **** 
 227:Generated_Source\PSoC6\pdl\drivers\peripheral\i2s/cy_i2s.h **** /** Transmission is active */ 
 228:Generated_Source\PSoC6\pdl\drivers\peripheral\i2s/cy_i2s.h **** #define CY_I2S_TX_START                (I2S_CMD_TX_START_Msk)
 229:Generated_Source\PSoC6\pdl\drivers\peripheral\i2s/cy_i2s.h **** /** Transmission is paused */
 230:Generated_Source\PSoC6\pdl\drivers\peripheral\i2s/cy_i2s.h **** #define CY_I2S_TX_PAUSE                (I2S_CMD_TX_PAUSE_Msk)
 231:Generated_Source\PSoC6\pdl\drivers\peripheral\i2s/cy_i2s.h **** /** Reception is active */
 232:Generated_Source\PSoC6\pdl\drivers\peripheral\i2s/cy_i2s.h **** #define CY_I2S_RX_START                (I2S_CMD_RX_START_Msk)
 233:Generated_Source\PSoC6\pdl\drivers\peripheral\i2s/cy_i2s.h **** 
 234:Generated_Source\PSoC6\pdl\drivers\peripheral\i2s/cy_i2s.h **** /** \} group_i2s_macros_current_state */
 235:Generated_Source\PSoC6\pdl\drivers\peripheral\i2s/cy_i2s.h **** 
 236:Generated_Source\PSoC6\pdl\drivers\peripheral\i2s/cy_i2s.h **** /** \} group_i2s_macros */
 237:Generated_Source\PSoC6\pdl\drivers\peripheral\i2s/cy_i2s.h **** 
 238:Generated_Source\PSoC6\pdl\drivers\peripheral\i2s/cy_i2s.h **** /**
 239:Generated_Source\PSoC6\pdl\drivers\peripheral\i2s/cy_i2s.h **** * \addtogroup group_i2s_enums
 240:Generated_Source\PSoC6\pdl\drivers\peripheral\i2s/cy_i2s.h **** * \{
 241:Generated_Source\PSoC6\pdl\drivers\peripheral\i2s/cy_i2s.h **** */
 242:Generated_Source\PSoC6\pdl\drivers\peripheral\i2s/cy_i2s.h **** 
 243:Generated_Source\PSoC6\pdl\drivers\peripheral\i2s/cy_i2s.h **** /**
 244:Generated_Source\PSoC6\pdl\drivers\peripheral\i2s/cy_i2s.h **** * I2S status definitions.
 245:Generated_Source\PSoC6\pdl\drivers\peripheral\i2s/cy_i2s.h **** */
 246:Generated_Source\PSoC6\pdl\drivers\peripheral\i2s/cy_i2s.h **** 
 247:Generated_Source\PSoC6\pdl\drivers\peripheral\i2s/cy_i2s.h **** typedef enum 
 248:Generated_Source\PSoC6\pdl\drivers\peripheral\i2s/cy_i2s.h **** {
 249:Generated_Source\PSoC6\pdl\drivers\peripheral\i2s/cy_i2s.h ****     CY_I2S_SUCCESS   = 0x00UL, /**< Successful. */
 250:Generated_Source\PSoC6\pdl\drivers\peripheral\i2s/cy_i2s.h ****     CY_I2S_BAD_PARAM = CY_I2S_ID | CY_PDL_STATUS_ERROR | 0x01UL /**< One or more invalid parameters
 251:Generated_Source\PSoC6\pdl\drivers\peripheral\i2s/cy_i2s.h **** } cy_en_i2s_status_t;
 252:Generated_Source\PSoC6\pdl\drivers\peripheral\i2s/cy_i2s.h **** 
 253:Generated_Source\PSoC6\pdl\drivers\peripheral\i2s/cy_i2s.h **** 
 254:Generated_Source\PSoC6\pdl\drivers\peripheral\i2s/cy_i2s.h **** /**
 255:Generated_Source\PSoC6\pdl\drivers\peripheral\i2s/cy_i2s.h **** * I2S data alignment.
 256:Generated_Source\PSoC6\pdl\drivers\peripheral\i2s/cy_i2s.h **** */
 257:Generated_Source\PSoC6\pdl\drivers\peripheral\i2s/cy_i2s.h **** typedef enum
 258:Generated_Source\PSoC6\pdl\drivers\peripheral\i2s/cy_i2s.h **** {
 259:Generated_Source\PSoC6\pdl\drivers\peripheral\i2s/cy_i2s.h ****     CY_I2S_LEFT_JUSTIFIED = 0U, /**< Left justified. */
 260:Generated_Source\PSoC6\pdl\drivers\peripheral\i2s/cy_i2s.h ****     CY_I2S_I2S_MODE       = 1U, /**< I2S mode. */
 261:Generated_Source\PSoC6\pdl\drivers\peripheral\i2s/cy_i2s.h ****     CY_I2S_TDM_MODE_A     = 2U, /**< TDM mode A. */
 262:Generated_Source\PSoC6\pdl\drivers\peripheral\i2s/cy_i2s.h ****     CY_I2S_TDM_MODE_B     = 3U  /**< TDM mode B. */
 263:Generated_Source\PSoC6\pdl\drivers\peripheral\i2s/cy_i2s.h **** } cy_en_i2s_alignment_t;
 264:Generated_Source\PSoC6\pdl\drivers\peripheral\i2s/cy_i2s.h **** 
ARM GAS  C:\Users\dev\AppData\Local\Temp\ccJYAN2E.s 			page 23


 265:Generated_Source\PSoC6\pdl\drivers\peripheral\i2s/cy_i2s.h **** /**
 266:Generated_Source\PSoC6\pdl\drivers\peripheral\i2s/cy_i2s.h **** * I2S channel/word length.
 267:Generated_Source\PSoC6\pdl\drivers\peripheral\i2s/cy_i2s.h **** */
 268:Generated_Source\PSoC6\pdl\drivers\peripheral\i2s/cy_i2s.h **** typedef enum
 269:Generated_Source\PSoC6\pdl\drivers\peripheral\i2s/cy_i2s.h **** {
 270:Generated_Source\PSoC6\pdl\drivers\peripheral\i2s/cy_i2s.h ****     CY_I2S_LEN8  = 0U, /**< Channel/word length:  8 bit. */
 271:Generated_Source\PSoC6\pdl\drivers\peripheral\i2s/cy_i2s.h ****     CY_I2S_LEN16 = 1U, /**< Channel/Word length: 16 bit. */
 272:Generated_Source\PSoC6\pdl\drivers\peripheral\i2s/cy_i2s.h ****     CY_I2S_LEN18 = 2U, /**< Channel/Word length: 18 bit. */
 273:Generated_Source\PSoC6\pdl\drivers\peripheral\i2s/cy_i2s.h ****     CY_I2S_LEN20 = 3U, /**< Channel/Word length: 20 bit. */
 274:Generated_Source\PSoC6\pdl\drivers\peripheral\i2s/cy_i2s.h ****     CY_I2S_LEN24 = 4U, /**< Channel/Word length: 24 bit. */
 275:Generated_Source\PSoC6\pdl\drivers\peripheral\i2s/cy_i2s.h ****     CY_I2S_LEN32 = 5U  /**< Channel/Word length: 32 bit. */
 276:Generated_Source\PSoC6\pdl\drivers\peripheral\i2s/cy_i2s.h **** } cy_en_i2s_len_t;
 277:Generated_Source\PSoC6\pdl\drivers\peripheral\i2s/cy_i2s.h **** 
 278:Generated_Source\PSoC6\pdl\drivers\peripheral\i2s/cy_i2s.h **** /**
 279:Generated_Source\PSoC6\pdl\drivers\peripheral\i2s/cy_i2s.h **** * I2S TX overhead value.
 280:Generated_Source\PSoC6\pdl\drivers\peripheral\i2s/cy_i2s.h **** */
 281:Generated_Source\PSoC6\pdl\drivers\peripheral\i2s/cy_i2s.h **** typedef enum
 282:Generated_Source\PSoC6\pdl\drivers\peripheral\i2s/cy_i2s.h **** {
 283:Generated_Source\PSoC6\pdl\drivers\peripheral\i2s/cy_i2s.h ****     CY_I2S_OVHDATA_ZERO = 0U, /**< Fill overhead bits by zeroes. */
 284:Generated_Source\PSoC6\pdl\drivers\peripheral\i2s/cy_i2s.h ****     CY_I2S_OVHDATA_ONE  = 1U, /**< Fill overhead bits by ones. */
 285:Generated_Source\PSoC6\pdl\drivers\peripheral\i2s/cy_i2s.h **** } cy_en_i2s_overhead_t;
 286:Generated_Source\PSoC6\pdl\drivers\peripheral\i2s/cy_i2s.h **** 
 287:Generated_Source\PSoC6\pdl\drivers\peripheral\i2s/cy_i2s.h **** /**
 288:Generated_Source\PSoC6\pdl\drivers\peripheral\i2s/cy_i2s.h **** * I2S WS pulse width.
 289:Generated_Source\PSoC6\pdl\drivers\peripheral\i2s/cy_i2s.h **** */
 290:Generated_Source\PSoC6\pdl\drivers\peripheral\i2s/cy_i2s.h **** typedef enum
 291:Generated_Source\PSoC6\pdl\drivers\peripheral\i2s/cy_i2s.h **** {
 292:Generated_Source\PSoC6\pdl\drivers\peripheral\i2s/cy_i2s.h ****     CY_I2S_WS_ONE_SCK_CYCLE      = 0U, /**< WS pulse width is one SCK cycle. */
 293:Generated_Source\PSoC6\pdl\drivers\peripheral\i2s/cy_i2s.h ****     CY_I2S_WS_ONE_CHANNEL_LENGTH = 1U, /**< WS pulse width is one channel length. */
 294:Generated_Source\PSoC6\pdl\drivers\peripheral\i2s/cy_i2s.h **** } cy_en_i2s_ws_pw_t;
 295:Generated_Source\PSoC6\pdl\drivers\peripheral\i2s/cy_i2s.h **** 
 296:Generated_Source\PSoC6\pdl\drivers\peripheral\i2s/cy_i2s.h **** /** \} group_i2s_enums */
 297:Generated_Source\PSoC6\pdl\drivers\peripheral\i2s/cy_i2s.h **** 
 298:Generated_Source\PSoC6\pdl\drivers\peripheral\i2s/cy_i2s.h **** /**
 299:Generated_Source\PSoC6\pdl\drivers\peripheral\i2s/cy_i2s.h **** * \addtogroup group_i2s_data_structures
 300:Generated_Source\PSoC6\pdl\drivers\peripheral\i2s/cy_i2s.h **** * \{
 301:Generated_Source\PSoC6\pdl\drivers\peripheral\i2s/cy_i2s.h **** */
 302:Generated_Source\PSoC6\pdl\drivers\peripheral\i2s/cy_i2s.h **** 
 303:Generated_Source\PSoC6\pdl\drivers\peripheral\i2s/cy_i2s.h **** /**
 304:Generated_Source\PSoC6\pdl\drivers\peripheral\i2s/cy_i2s.h **** * I2S initialization configuration.
 305:Generated_Source\PSoC6\pdl\drivers\peripheral\i2s/cy_i2s.h **** */
 306:Generated_Source\PSoC6\pdl\drivers\peripheral\i2s/cy_i2s.h **** typedef struct
 307:Generated_Source\PSoC6\pdl\drivers\peripheral\i2s/cy_i2s.h **** {
 308:Generated_Source\PSoC6\pdl\drivers\peripheral\i2s/cy_i2s.h ****     bool                  txEnabled;          /**< Enables the I2S TX component: 'false': disabled.
 309:Generated_Source\PSoC6\pdl\drivers\peripheral\i2s/cy_i2s.h ****     bool                  rxEnabled;          /**< Enables the I2S RX component: 'false': disabled.
 310:Generated_Source\PSoC6\pdl\drivers\peripheral\i2s/cy_i2s.h ****     bool                  txDmaTrigger;       /**< 'false': TX DMA trigger disabled, 'true': TX DMA
 311:Generated_Source\PSoC6\pdl\drivers\peripheral\i2s/cy_i2s.h ****     bool                  rxDmaTrigger;       /**< 'false': RX DMA trigger disabled, 'true': RX DMA
 312:Generated_Source\PSoC6\pdl\drivers\peripheral\i2s/cy_i2s.h ****     uint8_t               clkDiv;             /**< CLK_SEL divider: 1: Bypass, 2: 1/2, 3: 1/3, ...,
 313:Generated_Source\PSoC6\pdl\drivers\peripheral\i2s/cy_i2s.h ****     bool                  extClk;             /**< 'false': internal clock, 'true': external clock.
 314:Generated_Source\PSoC6\pdl\drivers\peripheral\i2s/cy_i2s.h ****     bool                  txMasterMode;       /**< 'false': TX in slave mode, 'true': TX in master 
 315:Generated_Source\PSoC6\pdl\drivers\peripheral\i2s/cy_i2s.h ****     cy_en_i2s_alignment_t txAlignment;        /**< TX data alignment, see: #cy_en_i2s_alignment_t. 
 316:Generated_Source\PSoC6\pdl\drivers\peripheral\i2s/cy_i2s.h ****     cy_en_i2s_ws_pw_t     txWsPulseWidth;     /**< TX Word Select pulse width.
 317:Generated_Source\PSoC6\pdl\drivers\peripheral\i2s/cy_i2s.h ****                                                    The value of this parameter is ignored in I2S an
 318:Generated_Source\PSoC6\pdl\drivers\peripheral\i2s/cy_i2s.h ****                                                    the WS pulse width is always "one channel length
 319:Generated_Source\PSoC6\pdl\drivers\peripheral\i2s/cy_i2s.h ****     bool                  txWatchdogEnable;   /**< 'false': TX watchdog disabled, 'true': TX watchd
 320:Generated_Source\PSoC6\pdl\drivers\peripheral\i2s/cy_i2s.h ****     uint32_t              txWatchdogValue;    /**< TX watchdog counter value (32 bit). */
 321:Generated_Source\PSoC6\pdl\drivers\peripheral\i2s/cy_i2s.h ****     bool                  txSdoLatchingTime;  /**< 'false': SDO bit starts at falling edge (accordi
ARM GAS  C:\Users\dev\AppData\Local\Temp\ccJYAN2E.s 			page 24


 322:Generated_Source\PSoC6\pdl\drivers\peripheral\i2s/cy_i2s.h ****                                                    Standard, if txSckoInversion is false),
 323:Generated_Source\PSoC6\pdl\drivers\peripheral\i2s/cy_i2s.h ****                                                    'true': SDO bit starts at rising edge which goes
 324:Generated_Source\PSoC6\pdl\drivers\peripheral\i2s/cy_i2s.h ****                                                    mentioned falling edge, i.e. the SDO signal is a
 325:Generated_Source\PSoC6\pdl\drivers\peripheral\i2s/cy_i2s.h ****                                                    period (if txSckoInversion is false).
 326:Generated_Source\PSoC6\pdl\drivers\peripheral\i2s/cy_i2s.h ****                                                    If txSckoInversion is true - the rising/falling 
 327:Generated_Source\PSoC6\pdl\drivers\peripheral\i2s/cy_i2s.h ****                                                    in above explanations.
 328:Generated_Source\PSoC6\pdl\drivers\peripheral\i2s/cy_i2s.h ****                                                    Effective only in slave mode, must be false in m
 329:Generated_Source\PSoC6\pdl\drivers\peripheral\i2s/cy_i2s.h ****     bool                  txSckoInversion;    /**< TX SCKO polarity:
 330:Generated_Source\PSoC6\pdl\drivers\peripheral\i2s/cy_i2s.h ****                                                    'false': When transmitter is in master mode, ser
 331:Generated_Source\PSoC6\pdl\drivers\peripheral\i2s/cy_i2s.h ****                                                             transmitted off the falling bit clock e
 332:Generated_Source\PSoC6\pdl\drivers\peripheral\i2s/cy_i2s.h ****                                                             the I2S Standard);
 333:Generated_Source\PSoC6\pdl\drivers\peripheral\i2s/cy_i2s.h ****                                                    'true':  When transmitter is in master mode, ser
 334:Generated_Source\PSoC6\pdl\drivers\peripheral\i2s/cy_i2s.h ****                                                             transmitted off the rising bit clock ed
 335:Generated_Source\PSoC6\pdl\drivers\peripheral\i2s/cy_i2s.h ****                                                    Effective only in master mode. */
 336:Generated_Source\PSoC6\pdl\drivers\peripheral\i2s/cy_i2s.h ****     bool                  txSckiInversion;    /**< TX SCKI polarity:
 337:Generated_Source\PSoC6\pdl\drivers\peripheral\i2s/cy_i2s.h ****                                                    'false': When transmitter is in slave mode, seri
 338:Generated_Source\PSoC6\pdl\drivers\peripheral\i2s/cy_i2s.h ****                                                             transmitted off the falling bit clock e
 339:Generated_Source\PSoC6\pdl\drivers\peripheral\i2s/cy_i2s.h ****                                                             the I2S Standard);
 340:Generated_Source\PSoC6\pdl\drivers\peripheral\i2s/cy_i2s.h ****                                                    'true':  When transmitter is in slave mode, seri
 341:Generated_Source\PSoC6\pdl\drivers\peripheral\i2s/cy_i2s.h ****                                                             transmitted off the rising bit clock ed
 342:Generated_Source\PSoC6\pdl\drivers\peripheral\i2s/cy_i2s.h ****                                                    Effective only in slave mode. */
 343:Generated_Source\PSoC6\pdl\drivers\peripheral\i2s/cy_i2s.h ****     uint8_t               txChannels;         /**< Number of TX channels, valid range is 1...8 for 
 344:Generated_Source\PSoC6\pdl\drivers\peripheral\i2s/cy_i2s.h ****                                                    In the I2S and Left Justified modes the value of
 345:Generated_Source\PSoC6\pdl\drivers\peripheral\i2s/cy_i2s.h ****                                                    ignored - the real number of channels is always 
 346:Generated_Source\PSoC6\pdl\drivers\peripheral\i2s/cy_i2s.h ****     cy_en_i2s_len_t       txChannelLength;    /**< TX channel length, see #cy_en_i2s_len_t,
 347:Generated_Source\PSoC6\pdl\drivers\peripheral\i2s/cy_i2s.h ****                                                    the value of this parameter is ignored in TDM mo
 348:Generated_Source\PSoC6\pdl\drivers\peripheral\i2s/cy_i2s.h ****                                                    channel length is 32 bit in these modes. */
 349:Generated_Source\PSoC6\pdl\drivers\peripheral\i2s/cy_i2s.h ****     cy_en_i2s_len_t       txWordLength;       /**< TX word length, see #cy_en_i2s_len_t,
 350:Generated_Source\PSoC6\pdl\drivers\peripheral\i2s/cy_i2s.h ****                                                    must be less or equal to txChannelLength. */
 351:Generated_Source\PSoC6\pdl\drivers\peripheral\i2s/cy_i2s.h ****     cy_en_i2s_overhead_t  txOverheadValue;    /**< TX overhead bits value
 352:Generated_Source\PSoC6\pdl\drivers\peripheral\i2s/cy_i2s.h ****                                                    when the word length is less than the channel le
 353:Generated_Source\PSoC6\pdl\drivers\peripheral\i2s/cy_i2s.h ****     uint8_t               txFifoTriggerLevel; /**< TX FIFO interrupt trigger level (0, 1, ..., 255)
 354:Generated_Source\PSoC6\pdl\drivers\peripheral\i2s/cy_i2s.h ****     bool                  rxMasterMode;       /**< 'false': RX in slave mode, 'true': RX in master 
 355:Generated_Source\PSoC6\pdl\drivers\peripheral\i2s/cy_i2s.h ****     cy_en_i2s_alignment_t rxAlignment;        /**< RX data alignment, see: #cy_en_i2s_alignment_t. 
 356:Generated_Source\PSoC6\pdl\drivers\peripheral\i2s/cy_i2s.h ****     cy_en_i2s_ws_pw_t     rxWsPulseWidth;     /**< RX Word Select pulse width.
 357:Generated_Source\PSoC6\pdl\drivers\peripheral\i2s/cy_i2s.h ****                                                    The value of this parameter is ignored in I2S an
 358:Generated_Source\PSoC6\pdl\drivers\peripheral\i2s/cy_i2s.h ****                                                    the WS pulse width is always "one channel length
 359:Generated_Source\PSoC6\pdl\drivers\peripheral\i2s/cy_i2s.h ****     bool                  rxWatchdogEnable;   /**< 'false': RX watchdog disabled, 'true': RX watchd
 360:Generated_Source\PSoC6\pdl\drivers\peripheral\i2s/cy_i2s.h ****     uint32_t              rxWatchdogValue;    /**< RX watchdog counter value (32 bit). */
 361:Generated_Source\PSoC6\pdl\drivers\peripheral\i2s/cy_i2s.h ****     bool                  rxSdiLatchingTime;  /**< 'false': SDI bit starts at falling edge (accordi
 362:Generated_Source\PSoC6\pdl\drivers\peripheral\i2s/cy_i2s.h ****                                                    Standard if rxSckoInversion is false),
 363:Generated_Source\PSoC6\pdl\drivers\peripheral\i2s/cy_i2s.h ****                                                    'true': SDI bit starts at rising edge that goes 
 364:Generated_Source\PSoC6\pdl\drivers\peripheral\i2s/cy_i2s.h ****                                                    mentioned falling edge, i.e. the SDI signal is d
 365:Generated_Source\PSoC6\pdl\drivers\peripheral\i2s/cy_i2s.h ****                                                    period (if rxSckoInversion is false).
 366:Generated_Source\PSoC6\pdl\drivers\peripheral\i2s/cy_i2s.h ****                                                    If rxSckoInversion is true - the rising/falling 
 367:Generated_Source\PSoC6\pdl\drivers\peripheral\i2s/cy_i2s.h ****                                                    in above explanations.
 368:Generated_Source\PSoC6\pdl\drivers\peripheral\i2s/cy_i2s.h ****                                                    Effective only in master mode, must be false in 
 369:Generated_Source\PSoC6\pdl\drivers\peripheral\i2s/cy_i2s.h ****     bool                  rxSckoInversion;    /**< RX SCKO polarity:
 370:Generated_Source\PSoC6\pdl\drivers\peripheral\i2s/cy_i2s.h ****                                                    'false': When receiver is in master mode, serial
 371:Generated_Source\PSoC6\pdl\drivers\peripheral\i2s/cy_i2s.h ****                                                             captured by the rising bit clock edge (
 372:Generated_Source\PSoC6\pdl\drivers\peripheral\i2s/cy_i2s.h ****                                                             I2S Standard);
 373:Generated_Source\PSoC6\pdl\drivers\peripheral\i2s/cy_i2s.h ****                                                    'true':  When receiver is in master mode, serial
 374:Generated_Source\PSoC6\pdl\drivers\peripheral\i2s/cy_i2s.h ****                                                             captured by the falling bit clock edge.
 375:Generated_Source\PSoC6\pdl\drivers\peripheral\i2s/cy_i2s.h ****                                                    Effective only in master mode. */
 376:Generated_Source\PSoC6\pdl\drivers\peripheral\i2s/cy_i2s.h ****     bool                  rxSckiInversion;    /**< RX SCKI polarity:
 377:Generated_Source\PSoC6\pdl\drivers\peripheral\i2s/cy_i2s.h ****                                                    'false': When receiver is in slave mode, serial 
 378:Generated_Source\PSoC6\pdl\drivers\peripheral\i2s/cy_i2s.h ****                                                             captured by the rising bit clock edge (
ARM GAS  C:\Users\dev\AppData\Local\Temp\ccJYAN2E.s 			page 25


 379:Generated_Source\PSoC6\pdl\drivers\peripheral\i2s/cy_i2s.h ****                                                             I2S Standard);
 380:Generated_Source\PSoC6\pdl\drivers\peripheral\i2s/cy_i2s.h ****                                                    'true':  When receiver is in slave mode, serial 
 381:Generated_Source\PSoC6\pdl\drivers\peripheral\i2s/cy_i2s.h ****                                                             captured by the falling bit clock edge.
 382:Generated_Source\PSoC6\pdl\drivers\peripheral\i2s/cy_i2s.h ****                                                    Effective only in slave mode. */
 383:Generated_Source\PSoC6\pdl\drivers\peripheral\i2s/cy_i2s.h ****     uint8_t               rxChannels;         /**< Number of RX channels, valid range is 1...8 for 
 384:Generated_Source\PSoC6\pdl\drivers\peripheral\i2s/cy_i2s.h ****                                                    In the I2S and Left Justified modes the value of
 385:Generated_Source\PSoC6\pdl\drivers\peripheral\i2s/cy_i2s.h ****                                                    ignored - the real number of channels is always 
 386:Generated_Source\PSoC6\pdl\drivers\peripheral\i2s/cy_i2s.h ****     cy_en_i2s_len_t       rxChannelLength;    /**< RX channel length, see #cy_en_i2s_len_t,
 387:Generated_Source\PSoC6\pdl\drivers\peripheral\i2s/cy_i2s.h ****                                                    the value of this parameter is ignored in TDM mo
 388:Generated_Source\PSoC6\pdl\drivers\peripheral\i2s/cy_i2s.h ****                                                    channel length is 32 bit in these modes. */
 389:Generated_Source\PSoC6\pdl\drivers\peripheral\i2s/cy_i2s.h ****     cy_en_i2s_len_t       rxWordLength;       /**< RX word length, see #cy_en_i2s_len_t,
 390:Generated_Source\PSoC6\pdl\drivers\peripheral\i2s/cy_i2s.h ****                                                    must be less or equal to rxChannelLength. */
 391:Generated_Source\PSoC6\pdl\drivers\peripheral\i2s/cy_i2s.h ****     bool                  rxSignExtension;    /**< RX value sign extension (when the word length is
 392:Generated_Source\PSoC6\pdl\drivers\peripheral\i2s/cy_i2s.h ****                                                    'false': all MSB are filled by zeroes, 
 393:Generated_Source\PSoC6\pdl\drivers\peripheral\i2s/cy_i2s.h ****                                                    'true': all MSB are filled by the original sign 
 394:Generated_Source\PSoC6\pdl\drivers\peripheral\i2s/cy_i2s.h ****     uint8_t               rxFifoTriggerLevel; /**< RX FIFO interrupt trigger level
 395:Generated_Source\PSoC6\pdl\drivers\peripheral\i2s/cy_i2s.h ****                                                    (0, 1, ..., (255 - (number of channels))). */
 396:Generated_Source\PSoC6\pdl\drivers\peripheral\i2s/cy_i2s.h **** } cy_stc_i2s_config_t;
 397:Generated_Source\PSoC6\pdl\drivers\peripheral\i2s/cy_i2s.h **** 
 398:Generated_Source\PSoC6\pdl\drivers\peripheral\i2s/cy_i2s.h **** 
 399:Generated_Source\PSoC6\pdl\drivers\peripheral\i2s/cy_i2s.h **** /**
 400:Generated_Source\PSoC6\pdl\drivers\peripheral\i2s/cy_i2s.h ****  * The I2S backup structure type to be used for the SysPm callback.
 401:Generated_Source\PSoC6\pdl\drivers\peripheral\i2s/cy_i2s.h ****  * \ref Cy_I2S_DeepSleepCallback context definition.
 402:Generated_Source\PSoC6\pdl\drivers\peripheral\i2s/cy_i2s.h ****  *
 403:Generated_Source\PSoC6\pdl\drivers\peripheral\i2s/cy_i2s.h ****  * \cond Also can be used for other purposes to store the current Tx/Rx
 404:Generated_Source\PSoC6\pdl\drivers\peripheral\i2s/cy_i2s.h ****  * operation state and interrupt settings - the factors that are usually
 405:Generated_Source\PSoC6\pdl\drivers\peripheral\i2s/cy_i2s.h ****  * changed on the fly. \endcond
 406:Generated_Source\PSoC6\pdl\drivers\peripheral\i2s/cy_i2s.h ****  */
 407:Generated_Source\PSoC6\pdl\drivers\peripheral\i2s/cy_i2s.h **** typedef struct
 408:Generated_Source\PSoC6\pdl\drivers\peripheral\i2s/cy_i2s.h **** {
 409:Generated_Source\PSoC6\pdl\drivers\peripheral\i2s/cy_i2s.h ****     uint32_t enableState;            /**< Stores the I2S state */
 410:Generated_Source\PSoC6\pdl\drivers\peripheral\i2s/cy_i2s.h ****     uint32_t interruptMask;          /**< Stores the I2S interrupt mask */
 411:Generated_Source\PSoC6\pdl\drivers\peripheral\i2s/cy_i2s.h **** } cy_stc_i2s_context_t;
 412:Generated_Source\PSoC6\pdl\drivers\peripheral\i2s/cy_i2s.h **** 
 413:Generated_Source\PSoC6\pdl\drivers\peripheral\i2s/cy_i2s.h **** /** \} group_i2s_data_structures */
 414:Generated_Source\PSoC6\pdl\drivers\peripheral\i2s/cy_i2s.h **** 
 415:Generated_Source\PSoC6\pdl\drivers\peripheral\i2s/cy_i2s.h **** /** \cond INTERNAL */
 416:Generated_Source\PSoC6\pdl\drivers\peripheral\i2s/cy_i2s.h **** /******************************************************************************
 417:Generated_Source\PSoC6\pdl\drivers\peripheral\i2s/cy_i2s.h ****  * Local definitions
 418:Generated_Source\PSoC6\pdl\drivers\peripheral\i2s/cy_i2s.h **** *******************************************************************************/
 419:Generated_Source\PSoC6\pdl\drivers\peripheral\i2s/cy_i2s.h **** 
 420:Generated_Source\PSoC6\pdl\drivers\peripheral\i2s/cy_i2s.h **** #define CY_I2S_INTR_MASK           (CY_I2S_INTR_TX_TRIGGER   | \
 421:Generated_Source\PSoC6\pdl\drivers\peripheral\i2s/cy_i2s.h ****                                     CY_I2S_INTR_TX_NOT_FULL  | \
 422:Generated_Source\PSoC6\pdl\drivers\peripheral\i2s/cy_i2s.h ****                                     CY_I2S_INTR_TX_EMPTY     | \
 423:Generated_Source\PSoC6\pdl\drivers\peripheral\i2s/cy_i2s.h ****                                     CY_I2S_INTR_TX_OVERFLOW  | \
 424:Generated_Source\PSoC6\pdl\drivers\peripheral\i2s/cy_i2s.h ****                                     CY_I2S_INTR_TX_UNDERFLOW | \
 425:Generated_Source\PSoC6\pdl\drivers\peripheral\i2s/cy_i2s.h ****                                     CY_I2S_INTR_TX_WD        | \
 426:Generated_Source\PSoC6\pdl\drivers\peripheral\i2s/cy_i2s.h ****                                     CY_I2S_INTR_RX_TRIGGER   | \
 427:Generated_Source\PSoC6\pdl\drivers\peripheral\i2s/cy_i2s.h ****                                     CY_I2S_INTR_RX_NOT_EMPTY | \
 428:Generated_Source\PSoC6\pdl\drivers\peripheral\i2s/cy_i2s.h ****                                     CY_I2S_INTR_RX_FULL      | \
 429:Generated_Source\PSoC6\pdl\drivers\peripheral\i2s/cy_i2s.h ****                                     CY_I2S_INTR_RX_OVERFLOW  | \
 430:Generated_Source\PSoC6\pdl\drivers\peripheral\i2s/cy_i2s.h ****                                     CY_I2S_INTR_RX_UNDERFLOW | \
 431:Generated_Source\PSoC6\pdl\drivers\peripheral\i2s/cy_i2s.h ****                                     CY_I2S_INTR_RX_WD)
 432:Generated_Source\PSoC6\pdl\drivers\peripheral\i2s/cy_i2s.h **** 
 433:Generated_Source\PSoC6\pdl\drivers\peripheral\i2s/cy_i2s.h **** /* Non-zero default values */
 434:Generated_Source\PSoC6\pdl\drivers\peripheral\i2s/cy_i2s.h **** #define CY_I2S_TX_CTL_CH_NR_DEFAULT    (0x1U)
 435:Generated_Source\PSoC6\pdl\drivers\peripheral\i2s/cy_i2s.h **** #define CY_I2S_TX_CTL_I2S_MODE_DEFAULT (0x2U)
ARM GAS  C:\Users\dev\AppData\Local\Temp\ccJYAN2E.s 			page 26


 436:Generated_Source\PSoC6\pdl\drivers\peripheral\i2s/cy_i2s.h **** #define CY_I2S_TX_CTL_WS_PULSE_DEFAULT (0x1U)
 437:Generated_Source\PSoC6\pdl\drivers\peripheral\i2s/cy_i2s.h **** #define CY_I2S_TX_CTL_CH_LEN_DEFAULT   (0x4U)
 438:Generated_Source\PSoC6\pdl\drivers\peripheral\i2s/cy_i2s.h **** #define CY_I2S_TX_CTL_WORD_LEN_DEFAULT (0x4U)
 439:Generated_Source\PSoC6\pdl\drivers\peripheral\i2s/cy_i2s.h **** 
 440:Generated_Source\PSoC6\pdl\drivers\peripheral\i2s/cy_i2s.h **** #define CY_I2S_TX_CTL_DEFAULT (_VAL2FLD(I2S_TX_CTL_CH_NR,    CY_I2S_TX_CTL_CH_NR_DEFAULT)    | \
 441:Generated_Source\PSoC6\pdl\drivers\peripheral\i2s/cy_i2s.h ****                                _VAL2FLD(I2S_TX_CTL_I2S_MODE, CY_I2S_TX_CTL_I2S_MODE_DEFAULT) | \
 442:Generated_Source\PSoC6\pdl\drivers\peripheral\i2s/cy_i2s.h ****                                _VAL2FLD(I2S_TX_CTL_WS_PULSE, CY_I2S_TX_CTL_WS_PULSE_DEFAULT) | \
 443:Generated_Source\PSoC6\pdl\drivers\peripheral\i2s/cy_i2s.h ****                                _VAL2FLD(I2S_TX_CTL_CH_LEN,   CY_I2S_TX_CTL_CH_LEN_DEFAULT)   | \
 444:Generated_Source\PSoC6\pdl\drivers\peripheral\i2s/cy_i2s.h ****                                _VAL2FLD(I2S_TX_CTL_WORD_LEN, CY_I2S_TX_CTL_WORD_LEN_DEFAULT))
 445:Generated_Source\PSoC6\pdl\drivers\peripheral\i2s/cy_i2s.h **** 
 446:Generated_Source\PSoC6\pdl\drivers\peripheral\i2s/cy_i2s.h **** #define CY_I2S_RX_CTL_CH_NR_DEFAULT    (0x1U)
 447:Generated_Source\PSoC6\pdl\drivers\peripheral\i2s/cy_i2s.h **** #define CY_I2S_RX_CTL_I2S_MODE_DEFAULT (0x2U)
 448:Generated_Source\PSoC6\pdl\drivers\peripheral\i2s/cy_i2s.h **** #define CY_I2S_RX_CTL_WS_PULSE_DEFAULT (0x1U)
 449:Generated_Source\PSoC6\pdl\drivers\peripheral\i2s/cy_i2s.h **** #define CY_I2S_RX_CTL_CH_LEN_DEFAULT   (0x4U)
 450:Generated_Source\PSoC6\pdl\drivers\peripheral\i2s/cy_i2s.h **** #define CY_I2S_RX_CTL_WORD_LEN_DEFAULT (0x4U)
 451:Generated_Source\PSoC6\pdl\drivers\peripheral\i2s/cy_i2s.h **** 
 452:Generated_Source\PSoC6\pdl\drivers\peripheral\i2s/cy_i2s.h **** #define CY_I2S_RX_CTL_DEFAULT (_VAL2FLD(I2S_RX_CTL_CH_NR,    CY_I2S_RX_CTL_CH_NR_DEFAULT)    | \
 453:Generated_Source\PSoC6\pdl\drivers\peripheral\i2s/cy_i2s.h ****                                _VAL2FLD(I2S_RX_CTL_I2S_MODE, CY_I2S_RX_CTL_I2S_MODE_DEFAULT) | \
 454:Generated_Source\PSoC6\pdl\drivers\peripheral\i2s/cy_i2s.h ****                                _VAL2FLD(I2S_RX_CTL_WS_PULSE, CY_I2S_RX_CTL_WS_PULSE_DEFAULT) | \
 455:Generated_Source\PSoC6\pdl\drivers\peripheral\i2s/cy_i2s.h ****                                _VAL2FLD(I2S_RX_CTL_CH_LEN,   CY_I2S_RX_CTL_CH_LEN_DEFAULT)   | \
 456:Generated_Source\PSoC6\pdl\drivers\peripheral\i2s/cy_i2s.h ****                                _VAL2FLD(I2S_RX_CTL_WORD_LEN, CY_I2S_RX_CTL_WORD_LEN_DEFAULT))
 457:Generated_Source\PSoC6\pdl\drivers\peripheral\i2s/cy_i2s.h **** 
 458:Generated_Source\PSoC6\pdl\drivers\peripheral\i2s/cy_i2s.h **** /* Macros for conditions used by CY_ASSERT calls */
 459:Generated_Source\PSoC6\pdl\drivers\peripheral\i2s/cy_i2s.h **** #define CY_I2S_IS_ALIGNMENT_VALID(alignment) ((CY_I2S_LEFT_JUSTIFIED == (alignment)) || \
 460:Generated_Source\PSoC6\pdl\drivers\peripheral\i2s/cy_i2s.h ****                                               (CY_I2S_I2S_MODE       == (alignment)) || \
 461:Generated_Source\PSoC6\pdl\drivers\peripheral\i2s/cy_i2s.h ****                                               (CY_I2S_TDM_MODE_A     == (alignment)) || \
 462:Generated_Source\PSoC6\pdl\drivers\peripheral\i2s/cy_i2s.h ****                                               (CY_I2S_TDM_MODE_B     == (alignment)))
 463:Generated_Source\PSoC6\pdl\drivers\peripheral\i2s/cy_i2s.h **** 
 464:Generated_Source\PSoC6\pdl\drivers\peripheral\i2s/cy_i2s.h **** #define CY_I2S_IS_LEN_VALID(length)          ((CY_I2S_LEN8  == (length)) || \
 465:Generated_Source\PSoC6\pdl\drivers\peripheral\i2s/cy_i2s.h ****                                               (CY_I2S_LEN16 == (length)) || \
 466:Generated_Source\PSoC6\pdl\drivers\peripheral\i2s/cy_i2s.h ****                                               (CY_I2S_LEN18 == (length)) || \
 467:Generated_Source\PSoC6\pdl\drivers\peripheral\i2s/cy_i2s.h ****                                               (CY_I2S_LEN20 == (length)) || \
 468:Generated_Source\PSoC6\pdl\drivers\peripheral\i2s/cy_i2s.h ****                                               (CY_I2S_LEN24 == (length)) || \
 469:Generated_Source\PSoC6\pdl\drivers\peripheral\i2s/cy_i2s.h ****                                               (CY_I2S_LEN32 == (length)))
 470:Generated_Source\PSoC6\pdl\drivers\peripheral\i2s/cy_i2s.h **** 
 471:Generated_Source\PSoC6\pdl\drivers\peripheral\i2s/cy_i2s.h **** #define CY_I2S_IS_OVHDATA_VALID(overhead)    ((CY_I2S_OVHDATA_ZERO == (overhead)) || \
 472:Generated_Source\PSoC6\pdl\drivers\peripheral\i2s/cy_i2s.h ****                                               (CY_I2S_OVHDATA_ONE  == (overhead)))
 473:Generated_Source\PSoC6\pdl\drivers\peripheral\i2s/cy_i2s.h **** 
 474:Generated_Source\PSoC6\pdl\drivers\peripheral\i2s/cy_i2s.h **** #define CY_I2S_IS_WSPULSE_VALID(wsPulse)     ((CY_I2S_WS_ONE_SCK_CYCLE      == (wsPulse)) || \
 475:Generated_Source\PSoC6\pdl\drivers\peripheral\i2s/cy_i2s.h ****                                               (CY_I2S_WS_ONE_CHANNEL_LENGTH == (wsPulse)))
 476:Generated_Source\PSoC6\pdl\drivers\peripheral\i2s/cy_i2s.h **** 
 477:Generated_Source\PSoC6\pdl\drivers\peripheral\i2s/cy_i2s.h **** #define CY_I2S_IS_CLK_DIV_VALID(clkDiv)      ((clkDiv) <= 63U)
 478:Generated_Source\PSoC6\pdl\drivers\peripheral\i2s/cy_i2s.h **** #define CY_I2S_IS_CHANNELS_VALID(channels)   ((channels) <= 7UL)
 479:Generated_Source\PSoC6\pdl\drivers\peripheral\i2s/cy_i2s.h **** #define CY_I2S_IS_INTR_MASK_VALID(interrupt) (0UL == ((interrupt) & ((uint32_t) ~CY_I2S_INTR_MASK))
 480:Generated_Source\PSoC6\pdl\drivers\peripheral\i2s/cy_i2s.h **** 
 481:Generated_Source\PSoC6\pdl\drivers\peripheral\i2s/cy_i2s.h **** #define CY_I2S_IS_CHAN_WORD_VALID(channel, word)        ((CY_I2S_IS_LEN_VALID(channel)) && \
 482:Generated_Source\PSoC6\pdl\drivers\peripheral\i2s/cy_i2s.h ****                                                          (CY_I2S_IS_LEN_VALID(word))    && \
 483:Generated_Source\PSoC6\pdl\drivers\peripheral\i2s/cy_i2s.h ****                                                          ((channel) >= (word)))
 484:Generated_Source\PSoC6\pdl\drivers\peripheral\i2s/cy_i2s.h **** #define CY_I2S_IS_TRIG_LEVEL_VALID(trigLevel, channels) ((trigLevel) <= (255U - (channels)))
 485:Generated_Source\PSoC6\pdl\drivers\peripheral\i2s/cy_i2s.h **** 
 486:Generated_Source\PSoC6\pdl\drivers\peripheral\i2s/cy_i2s.h **** /** \endcond */
 487:Generated_Source\PSoC6\pdl\drivers\peripheral\i2s/cy_i2s.h **** 
 488:Generated_Source\PSoC6\pdl\drivers\peripheral\i2s/cy_i2s.h **** 
 489:Generated_Source\PSoC6\pdl\drivers\peripheral\i2s/cy_i2s.h **** /**
 490:Generated_Source\PSoC6\pdl\drivers\peripheral\i2s/cy_i2s.h **** * \addtogroup group_i2s_functions
 491:Generated_Source\PSoC6\pdl\drivers\peripheral\i2s/cy_i2s.h **** * \{
 492:Generated_Source\PSoC6\pdl\drivers\peripheral\i2s/cy_i2s.h **** */
ARM GAS  C:\Users\dev\AppData\Local\Temp\ccJYAN2E.s 			page 27


 493:Generated_Source\PSoC6\pdl\drivers\peripheral\i2s/cy_i2s.h **** 
 494:Generated_Source\PSoC6\pdl\drivers\peripheral\i2s/cy_i2s.h ****   cy_en_i2s_status_t     Cy_I2S_Init(I2S_Type * base, cy_stc_i2s_config_t const * config);
 495:Generated_Source\PSoC6\pdl\drivers\peripheral\i2s/cy_i2s.h ****                 void     Cy_I2S_DeInit(I2S_Type * base);
 496:Generated_Source\PSoC6\pdl\drivers\peripheral\i2s/cy_i2s.h ****                 
 497:Generated_Source\PSoC6\pdl\drivers\peripheral\i2s/cy_i2s.h **** /** \addtogroup group_i2s_functions_syspm_callback
 498:Generated_Source\PSoC6\pdl\drivers\peripheral\i2s/cy_i2s.h **** * The driver supports SysPm callback for Deep Sleep transition.
 499:Generated_Source\PSoC6\pdl\drivers\peripheral\i2s/cy_i2s.h **** * \{
 500:Generated_Source\PSoC6\pdl\drivers\peripheral\i2s/cy_i2s.h **** */
 501:Generated_Source\PSoC6\pdl\drivers\peripheral\i2s/cy_i2s.h **** cy_en_syspm_status_t     Cy_I2S_DeepSleepCallback(cy_stc_syspm_callback_params_t * callbackParams, 
 502:Generated_Source\PSoC6\pdl\drivers\peripheral\i2s/cy_i2s.h **** /** \} */
 503:Generated_Source\PSoC6\pdl\drivers\peripheral\i2s/cy_i2s.h **** 
 504:Generated_Source\PSoC6\pdl\drivers\peripheral\i2s/cy_i2s.h **** __STATIC_INLINE void     Cy_I2S_EnableTx(I2S_Type * base);
 505:Generated_Source\PSoC6\pdl\drivers\peripheral\i2s/cy_i2s.h **** __STATIC_INLINE void     Cy_I2S_PauseTx(I2S_Type * base);
 506:Generated_Source\PSoC6\pdl\drivers\peripheral\i2s/cy_i2s.h **** __STATIC_INLINE void     Cy_I2S_ResumeTx(I2S_Type * base);
 507:Generated_Source\PSoC6\pdl\drivers\peripheral\i2s/cy_i2s.h **** __STATIC_INLINE void     Cy_I2S_DisableTx(I2S_Type * base);
 508:Generated_Source\PSoC6\pdl\drivers\peripheral\i2s/cy_i2s.h **** __STATIC_INLINE void     Cy_I2S_EnableRx(I2S_Type * base);
 509:Generated_Source\PSoC6\pdl\drivers\peripheral\i2s/cy_i2s.h **** __STATIC_INLINE void     Cy_I2S_DisableRx(I2S_Type * base);
 510:Generated_Source\PSoC6\pdl\drivers\peripheral\i2s/cy_i2s.h **** __STATIC_INLINE uint32_t Cy_I2S_GetCurrentState(I2S_Type const * base);
 511:Generated_Source\PSoC6\pdl\drivers\peripheral\i2s/cy_i2s.h **** 
 512:Generated_Source\PSoC6\pdl\drivers\peripheral\i2s/cy_i2s.h **** __STATIC_INLINE void     Cy_I2S_ClearTxFifo(I2S_Type * base);
 513:Generated_Source\PSoC6\pdl\drivers\peripheral\i2s/cy_i2s.h **** __STATIC_INLINE uint32_t Cy_I2S_GetNumInTxFifo(I2S_Type const * base);
 514:Generated_Source\PSoC6\pdl\drivers\peripheral\i2s/cy_i2s.h **** __STATIC_INLINE void     Cy_I2S_WriteTxData(I2S_Type * base, uint32_t data);
 515:Generated_Source\PSoC6\pdl\drivers\peripheral\i2s/cy_i2s.h **** __STATIC_INLINE uint8_t  Cy_I2S_GetTxReadPointer(I2S_Type const * base);
 516:Generated_Source\PSoC6\pdl\drivers\peripheral\i2s/cy_i2s.h **** __STATIC_INLINE uint8_t  Cy_I2S_GetTxWritePointer(I2S_Type const * base);
 517:Generated_Source\PSoC6\pdl\drivers\peripheral\i2s/cy_i2s.h **** __STATIC_INLINE void     Cy_I2S_FreezeTxFifo(I2S_Type * base);
 518:Generated_Source\PSoC6\pdl\drivers\peripheral\i2s/cy_i2s.h **** __STATIC_INLINE void     Cy_I2S_UnfreezeTxFifo(I2S_Type * base);
 519:Generated_Source\PSoC6\pdl\drivers\peripheral\i2s/cy_i2s.h **** 
 520:Generated_Source\PSoC6\pdl\drivers\peripheral\i2s/cy_i2s.h **** __STATIC_INLINE void     Cy_I2S_ClearRxFifo(I2S_Type * base);
 521:Generated_Source\PSoC6\pdl\drivers\peripheral\i2s/cy_i2s.h **** __STATIC_INLINE uint32_t Cy_I2S_GetNumInRxFifo(I2S_Type const * base);
 522:Generated_Source\PSoC6\pdl\drivers\peripheral\i2s/cy_i2s.h **** __STATIC_INLINE uint32_t Cy_I2S_ReadRxData(I2S_Type const * base);
 523:Generated_Source\PSoC6\pdl\drivers\peripheral\i2s/cy_i2s.h **** __STATIC_INLINE uint32_t Cy_I2S_ReadRxDataSilent(I2S_Type const * base);
 524:Generated_Source\PSoC6\pdl\drivers\peripheral\i2s/cy_i2s.h **** __STATIC_INLINE uint8_t  Cy_I2S_GetRxReadPointer(I2S_Type const * base);
 525:Generated_Source\PSoC6\pdl\drivers\peripheral\i2s/cy_i2s.h **** __STATIC_INLINE uint8_t  Cy_I2S_GetRxWritePointer(I2S_Type const * base);
 526:Generated_Source\PSoC6\pdl\drivers\peripheral\i2s/cy_i2s.h **** __STATIC_INLINE void     Cy_I2S_FreezeRxFifo(I2S_Type * base);
 527:Generated_Source\PSoC6\pdl\drivers\peripheral\i2s/cy_i2s.h **** __STATIC_INLINE void     Cy_I2S_UnfreezeRxFifo(I2S_Type * base);
 528:Generated_Source\PSoC6\pdl\drivers\peripheral\i2s/cy_i2s.h **** 
 529:Generated_Source\PSoC6\pdl\drivers\peripheral\i2s/cy_i2s.h **** __STATIC_INLINE uint32_t Cy_I2S_GetInterruptStatus(I2S_Type const * base);
 530:Generated_Source\PSoC6\pdl\drivers\peripheral\i2s/cy_i2s.h **** __STATIC_INLINE void     Cy_I2S_ClearInterrupt(I2S_Type * base, uint32_t interrupt);
 531:Generated_Source\PSoC6\pdl\drivers\peripheral\i2s/cy_i2s.h **** __STATIC_INLINE void     Cy_I2S_SetInterrupt(I2S_Type * base, uint32_t interrupt);
 532:Generated_Source\PSoC6\pdl\drivers\peripheral\i2s/cy_i2s.h **** __STATIC_INLINE uint32_t Cy_I2S_GetInterruptMask(I2S_Type const * base);
 533:Generated_Source\PSoC6\pdl\drivers\peripheral\i2s/cy_i2s.h **** __STATIC_INLINE void     Cy_I2S_SetInterruptMask(I2S_Type * base, uint32_t interrupt);
 534:Generated_Source\PSoC6\pdl\drivers\peripheral\i2s/cy_i2s.h **** __STATIC_INLINE uint32_t Cy_I2S_GetInterruptStatusMasked(I2S_Type const * base);
 535:Generated_Source\PSoC6\pdl\drivers\peripheral\i2s/cy_i2s.h **** 
 536:Generated_Source\PSoC6\pdl\drivers\peripheral\i2s/cy_i2s.h **** /*******************************************************************************
 537:Generated_Source\PSoC6\pdl\drivers\peripheral\i2s/cy_i2s.h **** * Function Name: Cy_I2S_EnableTx
 538:Generated_Source\PSoC6\pdl\drivers\peripheral\i2s/cy_i2s.h **** ****************************************************************************//**
 539:Generated_Source\PSoC6\pdl\drivers\peripheral\i2s/cy_i2s.h **** *
 540:Generated_Source\PSoC6\pdl\drivers\peripheral\i2s/cy_i2s.h **** * Starts an I2S transmission. Interrupt enabling (by the 
 541:Generated_Source\PSoC6\pdl\drivers\peripheral\i2s/cy_i2s.h **** * \ref Cy_I2S_SetInterruptMask) is required after this function call, in case
 542:Generated_Source\PSoC6\pdl\drivers\peripheral\i2s/cy_i2s.h **** * if any I2S interrupts are used in the application.
 543:Generated_Source\PSoC6\pdl\drivers\peripheral\i2s/cy_i2s.h **** *
 544:Generated_Source\PSoC6\pdl\drivers\peripheral\i2s/cy_i2s.h **** * \pre Cy_I2S_Init() must be called before.
 545:Generated_Source\PSoC6\pdl\drivers\peripheral\i2s/cy_i2s.h **** *
 546:Generated_Source\PSoC6\pdl\drivers\peripheral\i2s/cy_i2s.h **** * \param base The pointer to the I2S instance address.
 547:Generated_Source\PSoC6\pdl\drivers\peripheral\i2s/cy_i2s.h **** *
 548:Generated_Source\PSoC6\pdl\drivers\peripheral\i2s/cy_i2s.h **** * \funcusage
 549:Generated_Source\PSoC6\pdl\drivers\peripheral\i2s/cy_i2s.h **** * \snippet i2s\2.10\snippet\main.c snippet_Cy_I2S_EnableTx
ARM GAS  C:\Users\dev\AppData\Local\Temp\ccJYAN2E.s 			page 28


 550:Generated_Source\PSoC6\pdl\drivers\peripheral\i2s/cy_i2s.h **** *
 551:Generated_Source\PSoC6\pdl\drivers\peripheral\i2s/cy_i2s.h **** *******************************************************************************/
 552:Generated_Source\PSoC6\pdl\drivers\peripheral\i2s/cy_i2s.h **** __STATIC_INLINE void Cy_I2S_EnableTx(I2S_Type * base)
 553:Generated_Source\PSoC6\pdl\drivers\peripheral\i2s/cy_i2s.h **** {
 554:Generated_Source\PSoC6\pdl\drivers\peripheral\i2s/cy_i2s.h ****     REG_I2S_CMD(base) |= I2S_CMD_TX_START_Msk;
 555:Generated_Source\PSoC6\pdl\drivers\peripheral\i2s/cy_i2s.h **** }
 556:Generated_Source\PSoC6\pdl\drivers\peripheral\i2s/cy_i2s.h **** 
 557:Generated_Source\PSoC6\pdl\drivers\peripheral\i2s/cy_i2s.h **** 
 558:Generated_Source\PSoC6\pdl\drivers\peripheral\i2s/cy_i2s.h **** /*******************************************************************************
 559:Generated_Source\PSoC6\pdl\drivers\peripheral\i2s/cy_i2s.h **** * Function Name: Cy_I2S_PauseTx
 560:Generated_Source\PSoC6\pdl\drivers\peripheral\i2s/cy_i2s.h **** ****************************************************************************//**
 561:Generated_Source\PSoC6\pdl\drivers\peripheral\i2s/cy_i2s.h **** *
 562:Generated_Source\PSoC6\pdl\drivers\peripheral\i2s/cy_i2s.h **** * Pauses an I2S transmission.
 563:Generated_Source\PSoC6\pdl\drivers\peripheral\i2s/cy_i2s.h **** *
 564:Generated_Source\PSoC6\pdl\drivers\peripheral\i2s/cy_i2s.h **** * \param base The pointer to the I2S instance address.
 565:Generated_Source\PSoC6\pdl\drivers\peripheral\i2s/cy_i2s.h **** *
 566:Generated_Source\PSoC6\pdl\drivers\peripheral\i2s/cy_i2s.h **** * \funcusage
 567:Generated_Source\PSoC6\pdl\drivers\peripheral\i2s/cy_i2s.h **** * \snippet i2s\2.10\snippet\main.c snippet_Cy_I2S_PauseTx
 568:Generated_Source\PSoC6\pdl\drivers\peripheral\i2s/cy_i2s.h **** *
 569:Generated_Source\PSoC6\pdl\drivers\peripheral\i2s/cy_i2s.h **** *******************************************************************************/
 570:Generated_Source\PSoC6\pdl\drivers\peripheral\i2s/cy_i2s.h **** __STATIC_INLINE void Cy_I2S_PauseTx(I2S_Type * base)
 571:Generated_Source\PSoC6\pdl\drivers\peripheral\i2s/cy_i2s.h **** {
 572:Generated_Source\PSoC6\pdl\drivers\peripheral\i2s/cy_i2s.h ****     REG_I2S_CMD(base) |= I2S_CMD_TX_PAUSE_Msk;
 573:Generated_Source\PSoC6\pdl\drivers\peripheral\i2s/cy_i2s.h **** }
 574:Generated_Source\PSoC6\pdl\drivers\peripheral\i2s/cy_i2s.h **** 
 575:Generated_Source\PSoC6\pdl\drivers\peripheral\i2s/cy_i2s.h **** 
 576:Generated_Source\PSoC6\pdl\drivers\peripheral\i2s/cy_i2s.h **** /*******************************************************************************
 577:Generated_Source\PSoC6\pdl\drivers\peripheral\i2s/cy_i2s.h **** * Function Name: Cy_I2S_ResumeTx
 578:Generated_Source\PSoC6\pdl\drivers\peripheral\i2s/cy_i2s.h **** ****************************************************************************//**
 579:Generated_Source\PSoC6\pdl\drivers\peripheral\i2s/cy_i2s.h **** *
 580:Generated_Source\PSoC6\pdl\drivers\peripheral\i2s/cy_i2s.h **** * Resumes an I2S transmission.
 581:Generated_Source\PSoC6\pdl\drivers\peripheral\i2s/cy_i2s.h **** *
 582:Generated_Source\PSoC6\pdl\drivers\peripheral\i2s/cy_i2s.h **** * \param base The pointer to the I2S instance address.
 583:Generated_Source\PSoC6\pdl\drivers\peripheral\i2s/cy_i2s.h **** *
 584:Generated_Source\PSoC6\pdl\drivers\peripheral\i2s/cy_i2s.h **** * \funcusage
 585:Generated_Source\PSoC6\pdl\drivers\peripheral\i2s/cy_i2s.h **** * \snippet i2s\2.10\snippet\main.c snippet_Cy_I2S_ResumeTx
 586:Generated_Source\PSoC6\pdl\drivers\peripheral\i2s/cy_i2s.h **** *
 587:Generated_Source\PSoC6\pdl\drivers\peripheral\i2s/cy_i2s.h **** *******************************************************************************/
 588:Generated_Source\PSoC6\pdl\drivers\peripheral\i2s/cy_i2s.h **** __STATIC_INLINE void Cy_I2S_ResumeTx(I2S_Type * base)
 589:Generated_Source\PSoC6\pdl\drivers\peripheral\i2s/cy_i2s.h **** {
 590:Generated_Source\PSoC6\pdl\drivers\peripheral\i2s/cy_i2s.h ****     REG_I2S_CMD(base) &= (uint32_t) ~I2S_CMD_TX_PAUSE_Msk;
 591:Generated_Source\PSoC6\pdl\drivers\peripheral\i2s/cy_i2s.h **** }
 592:Generated_Source\PSoC6\pdl\drivers\peripheral\i2s/cy_i2s.h **** 
 593:Generated_Source\PSoC6\pdl\drivers\peripheral\i2s/cy_i2s.h **** 
 594:Generated_Source\PSoC6\pdl\drivers\peripheral\i2s/cy_i2s.h **** /*******************************************************************************
 595:Generated_Source\PSoC6\pdl\drivers\peripheral\i2s/cy_i2s.h **** * Function Name: Cy_I2S_DisableTx
 596:Generated_Source\PSoC6\pdl\drivers\peripheral\i2s/cy_i2s.h **** ****************************************************************************//**
 597:Generated_Source\PSoC6\pdl\drivers\peripheral\i2s/cy_i2s.h **** *
 598:Generated_Source\PSoC6\pdl\drivers\peripheral\i2s/cy_i2s.h **** * Stops an I2S transmission. 
 599:Generated_Source\PSoC6\pdl\drivers\peripheral\i2s/cy_i2s.h **** *
 600:Generated_Source\PSoC6\pdl\drivers\peripheral\i2s/cy_i2s.h **** * \pre TX interrupt disabling (by the \ref Cy_I2S_SetInterruptMask) is required
 601:Generated_Source\PSoC6\pdl\drivers\peripheral\i2s/cy_i2s.h **** * prior to this function call, in case any TX I2S interrupts are used.
 602:Generated_Source\PSoC6\pdl\drivers\peripheral\i2s/cy_i2s.h **** *
 603:Generated_Source\PSoC6\pdl\drivers\peripheral\i2s/cy_i2s.h **** * \param base The pointer to the I2S instance address.
 604:Generated_Source\PSoC6\pdl\drivers\peripheral\i2s/cy_i2s.h **** *
 605:Generated_Source\PSoC6\pdl\drivers\peripheral\i2s/cy_i2s.h **** * \funcusage
 606:Generated_Source\PSoC6\pdl\drivers\peripheral\i2s/cy_i2s.h **** * \snippet i2s\2.10\snippet\main.c snippet_Cy_I2S_DisableTx
ARM GAS  C:\Users\dev\AppData\Local\Temp\ccJYAN2E.s 			page 29


 607:Generated_Source\PSoC6\pdl\drivers\peripheral\i2s/cy_i2s.h **** *
 608:Generated_Source\PSoC6\pdl\drivers\peripheral\i2s/cy_i2s.h **** *******************************************************************************/
 609:Generated_Source\PSoC6\pdl\drivers\peripheral\i2s/cy_i2s.h **** __STATIC_INLINE void Cy_I2S_DisableTx(I2S_Type * base)
 610:Generated_Source\PSoC6\pdl\drivers\peripheral\i2s/cy_i2s.h **** {
 611:Generated_Source\PSoC6\pdl\drivers\peripheral\i2s/cy_i2s.h ****     REG_I2S_CMD(base) &= (uint32_t) ~I2S_CMD_TX_START_Msk;
 612:Generated_Source\PSoC6\pdl\drivers\peripheral\i2s/cy_i2s.h **** }
 613:Generated_Source\PSoC6\pdl\drivers\peripheral\i2s/cy_i2s.h **** 
 614:Generated_Source\PSoC6\pdl\drivers\peripheral\i2s/cy_i2s.h **** 
 615:Generated_Source\PSoC6\pdl\drivers\peripheral\i2s/cy_i2s.h **** /*******************************************************************************
 616:Generated_Source\PSoC6\pdl\drivers\peripheral\i2s/cy_i2s.h **** * Function Name: Cy_I2S_EnableRx
 617:Generated_Source\PSoC6\pdl\drivers\peripheral\i2s/cy_i2s.h **** ****************************************************************************//**
 618:Generated_Source\PSoC6\pdl\drivers\peripheral\i2s/cy_i2s.h **** *
 619:Generated_Source\PSoC6\pdl\drivers\peripheral\i2s/cy_i2s.h **** * Starts an I2S reception. Interrupt enabling (by the 
 620:Generated_Source\PSoC6\pdl\drivers\peripheral\i2s/cy_i2s.h **** * \ref Cy_I2S_SetInterruptMask) is required after this function call, in case
 621:Generated_Source\PSoC6\pdl\drivers\peripheral\i2s/cy_i2s.h **** * any I2S interrupts are used in the application.
 622:Generated_Source\PSoC6\pdl\drivers\peripheral\i2s/cy_i2s.h **** *
 623:Generated_Source\PSoC6\pdl\drivers\peripheral\i2s/cy_i2s.h **** * \pre \ref Cy_I2S_Init() must be called before.
 624:Generated_Source\PSoC6\pdl\drivers\peripheral\i2s/cy_i2s.h **** *
 625:Generated_Source\PSoC6\pdl\drivers\peripheral\i2s/cy_i2s.h **** * \param base The pointer to the I2S instance address.
 626:Generated_Source\PSoC6\pdl\drivers\peripheral\i2s/cy_i2s.h **** *
 627:Generated_Source\PSoC6\pdl\drivers\peripheral\i2s/cy_i2s.h **** * \funcusage
 628:Generated_Source\PSoC6\pdl\drivers\peripheral\i2s/cy_i2s.h **** * \snippet i2s\2.10\snippet\main.c snippet_Cy_I2S_EnableRx
 629:Generated_Source\PSoC6\pdl\drivers\peripheral\i2s/cy_i2s.h **** *
 630:Generated_Source\PSoC6\pdl\drivers\peripheral\i2s/cy_i2s.h **** *******************************************************************************/
 631:Generated_Source\PSoC6\pdl\drivers\peripheral\i2s/cy_i2s.h **** __STATIC_INLINE void Cy_I2S_EnableRx(I2S_Type * base)
 632:Generated_Source\PSoC6\pdl\drivers\peripheral\i2s/cy_i2s.h **** {
 633:Generated_Source\PSoC6\pdl\drivers\peripheral\i2s/cy_i2s.h ****     REG_I2S_CMD(base) |= I2S_CMD_RX_START_Msk;
 634:Generated_Source\PSoC6\pdl\drivers\peripheral\i2s/cy_i2s.h **** }
 635:Generated_Source\PSoC6\pdl\drivers\peripheral\i2s/cy_i2s.h **** 
 636:Generated_Source\PSoC6\pdl\drivers\peripheral\i2s/cy_i2s.h **** 
 637:Generated_Source\PSoC6\pdl\drivers\peripheral\i2s/cy_i2s.h **** /*******************************************************************************
 638:Generated_Source\PSoC6\pdl\drivers\peripheral\i2s/cy_i2s.h **** * Function Name: Cy_I2S_DisableRx
 639:Generated_Source\PSoC6\pdl\drivers\peripheral\i2s/cy_i2s.h **** ****************************************************************************//**
 640:Generated_Source\PSoC6\pdl\drivers\peripheral\i2s/cy_i2s.h **** *
 641:Generated_Source\PSoC6\pdl\drivers\peripheral\i2s/cy_i2s.h **** * Stops an I2S reception.
 642:Generated_Source\PSoC6\pdl\drivers\peripheral\i2s/cy_i2s.h **** *
 643:Generated_Source\PSoC6\pdl\drivers\peripheral\i2s/cy_i2s.h **** * \pre RX interrupt disabling (by the \ref Cy_I2S_SetInterruptMask) is required
 644:Generated_Source\PSoC6\pdl\drivers\peripheral\i2s/cy_i2s.h **** * prior to this function call, in case any RX I2S interrupts are used.
 645:Generated_Source\PSoC6\pdl\drivers\peripheral\i2s/cy_i2s.h **** *
 646:Generated_Source\PSoC6\pdl\drivers\peripheral\i2s/cy_i2s.h **** * \param base The pointer to the I2S instance address.
 647:Generated_Source\PSoC6\pdl\drivers\peripheral\i2s/cy_i2s.h **** *
 648:Generated_Source\PSoC6\pdl\drivers\peripheral\i2s/cy_i2s.h **** * \funcusage
 649:Generated_Source\PSoC6\pdl\drivers\peripheral\i2s/cy_i2s.h **** * \snippet i2s\2.10\snippet\main.c snippet_Cy_I2S_DisableRx
 650:Generated_Source\PSoC6\pdl\drivers\peripheral\i2s/cy_i2s.h **** *
 651:Generated_Source\PSoC6\pdl\drivers\peripheral\i2s/cy_i2s.h **** *******************************************************************************/
 652:Generated_Source\PSoC6\pdl\drivers\peripheral\i2s/cy_i2s.h **** __STATIC_INLINE void Cy_I2S_DisableRx(I2S_Type * base)
 653:Generated_Source\PSoC6\pdl\drivers\peripheral\i2s/cy_i2s.h **** {
 654:Generated_Source\PSoC6\pdl\drivers\peripheral\i2s/cy_i2s.h ****     REG_I2S_CMD(base) &= (uint32_t) ~I2S_CMD_RX_START_Msk;
 655:Generated_Source\PSoC6\pdl\drivers\peripheral\i2s/cy_i2s.h **** }
 656:Generated_Source\PSoC6\pdl\drivers\peripheral\i2s/cy_i2s.h **** 
 657:Generated_Source\PSoC6\pdl\drivers\peripheral\i2s/cy_i2s.h **** 
 658:Generated_Source\PSoC6\pdl\drivers\peripheral\i2s/cy_i2s.h **** /*******************************************************************************
 659:Generated_Source\PSoC6\pdl\drivers\peripheral\i2s/cy_i2s.h **** * Function Name: Cy_I2S_GetCurrentState
 660:Generated_Source\PSoC6\pdl\drivers\peripheral\i2s/cy_i2s.h **** ****************************************************************************//**
 661:Generated_Source\PSoC6\pdl\drivers\peripheral\i2s/cy_i2s.h **** *
 662:Generated_Source\PSoC6\pdl\drivers\peripheral\i2s/cy_i2s.h **** * Returns the current I2S state (TX/RX running/paused/stopped).
 663:Generated_Source\PSoC6\pdl\drivers\peripheral\i2s/cy_i2s.h **** *
ARM GAS  C:\Users\dev\AppData\Local\Temp\ccJYAN2E.s 			page 30


 664:Generated_Source\PSoC6\pdl\drivers\peripheral\i2s/cy_i2s.h **** * \param base The pointer to the I2S instance address.
 665:Generated_Source\PSoC6\pdl\drivers\peripheral\i2s/cy_i2s.h **** *
 666:Generated_Source\PSoC6\pdl\drivers\peripheral\i2s/cy_i2s.h **** * \return The current state \ref group_i2s_macros_current_state.
 667:Generated_Source\PSoC6\pdl\drivers\peripheral\i2s/cy_i2s.h **** *
 668:Generated_Source\PSoC6\pdl\drivers\peripheral\i2s/cy_i2s.h **** * \funcusage
 669:Generated_Source\PSoC6\pdl\drivers\peripheral\i2s/cy_i2s.h **** * \snippet i2s\2.10\snippet\main.c snippet_Cy_I2S_GetCurrentState
 670:Generated_Source\PSoC6\pdl\drivers\peripheral\i2s/cy_i2s.h **** *
 671:Generated_Source\PSoC6\pdl\drivers\peripheral\i2s/cy_i2s.h **** *******************************************************************************/
 672:Generated_Source\PSoC6\pdl\drivers\peripheral\i2s/cy_i2s.h **** __STATIC_INLINE uint32_t Cy_I2S_GetCurrentState(I2S_Type const * base)
 673:Generated_Source\PSoC6\pdl\drivers\peripheral\i2s/cy_i2s.h **** {
 674:Generated_Source\PSoC6\pdl\drivers\peripheral\i2s/cy_i2s.h ****     return (REG_I2S_CMD(base) & (I2S_CMD_TX_START_Msk | I2S_CMD_TX_PAUSE_Msk | I2S_CMD_RX_START_Msk
 675:Generated_Source\PSoC6\pdl\drivers\peripheral\i2s/cy_i2s.h **** }
 676:Generated_Source\PSoC6\pdl\drivers\peripheral\i2s/cy_i2s.h **** 
 677:Generated_Source\PSoC6\pdl\drivers\peripheral\i2s/cy_i2s.h **** 
 678:Generated_Source\PSoC6\pdl\drivers\peripheral\i2s/cy_i2s.h **** /*******************************************************************************
 679:Generated_Source\PSoC6\pdl\drivers\peripheral\i2s/cy_i2s.h **** * Function Name: Cy_I2S_ClearTxFifo
 680:Generated_Source\PSoC6\pdl\drivers\peripheral\i2s/cy_i2s.h **** ****************************************************************************//**
 681:Generated_Source\PSoC6\pdl\drivers\peripheral\i2s/cy_i2s.h **** *
 682:Generated_Source\PSoC6\pdl\drivers\peripheral\i2s/cy_i2s.h **** * Clears the TX FIFO (resets the Read/Write FIFO pointers).
 683:Generated_Source\PSoC6\pdl\drivers\peripheral\i2s/cy_i2s.h **** *
 684:Generated_Source\PSoC6\pdl\drivers\peripheral\i2s/cy_i2s.h **** * \param base The pointer to the I2S instance address.
 685:Generated_Source\PSoC6\pdl\drivers\peripheral\i2s/cy_i2s.h **** *
 686:Generated_Source\PSoC6\pdl\drivers\peripheral\i2s/cy_i2s.h **** * \funcusage
 687:Generated_Source\PSoC6\pdl\drivers\peripheral\i2s/cy_i2s.h **** * \snippet i2s\2.10\snippet\main.c snippet_Cy_I2S_ClearTxFifo
 688:Generated_Source\PSoC6\pdl\drivers\peripheral\i2s/cy_i2s.h **** *
 689:Generated_Source\PSoC6\pdl\drivers\peripheral\i2s/cy_i2s.h **** *******************************************************************************/
 690:Generated_Source\PSoC6\pdl\drivers\peripheral\i2s/cy_i2s.h **** __STATIC_INLINE void Cy_I2S_ClearTxFifo(I2S_Type * base)
 691:Generated_Source\PSoC6\pdl\drivers\peripheral\i2s/cy_i2s.h **** {
 692:Generated_Source\PSoC6\pdl\drivers\peripheral\i2s/cy_i2s.h ****     REG_I2S_TX_FIFO_CTL(base) |= I2S_TX_FIFO_CTL_CLEAR_Msk;
 693:Generated_Source\PSoC6\pdl\drivers\peripheral\i2s/cy_i2s.h ****     REG_I2S_TX_FIFO_CTL(base) &= (uint32_t) ~I2S_TX_FIFO_CTL_CLEAR_Msk;
 694:Generated_Source\PSoC6\pdl\drivers\peripheral\i2s/cy_i2s.h ****     (void) REG_I2S_TX_FIFO_CTL(base);
 695:Generated_Source\PSoC6\pdl\drivers\peripheral\i2s/cy_i2s.h **** }
 696:Generated_Source\PSoC6\pdl\drivers\peripheral\i2s/cy_i2s.h **** 
 697:Generated_Source\PSoC6\pdl\drivers\peripheral\i2s/cy_i2s.h **** 
 698:Generated_Source\PSoC6\pdl\drivers\peripheral\i2s/cy_i2s.h **** /*******************************************************************************
 699:Generated_Source\PSoC6\pdl\drivers\peripheral\i2s/cy_i2s.h **** * Function Name: Cy_I2S_GetNumInTxFifo
 700:Generated_Source\PSoC6\pdl\drivers\peripheral\i2s/cy_i2s.h **** ****************************************************************************//**
 701:Generated_Source\PSoC6\pdl\drivers\peripheral\i2s/cy_i2s.h **** *
 702:Generated_Source\PSoC6\pdl\drivers\peripheral\i2s/cy_i2s.h **** * Gets the number of used words in the TX FIFO.
 703:Generated_Source\PSoC6\pdl\drivers\peripheral\i2s/cy_i2s.h **** *
 704:Generated_Source\PSoC6\pdl\drivers\peripheral\i2s/cy_i2s.h **** * \param base The pointer to the I2S instance address.
 705:Generated_Source\PSoC6\pdl\drivers\peripheral\i2s/cy_i2s.h **** *
 706:Generated_Source\PSoC6\pdl\drivers\peripheral\i2s/cy_i2s.h **** * \return The current number of used words in the TX FIFO.
 707:Generated_Source\PSoC6\pdl\drivers\peripheral\i2s/cy_i2s.h **** *
 708:Generated_Source\PSoC6\pdl\drivers\peripheral\i2s/cy_i2s.h **** * \funcusage
 709:Generated_Source\PSoC6\pdl\drivers\peripheral\i2s/cy_i2s.h **** * \snippet i2s\2.10\snippet\main.c snippet_Cy_I2S_GetNumInTxFifo
 710:Generated_Source\PSoC6\pdl\drivers\peripheral\i2s/cy_i2s.h **** *
 711:Generated_Source\PSoC6\pdl\drivers\peripheral\i2s/cy_i2s.h **** *******************************************************************************/
 712:Generated_Source\PSoC6\pdl\drivers\peripheral\i2s/cy_i2s.h **** __STATIC_INLINE uint32_t Cy_I2S_GetNumInTxFifo(I2S_Type const * base)
 713:Generated_Source\PSoC6\pdl\drivers\peripheral\i2s/cy_i2s.h **** {   
 714:Generated_Source\PSoC6\pdl\drivers\peripheral\i2s/cy_i2s.h ****     return (_FLD2VAL(I2S_TX_FIFO_STATUS_USED, REG_I2S_TX_FIFO_STATUS(base)));
 715:Generated_Source\PSoC6\pdl\drivers\peripheral\i2s/cy_i2s.h **** }
 716:Generated_Source\PSoC6\pdl\drivers\peripheral\i2s/cy_i2s.h **** 
 717:Generated_Source\PSoC6\pdl\drivers\peripheral\i2s/cy_i2s.h **** 
 718:Generated_Source\PSoC6\pdl\drivers\peripheral\i2s/cy_i2s.h **** /*******************************************************************************
 719:Generated_Source\PSoC6\pdl\drivers\peripheral\i2s/cy_i2s.h **** * Function Name: Cy_I2S_WriteTxData
 720:Generated_Source\PSoC6\pdl\drivers\peripheral\i2s/cy_i2s.h **** ****************************************************************************//**
ARM GAS  C:\Users\dev\AppData\Local\Temp\ccJYAN2E.s 			page 31


 721:Generated_Source\PSoC6\pdl\drivers\peripheral\i2s/cy_i2s.h **** *
 722:Generated_Source\PSoC6\pdl\drivers\peripheral\i2s/cy_i2s.h **** * Writes data to the TX FIFO. Increases the TX FIFO level.
 723:Generated_Source\PSoC6\pdl\drivers\peripheral\i2s/cy_i2s.h **** *
 724:Generated_Source\PSoC6\pdl\drivers\peripheral\i2s/cy_i2s.h **** * \param base The pointer to the I2S instance address.
 725:Generated_Source\PSoC6\pdl\drivers\peripheral\i2s/cy_i2s.h **** *
 726:Generated_Source\PSoC6\pdl\drivers\peripheral\i2s/cy_i2s.h **** * \param data Data to be written to the TX FIFO.
 727:Generated_Source\PSoC6\pdl\drivers\peripheral\i2s/cy_i2s.h **** *
 728:Generated_Source\PSoC6\pdl\drivers\peripheral\i2s/cy_i2s.h **** * \funcusage
 729:Generated_Source\PSoC6\pdl\drivers\peripheral\i2s/cy_i2s.h **** * \snippet i2s\2.10\snippet\main.c snippet_Cy_I2S_WriteTxData
 730:Generated_Source\PSoC6\pdl\drivers\peripheral\i2s/cy_i2s.h **** *
 731:Generated_Source\PSoC6\pdl\drivers\peripheral\i2s/cy_i2s.h **** *******************************************************************************/
 732:Generated_Source\PSoC6\pdl\drivers\peripheral\i2s/cy_i2s.h **** __STATIC_INLINE void Cy_I2S_WriteTxData(I2S_Type * base, uint32_t data)
 733:Generated_Source\PSoC6\pdl\drivers\peripheral\i2s/cy_i2s.h **** {
 734:Generated_Source\PSoC6\pdl\drivers\peripheral\i2s/cy_i2s.h ****     REG_I2S_TX_FIFO_WR(base) = data;
 735:Generated_Source\PSoC6\pdl\drivers\peripheral\i2s/cy_i2s.h **** }
 736:Generated_Source\PSoC6\pdl\drivers\peripheral\i2s/cy_i2s.h **** 
 737:Generated_Source\PSoC6\pdl\drivers\peripheral\i2s/cy_i2s.h **** 
 738:Generated_Source\PSoC6\pdl\drivers\peripheral\i2s/cy_i2s.h **** /*******************************************************************************
 739:Generated_Source\PSoC6\pdl\drivers\peripheral\i2s/cy_i2s.h **** * Function Name: Cy_I2S_GetTxReadPointer
 740:Generated_Source\PSoC6\pdl\drivers\peripheral\i2s/cy_i2s.h **** ****************************************************************************//**
 741:Generated_Source\PSoC6\pdl\drivers\peripheral\i2s/cy_i2s.h **** *
 742:Generated_Source\PSoC6\pdl\drivers\peripheral\i2s/cy_i2s.h **** * Gets the TX FIFO Read pointer. This function is for debug purposes.
 743:Generated_Source\PSoC6\pdl\drivers\peripheral\i2s/cy_i2s.h **** *
 744:Generated_Source\PSoC6\pdl\drivers\peripheral\i2s/cy_i2s.h **** * \param base The pointer to the I2S instance address.
 745:Generated_Source\PSoC6\pdl\drivers\peripheral\i2s/cy_i2s.h **** *
 746:Generated_Source\PSoC6\pdl\drivers\peripheral\i2s/cy_i2s.h **** * \return The current TX Read pointer value.
 747:Generated_Source\PSoC6\pdl\drivers\peripheral\i2s/cy_i2s.h **** *
 748:Generated_Source\PSoC6\pdl\drivers\peripheral\i2s/cy_i2s.h **** * \funcusage
 749:Generated_Source\PSoC6\pdl\drivers\peripheral\i2s/cy_i2s.h **** * \snippet i2s\2.10\snippet\main.c snippet_Cy_I2S_GetTxReadPointer
 750:Generated_Source\PSoC6\pdl\drivers\peripheral\i2s/cy_i2s.h **** *
 751:Generated_Source\PSoC6\pdl\drivers\peripheral\i2s/cy_i2s.h **** *******************************************************************************/
 752:Generated_Source\PSoC6\pdl\drivers\peripheral\i2s/cy_i2s.h **** __STATIC_INLINE uint8_t Cy_I2S_GetTxReadPointer(I2S_Type const * base)
 753:Generated_Source\PSoC6\pdl\drivers\peripheral\i2s/cy_i2s.h **** {
 754:Generated_Source\PSoC6\pdl\drivers\peripheral\i2s/cy_i2s.h ****     return ((uint8_t) _FLD2VAL(I2S_TX_FIFO_STATUS_RD_PTR, REG_I2S_TX_FIFO_STATUS(base)));
 755:Generated_Source\PSoC6\pdl\drivers\peripheral\i2s/cy_i2s.h **** }
 756:Generated_Source\PSoC6\pdl\drivers\peripheral\i2s/cy_i2s.h **** 
 757:Generated_Source\PSoC6\pdl\drivers\peripheral\i2s/cy_i2s.h **** 
 758:Generated_Source\PSoC6\pdl\drivers\peripheral\i2s/cy_i2s.h **** /*******************************************************************************
 759:Generated_Source\PSoC6\pdl\drivers\peripheral\i2s/cy_i2s.h **** * Function Name: Cy_I2S_GetTxWritePointer
 760:Generated_Source\PSoC6\pdl\drivers\peripheral\i2s/cy_i2s.h **** ****************************************************************************//**
 761:Generated_Source\PSoC6\pdl\drivers\peripheral\i2s/cy_i2s.h **** *
 762:Generated_Source\PSoC6\pdl\drivers\peripheral\i2s/cy_i2s.h **** * Gets the TX FIFO Write pointer. This function is for debug purposes.
 763:Generated_Source\PSoC6\pdl\drivers\peripheral\i2s/cy_i2s.h **** *
 764:Generated_Source\PSoC6\pdl\drivers\peripheral\i2s/cy_i2s.h **** * \param base The pointer to the I2S instance address.
 765:Generated_Source\PSoC6\pdl\drivers\peripheral\i2s/cy_i2s.h **** *
 766:Generated_Source\PSoC6\pdl\drivers\peripheral\i2s/cy_i2s.h **** * \return The current TX Write pointer value.
 767:Generated_Source\PSoC6\pdl\drivers\peripheral\i2s/cy_i2s.h **** *
 768:Generated_Source\PSoC6\pdl\drivers\peripheral\i2s/cy_i2s.h **** * \funcusage
 769:Generated_Source\PSoC6\pdl\drivers\peripheral\i2s/cy_i2s.h **** * \snippet i2s\2.10\snippet\main.c snippet_Cy_I2S_GetTxWritePointer
 770:Generated_Source\PSoC6\pdl\drivers\peripheral\i2s/cy_i2s.h **** *
 771:Generated_Source\PSoC6\pdl\drivers\peripheral\i2s/cy_i2s.h **** *******************************************************************************/
 772:Generated_Source\PSoC6\pdl\drivers\peripheral\i2s/cy_i2s.h **** __STATIC_INLINE uint8_t Cy_I2S_GetTxWritePointer(I2S_Type const * base)
 773:Generated_Source\PSoC6\pdl\drivers\peripheral\i2s/cy_i2s.h **** {
 774:Generated_Source\PSoC6\pdl\drivers\peripheral\i2s/cy_i2s.h ****     return ((uint8_t) _FLD2VAL(I2S_TX_FIFO_STATUS_WR_PTR, REG_I2S_TX_FIFO_STATUS(base)));
 775:Generated_Source\PSoC6\pdl\drivers\peripheral\i2s/cy_i2s.h **** }
 776:Generated_Source\PSoC6\pdl\drivers\peripheral\i2s/cy_i2s.h **** 
 777:Generated_Source\PSoC6\pdl\drivers\peripheral\i2s/cy_i2s.h **** 
ARM GAS  C:\Users\dev\AppData\Local\Temp\ccJYAN2E.s 			page 32


 778:Generated_Source\PSoC6\pdl\drivers\peripheral\i2s/cy_i2s.h **** /*******************************************************************************
 779:Generated_Source\PSoC6\pdl\drivers\peripheral\i2s/cy_i2s.h **** * Function Name: Cy_I2S_FreezeTxFifo
 780:Generated_Source\PSoC6\pdl\drivers\peripheral\i2s/cy_i2s.h **** ****************************************************************************//**
 781:Generated_Source\PSoC6\pdl\drivers\peripheral\i2s/cy_i2s.h **** *
 782:Generated_Source\PSoC6\pdl\drivers\peripheral\i2s/cy_i2s.h **** * Freezes the TX FIFO. This function is for debug purposes.
 783:Generated_Source\PSoC6\pdl\drivers\peripheral\i2s/cy_i2s.h **** *
 784:Generated_Source\PSoC6\pdl\drivers\peripheral\i2s/cy_i2s.h **** * \param base The pointer to the I2S instance address.
 785:Generated_Source\PSoC6\pdl\drivers\peripheral\i2s/cy_i2s.h **** *
 786:Generated_Source\PSoC6\pdl\drivers\peripheral\i2s/cy_i2s.h **** * \funcusage
 787:Generated_Source\PSoC6\pdl\drivers\peripheral\i2s/cy_i2s.h **** * \snippet i2s\2.10\snippet\main.c snippet_Cy_I2S_FreezeTxFifo
 788:Generated_Source\PSoC6\pdl\drivers\peripheral\i2s/cy_i2s.h **** *
 789:Generated_Source\PSoC6\pdl\drivers\peripheral\i2s/cy_i2s.h **** *******************************************************************************/
 790:Generated_Source\PSoC6\pdl\drivers\peripheral\i2s/cy_i2s.h **** __STATIC_INLINE void Cy_I2S_FreezeTxFifo(I2S_Type * base)
 791:Generated_Source\PSoC6\pdl\drivers\peripheral\i2s/cy_i2s.h **** {
 792:Generated_Source\PSoC6\pdl\drivers\peripheral\i2s/cy_i2s.h ****     REG_I2S_TX_FIFO_CTL(base) |= I2S_TX_FIFO_CTL_FREEZE_Msk;
 793:Generated_Source\PSoC6\pdl\drivers\peripheral\i2s/cy_i2s.h **** }
 794:Generated_Source\PSoC6\pdl\drivers\peripheral\i2s/cy_i2s.h **** 
 795:Generated_Source\PSoC6\pdl\drivers\peripheral\i2s/cy_i2s.h **** 
 796:Generated_Source\PSoC6\pdl\drivers\peripheral\i2s/cy_i2s.h **** /*******************************************************************************
 797:Generated_Source\PSoC6\pdl\drivers\peripheral\i2s/cy_i2s.h **** * Function Name: Cy_I2S_UnfreezeTxFifo
 798:Generated_Source\PSoC6\pdl\drivers\peripheral\i2s/cy_i2s.h **** ****************************************************************************//**
 799:Generated_Source\PSoC6\pdl\drivers\peripheral\i2s/cy_i2s.h **** *
 800:Generated_Source\PSoC6\pdl\drivers\peripheral\i2s/cy_i2s.h **** * Unfreezes the TX FIFO. This function is for debug purposes.
 801:Generated_Source\PSoC6\pdl\drivers\peripheral\i2s/cy_i2s.h **** *
 802:Generated_Source\PSoC6\pdl\drivers\peripheral\i2s/cy_i2s.h **** * \param base The pointer to the I2S instance address.
 803:Generated_Source\PSoC6\pdl\drivers\peripheral\i2s/cy_i2s.h **** *
 804:Generated_Source\PSoC6\pdl\drivers\peripheral\i2s/cy_i2s.h **** * \funcusage
 805:Generated_Source\PSoC6\pdl\drivers\peripheral\i2s/cy_i2s.h **** * \snippet i2s\2.10\snippet\main.c snippet_Cy_I2S_UnfreezeTxFifo
 806:Generated_Source\PSoC6\pdl\drivers\peripheral\i2s/cy_i2s.h **** *
 807:Generated_Source\PSoC6\pdl\drivers\peripheral\i2s/cy_i2s.h **** *******************************************************************************/
 808:Generated_Source\PSoC6\pdl\drivers\peripheral\i2s/cy_i2s.h **** __STATIC_INLINE void Cy_I2S_UnfreezeTxFifo(I2S_Type * base)
 809:Generated_Source\PSoC6\pdl\drivers\peripheral\i2s/cy_i2s.h **** {
 810:Generated_Source\PSoC6\pdl\drivers\peripheral\i2s/cy_i2s.h ****     REG_I2S_TX_FIFO_CTL(base) &= (uint32_t) ~I2S_TX_FIFO_CTL_FREEZE_Msk;
 811:Generated_Source\PSoC6\pdl\drivers\peripheral\i2s/cy_i2s.h **** }
 812:Generated_Source\PSoC6\pdl\drivers\peripheral\i2s/cy_i2s.h **** 
 813:Generated_Source\PSoC6\pdl\drivers\peripheral\i2s/cy_i2s.h **** 
 814:Generated_Source\PSoC6\pdl\drivers\peripheral\i2s/cy_i2s.h **** /*******************************************************************************
 815:Generated_Source\PSoC6\pdl\drivers\peripheral\i2s/cy_i2s.h **** * Function Name: Cy_I2S_ClearRxFifo
 816:Generated_Source\PSoC6\pdl\drivers\peripheral\i2s/cy_i2s.h **** ****************************************************************************//**
 817:Generated_Source\PSoC6\pdl\drivers\peripheral\i2s/cy_i2s.h **** *
 818:Generated_Source\PSoC6\pdl\drivers\peripheral\i2s/cy_i2s.h **** * Clears the RX FIFO (resets the Read/Write FIFO pointers).
 819:Generated_Source\PSoC6\pdl\drivers\peripheral\i2s/cy_i2s.h **** *
 820:Generated_Source\PSoC6\pdl\drivers\peripheral\i2s/cy_i2s.h **** * \param base The pointer to the I2S instance address.
 821:Generated_Source\PSoC6\pdl\drivers\peripheral\i2s/cy_i2s.h **** *
 822:Generated_Source\PSoC6\pdl\drivers\peripheral\i2s/cy_i2s.h **** * \funcusage
 823:Generated_Source\PSoC6\pdl\drivers\peripheral\i2s/cy_i2s.h **** * \snippet i2s\2.10\snippet\main.c snippet_Cy_I2S_ClearRxFifo
 824:Generated_Source\PSoC6\pdl\drivers\peripheral\i2s/cy_i2s.h **** *
 825:Generated_Source\PSoC6\pdl\drivers\peripheral\i2s/cy_i2s.h **** *******************************************************************************/
 826:Generated_Source\PSoC6\pdl\drivers\peripheral\i2s/cy_i2s.h **** __STATIC_INLINE void Cy_I2S_ClearRxFifo(I2S_Type * base)
 827:Generated_Source\PSoC6\pdl\drivers\peripheral\i2s/cy_i2s.h **** {
 828:Generated_Source\PSoC6\pdl\drivers\peripheral\i2s/cy_i2s.h ****     REG_I2S_RX_FIFO_CTL(base)  |= I2S_RX_FIFO_CTL_CLEAR_Msk;
 829:Generated_Source\PSoC6\pdl\drivers\peripheral\i2s/cy_i2s.h ****     REG_I2S_RX_FIFO_CTL(base)  &= (uint32_t) ~I2S_RX_FIFO_CTL_CLEAR_Msk;
 830:Generated_Source\PSoC6\pdl\drivers\peripheral\i2s/cy_i2s.h ****     (void) REG_I2S_RX_FIFO_CTL(base) ;
 831:Generated_Source\PSoC6\pdl\drivers\peripheral\i2s/cy_i2s.h **** }
 832:Generated_Source\PSoC6\pdl\drivers\peripheral\i2s/cy_i2s.h **** 
 833:Generated_Source\PSoC6\pdl\drivers\peripheral\i2s/cy_i2s.h **** 
 834:Generated_Source\PSoC6\pdl\drivers\peripheral\i2s/cy_i2s.h **** /*******************************************************************************
ARM GAS  C:\Users\dev\AppData\Local\Temp\ccJYAN2E.s 			page 33


 835:Generated_Source\PSoC6\pdl\drivers\peripheral\i2s/cy_i2s.h **** * Function Name: Cy_I2S_GetNumInRxFifo
 836:Generated_Source\PSoC6\pdl\drivers\peripheral\i2s/cy_i2s.h **** ****************************************************************************//**
 837:Generated_Source\PSoC6\pdl\drivers\peripheral\i2s/cy_i2s.h **** *
 838:Generated_Source\PSoC6\pdl\drivers\peripheral\i2s/cy_i2s.h **** * Gets the number of used words in the RX FIFO.
 839:Generated_Source\PSoC6\pdl\drivers\peripheral\i2s/cy_i2s.h **** *
 840:Generated_Source\PSoC6\pdl\drivers\peripheral\i2s/cy_i2s.h **** * \param base The pointer to the I2S instance address.
 841:Generated_Source\PSoC6\pdl\drivers\peripheral\i2s/cy_i2s.h **** *
 842:Generated_Source\PSoC6\pdl\drivers\peripheral\i2s/cy_i2s.h **** * \return The current number of used words in rge RX FIFO.
 843:Generated_Source\PSoC6\pdl\drivers\peripheral\i2s/cy_i2s.h **** *
 844:Generated_Source\PSoC6\pdl\drivers\peripheral\i2s/cy_i2s.h **** * \funcusage
 845:Generated_Source\PSoC6\pdl\drivers\peripheral\i2s/cy_i2s.h **** * \snippet i2s\2.10\snippet\main.c snippet_Cy_I2S_GetNumInRxFifo
 846:Generated_Source\PSoC6\pdl\drivers\peripheral\i2s/cy_i2s.h **** *
 847:Generated_Source\PSoC6\pdl\drivers\peripheral\i2s/cy_i2s.h **** *******************************************************************************/
 848:Generated_Source\PSoC6\pdl\drivers\peripheral\i2s/cy_i2s.h **** __STATIC_INLINE uint32_t Cy_I2S_GetNumInRxFifo(I2S_Type const * base)
 849:Generated_Source\PSoC6\pdl\drivers\peripheral\i2s/cy_i2s.h **** {
 850:Generated_Source\PSoC6\pdl\drivers\peripheral\i2s/cy_i2s.h ****     return (_FLD2VAL(I2S_RX_FIFO_STATUS_USED, REG_I2S_RX_FIFO_STATUS(base)));
 851:Generated_Source\PSoC6\pdl\drivers\peripheral\i2s/cy_i2s.h **** }
 852:Generated_Source\PSoC6\pdl\drivers\peripheral\i2s/cy_i2s.h **** 
 853:Generated_Source\PSoC6\pdl\drivers\peripheral\i2s/cy_i2s.h **** 
 854:Generated_Source\PSoC6\pdl\drivers\peripheral\i2s/cy_i2s.h **** /*******************************************************************************
 855:Generated_Source\PSoC6\pdl\drivers\peripheral\i2s/cy_i2s.h **** * Function Name: Cy_I2S_ReadRxData
 856:Generated_Source\PSoC6\pdl\drivers\peripheral\i2s/cy_i2s.h **** ****************************************************************************//**
 857:Generated_Source\PSoC6\pdl\drivers\peripheral\i2s/cy_i2s.h **** *
 858:Generated_Source\PSoC6\pdl\drivers\peripheral\i2s/cy_i2s.h **** * Reads data from the RX FIFO. Decreases the RX FIFO level.
 859:Generated_Source\PSoC6\pdl\drivers\peripheral\i2s/cy_i2s.h **** *
 860:Generated_Source\PSoC6\pdl\drivers\peripheral\i2s/cy_i2s.h **** * \param base The pointer to the I2S instance address.
 861:Generated_Source\PSoC6\pdl\drivers\peripheral\i2s/cy_i2s.h **** *
 862:Generated_Source\PSoC6\pdl\drivers\peripheral\i2s/cy_i2s.h **** * \return The read data.
 863:Generated_Source\PSoC6\pdl\drivers\peripheral\i2s/cy_i2s.h **** *
 864:Generated_Source\PSoC6\pdl\drivers\peripheral\i2s/cy_i2s.h **** * \funcusage
 865:Generated_Source\PSoC6\pdl\drivers\peripheral\i2s/cy_i2s.h **** * \snippet i2s\2.10\snippet\main.c snippet_Cy_I2S_ReadRxData
 866:Generated_Source\PSoC6\pdl\drivers\peripheral\i2s/cy_i2s.h **** *
 867:Generated_Source\PSoC6\pdl\drivers\peripheral\i2s/cy_i2s.h **** *******************************************************************************/
 868:Generated_Source\PSoC6\pdl\drivers\peripheral\i2s/cy_i2s.h **** __STATIC_INLINE uint32_t Cy_I2S_ReadRxData(I2S_Type const * base)
 869:Generated_Source\PSoC6\pdl\drivers\peripheral\i2s/cy_i2s.h **** {
 870:Generated_Source\PSoC6\pdl\drivers\peripheral\i2s/cy_i2s.h ****     return (REG_I2S_RX_FIFO_RD(base));
 871:Generated_Source\PSoC6\pdl\drivers\peripheral\i2s/cy_i2s.h **** }
 872:Generated_Source\PSoC6\pdl\drivers\peripheral\i2s/cy_i2s.h **** 
 873:Generated_Source\PSoC6\pdl\drivers\peripheral\i2s/cy_i2s.h **** 
 874:Generated_Source\PSoC6\pdl\drivers\peripheral\i2s/cy_i2s.h **** /*******************************************************************************
 875:Generated_Source\PSoC6\pdl\drivers\peripheral\i2s/cy_i2s.h **** * Function Name: Cy_I2S_ReadRxDataSilent
 876:Generated_Source\PSoC6\pdl\drivers\peripheral\i2s/cy_i2s.h **** ****************************************************************************//**
 877:Generated_Source\PSoC6\pdl\drivers\peripheral\i2s/cy_i2s.h **** *
 878:Generated_Source\PSoC6\pdl\drivers\peripheral\i2s/cy_i2s.h **** * Reads data from the RX FIFO without updating the RX FIFO read pointer.
 879:Generated_Source\PSoC6\pdl\drivers\peripheral\i2s/cy_i2s.h **** * This function is for debug purposes.
 880:Generated_Source\PSoC6\pdl\drivers\peripheral\i2s/cy_i2s.h **** *
 881:Generated_Source\PSoC6\pdl\drivers\peripheral\i2s/cy_i2s.h **** * \param base The pointer to the I2S instance address.
 882:Generated_Source\PSoC6\pdl\drivers\peripheral\i2s/cy_i2s.h **** *
 883:Generated_Source\PSoC6\pdl\drivers\peripheral\i2s/cy_i2s.h **** * \return The read data.
 884:Generated_Source\PSoC6\pdl\drivers\peripheral\i2s/cy_i2s.h **** *
 885:Generated_Source\PSoC6\pdl\drivers\peripheral\i2s/cy_i2s.h **** * \funcusage
 886:Generated_Source\PSoC6\pdl\drivers\peripheral\i2s/cy_i2s.h **** * \snippet i2s\2.10\snippet\main.c snippet_Cy_I2S_ReadRxDataSilent
 887:Generated_Source\PSoC6\pdl\drivers\peripheral\i2s/cy_i2s.h **** *
 888:Generated_Source\PSoC6\pdl\drivers\peripheral\i2s/cy_i2s.h **** *******************************************************************************/
 889:Generated_Source\PSoC6\pdl\drivers\peripheral\i2s/cy_i2s.h **** __STATIC_INLINE uint32_t Cy_I2S_ReadRxDataSilent(I2S_Type const * base)
 890:Generated_Source\PSoC6\pdl\drivers\peripheral\i2s/cy_i2s.h **** {
 891:Generated_Source\PSoC6\pdl\drivers\peripheral\i2s/cy_i2s.h ****     return (REG_I2S_RX_FIFO_RD_SILENT(base));
ARM GAS  C:\Users\dev\AppData\Local\Temp\ccJYAN2E.s 			page 34


 892:Generated_Source\PSoC6\pdl\drivers\peripheral\i2s/cy_i2s.h **** }
 893:Generated_Source\PSoC6\pdl\drivers\peripheral\i2s/cy_i2s.h **** 
 894:Generated_Source\PSoC6\pdl\drivers\peripheral\i2s/cy_i2s.h **** 
 895:Generated_Source\PSoC6\pdl\drivers\peripheral\i2s/cy_i2s.h **** /*******************************************************************************
 896:Generated_Source\PSoC6\pdl\drivers\peripheral\i2s/cy_i2s.h **** * Function Name: Cy_I2S_GetRxReadPointer
 897:Generated_Source\PSoC6\pdl\drivers\peripheral\i2s/cy_i2s.h **** ****************************************************************************//**
 898:Generated_Source\PSoC6\pdl\drivers\peripheral\i2s/cy_i2s.h **** *
 899:Generated_Source\PSoC6\pdl\drivers\peripheral\i2s/cy_i2s.h **** * Gets the RX FIFO Read pointer. This function is for debug purposes.
 900:Generated_Source\PSoC6\pdl\drivers\peripheral\i2s/cy_i2s.h **** *
 901:Generated_Source\PSoC6\pdl\drivers\peripheral\i2s/cy_i2s.h **** * \param base The pointer to the I2S instance address.
 902:Generated_Source\PSoC6\pdl\drivers\peripheral\i2s/cy_i2s.h **** *
 903:Generated_Source\PSoC6\pdl\drivers\peripheral\i2s/cy_i2s.h **** * \return The current RX Read pointer value.
 904:Generated_Source\PSoC6\pdl\drivers\peripheral\i2s/cy_i2s.h **** *
 905:Generated_Source\PSoC6\pdl\drivers\peripheral\i2s/cy_i2s.h **** * \funcusage
 906:Generated_Source\PSoC6\pdl\drivers\peripheral\i2s/cy_i2s.h **** * \snippet i2s\2.10\snippet\main.c snippet_Cy_I2S_GetRxReadPointer
 907:Generated_Source\PSoC6\pdl\drivers\peripheral\i2s/cy_i2s.h **** *
 908:Generated_Source\PSoC6\pdl\drivers\peripheral\i2s/cy_i2s.h **** *******************************************************************************/
 909:Generated_Source\PSoC6\pdl\drivers\peripheral\i2s/cy_i2s.h **** __STATIC_INLINE uint8_t Cy_I2S_GetRxReadPointer(I2S_Type const * base)
 910:Generated_Source\PSoC6\pdl\drivers\peripheral\i2s/cy_i2s.h **** {
 911:Generated_Source\PSoC6\pdl\drivers\peripheral\i2s/cy_i2s.h ****     return ((uint8_t) _FLD2VAL(I2S_RX_FIFO_STATUS_RD_PTR, REG_I2S_RX_FIFO_STATUS(base)));
 912:Generated_Source\PSoC6\pdl\drivers\peripheral\i2s/cy_i2s.h **** }
 913:Generated_Source\PSoC6\pdl\drivers\peripheral\i2s/cy_i2s.h **** 
 914:Generated_Source\PSoC6\pdl\drivers\peripheral\i2s/cy_i2s.h **** 
 915:Generated_Source\PSoC6\pdl\drivers\peripheral\i2s/cy_i2s.h **** /*******************************************************************************
 916:Generated_Source\PSoC6\pdl\drivers\peripheral\i2s/cy_i2s.h **** * Function Name: Cy_I2S_GetRxWritePointer
 917:Generated_Source\PSoC6\pdl\drivers\peripheral\i2s/cy_i2s.h **** ****************************************************************************//**
 918:Generated_Source\PSoC6\pdl\drivers\peripheral\i2s/cy_i2s.h **** *
 919:Generated_Source\PSoC6\pdl\drivers\peripheral\i2s/cy_i2s.h **** * Gets the RX FIFO Write pointer. This function is for debug purposes.
 920:Generated_Source\PSoC6\pdl\drivers\peripheral\i2s/cy_i2s.h **** *
 921:Generated_Source\PSoC6\pdl\drivers\peripheral\i2s/cy_i2s.h **** * \param base The pointer to the I2S instance address.
 922:Generated_Source\PSoC6\pdl\drivers\peripheral\i2s/cy_i2s.h **** *
 923:Generated_Source\PSoC6\pdl\drivers\peripheral\i2s/cy_i2s.h **** * \return The current RX Write pointer value.
 924:Generated_Source\PSoC6\pdl\drivers\peripheral\i2s/cy_i2s.h **** *
 925:Generated_Source\PSoC6\pdl\drivers\peripheral\i2s/cy_i2s.h **** * \funcusage
 926:Generated_Source\PSoC6\pdl\drivers\peripheral\i2s/cy_i2s.h **** * \snippet i2s\2.10\snippet\main.c snippet_Cy_I2S_GetRxWritePointer
 927:Generated_Source\PSoC6\pdl\drivers\peripheral\i2s/cy_i2s.h **** *
 928:Generated_Source\PSoC6\pdl\drivers\peripheral\i2s/cy_i2s.h **** *******************************************************************************/
 929:Generated_Source\PSoC6\pdl\drivers\peripheral\i2s/cy_i2s.h **** __STATIC_INLINE uint8_t Cy_I2S_GetRxWritePointer(I2S_Type const * base)
 930:Generated_Source\PSoC6\pdl\drivers\peripheral\i2s/cy_i2s.h **** {
 931:Generated_Source\PSoC6\pdl\drivers\peripheral\i2s/cy_i2s.h ****     return ((uint8_t) _FLD2VAL(I2S_RX_FIFO_STATUS_WR_PTR, REG_I2S_RX_FIFO_STATUS(base)));
 932:Generated_Source\PSoC6\pdl\drivers\peripheral\i2s/cy_i2s.h **** }
 933:Generated_Source\PSoC6\pdl\drivers\peripheral\i2s/cy_i2s.h **** 
 934:Generated_Source\PSoC6\pdl\drivers\peripheral\i2s/cy_i2s.h **** 
 935:Generated_Source\PSoC6\pdl\drivers\peripheral\i2s/cy_i2s.h **** /*******************************************************************************
 936:Generated_Source\PSoC6\pdl\drivers\peripheral\i2s/cy_i2s.h **** * Function Name: Cy_I2S_FreezeRxFifo
 937:Generated_Source\PSoC6\pdl\drivers\peripheral\i2s/cy_i2s.h **** ****************************************************************************//**
 938:Generated_Source\PSoC6\pdl\drivers\peripheral\i2s/cy_i2s.h **** *
 939:Generated_Source\PSoC6\pdl\drivers\peripheral\i2s/cy_i2s.h **** * Freezes the RX FIFO. This function is for debug purposes.
 940:Generated_Source\PSoC6\pdl\drivers\peripheral\i2s/cy_i2s.h **** *
 941:Generated_Source\PSoC6\pdl\drivers\peripheral\i2s/cy_i2s.h **** * \param base The pointer to the I2S instance address.
 942:Generated_Source\PSoC6\pdl\drivers\peripheral\i2s/cy_i2s.h **** *
 943:Generated_Source\PSoC6\pdl\drivers\peripheral\i2s/cy_i2s.h **** * \funcusage
 944:Generated_Source\PSoC6\pdl\drivers\peripheral\i2s/cy_i2s.h **** * \snippet i2s\2.10\snippet\main.c snippet_Cy_I2S_FreezeRxFifo
 945:Generated_Source\PSoC6\pdl\drivers\peripheral\i2s/cy_i2s.h **** *
 946:Generated_Source\PSoC6\pdl\drivers\peripheral\i2s/cy_i2s.h **** *******************************************************************************/
 947:Generated_Source\PSoC6\pdl\drivers\peripheral\i2s/cy_i2s.h **** __STATIC_INLINE void Cy_I2S_FreezeRxFifo(I2S_Type * base)
 948:Generated_Source\PSoC6\pdl\drivers\peripheral\i2s/cy_i2s.h **** {
ARM GAS  C:\Users\dev\AppData\Local\Temp\ccJYAN2E.s 			page 35


 949:Generated_Source\PSoC6\pdl\drivers\peripheral\i2s/cy_i2s.h ****     REG_I2S_RX_FIFO_CTL(base) |= I2S_RX_FIFO_CTL_FREEZE_Msk;
 950:Generated_Source\PSoC6\pdl\drivers\peripheral\i2s/cy_i2s.h **** }
 951:Generated_Source\PSoC6\pdl\drivers\peripheral\i2s/cy_i2s.h **** 
 952:Generated_Source\PSoC6\pdl\drivers\peripheral\i2s/cy_i2s.h **** 
 953:Generated_Source\PSoC6\pdl\drivers\peripheral\i2s/cy_i2s.h **** /*******************************************************************************
 954:Generated_Source\PSoC6\pdl\drivers\peripheral\i2s/cy_i2s.h **** * Function Name: Cy_I2S_UnfreezeRxFifo
 955:Generated_Source\PSoC6\pdl\drivers\peripheral\i2s/cy_i2s.h **** ****************************************************************************//**
 956:Generated_Source\PSoC6\pdl\drivers\peripheral\i2s/cy_i2s.h **** *
 957:Generated_Source\PSoC6\pdl\drivers\peripheral\i2s/cy_i2s.h **** * Unfreezes the RX FIFO. This function is for debug purposes.
 958:Generated_Source\PSoC6\pdl\drivers\peripheral\i2s/cy_i2s.h **** *
 959:Generated_Source\PSoC6\pdl\drivers\peripheral\i2s/cy_i2s.h **** * \param base The pointer to the I2S instance address.
 960:Generated_Source\PSoC6\pdl\drivers\peripheral\i2s/cy_i2s.h **** *
 961:Generated_Source\PSoC6\pdl\drivers\peripheral\i2s/cy_i2s.h **** * \funcusage
 962:Generated_Source\PSoC6\pdl\drivers\peripheral\i2s/cy_i2s.h **** * \snippet i2s\2.10\snippet\main.c snippet_Cy_I2S_UnfreezeRxFifo
 963:Generated_Source\PSoC6\pdl\drivers\peripheral\i2s/cy_i2s.h **** *
 964:Generated_Source\PSoC6\pdl\drivers\peripheral\i2s/cy_i2s.h **** *******************************************************************************/
 965:Generated_Source\PSoC6\pdl\drivers\peripheral\i2s/cy_i2s.h **** __STATIC_INLINE void Cy_I2S_UnfreezeRxFifo(I2S_Type * base)
 966:Generated_Source\PSoC6\pdl\drivers\peripheral\i2s/cy_i2s.h **** {
 967:Generated_Source\PSoC6\pdl\drivers\peripheral\i2s/cy_i2s.h ****     REG_I2S_RX_FIFO_CTL(base) &= (uint32_t) ~I2S_RX_FIFO_CTL_FREEZE_Msk;
 968:Generated_Source\PSoC6\pdl\drivers\peripheral\i2s/cy_i2s.h **** }
 969:Generated_Source\PSoC6\pdl\drivers\peripheral\i2s/cy_i2s.h **** 
 970:Generated_Source\PSoC6\pdl\drivers\peripheral\i2s/cy_i2s.h **** 
 971:Generated_Source\PSoC6\pdl\drivers\peripheral\i2s/cy_i2s.h **** /*******************************************************************************
 972:Generated_Source\PSoC6\pdl\drivers\peripheral\i2s/cy_i2s.h **** * Function Name: Cy_I2S_GetInterruptStatus
 973:Generated_Source\PSoC6\pdl\drivers\peripheral\i2s/cy_i2s.h **** ****************************************************************************//**
 974:Generated_Source\PSoC6\pdl\drivers\peripheral\i2s/cy_i2s.h **** *
 975:Generated_Source\PSoC6\pdl\drivers\peripheral\i2s/cy_i2s.h **** * Gets an interrupt status (returns a content of the INTR register).
 976:Generated_Source\PSoC6\pdl\drivers\peripheral\i2s/cy_i2s.h **** *
 977:Generated_Source\PSoC6\pdl\drivers\peripheral\i2s/cy_i2s.h **** * \param base The pointer to the I2S instance address.
 978:Generated_Source\PSoC6\pdl\drivers\peripheral\i2s/cy_i2s.h **** *
 979:Generated_Source\PSoC6\pdl\drivers\peripheral\i2s/cy_i2s.h **** * \return The interrupt bit mask \ref group_i2s_macros_interrupt_masks.
 980:Generated_Source\PSoC6\pdl\drivers\peripheral\i2s/cy_i2s.h **** *
 981:Generated_Source\PSoC6\pdl\drivers\peripheral\i2s/cy_i2s.h **** * \funcusage
 982:Generated_Source\PSoC6\pdl\drivers\peripheral\i2s/cy_i2s.h **** * \snippet i2s\2.10\snippet\main.c snippet_Cy_I2S_GetInterruptStatus
 983:Generated_Source\PSoC6\pdl\drivers\peripheral\i2s/cy_i2s.h **** *
 984:Generated_Source\PSoC6\pdl\drivers\peripheral\i2s/cy_i2s.h **** *******************************************************************************/
 985:Generated_Source\PSoC6\pdl\drivers\peripheral\i2s/cy_i2s.h **** __STATIC_INLINE uint32_t Cy_I2S_GetInterruptStatus(I2S_Type const * base)
 986:Generated_Source\PSoC6\pdl\drivers\peripheral\i2s/cy_i2s.h **** {
 987:Generated_Source\PSoC6\pdl\drivers\peripheral\i2s/cy_i2s.h ****     return (REG_I2S_INTR(base));
 988:Generated_Source\PSoC6\pdl\drivers\peripheral\i2s/cy_i2s.h **** }
 989:Generated_Source\PSoC6\pdl\drivers\peripheral\i2s/cy_i2s.h **** 
 990:Generated_Source\PSoC6\pdl\drivers\peripheral\i2s/cy_i2s.h **** 
 991:Generated_Source\PSoC6\pdl\drivers\peripheral\i2s/cy_i2s.h **** /*******************************************************************************
 992:Generated_Source\PSoC6\pdl\drivers\peripheral\i2s/cy_i2s.h **** * Function Name: Cy_I2S_ClearInterrupt
 993:Generated_Source\PSoC6\pdl\drivers\peripheral\i2s/cy_i2s.h **** ****************************************************************************//**
 994:Generated_Source\PSoC6\pdl\drivers\peripheral\i2s/cy_i2s.h **** *
 995:Generated_Source\PSoC6\pdl\drivers\peripheral\i2s/cy_i2s.h **** * Clears one or more interrupt factors (sets the INTR register).
 996:Generated_Source\PSoC6\pdl\drivers\peripheral\i2s/cy_i2s.h **** *
 997:Generated_Source\PSoC6\pdl\drivers\peripheral\i2s/cy_i2s.h **** * \param base      The pointer to the I2S instance address.
 998:Generated_Source\PSoC6\pdl\drivers\peripheral\i2s/cy_i2s.h **** *
 999:Generated_Source\PSoC6\pdl\drivers\peripheral\i2s/cy_i2s.h **** * \param interrupt Interrupt bit mask \ref group_i2s_macros_interrupt_masks.
1000:Generated_Source\PSoC6\pdl\drivers\peripheral\i2s/cy_i2s.h **** *
1001:Generated_Source\PSoC6\pdl\drivers\peripheral\i2s/cy_i2s.h **** * \funcusage
1002:Generated_Source\PSoC6\pdl\drivers\peripheral\i2s/cy_i2s.h **** * \snippet i2s\2.10\snippet\main.c snippet_Cy_I2S_ClearInterrupt
1003:Generated_Source\PSoC6\pdl\drivers\peripheral\i2s/cy_i2s.h **** *
1004:Generated_Source\PSoC6\pdl\drivers\peripheral\i2s/cy_i2s.h **** *******************************************************************************/
1005:Generated_Source\PSoC6\pdl\drivers\peripheral\i2s/cy_i2s.h **** __STATIC_INLINE void Cy_I2S_ClearInterrupt(I2S_Type * base, uint32_t interrupt)
ARM GAS  C:\Users\dev\AppData\Local\Temp\ccJYAN2E.s 			page 36


1006:Generated_Source\PSoC6\pdl\drivers\peripheral\i2s/cy_i2s.h **** {
1007:Generated_Source\PSoC6\pdl\drivers\peripheral\i2s/cy_i2s.h ****     CY_ASSERT_L2(CY_I2S_IS_INTR_MASK_VALID(interrupt));
1008:Generated_Source\PSoC6\pdl\drivers\peripheral\i2s/cy_i2s.h ****     REG_I2S_INTR(base) = interrupt;
1009:Generated_Source\PSoC6\pdl\drivers\peripheral\i2s/cy_i2s.h ****     (void) REG_I2S_INTR(base);
1010:Generated_Source\PSoC6\pdl\drivers\peripheral\i2s/cy_i2s.h **** }
1011:Generated_Source\PSoC6\pdl\drivers\peripheral\i2s/cy_i2s.h **** 
1012:Generated_Source\PSoC6\pdl\drivers\peripheral\i2s/cy_i2s.h **** 
1013:Generated_Source\PSoC6\pdl\drivers\peripheral\i2s/cy_i2s.h **** /*******************************************************************************
1014:Generated_Source\PSoC6\pdl\drivers\peripheral\i2s/cy_i2s.h **** * Function Name: Cy_I2S_SetInterrupt
1015:Generated_Source\PSoC6\pdl\drivers\peripheral\i2s/cy_i2s.h **** ****************************************************************************//**
1016:Generated_Source\PSoC6\pdl\drivers\peripheral\i2s/cy_i2s.h **** *
1017:Generated_Source\PSoC6\pdl\drivers\peripheral\i2s/cy_i2s.h **** * Sets one or more interrupt factors (sets the INTR_SET register).
1018:Generated_Source\PSoC6\pdl\drivers\peripheral\i2s/cy_i2s.h **** *
1019:Generated_Source\PSoC6\pdl\drivers\peripheral\i2s/cy_i2s.h **** * \param base      The pointer to the I2S instance address.
1020:Generated_Source\PSoC6\pdl\drivers\peripheral\i2s/cy_i2s.h **** *
1021:Generated_Source\PSoC6\pdl\drivers\peripheral\i2s/cy_i2s.h **** * \param interrupt Interrupt bit mask \ref group_i2s_macros_interrupt_masks.
1022:Generated_Source\PSoC6\pdl\drivers\peripheral\i2s/cy_i2s.h **** *
1023:Generated_Source\PSoC6\pdl\drivers\peripheral\i2s/cy_i2s.h **** * \funcusage
1024:Generated_Source\PSoC6\pdl\drivers\peripheral\i2s/cy_i2s.h **** * \snippet i2s\2.10\snippet\main.c snippet_Cy_I2S_SetInterrupt
1025:Generated_Source\PSoC6\pdl\drivers\peripheral\i2s/cy_i2s.h **** *
1026:Generated_Source\PSoC6\pdl\drivers\peripheral\i2s/cy_i2s.h **** *******************************************************************************/
1027:Generated_Source\PSoC6\pdl\drivers\peripheral\i2s/cy_i2s.h **** __STATIC_INLINE void Cy_I2S_SetInterrupt(I2S_Type * base, uint32_t interrupt)
1028:Generated_Source\PSoC6\pdl\drivers\peripheral\i2s/cy_i2s.h **** {
1029:Generated_Source\PSoC6\pdl\drivers\peripheral\i2s/cy_i2s.h ****     CY_ASSERT_L2(CY_I2S_IS_INTR_MASK_VALID(interrupt));
1030:Generated_Source\PSoC6\pdl\drivers\peripheral\i2s/cy_i2s.h ****     REG_I2S_INTR_SET(base)  = interrupt;
1031:Generated_Source\PSoC6\pdl\drivers\peripheral\i2s/cy_i2s.h **** }
1032:Generated_Source\PSoC6\pdl\drivers\peripheral\i2s/cy_i2s.h **** 
1033:Generated_Source\PSoC6\pdl\drivers\peripheral\i2s/cy_i2s.h **** 
1034:Generated_Source\PSoC6\pdl\drivers\peripheral\i2s/cy_i2s.h **** /*******************************************************************************
1035:Generated_Source\PSoC6\pdl\drivers\peripheral\i2s/cy_i2s.h **** * Function Name: Cy_I2S_GetInterruptMask
1036:Generated_Source\PSoC6\pdl\drivers\peripheral\i2s/cy_i2s.h **** ****************************************************************************//**
1037:Generated_Source\PSoC6\pdl\drivers\peripheral\i2s/cy_i2s.h **** *
1038:Generated_Source\PSoC6\pdl\drivers\peripheral\i2s/cy_i2s.h **** * Returns the interrupt mask (a content of the INTR_MASK register).
1039:Generated_Source\PSoC6\pdl\drivers\peripheral\i2s/cy_i2s.h **** *
1040:Generated_Source\PSoC6\pdl\drivers\peripheral\i2s/cy_i2s.h **** * \param base The pointer to the I2S instance address.
1041:Generated_Source\PSoC6\pdl\drivers\peripheral\i2s/cy_i2s.h **** *
1042:Generated_Source\PSoC6\pdl\drivers\peripheral\i2s/cy_i2s.h **** * \return The interrupt bit mask \ref group_i2s_macros_interrupt_masks.
1043:Generated_Source\PSoC6\pdl\drivers\peripheral\i2s/cy_i2s.h **** *
1044:Generated_Source\PSoC6\pdl\drivers\peripheral\i2s/cy_i2s.h **** * \funcusage
1045:Generated_Source\PSoC6\pdl\drivers\peripheral\i2s/cy_i2s.h **** * \snippet i2s\2.10\snippet\main.c snippet_Cy_I2S_GetInterruptMask
1046:Generated_Source\PSoC6\pdl\drivers\peripheral\i2s/cy_i2s.h **** *
1047:Generated_Source\PSoC6\pdl\drivers\peripheral\i2s/cy_i2s.h **** *******************************************************************************/
1048:Generated_Source\PSoC6\pdl\drivers\peripheral\i2s/cy_i2s.h **** __STATIC_INLINE uint32_t Cy_I2S_GetInterruptMask(I2S_Type const * base)
1049:Generated_Source\PSoC6\pdl\drivers\peripheral\i2s/cy_i2s.h **** {
1050:Generated_Source\PSoC6\pdl\drivers\peripheral\i2s/cy_i2s.h ****     return (REG_I2S_INTR_MASK(base));
 712              		.loc 2 1050 0
 713 002c D4F8083F 		ldr	r3, [r4, #3848]
 714              	.LVL55:
 715              	.LBE33:
 716              	.LBE32:
 240:Generated_Source\PSoC6\pdl\drivers\peripheral\i2s/cy_i2s.c ****     {
 241:Generated_Source\PSoC6\pdl\drivers\peripheral\i2s/cy_i2s.c ****         case CY_SYSPM_CHECK_READY:
 242:Generated_Source\PSoC6\pdl\drivers\peripheral\i2s/cy_i2s.c ****         case CY_SYSPM_CHECK_FAIL:
 243:Generated_Source\PSoC6\pdl\drivers\peripheral\i2s/cy_i2s.c ****             break;
 244:Generated_Source\PSoC6\pdl\drivers\peripheral\i2s/cy_i2s.c ****         
 245:Generated_Source\PSoC6\pdl\drivers\peripheral\i2s/cy_i2s.c ****         case CY_SYSPM_BEFORE_TRANSITION:
 246:Generated_Source\PSoC6\pdl\drivers\peripheral\i2s/cy_i2s.c ****             *locInterruptMask = Cy_I2S_GetInterruptMask(locBase); /* Store I2S interrupts */
ARM GAS  C:\Users\dev\AppData\Local\Temp\ccJYAN2E.s 			page 37


 717              		.loc 1 246 0
 718 0030 7360     		str	r3, [r6, #4]
 719              	.LVL56:
 720              	.LBB34:
 721              	.LBB35:
 674:Generated_Source\PSoC6\pdl\drivers\peripheral\i2s/cy_i2s.h **** }
 722              		.loc 2 674 0
 723 0032 236A     		ldr	r3, [r4, #32]
 724 0034 03F00133 		and	r3, r3, #16843009
 725 0038 23F08072 		bic	r2, r3, #16777216
 726              	.LVL57:
 727              	.LBE35:
 728              	.LBE34:
 247:Generated_Source\PSoC6\pdl\drivers\peripheral\i2s/cy_i2s.c ****             *locState = Cy_I2S_GetCurrentState(locBase); /* Store I2S state */
 729              		.loc 1 247 0
 730 003c 3260     		str	r2, [r6]
 248:Generated_Source\PSoC6\pdl\drivers\peripheral\i2s/cy_i2s.c ****             if (0UL != (*locState & I2S_CMD_TX_START_Msk))
 731              		.loc 1 248 0
 732 003e 13F0010F 		tst	r3, #1
 733 0042 03D0     		beq	.L74
 734              	.LVL58:
 735              	.LBB36:
 736              	.LBB37:
 611:Generated_Source\PSoC6\pdl\drivers\peripheral\i2s/cy_i2s.h **** }
 737              		.loc 2 611 0
 738 0044 236A     		ldr	r3, [r4, #32]
 739 0046 23F00103 		bic	r3, r3, #1
 740 004a 2362     		str	r3, [r4, #32]
 741              	.LVL59:
 742              	.L74:
 743              	.LBE37:
 744              	.LBE36:
 249:Generated_Source\PSoC6\pdl\drivers\peripheral\i2s/cy_i2s.c ****             {
 250:Generated_Source\PSoC6\pdl\drivers\peripheral\i2s/cy_i2s.c ****                 Cy_I2S_DisableTx(locBase); /* Stop TX operation */
 251:Generated_Source\PSoC6\pdl\drivers\peripheral\i2s/cy_i2s.c ****             }
 252:Generated_Source\PSoC6\pdl\drivers\peripheral\i2s/cy_i2s.c ****             if (0UL != (*locState & I2S_CMD_RX_START_Msk))
 745              		.loc 1 252 0
 746 004c 3368     		ldr	r3, [r6]
 747 004e 13F4803F 		tst	r3, #65536
 748 0052 03D0     		beq	.L75
 749              	.LVL60:
 750              	.LBB38:
 751              	.LBB39:
 654:Generated_Source\PSoC6\pdl\drivers\peripheral\i2s/cy_i2s.h **** }
 752              		.loc 2 654 0
 753 0054 236A     		ldr	r3, [r4, #32]
 754 0056 23F48033 		bic	r3, r3, #65536
 755 005a 2362     		str	r3, [r4, #32]
 756              	.LVL61:
 757              	.L75:
 758              	.LBE39:
 759              	.LBE38:
 760              	.LBB40:
 761              	.LBB41:
1051:Generated_Source\PSoC6\pdl\drivers\peripheral\i2s/cy_i2s.h **** }
1052:Generated_Source\PSoC6\pdl\drivers\peripheral\i2s/cy_i2s.h **** 
1053:Generated_Source\PSoC6\pdl\drivers\peripheral\i2s/cy_i2s.h **** 
ARM GAS  C:\Users\dev\AppData\Local\Temp\ccJYAN2E.s 			page 38


1054:Generated_Source\PSoC6\pdl\drivers\peripheral\i2s/cy_i2s.h **** /*******************************************************************************
1055:Generated_Source\PSoC6\pdl\drivers\peripheral\i2s/cy_i2s.h **** * Function Name: Cy_I2S_SetInterruptMask
1056:Generated_Source\PSoC6\pdl\drivers\peripheral\i2s/cy_i2s.h **** ****************************************************************************//**
1057:Generated_Source\PSoC6\pdl\drivers\peripheral\i2s/cy_i2s.h **** *
1058:Generated_Source\PSoC6\pdl\drivers\peripheral\i2s/cy_i2s.h **** * Sets one or more interrupt factor masks (the INTR_MASK register).
1059:Generated_Source\PSoC6\pdl\drivers\peripheral\i2s/cy_i2s.h **** *
1060:Generated_Source\PSoC6\pdl\drivers\peripheral\i2s/cy_i2s.h **** * \param base      The pointer to the I2S instance address.
1061:Generated_Source\PSoC6\pdl\drivers\peripheral\i2s/cy_i2s.h **** *
1062:Generated_Source\PSoC6\pdl\drivers\peripheral\i2s/cy_i2s.h **** * \param interrupt Interrupt bit mask \ref group_i2s_macros_interrupt_masks.
1063:Generated_Source\PSoC6\pdl\drivers\peripheral\i2s/cy_i2s.h **** *
1064:Generated_Source\PSoC6\pdl\drivers\peripheral\i2s/cy_i2s.h **** * \funcusage
1065:Generated_Source\PSoC6\pdl\drivers\peripheral\i2s/cy_i2s.h **** * \snippet i2s\2.10\snippet\main.c snippet_Cy_I2S_SetInterruptMask
1066:Generated_Source\PSoC6\pdl\drivers\peripheral\i2s/cy_i2s.h **** *
1067:Generated_Source\PSoC6\pdl\drivers\peripheral\i2s/cy_i2s.h **** *******************************************************************************/
1068:Generated_Source\PSoC6\pdl\drivers\peripheral\i2s/cy_i2s.h **** __STATIC_INLINE void Cy_I2S_SetInterruptMask(I2S_Type * base, uint32_t interrupt)
1069:Generated_Source\PSoC6\pdl\drivers\peripheral\i2s/cy_i2s.h **** {
1070:Generated_Source\PSoC6\pdl\drivers\peripheral\i2s/cy_i2s.h ****     CY_ASSERT_L2(CY_I2S_IS_INTR_MASK_VALID(interrupt));
1071:Generated_Source\PSoC6\pdl\drivers\peripheral\i2s/cy_i2s.h ****     REG_I2S_INTR_MASK(base) = interrupt;
 762              		.loc 2 1071 0
 763 005c 0020     		movs	r0, #0
 764 005e C4F8080F 		str	r0, [r4, #3848]
 765 0062 70BD     		pop	{r4, r5, r6, pc}
 766              	.LVL62:
 767              	.L73:
 768              	.LBE41:
 769              	.LBE40:
 253:Generated_Source\PSoC6\pdl\drivers\peripheral\i2s/cy_i2s.c ****             {
 254:Generated_Source\PSoC6\pdl\drivers\peripheral\i2s/cy_i2s.c ****                 Cy_I2S_DisableRx(locBase); /* Stop RX operation */
 255:Generated_Source\PSoC6\pdl\drivers\peripheral\i2s/cy_i2s.c ****             }
 256:Generated_Source\PSoC6\pdl\drivers\peripheral\i2s/cy_i2s.c ****             Cy_I2S_SetInterruptMask(locBase, 0UL); /* Disable I2S interrupts */
 257:Generated_Source\PSoC6\pdl\drivers\peripheral\i2s/cy_i2s.c ****             /* Unload FIFOs to not lose data (if needed) */
 258:Generated_Source\PSoC6\pdl\drivers\peripheral\i2s/cy_i2s.c ****             break;
 259:Generated_Source\PSoC6\pdl\drivers\peripheral\i2s/cy_i2s.c ****             
 260:Generated_Source\PSoC6\pdl\drivers\peripheral\i2s/cy_i2s.c ****         case CY_SYSPM_AFTER_TRANSITION:
 261:Generated_Source\PSoC6\pdl\drivers\peripheral\i2s/cy_i2s.c ****             if (0UL != (*locState & I2S_CMD_RX_START_Msk))
 770              		.loc 1 261 0
 771 0064 3368     		ldr	r3, [r6]
 772 0066 13F4803F 		tst	r3, #65536
 773 006a 11D0     		beq	.L76
 774              	.LVL63:
 775              	.LBB42:
 776              	.LBB43:
 828:Generated_Source\PSoC6\pdl\drivers\peripheral\i2s/cy_i2s.h ****     REG_I2S_RX_FIFO_CTL(base)  &= (uint32_t) ~I2S_RX_FIFO_CTL_CLEAR_Msk;
 777              		.loc 2 828 0
 778 006c D4F80033 		ldr	r3, [r4, #768]
 779 0070 43F48033 		orr	r3, r3, #65536
 780 0074 C4F80033 		str	r3, [r4, #768]
 829:Generated_Source\PSoC6\pdl\drivers\peripheral\i2s/cy_i2s.h ****     (void) REG_I2S_RX_FIFO_CTL(base) ;
 781              		.loc 2 829 0
 782 0078 D4F80033 		ldr	r3, [r4, #768]
 783 007c 23F48033 		bic	r3, r3, #65536
 784 0080 C4F80033 		str	r3, [r4, #768]
 830:Generated_Source\PSoC6\pdl\drivers\peripheral\i2s/cy_i2s.h **** }
 785              		.loc 2 830 0
 786 0084 D4F80033 		ldr	r3, [r4, #768]
 787              	.LVL64:
 788              	.LBE43:
ARM GAS  C:\Users\dev\AppData\Local\Temp\ccJYAN2E.s 			page 39


 789              	.LBE42:
 790              	.LBB44:
 791              	.LBB45:
 633:Generated_Source\PSoC6\pdl\drivers\peripheral\i2s/cy_i2s.h **** }
 792              		.loc 2 633 0
 793 0088 236A     		ldr	r3, [r4, #32]
 794 008a 43F48033 		orr	r3, r3, #65536
 795 008e 2362     		str	r3, [r4, #32]
 796              	.LVL65:
 797              	.L76:
 798              	.LBE45:
 799              	.LBE44:
 262:Generated_Source\PSoC6\pdl\drivers\peripheral\i2s/cy_i2s.c ****             {
 263:Generated_Source\PSoC6\pdl\drivers\peripheral\i2s/cy_i2s.c ****                 Cy_I2S_ClearRxFifo(locBase); /* Clear the RX FIFO */
 264:Generated_Source\PSoC6\pdl\drivers\peripheral\i2s/cy_i2s.c ****                 Cy_I2S_EnableRx(locBase); /* Start RX operation */
 265:Generated_Source\PSoC6\pdl\drivers\peripheral\i2s/cy_i2s.c ****             }
 266:Generated_Source\PSoC6\pdl\drivers\peripheral\i2s/cy_i2s.c ****             if (0UL != (*locState & I2S_CMD_TX_START_Msk))
 800              		.loc 1 266 0
 801 0090 3368     		ldr	r3, [r6]
 802 0092 13F0010F 		tst	r3, #1
 803 0096 1ED0     		beq	.L77
 804              	.LVL66:
 805              	.LBB46:
 806              	.LBB47:
 692:Generated_Source\PSoC6\pdl\drivers\peripheral\i2s/cy_i2s.h ****     REG_I2S_TX_FIFO_CTL(base) &= (uint32_t) ~I2S_TX_FIFO_CTL_CLEAR_Msk;
 807              		.loc 2 692 0
 808 0098 D4F80032 		ldr	r3, [r4, #512]
 809 009c 43F48033 		orr	r3, r3, #65536
 810 00a0 C4F80032 		str	r3, [r4, #512]
 693:Generated_Source\PSoC6\pdl\drivers\peripheral\i2s/cy_i2s.h ****     (void) REG_I2S_TX_FIFO_CTL(base);
 811              		.loc 2 693 0
 812 00a4 D4F80032 		ldr	r3, [r4, #512]
 813 00a8 23F48033 		bic	r3, r3, #65536
 814 00ac C4F80032 		str	r3, [r4, #512]
 694:Generated_Source\PSoC6\pdl\drivers\peripheral\i2s/cy_i2s.h **** }
 815              		.loc 2 694 0
 816 00b0 D4F80032 		ldr	r3, [r4, #512]
 817              	.LVL67:
 818              	.LBE47:
 819              	.LBE46:
 820              	.LBB48:
 821              	.LBB49:
 734:Generated_Source\PSoC6\pdl\drivers\peripheral\i2s/cy_i2s.h **** }
 822              		.loc 2 734 0
 823 00b4 0023     		movs	r3, #0
 824 00b6 C4F80832 		str	r3, [r4, #520]
 825              	.LVL68:
 826              	.LBE49:
 827              	.LBE48:
 828              	.LBB50:
 829              	.LBB51:
 830 00ba C4F80832 		str	r3, [r4, #520]
 831              	.LVL69:
 832              	.LBE51:
 833              	.LBE50:
 267:Generated_Source\PSoC6\pdl\drivers\peripheral\i2s/cy_i2s.c ****             {
 268:Generated_Source\PSoC6\pdl\drivers\peripheral\i2s/cy_i2s.c ****                 Cy_I2S_ClearTxFifo(locBase); /* Clear the TX FIFO */
ARM GAS  C:\Users\dev\AppData\Local\Temp\ccJYAN2E.s 			page 40


 269:Generated_Source\PSoC6\pdl\drivers\peripheral\i2s/cy_i2s.c ****                 Cy_I2S_WriteTxData(locBase, 0UL); /* Fill at least one TX frame */
 270:Generated_Source\PSoC6\pdl\drivers\peripheral\i2s/cy_i2s.c ****                 Cy_I2S_WriteTxData(locBase, 0UL);
 271:Generated_Source\PSoC6\pdl\drivers\peripheral\i2s/cy_i2s.c ****                 if (0UL != (*locState & I2S_CMD_TX_PAUSE_Msk))
 834              		.loc 1 271 0
 835 00be 3368     		ldr	r3, [r6]
 836 00c0 13F4807F 		tst	r3, #256
 837 00c4 03D0     		beq	.L78
 838              	.LVL70:
 839              	.LBB52:
 840              	.LBB53:
 572:Generated_Source\PSoC6\pdl\drivers\peripheral\i2s/cy_i2s.h **** }
 841              		.loc 2 572 0
 842 00c6 236A     		ldr	r3, [r4, #32]
 843 00c8 43F48073 		orr	r3, r3, #256
 844 00cc 2362     		str	r3, [r4, #32]
 845              	.LVL71:
 846              	.L78:
 847              	.LBE53:
 848              	.LBE52:
 849              	.LBB54:
 850              	.LBB55:
 554:Generated_Source\PSoC6\pdl\drivers\peripheral\i2s/cy_i2s.h **** }
 851              		.loc 2 554 0
 852 00ce 236A     		ldr	r3, [r4, #32]
 853 00d0 43F00103 		orr	r3, r3, #1
 854 00d4 2362     		str	r3, [r4, #32]
 855              	.LVL72:
 856              	.L77:
 857              	.LBE55:
 858              	.LBE54:
 272:Generated_Source\PSoC6\pdl\drivers\peripheral\i2s/cy_i2s.c ****                 {
 273:Generated_Source\PSoC6\pdl\drivers\peripheral\i2s/cy_i2s.c ****                     Cy_I2S_PauseTx(locBase); /* Restore the TX paused state */
 274:Generated_Source\PSoC6\pdl\drivers\peripheral\i2s/cy_i2s.c ****                 }
 275:Generated_Source\PSoC6\pdl\drivers\peripheral\i2s/cy_i2s.c ****                 Cy_I2S_EnableTx(locBase); /* Start TX operation */
 276:Generated_Source\PSoC6\pdl\drivers\peripheral\i2s/cy_i2s.c ****             }
 277:Generated_Source\PSoC6\pdl\drivers\peripheral\i2s/cy_i2s.c ****             Cy_I2S_ClearInterrupt(locBase, *locInterruptMask); /* Clear possible pending I2S interr
 859              		.loc 1 277 0
 860 00d6 7568     		ldr	r5, [r6, #4]
 861              	.LVL73:
 862              	.LBB56:
 863              	.LBB57:
1007:Generated_Source\PSoC6\pdl\drivers\peripheral\i2s/cy_i2s.h ****     REG_I2S_INTR(base) = interrupt;
 864              		.loc 2 1007 0
 865 00d8 0E4B     		ldr	r3, .L83+4
 866 00da 2B40     		ands	r3, r3, r5
 867 00dc 23B1     		cbz	r3, .L79
 868 00de 40F2EF31 		movw	r1, #1007
 869 00e2 0D48     		ldr	r0, .L83+8
 870 00e4 FFF7FEFF 		bl	Cy_SysLib_AssertFailed
 871              	.LVL74:
 872              	.L79:
1008:Generated_Source\PSoC6\pdl\drivers\peripheral\i2s/cy_i2s.h ****     (void) REG_I2S_INTR(base);
 873              		.loc 2 1008 0
 874 00e8 C4F8005F 		str	r5, [r4, #3840]
1009:Generated_Source\PSoC6\pdl\drivers\peripheral\i2s/cy_i2s.h **** }
 875              		.loc 2 1009 0
 876 00ec D4F8003F 		ldr	r3, [r4, #3840]
ARM GAS  C:\Users\dev\AppData\Local\Temp\ccJYAN2E.s 			page 41


 877              	.LVL75:
 878              	.LBE57:
 879              	.LBE56:
 278:Generated_Source\PSoC6\pdl\drivers\peripheral\i2s/cy_i2s.c ****             Cy_I2S_SetInterruptMask(locBase, *locInterruptMask); /* Restore I2S interrupts */
 880              		.loc 1 278 0
 881 00f0 7568     		ldr	r5, [r6, #4]
 882              	.LVL76:
 883              	.LBB58:
 884              	.LBB59:
1070:Generated_Source\PSoC6\pdl\drivers\peripheral\i2s/cy_i2s.h ****     REG_I2S_INTR_MASK(base) = interrupt;
 885              		.loc 2 1070 0
 886 00f2 084B     		ldr	r3, .L83+4
 887 00f4 2B40     		ands	r3, r3, r5
 888 00f6 23B1     		cbz	r3, .L80
 889 00f8 40F22E41 		movw	r1, #1070
 890 00fc 0648     		ldr	r0, .L83+8
 891 00fe FFF7FEFF 		bl	Cy_SysLib_AssertFailed
 892              	.LVL77:
 893              	.L80:
 894              		.loc 2 1071 0
 895 0102 C4F8085F 		str	r5, [r4, #3848]
 896              	.LBE59:
 897              	.LBE58:
 233:Generated_Source\PSoC6\pdl\drivers\peripheral\i2s/cy_i2s.c ****     CY_ASSERT_L1(NULL != callbackParams->context);
 898              		.loc 1 233 0
 899 0106 0020     		movs	r0, #0
 900 0108 70BD     		pop	{r4, r5, r6, pc}
 901              	.LVL78:
 902              	.L81:
 279:Generated_Source\PSoC6\pdl\drivers\peripheral\i2s/cy_i2s.c ****             break;
 280:Generated_Source\PSoC6\pdl\drivers\peripheral\i2s/cy_i2s.c ****         
 281:Generated_Source\PSoC6\pdl\drivers\peripheral\i2s/cy_i2s.c ****         default:
 282:Generated_Source\PSoC6\pdl\drivers\peripheral\i2s/cy_i2s.c ****             ret = CY_SYSPM_FAIL;
 903              		.loc 1 282 0
 904 010a 0448     		ldr	r0, .L83+12
 905              	.LVL79:
 283:Generated_Source\PSoC6\pdl\drivers\peripheral\i2s/cy_i2s.c ****             break;
 284:Generated_Source\PSoC6\pdl\drivers\peripheral\i2s/cy_i2s.c ****     }
 285:Generated_Source\PSoC6\pdl\drivers\peripheral\i2s/cy_i2s.c ****         
 286:Generated_Source\PSoC6\pdl\drivers\peripheral\i2s/cy_i2s.c ****     return(ret);
 287:Generated_Source\PSoC6\pdl\drivers\peripheral\i2s/cy_i2s.c **** }
 906              		.loc 1 287 0
 907 010c 70BD     		pop	{r4, r5, r6, pc}
 908              	.LVL80:
 909              	.L84:
 910 010e 00BF     		.align	2
 911              	.L83:
 912 0110 00000000 		.word	.LC0
 913 0114 8CFE92FE 		.word	-23921012
 914 0118 3C000000 		.word	.LC1
 915 011c FF004200 		.word	4325631
 916              		.cfi_endproc
 917              	.LFE196:
 918              		.size	Cy_I2S_DeepSleepCallback, .-Cy_I2S_DeepSleepCallback
 919              		.section	.rodata.str1.4,"aMS",%progbits,1
 920              		.align	2
 921              	.LC0:
ARM GAS  C:\Users\dev\AppData\Local\Temp\ccJYAN2E.s 			page 42


 922 0000 47656E65 		.ascii	"Generated_Source\\PSoC6\\pdl\\drivers\\peripheral\\"
 922      72617465 
 922      645F536F 
 922      75726365 
 922      5C50536F 
 923 002e 6932735C 		.ascii	"i2s\\cy_i2s.c\000"
 923      63795F69 
 923      32732E63 
 923      00
 924 003b 00       		.space	1
 925              	.LC1:
 926 003c 47656E65 		.ascii	"Generated_Source\\PSoC6\\pdl\\drivers\\peripheral\\"
 926      72617465 
 926      645F536F 
 926      75726365 
 926      5C50536F 
 927 006a 6932735C 		.ascii	"i2s\\cy_i2s.h\000"
 927      63795F69 
 927      32732E68 
 927      00
 928              		.text
 929              	.Letext0:
 930              		.file 3 "c:\\program files (x86)\\cypress\\psoc creator\\4.4\\psoc creator\\import\\gnu\\arm\\5.4.
 931              		.file 4 "c:\\program files (x86)\\cypress\\psoc creator\\4.4\\psoc creator\\import\\gnu\\arm\\5.4.
 932              		.file 5 "Generated_Source\\PSoC6\\pdl\\devices/psoc6/include/ip/cyip_i2s.h"
 933              		.file 6 "Generated_Source\\PSoC6\\pdl\\drivers/peripheral/device/cy_device.h"
 934              		.file 7 "Generated_Source\\PSoC6\\pdl\\devices/psoc6/include/psoc6_01_config.h"
 935              		.file 8 "Generated_Source\\PSoC6\\pdl\\drivers/peripheral/syslib/cy_syslib.h"
 936              		.file 9 "Generated_Source\\PSoC6\\pdl\\drivers/peripheral/syspm/cy_syspm.h"
 937              		.file 10 "Generated_Source\\PSoC6\\pdl\\cmsis/include/core_cm4.h"