ARM GAS  C:\Users\dev\AppData\Local\Temp\ccJYAN2E.s 			page 1


   1              		.syntax unified
   2              		.cpu cortex-m4
   3              		.eabi_attribute 27, 1
   4              		.fpu fpv4-sp-d16
   5              		.eabi_attribute 20, 1
   6              		.eabi_attribute 21, 1
   7              		.eabi_attribute 23, 3
   8              		.eabi_attribute 24, 1
   9              		.eabi_attribute 25, 1
  10              		.eabi_attribute 26, 1
  11              		.eabi_attribute 30, 1
  12              		.eabi_attribute 34, 1
  13              		.eabi_attribute 18, 4
  14              		.thumb
  15              		.syntax unified
  16              		.file	"cy_i2s.c"
  17              		.text
  18              	.Ltext0:
  19              		.cfi_sections	.debug_frame
  20              		.section	.text.Cy_I2S_Init,"ax",%progbits
  21              		.align	2
  22              		.global	Cy_I2S_Init
  23              		.thumb
  24              		.thumb_func
  25              		.type	Cy_I2S_Init, %function
  26              	Cy_I2S_Init:
  27              	.LFB194:
  28              		.file 1 "Generated_Source\\PSoC6\\pdl\\drivers\\peripheral\\i2s\\cy_i2s.c"
   1:Generated_Source\PSoC6\pdl\drivers\peripheral\i2s/cy_i2s.c **** /***************************************************************************//**
   2:Generated_Source\PSoC6\pdl\drivers\peripheral\i2s/cy_i2s.c **** * \file cy_i2s.c
   3:Generated_Source\PSoC6\pdl\drivers\peripheral\i2s/cy_i2s.c **** * \version 2.10
   4:Generated_Source\PSoC6\pdl\drivers\peripheral\i2s/cy_i2s.c **** *
   5:Generated_Source\PSoC6\pdl\drivers\peripheral\i2s/cy_i2s.c **** * The source code file for the I2S driver.
   6:Generated_Source\PSoC6\pdl\drivers\peripheral\i2s/cy_i2s.c **** *
   7:Generated_Source\PSoC6\pdl\drivers\peripheral\i2s/cy_i2s.c **** ********************************************************************************
   8:Generated_Source\PSoC6\pdl\drivers\peripheral\i2s/cy_i2s.c **** * \copyright
   9:Generated_Source\PSoC6\pdl\drivers\peripheral\i2s/cy_i2s.c **** * Copyright 2016-2018, Cypress Semiconductor Corporation. All rights reserved.
  10:Generated_Source\PSoC6\pdl\drivers\peripheral\i2s/cy_i2s.c **** * You may use this file only in accordance with the license, terms, conditions,
  11:Generated_Source\PSoC6\pdl\drivers\peripheral\i2s/cy_i2s.c **** * disclaimers, and limitations in the end user license agreement accompanying
  12:Generated_Source\PSoC6\pdl\drivers\peripheral\i2s/cy_i2s.c **** * the software package with which this file was provided.
  13:Generated_Source\PSoC6\pdl\drivers\peripheral\i2s/cy_i2s.c **** *******************************************************************************/
  14:Generated_Source\PSoC6\pdl\drivers\peripheral\i2s/cy_i2s.c **** 
  15:Generated_Source\PSoC6\pdl\drivers\peripheral\i2s/cy_i2s.c **** #include "cy_i2s.h"
  16:Generated_Source\PSoC6\pdl\drivers\peripheral\i2s/cy_i2s.c **** 
  17:Generated_Source\PSoC6\pdl\drivers\peripheral\i2s/cy_i2s.c **** #ifdef CY_IP_MXAUDIOSS
  18:Generated_Source\PSoC6\pdl\drivers\peripheral\i2s/cy_i2s.c **** 
  19:Generated_Source\PSoC6\pdl\drivers\peripheral\i2s/cy_i2s.c **** 
  20:Generated_Source\PSoC6\pdl\drivers\peripheral\i2s/cy_i2s.c **** /*******************************************************************************
  21:Generated_Source\PSoC6\pdl\drivers\peripheral\i2s/cy_i2s.c **** * Function Name: Cy_I2S_Init
  22:Generated_Source\PSoC6\pdl\drivers\peripheral\i2s/cy_i2s.c **** ****************************************************************************//**
  23:Generated_Source\PSoC6\pdl\drivers\peripheral\i2s/cy_i2s.c **** *
  24:Generated_Source\PSoC6\pdl\drivers\peripheral\i2s/cy_i2s.c **** * Initializes the I2S module in accordance with a configuration structure.
  25:Generated_Source\PSoC6\pdl\drivers\peripheral\i2s/cy_i2s.c **** *
  26:Generated_Source\PSoC6\pdl\drivers\peripheral\i2s/cy_i2s.c **** * \pre If the I2S module is initialized previously, the \ref Cy_I2S_DeInit()
  27:Generated_Source\PSoC6\pdl\drivers\peripheral\i2s/cy_i2s.c **** * must be called before calling this function.
  28:Generated_Source\PSoC6\pdl\drivers\peripheral\i2s/cy_i2s.c **** *
  29:Generated_Source\PSoC6\pdl\drivers\peripheral\i2s/cy_i2s.c **** * \param base      The pointer to the I2S instance address.
ARM GAS  C:\Users\dev\AppData\Local\Temp\ccJYAN2E.s 			page 2


  30:Generated_Source\PSoC6\pdl\drivers\peripheral\i2s/cy_i2s.c **** *
  31:Generated_Source\PSoC6\pdl\drivers\peripheral\i2s/cy_i2s.c **** * \param config    The pointer to a configuration structure.
  32:Generated_Source\PSoC6\pdl\drivers\peripheral\i2s/cy_i2s.c **** *
  33:Generated_Source\PSoC6\pdl\drivers\peripheral\i2s/cy_i2s.c **** * \return error / status code. See \ref cy_en_i2s_status_t.
  34:Generated_Source\PSoC6\pdl\drivers\peripheral\i2s/cy_i2s.c **** *
  35:Generated_Source\PSoC6\pdl\drivers\peripheral\i2s/cy_i2s.c **** * \funcusage
  36:Generated_Source\PSoC6\pdl\drivers\peripheral\i2s/cy_i2s.c **** * \snippet i2s\2.10\snippet\main.c snippet_Cy_I2S_Init
  37:Generated_Source\PSoC6\pdl\drivers\peripheral\i2s/cy_i2s.c **** *
  38:Generated_Source\PSoC6\pdl\drivers\peripheral\i2s/cy_i2s.c **** *******************************************************************************/
  39:Generated_Source\PSoC6\pdl\drivers\peripheral\i2s/cy_i2s.c **** cy_en_i2s_status_t Cy_I2S_Init(I2S_Type * base, cy_stc_i2s_config_t const * config)
  40:Generated_Source\PSoC6\pdl\drivers\peripheral\i2s/cy_i2s.c **** {
  29              		.loc 1 40 0
  30              		.cfi_startproc
  31              		@ args = 0, pretend = 0, frame = 0
  32              		@ frame_needed = 0, uses_anonymous_args = 0
  33              	.LVL0:
  41:Generated_Source\PSoC6\pdl\drivers\peripheral\i2s/cy_i2s.c ****     cy_en_i2s_status_t ret = CY_I2S_BAD_PARAM;
  42:Generated_Source\PSoC6\pdl\drivers\peripheral\i2s/cy_i2s.c ****     
  43:Generated_Source\PSoC6\pdl\drivers\peripheral\i2s/cy_i2s.c ****     if((NULL != base) && (NULL != config))
  34              		.loc 1 43 0
  35 0000 0028     		cmp	r0, #0
  36 0002 00F07681 		beq	.L38
  40:Generated_Source\PSoC6\pdl\drivers\peripheral\i2s/cy_i2s.c ****     cy_en_i2s_status_t ret = CY_I2S_BAD_PARAM;
  37              		.loc 1 40 0 discriminator 1
  38 0006 2DE9F041 		push	{r4, r5, r6, r7, r8, lr}
  39              		.cfi_def_cfa_offset 24
  40              		.cfi_offset 4, -24
  41              		.cfi_offset 5, -20
  42              		.cfi_offset 6, -16
  43              		.cfi_offset 7, -12
  44              		.cfi_offset 8, -8
  45              		.cfi_offset 14, -4
  46 000a 0546     		mov	r5, r0
  47              		.loc 1 43 0 discriminator 1
  48 000c 0029     		cmp	r1, #0
  49 000e 00F07281 		beq	.L39
  50 0012 0C46     		mov	r4, r1
  51              	.LBB30:
  44:Generated_Source\PSoC6\pdl\drivers\peripheral\i2s/cy_i2s.c ****     {
  45:Generated_Source\PSoC6\pdl\drivers\peripheral\i2s/cy_i2s.c ****         cy_en_i2s_ws_pw_t wsPulseWidth;
  46:Generated_Source\PSoC6\pdl\drivers\peripheral\i2s/cy_i2s.c ****         cy_en_i2s_len_t channelLength;
  47:Generated_Source\PSoC6\pdl\drivers\peripheral\i2s/cy_i2s.c ****         uint32_t channels;
  48:Generated_Source\PSoC6\pdl\drivers\peripheral\i2s/cy_i2s.c ****         uint32_t clockDiv = (uint32_t)config->clkDiv - 1U;
  52              		.loc 1 48 0
  53 0014 0E79     		ldrb	r6, [r1, #4]	@ zero_extendqisi2
  54 0016 013E     		subs	r6, r6, #1
  55              	.LVL1:
  49:Generated_Source\PSoC6\pdl\drivers\peripheral\i2s/cy_i2s.c ****         
  50:Generated_Source\PSoC6\pdl\drivers\peripheral\i2s/cy_i2s.c ****         CY_ASSERT_L2(CY_I2S_IS_CLK_DIV_VALID(clockDiv));
  56              		.loc 1 50 0
  57 0018 3F2E     		cmp	r6, #63
  58 001a 03D9     		bls	.L3
  59              		.loc 1 50 0 is_stmt 0 discriminator 1
  60 001c 3221     		movs	r1, #50
  61              	.LVL2:
  62 001e A948     		ldr	r0, .L60
  63              	.LVL3:
ARM GAS  C:\Users\dev\AppData\Local\Temp\ccJYAN2E.s 			page 3


  64 0020 FFF7FEFF 		bl	Cy_SysLib_AssertFailed
  65              	.LVL4:
  66              	.L3:
  51:Generated_Source\PSoC6\pdl\drivers\peripheral\i2s/cy_i2s.c ****         
  52:Generated_Source\PSoC6\pdl\drivers\peripheral\i2s/cy_i2s.c ****         REG_I2S_INTR_MASK(base) = 0UL; /* Disable interrupts prior to stopping the operation */
  67              		.loc 1 52 0 is_stmt 1
  68 0024 0023     		movs	r3, #0
  69 0026 C5F8083F 		str	r3, [r5, #3848]
  53:Generated_Source\PSoC6\pdl\drivers\peripheral\i2s/cy_i2s.c ****         REG_I2S_CMD(base) = 0UL; /* Stop any communication */
  70              		.loc 1 53 0
  71 002a 2B62     		str	r3, [r5, #32]
  54:Generated_Source\PSoC6\pdl\drivers\peripheral\i2s/cy_i2s.c ****         REG_I2S_TR_CTL(base) = 0UL; /* Disable any DMA triggers */
  72              		.loc 1 54 0
  73 002c 2B64     		str	r3, [r5, #64]
  55:Generated_Source\PSoC6\pdl\drivers\peripheral\i2s/cy_i2s.c ****         REG_I2S_CTL(base) = 0UL; /* Disable TX/RX sub-blocks before clock changing */
  74              		.loc 1 55 0
  75 002e 2B60     		str	r3, [r5]
  56:Generated_Source\PSoC6\pdl\drivers\peripheral\i2s/cy_i2s.c ****         
  57:Generated_Source\PSoC6\pdl\drivers\peripheral\i2s/cy_i2s.c ****         /* The clock setting */
  58:Generated_Source\PSoC6\pdl\drivers\peripheral\i2s/cy_i2s.c ****         REG_I2S_CLOCK_CTL(base) = _VAL2FLD(I2S_CLOCK_CTL_CLOCK_DIV, clockDiv) |
  76              		.loc 1 58 0
  77 0030 06F03F06 		and	r6, r6, #63
  78              	.LVL5:
  59:Generated_Source\PSoC6\pdl\drivers\peripheral\i2s/cy_i2s.c ****                                  _BOOL2FLD(I2S_CLOCK_CTL_CLOCK_SEL, config->extClk);
  79              		.loc 1 59 0
  80 0034 6379     		ldrb	r3, [r4, #5]	@ zero_extendqisi2
  81 0036 13B1     		cbz	r3, .L40
  82 0038 4FF48073 		mov	r3, #256
  83 003c 00E0     		b	.L4
  84              	.L40:
  85 003e 0023     		movs	r3, #0
  86              	.L4:
  58:Generated_Source\PSoC6\pdl\drivers\peripheral\i2s/cy_i2s.c ****                                  _BOOL2FLD(I2S_CLOCK_CTL_CLOCK_SEL, config->extClk);
  87              		.loc 1 58 0
  88 0040 1E43     		orrs	r6, r6, r3
  89 0042 2E61     		str	r6, [r5, #16]
  60:Generated_Source\PSoC6\pdl\drivers\peripheral\i2s/cy_i2s.c **** 
  61:Generated_Source\PSoC6\pdl\drivers\peripheral\i2s/cy_i2s.c ****         /* The Tx setting */
  62:Generated_Source\PSoC6\pdl\drivers\peripheral\i2s/cy_i2s.c ****         if (config->txEnabled)
  90              		.loc 1 62 0
  91 0044 2378     		ldrb	r3, [r4]	@ zero_extendqisi2
  92 0046 002B     		cmp	r3, #0
  93 0048 00F08F80 		beq	.L5
  63:Generated_Source\PSoC6\pdl\drivers\peripheral\i2s/cy_i2s.c ****         {
  64:Generated_Source\PSoC6\pdl\drivers\peripheral\i2s/cy_i2s.c ****             CY_ASSERT_L3(CY_I2S_IS_ALIGNMENT_VALID(config->txAlignment));
  94              		.loc 1 64 0
  95 004c E379     		ldrb	r3, [r4, #7]	@ zero_extendqisi2
  96 004e 032B     		cmp	r3, #3
  97 0050 03D9     		bls	.L6
  98              		.loc 1 64 0 is_stmt 0 discriminator 1
  99 0052 4021     		movs	r1, #64
 100 0054 9B48     		ldr	r0, .L60
 101 0056 FFF7FEFF 		bl	Cy_SysLib_AssertFailed
 102              	.LVL6:
 103              	.L6:
  65:Generated_Source\PSoC6\pdl\drivers\peripheral\i2s/cy_i2s.c ****             CY_ASSERT_L3(CY_I2S_IS_OVHDATA_VALID(config->txOverheadValue));
 104              		.loc 1 65 0 is_stmt 1
ARM GAS  C:\Users\dev\AppData\Local\Temp\ccJYAN2E.s 			page 4


 105 005a A37D     		ldrb	r3, [r4, #22]	@ zero_extendqisi2
 106 005c 012B     		cmp	r3, #1
 107 005e 03D9     		bls	.L7
 108              		.loc 1 65 0 is_stmt 0 discriminator 1
 109 0060 4121     		movs	r1, #65
 110 0062 9848     		ldr	r0, .L60
 111 0064 FFF7FEFF 		bl	Cy_SysLib_AssertFailed
 112              	.LVL7:
 113              	.L7:
  66:Generated_Source\PSoC6\pdl\drivers\peripheral\i2s/cy_i2s.c ****             
  67:Generated_Source\PSoC6\pdl\drivers\peripheral\i2s/cy_i2s.c ****             if ((CY_I2S_TDM_MODE_A == config->txAlignment) || (CY_I2S_TDM_MODE_B == config->txAlign
 114              		.loc 1 67 0 is_stmt 1
 115 0068 E379     		ldrb	r3, [r4, #7]	@ zero_extendqisi2
 116 006a 023B     		subs	r3, r3, #2
 117 006c DBB2     		uxtb	r3, r3
 118 006e 012B     		cmp	r3, #1
 119 0070 1AD8     		bhi	.L8
  68:Generated_Source\PSoC6\pdl\drivers\peripheral\i2s/cy_i2s.c ****             {
  69:Generated_Source\PSoC6\pdl\drivers\peripheral\i2s/cy_i2s.c ****                 channels = (uint32_t)config->txChannels - 1UL;
 120              		.loc 1 69 0
 121 0072 94F81380 		ldrb	r8, [r4, #19]	@ zero_extendqisi2
 122 0076 08F1FF38 		add	r8, r8, #-1
 123              	.LVL8:
  70:Generated_Source\PSoC6\pdl\drivers\peripheral\i2s/cy_i2s.c ****                 wsPulseWidth = config->txWsPulseWidth;
 124              		.loc 1 70 0
 125 007a 267A     		ldrb	r6, [r4, #8]	@ zero_extendqisi2
 126              	.LVL9:
  71:Generated_Source\PSoC6\pdl\drivers\peripheral\i2s/cy_i2s.c ****                 channelLength = CY_I2S_LEN32;
  72:Generated_Source\PSoC6\pdl\drivers\peripheral\i2s/cy_i2s.c ****                 
  73:Generated_Source\PSoC6\pdl\drivers\peripheral\i2s/cy_i2s.c ****                 CY_ASSERT_L2(CY_I2S_IS_CHANNELS_VALID(channels));
 127              		.loc 1 73 0
 128 007c B8F1070F 		cmp	r8, #7
 129 0080 03D9     		bls	.L9
 130              		.loc 1 73 0 is_stmt 0 discriminator 1
 131 0082 4921     		movs	r1, #73
 132 0084 8F48     		ldr	r0, .L60
 133 0086 FFF7FEFF 		bl	Cy_SysLib_AssertFailed
 134              	.LVL10:
 135              	.L9:
  74:Generated_Source\PSoC6\pdl\drivers\peripheral\i2s/cy_i2s.c ****                 CY_ASSERT_L3(CY_I2S_IS_WSPULSE_VALID(wsPulseWidth));
 136              		.loc 1 74 0 is_stmt 1
 137 008a 012E     		cmp	r6, #1
 138 008c 03D9     		bls	.L10
 139              		.loc 1 74 0 is_stmt 0 discriminator 1
 140 008e 4A21     		movs	r1, #74
 141 0090 8C48     		ldr	r0, .L60
 142 0092 FFF7FEFF 		bl	Cy_SysLib_AssertFailed
 143              	.LVL11:
 144              	.L10:
  75:Generated_Source\PSoC6\pdl\drivers\peripheral\i2s/cy_i2s.c ****                 CY_ASSERT_L3(CY_I2S_IS_LEN_VALID(config->txWordLength));
 145              		.loc 1 75 0 is_stmt 1
 146 0096 637D     		ldrb	r3, [r4, #21]	@ zero_extendqisi2
 147 0098 052B     		cmp	r3, #5
 148 009a 15D9     		bls	.L41
 149              		.loc 1 75 0 is_stmt 0 discriminator 1
 150 009c 4B21     		movs	r1, #75
 151 009e 8948     		ldr	r0, .L60
ARM GAS  C:\Users\dev\AppData\Local\Temp\ccJYAN2E.s 			page 5


 152 00a0 FFF7FEFF 		bl	Cy_SysLib_AssertFailed
 153              	.LVL12:
  71:Generated_Source\PSoC6\pdl\drivers\peripheral\i2s/cy_i2s.c ****                 channelLength = CY_I2S_LEN32;
 154              		.loc 1 71 0 is_stmt 1 discriminator 1
 155 00a4 0527     		movs	r7, #5
 156 00a6 14E0     		b	.L11
 157              	.LVL13:
 158              	.L8:
  76:Generated_Source\PSoC6\pdl\drivers\peripheral\i2s/cy_i2s.c ****             }
  77:Generated_Source\PSoC6\pdl\drivers\peripheral\i2s/cy_i2s.c ****             else
  78:Generated_Source\PSoC6\pdl\drivers\peripheral\i2s/cy_i2s.c ****             {
  79:Generated_Source\PSoC6\pdl\drivers\peripheral\i2s/cy_i2s.c ****                 channels = 1UL;
  80:Generated_Source\PSoC6\pdl\drivers\peripheral\i2s/cy_i2s.c ****                 wsPulseWidth = CY_I2S_WS_ONE_CHANNEL_LENGTH;
  81:Generated_Source\PSoC6\pdl\drivers\peripheral\i2s/cy_i2s.c ****                 channelLength = config->txChannelLength;
 159              		.loc 1 81 0
 160 00a8 277D     		ldrb	r7, [r4, #20]	@ zero_extendqisi2
 161              	.LVL14:
  82:Generated_Source\PSoC6\pdl\drivers\peripheral\i2s/cy_i2s.c ****                 
  83:Generated_Source\PSoC6\pdl\drivers\peripheral\i2s/cy_i2s.c ****                 CY_ASSERT_L3(CY_I2S_IS_CHAN_WORD_VALID(channelLength, config->txWordLength));
 162              		.loc 1 83 0
 163 00aa 052F     		cmp	r7, #5
 164 00ac 04D8     		bhi	.L12
 165              		.loc 1 83 0 is_stmt 0 discriminator 2
 166 00ae 637D     		ldrb	r3, [r4, #21]	@ zero_extendqisi2
 167 00b0 052B     		cmp	r3, #5
 168 00b2 01D8     		bhi	.L12
 169              		.loc 1 83 0 discriminator 4
 170 00b4 9F42     		cmp	r7, r3
 171 00b6 09D2     		bcs	.L42
 172              	.L12:
 173              		.loc 1 83 0 discriminator 5
 174 00b8 5321     		movs	r1, #83
 175 00ba 8248     		ldr	r0, .L60
 176 00bc FFF7FEFF 		bl	Cy_SysLib_AssertFailed
 177              	.LVL15:
  79:Generated_Source\PSoC6\pdl\drivers\peripheral\i2s/cy_i2s.c ****                 wsPulseWidth = CY_I2S_WS_ONE_CHANNEL_LENGTH;
 178              		.loc 1 79 0 is_stmt 1 discriminator 5
 179 00c0 4FF00108 		mov	r8, #1
  80:Generated_Source\PSoC6\pdl\drivers\peripheral\i2s/cy_i2s.c ****                 channelLength = config->txChannelLength;
 180              		.loc 1 80 0 discriminator 5
 181 00c4 4646     		mov	r6, r8
 182 00c6 04E0     		b	.L11
 183              	.LVL16:
 184              	.L41:
  71:Generated_Source\PSoC6\pdl\drivers\peripheral\i2s/cy_i2s.c ****                 
 185              		.loc 1 71 0
 186 00c8 0527     		movs	r7, #5
 187 00ca 02E0     		b	.L11
 188              	.LVL17:
 189              	.L42:
  79:Generated_Source\PSoC6\pdl\drivers\peripheral\i2s/cy_i2s.c ****                 wsPulseWidth = CY_I2S_WS_ONE_CHANNEL_LENGTH;
 190              		.loc 1 79 0
 191 00cc 4FF00108 		mov	r8, #1
  80:Generated_Source\PSoC6\pdl\drivers\peripheral\i2s/cy_i2s.c ****                 channelLength = config->txChannelLength;
 192              		.loc 1 80 0
 193 00d0 4646     		mov	r6, r8
 194              	.LVL18:
ARM GAS  C:\Users\dev\AppData\Local\Temp\ccJYAN2E.s 			page 6


 195              	.L11:
  84:Generated_Source\PSoC6\pdl\drivers\peripheral\i2s/cy_i2s.c ****             }
  85:Generated_Source\PSoC6\pdl\drivers\peripheral\i2s/cy_i2s.c ****             
  86:Generated_Source\PSoC6\pdl\drivers\peripheral\i2s/cy_i2s.c ****             CY_ASSERT_L2(CY_I2S_IS_TRIG_LEVEL_VALID(config->txFifoTriggerLevel, channels));
 196              		.loc 1 86 0
 197 00d2 E27D     		ldrb	r2, [r4, #23]	@ zero_extendqisi2
 198 00d4 C8F1FF03 		rsb	r3, r8, #255
 199 00d8 9A42     		cmp	r2, r3
 200 00da 03D9     		bls	.L13
 201              		.loc 1 86 0 is_stmt 0 discriminator 1
 202 00dc 5621     		movs	r1, #86
 203 00de 7948     		ldr	r0, .L60
 204 00e0 FFF7FEFF 		bl	Cy_SysLib_AssertFailed
 205              	.LVL19:
 206              	.L13:
  87:Generated_Source\PSoC6\pdl\drivers\peripheral\i2s/cy_i2s.c ****             
  88:Generated_Source\PSoC6\pdl\drivers\peripheral\i2s/cy_i2s.c ****             REG_I2S_TX_WATCHDOG(base) = config->txWatchdogValue;
 207              		.loc 1 88 0 is_stmt 1
 208 00e4 E368     		ldr	r3, [r4, #12]
 209 00e6 C5F88430 		str	r3, [r5, #132]
  89:Generated_Source\PSoC6\pdl\drivers\peripheral\i2s/cy_i2s.c **** 
  90:Generated_Source\PSoC6\pdl\drivers\peripheral\i2s/cy_i2s.c ****             REG_I2S_TX_CTL(base) = _VAL2FLD(I2S_TX_CTL_I2S_MODE, config->txAlignment) |
 210              		.loc 1 90 0
 211 00ea E379     		ldrb	r3, [r4, #7]	@ zero_extendqisi2
 212 00ec 1B02     		lsls	r3, r3, #8
 213 00ee 03F44073 		and	r3, r3, #768
  91:Generated_Source\PSoC6\pdl\drivers\peripheral\i2s/cy_i2s.c ****                                   _BOOL2FLD(I2S_TX_CTL_B_CLOCK_INV, config->txSdoLatchingTime) |
 214              		.loc 1 91 0
 215 00f2 227C     		ldrb	r2, [r4, #16]	@ zero_extendqisi2
 216 00f4 0AB1     		cbz	r2, .L43
 217 00f6 0822     		movs	r2, #8
 218 00f8 00E0     		b	.L14
 219              	.L43:
 220 00fa 0022     		movs	r2, #0
 221              	.L14:
  90:Generated_Source\PSoC6\pdl\drivers\peripheral\i2s/cy_i2s.c ****                                   _BOOL2FLD(I2S_TX_CTL_B_CLOCK_INV, config->txSdoLatchingTime) |
 222              		.loc 1 90 0
 223 00fc 1343     		orrs	r3, r3, r2
  92:Generated_Source\PSoC6\pdl\drivers\peripheral\i2s/cy_i2s.c ****                                    _VAL2FLD(I2S_TX_CTL_CH_NR, channels) |
 224              		.loc 1 92 0
 225 00fe 4FEA0818 		lsl	r8, r8, #4
 226              	.LVL20:
 227 0102 08F07008 		and	r8, r8, #112
  91:Generated_Source\PSoC6\pdl\drivers\peripheral\i2s/cy_i2s.c ****                                   _BOOL2FLD(I2S_TX_CTL_B_CLOCK_INV, config->txSdoLatchingTime) |
 228              		.loc 1 91 0
 229 0106 43EA0808 		orr	r8, r3, r8
  93:Generated_Source\PSoC6\pdl\drivers\peripheral\i2s/cy_i2s.c ****                                   _BOOL2FLD(I2S_TX_CTL_MS, config->txMasterMode) |
 230              		.loc 1 93 0
 231 010a A379     		ldrb	r3, [r4, #6]	@ zero_extendqisi2
 232 010c 0BB1     		cbz	r3, .L44
 233 010e 8023     		movs	r3, #128
 234 0110 00E0     		b	.L15
 235              	.L44:
 236 0112 0023     		movs	r3, #0
 237              	.L15:
  92:Generated_Source\PSoC6\pdl\drivers\peripheral\i2s/cy_i2s.c ****                                    _VAL2FLD(I2S_TX_CTL_CH_NR, channels) |
 238              		.loc 1 92 0
ARM GAS  C:\Users\dev\AppData\Local\Temp\ccJYAN2E.s 			page 7


 239 0114 43EA0803 		orr	r3, r3, r8
  94:Generated_Source\PSoC6\pdl\drivers\peripheral\i2s/cy_i2s.c ****                                    _VAL2FLD(I2S_TX_CTL_WS_PULSE, wsPulseWidth) |
 240              		.loc 1 94 0
 241 0118 B602     		lsls	r6, r6, #10
 242              	.LVL21:
 243 011a 06F48066 		and	r6, r6, #1024
  93:Generated_Source\PSoC6\pdl\drivers\peripheral\i2s/cy_i2s.c ****                                   _BOOL2FLD(I2S_TX_CTL_MS, config->txMasterMode) |
 244              		.loc 1 93 0
 245 011e 1E43     		orrs	r6, r6, r3
  95:Generated_Source\PSoC6\pdl\drivers\peripheral\i2s/cy_i2s.c ****                                   _BOOL2FLD(I2S_TX_CTL_WD_EN, config->txWatchdogEnable) |
 246              		.loc 1 95 0
 247 0120 637A     		ldrb	r3, [r4, #9]	@ zero_extendqisi2
 248 0122 13B1     		cbz	r3, .L45
 249 0124 4FF40053 		mov	r3, #8192
 250 0128 00E0     		b	.L16
 251              	.L45:
 252 012a 0023     		movs	r3, #0
 253              	.L16:
  94:Generated_Source\PSoC6\pdl\drivers\peripheral\i2s/cy_i2s.c ****                                    _VAL2FLD(I2S_TX_CTL_WS_PULSE, wsPulseWidth) |
 254              		.loc 1 94 0
 255 012c 1E43     		orrs	r6, r6, r3
  96:Generated_Source\PSoC6\pdl\drivers\peripheral\i2s/cy_i2s.c ****                                   _BOOL2FLD(I2S_TX_CTL_SCKO_POL, config->txSckoInversion) |
 256              		.loc 1 96 0
 257 012e 637C     		ldrb	r3, [r4, #17]	@ zero_extendqisi2
 258 0130 13B1     		cbz	r3, .L46
 259 0132 4FF08073 		mov	r3, #16777216
 260 0136 00E0     		b	.L17
 261              	.L46:
 262 0138 0023     		movs	r3, #0
 263              	.L17:
  95:Generated_Source\PSoC6\pdl\drivers\peripheral\i2s/cy_i2s.c ****                                   _BOOL2FLD(I2S_TX_CTL_WD_EN, config->txWatchdogEnable) |
 264              		.loc 1 95 0
 265 013a 3343     		orrs	r3, r3, r6
  97:Generated_Source\PSoC6\pdl\drivers\peripheral\i2s/cy_i2s.c ****                                   _BOOL2FLD(I2S_TX_CTL_SCKI_POL, config->txSckiInversion) |
 266              		.loc 1 97 0
 267 013c A27C     		ldrb	r2, [r4, #18]	@ zero_extendqisi2
 268 013e 12B1     		cbz	r2, .L47
 269 0140 4FF00072 		mov	r2, #33554432
 270 0144 00E0     		b	.L18
 271              	.L47:
 272 0146 0022     		movs	r2, #0
 273              	.L18:
  96:Generated_Source\PSoC6\pdl\drivers\peripheral\i2s/cy_i2s.c ****                                   _BOOL2FLD(I2S_TX_CTL_SCKO_POL, config->txSckoInversion) |
 274              		.loc 1 96 0
 275 0148 1343     		orrs	r3, r3, r2
  98:Generated_Source\PSoC6\pdl\drivers\peripheral\i2s/cy_i2s.c ****                                    _VAL2FLD(I2S_TX_CTL_CH_LEN, channelLength) |
 276              		.loc 1 98 0
 277 014a 3F04     		lsls	r7, r7, #16
 278              	.LVL22:
 279 014c 07F4E027 		and	r7, r7, #458752
  97:Generated_Source\PSoC6\pdl\drivers\peripheral\i2s/cy_i2s.c ****                                   _BOOL2FLD(I2S_TX_CTL_SCKI_POL, config->txSckiInversion) |
 280              		.loc 1 97 0
 281 0150 3B43     		orrs	r3, r3, r7
  99:Generated_Source\PSoC6\pdl\drivers\peripheral\i2s/cy_i2s.c ****                                    _VAL2FLD(I2S_TX_CTL_WORD_LEN, config->txWordLength) |
 282              		.loc 1 99 0
 283 0152 677D     		ldrb	r7, [r4, #21]	@ zero_extendqisi2
 284 0154 3F05     		lsls	r7, r7, #20
ARM GAS  C:\Users\dev\AppData\Local\Temp\ccJYAN2E.s 			page 8


 285 0156 07F4E007 		and	r7, r7, #7340032
  98:Generated_Source\PSoC6\pdl\drivers\peripheral\i2s/cy_i2s.c ****                                    _VAL2FLD(I2S_TX_CTL_CH_LEN, channelLength) |
 286              		.loc 1 98 0
 287 015a 3B43     		orrs	r3, r3, r7
 100:Generated_Source\PSoC6\pdl\drivers\peripheral\i2s/cy_i2s.c ****                                    _VAL2FLD(I2S_TX_CTL_OVHDATA, config->txOverheadValue);
 288              		.loc 1 100 0
 289 015c A27D     		ldrb	r2, [r4, #22]	@ zero_extendqisi2
 290 015e 1203     		lsls	r2, r2, #12
 291 0160 02F48052 		and	r2, r2, #4096
  99:Generated_Source\PSoC6\pdl\drivers\peripheral\i2s/cy_i2s.c ****                                    _VAL2FLD(I2S_TX_CTL_WORD_LEN, config->txWordLength) |
 292              		.loc 1 99 0
 293 0164 1343     		orrs	r3, r3, r2
  90:Generated_Source\PSoC6\pdl\drivers\peripheral\i2s/cy_i2s.c ****                                   _BOOL2FLD(I2S_TX_CTL_B_CLOCK_INV, config->txSdoLatchingTime) |
 294              		.loc 1 90 0
 295 0166 C5F88030 		str	r3, [r5, #128]
 296              	.L5:
 101:Generated_Source\PSoC6\pdl\drivers\peripheral\i2s/cy_i2s.c ****         }
 102:Generated_Source\PSoC6\pdl\drivers\peripheral\i2s/cy_i2s.c **** 
 103:Generated_Source\PSoC6\pdl\drivers\peripheral\i2s/cy_i2s.c ****         /* The Rx setting */
 104:Generated_Source\PSoC6\pdl\drivers\peripheral\i2s/cy_i2s.c ****         if (config->rxEnabled)
 297              		.loc 1 104 0
 298 016a 6378     		ldrb	r3, [r4, #1]	@ zero_extendqisi2
 299 016c 002B     		cmp	r3, #0
 300 016e 00F09380 		beq	.L19
 105:Generated_Source\PSoC6\pdl\drivers\peripheral\i2s/cy_i2s.c ****         {
 106:Generated_Source\PSoC6\pdl\drivers\peripheral\i2s/cy_i2s.c ****             CY_ASSERT_L3(CY_I2S_IS_ALIGNMENT_VALID(config->rxAlignment));
 301              		.loc 1 106 0
 302 0172 637E     		ldrb	r3, [r4, #25]	@ zero_extendqisi2
 303 0174 032B     		cmp	r3, #3
 304 0176 03D9     		bls	.L20
 305              		.loc 1 106 0 is_stmt 0 discriminator 1
 306 0178 6A21     		movs	r1, #106
 307 017a 5248     		ldr	r0, .L60
 308 017c FFF7FEFF 		bl	Cy_SysLib_AssertFailed
 309              	.LVL23:
 310              	.L20:
 107:Generated_Source\PSoC6\pdl\drivers\peripheral\i2s/cy_i2s.c ****             
 108:Generated_Source\PSoC6\pdl\drivers\peripheral\i2s/cy_i2s.c ****             if ((CY_I2S_TDM_MODE_A == config->rxAlignment) || (CY_I2S_TDM_MODE_B == config->rxAlign
 311              		.loc 1 108 0 is_stmt 1
 312 0180 637E     		ldrb	r3, [r4, #25]	@ zero_extendqisi2
 313 0182 023B     		subs	r3, r3, #2
 314 0184 DBB2     		uxtb	r3, r3
 315 0186 012B     		cmp	r3, #1
 316 0188 1BD8     		bhi	.L21
 109:Generated_Source\PSoC6\pdl\drivers\peripheral\i2s/cy_i2s.c ****             {
 110:Generated_Source\PSoC6\pdl\drivers\peripheral\i2s/cy_i2s.c ****                 channels = (uint32_t)config->rxChannels - 1UL;
 317              		.loc 1 110 0
 318 018a 94F82380 		ldrb	r8, [r4, #35]	@ zero_extendqisi2
 319 018e 08F1FF38 		add	r8, r8, #-1
 320              	.LVL24:
 111:Generated_Source\PSoC6\pdl\drivers\peripheral\i2s/cy_i2s.c ****                 wsPulseWidth = config->rxWsPulseWidth;
 321              		.loc 1 111 0
 322 0192 A67E     		ldrb	r6, [r4, #26]	@ zero_extendqisi2
 323              	.LVL25:
 112:Generated_Source\PSoC6\pdl\drivers\peripheral\i2s/cy_i2s.c ****                 channelLength = CY_I2S_LEN32;
 113:Generated_Source\PSoC6\pdl\drivers\peripheral\i2s/cy_i2s.c ****                 
 114:Generated_Source\PSoC6\pdl\drivers\peripheral\i2s/cy_i2s.c ****                 CY_ASSERT_L2(CY_I2S_IS_CHANNELS_VALID(channels));
ARM GAS  C:\Users\dev\AppData\Local\Temp\ccJYAN2E.s 			page 9


 324              		.loc 1 114 0
 325 0194 B8F1070F 		cmp	r8, #7
 326 0198 03D9     		bls	.L22
 327              		.loc 1 114 0 is_stmt 0 discriminator 1
 328 019a 7221     		movs	r1, #114
 329 019c 4948     		ldr	r0, .L60
 330 019e FFF7FEFF 		bl	Cy_SysLib_AssertFailed
 331              	.LVL26:
 332              	.L22:
 115:Generated_Source\PSoC6\pdl\drivers\peripheral\i2s/cy_i2s.c ****                 CY_ASSERT_L3(CY_I2S_IS_WSPULSE_VALID(wsPulseWidth));
 333              		.loc 1 115 0 is_stmt 1
 334 01a2 012E     		cmp	r6, #1
 335 01a4 03D9     		bls	.L23
 336              		.loc 1 115 0 is_stmt 0 discriminator 1
 337 01a6 7321     		movs	r1, #115
 338 01a8 4648     		ldr	r0, .L60
 339 01aa FFF7FEFF 		bl	Cy_SysLib_AssertFailed
 340              	.LVL27:
 341              	.L23:
 116:Generated_Source\PSoC6\pdl\drivers\peripheral\i2s/cy_i2s.c ****                 CY_ASSERT_L3(CY_I2S_IS_LEN_VALID(config->rxWordLength));
 342              		.loc 1 116 0 is_stmt 1
 343 01ae 94F82530 		ldrb	r3, [r4, #37]	@ zero_extendqisi2
 344 01b2 052B     		cmp	r3, #5
 345 01b4 17D9     		bls	.L48
 346              		.loc 1 116 0 is_stmt 0 discriminator 1
 347 01b6 7421     		movs	r1, #116
 348 01b8 4248     		ldr	r0, .L60
 349 01ba FFF7FEFF 		bl	Cy_SysLib_AssertFailed
 350              	.LVL28:
 112:Generated_Source\PSoC6\pdl\drivers\peripheral\i2s/cy_i2s.c ****                 channelLength = CY_I2S_LEN32;
 351              		.loc 1 112 0 is_stmt 1 discriminator 1
 352 01be 0527     		movs	r7, #5
 353 01c0 16E0     		b	.L24
 354              	.LVL29:
 355              	.L21:
 117:Generated_Source\PSoC6\pdl\drivers\peripheral\i2s/cy_i2s.c ****             }
 118:Generated_Source\PSoC6\pdl\drivers\peripheral\i2s/cy_i2s.c ****             else
 119:Generated_Source\PSoC6\pdl\drivers\peripheral\i2s/cy_i2s.c ****             {
 120:Generated_Source\PSoC6\pdl\drivers\peripheral\i2s/cy_i2s.c ****                 channels = 1UL;
 121:Generated_Source\PSoC6\pdl\drivers\peripheral\i2s/cy_i2s.c ****                 wsPulseWidth = CY_I2S_WS_ONE_CHANNEL_LENGTH;
 122:Generated_Source\PSoC6\pdl\drivers\peripheral\i2s/cy_i2s.c ****                 channelLength = config->rxChannelLength;
 356              		.loc 1 122 0
 357 01c2 94F82470 		ldrb	r7, [r4, #36]	@ zero_extendqisi2
 358              	.LVL30:
 123:Generated_Source\PSoC6\pdl\drivers\peripheral\i2s/cy_i2s.c ****                 
 124:Generated_Source\PSoC6\pdl\drivers\peripheral\i2s/cy_i2s.c ****                 CY_ASSERT_L3(CY_I2S_IS_CHAN_WORD_VALID(channelLength, config->rxWordLength));
 359              		.loc 1 124 0
 360 01c6 052F     		cmp	r7, #5
 361 01c8 05D8     		bhi	.L25
 362              		.loc 1 124 0 is_stmt 0 discriminator 2
 363 01ca 94F82530 		ldrb	r3, [r4, #37]	@ zero_extendqisi2
 364 01ce 052B     		cmp	r3, #5
 365 01d0 01D8     		bhi	.L25
 366              		.loc 1 124 0 discriminator 4
 367 01d2 9F42     		cmp	r7, r3
 368 01d4 09D2     		bcs	.L49
 369              	.L25:
ARM GAS  C:\Users\dev\AppData\Local\Temp\ccJYAN2E.s 			page 10


 370              		.loc 1 124 0 discriminator 5
 371 01d6 7C21     		movs	r1, #124
 372 01d8 3A48     		ldr	r0, .L60
 373 01da FFF7FEFF 		bl	Cy_SysLib_AssertFailed
 374              	.LVL31:
 120:Generated_Source\PSoC6\pdl\drivers\peripheral\i2s/cy_i2s.c ****                 wsPulseWidth = CY_I2S_WS_ONE_CHANNEL_LENGTH;
 375              		.loc 1 120 0 is_stmt 1 discriminator 5
 376 01de 4FF00108 		mov	r8, #1
 121:Generated_Source\PSoC6\pdl\drivers\peripheral\i2s/cy_i2s.c ****                 channelLength = config->rxChannelLength;
 377              		.loc 1 121 0 discriminator 5
 378 01e2 4646     		mov	r6, r8
 379 01e4 04E0     		b	.L24
 380              	.LVL32:
 381              	.L48:
 112:Generated_Source\PSoC6\pdl\drivers\peripheral\i2s/cy_i2s.c ****                 
 382              		.loc 1 112 0
 383 01e6 0527     		movs	r7, #5
 384 01e8 02E0     		b	.L24
 385              	.LVL33:
 386              	.L49:
 120:Generated_Source\PSoC6\pdl\drivers\peripheral\i2s/cy_i2s.c ****                 wsPulseWidth = CY_I2S_WS_ONE_CHANNEL_LENGTH;
 387              		.loc 1 120 0
 388 01ea 4FF00108 		mov	r8, #1
 121:Generated_Source\PSoC6\pdl\drivers\peripheral\i2s/cy_i2s.c ****                 channelLength = config->rxChannelLength;
 389              		.loc 1 121 0
 390 01ee 4646     		mov	r6, r8
 391              	.LVL34:
 392              	.L24:
 125:Generated_Source\PSoC6\pdl\drivers\peripheral\i2s/cy_i2s.c ****             }
 126:Generated_Source\PSoC6\pdl\drivers\peripheral\i2s/cy_i2s.c ****             
 127:Generated_Source\PSoC6\pdl\drivers\peripheral\i2s/cy_i2s.c ****             CY_ASSERT_L2(CY_I2S_IS_TRIG_LEVEL_VALID(config->rxFifoTriggerLevel, channels));
 393              		.loc 1 127 0
 394 01f0 94F82720 		ldrb	r2, [r4, #39]	@ zero_extendqisi2
 395 01f4 C8F1FF03 		rsb	r3, r8, #255
 396 01f8 9A42     		cmp	r2, r3
 397 01fa 03D9     		bls	.L26
 398              		.loc 1 127 0 is_stmt 0 discriminator 1
 399 01fc 7F21     		movs	r1, #127
 400 01fe 3148     		ldr	r0, .L60
 401 0200 FFF7FEFF 		bl	Cy_SysLib_AssertFailed
 402              	.LVL35:
 403              	.L26:
 128:Generated_Source\PSoC6\pdl\drivers\peripheral\i2s/cy_i2s.c **** 
 129:Generated_Source\PSoC6\pdl\drivers\peripheral\i2s/cy_i2s.c ****             REG_I2S_RX_WATCHDOG(base) = config->rxWatchdogValue;
 404              		.loc 1 129 0 is_stmt 1
 405 0204 E369     		ldr	r3, [r4, #28]
 406 0206 C5F8A430 		str	r3, [r5, #164]
 130:Generated_Source\PSoC6\pdl\drivers\peripheral\i2s/cy_i2s.c **** 
 131:Generated_Source\PSoC6\pdl\drivers\peripheral\i2s/cy_i2s.c ****             REG_I2S_RX_CTL(base) = _VAL2FLD(I2S_RX_CTL_I2S_MODE, config->rxAlignment) |
 407              		.loc 1 131 0
 408 020a 637E     		ldrb	r3, [r4, #25]	@ zero_extendqisi2
 409 020c 1B02     		lsls	r3, r3, #8
 410 020e 03F44073 		and	r3, r3, #768
 132:Generated_Source\PSoC6\pdl\drivers\peripheral\i2s/cy_i2s.c ****                                   _BOOL2FLD(I2S_RX_CTL_B_CLOCK_INV, config->rxSdiLatchingTime) |
 411              		.loc 1 132 0
 412 0212 94F82020 		ldrb	r2, [r4, #32]	@ zero_extendqisi2
 413 0216 0AB1     		cbz	r2, .L50
ARM GAS  C:\Users\dev\AppData\Local\Temp\ccJYAN2E.s 			page 11


 414 0218 0822     		movs	r2, #8
 415 021a 00E0     		b	.L27
 416              	.L50:
 417 021c 0022     		movs	r2, #0
 418              	.L27:
 131:Generated_Source\PSoC6\pdl\drivers\peripheral\i2s/cy_i2s.c ****                                   _BOOL2FLD(I2S_RX_CTL_B_CLOCK_INV, config->rxSdiLatchingTime) |
 419              		.loc 1 131 0
 420 021e 1343     		orrs	r3, r3, r2
 133:Generated_Source\PSoC6\pdl\drivers\peripheral\i2s/cy_i2s.c ****                                    _VAL2FLD(I2S_RX_CTL_CH_NR, channels) |
 421              		.loc 1 133 0
 422 0220 4FEA0818 		lsl	r8, r8, #4
 423              	.LVL36:
 424 0224 08F07008 		and	r8, r8, #112
 132:Generated_Source\PSoC6\pdl\drivers\peripheral\i2s/cy_i2s.c ****                                   _BOOL2FLD(I2S_RX_CTL_B_CLOCK_INV, config->rxSdiLatchingTime) |
 425              		.loc 1 132 0
 426 0228 43EA0808 		orr	r8, r3, r8
 134:Generated_Source\PSoC6\pdl\drivers\peripheral\i2s/cy_i2s.c ****                                   _BOOL2FLD(I2S_RX_CTL_MS, config->rxMasterMode) |
 427              		.loc 1 134 0
 428 022c 237E     		ldrb	r3, [r4, #24]	@ zero_extendqisi2
 429 022e 0BB1     		cbz	r3, .L51
 430 0230 8023     		movs	r3, #128
 431 0232 00E0     		b	.L28
 432              	.L51:
 433 0234 0023     		movs	r3, #0
 434              	.L28:
 133:Generated_Source\PSoC6\pdl\drivers\peripheral\i2s/cy_i2s.c ****                                    _VAL2FLD(I2S_RX_CTL_CH_NR, channels) |
 435              		.loc 1 133 0
 436 0236 43EA0803 		orr	r3, r3, r8
 135:Generated_Source\PSoC6\pdl\drivers\peripheral\i2s/cy_i2s.c ****                                    _VAL2FLD(I2S_RX_CTL_WS_PULSE, wsPulseWidth) |
 437              		.loc 1 135 0
 438 023a B602     		lsls	r6, r6, #10
 439              	.LVL37:
 440 023c 06F48066 		and	r6, r6, #1024
 134:Generated_Source\PSoC6\pdl\drivers\peripheral\i2s/cy_i2s.c ****                                   _BOOL2FLD(I2S_RX_CTL_MS, config->rxMasterMode) |
 441              		.loc 1 134 0
 442 0240 1E43     		orrs	r6, r6, r3
 136:Generated_Source\PSoC6\pdl\drivers\peripheral\i2s/cy_i2s.c ****                                   _BOOL2FLD(I2S_RX_CTL_WD_EN, config->rxWatchdogEnable) |
 443              		.loc 1 136 0
 444 0242 E37E     		ldrb	r3, [r4, #27]	@ zero_extendqisi2
 445 0244 13B1     		cbz	r3, .L52
 446 0246 4FF40053 		mov	r3, #8192
 447 024a 00E0     		b	.L29
 448              	.L52:
 449 024c 0023     		movs	r3, #0
 450              	.L29:
 135:Generated_Source\PSoC6\pdl\drivers\peripheral\i2s/cy_i2s.c ****                                    _VAL2FLD(I2S_RX_CTL_WS_PULSE, wsPulseWidth) |
 451              		.loc 1 135 0
 452 024e 1E43     		orrs	r6, r6, r3
 137:Generated_Source\PSoC6\pdl\drivers\peripheral\i2s/cy_i2s.c ****                                   _BOOL2FLD(I2S_RX_CTL_SCKO_POL, config->rxSckoInversion) |
 453              		.loc 1 137 0
 454 0250 94F82130 		ldrb	r3, [r4, #33]	@ zero_extendqisi2
 455 0254 13B1     		cbz	r3, .L53
 456 0256 4FF08073 		mov	r3, #16777216
 457 025a 00E0     		b	.L30
 458              	.L53:
 459 025c 0023     		movs	r3, #0
 460              	.L30:
ARM GAS  C:\Users\dev\AppData\Local\Temp\ccJYAN2E.s 			page 12


 136:Generated_Source\PSoC6\pdl\drivers\peripheral\i2s/cy_i2s.c ****                                   _BOOL2FLD(I2S_RX_CTL_WD_EN, config->rxWatchdogEnable) |
 461              		.loc 1 136 0
 462 025e 3343     		orrs	r3, r3, r6
 138:Generated_Source\PSoC6\pdl\drivers\peripheral\i2s/cy_i2s.c ****                                   _BOOL2FLD(I2S_RX_CTL_SCKI_POL, config->rxSckiInversion) |
 463              		.loc 1 138 0
 464 0260 94F82220 		ldrb	r2, [r4, #34]	@ zero_extendqisi2
 465 0264 12B1     		cbz	r2, .L54
 466 0266 4FF00072 		mov	r2, #33554432
 467 026a 00E0     		b	.L31
 468              	.L54:
 469 026c 0022     		movs	r2, #0
 470              	.L31:
 137:Generated_Source\PSoC6\pdl\drivers\peripheral\i2s/cy_i2s.c ****                                   _BOOL2FLD(I2S_RX_CTL_SCKO_POL, config->rxSckoInversion) |
 471              		.loc 1 137 0
 472 026e 1343     		orrs	r3, r3, r2
 139:Generated_Source\PSoC6\pdl\drivers\peripheral\i2s/cy_i2s.c ****                                    _VAL2FLD(I2S_RX_CTL_CH_LEN, channelLength) |
 473              		.loc 1 139 0
 474 0270 3F04     		lsls	r7, r7, #16
 475              	.LVL38:
 476 0272 07F4E027 		and	r7, r7, #458752
 138:Generated_Source\PSoC6\pdl\drivers\peripheral\i2s/cy_i2s.c ****                                   _BOOL2FLD(I2S_RX_CTL_SCKI_POL, config->rxSckiInversion) |
 477              		.loc 1 138 0
 478 0276 3B43     		orrs	r3, r3, r7
 140:Generated_Source\PSoC6\pdl\drivers\peripheral\i2s/cy_i2s.c ****                                    _VAL2FLD(I2S_RX_CTL_WORD_LEN, config->rxWordLength) |
 479              		.loc 1 140 0
 480 0278 94F82520 		ldrb	r2, [r4, #37]	@ zero_extendqisi2
 481 027c 1205     		lsls	r2, r2, #20
 482 027e 02F4E002 		and	r2, r2, #7340032
 139:Generated_Source\PSoC6\pdl\drivers\peripheral\i2s/cy_i2s.c ****                                    _VAL2FLD(I2S_RX_CTL_CH_LEN, channelLength) |
 483              		.loc 1 139 0
 484 0282 1343     		orrs	r3, r3, r2
 141:Generated_Source\PSoC6\pdl\drivers\peripheral\i2s/cy_i2s.c ****                                   _BOOL2FLD(I2S_RX_CTL_BIT_EXTENSION, config->rxSignExtension);
 485              		.loc 1 141 0
 486 0284 94F82620 		ldrb	r2, [r4, #38]	@ zero_extendqisi2
 487 0288 12B1     		cbz	r2, .L55
 488 028a 4FF40002 		mov	r2, #8388608
 489 028e 00E0     		b	.L32
 490              	.L55:
 491 0290 0022     		movs	r2, #0
 492              	.L32:
 140:Generated_Source\PSoC6\pdl\drivers\peripheral\i2s/cy_i2s.c ****                                    _VAL2FLD(I2S_RX_CTL_WORD_LEN, config->rxWordLength) |
 493              		.loc 1 140 0
 494 0292 1343     		orrs	r3, r3, r2
 131:Generated_Source\PSoC6\pdl\drivers\peripheral\i2s/cy_i2s.c ****                                   _BOOL2FLD(I2S_RX_CTL_B_CLOCK_INV, config->rxSdiLatchingTime) |
 495              		.loc 1 131 0
 496 0294 C5F8A030 		str	r3, [r5, #160]
 497              	.L19:
 142:Generated_Source\PSoC6\pdl\drivers\peripheral\i2s/cy_i2s.c ****         }
 143:Generated_Source\PSoC6\pdl\drivers\peripheral\i2s/cy_i2s.c **** 
 144:Generated_Source\PSoC6\pdl\drivers\peripheral\i2s/cy_i2s.c ****         /* The I2S enable setting */
 145:Generated_Source\PSoC6\pdl\drivers\peripheral\i2s/cy_i2s.c ****         if (config->txEnabled)
 498              		.loc 1 145 0
 499 0298 2378     		ldrb	r3, [r4]	@ zero_extendqisi2
 500 029a 1BB1     		cbz	r3, .L33
 146:Generated_Source\PSoC6\pdl\drivers\peripheral\i2s/cy_i2s.c ****         {
 147:Generated_Source\PSoC6\pdl\drivers\peripheral\i2s/cy_i2s.c ****             REG_I2S_CTL(base) |= I2S_CTL_TX_ENABLED_Msk;
 501              		.loc 1 147 0
ARM GAS  C:\Users\dev\AppData\Local\Temp\ccJYAN2E.s 			page 13


 502 029c 2B68     		ldr	r3, [r5]
 503 029e 43F08043 		orr	r3, r3, #1073741824
 504 02a2 2B60     		str	r3, [r5]
 505              	.L33:
 148:Generated_Source\PSoC6\pdl\drivers\peripheral\i2s/cy_i2s.c ****         }
 149:Generated_Source\PSoC6\pdl\drivers\peripheral\i2s/cy_i2s.c **** 
 150:Generated_Source\PSoC6\pdl\drivers\peripheral\i2s/cy_i2s.c ****         if (config->rxEnabled)
 506              		.loc 1 150 0
 507 02a4 6378     		ldrb	r3, [r4, #1]	@ zero_extendqisi2
 508 02a6 1BB1     		cbz	r3, .L34
 151:Generated_Source\PSoC6\pdl\drivers\peripheral\i2s/cy_i2s.c ****         {
 152:Generated_Source\PSoC6\pdl\drivers\peripheral\i2s/cy_i2s.c ****             REG_I2S_CTL(base) |= I2S_CTL_RX_ENABLED_Msk;
 509              		.loc 1 152 0
 510 02a8 2B68     		ldr	r3, [r5]
 511 02aa 43F00043 		orr	r3, r3, #-2147483648
 512 02ae 2B60     		str	r3, [r5]
 513              	.L34:
 153:Generated_Source\PSoC6\pdl\drivers\peripheral\i2s/cy_i2s.c ****         }
 154:Generated_Source\PSoC6\pdl\drivers\peripheral\i2s/cy_i2s.c **** 
 155:Generated_Source\PSoC6\pdl\drivers\peripheral\i2s/cy_i2s.c ****         /* The FIFO setting */
 156:Generated_Source\PSoC6\pdl\drivers\peripheral\i2s/cy_i2s.c ****         if (config->txEnabled)
 514              		.loc 1 156 0
 515 02b0 2378     		ldrb	r3, [r4]	@ zero_extendqisi2
 516 02b2 63B1     		cbz	r3, .L35
 157:Generated_Source\PSoC6\pdl\drivers\peripheral\i2s/cy_i2s.c ****         {
 158:Generated_Source\PSoC6\pdl\drivers\peripheral\i2s/cy_i2s.c ****             REG_I2S_TX_FIFO_CTL(base) = _VAL2FLD(I2S_TX_FIFO_CTL_TRIGGER_LEVEL, config->txFifoTrigg
 517              		.loc 1 158 0
 518 02b4 E37D     		ldrb	r3, [r4, #23]	@ zero_extendqisi2
 519 02b6 C5F80032 		str	r3, [r5, #512]
 159:Generated_Source\PSoC6\pdl\drivers\peripheral\i2s/cy_i2s.c **** 
 160:Generated_Source\PSoC6\pdl\drivers\peripheral\i2s/cy_i2s.c ****             REG_I2S_TR_CTL(base) |= _BOOL2FLD(I2S_TR_CTL_TX_REQ_EN, config->txDmaTrigger);
 520              		.loc 1 160 0
 521 02ba 2B6C     		ldr	r3, [r5, #64]
 522 02bc A278     		ldrb	r2, [r4, #2]	@ zero_extendqisi2
 523 02be 1AB1     		cbz	r2, .L56
 524 02c0 0122     		movs	r2, #1
 525 02c2 02E0     		b	.L36
 526              	.L61:
 527              		.align	2
 528              	.L60:
 529 02c4 00000000 		.word	.LC0
 530              	.L56:
 531 02c8 0022     		movs	r2, #0
 532              	.L36:
 533              		.loc 1 160 0 is_stmt 0 discriminator 4
 534 02ca 1343     		orrs	r3, r3, r2
 535 02cc 2B64     		str	r3, [r5, #64]
 536              	.L35:
 161:Generated_Source\PSoC6\pdl\drivers\peripheral\i2s/cy_i2s.c ****         }
 162:Generated_Source\PSoC6\pdl\drivers\peripheral\i2s/cy_i2s.c **** 
 163:Generated_Source\PSoC6\pdl\drivers\peripheral\i2s/cy_i2s.c ****         if (config->rxEnabled)
 537              		.loc 1 163 0 is_stmt 1
 538 02ce 6378     		ldrb	r3, [r4, #1]	@ zero_extendqisi2
 539 02d0 A3B1     		cbz	r3, .L57
 164:Generated_Source\PSoC6\pdl\drivers\peripheral\i2s/cy_i2s.c ****         {
 165:Generated_Source\PSoC6\pdl\drivers\peripheral\i2s/cy_i2s.c ****             REG_I2S_RX_FIFO_CTL(base) = _VAL2FLD(I2S_RX_FIFO_CTL_TRIGGER_LEVEL, config->rxFifoTrigg
 540              		.loc 1 165 0
ARM GAS  C:\Users\dev\AppData\Local\Temp\ccJYAN2E.s 			page 14


 541 02d2 94F82730 		ldrb	r3, [r4, #39]	@ zero_extendqisi2
 542 02d6 C5F80033 		str	r3, [r5, #768]
 166:Generated_Source\PSoC6\pdl\drivers\peripheral\i2s/cy_i2s.c **** 
 167:Generated_Source\PSoC6\pdl\drivers\peripheral\i2s/cy_i2s.c ****             REG_I2S_TR_CTL(base) |= _BOOL2FLD(I2S_TR_CTL_RX_REQ_EN, config->rxDmaTrigger);
 543              		.loc 1 167 0
 544 02da 2B6C     		ldr	r3, [r5, #64]
 545 02dc E278     		ldrb	r2, [r4, #3]	@ zero_extendqisi2
 546 02de 12B1     		cbz	r2, .L58
 547 02e0 4FF48032 		mov	r2, #65536
 548 02e4 00E0     		b	.L37
 549              	.L58:
 550 02e6 0022     		movs	r2, #0
 551              	.L37:
 552              		.loc 1 167 0 is_stmt 0 discriminator 4
 553 02e8 1343     		orrs	r3, r3, r2
 554 02ea 2B64     		str	r3, [r5, #64]
 168:Generated_Source\PSoC6\pdl\drivers\peripheral\i2s/cy_i2s.c ****         }
 169:Generated_Source\PSoC6\pdl\drivers\peripheral\i2s/cy_i2s.c ****         
 170:Generated_Source\PSoC6\pdl\drivers\peripheral\i2s/cy_i2s.c ****         ret = CY_I2S_SUCCESS;
 555              		.loc 1 170 0 is_stmt 1 discriminator 4
 556 02ec 0020     		movs	r0, #0
 557 02ee BDE8F081 		pop	{r4, r5, r6, r7, r8, pc}
 558              	.LVL39:
 559              	.L38:
 560              		.cfi_def_cfa_offset 0
 561              		.cfi_restore 4
 562              		.cfi_restore 5
 563              		.cfi_restore 6
 564              		.cfi_restore 7
 565              		.cfi_restore 8
 566              		.cfi_restore 14
 567              	.LBE30:
  41:Generated_Source\PSoC6\pdl\drivers\peripheral\i2s/cy_i2s.c ****     
 568              		.loc 1 41 0
 569 02f2 0448     		ldr	r0, .L62
 570              	.LVL40:
 171:Generated_Source\PSoC6\pdl\drivers\peripheral\i2s/cy_i2s.c ****     }
 172:Generated_Source\PSoC6\pdl\drivers\peripheral\i2s/cy_i2s.c **** 
 173:Generated_Source\PSoC6\pdl\drivers\peripheral\i2s/cy_i2s.c ****     return (ret);
 174:Generated_Source\PSoC6\pdl\drivers\peripheral\i2s/cy_i2s.c **** }
 571              		.loc 1 174 0
 572 02f4 7047     		bx	lr
 573              	.LVL41:
 574              	.L39:
 575              		.cfi_def_cfa_offset 24
 576              		.cfi_offset 4, -24
 577              		.cfi_offset 5, -20
 578              		.cfi_offset 6, -16
 579              		.cfi_offset 7, -12
 580              		.cfi_offset 8, -8
 581              		.cfi_offset 14, -4
  41:Generated_Source\PSoC6\pdl\drivers\peripheral\i2s/cy_i2s.c ****     
 582              		.loc 1 41 0
 583 02f6 0348     		ldr	r0, .L62
 584              	.LVL42:
 585 02f8 BDE8F081 		pop	{r4, r5, r6, r7, r8, pc}
 586              	.LVL43:
ARM GAS  C:\Users\dev\AppData\Local\Temp\ccJYAN2E.s 			page 15


 587              	.L57:
 588              	.LBB31:
 170:Generated_Source\PSoC6\pdl\drivers\peripheral\i2s/cy_i2s.c ****     }
 589              		.loc 1 170 0
 590 02fc 0020     		movs	r0, #0
 591              	.LVL44:
 592              	.LBE31:
 593              		.loc 1 174 0
 594 02fe BDE8F081 		pop	{r4, r5, r6, r7, r8, pc}
 595              	.LVL45:
 596              	.L63:
 597 0302 00BF     		.align	2
 598              	.L62:
 599 0304 01008200 		.word	8519681
 600              		.cfi_endproc
 601              	.LFE194:
 602              		.size	Cy_I2S_Init, .-Cy_I2S_Init
 603              		.section	.text.Cy_I2S_DeInit,"ax",%progbits
 604              		.align	2
 605              		.global	Cy_I2S_DeInit
 606              		.thumb
 607              		.thumb_func
 608              		.type	Cy_I2S_DeInit, %function
 609              	Cy_I2S_DeInit:
 610              	.LFB195:
 175:Generated_Source\PSoC6\pdl\drivers\peripheral\i2s/cy_i2s.c **** 
 176:Generated_Source\PSoC6\pdl\drivers\peripheral\i2s/cy_i2s.c **** 
 177:Generated_Source\PSoC6\pdl\drivers\peripheral\i2s/cy_i2s.c **** /*******************************************************************************
 178:Generated_Source\PSoC6\pdl\drivers\peripheral\i2s/cy_i2s.c **** * Function Name: Cy_I2S_DeInit
 179:Generated_Source\PSoC6\pdl\drivers\peripheral\i2s/cy_i2s.c **** ****************************************************************************//**
 180:Generated_Source\PSoC6\pdl\drivers\peripheral\i2s/cy_i2s.c **** *
 181:Generated_Source\PSoC6\pdl\drivers\peripheral\i2s/cy_i2s.c **** * Uninitializes the I2S module (reverts default register values).
 182:Generated_Source\PSoC6\pdl\drivers\peripheral\i2s/cy_i2s.c **** *
 183:Generated_Source\PSoC6\pdl\drivers\peripheral\i2s/cy_i2s.c **** * \param base The pointer to the I2S instance address.
 184:Generated_Source\PSoC6\pdl\drivers\peripheral\i2s/cy_i2s.c **** *
 185:Generated_Source\PSoC6\pdl\drivers\peripheral\i2s/cy_i2s.c **** * \funcusage
 186:Generated_Source\PSoC6\pdl\drivers\peripheral\i2s/cy_i2s.c **** * \snippet i2s\2.10\snippet\main.c snippet_Cy_I2S_DeInit
 187:Generated_Source\PSoC6\pdl\drivers\peripheral\i2s/cy_i2s.c **** *
 188:Generated_Source\PSoC6\pdl\drivers\peripheral\i2s/cy_i2s.c **** *******************************************************************************/
 189:Generated_Source\PSoC6\pdl\drivers\peripheral\i2s/cy_i2s.c **** void Cy_I2S_DeInit(I2S_Type * base)
 190:Generated_Source\PSoC6\pdl\drivers\peripheral\i2s/cy_i2s.c **** {
 611              		.loc 1 190 0
 612              		.cfi_startproc
 613              		@ args = 0, pretend = 0, frame = 0
 614              		@ frame_needed = 0, uses_anonymous_args = 0
 615              		@ link register save eliminated.
 616              	.LVL46:
 191:Generated_Source\PSoC6\pdl\drivers\peripheral\i2s/cy_i2s.c ****     REG_I2S_INTR_MASK(base) = 0UL; /* Disable interrupts prior to stopping the operation */
 617              		.loc 1 191 0
 618 0000 0023     		movs	r3, #0
 619 0002 C0F8083F 		str	r3, [r0, #3848]
 192:Generated_Source\PSoC6\pdl\drivers\peripheral\i2s/cy_i2s.c ****     REG_I2S_CMD(base) = 0UL;
 620              		.loc 1 192 0
 621 0006 0362     		str	r3, [r0, #32]
 193:Generated_Source\PSoC6\pdl\drivers\peripheral\i2s/cy_i2s.c ****     REG_I2S_TR_CTL(base) = 0UL;
 622              		.loc 1 193 0
 623 0008 0364     		str	r3, [r0, #64]
ARM GAS  C:\Users\dev\AppData\Local\Temp\ccJYAN2E.s 			page 16


 194:Generated_Source\PSoC6\pdl\drivers\peripheral\i2s/cy_i2s.c ****     REG_I2S_TX_FIFO_CTL(base) = 0UL;
 624              		.loc 1 194 0
 625 000a C0F80032 		str	r3, [r0, #512]
 195:Generated_Source\PSoC6\pdl\drivers\peripheral\i2s/cy_i2s.c ****     REG_I2S_RX_FIFO_CTL(base) = 0UL;
 626              		.loc 1 195 0
 627 000e C0F80033 		str	r3, [r0, #768]
 196:Generated_Source\PSoC6\pdl\drivers\peripheral\i2s/cy_i2s.c ****     REG_I2S_CTL(base) = 0UL;
 628              		.loc 1 196 0
 629 0012 0360     		str	r3, [r0]
 197:Generated_Source\PSoC6\pdl\drivers\peripheral\i2s/cy_i2s.c ****     REG_I2S_TX_CTL(base) = CY_I2S_TX_CTL_DEFAULT;
 630              		.loc 1 197 0
 631 0014 054A     		ldr	r2, .L65
 632 0016 C0F88020 		str	r2, [r0, #128]
 198:Generated_Source\PSoC6\pdl\drivers\peripheral\i2s/cy_i2s.c ****     REG_I2S_RX_CTL(base) = CY_I2S_RX_CTL_DEFAULT;
 633              		.loc 1 198 0
 634 001a C0F8A020 		str	r2, [r0, #160]
 199:Generated_Source\PSoC6\pdl\drivers\peripheral\i2s/cy_i2s.c ****     REG_I2S_TX_WATCHDOG(base) = 0UL;
 635              		.loc 1 199 0
 636 001e C0F88430 		str	r3, [r0, #132]
 200:Generated_Source\PSoC6\pdl\drivers\peripheral\i2s/cy_i2s.c ****     REG_I2S_RX_WATCHDOG(base) = 0UL;
 637              		.loc 1 200 0
 638 0022 C0F8A430 		str	r3, [r0, #164]
 201:Generated_Source\PSoC6\pdl\drivers\peripheral\i2s/cy_i2s.c ****     REG_I2S_CLOCK_CTL(base) = 0UL;
 639              		.loc 1 201 0
 640 0026 0361     		str	r3, [r0, #16]
 641 0028 7047     		bx	lr
 642              	.L66:
 643 002a 00BF     		.align	2
 644              	.L65:
 645 002c 10064400 		.word	4458000
 646              		.cfi_endproc
 647              	.LFE195:
 648              		.size	Cy_I2S_DeInit, .-Cy_I2S_DeInit
 649              		.section	.text.Cy_I2S_DeepSleepCallback,"ax",%progbits
 650              		.align	2
 651              		.global	Cy_I2S_DeepSleepCallback
 652              		.thumb
 653              		.thumb_func
 654              		.type	Cy_I2S_DeepSleepCallback, %function
 655              	Cy_I2S_DeepSleepCallback:
 656              	.LFB196:
 202:Generated_Source\PSoC6\pdl\drivers\peripheral\i2s/cy_i2s.c **** }
 203:Generated_Source\PSoC6\pdl\drivers\peripheral\i2s/cy_i2s.c **** 
 204:Generated_Source\PSoC6\pdl\drivers\peripheral\i2s/cy_i2s.c **** 
 205:Generated_Source\PSoC6\pdl\drivers\peripheral\i2s/cy_i2s.c **** /*******************************************************************************
 206:Generated_Source\PSoC6\pdl\drivers\peripheral\i2s/cy_i2s.c **** * Function Name: Cy_I2S_DeepSleepCallback
 207:Generated_Source\PSoC6\pdl\drivers\peripheral\i2s/cy_i2s.c **** ****************************************************************************//**
 208:Generated_Source\PSoC6\pdl\drivers\peripheral\i2s/cy_i2s.c **** *
 209:Generated_Source\PSoC6\pdl\drivers\peripheral\i2s/cy_i2s.c **** * This is a callback function to be used at the application layer to
 210:Generated_Source\PSoC6\pdl\drivers\peripheral\i2s/cy_i2s.c **** * manage an I2S operation during the Deep Sleep cycle. It stores the I2S state 
 211:Generated_Source\PSoC6\pdl\drivers\peripheral\i2s/cy_i2s.c **** * (Tx/Rx enabled/disabled/paused) into the context structure and stops the 
 212:Generated_Source\PSoC6\pdl\drivers\peripheral\i2s/cy_i2s.c **** * communication before entering into Deep Sleep power mode and restores the I2S
 213:Generated_Source\PSoC6\pdl\drivers\peripheral\i2s/cy_i2s.c **** * state after waking up.
 214:Generated_Source\PSoC6\pdl\drivers\peripheral\i2s/cy_i2s.c **** *
 215:Generated_Source\PSoC6\pdl\drivers\peripheral\i2s/cy_i2s.c **** * \param 
 216:Generated_Source\PSoC6\pdl\drivers\peripheral\i2s/cy_i2s.c **** * callbackParams - The pointer to the callback parameters structure, 
 217:Generated_Source\PSoC6\pdl\drivers\peripheral\i2s/cy_i2s.c **** * see \ref cy_stc_syspm_callback_params_t.
ARM GAS  C:\Users\dev\AppData\Local\Temp\ccJYAN2E.s 			page 17


 218:Generated_Source\PSoC6\pdl\drivers\peripheral\i2s/cy_i2s.c **** *
 219:Generated_Source\PSoC6\pdl\drivers\peripheral\i2s/cy_i2s.c **** * \param mode
 220:Generated_Source\PSoC6\pdl\drivers\peripheral\i2s/cy_i2s.c **** * Callback mode, see \ref cy_en_syspm_callback_mode_t
 221:Generated_Source\PSoC6\pdl\drivers\peripheral\i2s/cy_i2s.c **** *
 222:Generated_Source\PSoC6\pdl\drivers\peripheral\i2s/cy_i2s.c **** * \return the SysPm callback status \ref cy_en_syspm_status_t.
 223:Generated_Source\PSoC6\pdl\drivers\peripheral\i2s/cy_i2s.c **** *
 224:Generated_Source\PSoC6\pdl\drivers\peripheral\i2s/cy_i2s.c **** * \note Use the \ref cy_stc_i2s_context_t data type for definition of the 
 225:Generated_Source\PSoC6\pdl\drivers\peripheral\i2s/cy_i2s.c **** * *context element of the \ref cy_stc_syspm_callback_params_t structure.
 226:Generated_Source\PSoC6\pdl\drivers\peripheral\i2s/cy_i2s.c **** *
 227:Generated_Source\PSoC6\pdl\drivers\peripheral\i2s/cy_i2s.c **** * \funcusage
 228:Generated_Source\PSoC6\pdl\drivers\peripheral\i2s/cy_i2s.c **** * \snippet i2s\2.10\snippet\main.c snippet_Cy_I2S_DeepSleepCallback
 229:Generated_Source\PSoC6\pdl\drivers\peripheral\i2s/cy_i2s.c **** *
 230:Generated_Source\PSoC6\pdl\drivers\peripheral\i2s/cy_i2s.c **** *******************************************************************************/
 231:Generated_Source\PSoC6\pdl\drivers\peripheral\i2s/cy_i2s.c **** cy_en_syspm_status_t Cy_I2S_DeepSleepCallback (cy_stc_syspm_callback_params_t *callbackParams, cy_e
 232:Generated_Source\PSoC6\pdl\drivers\peripheral\i2s/cy_i2s.c **** {
 657              		.loc 1 232 0
 658              		.cfi_startproc
 659              		@ args = 0, pretend = 0, frame = 0
 660              		@ frame_needed = 0, uses_anonymous_args = 0
 661              	.LVL47:
 662 0000 70B5     		push	{r4, r5, r6, lr}
 663              		.cfi_def_cfa_offset 16
 664              		.cfi_offset 4, -16
 665              		.cfi_offset 5, -12
 666              		.cfi_offset 6, -8
 667              		.cfi_offset 14, -4
 668 0002 0646     		mov	r6, r0
 669 0004 0D46     		mov	r5, r1
 670              	.LVL48:
 233:Generated_Source\PSoC6\pdl\drivers\peripheral\i2s/cy_i2s.c ****     cy_en_syspm_status_t ret = CY_SYSPM_SUCCESS;
 234:Generated_Source\PSoC6\pdl\drivers\peripheral\i2s/cy_i2s.c ****     CY_ASSERT_L1(NULL != callbackParams->context);
 671              		.loc 1 234 0
 672 0006 4368     		ldr	r3, [r0, #4]
 673 0008 1BB9     		cbnz	r3, .L68
 674              		.loc 1 234 0 is_stmt 0 discriminator 1
 675 000a EA21     		movs	r1, #234
 676              	.LVL49:
 677 000c 4048     		ldr	r0, .L83
 678              	.LVL50:
 679 000e FFF7FEFF 		bl	Cy_SysLib_AssertFailed
 680              	.LVL51:
 681              	.L68:
 235:Generated_Source\PSoC6\pdl\drivers\peripheral\i2s/cy_i2s.c ****     I2S_Type * locBase = (I2S_Type*) callbackParams->base;
 682              		.loc 1 235 0 is_stmt 1
 683 0012 3468     		ldr	r4, [r6]
 684              	.LVL52:
 236:Generated_Source\PSoC6\pdl\drivers\peripheral\i2s/cy_i2s.c ****     uint32_t * locInterruptMask = (uint32_t*) &(((cy_stc_i2s_context_t*)(callbackParams->context))-
 685              		.loc 1 236 0
 686 0014 7668     		ldr	r6, [r6, #4]
 687              	.LVL53:
 237:Generated_Source\PSoC6\pdl\drivers\peripheral\i2s/cy_i2s.c ****     uint32_t * locState = (uint32_t*) &(((cy_stc_i2s_context_t*)(callbackParams->context))->enableS
 238:Generated_Source\PSoC6\pdl\drivers\peripheral\i2s/cy_i2s.c ****     
 239:Generated_Source\PSoC6\pdl\drivers\peripheral\i2s/cy_i2s.c ****     switch(mode)
 688              		.loc 1 239 0
 689 0016 691E     		subs	r1, r5, #1
 690 0018 0729     		cmp	r1, #7
 691 001a 76D8     		bhi	.L81
ARM GAS  C:\Users\dev\AppData\Local\Temp\ccJYAN2E.s 			page 18


 692 001c DFE801F0 		tbb	[pc, r1]
 693              	.L71:
 694 0020 04       		.byte	(.L70-.L71)/2
 695 0021 04       		.byte	(.L70-.L71)/2
 696 0022 75       		.byte	(.L81-.L71)/2
 697 0023 06       		.byte	(.L72-.L71)/2
 698 0024 75       		.byte	(.L81-.L71)/2
 699 0025 75       		.byte	(.L81-.L71)/2
 700 0026 75       		.byte	(.L81-.L71)/2
 701 0027 22       		.byte	(.L73-.L71)/2
 702              		.p2align 1
 703              	.L70:
 233:Generated_Source\PSoC6\pdl\drivers\peripheral\i2s/cy_i2s.c ****     CY_ASSERT_L1(NULL != callbackParams->context);
 704              		.loc 1 233 0
 705 0028 0020     		movs	r0, #0
 706 002a 70BD     		pop	{r4, r5, r6, pc}
 707              	.LVL54:
 708              	.L72:
 709              	.LBB32:
 710              	.LBB33:
 711              		.file 2 "Generated_Source\\PSoC6\\pdl\\drivers\\peripheral\\i2s\\cy_i2s.h"
   1:Generated_Source\PSoC6\pdl\drivers\peripheral\i2s/cy_i2s.h **** /***************************************************************************//**
   2:Generated_Source\PSoC6\pdl\drivers\peripheral\i2s/cy_i2s.h **** * \file cy_i2s.h
   3:Generated_Source\PSoC6\pdl\drivers\peripheral\i2s/cy_i2s.h **** * \version 2.10
   4:Generated_Source\PSoC6\pdl\drivers\peripheral\i2s/cy_i2s.h **** * 
   5:Generated_Source\PSoC6\pdl\drivers\peripheral\i2s/cy_i2s.h **** * The header file of the I2S driver.
   6:Generated_Source\PSoC6\pdl\drivers\peripheral\i2s/cy_i2s.h **** *
   7:Generated_Source\PSoC6\pdl\drivers\peripheral\i2s/cy_i2s.h **** ********************************************************************************
   8:Generated_Source\PSoC6\pdl\drivers\peripheral\i2s/cy_i2s.h **** * \copyright
   9:Generated_Source\PSoC6\pdl\drivers\peripheral\i2s/cy_i2s.h **** * Copyright 2016-2018, Cypress Semiconductor Corporation. All rights reserved.
  10:Generated_Source\PSoC6\pdl\drivers\peripheral\i2s/cy_i2s.h **** * You may use this file only in accordance with the license, terms, conditions,
  11:Generated_Source\PSoC6\pdl\drivers\peripheral\i2s/cy_i2s.h **** * disclaimers, and limitations in the end user license agreement accompanying
  12:Generated_Source\PSoC6\pdl\drivers\peripheral\i2s/cy_i2s.h **** * the software package with which this file was provided.
  13:Generated_Source\PSoC6\pdl\drivers\peripheral\i2s/cy_i2s.h **** *******************************************************************************/
  14:Generated_Source\PSoC6\pdl\drivers\peripheral\i2s/cy_i2s.h **** 
  15:Generated_Source\PSoC6\pdl\drivers\peripheral\i2s/cy_i2s.h **** /**
  16:Generated_Source\PSoC6\pdl\drivers\peripheral\i2s/cy_i2s.h **** * \addtogroup group_i2s
  17:Generated_Source\PSoC6\pdl\drivers\peripheral\i2s/cy_i2s.h **** * \{
  18:Generated_Source\PSoC6\pdl\drivers\peripheral\i2s/cy_i2s.h **** * The I2S driver provides a function API to manage Inter-IC Sound. 
  19:Generated_Source\PSoC6\pdl\drivers\peripheral\i2s/cy_i2s.h **** *
  20:Generated_Source\PSoC6\pdl\drivers\peripheral\i2s/cy_i2s.h **** * The functions and other declarations used in this driver are in cy_i2s.h. 
  21:Generated_Source\PSoC6\pdl\drivers\peripheral\i2s/cy_i2s.h **** * You can include cy_pdl.h (ModusToolbox only) to get access to all functions 
  22:Generated_Source\PSoC6\pdl\drivers\peripheral\i2s/cy_i2s.h **** * and declarations in the PDL.
  23:Generated_Source\PSoC6\pdl\drivers\peripheral\i2s/cy_i2s.h **** *
  24:Generated_Source\PSoC6\pdl\drivers\peripheral\i2s/cy_i2s.h **** * I2S is used to send digital audio streaming data to external I2S devices,  
  25:Generated_Source\PSoC6\pdl\drivers\peripheral\i2s/cy_i2s.h **** * such as audio codecs or simple DACs. It can also receive digital audio streaming data.
  26:Generated_Source\PSoC6\pdl\drivers\peripheral\i2s/cy_i2s.h **** *
  27:Generated_Source\PSoC6\pdl\drivers\peripheral\i2s/cy_i2s.h **** * Features:
  28:Generated_Source\PSoC6\pdl\drivers\peripheral\i2s/cy_i2s.h **** * * An industry standard NXP I2S interface.
  29:Generated_Source\PSoC6\pdl\drivers\peripheral\i2s/cy_i2s.h **** * * Supports master/slave TX/RX operation.
  30:Generated_Source\PSoC6\pdl\drivers\peripheral\i2s/cy_i2s.h **** * * Programmable Channel/Word Lengths.
  31:Generated_Source\PSoC6\pdl\drivers\peripheral\i2s/cy_i2s.h **** * * Supports External Clock operation.
  32:Generated_Source\PSoC6\pdl\drivers\peripheral\i2s/cy_i2s.h **** *
  33:Generated_Source\PSoC6\pdl\drivers\peripheral\i2s/cy_i2s.h **** * The I2S bus is an industry standard. The hardware interface was 
  34:Generated_Source\PSoC6\pdl\drivers\peripheral\i2s/cy_i2s.h **** * developed by Philips Semiconductors (now NXP Semiconductors). 
  35:Generated_Source\PSoC6\pdl\drivers\peripheral\i2s/cy_i2s.h **** *
  36:Generated_Source\PSoC6\pdl\drivers\peripheral\i2s/cy_i2s.h **** * \section group_i2s_configuration_considerations Configuration Considerations
ARM GAS  C:\Users\dev\AppData\Local\Temp\ccJYAN2E.s 			page 19


  37:Generated_Source\PSoC6\pdl\drivers\peripheral\i2s/cy_i2s.h **** *
  38:Generated_Source\PSoC6\pdl\drivers\peripheral\i2s/cy_i2s.h **** * To set up an I2S, provide the configuration parameters in the
  39:Generated_Source\PSoC6\pdl\drivers\peripheral\i2s/cy_i2s.h **** * \ref cy_stc_i2s_config_t structure. 
  40:Generated_Source\PSoC6\pdl\drivers\peripheral\i2s/cy_i2s.h **** * 
  41:Generated_Source\PSoC6\pdl\drivers\peripheral\i2s/cy_i2s.h **** * For example, for Tx configuration, set txEnabled to true, configure
  42:Generated_Source\PSoC6\pdl\drivers\peripheral\i2s/cy_i2s.h **** * txDmaTrigger (depending on whether DMA is going to be used or not), set
  43:Generated_Source\PSoC6\pdl\drivers\peripheral\i2s/cy_i2s.h **** * extClk (if an external clock is used), provide clkDiv, txMasterMode,
  44:Generated_Source\PSoC6\pdl\drivers\peripheral\i2s/cy_i2s.h **** * txAlignment, txChannels (only are is supported in I2S and Left Justified modes)
  45:Generated_Source\PSoC6\pdl\drivers\peripheral\i2s/cy_i2s.h **** * txSdoLatchingTime (for slave mode only), txChannelLength, txWordLength,
  46:Generated_Source\PSoC6\pdl\drivers\peripheral\i2s/cy_i2s.h **** * txWsPulseWidth (for TMD modes only), txWatchdogEnable and txWatchdogValue
  47:Generated_Source\PSoC6\pdl\drivers\peripheral\i2s/cy_i2s.h **** * (both for Slave mode only, and when the watchdog interrupt will be used),
  48:Generated_Source\PSoC6\pdl\drivers\peripheral\i2s/cy_i2s.h **** * either txSckoInversion or txSckiInversion (based on txMasterMode setting),
  49:Generated_Source\PSoC6\pdl\drivers\peripheral\i2s/cy_i2s.h **** * txFifoTriggerLevel (when the Trig interrupt will be used) and txOverheadValue
  50:Generated_Source\PSoC6\pdl\drivers\peripheral\i2s/cy_i2s.h **** * (only when the word length is less than channel length).
  51:Generated_Source\PSoC6\pdl\drivers\peripheral\i2s/cy_i2s.h **** * A similar setup is for the Rx configuration.
  52:Generated_Source\PSoC6\pdl\drivers\peripheral\i2s/cy_i2s.h **** *
  53:Generated_Source\PSoC6\pdl\drivers\peripheral\i2s/cy_i2s.h **** * To initialize the I2S block, call the \ref Cy_I2S_Init function, providing the
  54:Generated_Source\PSoC6\pdl\drivers\peripheral\i2s/cy_i2s.h **** * filled \ref cy_stc_i2s_config_t structure.
  55:Generated_Source\PSoC6\pdl\drivers\peripheral\i2s/cy_i2s.h **** * Before starting the transmission, clear the FIFO \ref Cy_I2S_ClearTxFifo, then
  56:Generated_Source\PSoC6\pdl\drivers\peripheral\i2s/cy_i2s.h **** * fill the first Tx data frame by calling \ref Cy_I2S_WriteTxData once for each
  57:Generated_Source\PSoC6\pdl\drivers\peripheral\i2s/cy_i2s.h **** * channel (e.g. twice for I2S mode with only two channels) with zero data. Then
  58:Generated_Source\PSoC6\pdl\drivers\peripheral\i2s/cy_i2s.h **** * call the \ref Cy_I2S_EnableTx itself.
  59:Generated_Source\PSoC6\pdl\drivers\peripheral\i2s/cy_i2s.h **** * For the reception the sequence is the same except for filling the first data
  60:Generated_Source\PSoC6\pdl\drivers\peripheral\i2s/cy_i2s.h **** * frame. Only clearing RX FIFO is enough.
  61:Generated_Source\PSoC6\pdl\drivers\peripheral\i2s/cy_i2s.h **** *
  62:Generated_Source\PSoC6\pdl\drivers\peripheral\i2s/cy_i2s.h **** * For example:
  63:Generated_Source\PSoC6\pdl\drivers\peripheral\i2s/cy_i2s.h **** * \snippet i2s\2.10\snippet\main.c snippet_Cy_I2S_Init
  64:Generated_Source\PSoC6\pdl\drivers\peripheral\i2s/cy_i2s.h **** * 
  65:Generated_Source\PSoC6\pdl\drivers\peripheral\i2s/cy_i2s.h **** * If you use a DMA, the DMA channel should be previously configured. The I2S interrupts 
  66:Generated_Source\PSoC6\pdl\drivers\peripheral\i2s/cy_i2s.h **** * (if applicable) can be enabled by calling \ref Cy_I2S_SetInterruptMask.
  67:Generated_Source\PSoC6\pdl\drivers\peripheral\i2s/cy_i2s.h **** *
  68:Generated_Source\PSoC6\pdl\drivers\peripheral\i2s/cy_i2s.h **** * For example, if the trigger interrupt is used during operation, the ISR
  69:Generated_Source\PSoC6\pdl\drivers\peripheral\i2s/cy_i2s.h **** * should call the \ref Cy_I2S_WriteTxData as many times as required for your 
  70:Generated_Source\PSoC6\pdl\drivers\peripheral\i2s/cy_i2s.h **** * FIFO payload, but not more than the FIFO size. Then call \ref Cy_I2S_ClearInterrupt 
  71:Generated_Source\PSoC6\pdl\drivers\peripheral\i2s/cy_i2s.h **** * with appropriate parameters.
  72:Generated_Source\PSoC6\pdl\drivers\peripheral\i2s/cy_i2s.h **** *
  73:Generated_Source\PSoC6\pdl\drivers\peripheral\i2s/cy_i2s.h **** * The I2S/Left Justified data formats always contains two data channels.
  74:Generated_Source\PSoC6\pdl\drivers\peripheral\i2s/cy_i2s.h **** * They are ordered one-by-one in the FIFOs and left always goes first.
  75:Generated_Source\PSoC6\pdl\drivers\peripheral\i2s/cy_i2s.h **** * So in case of mono audio stream transmission, each sample can be put twice
  76:Generated_Source\PSoC6\pdl\drivers\peripheral\i2s/cy_i2s.h **** * into the TX FIFO (in this case both channels will sound the same),
  77:Generated_Source\PSoC6\pdl\drivers\peripheral\i2s/cy_i2s.h **** * or combined with zeroes: sample1-zero-sample2-zero (in this case only the
  78:Generated_Source\PSoC6\pdl\drivers\peripheral\i2s/cy_i2s.h **** * left channel will finally sound, for a right-only case, zero should go first).
  79:Generated_Source\PSoC6\pdl\drivers\peripheral\i2s/cy_i2s.h **** * The TDM frame word order in FIFOs is similar, one-by-one.
  80:Generated_Source\PSoC6\pdl\drivers\peripheral\i2s/cy_i2s.h **** * 
  81:Generated_Source\PSoC6\pdl\drivers\peripheral\i2s/cy_i2s.h **** * If a DMA is used and the DMA channel is properly configured - no CPU activity
  82:Generated_Source\PSoC6\pdl\drivers\peripheral\i2s/cy_i2s.h **** * (or any application code) is needed for I2S operation.
  83:Generated_Source\PSoC6\pdl\drivers\peripheral\i2s/cy_i2s.h **** *
  84:Generated_Source\PSoC6\pdl\drivers\peripheral\i2s/cy_i2s.h **** * The I2S frame appears as:
  85:Generated_Source\PSoC6\pdl\drivers\peripheral\i2s/cy_i2s.h **** * \image html i2s_frame.png
  86:Generated_Source\PSoC6\pdl\drivers\peripheral\i2s/cy_i2s.h **** * This is an example for the channel length = 32. A similar case exists for the rest
  87:Generated_Source\PSoC6\pdl\drivers\peripheral\i2s/cy_i2s.h **** * channel lengths, with one limitation: the word length could be less than or equal
  88:Generated_Source\PSoC6\pdl\drivers\peripheral\i2s/cy_i2s.h **** * to the channel length. See the device technical reference manual (TRM)
  89:Generated_Source\PSoC6\pdl\drivers\peripheral\i2s/cy_i2s.h **** * for more details.
  90:Generated_Source\PSoC6\pdl\drivers\peripheral\i2s/cy_i2s.h **** *
  91:Generated_Source\PSoC6\pdl\drivers\peripheral\i2s/cy_i2s.h **** * \section group_i2s_more_information More Information
  92:Generated_Source\PSoC6\pdl\drivers\peripheral\i2s/cy_i2s.h **** * See: the the I2S chapter of the device technical reference manual (TRM);
  93:Generated_Source\PSoC6\pdl\drivers\peripheral\i2s/cy_i2s.h **** *      I2S_PDL Component datasheet;
ARM GAS  C:\Users\dev\AppData\Local\Temp\ccJYAN2E.s 			page 20


  94:Generated_Source\PSoC6\pdl\drivers\peripheral\i2s/cy_i2s.h **** *      CE218636 - PSOC 6 MCU INTER-IC SOUND (I2S) EXAMPLE.
  95:Generated_Source\PSoC6\pdl\drivers\peripheral\i2s/cy_i2s.h **** *
  96:Generated_Source\PSoC6\pdl\drivers\peripheral\i2s/cy_i2s.h **** * \section group_i2s_MISRA MISRA-C Compliance
  97:Generated_Source\PSoC6\pdl\drivers\peripheral\i2s/cy_i2s.h **** * The I2S driver has the following specific deviations:
  98:Generated_Source\PSoC6\pdl\drivers\peripheral\i2s/cy_i2s.h **** * <table class="doxtable">
  99:Generated_Source\PSoC6\pdl\drivers\peripheral\i2s/cy_i2s.h **** *   <tr>
 100:Generated_Source\PSoC6\pdl\drivers\peripheral\i2s/cy_i2s.h **** *     <th>MISRA Rule</th>
 101:Generated_Source\PSoC6\pdl\drivers\peripheral\i2s/cy_i2s.h **** *     <th>Rule Class (Required/Advisory)</th>
 102:Generated_Source\PSoC6\pdl\drivers\peripheral\i2s/cy_i2s.h **** *     <th>Rule Description</th>
 103:Generated_Source\PSoC6\pdl\drivers\peripheral\i2s/cy_i2s.h **** *     <th>Description of Deviation(s)</th>
 104:Generated_Source\PSoC6\pdl\drivers\peripheral\i2s/cy_i2s.h **** *   </tr>
 105:Generated_Source\PSoC6\pdl\drivers\peripheral\i2s/cy_i2s.h **** *   <tr>
 106:Generated_Source\PSoC6\pdl\drivers\peripheral\i2s/cy_i2s.h **** *     <td>11.4</td>
 107:Generated_Source\PSoC6\pdl\drivers\peripheral\i2s/cy_i2s.h **** *     <td>A</td>
 108:Generated_Source\PSoC6\pdl\drivers\peripheral\i2s/cy_i2s.h **** *     <td>A cast should not be performed between a pointer to the object type and
 109:Generated_Source\PSoC6\pdl\drivers\peripheral\i2s/cy_i2s.h **** *         a different pointer to the object type.</td>
 110:Generated_Source\PSoC6\pdl\drivers\peripheral\i2s/cy_i2s.h **** *     <td>The function \ref Cy_I2S_DeepSleepCallback is a callback of
 111:Generated_Source\PSoC6\pdl\drivers\peripheral\i2s/cy_i2s.h **** *         \ref cy_en_syspm_status_t type. The cast operation safety in this
 112:Generated_Source\PSoC6\pdl\drivers\peripheral\i2s/cy_i2s.h **** *         function becomes the user responsibility because the pointer is
 113:Generated_Source\PSoC6\pdl\drivers\peripheral\i2s/cy_i2s.h **** *         initialized when a callback is registered in the SysPm driver.</td>
 114:Generated_Source\PSoC6\pdl\drivers\peripheral\i2s/cy_i2s.h **** *   </tr>
 115:Generated_Source\PSoC6\pdl\drivers\peripheral\i2s/cy_i2s.h **** * </table>
 116:Generated_Source\PSoC6\pdl\drivers\peripheral\i2s/cy_i2s.h **** *
 117:Generated_Source\PSoC6\pdl\drivers\peripheral\i2s/cy_i2s.h **** * \section group_i2s_changelog Changelog
 118:Generated_Source\PSoC6\pdl\drivers\peripheral\i2s/cy_i2s.h **** * <table class="doxtable">
 119:Generated_Source\PSoC6\pdl\drivers\peripheral\i2s/cy_i2s.h **** *   <tr><th>Version</th><th>Changes</th><th>Reason for Change</th></tr>
 120:Generated_Source\PSoC6\pdl\drivers\peripheral\i2s/cy_i2s.h **** *   <tr>
 121:Generated_Source\PSoC6\pdl\drivers\peripheral\i2s/cy_i2s.h **** *     <td rowspan="2">2.10</td>
 122:Generated_Source\PSoC6\pdl\drivers\peripheral\i2s/cy_i2s.h **** *     <td>Flattened the organization of the driver source code into the single 
 123:Generated_Source\PSoC6\pdl\drivers\peripheral\i2s/cy_i2s.h **** *         source directory and the single include directory.
 124:Generated_Source\PSoC6\pdl\drivers\peripheral\i2s/cy_i2s.h **** *     </td>
 125:Generated_Source\PSoC6\pdl\drivers\peripheral\i2s/cy_i2s.h **** *     <td>Driver library directory-structure simplification.</td>
 126:Generated_Source\PSoC6\pdl\drivers\peripheral\i2s/cy_i2s.h **** *   </tr>
 127:Generated_Source\PSoC6\pdl\drivers\peripheral\i2s/cy_i2s.h **** *   <tr>
 128:Generated_Source\PSoC6\pdl\drivers\peripheral\i2s/cy_i2s.h **** *     <td>Added register access layer. Use register access macros instead
 129:Generated_Source\PSoC6\pdl\drivers\peripheral\i2s/cy_i2s.h **** *         of direct register access using dereferenced pointers.</td>
 130:Generated_Source\PSoC6\pdl\drivers\peripheral\i2s/cy_i2s.h **** *     <td>Makes register access device-independent, so that the PDL does 
 131:Generated_Source\PSoC6\pdl\drivers\peripheral\i2s/cy_i2s.h **** *         not need to be recompiled for each supported part number.</td>
 132:Generated_Source\PSoC6\pdl\drivers\peripheral\i2s/cy_i2s.h **** *   </tr>
 133:Generated_Source\PSoC6\pdl\drivers\peripheral\i2s/cy_i2s.h **** *   <tr>
 134:Generated_Source\PSoC6\pdl\drivers\peripheral\i2s/cy_i2s.h **** *     <td>2.0.1</td>
 135:Generated_Source\PSoC6\pdl\drivers\peripheral\i2s/cy_i2s.h **** *     <td>Added Low Power Callback section</td>
 136:Generated_Source\PSoC6\pdl\drivers\peripheral\i2s/cy_i2s.h **** *     <td>Documentation update and clarification</td>
 137:Generated_Source\PSoC6\pdl\drivers\peripheral\i2s/cy_i2s.h **** *   </tr>
 138:Generated_Source\PSoC6\pdl\drivers\peripheral\i2s/cy_i2s.h **** *   <tr>
 139:Generated_Source\PSoC6\pdl\drivers\peripheral\i2s/cy_i2s.h **** *     <td>2.0</td>
 140:Generated_Source\PSoC6\pdl\drivers\peripheral\i2s/cy_i2s.h **** *     <td>The slave operation is added, Left Justified and TDM modes are added</td>
 141:Generated_Source\PSoC6\pdl\drivers\peripheral\i2s/cy_i2s.h **** *     <td></td>
 142:Generated_Source\PSoC6\pdl\drivers\peripheral\i2s/cy_i2s.h **** *   </tr>
 143:Generated_Source\PSoC6\pdl\drivers\peripheral\i2s/cy_i2s.h **** *   <tr>
 144:Generated_Source\PSoC6\pdl\drivers\peripheral\i2s/cy_i2s.h **** *     <td>1.0</td>
 145:Generated_Source\PSoC6\pdl\drivers\peripheral\i2s/cy_i2s.h **** *     <td>Initial version</td>
 146:Generated_Source\PSoC6\pdl\drivers\peripheral\i2s/cy_i2s.h **** *     <td></td>
 147:Generated_Source\PSoC6\pdl\drivers\peripheral\i2s/cy_i2s.h **** *   </tr>
 148:Generated_Source\PSoC6\pdl\drivers\peripheral\i2s/cy_i2s.h **** * </table>
 149:Generated_Source\PSoC6\pdl\drivers\peripheral\i2s/cy_i2s.h **** *
 150:Generated_Source\PSoC6\pdl\drivers\peripheral\i2s/cy_i2s.h **** * \defgroup group_i2s_macros Macros
ARM GAS  C:\Users\dev\AppData\Local\Temp\ccJYAN2E.s 			page 21


 151:Generated_Source\PSoC6\pdl\drivers\peripheral\i2s/cy_i2s.h **** * \defgroup group_i2s_functions Functions
 152:Generated_Source\PSoC6\pdl\drivers\peripheral\i2s/cy_i2s.h **** *   \{
 153:Generated_Source\PSoC6\pdl\drivers\peripheral\i2s/cy_i2s.h **** *       \defgroup group_i2s_functions_syspm_callback  Low Power Callback
 154:Generated_Source\PSoC6\pdl\drivers\peripheral\i2s/cy_i2s.h **** *   \}
 155:Generated_Source\PSoC6\pdl\drivers\peripheral\i2s/cy_i2s.h **** * \defgroup group_i2s_data_structures Data Structures
 156:Generated_Source\PSoC6\pdl\drivers\peripheral\i2s/cy_i2s.h **** * \defgroup group_i2s_enums Enumerated Types
 157:Generated_Source\PSoC6\pdl\drivers\peripheral\i2s/cy_i2s.h **** */
 158:Generated_Source\PSoC6\pdl\drivers\peripheral\i2s/cy_i2s.h **** 
 159:Generated_Source\PSoC6\pdl\drivers\peripheral\i2s/cy_i2s.h **** 
 160:Generated_Source\PSoC6\pdl\drivers\peripheral\i2s/cy_i2s.h **** #if !defined CY_I2S_H
 161:Generated_Source\PSoC6\pdl\drivers\peripheral\i2s/cy_i2s.h **** #define CY_I2S_H
 162:Generated_Source\PSoC6\pdl\drivers\peripheral\i2s/cy_i2s.h **** 
 163:Generated_Source\PSoC6\pdl\drivers\peripheral\i2s/cy_i2s.h **** #include <stddef.h>
 164:Generated_Source\PSoC6\pdl\drivers\peripheral\i2s/cy_i2s.h **** #include <stdbool.h>
 165:Generated_Source\PSoC6\pdl\drivers\peripheral\i2s/cy_i2s.h **** #include "cy_device.h"
 166:Generated_Source\PSoC6\pdl\drivers\peripheral\i2s/cy_i2s.h **** #include "cy_syslib.h"
 167:Generated_Source\PSoC6\pdl\drivers\peripheral\i2s/cy_i2s.h **** #include "cy_syspm.h"
 168:Generated_Source\PSoC6\pdl\drivers\peripheral\i2s/cy_i2s.h **** 
 169:Generated_Source\PSoC6\pdl\drivers\peripheral\i2s/cy_i2s.h **** #ifdef CY_IP_MXAUDIOSS
 170:Generated_Source\PSoC6\pdl\drivers\peripheral\i2s/cy_i2s.h **** 
 171:Generated_Source\PSoC6\pdl\drivers\peripheral\i2s/cy_i2s.h **** #ifdef __cplusplus
 172:Generated_Source\PSoC6\pdl\drivers\peripheral\i2s/cy_i2s.h **** extern "C" {
 173:Generated_Source\PSoC6\pdl\drivers\peripheral\i2s/cy_i2s.h **** #endif
 174:Generated_Source\PSoC6\pdl\drivers\peripheral\i2s/cy_i2s.h **** 
 175:Generated_Source\PSoC6\pdl\drivers\peripheral\i2s/cy_i2s.h **** /** \addtogroup group_i2s_macros
 176:Generated_Source\PSoC6\pdl\drivers\peripheral\i2s/cy_i2s.h **** * \{
 177:Generated_Source\PSoC6\pdl\drivers\peripheral\i2s/cy_i2s.h **** */
 178:Generated_Source\PSoC6\pdl\drivers\peripheral\i2s/cy_i2s.h **** 
 179:Generated_Source\PSoC6\pdl\drivers\peripheral\i2s/cy_i2s.h **** /** The driver major version */
 180:Generated_Source\PSoC6\pdl\drivers\peripheral\i2s/cy_i2s.h **** #define CY_I2S_DRV_VERSION_MAJOR       2
 181:Generated_Source\PSoC6\pdl\drivers\peripheral\i2s/cy_i2s.h **** 
 182:Generated_Source\PSoC6\pdl\drivers\peripheral\i2s/cy_i2s.h **** /** The driver minor version */
 183:Generated_Source\PSoC6\pdl\drivers\peripheral\i2s/cy_i2s.h **** #define CY_I2S_DRV_VERSION_MINOR       10
 184:Generated_Source\PSoC6\pdl\drivers\peripheral\i2s/cy_i2s.h **** 
 185:Generated_Source\PSoC6\pdl\drivers\peripheral\i2s/cy_i2s.h **** /** The I2S driver identifier */
 186:Generated_Source\PSoC6\pdl\drivers\peripheral\i2s/cy_i2s.h **** #define CY_I2S_ID                      (CY_PDL_DRV_ID(0x20U))
 187:Generated_Source\PSoC6\pdl\drivers\peripheral\i2s/cy_i2s.h **** 
 188:Generated_Source\PSoC6\pdl\drivers\peripheral\i2s/cy_i2s.h **** /**
 189:Generated_Source\PSoC6\pdl\drivers\peripheral\i2s/cy_i2s.h **** * \defgroup group_i2s_macros_interrupt_masks Interrupt Masks
 190:Generated_Source\PSoC6\pdl\drivers\peripheral\i2s/cy_i2s.h **** * \{
 191:Generated_Source\PSoC6\pdl\drivers\peripheral\i2s/cy_i2s.h **** */
 192:Generated_Source\PSoC6\pdl\drivers\peripheral\i2s/cy_i2s.h **** 
 193:Generated_Source\PSoC6\pdl\drivers\peripheral\i2s/cy_i2s.h **** /** Bit 0: Less entries in the TX FIFO than specified by Trigger Level. */
 194:Generated_Source\PSoC6\pdl\drivers\peripheral\i2s/cy_i2s.h **** #define CY_I2S_INTR_TX_TRIGGER         (I2S_INTR_TX_TRIGGER_Msk)
 195:Generated_Source\PSoC6\pdl\drivers\peripheral\i2s/cy_i2s.h **** /** Bit 1: TX FIFO is not full. */
 196:Generated_Source\PSoC6\pdl\drivers\peripheral\i2s/cy_i2s.h **** #define CY_I2S_INTR_TX_NOT_FULL        (I2S_INTR_TX_NOT_FULL_Msk)
 197:Generated_Source\PSoC6\pdl\drivers\peripheral\i2s/cy_i2s.h **** /** Bit 4: TX FIFO is empty, i.e. it has 0 entries. */
 198:Generated_Source\PSoC6\pdl\drivers\peripheral\i2s/cy_i2s.h **** #define CY_I2S_INTR_TX_EMPTY           (I2S_INTR_TX_EMPTY_Msk)
 199:Generated_Source\PSoC6\pdl\drivers\peripheral\i2s/cy_i2s.h **** /** Bit 5: Attempt to write to a full TX FIFO. */
 200:Generated_Source\PSoC6\pdl\drivers\peripheral\i2s/cy_i2s.h **** #define CY_I2S_INTR_TX_OVERFLOW        (I2S_INTR_TX_OVERFLOW_Msk)
 201:Generated_Source\PSoC6\pdl\drivers\peripheral\i2s/cy_i2s.h **** /** Bit 6: Attempt to read from an empty TX FIFO.
 202:Generated_Source\PSoC6\pdl\drivers\peripheral\i2s/cy_i2s.h **** * This happens when the IP is ready to transfer data and TX_EMPTY is '1'. */
 203:Generated_Source\PSoC6\pdl\drivers\peripheral\i2s/cy_i2s.h **** #define CY_I2S_INTR_TX_UNDERFLOW       (I2S_INTR_TX_UNDERFLOW_Msk)
 204:Generated_Source\PSoC6\pdl\drivers\peripheral\i2s/cy_i2s.h **** /** Bit 8: Tx watchdog event occurs. */
 205:Generated_Source\PSoC6\pdl\drivers\peripheral\i2s/cy_i2s.h **** #define CY_I2S_INTR_TX_WD              (I2S_INTR_TX_WD_Msk)
 206:Generated_Source\PSoC6\pdl\drivers\peripheral\i2s/cy_i2s.h **** /** Bit 16: More entries in the RX FIFO than specified by Trigger Level. */
 207:Generated_Source\PSoC6\pdl\drivers\peripheral\i2s/cy_i2s.h **** #define CY_I2S_INTR_RX_TRIGGER         (I2S_INTR_RX_TRIGGER_Msk)
ARM GAS  C:\Users\dev\AppData\Local\Temp\ccJYAN2E.s 			page 22


 208:Generated_Source\PSoC6\pdl\drivers\peripheral\i2s/cy_i2s.h **** /** Bit 18: RX FIFO is not empty. */
 209:Generated_Source\PSoC6\pdl\drivers\peripheral\i2s/cy_i2s.h **** #define CY_I2S_INTR_RX_NOT_EMPTY       (I2S_INTR_RX_NOT_EMPTY_Msk)
 210:Generated_Source\PSoC6\pdl\drivers\peripheral\i2s/cy_i2s.h **** /** Bit 19: RX FIFO is full. */
 211:Generated_Source\PSoC6\pdl\drivers\peripheral\i2s/cy_i2s.h **** #define CY_I2S_INTR_RX_FULL            (I2S_INTR_RX_FULL_Msk)
 212:Generated_Source\PSoC6\pdl\drivers\peripheral\i2s/cy_i2s.h **** /** Bit 21: Attempt to write to a full RX FIFO. */
 213:Generated_Source\PSoC6\pdl\drivers\peripheral\i2s/cy_i2s.h **** #define CY_I2S_INTR_RX_OVERFLOW        (I2S_INTR_RX_OVERFLOW_Msk)
 214:Generated_Source\PSoC6\pdl\drivers\peripheral\i2s/cy_i2s.h **** /** Bit 22: Attempt to read from an empty RX FIFO. */
 215:Generated_Source\PSoC6\pdl\drivers\peripheral\i2s/cy_i2s.h **** #define CY_I2S_INTR_RX_UNDERFLOW       (I2S_INTR_RX_UNDERFLOW_Msk)
 216:Generated_Source\PSoC6\pdl\drivers\peripheral\i2s/cy_i2s.h **** /** Bit 24: Rx watchdog event occurs. */
 217:Generated_Source\PSoC6\pdl\drivers\peripheral\i2s/cy_i2s.h **** #define CY_I2S_INTR_RX_WD              (I2S_INTR_RX_WD_Msk)
 218:Generated_Source\PSoC6\pdl\drivers\peripheral\i2s/cy_i2s.h **** 
 219:Generated_Source\PSoC6\pdl\drivers\peripheral\i2s/cy_i2s.h **** /** \} group_i2s_macros_interrupt_masks */
 220:Generated_Source\PSoC6\pdl\drivers\peripheral\i2s/cy_i2s.h **** 
 221:Generated_Source\PSoC6\pdl\drivers\peripheral\i2s/cy_i2s.h **** 
 222:Generated_Source\PSoC6\pdl\drivers\peripheral\i2s/cy_i2s.h **** /**
 223:Generated_Source\PSoC6\pdl\drivers\peripheral\i2s/cy_i2s.h **** * \defgroup group_i2s_macros_current_state Current State
 224:Generated_Source\PSoC6\pdl\drivers\peripheral\i2s/cy_i2s.h **** * \{
 225:Generated_Source\PSoC6\pdl\drivers\peripheral\i2s/cy_i2s.h **** */
 226:Generated_Source\PSoC6\pdl\drivers\peripheral\i2s/cy_i2s.h **** 
 227:Generated_Source\PSoC6\pdl\drivers\peripheral\i2s/cy_i2s.h **** /** Transmission is active */ 
 228:Generated_Source\PSoC6\pdl\drivers\peripheral\i2s/cy_i2s.h **** #define CY_I2S_TX_START                (I2S_CMD_TX_START_Msk)
 229:Generated_Source\PSoC6\pdl\drivers\peripheral\i2s/cy_i2s.h **** /** Transmission is paused */
 230:Generated_Source\PSoC6\pdl\drivers\peripheral\i2s/cy_i2s.h **** #define CY_I2S_TX_PAUSE                (I2S_CMD_TX_PAUSE_Msk)
 231:Generated_Source\PSoC6\pdl\drivers\peripheral\i2s/cy_i2s.h **** /** Reception is active */
 232:Generated_Source\PSoC6\pdl\drivers\peripheral\i2s/cy_i2s.h **** #define CY_I2S_RX_START                (I2S_CMD_RX_START_Msk)
 233:Generated_Source\PSoC6\pdl\drivers\peripheral\i2s/cy_i2s.h **** 
 234:Generated_Source\PSoC6\pdl\drivers\peripheral\i2s/cy_i2s.h **** /** \} group_i2s_macros_current_state */
 235:Generated_Source\PSoC6\pdl\drivers\peripheral\i2s/cy_i2s.h **** 
 236:Generated_Source\PSoC6\pdl\drivers\peripheral\i2s/cy_i2s.h **** /** \} group_i2s_macros */
 237:Generated_Source\PSoC6\pdl\drivers\peripheral\i2s/cy_i2s.h **** 
 238:Generated_Source\PSoC6\pdl\drivers\peripheral\i2s/cy_i2s.h **** /**
 239:Generated_Source\PSoC6\pdl\drivers\peripheral\i2s/cy_i2s.h **** * \addtogroup group_i2s_enums
 240:Generated_Source\PSoC6\pdl\drivers\peripheral\i2s/cy_i2s.h **** * \{
 241:Generated_Source\PSoC6\pdl\drivers\peripheral\i2s/cy_i2s.h **** */
 242:Generated_Source\PSoC6\pdl\drivers\peripheral\i2s/cy_i2s.h **** 
 243:Generated_Source\PSoC6\pdl\drivers\peripheral\i2s/cy_i2s.h **** /**
 244:Generated_Source\PSoC6\pdl\drivers\peripheral\i2s/cy_i2s.h **** * I2S status definitions.
 245:Generated_Source\PSoC6\pdl\drivers\peripheral\i2s/cy_i2s.h **** */
 246:Generated_Source\PSoC6\pdl\drivers\peripheral\i2s/cy_i2s.h **** 
 247:Generated_Source\PSoC6\pdl\drivers\peripheral\i2s/cy_i2s.h **** typedef enum 
 248:Generated_Source\PSoC6\pdl\drivers\peripheral\i2s/cy_i2s.h **** {
 249:Generated_Source\PSoC6\pdl\drivers\peripheral\i2s/cy_i2s.h ****     CY_I2S_SUCCESS   = 0x00UL, /**< Successful. */
 250:Generated_Source\PSoC6\pdl\drivers\peripheral\i2s/cy_i2s.h ****     CY_I2S_BAD_PARAM = CY_I2S_ID | CY_PDL_STATUS_ERROR | 0x01UL /**< One or more invalid parameters
 251:Generated_Source\PSoC6\pdl\drivers\peripheral\i2s/cy_i2s.h **** } cy_en_i2s_status_t;
 252:Generated_Source\PSoC6\pdl\drivers\peripheral\i2s/cy_i2s.h **** 
 253:Generated_Source\PSoC6\pdl\drivers\peripheral\i2s/cy_i2s.h **** 
 254:Generated_Source\PSoC6\pdl\drivers\peripheral\i2s/cy_i2s.h **** /**
 255:Generated_Source\PSoC6\pdl\drivers\peripheral\i2s/cy_i2s.h **** * I2S data alignment.
 256:Generated_Source\PSoC6\pdl\drivers\peripheral\i2s/cy_i2s.h **** */
 257:Generated_Source\PSoC6\pdl\drivers\peripheral\i2s/cy_i2s.h **** typedef enum
 258:Generated_Source\PSoC6\pdl\drivers\peripheral\i2s/cy_i2s.h **** {
 259:Generated_Source\PSoC6\pdl\drivers\peripheral\i2s/cy_i2s.h ****     CY_I2S_LEFT_JUSTIFIED = 0U, /**< Left justified. */
 260:Generated_Source\PSoC6\pdl\drivers\peripheral\i2s/cy_i2s.h ****     CY_I2S_I2S_MODE       = 1U, /**< I2S mode. */
 261:Generated_Source\PSoC6\pdl\drivers\peripheral\i2s/cy_i2s.h ****     CY_I2S_TDM_MODE_A     = 2U, /**< TDM mode A. */
 262:Generated_Source\PSoC6\pdl\drivers\peripheral\i2s/cy_i2s.h ****     CY_I2S_TDM_MODE_B     = 3U  /**< TDM mode B. */
 263:Generated_Source\PSoC6\pdl\drivers\peripheral\i2s/cy_i2s.h **** } cy_en_i2s_alignment_t;
 264:Generated_Source\PSoC6\pdl\drivers\peripheral\i2s/cy_i2s.h **** 
ARM GAS  C:\Users\dev\AppData\Local\Temp\ccJYAN2E.s 			page 23


 265:Generated_Source\PSoC6\pdl\drivers\peripheral\i2s/cy_i2s.h **** /**
 266:Generated_Source\PSoC6\pdl\drivers\peripheral\i2s/cy_i2s.h **** * I2S channel/word length.
 267:Generated_Source\PSoC6\pdl\drivers\peripheral\i2s/cy_i2s.h **** */
 268:Generated_Source\PSoC6\pdl\drivers\peripheral\i2s/cy_i2s.h **** typedef enum
 269:Generated_Source\PSoC6\pdl\drivers\peripheral\i2s/cy_i2s.h **** {
 270:Generated_Source\PSoC6\pdl\drivers\peripheral\i2s/cy_i2s.h ****     CY_I2S_LEN8  = 0U, /**< Channel/word length:  8 bit. */
 271:Generated_Source\PSoC6\pdl\drivers\peripheral\i2s/cy_i2s.h ****     CY_I2S_LEN16 = 1U, /**< Channel/Word length: 16 bit. */
 272:Generated_Source\PSoC6\pdl\drivers\peripheral\i2s/cy_i2s.h ****     CY_I2S_LEN18 = 2U, /**< Channel/Word length: 18 bit. */
 273:Generated_Source\PSoC6\pdl\drivers\peripheral\i2s/cy_i2s.h ****     CY_I2S_LEN20 = 3U, /**< Channel/Word length: 20 bit. */
 274:Generated_Source\PSoC6\pdl\drivers\peripheral\i2s/cy_i2s.h ****     CY_I2S_LEN24 = 4U, /**< Channel/Word length: 24 bit. */
 275:Generated_Source\PSoC6\pdl\drivers\peripheral\i2s/cy_i2s.h ****     CY_I2S_LEN32 = 5U  /**< Channel/Word length: 32 bit. */
 276:Generated_Source\PSoC6\pdl\drivers\peripheral\i2s/cy_i2s.h **** } cy_en_i2s_len_t;
 277:Generated_Source\PSoC6\pdl\drivers\peripheral\i2s/cy_i2s.h **** 
 278:Generated_Source\PSoC6\pdl\drivers\peripheral\i2s/cy_i2s.h **** /**
 279:Generated_Source\PSoC6\pdl\drivers\peripheral\i2s/cy_i2s.h **** * I2S TX overhead value.
 280:Generated_Source\PSoC6\pdl\drivers\peripheral\i2s/cy_i2s.h **** */
 281:Generated_Source\PSoC6\pdl\drivers\peripheral\i2s/cy_i2s.h **** typedef enum
 282:Generated_Source\PSoC6\pdl\drivers\peripheral\i2s/cy_i2s.h **** {
 283:Generated_Source\PSoC6\pdl\drivers\peripheral\i2s/cy_i2s.h ****     CY_I2S_OVHDATA_ZERO = 0U, /**< Fill overhead bits by zeroes. */
 284:Generated_Source\PSoC6\pdl\drivers\peripheral\i2s/cy_i2s.h ****     CY_I2S_OVHDATA_ONE  = 1U, /**< Fill overhead bits by ones. */
 285:Generated_Source\PSoC6\pdl\drivers\peripheral\i2s/cy_i2s.h **** } cy_en_i2s_overhead_t;
 286:Generated_Source\PSoC6\pdl\drivers\peripheral\i2s/cy_i2s.h **** 
 287:Generated_Source\PSoC6\pdl\drivers\peripheral\i2s/cy_i2s.h **** /**
 288:Generated_Source\PSoC6\pdl\drivers\peripheral\i2s/cy_i2s.h **** * I2S WS pulse width.
 289:Generated_Source\PSoC6\pdl\drivers\peripheral\i2s/cy_i2s.h **** */
 290:Generated_Source\PSoC6\pdl\drivers\peripheral\i2s/cy_i2s.h **** typedef enum
 291:Generated_Source\PSoC6\pdl\drivers\peripheral\i2s/cy_i2s.h **** {
 292:Generated_Source\PSoC6\pdl\drivers\peripheral\i2s/cy_i2s.h ****     CY_I2S_WS_ONE_SCK_CYCLE      = 0U, /**< WS pulse width is one SCK cycle. */
 293:Generated_Source\PSoC6\pdl\drivers\peripheral\i2s/cy_i2s.h ****     CY_I2S_WS_ONE_CHANNEL_LENGTH = 1U, /**< WS pulse width is one channel length. */
 294:Generated_Source\PSoC6\pdl\drivers\peripheral\i2s/cy_i2s.h **** } cy_en_i2s_ws_pw_t;
 295:Generated_Source\PSoC6\pdl\drivers\peripheral\i2s/cy_i2s.h **** 
 296:Generated_Source\PSoC6\pdl\drivers\peripheral\i2s/cy_i2s.h **** /** \} group_i2s_enums */
 297:Generated_Source\PSoC6\pdl\drivers\peripheral\i2s/cy_i2s.h **** 
 298:Generated_Source\PSoC6\pdl\drivers\peripheral\i2s/cy_i2s.h **** /**
 299:Generated_Source\PSoC6\pdl\drivers\peripheral\i2s/cy_i2s.h **** * \addtogroup group_i2s_data_structures
 300:Generated_Source\PSoC6\pdl\drivers\peripheral\i2s/cy_i2s.h **** * \{
 301:Generated_Source\PSoC6\pdl\drivers\peripheral\i2s/cy_i2s.h **** */
 302:Generated_Source\PSoC6\pdl\drivers\peripheral\i2s/cy_i2s.h **** 
 303:Generated_Source\PSoC6\pdl\drivers\peripheral\i2s/cy_i2s.h **** /**
 304:Generated_Source\PSoC6\pdl\drivers\peripheral\i2s/cy_i2s.h **** * I2S initialization configuration.
 305:Generated_Source\PSoC6\pdl\drivers\peripheral\i2s/cy_i2s.h **** */
 306:Generated_Source\PSoC6\pdl\drivers\peripheral\i2s/cy_i2s.h **** typedef struct
 307:Generated_Source\PSoC6\pdl\drivers\peripheral\i2s/cy_i2s.h **** {
 308:Generated_Source\PSoC6\pdl\drivers\peripheral\i2s/cy_i2s.h ****     bool                  txEnabled;          /**< Enables the I2S TX component: 'false': disabled.
 309:Generated_Source\PSoC6\pdl\drivers\peripheral\i2s/cy_i2s.h ****     bool                  rxEnabled;          /**< Enables the I2S RX component: 'false': disabled.
 310:Generated_Source\PSoC6\pdl\drivers\peripheral\i2s/cy_i2s.h ****     bool                  txDmaTrigger;       /**< 'false': TX DMA trigger disabled, 'true': TX DMA
 311:Generated_Source\PSoC6\pdl\drivers\peripheral\i2s/cy_i2s.h ****     bool                  rxDmaTrigger;       /**< 'false': RX DMA trigger disabled, 'true': RX DMA
 312:Generated_Source\PSoC6\pdl\drivers\peripheral\i2s/cy_i2s.h ****     uint8_t               clkDiv;             /**< CLK_SEL divider: 1: Bypass, 2: 1/2, 3: 1/3, ...,
 313:Generated_Source\PSoC6\pdl\drivers\peripheral\i2s/cy_i2s.h ****     bool                  extClk;             /**< 'false': internal clock, 'true': external clock.
 314:Generated_Source\PSoC6\pdl\drivers\peripheral\i2s/cy_i2s.h ****     bool                  txMasterMode;       /**< 'false': TX in slave mode, 'true': TX in master 
 315:Generated_Source\PSoC6\pdl\drivers\peripheral\i2s/cy_i2s.h ****     cy_en_i2s_alignment_t txAlignment;        /**< TX data alignment, see: #cy_en_i2s_alignment_t. 
 316:Generated_Source\PSoC6\pdl\drivers\peripheral\i2s/cy_i2s.h ****     cy_en_i2s_ws_pw_t     txWsPulseWidth;     /**< TX Word Select pulse width.
 317:Generated_Source\PSoC6\pdl\drivers\peripheral\i2s/cy_i2s.h ****                                                    The value of this parameter is ignored in I2S an
 318:Generated_Source\PSoC6\pdl\drivers\peripheral\i2s/cy_i2s.h ****                                                    the WS pulse width is always "one channel length
 319:Generated_Source\PSoC6\pdl\drivers\peripheral\i2s/cy_i2s.h ****     bool                  txWatchdogEnable;   /**< 'false': TX watchdog disabled, 'true': TX watchd
 320:Generated_Source\PSoC6\pdl\drivers\peripheral\i2s/cy_i2s.h ****     uint32_t              txWatchdogValue;    /**< TX watchdog counter value (32 bit). */
 321:Generated_Source\PSoC6\pdl\drivers\peripheral\i2s/cy_i2s.h ****     bool                  txSdoLatchingTime;  /**< 'false': SDO bit starts at falling edge (accordi
ARM GAS  C:\Users\dev\AppData\Local\Temp\ccJYAN2E.s 			page 24


 322:Generated_Source\PSoC6\pdl\drivers\peripheral\i2s/cy_i2s.h ****                                                    Standard, if txSckoInversion is false),
 323:Generated_Source\PSoC6\pdl\drivers\peripheral\i2s/cy_i2s.h ****                                                    'true': SDO bit starts at rising edge which goes
 324:Generated_Source\PSoC6\pdl\drivers\peripheral\i2s/cy_i2s.h ****                                                    mentioned falling edge, i.e. the SDO signal is a
 325:Generated_Source\PSoC6\pdl\drivers\peripheral\i2s/cy_i2s.h ****                                                    period (if txSckoInversion is false).
 326:Generated_Source\PSoC6\pdl\drivers\peripheral\i2s/cy_i2s.h ****                                                    If txSckoInversion is true - the rising/falling 
 327:Generated_Source\PSoC6\pdl\drivers\peripheral\i2s/cy_i2s.h ****                                                    in above explanations.
 328:Generated_Source\PSoC6\pdl\drivers\peripheral\i2s/cy_i2s.h ****                                                    Effective only in slave mode, must be false in m
 329:Generated_Source\PSoC6\pdl\drivers\peripheral\i2s/cy_i2s.h ****     bool                  txSckoInversion;    /**< TX SCKO polarity:
 330:Generated_Source\PSoC6\pdl\drivers\peripheral\i2s/cy_i2s.h ****                                                    'false': When transmitter is in master mode, ser
 331:Generated_Source\PSoC6\pdl\drivers\peripheral\i2s/cy_i2s.h ****                                                             transmitted off the falling bit clock e
 332:Generated_Source\PSoC6\pdl\drivers\peripheral\i2s/cy_i2s.h ****                                                             the I2S Standard);
 333:Generated_Source\PSoC6\pdl\drivers\peripheral\i2s/cy_i2s.h ****                                                    'true':  When transmitter is in master mode, ser
 334:Generated_Source\PSoC6\pdl\drivers\peripheral\i2s/cy_i2s.h ****                                                             transmitted off the rising bit clock ed
 335:Generated_Source\PSoC6\pdl\drivers\peripheral\i2s/cy_i2s.h ****                                                    Effective only in master mode. */
 336:Generated_Source\PSoC6\pdl\drivers\peripheral\i2s/cy_i2s.h ****     bool                  txSckiInversion;    /**< TX SCKI polarity:
 337:Generated_Source\PSoC6\pdl\drivers\peripheral\i2s/cy_i2s.h ****                                                    'false': When transmitter is in slave mode, seri
 338:Generated_Source\PSoC6\pdl\drivers\peripheral\i2s/cy_i2s.h ****                                                             transmitted off the falling bit clock e
 339:Generated_Source\PSoC6\pdl\drivers\peripheral\i2s/cy_i2s.h ****                                                             the I2S Standard);
 340:Generated_Source\PSoC6\pdl\drivers\peripheral\i2s/cy_i2s.h ****                                                    'true':  When transmitter is in slave mode, seri
 341:Generated_Source\PSoC6\pdl\drivers\peripheral\i2s/cy_i2s.h ****                                                             transmitted off the rising bit clock ed
 342:Generated_Source\PSoC6\pdl\drivers\peripheral\i2s/cy_i2s.h ****                                                    Effective only in slave mode. */
 343:Generated_Source\PSoC6\pdl\drivers\peripheral\i2s/cy_i2s.h ****     uint8_t               txChannels;         /**< Number of TX channels, valid range is 1...8 for 
 344:Generated_Source\PSoC6\pdl\drivers\peripheral\i2s/cy_i2s.h ****                                                    In the I2S and Left Justified modes the value of
 345:Generated_Source\PSoC6\pdl\drivers\peripheral\i2s/cy_i2s.h ****                                                    ignored - the real number of channels is always 
 346:Generated_Source\PSoC6\pdl\drivers\peripheral\i2s/cy_i2s.h ****     cy_en_i2s_len_t       txChannelLength;    /**< TX channel length, see #cy_en_i2s_len_t,
 347:Generated_Source\PSoC6\pdl\drivers\peripheral\i2s/cy_i2s.h ****                                                    the value of this parameter is ignored in TDM mo
 348:Generated_Source\PSoC6\pdl\drivers\peripheral\i2s/cy_i2s.h ****                                                    channel length is 32 bit in these modes. */
 349:Generated_Source\PSoC6\pdl\drivers\peripheral\i2s/cy_i2s.h ****     cy_en_i2s_len_t       txWordLength;       /**< TX word length, see #cy_en_i2s_len_t,
 350:Generated_Source\PSoC6\pdl\drivers\peripheral\i2s/cy_i2s.h ****                                                    must be less or equal to txChannelLength. */
 351:Generated_Source\PSoC6\pdl\drivers\peripheral\i2s/cy_i2s.h ****     cy_en_i2s_overhead_t  txOverheadValue;    /**< TX overhead bits value
 352:Generated_Source\PSoC6\pdl\drivers\peripheral\i2s/cy_i2s.h ****                                                    when the word length is less than the channel le
 353:Generated_Source\PSoC6\pdl\drivers\peripheral\i2s/cy_i2s.h ****     uint8_t               txFifoTriggerLevel; /**< TX FIFO interrupt trigger level (0, 1, ..., 255)
 354:Generated_Source\PSoC6\pdl\drivers\peripheral\i2s/cy_i2s.h ****     bool                  rxMasterMode;       /**< 'false': RX in slave mode, 'true': RX in master 
 355:Generated_Source\PSoC6\pdl\drivers\peripheral\i2s/cy_i2s.h ****     cy_en_i2s_alignment_t rxAlignment;        /**< RX data alignment, see: #cy_en_i2s_alignment_t. 
 356:Generated_Source\PSoC6\pdl\drivers\peripheral\i2s/cy_i2s.h ****     cy_en_i2s_ws_pw_t     rxWsPulseWidth;     /**< RX Word Select pulse width.
 357:Generated_Source\PSoC6\pdl\drivers\peripheral\i2s/cy_i2s.h ****                                                    The value of this parameter is ignored in I2S an
 358:Generated_Source\PSoC6\pdl\drivers\peripheral\i2s/cy_i2s.h ****                                                    the WS pulse width is always "one channel length
 359:Generated_Source\PSoC6\pdl\drivers\peripheral\i2s/cy_i2s.h ****     bool                  rxWatchdogEnable;   /**< 'false': RX watchdog disabled, 'true': RX watchd
 360:Generated_Source\PSoC6\pdl\drivers\peripheral\i2s/cy_i2s.h ****     uint32_t              rxWatchdogValue;    /**< RX watchdog counter value (32 bit). */
 361:Generated_Source\PSoC6\pdl\drivers\peripheral\i2s/cy_i2s.h ****     bool                  rxSdiLatchingTime;  /**< 'false': SDI bit starts at falling edge (accordi
 362:Generated_Source\PSoC6\pdl\drivers\peripheral\i2s/cy_i2s.h ****                                                    Standard if rxSckoInversion is false),
 363:Generated_Source\PSoC6\pdl\drivers\peripheral\i2s/cy_i2s.h ****                                                    'true': SDI bit starts at rising edge that goes 
 364:Generated_Source\PSoC6\pdl\drivers\peripheral\i2s/cy_i2s.h ****                                                    mentioned falling edge, i.e. the SDI signal is d
 365:Generated_Source\PSoC6\pdl\drivers\peripheral\i2s/cy_i2s.h ****                                                    period (if rxSckoInversion is false).
 366:Generated_Source\PSoC6\pdl\drivers\peripheral\i2s/cy_i2s.h ****                                                    If rxSckoInversion is true - the rising/falling 
 367:Generated_Source\PSoC6\pdl\drivers\peripheral\i2s/cy_i2s.h ****                                                    in above explanations.
 368:Generated_Source\PSoC6\pdl\drivers\peripheral\i2s/cy_i2s.h ****                                                    Effective only in master mode, must be false in 
 369:Generated_Source\PSoC6\pdl\drivers\peripheral\i2s/cy_i2s.h ****     bool                  rxSckoInversion;    /**< RX SCKO polarity:
 370:Generated_Source\PSoC6\pdl\drivers\peripheral\i2s/cy_i2s.h ****                                                    'false': When receiver is in master mode, serial
 371:Generated_Source\PSoC6\pdl\drivers\peripheral\i2s/cy_i2s.h ****                                                             captured by the rising bit clock edge (
 372:Generated_Source\PSoC6\pdl\drivers\peripheral\i2s/cy_i2s.h ****                                                             I2S Standard);
 373:Generated_Source\PSoC6\pdl\drivers\peripheral\i2s/cy_i2s.h ****                                                    'true':  When receiver is in master mode, serial
 374:Generated_Source\PSoC6\pdl\drivers\peripheral\i2s/cy_i2s.h ****                                                             captured by the falling bit clock edge.
 375:Generated_Source\PSoC6\pdl\drivers\peripheral\i2s/cy_i2s.h ****                                                    Effective only in master mode. */
 376:Generated_Source\PSoC6\pdl\drivers\peripheral\i2s/cy_i2s.h ****     bool                  rxSckiInversion;    /**< RX SCKI polarity:
 377:Generated_Source\PSoC6\pdl\drivers\peripheral\i2s/cy_i2s.h ****                                                    'false': When receiver is in slave mode, serial 
 378:Generated_Source\PSoC6\pdl\drivers\peripheral\i2s/cy_i2s.h ****                                                             captured by the rising bit clock edge (
ARM GAS  C:\Users\dev\AppData\Local\Temp\ccJYAN2E.s 			page 25


 379:Generated_Source\PSoC6\pdl\drivers\peripheral\i2s/cy_i2s.h ****                                                             I2S Standard);
 380:Generated_Source\PSoC6\pdl\drivers\peripheral\i2s/cy_i2s.h ****                                                    'true':  When receiver is in slave mode, serial 
 381:Generated_Source\PSoC6\pdl\drivers\peripheral\i2s/cy_i2s.h ****                                                             captured by the falling bit clock edge.
 382:Generated_Source\PSoC6\pdl\drivers\peripheral\i2s/cy_i2s.h ****                                                    Effective only in slave mode. */
 383:Generated_Source\PSoC6\pdl\drivers\peripheral\i2s/cy_i2s.h ****     uint8_t               rxChannels;         /**< Number of RX channels, valid range is 1...8 for 
 384:Generated_Source\PSoC6\pdl\drivers\peripheral\i2s/cy_i2s.h ****                                                    In the I2S and Left Justified modes the value of
 385:Generated_Source\PSoC6\pdl\drivers\peripheral\i2s/cy_i2s.h ****                                                    ignored - the real number of channels is always 
 386:Generated_Source\PSoC6\pdl\drivers\peripheral\i2s/cy_i2s.h ****     cy_en_i2s_len_t       rxChannelLength;    /**< RX channel length, see #cy_en_i2s_len_t,
 387:Generated_Source\PSoC6\pdl\drivers\peripheral\i2s/cy_i2s.h ****                                                    the value of this parameter is ignored in TDM mo
 388:Generated_Source\PSoC6\pdl\drivers\peripheral\i2s/cy_i2s.h ****                                                    channel length is 32 bit in these modes. */
 389:Generated_Source\PSoC6\pdl\drivers\peripheral\i2s/cy_i2s.h ****     cy_en_i2s_len_t       rxWordLength;       /**< RX word length, see #cy_en_i2s_len_t,
 390:Generated_Source\PSoC6\pdl\drivers\peripheral\i2s/cy_i2s.h ****                                                    must be less or equal to rxChannelLength. */
 391:Generated_Source\PSoC6\pdl\drivers\peripheral\i2s/cy_i2s.h ****     bool                  rxSignExtension;    /**< RX value sign extension (when the word length is
 392:Generated_Source\PSoC6\pdl\drivers\peripheral\i2s/cy_i2s.h ****                                                    'false': all MSB are filled by zeroes, 
 393:Generated_Source\PSoC6\pdl\drivers\peripheral\i2s/cy_i2s.h ****                                                    'true': all MSB are filled by the original sign 
 394:Generated_Source\PSoC6\pdl\drivers\peripheral\i2s/cy_i2s.h ****     uint8_t               rxFifoTriggerLevel; /**< RX FIFO interrupt trigger level
 395:Generated_Source\PSoC6\pdl\drivers\peripheral\i2s/cy_i2s.h ****                                                    (0, 1, ..., (255 - (number of channels))). */
 396:Generated_Source\PSoC6\pdl\drivers\peripheral\i2s/cy_i2s.h **** } cy_stc_i2s_config_t;
 397:Generated_Source\PSoC6\pdl\drivers\peripheral\i2s/cy_i2s.h **** 
 398:Generated_Source\PSoC6\pdl\drivers\peripheral\i2s/cy_i2s.h **** 
 399:Generated_Source\PSoC6\pdl\drivers\peripheral\i2s/cy_i2s.h **** /**
 400:Generated_Source\PSoC6\pdl\drivers\peripheral\i2s/cy_i2s.h ****  * The I2S backup structure type to be used for the SysPm callback.
 401:Generated_Source\PSoC6\pdl\drivers\peripheral\i2s/cy_i2s.h ****  * \ref Cy_I2S_DeepSleepCallback context definition.
 402:Generated_Source\PSoC6\pdl\drivers\peripheral\i2s/cy_i2s.h ****  *
 403:Generated_Source\PSoC6\pdl\drivers\peripheral\i2s/cy_i2s.h ****  * \cond Also can be used for other purposes to store the current Tx/Rx
 404:Generated_Source\PSoC6\pdl\drivers\peripheral\i2s/cy_i2s.h ****  * operation state and interrupt settings - the factors that are usually
 405:Generated_Source\PSoC6\pdl\drivers\peripheral\i2s/cy_i2s.h ****  * changed on the fly. \endcond
 406:Generated_Source\PSoC6\pdl\drivers\peripheral\i2s/cy_i2s.h ****  */
 407:Generated_Source\PSoC6\pdl\drivers\peripheral\i2s/cy_i2s.h **** typedef struct
 408:Generated_Source\PSoC6\pdl\drivers\peripheral\i2s/cy_i2s.h **** {
 409:Generated_Source\PSoC6\pdl\drivers\peripheral\i2s/cy_i2s.h ****     uint32_t enableState;            /**< Stores the I2S state */
 410:Generated_Source\PSoC6\pdl\drivers\peripheral\i2s/cy_i2s.h ****     uint32_t interruptMask;          /**< Stores the I2S interrupt mask */
 411:Generated_Source\PSoC6\pdl\drivers\peripheral\i2s/cy_i2s.h **** } cy_stc_i2s_context_t;
 412:Generated_Source\PSoC6\pdl\drivers\peripheral\i2s/cy_i2s.h **** 
 413:Generated_Source\PSoC6\pdl\drivers\peripheral\i2s/cy_i2s.h **** /** \} group_i2s_data_structures */
 414:Generated_Source\PSoC6\pdl\drivers\peripheral\i2s/cy_i2s.h **** 
 415:Generated_Source\PSoC6\pdl\drivers\peripheral\i2s/cy_i2s.h **** /** \cond INTERNAL */
 416:Generated_Source\PSoC6\pdl\drivers\peripheral\i2s/cy_i2s.h **** /******************************************************************************
 417:Generated_Source\PSoC6\pdl\drivers\peripheral\i2s/cy_i2s.h ****  * Local definitions
 418:Generated_Source\PSoC6\pdl\drivers\peripheral\i2s/cy_i2s.h **** *******************************************************************************/
 419:Generated_Source\PSoC6\pdl\drivers\peripheral\i2s/cy_i2s.h **** 
 420:Generated_Source\PSoC6\pdl\drivers\peripheral\i2s/cy_i2s.h **** #define CY_I2S_INTR_MASK           (CY_I2S_INTR_TX_TRIGGER   | \
 421:Generated_Source\PSoC6\pdl\drivers\peripheral\i2s/cy_i2s.h ****                                     CY_I2S_INTR_TX_NOT_FULL  | \
 422:Generated_Source\PSoC6\pdl\drivers\peripheral\i2s/cy_i2s.h ****                                     CY_I2S_INTR_TX_EMPTY     | \
 423:Generated_Source\PSoC6\pdl\drivers\peripheral\i2s/cy_i2s.h ****                                     CY_I2S_INTR_TX_OVERFLOW  | \
 424:Generated_Source\PSoC6\pdl\drivers\peripheral\i2s/cy_i2s.h ****                                     CY_I2S_INTR_TX_UNDERFLOW | \
 425:Generated_Source\PSoC6\pdl\drivers\peripheral\i2s/cy_i2s.h ****                                     CY_I2S_INTR_TX_WD        | \
 426:Generated_Source\PSoC6\pdl\drivers\peripheral\i2s/cy_i2s.h ****                                     CY_I2S_INTR_RX_TRIGGER   | \
 427:Generated_Source\PSoC6\pdl\drivers\peripheral\i2s/cy_i2s.h ****                                     CY_I2S_INTR_RX_NOT_EMPTY | \
 428:Generated_Source\PSoC6\pdl\drivers\peripheral\i2s/cy_i2s.h ****                                     CY_I2S_INTR_RX_FULL      | \
 429:Generated_Source\PSoC6\pdl\drivers\peripheral\i2s/cy_i2s.h ****                                     CY_I2S_INTR_RX_OVERFLOW  | \
 430:Generated_Source\PSoC6\pdl\drivers\peripheral\i2s/cy_i2s.h ****                                     CY_I2S_INTR_RX_UNDERFLOW | \
 431:Generated_Source\PSoC6\pdl\drivers\peripheral\i2s/cy_i2s.h ****                                     CY_I2S_INTR_RX_WD)
 432:Generated_Source\PSoC6\pdl\drivers\peripheral\i2s/cy_i2s.h **** 
 433:Generated_Source\PSoC6\pdl\drivers\peripheral\i2s/cy_i2s.h **** /* Non-zero default values */
 434:Generated_Source\PSoC6\pdl\drivers\peripheral\i2s/cy_i2s.h **** #define CY_I2S_TX_CTL_CH_NR_DEFAULT    (0x1U)
 435:Generated_Source\PSoC6\pdl\drivers\peripheral\i2s/cy_i2s.h **** #define CY_I2S_TX_CTL_I2S_MODE_DEFAULT (0x2U)
ARM GAS  C:\Users\dev\AppData\Local\Temp\ccJYAN2E.s 			page 26


 436:Generated_Source\PSoC6\pdl\drivers\peripheral\i2s/cy_i2s.h **** #define CY_I2S_TX_CTL_WS_PULSE_DEFAULT (0x1U)
 437:Generated_Source\PSoC6\pdl\drivers\peripheral\i2s/cy_i2s.h **** #define CY_I2S_TX_CTL_CH_LEN_DEFAULT   (0x4U)
 438:Generated_Source\PSoC6\pdl\drivers\peripheral\i2s/cy_i2s.h **** #define CY_I2S_TX_CTL_WORD_LEN_DEFAULT (0x4U)
 439:Generated_Source\PSoC6\pdl\drivers\peripheral\i2s/cy_i2s.h **** 
 440:Generated_Source\PSoC6\pdl\drivers\peripheral\i2s/cy_i2s.h **** #define CY_I2S_TX_CTL_DEFAULT (_VAL2FLD(I2S_TX_CTL_CH_NR,    CY_I2S_TX_CTL_CH_NR_DEFAULT)    | \
 441:Generated_Source\PSoC6\pdl\drivers\peripheral\i2s/cy_i2s.h ****                                _VAL2FLD(I2S_TX_CTL_I2S_MODE, CY_I2S_TX_CTL_I2S_MODE_DEFAULT) | \
 442:Generated_Source\PSoC6\pdl\drivers\peripheral\i2s/cy_i2s.h ****                                _VAL2FLD(I2S_TX_CTL_WS_PULSE, CY_I2S_TX_CTL_WS_PULSE_DEFAULT) | \
 443:Generated_Source\PSoC6\pdl\drivers\peripheral\i2s/cy_i2s.h ****                                _VAL2FLD(I2S_TX_CTL_CH_LEN,   CY_I2S_TX_CTL_CH_LEN_DEFAULT)   | \
 444:Generated_Source\PSoC6\pdl\drivers\peripheral\i2s/cy_i2s.h ****                                _VAL2FLD(I2S_TX_CTL_WORD_LEN, CY_I2S_TX_CTL_WORD_LEN_DEFAULT))
 445:Generated_Source\PSoC6\pdl\drivers\peripheral\i2s/cy_i2s.h **** 
 446:Generated_Source\PSoC6\pdl\drivers\peripheral\i2s/cy_i2s.h **** #define CY_I2S_RX_CTL_CH_NR_DEFAULT    (0x1U)
 447:Generated_Source\PSoC6\pdl\drivers\peripheral\i2s/cy_i2s.h **** #define CY_I2S_RX_CTL_I2S_MODE_DEFAULT (0x2U)
 448:Generated_Source\PSoC6\pdl\drivers\peripheral\i2s/cy_i2s.h **** #define CY_I2S_RX_CTL_WS_PULSE_DEFAULT (0x1U)
 449:Generated_Source\PSoC6\pdl\drivers\peripheral\i2s/cy_i2s.h **** #define CY_I2S_RX_CTL_CH_LEN_DEFAULT   (0x4U)
 450:Generated_Source\PSoC6\pdl\drivers\peripheral\i2s/cy_i2s.h **** #define CY_I2S_RX_CTL_WORD_LEN_DEFAULT (0x4U)
 451:Generated_Source\PSoC6\pdl\drivers\peripheral\i2s/cy_i2s.h **** 
 452:Generated_Source\PSoC6\pdl\drivers\peripheral\i2s/cy_i2s.h **** #define CY_I2S_RX_CTL_DEFAULT (_VAL2FLD(I2S_RX_CTL_CH_NR,    CY_I2S_RX_CTL_CH_NR_DEFAULT)    | \
 453:Generated_Source\PSoC6\pdl\drivers\peripheral\i2s/cy_i2s.h ****                                _VAL2FLD(I2S_RX_CTL_I2S_MODE, CY_I2S_RX_CTL_I2S_MODE_DEFAULT) | \
 454:Generated_Source\PSoC6\pdl\drivers\peripheral\i2s/cy_i2s.h ****                                _VAL2FLD(I2S_RX_CTL_WS_PULSE, CY_I2S_RX_CTL_WS_PULSE_DEFAULT) | \
 455:Generated_Source\PSoC6\pdl\drivers\peripheral\i2s/cy_i2s.h ****                                _VAL2FLD(I2S_RX_CTL_CH_LEN,   CY_I2S_RX_CTL_CH_LEN_DEFAULT)   | \
 456:Generated_Source\PSoC6\pdl\drivers\peripheral\i2s/cy_i2s.h ****                                _VAL2FLD(I2S_RX_CTL_WORD_LEN, CY_I2S_RX_CTL_WORD_LEN_DEFAULT))
 457:Generated_Source\PSoC6\pdl\drivers\peripheral\i2s/cy_i2s.h **** 
 458:Generated_Source\PSoC6\pdl\drivers\peripheral\i2s/cy_i2s.h **** /* Macros for conditions used by CY_ASSERT calls */
 459:Generated_Source\PSoC6\pdl\drivers\peripheral\i2s/cy_i2s.h **** #define CY_I2S_IS_ALIGNMENT_VALID(alignment) ((CY_I2S_LEFT_JUSTIFIED == (alignment)) || \
 460:Generated_Source\PSoC6\pdl\drivers\peripheral\i2s/cy_i2s.h ****                                               (CY_I2S_I2S_MODE       == (alignment)) || \
 461:Generated_Source\PSoC6\pdl\drivers\peripheral\i2s/cy_i2s.h ****                                               (CY_I2S_TDM_MODE_A     == (alignment)) || \
 462:Generated_Source\PSoC6\pdl\drivers\peripheral\i2s/cy_i2s.h ****                                               (CY_I2S_TDM_MODE_B     == (alignment)))
 463:Generated_Source\PSoC6\pdl\drivers\peripheral\i2s/cy_i2s.h **** 
 464:Generated_Source\PSoC6\pdl\drivers\peripheral\i2s/cy_i2s.h **** #define CY_I2S_IS_LEN_VALID(length)          ((CY_I2S_LEN8  == (length)) || \
 465:Generated_Source\PSoC6\pdl\drivers\peripheral\i2s/cy_i2s.h ****                                               (CY_I2S_LEN16 == (length)) || \
 466:Generated_Source\PSoC6\pdl\drivers\peripheral\i2s/cy_i2s.h ****                                               (CY_I2S_LEN18 == (length)) || \
 467:Generated_Source\PSoC6\pdl\drivers\peripheral\i2s/cy_i2s.h ****                                               (CY_I2S_LEN20 == (length)) || \
 468:Generated_Source\PSoC6\pdl\drivers\peripheral\i2s/cy_i2s.h ****                                               (CY_I2S_LEN24 == (length)) || \
 469:Generated_Source\PSoC6\pdl\drivers\peripheral\i2s/cy_i2s.h ****                                               (CY_I2S_LEN32 == (length)))
 470:Generated_Source\PSoC6\pdl\drivers\peripheral\i2s/cy_i2s.h **** 
 471:Generated_Source\PSoC6\pdl\drivers\peripheral\i2s/cy_i2s.h **** #define CY_I2S_IS_OVHDATA_VALID(overhead)    ((CY_I2S_OVHDATA_ZERO == (overhead)) || \
 472:Generated_Source\PSoC6\pdl\drivers\peripheral\i2s/cy_i2s.h ****                                               (CY_I2S_OVHDATA_ONE  == (overhead)))
 473:Generated_Source\PSoC6\pdl\drivers\peripheral\i2s/cy_i2s.h **** 
 474:Generated_Source\PSoC6\pdl\drivers\peripheral\i2s/cy_i2s.h **** #define CY_I2S_IS_WSPULSE_VALID(wsPulse)     ((CY_I2S_WS_ONE_SCK_CYCLE      == (wsPulse)) || \
 475:Generated_Source\PSoC6\pdl\drivers\peripheral\i2s/cy_i2s.h ****                                               (CY_I2S_WS_ONE_CHANNEL_LENGTH == (wsPulse)))
 476:Generated_Source\PSoC6\pdl\drivers\peripheral\i2s/cy_i2s.h **** 
 477:Generated_Source\PSoC6\pdl\drivers\peripheral\i2s/cy_i2s.h **** #define CY_I2S_IS_CLK_DIV_VALID(clkDiv)      ((clkDiv) <= 63U)
 478:Generated_Source\PSoC6\pdl\drivers\peripheral\i2s/cy_i2s.h **** #define CY_I2S_IS_CHANNELS_VALID(channels)   ((channels) <= 7UL)
 479:Generated_Source\PSoC6\pdl\drivers\peripheral\i2s/cy_i2s.h **** #define CY_I2S_IS_INTR_MASK_VALID(interrupt) (0UL == ((interrupt) & ((uint32_t) ~CY_I2S_INTR_MASK))
 480:Generated_Source\PSoC6\pdl\drivers\peripheral\i2s/cy_i2s.h **** 
 481:Generated_Source\PSoC6\pdl\drivers\peripheral\i2s/cy_i2s.h **** #define CY_I2S_IS_CHAN_WORD_VALID(channel, word)        ((CY_I2S_IS_LEN_VALID(channel)) && \
 482:Generated_Source\PSoC6\pdl\drivers\peripheral\i2s/cy_i2s.h ****                                                          (CY_I2S_IS_LEN_VALID(word))    && \
 483:Generated_Source\PSoC6\pdl\drivers\peripheral\i2s/cy_i2s.h ****                                                          ((channel) >= (word)))
 484:Generated_Source\PSoC6\pdl\drivers\peripheral\i2s/cy_i2s.h **** #define CY_I2S_IS_TRIG_LEVEL_VALID(trigLevel, channels) ((trigLevel) <= (255U - (channels)))
 485:Generated_Source\PSoC6\pdl\drivers\peripheral\i2s/cy_i2s.h **** 
 486:Generated_Source\PSoC6\pdl\drivers\peripheral\i2s/cy_i2s.h **** /** \endcond */
 487:Generated_Source\PSoC6\pdl\drivers\peripheral\i2s/cy_i2s.h **** 
 488:Generated_Source\PSoC6\pdl\drivers\peripheral\i2s/cy_i2s.h **** 
 489:Generated_Source\PSoC6\pdl\drivers\peripheral\i2s/cy_i2s.h **** /**
 490:Generated_Source\PSoC6\pdl\drivers\peripheral\i2s/cy_i2s.h **** * \addtogroup group_i2s_functions
 491:Generated_Source\PSoC6\pdl\drivers\peripheral\i2s/cy_i2s.h **** * \{
 492:Generated_Source\PSoC6\pdl\drivers\peripheral\i2s/cy_i2s.h **** */
ARM GAS  C:\Users\dev\AppData\Local\Temp\ccJYAN2E.s 			page 27


 493:Generated_Source\PSoC6\pdl\drivers\peripheral\i2s/cy_i2s.h **** 
 494:Generated_Source\PSoC6\pdl\drivers\peripheral\i2s/cy_i2s.h ****   cy_en_i2s_status_t     Cy_I2S_Init(I2S_Type * base, cy_stc_i2s_config_t const * config);
 495:Generated_Source\PSoC6\pdl\drivers\peripheral\i2s/cy_i2s.h ****                 void     Cy_I2S_DeInit(I2S_Type * base);
 496:Generated_Source\PSoC6\pdl\drivers\peripheral\i2s/cy_i2s.h ****                 
 497:Generated_Source\PSoC6\pdl\drivers\peripheral\i2s/cy_i2s.h **** /** \addtogroup group_i2s_functions_syspm_callback
 498:Generated_Source\PSoC6\pdl\drivers\peripheral\i2s/cy_i2s.h **** * The driver supports SysPm callback for Deep Sleep transition.
 499:Generated_Source\PSoC6\pdl\drivers\peripheral\i2s/cy_i2s.h **** * \{
 500:Generated_Source\PSoC6\pdl\drivers\peripheral\i2s/cy_i2s.h **** */
 501:Generated_Source\PSoC6\pdl\drivers\peripheral\i2s/cy_i2s.h **** cy_en_syspm_status_t     Cy_I2S_DeepSleepCallback(cy_stc_syspm_callback_params_t * callbackParams, 
 502:Generated_Source\PSoC6\pdl\drivers\peripheral\i2s/cy_i2s.h **** /** \} */
 503:Generated_Source\PSoC6\pdl\drivers\peripheral\i2s/cy_i2s.h **** 
 504:Generated_Source\PSoC6\pdl\drivers\peripheral\i2s/cy_i2s.h **** __STATIC_INLINE void     Cy_I2S_EnableTx(I2S_Type * base);
 505:Generated_Source\PSoC6\pdl\drivers\peripheral\i2s/cy_i2s.h **** __STATIC_INLINE void     Cy_I2S_PauseTx(I2S_Type * base);
 506:Generated_Source\PSoC6\pdl\drivers\peripheral\i2s/cy_i2s.h **** __STATIC_INLINE void     Cy_I2S_ResumeTx(I2S_Type * base);
 507:Generated_Source\PSoC6\pdl\drivers\peripheral\i2s/cy_i2s.h **** __STATIC_INLINE void     Cy_I2S_DisableTx(I2S_Type * base);
 508:Generated_Source\PSoC6\pdl\drivers\peripheral\i2s/cy_i2s.h **** __STATIC_INLINE void     Cy_I2S_EnableRx(I2S_Type * base);
 509:Generated_Source\PSoC6\pdl\drivers\peripheral\i2s/cy_i2s.h **** __STATIC_INLINE void     Cy_I2S_DisableRx(I2S_Type * base);
 510:Generated_Source\PSoC6\pdl\drivers\peripheral\i2s/cy_i2s.h **** __STATIC_INLINE uint32_t Cy_I2S_GetCurrentState(I2S_Type const * base);
 511:Generated_Source\PSoC6\pdl\drivers\peripheral\i2s/cy_i2s.h **** 
 512:Generated_Source\PSoC6\pdl\drivers\peripheral\i2s/cy_i2s.h **** __STATIC_INLINE void     Cy_I2S_ClearTxFifo(I2S_Type * base);
 513:Generated_Source\PSoC6\pdl\drivers\peripheral\i2s/cy_i2s.h **** __STATIC_INLINE uint32_t Cy_I2S_GetNumInTxFifo(I2S_Type const * base);
 514:Generated_Source\PSoC6\pdl\drivers\peripheral\i2s/cy_i2s.h **** __STATIC_INLINE void     Cy_I2S_WriteTxData(I2S_Type * base, uint32_t data);
 515:Generated_Source\PSoC6\pdl\drivers\peripheral\i2s/cy_i2s.h **** __STATIC_INLINE uint8_t  Cy_I2S_GetTxReadPointer(I2S_Type const * base);
 516:Generated_Source\PSoC6\pdl\drivers\peripheral\i2s/cy_i2s.h **** __STATIC_INLINE uint8_t  Cy_I2S_GetTxWritePointer(I2S_Type const * base);
 517:Generated_Source\PSoC6\pdl\drivers\peripheral\i2s/cy_i2s.h **** __STATIC_INLINE void     Cy_I2S_FreezeTxFifo(I2S_Type * base);
 518:Generated_Source\PSoC6\pdl\drivers\peripheral\i2s/cy_i2s.h **** __STATIC_INLINE void     Cy_I2S_UnfreezeTxFifo(I2S_Type * base);
 519:Generated_Source\PSoC6\pdl\drivers\peripheral\i2s/cy_i2s.h **** 
 520:Generated_Source\PSoC6\pdl\drivers\peripheral\i2s/cy_i2s.h **** __STATIC_INLINE void     Cy_I2S_ClearRxFifo(I2S_Type * base);
 521:Generated_Source\PSoC6\pdl\drivers\peripheral\i2s/cy_i2s.h **** __STATIC_INLINE uint32_t Cy_I2S_GetNumInRxFifo(I2S_Type const * base);
 522:Generated_Source\PSoC6\pdl\drivers\peripheral\i2s/cy_i2s.h **** __STATIC_INLINE uint32_t Cy_I2S_ReadRxData(I2S_Type const * base);
 523:Generated_Source\PSoC6\pdl\drivers\peripheral\i2s/cy_i2s.h **** __STATIC_INLINE uint32_t Cy_I2S_ReadRxDataSilent(I2S_Type const * base);
 524:Generated_Source\PSoC6\pdl\drivers\peripheral\i2s/cy_i2s.h **** __STATIC_INLINE uint8_t  Cy_I2S_GetRxReadPointer(I2S_Type const * base);
 525:Generated_Source\PSoC6\pdl\drivers\peripheral\i2s/cy_i2s.h **** __STATIC_INLINE uint8_t  Cy_I2S_GetRxWritePointer(I2S_Type const * base);
 526:Generated_Source\PSoC6\pdl\drivers\peripheral\i2s/cy_i2s.h **** __STATIC_INLINE void     Cy_I2S_FreezeRxFifo(I2S_Type * base);
 527:Generated_Source\PSoC6\pdl\drivers\peripheral\i2s/cy_i2s.h **** __STATIC_INLINE void     Cy_I2S_UnfreezeRxFifo(I2S_Type * base);
 528:Generated_Source\PSoC6\pdl\drivers\peripheral\i2s/cy_i2s.h **** 
 529:Generated_Source\PSoC6\pdl\drivers\peripheral\i2s/cy_i2s.h **** __STATIC_INLINE uint32_t Cy_I2S_GetInterruptStatus(I2S_Type const * base);
 530:Generated_Source\PSoC6\pdl\drivers\peripheral\i2s/cy_i2s.h **** __STATIC_INLINE void     Cy_I2S_ClearInterrupt(I2S_Type * base, uint32_t interrupt);
 531:Generated_Source\PSoC6\pdl\drivers\peripheral\i2s/cy_i2s.h **** __STATIC_INLINE void     Cy_I2S_SetInterrupt(I2S_Type * base, uint32_t interrupt);
 532:Generated_Source\PSoC6\pdl\drivers\peripheral\i2s/cy_i2s.h **** __STATIC_INLINE uint32_t Cy_I2S_GetInterruptMask(I2S_Type const * base);
 533:Generated_Source\PSoC6\pdl\drivers\peripheral\i2s/cy_i2s.h **** __STATIC_INLINE void     Cy_I2S_SetInterruptMask(I2S_Type * base, uint32_t interrupt);
 534:Generated_Source\PSoC6\pdl\drivers\peripheral\i2s/cy_i2s.h **** __STATIC_INLINE uint32_t Cy_I2S_GetInterruptStatusMasked(I2S_Type const * base);
 535:Generated_Source\PSoC6\pdl\drivers\peripheral\i2s/cy_i2s.h **** 
 536:Generated_Source\PSoC6\pdl\drivers\peripheral\i2s/cy_i2s.h **** /*******************************************************************************
 537:Generated_Source\PSoC6\pdl\drivers\peripheral\i2s/cy_i2s.h **** * Function Name: Cy_I2S_EnableTx
 538:Generated_Source\PSoC6\pdl\drivers\peripheral\i2s/cy_i2s.h **** ****************************************************************************//**
 539:Generated_Source\PSoC6\pdl\drivers\peripheral\i2s/cy_i2s.h **** *
 540:Generated_Source\PSoC6\pdl\drivers\peripheral\i2s/cy_i2s.h **** * Starts an I2S transmission. Interrupt enabling (by the 
 541:Generated_Source\PSoC6\pdl\drivers\peripheral\i2s/cy_i2s.h **** * \ref Cy_I2S_SetInterruptMask) is required after this function call, in case
 542:Generated_Source\PSoC6\pdl\drivers\peripheral\i2s/cy_i2s.h **** * if any I2S interrupts are used in the application.
 543:Generated_Source\PSoC6\pdl\drivers\peripheral\i2s/cy_i2s.h **** *
 544:Generated_Source\PSoC6\pdl\drivers\peripheral\i2s/cy_i2s.h **** * \pre Cy_I2S_Init() must be called before.
 545:Generated_Source\PSoC6\pdl\drivers\peripheral\i2s/cy_i2s.h **** *
 546:Generated_Source\PSoC6\pdl\drivers\peripheral\i2s/cy_i2s.h **** * \param base The pointer to the I2S instance address.
 547:Generated_Source\PSoC6\pdl\drivers\peripheral\i2s/cy_i2s.h **** *
 548:Generated_Source\PSoC6\pdl\drivers\peripheral\i2s/cy_i2s.h **** * \funcusage
 549:Generated_Source\PSoC6\pdl\drivers\peripheral\i2s/cy_i2s.h **** * \snippet i2s\2.10\snippet\main.c snippet_Cy_I2S_EnableTx
ARM GAS  C:\Users\dev\AppData\Local\Temp\ccJYAN2E.s 			page 28


 550:Generated_Source\PSoC6\pdl\drivers\peripheral\i2s/cy_i2s.h **** *
 551:Generated_Source\PSoC6\pdl\drivers\peripheral\i2s/cy_i2s.h **** *******************************************************************************/
 552:Generated_Source\PSoC6\pdl\drivers\peripheral\i2s/cy_i2s.h **** __STATIC_INLINE void Cy_I2S_EnableTx(I2S_Type * base)
 553:Generated_Source\PSoC6\pdl\drivers\peripheral\i2s/cy_i2s.h **** {
 554:Generated_Source\PSoC6\pdl\drivers\peripheral\i2s/cy_i2s.h ****     REG_I2S_CMD(base) |= I2S_CMD_TX_START_Msk;
 555:Generated_Source\PSoC6\pdl\drivers\peripheral\i2s/cy_i2s.h **** }
 556:Generated_Source\PSoC6\pdl\drivers\peripheral\i2s/cy_i2s.h **** 
 557:Generated_Source\PSoC6\pdl\drivers\peripheral\i2s/cy_i2s.h **** 
 558:Generated_Source\PSoC6\pdl\drivers\peripheral\i2s/cy_i2s.h **** /*******************************************************************************
 559:Generated_Source\PSoC6\pdl\drivers\peripheral\i2s/cy_i2s.h **** * Function Name: Cy_I2S_PauseTx
 560:Generated_Source\PSoC6\pdl\drivers\peripheral\i2s/cy_i2s.h **** ****************************************************************************//**
 561:Generated_Source\PSoC6\pdl\drivers\peripheral\i2s/cy_i2s.h **** *
 562:Generated_Source\PSoC6\pdl\drivers\peripheral\i2s/cy_i2s.h **** * Pauses an I2S transmission.
 563:Generated_Source\PSoC6\pdl\drivers\peripheral\i2s/cy_i2s.h **** *
 564:Generated_Source\PSoC6\pdl\drivers\peripheral\i2s/cy_i2s.h **** * \param base The pointer to the I2S instance address.
 565:Generated_Source\PSoC6\pdl\drivers\peripheral\i2s/cy_i2s.h **** *
 566:Generated_Source\PSoC6\pdl\drivers\peripheral\i2s/cy_i2s.h **** * \funcusage
 567:Generated_Source\PSoC6\pdl\drivers\peripheral\i2s/cy_i2s.h **** * \snippet i2s\2.10\snippet\main.c snippet_Cy_I2S_PauseTx
 568:Generated_Source\PSoC6\pdl\drivers\peripheral\i2s/cy_i2s.h **** *
 569:Generated_Source\PSoC6\pdl\drivers\peripheral\i2s/cy_i2s.h **** *******************************************************************************/
 570:Generated_Source\PSoC6\pdl\drivers\peripheral\i2s/cy_i2s.h **** __STATIC_INLINE void Cy_I2S_PauseTx(I2S_Type * base)
 571:Generated_Source\PSoC6\pdl\drivers\peripheral\i2s/cy_i2s.h **** {
 572:Generated_Source\PSoC6\pdl\drivers\peripheral\i2s/cy_i2s.h ****     REG_I2S_CMD(base) |= I2S_CMD_TX_PAUSE_Msk;
 573:Generated_Source\PSoC6\pdl\drivers\peripheral\i2s/cy_i2s.h **** }
 574:Generated_Source\PSoC6\pdl\drivers\peripheral\i2s/cy_i2s.h **** 
 575:Generated_Source\PSoC6\pdl\drivers\peripheral\i2s/cy_i2s.h **** 
 576:Generated_Source\PSoC6\pdl\drivers\peripheral\i2s/cy_i2s.h **** /*******************************************************************************
 577:Generated_Source\PSoC6\pdl\drivers\peripheral\i2s/cy_i2s.h **** * Function Name: Cy_I2S_ResumeTx
 578:Generated_Source\PSoC6\pdl\drivers\peripheral\i2s/cy_i2s.h **** ****************************************************************************//**
 579:Generated_Source\PSoC6\pdl\drivers\peripheral\i2s/cy_i2s.h **** *
 580:Generated_Source\PSoC6\pdl\drivers\peripheral\i2s/cy_i2s.h **** * Resumes an I2S transmission.
 581:Generated_Source\PSoC6\pdl\drivers\peripheral\i2s/cy_i2s.h **** *
 582:Generated_Source\PSoC6\pdl\drivers\peripheral\i2s/cy_i2s.h **** * \param base The pointer to the I2S instance address.
 583:Generated_Source\PSoC6\pdl\drivers\peripheral\i2s/cy_i2s.h **** *
 584:Generated_Source\PSoC6\pdl\drivers\peripheral\i2s/cy_i2s.h **** * \funcusage
 585:Generated_Source\PSoC6\pdl\drivers\peripheral\i2s/cy_i2s.h **** * \snippet i2s\2.10\snippet\main.c snippet_Cy_I2S_ResumeTx
 586:Generated_Source\PSoC6\pdl\drivers\peripheral\i2s/cy_i2s.h **** *
 587:Generated_Source\PSoC6\pdl\drivers\peripheral\i2s/cy_i2s.h **** *******************************************************************************/
 588:Generated_Source\PSoC6\pdl\drivers\peripheral\i2s/cy_i2s.h **** __STATIC_INLINE void Cy_I2S_ResumeTx(I2S_Type * base)
 589:Generated_Source\PSoC6\pdl\drivers\peripheral\i2s/cy_i2s.h **** {
 590:Generated_Source\PSoC6\pdl\drivers\peripheral\i2s/cy_i2s.h ****     REG_I2S_CMD(base) &= (uint32_t) ~I2S_CMD_TX_PAUSE_Msk;
 591:Generated_Source\PSoC6\pdl\drivers\peripheral\i2s/cy_i2s.h **** }
 592:Generated_Source\PSoC6\pdl\drivers\peripheral\i2s/cy_i2s.h **** 
 593:Generated_Source\PSoC6\pdl\drivers\peripheral\i2s/cy_i2s.h **** 
 594:Generated_Source\PSoC6\pdl\drivers\peripheral\i2s/cy_i2s.h **** /*******************************************************************************
 595:Generated_Source\PSoC6\pdl\drivers\peripheral\i2s/cy_i2s.h **** * Function Name: Cy_I2S_DisableTx
 596:Generated_Source\PSoC6\pdl\drivers\peripheral\i2s/cy_i2s.h **** ****************************************************************************//**
 597:Generated_Source\PSoC6\pdl\drivers\peripheral\i2s/cy_i2s.h **** *
 598:Generated_Source\PSoC6\pdl\drivers\peripheral\i2s/cy_i2s.h **** * Stops an I2S transmission. 
 599:Generated_Source\PSoC6\pdl\drivers\peripheral\i2s/cy_i2s.h **** *
 600:Generated_Source\PSoC6\pdl\drivers\peripheral\i2s/cy_i2s.h **** * \pre TX interrupt disabling (by the \ref Cy_I2S_SetInterruptMask) is required
 601:Generated_Source\PSoC6\pdl\drivers\peripheral\i2s/cy_i2s.h **** * prior to this function call, in case any TX I2S interrupts are used.
 602:Generated_Source\PSoC6\pdl\drivers\peripheral\i2s/cy_i2s.h **** *
 603:Generated_Source\PSoC6\pdl\drivers\peripheral\i2s/cy_i2s.h **** * \param base The pointer to the I2S instance address.
 604:Generated_Source\PSoC6\pdl\drivers\peripheral\i2s/cy_i2s.h **** *
 605:Generated_Source\PSoC6\pdl\drivers\peripheral\i2s/cy_i2s.h **** * \funcusage
 606:Generated_Source\PSoC6\pdl\drivers\peripheral\i2s/cy_i2s.h **** * \snippet i2s\2.10\snippet\main.c snippet_Cy_I2S_DisableTx
ARM GAS  C:\Users\dev\AppData\Local\Temp\ccJYAN2E.s 			page 29


 607:Generated_Source\PSoC6\pdl\drivers\peripheral\i2s/cy_i2s.h **** *
 608:Generated_Source\PSoC6\pdl\drivers\peripheral\i2s/cy_i2s.h **** *******************************************************************************/
 609:Generated_Source\PSoC6\pdl\drivers\peripheral\i2s/cy_i2s.h **** __STATIC_INLINE void Cy_I2S_DisableTx(I2S_Type * base)
 610:Generated_Source\PSoC6\pdl\drivers\peripheral\i2s/cy_i2s.h **** {
 611:Generated_Source\PSoC6\pdl\drivers\peripheral\i2s/cy_i2s.h ****     REG_I2S_CMD(base) &= (uint32_t) ~I2S_CMD_TX_START_Msk;
 612:Generated_Source\PSoC6\pdl\drivers\peripheral\i2s/cy_i2s.h **** }
 613:Generated_Source\PSoC6\pdl\drivers\peripheral\i2s/cy_i2s.h **** 
 614:Generated_Source\PSoC6\pdl\drivers\peripheral\i2s/cy_i2s.h **** 
 615:Generated_Source\PSoC6\pdl\drivers\peripheral\i2s/cy_i2s.h **** /*******************************************************************************
 616:Generated_Source\PSoC6\pdl\drivers\peripheral\i2s/cy_i2s.h **** * Function Name: Cy_I2S_EnableRx
 617:Generated_Source\PSoC6\pdl\drivers\peripheral\i2s/cy_i2s.h **** ****************************************************************************//**
 618:Generated_Source\PSoC6\pdl\drivers\peripheral\i2s/cy_i2s.h **** *
 619:Generated_Source\PSoC6\pdl\drivers\peripheral\i2s/cy_i2s.h **** * Starts an I2S reception. Interrupt enabling (by the 
 620:Generated_Source\PSoC6\pdl\drivers\peripheral\i2s/cy_i2s.h **** * \ref Cy_I2S_SetInterruptMask) is required after this function call, in case
 621:Generated_Source\PSoC6\pdl\drivers\peripheral\i2s/cy_i2s.h **** * any I2S interrupts are used in the application.
 622:Generated_Source\PSoC6\pdl\drivers\peripheral\i2s/cy_i2s.h **** *
 623:Generated_Source\PSoC6\pdl\drivers\peripheral\i2s/cy_i2s.h **** * \pre \ref Cy_I2S_Init() must be called before.
 624:Generated_Source\PSoC6\pdl\drivers\peripheral\i2s/cy_i2s.h **** *
 625:Generated_Source\PSoC6\pdl\drivers\peripheral\i2s/cy_i2s.h **** * \param base The pointer to the I2S instance address.
 626:Generated_Source\PSoC6\pdl\drivers\peripheral\i2s/cy_i2s.h **** *
 627:Generated_Source\PSoC6\pdl\drivers\peripheral\i2s/cy_i2s.h **** * \funcusage
 628:Generated_Source\PSoC6\pdl\drivers\peripheral\i2s/cy_i2s.h **** * \snippet i2s\2.10\snippet\main.c snippet_Cy_I2S_EnableRx
 629:Generated_Source\PSoC6\pdl\drivers\peripheral\i2s/cy_i2s.h **** *
 630:Generated_Source\PSoC6\pdl\drivers\peripheral\i2s/cy_i2s.h **** *******************************************************************************/
 631:Generated_Source\PSoC6\pdl\drivers\peripheral\i2s/cy_i2s.h **** __STATIC_INLINE void Cy_I2S_EnableRx(I2S_Type * base)
 632:Generated_Source\PSoC6\pdl\drivers\peripheral\i2s/cy_i2s.h **** {
 633:Generated_Source\PSoC6\pdl\drivers\peripheral\i2s/cy_i2s.h ****     REG_I2S_CMD(base) |= I2S_CMD_RX_START_Msk;
 634:Generated_Source\PSoC6\pdl\drivers\peripheral\i2s/cy_i2s.h **** }
 635:Generated_Source\PSoC6\pdl\drivers\peripheral\i2s/cy_i2s.h **** 
 636:Generated_Source\PSoC6\pdl\drivers\peripheral\i2s/cy_i2s.h **** 
 637:Generated_Source\PSoC6\pdl\drivers\peripheral\i2s/cy_i2s.h **** /*******************************************************************************
 638:Generated_Source\PSoC6\pdl\drivers\peripheral\i2s/cy_i2s.h **** * Function Name: Cy_I2S_DisableRx
 639:Generated_Source\PSoC6\pdl\drivers\peripheral\i2s/cy_i2s.h **** ****************************************************************************//**
 640:Generated_Source\PSoC6\pdl\drivers\peripheral\i2s/cy_i2s.h **** *
 641:Generated_Source\PSoC6\pdl\drivers\peripheral\i2s/cy_i2s.h **** * Stops an I2S reception.
 642:Generated_Source\PSoC6\pdl\drivers\peripheral\i2s/cy_i2s.h **** *
 643:Generated_Source\PSoC6\pdl\drivers\peripheral\i2s/cy_i2s.h **** * \pre RX interrupt disabling (by the \ref Cy_I2S_SetInterruptMask) is required
 644:Generated_Source\PSoC6\pdl\drivers\peripheral\i2s/cy_i2s.h **** * prior to this function call, in case any RX I2S interrupts are used.
 645:Generated_Source\PSoC6\pdl\drivers\peripheral\i2s/cy_i2s.h **** *
 646:Generated_Source\PSoC6\pdl\drivers\peripheral\i2s/cy_i2s.h **** * \param base The pointer to the I2S instance address.
 647:Generated_Source\PSoC6\pdl\drivers\peripheral\i2s/cy_i2s.h **** *
 648:Generated_Source\PSoC6\pdl\drivers\peripheral\i2s/cy_i2s.h **** * \funcusage
 649:Generated_Source\PSoC6\pdl\drivers\peripheral\i2s/cy_i2s.h **** * \snippet i2s\2.10\snippet\main.c snippet_Cy_I2S_DisableRx
 650:Generated_Source\PSoC6\pdl\drivers\peripheral\i2s/cy_i2s.h **** *
 651:Generated_Source\PSoC6\pdl\drivers\peripheral\i2s/cy_i2s.h **** *******************************************************************************/
 652:Generated_Source\PSoC6\pdl\drivers\peripheral\i2s/cy_i2s.h **** __STATIC_INLINE void Cy_I2S_DisableRx(I2S_Type * base)
 653:Generated_Source\PSoC6\pdl\drivers\peripheral\i2s/cy_i2s.h **** {
 654:Generated_Source\PSoC6\pdl\drivers\peripheral\i2s/cy_i2s.h ****     REG_I2S_CMD(base) &= (uint32_t) ~I2S_CMD_RX_START_Msk;
 655:Generated_Source\PSoC6\pdl\drivers\peripheral\i2s/cy_i2s.h **** }
 656:Generated_Source\PSoC6\pdl\drivers\peripheral\i2s/cy_i2s.h **** 
 657:Generated_Source\PSoC6\pdl\drivers\peripheral\i2s/cy_i2s.h **** 
 658:Generated_Source\PSoC6\pdl\drivers\peripheral\i2s/cy_i2s.h **** /*******************************************************************************
 659:Generated_Source\PSoC6\pdl\drivers\peripheral\i2s/cy_i2s.h **** * Function Name: Cy_I2S_GetCurrentState
 660:Generated_Source\PSoC6\pdl\drivers\peripheral\i2s/cy_i2s.h **** ****************************************************************************//**
 661:Generated_Source\PSoC6\pdl\drivers\peripheral\i2s/cy_i2s.h **** *
 662:Generated_Source\PSoC6\pdl\drivers\peripheral\i2s/cy_i2s.h **** * Returns the current I2S state (TX/RX running/paused/stopped).
 663:Generated_Source\PSoC6\pdl\drivers\peripheral\i2s/cy_i2s.h **** *
ARM GAS  C:\Users\dev\AppData\Local\Temp\ccJYAN2E.s 			page 30


 664:Generated_Source\PSoC6\pdl\drivers\peripheral\i2s/cy_i2s.h **** * \param base The pointer to the I2S instance address.
 665:Generated_Source\PSoC6\pdl\drivers\peripheral\i2s/cy_i2s.h **** *
 666:Generated_Source\PSoC6\pdl\drivers\peripheral\i2s/cy_i2s.h **** * \return The current state \ref group_i2s_macros_current_state.
 667:Generated_Source\PSoC6\pdl\drivers\peripheral\i2s/cy_i2s.h **** *
 668:Generated_Source\PSoC6\pdl\drivers\peripheral\i2s/cy_i2s.h **** * \funcusage
 669:Generated_Source\PSoC6\pdl\drivers\peripheral\i2s/cy_i2s.h **** * \snippet i2s\2.10\snippet\main.c snippet_Cy_I2S_GetCurrentState
 670:Generated_Source\PSoC6\pdl\drivers\peripheral\i2s/cy_i2s.h **** *
 671:Generated_Source\PSoC6\pdl\drivers\peripheral\i2s/cy_i2s.h **** *******************************************************************************/
 672:Generated_Source\PSoC6\pdl\drivers\peripheral\i2s/cy_i2s.h **** __STATIC_INLINE uint32_t Cy_I2S_GetCurrentState(I2S_Type const * base)
 673:Generated_Source\PSoC6\pdl\drivers\peripheral\i2s/cy_i2s.h **** {
 674:Generated_Source\PSoC6\pdl\drivers\peripheral\i2s/cy_i2s.h ****     return (REG_I2S_CMD(base) & (I2S_CMD_TX_START_Msk | I2S_CMD_TX_PAUSE_Msk | I2S_CMD_RX_START_Msk
 675:Generated_Source\PSoC6\pdl\drivers\peripheral\i2s/cy_i2s.h **** }
 676:Generated_Source\PSoC6\pdl\drivers\peripheral\i2s/cy_i2s.h **** 
 677:Generated_Source\PSoC6\pdl\drivers\peripheral\i2s/cy_i2s.h **** 
 678:Generated_Source\PSoC6\pdl\drivers\peripheral\i2s/cy_i2s.h **** /*******************************************************************************
 679:Generated_Source\PSoC6\pdl\drivers\peripheral\i2s/cy_i2s.h **** * Function Name: Cy_I2S_ClearTxFifo
 680:Generated_Source\PSoC6\pdl\drivers\peripheral\i2s/cy_i2s.h **** ****************************************************************************//**
 681:Generated_Source\PSoC6\pdl\drivers\peripheral\i2s/cy_i2s.h **** *
 682:Generated_Source\PSoC6\pdl\drivers\peripheral\i2s/cy_i2s.h **** * Clears the TX FIFO (resets the Read/Write FIFO pointers).
 683:Generated_Source\PSoC6\pdl\drivers\peripheral\i2s/cy_i2s.h **** *
 684:Generated_Source\PSoC6\pdl\drivers\peripheral\i2s/cy_i2s.h **** * \param base The pointer to the I2S instance address.
 685:Generated_Source\PSoC6\pdl\drivers\peripheral\i2s/cy_i2s.h **** *
 686:Generated_Source\PSoC6\pdl\drivers\peripheral\i2s/cy_i2s.h **** * \funcusage
 687:Generated_Source\PSoC6\pdl\drivers\peripheral\i2s/cy_i2s.h **** * \snippet i2s\2.10\snippet\main.c snippet_Cy_I2S_ClearTxFifo
 688:Generated_Source\PSoC6\pdl\drivers\peripheral\i2s/cy_i2s.h **** *
 689:Generated_Source\PSoC6\pdl\drivers\peripheral\i2s/cy_i2s.h **** *******************************************************************************/
 690:Generated_Source\PSoC6\pdl\drivers\peripheral\i2s/cy_i2s.h **** __STATIC_INLINE void Cy_I2S_ClearTxFifo(I2S_Type * base)
 691:Generated_Source\PSoC6\pdl\drivers\peripheral\i2s/cy_i2s.h **** {
 692:Generated_Source\PSoC6\pdl\drivers\peripheral\i2s/cy_i2s.h ****     REG_I2S_TX_FIFO_CTL(base) |= I2S_TX_FIFO_CTL_CLEAR_Msk;
 693:Generated_Source\PSoC6\pdl\drivers\peripheral\i2s/cy_i2s.h ****     REG_I2S_TX_FIFO_CTL(base) &= (uint32_t) ~I2S_TX_FIFO_CTL_CLEAR_Msk;
 694:Generated_Source\PSoC6\pdl\drivers\peripheral\i2s/cy_i2s.h ****     (void) REG_I2S_TX_FIFO_CTL(base);
 695:Generated_Source\PSoC6\pdl\drivers\peripheral\i2s/cy_i2s.h **** }
 696:Generated_Source\PSoC6\pdl\drivers\peripheral\i2s/cy_i2s.h **** 
 697:Generated_Source\PSoC6\pdl\drivers\peripheral\i2s/cy_i2s.h **** 
 698:Generated_Source\PSoC6\pdl\drivers\peripheral\i2s/cy_i2s.h **** /*******************************************************************************
 699:Generated_Source\PSoC6\pdl\drivers\peripheral\i2s/cy_i2s.h **** * Function Name: Cy_I2S_GetNumInTxFifo
 700:Generated_Source\PSoC6\pdl\drivers\peripheral\i2s/cy_i2s.h **** ****************************************************************************//**
 701:Generated_Source\PSoC6\pdl\drivers\peripheral\i2s/cy_i2s.h **** *
 702:Generated_Source\PSoC6\pdl\drivers\peripheral\i2s/cy_i2s.h **** * Gets the number of used words in the TX FIFO.
 703:Generated_Source\PSoC6\pdl\drivers\peripheral\i2s/cy_i2s.h **** *
 704:Generated_Source\PSoC6\pdl\drivers\peripheral\i2s/cy_i2s.h **** * \param base The pointer to the I2S instance address.
 705:Generated_Source\PSoC6\pdl\drivers\peripheral\i2s/cy_i2s.h **** *
 706:Generated_Source\PSoC6\pdl\drivers\peripheral\i2s/cy_i2s.h **** * \return The current number of used words in the TX FIFO.
 707:Generated_Source\PSoC6\pdl\drivers\peripheral\i2s/cy_i2s.h **** *
 708:Generated_Source\PSoC6\pdl\drivers\peripheral\i2s/cy_i2s.h **** * \funcusage
 709:Generated_Source\PSoC6\pdl\drivers\peripheral\i2s/cy_i2s.h **** * \snippet i2s\2.10\snippet\main.c snippet_Cy_I2S_GetNumInTxFifo
 710:Generated_Source\PSoC6\pdl\drivers\peripheral\i2s/cy_i2s.h **** *
 711:Generated_Source\PSoC6\pdl\drivers\peripheral\i2s/cy_i2s.h **** *******************************************************************************/
 712:Generated_Source\PSoC6\pdl\drivers\peripheral\i2s/cy_i2s.h **** __STATIC_INLINE uint32_t Cy_I2S_GetNumInTxFifo(I2S_Type const * base)
 713:Generated_Source\PSoC6\pdl\drivers\peripheral\i2s/cy_i2s.h **** {   
 714:Generated_Source\PSoC6\pdl\drivers\peripheral\i2s/cy_i2s.h ****     return (_FLD2VAL(I2S_TX_FIFO_STATUS_USED, REG_I2S_TX_FIFO_STATUS(base)));
 715:Generated_Source\PSoC6\pdl\drivers\peripheral\i2s/cy_i2s.h **** }
 716:Generated_Source\PSoC6\pdl\drivers\peripheral\i2s/cy_i2s.h **** 
 717:Generated_Source\PSoC6\pdl\drivers\peripheral\i2s/cy_i2s.h **** 
 718:Generated_Source\PSoC6\pdl\drivers\peripheral\i2s/cy_i2s.h **** /*******************************************************************************
 719:Generated_Source\PSoC6\pdl\drivers\peripheral\i2s/cy_i2s.h **** * Function Name: Cy_I2S_WriteTxData
 720:Generated_Source\PSoC6\pdl\drivers\peripheral\i2s/cy_i2s.h **** ****************************************************************************//**
ARM GAS  C:\Users\dev\AppData\Local\Temp\ccJYAN2E.s 			page 31


 721:Generated_Source\PSoC6\pdl\drivers\peripheral\i2s/cy_i2s.h **** *
 722:Generated_Source\PSoC6\pdl\drivers\peripheral\i2s/cy_i2s.h **** * Writes data to the TX FIFO. Increases the TX FIFO level.
 723:Generated_Source\PSoC6\pdl\drivers\peripheral\i2s/cy_i2s.h **** *
 724:Generated_Source\PSoC6\pdl\drivers\peripheral\i2s/cy_i2s.h **** * \param base The pointer to the I2S instance address.
 725:Generated_Source\PSoC6\pdl\drivers\peripheral\i2s/cy_i2s.h **** *
 726:Generated_Source\PSoC6\pdl\drivers\peripheral\i2s/cy_i2s.h **** * \param data Data to be written to the TX FIFO.
 727:Generated_Source\PSoC6\pdl\drivers\peripheral\i2s/cy_i2s.h **** *
 728:Generated_Source\PSoC6\pdl\drivers\peripheral\i2s/cy_i2s.h **** * \funcusage
 729:Generated_Source\PSoC6\pdl\drivers\peripheral\i2s/cy_i2s.h **** * \snippet i2s\2.10\snippet\main.c snippet_Cy_I2S_WriteTxData
 730:Generated_Source\PSoC6\pdl\drivers\peripheral\i2s/cy_i2s.h **** *
 731:Generated_Source\PSoC6\pdl\drivers\peripheral\i2s/cy_i2s.h **** *******************************************************************************/
 732:Generated_Source\PSoC6\pdl\drivers\peripheral\i2s/cy_i2s.h **** __STATIC_INLINE void Cy_I2S_WriteTxData(I2S_Type * base, uint32_t data)
 733:Generated_Source\PSoC6\pdl\drivers\peripheral\i2s/cy_i2s.h **** {
 734:Generated_Source\PSoC6\pdl\drivers\peripheral\i2s/cy_i2s.h ****     REG_I2S_TX_FIFO_WR(base) = data;
 735:Generated_Source\PSoC6\pdl\drivers\peripheral\i2s/cy_i2s.h **** }
 736:Generated_Source\PSoC6\pdl\drivers\peripheral\i2s/cy_i2s.h **** 
 737:Generated_Source\PSoC6\pdl\drivers\peripheral\i2s/cy_i2s.h **** 
 738:Generated_Source\PSoC6\pdl\drivers\peripheral\i2s/cy_i2s.h **** /*******************************************************************************
 739:Generated_Source\PSoC6\pdl\drivers\peripheral\i2s/cy_i2s.h **** * Function Name: Cy_I2S_GetTxReadPointer
 740:Generated_Source\PSoC6\pdl\drivers\peripheral\i2s/cy_i2s.h **** ****************************************************************************//**
 741:Generated_Source\PSoC6\pdl\drivers\peripheral\i2s/cy_i2s.h **** *
 742:Generated_Source\PSoC6\pdl\drivers\peripheral\i2s/cy_i2s.h **** * Gets the TX FIFO Read pointer. This function is for debug purposes.
 743:Generated_Source\PSoC6\pdl\drivers\peripheral\i2s/cy_i2s.h **** *
 744:Generated_Source\PSoC6\pdl\drivers\peripheral\i2s/cy_i2s.h **** * \param base The pointer to the I2S instance address.
 745:Generated_Source\PSoC6\pdl\drivers\peripheral\i2s/cy_i2s.h **** *
 746:Generated_Source\PSoC6\pdl\drivers\peripheral\i2s/cy_i2s.h **** * \return The current TX Read pointer value.
 747:Generated_Source\PSoC6\pdl\drivers\peripheral\i2s/cy_i2s.h **** *
 748:Generated_Source\PSoC6\pdl\drivers\peripheral\i2s/cy_i2s.h **** * \funcusage
 749:Generated_Source\PSoC6\pdl\drivers\peripheral\i2s/cy_i2s.h **** * \snippet i2s\2.10\snippet\main.c snippet_Cy_I2S_GetTxReadPointer
 750:Generated_Source\PSoC6\pdl\drivers\peripheral\i2s/cy_i2s.h **** *
 751:Generated_Source\PSoC6\pdl\drivers\peripheral\i2s/cy_i2s.h **** *******************************************************************************/
 752:Generated_Source\PSoC6\pdl\drivers\peripheral\i2s/cy_i2s.h **** __STATIC_INLINE uint8_t Cy_I2S_GetTxReadPointer(I2S_Type const * base)
 753:Generated_Source\PSoC6\pdl\drivers\peripheral\i2s/cy_i2s.h **** {
 754:Generated_Source\PSoC6\pdl\drivers\peripheral\i2s/cy_i2s.h ****     return ((uint8_t) _FLD2VAL(I2S_TX_FIFO_STATUS_RD_PTR, REG_I2S_TX_FIFO_STATUS(base)));
 755:Generated_Source\PSoC6\pdl\drivers\peripheral\i2s/cy_i2s.h **** }
 756:Generated_Source\PSoC6\pdl\drivers\peripheral\i2s/cy_i2s.h **** 
 757:Generated_Source\PSoC6\pdl\drivers\peripheral\i2s/cy_i2s.h **** 
 758:Generated_Source\PSoC6\pdl\drivers\peripheral\i2s/cy_i2s.h **** /*******************************************************************************
 759:Generated_Source\PSoC6\pdl\drivers\peripheral\i2s/cy_i2s.h **** * Function Name: Cy_I2S_GetTxWritePointer
 760:Generated_Source\PSoC6\pdl\drivers\peripheral\i2s/cy_i2s.h **** ****************************************************************************//**
 761:Generated_Source\PSoC6\pdl\drivers\peripheral\i2s/cy_i2s.h **** *
 762:Generated_Source\PSoC6\pdl\drivers\peripheral\i2s/cy_i2s.h **** * Gets the TX FIFO Write pointer. This function is for debug purposes.
 763:Generated_Source\PSoC6\pdl\drivers\peripheral\i2s/cy_i2s.h **** *
 764:Generated_Source\PSoC6\pdl\drivers\peripheral\i2s/cy_i2s.h **** * \param base The pointer to the I2S instance address.
 765:Generated_Source\PSoC6\pdl\drivers\peripheral\i2s/cy_i2s.h **** *
 766:Generated_Source\PSoC6\pdl\drivers\peripheral\i2s/cy_i2s.h **** * \return The current TX Write pointer value.
 767:Generated_Source\PSoC6\pdl\drivers\peripheral\i2s/cy_i2s.h **** *
 768:Generated_Source\PSoC6\pdl\drivers\peripheral\i2s/cy_i2s.h **** * \funcusage
 769:Generated_Source\PSoC6\pdl\drivers\peripheral\i2s/cy_i2s.h **** * \snippet i2s\2.10\snippet\main.c snippet_Cy_I2S_GetTxWritePointer
 770:Generated_Source\PSoC6\pdl\drivers\peripheral\i2s/cy_i2s.h **** *
 771:Generated_Source\PSoC6\pdl\drivers\peripheral\i2s/cy_i2s.h **** *******************************************************************************/
 772:Generated_Source\PSoC6\pdl\drivers\peripheral\i2s/cy_i2s.h **** __STATIC_INLINE uint8_t Cy_I2S_GetTxWritePointer(I2S_Type const * base)
 773:Generated_Source\PSoC6\pdl\drivers\peripheral\i2s/cy_i2s.h **** {
 774:Generated_Source\PSoC6\pdl\drivers\peripheral\i2s/cy_i2s.h ****     return ((uint8_t) _FLD2VAL(I2S_TX_FIFO_STATUS_WR_PTR, REG_I2S_TX_FIFO_STATUS(base)));
 775:Generated_Source\PSoC6\pdl\drivers\peripheral\i2s/cy_i2s.h **** }
 776:Generated_Source\PSoC6\pdl\drivers\peripheral\i2s/cy_i2s.h **** 
 777:Generated_Source\PSoC6\pdl\drivers\peripheral\i2s/cy_i2s.h **** 
ARM GAS  C:\Users\dev\AppData\Local\Temp\ccJYAN2E.s 			page 32


 778:Generated_Source\PSoC6\pdl\drivers\peripheral\i2s/cy_i2s.h **** /*******************************************************************************
 779:Generated_Source\PSoC6\pdl\drivers\peripheral\i2s/cy_i2s.h **** * Function Name: Cy_I2S_FreezeTxFifo
 780:Generated_Source\PSoC6\pdl\drivers\peripheral\i2s/cy_i2s.h **** ****************************************************************************//**
 781:Generated_Source\PSoC6\pdl\drivers\peripheral\i2s/cy_i2s.h **** *
 782:Generated_Source\PSoC6\pdl\drivers\peripheral\i2s/cy_i2s.h **** * Freezes the TX FIFO. This function is for debug purposes.
 783:Generated_Source\PSoC6\pdl\drivers\peripheral\i2s/cy_i2s.h **** *
 784:Generated_Source\PSoC6\pdl\drivers\peripheral\i2s/cy_i2s.h **** * \param base The pointer to the I2S instance address.
 785:Generated_Source\PSoC6\pdl\drivers\peripheral\i2s/cy_i2s.h **** *
 786:Generated_Source\PSoC6\pdl\drivers\peripheral\i2s/cy_i2s.h **** * \funcusage
 787:Generated_Source\PSoC6\pdl\drivers\peripheral\i2s/cy_i2s.h **** * \snippet i2s\2.10\snippet\main.c snippet_Cy_I2S_FreezeTxFifo
 788:Generated_Source\PSoC6\pdl\drivers\peripheral\i2s/cy_i2s.h **** *
 789:Generated_Source\PSoC6\pdl\drivers\peripheral\i2s/cy_i2s.h **** *******************************************************************************/
 790:Generated_Source\PSoC6\pdl\drivers\peripheral\i2s/cy_i2s.h **** __STATIC_INLINE void Cy_I2S_FreezeTxFifo(I2S_Type * base)
 791:Generated_Source\PSoC6\pdl\drivers\peripheral\i2s/cy_i2s.h **** {
 792:Generated_Source\PSoC6\pdl\drivers\peripheral\i2s/cy_i2s.h ****     REG_I2S_TX_FIFO_CTL(base) |= I2S_TX_FIFO_CTL_FREEZE_Msk;
 793:Generated_Source\PSoC6\pdl\drivers\peripheral\i2s/cy_i2s.h **** }
 794:Generated_Source\PSoC6\pdl\drivers\peripheral\i2s/cy_i2s.h **** 
 795:Generated_Source\PSoC6\pdl\drivers\peripheral\i2s/cy_i2s.h **** 
 796:Generated_Source\PSoC6\pdl\drivers\peripheral\i2s/cy_i2s.h **** /*******************************************************************************
 797:Generated_Source\PSoC6\pdl\drivers\peripheral\i2s/cy_i2s.h **** * Function Name: Cy_I2S_UnfreezeTxFifo
 798:Generated_Source\PSoC6\pdl\drivers\peripheral\i2s/cy_i2s.h **** ****************************************************************************//**
 799:Generated_Source\PSoC6\pdl\drivers\peripheral\i2s/cy_i2s.h **** *
 800:Generated_Source\PSoC6\pdl\drivers\peripheral\i2s/cy_i2s.h **** * Unfreezes the TX FIFO. This function is for debug purposes.
 801:Generated_Source\PSoC6\pdl\drivers\peripheral\i2s/cy_i2s.h **** *
 802:Generated_Source\PSoC6\pdl\drivers\peripheral\i2s/cy_i2s.h **** * \param base The pointer to the I2S instance address.
 803:Generated_Source\PSoC6\pdl\drivers\peripheral\i2s/cy_i2s.h **** *
 804:Generated_Source\PSoC6\pdl\drivers\peripheral\i2s/cy_i2s.h **** * \funcusage
 805:Generated_Source\PSoC6\pdl\drivers\peripheral\i2s/cy_i2s.h **** * \snippet i2s\2.10\snippet\main.c snippet_Cy_I2S_UnfreezeTxFifo
 806:Generated_Source\PSoC6\pdl\drivers\peripheral\i2s/cy_i2s.h **** *
 807:Generated_Source\PSoC6\pdl\drivers\peripheral\i2s/cy_i2s.h **** *******************************************************************************/
 808:Generated_Source\PSoC6\pdl\drivers\peripheral\i2s/cy_i2s.h **** __STATIC_INLINE void Cy_I2S_UnfreezeTxFifo(I2S_Type * base)
 809:Generated_Source\PSoC6\pdl\drivers\peripheral\i2s/cy_i2s.h **** {
 810:Generated_Source\PSoC6\pdl\drivers\peripheral\i2s/cy_i2s.h ****     REG_I2S_TX_FIFO_CTL(base) &= (uint32_t) ~I2S_TX_FIFO_CTL_FREEZE_Msk;
 811:Generated_Source\PSoC6\pdl\drivers\peripheral\i2s/cy_i2s.h **** }
 812:Generated_Source\PSoC6\pdl\drivers\peripheral\i2s/cy_i2s.h **** 
 813:Generated_Source\PSoC6\pdl\drivers\peripheral\i2s/cy_i2s.h **** 
 814:Generated_Source\PSoC6\pdl\drivers\peripheral\i2s/cy_i2s.h **** /*******************************************************************************
 815:Generated_Source\PSoC6\pdl\drivers\peripheral\i2s/cy_i2s.h **** * Function Name: Cy_I2S_ClearRxFifo
 816:Generated_Source\PSoC6\pdl\drivers\peripheral\i2s/cy_i2s.h **** ****************************************************************************//**
 817:Generated_Source\PSoC6\pdl\drivers\peripheral\i2s/cy_i2s.h **** *
 818:Generated_Source\PSoC6\pdl\drivers\peripheral\i2s/cy_i2s.h **** * Clears the RX FIFO (resets the Read/Write FIFO pointers).
 819:Generated_Source\PSoC6\pdl\drivers\peripheral\i2s/cy_i2s.h **** *
 820:Generated_Source\PSoC6\pdl\drivers\peripheral\i2s/cy_i2s.h **** * \param base The pointer to the I2S instance address.
 821:Generated_Source\PSoC6\pdl\drivers\peripheral\i2s/cy_i2s.h **** *
 822:Generated_Source\PSoC6\pdl\drivers\peripheral\i2s/cy_i2s.h **** * \funcusage
 823:Generated_Source\PSoC6\pdl\drivers\peripheral\i2s/cy_i2s.h **** * \snippet i2s\2.10\snippet\main.c snippet_Cy_I2S_ClearRxFifo
 824:Generated_Source\PSoC6\pdl\drivers\peripheral\i2s/cy_i2s.h **** *
 825:Generated_Source\PSoC6\pdl\drivers\peripheral\i2s/cy_i2s.h **** *******************************************************************************/
 826:Generated_Source\PSoC6\pdl\drivers\peripheral\i2s/cy_i2s.h **** __STATIC_INLINE void Cy_I2S_ClearRxFifo(I2S_Type * base)
 827:Generated_Source\PSoC6\pdl\drivers\peripheral\i2s/cy_i2s.h **** {
 828:Generated_Source\PSoC6\pdl\drivers\peripheral\i2s/cy_i2s.h ****     REG_I2S_RX_FIFO_CTL(base)  |= I2S_RX_FIFO_CTL_CLEAR_Msk;
 829:Generated_Source\PSoC6\pdl\drivers\peripheral\i2s/cy_i2s.h ****     REG_I2S_RX_FIFO_CTL(base)  &= (uint32_t) ~I2S_RX_FIFO_CTL_CLEAR_Msk;
 830:Generated_Source\PSoC6\pdl\drivers\peripheral\i2s/cy_i2s.h ****     (void) REG_I2S_RX_FIFO_CTL(base) ;
 831:Generated_Source\PSoC6\pdl\drivers\peripheral\i2s/cy_i2s.h **** }
 832:Generated_Source\PSoC6\pdl\drivers\peripheral\i2s/cy_i2s.h **** 
 833:Generated_Source\PSoC6\pdl\drivers\peripheral\i2s/cy_i2s.h **** 
 834:Generated_Source\PSoC6\pdl\drivers\peripheral\i2s/cy_i2s.h **** /*******************************************************************************
ARM GAS  C:\Users\dev\AppData\Local\Temp\ccJYAN2E.s 			page 33


 835:Generated_Source\PSoC6\pdl\drivers\peripheral\i2s/cy_i2s.h **** * Function Name: Cy_I2S_GetNumInRxFifo
 836:Generated_Source\PSoC6\pdl\drivers\peripheral\i2s/cy_i2s.h **** ****************************************************************************//**
 837:Generated_Source\PSoC6\pdl\drivers\peripheral\i2s/cy_i2s.h **** *
 838:Generated_Source\PSoC6\pdl\drivers\peripheral\i2s/cy_i2s.h **** * Gets the number of used words in the RX FIFO.
 839:Generated_Source\PSoC6\pdl\drivers\peripheral\i2s/cy_i2s.h **** *
 840:Generated_Source\PSoC6\pdl\drivers\peripheral\i2s/cy_i2s.h **** * \param base The pointer to the I2S instance address.
 841:Generated_Source\PSoC6\pdl\drivers\peripheral\i2s/cy_i2s.h **** *
 842:Generated_Source\PSoC6\pdl\drivers\peripheral\i2s/cy_i2s.h **** * \return The current number of used words in rge RX FIFO.
 843:Generated_Source\PSoC6\pdl\drivers\peripheral\i2s/cy_i2s.h **** *
 844:Generated_Source\PSoC6\pdl\drivers\peripheral\i2s/cy_i2s.h **** * \funcusage
 845:Generated_Source\PSoC6\pdl\drivers\peripheral\i2s/cy_i2s.h **** * \snippet i2s\2.10\snippet\main.c snippet_Cy_I2S_GetNumInRxFifo
 846:Generated_Source\PSoC6\pdl\drivers\peripheral\i2s/cy_i2s.h **** *
 847:Generated_Source\PSoC6\pdl\drivers\peripheral\i2s/cy_i2s.h **** *******************************************************************************/
 848:Generated_Source\PSoC6\pdl\drivers\peripheral\i2s/cy_i2s.h **** __STATIC_INLINE uint32_t Cy_I2S_GetNumInRxFifo(I2S_Type const * base)
 849:Generated_Source\PSoC6\pdl\drivers\peripheral\i2s/cy_i2s.h **** {
 850:Generated_Source\PSoC6\pdl\drivers\peripheral\i2s/cy_i2s.h ****     return (_FLD2VAL(I2S_RX_FIFO_STATUS_USED, REG_I2S_RX_FIFO_STATUS(base)));
 851:Generated_Source\PSoC6\pdl\drivers\peripheral\i2s/cy_i2s.h **** }
 852:Generated_Source\PSoC6\pdl\drivers\peripheral\i2s/cy_i2s.h **** 
 853:Generated_Source\PSoC6\pdl\drivers\peripheral\i2s/cy_i2s.h **** 
 854:Generated_Source\PSoC6\pdl\drivers\peripheral\i2s/cy_i2s.h **** /*******************************************************************************
 855:Generated_Source\PSoC6\pdl\drivers\peripheral\i2s/cy_i2s.h **** * Function Name: Cy_I2S_ReadRxData
 856:Generated_Source\PSoC6\pdl\drivers\peripheral\i2s/cy_i2s.h **** ****************************************************************************//**
 857:Generated_Source\PSoC6\pdl\drivers\peripheral\i2s/cy_i2s.h **** *
 858:Generated_Source\PSoC6\pdl\drivers\peripheral\i2s/cy_i2s.h **** * Reads data from the RX FIFO. Decreases the RX FIFO level.
 859:Generated_Source\PSoC6\pdl\drivers\peripheral\i2s/cy_i2s.h **** *
 860:Generated_Source\PSoC6\pdl\drivers\peripheral\i2s/cy_i2s.h **** * \param base The pointer to the I2S instance address.
 861:Generated_Source\PSoC6\pdl\drivers\peripheral\i2s/cy_i2s.h **** *
 862:Generated_Source\PSoC6\pdl\drivers\peripheral\i2s/cy_i2s.h **** * \return The read data.
 863:Generated_Source\PSoC6\pdl\drivers\peripheral\i2s/cy_i2s.h **** *
 864:Generated_Source\PSoC6\pdl\drivers\peripheral\i2s/cy_i2s.h **** * \funcusage
 865:Generated_Source\PSoC6\pdl\drivers\peripheral\i2s/cy_i2s.h **** * \snippet i2s\2.10\snippet\main.c snippet_Cy_I2S_ReadRxData
 866:Generated_Source\PSoC6\pdl\drivers\peripheral\i2s/cy_i2s.h **** *
 867:Generated_Source\PSoC6\pdl\drivers\peripheral\i2s/cy_i2s.h **** *******************************************************************************/
 868:Generated_Source\PSoC6\pdl\drivers\peripheral\i2s/cy_i2s.h **** __STATIC_INLINE uint32_t Cy_I2S_ReadRxData(I2S_Type const * base)
 869:Generated_Source\PSoC6\pdl\drivers\peripheral\i2s/cy_i2s.h **** {
 870:Generated_Source\PSoC6\pdl\drivers\peripheral\i2s/cy_i2s.h ****     return (REG_I2S_RX_FIFO_RD(base));
 871:Generated_Source\PSoC6\pdl\drivers\peripheral\i2s/cy_i2s.h **** }
 872:Generated_Source\PSoC6\pdl\drivers\peripheral\i2s/cy_i2s.h **** 
 873:Generated_Source\PSoC6\pdl\drivers\peripheral\i2s/cy_i2s.h **** 
 874:Generated_Source\PSoC6\pdl\drivers\peripheral\i2s/cy_i2s.h **** /*******************************************************************************
 875:Generated_Source\PSoC6\pdl\drivers\peripheral\i2s/cy_i2s.h **** * Function Name: Cy_I2S_ReadRxDataSilent
 876:Generated_Source\PSoC6\pdl\drivers\peripheral\i2s/cy_i2s.h **** ****************************************************************************//**
 877:Generated_Source\PSoC6\pdl\drivers\peripheral\i2s/cy_i2s.h **** *
 878:Generated_Source\PSoC6\pdl\drivers\peripheral\i2s/cy_i2s.h **** * Reads data from the RX FIFO without updating the RX FIFO read pointer.
 879:Generated_Source\PSoC6\pdl\drivers\peripheral\i2s/cy_i2s.h **** * This function is for debug purposes.
 880:Generated_Source\PSoC6\pdl\drivers\peripheral\i2s/cy_i2s.h **** *
 881:Generated_Source\PSoC6\pdl\drivers\peripheral\i2s/cy_i2s.h **** * \param base The pointer to the I2S instance address.
 882:Generated_Source\PSoC6\pdl\drivers\peripheral\i2s/cy_i2s.h **** *
 883:Generated_Source\PSoC6\pdl\drivers\peripheral\i2s/cy_i2s.h **** * \return The read data.
 884:Generated_Source\PSoC6\pdl\drivers\peripheral\i2s/cy_i2s.h **** *
 885:Generated_Source\PSoC6\pdl\drivers\peripheral\i2s/cy_i2s.h **** * \funcusage
 886:Generated_Source\PSoC6\pdl\drivers\peripheral\i2s/cy_i2s.h **** * \snippet i2s\2.10\snippet\main.c snippet_Cy_I2S_ReadRxDataSilent
 887:Generated_Source\PSoC6\pdl\drivers\peripheral\i2s/cy_i2s.h **** *
 888:Generated_Source\PSoC6\pdl\drivers\peripheral\i2s/cy_i2s.h **** *******************************************************************************/
 889:Generated_Source\PSoC6\pdl\drivers\peripheral\i2s/cy_i2s.h **** __STATIC_INLINE uint32_t Cy_I2S_ReadRxDataSilent(I2S_Type const * base)
 890:Generated_Source\PSoC6\pdl\drivers\peripheral\i2s/cy_i2s.h **** {
 891:Generated_Source\PSoC6\pdl\drivers\peripheral\i2s/cy_i2s.h ****     return (REG_I2S_RX_FIFO_RD_SILENT(base));
ARM GAS  C:\Users\dev\AppData\Local\Temp\ccJYAN2E.s 			page 34


 892:Generated_Source\PSoC6\pdl\drivers\peripheral\i2s/cy_i2s.h **** }
 893:Generated_Source\PSoC6\pdl\drivers\peripheral\i2s/cy_i2s.h **** 
 894:Generated_Source\PSoC6\pdl\drivers\peripheral\i2s/cy_i2s.h **** 
 895:Generated_Source\PSoC6\pdl\drivers\peripheral\i2s/cy_i2s.h **** /*******************************************************************************
 896:Generated_Source\PSoC6\pdl\drivers\peripheral\i2s/cy_i2s.h **** * Function Name: Cy_I2S_GetRxReadPointer
 897:Generated_Source\PSoC6\pdl\drivers\peripheral\i2s/cy_i2s.h **** ****************************************************************************//**
 898:Generated_Source\PSoC6\pdl\drivers\peripheral\i2s/cy_i2s.h **** *
 899:Generated_Source\PSoC6\pdl\drivers\peripheral\i2s/cy_i2s.h **** * Gets the RX FIFO Read pointer. This function is for debug purposes.
 900:Generated_Source\PSoC6\pdl\drivers\peripheral\i2s/cy_i2s.h **** *
 901:Generated_Source\PSoC6\pdl\drivers\peripheral\i2s/cy_i2s.h **** * \param base The pointer to the I2S instance address.
 902:Generated_Source\PSoC6\pdl\drivers\peripheral\i2s/cy_i2s.h **** *
 903:Generated_Source\PSoC6\pdl\drivers\peripheral\i2s/cy_i2s.h **** * \return The current RX Read pointer value.
 904:Generated_Source\PSoC6\pdl\drivers\peripheral\i2s/cy_i2s.h **** *
 905:Generated_Source\PSoC6\pdl\drivers\peripheral\i2s/cy_i2s.h **** * \funcusage
 906:Generated_Source\PSoC6\pdl\drivers\peripheral\i2s/cy_i2s.h **** * \snippet i2s\2.10\snippet\main.c snippet_Cy_I2S_GetRxReadPointer
 907:Generated_Source\PSoC6\pdl\drivers\peripheral\i2s/cy_i2s.h **** *
 908:Generated_Source\PSoC6\pdl\drivers\peripheral\i2s/cy_i2s.h **** *******************************************************************************/
 909:Generated_Source\PSoC6\pdl\drivers\peripheral\i2s/cy_i2s.h **** __STATIC_INLINE uint8_t Cy_I2S_GetRxReadPointer(I2S_Type const * base)
 910:Generated_Source\PSoC6\pdl\drivers\peripheral\i2s/cy_i2s.h **** {
 911:Generated_Source\PSoC6\pdl\drivers\peripheral\i2s/cy_i2s.h ****     return ((uint8_t) _FLD2VAL(I2S_RX_FIFO_STATUS_RD_PTR, REG_I2S_RX_FIFO_STATUS(base)));
 912:Generated_Source\PSoC6\pdl\drivers\peripheral\i2s/cy_i2s.h **** }
 913:Generated_Source\PSoC6\pdl\drivers\peripheral\i2s/cy_i2s.h **** 
 914:Generated_Source\PSoC6\pdl\drivers\peripheral\i2s/cy_i2s.h **** 
 915:Generated_Source\PSoC6\pdl\drivers\peripheral\i2s/cy_i2s.h **** /*******************************************************************************
 916:Generated_Source\PSoC6\pdl\drivers\peripheral\i2s/cy_i2s.h **** * Function Name: Cy_I2S_GetRxWritePointer
 917:Generated_Source\PSoC6\pdl\drivers\peripheral\i2s/cy_i2s.h **** ****************************************************************************//**
 918:Generated_Source\PSoC6\pdl\drivers\peripheral\i2s/cy_i2s.h **** *
 919:Generated_Source\PSoC6\pdl\drivers\peripheral\i2s/cy_i2s.h **** * Gets the RX FIFO Write pointer. This function is for debug purposes.
 920:Generated_Source\PSoC6\pdl\drivers\peripheral\i2s/cy_i2s.h **** *
 921:Generated_Source\PSoC6\pdl\drivers\peripheral\i2s/cy_i2s.h **** * \param base The pointer to the I2S instance address.
 922:Generated_Source\PSoC6\pdl\drivers\peripheral\i2s/cy_i2s.h **** *
 923:Generated_Source\PSoC6\pdl\drivers\peripheral\i2s/cy_i2s.h **** * \return The current RX Write pointer value.
 924:Generated_Source\PSoC6\pdl\drivers\peripheral\i2s/cy_i2s.h **** *
 925:Generated_Source\PSoC6\pdl\drivers\peripheral\i2s/cy_i2s.h **** * \funcusage
 926:Generated_Source\PSoC6\pdl\drivers\peripheral\i2s/cy_i2s.h **** * \snippet i2s\2.10\snippet\main.c snippet_Cy_I2S_GetRxWritePointer
 927:Generated_Source\PSoC6\pdl\drivers\peripheral\i2s/cy_i2s.h **** *
 928:Generated_Source\PSoC6\pdl\drivers\peripheral\i2s/cy_i2s.h **** *******************************************************************************/
 929:Generated_Source\PSoC6\pdl\drivers\peripheral\i2s/cy_i2s.h **** __STATIC_INLINE uint8_t Cy_I2S_GetRxWritePointer(I2S_Type const * base)
 930:Generated_Source\PSoC6\pdl\drivers\peripheral\i2s/cy_i2s.h **** {
 931:Generated_Source\PSoC6\pdl\drivers\peripheral\i2s/cy_i2s.h ****     return ((uint8_t) _FLD2VAL(I2S_RX_FIFO_STATUS_WR_PTR, REG_I2S_RX_FIFO_STATUS(base)));
 932:Generated_Source\PSoC6\pdl\drivers\peripheral\i2s/cy_i2s.h **** }
 933:Generated_Source\PSoC6\pdl\drivers\peripheral\i2s/cy_i2s.h **** 
 934:Generated_Source\PSoC6\pdl\drivers\peripheral\i2s/cy_i2s.h **** 
 935:Generated_Source\PSoC6\pdl\drivers\peripheral\i2s/cy_i2s.h **** /*******************************************************************************
 936:Generated_Source\PSoC6\pdl\drivers\peripheral\i2s/cy_i2s.h **** * Function Name: Cy_I2S_FreezeRxFifo
 937:Generated_Source\PSoC6\pdl\drivers\peripheral\i2s/cy_i2s.h **** ****************************************************************************//**
 938:Generated_Source\PSoC6\pdl\drivers\peripheral\i2s/cy_i2s.h **** *
 939:Generated_Source\PSoC6\pdl\drivers\peripheral\i2s/cy_i2s.h **** * Freezes the RX FIFO. This function is for debug purposes.
 940:Generated_Source\PSoC6\pdl\drivers\peripheral\i2s/cy_i2s.h **** *
 941:Generated_Source\PSoC6\pdl\drivers\peripheral\i2s/cy_i2s.h **** * \param base The pointer to the I2S instance address.
 942:Generated_Source\PSoC6\pdl\drivers\peripheral\i2s/cy_i2s.h **** *
 943:Generated_Source\PSoC6\pdl\drivers\peripheral\i2s/cy_i2s.h **** * \funcusage
 944:Generated_Source\PSoC6\pdl\drivers\peripheral\i2s/cy_i2s.h **** * \snippet i2s\2.10\snippet\main.c snippet_Cy_I2S_FreezeRxFifo
 945:Generated_Source\PSoC6\pdl\drivers\peripheral\i2s/cy_i2s.h **** *
 946:Generated_Source\PSoC6\pdl\drivers\peripheral\i2s/cy_i2s.h **** *******************************************************************************/
 947:Generated_Source\PSoC6\pdl\drivers\peripheral\i2s/cy_i2s.h **** __STATIC_INLINE void Cy_I2S_FreezeRxFifo(I2S_Type * base)
 948:Generated_Source\PSoC6\pdl\drivers\peripheral\i2s/cy_i2s.h **** {
ARM GAS  C:\Users\dev\AppData\Local\Temp\ccJYAN2E.s 			page 35


 949:Generated_Source\PSoC6\pdl\drivers\peripheral\i2s/cy_i2s.h ****     REG_I2S_RX_FIFO_CTL(base) |= I2S_RX_FIFO_CTL_FREEZE_Msk;
 950:Generated_Source\PSoC6\pdl\drivers\peripheral\i2s/cy_i2s.h **** }
 951:Generated_Source\PSoC6\pdl\drivers\peripheral\i2s/cy_i2s.h **** 
 952:Generated_Source\PSoC6\pdl\drivers\peripheral\i2s/cy_i2s.h **** 
 953:Generated_Source\PSoC6\pdl\drivers\peripheral\i2s/cy_i2s.h **** /*******************************************************************************
 954:Generated_Source\PSoC6\pdl\drivers\peripheral\i2s/cy_i2s.h **** * Function Name: Cy_I2S_UnfreezeRxFifo
 955:Generated_Source\PSoC6\pdl\drivers\peripheral\i2s/cy_i2s.h **** ****************************************************************************//**
 956:Generated_Source\PSoC6\pdl\drivers\peripheral\i2s/cy_i2s.h **** *
 957:Generated_Source\PSoC6\pdl\drivers\peripheral\i2s/cy_i2s.h **** * Unfreezes the RX FIFO. This function is for debug purposes.
 958:Generated_Source\PSoC6\pdl\drivers\peripheral\i2s/cy_i2s.h **** *
 959:Generated_Source\PSoC6\pdl\drivers\peripheral\i2s/cy_i2s.h **** * \param base The pointer to the I2S instance address.
 960:Generated_Source\PSoC6\pdl\drivers\peripheral\i2s/cy_i2s.h **** *
 961:Generated_Source\PSoC6\pdl\drivers\peripheral\i2s/cy_i2s.h **** * \funcusage
 962:Generated_Source\PSoC6\pdl\drivers\peripheral\i2s/cy_i2s.h **** * \snippet i2s\2.10\snippet\main.c snippet_Cy_I2S_UnfreezeRxFifo
 963:Generated_Source\PSoC6\pdl\drivers\peripheral\i2s/cy_i2s.h **** *
 964:Generated_Source\PSoC6\pdl\drivers\peripheral\i2s/cy_i2s.h **** *******************************************************************************/
 965:Generated_Source\PSoC6\pdl\drivers\peripheral\i2s/cy_i2s.h **** __STATIC_INLINE void Cy_I2S_UnfreezeRxFifo(I2S_Type * base)
 966:Generated_Source\PSoC6\pdl\drivers\peripheral\i2s/cy_i2s.h **** {
 967:Generated_Source\PSoC6\pdl\drivers\peripheral\i2s/cy_i2s.h ****     REG_I2S_RX_FIFO_CTL(base) &= (uint32_t) ~I2S_RX_FIFO_CTL_FREEZE_Msk;
 968:Generated_Source\PSoC6\pdl\drivers\peripheral\i2s/cy_i2s.h **** }
 969:Generated_Source\PSoC6\pdl\drivers\peripheral\i2s/cy_i2s.h **** 
 970:Generated_Source\PSoC6\pdl\drivers\peripheral\i2s/cy_i2s.h **** 
 971:Generated_Source\PSoC6\pdl\drivers\peripheral\i2s/cy_i2s.h **** /*******************************************************************************
 972:Generated_Source\PSoC6\pdl\drivers\peripheral\i2s/cy_i2s.h **** * Function Name: Cy_I2S_GetInterruptStatus
 973:Generated_Source\PSoC6\pdl\drivers\peripheral\i2s/cy_i2s.h **** ****************************************************************************//**
 974:Generated_Source\PSoC6\pdl\drivers\peripheral\i2s/cy_i2s.h **** *
 975:Generated_Source\PSoC6\pdl\drivers\peripheral\i2s/cy_i2s.h **** * Gets an interrupt status (returns a content of the INTR register).
 976:Generated_Source\PSoC6\pdl\drivers\peripheral\i2s/cy_i2s.h **** *
 977:Generated_Source\PSoC6\pdl\drivers\peripheral\i2s/cy_i2s.h **** * \param base The pointer to the I2S instance address.
 978:Generated_Source\PSoC6\pdl\drivers\peripheral\i2s/cy_i2s.h **** *
 979:Generated_Source\PSoC6\pdl\drivers\peripheral\i2s/cy_i2s.h **** * \return The interrupt bit mask \ref group_i2s_macros_interrupt_masks.
 980:Generated_Source\PSoC6\pdl\drivers\peripheral\i2s/cy_i2s.h **** *
 981:Generated_Source\PSoC6\pdl\drivers\peripheral\i2s/cy_i2s.h **** * \funcusage
 982:Generated_Source\PSoC6\pdl\drivers\peripheral\i2s/cy_i2s.h **** * \snippet i2s\2.10\snippet\main.c snippet_Cy_I2S_GetInterruptStatus
 983:Generated_Source\PSoC6\pdl\drivers\peripheral\i2s/cy_i2s.h **** *
 984:Generated_Source\PSoC6\pdl\drivers\peripheral\i2s/cy_i2s.h **** *******************************************************************************/
 985:Generated_Source\PSoC6\pdl\drivers\peripheral\i2s/cy_i2s.h **** __STATIC_INLINE uint32_t Cy_I2S_GetInterruptStatus(I2S_Type const * base)
 986:Generated_Source\PSoC6\pdl\drivers\peripheral\i2s/cy_i2s.h **** {
 987:Generated_Source\PSoC6\pdl\drivers\peripheral\i2s/cy_i2s.h ****     return (REG_I2S_INTR(base));
 988:Generated_Source\PSoC6\pdl\drivers\peripheral\i2s/cy_i2s.h **** }
 989:Generated_Source\PSoC6\pdl\drivers\peripheral\i2s/cy_i2s.h **** 
 990:Generated_Source\PSoC6\pdl\drivers\peripheral\i2s/cy_i2s.h **** 
 991:Generated_Source\PSoC6\pdl\drivers\peripheral\i2s/cy_i2s.h **** /*******************************************************************************
 992:Generated_Source\PSoC6\pdl\drivers\peripheral\i2s/cy_i2s.h **** * Function Name: Cy_I2S_ClearInterrupt
 993:Generated_Source\PSoC6\pdl\drivers\peripheral\i2s/cy_i2s.h **** ****************************************************************************//**
 994:Generated_Source\PSoC6\pdl\drivers\peripheral\i2s/cy_i2s.h **** *
 995:Generated_Source\PSoC6\pdl\drivers\peripheral\i2s/cy_i2s.h **** * Clears one or more interrupt factors (sets the INTR register).
 996:Generated_Source\PSoC6\pdl\drivers\peripheral\i2s/cy_i2s.h **** *
 997:Generated_Source\PSoC6\pdl\drivers\peripheral\i2s/cy_i2s.h **** * \param base      The pointer to the I2S instance address.
 998:Generated_Source\PSoC6\pdl\drivers\peripheral\i2s/cy_i2s.h **** *
 999:Generated_Source\PSoC6\pdl\drivers\peripheral\i2s/cy_i2s.h **** * \param interrupt Interrupt bit mask \ref group_i2s_macros_interrupt_masks.
1000:Generated_Source\PSoC6\pdl\drivers\peripheral\i2s/cy_i2s.h **** *
1001:Generated_Source\PSoC6\pdl\drivers\peripheral\i2s/cy_i2s.h **** * \funcusage
1002:Generated_Source\PSoC6\pdl\drivers\peripheral\i2s/cy_i2s.h **** * \snippet i2s\2.10\snippet\main.c snippet_Cy_I2S_ClearInterrupt
1003:Generated_Source\PSoC6\pdl\drivers\peripheral\i2s/cy_i2s.h **** *
1004:Generated_Source\PSoC6\pdl\drivers\peripheral\i2s/cy_i2s.h **** *******************************************************************************/
1005:Generated_Source\PSoC6\pdl\drivers\peripheral\i2s/cy_i2s.h **** __STATIC_INLINE void Cy_I2S_ClearInterrupt(I2S_Type * base, uint32_t interrupt)
ARM GAS  C:\Users\dev\AppData\Local\Temp\ccJYAN2E.s 			page 36


1006:Generated_Source\PSoC6\pdl\drivers\peripheral\i2s/cy_i2s.h **** {
1007:Generated_Source\PSoC6\pdl\drivers\peripheral\i2s/cy_i2s.h ****     CY_ASSERT_L2(CY_I2S_IS_INTR_MASK_VALID(interrupt));
1008:Generated_Source\PSoC6\pdl\drivers\peripheral\i2s/cy_i2s.h ****     REG_I2S_INTR(base) = interrupt;
1009:Generated_Source\PSoC6\pdl\drivers\peripheral\i2s/cy_i2s.h ****     (void) REG_I2S_INTR(base);
1010:Generated_Source\PSoC6\pdl\drivers\peripheral\i2s/cy_i2s.h **** }
1011:Generated_Source\PSoC6\pdl\drivers\peripheral\i2s/cy_i2s.h **** 
1012:Generated_Source\PSoC6\pdl\drivers\peripheral\i2s/cy_i2s.h **** 
1013:Generated_Source\PSoC6\pdl\drivers\peripheral\i2s/cy_i2s.h **** /*******************************************************************************
1014:Generated_Source\PSoC6\pdl\drivers\peripheral\i2s/cy_i2s.h **** * Function Name: Cy_I2S_SetInterrupt
1015:Generated_Source\PSoC6\pdl\drivers\peripheral\i2s/cy_i2s.h **** ****************************************************************************//**
1016:Generated_Source\PSoC6\pdl\drivers\peripheral\i2s/cy_i2s.h **** *
1017:Generated_Source\PSoC6\pdl\drivers\peripheral\i2s/cy_i2s.h **** * Sets one or more interrupt factors (sets the INTR_SET register).
1018:Generated_Source\PSoC6\pdl\drivers\peripheral\i2s/cy_i2s.h **** *
1019:Generated_Source\PSoC6\pdl\drivers\peripheral\i2s/cy_i2s.h **** * \param base      The pointer to the I2S instance address.
1020:Generated_Source\PSoC6\pdl\drivers\peripheral\i2s/cy_i2s.h **** *
1021:Generated_Source\PSoC6\pdl\drivers\peripheral\i2s/cy_i2s.h **** * \param interrupt Interrupt bit mask \ref group_i2s_macros_interrupt_masks.
1022:Generated_Source\PSoC6\pdl\drivers\peripheral\i2s/cy_i2s.h **** *
1023:Generated_Source\PSoC6\pdl\drivers\peripheral\i2s/cy_i2s.h **** * \funcusage
1024:Generated_Source\PSoC6\pdl\drivers\peripheral\i2s/cy_i2s.h **** * \snippet i2s\2.10\snippet\main.c snippet_Cy_I2S_SetInterrupt
1025:Generated_Source\PSoC6\pdl\drivers\peripheral\i2s/cy_i2s.h **** *
1026:Generated_Source\PSoC6\pdl\drivers\peripheral\i2s/cy_i2s.h **** *******************************************************************************/
1027:Generated_Source\PSoC6\pdl\drivers\peripheral\i2s/cy_i2s.h **** __STATIC_INLINE void Cy_I2S_SetInterrupt(I2S_Type * base, uint32_t interrupt)
1028:Generated_Source\PSoC6\pdl\drivers\peripheral\i2s/cy_i2s.h **** {
1029:Generated_Source\PSoC6\pdl\drivers\peripheral\i2s/cy_i2s.h ****     CY_ASSERT_L2(CY_I2S_IS_INTR_MASK_VALID(interrupt));
1030:Generated_Source\PSoC6\pdl\drivers\peripheral\i2s/cy_i2s.h ****     REG_I2S_INTR_SET(base)  = interrupt;
1031:Generated_Source\PSoC6\pdl\drivers\peripheral\i2s/cy_i2s.h **** }
1032:Generated_Source\PSoC6\pdl\drivers\peripheral\i2s/cy_i2s.h **** 
1033:Generated_Source\PSoC6\pdl\drivers\peripheral\i2s/cy_i2s.h **** 
1034:Generated_Source\PSoC6\pdl\drivers\peripheral\i2s/cy_i2s.h **** /*******************************************************************************
1035:Generated_Source\PSoC6\pdl\drivers\peripheral\i2s/cy_i2s.h **** * Function Name: Cy_I2S_GetInterruptMask
1036:Generated_Source\PSoC6\pdl\drivers\peripheral\i2s/cy_i2s.h **** ****************************************************************************//**
1037:Generated_Source\PSoC6\pdl\drivers\peripheral\i2s/cy_i2s.h **** *
1038:Generated_Source\PSoC6\pdl\drivers\peripheral\i2s/cy_i2s.h **** * Returns the interrupt mask (a content of the INTR_MASK register).
1039:Generated_Source\PSoC6\pdl\drivers\peripheral\i2s/cy_i2s.h **** *
1040:Generated_Source\PSoC6\pdl\drivers\peripheral\i2s/cy_i2s.h **** * \param base The pointer to the I2S instance address.
1041:Generated_Source\PSoC6\pdl\drivers\peripheral\i2s/cy_i2s.h **** *
1042:Generated_Source\PSoC6\pdl\drivers\peripheral\i2s/cy_i2s.h **** * \return The interrupt bit mask \ref group_i2s_macros_interrupt_masks.
1043:Generated_Source\PSoC6\pdl\drivers\peripheral\i2s/cy_i2s.h **** *
1044:Generated_Source\PSoC6\pdl\drivers\peripheral\i2s/cy_i2s.h **** * \funcusage
1045:Generated_Source\PSoC6\pdl\drivers\peripheral\i2s/cy_i2s.h **** * \snippet i2s\2.10\snippet\main.c snippet_Cy_I2S_GetInterruptMask
1046:Generated_Source\PSoC6\pdl\drivers\peripheral\i2s/cy_i2s.h **** *
1047:Generated_Source\PSoC6\pdl\drivers\peripheral\i2s/cy_i2s.h **** *******************************************************************************/
1048:Generated_Source\PSoC6\pdl\drivers\peripheral\i2s/cy_i2s.h **** __STATIC_INLINE uint32_t Cy_I2S_GetInterruptMask(I2S_Type const * base)
1049:Generated_Source\PSoC6\pdl\drivers\peripheral\i2s/cy_i2s.h **** {
1050:Generated_Source\PSoC6\pdl\drivers\peripheral\i2s/cy_i2s.h ****     return (REG_I2S_INTR_MASK(base));
 712              		.loc 2 1050 0
 713 002c D4F8083F 		ldr	r3, [r4, #3848]
 714              	.LVL55:
 715              	.LBE33:
 716              	.LBE32:
 240:Generated_Source\PSoC6\pdl\drivers\peripheral\i2s/cy_i2s.c ****     {
 241:Generated_Source\PSoC6\pdl\drivers\peripheral\i2s/cy_i2s.c ****         case CY_SYSPM_CHECK_READY:
 242:Generated_Source\PSoC6\pdl\drivers\peripheral\i2s/cy_i2s.c ****         case CY_SYSPM_CHECK_FAIL:
 243:Generated_Source\PSoC6\pdl\drivers\peripheral\i2s/cy_i2s.c ****             break;
 244:Generated_Source\PSoC6\pdl\drivers\peripheral\i2s/cy_i2s.c ****         
 245:Generated_Source\PSoC6\pdl\drivers\peripheral\i2s/cy_i2s.c ****         case CY_SYSPM_BEFORE_TRANSITION:
 246:Generated_Source\PSoC6\pdl\drivers\peripheral\i2s/cy_i2s.c ****             *locInterruptMask = Cy_I2S_GetInterruptMask(locBase); /* Store I2S interrupts */
ARM GAS  C:\Users\dev\AppData\Local\Temp\ccJYAN2E.s 			page 37


 717              		.loc 1 246 0
 718 0030 7360     		str	r3, [r6, #4]
 719              	.LVL56:
 720              	.LBB34:
 721              	.LBB35:
 674:Generated_Source\PSoC6\pdl\drivers\peripheral\i2s/cy_i2s.h **** }
 722              		.loc 2 674 0
 723 0032 236A     		ldr	r3, [r4, #32]
 724 0034 03F00133 		and	r3, r3, #16843009
 725 0038 23F08072 		bic	r2, r3, #16777216
 726              	.LVL57:
 727              	.LBE35:
 728              	.LBE34:
 247:Generated_Source\PSoC6\pdl\drivers\peripheral\i2s/cy_i2s.c ****             *locState = Cy_I2S_GetCurrentState(locBase); /* Store I2S state */
 729              		.loc 1 247 0
 730 003c 3260     		str	r2, [r6]
 248:Generated_Source\PSoC6\pdl\drivers\peripheral\i2s/cy_i2s.c ****             if (0UL != (*locState & I2S_CMD_TX_START_Msk))
 731              		.loc 1 248 0
 732 003e 13F0010F 		tst	r3, #1
 733 0042 03D0     		beq	.L74
 734              	.LVL58:
 735              	.LBB36:
 736              	.LBB37:
 611:Generated_Source\PSoC6\pdl\drivers\peripheral\i2s/cy_i2s.h **** }
 737              		.loc 2 611 0
 738 0044 236A     		ldr	r3, [r4, #32]
 739 0046 23F00103 		bic	r3, r3, #1
 740 004a 2362     		str	r3, [r4, #32]
 741              	.LVL59:
 742              	.L74:
 743              	.LBE37:
 744              	.LBE36:
 249:Generated_Source\PSoC6\pdl\drivers\peripheral\i2s/cy_i2s.c ****             {
 250:Generated_Source\PSoC6\pdl\drivers\peripheral\i2s/cy_i2s.c ****                 Cy_I2S_DisableTx(locBase); /* Stop TX operation */
 251:Generated_Source\PSoC6\pdl\drivers\peripheral\i2s/cy_i2s.c ****             }
 252:Generated_Source\PSoC6\pdl\drivers\peripheral\i2s/cy_i2s.c ****             if (0UL != (*locState & I2S_CMD_RX_START_Msk))
 745              		.loc 1 252 0
 746 004c 3368     		ldr	r3, [r6]
 747 004e 13F4803F 		tst	r3, #65536
 748 0052 03D0     		beq	.L75
 749              	.LVL60:
 750              	.LBB38:
 751              	.LBB39:
 654:Generated_Source\PSoC6\pdl\drivers\peripheral\i2s/cy_i2s.h **** }
 752              		.loc 2 654 0
 753 0054 236A     		ldr	r3, [r4, #32]
 754 0056 23F48033 		bic	r3, r3, #65536
 755 005a 2362     		str	r3, [r4, #32]
 756              	.LVL61:
 757              	.L75:
 758              	.LBE39:
 759              	.LBE38:
 760              	.LBB40:
 761              	.LBB41:
1051:Generated_Source\PSoC6\pdl\drivers\peripheral\i2s/cy_i2s.h **** }
1052:Generated_Source\PSoC6\pdl\drivers\peripheral\i2s/cy_i2s.h **** 
1053:Generated_Source\PSoC6\pdl\drivers\peripheral\i2s/cy_i2s.h **** 
ARM GAS  C:\Users\dev\AppData\Local\Temp\ccJYAN2E.s 			page 38


1054:Generated_Source\PSoC6\pdl\drivers\peripheral\i2s/cy_i2s.h **** /*******************************************************************************
1055:Generated_Source\PSoC6\pdl\drivers\peripheral\i2s/cy_i2s.h **** * Function Name: Cy_I2S_SetInterruptMask
1056:Generated_Source\PSoC6\pdl\drivers\peripheral\i2s/cy_i2s.h **** ****************************************************************************//**
1057:Generated_Source\PSoC6\pdl\drivers\peripheral\i2s/cy_i2s.h **** *
1058:Generated_Source\PSoC6\pdl\drivers\peripheral\i2s/cy_i2s.h **** * Sets one or more interrupt factor masks (the INTR_MASK register).
1059:Generated_Source\PSoC6\pdl\drivers\peripheral\i2s/cy_i2s.h **** *
1060:Generated_Source\PSoC6\pdl\drivers\peripheral\i2s/cy_i2s.h **** * \param base      The pointer to the I2S instance address.
1061:Generated_Source\PSoC6\pdl\drivers\peripheral\i2s/cy_i2s.h **** *
1062:Generated_Source\PSoC6\pdl\drivers\peripheral\i2s/cy_i2s.h **** * \param interrupt Interrupt bit mask \ref group_i2s_macros_interrupt_masks.
1063:Generated_Source\PSoC6\pdl\drivers\peripheral\i2s/cy_i2s.h **** *
1064:Generated_Source\PSoC6\pdl\drivers\peripheral\i2s/cy_i2s.h **** * \funcusage
1065:Generated_Source\PSoC6\pdl\drivers\peripheral\i2s/cy_i2s.h **** * \snippet i2s\2.10\snippet\main.c snippet_Cy_I2S_SetInterruptMask
1066:Generated_Source\PSoC6\pdl\drivers\peripheral\i2s/cy_i2s.h **** *
1067:Generated_Source\PSoC6\pdl\drivers\peripheral\i2s/cy_i2s.h **** *******************************************************************************/
1068:Generated_Source\PSoC6\pdl\drivers\peripheral\i2s/cy_i2s.h **** __STATIC_INLINE void Cy_I2S_SetInterruptMask(I2S_Type * base, uint32_t interrupt)
1069:Generated_Source\PSoC6\pdl\drivers\peripheral\i2s/cy_i2s.h **** {
1070:Generated_Source\PSoC6\pdl\drivers\peripheral\i2s/cy_i2s.h ****     CY_ASSERT_L2(CY_I2S_IS_INTR_MASK_VALID(interrupt));
1071:Generated_Source\PSoC6\pdl\drivers\peripheral\i2s/cy_i2s.h ****     REG_I2S_INTR_MASK(base) = interrupt;
 762              		.loc 2 1071 0
 763 005c 0020     		movs	r0, #0
 764 005e C4F8080F 		str	r0, [r4, #3848]
 765 0062 70BD     		pop	{r4, r5, r6, pc}
 766              	.LVL62:
 767              	.L73:
 768              	.LBE41:
 769              	.LBE40:
 253:Generated_Source\PSoC6\pdl\drivers\peripheral\i2s/cy_i2s.c ****             {
 254:Generated_Source\PSoC6\pdl\drivers\peripheral\i2s/cy_i2s.c ****                 Cy_I2S_DisableRx(locBase); /* Stop RX operation */
 255:Generated_Source\PSoC6\pdl\drivers\peripheral\i2s/cy_i2s.c ****             }
 256:Generated_Source\PSoC6\pdl\drivers\peripheral\i2s/cy_i2s.c ****             Cy_I2S_SetInterruptMask(locBase, 0UL); /* Disable I2S interrupts */
 257:Generated_Source\PSoC6\pdl\drivers\peripheral\i2s/cy_i2s.c ****             /* Unload FIFOs to not lose data (if needed) */
 258:Generated_Source\PSoC6\pdl\drivers\peripheral\i2s/cy_i2s.c ****             break;
 259:Generated_Source\PSoC6\pdl\drivers\peripheral\i2s/cy_i2s.c ****             
 260:Generated_Source\PSoC6\pdl\drivers\peripheral\i2s/cy_i2s.c ****         case CY_SYSPM_AFTER_TRANSITION:
 261:Generated_Source\PSoC6\pdl\drivers\peripheral\i2s/cy_i2s.c ****             if (0UL != (*locState & I2S_CMD_RX_START_Msk))
 770              		.loc 1 261 0
 771 0064 3368     		ldr	r3, [r6]
 772 0066 13F4803F 		tst	r3, #65536
 773 006a 11D0     		beq	.L76
 774              	.LVL63:
 775              	.LBB42:
 776              	.LBB43:
 828:Generated_Source\PSoC6\pdl\drivers\peripheral\i2s/cy_i2s.h ****     REG_I2S_RX_FIFO_CTL(base)  &= (uint32_t) ~I2S_RX_FIFO_CTL_CLEAR_Msk;
 777              		.loc 2 828 0
 778 006c D4F80033 		ldr	r3, [r4, #768]
 779 0070 43F48033 		orr	r3, r3, #65536
 780 0074 C4F80033 		str	r3, [r4, #768]
 829:Generated_Source\PSoC6\pdl\drivers\peripheral\i2s/cy_i2s.h ****     (void) REG_I2S_RX_FIFO_CTL(base) ;
 781              		.loc 2 829 0
 782 0078 D4F80033 		ldr	r3, [r4, #768]
 783 007c 23F48033 		bic	r3, r3, #65536
 784 0080 C4F80033 		str	r3, [r4, #768]
 830:Generated_Source\PSoC6\pdl\drivers\peripheral\i2s/cy_i2s.h **** }
 785              		.loc 2 830 0
 786 0084 D4F80033 		ldr	r3, [r4, #768]
 787              	.LVL64:
 788              	.LBE43:
ARM GAS  C:\Users\dev\AppData\Local\Temp\ccJYAN2E.s 			page 39


 789              	.LBE42:
 790              	.LBB44:
 791              	.LBB45:
 633:Generated_Source\PSoC6\pdl\drivers\peripheral\i2s/cy_i2s.h **** }
 792              		.loc 2 633 0
 793 0088 236A     		ldr	r3, [r4, #32]
 794 008a 43F48033 		orr	r3, r3, #65536
 795 008e 2362     		str	r3, [r4, #32]
 796              	.LVL65:
 797              	.L76:
 798              	.LBE45:
 799              	.LBE44:
 262:Generated_Source\PSoC6\pdl\drivers\peripheral\i2s/cy_i2s.c ****             {
 263:Generated_Source\PSoC6\pdl\drivers\peripheral\i2s/cy_i2s.c ****                 Cy_I2S_ClearRxFifo(locBase); /* Clear the RX FIFO */
 264:Generated_Source\PSoC6\pdl\drivers\peripheral\i2s/cy_i2s.c ****                 Cy_I2S_EnableRx(locBase); /* Start RX operation */
 265:Generated_Source\PSoC6\pdl\drivers\peripheral\i2s/cy_i2s.c ****             }
 266:Generated_Source\PSoC6\pdl\drivers\peripheral\i2s/cy_i2s.c ****             if (0UL != (*locState & I2S_CMD_TX_START_Msk))
 800              		.loc 1 266 0
 801 0090 3368     		ldr	r3, [r6]
 802 0092 13F0010F 		tst	r3, #1
 803 0096 1ED0     		beq	.L77
 804              	.LVL66:
 805              	.LBB46:
 806              	.LBB47:
 692:Generated_Source\PSoC6\pdl\drivers\peripheral\i2s/cy_i2s.h ****     REG_I2S_TX_FIFO_CTL(base) &= (uint32_t) ~I2S_TX_FIFO_CTL_CLEAR_Msk;
 807              		.loc 2 692 0
 808 0098 D4F80032 		ldr	r3, [r4, #512]
 809 009c 43F48033 		orr	r3, r3, #65536
 810 00a0 C4F80032 		str	r3, [r4, #512]
 693:Generated_Source\PSoC6\pdl\drivers\peripheral\i2s/cy_i2s.h ****     (void) REG_I2S_TX_FIFO_CTL(base);
 811              		.loc 2 693 0
 812 00a4 D4F80032 		ldr	r3, [r4, #512]
 813 00a8 23F48033 		bic	r3, r3, #65536
 814 00ac C4F80032 		str	r3, [r4, #512]
 694:Generated_Source\PSoC6\pdl\drivers\peripheral\i2s/cy_i2s.h **** }
 815              		.loc 2 694 0
 816 00b0 D4F80032 		ldr	r3, [r4, #512]
 817              	.LVL67:
 818              	.LBE47:
 819              	.LBE46:
 820              	.LBB48:
 821              	.LBB49:
 734:Generated_Source\PSoC6\pdl\drivers\peripheral\i2s/cy_i2s.h **** }
 822              		.loc 2 734 0
 823 00b4 0023     		movs	r3, #0
 824 00b6 C4F80832 		str	r3, [r4, #520]
 825              	.LVL68:
 826              	.LBE49:
 827              	.LBE48:
 828              	.LBB50:
 829              	.LBB51:
 830 00ba C4F80832 		str	r3, [r4, #520]
 831              	.LVL69:
 832              	.LBE51:
 833              	.LBE50:
 267:Generated_Source\PSoC6\pdl\drivers\peripheral\i2s/cy_i2s.c ****             {
 268:Generated_Source\PSoC6\pdl\drivers\peripheral\i2s/cy_i2s.c ****                 Cy_I2S_ClearTxFifo(locBase); /* Clear the TX FIFO */
ARM GAS  C:\Users\dev\AppData\Local\Temp\ccJYAN2E.s 			page 40


 269:Generated_Source\PSoC6\pdl\drivers\peripheral\i2s/cy_i2s.c ****                 Cy_I2S_WriteTxData(locBase, 0UL); /* Fill at least one TX frame */
 270:Generated_Source\PSoC6\pdl\drivers\peripheral\i2s/cy_i2s.c ****                 Cy_I2S_WriteTxData(locBase, 0UL);
 271:Generated_Source\PSoC6\pdl\drivers\peripheral\i2s/cy_i2s.c ****                 if (0UL != (*locState & I2S_CMD_TX_PAUSE_Msk))
 834              		.loc 1 271 0
 835 00be 3368     		ldr	r3, [r6]
 836 00c0 13F4807F 		tst	r3, #256
 837 00c4 03D0     		beq	.L78
 838              	.LVL70:
 839              	.LBB52:
 840              	.LBB53:
 572:Generated_Source\PSoC6\pdl\drivers\peripheral\i2s/cy_i2s.h **** }
 841              		.loc 2 572 0
 842 00c6 236A     		ldr	r3, [r4, #32]
 843 00c8 43F48073 		orr	r3, r3, #256
 844 00cc 2362     		str	r3, [r4, #32]
 845              	.LVL71:
 846              	.L78:
 847              	.LBE53:
 848              	.LBE52:
 849              	.LBB54:
 850              	.LBB55:
 554:Generated_Source\PSoC6\pdl\drivers\peripheral\i2s/cy_i2s.h **** }
 851              		.loc 2 554 0
 852 00ce 236A     		ldr	r3, [r4, #32]
 853 00d0 43F00103 		orr	r3, r3, #1
 854 00d4 2362     		str	r3, [r4, #32]
 855              	.LVL72:
 856              	.L77:
 857              	.LBE55:
 858              	.LBE54:
 272:Generated_Source\PSoC6\pdl\drivers\peripheral\i2s/cy_i2s.c ****                 {
 273:Generated_Source\PSoC6\pdl\drivers\peripheral\i2s/cy_i2s.c ****                     Cy_I2S_PauseTx(locBase); /* Restore the TX paused state */
 274:Generated_Source\PSoC6\pdl\drivers\peripheral\i2s/cy_i2s.c ****                 }
 275:Generated_Source\PSoC6\pdl\drivers\peripheral\i2s/cy_i2s.c ****                 Cy_I2S_EnableTx(locBase); /* Start TX operation */
 276:Generated_Source\PSoC6\pdl\drivers\peripheral\i2s/cy_i2s.c ****             }
 277:Generated_Source\PSoC6\pdl\drivers\peripheral\i2s/cy_i2s.c ****             Cy_I2S_ClearInterrupt(locBase, *locInterruptMask); /* Clear possible pending I2S interr
 859              		.loc 1 277 0
 860 00d6 7568     		ldr	r5, [r6, #4]
 861              	.LVL73:
 862              	.LBB56:
 863              	.LBB57:
1007:Generated_Source\PSoC6\pdl\drivers\peripheral\i2s/cy_i2s.h ****     REG_I2S_INTR(base) = interrupt;
 864              		.loc 2 1007 0
 865 00d8 0E4B     		ldr	r3, .L83+4
 866 00da 2B40     		ands	r3, r3, r5
 867 00dc 23B1     		cbz	r3, .L79
 868 00de 40F2EF31 		movw	r1, #1007
 869 00e2 0D48     		ldr	r0, .L83+8
 870 00e4 FFF7FEFF 		bl	Cy_SysLib_AssertFailed
 871              	.LVL74:
 872              	.L79:
1008:Generated_Source\PSoC6\pdl\drivers\peripheral\i2s/cy_i2s.h ****     (void) REG_I2S_INTR(base);
 873              		.loc 2 1008 0
 874 00e8 C4F8005F 		str	r5, [r4, #3840]
1009:Generated_Source\PSoC6\pdl\drivers\peripheral\i2s/cy_i2s.h **** }
 875              		.loc 2 1009 0
 876 00ec D4F8003F 		ldr	r3, [r4, #3840]
ARM GAS  C:\Users\dev\AppData\Local\Temp\ccJYAN2E.s 			page 41


 877              	.LVL75:
 878              	.LBE57:
 879              	.LBE56:
 278:Generated_Source\PSoC6\pdl\drivers\peripheral\i2s/cy_i2s.c ****             Cy_I2S_SetInterruptMask(locBase, *locInterruptMask); /* Restore I2S interrupts */
 880              		.loc 1 278 0
 881 00f0 7568     		ldr	r5, [r6, #4]
 882              	.LVL76:
 883              	.LBB58:
 884              	.LBB59:
1070:Generated_Source\PSoC6\pdl\drivers\peripheral\i2s/cy_i2s.h ****     REG_I2S_INTR_MASK(base) = interrupt;
 885              		.loc 2 1070 0
 886 00f2 084B     		ldr	r3, .L83+4
 887 00f4 2B40     		ands	r3, r3, r5
 888 00f6 23B1     		cbz	r3, .L80
 889 00f8 40F22E41 		movw	r1, #1070
 890 00fc 0648     		ldr	r0, .L83+8
 891 00fe FFF7FEFF 		bl	Cy_SysLib_AssertFailed
 892              	.LVL77:
 893              	.L80:
 894              		.loc 2 1071 0
 895 0102 C4F8085F 		str	r5, [r4, #3848]
 896              	.LBE59:
 897              	.LBE58:
 233:Generated_Source\PSoC6\pdl\drivers\peripheral\i2s/cy_i2s.c ****     CY_ASSERT_L1(NULL != callbackParams->context);
 898              		.loc 1 233 0
 899 0106 0020     		movs	r0, #0
 900 0108 70BD     		pop	{r4, r5, r6, pc}
 901              	.LVL78:
 902              	.L81:
 279:Generated_Source\PSoC6\pdl\drivers\peripheral\i2s/cy_i2s.c ****             break;
 280:Generated_Source\PSoC6\pdl\drivers\peripheral\i2s/cy_i2s.c ****         
 281:Generated_Source\PSoC6\pdl\drivers\peripheral\i2s/cy_i2s.c ****         default:
 282:Generated_Source\PSoC6\pdl\drivers\peripheral\i2s/cy_i2s.c ****             ret = CY_SYSPM_FAIL;
 903              		.loc 1 282 0
 904 010a 0448     		ldr	r0, .L83+12
 905              	.LVL79:
 283:Generated_Source\PSoC6\pdl\drivers\peripheral\i2s/cy_i2s.c ****             break;
 284:Generated_Source\PSoC6\pdl\drivers\peripheral\i2s/cy_i2s.c ****     }
 285:Generated_Source\PSoC6\pdl\drivers\peripheral\i2s/cy_i2s.c ****         
 286:Generated_Source\PSoC6\pdl\drivers\peripheral\i2s/cy_i2s.c ****     return(ret);
 287:Generated_Source\PSoC6\pdl\drivers\peripheral\i2s/cy_i2s.c **** }
 906              		.loc 1 287 0
 907 010c 70BD     		pop	{r4, r5, r6, pc}
 908              	.LVL80:
 909              	.L84:
 910 010e 00BF     		.align	2
 911              	.L83:
 912 0110 00000000 		.word	.LC0
 913 0114 8CFE92FE 		.word	-23921012
 914 0118 3C000000 		.word	.LC1
 915 011c FF004200 		.word	4325631
 916              		.cfi_endproc
 917              	.LFE196:
 918              		.size	Cy_I2S_DeepSleepCallback, .-Cy_I2S_DeepSleepCallback
 919              		.section	.rodata.str1.4,"aMS",%progbits,1
 920              		.align	2
 921              	.LC0:
ARM GAS  C:\Users\dev\AppData\Local\Temp\ccJYAN2E.s 			page 42


 922 0000 47656E65 		.ascii	"Generated_Source\\PSoC6\\pdl\\drivers\\peripheral\\"
 922      72617465 
 922      645F536F 
 922      75726365 
 922      5C50536F 
 923 002e 6932735C 		.ascii	"i2s\\cy_i2s.c\000"
 923      63795F69 
 923      32732E63 
 923      00
 924 003b 00       		.space	1
 925              	.LC1:
 926 003c 47656E65 		.ascii	"Generated_Source\\PSoC6\\pdl\\drivers\\peripheral\\"
 926      72617465 
 926      645F536F 
 926      75726365 
 926      5C50536F 
 927 006a 6932735C 		.ascii	"i2s\\cy_i2s.h\000"
 927      63795F69 
 927      32732E68 
 927      00
 928              		.text
 929              	.Letext0:
 930              		.file 3 "c:\\program files (x86)\\cypress\\psoc creator\\4.4\\psoc creator\\import\\gnu\\arm\\5.4.
 931              		.file 4 "c:\\program files (x86)\\cypress\\psoc creator\\4.4\\psoc creator\\import\\gnu\\arm\\5.4.
 932              		.file 5 "Generated_Source\\PSoC6\\pdl\\devices/psoc6/include/ip/cyip_i2s.h"
 933              		.file 6 "Generated_Source\\PSoC6\\pdl\\drivers/peripheral/device/cy_device.h"
 934              		.file 7 "Generated_Source\\PSoC6\\pdl\\devices/psoc6/include/psoc6_01_config.h"
 935              		.file 8 "Generated_Source\\PSoC6\\pdl\\drivers/peripheral/syslib/cy_syslib.h"
 936              		.file 9 "Generated_Source\\PSoC6\\pdl\\drivers/peripheral/syspm/cy_syspm.h"
 937              		.file 10 "Generated_Source\\PSoC6\\pdl\\cmsis/include/core_cm4.h"
 938              		.section	.debug_info,"",%progbits
 939              	.Ldebug_info0:
 940 0000 6A110000 		.4byte	0x116a
 941 0004 0400     		.2byte	0x4
 942 0006 00000000 		.4byte	.Ldebug_abbrev0
 943 000a 04       		.byte	0x4
 944 000b 01       		.uleb128 0x1
 945 000c 66010000 		.4byte	.LASF240
 946 0010 0C       		.byte	0xc
 947 0011 0A030000 		.4byte	.LASF241
 948 0015 3D080000 		.4byte	.LASF242
 949 0019 18000000 		.4byte	.Ldebug_ranges0+0x18
 950 001d 00000000 		.4byte	0
 951 0021 00000000 		.4byte	.Ldebug_line0
 952 0025 02       		.uleb128 0x2
 953 0026 04       		.byte	0x4
 954 0027 05       		.byte	0x5
 955 0028 696E7400 		.ascii	"int\000"
 956 002c 03       		.uleb128 0x3
 957 002d 04       		.byte	0x4
 958 002e 07       		.byte	0x7
 959 002f 97030000 		.4byte	.LASF0
 960 0033 03       		.uleb128 0x3
 961 0034 08       		.byte	0x8
 962 0035 05       		.byte	0x5
 963 0036 76020000 		.4byte	.LASF1
 964 003a 03       		.uleb128 0x3
ARM GAS  C:\Users\dev\AppData\Local\Temp\ccJYAN2E.s 			page 43


 965 003b 08       		.byte	0x8
 966 003c 04       		.byte	0x4
 967 003d BA0B0000 		.4byte	.LASF2
 968 0041 03       		.uleb128 0x3
 969 0042 01       		.byte	0x1
 970 0043 06       		.byte	0x6
 971 0044 84020000 		.4byte	.LASF3
 972 0048 04       		.uleb128 0x4
 973 0049 C3000000 		.4byte	.LASF5
 974 004d 03       		.byte	0x3
 975 004e 1D       		.byte	0x1d
 976 004f 53000000 		.4byte	0x53
 977 0053 03       		.uleb128 0x3
 978 0054 01       		.byte	0x1
 979 0055 08       		.byte	0x8
 980 0056 3E0A0000 		.4byte	.LASF4
 981 005a 04       		.uleb128 0x4
 982 005b D9040000 		.4byte	.LASF6
 983 005f 03       		.byte	0x3
 984 0060 29       		.byte	0x29
 985 0061 65000000 		.4byte	0x65
 986 0065 03       		.uleb128 0x3
 987 0066 02       		.byte	0x2
 988 0067 05       		.byte	0x5
 989 0068 680A0000 		.4byte	.LASF7
 990 006c 04       		.uleb128 0x4
 991 006d 0F0C0000 		.4byte	.LASF8
 992 0071 03       		.byte	0x3
 993 0072 2B       		.byte	0x2b
 994 0073 77000000 		.4byte	0x77
 995 0077 03       		.uleb128 0x3
 996 0078 02       		.byte	0x2
 997 0079 07       		.byte	0x7
 998 007a 3E040000 		.4byte	.LASF9
 999 007e 04       		.uleb128 0x4
 1000 007f E9060000 		.4byte	.LASF10
 1001 0083 03       		.byte	0x3
 1002 0084 3F       		.byte	0x3f
 1003 0085 89000000 		.4byte	0x89
 1004 0089 03       		.uleb128 0x3
 1005 008a 04       		.byte	0x4
 1006 008b 05       		.byte	0x5
 1007 008c 62030000 		.4byte	.LASF11
 1008 0090 04       		.uleb128 0x4
 1009 0091 8B040000 		.4byte	.LASF12
 1010 0095 03       		.byte	0x3
 1011 0096 41       		.byte	0x41
 1012 0097 9B000000 		.4byte	0x9b
 1013 009b 03       		.uleb128 0x3
 1014 009c 04       		.byte	0x4
 1015 009d 07       		.byte	0x7
 1016 009e BA050000 		.4byte	.LASF13
 1017 00a2 03       		.uleb128 0x3
 1018 00a3 08       		.byte	0x8
 1019 00a4 07       		.byte	0x7
 1020 00a5 21010000 		.4byte	.LASF14
 1021 00a9 04       		.uleb128 0x4
ARM GAS  C:\Users\dev\AppData\Local\Temp\ccJYAN2E.s 			page 44


 1022 00aa 3B0C0000 		.4byte	.LASF15
 1023 00ae 04       		.byte	0x4
 1024 00af 18       		.byte	0x18
 1025 00b0 48000000 		.4byte	0x48
 1026 00b4 04       		.uleb128 0x4
 1027 00b5 6E020000 		.4byte	.LASF16
 1028 00b9 04       		.byte	0x4
 1029 00ba 20       		.byte	0x20
 1030 00bb 5A000000 		.4byte	0x5a
 1031 00bf 04       		.uleb128 0x4
 1032 00c0 D0060000 		.4byte	.LASF17
 1033 00c4 04       		.byte	0x4
 1034 00c5 24       		.byte	0x24
 1035 00c6 6C000000 		.4byte	0x6c
 1036 00ca 04       		.uleb128 0x4
 1037 00cb 360A0000 		.4byte	.LASF18
 1038 00cf 04       		.byte	0x4
 1039 00d0 2C       		.byte	0x2c
 1040 00d1 7E000000 		.4byte	0x7e
 1041 00d5 04       		.uleb128 0x4
 1042 00d6 8A0B0000 		.4byte	.LASF19
 1043 00da 04       		.byte	0x4
 1044 00db 30       		.byte	0x30
 1045 00dc 90000000 		.4byte	0x90
 1046 00e0 05       		.uleb128 0x5
 1047 00e1 D5000000 		.4byte	0xd5
 1048 00e5 06       		.uleb128 0x6
 1049 00e6 E0000000 		.4byte	0xe0
 1050 00ea 07       		.uleb128 0x7
 1051 00eb E5000000 		.4byte	0xe5
 1052 00ef FA000000 		.4byte	0xfa
 1053 00f3 08       		.uleb128 0x8
 1054 00f4 FA000000 		.4byte	0xfa
 1055 00f8 02       		.byte	0x2
 1056 00f9 00       		.byte	0
 1057 00fa 03       		.uleb128 0x3
 1058 00fb 04       		.byte	0x4
 1059 00fc 07       		.byte	0x7
 1060 00fd AE070000 		.4byte	.LASF20
 1061 0101 07       		.uleb128 0x7
 1062 0102 E5000000 		.4byte	0xe5
 1063 0106 11010000 		.4byte	0x111
 1064 010a 08       		.uleb128 0x8
 1065 010b FA000000 		.4byte	0xfa
 1066 010f 0E       		.byte	0xe
 1067 0110 00       		.byte	0
 1068 0111 07       		.uleb128 0x7
 1069 0112 E5000000 		.4byte	0xe5
 1070 0116 21010000 		.4byte	0x121
 1071 011a 08       		.uleb128 0x8
 1072 011b FA000000 		.4byte	0xfa
 1073 011f 06       		.byte	0x6
 1074 0120 00       		.byte	0
 1075 0121 07       		.uleb128 0x7
 1076 0122 E5000000 		.4byte	0xe5
 1077 0126 31010000 		.4byte	0x131
 1078 012a 08       		.uleb128 0x8
ARM GAS  C:\Users\dev\AppData\Local\Temp\ccJYAN2E.s 			page 45


 1079 012b FA000000 		.4byte	0xfa
 1080 012f 3C       		.byte	0x3c
 1081 0130 00       		.byte	0
 1082 0131 07       		.uleb128 0x7
 1083 0132 E5000000 		.4byte	0xe5
 1084 0136 41010000 		.4byte	0x141
 1085 013a 08       		.uleb128 0x8
 1086 013b FA000000 		.4byte	0xfa
 1087 013f 05       		.byte	0x5
 1088 0140 00       		.byte	0
 1089 0141 09       		.uleb128 0x9
 1090 0142 100F     		.2byte	0xf10
 1091 0144 05       		.byte	0x5
 1092 0145 21       		.byte	0x21
 1093 0146 9C020000 		.4byte	0x29c
 1094 014a 0A       		.uleb128 0xa
 1095 014b 43544C00 		.ascii	"CTL\000"
 1096 014f 05       		.byte	0x5
 1097 0150 22       		.byte	0x22
 1098 0151 E0000000 		.4byte	0xe0
 1099 0155 00       		.byte	0
 1100 0156 0B       		.uleb128 0xb
 1101 0157 B40A0000 		.4byte	.LASF21
 1102 015b 05       		.byte	0x5
 1103 015c 23       		.byte	0x23
 1104 015d A1020000 		.4byte	0x2a1
 1105 0161 04       		.byte	0x4
 1106 0162 0B       		.uleb128 0xb
 1107 0163 17010000 		.4byte	.LASF22
 1108 0167 05       		.byte	0x5
 1109 0168 24       		.byte	0x24
 1110 0169 E0000000 		.4byte	0xe0
 1111 016d 10       		.byte	0x10
 1112 016e 0B       		.uleb128 0xb
 1113 016f A7090000 		.4byte	.LASF23
 1114 0173 05       		.byte	0x5
 1115 0174 25       		.byte	0x25
 1116 0175 AB020000 		.4byte	0x2ab
 1117 0179 14       		.byte	0x14
 1118 017a 0A       		.uleb128 0xa
 1119 017b 434D4400 		.ascii	"CMD\000"
 1120 017f 05       		.byte	0x5
 1121 0180 26       		.byte	0x26
 1122 0181 E0000000 		.4byte	0xe0
 1123 0185 20       		.byte	0x20
 1124 0186 0B       		.uleb128 0xb
 1125 0187 480B0000 		.4byte	.LASF24
 1126 018b 05       		.byte	0x5
 1127 018c 27       		.byte	0x27
 1128 018d B5020000 		.4byte	0x2b5
 1129 0191 24       		.byte	0x24
 1130 0192 0B       		.uleb128 0xb
 1131 0193 69050000 		.4byte	.LASF25
 1132 0197 05       		.byte	0x5
 1133 0198 28       		.byte	0x28
 1134 0199 E0000000 		.4byte	0xe0
 1135 019d 40       		.byte	0x40
ARM GAS  C:\Users\dev\AppData\Local\Temp\ccJYAN2E.s 			page 46


 1136 019e 0B       		.uleb128 0xb
 1137 019f BB090000 		.4byte	.LASF26
 1138 01a3 05       		.byte	0x5
 1139 01a4 29       		.byte	0x29
 1140 01a5 BF020000 		.4byte	0x2bf
 1141 01a9 44       		.byte	0x44
 1142 01aa 0B       		.uleb128 0xb
 1143 01ab C90D0000 		.4byte	.LASF27
 1144 01af 05       		.byte	0x5
 1145 01b0 2A       		.byte	0x2a
 1146 01b1 E0000000 		.4byte	0xe0
 1147 01b5 80       		.byte	0x80
 1148 01b6 0B       		.uleb128 0xb
 1149 01b7 E2000000 		.4byte	.LASF28
 1150 01bb 05       		.byte	0x5
 1151 01bc 2B       		.byte	0x2b
 1152 01bd E0000000 		.4byte	0xe0
 1153 01c1 84       		.byte	0x84
 1154 01c2 0B       		.uleb128 0xb
 1155 01c3 DA0C0000 		.4byte	.LASF29
 1156 01c7 05       		.byte	0x5
 1157 01c8 2C       		.byte	0x2c
 1158 01c9 C9020000 		.4byte	0x2c9
 1159 01cd 88       		.byte	0x88
 1160 01ce 0B       		.uleb128 0xb
 1161 01cf 550D0000 		.4byte	.LASF30
 1162 01d3 05       		.byte	0x5
 1163 01d4 2D       		.byte	0x2d
 1164 01d5 E0000000 		.4byte	0xe0
 1165 01d9 A0       		.byte	0xa0
 1166 01da 0B       		.uleb128 0xb
 1167 01db DD0A0000 		.4byte	.LASF31
 1168 01df 05       		.byte	0x5
 1169 01e0 2E       		.byte	0x2e
 1170 01e1 E0000000 		.4byte	0xe0
 1171 01e5 A4       		.byte	0xa4
 1172 01e6 0B       		.uleb128 0xb
 1173 01e7 D1090000 		.4byte	.LASF32
 1174 01eb 05       		.byte	0x5
 1175 01ec 2F       		.byte	0x2f
 1176 01ed E3020000 		.4byte	0x2e3
 1177 01f1 A8       		.byte	0xa8
 1178 01f2 0C       		.uleb128 0xc
 1179 01f3 5C0A0000 		.4byte	.LASF33
 1180 01f7 05       		.byte	0x5
 1181 01f8 30       		.byte	0x30
 1182 01f9 E0000000 		.4byte	0xe0
 1183 01fd 0002     		.2byte	0x200
 1184 01ff 0C       		.uleb128 0xc
 1185 0200 9F070000 		.4byte	.LASF34
 1186 0204 05       		.byte	0x5
 1187 0205 31       		.byte	0x31
 1188 0206 E5000000 		.4byte	0xe5
 1189 020a 0402     		.2byte	0x204
 1190 020c 0C       		.uleb128 0xc
 1191 020d 0A0D0000 		.4byte	.LASF35
 1192 0211 05       		.byte	0x5
ARM GAS  C:\Users\dev\AppData\Local\Temp\ccJYAN2E.s 			page 47


 1193 0212 32       		.byte	0x32
 1194 0213 E0000000 		.4byte	0xe0
 1195 0217 0802     		.2byte	0x208
 1196 0219 0C       		.uleb128 0xc
 1197 021a DB090000 		.4byte	.LASF36
 1198 021e 05       		.byte	0x5
 1199 021f 33       		.byte	0x33
 1200 0220 ED020000 		.4byte	0x2ed
 1201 0224 0C02     		.2byte	0x20c
 1202 0226 0C       		.uleb128 0xc
 1203 0227 83050000 		.4byte	.LASF37
 1204 022b 05       		.byte	0x5
 1205 022c 34       		.byte	0x34
 1206 022d E0000000 		.4byte	0xe0
 1207 0231 0003     		.2byte	0x300
 1208 0233 0C       		.uleb128 0xc
 1209 0234 430C0000 		.4byte	.LASF38
 1210 0238 05       		.byte	0x5
 1211 0239 35       		.byte	0x35
 1212 023a E5000000 		.4byte	0xe5
 1213 023e 0403     		.2byte	0x304
 1214 0240 0C       		.uleb128 0xc
 1215 0241 F20C0000 		.4byte	.LASF39
 1216 0245 05       		.byte	0x5
 1217 0246 36       		.byte	0x36
 1218 0247 E5000000 		.4byte	0xe5
 1219 024b 0803     		.2byte	0x308
 1220 024d 0C       		.uleb128 0xc
 1221 024e 450E0000 		.4byte	.LASF40
 1222 0252 05       		.byte	0x5
 1223 0253 37       		.byte	0x37
 1224 0254 E5000000 		.4byte	0xe5
 1225 0258 0C03     		.2byte	0x30c
 1226 025a 0C       		.uleb128 0xc
 1227 025b E5090000 		.4byte	.LASF41
 1228 025f 05       		.byte	0x5
 1229 0260 38       		.byte	0x38
 1230 0261 08030000 		.4byte	0x308
 1231 0265 1003     		.2byte	0x310
 1232 0267 0C       		.uleb128 0xc
 1233 0268 8C080000 		.4byte	.LASF42
 1234 026c 05       		.byte	0x5
 1235 026d 39       		.byte	0x39
 1236 026e E0000000 		.4byte	0xe0
 1237 0272 000F     		.2byte	0xf00
 1238 0274 0C       		.uleb128 0xc
 1239 0275 55070000 		.4byte	.LASF43
 1240 0279 05       		.byte	0x5
 1241 027a 3A       		.byte	0x3a
 1242 027b E0000000 		.4byte	0xe0
 1243 027f 040F     		.2byte	0xf04
 1244 0281 0C       		.uleb128 0xc
 1245 0282 16060000 		.4byte	.LASF44
 1246 0286 05       		.byte	0x5
 1247 0287 3B       		.byte	0x3b
 1248 0288 E0000000 		.4byte	0xe0
 1249 028c 080F     		.2byte	0xf08
ARM GAS  C:\Users\dev\AppData\Local\Temp\ccJYAN2E.s 			page 48


 1250 028e 0C       		.uleb128 0xc
 1251 028f 55090000 		.4byte	.LASF45
 1252 0293 05       		.byte	0x5
 1253 0294 3C       		.byte	0x3c
 1254 0295 E5000000 		.4byte	0xe5
 1255 0299 0C0F     		.2byte	0xf0c
 1256 029b 00       		.byte	0
 1257 029c 05       		.uleb128 0x5
 1258 029d EA000000 		.4byte	0xea
 1259 02a1 06       		.uleb128 0x6
 1260 02a2 9C020000 		.4byte	0x29c
 1261 02a6 05       		.uleb128 0x5
 1262 02a7 EA000000 		.4byte	0xea
 1263 02ab 06       		.uleb128 0x6
 1264 02ac A6020000 		.4byte	0x2a6
 1265 02b0 05       		.uleb128 0x5
 1266 02b1 11010000 		.4byte	0x111
 1267 02b5 06       		.uleb128 0x6
 1268 02b6 B0020000 		.4byte	0x2b0
 1269 02ba 05       		.uleb128 0x5
 1270 02bb 01010000 		.4byte	0x101
 1271 02bf 06       		.uleb128 0x6
 1272 02c0 BA020000 		.4byte	0x2ba
 1273 02c4 05       		.uleb128 0x5
 1274 02c5 31010000 		.4byte	0x131
 1275 02c9 06       		.uleb128 0x6
 1276 02ca C4020000 		.4byte	0x2c4
 1277 02ce 07       		.uleb128 0x7
 1278 02cf E5000000 		.4byte	0xe5
 1279 02d3 DE020000 		.4byte	0x2de
 1280 02d7 08       		.uleb128 0x8
 1281 02d8 FA000000 		.4byte	0xfa
 1282 02dc 55       		.byte	0x55
 1283 02dd 00       		.byte	0
 1284 02de 05       		.uleb128 0x5
 1285 02df CE020000 		.4byte	0x2ce
 1286 02e3 06       		.uleb128 0x6
 1287 02e4 DE020000 		.4byte	0x2de
 1288 02e8 05       		.uleb128 0x5
 1289 02e9 21010000 		.4byte	0x121
 1290 02ed 06       		.uleb128 0x6
 1291 02ee E8020000 		.4byte	0x2e8
 1292 02f2 07       		.uleb128 0x7
 1293 02f3 E5000000 		.4byte	0xe5
 1294 02f7 03030000 		.4byte	0x303
 1295 02fb 0D       		.uleb128 0xd
 1296 02fc FA000000 		.4byte	0xfa
 1297 0300 FB02     		.2byte	0x2fb
 1298 0302 00       		.byte	0
 1299 0303 05       		.uleb128 0x5
 1300 0304 F2020000 		.4byte	0x2f2
 1301 0308 06       		.uleb128 0x6
 1302 0309 03030000 		.4byte	0x303
 1303 030d 04       		.uleb128 0x4
 1304 030e 140B0000 		.4byte	.LASF46
 1305 0312 05       		.byte	0x5
 1306 0313 3D       		.byte	0x3d
ARM GAS  C:\Users\dev\AppData\Local\Temp\ccJYAN2E.s 			page 49


 1307 0314 41010000 		.4byte	0x141
 1308 0318 0E       		.uleb128 0xe
 1309 0319 B8       		.byte	0xb8
 1310 031a 06       		.byte	0x6
 1311 031b 34       		.byte	0x34
 1312 031c 29070000 		.4byte	0x729
 1313 0320 0B       		.uleb128 0xb
 1314 0321 05010000 		.4byte	.LASF47
 1315 0325 06       		.byte	0x6
 1316 0326 37       		.byte	0x37
 1317 0327 D5000000 		.4byte	0xd5
 1318 032b 00       		.byte	0
 1319 032c 0B       		.uleb128 0xb
 1320 032d B5020000 		.4byte	.LASF48
 1321 0331 06       		.byte	0x6
 1322 0332 38       		.byte	0x38
 1323 0333 D5000000 		.4byte	0xd5
 1324 0337 04       		.byte	0x4
 1325 0338 0B       		.uleb128 0xb
 1326 0339 A4030000 		.4byte	.LASF49
 1327 033d 06       		.byte	0x6
 1328 033e 39       		.byte	0x39
 1329 033f D5000000 		.4byte	0xd5
 1330 0343 08       		.byte	0x8
 1331 0344 0B       		.uleb128 0xb
 1332 0345 280A0000 		.4byte	.LASF50
 1333 0349 06       		.byte	0x6
 1334 034a 3A       		.byte	0x3a
 1335 034b D5000000 		.4byte	0xd5
 1336 034f 0C       		.byte	0xc
 1337 0350 0B       		.uleb128 0xb
 1338 0351 C0020000 		.4byte	.LASF51
 1339 0355 06       		.byte	0x6
 1340 0356 3B       		.byte	0x3b
 1341 0357 D5000000 		.4byte	0xd5
 1342 035b 10       		.byte	0x10
 1343 035c 0B       		.uleb128 0xb
 1344 035d 7F030000 		.4byte	.LASF52
 1345 0361 06       		.byte	0x6
 1346 0362 3C       		.byte	0x3c
 1347 0363 D5000000 		.4byte	0xd5
 1348 0367 14       		.byte	0x14
 1349 0368 0B       		.uleb128 0xb
 1350 0369 20060000 		.4byte	.LASF53
 1351 036d 06       		.byte	0x6
 1352 036e 3D       		.byte	0x3d
 1353 036f D5000000 		.4byte	0xd5
 1354 0373 18       		.byte	0x18
 1355 0374 0B       		.uleb128 0xb
 1356 0375 A5000000 		.4byte	.LASF54
 1357 0379 06       		.byte	0x6
 1358 037a 3E       		.byte	0x3e
 1359 037b D5000000 		.4byte	0xd5
 1360 037f 1C       		.byte	0x1c
 1361 0380 0B       		.uleb128 0xb
 1362 0381 AB0E0000 		.4byte	.LASF55
 1363 0385 06       		.byte	0x6
ARM GAS  C:\Users\dev\AppData\Local\Temp\ccJYAN2E.s 			page 50


 1364 0386 3F       		.byte	0x3f
 1365 0387 D5000000 		.4byte	0xd5
 1366 038b 20       		.byte	0x20
 1367 038c 0B       		.uleb128 0xb
 1368 038d 00090000 		.4byte	.LASF56
 1369 0391 06       		.byte	0x6
 1370 0392 40       		.byte	0x40
 1371 0393 D5000000 		.4byte	0xd5
 1372 0397 24       		.byte	0x24
 1373 0398 0B       		.uleb128 0xb
 1374 0399 5E070000 		.4byte	.LASF57
 1375 039d 06       		.byte	0x6
 1376 039e 43       		.byte	0x43
 1377 039f A9000000 		.4byte	0xa9
 1378 03a3 28       		.byte	0x28
 1379 03a4 0B       		.uleb128 0xb
 1380 03a5 51040000 		.4byte	.LASF58
 1381 03a9 06       		.byte	0x6
 1382 03aa 44       		.byte	0x44
 1383 03ab A9000000 		.4byte	0xa9
 1384 03af 29       		.byte	0x29
 1385 03b0 0B       		.uleb128 0xb
 1386 03b1 A10E0000 		.4byte	.LASF59
 1387 03b5 06       		.byte	0x6
 1388 03b6 45       		.byte	0x45
 1389 03b7 A9000000 		.4byte	0xa9
 1390 03bb 2A       		.byte	0x2a
 1391 03bc 0B       		.uleb128 0xb
 1392 03bd F2080000 		.4byte	.LASF60
 1393 03c1 06       		.byte	0x6
 1394 03c2 46       		.byte	0x46
 1395 03c3 A9000000 		.4byte	0xa9
 1396 03c7 2B       		.byte	0x2b
 1397 03c8 0B       		.uleb128 0xb
 1398 03c9 C4060000 		.4byte	.LASF61
 1399 03cd 06       		.byte	0x6
 1400 03ce 47       		.byte	0x47
 1401 03cf A9000000 		.4byte	0xa9
 1402 03d3 2C       		.byte	0x2c
 1403 03d4 0B       		.uleb128 0xb
 1404 03d5 630C0000 		.4byte	.LASF62
 1405 03d9 06       		.byte	0x6
 1406 03da 48       		.byte	0x48
 1407 03db A9000000 		.4byte	0xa9
 1408 03df 2D       		.byte	0x2d
 1409 03e0 0B       		.uleb128 0xb
 1410 03e1 C9020000 		.4byte	.LASF63
 1411 03e5 06       		.byte	0x6
 1412 03e6 49       		.byte	0x49
 1413 03e7 A9000000 		.4byte	0xa9
 1414 03eb 2E       		.byte	0x2e
 1415 03ec 0B       		.uleb128 0xb
 1416 03ed 7E070000 		.4byte	.LASF64
 1417 03f1 06       		.byte	0x6
 1418 03f2 4A       		.byte	0x4a
 1419 03f3 A9000000 		.4byte	0xa9
 1420 03f7 2F       		.byte	0x2f
ARM GAS  C:\Users\dev\AppData\Local\Temp\ccJYAN2E.s 			page 51


 1421 03f8 0B       		.uleb128 0xb
 1422 03f9 CB0B0000 		.4byte	.LASF65
 1423 03fd 06       		.byte	0x6
 1424 03fe 4B       		.byte	0x4b
 1425 03ff A9000000 		.4byte	0xa9
 1426 0403 30       		.byte	0x30
 1427 0404 0B       		.uleb128 0xb
 1428 0405 EC050000 		.4byte	.LASF66
 1429 0409 06       		.byte	0x6
 1430 040a 4E       		.byte	0x4e
 1431 040b A9000000 		.4byte	0xa9
 1432 040f 31       		.byte	0x31
 1433 0410 0B       		.uleb128 0xb
 1434 0411 B5000000 		.4byte	.LASF67
 1435 0415 06       		.byte	0x6
 1436 0416 4F       		.byte	0x4f
 1437 0417 A9000000 		.4byte	0xa9
 1438 041b 32       		.byte	0x32
 1439 041c 0B       		.uleb128 0xb
 1440 041d 46050000 		.4byte	.LASF68
 1441 0421 06       		.byte	0x6
 1442 0422 50       		.byte	0x50
 1443 0423 A9000000 		.4byte	0xa9
 1444 0427 33       		.byte	0x33
 1445 0428 0B       		.uleb128 0xb
 1446 0429 E1070000 		.4byte	.LASF69
 1447 042d 06       		.byte	0x6
 1448 042e 51       		.byte	0x51
 1449 042f A9000000 		.4byte	0xa9
 1450 0433 34       		.byte	0x34
 1451 0434 0B       		.uleb128 0xb
 1452 0435 FD0C0000 		.4byte	.LASF70
 1453 0439 06       		.byte	0x6
 1454 043a 52       		.byte	0x52
 1455 043b B4000000 		.4byte	0xb4
 1456 043f 36       		.byte	0x36
 1457 0440 0B       		.uleb128 0xb
 1458 0441 DD030000 		.4byte	.LASF71
 1459 0445 06       		.byte	0x6
 1460 0446 53       		.byte	0x53
 1461 0447 B4000000 		.4byte	0xb4
 1462 044b 38       		.byte	0x38
 1463 044c 0B       		.uleb128 0xb
 1464 044d 400D0000 		.4byte	.LASF72
 1465 0451 06       		.byte	0x6
 1466 0452 54       		.byte	0x54
 1467 0453 B4000000 		.4byte	0xb4
 1468 0457 3A       		.byte	0x3a
 1469 0458 0B       		.uleb128 0xb
 1470 0459 7D0E0000 		.4byte	.LASF73
 1471 045d 06       		.byte	0x6
 1472 045e 55       		.byte	0x55
 1473 045f A9000000 		.4byte	0xa9
 1474 0463 3C       		.byte	0x3c
 1475 0464 0B       		.uleb128 0xb
 1476 0465 04040000 		.4byte	.LASF74
 1477 0469 06       		.byte	0x6
ARM GAS  C:\Users\dev\AppData\Local\Temp\ccJYAN2E.s 			page 52


 1478 046a 56       		.byte	0x56
 1479 046b A9000000 		.4byte	0xa9
 1480 046f 3D       		.byte	0x3d
 1481 0470 0B       		.uleb128 0xb
 1482 0471 5D0B0000 		.4byte	.LASF75
 1483 0475 06       		.byte	0x6
 1484 0476 57       		.byte	0x57
 1485 0477 A9000000 		.4byte	0xa9
 1486 047b 3E       		.byte	0x3e
 1487 047c 0B       		.uleb128 0xb
 1488 047d 3C020000 		.4byte	.LASF76
 1489 0481 06       		.byte	0x6
 1490 0482 58       		.byte	0x58
 1491 0483 A9000000 		.4byte	0xa9
 1492 0487 3F       		.byte	0x3f
 1493 0488 0B       		.uleb128 0xb
 1494 0489 0B090000 		.4byte	.LASF77
 1495 048d 06       		.byte	0x6
 1496 048e 59       		.byte	0x59
 1497 048f A9000000 		.4byte	0xa9
 1498 0493 40       		.byte	0x40
 1499 0494 0B       		.uleb128 0xb
 1500 0495 A6040000 		.4byte	.LASF78
 1501 0499 06       		.byte	0x6
 1502 049a 5A       		.byte	0x5a
 1503 049b A9000000 		.4byte	0xa9
 1504 049f 41       		.byte	0x41
 1505 04a0 0B       		.uleb128 0xb
 1506 04a1 F3060000 		.4byte	.LASF79
 1507 04a5 06       		.byte	0x6
 1508 04a6 5B       		.byte	0x5b
 1509 04a7 A9000000 		.4byte	0xa9
 1510 04ab 42       		.byte	0x42
 1511 04ac 0B       		.uleb128 0xb
 1512 04ad BD080000 		.4byte	.LASF80
 1513 04b1 06       		.byte	0x6
 1514 04b2 5C       		.byte	0x5c
 1515 04b3 A9000000 		.4byte	0xa9
 1516 04b7 43       		.byte	0x43
 1517 04b8 0B       		.uleb128 0xb
 1518 04b9 AD030000 		.4byte	.LASF81
 1519 04bd 06       		.byte	0x6
 1520 04be 5D       		.byte	0x5d
 1521 04bf A9000000 		.4byte	0xa9
 1522 04c3 44       		.byte	0x44
 1523 04c4 0B       		.uleb128 0xb
 1524 04c5 930B0000 		.4byte	.LASF82
 1525 04c9 06       		.byte	0x6
 1526 04ca 5E       		.byte	0x5e
 1527 04cb D5000000 		.4byte	0xd5
 1528 04cf 48       		.byte	0x48
 1529 04d0 0B       		.uleb128 0xb
 1530 04d1 89030000 		.4byte	.LASF83
 1531 04d5 06       		.byte	0x6
 1532 04d6 5F       		.byte	0x5f
 1533 04d7 D5000000 		.4byte	0xd5
 1534 04db 4C       		.byte	0x4c
ARM GAS  C:\Users\dev\AppData\Local\Temp\ccJYAN2E.s 			page 53


 1535 04dc 0B       		.uleb128 0xb
 1536 04dd 45010000 		.4byte	.LASF84
 1537 04e1 06       		.byte	0x6
 1538 04e2 60       		.byte	0x60
 1539 04e3 A9000000 		.4byte	0xa9
 1540 04e7 50       		.byte	0x50
 1541 04e8 0B       		.uleb128 0xb
 1542 04e9 48020000 		.4byte	.LASF85
 1543 04ed 06       		.byte	0x6
 1544 04ee 61       		.byte	0x61
 1545 04ef A9000000 		.4byte	0xa9
 1546 04f3 51       		.byte	0x51
 1547 04f4 0B       		.uleb128 0xb
 1548 04f5 7B0D0000 		.4byte	.LASF86
 1549 04f9 06       		.byte	0x6
 1550 04fa 62       		.byte	0x62
 1551 04fb A9000000 		.4byte	0xa9
 1552 04ff 52       		.byte	0x52
 1553 0500 0B       		.uleb128 0xb
 1554 0501 EF0E0000 		.4byte	.LASF87
 1555 0505 06       		.byte	0x6
 1556 0506 63       		.byte	0x63
 1557 0507 A9000000 		.4byte	0xa9
 1558 050b 53       		.byte	0x53
 1559 050c 0B       		.uleb128 0xb
 1560 050d 7A0B0000 		.4byte	.LASF88
 1561 0511 06       		.byte	0x6
 1562 0512 64       		.byte	0x64
 1563 0513 A9000000 		.4byte	0xa9
 1564 0517 54       		.byte	0x54
 1565 0518 0B       		.uleb128 0xb
 1566 0519 5A020000 		.4byte	.LASF89
 1567 051d 06       		.byte	0x6
 1568 051e 65       		.byte	0x65
 1569 051f A9000000 		.4byte	0xa9
 1570 0523 55       		.byte	0x55
 1571 0524 0B       		.uleb128 0xb
 1572 0525 A60C0000 		.4byte	.LASF90
 1573 0529 06       		.byte	0x6
 1574 052a 66       		.byte	0x66
 1575 052b A9000000 		.4byte	0xa9
 1576 052f 56       		.byte	0x56
 1577 0530 0B       		.uleb128 0xb
 1578 0531 35060000 		.4byte	.LASF91
 1579 0535 06       		.byte	0x6
 1580 0536 67       		.byte	0x67
 1581 0537 A9000000 		.4byte	0xa9
 1582 053b 57       		.byte	0x57
 1583 053c 0B       		.uleb128 0xb
 1584 053d 3F000000 		.4byte	.LASF92
 1585 0541 06       		.byte	0x6
 1586 0542 68       		.byte	0x68
 1587 0543 A9000000 		.4byte	0xa9
 1588 0547 58       		.byte	0x58
 1589 0548 0B       		.uleb128 0xb
 1590 0549 25090000 		.4byte	.LASF93
 1591 054d 06       		.byte	0x6
ARM GAS  C:\Users\dev\AppData\Local\Temp\ccJYAN2E.s 			page 54


 1592 054e 69       		.byte	0x69
 1593 054f A9000000 		.4byte	0xa9
 1594 0553 59       		.byte	0x59
 1595 0554 0B       		.uleb128 0xb
 1596 0555 C3070000 		.4byte	.LASF94
 1597 0559 06       		.byte	0x6
 1598 055a 6E       		.byte	0x6e
 1599 055b BF000000 		.4byte	0xbf
 1600 055f 5A       		.byte	0x5a
 1601 0560 0B       		.uleb128 0xb
 1602 0561 D10C0000 		.4byte	.LASF95
 1603 0565 06       		.byte	0x6
 1604 0566 6F       		.byte	0x6f
 1605 0567 BF000000 		.4byte	0xbf
 1606 056b 5C       		.byte	0x5c
 1607 056c 0B       		.uleb128 0xb
 1608 056d 96000000 		.4byte	.LASF96
 1609 0571 06       		.byte	0x6
 1610 0572 70       		.byte	0x70
 1611 0573 A9000000 		.4byte	0xa9
 1612 0577 5E       		.byte	0x5e
 1613 0578 0B       		.uleb128 0xb
 1614 0579 5F040000 		.4byte	.LASF97
 1615 057d 06       		.byte	0x6
 1616 057e 71       		.byte	0x71
 1617 057f A9000000 		.4byte	0xa9
 1618 0583 5F       		.byte	0x5f
 1619 0584 0B       		.uleb128 0xb
 1620 0585 91080000 		.4byte	.LASF98
 1621 0589 06       		.byte	0x6
 1622 058a 72       		.byte	0x72
 1623 058b A9000000 		.4byte	0xa9
 1624 058f 60       		.byte	0x60
 1625 0590 0B       		.uleb128 0xb
 1626 0591 84090000 		.4byte	.LASF99
 1627 0595 06       		.byte	0x6
 1628 0596 73       		.byte	0x73
 1629 0597 D5000000 		.4byte	0xd5
 1630 059b 64       		.byte	0x64
 1631 059c 0B       		.uleb128 0xb
 1632 059d 56010000 		.4byte	.LASF100
 1633 05a1 06       		.byte	0x6
 1634 05a2 76       		.byte	0x76
 1635 05a3 BF000000 		.4byte	0xbf
 1636 05a7 68       		.byte	0x68
 1637 05a8 0B       		.uleb128 0xb
 1638 05a9 96050000 		.4byte	.LASF101
 1639 05ad 06       		.byte	0x6
 1640 05ae 77       		.byte	0x77
 1641 05af BF000000 		.4byte	0xbf
 1642 05b3 6A       		.byte	0x6a
 1643 05b4 0B       		.uleb128 0xb
 1644 05b5 56060000 		.4byte	.LASF102
 1645 05b9 06       		.byte	0x6
 1646 05ba 78       		.byte	0x78
 1647 05bb BF000000 		.4byte	0xbf
 1648 05bf 6C       		.byte	0x6c
ARM GAS  C:\Users\dev\AppData\Local\Temp\ccJYAN2E.s 			page 55


 1649 05c0 0B       		.uleb128 0xb
 1650 05c1 B7060000 		.4byte	.LASF103
 1651 05c5 06       		.byte	0x6
 1652 05c6 79       		.byte	0x79
 1653 05c7 BF000000 		.4byte	0xbf
 1654 05cb 6E       		.byte	0x6e
 1655 05cc 0B       		.uleb128 0xb
 1656 05cd 000B0000 		.4byte	.LASF104
 1657 05d1 06       		.byte	0x6
 1658 05d2 7B       		.byte	0x7b
 1659 05d3 A9000000 		.4byte	0xa9
 1660 05d7 70       		.byte	0x70
 1661 05d8 0B       		.uleb128 0xb
 1662 05d9 A0020000 		.4byte	.LASF105
 1663 05dd 06       		.byte	0x6
 1664 05de 7C       		.byte	0x7c
 1665 05df A9000000 		.4byte	0xa9
 1666 05e3 71       		.byte	0x71
 1667 05e4 0B       		.uleb128 0xb
 1668 05e5 D90E0000 		.4byte	.LASF106
 1669 05e9 06       		.byte	0x6
 1670 05ea 7D       		.byte	0x7d
 1671 05eb A9000000 		.4byte	0xa9
 1672 05ef 72       		.byte	0x72
 1673 05f0 0B       		.uleb128 0xb
 1674 05f1 F2070000 		.4byte	.LASF107
 1675 05f5 06       		.byte	0x6
 1676 05f6 7E       		.byte	0x7e
 1677 05f7 A9000000 		.4byte	0xa9
 1678 05fb 73       		.byte	0x73
 1679 05fc 0B       		.uleb128 0xb
 1680 05fd 2C040000 		.4byte	.LASF108
 1681 0601 06       		.byte	0x6
 1682 0602 80       		.byte	0x80
 1683 0603 BF000000 		.4byte	0xbf
 1684 0607 74       		.byte	0x74
 1685 0608 0B       		.uleb128 0xb
 1686 0609 1A0C0000 		.4byte	.LASF109
 1687 060d 06       		.byte	0x6
 1688 060e 81       		.byte	0x81
 1689 060f BF000000 		.4byte	0xbf
 1690 0613 76       		.byte	0x76
 1691 0614 0B       		.uleb128 0xb
 1692 0615 EF030000 		.4byte	.LASF110
 1693 0619 06       		.byte	0x6
 1694 061a 82       		.byte	0x82
 1695 061b BF000000 		.4byte	0xbf
 1696 061f 78       		.byte	0x78
 1697 0620 0B       		.uleb128 0xb
 1698 0621 CD000000 		.4byte	.LASF111
 1699 0625 06       		.byte	0x6
 1700 0626 83       		.byte	0x83
 1701 0627 BF000000 		.4byte	0xbf
 1702 062b 7A       		.byte	0x7a
 1703 062c 0B       		.uleb128 0xb
 1704 062d F90D0000 		.4byte	.LASF112
 1705 0631 06       		.byte	0x6
ARM GAS  C:\Users\dev\AppData\Local\Temp\ccJYAN2E.s 			page 56


 1706 0632 86       		.byte	0x86
 1707 0633 A9000000 		.4byte	0xa9
 1708 0637 7C       		.byte	0x7c
 1709 0638 0B       		.uleb128 0xb
 1710 0639 B6040000 		.4byte	.LASF113
 1711 063d 06       		.byte	0x6
 1712 063e 87       		.byte	0x87
 1713 063f A9000000 		.4byte	0xa9
 1714 0643 7D       		.byte	0x7d
 1715 0644 0B       		.uleb128 0xb
 1716 0645 53000000 		.4byte	.LASF114
 1717 0649 06       		.byte	0x6
 1718 064a 88       		.byte	0x88
 1719 064b A9000000 		.4byte	0xa9
 1720 064f 7E       		.byte	0x7e
 1721 0650 0B       		.uleb128 0xb
 1722 0651 6B030000 		.4byte	.LASF115
 1723 0655 06       		.byte	0x6
 1724 0656 89       		.byte	0x89
 1725 0657 A9000000 		.4byte	0xa9
 1726 065b 7F       		.byte	0x7f
 1727 065c 0B       		.uleb128 0xb
 1728 065d 32050000 		.4byte	.LASF116
 1729 0661 06       		.byte	0x6
 1730 0662 8A       		.byte	0x8a
 1731 0663 A9000000 		.4byte	0xa9
 1732 0667 80       		.byte	0x80
 1733 0668 0B       		.uleb128 0xb
 1734 0669 24070000 		.4byte	.LASF117
 1735 066d 06       		.byte	0x6
 1736 066e 8D       		.byte	0x8d
 1737 066f D5000000 		.4byte	0xd5
 1738 0673 84       		.byte	0x84
 1739 0674 0B       		.uleb128 0xb
 1740 0675 EE000000 		.4byte	.LASF118
 1741 0679 06       		.byte	0x6
 1742 067a 8E       		.byte	0x8e
 1743 067b D5000000 		.4byte	0xd5
 1744 067f 88       		.byte	0x88
 1745 0680 0B       		.uleb128 0xb
 1746 0681 E40D0000 		.4byte	.LASF119
 1747 0685 06       		.byte	0x6
 1748 0686 8F       		.byte	0x8f
 1749 0687 D5000000 		.4byte	0xd5
 1750 068b 8C       		.byte	0x8c
 1751 068c 0B       		.uleb128 0xb
 1752 068d 8A070000 		.4byte	.LASF120
 1753 0691 06       		.byte	0x6
 1754 0692 90       		.byte	0x90
 1755 0693 D5000000 		.4byte	0xd5
 1756 0697 90       		.byte	0x90
 1757 0698 0B       		.uleb128 0xb
 1758 0699 1D050000 		.4byte	.LASF121
 1759 069d 06       		.byte	0x6
 1760 069e 91       		.byte	0x91
 1761 069f D5000000 		.4byte	0xd5
 1762 06a3 94       		.byte	0x94
ARM GAS  C:\Users\dev\AppData\Local\Temp\ccJYAN2E.s 			page 57


 1763 06a4 0B       		.uleb128 0xb
 1764 06a5 0E070000 		.4byte	.LASF122
 1765 06a9 06       		.byte	0x6
 1766 06aa 92       		.byte	0x92
 1767 06ab D5000000 		.4byte	0xd5
 1768 06af 98       		.byte	0x98
 1769 06b0 0B       		.uleb128 0xb
 1770 06b1 670E0000 		.4byte	.LASF123
 1771 06b5 06       		.byte	0x6
 1772 06b6 93       		.byte	0x93
 1773 06b7 D5000000 		.4byte	0xd5
 1774 06bb 9C       		.byte	0x9c
 1775 06bc 0B       		.uleb128 0xb
 1776 06bd 19020000 		.4byte	.LASF124
 1777 06c1 06       		.byte	0x6
 1778 06c2 94       		.byte	0x94
 1779 06c3 D5000000 		.4byte	0xd5
 1780 06c7 A0       		.byte	0xa0
 1781 06c8 0B       		.uleb128 0xb
 1782 06c9 E4020000 		.4byte	.LASF125
 1783 06cd 06       		.byte	0x6
 1784 06ce 95       		.byte	0x95
 1785 06cf BF000000 		.4byte	0xbf
 1786 06d3 A4       		.byte	0xa4
 1787 06d4 0B       		.uleb128 0xb
 1788 06d5 A50B0000 		.4byte	.LASF126
 1789 06d9 06       		.byte	0x6
 1790 06da 96       		.byte	0x96
 1791 06db BF000000 		.4byte	0xbf
 1792 06df A6       		.byte	0xa6
 1793 06e0 0B       		.uleb128 0xb
 1794 06e1 C5090000 		.4byte	.LASF127
 1795 06e5 06       		.byte	0x6
 1796 06e6 97       		.byte	0x97
 1797 06e7 BF000000 		.4byte	0xbf
 1798 06eb A8       		.byte	0xa8
 1799 06ec 0B       		.uleb128 0xb
 1800 06ed DC0B0000 		.4byte	.LASF128
 1801 06f1 06       		.byte	0x6
 1802 06f2 98       		.byte	0x98
 1803 06f3 BF000000 		.4byte	0xbf
 1804 06f7 AA       		.byte	0xaa
 1805 06f8 0B       		.uleb128 0xb
 1806 06f9 65060000 		.4byte	.LASF129
 1807 06fd 06       		.byte	0x6
 1808 06fe 99       		.byte	0x99
 1809 06ff BF000000 		.4byte	0xbf
 1810 0703 AC       		.byte	0xac
 1811 0704 0B       		.uleb128 0xb
 1812 0705 09080000 		.4byte	.LASF130
 1813 0709 06       		.byte	0x6
 1814 070a 9A       		.byte	0x9a
 1815 070b BF000000 		.4byte	0xbf
 1816 070f AE       		.byte	0xae
 1817 0710 0B       		.uleb128 0xb
 1818 0711 E40C0000 		.4byte	.LASF131
 1819 0715 06       		.byte	0x6
ARM GAS  C:\Users\dev\AppData\Local\Temp\ccJYAN2E.s 			page 58


 1820 0716 9D       		.byte	0x9d
 1821 0717 BF000000 		.4byte	0xbf
 1822 071b B0       		.byte	0xb0
 1823 071c 0B       		.uleb128 0xb
 1824 071d 66000000 		.4byte	.LASF132
 1825 0721 06       		.byte	0x6
 1826 0722 9E       		.byte	0x9e
 1827 0723 D5000000 		.4byte	0xd5
 1828 0727 B4       		.byte	0xb4
 1829 0728 00       		.byte	0
 1830 0729 04       		.uleb128 0x4
 1831 072a D9060000 		.4byte	.LASF133
 1832 072e 06       		.byte	0x6
 1833 072f 9F       		.byte	0x9f
 1834 0730 18030000 		.4byte	0x318
 1835 0734 0F       		.uleb128 0xf
 1836 0735 83080000 		.4byte	.LASF134
 1837 0739 07       		.byte	0x7
 1838 073a 5506     		.2byte	0x655
 1839 073c 0D030000 		.4byte	0x30d
 1840 0740 0F       		.uleb128 0xf
 1841 0741 8F050000 		.4byte	.LASF135
 1842 0745 08       		.byte	0x8
 1843 0746 F601     		.2byte	0x1f6
 1844 0748 4C070000 		.4byte	0x74c
 1845 074c 03       		.uleb128 0x3
 1846 074d 01       		.byte	0x1
 1847 074e 08       		.byte	0x8
 1848 074f C60B0000 		.4byte	.LASF136
 1849 0753 03       		.uleb128 0x3
 1850 0754 04       		.byte	0x4
 1851 0755 04       		.byte	0x4
 1852 0756 61090000 		.4byte	.LASF137
 1853 075a 03       		.uleb128 0x3
 1854 075b 08       		.byte	0x8
 1855 075c 04       		.byte	0x4
 1856 075d E8030000 		.4byte	.LASF138
 1857 0761 10       		.uleb128 0x10
 1858 0762 04       		.byte	0x4
 1859 0763 2C000000 		.4byte	0x2c
 1860 0767 09       		.byte	0x9
 1861 0768 1405     		.2byte	0x514
 1862 076a A2070000 		.4byte	0x7a2
 1863 076e 11       		.uleb128 0x11
 1864 076f 0E0E0000 		.4byte	.LASF139
 1865 0773 00       		.byte	0
 1866 0774 12       		.uleb128 0x12
 1867 0775 7A000000 		.4byte	.LASF140
 1868 0779 01004200 		.4byte	0x420001
 1869 077d 12       		.uleb128 0x12
 1870 077e 2E000000 		.4byte	.LASF141
 1871 0782 02004200 		.4byte	0x420002
 1872 0786 12       		.uleb128 0x12
 1873 0787 52050000 		.4byte	.LASF142
 1874 078b 03004200 		.4byte	0x420003
 1875 078f 12       		.uleb128 0x12
 1876 0790 C7040000 		.4byte	.LASF143
ARM GAS  C:\Users\dev\AppData\Local\Temp\ccJYAN2E.s 			page 59


 1877 0794 04004200 		.4byte	0x420004
 1878 0798 12       		.uleb128 0x12
 1879 0799 220D0000 		.4byte	.LASF144
 1880 079d FF004200 		.4byte	0x4200ff
 1881 07a1 00       		.byte	0
 1882 07a2 0F       		.uleb128 0xf
 1883 07a3 8C0E0000 		.4byte	.LASF145
 1884 07a7 09       		.byte	0x9
 1885 07a8 1C05     		.2byte	0x51c
 1886 07aa 61070000 		.4byte	0x761
 1887 07ae 10       		.uleb128 0x10
 1888 07af 01       		.byte	0x1
 1889 07b0 53000000 		.4byte	0x53
 1890 07b4 09       		.byte	0x9
 1891 07b5 BC05     		.2byte	0x5bc
 1892 07b7 D4070000 		.4byte	0x7d4
 1893 07bb 11       		.uleb128 0x11
 1894 07bc 300E0000 		.4byte	.LASF146
 1895 07c0 01       		.byte	0x1
 1896 07c1 11       		.uleb128 0x11
 1897 07c2 920C0000 		.4byte	.LASF147
 1898 07c6 02       		.byte	0x2
 1899 07c7 11       		.uleb128 0x11
 1900 07c8 A2080000 		.4byte	.LASF148
 1901 07cc 04       		.byte	0x4
 1902 07cd 11       		.uleb128 0x11
 1903 07ce 3B070000 		.4byte	.LASF149
 1904 07d2 08       		.byte	0x8
 1905 07d3 00       		.byte	0
 1906 07d4 0F       		.uleb128 0xf
 1907 07d5 39090000 		.4byte	.LASF150
 1908 07d9 09       		.byte	0x9
 1909 07da CB05     		.2byte	0x5cb
 1910 07dc AE070000 		.4byte	0x7ae
 1911 07e0 13       		.uleb128 0x13
 1912 07e1 08       		.byte	0x8
 1913 07e2 09       		.byte	0x9
 1914 07e3 E705     		.2byte	0x5e7
 1915 07e5 04080000 		.4byte	0x804
 1916 07e9 14       		.uleb128 0x14
 1917 07ea 6B070000 		.4byte	.LASF151
 1918 07ee 09       		.byte	0x9
 1919 07ef E905     		.2byte	0x5e9
 1920 07f1 04080000 		.4byte	0x804
 1921 07f5 00       		.byte	0
 1922 07f6 14       		.uleb128 0x14
 1923 07f7 4E060000 		.4byte	.LASF152
 1924 07fb 09       		.byte	0x9
 1925 07fc EC05     		.2byte	0x5ec
 1926 07fe 04080000 		.4byte	0x804
 1927 0802 04       		.byte	0x4
 1928 0803 00       		.byte	0
 1929 0804 15       		.uleb128 0x15
 1930 0805 04       		.byte	0x4
 1931 0806 0F       		.uleb128 0xf
 1932 0807 F7050000 		.4byte	.LASF153
 1933 080b 09       		.byte	0x9
ARM GAS  C:\Users\dev\AppData\Local\Temp\ccJYAN2E.s 			page 60


 1934 080c EF05     		.2byte	0x5ef
 1935 080e E0070000 		.4byte	0x7e0
 1936 0812 16       		.uleb128 0x16
 1937 0813 04       		.byte	0x4
 1938 0814 06080000 		.4byte	0x806
 1939 0818 17       		.uleb128 0x17
 1940 0819 04       		.byte	0x4
 1941 081a 2C000000 		.4byte	0x2c
 1942 081e 02       		.byte	0x2
 1943 081f F8       		.byte	0xf8
 1944 0820 34080000 		.4byte	0x834
 1945 0824 11       		.uleb128 0x11
 1946 0825 6B0B0000 		.4byte	.LASF154
 1947 0829 00       		.byte	0
 1948 082a 12       		.uleb128 0x12
 1949 082b F9020000 		.4byte	.LASF155
 1950 082f 01008200 		.4byte	0x820001
 1951 0833 00       		.byte	0
 1952 0834 04       		.uleb128 0x4
 1953 0835 0F040000 		.4byte	.LASF156
 1954 0839 02       		.byte	0x2
 1955 083a FB       		.byte	0xfb
 1956 083b 18080000 		.4byte	0x818
 1957 083f 10       		.uleb128 0x10
 1958 0840 01       		.byte	0x1
 1959 0841 53000000 		.4byte	0x53
 1960 0845 02       		.byte	0x2
 1961 0846 0201     		.2byte	0x102
 1962 0848 65080000 		.4byte	0x865
 1963 084c 11       		.uleb128 0x11
 1964 084d 75040000 		.4byte	.LASF157
 1965 0851 00       		.byte	0
 1966 0852 11       		.uleb128 0x11
 1967 0853 1F0F0000 		.4byte	.LASF158
 1968 0857 01       		.byte	0x1
 1969 0858 11       		.uleb128 0x11
 1970 0859 ED040000 		.4byte	.LASF159
 1971 085d 02       		.byte	0x2
 1972 085e 11       		.uleb128 0x11
 1973 085f FF040000 		.4byte	.LASF160
 1974 0863 03       		.byte	0x3
 1975 0864 00       		.byte	0
 1976 0865 0F       		.uleb128 0xf
 1977 0866 9B0D0000 		.4byte	.LASF161
 1978 086a 02       		.byte	0x2
 1979 086b 0701     		.2byte	0x107
 1980 086d 3F080000 		.4byte	0x83f
 1981 0871 10       		.uleb128 0x10
 1982 0872 01       		.byte	0x1
 1983 0873 53000000 		.4byte	0x53
 1984 0877 02       		.byte	0x2
 1985 0878 0D01     		.2byte	0x10d
 1986 087a A3080000 		.4byte	0x8a3
 1987 087e 11       		.uleb128 0x11
 1988 087f 29060000 		.4byte	.LASF162
 1989 0883 00       		.byte	0
 1990 0884 11       		.uleb128 0x11
ARM GAS  C:\Users\dev\AppData\Local\Temp\ccJYAN2E.s 			page 61


 1991 0885 C8080000 		.4byte	.LASF163
 1992 0889 01       		.byte	0x1
 1993 088a 11       		.uleb128 0x11
 1994 088b E5080000 		.4byte	.LASF164
 1995 088f 02       		.byte	0x2
 1996 0890 11       		.uleb128 0x11
 1997 0891 8E0A0000 		.4byte	.LASF165
 1998 0895 03       		.byte	0x3
 1999 0896 11       		.uleb128 0x11
 2000 0897 BD0A0000 		.4byte	.LASF166
 2001 089b 04       		.byte	0x4
 2002 089c 11       		.uleb128 0x11
 2003 089d 850C0000 		.4byte	.LASF167
 2004 08a1 05       		.byte	0x5
 2005 08a2 00       		.byte	0
 2006 08a3 0F       		.uleb128 0xf
 2007 08a4 DC050000 		.4byte	.LASF168
 2008 08a8 02       		.byte	0x2
 2009 08a9 1401     		.2byte	0x114
 2010 08ab 71080000 		.4byte	0x871
 2011 08af 10       		.uleb128 0x10
 2012 08b0 01       		.byte	0x1
 2013 08b1 53000000 		.4byte	0x53
 2014 08b5 02       		.byte	0x2
 2015 08b6 1A01     		.2byte	0x11a
 2016 08b8 C9080000 		.4byte	0x8c9
 2017 08bc 11       		.uleb128 0x11
 2018 08bd D00D0000 		.4byte	.LASF169
 2019 08c1 00       		.byte	0
 2020 08c2 11       		.uleb128 0x11
 2021 08c3 CA0A0000 		.4byte	.LASF170
 2022 08c7 01       		.byte	0x1
 2023 08c8 00       		.byte	0
 2024 08c9 0F       		.uleb128 0xf
 2025 08ca 700C0000 		.4byte	.LASF171
 2026 08ce 02       		.byte	0x2
 2027 08cf 1D01     		.2byte	0x11d
 2028 08d1 AF080000 		.4byte	0x8af
 2029 08d5 10       		.uleb128 0x10
 2030 08d6 01       		.byte	0x1
 2031 08d7 53000000 		.4byte	0x53
 2032 08db 02       		.byte	0x2
 2033 08dc 2301     		.2byte	0x123
 2034 08de EF080000 		.4byte	0x8ef
 2035 08e2 11       		.uleb128 0x11
 2036 08e3 630D0000 		.4byte	.LASF172
 2037 08e7 00       		.byte	0
 2038 08e8 11       		.uleb128 0x11
 2039 08e9 73060000 		.4byte	.LASF173
 2040 08ed 01       		.byte	0x1
 2041 08ee 00       		.byte	0
 2042 08ef 0F       		.uleb128 0xf
 2043 08f0 EA0B0000 		.4byte	.LASF174
 2044 08f4 02       		.byte	0x2
 2045 08f5 2601     		.2byte	0x126
 2046 08f7 D5080000 		.4byte	0x8d5
 2047 08fb 13       		.uleb128 0x13
ARM GAS  C:\Users\dev\AppData\Local\Temp\ccJYAN2E.s 			page 62


 2048 08fc 28       		.byte	0x28
 2049 08fd 02       		.byte	0x2
 2050 08fe 3201     		.2byte	0x132
 2051 0900 A50A0000 		.4byte	0xaa5
 2052 0904 14       		.uleb128 0x14
 2053 0905 E3040000 		.4byte	.LASF175
 2054 0909 02       		.byte	0x2
 2055 090a 3401     		.2byte	0x134
 2056 090c A50A0000 		.4byte	0xaa5
 2057 0910 00       		.byte	0
 2058 0911 14       		.uleb128 0x14
 2059 0912 00000000 		.4byte	.LASF176
 2060 0916 02       		.byte	0x2
 2061 0917 3501     		.2byte	0x135
 2062 0919 A50A0000 		.4byte	0xaa5
 2063 091d 01       		.byte	0x1
 2064 091e 14       		.uleb128 0x14
 2065 091f 38010000 		.4byte	.LASF177
 2066 0923 02       		.byte	0x2
 2067 0924 3601     		.2byte	0x136
 2068 0926 A50A0000 		.4byte	0xaa5
 2069 092a 02       		.byte	0x2
 2070 092b 14       		.uleb128 0x14
 2071 092c 720A0000 		.4byte	.LASF178
 2072 0930 02       		.byte	0x2
 2073 0931 3701     		.2byte	0x137
 2074 0933 A50A0000 		.4byte	0xaa5
 2075 0937 03       		.byte	0x3
 2076 0938 14       		.uleb128 0x14
 2077 0939 5C0D0000 		.4byte	.LASF179
 2078 093d 02       		.byte	0x2
 2079 093e 3801     		.2byte	0x138
 2080 0940 A9000000 		.4byte	0xa9
 2081 0944 04       		.byte	0x4
 2082 0945 14       		.uleb128 0x14
 2083 0946 AE000000 		.4byte	.LASF180
 2084 094a 02       		.byte	0x2
 2085 094b 3901     		.2byte	0x139
 2086 094d A50A0000 		.4byte	0xaa5
 2087 0951 05       		.byte	0x5
 2088 0952 14       		.uleb128 0x14
 2089 0953 200B0000 		.4byte	.LASF181
 2090 0957 02       		.byte	0x2
 2091 0958 3A01     		.2byte	0x13a
 2092 095a A50A0000 		.4byte	0xaa5
 2093 095e 06       		.byte	0x6
 2094 095f 14       		.uleb128 0x14
 2095 0960 B7070000 		.4byte	.LASF182
 2096 0964 02       		.byte	0x2
 2097 0965 3B01     		.2byte	0x13b
 2098 0967 65080000 		.4byte	0x865
 2099 096b 07       		.byte	0x7
 2100 096c 14       		.uleb128 0x14
 2101 096d 90060000 		.4byte	.LASF183
 2102 0971 02       		.byte	0x2
 2103 0972 3C01     		.2byte	0x13c
 2104 0974 EF080000 		.4byte	0x8ef
ARM GAS  C:\Users\dev\AppData\Local\Temp\ccJYAN2E.s 			page 63


 2105 0978 08       		.byte	0x8
 2106 0979 14       		.uleb128 0x14
 2107 097a 1F0E0000 		.4byte	.LASF184
 2108 097e 02       		.byte	0x2
 2109 097f 3F01     		.2byte	0x13f
 2110 0981 A50A0000 		.4byte	0xaa5
 2111 0985 09       		.byte	0x9
 2112 0986 14       		.uleb128 0x14
 2113 0987 2D0B0000 		.4byte	.LASF185
 2114 098b 02       		.byte	0x2
 2115 098c 4001     		.2byte	0x140
 2116 098e D5000000 		.4byte	0xd5
 2117 0992 0C       		.byte	0xc
 2118 0993 14       		.uleb128 0x14
 2119 0994 A8050000 		.4byte	.LASF186
 2120 0998 02       		.byte	0x2
 2121 0999 4101     		.2byte	0x141
 2122 099b A50A0000 		.4byte	0xaa5
 2123 099f 10       		.byte	0x10
 2124 09a0 14       		.uleb128 0x14
 2125 09a1 300D0000 		.4byte	.LASF187
 2126 09a5 02       		.byte	0x2
 2127 09a6 4901     		.2byte	0x149
 2128 09a8 A50A0000 		.4byte	0xaa5
 2129 09ac 11       		.byte	0x11
 2130 09ad 14       		.uleb128 0x14
 2131 09ae BC0E0000 		.4byte	.LASF188
 2132 09b2 02       		.byte	0x2
 2133 09b3 5001     		.2byte	0x150
 2134 09b5 A50A0000 		.4byte	0xaa5
 2135 09b9 12       		.byte	0x12
 2136 09ba 14       		.uleb128 0x14
 2137 09bb 520B0000 		.4byte	.LASF189
 2138 09bf 02       		.byte	0x2
 2139 09c0 5701     		.2byte	0x157
 2140 09c2 A9000000 		.4byte	0xa9
 2141 09c6 13       		.byte	0x13
 2142 09c7 14       		.uleb128 0x14
 2143 09c8 4C0A0000 		.4byte	.LASF190
 2144 09cc 02       		.byte	0x2
 2145 09cd 5A01     		.2byte	0x15a
 2146 09cf A3080000 		.4byte	0x8a3
 2147 09d3 14       		.byte	0x14
 2148 09d4 14       		.uleb128 0x14
 2149 09d5 18090000 		.4byte	.LASF191
 2150 09d9 02       		.byte	0x2
 2151 09da 5D01     		.2byte	0x15d
 2152 09dc A3080000 		.4byte	0x8a3
 2153 09e0 15       		.byte	0x15
 2154 09e1 14       		.uleb128 0x14
 2155 09e2 90020000 		.4byte	.LASF192
 2156 09e6 02       		.byte	0x2
 2157 09e7 5F01     		.2byte	0x15f
 2158 09e9 C9080000 		.4byte	0x8c9
 2159 09ed 16       		.byte	0x16
 2160 09ee 14       		.uleb128 0x14
 2161 09ef EF090000 		.4byte	.LASF193
ARM GAS  C:\Users\dev\AppData\Local\Temp\ccJYAN2E.s 			page 64


 2162 09f3 02       		.byte	0x2
 2163 09f4 6101     		.2byte	0x161
 2164 09f6 A9000000 		.4byte	0xa9
 2165 09fa 17       		.byte	0x17
 2166 09fb 14       		.uleb128 0x14
 2167 09fc CC0E0000 		.4byte	.LASF194
 2168 0a00 02       		.byte	0x2
 2169 0a01 6201     		.2byte	0x162
 2170 0a03 A50A0000 		.4byte	0xaa5
 2171 0a07 18       		.byte	0x18
 2172 0a08 14       		.uleb128 0x14
 2173 0a09 11050000 		.4byte	.LASF195
 2174 0a0d 02       		.byte	0x2
 2175 0a0e 6301     		.2byte	0x163
 2176 0a10 65080000 		.4byte	0x865
 2177 0a14 19       		.byte	0x19
 2178 0a15 14       		.uleb128 0x14
 2179 0a16 75090000 		.4byte	.LASF196
 2180 0a1a 02       		.byte	0x2
 2181 0a1b 6401     		.2byte	0x164
 2182 0a1d EF080000 		.4byte	0x8ef
 2183 0a21 1A       		.byte	0x1a
 2184 0a22 14       		.uleb128 0x14
 2185 0a23 010F0000 		.4byte	.LASF197
 2186 0a27 02       		.byte	0x2
 2187 0a28 6701     		.2byte	0x167
 2188 0a2a A50A0000 		.4byte	0xaa5
 2189 0a2e 1B       		.byte	0x1b
 2190 0a2f 14       		.uleb128 0x14
 2191 0a30 570E0000 		.4byte	.LASF198
 2192 0a34 02       		.byte	0x2
 2193 0a35 6801     		.2byte	0x168
 2194 0a37 D5000000 		.4byte	0xd5
 2195 0a3b 1C       		.byte	0x1c
 2196 0a3c 14       		.uleb128 0x14
 2197 0a3d 95090000 		.4byte	.LASF199
 2198 0a41 02       		.byte	0x2
 2199 0a42 6901     		.2byte	0x169
 2200 0a44 A50A0000 		.4byte	0xaa5
 2201 0a48 20       		.byte	0x20
 2202 0a49 14       		.uleb128 0x14
 2203 0a4a 96040000 		.4byte	.LASF200
 2204 0a4e 02       		.byte	0x2
 2205 0a4f 7101     		.2byte	0x171
 2206 0a51 A50A0000 		.4byte	0xaa5
 2207 0a55 21       		.byte	0x21
 2208 0a56 14       		.uleb128 0x14
 2209 0a57 D5080000 		.4byte	.LASF201
 2210 0a5b 02       		.byte	0x2
 2211 0a5c 7801     		.2byte	0x178
 2212 0a5e A50A0000 		.4byte	0xaa5
 2213 0a62 22       		.byte	0x22
 2214 0a63 14       		.uleb128 0x14
 2215 0a64 3D0B0000 		.4byte	.LASF202
 2216 0a68 02       		.byte	0x2
 2217 0a69 7F01     		.2byte	0x17f
 2218 0a6b A9000000 		.4byte	0xa9
ARM GAS  C:\Users\dev\AppData\Local\Temp\ccJYAN2E.s 			page 65


 2219 0a6f 23       		.byte	0x23
 2220 0a70 14       		.uleb128 0x14
 2221 0a71 CC050000 		.4byte	.LASF203
 2222 0a75 02       		.byte	0x2
 2223 0a76 8201     		.2byte	0x182
 2224 0a78 A3080000 		.4byte	0x8a3
 2225 0a7c 24       		.byte	0x24
 2226 0a7d 14       		.uleb128 0x14
 2227 0a7e 150D0000 		.4byte	.LASF204
 2228 0a82 02       		.byte	0x2
 2229 0a83 8501     		.2byte	0x185
 2230 0a85 A3080000 		.4byte	0x8a3
 2231 0a89 25       		.byte	0x25
 2232 0a8a 14       		.uleb128 0x14
 2233 0a8b D4020000 		.4byte	.LASF205
 2234 0a8f 02       		.byte	0x2
 2235 0a90 8701     		.2byte	0x187
 2236 0a92 A50A0000 		.4byte	0xaa5
 2237 0a96 26       		.byte	0x26
 2238 0a97 14       		.uleb128 0x14
 2239 0a98 1B000000 		.4byte	.LASF206
 2240 0a9c 02       		.byte	0x2
 2241 0a9d 8A01     		.2byte	0x18a
 2242 0a9f A9000000 		.4byte	0xa9
 2243 0aa3 27       		.byte	0x27
 2244 0aa4 00       		.byte	0
 2245 0aa5 03       		.uleb128 0x3
 2246 0aa6 01       		.byte	0x1
 2247 0aa7 02       		.byte	0x2
 2248 0aa8 300A0000 		.4byte	.LASF207
 2249 0aac 0F       		.uleb128 0xf
 2250 0aad 45030000 		.4byte	.LASF208
 2251 0ab1 02       		.byte	0x2
 2252 0ab2 8C01     		.2byte	0x18c
 2253 0ab4 FB080000 		.4byte	0x8fb
 2254 0ab8 13       		.uleb128 0x13
 2255 0ab9 08       		.byte	0x8
 2256 0aba 02       		.byte	0x2
 2257 0abb 9701     		.2byte	0x197
 2258 0abd DC0A0000 		.4byte	0xadc
 2259 0ac1 14       		.uleb128 0x14
 2260 0ac2 030C0000 		.4byte	.LASF209
 2261 0ac6 02       		.byte	0x2
 2262 0ac7 9901     		.2byte	0x199
 2263 0ac9 D5000000 		.4byte	0xd5
 2264 0acd 00       		.byte	0
 2265 0ace 14       		.uleb128 0x14
 2266 0acf 67090000 		.4byte	.LASF210
 2267 0ad3 02       		.byte	0x2
 2268 0ad4 9A01     		.2byte	0x19a
 2269 0ad6 D5000000 		.4byte	0xd5
 2270 0ada 04       		.byte	0x4
 2271 0adb 00       		.byte	0
 2272 0adc 0F       		.uleb128 0xf
 2273 0add 17080000 		.4byte	.LASF211
 2274 0ae1 02       		.byte	0x2
 2275 0ae2 9B01     		.2byte	0x19b
ARM GAS  C:\Users\dev\AppData\Local\Temp\ccJYAN2E.s 			page 66


 2276 0ae4 B80A0000 		.4byte	0xab8
 2277 0ae8 18       		.uleb128 0x18
 2278 0ae9 E90A0000 		.4byte	.LASF212
 2279 0aed 02       		.byte	0x2
 2280 0aee A002     		.2byte	0x2a0
 2281 0af0 D5000000 		.4byte	0xd5
 2282 0af4 03       		.byte	0x3
 2283 0af5 060B0000 		.4byte	0xb06
 2284 0af9 19       		.uleb128 0x19
 2285 0afa 6B070000 		.4byte	.LASF151
 2286 0afe 02       		.byte	0x2
 2287 0aff A002     		.2byte	0x2a0
 2288 0b01 060B0000 		.4byte	0xb06
 2289 0b05 00       		.byte	0
 2290 0b06 16       		.uleb128 0x16
 2291 0b07 04       		.byte	0x4
 2292 0b08 0C0B0000 		.4byte	0xb0c
 2293 0b0c 06       		.uleb128 0x6
 2294 0b0d 34070000 		.4byte	0x734
 2295 0b11 18       		.uleb128 0x18
 2296 0b12 B10D0000 		.4byte	.LASF213
 2297 0b16 02       		.byte	0x2
 2298 0b17 1804     		.2byte	0x418
 2299 0b19 D5000000 		.4byte	0xd5
 2300 0b1d 03       		.byte	0x3
 2301 0b1e 2F0B0000 		.4byte	0xb2f
 2302 0b22 19       		.uleb128 0x19
 2303 0b23 6B070000 		.4byte	.LASF151
 2304 0b27 02       		.byte	0x2
 2305 0b28 1804     		.2byte	0x418
 2306 0b2a 060B0000 		.4byte	0xb06
 2307 0b2e 00       		.byte	0
 2308 0b2f 1A       		.uleb128 0x1a
 2309 0b30 520C0000 		.4byte	.LASF214
 2310 0b34 02       		.byte	0x2
 2311 0b35 6102     		.2byte	0x261
 2312 0b37 03       		.byte	0x3
 2313 0b38 490B0000 		.4byte	0xb49
 2314 0b3c 19       		.uleb128 0x19
 2315 0b3d 6B070000 		.4byte	.LASF151
 2316 0b41 02       		.byte	0x2
 2317 0b42 6102     		.2byte	0x261
 2318 0b44 490B0000 		.4byte	0xb49
 2319 0b48 00       		.byte	0
 2320 0b49 16       		.uleb128 0x16
 2321 0b4a 04       		.byte	0x4
 2322 0b4b 34070000 		.4byte	0x734
 2323 0b4f 1A       		.uleb128 0x1a
 2324 0b50 2C080000 		.4byte	.LASF215
 2325 0b54 02       		.byte	0x2
 2326 0b55 8C02     		.2byte	0x28c
 2327 0b57 03       		.byte	0x3
 2328 0b58 690B0000 		.4byte	0xb69
 2329 0b5c 19       		.uleb128 0x19
 2330 0b5d 6B070000 		.4byte	.LASF151
 2331 0b61 02       		.byte	0x2
 2332 0b62 8C02     		.2byte	0x28c
ARM GAS  C:\Users\dev\AppData\Local\Temp\ccJYAN2E.s 			page 67


 2333 0b64 490B0000 		.4byte	0xb49
 2334 0b68 00       		.byte	0
 2335 0b69 1A       		.uleb128 0x1a
 2336 0b6a 9F060000 		.4byte	.LASF216
 2337 0b6e 02       		.byte	0x2
 2338 0b6f 2C04     		.2byte	0x42c
 2339 0b71 03       		.byte	0x3
 2340 0b72 8F0B0000 		.4byte	0xb8f
 2341 0b76 19       		.uleb128 0x19
 2342 0b77 6B070000 		.4byte	.LASF151
 2343 0b7b 02       		.byte	0x2
 2344 0b7c 2C04     		.2byte	0x42c
 2345 0b7e 490B0000 		.4byte	0xb49
 2346 0b82 19       		.uleb128 0x19
 2347 0b83 22040000 		.4byte	.LASF217
 2348 0b87 02       		.byte	0x2
 2349 0b88 2C04     		.2byte	0x42c
 2350 0b8a D5000000 		.4byte	0xd5
 2351 0b8e 00       		.byte	0
 2352 0b8f 1A       		.uleb128 0x1a
 2353 0b90 180A0000 		.4byte	.LASF218
 2354 0b94 02       		.byte	0x2
 2355 0b95 7702     		.2byte	0x277
 2356 0b97 03       		.byte	0x3
 2357 0b98 A90B0000 		.4byte	0xba9
 2358 0b9c 19       		.uleb128 0x19
 2359 0b9d 6B070000 		.4byte	.LASF151
 2360 0ba1 02       		.byte	0x2
 2361 0ba2 7702     		.2byte	0x277
 2362 0ba4 490B0000 		.4byte	0xb49
 2363 0ba8 00       		.byte	0
 2364 0ba9 1A       		.uleb128 0x1a
 2365 0baa CA030000 		.4byte	.LASF219
 2366 0bae 02       		.byte	0x2
 2367 0baf 3A03     		.2byte	0x33a
 2368 0bb1 03       		.byte	0x3
 2369 0bb2 C30B0000 		.4byte	0xbc3
 2370 0bb6 19       		.uleb128 0x19
 2371 0bb7 6B070000 		.4byte	.LASF151
 2372 0bbb 02       		.byte	0x2
 2373 0bbc 3A03     		.2byte	0x33a
 2374 0bbe 490B0000 		.4byte	0xb49
 2375 0bc2 00       		.byte	0
 2376 0bc3 1A       		.uleb128 0x1a
 2377 0bc4 CE070000 		.4byte	.LASF220
 2378 0bc8 02       		.byte	0x2
 2379 0bc9 DC02     		.2byte	0x2dc
 2380 0bcb 03       		.byte	0x3
 2381 0bcc E90B0000 		.4byte	0xbe9
 2382 0bd0 19       		.uleb128 0x19
 2383 0bd1 6B070000 		.4byte	.LASF151
 2384 0bd5 02       		.byte	0x2
 2385 0bd6 DC02     		.2byte	0x2dc
 2386 0bd8 490B0000 		.4byte	0xb49
 2387 0bdc 19       		.uleb128 0x19
 2388 0bdd 49060000 		.4byte	.LASF221
 2389 0be1 02       		.byte	0x2
ARM GAS  C:\Users\dev\AppData\Local\Temp\ccJYAN2E.s 			page 68


 2390 0be2 DC02     		.2byte	0x2dc
 2391 0be4 D5000000 		.4byte	0xd5
 2392 0be8 00       		.byte	0
 2393 0be9 1A       		.uleb128 0x1a
 2394 0bea 70050000 		.4byte	.LASF222
 2395 0bee 02       		.byte	0x2
 2396 0bef B202     		.2byte	0x2b2
 2397 0bf1 03       		.byte	0x3
 2398 0bf2 030C0000 		.4byte	0xc03
 2399 0bf6 19       		.uleb128 0x19
 2400 0bf7 6B070000 		.4byte	.LASF151
 2401 0bfb 02       		.byte	0x2
 2402 0bfc B202     		.2byte	0x2b2
 2403 0bfe 490B0000 		.4byte	0xb49
 2404 0c02 00       		.byte	0
 2405 0c03 1A       		.uleb128 0x1a
 2406 0c04 7F0A0000 		.4byte	.LASF223
 2407 0c08 02       		.byte	0x2
 2408 0c09 3A02     		.2byte	0x23a
 2409 0c0b 03       		.byte	0x3
 2410 0c0c 1D0C0000 		.4byte	0xc1d
 2411 0c10 19       		.uleb128 0x19
 2412 0c11 6B070000 		.4byte	.LASF151
 2413 0c15 02       		.byte	0x2
 2414 0c16 3A02     		.2byte	0x23a
 2415 0c18 490B0000 		.4byte	0xb49
 2416 0c1c 00       		.byte	0
 2417 0c1d 1A       		.uleb128 0x1a
 2418 0c1e 8B0D0000 		.4byte	.LASF224
 2419 0c22 02       		.byte	0x2
 2420 0c23 2802     		.2byte	0x228
 2421 0c25 03       		.byte	0x3
 2422 0c26 370C0000 		.4byte	0xc37
 2423 0c2a 19       		.uleb128 0x19
 2424 0c2b 6B070000 		.4byte	.LASF151
 2425 0c2f 02       		.byte	0x2
 2426 0c30 2802     		.2byte	0x228
 2427 0c32 490B0000 		.4byte	0xb49
 2428 0c36 00       		.byte	0
 2429 0c37 1A       		.uleb128 0x1a
 2430 0c38 020A0000 		.4byte	.LASF225
 2431 0c3c 02       		.byte	0x2
 2432 0c3d ED03     		.2byte	0x3ed
 2433 0c3f 03       		.byte	0x3
 2434 0c40 5D0C0000 		.4byte	0xc5d
 2435 0c44 19       		.uleb128 0x19
 2436 0c45 6B070000 		.4byte	.LASF151
 2437 0c49 02       		.byte	0x2
 2438 0c4a ED03     		.2byte	0x3ed
 2439 0c4c 490B0000 		.4byte	0xb49
 2440 0c50 19       		.uleb128 0x19
 2441 0c51 22040000 		.4byte	.LASF217
 2442 0c55 02       		.byte	0x2
 2443 0c56 ED03     		.2byte	0x3ed
 2444 0c58 D5000000 		.4byte	0xd5
 2445 0c5c 00       		.byte	0
 2446 0c5d 1B       		.uleb128 0x1b
ARM GAS  C:\Users\dev\AppData\Local\Temp\ccJYAN2E.s 			page 69


 2447 0c5e BE030000 		.4byte	.LASF231
 2448 0c62 01       		.byte	0x1
 2449 0c63 27       		.byte	0x27
 2450 0c64 34080000 		.4byte	0x834
 2451 0c68 00000000 		.4byte	.LFB194
 2452 0c6c 08030000 		.4byte	.LFE194-.LFB194
 2453 0c70 01       		.uleb128 0x1
 2454 0c71 9C       		.byte	0x9c
 2455 0c72 780E0000 		.4byte	0xe78
 2456 0c76 1C       		.uleb128 0x1c
 2457 0c77 6B070000 		.4byte	.LASF151
 2458 0c7b 01       		.byte	0x1
 2459 0c7c 27       		.byte	0x27
 2460 0c7d 490B0000 		.4byte	0xb49
 2461 0c81 00000000 		.4byte	.LLST0
 2462 0c85 1C       		.uleb128 0x1c
 2463 0c86 FC0B0000 		.4byte	.LASF226
 2464 0c8a 01       		.byte	0x1
 2465 0c8b 27       		.byte	0x27
 2466 0c8c 780E0000 		.4byte	0xe78
 2467 0c90 5B000000 		.4byte	.LLST1
 2468 0c94 1D       		.uleb128 0x1d
 2469 0c95 72657400 		.ascii	"ret\000"
 2470 0c99 01       		.byte	0x1
 2471 0c9a 29       		.byte	0x29
 2472 0c9b 34080000 		.4byte	0x834
 2473 0c9f 9D000000 		.4byte	.LLST2
 2474 0ca3 1E       		.uleb128 0x1e
 2475 0ca4 00000000 		.4byte	.Ldebug_ranges0+0
 2476 0ca8 1F       		.uleb128 0x1f
 2477 0ca9 120F0000 		.4byte	.LASF227
 2478 0cad 01       		.byte	0x1
 2479 0cae 2D       		.byte	0x2d
 2480 0caf EF080000 		.4byte	0x8ef
 2481 0cb3 DB000000 		.4byte	.LLST3
 2482 0cb7 1F       		.uleb128 0x1f
 2483 0cb8 70070000 		.4byte	.LASF228
 2484 0cbc 01       		.byte	0x1
 2485 0cbd 2E       		.byte	0x2e
 2486 0cbe A3080000 		.4byte	0x8a3
 2487 0cc2 55010000 		.4byte	.LLST4
 2488 0cc6 1F       		.uleb128 0x1f
 2489 0cc7 59030000 		.4byte	.LASF229
 2490 0ccb 01       		.byte	0x1
 2491 0ccc 2F       		.byte	0x2f
 2492 0ccd D5000000 		.4byte	0xd5
 2493 0cd1 B9010000 		.4byte	.LLST5
 2494 0cd5 1F       		.uleb128 0x1f
 2495 0cd6 B30E0000 		.4byte	.LASF230
 2496 0cda 01       		.byte	0x1
 2497 0cdb 30       		.byte	0x30
 2498 0cdc D5000000 		.4byte	0xd5
 2499 0ce0 33020000 		.4byte	.LLST6
 2500 0ce4 20       		.uleb128 0x20
 2501 0ce5 24000000 		.4byte	.LVL4
 2502 0ce9 61110000 		.4byte	0x1161
 2503 0ced 010D0000 		.4byte	0xd01
ARM GAS  C:\Users\dev\AppData\Local\Temp\ccJYAN2E.s 			page 70


 2504 0cf1 21       		.uleb128 0x21
 2505 0cf2 01       		.uleb128 0x1
 2506 0cf3 50       		.byte	0x50
 2507 0cf4 05       		.uleb128 0x5
 2508 0cf5 03       		.byte	0x3
 2509 0cf6 00000000 		.4byte	.LC0
 2510 0cfa 21       		.uleb128 0x21
 2511 0cfb 01       		.uleb128 0x1
 2512 0cfc 51       		.byte	0x51
 2513 0cfd 02       		.uleb128 0x2
 2514 0cfe 08       		.byte	0x8
 2515 0cff 32       		.byte	0x32
 2516 0d00 00       		.byte	0
 2517 0d01 20       		.uleb128 0x20
 2518 0d02 5A000000 		.4byte	.LVL6
 2519 0d06 61110000 		.4byte	0x1161
 2520 0d0a 1E0D0000 		.4byte	0xd1e
 2521 0d0e 21       		.uleb128 0x21
 2522 0d0f 01       		.uleb128 0x1
 2523 0d10 50       		.byte	0x50
 2524 0d11 05       		.uleb128 0x5
 2525 0d12 03       		.byte	0x3
 2526 0d13 00000000 		.4byte	.LC0
 2527 0d17 21       		.uleb128 0x21
 2528 0d18 01       		.uleb128 0x1
 2529 0d19 51       		.byte	0x51
 2530 0d1a 02       		.uleb128 0x2
 2531 0d1b 08       		.byte	0x8
 2532 0d1c 40       		.byte	0x40
 2533 0d1d 00       		.byte	0
 2534 0d1e 20       		.uleb128 0x20
 2535 0d1f 68000000 		.4byte	.LVL7
 2536 0d23 61110000 		.4byte	0x1161
 2537 0d27 3B0D0000 		.4byte	0xd3b
 2538 0d2b 21       		.uleb128 0x21
 2539 0d2c 01       		.uleb128 0x1
 2540 0d2d 50       		.byte	0x50
 2541 0d2e 05       		.uleb128 0x5
 2542 0d2f 03       		.byte	0x3
 2543 0d30 00000000 		.4byte	.LC0
 2544 0d34 21       		.uleb128 0x21
 2545 0d35 01       		.uleb128 0x1
 2546 0d36 51       		.byte	0x51
 2547 0d37 02       		.uleb128 0x2
 2548 0d38 08       		.byte	0x8
 2549 0d39 41       		.byte	0x41
 2550 0d3a 00       		.byte	0
 2551 0d3b 20       		.uleb128 0x20
 2552 0d3c 8A000000 		.4byte	.LVL10
 2553 0d40 61110000 		.4byte	0x1161
 2554 0d44 580D0000 		.4byte	0xd58
 2555 0d48 21       		.uleb128 0x21
 2556 0d49 01       		.uleb128 0x1
 2557 0d4a 50       		.byte	0x50
 2558 0d4b 05       		.uleb128 0x5
 2559 0d4c 03       		.byte	0x3
 2560 0d4d 00000000 		.4byte	.LC0
ARM GAS  C:\Users\dev\AppData\Local\Temp\ccJYAN2E.s 			page 71


 2561 0d51 21       		.uleb128 0x21
 2562 0d52 01       		.uleb128 0x1
 2563 0d53 51       		.byte	0x51
 2564 0d54 02       		.uleb128 0x2
 2565 0d55 08       		.byte	0x8
 2566 0d56 49       		.byte	0x49
 2567 0d57 00       		.byte	0
 2568 0d58 20       		.uleb128 0x20
 2569 0d59 96000000 		.4byte	.LVL11
 2570 0d5d 61110000 		.4byte	0x1161
 2571 0d61 750D0000 		.4byte	0xd75
 2572 0d65 21       		.uleb128 0x21
 2573 0d66 01       		.uleb128 0x1
 2574 0d67 50       		.byte	0x50
 2575 0d68 05       		.uleb128 0x5
 2576 0d69 03       		.byte	0x3
 2577 0d6a 00000000 		.4byte	.LC0
 2578 0d6e 21       		.uleb128 0x21
 2579 0d6f 01       		.uleb128 0x1
 2580 0d70 51       		.byte	0x51
 2581 0d71 02       		.uleb128 0x2
 2582 0d72 08       		.byte	0x8
 2583 0d73 4A       		.byte	0x4a
 2584 0d74 00       		.byte	0
 2585 0d75 20       		.uleb128 0x20
 2586 0d76 A4000000 		.4byte	.LVL12
 2587 0d7a 61110000 		.4byte	0x1161
 2588 0d7e 920D0000 		.4byte	0xd92
 2589 0d82 21       		.uleb128 0x21
 2590 0d83 01       		.uleb128 0x1
 2591 0d84 50       		.byte	0x50
 2592 0d85 05       		.uleb128 0x5
 2593 0d86 03       		.byte	0x3
 2594 0d87 00000000 		.4byte	.LC0
 2595 0d8b 21       		.uleb128 0x21
 2596 0d8c 01       		.uleb128 0x1
 2597 0d8d 51       		.byte	0x51
 2598 0d8e 02       		.uleb128 0x2
 2599 0d8f 08       		.byte	0x8
 2600 0d90 4B       		.byte	0x4b
 2601 0d91 00       		.byte	0
 2602 0d92 20       		.uleb128 0x20
 2603 0d93 C0000000 		.4byte	.LVL15
 2604 0d97 61110000 		.4byte	0x1161
 2605 0d9b AF0D0000 		.4byte	0xdaf
 2606 0d9f 21       		.uleb128 0x21
 2607 0da0 01       		.uleb128 0x1
 2608 0da1 50       		.byte	0x50
 2609 0da2 05       		.uleb128 0x5
 2610 0da3 03       		.byte	0x3
 2611 0da4 00000000 		.4byte	.LC0
 2612 0da8 21       		.uleb128 0x21
 2613 0da9 01       		.uleb128 0x1
 2614 0daa 51       		.byte	0x51
 2615 0dab 02       		.uleb128 0x2
 2616 0dac 08       		.byte	0x8
 2617 0dad 53       		.byte	0x53
ARM GAS  C:\Users\dev\AppData\Local\Temp\ccJYAN2E.s 			page 72


 2618 0dae 00       		.byte	0
 2619 0daf 20       		.uleb128 0x20
 2620 0db0 E4000000 		.4byte	.LVL19
 2621 0db4 61110000 		.4byte	0x1161
 2622 0db8 CC0D0000 		.4byte	0xdcc
 2623 0dbc 21       		.uleb128 0x21
 2624 0dbd 01       		.uleb128 0x1
 2625 0dbe 50       		.byte	0x50
 2626 0dbf 05       		.uleb128 0x5
 2627 0dc0 03       		.byte	0x3
 2628 0dc1 00000000 		.4byte	.LC0
 2629 0dc5 21       		.uleb128 0x21
 2630 0dc6 01       		.uleb128 0x1
 2631 0dc7 51       		.byte	0x51
 2632 0dc8 02       		.uleb128 0x2
 2633 0dc9 08       		.byte	0x8
 2634 0dca 56       		.byte	0x56
 2635 0dcb 00       		.byte	0
 2636 0dcc 20       		.uleb128 0x20
 2637 0dcd 80010000 		.4byte	.LVL23
 2638 0dd1 61110000 		.4byte	0x1161
 2639 0dd5 E90D0000 		.4byte	0xde9
 2640 0dd9 21       		.uleb128 0x21
 2641 0dda 01       		.uleb128 0x1
 2642 0ddb 50       		.byte	0x50
 2643 0ddc 05       		.uleb128 0x5
 2644 0ddd 03       		.byte	0x3
 2645 0dde 00000000 		.4byte	.LC0
 2646 0de2 21       		.uleb128 0x21
 2647 0de3 01       		.uleb128 0x1
 2648 0de4 51       		.byte	0x51
 2649 0de5 02       		.uleb128 0x2
 2650 0de6 08       		.byte	0x8
 2651 0de7 6A       		.byte	0x6a
 2652 0de8 00       		.byte	0
 2653 0de9 20       		.uleb128 0x20
 2654 0dea A2010000 		.4byte	.LVL26
 2655 0dee 61110000 		.4byte	0x1161
 2656 0df2 060E0000 		.4byte	0xe06
 2657 0df6 21       		.uleb128 0x21
 2658 0df7 01       		.uleb128 0x1
 2659 0df8 50       		.byte	0x50
 2660 0df9 05       		.uleb128 0x5
 2661 0dfa 03       		.byte	0x3
 2662 0dfb 00000000 		.4byte	.LC0
 2663 0dff 21       		.uleb128 0x21
 2664 0e00 01       		.uleb128 0x1
 2665 0e01 51       		.byte	0x51
 2666 0e02 02       		.uleb128 0x2
 2667 0e03 08       		.byte	0x8
 2668 0e04 72       		.byte	0x72
 2669 0e05 00       		.byte	0
 2670 0e06 20       		.uleb128 0x20
 2671 0e07 AE010000 		.4byte	.LVL27
 2672 0e0b 61110000 		.4byte	0x1161
 2673 0e0f 230E0000 		.4byte	0xe23
 2674 0e13 21       		.uleb128 0x21
ARM GAS  C:\Users\dev\AppData\Local\Temp\ccJYAN2E.s 			page 73


 2675 0e14 01       		.uleb128 0x1
 2676 0e15 50       		.byte	0x50
 2677 0e16 05       		.uleb128 0x5
 2678 0e17 03       		.byte	0x3
 2679 0e18 00000000 		.4byte	.LC0
 2680 0e1c 21       		.uleb128 0x21
 2681 0e1d 01       		.uleb128 0x1
 2682 0e1e 51       		.byte	0x51
 2683 0e1f 02       		.uleb128 0x2
 2684 0e20 08       		.byte	0x8
 2685 0e21 73       		.byte	0x73
 2686 0e22 00       		.byte	0
 2687 0e23 20       		.uleb128 0x20
 2688 0e24 BE010000 		.4byte	.LVL28
 2689 0e28 61110000 		.4byte	0x1161
 2690 0e2c 400E0000 		.4byte	0xe40
 2691 0e30 21       		.uleb128 0x21
 2692 0e31 01       		.uleb128 0x1
 2693 0e32 50       		.byte	0x50
 2694 0e33 05       		.uleb128 0x5
 2695 0e34 03       		.byte	0x3
 2696 0e35 00000000 		.4byte	.LC0
 2697 0e39 21       		.uleb128 0x21
 2698 0e3a 01       		.uleb128 0x1
 2699 0e3b 51       		.byte	0x51
 2700 0e3c 02       		.uleb128 0x2
 2701 0e3d 08       		.byte	0x8
 2702 0e3e 74       		.byte	0x74
 2703 0e3f 00       		.byte	0
 2704 0e40 20       		.uleb128 0x20
 2705 0e41 DE010000 		.4byte	.LVL31
 2706 0e45 61110000 		.4byte	0x1161
 2707 0e49 5D0E0000 		.4byte	0xe5d
 2708 0e4d 21       		.uleb128 0x21
 2709 0e4e 01       		.uleb128 0x1
 2710 0e4f 50       		.byte	0x50
 2711 0e50 05       		.uleb128 0x5
 2712 0e51 03       		.byte	0x3
 2713 0e52 00000000 		.4byte	.LC0
 2714 0e56 21       		.uleb128 0x21
 2715 0e57 01       		.uleb128 0x1
 2716 0e58 51       		.byte	0x51
 2717 0e59 02       		.uleb128 0x2
 2718 0e5a 08       		.byte	0x8
 2719 0e5b 7C       		.byte	0x7c
 2720 0e5c 00       		.byte	0
 2721 0e5d 22       		.uleb128 0x22
 2722 0e5e 04020000 		.4byte	.LVL35
 2723 0e62 61110000 		.4byte	0x1161
 2724 0e66 21       		.uleb128 0x21
 2725 0e67 01       		.uleb128 0x1
 2726 0e68 50       		.byte	0x50
 2727 0e69 05       		.uleb128 0x5
 2728 0e6a 03       		.byte	0x3
 2729 0e6b 00000000 		.4byte	.LC0
 2730 0e6f 21       		.uleb128 0x21
 2731 0e70 01       		.uleb128 0x1
ARM GAS  C:\Users\dev\AppData\Local\Temp\ccJYAN2E.s 			page 74


 2732 0e71 51       		.byte	0x51
 2733 0e72 02       		.uleb128 0x2
 2734 0e73 08       		.byte	0x8
 2735 0e74 7F       		.byte	0x7f
 2736 0e75 00       		.byte	0
 2737 0e76 00       		.byte	0
 2738 0e77 00       		.byte	0
 2739 0e78 16       		.uleb128 0x16
 2740 0e79 04       		.byte	0x4
 2741 0e7a 7E0E0000 		.4byte	0xe7e
 2742 0e7e 06       		.uleb128 0x6
 2743 0e7f AC0A0000 		.4byte	0xaac
 2744 0e83 23       		.uleb128 0x23
 2745 0e84 2D0C0000 		.4byte	.LASF243
 2746 0e88 01       		.byte	0x1
 2747 0e89 BD       		.byte	0xbd
 2748 0e8a 00000000 		.4byte	.LFB195
 2749 0e8e 30000000 		.4byte	.LFE195-.LFB195
 2750 0e92 01       		.uleb128 0x1
 2751 0e93 9C       		.byte	0x9c
 2752 0e94 A60E0000 		.4byte	0xea6
 2753 0e98 24       		.uleb128 0x24
 2754 0e99 6B070000 		.4byte	.LASF151
 2755 0e9d 01       		.byte	0x1
 2756 0e9e BD       		.byte	0xbd
 2757 0e9f 490B0000 		.4byte	0xb49
 2758 0ea3 01       		.uleb128 0x1
 2759 0ea4 50       		.byte	0x50
 2760 0ea5 00       		.byte	0
 2761 0ea6 1B       		.uleb128 0x1b
 2762 0ea7 9B0A0000 		.4byte	.LASF232
 2763 0eab 01       		.byte	0x1
 2764 0eac E7       		.byte	0xe7
 2765 0ead A2070000 		.4byte	0x7a2
 2766 0eb1 00000000 		.4byte	.LFB196
 2767 0eb5 20010000 		.4byte	.LFE196-.LFB196
 2768 0eb9 01       		.uleb128 0x1
 2769 0eba 9C       		.byte	0x9c
 2770 0ebb 34110000 		.4byte	0x1134
 2771 0ebf 1C       		.uleb128 0x1c
 2772 0ec0 FF060000 		.4byte	.LASF233
 2773 0ec4 01       		.byte	0x1
 2774 0ec5 E7       		.byte	0xe7
 2775 0ec6 12080000 		.4byte	0x812
 2776 0eca 46020000 		.4byte	.LLST7
 2777 0ece 1C       		.uleb128 0x1c
 2778 0ecf D70B0000 		.4byte	.LASF234
 2779 0ed3 01       		.byte	0x1
 2780 0ed4 E7       		.byte	0xe7
 2781 0ed5 D4070000 		.4byte	0x7d4
 2782 0ed9 72020000 		.4byte	.LLST8
 2783 0edd 1D       		.uleb128 0x1d
 2784 0ede 72657400 		.ascii	"ret\000"
 2785 0ee2 01       		.byte	0x1
 2786 0ee3 E9       		.byte	0xe9
 2787 0ee4 A2070000 		.4byte	0x7a2
 2788 0ee8 93020000 		.4byte	.LLST9
ARM GAS  C:\Users\dev\AppData\Local\Temp\ccJYAN2E.s 			page 75


 2789 0eec 1F       		.uleb128 0x1f
 2790 0eed 0F010000 		.4byte	.LASF235
 2791 0ef1 01       		.byte	0x1
 2792 0ef2 EB       		.byte	0xeb
 2793 0ef3 490B0000 		.4byte	0xb49
 2794 0ef7 B2020000 		.4byte	.LLST10
 2795 0efb 1F       		.uleb128 0x1f
 2796 0efc 0A000000 		.4byte	.LASF236
 2797 0f00 01       		.byte	0x1
 2798 0f01 EC       		.byte	0xec
 2799 0f02 34110000 		.4byte	0x1134
 2800 0f06 D2020000 		.4byte	.LLST11
 2801 0f0a 1F       		.uleb128 0x1f
 2802 0f0b 8D000000 		.4byte	.LASF237
 2803 0f0f 01       		.byte	0x1
 2804 0f10 ED       		.byte	0xed
 2805 0f11 34110000 		.4byte	0x1134
 2806 0f15 FA020000 		.4byte	.LLST12
 2807 0f19 25       		.uleb128 0x25
 2808 0f1a 110B0000 		.4byte	0xb11
 2809 0f1e 2C000000 		.4byte	.LBB32
 2810 0f22 04000000 		.4byte	.LBE32-.LBB32
 2811 0f26 01       		.byte	0x1
 2812 0f27 F6       		.byte	0xf6
 2813 0f28 360F0000 		.4byte	0xf36
 2814 0f2c 26       		.uleb128 0x26
 2815 0f2d 220B0000 		.4byte	0xb22
 2816 0f31 1C030000 		.4byte	.LLST13
 2817 0f35 00       		.byte	0
 2818 0f36 25       		.uleb128 0x25
 2819 0f37 E80A0000 		.4byte	0xae8
 2820 0f3b 32000000 		.4byte	.LBB34
 2821 0f3f 0A000000 		.4byte	.LBE34-.LBB34
 2822 0f43 01       		.byte	0x1
 2823 0f44 F7       		.byte	0xf7
 2824 0f45 530F0000 		.4byte	0xf53
 2825 0f49 26       		.uleb128 0x26
 2826 0f4a F90A0000 		.4byte	0xaf9
 2827 0f4e 2F030000 		.4byte	.LLST14
 2828 0f52 00       		.byte	0
 2829 0f53 25       		.uleb128 0x25
 2830 0f54 2F0B0000 		.4byte	0xb2f
 2831 0f58 44000000 		.4byte	.LBB36
 2832 0f5c 08000000 		.4byte	.LBE36-.LBB36
 2833 0f60 01       		.byte	0x1
 2834 0f61 FA       		.byte	0xfa
 2835 0f62 700F0000 		.4byte	0xf70
 2836 0f66 26       		.uleb128 0x26
 2837 0f67 3C0B0000 		.4byte	0xb3c
 2838 0f6b 42030000 		.4byte	.LLST15
 2839 0f6f 00       		.byte	0
 2840 0f70 25       		.uleb128 0x25
 2841 0f71 4F0B0000 		.4byte	0xb4f
 2842 0f75 54000000 		.4byte	.LBB38
 2843 0f79 08000000 		.4byte	.LBE38-.LBB38
 2844 0f7d 01       		.byte	0x1
 2845 0f7e FE       		.byte	0xfe
ARM GAS  C:\Users\dev\AppData\Local\Temp\ccJYAN2E.s 			page 76


 2846 0f7f 8D0F0000 		.4byte	0xf8d
 2847 0f83 26       		.uleb128 0x26
 2848 0f84 5C0B0000 		.4byte	0xb5c
 2849 0f88 55030000 		.4byte	.LLST16
 2850 0f8c 00       		.byte	0
 2851 0f8d 27       		.uleb128 0x27
 2852 0f8e 690B0000 		.4byte	0xb69
 2853 0f92 5C000000 		.4byte	.LBB40
 2854 0f96 08000000 		.4byte	.LBE40-.LBB40
 2855 0f9a 01       		.byte	0x1
 2856 0f9b 0001     		.2byte	0x100
 2857 0f9d B40F0000 		.4byte	0xfb4
 2858 0fa1 26       		.uleb128 0x26
 2859 0fa2 820B0000 		.4byte	0xb82
 2860 0fa6 68030000 		.4byte	.LLST17
 2861 0faa 26       		.uleb128 0x26
 2862 0fab 760B0000 		.4byte	0xb76
 2863 0faf 7C030000 		.4byte	.LLST18
 2864 0fb3 00       		.byte	0
 2865 0fb4 27       		.uleb128 0x27
 2866 0fb5 A90B0000 		.4byte	0xba9
 2867 0fb9 6C000000 		.4byte	.LBB42
 2868 0fbd 1C000000 		.4byte	.LBE42-.LBB42
 2869 0fc1 01       		.byte	0x1
 2870 0fc2 0701     		.2byte	0x107
 2871 0fc4 D20F0000 		.4byte	0xfd2
 2872 0fc8 26       		.uleb128 0x26
 2873 0fc9 B60B0000 		.4byte	0xbb6
 2874 0fcd 8F030000 		.4byte	.LLST19
 2875 0fd1 00       		.byte	0
 2876 0fd2 27       		.uleb128 0x27
 2877 0fd3 8F0B0000 		.4byte	0xb8f
 2878 0fd7 88000000 		.4byte	.LBB44
 2879 0fdb 08000000 		.4byte	.LBE44-.LBB44
 2880 0fdf 01       		.byte	0x1
 2881 0fe0 0801     		.2byte	0x108
 2882 0fe2 F00F0000 		.4byte	0xff0
 2883 0fe6 26       		.uleb128 0x26
 2884 0fe7 9C0B0000 		.4byte	0xb9c
 2885 0feb A2030000 		.4byte	.LLST20
 2886 0fef 00       		.byte	0
 2887 0ff0 27       		.uleb128 0x27
 2888 0ff1 E90B0000 		.4byte	0xbe9
 2889 0ff5 98000000 		.4byte	.LBB46
 2890 0ff9 1C000000 		.4byte	.LBE46-.LBB46
 2891 0ffd 01       		.byte	0x1
 2892 0ffe 0C01     		.2byte	0x10c
 2893 1000 0E100000 		.4byte	0x100e
 2894 1004 26       		.uleb128 0x26
 2895 1005 F60B0000 		.4byte	0xbf6
 2896 1009 B5030000 		.4byte	.LLST21
 2897 100d 00       		.byte	0
 2898 100e 27       		.uleb128 0x27
 2899 100f C30B0000 		.4byte	0xbc3
 2900 1013 B4000000 		.4byte	.LBB48
 2901 1017 06000000 		.4byte	.LBE48-.LBB48
 2902 101b 01       		.byte	0x1
ARM GAS  C:\Users\dev\AppData\Local\Temp\ccJYAN2E.s 			page 77


 2903 101c 0D01     		.2byte	0x10d
 2904 101e 35100000 		.4byte	0x1035
 2905 1022 26       		.uleb128 0x26
 2906 1023 DC0B0000 		.4byte	0xbdc
 2907 1027 C8030000 		.4byte	.LLST22
 2908 102b 26       		.uleb128 0x26
 2909 102c D00B0000 		.4byte	0xbd0
 2910 1030 DC030000 		.4byte	.LLST23
 2911 1034 00       		.byte	0
 2912 1035 27       		.uleb128 0x27
 2913 1036 C30B0000 		.4byte	0xbc3
 2914 103a BA000000 		.4byte	.LBB50
 2915 103e 04000000 		.4byte	.LBE50-.LBB50
 2916 1042 01       		.byte	0x1
 2917 1043 0E01     		.2byte	0x10e
 2918 1045 5C100000 		.4byte	0x105c
 2919 1049 26       		.uleb128 0x26
 2920 104a DC0B0000 		.4byte	0xbdc
 2921 104e EF030000 		.4byte	.LLST24
 2922 1052 26       		.uleb128 0x26
 2923 1053 D00B0000 		.4byte	0xbd0
 2924 1057 03040000 		.4byte	.LLST25
 2925 105b 00       		.byte	0
 2926 105c 27       		.uleb128 0x27
 2927 105d 030C0000 		.4byte	0xc03
 2928 1061 C6000000 		.4byte	.LBB52
 2929 1065 08000000 		.4byte	.LBE52-.LBB52
 2930 1069 01       		.byte	0x1
 2931 106a 1101     		.2byte	0x111
 2932 106c 7A100000 		.4byte	0x107a
 2933 1070 26       		.uleb128 0x26
 2934 1071 100C0000 		.4byte	0xc10
 2935 1075 16040000 		.4byte	.LLST26
 2936 1079 00       		.byte	0
 2937 107a 27       		.uleb128 0x27
 2938 107b 1D0C0000 		.4byte	0xc1d
 2939 107f CE000000 		.4byte	.LBB54
 2940 1083 08000000 		.4byte	.LBE54-.LBB54
 2941 1087 01       		.byte	0x1
 2942 1088 1301     		.2byte	0x113
 2943 108a 98100000 		.4byte	0x1098
 2944 108e 26       		.uleb128 0x26
 2945 108f 2A0C0000 		.4byte	0xc2a
 2946 1093 29040000 		.4byte	.LLST27
 2947 1097 00       		.byte	0
 2948 1098 27       		.uleb128 0x27
 2949 1099 370C0000 		.4byte	0xc37
 2950 109d D8000000 		.4byte	.LBB56
 2951 10a1 18000000 		.4byte	.LBE56-.LBB56
 2952 10a5 01       		.byte	0x1
 2953 10a6 1501     		.2byte	0x115
 2954 10a8 D9100000 		.4byte	0x10d9
 2955 10ac 26       		.uleb128 0x26
 2956 10ad 500C0000 		.4byte	0xc50
 2957 10b1 3C040000 		.4byte	.LLST28
 2958 10b5 26       		.uleb128 0x26
 2959 10b6 440C0000 		.4byte	0xc44
ARM GAS  C:\Users\dev\AppData\Local\Temp\ccJYAN2E.s 			page 78


 2960 10ba 4F040000 		.4byte	.LLST29
 2961 10be 22       		.uleb128 0x22
 2962 10bf E8000000 		.4byte	.LVL74
 2963 10c3 61110000 		.4byte	0x1161
 2964 10c7 21       		.uleb128 0x21
 2965 10c8 01       		.uleb128 0x1
 2966 10c9 50       		.byte	0x50
 2967 10ca 05       		.uleb128 0x5
 2968 10cb 03       		.byte	0x3
 2969 10cc 3C000000 		.4byte	.LC1
 2970 10d0 21       		.uleb128 0x21
 2971 10d1 01       		.uleb128 0x1
 2972 10d2 51       		.byte	0x51
 2973 10d3 03       		.uleb128 0x3
 2974 10d4 0A       		.byte	0xa
 2975 10d5 EF03     		.2byte	0x3ef
 2976 10d7 00       		.byte	0
 2977 10d8 00       		.byte	0
 2978 10d9 27       		.uleb128 0x27
 2979 10da 690B0000 		.4byte	0xb69
 2980 10de F2000000 		.4byte	.LBB58
 2981 10e2 14000000 		.4byte	.LBE58-.LBB58
 2982 10e6 01       		.byte	0x1
 2983 10e7 1601     		.2byte	0x116
 2984 10e9 1A110000 		.4byte	0x111a
 2985 10ed 26       		.uleb128 0x26
 2986 10ee 820B0000 		.4byte	0xb82
 2987 10f2 62040000 		.4byte	.LLST30
 2988 10f6 26       		.uleb128 0x26
 2989 10f7 760B0000 		.4byte	0xb76
 2990 10fb 75040000 		.4byte	.LLST31
 2991 10ff 22       		.uleb128 0x22
 2992 1100 02010000 		.4byte	.LVL77
 2993 1104 61110000 		.4byte	0x1161
 2994 1108 21       		.uleb128 0x21
 2995 1109 01       		.uleb128 0x1
 2996 110a 50       		.byte	0x50
 2997 110b 05       		.uleb128 0x5
 2998 110c 03       		.byte	0x3
 2999 110d 3C000000 		.4byte	.LC1
 3000 1111 21       		.uleb128 0x21
 3001 1112 01       		.uleb128 0x1
 3002 1113 51       		.byte	0x51
 3003 1114 03       		.uleb128 0x3
 3004 1115 0A       		.byte	0xa
 3005 1116 2E04     		.2byte	0x42e
 3006 1118 00       		.byte	0
 3007 1119 00       		.byte	0
 3008 111a 22       		.uleb128 0x22
 3009 111b 12000000 		.4byte	.LVL51
 3010 111f 61110000 		.4byte	0x1161
 3011 1123 21       		.uleb128 0x21
 3012 1124 01       		.uleb128 0x1
 3013 1125 50       		.byte	0x50
 3014 1126 05       		.uleb128 0x5
 3015 1127 03       		.byte	0x3
 3016 1128 00000000 		.4byte	.LC0
ARM GAS  C:\Users\dev\AppData\Local\Temp\ccJYAN2E.s 			page 79


 3017 112c 21       		.uleb128 0x21
 3018 112d 01       		.uleb128 0x1
 3019 112e 51       		.byte	0x51
 3020 112f 02       		.uleb128 0x2
 3021 1130 08       		.byte	0x8
 3022 1131 EA       		.byte	0xea
 3023 1132 00       		.byte	0
 3024 1133 00       		.byte	0
 3025 1134 16       		.uleb128 0x16
 3026 1135 04       		.byte	0x4
 3027 1136 D5000000 		.4byte	0xd5
 3028 113a 28       		.uleb128 0x28
 3029 113b B1090000 		.4byte	.LASF238
 3030 113f 06       		.byte	0x6
 3031 1140 A7       		.byte	0xa7
 3032 1141 45110000 		.4byte	0x1145
 3033 1145 16       		.uleb128 0x16
 3034 1146 04       		.byte	0x4
 3035 1147 4B110000 		.4byte	0x114b
 3036 114b 06       		.uleb128 0x6
 3037 114c 29070000 		.4byte	0x729
 3038 1150 29       		.uleb128 0x29
 3039 1151 2F020000 		.4byte	.LASF239
 3040 1155 0A       		.byte	0xa
 3041 1156 F907     		.2byte	0x7f9
 3042 1158 5C110000 		.4byte	0x115c
 3043 115c 05       		.uleb128 0x5
 3044 115d CA000000 		.4byte	0xca
 3045 1161 2A       		.uleb128 0x2a
 3046 1162 BA0C0000 		.4byte	.LASF244
 3047 1166 BA0C0000 		.4byte	.LASF244
 3048 116a 08       		.byte	0x8
 3049 116b 9203     		.2byte	0x392
 3050 116d 00       		.byte	0
 3051              		.section	.debug_abbrev,"",%progbits
 3052              	.Ldebug_abbrev0:
 3053 0000 01       		.uleb128 0x1
 3054 0001 11       		.uleb128 0x11
 3055 0002 01       		.byte	0x1
 3056 0003 25       		.uleb128 0x25
 3057 0004 0E       		.uleb128 0xe
 3058 0005 13       		.uleb128 0x13
 3059 0006 0B       		.uleb128 0xb
 3060 0007 03       		.uleb128 0x3
 3061 0008 0E       		.uleb128 0xe
 3062 0009 1B       		.uleb128 0x1b
 3063 000a 0E       		.uleb128 0xe
 3064 000b 55       		.uleb128 0x55
 3065 000c 17       		.uleb128 0x17
 3066 000d 11       		.uleb128 0x11
 3067 000e 01       		.uleb128 0x1
 3068 000f 10       		.uleb128 0x10
 3069 0010 17       		.uleb128 0x17
 3070 0011 00       		.byte	0
 3071 0012 00       		.byte	0
 3072 0013 02       		.uleb128 0x2
 3073 0014 24       		.uleb128 0x24
ARM GAS  C:\Users\dev\AppData\Local\Temp\ccJYAN2E.s 			page 80


 3074 0015 00       		.byte	0
 3075 0016 0B       		.uleb128 0xb
 3076 0017 0B       		.uleb128 0xb
 3077 0018 3E       		.uleb128 0x3e
 3078 0019 0B       		.uleb128 0xb
 3079 001a 03       		.uleb128 0x3
 3080 001b 08       		.uleb128 0x8
 3081 001c 00       		.byte	0
 3082 001d 00       		.byte	0
 3083 001e 03       		.uleb128 0x3
 3084 001f 24       		.uleb128 0x24
 3085 0020 00       		.byte	0
 3086 0021 0B       		.uleb128 0xb
 3087 0022 0B       		.uleb128 0xb
 3088 0023 3E       		.uleb128 0x3e
 3089 0024 0B       		.uleb128 0xb
 3090 0025 03       		.uleb128 0x3
 3091 0026 0E       		.uleb128 0xe
 3092 0027 00       		.byte	0
 3093 0028 00       		.byte	0
 3094 0029 04       		.uleb128 0x4
 3095 002a 16       		.uleb128 0x16
 3096 002b 00       		.byte	0
 3097 002c 03       		.uleb128 0x3
 3098 002d 0E       		.uleb128 0xe
 3099 002e 3A       		.uleb128 0x3a
 3100 002f 0B       		.uleb128 0xb
 3101 0030 3B       		.uleb128 0x3b
 3102 0031 0B       		.uleb128 0xb
 3103 0032 49       		.uleb128 0x49
 3104 0033 13       		.uleb128 0x13
 3105 0034 00       		.byte	0
 3106 0035 00       		.byte	0
 3107 0036 05       		.uleb128 0x5
 3108 0037 35       		.uleb128 0x35
 3109 0038 00       		.byte	0
 3110 0039 49       		.uleb128 0x49
 3111 003a 13       		.uleb128 0x13
 3112 003b 00       		.byte	0
 3113 003c 00       		.byte	0
 3114 003d 06       		.uleb128 0x6
 3115 003e 26       		.uleb128 0x26
 3116 003f 00       		.byte	0
 3117 0040 49       		.uleb128 0x49
 3118 0041 13       		.uleb128 0x13
 3119 0042 00       		.byte	0
 3120 0043 00       		.byte	0
 3121 0044 07       		.uleb128 0x7
 3122 0045 01       		.uleb128 0x1
 3123 0046 01       		.byte	0x1
 3124 0047 49       		.uleb128 0x49
 3125 0048 13       		.uleb128 0x13
 3126 0049 01       		.uleb128 0x1
 3127 004a 13       		.uleb128 0x13
 3128 004b 00       		.byte	0
 3129 004c 00       		.byte	0
 3130 004d 08       		.uleb128 0x8
ARM GAS  C:\Users\dev\AppData\Local\Temp\ccJYAN2E.s 			page 81


 3131 004e 21       		.uleb128 0x21
 3132 004f 00       		.byte	0
 3133 0050 49       		.uleb128 0x49
 3134 0051 13       		.uleb128 0x13
 3135 0052 2F       		.uleb128 0x2f
 3136 0053 0B       		.uleb128 0xb
 3137 0054 00       		.byte	0
 3138 0055 00       		.byte	0
 3139 0056 09       		.uleb128 0x9
 3140 0057 13       		.uleb128 0x13
 3141 0058 01       		.byte	0x1
 3142 0059 0B       		.uleb128 0xb
 3143 005a 05       		.uleb128 0x5
 3144 005b 3A       		.uleb128 0x3a
 3145 005c 0B       		.uleb128 0xb
 3146 005d 3B       		.uleb128 0x3b
 3147 005e 0B       		.uleb128 0xb
 3148 005f 01       		.uleb128 0x1
 3149 0060 13       		.uleb128 0x13
 3150 0061 00       		.byte	0
 3151 0062 00       		.byte	0
 3152 0063 0A       		.uleb128 0xa
 3153 0064 0D       		.uleb128 0xd
 3154 0065 00       		.byte	0
 3155 0066 03       		.uleb128 0x3
 3156 0067 08       		.uleb128 0x8
 3157 0068 3A       		.uleb128 0x3a
 3158 0069 0B       		.uleb128 0xb
 3159 006a 3B       		.uleb128 0x3b
 3160 006b 0B       		.uleb128 0xb
 3161 006c 49       		.uleb128 0x49
 3162 006d 13       		.uleb128 0x13
 3163 006e 38       		.uleb128 0x38
 3164 006f 0B       		.uleb128 0xb
 3165 0070 00       		.byte	0
 3166 0071 00       		.byte	0
 3167 0072 0B       		.uleb128 0xb
 3168 0073 0D       		.uleb128 0xd
 3169 0074 00       		.byte	0
 3170 0075 03       		.uleb128 0x3
 3171 0076 0E       		.uleb128 0xe
 3172 0077 3A       		.uleb128 0x3a
 3173 0078 0B       		.uleb128 0xb
 3174 0079 3B       		.uleb128 0x3b
 3175 007a 0B       		.uleb128 0xb
 3176 007b 49       		.uleb128 0x49
 3177 007c 13       		.uleb128 0x13
 3178 007d 38       		.uleb128 0x38
 3179 007e 0B       		.uleb128 0xb
 3180 007f 00       		.byte	0
 3181 0080 00       		.byte	0
 3182 0081 0C       		.uleb128 0xc
 3183 0082 0D       		.uleb128 0xd
 3184 0083 00       		.byte	0
 3185 0084 03       		.uleb128 0x3
 3186 0085 0E       		.uleb128 0xe
 3187 0086 3A       		.uleb128 0x3a
ARM GAS  C:\Users\dev\AppData\Local\Temp\ccJYAN2E.s 			page 82


 3188 0087 0B       		.uleb128 0xb
 3189 0088 3B       		.uleb128 0x3b
 3190 0089 0B       		.uleb128 0xb
 3191 008a 49       		.uleb128 0x49
 3192 008b 13       		.uleb128 0x13
 3193 008c 38       		.uleb128 0x38
 3194 008d 05       		.uleb128 0x5
 3195 008e 00       		.byte	0
 3196 008f 00       		.byte	0
 3197 0090 0D       		.uleb128 0xd
 3198 0091 21       		.uleb128 0x21
 3199 0092 00       		.byte	0
 3200 0093 49       		.uleb128 0x49
 3201 0094 13       		.uleb128 0x13
 3202 0095 2F       		.uleb128 0x2f
 3203 0096 05       		.uleb128 0x5
 3204 0097 00       		.byte	0
 3205 0098 00       		.byte	0
 3206 0099 0E       		.uleb128 0xe
 3207 009a 13       		.uleb128 0x13
 3208 009b 01       		.byte	0x1
 3209 009c 0B       		.uleb128 0xb
 3210 009d 0B       		.uleb128 0xb
 3211 009e 3A       		.uleb128 0x3a
 3212 009f 0B       		.uleb128 0xb
 3213 00a0 3B       		.uleb128 0x3b
 3214 00a1 0B       		.uleb128 0xb
 3215 00a2 01       		.uleb128 0x1
 3216 00a3 13       		.uleb128 0x13
 3217 00a4 00       		.byte	0
 3218 00a5 00       		.byte	0
 3219 00a6 0F       		.uleb128 0xf
 3220 00a7 16       		.uleb128 0x16
 3221 00a8 00       		.byte	0
 3222 00a9 03       		.uleb128 0x3
 3223 00aa 0E       		.uleb128 0xe
 3224 00ab 3A       		.uleb128 0x3a
 3225 00ac 0B       		.uleb128 0xb
 3226 00ad 3B       		.uleb128 0x3b
 3227 00ae 05       		.uleb128 0x5
 3228 00af 49       		.uleb128 0x49
 3229 00b0 13       		.uleb128 0x13
 3230 00b1 00       		.byte	0
 3231 00b2 00       		.byte	0
 3232 00b3 10       		.uleb128 0x10
 3233 00b4 04       		.uleb128 0x4
 3234 00b5 01       		.byte	0x1
 3235 00b6 0B       		.uleb128 0xb
 3236 00b7 0B       		.uleb128 0xb
 3237 00b8 49       		.uleb128 0x49
 3238 00b9 13       		.uleb128 0x13
 3239 00ba 3A       		.uleb128 0x3a
 3240 00bb 0B       		.uleb128 0xb
 3241 00bc 3B       		.uleb128 0x3b
 3242 00bd 05       		.uleb128 0x5
 3243 00be 01       		.uleb128 0x1
 3244 00bf 13       		.uleb128 0x13
ARM GAS  C:\Users\dev\AppData\Local\Temp\ccJYAN2E.s 			page 83


 3245 00c0 00       		.byte	0
 3246 00c1 00       		.byte	0
 3247 00c2 11       		.uleb128 0x11
 3248 00c3 28       		.uleb128 0x28
 3249 00c4 00       		.byte	0
 3250 00c5 03       		.uleb128 0x3
 3251 00c6 0E       		.uleb128 0xe
 3252 00c7 1C       		.uleb128 0x1c
 3253 00c8 0B       		.uleb128 0xb
 3254 00c9 00       		.byte	0
 3255 00ca 00       		.byte	0
 3256 00cb 12       		.uleb128 0x12
 3257 00cc 28       		.uleb128 0x28
 3258 00cd 00       		.byte	0
 3259 00ce 03       		.uleb128 0x3
 3260 00cf 0E       		.uleb128 0xe
 3261 00d0 1C       		.uleb128 0x1c
 3262 00d1 06       		.uleb128 0x6
 3263 00d2 00       		.byte	0
 3264 00d3 00       		.byte	0
 3265 00d4 13       		.uleb128 0x13
 3266 00d5 13       		.uleb128 0x13
 3267 00d6 01       		.byte	0x1
 3268 00d7 0B       		.uleb128 0xb
 3269 00d8 0B       		.uleb128 0xb
 3270 00d9 3A       		.uleb128 0x3a
 3271 00da 0B       		.uleb128 0xb
 3272 00db 3B       		.uleb128 0x3b
 3273 00dc 05       		.uleb128 0x5
 3274 00dd 01       		.uleb128 0x1
 3275 00de 13       		.uleb128 0x13
 3276 00df 00       		.byte	0
 3277 00e0 00       		.byte	0
 3278 00e1 14       		.uleb128 0x14
 3279 00e2 0D       		.uleb128 0xd
 3280 00e3 00       		.byte	0
 3281 00e4 03       		.uleb128 0x3
 3282 00e5 0E       		.uleb128 0xe
 3283 00e6 3A       		.uleb128 0x3a
 3284 00e7 0B       		.uleb128 0xb
 3285 00e8 3B       		.uleb128 0x3b
 3286 00e9 05       		.uleb128 0x5
 3287 00ea 49       		.uleb128 0x49
 3288 00eb 13       		.uleb128 0x13
 3289 00ec 38       		.uleb128 0x38
 3290 00ed 0B       		.uleb128 0xb
 3291 00ee 00       		.byte	0
 3292 00ef 00       		.byte	0
 3293 00f0 15       		.uleb128 0x15
 3294 00f1 0F       		.uleb128 0xf
 3295 00f2 00       		.byte	0
 3296 00f3 0B       		.uleb128 0xb
 3297 00f4 0B       		.uleb128 0xb
 3298 00f5 00       		.byte	0
 3299 00f6 00       		.byte	0
 3300 00f7 16       		.uleb128 0x16
 3301 00f8 0F       		.uleb128 0xf
ARM GAS  C:\Users\dev\AppData\Local\Temp\ccJYAN2E.s 			page 84


 3302 00f9 00       		.byte	0
 3303 00fa 0B       		.uleb128 0xb
 3304 00fb 0B       		.uleb128 0xb
 3305 00fc 49       		.uleb128 0x49
 3306 00fd 13       		.uleb128 0x13
 3307 00fe 00       		.byte	0
 3308 00ff 00       		.byte	0
 3309 0100 17       		.uleb128 0x17
 3310 0101 04       		.uleb128 0x4
 3311 0102 01       		.byte	0x1
 3312 0103 0B       		.uleb128 0xb
 3313 0104 0B       		.uleb128 0xb
 3314 0105 49       		.uleb128 0x49
 3315 0106 13       		.uleb128 0x13
 3316 0107 3A       		.uleb128 0x3a
 3317 0108 0B       		.uleb128 0xb
 3318 0109 3B       		.uleb128 0x3b
 3319 010a 0B       		.uleb128 0xb
 3320 010b 01       		.uleb128 0x1
 3321 010c 13       		.uleb128 0x13
 3322 010d 00       		.byte	0
 3323 010e 00       		.byte	0
 3324 010f 18       		.uleb128 0x18
 3325 0110 2E       		.uleb128 0x2e
 3326 0111 01       		.byte	0x1
 3327 0112 03       		.uleb128 0x3
 3328 0113 0E       		.uleb128 0xe
 3329 0114 3A       		.uleb128 0x3a
 3330 0115 0B       		.uleb128 0xb
 3331 0116 3B       		.uleb128 0x3b
 3332 0117 05       		.uleb128 0x5
 3333 0118 27       		.uleb128 0x27
 3334 0119 19       		.uleb128 0x19
 3335 011a 49       		.uleb128 0x49
 3336 011b 13       		.uleb128 0x13
 3337 011c 20       		.uleb128 0x20
 3338 011d 0B       		.uleb128 0xb
 3339 011e 01       		.uleb128 0x1
 3340 011f 13       		.uleb128 0x13
 3341 0120 00       		.byte	0
 3342 0121 00       		.byte	0
 3343 0122 19       		.uleb128 0x19
 3344 0123 05       		.uleb128 0x5
 3345 0124 00       		.byte	0
 3346 0125 03       		.uleb128 0x3
 3347 0126 0E       		.uleb128 0xe
 3348 0127 3A       		.uleb128 0x3a
 3349 0128 0B       		.uleb128 0xb
 3350 0129 3B       		.uleb128 0x3b
 3351 012a 05       		.uleb128 0x5
 3352 012b 49       		.uleb128 0x49
 3353 012c 13       		.uleb128 0x13
 3354 012d 00       		.byte	0
 3355 012e 00       		.byte	0
 3356 012f 1A       		.uleb128 0x1a
 3357 0130 2E       		.uleb128 0x2e
 3358 0131 01       		.byte	0x1
ARM GAS  C:\Users\dev\AppData\Local\Temp\ccJYAN2E.s 			page 85


 3359 0132 03       		.uleb128 0x3
 3360 0133 0E       		.uleb128 0xe
 3361 0134 3A       		.uleb128 0x3a
 3362 0135 0B       		.uleb128 0xb
 3363 0136 3B       		.uleb128 0x3b
 3364 0137 05       		.uleb128 0x5
 3365 0138 27       		.uleb128 0x27
 3366 0139 19       		.uleb128 0x19
 3367 013a 20       		.uleb128 0x20
 3368 013b 0B       		.uleb128 0xb
 3369 013c 01       		.uleb128 0x1
 3370 013d 13       		.uleb128 0x13
 3371 013e 00       		.byte	0
 3372 013f 00       		.byte	0
 3373 0140 1B       		.uleb128 0x1b
 3374 0141 2E       		.uleb128 0x2e
 3375 0142 01       		.byte	0x1
 3376 0143 3F       		.uleb128 0x3f
 3377 0144 19       		.uleb128 0x19
 3378 0145 03       		.uleb128 0x3
 3379 0146 0E       		.uleb128 0xe
 3380 0147 3A       		.uleb128 0x3a
 3381 0148 0B       		.uleb128 0xb
 3382 0149 3B       		.uleb128 0x3b
 3383 014a 0B       		.uleb128 0xb
 3384 014b 27       		.uleb128 0x27
 3385 014c 19       		.uleb128 0x19
 3386 014d 49       		.uleb128 0x49
 3387 014e 13       		.uleb128 0x13
 3388 014f 11       		.uleb128 0x11
 3389 0150 01       		.uleb128 0x1
 3390 0151 12       		.uleb128 0x12
 3391 0152 06       		.uleb128 0x6
 3392 0153 40       		.uleb128 0x40
 3393 0154 18       		.uleb128 0x18
 3394 0155 9742     		.uleb128 0x2117
 3395 0157 19       		.uleb128 0x19
 3396 0158 01       		.uleb128 0x1
 3397 0159 13       		.uleb128 0x13
 3398 015a 00       		.byte	0
 3399 015b 00       		.byte	0
 3400 015c 1C       		.uleb128 0x1c
 3401 015d 05       		.uleb128 0x5
 3402 015e 00       		.byte	0
 3403 015f 03       		.uleb128 0x3
 3404 0160 0E       		.uleb128 0xe
 3405 0161 3A       		.uleb128 0x3a
 3406 0162 0B       		.uleb128 0xb
 3407 0163 3B       		.uleb128 0x3b
 3408 0164 0B       		.uleb128 0xb
 3409 0165 49       		.uleb128 0x49
 3410 0166 13       		.uleb128 0x13
 3411 0167 02       		.uleb128 0x2
 3412 0168 17       		.uleb128 0x17
 3413 0169 00       		.byte	0
 3414 016a 00       		.byte	0
 3415 016b 1D       		.uleb128 0x1d
ARM GAS  C:\Users\dev\AppData\Local\Temp\ccJYAN2E.s 			page 86


 3416 016c 34       		.uleb128 0x34
 3417 016d 00       		.byte	0
 3418 016e 03       		.uleb128 0x3
 3419 016f 08       		.uleb128 0x8
 3420 0170 3A       		.uleb128 0x3a
 3421 0171 0B       		.uleb128 0xb
 3422 0172 3B       		.uleb128 0x3b
 3423 0173 0B       		.uleb128 0xb
 3424 0174 49       		.uleb128 0x49
 3425 0175 13       		.uleb128 0x13
 3426 0176 02       		.uleb128 0x2
 3427 0177 17       		.uleb128 0x17
 3428 0178 00       		.byte	0
 3429 0179 00       		.byte	0
 3430 017a 1E       		.uleb128 0x1e
 3431 017b 0B       		.uleb128 0xb
 3432 017c 01       		.byte	0x1
 3433 017d 55       		.uleb128 0x55
 3434 017e 17       		.uleb128 0x17
 3435 017f 00       		.byte	0
 3436 0180 00       		.byte	0
 3437 0181 1F       		.uleb128 0x1f
 3438 0182 34       		.uleb128 0x34
 3439 0183 00       		.byte	0
 3440 0184 03       		.uleb128 0x3
 3441 0185 0E       		.uleb128 0xe
 3442 0186 3A       		.uleb128 0x3a
 3443 0187 0B       		.uleb128 0xb
 3444 0188 3B       		.uleb128 0x3b
 3445 0189 0B       		.uleb128 0xb
 3446 018a 49       		.uleb128 0x49
 3447 018b 13       		.uleb128 0x13
 3448 018c 02       		.uleb128 0x2
 3449 018d 17       		.uleb128 0x17
 3450 018e 00       		.byte	0
 3451 018f 00       		.byte	0
 3452 0190 20       		.uleb128 0x20
 3453 0191 898201   		.uleb128 0x4109
 3454 0194 01       		.byte	0x1
 3455 0195 11       		.uleb128 0x11
 3456 0196 01       		.uleb128 0x1
 3457 0197 31       		.uleb128 0x31
 3458 0198 13       		.uleb128 0x13
 3459 0199 01       		.uleb128 0x1
 3460 019a 13       		.uleb128 0x13
 3461 019b 00       		.byte	0
 3462 019c 00       		.byte	0
 3463 019d 21       		.uleb128 0x21
 3464 019e 8A8201   		.uleb128 0x410a
 3465 01a1 00       		.byte	0
 3466 01a2 02       		.uleb128 0x2
 3467 01a3 18       		.uleb128 0x18
 3468 01a4 9142     		.uleb128 0x2111
 3469 01a6 18       		.uleb128 0x18
 3470 01a7 00       		.byte	0
 3471 01a8 00       		.byte	0
 3472 01a9 22       		.uleb128 0x22
ARM GAS  C:\Users\dev\AppData\Local\Temp\ccJYAN2E.s 			page 87


 3473 01aa 898201   		.uleb128 0x4109
 3474 01ad 01       		.byte	0x1
 3475 01ae 11       		.uleb128 0x11
 3476 01af 01       		.uleb128 0x1
 3477 01b0 31       		.uleb128 0x31
 3478 01b1 13       		.uleb128 0x13
 3479 01b2 00       		.byte	0
 3480 01b3 00       		.byte	0
 3481 01b4 23       		.uleb128 0x23
 3482 01b5 2E       		.uleb128 0x2e
 3483 01b6 01       		.byte	0x1
 3484 01b7 3F       		.uleb128 0x3f
 3485 01b8 19       		.uleb128 0x19
 3486 01b9 03       		.uleb128 0x3
 3487 01ba 0E       		.uleb128 0xe
 3488 01bb 3A       		.uleb128 0x3a
 3489 01bc 0B       		.uleb128 0xb
 3490 01bd 3B       		.uleb128 0x3b
 3491 01be 0B       		.uleb128 0xb
 3492 01bf 27       		.uleb128 0x27
 3493 01c0 19       		.uleb128 0x19
 3494 01c1 11       		.uleb128 0x11
 3495 01c2 01       		.uleb128 0x1
 3496 01c3 12       		.uleb128 0x12
 3497 01c4 06       		.uleb128 0x6
 3498 01c5 40       		.uleb128 0x40
 3499 01c6 18       		.uleb128 0x18
 3500 01c7 9742     		.uleb128 0x2117
 3501 01c9 19       		.uleb128 0x19
 3502 01ca 01       		.uleb128 0x1
 3503 01cb 13       		.uleb128 0x13
 3504 01cc 00       		.byte	0
 3505 01cd 00       		.byte	0
 3506 01ce 24       		.uleb128 0x24
 3507 01cf 05       		.uleb128 0x5
 3508 01d0 00       		.byte	0
 3509 01d1 03       		.uleb128 0x3
 3510 01d2 0E       		.uleb128 0xe
 3511 01d3 3A       		.uleb128 0x3a
 3512 01d4 0B       		.uleb128 0xb
 3513 01d5 3B       		.uleb128 0x3b
 3514 01d6 0B       		.uleb128 0xb
 3515 01d7 49       		.uleb128 0x49
 3516 01d8 13       		.uleb128 0x13
 3517 01d9 02       		.uleb128 0x2
 3518 01da 18       		.uleb128 0x18
 3519 01db 00       		.byte	0
 3520 01dc 00       		.byte	0
 3521 01dd 25       		.uleb128 0x25
 3522 01de 1D       		.uleb128 0x1d
 3523 01df 01       		.byte	0x1
 3524 01e0 31       		.uleb128 0x31
 3525 01e1 13       		.uleb128 0x13
 3526 01e2 11       		.uleb128 0x11
 3527 01e3 01       		.uleb128 0x1
 3528 01e4 12       		.uleb128 0x12
 3529 01e5 06       		.uleb128 0x6
ARM GAS  C:\Users\dev\AppData\Local\Temp\ccJYAN2E.s 			page 88


 3530 01e6 58       		.uleb128 0x58
 3531 01e7 0B       		.uleb128 0xb
 3532 01e8 59       		.uleb128 0x59
 3533 01e9 0B       		.uleb128 0xb
 3534 01ea 01       		.uleb128 0x1
 3535 01eb 13       		.uleb128 0x13
 3536 01ec 00       		.byte	0
 3537 01ed 00       		.byte	0
 3538 01ee 26       		.uleb128 0x26
 3539 01ef 05       		.uleb128 0x5
 3540 01f0 00       		.byte	0
 3541 01f1 31       		.uleb128 0x31
 3542 01f2 13       		.uleb128 0x13
 3543 01f3 02       		.uleb128 0x2
 3544 01f4 17       		.uleb128 0x17
 3545 01f5 00       		.byte	0
 3546 01f6 00       		.byte	0
 3547 01f7 27       		.uleb128 0x27
 3548 01f8 1D       		.uleb128 0x1d
 3549 01f9 01       		.byte	0x1
 3550 01fa 31       		.uleb128 0x31
 3551 01fb 13       		.uleb128 0x13
 3552 01fc 11       		.uleb128 0x11
 3553 01fd 01       		.uleb128 0x1
 3554 01fe 12       		.uleb128 0x12
 3555 01ff 06       		.uleb128 0x6
 3556 0200 58       		.uleb128 0x58
 3557 0201 0B       		.uleb128 0xb
 3558 0202 59       		.uleb128 0x59
 3559 0203 05       		.uleb128 0x5
 3560 0204 01       		.uleb128 0x1
 3561 0205 13       		.uleb128 0x13
 3562 0206 00       		.byte	0
 3563 0207 00       		.byte	0
 3564 0208 28       		.uleb128 0x28
 3565 0209 34       		.uleb128 0x34
 3566 020a 00       		.byte	0
 3567 020b 03       		.uleb128 0x3
 3568 020c 0E       		.uleb128 0xe
 3569 020d 3A       		.uleb128 0x3a
 3570 020e 0B       		.uleb128 0xb
 3571 020f 3B       		.uleb128 0x3b
 3572 0210 0B       		.uleb128 0xb
 3573 0211 49       		.uleb128 0x49
 3574 0212 13       		.uleb128 0x13
 3575 0213 3F       		.uleb128 0x3f
 3576 0214 19       		.uleb128 0x19
 3577 0215 3C       		.uleb128 0x3c
 3578 0216 19       		.uleb128 0x19
 3579 0217 00       		.byte	0
 3580 0218 00       		.byte	0
 3581 0219 29       		.uleb128 0x29
 3582 021a 34       		.uleb128 0x34
 3583 021b 00       		.byte	0
 3584 021c 03       		.uleb128 0x3
 3585 021d 0E       		.uleb128 0xe
 3586 021e 3A       		.uleb128 0x3a
ARM GAS  C:\Users\dev\AppData\Local\Temp\ccJYAN2E.s 			page 89


 3587 021f 0B       		.uleb128 0xb
 3588 0220 3B       		.uleb128 0x3b
 3589 0221 05       		.uleb128 0x5
 3590 0222 49       		.uleb128 0x49
 3591 0223 13       		.uleb128 0x13
 3592 0224 3F       		.uleb128 0x3f
 3593 0225 19       		.uleb128 0x19
 3594 0226 3C       		.uleb128 0x3c
 3595 0227 19       		.uleb128 0x19
 3596 0228 00       		.byte	0
 3597 0229 00       		.byte	0
 3598 022a 2A       		.uleb128 0x2a
 3599 022b 2E       		.uleb128 0x2e
 3600 022c 00       		.byte	0
 3601 022d 3F       		.uleb128 0x3f
 3602 022e 19       		.uleb128 0x19
 3603 022f 3C       		.uleb128 0x3c
 3604 0230 19       		.uleb128 0x19
 3605 0231 6E       		.uleb128 0x6e
 3606 0232 0E       		.uleb128 0xe
 3607 0233 03       		.uleb128 0x3
 3608 0234 0E       		.uleb128 0xe
 3609 0235 3A       		.uleb128 0x3a
 3610 0236 0B       		.uleb128 0xb
 3611 0237 3B       		.uleb128 0x3b
 3612 0238 05       		.uleb128 0x5
 3613 0239 00       		.byte	0
 3614 023a 00       		.byte	0
 3615 023b 00       		.byte	0
 3616              		.section	.debug_loc,"",%progbits
 3617              	.Ldebug_loc0:
 3618              	.LLST0:
 3619 0000 00000000 		.4byte	.LVL0
 3620 0004 20000000 		.4byte	.LVL3
 3621 0008 0100     		.2byte	0x1
 3622 000a 50       		.byte	0x50
 3623 000b 20000000 		.4byte	.LVL3
 3624 000f F2020000 		.4byte	.LVL39
 3625 0013 0100     		.2byte	0x1
 3626 0015 55       		.byte	0x55
 3627 0016 F2020000 		.4byte	.LVL39
 3628 001a F4020000 		.4byte	.LVL40
 3629 001e 0100     		.2byte	0x1
 3630 0020 50       		.byte	0x50
 3631 0021 F4020000 		.4byte	.LVL40
 3632 0025 F6020000 		.4byte	.LVL41
 3633 0029 0400     		.2byte	0x4
 3634 002b F3       		.byte	0xf3
 3635 002c 01       		.uleb128 0x1
 3636 002d 50       		.byte	0x50
 3637 002e 9F       		.byte	0x9f
 3638 002f F6020000 		.4byte	.LVL41
 3639 0033 F8020000 		.4byte	.LVL42
 3640 0037 0100     		.2byte	0x1
 3641 0039 50       		.byte	0x50
 3642 003a F8020000 		.4byte	.LVL42
 3643 003e 02030000 		.4byte	.LVL45
ARM GAS  C:\Users\dev\AppData\Local\Temp\ccJYAN2E.s 			page 90


 3644 0042 0100     		.2byte	0x1
 3645 0044 55       		.byte	0x55
 3646 0045 02030000 		.4byte	.LVL45
 3647 0049 08030000 		.4byte	.LFE194
 3648 004d 0400     		.2byte	0x4
 3649 004f F3       		.byte	0xf3
 3650 0050 01       		.uleb128 0x1
 3651 0051 50       		.byte	0x50
 3652 0052 9F       		.byte	0x9f
 3653 0053 00000000 		.4byte	0
 3654 0057 00000000 		.4byte	0
 3655              	.LLST1:
 3656 005b 00000000 		.4byte	.LVL0
 3657 005f 1E000000 		.4byte	.LVL2
 3658 0063 0100     		.2byte	0x1
 3659 0065 51       		.byte	0x51
 3660 0066 1E000000 		.4byte	.LVL2
 3661 006a F2020000 		.4byte	.LVL39
 3662 006e 0100     		.2byte	0x1
 3663 0070 54       		.byte	0x54
 3664 0071 F2020000 		.4byte	.LVL39
 3665 0075 FC020000 		.4byte	.LVL43
 3666 0079 0100     		.2byte	0x1
 3667 007b 51       		.byte	0x51
 3668 007c FC020000 		.4byte	.LVL43
 3669 0080 02030000 		.4byte	.LVL45
 3670 0084 0100     		.2byte	0x1
 3671 0086 54       		.byte	0x54
 3672 0087 02030000 		.4byte	.LVL45
 3673 008b 08030000 		.4byte	.LFE194
 3674 008f 0400     		.2byte	0x4
 3675 0091 F3       		.byte	0xf3
 3676 0092 01       		.uleb128 0x1
 3677 0093 51       		.byte	0x51
 3678 0094 9F       		.byte	0x9f
 3679 0095 00000000 		.4byte	0
 3680 0099 00000000 		.4byte	0
 3681              	.LLST2:
 3682 009d 00000000 		.4byte	.LVL0
 3683 00a1 F4020000 		.4byte	.LVL40
 3684 00a5 0600     		.2byte	0x6
 3685 00a7 0C       		.byte	0xc
 3686 00a8 01008200 		.4byte	0x820001
 3687 00ac 9F       		.byte	0x9f
 3688 00ad F4020000 		.4byte	.LVL40
 3689 00b1 F6020000 		.4byte	.LVL41
 3690 00b5 0100     		.2byte	0x1
 3691 00b7 50       		.byte	0x50
 3692 00b8 F6020000 		.4byte	.LVL41
 3693 00bc FE020000 		.4byte	.LVL44
 3694 00c0 0600     		.2byte	0x6
 3695 00c2 0C       		.byte	0xc
 3696 00c3 01008200 		.4byte	0x820001
 3697 00c7 9F       		.byte	0x9f
 3698 00c8 FE020000 		.4byte	.LVL44
 3699 00cc 08030000 		.4byte	.LFE194
 3700 00d0 0100     		.2byte	0x1
ARM GAS  C:\Users\dev\AppData\Local\Temp\ccJYAN2E.s 			page 91


 3701 00d2 50       		.byte	0x50
 3702 00d3 00000000 		.4byte	0
 3703 00d7 00000000 		.4byte	0
 3704              	.LLST3:
 3705 00db 7C000000 		.4byte	.LVL9
 3706 00df A8000000 		.4byte	.LVL13
 3707 00e3 0100     		.2byte	0x1
 3708 00e5 56       		.byte	0x56
 3709 00e6 A8000000 		.4byte	.LVL13
 3710 00ea C8000000 		.4byte	.LVL16
 3711 00ee 0200     		.2byte	0x2
 3712 00f0 31       		.byte	0x31
 3713 00f1 9F       		.byte	0x9f
 3714 00f2 C8000000 		.4byte	.LVL16
 3715 00f6 CC000000 		.4byte	.LVL17
 3716 00fa 0100     		.2byte	0x1
 3717 00fc 56       		.byte	0x56
 3718 00fd CC000000 		.4byte	.LVL17
 3719 0101 D2000000 		.4byte	.LVL18
 3720 0105 0200     		.2byte	0x2
 3721 0107 31       		.byte	0x31
 3722 0108 9F       		.byte	0x9f
 3723 0109 D2000000 		.4byte	.LVL18
 3724 010d 1A010000 		.4byte	.LVL21
 3725 0111 0100     		.2byte	0x1
 3726 0113 56       		.byte	0x56
 3727 0114 94010000 		.4byte	.LVL25
 3728 0118 C2010000 		.4byte	.LVL29
 3729 011c 0100     		.2byte	0x1
 3730 011e 56       		.byte	0x56
 3731 011f C2010000 		.4byte	.LVL29
 3732 0123 E6010000 		.4byte	.LVL32
 3733 0127 0200     		.2byte	0x2
 3734 0129 31       		.byte	0x31
 3735 012a 9F       		.byte	0x9f
 3736 012b E6010000 		.4byte	.LVL32
 3737 012f EA010000 		.4byte	.LVL33
 3738 0133 0100     		.2byte	0x1
 3739 0135 56       		.byte	0x56
 3740 0136 EA010000 		.4byte	.LVL33
 3741 013a F0010000 		.4byte	.LVL34
 3742 013e 0200     		.2byte	0x2
 3743 0140 31       		.byte	0x31
 3744 0141 9F       		.byte	0x9f
 3745 0142 F0010000 		.4byte	.LVL34
 3746 0146 3C020000 		.4byte	.LVL37
 3747 014a 0100     		.2byte	0x1
 3748 014c 56       		.byte	0x56
 3749 014d 00000000 		.4byte	0
 3750 0151 00000000 		.4byte	0
 3751              	.LLST4:
 3752 0155 7C000000 		.4byte	.LVL9
 3753 0159 A8000000 		.4byte	.LVL13
 3754 015d 0200     		.2byte	0x2
 3755 015f 35       		.byte	0x35
 3756 0160 9F       		.byte	0x9f
 3757 0161 AA000000 		.4byte	.LVL14
ARM GAS  C:\Users\dev\AppData\Local\Temp\ccJYAN2E.s 			page 92


 3758 0165 C8000000 		.4byte	.LVL16
 3759 0169 0100     		.2byte	0x1
 3760 016b 57       		.byte	0x57
 3761 016c C8000000 		.4byte	.LVL16
 3762 0170 CC000000 		.4byte	.LVL17
 3763 0174 0200     		.2byte	0x2
 3764 0176 35       		.byte	0x35
 3765 0177 9F       		.byte	0x9f
 3766 0178 CC000000 		.4byte	.LVL17
 3767 017c 4C010000 		.4byte	.LVL22
 3768 0180 0100     		.2byte	0x1
 3769 0182 57       		.byte	0x57
 3770 0183 94010000 		.4byte	.LVL25
 3771 0187 C2010000 		.4byte	.LVL29
 3772 018b 0200     		.2byte	0x2
 3773 018d 35       		.byte	0x35
 3774 018e 9F       		.byte	0x9f
 3775 018f C6010000 		.4byte	.LVL30
 3776 0193 E6010000 		.4byte	.LVL32
 3777 0197 0100     		.2byte	0x1
 3778 0199 57       		.byte	0x57
 3779 019a E6010000 		.4byte	.LVL32
 3780 019e EA010000 		.4byte	.LVL33
 3781 01a2 0200     		.2byte	0x2
 3782 01a4 35       		.byte	0x35
 3783 01a5 9F       		.byte	0x9f
 3784 01a6 EA010000 		.4byte	.LVL33
 3785 01aa 72020000 		.4byte	.LVL38
 3786 01ae 0100     		.2byte	0x1
 3787 01b0 57       		.byte	0x57
 3788 01b1 00000000 		.4byte	0
 3789 01b5 00000000 		.4byte	0
 3790              	.LLST5:
 3791 01b9 7A000000 		.4byte	.LVL8
 3792 01bd A8000000 		.4byte	.LVL13
 3793 01c1 0100     		.2byte	0x1
 3794 01c3 58       		.byte	0x58
 3795 01c4 A8000000 		.4byte	.LVL13
 3796 01c8 C8000000 		.4byte	.LVL16
 3797 01cc 0200     		.2byte	0x2
 3798 01ce 31       		.byte	0x31
 3799 01cf 9F       		.byte	0x9f
 3800 01d0 C8000000 		.4byte	.LVL16
 3801 01d4 CC000000 		.4byte	.LVL17
 3802 01d8 0100     		.2byte	0x1
 3803 01da 58       		.byte	0x58
 3804 01db CC000000 		.4byte	.LVL17
 3805 01df D2000000 		.4byte	.LVL18
 3806 01e3 0200     		.2byte	0x2
 3807 01e5 31       		.byte	0x31
 3808 01e6 9F       		.byte	0x9f
 3809 01e7 D2000000 		.4byte	.LVL18
 3810 01eb 02010000 		.4byte	.LVL20
 3811 01ef 0100     		.2byte	0x1
 3812 01f1 58       		.byte	0x58
 3813 01f2 92010000 		.4byte	.LVL24
 3814 01f6 C2010000 		.4byte	.LVL29
ARM GAS  C:\Users\dev\AppData\Local\Temp\ccJYAN2E.s 			page 93


 3815 01fa 0100     		.2byte	0x1
 3816 01fc 58       		.byte	0x58
 3817 01fd C2010000 		.4byte	.LVL29
 3818 0201 E6010000 		.4byte	.LVL32
 3819 0205 0200     		.2byte	0x2
 3820 0207 31       		.byte	0x31
 3821 0208 9F       		.byte	0x9f
 3822 0209 E6010000 		.4byte	.LVL32
 3823 020d EA010000 		.4byte	.LVL33
 3824 0211 0100     		.2byte	0x1
 3825 0213 58       		.byte	0x58
 3826 0214 EA010000 		.4byte	.LVL33
 3827 0218 F0010000 		.4byte	.LVL34
 3828 021c 0200     		.2byte	0x2
 3829 021e 31       		.byte	0x31
 3830 021f 9F       		.byte	0x9f
 3831 0220 F0010000 		.4byte	.LVL34
 3832 0224 24020000 		.4byte	.LVL36
 3833 0228 0100     		.2byte	0x1
 3834 022a 58       		.byte	0x58
 3835 022b 00000000 		.4byte	0
 3836 022f 00000000 		.4byte	0
 3837              	.LLST6:
 3838 0233 18000000 		.4byte	.LVL1
 3839 0237 34000000 		.4byte	.LVL5
 3840 023b 0100     		.2byte	0x1
 3841 023d 56       		.byte	0x56
 3842 023e 00000000 		.4byte	0
 3843 0242 00000000 		.4byte	0
 3844              	.LLST7:
 3845 0246 00000000 		.4byte	.LVL47
 3846 024a 0E000000 		.4byte	.LVL50
 3847 024e 0100     		.2byte	0x1
 3848 0250 50       		.byte	0x50
 3849 0251 0E000000 		.4byte	.LVL50
 3850 0255 16000000 		.4byte	.LVL53
 3851 0259 0100     		.2byte	0x1
 3852 025b 56       		.byte	0x56
 3853 025c 16000000 		.4byte	.LVL53
 3854 0260 20010000 		.4byte	.LFE196
 3855 0264 0400     		.2byte	0x4
 3856 0266 F3       		.byte	0xf3
 3857 0267 01       		.uleb128 0x1
 3858 0268 50       		.byte	0x50
 3859 0269 9F       		.byte	0x9f
 3860 026a 00000000 		.4byte	0
 3861 026e 00000000 		.4byte	0
 3862              	.LLST8:
 3863 0272 00000000 		.4byte	.LVL47
 3864 0276 0C000000 		.4byte	.LVL49
 3865 027a 0100     		.2byte	0x1
 3866 027c 51       		.byte	0x51
 3867 027d 0C000000 		.4byte	.LVL49
 3868 0281 20010000 		.4byte	.LFE196
 3869 0285 0400     		.2byte	0x4
 3870 0287 F3       		.byte	0xf3
 3871 0288 01       		.uleb128 0x1
ARM GAS  C:\Users\dev\AppData\Local\Temp\ccJYAN2E.s 			page 94


 3872 0289 51       		.byte	0x51
 3873 028a 9F       		.byte	0x9f
 3874 028b 00000000 		.4byte	0
 3875 028f 00000000 		.4byte	0
 3876              	.LLST9:
 3877 0293 06000000 		.4byte	.LVL48
 3878 0297 0C010000 		.4byte	.LVL79
 3879 029b 0200     		.2byte	0x2
 3880 029d 30       		.byte	0x30
 3881 029e 9F       		.byte	0x9f
 3882 029f 0C010000 		.4byte	.LVL79
 3883 02a3 20010000 		.4byte	.LFE196
 3884 02a7 0100     		.2byte	0x1
 3885 02a9 50       		.byte	0x50
 3886 02aa 00000000 		.4byte	0
 3887 02ae 00000000 		.4byte	0
 3888              	.LLST10:
 3889 02b2 14000000 		.4byte	.LVL52
 3890 02b6 0E010000 		.4byte	.LVL80
 3891 02ba 0100     		.2byte	0x1
 3892 02bc 54       		.byte	0x54
 3893 02bd 0E010000 		.4byte	.LVL80
 3894 02c1 20010000 		.4byte	.LFE196
 3895 02c5 0300     		.2byte	0x3
 3896 02c7 F3       		.byte	0xf3
 3897 02c8 01       		.uleb128 0x1
 3898 02c9 50       		.byte	0x50
 3899 02ca 00000000 		.4byte	0
 3900 02ce 00000000 		.4byte	0
 3901              	.LLST11:
 3902 02d2 16000000 		.4byte	.LVL53
 3903 02d6 0E010000 		.4byte	.LVL80
 3904 02da 0300     		.2byte	0x3
 3905 02dc 76       		.byte	0x76
 3906 02dd 04       		.sleb128 4
 3907 02de 9F       		.byte	0x9f
 3908 02df 0E010000 		.4byte	.LVL80
 3909 02e3 20010000 		.4byte	.LFE196
 3910 02e7 0900     		.2byte	0x9
 3911 02e9 F3       		.byte	0xf3
 3912 02ea 01       		.uleb128 0x1
 3913 02eb 50       		.byte	0x50
 3914 02ec 23       		.byte	0x23
 3915 02ed 04       		.uleb128 0x4
 3916 02ee 06       		.byte	0x6
 3917 02ef 23       		.byte	0x23
 3918 02f0 04       		.uleb128 0x4
 3919 02f1 9F       		.byte	0x9f
 3920 02f2 00000000 		.4byte	0
 3921 02f6 00000000 		.4byte	0
 3922              	.LLST12:
 3923 02fa 16000000 		.4byte	.LVL53
 3924 02fe 0E010000 		.4byte	.LVL80
 3925 0302 0100     		.2byte	0x1
 3926 0304 56       		.byte	0x56
 3927 0305 0E010000 		.4byte	.LVL80
 3928 0309 20010000 		.4byte	.LFE196
ARM GAS  C:\Users\dev\AppData\Local\Temp\ccJYAN2E.s 			page 95


 3929 030d 0500     		.2byte	0x5
 3930 030f F3       		.byte	0xf3
 3931 0310 01       		.uleb128 0x1
 3932 0311 50       		.byte	0x50
 3933 0312 23       		.byte	0x23
 3934 0313 04       		.uleb128 0x4
 3935 0314 00000000 		.4byte	0
 3936 0318 00000000 		.4byte	0
 3937              	.LLST13:
 3938 031c 2C000000 		.4byte	.LVL54
 3939 0320 30000000 		.4byte	.LVL55
 3940 0324 0100     		.2byte	0x1
 3941 0326 54       		.byte	0x54
 3942 0327 00000000 		.4byte	0
 3943 032b 00000000 		.4byte	0
 3944              	.LLST14:
 3945 032f 32000000 		.4byte	.LVL56
 3946 0333 3C000000 		.4byte	.LVL57
 3947 0337 0100     		.2byte	0x1
 3948 0339 54       		.byte	0x54
 3949 033a 00000000 		.4byte	0
 3950 033e 00000000 		.4byte	0
 3951              	.LLST15:
 3952 0342 44000000 		.4byte	.LVL58
 3953 0346 4C000000 		.4byte	.LVL59
 3954 034a 0100     		.2byte	0x1
 3955 034c 54       		.byte	0x54
 3956 034d 00000000 		.4byte	0
 3957 0351 00000000 		.4byte	0
 3958              	.LLST16:
 3959 0355 54000000 		.4byte	.LVL60
 3960 0359 5C000000 		.4byte	.LVL61
 3961 035d 0100     		.2byte	0x1
 3962 035f 54       		.byte	0x54
 3963 0360 00000000 		.4byte	0
 3964 0364 00000000 		.4byte	0
 3965              	.LLST17:
 3966 0368 5C000000 		.4byte	.LVL61
 3967 036c 64000000 		.4byte	.LVL62
 3968 0370 0200     		.2byte	0x2
 3969 0372 30       		.byte	0x30
 3970 0373 9F       		.byte	0x9f
 3971 0374 00000000 		.4byte	0
 3972 0378 00000000 		.4byte	0
 3973              	.LLST18:
 3974 037c 5C000000 		.4byte	.LVL61
 3975 0380 64000000 		.4byte	.LVL62
 3976 0384 0100     		.2byte	0x1
 3977 0386 54       		.byte	0x54
 3978 0387 00000000 		.4byte	0
 3979 038b 00000000 		.4byte	0
 3980              	.LLST19:
 3981 038f 6C000000 		.4byte	.LVL63
 3982 0393 88000000 		.4byte	.LVL64
 3983 0397 0100     		.2byte	0x1
 3984 0399 54       		.byte	0x54
 3985 039a 00000000 		.4byte	0
ARM GAS  C:\Users\dev\AppData\Local\Temp\ccJYAN2E.s 			page 96


 3986 039e 00000000 		.4byte	0
 3987              	.LLST20:
 3988 03a2 88000000 		.4byte	.LVL64
 3989 03a6 90000000 		.4byte	.LVL65
 3990 03aa 0100     		.2byte	0x1
 3991 03ac 54       		.byte	0x54
 3992 03ad 00000000 		.4byte	0
 3993 03b1 00000000 		.4byte	0
 3994              	.LLST21:
 3995 03b5 98000000 		.4byte	.LVL66
 3996 03b9 B4000000 		.4byte	.LVL67
 3997 03bd 0100     		.2byte	0x1
 3998 03bf 54       		.byte	0x54
 3999 03c0 00000000 		.4byte	0
 4000 03c4 00000000 		.4byte	0
 4001              	.LLST22:
 4002 03c8 B4000000 		.4byte	.LVL67
 4003 03cc BA000000 		.4byte	.LVL68
 4004 03d0 0200     		.2byte	0x2
 4005 03d2 30       		.byte	0x30
 4006 03d3 9F       		.byte	0x9f
 4007 03d4 00000000 		.4byte	0
 4008 03d8 00000000 		.4byte	0
 4009              	.LLST23:
 4010 03dc B4000000 		.4byte	.LVL67
 4011 03e0 BA000000 		.4byte	.LVL68
 4012 03e4 0100     		.2byte	0x1
 4013 03e6 54       		.byte	0x54
 4014 03e7 00000000 		.4byte	0
 4015 03eb 00000000 		.4byte	0
 4016              	.LLST24:
 4017 03ef BA000000 		.4byte	.LVL68
 4018 03f3 BE000000 		.4byte	.LVL69
 4019 03f7 0200     		.2byte	0x2
 4020 03f9 30       		.byte	0x30
 4021 03fa 9F       		.byte	0x9f
 4022 03fb 00000000 		.4byte	0
 4023 03ff 00000000 		.4byte	0
 4024              	.LLST25:
 4025 0403 BA000000 		.4byte	.LVL68
 4026 0407 BE000000 		.4byte	.LVL69
 4027 040b 0100     		.2byte	0x1
 4028 040d 54       		.byte	0x54
 4029 040e 00000000 		.4byte	0
 4030 0412 00000000 		.4byte	0
 4031              	.LLST26:
 4032 0416 C6000000 		.4byte	.LVL70
 4033 041a CE000000 		.4byte	.LVL71
 4034 041e 0100     		.2byte	0x1
 4035 0420 54       		.byte	0x54
 4036 0421 00000000 		.4byte	0
 4037 0425 00000000 		.4byte	0
 4038              	.LLST27:
 4039 0429 CE000000 		.4byte	.LVL71
 4040 042d D6000000 		.4byte	.LVL72
 4041 0431 0100     		.2byte	0x1
 4042 0433 54       		.byte	0x54
ARM GAS  C:\Users\dev\AppData\Local\Temp\ccJYAN2E.s 			page 97


 4043 0434 00000000 		.4byte	0
 4044 0438 00000000 		.4byte	0
 4045              	.LLST28:
 4046 043c D8000000 		.4byte	.LVL73
 4047 0440 F0000000 		.4byte	.LVL75
 4048 0444 0100     		.2byte	0x1
 4049 0446 55       		.byte	0x55
 4050 0447 00000000 		.4byte	0
 4051 044b 00000000 		.4byte	0
 4052              	.LLST29:
 4053 044f D8000000 		.4byte	.LVL73
 4054 0453 F0000000 		.4byte	.LVL75
 4055 0457 0100     		.2byte	0x1
 4056 0459 54       		.byte	0x54
 4057 045a 00000000 		.4byte	0
 4058 045e 00000000 		.4byte	0
 4059              	.LLST30:
 4060 0462 F2000000 		.4byte	.LVL76
 4061 0466 0A010000 		.4byte	.LVL78
 4062 046a 0100     		.2byte	0x1
 4063 046c 55       		.byte	0x55
 4064 046d 00000000 		.4byte	0
 4065 0471 00000000 		.4byte	0
 4066              	.LLST31:
 4067 0475 F2000000 		.4byte	.LVL76
 4068 0479 0A010000 		.4byte	.LVL78
 4069 047d 0100     		.2byte	0x1
 4070 047f 54       		.byte	0x54
 4071 0480 00000000 		.4byte	0
 4072 0484 00000000 		.4byte	0
 4073              		.section	.debug_aranges,"",%progbits
 4074 0000 2C000000 		.4byte	0x2c
 4075 0004 0200     		.2byte	0x2
 4076 0006 00000000 		.4byte	.Ldebug_info0
 4077 000a 04       		.byte	0x4
 4078 000b 00       		.byte	0
 4079 000c 0000     		.2byte	0
 4080 000e 0000     		.2byte	0
 4081 0010 00000000 		.4byte	.LFB194
 4082 0014 08030000 		.4byte	.LFE194-.LFB194
 4083 0018 00000000 		.4byte	.LFB195
 4084 001c 30000000 		.4byte	.LFE195-.LFB195
 4085 0020 00000000 		.4byte	.LFB196
 4086 0024 20010000 		.4byte	.LFE196-.LFB196
 4087 0028 00000000 		.4byte	0
 4088 002c 00000000 		.4byte	0
 4089              		.section	.debug_ranges,"",%progbits
 4090              	.Ldebug_ranges0:
 4091 0000 14000000 		.4byte	.LBB30
 4092 0004 F2020000 		.4byte	.LBE30
 4093 0008 FC020000 		.4byte	.LBB31
 4094 000c FE020000 		.4byte	.LBE31
 4095 0010 00000000 		.4byte	0
 4096 0014 00000000 		.4byte	0
 4097 0018 00000000 		.4byte	.LFB194
 4098 001c 08030000 		.4byte	.LFE194
 4099 0020 00000000 		.4byte	.LFB195
ARM GAS  C:\Users\dev\AppData\Local\Temp\ccJYAN2E.s 			page 98


 4100 0024 30000000 		.4byte	.LFE195
 4101 0028 00000000 		.4byte	.LFB196
 4102 002c 20010000 		.4byte	.LFE196
 4103 0030 00000000 		.4byte	0
 4104 0034 00000000 		.4byte	0
 4105              		.section	.debug_line,"",%progbits
 4106              	.Ldebug_line0:
 4107 0000 E8040000 		.section	.debug_str,"MS",%progbits,1
 4107      0200E302 
 4107      00000201 
 4107      FB0E0D00 
 4107      01010101 
 4108              	.LASF176:
 4109 0000 7278456E 		.ascii	"rxEnabled\000"
 4109      61626C65 
 4109      6400
 4110              	.LASF236:
 4111 000a 6C6F6349 		.ascii	"locInterruptMask\000"
 4111      6E746572 
 4111      72757074 
 4111      4D61736B 
 4111      00
 4112              	.LASF206:
 4113 001b 72784669 		.ascii	"rxFifoTriggerLevel\000"
 4113      666F5472 
 4113      69676765 
 4113      724C6576 
 4113      656C00
 4114              	.LASF141:
 4115 002e 43595F53 		.ascii	"CY_SYSPM_TIMEOUT\000"
 4115      5953504D 
 4115      5F54494D 
 4115      454F5554 
 4115      00
 4116              	.LASF92:
 4117 003f 666C6173 		.ascii	"flashCtlMainWs3Freq\000"
 4117      6843746C 
 4117      4D61696E 
 4117      57733346 
 4117      72657100 
 4118              	.LASF114:
 4119 0053 6770696F 		.ascii	"gpioPrtCfgInOffset\000"
 4119      50727443 
 4119      6667496E 
 4119      4F666673 
 4119      657400
 4120              	.LASF132:
 4121 0066 6970634C 		.ascii	"ipcLockStatusOffset\000"
 4121      6F636B53 
 4121      74617475 
 4121      734F6666 
 4121      73657400 
 4122              	.LASF140:
 4123 007a 43595F53 		.ascii	"CY_SYSPM_BAD_PARAM\000"
 4123      5953504D 
 4123      5F424144 
 4123      5F504152 
ARM GAS  C:\Users\dev\AppData\Local\Temp\ccJYAN2E.s 			page 99


 4123      414D00
 4124              	.LASF237:
 4125 008d 6C6F6353 		.ascii	"locState\000"
 4125      74617465 
 4125      00
 4126              	.LASF96:
 4127 0096 64774368 		.ascii	"dwChCtlPrioPos\000"
 4127      43746C50 
 4127      72696F50 
 4127      6F7300
 4128              	.LASF54:
 4129 00a5 70617373 		.ascii	"passBase\000"
 4129      42617365 
 4129      00
 4130              	.LASF180:
 4131 00ae 65787443 		.ascii	"extClk\000"
 4131      6C6B00
 4132              	.LASF67:
 4133 00b5 63707573 		.ascii	"cpussIpcIrqNr\000"
 4133      73497063 
 4133      4972714E 
 4133      7200
 4134              	.LASF5:
 4135 00c3 5F5F7569 		.ascii	"__uint8_t\000"
 4135      6E74385F 
 4135      7400
 4136              	.LASF111:
 4137 00cd 70657269 		.ascii	"periDiv24_5CtlOffset\000"
 4137      44697632 
 4137      345F3543 
 4137      746C4F66 
 4137      66736574 
 4138              	.LASF28:
 4139 00e2 54585F57 		.ascii	"TX_WATCHDOG\000"
 4139      41544348 
 4139      444F4700 
 4140              	.LASF118:
 4141 00ee 63707573 		.ascii	"cpussCm4ClockCtlOffset\000"
 4141      73436D34 
 4141      436C6F63 
 4141      6B43746C 
 4141      4F666673 
 4142              	.LASF47:
 4143 0105 63707573 		.ascii	"cpussBase\000"
 4143      73426173 
 4143      6500
 4144              	.LASF235:
 4145 010f 6C6F6342 		.ascii	"locBase\000"
 4145      61736500 
 4146              	.LASF22:
 4147 0117 434C4F43 		.ascii	"CLOCK_CTL\000"
 4147      4B5F4354 
 4147      4C00
 4148              	.LASF14:
 4149 0121 6C6F6E67 		.ascii	"long long unsigned int\000"
 4149      206C6F6E 
 4149      6720756E 
ARM GAS  C:\Users\dev\AppData\Local\Temp\ccJYAN2E.s 			page 100


 4149      7369676E 
 4149      65642069 
 4150              	.LASF177:
 4151 0138 7478446D 		.ascii	"txDmaTrigger\000"
 4151      61547269 
 4151      67676572 
 4151      00
 4152              	.LASF84:
 4153 0145 666C6173 		.ascii	"flashRwwRequired\000"
 4153      68527777 
 4153      52657175 
 4153      69726564 
 4153      00
 4154              	.LASF100:
 4155 0156 70657269 		.ascii	"periTrCmdOffset\000"
 4155      5472436D 
 4155      644F6666 
 4155      73657400 
 4156              	.LASF240:
 4157 0166 474E5520 		.ascii	"GNU C11 5.4.1 20160609 (release) [ARM/embedded-5-br"
 4157      43313120 
 4157      352E342E 
 4157      31203230 
 4157      31363036 
 4158 0199 616E6368 		.ascii	"anch revision 237715] -mcpu=cortex-m4 -mfloat-abi=s"
 4158      20726576 
 4158      6973696F 
 4158      6E203233 
 4158      37373135 
 4159 01cc 6F667466 		.ascii	"oftfp -mfpu=fpv4-sp-d16 -mthumb -g -Og -ffunction-s"
 4159      70202D6D 
 4159      6670753D 
 4159      66707634 
 4159      2D73702D 
 4160 01ff 65637469 		.ascii	"ections -ffat-lto-objects\000"
 4160      6F6E7320 
 4160      2D666661 
 4160      742D6C74 
 4160      6F2D6F62 
 4161              	.LASF124:
 4162 0219 63707573 		.ascii	"cpussSysTickCtlOffset\000"
 4162      73537973 
 4162      5469636B 
 4162      43746C4F 
 4162      66667365 
 4163              	.LASF239:
 4164 022f 49544D5F 		.ascii	"ITM_RxBuffer\000"
 4164      52784275 
 4164      66666572 
 4164      00
 4165              	.LASF76:
 4166 023c 70657269 		.ascii	"periClockNr\000"
 4166      436C6F63 
 4166      6B4E7200 
 4167              	.LASF85:
 4168 0248 666C6173 		.ascii	"flashPipeRequired\000"
 4168      68506970 
ARM GAS  C:\Users\dev\AppData\Local\Temp\ccJYAN2E.s 			page 101


 4168      65526571 
 4168      75697265 
 4168      6400
 4169              	.LASF89:
 4170 025a 666C6173 		.ascii	"flashCtlMainWs0Freq\000"
 4170      6843746C 
 4170      4D61696E 
 4170      57733046 
 4170      72657100 
 4171              	.LASF16:
 4172 026e 696E7431 		.ascii	"int16_t\000"
 4172      365F7400 
 4173              	.LASF1:
 4174 0276 6C6F6E67 		.ascii	"long long int\000"
 4174      206C6F6E 
 4174      6720696E 
 4174      7400
 4175              	.LASF3:
 4176 0284 7369676E 		.ascii	"signed char\000"
 4176      65642063 
 4176      68617200 
 4177              	.LASF192:
 4178 0290 74784F76 		.ascii	"txOverheadValue\000"
 4178      65726865 
 4178      61645661 
 4178      6C756500 
 4179              	.LASF105:
 4180 02a0 70657269 		.ascii	"periDivCmdTypeSelPos\000"
 4180      44697643 
 4180      6D645479 
 4180      70655365 
 4180      6C506F73 
 4181              	.LASF48:
 4182 02b5 666C6173 		.ascii	"flashcBase\000"
 4182      68634261 
 4182      736500
 4183              	.LASF51:
 4184 02c0 70726F74 		.ascii	"protBase\000"
 4184      42617365 
 4184      00
 4185              	.LASF63:
 4186 02c9 69706356 		.ascii	"ipcVersion\000"
 4186      65727369 
 4186      6F6E00
 4187              	.LASF205:
 4188 02d4 72785369 		.ascii	"rxSignExtension\000"
 4188      676E4578 
 4188      74656E73 
 4188      696F6E00 
 4189              	.LASF125:
 4190 02e4 63707573 		.ascii	"cpussCm0NmiCtlOffset\000"
 4190      73436D30 
 4190      4E6D6943 
 4190      746C4F66 
 4190      66736574 
 4191              	.LASF155:
 4192 02f9 43595F49 		.ascii	"CY_I2S_BAD_PARAM\000"
ARM GAS  C:\Users\dev\AppData\Local\Temp\ccJYAN2E.s 			page 102


 4192      32535F42 
 4192      41445F50 
 4192      4152414D 
 4192      00
 4193              	.LASF241:
 4194 030a 47656E65 		.ascii	"Generated_Source\\PSoC6\\pdl\\drivers\\peripheral\\"
 4194      72617465 
 4194      645F536F 
 4194      75726365 
 4194      5C50536F 
 4195 0338 6932735C 		.ascii	"i2s\\cy_i2s.c\000"
 4195      63795F69 
 4195      32732E63 
 4195      00
 4196              	.LASF208:
 4197 0345 63795F73 		.ascii	"cy_stc_i2s_config_t\000"
 4197      74635F69 
 4197      32735F63 
 4197      6F6E6669 
 4197      675F7400 
 4198              	.LASF229:
 4199 0359 6368616E 		.ascii	"channels\000"
 4199      6E656C73 
 4199      00
 4200              	.LASF11:
 4201 0362 6C6F6E67 		.ascii	"long int\000"
 4201      20696E74 
 4201      00
 4202              	.LASF115:
 4203 036b 6770696F 		.ascii	"gpioPrtCfgOutOffset\000"
 4203      50727443 
 4203      66674F75 
 4203      744F6666 
 4203      73657400 
 4204              	.LASF52:
 4205 037f 6873696F 		.ascii	"hsiomBase\000"
 4205      6D426173 
 4205      6500
 4206              	.LASF83:
 4207 0389 63727970 		.ascii	"cryptoMemSize\000"
 4207      746F4D65 
 4207      6D53697A 
 4207      6500
 4208              	.LASF0:
 4209 0397 756E7369 		.ascii	"unsigned int\000"
 4209      676E6564 
 4209      20696E74 
 4209      00
 4210              	.LASF49:
 4211 03a4 70657269 		.ascii	"periBase\000"
 4211      42617365 
 4211      00
 4212              	.LASF81:
 4213 03ad 73797350 		.ascii	"sysPmSimoPresent\000"
 4213      6D53696D 
 4213      6F507265 
 4213      73656E74 
ARM GAS  C:\Users\dev\AppData\Local\Temp\ccJYAN2E.s 			page 103


 4213      00
 4214              	.LASF231:
 4215 03be 43795F49 		.ascii	"Cy_I2S_Init\000"
 4215      32535F49 
 4215      6E697400 
 4216              	.LASF219:
 4217 03ca 43795F49 		.ascii	"Cy_I2S_ClearRxFifo\000"
 4217      32535F43 
 4217      6C656172 
 4217      52784669 
 4217      666F00
 4218              	.LASF71:
 4219 03dd 63707573 		.ascii	"cpussFmIrq\000"
 4219      73466D49 
 4219      727100
 4220              	.LASF138:
 4221 03e8 646F7562 		.ascii	"double\000"
 4221      6C6500
 4222              	.LASF110:
 4223 03ef 70657269 		.ascii	"periDiv16_5CtlOffset\000"
 4223      44697631 
 4223      365F3543 
 4223      746C4F66 
 4223      66736574 
 4224              	.LASF74:
 4225 0404 73727373 		.ascii	"srssNumPll\000"
 4225      4E756D50 
 4225      6C6C00
 4226              	.LASF156:
 4227 040f 63795F65 		.ascii	"cy_en_i2s_status_t\000"
 4227      6E5F6932 
 4227      735F7374 
 4227      61747573 
 4227      5F7400
 4228              	.LASF217:
 4229 0422 696E7465 		.ascii	"interrupt\000"
 4229      72727570 
 4229      7400
 4230              	.LASF108:
 4231 042c 70657269 		.ascii	"periDiv8CtlOffset\000"
 4231      44697638 
 4231      43746C4F 
 4231      66667365 
 4231      7400
 4232              	.LASF9:
 4233 043e 73686F72 		.ascii	"short unsigned int\000"
 4233      7420756E 
 4233      7369676E 
 4233      65642069 
 4233      6E7400
 4234              	.LASF58:
 4235 0451 63727970 		.ascii	"cryptoVersion\000"
 4235      746F5665 
 4235      7273696F 
 4235      6E00
 4236              	.LASF97:
 4237 045f 64774368 		.ascii	"dwChCtlPreemptablePos\000"
ARM GAS  C:\Users\dev\AppData\Local\Temp\ccJYAN2E.s 			page 104


 4237      43746C50 
 4237      7265656D 
 4237      70746162 
 4237      6C65506F 
 4238              	.LASF157:
 4239 0475 43595F49 		.ascii	"CY_I2S_LEFT_JUSTIFIED\000"
 4239      32535F4C 
 4239      4546545F 
 4239      4A555354 
 4239      49464945 
 4240              	.LASF12:
 4241 048b 5F5F7569 		.ascii	"__uint32_t\000"
 4241      6E743332 
 4241      5F7400
 4242              	.LASF200:
 4243 0496 72785363 		.ascii	"rxSckoInversion\000"
 4243      6B6F496E 
 4243      76657273 
 4243      696F6E00 
 4244              	.LASF78:
 4245 04a6 70617373 		.ascii	"passSarChannels\000"
 4245      53617243 
 4245      68616E6E 
 4245      656C7300 
 4246              	.LASF113:
 4247 04b6 6770696F 		.ascii	"gpioPrtCfgOffset\000"
 4247      50727443 
 4247      66674F66 
 4247      66736574 
 4247      00
 4248              	.LASF143:
 4249 04c7 43595F53 		.ascii	"CY_SYSPM_CANCELED\000"
 4249      5953504D 
 4249      5F43414E 
 4249      43454C45 
 4249      4400
 4250              	.LASF6:
 4251 04d9 5F5F696E 		.ascii	"__int16_t\000"
 4251      7431365F 
 4251      7400
 4252              	.LASF175:
 4253 04e3 7478456E 		.ascii	"txEnabled\000"
 4253      61626C65 
 4253      6400
 4254              	.LASF159:
 4255 04ed 43595F49 		.ascii	"CY_I2S_TDM_MODE_A\000"
 4255      32535F54 
 4255      444D5F4D 
 4255      4F44455F 
 4255      4100
 4256              	.LASF160:
 4257 04ff 43595F49 		.ascii	"CY_I2S_TDM_MODE_B\000"
 4257      32535F54 
 4257      444D5F4D 
 4257      4F44455F 
 4257      4200
 4258              	.LASF195:
ARM GAS  C:\Users\dev\AppData\Local\Temp\ccJYAN2E.s 			page 105


 4259 0511 7278416C 		.ascii	"rxAlignment\000"
 4259      69676E6D 
 4259      656E7400 
 4260              	.LASF121:
 4261 051d 63707573 		.ascii	"cpussCm4PwrCtlOffset\000"
 4261      73436D34 
 4261      50777243 
 4261      746C4F66 
 4261      66736574 
 4262              	.LASF116:
 4263 0532 6770696F 		.ascii	"gpioPrtCfgSioOffset\000"
 4263      50727443 
 4263      66675369 
 4263      6F4F6666 
 4263      73657400 
 4264              	.LASF68:
 4265 0546 63707573 		.ascii	"cpussDwChNr\000"
 4265      73447743 
 4265      684E7200 
 4266              	.LASF142:
 4267 0552 43595F53 		.ascii	"CY_SYSPM_INVALID_STATE\000"
 4267      5953504D 
 4267      5F494E56 
 4267      414C4944 
 4267      5F535441 
 4268              	.LASF25:
 4269 0569 54525F43 		.ascii	"TR_CTL\000"
 4269      544C00
 4270              	.LASF222:
 4271 0570 43795F49 		.ascii	"Cy_I2S_ClearTxFifo\000"
 4271      32535F43 
 4271      6C656172 
 4271      54784669 
 4271      666F00
 4272              	.LASF37:
 4273 0583 52585F46 		.ascii	"RX_FIFO_CTL\000"
 4273      49464F5F 
 4273      43544C00 
 4274              	.LASF135:
 4275 058f 63686172 		.ascii	"char_t\000"
 4275      5F7400
 4276              	.LASF101:
 4277 0596 70657269 		.ascii	"periTrCmdGrSelMsk\000"
 4277      5472436D 
 4277      64477253 
 4277      656C4D73 
 4277      6B00
 4278              	.LASF186:
 4279 05a8 74785364 		.ascii	"txSdoLatchingTime\000"
 4279      6F4C6174 
 4279      6368696E 
 4279      6754696D 
 4279      6500
 4280              	.LASF13:
 4281 05ba 6C6F6E67 		.ascii	"long unsigned int\000"
 4281      20756E73 
 4281      69676E65 
ARM GAS  C:\Users\dev\AppData\Local\Temp\ccJYAN2E.s 			page 106


 4281      6420696E 
 4281      7400
 4282              	.LASF203:
 4283 05cc 72784368 		.ascii	"rxChannelLength\000"
 4283      616E6E65 
 4283      6C4C656E 
 4283      67746800 
 4284              	.LASF168:
 4285 05dc 63795F65 		.ascii	"cy_en_i2s_len_t\000"
 4285      6E5F6932 
 4285      735F6C65 
 4285      6E5F7400 
 4286              	.LASF66:
 4287 05ec 63707573 		.ascii	"cpussIpcNr\000"
 4287      73497063 
 4287      4E7200
 4288              	.LASF153:
 4289 05f7 63795F73 		.ascii	"cy_stc_syspm_callback_params_t\000"
 4289      74635F73 
 4289      7973706D 
 4289      5F63616C 
 4289      6C626163 
 4290              	.LASF44:
 4291 0616 494E5452 		.ascii	"INTR_MASK\000"
 4291      5F4D4153 
 4291      4B00
 4292              	.LASF53:
 4293 0620 6770696F 		.ascii	"gpioBase\000"
 4293      42617365 
 4293      00
 4294              	.LASF162:
 4295 0629 43595F49 		.ascii	"CY_I2S_LEN8\000"
 4295      32535F4C 
 4295      454E3800 
 4296              	.LASF91:
 4297 0635 666C6173 		.ascii	"flashCtlMainWs2Freq\000"
 4297      6843746C 
 4297      4D61696E 
 4297      57733246 
 4297      72657100 
 4298              	.LASF221:
 4299 0649 64617461 		.ascii	"data\000"
 4299      00
 4300              	.LASF152:
 4301 064e 636F6E74 		.ascii	"context\000"
 4301      65787400 
 4302              	.LASF102:
 4303 0656 70657269 		.ascii	"periTrGrOffset\000"
 4303      54724772 
 4303      4F666673 
 4303      657400
 4304              	.LASF129:
 4305 0665 63707573 		.ascii	"cpussRam1Ctl0\000"
 4305      7352616D 
 4305      3143746C 
 4305      3000
 4306              	.LASF173:
ARM GAS  C:\Users\dev\AppData\Local\Temp\ccJYAN2E.s 			page 107


 4307 0673 43595F49 		.ascii	"CY_I2S_WS_ONE_CHANNEL_LENGTH\000"
 4307      32535F57 
 4307      535F4F4E 
 4307      455F4348 
 4307      414E4E45 
 4308              	.LASF183:
 4309 0690 74785773 		.ascii	"txWsPulseWidth\000"
 4309      50756C73 
 4309      65576964 
 4309      746800
 4310              	.LASF216:
 4311 069f 43795F49 		.ascii	"Cy_I2S_SetInterruptMask\000"
 4311      32535F53 
 4311      6574496E 
 4311      74657272 
 4311      7570744D 
 4312              	.LASF103:
 4313 06b7 70657269 		.ascii	"periTrGrSize\000"
 4313      54724772 
 4313      53697A65 
 4313      00
 4314              	.LASF61:
 4315 06c4 6770696F 		.ascii	"gpioVersion\000"
 4315      56657273 
 4315      696F6E00 
 4316              	.LASF17:
 4317 06d0 75696E74 		.ascii	"uint16_t\000"
 4317      31365F74 
 4317      00
 4318              	.LASF133:
 4319 06d9 63795F73 		.ascii	"cy_stc_device_t\000"
 4319      74635F64 
 4319      65766963 
 4319      655F7400 
 4320              	.LASF10:
 4321 06e9 5F5F696E 		.ascii	"__int32_t\000"
 4321      7433325F 
 4321      7400
 4322              	.LASF79:
 4323 06f3 65704D6F 		.ascii	"epMonitorNr\000"
 4323      6E69746F 
 4323      724E7200 
 4324              	.LASF233:
 4325 06ff 63616C6C 		.ascii	"callbackParams\000"
 4325      6261636B 
 4325      50617261 
 4325      6D7300
 4326              	.LASF122:
 4327 070e 63707573 		.ascii	"cpussTrimRamCtlOffset\000"
 4327      73547269 
 4327      6D52616D 
 4327      43746C4F 
 4327      66667365 
 4328              	.LASF117:
 4329 0724 63707573 		.ascii	"cpussCm0ClockCtlOffset\000"
 4329      73436D30 
 4329      436C6F63 
ARM GAS  C:\Users\dev\AppData\Local\Temp\ccJYAN2E.s 			page 108


 4329      6B43746C 
 4329      4F666673 
 4330              	.LASF149:
 4331 073b 43595F53 		.ascii	"CY_SYSPM_AFTER_TRANSITION\000"
 4331      5953504D 
 4331      5F414654 
 4331      45525F54 
 4331      52414E53 
 4332              	.LASF43:
 4333 0755 494E5452 		.ascii	"INTR_SET\000"
 4333      5F534554 
 4333      00
 4334              	.LASF57:
 4335 075e 63707573 		.ascii	"cpussVersion\000"
 4335      73566572 
 4335      73696F6E 
 4335      00
 4336              	.LASF151:
 4337 076b 62617365 		.ascii	"base\000"
 4337      00
 4338              	.LASF228:
 4339 0770 6368616E 		.ascii	"channelLength\000"
 4339      6E656C4C 
 4339      656E6774 
 4339      6800
 4340              	.LASF64:
 4341 077e 70657269 		.ascii	"periVersion\000"
 4341      56657273 
 4341      696F6E00 
 4342              	.LASF120:
 4343 078a 63707573 		.ascii	"cpussCm0StatusOffset\000"
 4343      73436D30 
 4343      53746174 
 4343      75734F66 
 4343      66736574 
 4344              	.LASF34:
 4345 079f 54585F46 		.ascii	"TX_FIFO_STATUS\000"
 4345      49464F5F 
 4345      53544154 
 4345      555300
 4346              	.LASF20:
 4347 07ae 73697A65 		.ascii	"sizetype\000"
 4347      74797065 
 4347      00
 4348              	.LASF182:
 4349 07b7 7478416C 		.ascii	"txAlignment\000"
 4349      69676E6D 
 4349      656E7400 
 4350              	.LASF94:
 4351 07c3 64774368 		.ascii	"dwChOffset\000"
 4351      4F666673 
 4351      657400
 4352              	.LASF220:
 4353 07ce 43795F49 		.ascii	"Cy_I2S_WriteTxData\000"
 4353      32535F57 
 4353      72697465 
 4353      54784461 
ARM GAS  C:\Users\dev\AppData\Local\Temp\ccJYAN2E.s 			page 109


 4353      746100
 4354              	.LASF69:
 4355 07e1 63707573 		.ascii	"cpussFlashPaSize\000"
 4355      73466C61 
 4355      73685061 
 4355      53697A65 
 4355      00
 4356              	.LASF107:
 4357 07f2 70657269 		.ascii	"periDivCmdPaTypeSelPos\000"
 4357      44697643 
 4357      6D645061 
 4357      54797065 
 4357      53656C50 
 4358              	.LASF130:
 4359 0809 63707573 		.ascii	"cpussRam2Ctl0\000"
 4359      7352616D 
 4359      3243746C 
 4359      3000
 4360              	.LASF211:
 4361 0817 63795F73 		.ascii	"cy_stc_i2s_context_t\000"
 4361      74635F69 
 4361      32735F63 
 4361      6F6E7465 
 4361      78745F74 
 4362              	.LASF215:
 4363 082c 43795F49 		.ascii	"Cy_I2S_DisableRx\000"
 4363      32535F44 
 4363      69736162 
 4363      6C655278 
 4363      00
 4364              	.LASF242:
 4365 083d 433A5C50 		.ascii	"C:\\Projects\\Pain Drain\\Production2\\Firmware\\Pa"
 4365      726F6A65 
 4365      6374735C 
 4365      5061696E 
 4365      20447261 
 4366 086b 696E4472 		.ascii	"inDrain\\PainDrain.cydsn\000"
 4366      61696E5C 
 4366      5061696E 
 4366      44726169 
 4366      6E2E6379 
 4367              	.LASF134:
 4368 0883 4932535F 		.ascii	"I2S_Type\000"
 4368      54797065 
 4368      00
 4369              	.LASF42:
 4370 088c 494E5452 		.ascii	"INTR\000"
 4370      00
 4371              	.LASF98:
 4372 0891 64775374 		.ascii	"dwStatusChIdxPos\000"
 4372      61747573 
 4372      43684964 
 4372      78506F73 
 4372      00
 4373              	.LASF148:
 4374 08a2 43595F53 		.ascii	"CY_SYSPM_BEFORE_TRANSITION\000"
 4374      5953504D 
ARM GAS  C:\Users\dev\AppData\Local\Temp\ccJYAN2E.s 			page 110


 4374      5F424546 
 4374      4F52455F 
 4374      5452414E 
 4375              	.LASF80:
 4376 08bd 75646250 		.ascii	"udbPresent\000"
 4376      72657365 
 4376      6E7400
 4377              	.LASF163:
 4378 08c8 43595F49 		.ascii	"CY_I2S_LEN16\000"
 4378      32535F4C 
 4378      454E3136 
 4378      00
 4379              	.LASF201:
 4380 08d5 72785363 		.ascii	"rxSckiInversion\000"
 4380      6B69496E 
 4380      76657273 
 4380      696F6E00 
 4381              	.LASF164:
 4382 08e5 43595F49 		.ascii	"CY_I2S_LEN18\000"
 4382      32535F4C 
 4382      454E3138 
 4382      00
 4383              	.LASF60:
 4384 08f2 666C6173 		.ascii	"flashcVersion\000"
 4384      68635665 
 4384      7273696F 
 4384      6E00
 4385              	.LASF56:
 4386 0900 63727970 		.ascii	"cryptoBase\000"
 4386      746F4261 
 4386      736500
 4387              	.LASF77:
 4388 090b 736D6966 		.ascii	"smifDeviceNr\000"
 4388      44657669 
 4388      63654E72 
 4388      00
 4389              	.LASF191:
 4390 0918 7478576F 		.ascii	"txWordLength\000"
 4390      72644C65 
 4390      6E677468 
 4390      00
 4391              	.LASF93:
 4392 0925 666C6173 		.ascii	"flashCtlMainWs4Freq\000"
 4392      6843746C 
 4392      4D61696E 
 4392      57733446 
 4392      72657100 
 4393              	.LASF150:
 4394 0939 63795F65 		.ascii	"cy_en_syspm_callback_mode_t\000"
 4394      6E5F7379 
 4394      73706D5F 
 4394      63616C6C 
 4394      6261636B 
 4395              	.LASF45:
 4396 0955 494E5452 		.ascii	"INTR_MASKED\000"
 4396      5F4D4153 
 4396      4B454400 
ARM GAS  C:\Users\dev\AppData\Local\Temp\ccJYAN2E.s 			page 111


 4397              	.LASF137:
 4398 0961 666C6F61 		.ascii	"float\000"
 4398      7400
 4399              	.LASF210:
 4400 0967 696E7465 		.ascii	"interruptMask\000"
 4400      72727570 
 4400      744D6173 
 4400      6B00
 4401              	.LASF196:
 4402 0975 72785773 		.ascii	"rxWsPulseWidth\000"
 4402      50756C73 
 4402      65576964 
 4402      746800
 4403              	.LASF99:
 4404 0984 64775374 		.ascii	"dwStatusChIdxMsk\000"
 4404      61747573 
 4404      43684964 
 4404      784D736B 
 4404      00
 4405              	.LASF199:
 4406 0995 72785364 		.ascii	"rxSdiLatchingTime\000"
 4406      694C6174 
 4406      6368696E 
 4406      6754696D 
 4406      6500
 4407              	.LASF23:
 4408 09a7 52455345 		.ascii	"RESERVED1\000"
 4408      52564544 
 4408      3100
 4409              	.LASF238:
 4410 09b1 63795F64 		.ascii	"cy_device\000"
 4410      65766963 
 4410      6500
 4411              	.LASF26:
 4412 09bb 52455345 		.ascii	"RESERVED3\000"
 4412      52564544 
 4412      3300
 4413              	.LASF127:
 4414 09c5 63707573 		.ascii	"cpussRomCtl\000"
 4414      73526F6D 
 4414      43746C00 
 4415              	.LASF32:
 4416 09d1 52455345 		.ascii	"RESERVED5\000"
 4416      52564544 
 4416      3500
 4417              	.LASF36:
 4418 09db 52455345 		.ascii	"RESERVED6\000"
 4418      52564544 
 4418      3600
 4419              	.LASF41:
 4420 09e5 52455345 		.ascii	"RESERVED7\000"
 4420      52564544 
 4420      3700
 4421              	.LASF193:
 4422 09ef 74784669 		.ascii	"txFifoTriggerLevel\000"
 4422      666F5472 
 4422      69676765 
ARM GAS  C:\Users\dev\AppData\Local\Temp\ccJYAN2E.s 			page 112


 4422      724C6576 
 4422      656C00
 4423              	.LASF225:
 4424 0a02 43795F49 		.ascii	"Cy_I2S_ClearInterrupt\000"
 4424      32535F43 
 4424      6C656172 
 4424      496E7465 
 4424      72727570 
 4425              	.LASF218:
 4426 0a18 43795F49 		.ascii	"Cy_I2S_EnableRx\000"
 4426      32535F45 
 4426      6E61626C 
 4426      65527800 
 4427              	.LASF50:
 4428 0a28 75646242 		.ascii	"udbBase\000"
 4428      61736500 
 4429              	.LASF207:
 4430 0a30 5F426F6F 		.ascii	"_Bool\000"
 4430      6C00
 4431              	.LASF18:
 4432 0a36 696E7433 		.ascii	"int32_t\000"
 4432      325F7400 
 4433              	.LASF4:
 4434 0a3e 756E7369 		.ascii	"unsigned char\000"
 4434      676E6564 
 4434      20636861 
 4434      7200
 4435              	.LASF190:
 4436 0a4c 74784368 		.ascii	"txChannelLength\000"
 4436      616E6E65 
 4436      6C4C656E 
 4436      67746800 
 4437              	.LASF33:
 4438 0a5c 54585F46 		.ascii	"TX_FIFO_CTL\000"
 4438      49464F5F 
 4438      43544C00 
 4439              	.LASF7:
 4440 0a68 73686F72 		.ascii	"short int\000"
 4440      7420696E 
 4440      7400
 4441              	.LASF178:
 4442 0a72 7278446D 		.ascii	"rxDmaTrigger\000"
 4442      61547269 
 4442      67676572 
 4442      00
 4443              	.LASF223:
 4444 0a7f 43795F49 		.ascii	"Cy_I2S_PauseTx\000"
 4444      32535F50 
 4444      61757365 
 4444      547800
 4445              	.LASF165:
 4446 0a8e 43595F49 		.ascii	"CY_I2S_LEN20\000"
 4446      32535F4C 
 4446      454E3230 
 4446      00
 4447              	.LASF232:
 4448 0a9b 43795F49 		.ascii	"Cy_I2S_DeepSleepCallback\000"
ARM GAS  C:\Users\dev\AppData\Local\Temp\ccJYAN2E.s 			page 113


 4448      32535F44 
 4448      65657053 
 4448      6C656570 
 4448      43616C6C 
 4449              	.LASF21:
 4450 0ab4 52455345 		.ascii	"RESERVED\000"
 4450      52564544 
 4450      00
 4451              	.LASF166:
 4452 0abd 43595F49 		.ascii	"CY_I2S_LEN24\000"
 4452      32535F4C 
 4452      454E3234 
 4452      00
 4453              	.LASF170:
 4454 0aca 43595F49 		.ascii	"CY_I2S_OVHDATA_ONE\000"
 4454      32535F4F 
 4454      56484441 
 4454      54415F4F 
 4454      4E4500
 4455              	.LASF31:
 4456 0add 52585F57 		.ascii	"RX_WATCHDOG\000"
 4456      41544348 
 4456      444F4700 
 4457              	.LASF212:
 4458 0ae9 43795F49 		.ascii	"Cy_I2S_GetCurrentState\000"
 4458      32535F47 
 4458      65744375 
 4458      7272656E 
 4458      74537461 
 4459              	.LASF104:
 4460 0b00 70657269 		.ascii	"periDivCmdDivSelMsk\000"
 4460      44697643 
 4460      6D644469 
 4460      7653656C 
 4460      4D736B00 
 4461              	.LASF46:
 4462 0b14 4932535F 		.ascii	"I2S_V1_Type\000"
 4462      56315F54 
 4462      79706500 
 4463              	.LASF181:
 4464 0b20 74784D61 		.ascii	"txMasterMode\000"
 4464      73746572 
 4464      4D6F6465 
 4464      00
 4465              	.LASF185:
 4466 0b2d 74785761 		.ascii	"txWatchdogValue\000"
 4466      74636864 
 4466      6F675661 
 4466      6C756500 
 4467              	.LASF202:
 4468 0b3d 72784368 		.ascii	"rxChannels\000"
 4468      616E6E65 
 4468      6C7300
 4469              	.LASF24:
 4470 0b48 52455345 		.ascii	"RESERVED2\000"
 4470      52564544 
 4470      3200
ARM GAS  C:\Users\dev\AppData\Local\Temp\ccJYAN2E.s 			page 114


 4471              	.LASF189:
 4472 0b52 74784368 		.ascii	"txChannels\000"
 4472      616E6E65 
 4472      6C7300
 4473              	.LASF75:
 4474 0b5d 73727373 		.ascii	"srssNumHfroot\000"
 4474      4E756D48 
 4474      66726F6F 
 4474      7400
 4475              	.LASF154:
 4476 0b6b 43595F49 		.ascii	"CY_I2S_SUCCESS\000"
 4476      32535F53 
 4476      55434345 
 4476      535300
 4477              	.LASF88:
 4478 0b7a 666C6173 		.ascii	"flashEraseDelay\000"
 4478      68457261 
 4478      73654465 
 4478      6C617900 
 4479              	.LASF19:
 4480 0b8a 75696E74 		.ascii	"uint32_t\000"
 4480      33325F74 
 4480      00
 4481              	.LASF82:
 4482 0b93 70726F74 		.ascii	"protBusMasterMask\000"
 4482      4275734D 
 4482      61737465 
 4482      724D6173 
 4482      6B00
 4483              	.LASF126:
 4484 0ba5 63707573 		.ascii	"cpussCm4NmiCtlOffset\000"
 4484      73436D34 
 4484      4E6D6943 
 4484      746C4F66 
 4484      66736574 
 4485              	.LASF2:
 4486 0bba 6C6F6E67 		.ascii	"long double\000"
 4486      20646F75 
 4486      626C6500 
 4487              	.LASF136:
 4488 0bc6 63686172 		.ascii	"char\000"
 4488      00
 4489              	.LASF65:
 4490 0bcb 70726F74 		.ascii	"protVersion\000"
 4490      56657273 
 4490      696F6E00 
 4491              	.LASF234:
 4492 0bd7 6D6F6465 		.ascii	"mode\000"
 4492      00
 4493              	.LASF128:
 4494 0bdc 63707573 		.ascii	"cpussRam0Ctl0\000"
 4494      7352616D 
 4494      3043746C 
 4494      3000
 4495              	.LASF174:
 4496 0bea 63795F65 		.ascii	"cy_en_i2s_ws_pw_t\000"
 4496      6E5F6932 
ARM GAS  C:\Users\dev\AppData\Local\Temp\ccJYAN2E.s 			page 115


 4496      735F7773 
 4496      5F70775F 
 4496      7400
 4497              	.LASF226:
 4498 0bfc 636F6E66 		.ascii	"config\000"
 4498      696700
 4499              	.LASF209:
 4500 0c03 656E6162 		.ascii	"enableState\000"
 4500      6C655374 
 4500      61746500 
 4501              	.LASF8:
 4502 0c0f 5F5F7569 		.ascii	"__uint16_t\000"
 4502      6E743136 
 4502      5F7400
 4503              	.LASF109:
 4504 0c1a 70657269 		.ascii	"periDiv16CtlOffset\000"
 4504      44697631 
 4504      3643746C 
 4504      4F666673 
 4504      657400
 4505              	.LASF243:
 4506 0c2d 43795F49 		.ascii	"Cy_I2S_DeInit\000"
 4506      32535F44 
 4506      65496E69 
 4506      7400
 4507              	.LASF15:
 4508 0c3b 75696E74 		.ascii	"uint8_t\000"
 4508      385F7400 
 4509              	.LASF38:
 4510 0c43 52585F46 		.ascii	"RX_FIFO_STATUS\000"
 4510      49464F5F 
 4510      53544154 
 4510      555300
 4511              	.LASF214:
 4512 0c52 43795F49 		.ascii	"Cy_I2S_DisableTx\000"
 4512      32535F44 
 4512      69736162 
 4512      6C655478 
 4512      00
 4513              	.LASF62:
 4514 0c63 6873696F 		.ascii	"hsiomVersion\000"
 4514      6D566572 
 4514      73696F6E 
 4514      00
 4515              	.LASF171:
 4516 0c70 63795F65 		.ascii	"cy_en_i2s_overhead_t\000"
 4516      6E5F6932 
 4516      735F6F76 
 4516      65726865 
 4516      61645F74 
 4517              	.LASF167:
 4518 0c85 43595F49 		.ascii	"CY_I2S_LEN32\000"
 4518      32535F4C 
 4518      454E3332 
 4518      00
 4519              	.LASF147:
 4520 0c92 43595F53 		.ascii	"CY_SYSPM_CHECK_FAIL\000"
ARM GAS  C:\Users\dev\AppData\Local\Temp\ccJYAN2E.s 			page 116


 4520      5953504D 
 4520      5F434845 
 4520      434B5F46 
 4520      41494C00 
 4521              	.LASF90:
 4522 0ca6 666C6173 		.ascii	"flashCtlMainWs1Freq\000"
 4522      6843746C 
 4522      4D61696E 
 4522      57733146 
 4522      72657100 
 4523              	.LASF244:
 4524 0cba 43795F53 		.ascii	"Cy_SysLib_AssertFailed\000"
 4524      79734C69 
 4524      625F4173 
 4524      73657274 
 4524      4661696C 
 4525              	.LASF95:
 4526 0cd1 64774368 		.ascii	"dwChSize\000"
 4526      53697A65 
 4526      00
 4527              	.LASF29:
 4528 0cda 52455345 		.ascii	"RESERVED4\000"
 4528      52564544 
 4528      3400
 4529              	.LASF131:
 4530 0ce4 69706353 		.ascii	"ipcStructSize\000"
 4530      74727563 
 4530      7453697A 
 4530      6500
 4531              	.LASF39:
 4532 0cf2 52585F46 		.ascii	"RX_FIFO_RD\000"
 4532      49464F5F 
 4532      524400
 4533              	.LASF70:
 4534 0cfd 63707573 		.ascii	"cpussIpc0Irq\000"
 4534      73497063 
 4534      30497271 
 4534      00
 4535              	.LASF35:
 4536 0d0a 54585F46 		.ascii	"TX_FIFO_WR\000"
 4536      49464F5F 
 4536      575200
 4537              	.LASF204:
 4538 0d15 7278576F 		.ascii	"rxWordLength\000"
 4538      72644C65 
 4538      6E677468 
 4538      00
 4539              	.LASF144:
 4540 0d22 43595F53 		.ascii	"CY_SYSPM_FAIL\000"
 4540      5953504D 
 4540      5F464149 
 4540      4C00
 4541              	.LASF187:
 4542 0d30 74785363 		.ascii	"txSckoInversion\000"
 4542      6B6F496E 
 4542      76657273 
 4542      696F6E00 
ARM GAS  C:\Users\dev\AppData\Local\Temp\ccJYAN2E.s 			page 117


 4543              	.LASF72:
 4544 0d40 63707573 		.ascii	"cpussNotConnectedIrq\000"
 4544      734E6F74 
 4544      436F6E6E 
 4544      65637465 
 4544      64497271 
 4545              	.LASF30:
 4546 0d55 52585F43 		.ascii	"RX_CTL\000"
 4546      544C00
 4547              	.LASF179:
 4548 0d5c 636C6B44 		.ascii	"clkDiv\000"
 4548      697600
 4549              	.LASF172:
 4550 0d63 43595F49 		.ascii	"CY_I2S_WS_ONE_SCK_CYCLE\000"
 4550      32535F57 
 4550      535F4F4E 
 4550      455F5343 
 4550      4B5F4359 
 4551              	.LASF86:
 4552 0d7b 666C6173 		.ascii	"flashWriteDelay\000"
 4552      68577269 
 4552      74654465 
 4552      6C617900 
 4553              	.LASF224:
 4554 0d8b 43795F49 		.ascii	"Cy_I2S_EnableTx\000"
 4554      32535F45 
 4554      6E61626C 
 4554      65547800 
 4555              	.LASF161:
 4556 0d9b 63795F65 		.ascii	"cy_en_i2s_alignment_t\000"
 4556      6E5F6932 
 4556      735F616C 
 4556      69676E6D 
 4556      656E745F 
 4557              	.LASF213:
 4558 0db1 43795F49 		.ascii	"Cy_I2S_GetInterruptMask\000"
 4558      32535F47 
 4558      6574496E 
 4558      74657272 
 4558      7570744D 
 4559              	.LASF27:
 4560 0dc9 54585F43 		.ascii	"TX_CTL\000"
 4560      544C00
 4561              	.LASF169:
 4562 0dd0 43595F49 		.ascii	"CY_I2S_OVHDATA_ZERO\000"
 4562      32535F4F 
 4562      56484441 
 4562      54415F5A 
 4562      45524F00 
 4563              	.LASF119:
 4564 0de4 63707573 		.ascii	"cpussCm4StatusOffset\000"
 4564      73436D34 
 4564      53746174 
 4564      75734F66 
 4564      66736574 
 4565              	.LASF112:
 4566 0df9 6770696F 		.ascii	"gpioPrtIntrCfgOffset\000"
ARM GAS  C:\Users\dev\AppData\Local\Temp\ccJYAN2E.s 			page 118


 4566      50727449 
 4566      6E747243 
 4566      66674F66 
 4566      66736574 
 4567              	.LASF139:
 4568 0e0e 43595F53 		.ascii	"CY_SYSPM_SUCCESS\000"
 4568      5953504D 
 4568      5F535543 
 4568      43455353 
 4568      00
 4569              	.LASF184:
 4570 0e1f 74785761 		.ascii	"txWatchdogEnable\000"
 4570      74636864 
 4570      6F67456E 
 4570      61626C65 
 4570      00
 4571              	.LASF146:
 4572 0e30 43595F53 		.ascii	"CY_SYSPM_CHECK_READY\000"
 4572      5953504D 
 4572      5F434845 
 4572      434B5F52 
 4572      45414459 
 4573              	.LASF40:
 4574 0e45 52585F46 		.ascii	"RX_FIFO_RD_SILENT\000"
 4574      49464F5F 
 4574      52445F53 
 4574      494C454E 
 4574      5400
 4575              	.LASF198:
 4576 0e57 72785761 		.ascii	"rxWatchdogValue\000"
 4576      74636864 
 4576      6F675661 
 4576      6C756500 
 4577              	.LASF123:
 4578 0e67 63707573 		.ascii	"cpussTrimRomCtlOffset\000"
 4578      73547269 
 4578      6D526F6D 
 4578      43746C4F 
 4578      66667365 
 4579              	.LASF73:
 4580 0e7d 73727373 		.ascii	"srssNumClkpath\000"
 4580      4E756D43 
 4580      6C6B7061 
 4580      746800
 4581              	.LASF145:
 4582 0e8c 63795F65 		.ascii	"cy_en_syspm_status_t\000"
 4582      6E5F7379 
 4582      73706D5F 
 4582      73746174 
 4582      75735F74 
 4583              	.LASF59:
 4584 0ea1 64775665 		.ascii	"dwVersion\000"
 4584      7273696F 
 4584      6E00
 4585              	.LASF55:
 4586 0eab 69706342 		.ascii	"ipcBase\000"
 4586      61736500 
ARM GAS  C:\Users\dev\AppData\Local\Temp\ccJYAN2E.s 			page 119


 4587              	.LASF230:
 4588 0eb3 636C6F63 		.ascii	"clockDiv\000"
 4588      6B446976 
 4588      00
 4589              	.LASF188:
 4590 0ebc 74785363 		.ascii	"txSckiInversion\000"
 4590      6B69496E 
 4590      76657273 
 4590      696F6E00 
 4591              	.LASF194:
 4592 0ecc 72784D61 		.ascii	"rxMasterMode\000"
 4592      73746572 
 4592      4D6F6465 
 4592      00
 4593              	.LASF106:
 4594 0ed9 70657269 		.ascii	"periDivCmdPaDivSelPos\000"
 4594      44697643 
 4594      6D645061 
 4594      44697653 
 4594      656C506F 
 4595              	.LASF87:
 4596 0eef 666C6173 		.ascii	"flashProgramDelay\000"
 4596      6850726F 
 4596      6772616D 
 4596      44656C61 
 4596      7900
 4597              	.LASF197:
 4598 0f01 72785761 		.ascii	"rxWatchdogEnable\000"
 4598      74636864 
 4598      6F67456E 
 4598      61626C65 
 4598      00
 4599              	.LASF227:
 4600 0f12 77735075 		.ascii	"wsPulseWidth\000"
 4600      6C736557 
 4600      69647468 
 4600      00
 4601              	.LASF158:
 4602 0f1f 43595F49 		.ascii	"CY_I2S_I2S_MODE\000"
 4602      32535F49 
 4602      32535F4D 
 4602      4F444500 
 4603              		.ident	"GCC: (GNU Tools for ARM Embedded Processors) 5.4.1 20160609 (release) [ARM/embedded-5-bran
