ARM GAS  C:\Users\haske\AppData\Local\Temp\cc2s3UCZ.s 			page 1


   1              		.syntax unified
   2              		.cpu cortex-m4
   3              		.eabi_attribute 27, 1
   4              		.fpu fpv4-sp-d16
   5              		.eabi_attribute 20, 1
   6              		.eabi_attribute 21, 1
   7              		.eabi_attribute 23, 3
   8              		.eabi_attribute 24, 1
   9              		.eabi_attribute 25, 1
  10              		.eabi_attribute 26, 1
  11              		.eabi_attribute 30, 1
  12              		.eabi_attribute 34, 1
  13              		.eabi_attribute 18, 4
  14              		.thumb
  15              		.syntax unified
  16              		.file	"driver_st7789_basic.c"
  17              		.text
  18              	.Ltext0:
  19              		.cfi_sections	.debug_frame
  20              		.section	.text.st7789_basic_init,"ax",%progbits
  21              		.align	2
  22              		.global	st7789_basic_init
  23              		.thumb
  24              		.thumb_func
  25              		.type	st7789_basic_init, %function
  26              	st7789_basic_init:
  27              	.LFB864:
  28              		.file 1 "driver_st7789_basic.c"
   1:driver_st7789_basic.c **** /**
   2:driver_st7789_basic.c ****  * Copyright (c) 2015 - present LibDriver All rights reserved
   3:driver_st7789_basic.c ****  *
   4:driver_st7789_basic.c ****  * The MIT License (MIT)
   5:driver_st7789_basic.c ****  *
   6:driver_st7789_basic.c ****  * Permission is hereby granted, free of charge, to any person obtaining a copy
   7:driver_st7789_basic.c ****  * of this software and associated documentation files (the "Software"), to deal
   8:driver_st7789_basic.c ****  * in the Software without restriction, including without limitation the rights
   9:driver_st7789_basic.c ****  * to use, copy, modify, merge, publish, distribute, sublicense, and/or sell
  10:driver_st7789_basic.c ****  * copies of the Software, and to permit persons to whom the Software is
  11:driver_st7789_basic.c ****  * furnished to do so, subject to the following conditions:
  12:driver_st7789_basic.c ****  *
  13:driver_st7789_basic.c ****  * The above copyright notice and this permission notice shall be included in all
  14:driver_st7789_basic.c ****  * copies or substantial portions of the Software.
  15:driver_st7789_basic.c ****  *
  16:driver_st7789_basic.c ****  * THE SOFTWARE IS PROVIDED "AS IS", WITHOUT WARRANTY OF ANY KIND, EXPRESS OR
  17:driver_st7789_basic.c ****  * IMPLIED, INCLUDING BUT NOT LIMITED TO THE WARRANTIES OF MERCHANTABILITY,
  18:driver_st7789_basic.c ****  * FITNESS FOR A PARTICULAR PURPOSE AND NONINFRINGEMENT. IN NO EVENT SHALL THE
  19:driver_st7789_basic.c ****  * AUTHORS OR COPYRIGHT HOLDERS BE LIABLE FOR ANY CLAIM, DAMAGES OR OTHER
  20:driver_st7789_basic.c ****  * LIABILITY, WHETHER IN AN ACTION OF CONTRACT, TORT OR OTHERWISE, ARISING FROM,
  21:driver_st7789_basic.c ****  * OUT OF OR IN CONNECTION WITH THE SOFTWARE OR THE USE OR OTHER DEALINGS IN THE
  22:driver_st7789_basic.c ****  * SOFTWARE.
  23:driver_st7789_basic.c ****  *
  24:driver_st7789_basic.c ****  * @file      driver_st7789_basic.c
  25:driver_st7789_basic.c ****  * @brief     driver st7789 basic source file
  26:driver_st7789_basic.c ****  * @version   1.0.0
  27:driver_st7789_basic.c ****  * @author    Shifeng Li
  28:driver_st7789_basic.c ****  * @date      2023-04-15
  29:driver_st7789_basic.c ****  *
ARM GAS  C:\Users\haske\AppData\Local\Temp\cc2s3UCZ.s 			page 2


  30:driver_st7789_basic.c ****  * <h3>history</h3>
  31:driver_st7789_basic.c ****  * <table>
  32:driver_st7789_basic.c ****  * <tr><th>Date        <th>Version  <th>Author      <th>Description
  33:driver_st7789_basic.c ****  * <tr><td>2023/04/15  <td>1.0      <td>Shifeng Li  <td>first upload
  34:driver_st7789_basic.c ****  * </table>
  35:driver_st7789_basic.c ****  */
  36:driver_st7789_basic.c **** 
  37:driver_st7789_basic.c **** #include "driver_st7789_basic.h"
  38:driver_st7789_basic.c **** #include "debug.h"
  39:driver_st7789_basic.c **** static st7789_handle_t gs_handle;        /**< st7789 handle */
  40:driver_st7789_basic.c **** 
  41:driver_st7789_basic.c **** /**
  42:driver_st7789_basic.c ****  * @brief  basic example init
  43:driver_st7789_basic.c ****  * @return status code
  44:driver_st7789_basic.c ****  *         - 0 success
  45:driver_st7789_basic.c ****  *         - 1 init failed
  46:driver_st7789_basic.c ****  * @note   none
  47:driver_st7789_basic.c ****  */
  48:driver_st7789_basic.c **** uint8_t st7789_basic_init(void)
  49:driver_st7789_basic.c **** {
  29              		.loc 1 49 0
  30              		.cfi_startproc
  31              		@ args = 0, pretend = 0, frame = 96
  32              		@ frame_needed = 0, uses_anonymous_args = 0
  33 0000 10B5     		push	{r4, lr}
  34              		.cfi_def_cfa_offset 8
  35              		.cfi_offset 4, -8
  36              		.cfi_offset 14, -4
  37 0002 9EB0     		sub	sp, sp, #120
  38              		.cfi_def_cfa_offset 128
  50:driver_st7789_basic.c ****     DBG_PRINTF("testing test \r\n");
  39              		.loc 1 50 0
  40 0004 A148     		ldr	r0, .L55
  41 0006 FFF7FEFF 		bl	myprintf
  42              	.LVL0:
  51:driver_st7789_basic.c ****     uint8_t res;
  52:driver_st7789_basic.c ****     uint8_t reg;
  53:driver_st7789_basic.c ****     uint16_t i;
  54:driver_st7789_basic.c ****     uint8_t param_positive[14] = ST7789_BASIC_DEFAULT_POSITIVE_VOLTAGE_GAMMA;
  43              		.loc 1 54 0
  44 000a A14B     		ldr	r3, .L55+4
  45 000c 1AAC     		add	r4, sp, #104
  46 000e 1868     		ldr	r0, [r3]	@ unaligned
  47 0010 5968     		ldr	r1, [r3, #4]	@ unaligned
  48 0012 9A68     		ldr	r2, [r3, #8]	@ unaligned
  49 0014 07C4     		stmia	r4!, {r0, r1, r2}
  50 0016 9A89     		ldrh	r2, [r3, #12]	@ unaligned
  51 0018 2280     		strh	r2, [r4]	@ unaligned
  55:driver_st7789_basic.c ****     uint8_t param_negative[14] = ST7789_BASIC_DEFAULT_NEGATIVA_VOLTAGE_GAMMA;
  52              		.loc 1 55 0
  53 001a 16AC     		add	r4, sp, #88
  54 001c 53F8100F 		ldr	r0, [r3, #16]!	@ unaligned
  55 0020 5968     		ldr	r1, [r3, #4]	@ unaligned
  56 0022 9A68     		ldr	r2, [r3, #8]	@ unaligned
  57 0024 07C4     		stmia	r4!, {r0, r1, r2}
  58 0026 9B89     		ldrh	r3, [r3, #12]	@ unaligned
  59 0028 2380     		strh	r3, [r4]	@ unaligned
ARM GAS  C:\Users\haske\AppData\Local\Temp\cc2s3UCZ.s 			page 3


  56:driver_st7789_basic.c ****     uint8_t params[64];
  57:driver_st7789_basic.c **** 
  58:driver_st7789_basic.c ****     /* link functions */
  59:driver_st7789_basic.c ****     DRIVER_ST7789_LINK_INIT(&gs_handle, st7789_handle_t);
  60              		.loc 1 59 0
  61 002a 9A4C     		ldr	r4, .L55+8
  62 002c 41F23C02 		movw	r2, #4156
  63 0030 0021     		movs	r1, #0
  64 0032 2046     		mov	r0, r4
  65 0034 FFF7FEFF 		bl	memset
  66              	.LVL1:
  60:driver_st7789_basic.c ****     DRIVER_ST7789_LINK_SPI_INIT(&gs_handle, st7789_interface_spi_init);
  67              		.loc 1 60 0
  68 0038 974B     		ldr	r3, .L55+12
  69 003a 2360     		str	r3, [r4]
  61:driver_st7789_basic.c ****     DRIVER_ST7789_LINK_SPI_DEINIT(&gs_handle, st7789_interface_spi_deinit);
  70              		.loc 1 61 0
  71 003c 974B     		ldr	r3, .L55+16
  72 003e 6360     		str	r3, [r4, #4]
  62:driver_st7789_basic.c ****     DRIVER_ST7789_LINK_SPI_WRITE_COMMAND(&gs_handle, st7789_interface_spi_write_cmd);
  73              		.loc 1 62 0
  74 0040 974B     		ldr	r3, .L55+20
  75 0042 A360     		str	r3, [r4, #8]
  63:driver_st7789_basic.c ****     DRIVER_ST7789_LINK_COMMAND_DATA_GPIO_INIT(&gs_handle, st7789_interface_cmd_data_gpio_init);
  76              		.loc 1 63 0
  77 0044 974B     		ldr	r3, .L55+24
  78 0046 E360     		str	r3, [r4, #12]
  64:driver_st7789_basic.c ****     DRIVER_ST7789_LINK_COMMAND_DATA_GPIO_DEINIT(&gs_handle, st7789_interface_cmd_data_gpio_deinit);
  79              		.loc 1 64 0
  80 0048 974B     		ldr	r3, .L55+28
  81 004a 2361     		str	r3, [r4, #16]
  65:driver_st7789_basic.c ****     DRIVER_ST7789_LINK_COMMAND_DATA_GPIO_WRITE(&gs_handle, st7789_interface_cmd_data_gpio_write);
  82              		.loc 1 65 0
  83 004c 974B     		ldr	r3, .L55+32
  84 004e 6361     		str	r3, [r4, #20]
  66:driver_st7789_basic.c ****     DRIVER_ST7789_LINK_RESET_GPIO_INIT(&gs_handle, st7789_interface_reset_gpio_init);
  85              		.loc 1 66 0
  86 0050 974B     		ldr	r3, .L55+36
  87 0052 A361     		str	r3, [r4, #24]
  67:driver_st7789_basic.c ****     DRIVER_ST7789_LINK_RESET_GPIO_DEINIT(&gs_handle, st7789_interface_reset_gpio_deinit);
  88              		.loc 1 67 0
  89 0054 974B     		ldr	r3, .L55+40
  90 0056 E361     		str	r3, [r4, #28]
  68:driver_st7789_basic.c ****     DRIVER_ST7789_LINK_RESET_GPIO_WRITE(&gs_handle, st7789_interface_reset_gpio_write);
  91              		.loc 1 68 0
  92 0058 974B     		ldr	r3, .L55+44
  93 005a 2362     		str	r3, [r4, #32]
  69:driver_st7789_basic.c ****     DRIVER_ST7789_LINK_DELAY_MS(&gs_handle, st7789_interface_delay_ms);
  94              		.loc 1 69 0
  95 005c 974B     		ldr	r3, .L55+48
  96 005e A362     		str	r3, [r4, #40]
  70:driver_st7789_basic.c ****     DRIVER_ST7789_LINK_DEBUG_PRINT(&gs_handle, st7789_interface_debug_print);
  97              		.loc 1 70 0
  98 0060 974B     		ldr	r3, .L55+52
  99 0062 6362     		str	r3, [r4, #36]
  71:driver_st7789_basic.c **** 
  72:driver_st7789_basic.c ****     /* st7789 init */
ARM GAS  C:\Users\haske\AppData\Local\Temp\cc2s3UCZ.s 			page 4


  73:driver_st7789_basic.c ****     res = st7789_init(&gs_handle);
 100              		.loc 1 73 0
 101 0064 2046     		mov	r0, r4
 102 0066 FFF7FEFF 		bl	st7789_init
 103              	.LVL2:
  74:driver_st7789_basic.c ****     if (res != 0)
 104              		.loc 1 74 0
 105 006a 20B1     		cbz	r0, .L2
  75:driver_st7789_basic.c ****     {
  76:driver_st7789_basic.c ****         DBG_PRINTF("st7789: init failed.\n");
 106              		.loc 1 76 0
 107 006c 9548     		ldr	r0, .L55+56
 108              	.LVL3:
 109 006e FFF7FEFF 		bl	myprintf
 110              	.LVL4:
  77:driver_st7789_basic.c **** 
  78:driver_st7789_basic.c ****         return 1;
 111              		.loc 1 78 0
 112 0072 0120     		movs	r0, #1
 113 0074 34E3     		b	.L3
 114              	.LVL5:
 115              	.L2:
  79:driver_st7789_basic.c ****     }
  80:driver_st7789_basic.c **** 
  81:driver_st7789_basic.c ****     /* set default column */
  82:driver_st7789_basic.c ****     res = st7789_set_column(&gs_handle, ST7789_BASIC_DEFAULT_COLUMN);
 116              		.loc 1 82 0
 117 0076 F021     		movs	r1, #240
 118 0078 8648     		ldr	r0, .L55+8
 119              	.LVL6:
 120 007a FFF7FEFF 		bl	st7789_set_column
 121              	.LVL7:
  83:driver_st7789_basic.c ****     if (res != 0)
 122              		.loc 1 83 0
 123 007e 38B1     		cbz	r0, .L4
  84:driver_st7789_basic.c ****     {
  85:driver_st7789_basic.c ****         DBG_PRINTF("st7789: set column failed.\n");
 124              		.loc 1 85 0
 125 0080 9148     		ldr	r0, .L55+60
 126              	.LVL8:
 127 0082 FFF7FEFF 		bl	myprintf
 128              	.LVL9:
  86:driver_st7789_basic.c ****         (void)st7789_deinit(&gs_handle);
 129              		.loc 1 86 0
 130 0086 8348     		ldr	r0, .L55+8
 131 0088 FFF7FEFF 		bl	st7789_deinit
 132              	.LVL10:
  87:driver_st7789_basic.c **** 
  88:driver_st7789_basic.c ****         return 1;
 133              		.loc 1 88 0
 134 008c 0120     		movs	r0, #1
 135 008e 27E3     		b	.L3
 136              	.LVL11:
 137              	.L4:
  89:driver_st7789_basic.c ****     }
  90:driver_st7789_basic.c **** 
  91:driver_st7789_basic.c ****     /* set default row */
ARM GAS  C:\Users\haske\AppData\Local\Temp\cc2s3UCZ.s 			page 5


  92:driver_st7789_basic.c ****     res = st7789_set_row(&gs_handle, ST7789_BASIC_DEFAULT_ROW);
 138              		.loc 1 92 0
 139 0090 4FF4A071 		mov	r1, #320
 140 0094 7F48     		ldr	r0, .L55+8
 141              	.LVL12:
 142 0096 FFF7FEFF 		bl	st7789_set_row
 143              	.LVL13:
  93:driver_st7789_basic.c ****     if (res != 0)
 144              		.loc 1 93 0
 145 009a 38B1     		cbz	r0, .L5
  94:driver_st7789_basic.c ****     {
  95:driver_st7789_basic.c ****         DBG_PRINTF("st7789: set row failed.\n");
 146              		.loc 1 95 0
 147 009c 8B48     		ldr	r0, .L55+64
 148              	.LVL14:
 149 009e FFF7FEFF 		bl	myprintf
 150              	.LVL15:
  96:driver_st7789_basic.c ****         (void)st7789_deinit(&gs_handle);
 151              		.loc 1 96 0
 152 00a2 7C48     		ldr	r0, .L55+8
 153 00a4 FFF7FEFF 		bl	st7789_deinit
 154              	.LVL16:
  97:driver_st7789_basic.c **** 
  98:driver_st7789_basic.c ****         return 1;
 155              		.loc 1 98 0
 156 00a8 0120     		movs	r0, #1
 157 00aa 19E3     		b	.L3
 158              	.LVL17:
 159              	.L5:
  99:driver_st7789_basic.c ****     }
 100:driver_st7789_basic.c **** 
 101:driver_st7789_basic.c ****     /* sleep out */
 102:driver_st7789_basic.c ****     res = st7789_sleep_out(&gs_handle);
 160              		.loc 1 102 0
 161 00ac 7948     		ldr	r0, .L55+8
 162              	.LVL18:
 163 00ae FFF7FEFF 		bl	st7789_sleep_out
 164              	.LVL19:
 103:driver_st7789_basic.c ****     if (res != 0)
 165              		.loc 1 103 0
 166 00b2 38B1     		cbz	r0, .L6
 104:driver_st7789_basic.c ****     {
 105:driver_st7789_basic.c ****         DBG_PRINTF("st7789: sleep out failed.\n");
 167              		.loc 1 105 0
 168 00b4 8648     		ldr	r0, .L55+68
 169              	.LVL20:
 170 00b6 FFF7FEFF 		bl	myprintf
 171              	.LVL21:
 106:driver_st7789_basic.c ****         (void)st7789_deinit(&gs_handle);
 172              		.loc 1 106 0
 173 00ba 7648     		ldr	r0, .L55+8
 174 00bc FFF7FEFF 		bl	st7789_deinit
 175              	.LVL22:
 107:driver_st7789_basic.c **** 
 108:driver_st7789_basic.c ****         return 1;
 176              		.loc 1 108 0
 177 00c0 0120     		movs	r0, #1
ARM GAS  C:\Users\haske\AppData\Local\Temp\cc2s3UCZ.s 			page 6


 178 00c2 0DE3     		b	.L3
 179              	.LVL23:
 180              	.L6:
 109:driver_st7789_basic.c ****     }
 110:driver_st7789_basic.c **** 
 111:driver_st7789_basic.c ****     /* idle mode off */
 112:driver_st7789_basic.c ****     res = st7789_idle_mode_off(&gs_handle);
 181              		.loc 1 112 0
 182 00c4 7348     		ldr	r0, .L55+8
 183              	.LVL24:
 184 00c6 FFF7FEFF 		bl	st7789_idle_mode_off
 185              	.LVL25:
 113:driver_st7789_basic.c ****     if (res != 0)
 186              		.loc 1 113 0
 187 00ca 38B1     		cbz	r0, .L7
 114:driver_st7789_basic.c ****     {
 115:driver_st7789_basic.c ****         DBG_PRINTF("st7789: idle mode off failed.\n");
 188              		.loc 1 115 0
 189 00cc 8148     		ldr	r0, .L55+72
 190              	.LVL26:
 191 00ce FFF7FEFF 		bl	myprintf
 192              	.LVL27:
 116:driver_st7789_basic.c ****         (void)st7789_deinit(&gs_handle);
 193              		.loc 1 116 0
 194 00d2 7048     		ldr	r0, .L55+8
 195 00d4 FFF7FEFF 		bl	st7789_deinit
 196              	.LVL28:
 117:driver_st7789_basic.c **** 
 118:driver_st7789_basic.c ****         return 1;
 197              		.loc 1 118 0
 198 00d8 0120     		movs	r0, #1
 199 00da 01E3     		b	.L3
 200              	.LVL29:
 201              	.L7:
 119:driver_st7789_basic.c ****     }
 120:driver_st7789_basic.c **** 
 121:driver_st7789_basic.c ****     /* normal display mode on */
 122:driver_st7789_basic.c ****     res = st7789_normal_display_mode_on(&gs_handle);
 202              		.loc 1 122 0
 203 00dc 6D48     		ldr	r0, .L55+8
 204              	.LVL30:
 205 00de FFF7FEFF 		bl	st7789_normal_display_mode_on
 206              	.LVL31:
 123:driver_st7789_basic.c ****     if (res != 0)
 207              		.loc 1 123 0
 208 00e2 38B1     		cbz	r0, .L8
 124:driver_st7789_basic.c ****     {
 125:driver_st7789_basic.c ****         DBG_PRINTF("st7789: normal display mode on failed.\n");
 209              		.loc 1 125 0
 210 00e4 7C48     		ldr	r0, .L55+76
 211              	.LVL32:
 212 00e6 FFF7FEFF 		bl	myprintf
 213              	.LVL33:
 126:driver_st7789_basic.c ****         (void)st7789_deinit(&gs_handle);
 214              		.loc 1 126 0
 215 00ea 6A48     		ldr	r0, .L55+8
 216 00ec FFF7FEFF 		bl	st7789_deinit
ARM GAS  C:\Users\haske\AppData\Local\Temp\cc2s3UCZ.s 			page 7


 217              	.LVL34:
 127:driver_st7789_basic.c **** 
 128:driver_st7789_basic.c ****         return 1;
 218              		.loc 1 128 0
 219 00f0 0120     		movs	r0, #1
 220 00f2 F5E2     		b	.L3
 221              	.LVL35:
 222              	.L8:
 129:driver_st7789_basic.c ****     }
 130:driver_st7789_basic.c **** 
 131:driver_st7789_basic.c ****     /* display inversion on */
 132:driver_st7789_basic.c ****     res = st7789_display_inversion_on(&gs_handle);
 223              		.loc 1 132 0
 224 00f4 6748     		ldr	r0, .L55+8
 225              	.LVL36:
 226 00f6 FFF7FEFF 		bl	st7789_display_inversion_on
 227              	.LVL37:
 133:driver_st7789_basic.c ****     if (res != 0)
 228              		.loc 1 133 0
 229 00fa 38B1     		cbz	r0, .L9
 134:driver_st7789_basic.c ****     {
 135:driver_st7789_basic.c ****         DBG_PRINTF("st7789: display inversion on failed.\n");
 230              		.loc 1 135 0
 231 00fc 7748     		ldr	r0, .L55+80
 232              	.LVL38:
 233 00fe FFF7FEFF 		bl	myprintf
 234              	.LVL39:
 136:driver_st7789_basic.c ****         (void)st7789_deinit(&gs_handle);
 235              		.loc 1 136 0
 236 0102 6448     		ldr	r0, .L55+8
 237 0104 FFF7FEFF 		bl	st7789_deinit
 238              	.LVL40:
 137:driver_st7789_basic.c **** 
 138:driver_st7789_basic.c ****         return 1;
 239              		.loc 1 138 0
 240 0108 0120     		movs	r0, #1
 241 010a E9E2     		b	.L3
 242              	.LVL41:
 243              	.L9:
 139:driver_st7789_basic.c ****     }
 140:driver_st7789_basic.c **** 
 141:driver_st7789_basic.c ****     /* set default gamma */
 142:driver_st7789_basic.c ****     res = st7789_set_gamma(&gs_handle, ST7789_BASIC_DEFAULT_GAMMA_CURVE);
 244              		.loc 1 142 0
 245 010c 0121     		movs	r1, #1
 246 010e 6148     		ldr	r0, .L55+8
 247              	.LVL42:
 248 0110 FFF7FEFF 		bl	st7789_set_gamma
 249              	.LVL43:
 143:driver_st7789_basic.c ****     if (res != 0)
 250              		.loc 1 143 0
 251 0114 38B1     		cbz	r0, .L10
 144:driver_st7789_basic.c ****     {
 145:driver_st7789_basic.c ****         DBG_PRINTF("st7789: set gamma failed.\n");
 252              		.loc 1 145 0
 253 0116 7248     		ldr	r0, .L55+84
 254              	.LVL44:
ARM GAS  C:\Users\haske\AppData\Local\Temp\cc2s3UCZ.s 			page 8


 255 0118 FFF7FEFF 		bl	myprintf
 256              	.LVL45:
 146:driver_st7789_basic.c ****         (void)st7789_deinit(&gs_handle);
 257              		.loc 1 146 0
 258 011c 5D48     		ldr	r0, .L55+8
 259 011e FFF7FEFF 		bl	st7789_deinit
 260              	.LVL46:
 147:driver_st7789_basic.c **** 
 148:driver_st7789_basic.c ****         return 1;
 261              		.loc 1 148 0
 262 0122 0120     		movs	r0, #1
 263 0124 DCE2     		b	.L3
 264              	.LVL47:
 265              	.L10:
 149:driver_st7789_basic.c ****     }
 150:driver_st7789_basic.c **** 
 151:driver_st7789_basic.c ****     /* set default memory data access control */
 152:driver_st7789_basic.c ****     res = st7789_set_memory_data_access_control(&gs_handle, ST7789_BASIC_DEFAULT_ACCESS);
 266              		.loc 1 152 0
 267 0126 0021     		movs	r1, #0
 268 0128 5A48     		ldr	r0, .L55+8
 269              	.LVL48:
 270 012a FFF7FEFF 		bl	st7789_set_memory_data_access_control
 271              	.LVL49:
 153:driver_st7789_basic.c ****     if (res != 0)
 272              		.loc 1 153 0
 273 012e 38B1     		cbz	r0, .L11
 154:driver_st7789_basic.c ****     {
 155:driver_st7789_basic.c ****         DBG_PRINTF("st7789: set memory data access control failed.\n");
 274              		.loc 1 155 0
 275 0130 6C48     		ldr	r0, .L55+88
 276              	.LVL50:
 277 0132 FFF7FEFF 		bl	myprintf
 278              	.LVL51:
 156:driver_st7789_basic.c ****         (void)st7789_deinit(&gs_handle);
 279              		.loc 1 156 0
 280 0136 5748     		ldr	r0, .L55+8
 281 0138 FFF7FEFF 		bl	st7789_deinit
 282              	.LVL52:
 157:driver_st7789_basic.c **** 
 158:driver_st7789_basic.c ****         return 1;
 283              		.loc 1 158 0
 284 013c 0120     		movs	r0, #1
 285 013e CFE2     		b	.L3
 286              	.LVL53:
 287              	.L11:
 159:driver_st7789_basic.c ****     }
 160:driver_st7789_basic.c **** 
 161:driver_st7789_basic.c ****     /* set default pixel format */
 162:driver_st7789_basic.c ****     res = st7789_set_interface_pixel_format(&gs_handle, ST7789_BASIC_DEFAULT_RGB_INTERFACE_COLOR_FO
 288              		.loc 1 162 0
 289 0140 0522     		movs	r2, #5
 290 0142 0621     		movs	r1, #6
 291 0144 5348     		ldr	r0, .L55+8
 292              	.LVL54:
 293 0146 FFF7FEFF 		bl	st7789_set_interface_pixel_format
 294              	.LVL55:
ARM GAS  C:\Users\haske\AppData\Local\Temp\cc2s3UCZ.s 			page 9


 163:driver_st7789_basic.c ****                                             ST7789_BASIC_DEFAULT_CONTROL_INTERFACE_COLOR_FORMAT);
 164:driver_st7789_basic.c ****     if (res != 0)
 295              		.loc 1 164 0
 296 014a 38B1     		cbz	r0, .L12
 165:driver_st7789_basic.c ****     {
 166:driver_st7789_basic.c ****         DBG_PRINTF("st7789: set interface pixel format failed.\n");
 297              		.loc 1 166 0
 298 014c 6648     		ldr	r0, .L55+92
 299              	.LVL56:
 300 014e FFF7FEFF 		bl	myprintf
 301              	.LVL57:
 167:driver_st7789_basic.c ****         (void)st7789_deinit(&gs_handle);
 302              		.loc 1 167 0
 303 0152 5048     		ldr	r0, .L55+8
 304 0154 FFF7FEFF 		bl	st7789_deinit
 305              	.LVL58:
 168:driver_st7789_basic.c **** 
 169:driver_st7789_basic.c ****         return 1;
 306              		.loc 1 169 0
 307 0158 0120     		movs	r0, #1
 308 015a C1E2     		b	.L3
 309              	.LVL59:
 310              	.L12:
 170:driver_st7789_basic.c ****     }
 171:driver_st7789_basic.c **** 
 172:driver_st7789_basic.c ****     /* set default brightness */
 173:driver_st7789_basic.c ****     res = st7789_set_display_brightness(&gs_handle, ST7789_BASIC_DEFAULT_BRIGHTNESS);
 311              		.loc 1 173 0
 312 015c FF21     		movs	r1, #255
 313 015e 4D48     		ldr	r0, .L55+8
 314              	.LVL60:
 315 0160 FFF7FEFF 		bl	st7789_set_display_brightness
 316              	.LVL61:
 174:driver_st7789_basic.c ****     if (res != 0)
 317              		.loc 1 174 0
 318 0164 38B1     		cbz	r0, .L13
 175:driver_st7789_basic.c ****     {
 176:driver_st7789_basic.c ****         DBG_PRINTF("st7789: set display brightness failed.\n");
 319              		.loc 1 176 0
 320 0166 6148     		ldr	r0, .L55+96
 321              	.LVL62:
 322 0168 FFF7FEFF 		bl	myprintf
 323              	.LVL63:
 177:driver_st7789_basic.c ****         (void)st7789_deinit(&gs_handle);
 324              		.loc 1 177 0
 325 016c 4948     		ldr	r0, .L55+8
 326 016e FFF7FEFF 		bl	st7789_deinit
 327              	.LVL64:
 178:driver_st7789_basic.c **** 
 179:driver_st7789_basic.c ****         return 1;
 328              		.loc 1 179 0
 329 0172 0120     		movs	r0, #1
 330 0174 B4E2     		b	.L3
 331              	.LVL65:
 332              	.L13:
 180:driver_st7789_basic.c ****     }
 181:driver_st7789_basic.c **** 
ARM GAS  C:\Users\haske\AppData\Local\Temp\cc2s3UCZ.s 			page 10


 182:driver_st7789_basic.c ****     /* set default brightness control */
 183:driver_st7789_basic.c ****     res = st7789_set_display_control(&gs_handle,
 333              		.loc 1 183 0
 334 0176 0023     		movs	r3, #0
 335 0178 1A46     		mov	r2, r3
 336 017a 1946     		mov	r1, r3
 337 017c 4548     		ldr	r0, .L55+8
 338              	.LVL66:
 339 017e FFF7FEFF 		bl	st7789_set_display_control
 340              	.LVL67:
 184:driver_st7789_basic.c ****                                      ST7789_BASIC_DEFAULT_BRIGHTNESS_BLOCK,
 185:driver_st7789_basic.c ****                                      ST7789_BASIC_DEFAULT_DISPLAY_DIMMING,
 186:driver_st7789_basic.c ****                                      ST7789_BASIC_DEFAULT_BACKLIGHT);
 187:driver_st7789_basic.c ****     if (res != 0)
 341              		.loc 1 187 0
 342 0182 38B1     		cbz	r0, .L14
 188:driver_st7789_basic.c ****     {
 189:driver_st7789_basic.c ****         DBG_PRINTF("st7789: set display control failed.\n");
 343              		.loc 1 189 0
 344 0184 5A48     		ldr	r0, .L55+100
 345              	.LVL68:
 346 0186 FFF7FEFF 		bl	myprintf
 347              	.LVL69:
 190:driver_st7789_basic.c ****         (void)st7789_deinit(&gs_handle);
 348              		.loc 1 190 0
 349 018a 4248     		ldr	r0, .L55+8
 350 018c FFF7FEFF 		bl	st7789_deinit
 351              	.LVL70:
 191:driver_st7789_basic.c **** 
 192:driver_st7789_basic.c ****         return 1;
 352              		.loc 1 192 0
 353 0190 0120     		movs	r0, #1
 354 0192 A5E2     		b	.L3
 355              	.LVL71:
 356              	.L14:
 193:driver_st7789_basic.c ****     }
 194:driver_st7789_basic.c **** 
 195:driver_st7789_basic.c ****     /* set default color enhancement */
 196:driver_st7789_basic.c ****     res = st7789_set_brightness_control_and_color_enhancement(&gs_handle, ST7789_BASIC_DEFAULT_COLO
 357              		.loc 1 196 0
 358 0194 0323     		movs	r3, #3
 359 0196 0122     		movs	r2, #1
 360 0198 1146     		mov	r1, r2
 361 019a 3E48     		ldr	r0, .L55+8
 362              	.LVL72:
 363 019c FFF7FEFF 		bl	st7789_set_brightness_control_and_color_enhancement
 364              	.LVL73:
 197:driver_st7789_basic.c ****                                                               ST7789_BASIC_DEFAULT_COLOR_ENHANCEMEN
 198:driver_st7789_basic.c ****                                                               ST7789_BASIC_DEFAULT_COLOR_ENHANCEMEN
 199:driver_st7789_basic.c ****     if (res != 0)
 365              		.loc 1 199 0
 366 01a0 38B1     		cbz	r0, .L15
 200:driver_st7789_basic.c ****     {
 201:driver_st7789_basic.c ****         DBG_PRINTF("st7789: set brightness control and color enhancement failed.\n");
 367              		.loc 1 201 0
 368 01a2 5448     		ldr	r0, .L55+104
 369              	.LVL74:
ARM GAS  C:\Users\haske\AppData\Local\Temp\cc2s3UCZ.s 			page 11


 370 01a4 FFF7FEFF 		bl	myprintf
 371              	.LVL75:
 202:driver_st7789_basic.c ****         (void)st7789_deinit(&gs_handle);
 372              		.loc 1 202 0
 373 01a8 3A48     		ldr	r0, .L55+8
 374 01aa FFF7FEFF 		bl	st7789_deinit
 375              	.LVL76:
 203:driver_st7789_basic.c **** 
 204:driver_st7789_basic.c ****         return 1;
 376              		.loc 1 204 0
 377 01ae 0120     		movs	r0, #1
 378 01b0 96E2     		b	.L3
 379              	.LVL77:
 380              	.L15:
 205:driver_st7789_basic.c ****     }
 206:driver_st7789_basic.c **** 
 207:driver_st7789_basic.c ****     /* set default cabc minimum brightness */
 208:driver_st7789_basic.c ****     res = st7789_set_cabc_minimum_brightness(&gs_handle, ST7789_BASIC_DEFAULT_CABC_MINIMUM_BRIGHTNE
 381              		.loc 1 208 0
 382 01b2 0021     		movs	r1, #0
 383 01b4 3748     		ldr	r0, .L55+8
 384              	.LVL78:
 385 01b6 FFF7FEFF 		bl	st7789_set_cabc_minimum_brightness
 386              	.LVL79:
 209:driver_st7789_basic.c ****     if (res != 0)
 387              		.loc 1 209 0
 388 01ba 38B1     		cbz	r0, .L16
 210:driver_st7789_basic.c ****     {
 211:driver_st7789_basic.c ****         DBG_PRINTF("st7789: set cabc minimum brightness failed.\n");
 389              		.loc 1 211 0
 390 01bc 4E48     		ldr	r0, .L55+108
 391              	.LVL80:
 392 01be FFF7FEFF 		bl	myprintf
 393              	.LVL81:
 212:driver_st7789_basic.c ****         (void)st7789_deinit(&gs_handle);
 394              		.loc 1 212 0
 395 01c2 3448     		ldr	r0, .L55+8
 396 01c4 FFF7FEFF 		bl	st7789_deinit
 397              	.LVL82:
 213:driver_st7789_basic.c **** 
 214:driver_st7789_basic.c ****         return 1;
 398              		.loc 1 214 0
 399 01c8 0120     		movs	r0, #1
 400 01ca 89E2     		b	.L3
 401              	.LVL83:
 402              	.L16:
 215:driver_st7789_basic.c ****     }
 216:driver_st7789_basic.c **** 
 217:driver_st7789_basic.c ****     /* set default ram control */
 218:driver_st7789_basic.c ****     res = st7789_set_ram_control(&gs_handle,
 403              		.loc 1 218 0
 404 01cc 0021     		movs	r1, #0
 405 01ce 0291     		str	r1, [sp, #8]
 406 01d0 0191     		str	r1, [sp, #4]
 407 01d2 0091     		str	r1, [sp]
 408 01d4 0B46     		mov	r3, r1
 409 01d6 0A46     		mov	r2, r1
ARM GAS  C:\Users\haske\AppData\Local\Temp\cc2s3UCZ.s 			page 12


 410 01d8 2E48     		ldr	r0, .L55+8
 411              	.LVL84:
 412 01da FFF7FEFF 		bl	st7789_set_ram_control
 413              	.LVL85:
 219:driver_st7789_basic.c ****                                  ST7789_BASIC_DEFAULT_RAM_ACCESS,
 220:driver_st7789_basic.c ****                                  ST7789_BASIC_DEFAULT_DISPLAY_MODE,
 221:driver_st7789_basic.c ****                                  ST7789_BASIC_DEFAULT_FRAME_TYPE,
 222:driver_st7789_basic.c ****                                  ST7789_BASIC_DEFAULT_DATA_MODE,
 223:driver_st7789_basic.c ****                                  ST7789_BASIC_DEFAULT_RGB_BUS_WIDTH,
 224:driver_st7789_basic.c ****                                  ST7789_BASIC_DEFAULT_PIXEL_TYPE);
 225:driver_st7789_basic.c ****     if (res != 0)
 414              		.loc 1 225 0
 415 01de 38B1     		cbz	r0, .L17
 226:driver_st7789_basic.c ****     {
 227:driver_st7789_basic.c ****         DBG_PRINTF("st7789: set ram control failed.\n");
 416              		.loc 1 227 0
 417 01e0 4648     		ldr	r0, .L55+112
 418              	.LVL86:
 419 01e2 FFF7FEFF 		bl	myprintf
 420              	.LVL87:
 228:driver_st7789_basic.c ****         (void)st7789_deinit(&gs_handle);
 421              		.loc 1 228 0
 422 01e6 2B48     		ldr	r0, .L55+8
 423 01e8 FFF7FEFF 		bl	st7789_deinit
 424              	.LVL88:
 229:driver_st7789_basic.c **** 
 230:driver_st7789_basic.c ****         return 1;
 425              		.loc 1 230 0
 426 01ec 0120     		movs	r0, #1
 427 01ee 77E2     		b	.L3
 428              	.LVL89:
 429              	.L17:
 231:driver_st7789_basic.c ****     }
 232:driver_st7789_basic.c **** 
 233:driver_st7789_basic.c ****     /* set default rgb interface control */
 234:driver_st7789_basic.c ****     res = st7789_set_rgb_interface_control(&gs_handle,
 430              		.loc 1 234 0
 431 01f0 1423     		movs	r3, #20
 432 01f2 0493     		str	r3, [sp, #16]
 433 01f4 0223     		movs	r3, #2
 434 01f6 0393     		str	r3, [sp, #12]
 435 01f8 0021     		movs	r1, #0
 436 01fa 0291     		str	r1, [sp, #8]
 437 01fc 0191     		str	r1, [sp, #4]
 438 01fe 0091     		str	r1, [sp]
 439 0200 0B46     		mov	r3, r1
 440 0202 0A46     		mov	r2, r1
 441 0204 2348     		ldr	r0, .L55+8
 442              	.LVL90:
 443 0206 FFF7FEFF 		bl	st7789_set_rgb_interface_control
 444              	.LVL91:
 235:driver_st7789_basic.c ****                                            ST7789_BASIC_DEFAULT_DIRECT_RGB_MODE,
 236:driver_st7789_basic.c ****                                            ST7789_BASIC_DEFAULT_RGB_IF_ENABLE_MODE,
 237:driver_st7789_basic.c ****                                            ST7789_BASIC_DEFAULT_VSPL,
 238:driver_st7789_basic.c ****                                            ST7789_BASIC_DEFAULT_HSPL,
 239:driver_st7789_basic.c ****                                            ST7789_BASIC_DEFAULT_DPL,
 240:driver_st7789_basic.c ****                                            ST7789_BASIC_DEFAULT_EPL,
ARM GAS  C:\Users\haske\AppData\Local\Temp\cc2s3UCZ.s 			page 13


 241:driver_st7789_basic.c ****                                            ST7789_BASIC_DEFAULT_VBP,
 242:driver_st7789_basic.c ****                                            ST7789_BASIC_DEFAULT_HBP);
 243:driver_st7789_basic.c ****     if (res != 0)
 445              		.loc 1 243 0
 446 020a 38B1     		cbz	r0, .L18
 244:driver_st7789_basic.c ****     {
 245:driver_st7789_basic.c ****         DBG_PRINTF("st7789: set rgb interface control failed.\n");
 447              		.loc 1 245 0
 448 020c 3C48     		ldr	r0, .L55+116
 449              	.LVL92:
 450 020e FFF7FEFF 		bl	myprintf
 451              	.LVL93:
 246:driver_st7789_basic.c ****         (void)st7789_deinit(&gs_handle);
 452              		.loc 1 246 0
 453 0212 2048     		ldr	r0, .L55+8
 454 0214 FFF7FEFF 		bl	st7789_deinit
 455              	.LVL94:
 247:driver_st7789_basic.c **** 
 248:driver_st7789_basic.c ****         return 1;
 456              		.loc 1 248 0
 457 0218 0120     		movs	r0, #1
 458 021a 61E2     		b	.L3
 459              	.LVL95:
 460              	.L18:
 249:driver_st7789_basic.c ****     }
 250:driver_st7789_basic.c **** 
 251:driver_st7789_basic.c ****     /* set default porch */
 252:driver_st7789_basic.c ****     res = st7789_set_porch(&gs_handle,
 461              		.loc 1 252 0
 462 021c 0323     		movs	r3, #3
 463 021e 0393     		str	r3, [sp, #12]
 464 0220 0293     		str	r3, [sp, #8]
 465 0222 0193     		str	r3, [sp, #4]
 466 0224 0093     		str	r3, [sp]
 467 0226 0023     		movs	r3, #0
 468 0228 0C22     		movs	r2, #12
 469 022a 1146     		mov	r1, r2
 470 022c 1948     		ldr	r0, .L55+8
 471              	.LVL96:
 472 022e FFF7FEFF 		bl	st7789_set_porch
 473              	.LVL97:
 253:driver_st7789_basic.c ****                            ST7789_BASIC_DEFAULT_PORCH_NORMAL_BACK,
 254:driver_st7789_basic.c ****                            ST7789_BASIC_DEFAULT_PORCH_NORMAL_FRONT,
 255:driver_st7789_basic.c ****                            ST7789_BASIC_DEFAULT_PORCH_ENABLE,
 256:driver_st7789_basic.c ****                            ST7789_BASIC_DEFAULT_PORCH_IDEL_BACK,
 257:driver_st7789_basic.c ****                            ST7789_BASIC_DEFAULT_PORCH_IDEL_FRONT,
 258:driver_st7789_basic.c ****                            ST7789_BASIC_DEFAULT_PORCH_PART_BACK,
 259:driver_st7789_basic.c ****                            ST7789_BASIC_DEFAULT_PORCH_PART_FRONT);
 260:driver_st7789_basic.c ****     if (res != 0)
 474              		.loc 1 260 0
 475 0232 38B1     		cbz	r0, .L19
 261:driver_st7789_basic.c ****     {
 262:driver_st7789_basic.c ****         DBG_PRINTF("st7789: set porch failed.\n");
 476              		.loc 1 262 0
 477 0234 3348     		ldr	r0, .L55+120
 478              	.LVL98:
 479 0236 FFF7FEFF 		bl	myprintf
ARM GAS  C:\Users\haske\AppData\Local\Temp\cc2s3UCZ.s 			page 14


 480              	.LVL99:
 263:driver_st7789_basic.c ****         (void)st7789_deinit(&gs_handle);
 481              		.loc 1 263 0
 482 023a 1648     		ldr	r0, .L55+8
 483 023c FFF7FEFF 		bl	st7789_deinit
 484              	.LVL100:
 264:driver_st7789_basic.c **** 
 265:driver_st7789_basic.c ****         return 1;
 485              		.loc 1 265 0
 486 0240 0120     		movs	r0, #1
 487 0242 4DE2     		b	.L3
 488              	.LVL101:
 489              	.L19:
 266:driver_st7789_basic.c ****     }
 267:driver_st7789_basic.c **** 
 268:driver_st7789_basic.c ****     /* set default frame rate control */
 269:driver_st7789_basic.c ****     res = st7789_set_frame_rate_control(&gs_handle,
 490              		.loc 1 269 0
 491 0244 0F23     		movs	r3, #15
 492 0246 0293     		str	r3, [sp, #8]
 493 0248 0021     		movs	r1, #0
 494 024a 0191     		str	r1, [sp, #4]
 495 024c 0093     		str	r3, [sp]
 496 024e 0B46     		mov	r3, r1
 497 0250 0A46     		mov	r2, r1
 498 0252 1048     		ldr	r0, .L55+8
 499              	.LVL102:
 500 0254 FFF7FEFF 		bl	st7789_set_frame_rate_control
 501              	.LVL103:
 270:driver_st7789_basic.c ****                                         ST7789_BASIC_DEFAULT_SEPARATE_FR,
 271:driver_st7789_basic.c ****                                         ST7789_BASIC_DEFAULT_FRAME_RATE_DIVIDED,
 272:driver_st7789_basic.c ****                                         ST7789_BASIC_DEFAULT_INVERSION_IDLE_MODE,
 273:driver_st7789_basic.c ****                                         ST7789_BASIC_DEFAULT_IDLE_FRAME_RATE,
 274:driver_st7789_basic.c ****                                         ST7789_BASIC_DEFAULT_INVERSION_PARTIAL_MODE,
 275:driver_st7789_basic.c ****                                         ST7789_BASIC_DEFAULT_IDLE_PARTIAL_RATE);
 276:driver_st7789_basic.c ****     if (res != 0)
 502              		.loc 1 276 0
 503 0258 38B1     		cbz	r0, .L20
 277:driver_st7789_basic.c ****     {
 278:driver_st7789_basic.c ****         DBG_PRINTF("st7789: set frame rate control failed.\n");
 504              		.loc 1 278 0
 505 025a 2B48     		ldr	r0, .L55+124
 506              	.LVL104:
 507 025c FFF7FEFF 		bl	myprintf
 508              	.LVL105:
 279:driver_st7789_basic.c ****         (void)st7789_deinit(&gs_handle);
 509              		.loc 1 279 0
 510 0260 0C48     		ldr	r0, .L55+8
 511 0262 FFF7FEFF 		bl	st7789_deinit
 512              	.LVL106:
 280:driver_st7789_basic.c **** 
 281:driver_st7789_basic.c ****         return 1;
 513              		.loc 1 281 0
 514 0266 0120     		movs	r0, #1
 515 0268 3AE2     		b	.L3
 516              	.LVL107:
 517              	.L20:
ARM GAS  C:\Users\haske\AppData\Local\Temp\cc2s3UCZ.s 			page 15


 282:driver_st7789_basic.c ****     }
 283:driver_st7789_basic.c **** 
 284:driver_st7789_basic.c ****     /* set default partial mode control */
 285:driver_st7789_basic.c ****     res = st7789_set_partial_mode_control(&gs_handle,
 518              		.loc 1 285 0
 519 026a 0023     		movs	r3, #0
 520 026c 1A46     		mov	r2, r3
 521 026e 1946     		mov	r1, r3
 522 0270 0848     		ldr	r0, .L55+8
 523              	.LVL108:
 524 0272 FFF7FEFF 		bl	st7789_set_partial_mode_control
 525              	.LVL109:
 286:driver_st7789_basic.c ****                                           ST7789_BASIC_DEFAULT_NON_DISPLAY_SOURCE_OUTPUT_LEVEL,
 287:driver_st7789_basic.c ****                                           ST7789_BASIC_DEFAULT_NON_DISPLAY_AREA_SCAN_MODE,
 288:driver_st7789_basic.c ****                                           ST7789_BASIC_DEFAULT_NON_DISPLAY_FRAME_FREQUENCY);
 289:driver_st7789_basic.c ****     if (res != 0)
 526              		.loc 1 289 0
 527 0276 0028     		cmp	r0, #0
 528 0278 4AD0     		beq	.L21
 290:driver_st7789_basic.c ****     {
 291:driver_st7789_basic.c ****         DBG_PRINTF("st7789: set partial mode control failed.\n");
 529              		.loc 1 291 0
 530 027a 2448     		ldr	r0, .L55+128
 531              	.LVL110:
 532 027c FFF7FEFF 		bl	myprintf
 533              	.LVL111:
 292:driver_st7789_basic.c ****         (void)st7789_deinit(&gs_handle);
 534              		.loc 1 292 0
 535 0280 0448     		ldr	r0, .L55+8
 536 0282 FFF7FEFF 		bl	st7789_deinit
 537              	.LVL112:
 293:driver_st7789_basic.c **** 
 294:driver_st7789_basic.c ****         return 1;
 538              		.loc 1 294 0
 539 0286 0120     		movs	r0, #1
 540 0288 2AE2     		b	.L3
 541              	.L56:
 542 028a 00BF     		.align	2
 543              	.L55:
 544 028c 00000000 		.word	.LC2
 545 0290 00000000 		.word	.LANCHOR0
 546 0294 00000000 		.word	.LANCHOR1
 547 0298 00000000 		.word	st7789_interface_spi_init
 548 029c 00000000 		.word	st7789_interface_spi_deinit
 549 02a0 00000000 		.word	st7789_interface_spi_write_cmd
 550 02a4 00000000 		.word	st7789_interface_cmd_data_gpio_init
 551 02a8 00000000 		.word	st7789_interface_cmd_data_gpio_deinit
 552 02ac 00000000 		.word	st7789_interface_cmd_data_gpio_write
 553 02b0 00000000 		.word	st7789_interface_reset_gpio_init
 554 02b4 00000000 		.word	st7789_interface_reset_gpio_deinit
 555 02b8 00000000 		.word	st7789_interface_reset_gpio_write
 556 02bc 00000000 		.word	st7789_interface_delay_ms
 557 02c0 00000000 		.word	st7789_interface_debug_print
 558 02c4 10000000 		.word	.LC3
 559 02c8 28000000 		.word	.LC4
 560 02cc 44000000 		.word	.LC5
 561 02d0 60000000 		.word	.LC6
ARM GAS  C:\Users\haske\AppData\Local\Temp\cc2s3UCZ.s 			page 16


 562 02d4 7C000000 		.word	.LC7
 563 02d8 9C000000 		.word	.LC8
 564 02dc C4000000 		.word	.LC9
 565 02e0 EC000000 		.word	.LC10
 566 02e4 08010000 		.word	.LC11
 567 02e8 38010000 		.word	.LC12
 568 02ec 64010000 		.word	.LC13
 569 02f0 8C010000 		.word	.LC14
 570 02f4 B4010000 		.word	.LC15
 571 02f8 F4010000 		.word	.LC16
 572 02fc 24020000 		.word	.LC17
 573 0300 48020000 		.word	.LC18
 574 0304 74020000 		.word	.LC19
 575 0308 90020000 		.word	.LC20
 576 030c B8020000 		.word	.LC21
 577              	.LVL113:
 578              	.L21:
 295:driver_st7789_basic.c ****     }
 296:driver_st7789_basic.c **** 
 297:driver_st7789_basic.c ****     /* set default gate control */
 298:driver_st7789_basic.c ****     res = st7789_set_gate_control(&gs_handle, ST7789_BASIC_DEFAULT_VGHS, ST7789_BASIC_DEFAULT_VGLS_
 579              		.loc 1 298 0
 580 0310 0222     		movs	r2, #2
 581 0312 0721     		movs	r1, #7
 582 0314 A048     		ldr	r0, .L57
 583              	.LVL114:
 584 0316 FFF7FEFF 		bl	st7789_set_gate_control
 585              	.LVL115:
 299:driver_st7789_basic.c ****     if (res != 0)
 586              		.loc 1 299 0
 587 031a 38B1     		cbz	r0, .L22
 300:driver_st7789_basic.c ****     {
 301:driver_st7789_basic.c ****         DBG_PRINTF("st7789: set gate control failed.\n");
 588              		.loc 1 301 0
 589 031c 9F48     		ldr	r0, .L57+4
 590              	.LVL116:
 591 031e FFF7FEFF 		bl	myprintf
 592              	.LVL117:
 302:driver_st7789_basic.c ****         (void)st7789_deinit(&gs_handle);
 593              		.loc 1 302 0
 594 0322 9D48     		ldr	r0, .L57
 595 0324 FFF7FEFF 		bl	st7789_deinit
 596              	.LVL118:
 303:driver_st7789_basic.c **** 
 304:driver_st7789_basic.c ****         return 1;
 597              		.loc 1 304 0
 598 0328 0120     		movs	r0, #1
 599 032a D9E1     		b	.L3
 600              	.LVL119:
 601              	.L22:
 305:driver_st7789_basic.c ****     }
 306:driver_st7789_basic.c **** 
 307:driver_st7789_basic.c ****     /* set default gate on timing adjustment */
 308:driver_st7789_basic.c ****     res = st7789_set_gate_on_timing_adjustment(&gs_handle,
 602              		.loc 1 308 0
 603 032c 0523     		movs	r3, #5
 604 032e 0722     		movs	r2, #7
ARM GAS  C:\Users\haske\AppData\Local\Temp\cc2s3UCZ.s 			page 17


 605 0330 2221     		movs	r1, #34
 606 0332 9948     		ldr	r0, .L57
 607              	.LVL120:
 608 0334 FFF7FEFF 		bl	st7789_set_gate_on_timing_adjustment
 609              	.LVL121:
 309:driver_st7789_basic.c ****                                                ST7789_BASIC_DEFAULT_GATE_ON_TIMING,
 310:driver_st7789_basic.c ****                                                ST7789_BASIC_DEFAULT_GATE_OFF_TIMING_RGB,
 311:driver_st7789_basic.c ****                                                ST7789_BASIC_DEFAULT_GATE_OFF_TIMING);
 312:driver_st7789_basic.c ****     if (res != 0)
 610              		.loc 1 312 0
 611 0338 38B1     		cbz	r0, .L23
 313:driver_st7789_basic.c ****     {
 314:driver_st7789_basic.c ****         DBG_PRINTF("st7789: set gate on timing adjustment failed.\n");
 612              		.loc 1 314 0
 613 033a 9948     		ldr	r0, .L57+8
 614              	.LVL122:
 615 033c FFF7FEFF 		bl	myprintf
 616              	.LVL123:
 315:driver_st7789_basic.c ****         (void)st7789_deinit(&gs_handle);
 617              		.loc 1 315 0
 618 0340 9548     		ldr	r0, .L57
 619 0342 FFF7FEFF 		bl	st7789_deinit
 620              	.LVL124:
 316:driver_st7789_basic.c **** 
 317:driver_st7789_basic.c ****         return 1;
 621              		.loc 1 317 0
 622 0346 0120     		movs	r0, #1
 623 0348 CAE1     		b	.L3
 624              	.LVL125:
 625              	.L23:
 318:driver_st7789_basic.c ****     }
 319:driver_st7789_basic.c **** 
 320:driver_st7789_basic.c ****     /* set default digital gamma */
 321:driver_st7789_basic.c ****     res = st7789_set_digital_gamma(&gs_handle, ST7789_BASIC_DEFAULT_DIGITAL_GAMMA);
 626              		.loc 1 321 0
 627 034a 0121     		movs	r1, #1
 628 034c 9248     		ldr	r0, .L57
 629              	.LVL126:
 630 034e FFF7FEFF 		bl	st7789_set_digital_gamma
 631              	.LVL127:
 322:driver_st7789_basic.c ****     if (res != 0)
 632              		.loc 1 322 0
 633 0352 38B1     		cbz	r0, .L24
 323:driver_st7789_basic.c ****     {
 324:driver_st7789_basic.c ****         DBG_PRINTF("st7789: set digital gamma failed.\n");
 634              		.loc 1 324 0
 635 0354 9348     		ldr	r0, .L57+12
 636              	.LVL128:
 637 0356 FFF7FEFF 		bl	myprintf
 638              	.LVL129:
 325:driver_st7789_basic.c ****         (void)st7789_deinit(&gs_handle);
 639              		.loc 1 325 0
 640 035a 8F48     		ldr	r0, .L57
 641 035c FFF7FEFF 		bl	st7789_deinit
 642              	.LVL130:
 326:driver_st7789_basic.c **** 
 327:driver_st7789_basic.c ****         return 1;
ARM GAS  C:\Users\haske\AppData\Local\Temp\cc2s3UCZ.s 			page 18


 643              		.loc 1 327 0
 644 0360 0120     		movs	r0, #1
 645 0362 BDE1     		b	.L3
 646              	.LVL131:
 647              	.L24:
 328:driver_st7789_basic.c ****     }
 329:driver_st7789_basic.c **** 
 330:driver_st7789_basic.c ****     /* vcom convert to register  */
 331:driver_st7789_basic.c ****     res = st7789_vcom_convert_to_register(&gs_handle, ST7789_BASIC_DEFAULT_VCOMS, &reg);
 648              		.loc 1 331 0
 649 0364 0DF17702 		add	r2, sp, #119
 650 0368 8F49     		ldr	r1, .L57+16
 651 036a 8B48     		ldr	r0, .L57
 652              	.LVL132:
 653 036c FFF7FEFF 		bl	st7789_vcom_convert_to_register
 654              	.LVL133:
 332:driver_st7789_basic.c ****     if (res != 0)
 655              		.loc 1 332 0
 656 0370 38B1     		cbz	r0, .L25
 333:driver_st7789_basic.c ****     {
 334:driver_st7789_basic.c ****         DBG_PRINTF("st7789: vcom convert to register failed.\n");
 657              		.loc 1 334 0
 658 0372 8E48     		ldr	r0, .L57+20
 659              	.LVL134:
 660 0374 FFF7FEFF 		bl	myprintf
 661              	.LVL135:
 335:driver_st7789_basic.c ****         (void)st7789_deinit(&gs_handle);
 662              		.loc 1 335 0
 663 0378 8748     		ldr	r0, .L57
 664 037a FFF7FEFF 		bl	st7789_deinit
 665              	.LVL136:
 336:driver_st7789_basic.c **** 
 337:driver_st7789_basic.c ****         return 1;
 666              		.loc 1 337 0
 667 037e 0120     		movs	r0, #1
 668 0380 AEE1     		b	.L3
 669              	.LVL137:
 670              	.L25:
 338:driver_st7789_basic.c ****     }
 339:driver_st7789_basic.c **** 
 340:driver_st7789_basic.c ****     /* set default vcoms */
 341:driver_st7789_basic.c ****     res = st7789_set_vcoms(&gs_handle, reg);
 671              		.loc 1 341 0
 672 0382 9DF87710 		ldrb	r1, [sp, #119]	@ zero_extendqisi2
 673 0386 8448     		ldr	r0, .L57
 674              	.LVL138:
 675 0388 FFF7FEFF 		bl	st7789_set_vcoms
 676              	.LVL139:
 342:driver_st7789_basic.c ****     if (res != 0)
 677              		.loc 1 342 0
 678 038c 38B1     		cbz	r0, .L26
 343:driver_st7789_basic.c ****     {
 344:driver_st7789_basic.c ****         DBG_PRINTF("st7789: set vcoms failed.\n");
 679              		.loc 1 344 0
 680 038e 8848     		ldr	r0, .L57+24
 681              	.LVL140:
 682 0390 FFF7FEFF 		bl	myprintf
ARM GAS  C:\Users\haske\AppData\Local\Temp\cc2s3UCZ.s 			page 19


 683              	.LVL141:
 345:driver_st7789_basic.c ****         (void)st7789_deinit(&gs_handle);
 684              		.loc 1 345 0
 685 0394 8048     		ldr	r0, .L57
 686 0396 FFF7FEFF 		bl	st7789_deinit
 687              	.LVL142:
 346:driver_st7789_basic.c **** 
 347:driver_st7789_basic.c ****         return 1;
 688              		.loc 1 347 0
 689 039a 0120     		movs	r0, #1
 690 039c A0E1     		b	.L3
 691              	.LVL143:
 692              	.L26:
 348:driver_st7789_basic.c ****     }
 349:driver_st7789_basic.c **** 
 350:driver_st7789_basic.c ****     /* set default lcm control */
 351:driver_st7789_basic.c ****     res = st7789_set_lcm_control(&gs_handle,
 693              		.loc 1 351 0
 694 039e 0021     		movs	r1, #0
 695 03a0 0391     		str	r1, [sp, #12]
 696 03a2 0291     		str	r1, [sp, #8]
 697 03a4 0122     		movs	r2, #1
 698 03a6 0192     		str	r2, [sp, #4]
 699 03a8 0092     		str	r2, [sp]
 700 03aa 0B46     		mov	r3, r1
 701 03ac 7A48     		ldr	r0, .L57
 702              	.LVL144:
 703 03ae FFF7FEFF 		bl	st7789_set_lcm_control
 704              	.LVL145:
 352:driver_st7789_basic.c ****                                  ST7789_BASIC_DEFAULT_XMY,
 353:driver_st7789_basic.c ****                                  ST7789_BASIC_DEFAULT_XBGR,
 354:driver_st7789_basic.c ****                                  ST7789_BASIC_DEFAULT_XINV,
 355:driver_st7789_basic.c ****                                  ST7789_BASIC_DEFAULT_XMX,
 356:driver_st7789_basic.c ****                                  ST7789_BASIC_DEFAULT_XMH,
 357:driver_st7789_basic.c ****                                  ST7789_BASIC_DEFAULT_XMV,
 358:driver_st7789_basic.c ****                                  ST7789_BASIC_DEFAULT_XGS);
 359:driver_st7789_basic.c ****     if (res != 0)
 705              		.loc 1 359 0
 706 03b2 38B1     		cbz	r0, .L27
 360:driver_st7789_basic.c ****     {
 361:driver_st7789_basic.c ****         DBG_PRINTF("st7789: set lcm control failed.\n");
 707              		.loc 1 361 0
 708 03b4 7F48     		ldr	r0, .L57+28
 709              	.LVL146:
 710 03b6 FFF7FEFF 		bl	myprintf
 711              	.LVL147:
 362:driver_st7789_basic.c ****         (void)st7789_deinit(&gs_handle);
 712              		.loc 1 362 0
 713 03ba 7748     		ldr	r0, .L57
 714 03bc FFF7FEFF 		bl	st7789_deinit
 715              	.LVL148:
 363:driver_st7789_basic.c **** 
 364:driver_st7789_basic.c ****         return 1;
 716              		.loc 1 364 0
 717 03c0 0120     		movs	r0, #1
 718 03c2 8DE1     		b	.L3
 719              	.LVL149:
ARM GAS  C:\Users\haske\AppData\Local\Temp\cc2s3UCZ.s 			page 20


 720              	.L27:
 365:driver_st7789_basic.c ****     }
 366:driver_st7789_basic.c **** 
 367:driver_st7789_basic.c ****     /* set default vdv vrh cmd */
 368:driver_st7789_basic.c ****     res = st7789_set_vdv_vrh_from(&gs_handle, ST7789_BASIC_DEFAULT_VDV_VRH_FROM);
 721              		.loc 1 368 0
 722 03c4 0121     		movs	r1, #1
 723 03c6 7448     		ldr	r0, .L57
 724              	.LVL150:
 725 03c8 FFF7FEFF 		bl	st7789_set_vdv_vrh_from
 726              	.LVL151:
 369:driver_st7789_basic.c ****     if (res != 0)
 727              		.loc 1 369 0
 728 03cc 38B1     		cbz	r0, .L28
 370:driver_st7789_basic.c ****     {
 371:driver_st7789_basic.c ****         DBG_PRINTF("st7789: set vdv vrh from failed.\n");
 729              		.loc 1 371 0
 730 03ce 7A48     		ldr	r0, .L57+32
 731              	.LVL152:
 732 03d0 FFF7FEFF 		bl	myprintf
 733              	.LVL153:
 372:driver_st7789_basic.c ****         (void)st7789_deinit(&gs_handle);
 734              		.loc 1 372 0
 735 03d4 7048     		ldr	r0, .L57
 736 03d6 FFF7FEFF 		bl	st7789_deinit
 737              	.LVL154:
 373:driver_st7789_basic.c **** 
 374:driver_st7789_basic.c ****         return 1;
 738              		.loc 1 374 0
 739 03da 0120     		movs	r0, #1
 740 03dc 80E1     		b	.L3
 741              	.LVL155:
 742              	.L28:
 375:driver_st7789_basic.c ****     }
 376:driver_st7789_basic.c **** 
 377:driver_st7789_basic.c ****     /* vrhs convert to register */
 378:driver_st7789_basic.c ****     res = st7789_vrhs_convert_to_register(&gs_handle, ST7789_BASIC_DEFAULT_VRHS, &reg);
 743              		.loc 1 378 0
 744 03de 0DF17702 		add	r2, sp, #119
 745 03e2 7649     		ldr	r1, .L57+36
 746 03e4 6C48     		ldr	r0, .L57
 747              	.LVL156:
 748 03e6 FFF7FEFF 		bl	st7789_vrhs_convert_to_register
 749              	.LVL157:
 379:driver_st7789_basic.c ****     if (res != 0)
 750              		.loc 1 379 0
 751 03ea 38B1     		cbz	r0, .L29
 380:driver_st7789_basic.c ****     {
 381:driver_st7789_basic.c ****         DBG_PRINTF("st7789: vrhs convert to register failed.\n");
 752              		.loc 1 381 0
 753 03ec 7448     		ldr	r0, .L57+40
 754              	.LVL158:
 755 03ee FFF7FEFF 		bl	myprintf
 756              	.LVL159:
 382:driver_st7789_basic.c ****         (void)st7789_deinit(&gs_handle);
 757              		.loc 1 382 0
 758 03f2 6948     		ldr	r0, .L57
ARM GAS  C:\Users\haske\AppData\Local\Temp\cc2s3UCZ.s 			page 21


 759 03f4 FFF7FEFF 		bl	st7789_deinit
 760              	.LVL160:
 383:driver_st7789_basic.c **** 
 384:driver_st7789_basic.c ****         return 1;
 761              		.loc 1 384 0
 762 03f8 0120     		movs	r0, #1
 763 03fa 71E1     		b	.L3
 764              	.LVL161:
 765              	.L29:
 385:driver_st7789_basic.c ****     }
 386:driver_st7789_basic.c **** 
 387:driver_st7789_basic.c ****     /* set default vrhs */
 388:driver_st7789_basic.c ****     res = st7789_set_vrhs(&gs_handle, reg);
 766              		.loc 1 388 0
 767 03fc 9DF87710 		ldrb	r1, [sp, #119]	@ zero_extendqisi2
 768 0400 6548     		ldr	r0, .L57
 769              	.LVL162:
 770 0402 FFF7FEFF 		bl	st7789_set_vrhs
 771              	.LVL163:
 389:driver_st7789_basic.c ****     if (res != 0)
 772              		.loc 1 389 0
 773 0406 38B1     		cbz	r0, .L30
 390:driver_st7789_basic.c ****     {
 391:driver_st7789_basic.c ****         DBG_PRINTF("st7789: set vrhs failed.\n");
 774              		.loc 1 391 0
 775 0408 6E48     		ldr	r0, .L57+44
 776              	.LVL164:
 777 040a FFF7FEFF 		bl	myprintf
 778              	.LVL165:
 392:driver_st7789_basic.c ****         (void)st7789_deinit(&gs_handle);
 779              		.loc 1 392 0
 780 040e 6248     		ldr	r0, .L57
 781 0410 FFF7FEFF 		bl	st7789_deinit
 782              	.LVL166:
 393:driver_st7789_basic.c **** 
 394:driver_st7789_basic.c ****         return 1;
 783              		.loc 1 394 0
 784 0414 0120     		movs	r0, #1
 785 0416 63E1     		b	.L3
 786              	.LVL167:
 787              	.L30:
 395:driver_st7789_basic.c ****     }
 396:driver_st7789_basic.c **** 
 397:driver_st7789_basic.c ****     /* vdv convert to register */
 398:driver_st7789_basic.c ****     res = st7789_vdv_convert_to_register(&gs_handle, ST7789_BASIC_DEFAULT_VDV, &reg);
 788              		.loc 1 398 0
 789 0418 0DF17702 		add	r2, sp, #119
 790 041c 0021     		movs	r1, #0
 791 041e 5E48     		ldr	r0, .L57
 792              	.LVL168:
 793 0420 FFF7FEFF 		bl	st7789_vdv_convert_to_register
 794              	.LVL169:
 399:driver_st7789_basic.c ****     if (res != 0)
 795              		.loc 1 399 0
 796 0424 38B1     		cbz	r0, .L31
 400:driver_st7789_basic.c ****     {
 401:driver_st7789_basic.c ****         DBG_PRINTF("st7789: vdv convert to register failed.\n");
ARM GAS  C:\Users\haske\AppData\Local\Temp\cc2s3UCZ.s 			page 22


 797              		.loc 1 401 0
 798 0426 6848     		ldr	r0, .L57+48
 799              	.LVL170:
 800 0428 FFF7FEFF 		bl	myprintf
 801              	.LVL171:
 402:driver_st7789_basic.c ****         (void)st7789_deinit(&gs_handle);
 802              		.loc 1 402 0
 803 042c 5A48     		ldr	r0, .L57
 804 042e FFF7FEFF 		bl	st7789_deinit
 805              	.LVL172:
 403:driver_st7789_basic.c **** 
 404:driver_st7789_basic.c ****         return 1;
 806              		.loc 1 404 0
 807 0432 0120     		movs	r0, #1
 808 0434 54E1     		b	.L3
 809              	.LVL173:
 810              	.L31:
 405:driver_st7789_basic.c ****     }
 406:driver_st7789_basic.c **** 
 407:driver_st7789_basic.c ****     /* set default vdv */
 408:driver_st7789_basic.c ****     res = st7789_set_vdv(&gs_handle, reg);
 811              		.loc 1 408 0
 812 0436 9DF87710 		ldrb	r1, [sp, #119]	@ zero_extendqisi2
 813 043a 5748     		ldr	r0, .L57
 814              	.LVL174:
 815 043c FFF7FEFF 		bl	st7789_set_vdv
 816              	.LVL175:
 409:driver_st7789_basic.c ****     if (res != 0)
 817              		.loc 1 409 0
 818 0440 38B1     		cbz	r0, .L32
 410:driver_st7789_basic.c ****     {
 411:driver_st7789_basic.c ****         DBG_PRINTF("st7789: set vdv failed.\n");
 819              		.loc 1 411 0
 820 0442 6248     		ldr	r0, .L57+52
 821              	.LVL176:
 822 0444 FFF7FEFF 		bl	myprintf
 823              	.LVL177:
 412:driver_st7789_basic.c ****         (void)st7789_deinit(&gs_handle);
 824              		.loc 1 412 0
 825 0448 5348     		ldr	r0, .L57
 826 044a FFF7FEFF 		bl	st7789_deinit
 827              	.LVL178:
 413:driver_st7789_basic.c **** 
 414:driver_st7789_basic.c ****         return 1;
 828              		.loc 1 414 0
 829 044e 0120     		movs	r0, #1
 830 0450 46E1     		b	.L3
 831              	.LVL179:
 832              	.L32:
 415:driver_st7789_basic.c ****     }
 416:driver_st7789_basic.c **** 
 417:driver_st7789_basic.c ****     /* vcoms offset convert to register */
 418:driver_st7789_basic.c ****     res = st7789_vcoms_offset_convert_to_register(&gs_handle, ST7789_BASIC_DEFAULT_VCOMS_OFFSET, &r
 833              		.loc 1 418 0
 834 0452 0DF17702 		add	r2, sp, #119
 835 0456 0021     		movs	r1, #0
 836 0458 4F48     		ldr	r0, .L57
ARM GAS  C:\Users\haske\AppData\Local\Temp\cc2s3UCZ.s 			page 23


 837              	.LVL180:
 838 045a FFF7FEFF 		bl	st7789_vcoms_offset_convert_to_register
 839              	.LVL181:
 419:driver_st7789_basic.c ****     if (res != 0)
 840              		.loc 1 419 0
 841 045e 38B1     		cbz	r0, .L33
 420:driver_st7789_basic.c ****     {
 421:driver_st7789_basic.c ****         DBG_PRINTF("st7789: vcoms offset convert to register failed.\n");
 842              		.loc 1 421 0
 843 0460 5B48     		ldr	r0, .L57+56
 844              	.LVL182:
 845 0462 FFF7FEFF 		bl	myprintf
 846              	.LVL183:
 422:driver_st7789_basic.c ****         (void)st7789_deinit(&gs_handle);
 847              		.loc 1 422 0
 848 0466 4C48     		ldr	r0, .L57
 849 0468 FFF7FEFF 		bl	st7789_deinit
 850              	.LVL184:
 423:driver_st7789_basic.c **** 
 424:driver_st7789_basic.c ****         return 1;
 851              		.loc 1 424 0
 852 046c 0120     		movs	r0, #1
 853 046e 37E1     		b	.L3
 854              	.LVL185:
 855              	.L33:
 425:driver_st7789_basic.c ****     }
 426:driver_st7789_basic.c **** 
 427:driver_st7789_basic.c ****     /* set default vcoms offset */
 428:driver_st7789_basic.c ****     res = st7789_set_vcoms_offset(&gs_handle, reg);
 856              		.loc 1 428 0
 857 0470 9DF87710 		ldrb	r1, [sp, #119]	@ zero_extendqisi2
 858 0474 4848     		ldr	r0, .L57
 859              	.LVL186:
 860 0476 FFF7FEFF 		bl	st7789_set_vcoms_offset
 861              	.LVL187:
 429:driver_st7789_basic.c ****     if (res != 0)
 862              		.loc 1 429 0
 863 047a 38B1     		cbz	r0, .L34
 430:driver_st7789_basic.c ****     {
 431:driver_st7789_basic.c ****         DBG_PRINTF("st7789: set vcoms offset failed.\n");
 864              		.loc 1 431 0
 865 047c 5548     		ldr	r0, .L57+60
 866              	.LVL188:
 867 047e FFF7FEFF 		bl	myprintf
 868              	.LVL189:
 432:driver_st7789_basic.c ****         (void)st7789_deinit(&gs_handle);
 869              		.loc 1 432 0
 870 0482 4548     		ldr	r0, .L57
 871 0484 FFF7FEFF 		bl	st7789_deinit
 872              	.LVL190:
 433:driver_st7789_basic.c **** 
 434:driver_st7789_basic.c ****         return 1;
 873              		.loc 1 434 0
 874 0488 0120     		movs	r0, #1
 875 048a 29E1     		b	.L3
 876              	.LVL191:
 877              	.L34:
ARM GAS  C:\Users\haske\AppData\Local\Temp\cc2s3UCZ.s 			page 24


 435:driver_st7789_basic.c ****     }
 436:driver_st7789_basic.c **** 
 437:driver_st7789_basic.c ****     /* set default frame rate */
 438:driver_st7789_basic.c ****     res = st7789_set_frame_rate(&gs_handle, ST7789_BASIC_DEFAULT_INVERSION_SELECTION, ST7789_BASIC_
 878              		.loc 1 438 0
 879 048c 0F22     		movs	r2, #15
 880 048e 0021     		movs	r1, #0
 881 0490 4148     		ldr	r0, .L57
 882              	.LVL192:
 883 0492 FFF7FEFF 		bl	st7789_set_frame_rate
 884              	.LVL193:
 439:driver_st7789_basic.c ****     if (res != 0)
 885              		.loc 1 439 0
 886 0496 38B1     		cbz	r0, .L35
 440:driver_st7789_basic.c ****     {
 441:driver_st7789_basic.c ****         DBG_PRINTF("st7789: set frame rate failed.\n");
 887              		.loc 1 441 0
 888 0498 4F48     		ldr	r0, .L57+64
 889              	.LVL194:
 890 049a FFF7FEFF 		bl	myprintf
 891              	.LVL195:
 442:driver_st7789_basic.c ****         (void)st7789_deinit(&gs_handle);
 892              		.loc 1 442 0
 893 049e 3E48     		ldr	r0, .L57
 894 04a0 FFF7FEFF 		bl	st7789_deinit
 895              	.LVL196:
 443:driver_st7789_basic.c **** 
 444:driver_st7789_basic.c ****         return 1;
 896              		.loc 1 444 0
 897 04a4 0120     		movs	r0, #1
 898 04a6 1BE1     		b	.L3
 899              	.LVL197:
 900              	.L35:
 445:driver_st7789_basic.c ****     }
 446:driver_st7789_basic.c **** 
 447:driver_st7789_basic.c ****     /* set default cabc control */
 448:driver_st7789_basic.c ****     res = st7789_set_cabc_control(&gs_handle,
 901              		.loc 1 448 0
 902 04a8 0021     		movs	r1, #0
 903 04aa 0091     		str	r1, [sp]
 904 04ac 0B46     		mov	r3, r1
 905 04ae 0A46     		mov	r2, r1
 906 04b0 3948     		ldr	r0, .L57
 907              	.LVL198:
 908 04b2 FFF7FEFF 		bl	st7789_set_cabc_control
 909              	.LVL199:
 449:driver_st7789_basic.c ****                                   ST7789_BASIC_DEFAULT_LED_ON,
 450:driver_st7789_basic.c ****                                   ST7789_BASIC_DEFAULT_LED_PWM_INIT,
 451:driver_st7789_basic.c ****                                   ST7789_BASIC_DEFAULT_LED_PWM_FIX,
 452:driver_st7789_basic.c ****                                   ST7789_BASIC_DEFAULT_LED_PWM_POLARITY);
 453:driver_st7789_basic.c ****     if (res != 0)
 910              		.loc 1 453 0
 911 04b6 38B1     		cbz	r0, .L36
 454:driver_st7789_basic.c ****     {
 455:driver_st7789_basic.c ****         DBG_PRINTF("st7789: set cabc control failed.\n");
 912              		.loc 1 455 0
 913 04b8 4848     		ldr	r0, .L57+68
ARM GAS  C:\Users\haske\AppData\Local\Temp\cc2s3UCZ.s 			page 25


 914              	.LVL200:
 915 04ba FFF7FEFF 		bl	myprintf
 916              	.LVL201:
 456:driver_st7789_basic.c ****         (void)st7789_deinit(&gs_handle);
 917              		.loc 1 456 0
 918 04be 3648     		ldr	r0, .L57
 919 04c0 FFF7FEFF 		bl	st7789_deinit
 920              	.LVL202:
 457:driver_st7789_basic.c **** 
 458:driver_st7789_basic.c ****         return 1;
 921              		.loc 1 458 0
 922 04c4 0120     		movs	r0, #1
 923 04c6 0BE1     		b	.L3
 924              	.LVL203:
 925              	.L36:
 459:driver_st7789_basic.c ****     }
 460:driver_st7789_basic.c **** 
 461:driver_st7789_basic.c ****     /* set default pwm frequency */
 462:driver_st7789_basic.c ****     res = st7789_set_pwm_frequency(&gs_handle, ST7789_BASIC_DEFAULT_PWM_FREQUENCY);
 926              		.loc 1 462 0
 927 04c8 0221     		movs	r1, #2
 928 04ca 3348     		ldr	r0, .L57
 929              	.LVL204:
 930 04cc FFF7FEFF 		bl	st7789_set_pwm_frequency
 931              	.LVL205:
 463:driver_st7789_basic.c ****     if (res != 0)
 932              		.loc 1 463 0
 933 04d0 38B1     		cbz	r0, .L37
 464:driver_st7789_basic.c ****     {
 465:driver_st7789_basic.c ****         DBG_PRINTF("st7789: set pwm frequency failed.\n");
 934              		.loc 1 465 0
 935 04d2 4348     		ldr	r0, .L57+72
 936              	.LVL206:
 937 04d4 FFF7FEFF 		bl	myprintf
 938              	.LVL207:
 466:driver_st7789_basic.c ****         (void)st7789_deinit(&gs_handle);
 939              		.loc 1 466 0
 940 04d8 2F48     		ldr	r0, .L57
 941 04da FFF7FEFF 		bl	st7789_deinit
 942              	.LVL208:
 467:driver_st7789_basic.c **** 
 468:driver_st7789_basic.c ****         return 1;
 943              		.loc 1 468 0
 944 04de 0120     		movs	r0, #1
 945 04e0 FEE0     		b	.L3
 946              	.LVL209:
 947              	.L37:
 469:driver_st7789_basic.c ****     }
 470:driver_st7789_basic.c **** 
 471:driver_st7789_basic.c ****     /* set default power control 1 */
 472:driver_st7789_basic.c ****     res = st7789_set_power_control_1(&gs_handle,
 948              		.loc 1 472 0
 949 04e2 0123     		movs	r3, #1
 950 04e4 0222     		movs	r2, #2
 951 04e6 1146     		mov	r1, r2
 952 04e8 2B48     		ldr	r0, .L57
 953              	.LVL210:
ARM GAS  C:\Users\haske\AppData\Local\Temp\cc2s3UCZ.s 			page 26


 954 04ea FFF7FEFF 		bl	st7789_set_power_control_1
 955              	.LVL211:
 473:driver_st7789_basic.c ****                                      ST7789_BASIC_DEFAULT_AVDD,
 474:driver_st7789_basic.c ****                                      ST7789_BASIC_DEFAULT_AVCL_NEGTIVE,
 475:driver_st7789_basic.c ****                                      ST7789_BASIC_DEFAULT_VDS);
 476:driver_st7789_basic.c ****     if (res != 0)
 956              		.loc 1 476 0
 957 04ee 38B1     		cbz	r0, .L38
 477:driver_st7789_basic.c ****     {
 478:driver_st7789_basic.c ****         DBG_PRINTF("st7789: set power control 1 failed.\n");
 958              		.loc 1 478 0
 959 04f0 3C48     		ldr	r0, .L57+76
 960              	.LVL212:
 961 04f2 FFF7FEFF 		bl	myprintf
 962              	.LVL213:
 479:driver_st7789_basic.c ****         (void)st7789_deinit(&gs_handle);
 963              		.loc 1 479 0
 964 04f6 2848     		ldr	r0, .L57
 965 04f8 FFF7FEFF 		bl	st7789_deinit
 966              	.LVL214:
 480:driver_st7789_basic.c **** 
 481:driver_st7789_basic.c ****         return 1;
 967              		.loc 1 481 0
 968 04fc 0120     		movs	r0, #1
 969 04fe EFE0     		b	.L3
 970              	.LVL215:
 971              	.L38:
 482:driver_st7789_basic.c ****     }
 483:driver_st7789_basic.c **** 
 484:driver_st7789_basic.c ****     /* set default command 2 */
 485:driver_st7789_basic.c ****     res = st7789_set_command_2_enable(&gs_handle, ST7789_BASIC_DEFAULT_COMMAND_2_ENABLE);
 972              		.loc 1 485 0
 973 0500 0021     		movs	r1, #0
 974 0502 2548     		ldr	r0, .L57
 975              	.LVL216:
 976 0504 FFF7FEFF 		bl	st7789_set_command_2_enable
 977              	.LVL217:
 486:driver_st7789_basic.c ****     if (res != 0)
 978              		.loc 1 486 0
 979 0508 38B1     		cbz	r0, .L39
 487:driver_st7789_basic.c ****     {
 488:driver_st7789_basic.c ****         DBG_PRINTF("st7789: set command 2 enable failed.\n");
 980              		.loc 1 488 0
 981 050a 3748     		ldr	r0, .L57+80
 982              	.LVL218:
 983 050c FFF7FEFF 		bl	myprintf
 984              	.LVL219:
 489:driver_st7789_basic.c ****         (void)st7789_deinit(&gs_handle);
 985              		.loc 1 489 0
 986 0510 2148     		ldr	r0, .L57
 987 0512 FFF7FEFF 		bl	st7789_deinit
 988              	.LVL220:
 490:driver_st7789_basic.c **** 
 491:driver_st7789_basic.c ****         return 1;
 989              		.loc 1 491 0
 990 0516 0120     		movs	r0, #1
 991 0518 E2E0     		b	.L3
ARM GAS  C:\Users\haske\AppData\Local\Temp\cc2s3UCZ.s 			page 27


 992              	.LVL221:
 993              	.L39:
 492:driver_st7789_basic.c ****     }
 493:driver_st7789_basic.c **** 
 494:driver_st7789_basic.c ****     /* set default positive voltage gamma control */
 495:driver_st7789_basic.c ****     res = st7789_set_positive_voltage_gamma_control(&gs_handle, param_positive);
 994              		.loc 1 495 0
 995 051a 1AA9     		add	r1, sp, #104
 996 051c 1E48     		ldr	r0, .L57
 997              	.LVL222:
 998 051e FFF7FEFF 		bl	st7789_set_positive_voltage_gamma_control
 999              	.LVL223:
 496:driver_st7789_basic.c ****     if (res != 0)
 1000              		.loc 1 496 0
 1001 0522 38B1     		cbz	r0, .L40
 497:driver_st7789_basic.c ****     {
 498:driver_st7789_basic.c ****         DBG_PRINTF("st7789: set positive voltage gamma control failed.\n");
 1002              		.loc 1 498 0
 1003 0524 3148     		ldr	r0, .L57+84
 1004              	.LVL224:
 1005 0526 FFF7FEFF 		bl	myprintf
 1006              	.LVL225:
 499:driver_st7789_basic.c ****         (void)st7789_deinit(&gs_handle);
 1007              		.loc 1 499 0
 1008 052a 1B48     		ldr	r0, .L57
 1009 052c FFF7FEFF 		bl	st7789_deinit
 1010              	.LVL226:
 500:driver_st7789_basic.c **** 
 501:driver_st7789_basic.c ****         return 1;
 1011              		.loc 1 501 0
 1012 0530 0120     		movs	r0, #1
 1013 0532 D5E0     		b	.L3
 1014              	.LVL227:
 1015              	.L40:
 502:driver_st7789_basic.c ****     }
 503:driver_st7789_basic.c **** 
 504:driver_st7789_basic.c ****     /* set default negative voltage gamma control */
 505:driver_st7789_basic.c ****     res = st7789_set_negative_voltage_gamma_control(&gs_handle, param_negative);
 1016              		.loc 1 505 0
 1017 0534 16A9     		add	r1, sp, #88
 1018 0536 1848     		ldr	r0, .L57
 1019              	.LVL228:
 1020 0538 FFF7FEFF 		bl	st7789_set_negative_voltage_gamma_control
 1021              	.LVL229:
 506:driver_st7789_basic.c ****     if (res != 0)
 1022              		.loc 1 506 0
 1023 053c 78B1     		cbz	r0, .L52
 507:driver_st7789_basic.c ****     {
 508:driver_st7789_basic.c ****         DBG_PRINTF("st7789: set negative voltage gamma control failed.\n");
 1024              		.loc 1 508 0
 1025 053e 2C48     		ldr	r0, .L57+88
 1026              	.LVL230:
 1027 0540 FFF7FEFF 		bl	myprintf
 1028              	.LVL231:
 509:driver_st7789_basic.c ****         (void)st7789_deinit(&gs_handle);
 1029              		.loc 1 509 0
 1030 0544 1448     		ldr	r0, .L57
ARM GAS  C:\Users\haske\AppData\Local\Temp\cc2s3UCZ.s 			page 28


 1031 0546 FFF7FEFF 		bl	st7789_deinit
 1032              	.LVL232:
 510:driver_st7789_basic.c **** 
 511:driver_st7789_basic.c ****         return 1;
 1033              		.loc 1 511 0
 1034 054a 0120     		movs	r0, #1
 1035 054c C8E0     		b	.L3
 1036              	.LVL233:
 1037              	.L42:
 512:driver_st7789_basic.c ****     }
 513:driver_st7789_basic.c **** 
 514:driver_st7789_basic.c ****     /* create the table */
 515:driver_st7789_basic.c ****     for (i = 0; i < 64; i++)
 516:driver_st7789_basic.c ****     {
 517:driver_st7789_basic.c ****         params[i] = i * 4;
 1038              		.loc 1 517 0 discriminator 3
 1039 054e 1EAA     		add	r2, sp, #120
 1040 0550 1A44     		add	r2, r2, r3
 1041 0552 9900     		lsls	r1, r3, #2
 1042 0554 02F8601C 		strb	r1, [r2, #-96]
 515:driver_st7789_basic.c ****     {
 1043              		.loc 1 515 0 discriminator 3
 1044 0558 0133     		adds	r3, r3, #1
 1045              	.LVL234:
 1046 055a 9BB2     		uxth	r3, r3
 1047              	.LVL235:
 1048 055c 00E0     		b	.L41
 1049              	.LVL236:
 1050              	.L52:
 1051 055e 0023     		movs	r3, #0
 1052              	.L41:
 1053              	.LVL237:
 515:driver_st7789_basic.c ****     {
 1054              		.loc 1 515 0 is_stmt 0 discriminator 1
 1055 0560 3F2B     		cmp	r3, #63
 1056 0562 F4D9     		bls	.L42
 518:driver_st7789_basic.c ****     }
 519:driver_st7789_basic.c **** 
 520:driver_st7789_basic.c ****     /* set default digital gamma look up table red */
 521:driver_st7789_basic.c ****     res = st7789_set_digital_gamma_look_up_table_red(&gs_handle, params);
 1057              		.loc 1 521 0 is_stmt 1
 1058 0564 06A9     		add	r1, sp, #24
 1059 0566 0C48     		ldr	r0, .L57
 1060              	.LVL238:
 1061 0568 FFF7FEFF 		bl	st7789_set_digital_gamma_look_up_table_red
 1062              	.LVL239:
 522:driver_st7789_basic.c ****     if (res != 0)
 1063              		.loc 1 522 0
 1064 056c 38B1     		cbz	r0, .L43
 523:driver_st7789_basic.c ****     {
 524:driver_st7789_basic.c ****         DBG_PRINTF("st7789: set digital gamma look up table red ailed.\n");
 1065              		.loc 1 524 0
 1066 056e 2148     		ldr	r0, .L57+92
 1067              	.LVL240:
 1068 0570 FFF7FEFF 		bl	myprintf
 1069              	.LVL241:
 525:driver_st7789_basic.c ****         (void)st7789_deinit(&gs_handle);
ARM GAS  C:\Users\haske\AppData\Local\Temp\cc2s3UCZ.s 			page 29


 1070              		.loc 1 525 0
 1071 0574 0848     		ldr	r0, .L57
 1072 0576 FFF7FEFF 		bl	st7789_deinit
 1073              	.LVL242:
 526:driver_st7789_basic.c **** 
 527:driver_st7789_basic.c ****         return 1;
 1074              		.loc 1 527 0
 1075 057a 0120     		movs	r0, #1
 1076 057c B0E0     		b	.L3
 1077              	.LVL243:
 1078              	.L43:
 528:driver_st7789_basic.c ****     }
 529:driver_st7789_basic.c **** 
 530:driver_st7789_basic.c ****     /* set default digital gamma look up table blue */
 531:driver_st7789_basic.c ****     res = st7789_set_digital_gamma_look_up_table_blue(&gs_handle, params);
 1079              		.loc 1 531 0
 1080 057e 06A9     		add	r1, sp, #24
 1081 0580 0548     		ldr	r0, .L57
 1082              	.LVL244:
 1083 0582 FFF7FEFF 		bl	st7789_set_digital_gamma_look_up_table_blue
 1084              	.LVL245:
 532:driver_st7789_basic.c ****     if (res != 0)
 1085              		.loc 1 532 0
 1086 0586 C8B3     		cbz	r0, .L44
 533:driver_st7789_basic.c ****     {
 534:driver_st7789_basic.c ****         DBG_PRINTF("st7789: set digital gamma look up table blue ailed.\n");
 1087              		.loc 1 534 0
 1088 0588 1B48     		ldr	r0, .L57+96
 1089              	.LVL246:
 1090 058a FFF7FEFF 		bl	myprintf
 1091              	.LVL247:
 535:driver_st7789_basic.c ****         (void)st7789_deinit(&gs_handle);
 1092              		.loc 1 535 0
 1093 058e 0248     		ldr	r0, .L57
 1094 0590 FFF7FEFF 		bl	st7789_deinit
 1095              	.LVL248:
 536:driver_st7789_basic.c **** 
 537:driver_st7789_basic.c ****         return 1;
 1096              		.loc 1 537 0
 1097 0594 0120     		movs	r0, #1
 1098 0596 A3E0     		b	.L3
 1099              	.L58:
 1100              		.align	2
 1101              	.L57:
 1102 0598 00000000 		.word	.LANCHOR1
 1103 059c E4020000 		.word	.LC22
 1104 05a0 08030000 		.word	.LC23
 1105 05a4 38030000 		.word	.LC24
 1106 05a8 0000D03F 		.word	1070596096
 1107 05ac 5C030000 		.word	.LC25
 1108 05b0 88030000 		.word	.LC26
 1109 05b4 A4030000 		.word	.LC27
 1110 05b8 C8030000 		.word	.LC28
 1111 05bc 9A999940 		.word	1083808154
 1112 05c0 EC030000 		.word	.LC29
 1113 05c4 18040000 		.word	.LC30
 1114 05c8 34040000 		.word	.LC31
ARM GAS  C:\Users\haske\AppData\Local\Temp\cc2s3UCZ.s 			page 30


 1115 05cc 60040000 		.word	.LC32
 1116 05d0 7C040000 		.word	.LC33
 1117 05d4 B0040000 		.word	.LC34
 1118 05d8 D4040000 		.word	.LC35
 1119 05dc F4040000 		.word	.LC36
 1120 05e0 18050000 		.word	.LC37
 1121 05e4 3C050000 		.word	.LC38
 1122 05e8 64050000 		.word	.LC39
 1123 05ec 8C050000 		.word	.LC40
 1124 05f0 C0050000 		.word	.LC41
 1125 05f4 F4050000 		.word	.LC42
 1126 05f8 28060000 		.word	.LC43
 1127              	.LVL249:
 1128              	.L44:
 538:driver_st7789_basic.c ****     }
 539:driver_st7789_basic.c **** 
 540:driver_st7789_basic.c ****     /* set default gate line convert to register */
 541:driver_st7789_basic.c ****     res = st7789_gate_line_convert_to_register(&gs_handle, ST7789_BASIC_DEFAULT_GATE_LINE, &reg);
 1129              		.loc 1 541 0
 1130 05fc 0DF17702 		add	r2, sp, #119
 1131 0600 4FF4A071 		mov	r1, #320
 1132 0604 3748     		ldr	r0, .L59
 1133              	.LVL250:
 1134 0606 FFF7FEFF 		bl	st7789_gate_line_convert_to_register
 1135              	.LVL251:
 542:driver_st7789_basic.c ****     if (res != 0)
 1136              		.loc 1 542 0
 1137 060a 38B1     		cbz	r0, .L45
 543:driver_st7789_basic.c ****     {
 544:driver_st7789_basic.c ****         DBG_PRINTF("st7789: gate line convert to register failed.\n");
 1138              		.loc 1 544 0
 1139 060c 3648     		ldr	r0, .L59+4
 1140              	.LVL252:
 1141 060e FFF7FEFF 		bl	myprintf
 1142              	.LVL253:
 545:driver_st7789_basic.c ****         (void)st7789_deinit(&gs_handle);
 1143              		.loc 1 545 0
 1144 0612 3448     		ldr	r0, .L59
 1145 0614 FFF7FEFF 		bl	st7789_deinit
 1146              	.LVL254:
 546:driver_st7789_basic.c **** 
 547:driver_st7789_basic.c ****         return 1;
 1147              		.loc 1 547 0
 1148 0618 0120     		movs	r0, #1
 1149 061a 61E0     		b	.L3
 1150              	.LVL255:
 1151              	.L45:
 548:driver_st7789_basic.c ****     }
 549:driver_st7789_basic.c **** 
 550:driver_st7789_basic.c ****     /* set default gate */
 551:driver_st7789_basic.c ****     res = st7789_set_gate(&gs_handle,
 1152              		.loc 1 551 0
 1153 061c 9DF87710 		ldrb	r1, [sp, #119]	@ zero_extendqisi2
 1154 0620 0022     		movs	r2, #0
 1155 0622 0092     		str	r2, [sp]
 1156 0624 1346     		mov	r3, r2
 1157 0626 2F48     		ldr	r0, .L59
ARM GAS  C:\Users\haske\AppData\Local\Temp\cc2s3UCZ.s 			page 31


 1158              	.LVL256:
 1159 0628 FFF7FEFF 		bl	st7789_set_gate
 1160              	.LVL257:
 552:driver_st7789_basic.c ****                           reg,
 553:driver_st7789_basic.c ****                           ST7789_BASIC_DEFAULT_FIRST_SCAN_LINE,
 554:driver_st7789_basic.c ****                           ST7789_BASIC_DEFAULT_GATE_SCAN_MODE,
 555:driver_st7789_basic.c ****                           ST7789_BASIC_DEFAULT_GATE_SCAN_DIRECTION);
 556:driver_st7789_basic.c ****     if (res != 0)
 1161              		.loc 1 556 0
 1162 062c 38B1     		cbz	r0, .L46
 557:driver_st7789_basic.c ****     {
 558:driver_st7789_basic.c ****         DBG_PRINTF("st7789: set gate failed.\n");
 1163              		.loc 1 558 0
 1164 062e 2F48     		ldr	r0, .L59+8
 1165              	.LVL258:
 1166 0630 FFF7FEFF 		bl	myprintf
 1167              	.LVL259:
 559:driver_st7789_basic.c ****         (void)st7789_deinit(&gs_handle);
 1168              		.loc 1 559 0
 1169 0634 2B48     		ldr	r0, .L59
 1170 0636 FFF7FEFF 		bl	st7789_deinit
 1171              	.LVL260:
 560:driver_st7789_basic.c **** 
 561:driver_st7789_basic.c ****         return 1;
 1172              		.loc 1 561 0
 1173 063a 0120     		movs	r0, #1
 1174 063c 50E0     		b	.L3
 1175              	.LVL261:
 1176              	.L46:
 562:driver_st7789_basic.c ****     }
 563:driver_st7789_basic.c **** 
 564:driver_st7789_basic.c ****     /* set default spi2 */
 565:driver_st7789_basic.c ****     res = st7789_set_spi2_enable(&gs_handle, ST7789_BASIC_DEFAULT_SPI2_LANE, ST7789_BASIC_DEFAULT_C
 1177              		.loc 1 565 0
 1178 063e 0022     		movs	r2, #0
 1179 0640 1146     		mov	r1, r2
 1180 0642 2848     		ldr	r0, .L59
 1181              	.LVL262:
 1182 0644 FFF7FEFF 		bl	st7789_set_spi2_enable
 1183              	.LVL263:
 566:driver_st7789_basic.c ****     if (res != 0)
 1184              		.loc 1 566 0
 1185 0648 38B1     		cbz	r0, .L47
 567:driver_st7789_basic.c ****     {
 568:driver_st7789_basic.c ****         DBG_PRINTF("st7789: set spi2 enable failed.\n");
 1186              		.loc 1 568 0
 1187 064a 2948     		ldr	r0, .L59+12
 1188              	.LVL264:
 1189 064c FFF7FEFF 		bl	myprintf
 1190              	.LVL265:
 569:driver_st7789_basic.c ****         (void)st7789_deinit(&gs_handle);
 1191              		.loc 1 569 0
 1192 0650 2448     		ldr	r0, .L59
 1193 0652 FFF7FEFF 		bl	st7789_deinit
 1194              	.LVL266:
 570:driver_st7789_basic.c **** 
 571:driver_st7789_basic.c ****         return 1;
ARM GAS  C:\Users\haske\AppData\Local\Temp\cc2s3UCZ.s 			page 32


 1195              		.loc 1 571 0
 1196 0656 0120     		movs	r0, #1
 1197 0658 42E0     		b	.L3
 1198              	.LVL267:
 1199              	.L47:
 572:driver_st7789_basic.c ****     }
 573:driver_st7789_basic.c **** 
 574:driver_st7789_basic.c ****     /* set default power control 2 */
 575:driver_st7789_basic.c ****     res = st7789_set_power_control_2(&gs_handle, ST7789_BASIC_DEFAULT_SBCLK_DIV, ST7789_BASIC_DEFAU
 1200              		.loc 1 575 0
 1201 065a 0322     		movs	r2, #3
 1202 065c 0121     		movs	r1, #1
 1203 065e 2148     		ldr	r0, .L59
 1204              	.LVL268:
 1205 0660 FFF7FEFF 		bl	st7789_set_power_control_2
 1206              	.LVL269:
 576:driver_st7789_basic.c ****     if (res != 0)
 1207              		.loc 1 576 0
 1208 0664 38B1     		cbz	r0, .L48
 577:driver_st7789_basic.c ****     {
 578:driver_st7789_basic.c ****         DBG_PRINTF("st7789: set power control 2 failed.\n");
 1209              		.loc 1 578 0
 1210 0666 2348     		ldr	r0, .L59+16
 1211              	.LVL270:
 1212 0668 FFF7FEFF 		bl	myprintf
 1213              	.LVL271:
 579:driver_st7789_basic.c ****         (void)st7789_deinit(&gs_handle);
 1214              		.loc 1 579 0
 1215 066c 1D48     		ldr	r0, .L59
 1216 066e FFF7FEFF 		bl	st7789_deinit
 1217              	.LVL272:
 580:driver_st7789_basic.c **** 
 581:driver_st7789_basic.c ****         return 1;
 1218              		.loc 1 581 0
 1219 0672 0120     		movs	r0, #1
 1220 0674 34E0     		b	.L3
 1221              	.LVL273:
 1222              	.L48:
 582:driver_st7789_basic.c ****     }
 583:driver_st7789_basic.c **** 
 584:driver_st7789_basic.c ****     /* set default equalize time control */
 585:driver_st7789_basic.c ****     res = st7789_set_equalize_time_control(&gs_handle,
 1223              		.loc 1 585 0
 1224 0676 0823     		movs	r3, #8
 1225 0678 1122     		movs	r2, #17
 1226 067a 1146     		mov	r1, r2
 1227 067c 1948     		ldr	r0, .L59
 1228              	.LVL274:
 1229 067e FFF7FEFF 		bl	st7789_set_equalize_time_control
 1230              	.LVL275:
 586:driver_st7789_basic.c ****                                            ST7789_BASIC_DEFAULT_SOURCE_EQUALIZE_TIME,
 587:driver_st7789_basic.c ****                                            ST7789_BASIC_DEFAULT_SOURCE_PRE_DRIVE_TIME,
 588:driver_st7789_basic.c ****                                            ST7789_BASIC_DEFAULT_GATE_EQUALIZE_TIME);
 589:driver_st7789_basic.c ****     if (res != 0)
 1231              		.loc 1 589 0
 1232 0682 38B1     		cbz	r0, .L49
 590:driver_st7789_basic.c ****     {
ARM GAS  C:\Users\haske\AppData\Local\Temp\cc2s3UCZ.s 			page 33


 591:driver_st7789_basic.c ****         DBG_PRINTF("st7789: set equalize time control failed.\n");
 1233              		.loc 1 591 0
 1234 0684 1C48     		ldr	r0, .L59+20
 1235              	.LVL276:
 1236 0686 FFF7FEFF 		bl	myprintf
 1237              	.LVL277:
 592:driver_st7789_basic.c ****         (void)st7789_deinit(&gs_handle);
 1238              		.loc 1 592 0
 1239 068a 1648     		ldr	r0, .L59
 1240 068c FFF7FEFF 		bl	st7789_deinit
 1241              	.LVL278:
 593:driver_st7789_basic.c **** 
 594:driver_st7789_basic.c ****         return 1;
 1242              		.loc 1 594 0
 1243 0690 0120     		movs	r0, #1
 1244 0692 25E0     		b	.L3
 1245              	.LVL279:
 1246              	.L49:
 595:driver_st7789_basic.c ****     }
 596:driver_st7789_basic.c **** 
 597:driver_st7789_basic.c ****     /* set default program mode */
 598:driver_st7789_basic.c ****     res = st7789_set_program_mode_enable(&gs_handle, ST7789_BASIC_DEFAULT_PROGRAM_MODE);
 1247              		.loc 1 598 0
 1248 0694 0021     		movs	r1, #0
 1249 0696 1348     		ldr	r0, .L59
 1250              	.LVL280:
 1251 0698 FFF7FEFF 		bl	st7789_set_program_mode_enable
 1252              	.LVL281:
 599:driver_st7789_basic.c ****     if (res != 0)
 1253              		.loc 1 599 0
 1254 069c 38B1     		cbz	r0, .L50
 600:driver_st7789_basic.c ****     {
 601:driver_st7789_basic.c ****         DBG_PRINTF("st7789: set program mode enable ailed.\n");
 1255              		.loc 1 601 0
 1256 069e 1748     		ldr	r0, .L59+24
 1257              	.LVL282:
 1258 06a0 FFF7FEFF 		bl	myprintf
 1259              	.LVL283:
 602:driver_st7789_basic.c ****         (void)st7789_deinit(&gs_handle);
 1260              		.loc 1 602 0
 1261 06a4 0F48     		ldr	r0, .L59
 1262 06a6 FFF7FEFF 		bl	st7789_deinit
 1263              	.LVL284:
 603:driver_st7789_basic.c **** 
 604:driver_st7789_basic.c ****         return 1;
 1264              		.loc 1 604 0
 1265 06aa 0120     		movs	r0, #1
 1266 06ac 18E0     		b	.L3
 1267              	.LVL285:
 1268              	.L50:
 605:driver_st7789_basic.c ****     }
 606:driver_st7789_basic.c **** 
 607:driver_st7789_basic.c ****     /* display on */
 608:driver_st7789_basic.c ****     res = st7789_display_on(&gs_handle);
 1269              		.loc 1 608 0
 1270 06ae 0D48     		ldr	r0, .L59
 1271              	.LVL286:
ARM GAS  C:\Users\haske\AppData\Local\Temp\cc2s3UCZ.s 			page 34


 1272 06b0 FFF7FEFF 		bl	st7789_display_on
 1273              	.LVL287:
 609:driver_st7789_basic.c ****     if (res != 0)
 1274              		.loc 1 609 0
 1275 06b4 38B1     		cbz	r0, .L51
 610:driver_st7789_basic.c ****     {
 611:driver_st7789_basic.c ****         DBG_PRINTF("st7789: display on failed.\n");
 1276              		.loc 1 611 0
 1277 06b6 1248     		ldr	r0, .L59+28
 1278              	.LVL288:
 1279 06b8 FFF7FEFF 		bl	myprintf
 1280              	.LVL289:
 612:driver_st7789_basic.c ****         (void)st7789_deinit(&gs_handle);
 1281              		.loc 1 612 0
 1282 06bc 0948     		ldr	r0, .L59
 1283 06be FFF7FEFF 		bl	st7789_deinit
 1284              	.LVL290:
 613:driver_st7789_basic.c **** 
 614:driver_st7789_basic.c ****         return 1;
 1285              		.loc 1 614 0
 1286 06c2 0120     		movs	r0, #1
 1287 06c4 0CE0     		b	.L3
 1288              	.LVL291:
 1289              	.L51:
 615:driver_st7789_basic.c ****     }
 616:driver_st7789_basic.c **** 
 617:driver_st7789_basic.c ****     /* clear */
 618:driver_st7789_basic.c ****     res = st7789_clear(&gs_handle);
 1290              		.loc 1 618 0
 1291 06c6 0748     		ldr	r0, .L59
 1292              	.LVL292:
 1293 06c8 FFF7FEFF 		bl	st7789_clear
 1294              	.LVL293:
 619:driver_st7789_basic.c ****     if (res != 0)
 1295              		.loc 1 619 0
 1296 06cc 38B1     		cbz	r0, .L53
 620:driver_st7789_basic.c ****     {
 621:driver_st7789_basic.c ****         DBG_PRINTF("st7789: clear failed.\n");
 1297              		.loc 1 621 0
 1298 06ce 0D48     		ldr	r0, .L59+32
 1299              	.LVL294:
 1300 06d0 FFF7FEFF 		bl	myprintf
 1301              	.LVL295:
 622:driver_st7789_basic.c ****         (void)st7789_deinit(&gs_handle);
 1302              		.loc 1 622 0
 1303 06d4 0348     		ldr	r0, .L59
 1304 06d6 FFF7FEFF 		bl	st7789_deinit
 1305              	.LVL296:
 623:driver_st7789_basic.c **** 
 624:driver_st7789_basic.c ****         return 1;
 1306              		.loc 1 624 0
 1307 06da 0120     		movs	r0, #1
 1308 06dc 00E0     		b	.L3
 1309              	.LVL297:
 1310              	.L53:
 625:driver_st7789_basic.c ****     }
 626:driver_st7789_basic.c **** 
ARM GAS  C:\Users\haske\AppData\Local\Temp\cc2s3UCZ.s 			page 35


 627:driver_st7789_basic.c ****     return 0;
 1311              		.loc 1 627 0
 1312 06de 0020     		movs	r0, #0
 1313              	.LVL298:
 1314              	.L3:
 628:driver_st7789_basic.c **** }
 1315              		.loc 1 628 0
 1316 06e0 1EB0     		add	sp, sp, #120
 1317              		.cfi_def_cfa_offset 8
 1318              		@ sp needed
 1319 06e2 10BD     		pop	{r4, pc}
 1320              	.L60:
 1321              		.align	2
 1322              	.L59:
 1323 06e4 00000000 		.word	.LANCHOR1
 1324 06e8 60060000 		.word	.LC44
 1325 06ec 90060000 		.word	.LC45
 1326 06f0 AC060000 		.word	.LC46
 1327 06f4 D0060000 		.word	.LC47
 1328 06f8 F8060000 		.word	.LC48
 1329 06fc 24070000 		.word	.LC49
 1330 0700 4C070000 		.word	.LC50
 1331 0704 68070000 		.word	.LC51
 1332              		.cfi_endproc
 1333              	.LFE864:
 1334              		.size	st7789_basic_init, .-st7789_basic_init
 1335              		.section	.text.st7789_basic_deinit,"ax",%progbits
 1336              		.align	2
 1337              		.global	st7789_basic_deinit
 1338              		.thumb
 1339              		.thumb_func
 1340              		.type	st7789_basic_deinit, %function
 1341              	st7789_basic_deinit:
 1342              	.LFB865:
 629:driver_st7789_basic.c **** 
 630:driver_st7789_basic.c **** /**
 631:driver_st7789_basic.c ****  * @brief  basic example deinit
 632:driver_st7789_basic.c ****  * @return status code
 633:driver_st7789_basic.c ****  *         - 0 success
 634:driver_st7789_basic.c ****  *         - 1 deinit failed
 635:driver_st7789_basic.c ****  * @note   none
 636:driver_st7789_basic.c ****  */
 637:driver_st7789_basic.c **** uint8_t st7789_basic_deinit(void)
 638:driver_st7789_basic.c **** {
 1343              		.loc 1 638 0
 1344              		.cfi_startproc
 1345              		@ args = 0, pretend = 0, frame = 0
 1346              		@ frame_needed = 0, uses_anonymous_args = 0
 1347 0000 08B5     		push	{r3, lr}
 1348              		.cfi_def_cfa_offset 8
 1349              		.cfi_offset 3, -8
 1350              		.cfi_offset 14, -4
 639:driver_st7789_basic.c ****     /* st7789 deinit */
 640:driver_st7789_basic.c ****     if (st7789_deinit(&gs_handle) != 0)
 1351              		.loc 1 640 0
 1352 0002 0448     		ldr	r0, .L64
 1353 0004 FFF7FEFF 		bl	st7789_deinit
ARM GAS  C:\Users\haske\AppData\Local\Temp\cc2s3UCZ.s 			page 36


 1354              	.LVL299:
 1355 0008 0346     		mov	r3, r0
 1356 000a 00B1     		cbz	r0, .L62
 641:driver_st7789_basic.c ****     {
 642:driver_st7789_basic.c ****         return 1;
 1357              		.loc 1 642 0
 1358 000c 0123     		movs	r3, #1
 1359              	.L62:
 643:driver_st7789_basic.c ****     }
 644:driver_st7789_basic.c **** 
 645:driver_st7789_basic.c ****     return 0;
 646:driver_st7789_basic.c **** }
 1360              		.loc 1 646 0
 1361 000e 1846     		mov	r0, r3
 1362 0010 08BD     		pop	{r3, pc}
 1363              	.L65:
 1364 0012 00BF     		.align	2
 1365              	.L64:
 1366 0014 00000000 		.word	.LANCHOR1
 1367              		.cfi_endproc
 1368              	.LFE865:
 1369              		.size	st7789_basic_deinit, .-st7789_basic_deinit
 1370              		.section	.text.st7789_basic_clear,"ax",%progbits
 1371              		.align	2
 1372              		.global	st7789_basic_clear
 1373              		.thumb
 1374              		.thumb_func
 1375              		.type	st7789_basic_clear, %function
 1376              	st7789_basic_clear:
 1377              	.LFB866:
 647:driver_st7789_basic.c **** 
 648:driver_st7789_basic.c **** /**
 649:driver_st7789_basic.c ****  * @brief  basic example clear
 650:driver_st7789_basic.c ****  * @return status code
 651:driver_st7789_basic.c ****  *         - 0 success
 652:driver_st7789_basic.c ****  *         - 1 clear failed
 653:driver_st7789_basic.c ****  * @note   none
 654:driver_st7789_basic.c ****  */
 655:driver_st7789_basic.c **** uint8_t st7789_basic_clear(void)
 656:driver_st7789_basic.c **** {
 1378              		.loc 1 656 0
 1379              		.cfi_startproc
 1380              		@ args = 0, pretend = 0, frame = 0
 1381              		@ frame_needed = 0, uses_anonymous_args = 0
 1382 0000 08B5     		push	{r3, lr}
 1383              		.cfi_def_cfa_offset 8
 1384              		.cfi_offset 3, -8
 1385              		.cfi_offset 14, -4
 657:driver_st7789_basic.c ****     /* st7789 clear */
 658:driver_st7789_basic.c ****     if (st7789_clear(&gs_handle) != 0)
 1386              		.loc 1 658 0
 1387 0002 0448     		ldr	r0, .L69
 1388 0004 FFF7FEFF 		bl	st7789_clear
 1389              	.LVL300:
 1390 0008 0346     		mov	r3, r0
 1391 000a 00B1     		cbz	r0, .L67
 659:driver_st7789_basic.c ****     {
ARM GAS  C:\Users\haske\AppData\Local\Temp\cc2s3UCZ.s 			page 37


 660:driver_st7789_basic.c ****         return 1;
 1392              		.loc 1 660 0
 1393 000c 0123     		movs	r3, #1
 1394              	.L67:
 661:driver_st7789_basic.c ****     }
 662:driver_st7789_basic.c **** 
 663:driver_st7789_basic.c ****     return 0;
 664:driver_st7789_basic.c **** }
 1395              		.loc 1 664 0
 1396 000e 1846     		mov	r0, r3
 1397 0010 08BD     		pop	{r3, pc}
 1398              	.L70:
 1399 0012 00BF     		.align	2
 1400              	.L69:
 1401 0014 00000000 		.word	.LANCHOR1
 1402              		.cfi_endproc
 1403              	.LFE866:
 1404              		.size	st7789_basic_clear, .-st7789_basic_clear
 1405              		.section	.text.st7789_basic_display_on,"ax",%progbits
 1406              		.align	2
 1407              		.global	st7789_basic_display_on
 1408              		.thumb
 1409              		.thumb_func
 1410              		.type	st7789_basic_display_on, %function
 1411              	st7789_basic_display_on:
 1412              	.LFB867:
 665:driver_st7789_basic.c **** 
 666:driver_st7789_basic.c **** /**
 667:driver_st7789_basic.c ****  * @brief  basic example display on
 668:driver_st7789_basic.c ****  * @return status code
 669:driver_st7789_basic.c ****  *         - 0 success
 670:driver_st7789_basic.c ****  *         - 1 display on failed
 671:driver_st7789_basic.c ****  * @note   none
 672:driver_st7789_basic.c ****  */
 673:driver_st7789_basic.c **** uint8_t st7789_basic_display_on(void)
 674:driver_st7789_basic.c **** {
 1413              		.loc 1 674 0
 1414              		.cfi_startproc
 1415              		@ args = 0, pretend = 0, frame = 0
 1416              		@ frame_needed = 0, uses_anonymous_args = 0
 1417 0000 08B5     		push	{r3, lr}
 1418              		.cfi_def_cfa_offset 8
 1419              		.cfi_offset 3, -8
 1420              		.cfi_offset 14, -4
 675:driver_st7789_basic.c ****     /* display on */
 676:driver_st7789_basic.c ****     if (st7789_display_on(&gs_handle) != 0)
 1421              		.loc 1 676 0
 1422 0002 0448     		ldr	r0, .L74
 1423 0004 FFF7FEFF 		bl	st7789_display_on
 1424              	.LVL301:
 1425 0008 0346     		mov	r3, r0
 1426 000a 00B1     		cbz	r0, .L72
 677:driver_st7789_basic.c ****     {
 678:driver_st7789_basic.c ****         return 1;
 1427              		.loc 1 678 0
 1428 000c 0123     		movs	r3, #1
 1429              	.L72:
ARM GAS  C:\Users\haske\AppData\Local\Temp\cc2s3UCZ.s 			page 38


 679:driver_st7789_basic.c ****     }
 680:driver_st7789_basic.c **** 
 681:driver_st7789_basic.c ****     return 0;
 682:driver_st7789_basic.c **** }
 1430              		.loc 1 682 0
 1431 000e 1846     		mov	r0, r3
 1432 0010 08BD     		pop	{r3, pc}
 1433              	.L75:
 1434 0012 00BF     		.align	2
 1435              	.L74:
 1436 0014 00000000 		.word	.LANCHOR1
 1437              		.cfi_endproc
 1438              	.LFE867:
 1439              		.size	st7789_basic_display_on, .-st7789_basic_display_on
 1440              		.section	.text.st7789_basic_display_off,"ax",%progbits
 1441              		.align	2
 1442              		.global	st7789_basic_display_off
 1443              		.thumb
 1444              		.thumb_func
 1445              		.type	st7789_basic_display_off, %function
 1446              	st7789_basic_display_off:
 1447              	.LFB868:
 683:driver_st7789_basic.c **** 
 684:driver_st7789_basic.c **** /**
 685:driver_st7789_basic.c ****  * @brief  basic example display off
 686:driver_st7789_basic.c ****  * @return status code
 687:driver_st7789_basic.c ****  *         - 0 success
 688:driver_st7789_basic.c ****  *         - 1 display off failed
 689:driver_st7789_basic.c ****  * @note   none
 690:driver_st7789_basic.c ****  */
 691:driver_st7789_basic.c **** uint8_t st7789_basic_display_off(void)
 692:driver_st7789_basic.c **** {
 1448              		.loc 1 692 0
 1449              		.cfi_startproc
 1450              		@ args = 0, pretend = 0, frame = 0
 1451              		@ frame_needed = 0, uses_anonymous_args = 0
 1452 0000 08B5     		push	{r3, lr}
 1453              		.cfi_def_cfa_offset 8
 1454              		.cfi_offset 3, -8
 1455              		.cfi_offset 14, -4
 693:driver_st7789_basic.c ****     /* display off */
 694:driver_st7789_basic.c ****     if (st7789_display_off(&gs_handle) != 0)
 1456              		.loc 1 694 0
 1457 0002 0448     		ldr	r0, .L79
 1458 0004 FFF7FEFF 		bl	st7789_display_off
 1459              	.LVL302:
 1460 0008 0346     		mov	r3, r0
 1461 000a 00B1     		cbz	r0, .L77
 695:driver_st7789_basic.c ****     {
 696:driver_st7789_basic.c ****         return 1;
 1462              		.loc 1 696 0
 1463 000c 0123     		movs	r3, #1
 1464              	.L77:
 697:driver_st7789_basic.c ****     }
 698:driver_st7789_basic.c **** 
 699:driver_st7789_basic.c ****     return 0;
 700:driver_st7789_basic.c **** }
ARM GAS  C:\Users\haske\AppData\Local\Temp\cc2s3UCZ.s 			page 39


 1465              		.loc 1 700 0
 1466 000e 1846     		mov	r0, r3
 1467 0010 08BD     		pop	{r3, pc}
 1468              	.L80:
 1469 0012 00BF     		.align	2
 1470              	.L79:
 1471 0014 00000000 		.word	.LANCHOR1
 1472              		.cfi_endproc
 1473              	.LFE868:
 1474              		.size	st7789_basic_display_off, .-st7789_basic_display_off
 1475              		.section	.text.st7789_basic_string,"ax",%progbits
 1476              		.align	2
 1477              		.global	st7789_basic_string
 1478              		.thumb
 1479              		.thumb_func
 1480              		.type	st7789_basic_string, %function
 1481              	st7789_basic_string:
 1482              	.LFB869:
 701:driver_st7789_basic.c **** 
 702:driver_st7789_basic.c **** /**
 703:driver_st7789_basic.c ****  * @brief     basic example draw a string
 704:driver_st7789_basic.c ****  * @param[in] x is the coordinate x
 705:driver_st7789_basic.c ****  * @param[in] y is the coordinate y
 706:driver_st7789_basic.c ****  * @param[in] *str points to a written string address
 707:driver_st7789_basic.c ****  * @param[in] len is the length of the string
 708:driver_st7789_basic.c ****  * @param[in] color is the display color
 709:driver_st7789_basic.c ****  * @param[in] font is the display font size
 710:driver_st7789_basic.c ****  * @return    status code
 711:driver_st7789_basic.c ****  *            - 0 success
 712:driver_st7789_basic.c ****  *            - 1 draw string failed
 713:driver_st7789_basic.c ****  * @note      none
 714:driver_st7789_basic.c ****  */
 715:driver_st7789_basic.c **** uint8_t st7789_basic_string(uint16_t x, uint16_t y, char *str, uint16_t len, uint32_t color, st7789
 716:driver_st7789_basic.c **** {
 1483              		.loc 1 716 0
 1484              		.cfi_startproc
 1485              		@ args = 8, pretend = 0, frame = 0
 1486              		@ frame_needed = 0, uses_anonymous_args = 0
 1487              	.LVL303:
 1488 0000 10B5     		push	{r4, lr}
 1489              		.cfi_def_cfa_offset 8
 1490              		.cfi_offset 4, -8
 1491              		.cfi_offset 14, -4
 1492 0002 84B0     		sub	sp, sp, #16
 1493              		.cfi_def_cfa_offset 24
 717:driver_st7789_basic.c ****     /* write string */
 718:driver_st7789_basic.c ****     if (st7789_write_string(&gs_handle, x, y, str, len, color, font) != 0)
 1494              		.loc 1 718 0
 1495 0004 9DF81C40 		ldrb	r4, [sp, #28]	@ zero_extendqisi2
 1496 0008 0294     		str	r4, [sp, #8]
 1497 000a 069C     		ldr	r4, [sp, #24]
 1498 000c 0194     		str	r4, [sp, #4]
 1499 000e 0093     		str	r3, [sp]
 1500 0010 1346     		mov	r3, r2
 1501              	.LVL304:
 1502 0012 0A46     		mov	r2, r1
 1503              	.LVL305:
ARM GAS  C:\Users\haske\AppData\Local\Temp\cc2s3UCZ.s 			page 40


 1504 0014 0146     		mov	r1, r0
 1505              	.LVL306:
 1506 0016 0448     		ldr	r0, .L84
 1507              	.LVL307:
 1508 0018 FFF7FEFF 		bl	st7789_write_string
 1509              	.LVL308:
 1510 001c 0346     		mov	r3, r0
 1511 001e 00B1     		cbz	r0, .L82
 719:driver_st7789_basic.c ****     {
 720:driver_st7789_basic.c ****         return 1;
 1512              		.loc 1 720 0
 1513 0020 0123     		movs	r3, #1
 1514              	.L82:
 721:driver_st7789_basic.c ****     }
 722:driver_st7789_basic.c **** 
 723:driver_st7789_basic.c ****     return 0;
 724:driver_st7789_basic.c **** }
 1515              		.loc 1 724 0
 1516 0022 1846     		mov	r0, r3
 1517 0024 04B0     		add	sp, sp, #16
 1518              		.cfi_def_cfa_offset 8
 1519              		@ sp needed
 1520 0026 10BD     		pop	{r4, pc}
 1521              	.LVL309:
 1522              	.L85:
 1523              		.align	2
 1524              	.L84:
 1525 0028 00000000 		.word	.LANCHOR1
 1526              		.cfi_endproc
 1527              	.LFE869:
 1528              		.size	st7789_basic_string, .-st7789_basic_string
 1529              		.section	.text.st7789_basic_write_point,"ax",%progbits
 1530              		.align	2
 1531              		.global	st7789_basic_write_point
 1532              		.thumb
 1533              		.thumb_func
 1534              		.type	st7789_basic_write_point, %function
 1535              	st7789_basic_write_point:
 1536              	.LFB870:
 725:driver_st7789_basic.c **** 
 726:driver_st7789_basic.c **** /**
 727:driver_st7789_basic.c ****  * @brief     basic example write a point
 728:driver_st7789_basic.c ****  * @param[in] x is the coordinate x
 729:driver_st7789_basic.c ****  * @param[in] y is the coordinate y
 730:driver_st7789_basic.c ****  * @param[in] color is the written color
 731:driver_st7789_basic.c ****  * @return    status code
 732:driver_st7789_basic.c ****  *            - 0 success
 733:driver_st7789_basic.c ****  *            - 1 write point failed
 734:driver_st7789_basic.c ****  * @note      none
 735:driver_st7789_basic.c ****  */
 736:driver_st7789_basic.c **** uint8_t st7789_basic_write_point(uint16_t x, uint16_t y, uint32_t color)
 737:driver_st7789_basic.c **** {
 1537              		.loc 1 737 0
 1538              		.cfi_startproc
 1539              		@ args = 0, pretend = 0, frame = 0
 1540              		@ frame_needed = 0, uses_anonymous_args = 0
 1541              	.LVL310:
ARM GAS  C:\Users\haske\AppData\Local\Temp\cc2s3UCZ.s 			page 41


 1542 0000 08B5     		push	{r3, lr}
 1543              		.cfi_def_cfa_offset 8
 1544              		.cfi_offset 3, -8
 1545              		.cfi_offset 14, -4
 738:driver_st7789_basic.c ****     /* draw point */
 739:driver_st7789_basic.c ****     if (st7789_draw_point(&gs_handle, x, y, color) != 0)
 1546              		.loc 1 739 0
 1547 0002 1346     		mov	r3, r2
 1548 0004 0A46     		mov	r2, r1
 1549              	.LVL311:
 1550 0006 0146     		mov	r1, r0
 1551              	.LVL312:
 1552 0008 0348     		ldr	r0, .L89
 1553              	.LVL313:
 1554 000a FFF7FEFF 		bl	st7789_draw_point
 1555              	.LVL314:
 1556 000e 0346     		mov	r3, r0
 1557 0010 00B1     		cbz	r0, .L87
 740:driver_st7789_basic.c ****     {
 741:driver_st7789_basic.c ****         return 1;
 1558              		.loc 1 741 0
 1559 0012 0123     		movs	r3, #1
 1560              	.L87:
 742:driver_st7789_basic.c ****     }
 743:driver_st7789_basic.c **** 
 744:driver_st7789_basic.c ****     return 0;
 745:driver_st7789_basic.c **** }
 1561              		.loc 1 745 0
 1562 0014 1846     		mov	r0, r3
 1563 0016 08BD     		pop	{r3, pc}
 1564              	.L90:
 1565              		.align	2
 1566              	.L89:
 1567 0018 00000000 		.word	.LANCHOR1
 1568              		.cfi_endproc
 1569              	.LFE870:
 1570              		.size	st7789_basic_write_point, .-st7789_basic_write_point
 1571              		.section	.text.st7789_basic_rect,"ax",%progbits
 1572              		.align	2
 1573              		.global	st7789_basic_rect
 1574              		.thumb
 1575              		.thumb_func
 1576              		.type	st7789_basic_rect, %function
 1577              	st7789_basic_rect:
 1578              	.LFB871:
 746:driver_st7789_basic.c **** 
 747:driver_st7789_basic.c **** /**
 748:driver_st7789_basic.c ****  * @brief     basic example fill a rectangle
 749:driver_st7789_basic.c ****  * @param[in] left is the left coordinate x
 750:driver_st7789_basic.c ****  * @param[in] top is the top coordinate y
 751:driver_st7789_basic.c ****  * @param[in] right is the right coordinate x
 752:driver_st7789_basic.c ****  * @param[in] bottom is the bottom coordinate y
 753:driver_st7789_basic.c ****  * @param[in] color is the display color
 754:driver_st7789_basic.c ****  * @return    status code
 755:driver_st7789_basic.c ****  *            - 0 success
 756:driver_st7789_basic.c ****  *            - 1 fill rect failed
 757:driver_st7789_basic.c ****  * @note      none
ARM GAS  C:\Users\haske\AppData\Local\Temp\cc2s3UCZ.s 			page 42


 758:driver_st7789_basic.c ****  */
 759:driver_st7789_basic.c **** uint8_t st7789_basic_rect(uint16_t left, uint16_t top, uint16_t right, uint16_t bottom, uint32_t co
 760:driver_st7789_basic.c **** {
 1579              		.loc 1 760 0
 1580              		.cfi_startproc
 1581              		@ args = 4, pretend = 0, frame = 0
 1582              		@ frame_needed = 0, uses_anonymous_args = 0
 1583              	.LVL315:
 1584 0000 10B5     		push	{r4, lr}
 1585              		.cfi_def_cfa_offset 8
 1586              		.cfi_offset 4, -8
 1587              		.cfi_offset 14, -4
 1588 0002 82B0     		sub	sp, sp, #8
 1589              		.cfi_def_cfa_offset 16
 761:driver_st7789_basic.c ****     /* fill rect */
 762:driver_st7789_basic.c ****     if (st7789_fill_rect(&gs_handle, left, top, right, bottom, color) != 0)
 1590              		.loc 1 762 0
 1591 0004 049C     		ldr	r4, [sp, #16]
 1592 0006 0194     		str	r4, [sp, #4]
 1593 0008 0093     		str	r3, [sp]
 1594 000a 1346     		mov	r3, r2
 1595              	.LVL316:
 1596 000c 0A46     		mov	r2, r1
 1597              	.LVL317:
 1598 000e 0146     		mov	r1, r0
 1599              	.LVL318:
 1600 0010 0448     		ldr	r0, .L94
 1601              	.LVL319:
 1602 0012 FFF7FEFF 		bl	st7789_fill_rect
 1603              	.LVL320:
 1604 0016 0346     		mov	r3, r0
 1605 0018 00B1     		cbz	r0, .L92
 763:driver_st7789_basic.c ****     {
 764:driver_st7789_basic.c ****         return 1;
 1606              		.loc 1 764 0
 1607 001a 0123     		movs	r3, #1
 1608              	.L92:
 765:driver_st7789_basic.c ****     }
 766:driver_st7789_basic.c **** 
 767:driver_st7789_basic.c ****     return 0;
 768:driver_st7789_basic.c **** }
 1609              		.loc 1 768 0
 1610 001c 1846     		mov	r0, r3
 1611 001e 02B0     		add	sp, sp, #8
 1612              		.cfi_def_cfa_offset 8
 1613              		@ sp needed
 1614 0020 10BD     		pop	{r4, pc}
 1615              	.LVL321:
 1616              	.L95:
 1617 0022 00BF     		.align	2
 1618              	.L94:
 1619 0024 00000000 		.word	.LANCHOR1
 1620              		.cfi_endproc
 1621              	.LFE871:
 1622              		.size	st7789_basic_rect, .-st7789_basic_rect
 1623              		.section	.text.st7789_basic_draw_picture_16bits,"ax",%progbits
 1624              		.align	2
ARM GAS  C:\Users\haske\AppData\Local\Temp\cc2s3UCZ.s 			page 43


 1625              		.global	st7789_basic_draw_picture_16bits
 1626              		.thumb
 1627              		.thumb_func
 1628              		.type	st7789_basic_draw_picture_16bits, %function
 1629              	st7789_basic_draw_picture_16bits:
 1630              	.LFB872:
 769:driver_st7789_basic.c **** 
 770:driver_st7789_basic.c **** /**
 771:driver_st7789_basic.c ****  * @brief     basic example draw a 16 bits picture
 772:driver_st7789_basic.c ****  * @param[in] left is the left coordinate x
 773:driver_st7789_basic.c ****  * @param[in] top is the top coordinate y
 774:driver_st7789_basic.c ****  * @param[in] right is the right coordinate x
 775:driver_st7789_basic.c ****  * @param[in] bottom is the bottom coordinate y
 776:driver_st7789_basic.c ****  * @param[in] *img points to a image buffer
 777:driver_st7789_basic.c ****  * @return    status code
 778:driver_st7789_basic.c ****  *            - 0 success
 779:driver_st7789_basic.c ****  *            - 1 draw picture 16 bits failed
 780:driver_st7789_basic.c ****  * @note      none
 781:driver_st7789_basic.c ****  */
 782:driver_st7789_basic.c **** uint8_t st7789_basic_draw_picture_16bits(uint16_t left, uint16_t top, uint16_t right, uint16_t bott
 783:driver_st7789_basic.c **** {
 1631              		.loc 1 783 0
 1632              		.cfi_startproc
 1633              		@ args = 4, pretend = 0, frame = 0
 1634              		@ frame_needed = 0, uses_anonymous_args = 0
 1635              	.LVL322:
 1636 0000 10B5     		push	{r4, lr}
 1637              		.cfi_def_cfa_offset 8
 1638              		.cfi_offset 4, -8
 1639              		.cfi_offset 14, -4
 1640 0002 82B0     		sub	sp, sp, #8
 1641              		.cfi_def_cfa_offset 16
 784:driver_st7789_basic.c ****     /* draw picture in 16 bits */
 785:driver_st7789_basic.c ****     if (st7789_draw_picture_16bits(&gs_handle, left, top, right, bottom, img) != 0)
 1642              		.loc 1 785 0
 1643 0004 049C     		ldr	r4, [sp, #16]
 1644 0006 0194     		str	r4, [sp, #4]
 1645 0008 0093     		str	r3, [sp]
 1646 000a 1346     		mov	r3, r2
 1647              	.LVL323:
 1648 000c 0A46     		mov	r2, r1
 1649              	.LVL324:
 1650 000e 0146     		mov	r1, r0
 1651              	.LVL325:
 1652 0010 0448     		ldr	r0, .L99
 1653              	.LVL326:
 1654 0012 FFF7FEFF 		bl	st7789_draw_picture_16bits
 1655              	.LVL327:
 1656 0016 0346     		mov	r3, r0
 1657 0018 00B1     		cbz	r0, .L97
 786:driver_st7789_basic.c ****     {
 787:driver_st7789_basic.c ****         return 1;
 1658              		.loc 1 787 0
 1659 001a 0123     		movs	r3, #1
 1660              	.L97:
 788:driver_st7789_basic.c ****     }
 789:driver_st7789_basic.c **** 
ARM GAS  C:\Users\haske\AppData\Local\Temp\cc2s3UCZ.s 			page 44


 790:driver_st7789_basic.c ****     return 0;
 791:driver_st7789_basic.c **** }
 1661              		.loc 1 791 0
 1662 001c 1846     		mov	r0, r3
 1663 001e 02B0     		add	sp, sp, #8
 1664              		.cfi_def_cfa_offset 8
 1665              		@ sp needed
 1666 0020 10BD     		pop	{r4, pc}
 1667              	.LVL328:
 1668              	.L100:
 1669 0022 00BF     		.align	2
 1670              	.L99:
 1671 0024 00000000 		.word	.LANCHOR1
 1672              		.cfi_endproc
 1673              	.LFE872:
 1674              		.size	st7789_basic_draw_picture_16bits, .-st7789_basic_draw_picture_16bits
 1675              		.section	.rodata
 1676              		.align	2
 1677              		.set	.LANCHOR0,. + 0
 1678              	.LC0:
 1679 0000 D0       		.byte	-48
 1680 0001 04       		.byte	4
 1681 0002 0D       		.byte	13
 1682 0003 11       		.byte	17
 1683 0004 13       		.byte	19
 1684 0005 2B       		.byte	43
 1685 0006 3F       		.byte	63
 1686 0007 54       		.byte	84
 1687 0008 4C       		.byte	76
 1688 0009 18       		.byte	24
 1689 000a 0D       		.byte	13
 1690 000b 0B       		.byte	11
 1691 000c 1F       		.byte	31
 1692 000d 23       		.byte	35
 1693 000e 0000     		.space	2
 1694              	.LC1:
 1695 0010 D0       		.byte	-48
 1696 0011 04       		.byte	4
 1697 0012 0C       		.byte	12
 1698 0013 11       		.byte	17
 1699 0014 13       		.byte	19
 1700 0015 2C       		.byte	44
 1701 0016 3F       		.byte	63
 1702 0017 44       		.byte	68
 1703 0018 51       		.byte	81
 1704 0019 2F       		.byte	47
 1705 001a 1F       		.byte	31
 1706 001b 1F       		.byte	31
 1707 001c 20       		.byte	32
 1708 001d 23       		.byte	35
 1709              		.section	.rodata.str1.4,"aMS",%progbits,1
 1710              		.align	2
 1711              	.LC2:
 1712 0000 74657374 		.ascii	"testing test \015\012\000"
 1712      696E6720 
 1712      74657374 
 1712      200D0A00 
ARM GAS  C:\Users\haske\AppData\Local\Temp\cc2s3UCZ.s 			page 45


 1713              	.LC3:
 1714 0010 73743737 		.ascii	"st7789: init failed.\012\000"
 1714      38393A20 
 1714      696E6974 
 1714      20666169 
 1714      6C65642E 
 1715 0026 0000     		.space	2
 1716              	.LC4:
 1717 0028 73743737 		.ascii	"st7789: set column failed.\012\000"
 1717      38393A20 
 1717      73657420 
 1717      636F6C75 
 1717      6D6E2066 
 1718              	.LC5:
 1719 0044 73743737 		.ascii	"st7789: set row failed.\012\000"
 1719      38393A20 
 1719      73657420 
 1719      726F7720 
 1719      6661696C 
 1720 005d 000000   		.space	3
 1721              	.LC6:
 1722 0060 73743737 		.ascii	"st7789: sleep out failed.\012\000"
 1722      38393A20 
 1722      736C6565 
 1722      70206F75 
 1722      74206661 
 1723 007b 00       		.space	1
 1724              	.LC7:
 1725 007c 73743737 		.ascii	"st7789: idle mode off failed.\012\000"
 1725      38393A20 
 1725      69646C65 
 1725      206D6F64 
 1725      65206F66 
 1726 009b 00       		.space	1
 1727              	.LC8:
 1728 009c 73743737 		.ascii	"st7789: normal display mode on failed.\012\000"
 1728      38393A20 
 1728      6E6F726D 
 1728      616C2064 
 1728      6973706C 
 1729              	.LC9:
 1730 00c4 73743737 		.ascii	"st7789: display inversion on failed.\012\000"
 1730      38393A20 
 1730      64697370 
 1730      6C617920 
 1730      696E7665 
 1731 00ea 0000     		.space	2
 1732              	.LC10:
 1733 00ec 73743737 		.ascii	"st7789: set gamma failed.\012\000"
 1733      38393A20 
 1733      73657420 
 1733      67616D6D 
 1733      61206661 
 1734 0107 00       		.space	1
 1735              	.LC11:
 1736 0108 73743737 		.ascii	"st7789: set memory data access control failed.\012\000"
 1736      38393A20 
ARM GAS  C:\Users\haske\AppData\Local\Temp\cc2s3UCZ.s 			page 46


 1736      73657420 
 1736      6D656D6F 
 1736      72792064 
 1737              	.LC12:
 1738 0138 73743737 		.ascii	"st7789: set interface pixel format failed.\012\000"
 1738      38393A20 
 1738      73657420 
 1738      696E7465 
 1738      72666163 
 1739              	.LC13:
 1740 0164 73743737 		.ascii	"st7789: set display brightness failed.\012\000"
 1740      38393A20 
 1740      73657420 
 1740      64697370 
 1740      6C617920 
 1741              	.LC14:
 1742 018c 73743737 		.ascii	"st7789: set display control failed.\012\000"
 1742      38393A20 
 1742      73657420 
 1742      64697370 
 1742      6C617920 
 1743 01b1 000000   		.space	3
 1744              	.LC15:
 1745 01b4 73743737 		.ascii	"st7789: set brightness control and color enhancemen"
 1745      38393A20 
 1745      73657420 
 1745      62726967 
 1745      68746E65 
 1746 01e7 74206661 		.ascii	"t failed.\012\000"
 1746      696C6564 
 1746      2E0A00
 1747 01f2 0000     		.space	2
 1748              	.LC16:
 1749 01f4 73743737 		.ascii	"st7789: set cabc minimum brightness failed.\012\000"
 1749      38393A20 
 1749      73657420 
 1749      63616263 
 1749      206D696E 
 1750 0221 000000   		.space	3
 1751              	.LC17:
 1752 0224 73743737 		.ascii	"st7789: set ram control failed.\012\000"
 1752      38393A20 
 1752      73657420 
 1752      72616D20 
 1752      636F6E74 
 1753 0245 000000   		.space	3
 1754              	.LC18:
 1755 0248 73743737 		.ascii	"st7789: set rgb interface control failed.\012\000"
 1755      38393A20 
 1755      73657420 
 1755      72676220 
 1755      696E7465 
 1756 0273 00       		.space	1
 1757              	.LC19:
 1758 0274 73743737 		.ascii	"st7789: set porch failed.\012\000"
 1758      38393A20 
 1758      73657420 
ARM GAS  C:\Users\haske\AppData\Local\Temp\cc2s3UCZ.s 			page 47


 1758      706F7263 
 1758      68206661 
 1759 028f 00       		.space	1
 1760              	.LC20:
 1761 0290 73743737 		.ascii	"st7789: set frame rate control failed.\012\000"
 1761      38393A20 
 1761      73657420 
 1761      6672616D 
 1761      65207261 
 1762              	.LC21:
 1763 02b8 73743737 		.ascii	"st7789: set partial mode control failed.\012\000"
 1763      38393A20 
 1763      73657420 
 1763      70617274 
 1763      69616C20 
 1764 02e2 0000     		.space	2
 1765              	.LC22:
 1766 02e4 73743737 		.ascii	"st7789: set gate control failed.\012\000"
 1766      38393A20 
 1766      73657420 
 1766      67617465 
 1766      20636F6E 
 1767 0306 0000     		.space	2
 1768              	.LC23:
 1769 0308 73743737 		.ascii	"st7789: set gate on timing adjustment failed.\012\000"
 1769      38393A20 
 1769      73657420 
 1769      67617465 
 1769      206F6E20 
 1770 0337 00       		.space	1
 1771              	.LC24:
 1772 0338 73743737 		.ascii	"st7789: set digital gamma failed.\012\000"
 1772      38393A20 
 1772      73657420 
 1772      64696769 
 1772      74616C20 
 1773 035b 00       		.space	1
 1774              	.LC25:
 1775 035c 73743737 		.ascii	"st7789: vcom convert to register failed.\012\000"
 1775      38393A20 
 1775      76636F6D 
 1775      20636F6E 
 1775      76657274 
 1776 0386 0000     		.space	2
 1777              	.LC26:
 1778 0388 73743737 		.ascii	"st7789: set vcoms failed.\012\000"
 1778      38393A20 
 1778      73657420 
 1778      76636F6D 
 1778      73206661 
 1779 03a3 00       		.space	1
 1780              	.LC27:
 1781 03a4 73743737 		.ascii	"st7789: set lcm control failed.\012\000"
 1781      38393A20 
 1781      73657420 
 1781      6C636D20 
 1781      636F6E74 
ARM GAS  C:\Users\haske\AppData\Local\Temp\cc2s3UCZ.s 			page 48


 1782 03c5 000000   		.space	3
 1783              	.LC28:
 1784 03c8 73743737 		.ascii	"st7789: set vdv vrh from failed.\012\000"
 1784      38393A20 
 1784      73657420 
 1784      76647620 
 1784      76726820 
 1785 03ea 0000     		.space	2
 1786              	.LC29:
 1787 03ec 73743737 		.ascii	"st7789: vrhs convert to register failed.\012\000"
 1787      38393A20 
 1787      76726873 
 1787      20636F6E 
 1787      76657274 
 1788 0416 0000     		.space	2
 1789              	.LC30:
 1790 0418 73743737 		.ascii	"st7789: set vrhs failed.\012\000"
 1790      38393A20 
 1790      73657420 
 1790      76726873 
 1790      20666169 
 1791 0432 0000     		.space	2
 1792              	.LC31:
 1793 0434 73743737 		.ascii	"st7789: vdv convert to register failed.\012\000"
 1793      38393A20 
 1793      76647620 
 1793      636F6E76 
 1793      65727420 
 1794 045d 000000   		.space	3
 1795              	.LC32:
 1796 0460 73743737 		.ascii	"st7789: set vdv failed.\012\000"
 1796      38393A20 
 1796      73657420 
 1796      76647620 
 1796      6661696C 
 1797 0479 000000   		.space	3
 1798              	.LC33:
 1799 047c 73743737 		.ascii	"st7789: vcoms offset convert to register failed.\012"
 1799      38393A20 
 1799      76636F6D 
 1799      73206F66 
 1799      66736574 
 1800 04ad 00       		.ascii	"\000"
 1801 04ae 0000     		.space	2
 1802              	.LC34:
 1803 04b0 73743737 		.ascii	"st7789: set vcoms offset failed.\012\000"
 1803      38393A20 
 1803      73657420 
 1803      76636F6D 
 1803      73206F66 
 1804 04d2 0000     		.space	2
 1805              	.LC35:
 1806 04d4 73743737 		.ascii	"st7789: set frame rate failed.\012\000"
 1806      38393A20 
 1806      73657420 
 1806      6672616D 
 1806      65207261 
ARM GAS  C:\Users\haske\AppData\Local\Temp\cc2s3UCZ.s 			page 49


 1807              	.LC36:
 1808 04f4 73743737 		.ascii	"st7789: set cabc control failed.\012\000"
 1808      38393A20 
 1808      73657420 
 1808      63616263 
 1808      20636F6E 
 1809 0516 0000     		.space	2
 1810              	.LC37:
 1811 0518 73743737 		.ascii	"st7789: set pwm frequency failed.\012\000"
 1811      38393A20 
 1811      73657420 
 1811      70776D20 
 1811      66726571 
 1812 053b 00       		.space	1
 1813              	.LC38:
 1814 053c 73743737 		.ascii	"st7789: set power control 1 failed.\012\000"
 1814      38393A20 
 1814      73657420 
 1814      706F7765 
 1814      7220636F 
 1815 0561 000000   		.space	3
 1816              	.LC39:
 1817 0564 73743737 		.ascii	"st7789: set command 2 enable failed.\012\000"
 1817      38393A20 
 1817      73657420 
 1817      636F6D6D 
 1817      616E6420 
 1818 058a 0000     		.space	2
 1819              	.LC40:
 1820 058c 73743737 		.ascii	"st7789: set positive voltage gamma control failed.\012"
 1820      38393A20 
 1820      73657420 
 1820      706F7369 
 1820      74697665 
 1821 05bf 00       		.ascii	"\000"
 1822              	.LC41:
 1823 05c0 73743737 		.ascii	"st7789: set negative voltage gamma control failed.\012"
 1823      38393A20 
 1823      73657420 
 1823      6E656761 
 1823      74697665 
 1824 05f3 00       		.ascii	"\000"
 1825              	.LC42:
 1826 05f4 73743737 		.ascii	"st7789: set digital gamma look up table red ailed.\012"
 1826      38393A20 
 1826      73657420 
 1826      64696769 
 1826      74616C20 
 1827 0627 00       		.ascii	"\000"
 1828              	.LC43:
 1829 0628 73743737 		.ascii	"st7789: set digital gamma look up table blue ailed."
 1829      38393A20 
 1829      73657420 
 1829      64696769 
 1829      74616C20 
 1830 065b 0A00     		.ascii	"\012\000"
 1831 065d 000000   		.space	3
ARM GAS  C:\Users\haske\AppData\Local\Temp\cc2s3UCZ.s 			page 50


 1832              	.LC44:
 1833 0660 73743737 		.ascii	"st7789: gate line convert to register failed.\012\000"
 1833      38393A20 
 1833      67617465 
 1833      206C696E 
 1833      6520636F 
 1834 068f 00       		.space	1
 1835              	.LC45:
 1836 0690 73743737 		.ascii	"st7789: set gate failed.\012\000"
 1836      38393A20 
 1836      73657420 
 1836      67617465 
 1836      20666169 
 1837 06aa 0000     		.space	2
 1838              	.LC46:
 1839 06ac 73743737 		.ascii	"st7789: set spi2 enable failed.\012\000"
 1839      38393A20 
 1839      73657420 
 1839      73706932 
 1839      20656E61 
 1840 06cd 000000   		.space	3
 1841              	.LC47:
 1842 06d0 73743737 		.ascii	"st7789: set power control 2 failed.\012\000"
 1842      38393A20 
 1842      73657420 
 1842      706F7765 
 1842      7220636F 
 1843 06f5 000000   		.space	3
 1844              	.LC48:
 1845 06f8 73743737 		.ascii	"st7789: set equalize time control failed.\012\000"
 1845      38393A20 
 1845      73657420 
 1845      65717561 
 1845      6C697A65 
 1846 0723 00       		.space	1
 1847              	.LC49:
 1848 0724 73743737 		.ascii	"st7789: set program mode enable ailed.\012\000"
 1848      38393A20 
 1848      73657420 
 1848      70726F67 
 1848      72616D20 
 1849              	.LC50:
 1850 074c 73743737 		.ascii	"st7789: display on failed.\012\000"
 1850      38393A20 
 1850      64697370 
 1850      6C617920 
 1850      6F6E2066 
 1851              	.LC51:
 1852 0768 73743737 		.ascii	"st7789: clear failed.\012\000"
 1852      38393A20 
 1852      636C6561 
 1852      72206661 
 1852      696C6564 
 1853              		.bss
 1854              		.align	2
 1855              		.set	.LANCHOR1,. + 0
 1856              		.type	gs_handle, %object
ARM GAS  C:\Users\haske\AppData\Local\Temp\cc2s3UCZ.s 			page 51


 1857              		.size	gs_handle, 4156
 1858              	gs_handle:
 1859 0000 00000000 		.space	4156
 1859      00000000 
 1859      00000000 
 1859      00000000 
 1859      00000000 
 1860              		.text
 1861              	.Letext0:
 1862              		.file 2 "c:\\program files (x86)\\cypress\\psoc creator\\4.4\\psoc creator\\import\\gnu\\arm\\5.4.
 1863              		.file 3 "c:\\program files (x86)\\cypress\\psoc creator\\4.4\\psoc creator\\import\\gnu\\arm\\5.4.
 1864              		.file 4 "driver_st7789.h"
 1865              		.file 5 "Generated_Source\\PSoC6\\pdl\\drivers/peripheral/device/cy_device.h"
 1866              		.file 6 "Generated_Source\\PSoC6\\pdl\\drivers/peripheral/i2s/cy_i2s.h"
 1867              		.file 7 "Generated_Source\\PSoC6\\pdl\\drivers/peripheral/sar/cy_sar.h"
 1868              		.file 8 "Generated_Source\\PSoC6\\pdl\\drivers/peripheral/scb/cy_scb_spi.h"
 1869              		.file 9 "Generated_Source\\PSoC6\\pdl\\drivers/peripheral/tcpwm/cy_tcpwm_pwm.h"
 1870              		.file 10 "Generated_Source\\PSoC6\\pdl\\middleware/ble/cy_ble_stack.h"
 1871              		.file 11 "Generated_Source\\PSoC6\\pdl\\middleware/ble/cy_ble_stack_host_main.h"
 1872              		.file 12 "Generated_Source\\PSoC6\\pdl\\middleware/ble/cy_ble_gap.h"
 1873              		.file 13 "Generated_Source\\PSoC6/ADC.h"
 1874              		.file 14 "Generated_Source\\PSoC6\\pdl\\cmsis/include/core_cm4.h"
 1875              		.file 15 "Generated_Source\\PSoC6/SPI.h"
 1876              		.file 16 "Generated_Source\\PSoC6/PWM_TENS2.h"
 1877              		.file 17 "Generated_Source\\PSoC6/AMP_PWM.h"
 1878              		.file 18 "Generated_Source\\PSoC6/PWM_TENS.h"
 1879              		.file 19 "Generated_Source\\PSoC6/PWM_FAN.h"
 1880              		.file 20 "Generated_Source\\PSoC6/LCD_PWM.h"
 1881              		.file 21 "Generated_Source\\PSoC6/I2S.h"
 1882              		.file 22 "Generated_Source\\PSoC6/PWM_PEL1.h"
 1883              		.file 23 "Generated_Source\\PSoC6/PWM_PEL2.h"
 1884              		.file 24 "myprintf.h"