ARM GAS  C:\Users\haske\AppData\Local\Temp\cc9TNOGL.s 			page 1


   1              		.syntax unified
   2              		.cpu cortex-m4
   3              		.eabi_attribute 27, 1
   4              		.fpu fpv4-sp-d16
   5              		.eabi_attribute 20, 1
   6              		.eabi_attribute 21, 1
   7              		.eabi_attribute 23, 3
   8              		.eabi_attribute 24, 1
   9              		.eabi_attribute 25, 1
  10              		.eabi_attribute 26, 1
  11              		.eabi_attribute 30, 1
  12              		.eabi_attribute 34, 1
  13              		.eabi_attribute 18, 4
  14              		.thumb
  15              		.syntax unified
  16              		.file	"driver_st7789.c"
  17              		.text
  18              	.Ltext0:
  19              		.cfi_sections	.debug_frame
  20              		.section	.text.a_st7789_write_byte,"ax",%progbits
  21              		.align	2
  22              		.thumb
  23              		.thumb_func
  24              		.type	a_st7789_write_byte, %function
  25              	a_st7789_write_byte:
  26              	.LFB864:
  27              		.file 1 "driver_st7789.c"
   1:driver_st7789.c **** /**
   2:driver_st7789.c ****  * Copyright (c) 2015 - present LibDriver All rights reserved
   3:driver_st7789.c ****  *
   4:driver_st7789.c ****  * The MIT License (MIT)
   5:driver_st7789.c ****  *
   6:driver_st7789.c ****  * Permission is hereby granted, free of charge, to any person obtaining a copy
   7:driver_st7789.c ****  * of this software and associated documentation files (the "Software"), to deal
   8:driver_st7789.c ****  * in the Software without restriction, including without limitation the rights
   9:driver_st7789.c ****  * to use, copy, modify, merge, publish, distribute, sublicense, and/or sell
  10:driver_st7789.c ****  * copies of the Software, and to permit persons to whom the Software is
  11:driver_st7789.c ****  * furnished to do so, subject to the following conditions:
  12:driver_st7789.c ****  *
  13:driver_st7789.c ****  * The above copyright notice and this permission notice shall be included in all
  14:driver_st7789.c ****  * copies or substantial portions of the Software.
  15:driver_st7789.c ****  *
  16:driver_st7789.c ****  * THE SOFTWARE IS PROVIDED "AS IS", WITHOUT WARRANTY OF ANY KIND, EXPRESS OR
  17:driver_st7789.c ****  * IMPLIED, INCLUDING BUT NOT LIMITED TO THE WARRANTIES OF MERCHANTABILITY,
  18:driver_st7789.c ****  * FITNESS FOR A PARTICULAR PURPOSE AND NONINFRINGEMENT. IN NO EVENT SHALL THE
  19:driver_st7789.c ****  * AUTHORS OR COPYRIGHT HOLDERS BE LIABLE FOR ANY CLAIM, DAMAGES OR OTHER
  20:driver_st7789.c ****  * LIABILITY, WHETHER IN AN ACTION OF CONTRACT, TORT OR OTHERWISE, ARISING FROM,
  21:driver_st7789.c ****  * OUT OF OR IN CONNECTION WITH THE SOFTWARE OR THE USE OR OTHER DEALINGS IN THE
  22:driver_st7789.c ****  * SOFTWARE.
  23:driver_st7789.c ****  *
  24:driver_st7789.c ****  * @file      driver_st7789.c
  25:driver_st7789.c ****  * @brief     driver st7789 source file
  26:driver_st7789.c ****  * @version   1.0.0
  27:driver_st7789.c ****  * @author    Shifeng Li
  28:driver_st7789.c ****  * @date      2023-04-15
  29:driver_st7789.c ****  *
  30:driver_st7789.c ****  * <h3>history</h3>
ARM GAS  C:\Users\haske\AppData\Local\Temp\cc9TNOGL.s 			page 2


  31:driver_st7789.c ****  * <table>
  32:driver_st7789.c ****  * <tr><th>Date        <th>Version  <th>Author      <th>Description
  33:driver_st7789.c ****  * <tr><td>2023/04/15  <td>1.0      <td>Shifeng Li  <td>first upload
  34:driver_st7789.c ****  * </table>
  35:driver_st7789.c ****  */
  36:driver_st7789.c **** 
  37:driver_st7789.c **** #include "driver_st7789.h"
  38:driver_st7789.c **** #include "driver_st7789_font.h"
  39:driver_st7789.c **** #include "debug.h"
  40:driver_st7789.c **** /**
  41:driver_st7789.c ****  * @brief chip information definition
  42:driver_st7789.c ****  */
  43:driver_st7789.c **** #define CHIP_NAME                 "Sitronix ST7789"        /**< chip name */
  44:driver_st7789.c **** #define MANUFACTURER_NAME         "Sitronix"               /**< manufacturer name */
  45:driver_st7789.c **** #define SUPPLY_VOLTAGE_MIN        2.4f                     /**< chip min supply voltage */
  46:driver_st7789.c **** #define SUPPLY_VOLTAGE_MAX        3.3f                     /**< chip max supply voltage */
  47:driver_st7789.c **** #define MAX_CURRENT               7.5f                     /**< chip max current */
  48:driver_st7789.c **** #define TEMPERATURE_MIN           -30.0f                   /**< chip min operating temperature */
  49:driver_st7789.c **** #define TEMPERATURE_MAX           85.0f                    /**< chip max operating temperature */
  50:driver_st7789.c **** #define DRIVER_VERSION            1000                     /**< driver version */
  51:driver_st7789.c **** 
  52:driver_st7789.c **** /**
  53:driver_st7789.c ****  * @brief command data type definition
  54:driver_st7789.c ****  */
  55:driver_st7789.c **** #define ST7789_CMD         0        /**< command type */
  56:driver_st7789.c **** #define ST7789_DATA        1        /**< data type */
  57:driver_st7789.c **** 
  58:driver_st7789.c **** /**
  59:driver_st7789.c ****  * @brief chip command definition
  60:driver_st7789.c ****  */
  61:driver_st7789.c **** #define ST7789_CMD_NOP             0x00        /**< no operation command */
  62:driver_st7789.c **** #define ST7789_CMD_SWRESET         0x01        /**< software reset command */
  63:driver_st7789.c **** #define ST7789_CMD_SLPIN           0x10        /**< sleep in command */
  64:driver_st7789.c **** #define ST7789_CMD_SLPOUT          0x11        /**< sleep out command */
  65:driver_st7789.c **** #define ST7789_CMD_PTLON           0x12        /**< partial mode on command */
  66:driver_st7789.c **** #define ST7789_CMD_NORON           0x13        /**< normal display mode on command */
  67:driver_st7789.c **** #define ST7789_CMD_INVOFF          0x20        /**< display inversion off command */
  68:driver_st7789.c **** #define ST7789_CMD_INVON           0x21        /**< display inversion on command */
  69:driver_st7789.c **** #define ST7789_CMD_GAMSET          0x26        /**< display inversion set command */
  70:driver_st7789.c **** #define ST7789_CMD_DISPOFF         0x28        /**< display off command */
  71:driver_st7789.c **** #define ST7789_CMD_DISPON          0x29        /**< display on command */
  72:driver_st7789.c **** #define ST7789_CMD_CASET           0x2A        /**< column address set command */
  73:driver_st7789.c **** #define ST7789_CMD_RASET           0x2B        /**< row address set command */
  74:driver_st7789.c **** #define ST7789_CMD_RAMWR           0x2C        /**< memory write command */
  75:driver_st7789.c **** #define ST7789_CMD_PTLAR           0x30        /**< partial start/end address set command */
  76:driver_st7789.c **** #define ST7789_CMD_VSCRDEF         0x33        /**< vertical scrolling definition command */
  77:driver_st7789.c **** #define ST7789_CMD_TEOFF           0x34        /**< tearing effect line off command */
  78:driver_st7789.c **** #define ST7789_CMD_TEON            0x35        /**< tearing effect line on command */
  79:driver_st7789.c **** #define ST7789_CMD_MADCTL          0x36        /**< memory data access control command */
  80:driver_st7789.c **** #define ST7789_CMD_VSCRSADD        0x37        /**< vertical scrolling start address command */
  81:driver_st7789.c **** #define ST7789_CMD_IDMOFF          0x38        /**< idle mode off command */
  82:driver_st7789.c **** #define ST7789_CMD_IDMON           0x39        /**< idle mode on command */
  83:driver_st7789.c **** #define ST7789_CMD_COLMOD          0x3A        /**< interface pixel format command */
  84:driver_st7789.c **** #define ST7789_CMD_RAMWRC          0x3C        /**< memory write continue command */
  85:driver_st7789.c **** #define ST7789_CMD_TESCAN          0x44        /**< set tear scanline command */
  86:driver_st7789.c **** #define ST7789_CMD_WRDISBV         0x51        /**< write display brightness command */
  87:driver_st7789.c **** #define ST7789_CMD_WRCTRLD         0x53        /**< write CTRL display command */
ARM GAS  C:\Users\haske\AppData\Local\Temp\cc9TNOGL.s 			page 3


  88:driver_st7789.c **** #define ST7789_CMD_WRCACE          0x55        /**< write content adaptive brightness control and c
  89:driver_st7789.c **** #define ST7789_CMD_WRCABCMB        0x5E        /**< write CABC minimum brightness command */
  90:driver_st7789.c **** #define ST7789_CMD_RAMCTRL         0xB0        /**< ram control command */
  91:driver_st7789.c **** #define ST7789_CMD_RGBCTRL         0xB1        /**< rgb control command */
  92:driver_st7789.c **** #define ST7789_CMD_PORCTRL         0xB2        /**< porch control command */
  93:driver_st7789.c **** #define ST7789_CMD_FRCTRL1         0xB3        /**< frame rate control 1 command */
  94:driver_st7789.c **** #define ST7789_CMD_PARCTRL         0xB5        /**< partial mode control command */
  95:driver_st7789.c **** #define ST7789_CMD_GCTRL           0xB7        /**< gate control command */
  96:driver_st7789.c **** #define ST7789_CMD_GTADJ           0xB8        /**< gate on timing adjustment command */
  97:driver_st7789.c **** #define ST7789_CMD_DGMEN           0xBA        /**< digital gamma enable command */
  98:driver_st7789.c **** #define ST7789_CMD_VCOMS           0xBB        /**< vcoms setting command */
  99:driver_st7789.c **** #define ST7789_CMD_LCMCTRL         0xC0        /**< lcm control command */
 100:driver_st7789.c **** #define ST7789_CMD_IDSET           0xC1        /**< id setting command */
 101:driver_st7789.c **** #define ST7789_CMD_VDVVRHEN        0xC2        /**< vdv and vrh command enable command */
 102:driver_st7789.c **** #define ST7789_CMD_VRHS            0xC3        /**< vrh set command */
 103:driver_st7789.c **** #define ST7789_CMD_VDVSET          0xC4        /**< vdv setting command */
 104:driver_st7789.c **** #define ST7789_CMD_VCMOFSET        0xC5        /**< vcoms offset set command */
 105:driver_st7789.c **** #define ST7789_CMD_FRCTR2          0xC6        /**< fr control 2 command */
 106:driver_st7789.c **** #define ST7789_CMD_CABCCTRL        0xC7        /**< cabc control command */
 107:driver_st7789.c **** #define ST7789_CMD_REGSEL1         0xC8        /**< register value selection1 command */
 108:driver_st7789.c **** #define ST7789_CMD_REGSEL2         0xCA        /**< register value selection2 command */
 109:driver_st7789.c **** #define ST7789_CMD_PWMFRSEL        0xCC        /**< pwm frequency selection command */
 110:driver_st7789.c **** #define ST7789_CMD_PWCTRL1         0xD0        /**< power control 1 command */
 111:driver_st7789.c **** #define ST7789_CMD_VAPVANEN        0xD2        /**< enable vap/van signal output command */
 112:driver_st7789.c **** #define ST7789_CMD_CMD2EN          0xDF        /**< command 2 enable command */
 113:driver_st7789.c **** #define ST7789_CMD_PVGAMCTRL       0xE0        /**< positive voltage gamma control command */
 114:driver_st7789.c **** #define ST7789_CMD_NVGAMCTRL       0xE1        /**< negative voltage gamma control command */
 115:driver_st7789.c **** #define ST7789_CMD_DGMLUTR         0xE2        /**< digital gamma look-up table for red command */
 116:driver_st7789.c **** #define ST7789_CMD_DGMLUTB         0xE3        /**< digital gamma look-up table for blue command */
 117:driver_st7789.c **** #define ST7789_CMD_GATECTRL        0xE4        /**< gate control command */
 118:driver_st7789.c **** #define ST7789_CMD_SPI2EN          0xE7        /**< spi2 command */
 119:driver_st7789.c **** #define ST7789_CMD_PWCTRL2         0xE8        /**< power control 2 command */
 120:driver_st7789.c **** #define ST7789_CMD_EQCTRL          0xE9        /**< equalize time control command */
 121:driver_st7789.c **** #define ST7789_CMD_PROMCTRL        0xEC        /**< program control command */
 122:driver_st7789.c **** #define ST7789_CMD_PROMEN          0xFA        /**< program mode enable command */
 123:driver_st7789.c **** #define ST7789_CMD_NVMSET          0xFC        /**< nvm setting command */
 124:driver_st7789.c **** #define ST7789_CMD_PROMACT         0xFE        /**< program action command */
 125:driver_st7789.c **** 
 126:driver_st7789.c **** /**
 127:driver_st7789.c ****  * @brief     write one byte
 128:driver_st7789.c ****  * @param[in] *handle points to an st7789 handle structure
 129:driver_st7789.c ****  * @param[in] data is the write data
 130:driver_st7789.c ****  * @param[in] cmd is the data type
 131:driver_st7789.c ****  * @return    status code
 132:driver_st7789.c ****  *            - 0 success
 133:driver_st7789.c ****  *            - 1 write failed
 134:driver_st7789.c ****  * @note      none
 135:driver_st7789.c ****  */
 136:driver_st7789.c **** static uint8_t a_st7789_write_byte(st7789_handle_t *handle, uint8_t data, uint8_t cmd)
 137:driver_st7789.c **** {
  28              		.loc 1 137 0
  29              		.cfi_startproc
  30              		@ args = 0, pretend = 0, frame = 8
  31              		@ frame_needed = 0, uses_anonymous_args = 0
  32              	.LVL0:
  33 0000 10B5     		push	{r4, lr}
  34              		.cfi_def_cfa_offset 8
ARM GAS  C:\Users\haske\AppData\Local\Temp\cc9TNOGL.s 			page 4


  35              		.cfi_offset 4, -8
  36              		.cfi_offset 14, -4
  37 0002 82B0     		sub	sp, sp, #8
  38              		.cfi_def_cfa_offset 16
  39 0004 0446     		mov	r4, r0
  40 0006 8DF80710 		strb	r1, [sp, #7]
 138:driver_st7789.c ****     uint8_t res;
 139:driver_st7789.c **** 
 140:driver_st7789.c ****     res = handle->cmd_data_gpio_write(cmd);        /* write gpio */
  41              		.loc 1 140 0
  42 000a 4369     		ldr	r3, [r0, #20]
  43 000c 1046     		mov	r0, r2
  44              	.LVL1:
  45 000e 9847     		blx	r3
  46              	.LVL2:
 141:driver_st7789.c ****     if (res != 0)                                  /* check result */
  47              		.loc 1 141 0
  48 0010 20B1     		cbz	r0, .L2
 142:driver_st7789.c ****     {
 143:driver_st7789.c ****         DBG_PRINTF("GPIO write HERE\r\n");
  49              		.loc 1 143 0
  50 0012 0948     		ldr	r0, .L6
  51              	.LVL3:
  52 0014 FFF7FEFF 		bl	myprintf
  53              	.LVL4:
 144:driver_st7789.c ****         return 1;                                  /* return error */
  54              		.loc 1 144 0
  55 0018 0120     		movs	r0, #1
  56 001a 0BE0     		b	.L3
  57              	.LVL5:
  58              	.L2:
 145:driver_st7789.c ****     }
 146:driver_st7789.c ****     res = handle->spi_write_cmd(&data, 1);         /* write data command */
  59              		.loc 1 146 0
  60 001c A368     		ldr	r3, [r4, #8]
  61 001e 0121     		movs	r1, #1
  62 0020 0DF10700 		add	r0, sp, #7
  63              	.LVL6:
  64 0024 9847     		blx	r3
  65              	.LVL7:
 147:driver_st7789.c ****     if (res != 0)                                  /* check result */
  66              		.loc 1 147 0
  67 0026 20B1     		cbz	r0, .L4
 148:driver_st7789.c ****     {
 149:driver_st7789.c ****         DBG_PRINTF("SPI write HERE\r\n");
  68              		.loc 1 149 0
  69 0028 0448     		ldr	r0, .L6+4
  70              	.LVL8:
  71 002a FFF7FEFF 		bl	myprintf
  72              	.LVL9:
 150:driver_st7789.c ****         return 1;                                  /* return error */
  73              		.loc 1 150 0
  74 002e 0120     		movs	r0, #1
  75 0030 00E0     		b	.L3
  76              	.LVL10:
  77              	.L4:
 151:driver_st7789.c ****     }
ARM GAS  C:\Users\haske\AppData\Local\Temp\cc9TNOGL.s 			page 5


 152:driver_st7789.c **** 
 153:driver_st7789.c ****     return 0;                                      /* success return 0 */
  78              		.loc 1 153 0
  79 0032 0020     		movs	r0, #0
  80              	.LVL11:
  81              	.L3:
 154:driver_st7789.c **** }
  82              		.loc 1 154 0
  83 0034 02B0     		add	sp, sp, #8
  84              		.cfi_def_cfa_offset 8
  85              		@ sp needed
  86 0036 10BD     		pop	{r4, pc}
  87              	.LVL12:
  88              	.L7:
  89              		.align	2
  90              	.L6:
  91 0038 00000000 		.word	.LC0
  92 003c 14000000 		.word	.LC1
  93              		.cfi_endproc
  94              	.LFE864:
  95              		.size	a_st7789_write_byte, .-a_st7789_write_byte
  96              		.section	.text.a_st7789_write_bytes,"ax",%progbits
  97              		.align	2
  98              		.thumb
  99              		.thumb_func
 100              		.type	a_st7789_write_bytes, %function
 101              	a_st7789_write_bytes:
 102              	.LFB865:
 155:driver_st7789.c **** 
 156:driver_st7789.c **** /**
 157:driver_st7789.c ****  * @brief     write bytes
 158:driver_st7789.c ****  * @param[in] *handle points to an st7789 handle structure
 159:driver_st7789.c ****  * @param[in] *data points to a data buffer
 160:driver_st7789.c ****  * @param[in] len is the data length
 161:driver_st7789.c ****  * @param[in] cmd is the data type
 162:driver_st7789.c ****  * @return    status code
 163:driver_st7789.c ****  *            - 0 success
 164:driver_st7789.c ****  *            - 1 write failed
 165:driver_st7789.c ****  * @note      none
 166:driver_st7789.c ****  */
 167:driver_st7789.c **** /*
 168:driver_st7789.c **** static uint8_t a_st7789_write_bytes(st7789_handle_t *handle, uint16_t *data, uint16_t len, uint8_t 
 169:driver_st7789.c **** {
 170:driver_st7789.c ****     uint8_t res;
 171:driver_st7789.c ****     uint16_t data1;
 172:driver_st7789.c ****     data = cmd << 8;
 173:driver_st7789.c ****     res = handle->cmd_data_gpio_write(cmd);         //write gpio
 174:driver_st7789.c ****     if (res != 0)                                   //check result
 175:driver_st7789.c ****     {
 176:driver_st7789.c ****         DBG_PRINTF("HERE 1\r\n");
 177:driver_st7789.c ****         return 1;                                   //return error
 178:driver_st7789.c ****     }
 179:driver_st7789.c ****     res = handle->spi_write_cmd(data, len);         //write data command
 180:driver_st7789.c ****     if (res != 0)                                   //check result
 181:driver_st7789.c ****     {
 182:driver_st7789.c ****         DBG_PRINTF("HERE 2\r\n");
 183:driver_st7789.c ****         return 1;                                   //return error
ARM GAS  C:\Users\haske\AppData\Local\Temp\cc9TNOGL.s 			page 6


 184:driver_st7789.c ****     }
 185:driver_st7789.c **** 
 186:driver_st7789.c ****     return 0;                                       //success return 0
 187:driver_st7789.c **** }
 188:driver_st7789.c **** */
 189:driver_st7789.c **** static uint8_t a_st7789_write_bytes(st7789_handle_t *handle, uint8_t *data, uint16_t len, uint8_t c
 190:driver_st7789.c **** {
 103              		.loc 1 190 0
 104              		.cfi_startproc
 105              		@ args = 0, pretend = 0, frame = 0
 106              		@ frame_needed = 1, uses_anonymous_args = 0
 107              	.LVL13:
 108 0000 2DE9F041 		push	{r4, r5, r6, r7, r8, lr}
 109              		.cfi_def_cfa_offset 24
 110              		.cfi_offset 4, -24
 111              		.cfi_offset 5, -20
 112              		.cfi_offset 6, -16
 113              		.cfi_offset 7, -12
 114              		.cfi_offset 8, -8
 115              		.cfi_offset 14, -4
 116 0004 00AF     		add	r7, sp, #0
 117              		.cfi_def_cfa_register 7
 118 0006 8046     		mov	r8, r0
 119 0008 1646     		mov	r6, r2
 120              	.LVL14:
 191:driver_st7789.c ****     uint8_t res;
 192:driver_st7789.c ****     uint16_t words[len];
 121              		.loc 1 192 0
 122 000a 1046     		mov	r0, r2
 123              	.LVL15:
 124 000c 5200     		lsls	r2, r2, #1
 125              	.LVL16:
 126 000e 0832     		adds	r2, r2, #8
 127 0010 22F00702 		bic	r2, r2, #7
 128 0014 ADEB020D 		sub	sp, sp, r2
 129 0018 6D46     		mov	r5, sp
 130              	.LVL17:
 131              	.LBB2:
 193:driver_st7789.c ****     for (unsigned int i = 0; i<len; i++) {
 132              		.loc 1 193 0
 133 001a 0022     		movs	r2, #0
 134 001c 05E0     		b	.L9
 135              	.LVL18:
 136              	.L10:
 194:driver_st7789.c ****         words[i] = data[i] | (cmd<<8);
 137              		.loc 1 194 0 discriminator 3
 138 001e 8C5C     		ldrb	r4, [r1, r2]	@ zero_extendqisi2
 139 0020 44EA0324 		orr	r4, r4, r3, lsl #8
 140 0024 25F81240 		strh	r4, [r5, r2, lsl #1]	@ movhi
 193:driver_st7789.c ****     for (unsigned int i = 0; i<len; i++) {
 141              		.loc 1 193 0 discriminator 3
 142 0028 0132     		adds	r2, r2, #1
 143              	.LVL19:
 144              	.L9:
 193:driver_st7789.c ****     for (unsigned int i = 0; i<len; i++) {
 145              		.loc 1 193 0 is_stmt 0 discriminator 1
 146 002a 8242     		cmp	r2, r0
ARM GAS  C:\Users\haske\AppData\Local\Temp\cc9TNOGL.s 			page 7


 147 002c F7D3     		bcc	.L10
 148              	.LBE2:
 195:driver_st7789.c ****     }
 196:driver_st7789.c ****     res = handle->cmd_data_gpio_write(cmd);        /* write gpio */
 149              		.loc 1 196 0 is_stmt 1
 150 002e D8F81420 		ldr	r2, [r8, #20]
 151              	.LVL20:
 152 0032 1846     		mov	r0, r3
 153 0034 9047     		blx	r2
 154              	.LVL21:
 197:driver_st7789.c ****     if (res != 0)                                  /* check result */
 155              		.loc 1 197 0
 156 0036 20B1     		cbz	r0, .L11
 198:driver_st7789.c ****     {
 199:driver_st7789.c ****         DBG_PRINTF("GPIO write HERE\r\n");
 157              		.loc 1 199 0
 158 0038 0948     		ldr	r0, .L15
 159              	.LVL22:
 160 003a FFF7FEFF 		bl	myprintf
 161              	.LVL23:
 200:driver_st7789.c ****         return 1;                                  /* return error */
 162              		.loc 1 200 0
 163 003e 0120     		movs	r0, #1
 164 0040 0BE0     		b	.L12
 165              	.LVL24:
 166              	.L11:
 201:driver_st7789.c ****     }
 202:driver_st7789.c ****     res = handle->spi_write_cmd(words, len);         //write data command
 167              		.loc 1 202 0
 168 0042 D8F80830 		ldr	r3, [r8, #8]
 169 0046 3146     		mov	r1, r6
 170 0048 2846     		mov	r0, r5
 171              	.LVL25:
 172 004a 9847     		blx	r3
 173              	.LVL26:
 203:driver_st7789.c ****     if (res != 0)                                   //check result
 174              		.loc 1 203 0
 175 004c 20B1     		cbz	r0, .L13
 204:driver_st7789.c ****     {
 205:driver_st7789.c ****         DBG_PRINTF("HERE 2\r\n");
 176              		.loc 1 205 0
 177 004e 0548     		ldr	r0, .L15+4
 178              	.LVL27:
 179 0050 FFF7FEFF 		bl	myprintf
 180              	.LVL28:
 206:driver_st7789.c ****         return 1;                                   //return error
 181              		.loc 1 206 0
 182 0054 0120     		movs	r0, #1
 183 0056 00E0     		b	.L12
 184              	.LVL29:
 185              	.L13:
 207:driver_st7789.c ****     }
 208:driver_st7789.c **** 
 209:driver_st7789.c ****     return 0;                                       //success return 0                             
 186              		.loc 1 209 0
 187 0058 0020     		movs	r0, #0
 188              	.LVL30:
ARM GAS  C:\Users\haske\AppData\Local\Temp\cc9TNOGL.s 			page 8


 189              	.L12:
 210:driver_st7789.c **** }
 190              		.loc 1 210 0
 191 005a BD46     		mov	sp, r7
 192              		.cfi_def_cfa_register 13
 193              		@ sp needed
 194 005c BDE8F081 		pop	{r4, r5, r6, r7, r8, pc}
 195              	.LVL31:
 196              	.L16:
 197              		.align	2
 198              	.L15:
 199 0060 00000000 		.word	.LC0
 200 0064 28000000 		.word	.LC2
 201              		.cfi_endproc
 202              	.LFE865:
 203              		.size	a_st7789_write_bytes, .-a_st7789_write_bytes
 204              		.section	.text.a_st7789_draw_point,"ax",%progbits
 205              		.align	2
 206              		.thumb
 207              		.thumb_func
 208              		.type	a_st7789_draw_point, %function
 209              	a_st7789_draw_point:
 210              	.LFB947:
 211:driver_st7789.c **** 
 212:driver_st7789.c **** 
 213:driver_st7789.c **** /**
 214:driver_st7789.c ****  * @brief     nop
 215:driver_st7789.c ****  * @param[in] *handle points to an st7789 handle structure
 216:driver_st7789.c ****  * @return    status code
 217:driver_st7789.c ****  *            - 0 success
 218:driver_st7789.c ****  *            - 1 nop failed
 219:driver_st7789.c ****  *            - 2 handle is NULL
 220:driver_st7789.c ****  *            - 3 handle is not initialized
 221:driver_st7789.c ****  * @note      none
 222:driver_st7789.c ****  */
 223:driver_st7789.c **** uint8_t st7789_nop(st7789_handle_t *handle)
 224:driver_st7789.c **** {
 225:driver_st7789.c ****     if (handle == NULL)                                                      /* check handle */
 226:driver_st7789.c ****     {
 227:driver_st7789.c ****         return 2;                                                            /* return error */
 228:driver_st7789.c ****     }
 229:driver_st7789.c ****     if (handle->inited != 1)                                                 /* check handle initia
 230:driver_st7789.c ****     {
 231:driver_st7789.c ****         return 3;                                                            /* return error */
 232:driver_st7789.c ****     }
 233:driver_st7789.c **** 
 234:driver_st7789.c ****     if (a_st7789_write_byte(handle, ST7789_CMD_NOP, ST7789_CMD) != 0)        /* write nop command *
 235:driver_st7789.c ****     {
 236:driver_st7789.c ****         handle->debug_print("st7789: write command failed.\n");              /* write command faile
 237:driver_st7789.c **** 
 238:driver_st7789.c ****         return 1;                                                            /* return error */
 239:driver_st7789.c ****     }
 240:driver_st7789.c **** 
 241:driver_st7789.c ****     return 0;                                                                /* success return 0 */
 242:driver_st7789.c **** }
 243:driver_st7789.c **** 
 244:driver_st7789.c **** /**
ARM GAS  C:\Users\haske\AppData\Local\Temp\cc9TNOGL.s 			page 9


 245:driver_st7789.c ****  * @brief     software reset
 246:driver_st7789.c ****  * @param[in] *handle points to an st7789 handle structure
 247:driver_st7789.c ****  * @return    status code
 248:driver_st7789.c ****  *            - 0 success
 249:driver_st7789.c ****  *            - 1 software reset failed
 250:driver_st7789.c ****  *            - 2 handle is NULL
 251:driver_st7789.c ****  *            - 3 handle is not initialized
 252:driver_st7789.c ****  * @note      none
 253:driver_st7789.c ****  */
 254:driver_st7789.c **** uint8_t st7789_software_reset(st7789_handle_t *handle)
 255:driver_st7789.c **** {
 256:driver_st7789.c ****     if (handle == NULL)                                                          /* check handle */
 257:driver_st7789.c ****     {
 258:driver_st7789.c ****         return 2;                                                                /* return error */
 259:driver_st7789.c ****     }
 260:driver_st7789.c ****     if (handle->inited != 1)                                                     /* check handle in
 261:driver_st7789.c ****     {
 262:driver_st7789.c ****         return 3;                                                                /* return error */
 263:driver_st7789.c ****     }
 264:driver_st7789.c **** 
 265:driver_st7789.c ****     if (a_st7789_write_byte(handle, ST7789_CMD_SWRESET, ST7789_CMD) != 0)        /* write software 
 266:driver_st7789.c ****     {
 267:driver_st7789.c ****         handle->debug_print("st7789: write command failed.\n");                  /* write command f
 268:driver_st7789.c **** 
 269:driver_st7789.c ****         return 1;                                                                /* return error */
 270:driver_st7789.c ****     }
 271:driver_st7789.c ****     handle->delay_ms(200);                                                       /* delay 200ms */
 272:driver_st7789.c **** 
 273:driver_st7789.c ****     return 0;                                                                    /* success return 
 274:driver_st7789.c **** }
 275:driver_st7789.c **** 
 276:driver_st7789.c **** /**
 277:driver_st7789.c ****  * @brief     sleep in
 278:driver_st7789.c ****  * @param[in] *handle points to an st7789 handle structure
 279:driver_st7789.c ****  * @return    status code
 280:driver_st7789.c ****  *            - 0 success
 281:driver_st7789.c ****  *            - 1 sleep in failed
 282:driver_st7789.c ****  *            - 2 handle is NULL
 283:driver_st7789.c ****  *            - 3 handle is not initialized
 284:driver_st7789.c ****  * @note      none
 285:driver_st7789.c ****  */
 286:driver_st7789.c **** uint8_t st7789_sleep_in(st7789_handle_t *handle)
 287:driver_st7789.c **** {
 288:driver_st7789.c ****     if (handle == NULL)                                                        /* check handle */
 289:driver_st7789.c ****     {
 290:driver_st7789.c ****         return 2;                                                              /* return error */
 291:driver_st7789.c ****     }
 292:driver_st7789.c ****     if (handle->inited != 1)                                                   /* check handle init
 293:driver_st7789.c ****     {
 294:driver_st7789.c ****         return 3;                                                              /* return error */
 295:driver_st7789.c ****     }
 296:driver_st7789.c **** 
 297:driver_st7789.c ****     if (a_st7789_write_byte(handle, ST7789_CMD_SLPIN, ST7789_CMD) != 0)        /* write sleep in co
 298:driver_st7789.c ****     {
 299:driver_st7789.c ****         handle->debug_print("st7789: write command failed.\n");                /* write command fai
 300:driver_st7789.c **** 
 301:driver_st7789.c ****         return 1;                                                              /* return error */
ARM GAS  C:\Users\haske\AppData\Local\Temp\cc9TNOGL.s 			page 10


 302:driver_st7789.c ****     }
 303:driver_st7789.c **** 
 304:driver_st7789.c ****     return 0;                                                                  /* success return 0 
 305:driver_st7789.c **** }
 306:driver_st7789.c **** 
 307:driver_st7789.c **** /**
 308:driver_st7789.c ****  * @brief     sleep out
 309:driver_st7789.c ****  * @param[in] *handle points to an st7789 handle structure
 310:driver_st7789.c ****  * @return    status code
 311:driver_st7789.c ****  *            - 0 success
 312:driver_st7789.c ****  *            - 1 sleep out failed
 313:driver_st7789.c ****  *            - 2 handle is NULL
 314:driver_st7789.c ****  *            - 3 handle is not initialized
 315:driver_st7789.c ****  * @note      none
 316:driver_st7789.c ****  */
 317:driver_st7789.c **** uint8_t st7789_sleep_out(st7789_handle_t *handle)
 318:driver_st7789.c **** {
 319:driver_st7789.c ****     handle->debug_print("HERE1\r\n");
 320:driver_st7789.c ****     if (handle == NULL)                                                         /* check handle */
 321:driver_st7789.c ****     {
 322:driver_st7789.c ****         //DBG_PRINTF("HERE 1\r\n");
 323:driver_st7789.c ****         handle->debug_print("HERE\r\n");
 324:driver_st7789.c ****         return 2;                                                               /* return error */
 325:driver_st7789.c ****     }
 326:driver_st7789.c ****     if (handle->inited != 1)                                                    /* check handle ini
 327:driver_st7789.c ****     {
 328:driver_st7789.c ****         //DBG_PRINTF("HERE 2\r\n");
 329:driver_st7789.c ****         handle->debug_print("HERE 2\r\n");
 330:driver_st7789.c ****         return 3;                                                               /* return error */
 331:driver_st7789.c ****     }
 332:driver_st7789.c **** 
 333:driver_st7789.c ****     if (a_st7789_write_byte(handle, ST7789_CMD_SLPOUT, ST7789_CMD) != 0)        /* write sleep out 
 334:driver_st7789.c ****     {
 335:driver_st7789.c ****         //DBG_PRINTF("HERE 3\r\n");
 336:driver_st7789.c ****         handle->debug_print("st7789: write command failed.\n");                 /* write command fa
 337:driver_st7789.c **** 
 338:driver_st7789.c ****         return 1;                                                               /* return error */
 339:driver_st7789.c ****     }
 340:driver_st7789.c ****     handle->delay_ms(200);                                                      /* delay 200ms */
 341:driver_st7789.c **** 
 342:driver_st7789.c ****     return 0;                                                                   /* success return 0
 343:driver_st7789.c **** }
 344:driver_st7789.c **** 
 345:driver_st7789.c **** /**
 346:driver_st7789.c ****  * @brief     partial display mode on
 347:driver_st7789.c ****  * @param[in] *handle points to an st7789 handle structure
 348:driver_st7789.c ****  * @return    status code
 349:driver_st7789.c ****  *            - 0 success
 350:driver_st7789.c ****  *            - 1 partial display mode on failed
 351:driver_st7789.c ****  *            - 2 handle is NULL
 352:driver_st7789.c ****  *            - 3 handle is not initialized
 353:driver_st7789.c ****  * @note      none
 354:driver_st7789.c ****  */
 355:driver_st7789.c **** uint8_t st7789_partial_display_mode_on(st7789_handle_t *handle)
 356:driver_st7789.c **** {
 357:driver_st7789.c ****     if (handle == NULL)                                                        /* check handle */
 358:driver_st7789.c ****     {
ARM GAS  C:\Users\haske\AppData\Local\Temp\cc9TNOGL.s 			page 11


 359:driver_st7789.c ****         return 2;                                                              /* return error */
 360:driver_st7789.c ****     }
 361:driver_st7789.c ****     if (handle->inited != 1)                                                   /* check handle init
 362:driver_st7789.c ****     {
 363:driver_st7789.c ****         return 3;                                                              /* return error */
 364:driver_st7789.c ****     }
 365:driver_st7789.c **** 
 366:driver_st7789.c ****     if (a_st7789_write_byte(handle, ST7789_CMD_PTLON, ST7789_CMD) != 0)        /* write partial dis
 367:driver_st7789.c ****     {
 368:driver_st7789.c ****         handle->debug_print("st7789: write command failed.\n");                /* write command fai
 369:driver_st7789.c **** 
 370:driver_st7789.c ****         return 1;                                                              /* return error */
 371:driver_st7789.c ****     }
 372:driver_st7789.c **** 
 373:driver_st7789.c ****     return 0;                                                                  /* success return 0 
 374:driver_st7789.c **** }
 375:driver_st7789.c **** 
 376:driver_st7789.c **** /**
 377:driver_st7789.c ****  * @brief     normal display mode on
 378:driver_st7789.c ****  * @param[in] *handle points to an st7789 handle structure
 379:driver_st7789.c ****  * @return    status code
 380:driver_st7789.c ****  *            - 0 success
 381:driver_st7789.c ****  *            - 1 normal display mode on failed
 382:driver_st7789.c ****  *            - 2 handle is NULL
 383:driver_st7789.c ****  *            - 3 handle is not initialized
 384:driver_st7789.c ****  * @note      none
 385:driver_st7789.c ****  */
 386:driver_st7789.c **** uint8_t st7789_normal_display_mode_on(st7789_handle_t *handle)
 387:driver_st7789.c **** {
 388:driver_st7789.c ****     if (handle == NULL)                                                        /* check handle */
 389:driver_st7789.c ****     {
 390:driver_st7789.c ****         return 2;                                                              /* return error */
 391:driver_st7789.c ****     }
 392:driver_st7789.c ****     if (handle->inited != 1)                                                   /* check handle init
 393:driver_st7789.c ****     {
 394:driver_st7789.c ****         return 3;                                                              /* return error */
 395:driver_st7789.c ****     }
 396:driver_st7789.c **** 
 397:driver_st7789.c ****     if (a_st7789_write_byte(handle, ST7789_CMD_NORON, ST7789_CMD) != 0)        /* write normal disp
 398:driver_st7789.c ****     {
 399:driver_st7789.c ****         handle->debug_print("st7789: write command failed.\n");                /* write command fai
 400:driver_st7789.c **** 
 401:driver_st7789.c ****         return 1;                                                              /* return error */
 402:driver_st7789.c ****     }
 403:driver_st7789.c **** 
 404:driver_st7789.c ****     return 0;                                                                  /* success return 0 
 405:driver_st7789.c **** }
 406:driver_st7789.c **** 
 407:driver_st7789.c **** /**
 408:driver_st7789.c ****  * @brief     display inversion off
 409:driver_st7789.c ****  * @param[in] *handle points to an st7789 handle structure
 410:driver_st7789.c ****  * @return    status code
 411:driver_st7789.c ****  *            - 0 success
 412:driver_st7789.c ****  *            - 1 display inversion off failed
 413:driver_st7789.c ****  *            - 2 handle is NULL
 414:driver_st7789.c ****  *            - 3 handle is not initialized
 415:driver_st7789.c ****  * @note      none
ARM GAS  C:\Users\haske\AppData\Local\Temp\cc9TNOGL.s 			page 12


 416:driver_st7789.c ****  */
 417:driver_st7789.c **** uint8_t st7789_display_inversion_off(st7789_handle_t *handle)
 418:driver_st7789.c **** {
 419:driver_st7789.c ****     if (handle == NULL)                                                         /* check handle */
 420:driver_st7789.c ****     {
 421:driver_st7789.c ****         return 2;                                                               /* return error */
 422:driver_st7789.c ****     }
 423:driver_st7789.c ****     if (handle->inited != 1)                                                    /* check handle ini
 424:driver_st7789.c ****     {
 425:driver_st7789.c ****         return 3;                                                               /* return error */
 426:driver_st7789.c ****     }
 427:driver_st7789.c **** 
 428:driver_st7789.c ****     if (a_st7789_write_byte(handle, ST7789_CMD_INVOFF, ST7789_CMD) != 0)        /* write display in
 429:driver_st7789.c ****     {
 430:driver_st7789.c ****         handle->debug_print("st7789: write command failed.\n");                 /* write command fa
 431:driver_st7789.c **** 
 432:driver_st7789.c ****         return 1;                                                               /* return error */
 433:driver_st7789.c ****     }
 434:driver_st7789.c **** 
 435:driver_st7789.c ****     return 0;                                                                   /* success return 0
 436:driver_st7789.c **** }
 437:driver_st7789.c **** 
 438:driver_st7789.c **** /**
 439:driver_st7789.c ****  * @brief     display inversion on
 440:driver_st7789.c ****  * @param[in] *handle points to an st7789 handle structure
 441:driver_st7789.c ****  * @return    status code
 442:driver_st7789.c ****  *            - 0 success
 443:driver_st7789.c ****  *            - 1 display inversion on failed
 444:driver_st7789.c ****  *            - 2 handle is NULL
 445:driver_st7789.c ****  *            - 3 handle is not initialized
 446:driver_st7789.c ****  * @note      none
 447:driver_st7789.c ****  */
 448:driver_st7789.c **** uint8_t st7789_display_inversion_on(st7789_handle_t *handle)
 449:driver_st7789.c **** {
 450:driver_st7789.c ****     if (handle == NULL)                                                        /* check handle */
 451:driver_st7789.c ****     {
 452:driver_st7789.c ****         return 2;                                                              /* return error */
 453:driver_st7789.c ****     }
 454:driver_st7789.c ****     if (handle->inited != 1)                                                   /* check handle init
 455:driver_st7789.c ****     {
 456:driver_st7789.c ****         return 3;                                                              /* return error */
 457:driver_st7789.c ****     }
 458:driver_st7789.c **** 
 459:driver_st7789.c ****     if (a_st7789_write_byte(handle, ST7789_CMD_INVON, ST7789_CMD) != 0)        /* write display inv
 460:driver_st7789.c ****     {
 461:driver_st7789.c ****         handle->debug_print("st7789: write command failed.\n");                /* write command fai
 462:driver_st7789.c **** 
 463:driver_st7789.c ****         return 1;                                                              /* return error */
 464:driver_st7789.c ****     }
 465:driver_st7789.c **** 
 466:driver_st7789.c ****     return 0;                                                                  /* success return 0 
 467:driver_st7789.c **** }
 468:driver_st7789.c **** 
 469:driver_st7789.c **** /**
 470:driver_st7789.c ****  * @brief     set gamma
 471:driver_st7789.c ****  * @param[in] *handle points to an st7789 handle structure
 472:driver_st7789.c ****  * @param[in] gamma is the set gamma
ARM GAS  C:\Users\haske\AppData\Local\Temp\cc9TNOGL.s 			page 13


 473:driver_st7789.c ****  * @return    status code
 474:driver_st7789.c ****  *            - 0 success
 475:driver_st7789.c ****  *            - 1 set gamma failed
 476:driver_st7789.c ****  *            - 2 handle is NULL
 477:driver_st7789.c ****  *            - 3 handle is not initialized
 478:driver_st7789.c ****  * @note      none
 479:driver_st7789.c ****  */
 480:driver_st7789.c **** uint8_t st7789_set_gamma(st7789_handle_t *handle, uint8_t gamma)
 481:driver_st7789.c **** {
 482:driver_st7789.c ****     if (handle == NULL)                                                        /* check handle */
 483:driver_st7789.c ****     {
 484:driver_st7789.c ****         return 2;                                                              /* return error */
 485:driver_st7789.c ****     }
 486:driver_st7789.c ****     if (handle->inited != 1)                                                   /* check handle init
 487:driver_st7789.c ****     {
 488:driver_st7789.c ****         return 3;                                                              /* return error */
 489:driver_st7789.c ****     }
 490:driver_st7789.c **** 
 491:driver_st7789.c ****     if (a_st7789_write_byte(handle, ST7789_CMD_GAMSET, ST7789_CMD) != 0)       /* write set gamma c
 492:driver_st7789.c ****     {
 493:driver_st7789.c ****         handle->debug_print("st7789: write command failed.\n");                /* write command fai
 494:driver_st7789.c **** 
 495:driver_st7789.c ****         return 1;                                                              /* return error */
 496:driver_st7789.c ****     }
 497:driver_st7789.c ****     if (a_st7789_write_byte(handle, gamma & 0x0F, ST7789_DATA) != 0)           /* write gamma data 
 498:driver_st7789.c ****     {
 499:driver_st7789.c ****         handle->debug_print("st7789: write data failed.\n");                   /* write data failed
 500:driver_st7789.c **** 
 501:driver_st7789.c ****         return 1;                                                              /* return error */
 502:driver_st7789.c ****     }
 503:driver_st7789.c **** 
 504:driver_st7789.c ****     return 0;                                                                  /* success return 0 
 505:driver_st7789.c **** }
 506:driver_st7789.c **** 
 507:driver_st7789.c **** /**
 508:driver_st7789.c ****  * @brief     display off
 509:driver_st7789.c ****  * @param[in] *handle points to an st7789 handle structure
 510:driver_st7789.c ****  * @return    status code
 511:driver_st7789.c ****  *            - 0 success
 512:driver_st7789.c ****  *            - 1 display off failed
 513:driver_st7789.c ****  *            - 2 handle is NULL
 514:driver_st7789.c ****  *            - 3 handle is not initialized
 515:driver_st7789.c ****  * @note      none
 516:driver_st7789.c ****  */
 517:driver_st7789.c **** uint8_t st7789_display_off(st7789_handle_t *handle)
 518:driver_st7789.c **** {
 519:driver_st7789.c ****     if (handle == NULL)                                                          /* check handle */
 520:driver_st7789.c ****     {
 521:driver_st7789.c ****         return 2;                                                                /* return error */
 522:driver_st7789.c ****     }
 523:driver_st7789.c ****     if (handle->inited != 1)                                                     /* check handle in
 524:driver_st7789.c ****     {
 525:driver_st7789.c ****         return 3;                                                                /* return error */
 526:driver_st7789.c ****     }
 527:driver_st7789.c **** 
 528:driver_st7789.c ****     if (a_st7789_write_byte(handle, ST7789_CMD_DISPOFF, ST7789_CMD) != 0)        /* write display o
 529:driver_st7789.c ****     {
ARM GAS  C:\Users\haske\AppData\Local\Temp\cc9TNOGL.s 			page 14


 530:driver_st7789.c ****         handle->debug_print("st7789: write command failed.\n");                  /* write command f
 531:driver_st7789.c **** 
 532:driver_st7789.c ****         return 1;                                                                /* return error */
 533:driver_st7789.c ****     }
 534:driver_st7789.c **** 
 535:driver_st7789.c ****     return 0;                                                                    /* success return 
 536:driver_st7789.c **** }
 537:driver_st7789.c **** 
 538:driver_st7789.c **** /**
 539:driver_st7789.c ****  * @brief     display on
 540:driver_st7789.c ****  * @param[in] *handle points to an st7789 handle structure
 541:driver_st7789.c ****  * @return    status code
 542:driver_st7789.c ****  *            - 0 success
 543:driver_st7789.c ****  *            - 1 display on failed
 544:driver_st7789.c ****  *            - 2 handle is NULL
 545:driver_st7789.c ****  *            - 3 handle is not initialized
 546:driver_st7789.c ****  * @note      none
 547:driver_st7789.c ****  */
 548:driver_st7789.c **** uint8_t st7789_display_on(st7789_handle_t *handle)
 549:driver_st7789.c **** {
 550:driver_st7789.c ****     if (handle == NULL)                                                         /* check handle */
 551:driver_st7789.c ****     {
 552:driver_st7789.c ****         return 2;                                                               /* return error */
 553:driver_st7789.c ****     }
 554:driver_st7789.c ****     if (handle->inited != 1)                                                    /* check handle ini
 555:driver_st7789.c ****     {
 556:driver_st7789.c ****         return 3;                                                               /* return error */
 557:driver_st7789.c ****     }
 558:driver_st7789.c **** 
 559:driver_st7789.c ****     if (a_st7789_write_byte(handle, ST7789_CMD_DISPON, ST7789_CMD) != 0)        /* write display on
 560:driver_st7789.c ****     {
 561:driver_st7789.c ****         handle->debug_print("st7789: write command failed.\n");                 /* write command fa
 562:driver_st7789.c **** 
 563:driver_st7789.c ****         return 1;                                                               /* return error */
 564:driver_st7789.c ****     }
 565:driver_st7789.c **** 
 566:driver_st7789.c ****     return 0;                                                                   /* success return 0
 567:driver_st7789.c **** }
 568:driver_st7789.c **** 
 569:driver_st7789.c **** /**
 570:driver_st7789.c ****  * @brief     set the column address
 571:driver_st7789.c ****  * @param[in] *handle points to an st7789 handle structure
 572:driver_st7789.c ****  * @param[in] start_address is the start address
 573:driver_st7789.c ****  * @param[in] end_address is the end address
 574:driver_st7789.c ****  * @return    status code
 575:driver_st7789.c ****  *            - 0 success
 576:driver_st7789.c ****  *            - 1 set column address failed
 577:driver_st7789.c ****  *            - 2 handle is NULL
 578:driver_st7789.c ****  *            - 3 handle is not initialized
 579:driver_st7789.c ****  *            - 4 address is invalid
 580:driver_st7789.c ****  *            - 5 start_address >= end_address
 581:driver_st7789.c ****  * @note      start_address <= 319 && end_address <= 319 && start_address >= start_address
 582:driver_st7789.c ****  */
 583:driver_st7789.c **** uint8_t st7789_set_column_address(st7789_handle_t *handle, uint16_t start_address, uint16_t end_add
 584:driver_st7789.c **** {
 585:driver_st7789.c ****     uint8_t buf[4];
 586:driver_st7789.c **** 
ARM GAS  C:\Users\haske\AppData\Local\Temp\cc9TNOGL.s 			page 15


 587:driver_st7789.c ****     if (handle == NULL)                                                        /* check handle */
 588:driver_st7789.c ****     {
 589:driver_st7789.c ****         return 2;                                                              /* return error */
 590:driver_st7789.c ****     }
 591:driver_st7789.c ****     if (handle->inited != 1)                                                   /* check handle init
 592:driver_st7789.c ****     {
 593:driver_st7789.c ****         return 3;                                                              /* return error */
 594:driver_st7789.c ****     }
 595:driver_st7789.c ****     if ((start_address > 319) || (end_address > 319))                          /* check range */
 596:driver_st7789.c ****     {
 597:driver_st7789.c ****         handle->debug_print("st7789: address is invalid.\n");                  /* address is invali
 598:driver_st7789.c **** 
 599:driver_st7789.c ****         return 4;                                                              /* return error */
 600:driver_st7789.c ****     }
 601:driver_st7789.c ****     if (start_address >= end_address)                                          /* check range */
 602:driver_st7789.c ****     {
 603:driver_st7789.c ****         handle->debug_print("st7789: start_address >= end_address.\n");        /* start_address >= 
 604:driver_st7789.c **** 
 605:driver_st7789.c ****         return 5;                                                              /* return error */
 606:driver_st7789.c ****     }
 607:driver_st7789.c **** 
 608:driver_st7789.c ****     if (a_st7789_write_byte(handle, ST7789_CMD_CASET, ST7789_CMD) != 0)        /* write set column 
 609:driver_st7789.c ****     {
 610:driver_st7789.c ****         handle->debug_print("st7789: write command failed.\n");                /* write command fai
 611:driver_st7789.c **** 
 612:driver_st7789.c ****         return 1;                                                              /* return error */
 613:driver_st7789.c ****     }
 614:driver_st7789.c ****     buf[0] = (start_address >> 8) & 0xFF;                                      /* start address msb
 615:driver_st7789.c ****     buf[1] = (start_address >> 0) & 0xFF;                                      /* start address lsb
 616:driver_st7789.c ****     buf[2] = (end_address >> 8) & 0xFF;                                        /* end address msb *
 617:driver_st7789.c ****     buf[3] = (end_address >> 0) & 0xFF;                                        /* end address lsb *
 618:driver_st7789.c ****     if (a_st7789_write_bytes(handle, buf, 4, ST7789_DATA) != 0)                /* write data */
 619:driver_st7789.c ****     {
 620:driver_st7789.c ****         handle->debug_print("st7789: write data failed.\n");                   /* write data failed
 621:driver_st7789.c **** 
 622:driver_st7789.c ****         return 1;                                                              /* return error */
 623:driver_st7789.c ****     }
 624:driver_st7789.c **** 
 625:driver_st7789.c ****     return 0;                                                                  /* success return 0 
 626:driver_st7789.c **** }
 627:driver_st7789.c **** 
 628:driver_st7789.c **** /**
 629:driver_st7789.c ****  * @brief     set the row address
 630:driver_st7789.c ****  * @param[in] *handle points to an st7789 handle structure
 631:driver_st7789.c ****  * @param[in] start_address is the start address
 632:driver_st7789.c ****  * @param[in] end_address is the end address
 633:driver_st7789.c ****  * @return    status code
 634:driver_st7789.c ****  *            - 0 success
 635:driver_st7789.c ****  *            - 1 set row address failed
 636:driver_st7789.c ****  *            - 2 handle is NULL
 637:driver_st7789.c ****  *            - 3 handle is not initialized
 638:driver_st7789.c ****  *            - 4 address is invalid
 639:driver_st7789.c ****  *            - 5 start_address >= end_address
 640:driver_st7789.c ****  * @note      start_address <= 319 && end_address <= 319 && start_address >= start_address
 641:driver_st7789.c ****  */
 642:driver_st7789.c **** uint8_t st7789_set_row_address(st7789_handle_t *handle, uint16_t start_address, uint16_t end_addres
 643:driver_st7789.c **** {
ARM GAS  C:\Users\haske\AppData\Local\Temp\cc9TNOGL.s 			page 16


 644:driver_st7789.c ****     uint8_t buf[4];
 645:driver_st7789.c **** 
 646:driver_st7789.c ****     if (handle == NULL)                                                        /* check handle */
 647:driver_st7789.c ****     {
 648:driver_st7789.c ****         return 2;                                                              /* return error */
 649:driver_st7789.c ****     }
 650:driver_st7789.c ****     if (handle->inited != 1)                                                   /* check handle init
 651:driver_st7789.c ****     {
 652:driver_st7789.c ****         return 3;                                                              /* return error */
 653:driver_st7789.c ****     }
 654:driver_st7789.c ****     if ((start_address > 319) || (end_address > 319))                          /* check range */
 655:driver_st7789.c ****     {
 656:driver_st7789.c ****         handle->debug_print("st7789: address is invalid.\n");                  /* address is invali
 657:driver_st7789.c **** 
 658:driver_st7789.c ****         return 4;                                                              /* return error */
 659:driver_st7789.c ****     }
 660:driver_st7789.c ****     if (start_address >= end_address)                                          /* check range */
 661:driver_st7789.c ****     {
 662:driver_st7789.c ****         handle->debug_print("st7789: start_address >= end_address.\n");        /* start_address >= 
 663:driver_st7789.c **** 
 664:driver_st7789.c ****         return 5;                                                              /* return error */
 665:driver_st7789.c ****     }
 666:driver_st7789.c **** 
 667:driver_st7789.c ****     if (a_st7789_write_byte(handle, ST7789_CMD_RASET, ST7789_CMD) != 0)        /* write set row add
 668:driver_st7789.c ****     {
 669:driver_st7789.c ****         handle->debug_print("st7789: write command failed.\n");                /* write command fai
 670:driver_st7789.c **** 
 671:driver_st7789.c ****         return 1;                                                              /* return error */
 672:driver_st7789.c ****     }
 673:driver_st7789.c ****     buf[0] = (start_address >> 8) & 0xFF;                                      /* start address msb
 674:driver_st7789.c ****     buf[1] = (start_address >> 0) & 0xFF;                                      /* start address lsb
 675:driver_st7789.c ****     buf[2] = (end_address >> 8) & 0xFF;                                        /* end address msb *
 676:driver_st7789.c ****     buf[3] = (end_address >> 0) & 0xFF;                                        /* end address lsb *
 677:driver_st7789.c ****     if (a_st7789_write_bytes(handle, buf, 4, ST7789_DATA) != 0)                /* write data */
 678:driver_st7789.c ****     {
 679:driver_st7789.c ****         handle->debug_print("st7789: write data failed.\n");                   /* write data failed
 680:driver_st7789.c **** 
 681:driver_st7789.c ****         return 1;                                                              /* return error */
 682:driver_st7789.c ****     }
 683:driver_st7789.c **** 
 684:driver_st7789.c ****     return 0;                                                                  /* success return 0 
 685:driver_st7789.c **** }
 686:driver_st7789.c **** 
 687:driver_st7789.c **** /**
 688:driver_st7789.c ****  * @brief     memory write
 689:driver_st7789.c ****  * @param[in] *handle points to an st7789 handle structure
 690:driver_st7789.c ****  * @param[in] *data points to a data buffer
 691:driver_st7789.c ****  * @param[in] len is the data length
 692:driver_st7789.c ****  * @return    status code
 693:driver_st7789.c ****  *            - 0 success
 694:driver_st7789.c ****  *            - 1 memory write failed
 695:driver_st7789.c ****  *            - 2 handle is NULL
 696:driver_st7789.c ****  *            - 3 handle is not initialized
 697:driver_st7789.c ****  * @note      none
 698:driver_st7789.c ****  */
 699:driver_st7789.c **** uint8_t st7789_memory_write(st7789_handle_t *handle, uint8_t *data, uint16_t len)
 700:driver_st7789.c **** {
ARM GAS  C:\Users\haske\AppData\Local\Temp\cc9TNOGL.s 			page 17


 701:driver_st7789.c ****     if (handle == NULL)                                                        /* check handle */
 702:driver_st7789.c ****     {
 703:driver_st7789.c ****         return 2;                                                              /* return error */
 704:driver_st7789.c ****     }
 705:driver_st7789.c ****     if (handle->inited != 1)                                                   /* check handle init
 706:driver_st7789.c ****     {
 707:driver_st7789.c ****         return 3;                                                              /* return error */
 708:driver_st7789.c ****     }
 709:driver_st7789.c **** 
 710:driver_st7789.c ****     if (a_st7789_write_byte(handle, ST7789_CMD_RAMWR, ST7789_CMD) != 0)        /* write memory writ
 711:driver_st7789.c ****     {
 712:driver_st7789.c ****         handle->debug_print("st7789: write command failed.\n");                /* write command fai
 713:driver_st7789.c **** 
 714:driver_st7789.c ****         return 1;                                                              /* return error */
 715:driver_st7789.c ****     }
 716:driver_st7789.c ****     if (a_st7789_write_bytes(handle, data, len, ST7789_DATA) != 0)             /* write data */
 717:driver_st7789.c ****     {
 718:driver_st7789.c ****         handle->debug_print("st7789: write data failed.\n");                   /* write data failed
 719:driver_st7789.c **** 
 720:driver_st7789.c ****         return 1;                                                              /* return error */
 721:driver_st7789.c ****     }
 722:driver_st7789.c **** 
 723:driver_st7789.c ****     return 0;                                                                  /* success return 0 
 724:driver_st7789.c **** }
 725:driver_st7789.c **** 
 726:driver_st7789.c **** /**
 727:driver_st7789.c ****  * @brief     set partial areas
 728:driver_st7789.c ****  * @param[in] *handle points to an st7789 handle structure
 729:driver_st7789.c ****  * @param[in] start_row is the start row
 730:driver_st7789.c ****  * @param[in] end_row is the end row
 731:driver_st7789.c ****  * @return    status code
 732:driver_st7789.c ****  *            - 0 success
 733:driver_st7789.c ****  *            - 1 set partial areas failed
 734:driver_st7789.c ****  *            - 2 handle is NULL
 735:driver_st7789.c ****  *            - 3 handle is not initialized
 736:driver_st7789.c ****  * @note      none
 737:driver_st7789.c ****  */
 738:driver_st7789.c **** uint8_t st7789_set_partial_areas(st7789_handle_t *handle, uint16_t start_row, uint16_t end_row)
 739:driver_st7789.c **** {
 740:driver_st7789.c ****     uint8_t buf[4];
 741:driver_st7789.c **** 
 742:driver_st7789.c ****     if (handle == NULL)                                                        /* check handle */
 743:driver_st7789.c ****     {
 744:driver_st7789.c ****         return 2;                                                              /* return error */
 745:driver_st7789.c ****     }
 746:driver_st7789.c ****     if (handle->inited != 1)                                                   /* check handle init
 747:driver_st7789.c ****     {
 748:driver_st7789.c ****         return 3;                                                              /* return error */
 749:driver_st7789.c ****     }
 750:driver_st7789.c **** 
 751:driver_st7789.c ****     if (a_st7789_write_byte(handle, ST7789_CMD_PTLAR, ST7789_CMD) != 0)        /* write set partial
 752:driver_st7789.c ****     {
 753:driver_st7789.c ****         handle->debug_print("st7789: write command failed.\n");                /* write command fai
 754:driver_st7789.c **** 
 755:driver_st7789.c ****         return 1;                                                              /* return error */
 756:driver_st7789.c ****     }
 757:driver_st7789.c ****     buf[0] = (start_row >> 8) & 0xFF;                                          /* start row msb */
ARM GAS  C:\Users\haske\AppData\Local\Temp\cc9TNOGL.s 			page 18


 758:driver_st7789.c ****     buf[1] = (start_row >> 0) & 0xFF;                                          /* start row lsb */
 759:driver_st7789.c ****     buf[2] = (end_row >> 8) & 0xFF;                                            /* end row msb */
 760:driver_st7789.c ****     buf[3] = (end_row >> 0) & 0xFF;                                            /* end row lsb */
 761:driver_st7789.c ****     if (a_st7789_write_bytes(handle, buf, 4, ST7789_DATA) != 0)                /* write data */
 762:driver_st7789.c ****     {
 763:driver_st7789.c ****         handle->debug_print("st7789: write data failed.\n");                   /* write data failed
 764:driver_st7789.c **** 
 765:driver_st7789.c ****         return 1;                                                              /* return error */
 766:driver_st7789.c ****     }
 767:driver_st7789.c **** 
 768:driver_st7789.c ****     return 0;                                                                  /* success return 0 
 769:driver_st7789.c **** }
 770:driver_st7789.c **** 
 771:driver_st7789.c **** /**
 772:driver_st7789.c ****  * @brief     set vertical scrolling
 773:driver_st7789.c ****  * @param[in] *handle points to an st7789 handle structure
 774:driver_st7789.c ****  * @param[in] top_fixed_area is top fixed area line
 775:driver_st7789.c ****  * @param[in] scrolling_area is scrolling area line
 776:driver_st7789.c ****  * @param[in] bottom_fixed_area is bottom fixed area line
 777:driver_st7789.c ****  * @return    status code
 778:driver_st7789.c ****  *            - 0 success
 779:driver_st7789.c ****  *            - 1 set vertical scrolling failed
 780:driver_st7789.c ****  *            - 2 handle is NULL
 781:driver_st7789.c ****  *            - 3 handle is not initialized
 782:driver_st7789.c ****  * @note      none
 783:driver_st7789.c ****  */
 784:driver_st7789.c **** uint8_t st7789_set_vertical_scrolling(st7789_handle_t *handle, uint16_t top_fixed_area,
 785:driver_st7789.c ****                                       uint16_t scrolling_area, uint16_t bottom_fixed_area)
 786:driver_st7789.c **** {
 787:driver_st7789.c ****     uint8_t buf[6];
 788:driver_st7789.c **** 
 789:driver_st7789.c ****     if (handle == NULL)                                                        /* check handle */
 790:driver_st7789.c ****     {
 791:driver_st7789.c ****         return 2;                                                              /* return error */
 792:driver_st7789.c ****     }
 793:driver_st7789.c ****     if (handle->inited != 1)                                                   /* check handle init
 794:driver_st7789.c ****     {
 795:driver_st7789.c ****         return 3;                                                              /* return error */
 796:driver_st7789.c ****     }
 797:driver_st7789.c **** 
 798:driver_st7789.c ****     if (a_st7789_write_byte(handle, ST7789_CMD_VSCRDEF, ST7789_CMD) != 0)      /* write set vertica
 799:driver_st7789.c ****     {
 800:driver_st7789.c ****         handle->debug_print("st7789: write command failed.\n");                /* write command fai
 801:driver_st7789.c **** 
 802:driver_st7789.c ****         return 1;                                                              /* return error */
 803:driver_st7789.c ****     }
 804:driver_st7789.c ****     buf[0] = (top_fixed_area >> 8) & 0xFF;                                     /* top fixed area ms
 805:driver_st7789.c ****     buf[1] = (top_fixed_area >> 0) & 0xFF;                                     /* top fixed area ls
 806:driver_st7789.c ****     buf[2] = (scrolling_area >> 8) & 0xFF;                                     /* scrolling area ms
 807:driver_st7789.c ****     buf[3] = (scrolling_area >> 0) & 0xFF;                                     /* scrolling area ls
 808:driver_st7789.c ****     buf[4] = (bottom_fixed_area >> 8) & 0xFF;                                  /* bottom fixed area
 809:driver_st7789.c ****     buf[5] = (bottom_fixed_area >> 0) & 0xFF;                                  /* bottom fixed area
 810:driver_st7789.c ****     if (a_st7789_write_bytes(handle, buf, 6, ST7789_DATA) != 0)                /* write data */
 811:driver_st7789.c ****     {
 812:driver_st7789.c ****         handle->debug_print("st7789: write data failed.\n");                   /* write data failed
 813:driver_st7789.c **** 
 814:driver_st7789.c ****         return 1;                                                              /* return error */
ARM GAS  C:\Users\haske\AppData\Local\Temp\cc9TNOGL.s 			page 19


 815:driver_st7789.c ****     }
 816:driver_st7789.c **** 
 817:driver_st7789.c ****     return 0;                                                                  /* success return 0 
 818:driver_st7789.c **** }
 819:driver_st7789.c **** 
 820:driver_st7789.c **** /**
 821:driver_st7789.c ****  * @brief     tearing effect line off
 822:driver_st7789.c ****  * @param[in] *handle points to an st7789 handle structure
 823:driver_st7789.c ****  * @return    status code
 824:driver_st7789.c ****  *            - 0 success
 825:driver_st7789.c ****  *            - 1 tearing effect line off failed
 826:driver_st7789.c ****  *            - 2 handle is NULL
 827:driver_st7789.c ****  *            - 3 handle is not initialized
 828:driver_st7789.c ****  * @note      none
 829:driver_st7789.c ****  */
 830:driver_st7789.c **** uint8_t st7789_tearing_effect_line_off(st7789_handle_t *handle)
 831:driver_st7789.c **** {
 832:driver_st7789.c ****     if (handle == NULL)                                                        /* check handle */
 833:driver_st7789.c ****     {
 834:driver_st7789.c ****         return 2;                                                              /* return error */
 835:driver_st7789.c ****     }
 836:driver_st7789.c ****     if (handle->inited != 1)                                                   /* check handle init
 837:driver_st7789.c ****     {
 838:driver_st7789.c ****         return 3;                                                              /* return error */
 839:driver_st7789.c ****     }
 840:driver_st7789.c **** 
 841:driver_st7789.c ****     if (a_st7789_write_byte(handle, ST7789_CMD_TEOFF, ST7789_CMD) != 0)        /* write tearing eff
 842:driver_st7789.c ****     {
 843:driver_st7789.c ****         handle->debug_print("st7789: write command failed.\n");                /* write command fai
 844:driver_st7789.c **** 
 845:driver_st7789.c ****         return 1;                                                              /* return error */
 846:driver_st7789.c ****     }
 847:driver_st7789.c **** 
 848:driver_st7789.c ****     return 0;                                                                  /* success return 0 
 849:driver_st7789.c **** }
 850:driver_st7789.c **** 
 851:driver_st7789.c **** /**
 852:driver_st7789.c ****  * @brief     tearing effect line on
 853:driver_st7789.c ****  * @param[in] *handle points to an st7789 handle structure
 854:driver_st7789.c ****  * @param[in] effect is the tearing effect
 855:driver_st7789.c ****  * @return    status code
 856:driver_st7789.c ****  *            - 0 success
 857:driver_st7789.c ****  *            - 1 tearing effect line on failed
 858:driver_st7789.c ****  *            - 2 handle is NULL
 859:driver_st7789.c ****  *            - 3 handle is not initialized
 860:driver_st7789.c ****  * @note      none
 861:driver_st7789.c ****  */
 862:driver_st7789.c **** uint8_t st7789_tearing_effect_line_on(st7789_handle_t *handle, st7789_tearing_effect_t effect)
 863:driver_st7789.c **** {
 864:driver_st7789.c ****     if (handle == NULL)                                                       /* check handle */
 865:driver_st7789.c ****     {
 866:driver_st7789.c ****         return 2;                                                             /* return error */
 867:driver_st7789.c ****     }
 868:driver_st7789.c ****     if (handle->inited != 1)                                                  /* check handle initi
 869:driver_st7789.c ****     {
 870:driver_st7789.c ****         return 3;                                                             /* return error */
 871:driver_st7789.c ****     }
ARM GAS  C:\Users\haske\AppData\Local\Temp\cc9TNOGL.s 			page 20


 872:driver_st7789.c **** 
 873:driver_st7789.c ****     if (a_st7789_write_byte(handle, ST7789_CMD_TEON, ST7789_CMD) != 0)        /* write tearing effe
 874:driver_st7789.c ****     {
 875:driver_st7789.c ****         handle->debug_print("st7789: write command failed.\n");               /* write command fail
 876:driver_st7789.c **** 
 877:driver_st7789.c ****         return 1;                                                             /* return error */
 878:driver_st7789.c ****     }
 879:driver_st7789.c ****     if (a_st7789_write_byte(handle, effect, ST7789_DATA) != 0)                /* write data */
 880:driver_st7789.c ****     {
 881:driver_st7789.c ****         handle->debug_print("st7789: write data failed.\n");                  /* write data failed 
 882:driver_st7789.c **** 
 883:driver_st7789.c ****         return 1;                                                             /* return error */
 884:driver_st7789.c ****     }
 885:driver_st7789.c **** 
 886:driver_st7789.c ****     return 0;                                                                 /* success return 0 *
 887:driver_st7789.c **** }
 888:driver_st7789.c **** 
 889:driver_st7789.c **** /**
 890:driver_st7789.c ****  * @brief     set memory data access control
 891:driver_st7789.c ****  * @param[in] *handle points to an st7789 handle structure
 892:driver_st7789.c ****  * @param[in] order is the memory data access control order
 893:driver_st7789.c ****  * @return    status code
 894:driver_st7789.c ****  *            - 0 success
 895:driver_st7789.c ****  *            - 1 set memory data access control failed
 896:driver_st7789.c ****  *            - 2 handle is NULL
 897:driver_st7789.c ****  *            - 3 handle is not initialized
 898:driver_st7789.c ****  * @note      none
 899:driver_st7789.c ****  */
 900:driver_st7789.c **** uint8_t st7789_set_memory_data_access_control(st7789_handle_t *handle, uint8_t order)
 901:driver_st7789.c **** {
 902:driver_st7789.c ****     if (handle == NULL)                                                         /* check handle */
 903:driver_st7789.c ****     {
 904:driver_st7789.c ****         return 2;                                                               /* return error */
 905:driver_st7789.c ****     }
 906:driver_st7789.c ****     if (handle->inited != 1)                                                    /* check handle ini
 907:driver_st7789.c ****     {
 908:driver_st7789.c ****         return 3;                                                               /* return error */
 909:driver_st7789.c ****     }
 910:driver_st7789.c **** 
 911:driver_st7789.c ****     if (a_st7789_write_byte(handle, ST7789_CMD_MADCTL, ST7789_CMD) != 0)        /* write set memory
 912:driver_st7789.c ****     {
 913:driver_st7789.c ****         handle->debug_print("st7789: write command failed.\n");                 /* write command fa
 914:driver_st7789.c **** 
 915:driver_st7789.c ****         return 1;                                                               /* return error */
 916:driver_st7789.c ****     }
 917:driver_st7789.c ****     if (a_st7789_write_byte(handle, order, ST7789_DATA) != 0)                   /* write data */
 918:driver_st7789.c ****     {
 919:driver_st7789.c ****         handle->debug_print("st7789: write data failed.\n");                    /* write data faile
 920:driver_st7789.c **** 
 921:driver_st7789.c ****         return 1;                                                               /* return error */
 922:driver_st7789.c ****     }
 923:driver_st7789.c **** 
 924:driver_st7789.c ****     return 0;                                                                   /* success return 0
 925:driver_st7789.c **** }
 926:driver_st7789.c **** 
 927:driver_st7789.c **** /**
 928:driver_st7789.c ****  * @brief     set the vertical scroll start address
ARM GAS  C:\Users\haske\AppData\Local\Temp\cc9TNOGL.s 			page 21


 929:driver_st7789.c ****  * @param[in] *handle points to an st7789 handle structure
 930:driver_st7789.c ****  * @param[in] start_address is the start address
 931:driver_st7789.c ****  * @return    status code
 932:driver_st7789.c ****  *            - 0 success
 933:driver_st7789.c ****  *            - 1 set vertical scroll start address failed
 934:driver_st7789.c ****  *            - 2 handle is NULL
 935:driver_st7789.c ****  *            - 3 handle is not initialized
 936:driver_st7789.c ****  *            - 4 address is invalid
 937:driver_st7789.c ****  * @note      none
 938:driver_st7789.c ****  */
 939:driver_st7789.c **** uint8_t st7789_set_vertical_scroll_start_address(st7789_handle_t *handle, uint16_t start_address)
 940:driver_st7789.c **** {
 941:driver_st7789.c ****     uint8_t buf[2];
 942:driver_st7789.c **** 
 943:driver_st7789.c ****     if (handle == NULL)                                                           /* check handle *
 944:driver_st7789.c ****     {
 945:driver_st7789.c ****         return 2;                                                                 /* return error *
 946:driver_st7789.c ****     }
 947:driver_st7789.c ****     if (handle->inited != 1)                                                      /* check handle i
 948:driver_st7789.c ****     {
 949:driver_st7789.c ****         return 3;                                                                 /* return error *
 950:driver_st7789.c ****     }
 951:driver_st7789.c ****     if (start_address > 319)                                                      /* check range */
 952:driver_st7789.c ****     {
 953:driver_st7789.c ****         handle->debug_print("st7789: address is invalid.\n");                     /* address is inv
 954:driver_st7789.c **** 
 955:driver_st7789.c ****         return 4;                                                                 /* return error *
 956:driver_st7789.c ****     }
 957:driver_st7789.c **** 
 958:driver_st7789.c ****     if (a_st7789_write_byte(handle, ST7789_CMD_VSCRSADD, ST7789_CMD) != 0)        /* write vertical
 959:driver_st7789.c ****     {
 960:driver_st7789.c ****         handle->debug_print("st7789: write command failed.\n");                   /* write command 
 961:driver_st7789.c **** 
 962:driver_st7789.c ****         return 1;                                                                 /* return error *
 963:driver_st7789.c ****     }
 964:driver_st7789.c ****     buf[0] = (start_address >> 8) & 0xFF;                                         /* start address 
 965:driver_st7789.c ****     buf[1] = (start_address >> 0) & 0xFF;                                         /* start address 
 966:driver_st7789.c ****     if (a_st7789_write_bytes(handle, buf, 2, ST7789_DATA) != 0)                   /* write data */
 967:driver_st7789.c ****     {
 968:driver_st7789.c ****         handle->debug_print("st7789: write data failed.\n");                      /* write data fai
 969:driver_st7789.c **** 
 970:driver_st7789.c ****         return 1;                                                                 /* return error *
 971:driver_st7789.c ****     }
 972:driver_st7789.c **** 
 973:driver_st7789.c ****     return 0;                                                                     /* success return
 974:driver_st7789.c **** }
 975:driver_st7789.c **** 
 976:driver_st7789.c **** /**
 977:driver_st7789.c ****  * @brief     idle mode off
 978:driver_st7789.c ****  * @param[in] *handle points to an st7789 handle structure
 979:driver_st7789.c ****  * @return    status code
 980:driver_st7789.c ****  *            - 0 success
 981:driver_st7789.c ****  *            - 1 idle mode off failed
 982:driver_st7789.c ****  *            - 2 handle is NULL
 983:driver_st7789.c ****  *            - 3 handle is not initialized
 984:driver_st7789.c ****  * @note      none
 985:driver_st7789.c ****  */
ARM GAS  C:\Users\haske\AppData\Local\Temp\cc9TNOGL.s 			page 22


 986:driver_st7789.c **** uint8_t st7789_idle_mode_off(st7789_handle_t *handle)
 987:driver_st7789.c **** {
 988:driver_st7789.c ****     if (handle == NULL)                                                         /* check handle */
 989:driver_st7789.c ****     {
 990:driver_st7789.c ****         return 2;                                                               /* return error */
 991:driver_st7789.c ****     }
 992:driver_st7789.c ****     if (handle->inited != 1)                                                    /* check handle ini
 993:driver_st7789.c ****     {
 994:driver_st7789.c ****         return 3;                                                               /* return error */
 995:driver_st7789.c ****     }
 996:driver_st7789.c **** 
 997:driver_st7789.c ****     if (a_st7789_write_byte(handle, ST7789_CMD_IDMOFF, ST7789_CMD) != 0)        /* write idle mode 
 998:driver_st7789.c ****     {
 999:driver_st7789.c ****         handle->debug_print("st7789: write command failed.\n");                 /* write command fa
1000:driver_st7789.c **** 
1001:driver_st7789.c ****         return 1;                                                               /* return error */
1002:driver_st7789.c ****     }
1003:driver_st7789.c **** 
1004:driver_st7789.c ****     return 0;                                                                   /* success return 0
1005:driver_st7789.c **** }
1006:driver_st7789.c **** 
1007:driver_st7789.c **** /**
1008:driver_st7789.c ****  * @brief     idle mode on
1009:driver_st7789.c ****  * @param[in] *handle points to an st7789 handle structure
1010:driver_st7789.c ****  * @return    status code
1011:driver_st7789.c ****  *            - 0 success
1012:driver_st7789.c ****  *            - 1 idle mode on failed
1013:driver_st7789.c ****  *            - 2 handle is NULL
1014:driver_st7789.c ****  *            - 3 handle is not initialized
1015:driver_st7789.c ****  * @note      none
1016:driver_st7789.c ****  */
1017:driver_st7789.c **** uint8_t st7789_idle_mode_on(st7789_handle_t *handle)
1018:driver_st7789.c **** {
1019:driver_st7789.c ****     if (handle == NULL)                                                        /* check handle */
1020:driver_st7789.c ****     {
1021:driver_st7789.c ****         return 2;                                                              /* return error */
1022:driver_st7789.c ****     }
1023:driver_st7789.c ****     if (handle->inited != 1)                                                   /* check handle init
1024:driver_st7789.c ****     {
1025:driver_st7789.c ****         return 3;                                                              /* return error */
1026:driver_st7789.c ****     }
1027:driver_st7789.c **** 
1028:driver_st7789.c ****     if (a_st7789_write_byte(handle, ST7789_CMD_IDMON, ST7789_CMD) != 0)        /* write idle mode o
1029:driver_st7789.c ****     {
1030:driver_st7789.c ****         handle->debug_print("st7789: write command failed.\n");                /* write command fai
1031:driver_st7789.c **** 
1032:driver_st7789.c ****         return 1;                                                              /* return error */
1033:driver_st7789.c ****     }
1034:driver_st7789.c **** 
1035:driver_st7789.c ****     return 0;                                                                  /* success return 0 
1036:driver_st7789.c **** }
1037:driver_st7789.c **** 
1038:driver_st7789.c **** /**
1039:driver_st7789.c ****  * @brief     set interface pixel format
1040:driver_st7789.c ****  * @param[in] *handle points to an st7789 handle structure
1041:driver_st7789.c ****  * @param[in] rgb is the rgb interface color format
1042:driver_st7789.c ****  * @param[in] control is control interface color format
ARM GAS  C:\Users\haske\AppData\Local\Temp\cc9TNOGL.s 			page 23


1043:driver_st7789.c ****  * @return    status code
1044:driver_st7789.c ****  *            - 0 success
1045:driver_st7789.c ****  *            - 1 set interface pixel format failed
1046:driver_st7789.c ****  *            - 2 handle is NULL
1047:driver_st7789.c ****  *            - 3 handle is not initialized
1048:driver_st7789.c ****  * @note      none
1049:driver_st7789.c ****  */
1050:driver_st7789.c **** uint8_t st7789_set_interface_pixel_format(st7789_handle_t *handle, st7789_rgb_interface_color_forma
1051:driver_st7789.c ****                                           st7789_control_interface_color_format_t control)
1052:driver_st7789.c **** {
1053:driver_st7789.c ****     uint8_t data;
1054:driver_st7789.c **** 
1055:driver_st7789.c ****     if (handle == NULL)                                                         /* check handle */
1056:driver_st7789.c ****     {
1057:driver_st7789.c ****         return 2;                                                               /* return error */
1058:driver_st7789.c ****     }
1059:driver_st7789.c ****     if (handle->inited != 1)                                                    /* check handle ini
1060:driver_st7789.c ****     {
1061:driver_st7789.c ****         return 3;                                                               /* return error */
1062:driver_st7789.c ****     }
1063:driver_st7789.c **** 
1064:driver_st7789.c ****     if (a_st7789_write_byte(handle, ST7789_CMD_COLMOD, ST7789_CMD) != 0)        /* write interface 
1065:driver_st7789.c ****     {
1066:driver_st7789.c ****         handle->debug_print("st7789: write command failed.\n");                 /* write command fa
1067:driver_st7789.c **** 
1068:driver_st7789.c ****         return 1;                                                               /* return error */
1069:driver_st7789.c ****     }
1070:driver_st7789.c **** 
1071:driver_st7789.c ****     data = (rgb << 4) | (control << 0);                                         /* set pixel format
1072:driver_st7789.c ****     if (a_st7789_write_byte(handle, data, ST7789_DATA) != 0)                    /* write data */
1073:driver_st7789.c ****     {
1074:driver_st7789.c ****         handle->debug_print("st7789: write data failed.\n");                    /* write data faile
1075:driver_st7789.c **** 
1076:driver_st7789.c ****         return 1;                                                               /* return error */
1077:driver_st7789.c ****     }
1078:driver_st7789.c ****     handle->format = data;                                                      /* set format */
1079:driver_st7789.c **** 
1080:driver_st7789.c ****     return 0;                                                                   /* success return 0
1081:driver_st7789.c **** }
1082:driver_st7789.c **** 
1083:driver_st7789.c **** /**
1084:driver_st7789.c ****  * @brief     memory continue write
1085:driver_st7789.c ****  * @param[in] *handle points to an st7789 handle structure
1086:driver_st7789.c ****  * @param[in] *data points to a data buffer
1087:driver_st7789.c ****  * @param[in] len is the data length
1088:driver_st7789.c ****  * @return    status code
1089:driver_st7789.c ****  *            - 0 success
1090:driver_st7789.c ****  *            - 1 memory continue write failed
1091:driver_st7789.c ****  *            - 2 handle is NULL
1092:driver_st7789.c ****  *            - 3 handle is not initialized
1093:driver_st7789.c ****  * @note      none
1094:driver_st7789.c ****  */
1095:driver_st7789.c **** uint8_t st7789_memory_continue_write(st7789_handle_t *handle, uint8_t *data, uint16_t len)
1096:driver_st7789.c **** {
1097:driver_st7789.c ****     if (handle == NULL)                                                        /* check handle */
1098:driver_st7789.c ****     {
1099:driver_st7789.c ****         return 2;                                                              /* return error */
ARM GAS  C:\Users\haske\AppData\Local\Temp\cc9TNOGL.s 			page 24


1100:driver_st7789.c ****     }
1101:driver_st7789.c ****     if (handle->inited != 1)                                                   /* check handle init
1102:driver_st7789.c ****     {
1103:driver_st7789.c ****         return 3;                                                              /* return error */
1104:driver_st7789.c ****     }
1105:driver_st7789.c **** 
1106:driver_st7789.c ****     if (a_st7789_write_byte(handle, ST7789_CMD_RAMWRC, ST7789_CMD) != 0)       /* write memory writ
1107:driver_st7789.c ****     {
1108:driver_st7789.c ****         handle->debug_print("st7789: write command failed.\n");                /* write command fai
1109:driver_st7789.c **** 
1110:driver_st7789.c ****         return 1;                                                              /* return error */
1111:driver_st7789.c ****     }
1112:driver_st7789.c ****     if (a_st7789_write_bytes(handle, data, len, ST7789_DATA) != 0)             /* write data */
1113:driver_st7789.c ****     {
1114:driver_st7789.c ****         handle->debug_print("st7789: write data failed.\n");                   /* write data failed
1115:driver_st7789.c **** 
1116:driver_st7789.c ****         return 1;                                                              /* return error */
1117:driver_st7789.c ****     }
1118:driver_st7789.c **** 
1119:driver_st7789.c ****     return 0;                                                                  /* success return 0 
1120:driver_st7789.c **** }
1121:driver_st7789.c **** 
1122:driver_st7789.c **** /**
1123:driver_st7789.c ****  * @brief     set tear scanline
1124:driver_st7789.c ****  * @param[in] *handle points to an st7789 handle structure
1125:driver_st7789.c ****  * @param[in] l is the tear line
1126:driver_st7789.c ****  * @return    status code
1127:driver_st7789.c ****  *            - 0 success
1128:driver_st7789.c ****  *            - 1 set tear scanline failed
1129:driver_st7789.c ****  *            - 2 handle is NULL
1130:driver_st7789.c ****  *            - 3 handle is not initialized
1131:driver_st7789.c ****  * @note      none
1132:driver_st7789.c ****  */
1133:driver_st7789.c **** uint8_t st7789_set_tear_scanline(st7789_handle_t *handle, uint16_t l)
1134:driver_st7789.c **** {
1135:driver_st7789.c ****     uint8_t buf[2];
1136:driver_st7789.c **** 
1137:driver_st7789.c ****     if (handle == NULL)                                                         /* check handle */
1138:driver_st7789.c ****     {
1139:driver_st7789.c ****         return 2;                                                               /* return error */
1140:driver_st7789.c ****     }
1141:driver_st7789.c ****     if (handle->inited != 1)                                                    /* check handle ini
1142:driver_st7789.c ****     {
1143:driver_st7789.c ****         return 3;                                                               /* return error */
1144:driver_st7789.c ****     }
1145:driver_st7789.c **** 
1146:driver_st7789.c ****     if (a_st7789_write_byte(handle, ST7789_CMD_TESCAN, ST7789_CMD) != 0)        /* write set tear s
1147:driver_st7789.c ****     {
1148:driver_st7789.c ****         handle->debug_print("st7789: write command failed.\n");                 /* write command fa
1149:driver_st7789.c **** 
1150:driver_st7789.c ****         return 1;                                                               /* return error */
1151:driver_st7789.c ****     }
1152:driver_st7789.c ****     buf[0] = (l >> 8) & 0xFF;                                                   /* start line msb *
1153:driver_st7789.c ****     buf[1] = (l >> 0) & 0xFF;                                                   /* start line lsb *
1154:driver_st7789.c ****     if (a_st7789_write_bytes(handle, buf, 2, ST7789_DATA) != 0)                 /* write data */
1155:driver_st7789.c ****     {
1156:driver_st7789.c ****         handle->debug_print("st7789: write data failed.\n");                    /* write data faile
ARM GAS  C:\Users\haske\AppData\Local\Temp\cc9TNOGL.s 			page 25


1157:driver_st7789.c **** 
1158:driver_st7789.c ****         return 1;                                                               /* return error */
1159:driver_st7789.c ****     }
1160:driver_st7789.c **** 
1161:driver_st7789.c ****     return 0;                                                                   /* success return 0
1162:driver_st7789.c **** }
1163:driver_st7789.c **** 
1164:driver_st7789.c **** /**
1165:driver_st7789.c ****  * @brief     set display brightness
1166:driver_st7789.c ****  * @param[in] *handle points to an st7789 handle structure
1167:driver_st7789.c ****  * @param[in] brightness is the display brightness
1168:driver_st7789.c ****  * @return    status code
1169:driver_st7789.c ****  *            - 0 success
1170:driver_st7789.c ****  *            - 1 set display brightness failed
1171:driver_st7789.c ****  *            - 2 handle is NULL
1172:driver_st7789.c ****  *            - 3 handle is not initialized
1173:driver_st7789.c ****  * @note      none
1174:driver_st7789.c ****  */
1175:driver_st7789.c **** uint8_t st7789_set_display_brightness(st7789_handle_t *handle, uint8_t brightness)
1176:driver_st7789.c **** {
1177:driver_st7789.c ****     if (handle == NULL)                                                         /* check handle */
1178:driver_st7789.c ****     {
1179:driver_st7789.c ****         return 2;                                                               /* return error */
1180:driver_st7789.c ****     }
1181:driver_st7789.c ****     if (handle->inited != 1)                                                    /* check handle ini
1182:driver_st7789.c ****     {
1183:driver_st7789.c ****         return 3;                                                               /* return error */
1184:driver_st7789.c ****     }
1185:driver_st7789.c **** 
1186:driver_st7789.c ****     if (a_st7789_write_byte(handle, ST7789_CMD_WRDISBV, ST7789_CMD) != 0)       /* write display br
1187:driver_st7789.c ****     {
1188:driver_st7789.c ****         handle->debug_print("st7789: write command failed.\n");                 /* write command fa
1189:driver_st7789.c **** 
1190:driver_st7789.c ****         return 1;                                                               /* return error */
1191:driver_st7789.c ****     }
1192:driver_st7789.c **** 
1193:driver_st7789.c ****     if (a_st7789_write_byte(handle, brightness, ST7789_DATA) != 0)              /* write brightness
1194:driver_st7789.c ****     {
1195:driver_st7789.c ****         handle->debug_print("st7789: write data failed.\n");                    /* write data faile
1196:driver_st7789.c **** 
1197:driver_st7789.c ****         return 1;                                                               /* return error */
1198:driver_st7789.c ****     }
1199:driver_st7789.c **** 
1200:driver_st7789.c ****     return 0;                                                                   /* success return 0
1201:driver_st7789.c **** }
1202:driver_st7789.c **** 
1203:driver_st7789.c **** /**
1204:driver_st7789.c ****  * @brief     set display control
1205:driver_st7789.c ****  * @param[in] *handle points to an st7789 handle structure
1206:driver_st7789.c ****  * @param[in] brightness_control_block is a bool value
1207:driver_st7789.c ****  * @param[in] display_dimming is a bool value
1208:driver_st7789.c ****  * @param[in] backlight_control is a bool value
1209:driver_st7789.c ****  * @return    status code
1210:driver_st7789.c ****  *            - 0 success
1211:driver_st7789.c ****  *            - 1 set display control failed
1212:driver_st7789.c ****  *            - 2 handle is NULL
1213:driver_st7789.c ****  *            - 3 handle is not initialized
ARM GAS  C:\Users\haske\AppData\Local\Temp\cc9TNOGL.s 			page 26


1214:driver_st7789.c ****  * @note      none
1215:driver_st7789.c ****  */
1216:driver_st7789.c **** uint8_t st7789_set_display_control(st7789_handle_t *handle, st7789_bool_t brightness_control_block,
1217:driver_st7789.c ****                                    st7789_bool_t display_dimming, st7789_bool_t backlight_control)
1218:driver_st7789.c **** {
1219:driver_st7789.c ****     uint8_t data;
1220:driver_st7789.c **** 
1221:driver_st7789.c ****     if (handle == NULL)                                                         /* check handle */
1222:driver_st7789.c ****     {
1223:driver_st7789.c ****         return 2;                                                               /* return error */
1224:driver_st7789.c ****     }
1225:driver_st7789.c ****     if (handle->inited != 1)                                                    /* check handle ini
1226:driver_st7789.c ****     {
1227:driver_st7789.c ****         return 3;                                                               /* return error */
1228:driver_st7789.c ****     }
1229:driver_st7789.c **** 
1230:driver_st7789.c ****     if (a_st7789_write_byte(handle, ST7789_CMD_WRCTRLD, ST7789_CMD) != 0)       /* write CTRL displ
1231:driver_st7789.c ****     {
1232:driver_st7789.c ****         handle->debug_print("st7789: write command failed.\n");                 /* write command fa
1233:driver_st7789.c **** 
1234:driver_st7789.c ****         return 1;                                                               /* return error */
1235:driver_st7789.c ****     }
1236:driver_st7789.c **** 
1237:driver_st7789.c ****     data = (brightness_control_block << 5) | (display_dimming << 3)
1238:driver_st7789.c ****             | (backlight_control << 2);                                         /* set control data
1239:driver_st7789.c ****     if (a_st7789_write_byte(handle, data, ST7789_DATA) != 0)                    /* write control */
1240:driver_st7789.c ****     {
1241:driver_st7789.c ****         handle->debug_print("st7789: write data failed.\n");                    /* write data faile
1242:driver_st7789.c **** 
1243:driver_st7789.c ****         return 1;                                                               /* return error */
1244:driver_st7789.c ****     }
1245:driver_st7789.c **** 
1246:driver_st7789.c ****     return 0;                                                                   /* success return 0
1247:driver_st7789.c **** }
1248:driver_st7789.c **** 
1249:driver_st7789.c **** /**
1250:driver_st7789.c ****  * @brief     set brightness control and color enhancement
1251:driver_st7789.c ****  * @param[in] *handle points to an st7789 handle structure
1252:driver_st7789.c ****  * @param[in] color_enhancement is a bool value
1253:driver_st7789.c ****  * @param[in] mode is the color enhancement mode
1254:driver_st7789.c ****  * @param[in] level is the color enhancement level
1255:driver_st7789.c ****  * @return    status code
1256:driver_st7789.c ****  *            - 0 success
1257:driver_st7789.c ****  *            - 1 set brightness control and color enhancement failed
1258:driver_st7789.c ****  *            - 2 handle is NULL
1259:driver_st7789.c ****  *            - 3 handle is not initialized
1260:driver_st7789.c ****  * @note      none
1261:driver_st7789.c ****  */
1262:driver_st7789.c **** uint8_t st7789_set_brightness_control_and_color_enhancement(st7789_handle_t *handle, st7789_bool_t 
1263:driver_st7789.c ****                                                             st7789_color_enhancement_mode_t mode, s
1264:driver_st7789.c **** {
1265:driver_st7789.c ****     uint8_t data;
1266:driver_st7789.c **** 
1267:driver_st7789.c ****     if (handle == NULL)                                                         /* check handle */
1268:driver_st7789.c ****     {
1269:driver_st7789.c ****         return 2;                                                               /* return error */
1270:driver_st7789.c ****     }
ARM GAS  C:\Users\haske\AppData\Local\Temp\cc9TNOGL.s 			page 27


1271:driver_st7789.c ****     if (handle->inited != 1)                                                    /* check handle ini
1272:driver_st7789.c ****     {
1273:driver_st7789.c ****         return 3;                                                               /* return error */
1274:driver_st7789.c ****     }
1275:driver_st7789.c **** 
1276:driver_st7789.c ****     if (a_st7789_write_byte(handle, ST7789_CMD_WRCACE, ST7789_CMD) != 0)       /* write content ada
1277:driver_st7789.c ****     {
1278:driver_st7789.c ****         handle->debug_print("st7789: write command failed.\n");                 /* write command fa
1279:driver_st7789.c **** 
1280:driver_st7789.c ****         return 1;                                                               /* return error */
1281:driver_st7789.c ****     }
1282:driver_st7789.c **** 
1283:driver_st7789.c ****     data = (color_enhancement << 7) | (level << 4) | (mode << 0);               /* set control data
1284:driver_st7789.c ****     if (a_st7789_write_byte(handle, data, ST7789_DATA) != 0)                    /* write control */
1285:driver_st7789.c ****     {
1286:driver_st7789.c ****         handle->debug_print("st7789: write data failed.\n");                    /* write data faile
1287:driver_st7789.c **** 
1288:driver_st7789.c ****         return 1;                                                               /* return error */
1289:driver_st7789.c ****     }
1290:driver_st7789.c **** 
1291:driver_st7789.c ****     return 0;                                                                   /* success return 0
1292:driver_st7789.c **** }
1293:driver_st7789.c **** 
1294:driver_st7789.c **** /**
1295:driver_st7789.c ****  * @brief     set cabc minimum brightness
1296:driver_st7789.c ****  * @param[in] *handle points to an st7789 handle structure
1297:driver_st7789.c ****  * @param[in] brightness is the display brightness
1298:driver_st7789.c ****  * @return    status code
1299:driver_st7789.c ****  *            - 0 success
1300:driver_st7789.c ****  *            - 1 set cabc minimum brightness failed
1301:driver_st7789.c ****  *            - 2 handle is NULL
1302:driver_st7789.c ****  *            - 3 handle is not initialized
1303:driver_st7789.c ****  * @note      none
1304:driver_st7789.c ****  */
1305:driver_st7789.c **** uint8_t st7789_set_cabc_minimum_brightness(st7789_handle_t *handle, uint8_t brightness)
1306:driver_st7789.c **** {
1307:driver_st7789.c ****     if (handle == NULL)                                                         /* check handle */
1308:driver_st7789.c ****     {
1309:driver_st7789.c ****         return 2;                                                               /* return error */
1310:driver_st7789.c ****     }
1311:driver_st7789.c ****     if (handle->inited != 1)                                                    /* check handle ini
1312:driver_st7789.c ****     {
1313:driver_st7789.c ****         return 3;                                                               /* return error */
1314:driver_st7789.c ****     }
1315:driver_st7789.c **** 
1316:driver_st7789.c ****     if (a_st7789_write_byte(handle, ST7789_CMD_WRCABCMB, ST7789_CMD) != 0)      /* write CABC minim
1317:driver_st7789.c ****     {
1318:driver_st7789.c ****         handle->debug_print("st7789: write command failed.\n");                 /* write command fa
1319:driver_st7789.c **** 
1320:driver_st7789.c ****         return 1;                                                               /* return error */
1321:driver_st7789.c ****     }
1322:driver_st7789.c **** 
1323:driver_st7789.c ****     if (a_st7789_write_byte(handle, brightness, ST7789_DATA) != 0)              /* write brightness
1324:driver_st7789.c ****     {
1325:driver_st7789.c ****         handle->debug_print("st7789: write data failed.\n");                    /* write data faile
1326:driver_st7789.c **** 
1327:driver_st7789.c ****         return 1;                                                               /* return error */
ARM GAS  C:\Users\haske\AppData\Local\Temp\cc9TNOGL.s 			page 28


1328:driver_st7789.c ****     }
1329:driver_st7789.c **** 
1330:driver_st7789.c ****     return 0;                                                                   /* success return 0
1331:driver_st7789.c **** }
1332:driver_st7789.c **** 
1333:driver_st7789.c **** /**
1334:driver_st7789.c ****  * @brief     set ram control
1335:driver_st7789.c ****  * @param[in] *handle points to an st7789 handle structure
1336:driver_st7789.c ****  * @param[in] ram_mode is the ram mode
1337:driver_st7789.c ****  * @param[in] display_mode is the display mode
1338:driver_st7789.c ****  * @param[in] frame_type is the frame type
1339:driver_st7789.c ****  * @param[in] data_mode is the data mode
1340:driver_st7789.c ****  * @param[in] bus_width is the bus width
1341:driver_st7789.c ****  * @param[in] pixel_type is the pixel type
1342:driver_st7789.c ****  * @return    status code
1343:driver_st7789.c ****  *            - 0 success
1344:driver_st7789.c ****  *            - 1 set ram control failed
1345:driver_st7789.c ****  *            - 2 handle is NULL
1346:driver_st7789.c ****  *            - 3 handle is not initialized
1347:driver_st7789.c ****  * @note      none
1348:driver_st7789.c ****  */
1349:driver_st7789.c **** uint8_t st7789_set_ram_control(st7789_handle_t *handle,
1350:driver_st7789.c ****                                st7789_ram_access_t ram_mode,
1351:driver_st7789.c ****                                st7789_display_mode_t display_mode,
1352:driver_st7789.c ****                                st7789_frame_type_t frame_type,
1353:driver_st7789.c ****                                st7789_data_mode_t data_mode,
1354:driver_st7789.c ****                                st7789_rgb_bus_width_t bus_width,
1355:driver_st7789.c ****                                st7789_pixel_type_t pixel_type)
1356:driver_st7789.c **** {
1357:driver_st7789.c ****     uint8_t buf[2];
1358:driver_st7789.c **** 
1359:driver_st7789.c ****     if (handle == NULL)                                                           /* check handle *
1360:driver_st7789.c ****     {
1361:driver_st7789.c ****         return 2;                                                                 /* return error *
1362:driver_st7789.c ****     }
1363:driver_st7789.c ****     if (handle->inited != 1)                                                      /* check handle i
1364:driver_st7789.c ****     {
1365:driver_st7789.c ****         return 3;                                                                 /* return error *
1366:driver_st7789.c ****     }
1367:driver_st7789.c **** 
1368:driver_st7789.c ****     if (a_st7789_write_byte(handle, ST7789_CMD_RAMCTRL, ST7789_CMD) != 0)         /* write ram cont
1369:driver_st7789.c ****     {
1370:driver_st7789.c ****         handle->debug_print("st7789: write command failed.\n");                   /* write command 
1371:driver_st7789.c **** 
1372:driver_st7789.c ****         return 1;                                                                 /* return error *
1373:driver_st7789.c ****     }
1374:driver_st7789.c ****     buf[0] = (ram_mode << 4) | (display_mode << 0);                               /* set param1 */
1375:driver_st7789.c ****     buf[1] = (frame_type << 4) | (data_mode << 3) |
1376:driver_st7789.c ****              (bus_width << 2) | (pixel_type << 0);                                /* set param2 */
1377:driver_st7789.c ****     if (a_st7789_write_bytes(handle, buf, 2, ST7789_DATA) != 0)                   /* write data */
1378:driver_st7789.c ****     {
1379:driver_st7789.c ****         handle->debug_print("st7789: write data failed.\n");                      /* write data fai
1380:driver_st7789.c **** 
1381:driver_st7789.c ****         return 1;                                                                 /* return error *
1382:driver_st7789.c ****     }
1383:driver_st7789.c **** 
1384:driver_st7789.c ****     return 0;                                                                     /* success return
ARM GAS  C:\Users\haske\AppData\Local\Temp\cc9TNOGL.s 			page 29


1385:driver_st7789.c **** }
1386:driver_st7789.c **** 
1387:driver_st7789.c **** /**
1388:driver_st7789.c ****  * @brief     set rgb interface control
1389:driver_st7789.c ****  * @param[in] *handle points to an st7789 handle structure
1390:driver_st7789.c ****  * @param[in] rgb_mode is the rgb mode
1391:driver_st7789.c ****  * @param[in] rgb_if_mode is the rgb if enable mode
1392:driver_st7789.c ****  * @param[in] vspl is the vspl active level
1393:driver_st7789.c ****  * @param[in] hspl is the hspl active level
1394:driver_st7789.c ****  * @param[in] dpl is the dpl active level
1395:driver_st7789.c ****  * @param[in] epl is the epl active level
1396:driver_st7789.c ****  * @param[in] vbp is the rgb interface vsync back porch setting
1397:driver_st7789.c ****  * @param[in] hbp is the rgb interface hsync back porch setting
1398:driver_st7789.c ****  * @return    status code
1399:driver_st7789.c ****  *            - 0 success
1400:driver_st7789.c ****  *            - 1 set rgb interface control failed
1401:driver_st7789.c ****  *            - 2 handle is NULL
1402:driver_st7789.c ****  *            - 3 handle is not initialized
1403:driver_st7789.c ****  *            - 4 vbp > 0x7F
1404:driver_st7789.c ****  *            - 5 hbp > 0x1F
1405:driver_st7789.c ****  * @note      0x02 <= vbp <= 0x7F
1406:driver_st7789.c ****  *            0x02 <= hbp <= 0x1F
1407:driver_st7789.c ****  */
1408:driver_st7789.c **** uint8_t st7789_set_rgb_interface_control(st7789_handle_t *handle,
1409:driver_st7789.c ****                                          st7789_direct_rgb_mode_t rgb_mode,
1410:driver_st7789.c ****                                          st7789_rgb_if_enable_mode_t rgb_if_mode,
1411:driver_st7789.c ****                                          st7789_pin_level_t vspl,
1412:driver_st7789.c ****                                          st7789_pin_level_t hspl,
1413:driver_st7789.c ****                                          st7789_pin_level_t dpl,
1414:driver_st7789.c ****                                          st7789_pin_level_t epl,
1415:driver_st7789.c ****                                          uint8_t vbp,
1416:driver_st7789.c ****                                          uint8_t hbp)
1417:driver_st7789.c **** {
1418:driver_st7789.c ****     uint8_t buf[3];
1419:driver_st7789.c **** 
1420:driver_st7789.c ****     if (handle == NULL)                                                           /* check handle *
1421:driver_st7789.c ****     {
1422:driver_st7789.c ****         return 2;                                                                 /* return error *
1423:driver_st7789.c ****     }
1424:driver_st7789.c ****     if (handle->inited != 1)                                                      /* check handle i
1425:driver_st7789.c ****     {
1426:driver_st7789.c ****         return 3;                                                                 /* return error *
1427:driver_st7789.c ****     }
1428:driver_st7789.c ****     if (vbp > 0x7F)                                                               /* check vbp */
1429:driver_st7789.c ****     {
1430:driver_st7789.c ****         handle->debug_print("st7789: vbp > 0x7F.\n");                             /* vbp > 0x7F */
1431:driver_st7789.c **** 
1432:driver_st7789.c ****         return 4;                                                                 /* return error *
1433:driver_st7789.c ****     }
1434:driver_st7789.c ****     if (hbp > 0x1F)                                                               /* check hbp */
1435:driver_st7789.c ****     {
1436:driver_st7789.c ****         handle->debug_print("st7789: hbp > 0x1F.\n");                             /* hbp > 0x1F */
1437:driver_st7789.c **** 
1438:driver_st7789.c ****         return 5;                                                                 /* return error *
1439:driver_st7789.c ****     }
1440:driver_st7789.c **** 
1441:driver_st7789.c ****     if (a_st7789_write_byte(handle, ST7789_CMD_RGBCTRL, ST7789_CMD) != 0)         /* write rgb cont
ARM GAS  C:\Users\haske\AppData\Local\Temp\cc9TNOGL.s 			page 30


1442:driver_st7789.c ****     {
1443:driver_st7789.c ****         handle->debug_print("st7789: write command failed.\n");                   /* write command 
1444:driver_st7789.c **** 
1445:driver_st7789.c ****         return 1;                                                                 /* return error *
1446:driver_st7789.c ****     }
1447:driver_st7789.c ****     buf[0] = (rgb_mode << 7) | (rgb_if_mode << 5) |
1448:driver_st7789.c ****              (vspl << 3) | (hspl << 2) | (dpl << 1) | (epl << 0);                 /* set param1 */
1449:driver_st7789.c ****     buf[1] = vbp & 0x7F;                                                          /* set param2 */
1450:driver_st7789.c ****     buf[2] = hbp & 0x1F;                                                          /* set param3 */
1451:driver_st7789.c ****     if (a_st7789_write_bytes(handle, buf, 3, ST7789_DATA) != 0)                   /* write data */
1452:driver_st7789.c ****     {
1453:driver_st7789.c ****         handle->debug_print("st7789: write data failed.\n");                      /* write data fai
1454:driver_st7789.c **** 
1455:driver_st7789.c ****         return 1;                                                                 /* return error *
1456:driver_st7789.c ****     }
1457:driver_st7789.c **** 
1458:driver_st7789.c ****     return 0;                                                                     /* success return
1459:driver_st7789.c **** }
1460:driver_st7789.c **** 
1461:driver_st7789.c **** /**
1462:driver_st7789.c ****  * @brief     set porch
1463:driver_st7789.c ****  * @param[in] *handle points to an st7789 handle structure
1464:driver_st7789.c ****  * @param[in] back_porch_normal is the back porch setting in normal mode
1465:driver_st7789.c ****  * @param[in] front_porch_normal is the front porch setting in normal mode
1466:driver_st7789.c ****  * @param[in] separate_porch_enable is a bool value
1467:driver_st7789.c ****  * @param[in] back_porch_idle is the back porch setting in idle mode
1468:driver_st7789.c ****  * @param[in] front_porch_idle is the front porch setting in idle mode
1469:driver_st7789.c ****  * @param[in] back_porch_partial is the back porch setting in partial mode
1470:driver_st7789.c ****  * @param[in] front_porch_partial is the front porch setting in partial mode
1471:driver_st7789.c ****  * @return    status code
1472:driver_st7789.c ****  *            - 0 success
1473:driver_st7789.c ****  *            - 1 set porch failed
1474:driver_st7789.c ****  *            - 2 handle is NULL
1475:driver_st7789.c ****  *            - 3 handle is not initialized
1476:driver_st7789.c ****  *            - 4 back_porch_normal > 0x7F
1477:driver_st7789.c ****  *            - 5 front_porch_normal > 0x7F
1478:driver_st7789.c ****  *            - 6 back_porch_idle > 0xF
1479:driver_st7789.c ****  *            - 7 front_porch_idle > 0xF
1480:driver_st7789.c ****  *            - 8 back_porch_partial > 0xF
1481:driver_st7789.c ****  *            - 9 front_porch_partial > 0xF
1482:driver_st7789.c ****  * @note      0x01 <= back_porch_normal <= 0x7F
1483:driver_st7789.c ****  *            0x01 <= front_porch_normal <= 0x7F
1484:driver_st7789.c ****  *            0x01 <= back_porch_idle <= 0xF
1485:driver_st7789.c ****  *            0x01 <= front_porch_idle <= 0xF
1486:driver_st7789.c ****  *            0x01 <= back_porch_partial <= 0xF
1487:driver_st7789.c ****  *            0x01 <= front_porch_partial <= 0xF
1488:driver_st7789.c ****  */
1489:driver_st7789.c **** uint8_t st7789_set_porch(st7789_handle_t *handle,
1490:driver_st7789.c ****                          uint8_t back_porch_normal,
1491:driver_st7789.c ****                          uint8_t front_porch_normal,
1492:driver_st7789.c ****                          st7789_bool_t separate_porch_enable,
1493:driver_st7789.c ****                          uint8_t back_porch_idle,
1494:driver_st7789.c ****                          uint8_t front_porch_idle,
1495:driver_st7789.c ****                          uint8_t back_porch_partial,
1496:driver_st7789.c ****                          uint8_t front_porch_partial)
1497:driver_st7789.c **** {
1498:driver_st7789.c ****     uint8_t buf[5];
ARM GAS  C:\Users\haske\AppData\Local\Temp\cc9TNOGL.s 			page 31


1499:driver_st7789.c **** 
1500:driver_st7789.c ****     if (handle == NULL)                                                           /* check handle *
1501:driver_st7789.c ****     {
1502:driver_st7789.c ****         return 2;                                                                 /* return error *
1503:driver_st7789.c ****     }
1504:driver_st7789.c ****     if (handle->inited != 1)                                                      /* check handle i
1505:driver_st7789.c ****     {
1506:driver_st7789.c ****         return 3;                                                                 /* return error *
1507:driver_st7789.c ****     }
1508:driver_st7789.c ****     if (back_porch_normal > 0x7F)                                                 /* check back_por
1509:driver_st7789.c ****     {
1510:driver_st7789.c ****         handle->debug_print("st7789: back_porch_normal > 0x7F.\n");               /* back_porch_nor
1511:driver_st7789.c **** 
1512:driver_st7789.c ****         return 4;                                                                 /* return error *
1513:driver_st7789.c ****     }
1514:driver_st7789.c ****     if (front_porch_normal > 0x7F)                                                /* check front_po
1515:driver_st7789.c ****     {
1516:driver_st7789.c ****         handle->debug_print("st7789: front_porch_normal > 0x7F.\n");              /* front_porch_no
1517:driver_st7789.c **** 
1518:driver_st7789.c ****         return 5;                                                                 /* return error *
1519:driver_st7789.c ****     }
1520:driver_st7789.c ****     if (back_porch_idle > 0xF)                                                    /* check back_por
1521:driver_st7789.c ****     {
1522:driver_st7789.c ****         handle->debug_print("st7789: back_porch_idle > 0xF.\n");                  /* back_porch_idl
1523:driver_st7789.c **** 
1524:driver_st7789.c ****         return 6;                                                                 /* return error *
1525:driver_st7789.c ****     }
1526:driver_st7789.c ****     if (front_porch_idle > 0xF)                                                   /* check front_po
1527:driver_st7789.c ****     {
1528:driver_st7789.c ****         handle->debug_print("st7789: front_porch_idle > 0xF.\n");                 /* front_porch_id
1529:driver_st7789.c **** 
1530:driver_st7789.c ****         return 7;                                                                 /* return error *
1531:driver_st7789.c ****     }
1532:driver_st7789.c ****     if (back_porch_partial > 0xF)                                                 /* check back_por
1533:driver_st7789.c ****     {
1534:driver_st7789.c ****         handle->debug_print("st7789: back_porch_partial > 0xF.\n");               /* back_porch_par
1535:driver_st7789.c **** 
1536:driver_st7789.c ****         return 8;                                                                 /* return error *
1537:driver_st7789.c ****     }
1538:driver_st7789.c ****     if (front_porch_partial > 0xF)                                                /* check front_po
1539:driver_st7789.c ****     {
1540:driver_st7789.c ****         handle->debug_print("st7789: front_porch_partial > 0xF.\n");              /* front_porch_pa
1541:driver_st7789.c **** 
1542:driver_st7789.c ****         return 9;                                                                 /* return error *
1543:driver_st7789.c ****     }
1544:driver_st7789.c **** 
1545:driver_st7789.c ****     if (a_st7789_write_byte(handle, ST7789_CMD_PORCTRL, ST7789_CMD) != 0)         /* write porch co
1546:driver_st7789.c ****     {
1547:driver_st7789.c ****         handle->debug_print("st7789: write command failed.\n");                   /* write command 
1548:driver_st7789.c **** 
1549:driver_st7789.c ****         return 1;                                                                 /* return error *
1550:driver_st7789.c ****     }
1551:driver_st7789.c ****     buf[0] = back_porch_normal;                                                   /* set param1 */
1552:driver_st7789.c ****     buf[1] = front_porch_normal;                                                  /* set param2 */
1553:driver_st7789.c ****     buf[2] = separate_porch_enable;                                               /* set param3 */
1554:driver_st7789.c ****     buf[3] = (back_porch_idle & 0xF) << 4 | (front_porch_idle & 0xF);             /* set param4 */
1555:driver_st7789.c ****     buf[4] = (back_porch_partial & 0xF) << 4 | (front_porch_partial & 0xF);       /* set param5 */
ARM GAS  C:\Users\haske\AppData\Local\Temp\cc9TNOGL.s 			page 32


1556:driver_st7789.c ****     if (a_st7789_write_bytes(handle, buf, 5, ST7789_DATA) != 0)                   /* write data */
1557:driver_st7789.c ****     {
1558:driver_st7789.c ****         handle->debug_print("st7789: write data failed.\n");                      /* write data fai
1559:driver_st7789.c **** 
1560:driver_st7789.c ****         return 1;                                                                 /* return error *
1561:driver_st7789.c ****     }
1562:driver_st7789.c **** 
1563:driver_st7789.c ****     return 0;                                                                     /* success return
1564:driver_st7789.c **** }
1565:driver_st7789.c **** 
1566:driver_st7789.c **** /**
1567:driver_st7789.c ****  * @brief     set frame rate control
1568:driver_st7789.c ****  * @param[in] *handle points to an st7789 handle structure
1569:driver_st7789.c ****  * @param[in] separate_fr_control is a bool value
1570:driver_st7789.c ****  * @param[in] div_control is the frame rate divided control
1571:driver_st7789.c ****  * @param[in] idle_mode is the inversion idle mode
1572:driver_st7789.c ****  * @param[in] idle_frame_rate is the idle frame rate
1573:driver_st7789.c ****  * @param[in] partial_mode is the inversion partial mode
1574:driver_st7789.c ****  * @param[in] partial_frame_rate is the partial frame rate
1575:driver_st7789.c ****  * @return    status code
1576:driver_st7789.c ****  *            - 0 success
1577:driver_st7789.c ****  *            - 1 set frame rate control failed
1578:driver_st7789.c ****  *            - 2 handle is NULL
1579:driver_st7789.c ****  *            - 3 handle is not initialized
1580:driver_st7789.c ****  *            - 4 idle_frame_rate > 0x1F
1581:driver_st7789.c ****  *            - 5 partial_frame_rate > 0x1F
1582:driver_st7789.c ****  * @note      0 <= idle_frame_rate <= 0x1F
1583:driver_st7789.c ****  *            0 <= partial_frame_rate <= 0x1F
1584:driver_st7789.c ****  */
1585:driver_st7789.c **** uint8_t st7789_set_frame_rate_control(st7789_handle_t *handle,
1586:driver_st7789.c ****                                       st7789_bool_t separate_fr_control,
1587:driver_st7789.c ****                                       st7789_frame_rate_divided_control_t div_control,
1588:driver_st7789.c ****                                       st7789_inversion_idle_mode_t idle_mode,
1589:driver_st7789.c ****                                       uint8_t idle_frame_rate,
1590:driver_st7789.c ****                                       st7789_inversion_partial_mode_t partial_mode,
1591:driver_st7789.c ****                                       uint8_t partial_frame_rate)
1592:driver_st7789.c **** {
1593:driver_st7789.c ****     uint8_t buf[3];
1594:driver_st7789.c **** 
1595:driver_st7789.c ****     if (handle == NULL)                                                           /* check handle *
1596:driver_st7789.c ****     {
1597:driver_st7789.c ****         return 2;                                                                 /* return error *
1598:driver_st7789.c ****     }
1599:driver_st7789.c ****     if (handle->inited != 1)                                                      /* check handle i
1600:driver_st7789.c ****     {
1601:driver_st7789.c ****         return 3;                                                                 /* return error *
1602:driver_st7789.c ****     }
1603:driver_st7789.c ****     if (idle_frame_rate > 0x1F)                                                   /* check idle_fra
1604:driver_st7789.c ****     {
1605:driver_st7789.c ****         handle->debug_print("st7789: idle_frame_rate > 0x1F.\n");                 /* idle_frame_rat
1606:driver_st7789.c **** 
1607:driver_st7789.c ****         return 4;                                                                 /* return error *
1608:driver_st7789.c ****     }
1609:driver_st7789.c ****     if (partial_frame_rate > 0x1F)                                                /* check partial_
1610:driver_st7789.c ****     {
1611:driver_st7789.c ****         handle->debug_print("st7789: partial_frame_rate > 0x1F.\n");              /* partial_frame_
1612:driver_st7789.c **** 
ARM GAS  C:\Users\haske\AppData\Local\Temp\cc9TNOGL.s 			page 33


1613:driver_st7789.c ****         return 5;                                                                 /* return error *
1614:driver_st7789.c ****     }
1615:driver_st7789.c **** 
1616:driver_st7789.c ****     if (a_st7789_write_byte(handle, ST7789_CMD_FRCTRL1, ST7789_CMD) != 0)         /* write frame ra
1617:driver_st7789.c ****     {
1618:driver_st7789.c ****         handle->debug_print("st7789: write command failed.\n");                   /* write command 
1619:driver_st7789.c **** 
1620:driver_st7789.c ****         return 1;                                                                 /* return error *
1621:driver_st7789.c ****     }
1622:driver_st7789.c ****     buf[0] = (separate_fr_control << 4) | (div_control << 0);                     /* set param1 */
1623:driver_st7789.c ****     buf[1] = (idle_mode << 5) | ((idle_frame_rate & 0x1F) << 0);                  /* set param2 */
1624:driver_st7789.c ****     buf[2] = (partial_mode << 5) | ((partial_frame_rate & 0x1F) << 0);            /* set param3 */
1625:driver_st7789.c ****     if (a_st7789_write_bytes(handle, buf, 3, ST7789_DATA) != 0)                   /* write data */
1626:driver_st7789.c ****     {
1627:driver_st7789.c ****         handle->debug_print("st7789: write data failed.\n");                      /* write data fai
1628:driver_st7789.c **** 
1629:driver_st7789.c ****         return 1;                                                                 /* return error *
1630:driver_st7789.c ****     }
1631:driver_st7789.c **** 
1632:driver_st7789.c ****     return 0;                                                                     /* success return
1633:driver_st7789.c **** }
1634:driver_st7789.c **** 
1635:driver_st7789.c **** /**
1636:driver_st7789.c ****  * @brief     set partial mode control
1637:driver_st7789.c ****  * @param[in] *handle points to an st7789 handle structure
1638:driver_st7789.c ****  * @param[in] level is the non-display source output level
1639:driver_st7789.c ****  * @param[in] mode is the non-display area scan mode
1640:driver_st7789.c ****  * @param[in] frequency is the non-display frame frequency
1641:driver_st7789.c ****  * @return    status code
1642:driver_st7789.c ****  *            - 0 success
1643:driver_st7789.c ****  *            - 1 set partial mode control failed
1644:driver_st7789.c ****  *            - 2 handle is NULL
1645:driver_st7789.c ****  *            - 3 handle is not initialized
1646:driver_st7789.c ****  * @note      none
1647:driver_st7789.c ****  */
1648:driver_st7789.c **** uint8_t st7789_set_partial_mode_control(st7789_handle_t *handle,
1649:driver_st7789.c ****                                         st7789_non_display_source_output_level_t level,
1650:driver_st7789.c ****                                         st7789_non_display_area_scan_mode_t mode,
1651:driver_st7789.c ****                                         st7789_non_display_frame_frequency_t frequency)
1652:driver_st7789.c **** {
1653:driver_st7789.c ****     uint8_t reg;
1654:driver_st7789.c **** 
1655:driver_st7789.c ****     if (handle == NULL)                                                           /* check handle *
1656:driver_st7789.c ****     {
1657:driver_st7789.c ****         return 2;                                                                 /* return error *
1658:driver_st7789.c ****     }
1659:driver_st7789.c ****     if (handle->inited != 1)                                                      /* check handle i
1660:driver_st7789.c ****     {
1661:driver_st7789.c ****         return 3;                                                                 /* return error *
1662:driver_st7789.c ****     }
1663:driver_st7789.c **** 
1664:driver_st7789.c ****     if (a_st7789_write_byte(handle, ST7789_CMD_PARCTRL, ST7789_CMD) != 0)         /* write partial 
1665:driver_st7789.c ****     {
1666:driver_st7789.c ****         handle->debug_print("st7789: write command failed.\n");                   /* write command 
1667:driver_st7789.c **** 
1668:driver_st7789.c ****         return 1;                                                                 /* return error *
1669:driver_st7789.c ****     }
ARM GAS  C:\Users\haske\AppData\Local\Temp\cc9TNOGL.s 			page 34


1670:driver_st7789.c ****     reg = (level << 7) | (mode << 4) | (frequency << 0);                          /* set param */
1671:driver_st7789.c ****     if (a_st7789_write_byte(handle, reg, ST7789_DATA) != 0)                       /* write data */
1672:driver_st7789.c ****     {
1673:driver_st7789.c ****         handle->debug_print("st7789: write data failed.\n");                      /* write data fai
1674:driver_st7789.c **** 
1675:driver_st7789.c ****         return 1;                                                                 /* return error *
1676:driver_st7789.c ****     }
1677:driver_st7789.c **** 
1678:driver_st7789.c ****     return 0;                                                                     /* success return
1679:driver_st7789.c **** }
1680:driver_st7789.c **** 
1681:driver_st7789.c **** /**
1682:driver_st7789.c ****  * @brief     set gate control
1683:driver_st7789.c ****  * @param[in] *handle points to an st7789 handle structure
1684:driver_st7789.c ****  * @param[in] vghs is the vghs level
1685:driver_st7789.c ****  * @param[in] vgls is the vgls level
1686:driver_st7789.c ****  * @return    status code
1687:driver_st7789.c ****  *            - 0 success
1688:driver_st7789.c ****  *            - 1 set gate control failed
1689:driver_st7789.c ****  *            - 2 handle is NULL
1690:driver_st7789.c ****  *            - 3 handle is not initialized
1691:driver_st7789.c ****  * @note      none
1692:driver_st7789.c ****  */
1693:driver_st7789.c **** uint8_t st7789_set_gate_control(st7789_handle_t *handle, st7789_vghs_t vghs, st7789_vgls_t vgls)
1694:driver_st7789.c **** {
1695:driver_st7789.c ****     uint8_t reg;
1696:driver_st7789.c **** 
1697:driver_st7789.c ****     if (handle == NULL)                                                           /* check handle *
1698:driver_st7789.c ****     {
1699:driver_st7789.c ****         return 2;                                                                 /* return error *
1700:driver_st7789.c ****     }
1701:driver_st7789.c ****     if (handle->inited != 1)                                                      /* check handle i
1702:driver_st7789.c ****     {
1703:driver_st7789.c ****         return 3;                                                                 /* return error *
1704:driver_st7789.c ****     }
1705:driver_st7789.c **** 
1706:driver_st7789.c ****     if (a_st7789_write_byte(handle, ST7789_CMD_GCTRL, ST7789_CMD) != 0)           /* write gate con
1707:driver_st7789.c ****     {
1708:driver_st7789.c ****         handle->debug_print("st7789: write command failed.\n");                   /* write command 
1709:driver_st7789.c **** 
1710:driver_st7789.c ****         return 1;                                                                 /* return error *
1711:driver_st7789.c ****     }
1712:driver_st7789.c ****     reg = (vghs << 4) | (vgls << 0);                                              /* set param */
1713:driver_st7789.c ****     if (a_st7789_write_byte(handle, reg, ST7789_DATA) != 0)                       /* write data */
1714:driver_st7789.c ****     {
1715:driver_st7789.c ****         handle->debug_print("st7789: write data failed.\n");                      /* write data fai
1716:driver_st7789.c **** 
1717:driver_st7789.c ****         return 1;                                                                 /* return error *
1718:driver_st7789.c ****     }
1719:driver_st7789.c **** 
1720:driver_st7789.c ****     return 0;                                                                     /* success return
1721:driver_st7789.c **** }
1722:driver_st7789.c **** 
1723:driver_st7789.c **** /**
1724:driver_st7789.c ****  * @brief     set gate on timing adjustment
1725:driver_st7789.c ****  * @param[in] *handle points to an st7789 handle structure
1726:driver_st7789.c ****  * @param[in] gate_on_timing_adjustment is the gate on timing adjustment
ARM GAS  C:\Users\haske\AppData\Local\Temp\cc9TNOGL.s 			page 35


1727:driver_st7789.c ****  * @param[in] gate_off_timing_adjustment_rgb is the gate off timing adjustment in rgb interface
1728:driver_st7789.c ****  * @param[in] gate_off_timing_adjustment is the gate off timing adjustment
1729:driver_st7789.c ****  * @return    status code
1730:driver_st7789.c ****  *            - 0 success
1731:driver_st7789.c ****  *            - 1 set gate on timing adjustment failed
1732:driver_st7789.c ****  *            - 2 handle is NULL
1733:driver_st7789.c ****  *            - 3 handle is not initialized
1734:driver_st7789.c ****  * @note      gate_on_timing_adjustment <= 0x3F
1735:driver_st7789.c ****  *            gate_off_timing_adjustment_rgb <= 0xF
1736:driver_st7789.c ****  *            gate_off_timing_adjustment <= 0xF
1737:driver_st7789.c ****  */
1738:driver_st7789.c **** uint8_t st7789_set_gate_on_timing_adjustment(st7789_handle_t *handle,
1739:driver_st7789.c ****                                              uint8_t gate_on_timing_adjustment,
1740:driver_st7789.c ****                                              uint8_t gate_off_timing_adjustment_rgb,
1741:driver_st7789.c ****                                              uint8_t gate_off_timing_adjustment)
1742:driver_st7789.c **** {
1743:driver_st7789.c ****     uint8_t buf[4];
1744:driver_st7789.c **** 
1745:driver_st7789.c ****     if (handle == NULL)                                                           /* check handle *
1746:driver_st7789.c ****     {
1747:driver_st7789.c ****         return 2;                                                                 /* return error *
1748:driver_st7789.c ****     }
1749:driver_st7789.c ****     if (handle->inited != 1)                                                      /* check handle i
1750:driver_st7789.c ****     {
1751:driver_st7789.c ****         return 3;                                                                 /* return error *
1752:driver_st7789.c ****     }
1753:driver_st7789.c ****     if (gate_on_timing_adjustment > 0x3F)                                         /* check gate_on_
1754:driver_st7789.c ****     {
1755:driver_st7789.c ****         handle->debug_print("st7789: gate_on_timing_adjustment > 0x3F.\n");       /* gate_on_timing
1756:driver_st7789.c **** 
1757:driver_st7789.c ****         return 4;                                                                 /* return error *
1758:driver_st7789.c ****     }
1759:driver_st7789.c ****     if (gate_off_timing_adjustment_rgb > 0xF)                                     /* check gate_off
1760:driver_st7789.c ****     {
1761:driver_st7789.c ****         handle->debug_print("st7789: gate_off_timing_adjustment_rgb > 0xF.\n");   /* gate_off_timin
1762:driver_st7789.c **** 
1763:driver_st7789.c ****         return 5;                                                                 /* return error *
1764:driver_st7789.c ****     }
1765:driver_st7789.c ****     if (gate_off_timing_adjustment > 0xF)                                         /* check gate_off
1766:driver_st7789.c ****     {
1767:driver_st7789.c ****         handle->debug_print("st7789: gate_off_timing_adjustment > 0xF.\n");       /* gate_off_timin
1768:driver_st7789.c **** 
1769:driver_st7789.c ****         return 6;                                                                 /* return error *
1770:driver_st7789.c ****     }
1771:driver_st7789.c **** 
1772:driver_st7789.c ****     if (a_st7789_write_byte(handle, ST7789_CMD_GTADJ, ST7789_CMD) != 0)           /* write gate on 
1773:driver_st7789.c ****     {
1774:driver_st7789.c ****         handle->debug_print("st7789: write command failed.\n");                   /* write command 
1775:driver_st7789.c **** 
1776:driver_st7789.c ****         return 1;                                                                 /* return error *
1777:driver_st7789.c ****     }
1778:driver_st7789.c ****     buf[0] = 0x2A;                                                                /* set param1 */
1779:driver_st7789.c ****     buf[1] = 0x2B;                                                                /* set param2 */
1780:driver_st7789.c ****     buf[2] = gate_on_timing_adjustment & 0x3F;                                    /* set param3 */
1781:driver_st7789.c ****     buf[3] = ((gate_off_timing_adjustment_rgb & 0xF) << 4) |
1782:driver_st7789.c ****              ((gate_off_timing_adjustment & 0xF) << 0);                           /* set param4 */
1783:driver_st7789.c ****     if (a_st7789_write_bytes(handle, buf, 4, ST7789_DATA) != 0)                   /* write data */
ARM GAS  C:\Users\haske\AppData\Local\Temp\cc9TNOGL.s 			page 36


1784:driver_st7789.c ****     {
1785:driver_st7789.c ****         handle->debug_print("st7789: write data failed.\n");                      /* write data fai
1786:driver_st7789.c **** 
1787:driver_st7789.c ****         return 1;                                                                 /* return error *
1788:driver_st7789.c ****     }
1789:driver_st7789.c **** 
1790:driver_st7789.c ****     return 0;                                                                     /* success return
1791:driver_st7789.c **** }
1792:driver_st7789.c **** 
1793:driver_st7789.c **** /**
1794:driver_st7789.c ****  * @brief     enable or disable digital gamma
1795:driver_st7789.c ****  * @param[in] *handle points to an st7789 handle structure
1796:driver_st7789.c ****  * @param[in] enable is a bool value
1797:driver_st7789.c ****  * @return    status code
1798:driver_st7789.c ****  *            - 0 success
1799:driver_st7789.c ****  *            - 1 set digital gamma failed
1800:driver_st7789.c ****  *            - 2 handle is NULL
1801:driver_st7789.c ****  *            - 3 handle is not initialized
1802:driver_st7789.c ****  * @note      none
1803:driver_st7789.c ****  */
1804:driver_st7789.c **** uint8_t st7789_set_digital_gamma(st7789_handle_t *handle, st7789_bool_t enable)
1805:driver_st7789.c **** {
1806:driver_st7789.c ****     uint8_t reg;
1807:driver_st7789.c **** 
1808:driver_st7789.c ****     if (handle == NULL)                                                           /* check handle *
1809:driver_st7789.c ****     {
1810:driver_st7789.c ****         return 2;                                                                 /* return error *
1811:driver_st7789.c ****     }
1812:driver_st7789.c ****     if (handle->inited != 1)                                                      /* check handle i
1813:driver_st7789.c ****     {
1814:driver_st7789.c ****         return 3;                                                                 /* return error *
1815:driver_st7789.c ****     }
1816:driver_st7789.c **** 
1817:driver_st7789.c ****     if (a_st7789_write_byte(handle, ST7789_CMD_DGMEN, ST7789_CMD) != 0)           /* write digital 
1818:driver_st7789.c ****     {
1819:driver_st7789.c ****         handle->debug_print("st7789: write command failed.\n");                   /* write command 
1820:driver_st7789.c **** 
1821:driver_st7789.c ****         return 1;                                                                 /* return error *
1822:driver_st7789.c ****     }
1823:driver_st7789.c ****     reg = enable << 2;                                                            /* set param */
1824:driver_st7789.c ****     if (a_st7789_write_byte(handle, reg, ST7789_DATA) != 0)                       /* write data */
1825:driver_st7789.c ****     {
1826:driver_st7789.c ****         handle->debug_print("st7789: write data failed.\n");                      /* write data fai
1827:driver_st7789.c **** 
1828:driver_st7789.c ****         return 1;                                                                 /* return error *
1829:driver_st7789.c ****     }
1830:driver_st7789.c **** 
1831:driver_st7789.c ****     return 0;                                                                     /* success return
1832:driver_st7789.c **** }
1833:driver_st7789.c **** 
1834:driver_st7789.c **** /**
1835:driver_st7789.c ****  * @brief     set vcoms
1836:driver_st7789.c ****  * @param[in] *handle points to an st7789 handle structure
1837:driver_st7789.c ****  * @param[in] vcoms is the vcoms
1838:driver_st7789.c ****  * @return    status code
1839:driver_st7789.c ****  *            - 0 success
1840:driver_st7789.c ****  *            - 1 set vcoms failed
ARM GAS  C:\Users\haske\AppData\Local\Temp\cc9TNOGL.s 			page 37


1841:driver_st7789.c ****  *            - 2 handle is NULL
1842:driver_st7789.c ****  *            - 3 handle is not initialized
1843:driver_st7789.c ****  *            - 4 vcoms > 0x3F
1844:driver_st7789.c ****  * @note      0 <= vcoms <= 0x3F
1845:driver_st7789.c ****  */
1846:driver_st7789.c **** uint8_t st7789_set_vcoms(st7789_handle_t *handle, uint8_t vcoms)
1847:driver_st7789.c **** {
1848:driver_st7789.c ****     uint8_t reg;
1849:driver_st7789.c **** 
1850:driver_st7789.c ****     if (handle == NULL)                                                           /* check handle *
1851:driver_st7789.c ****     {
1852:driver_st7789.c ****         return 2;                                                                 /* return error *
1853:driver_st7789.c ****     }
1854:driver_st7789.c ****     if (handle->inited != 1)                                                      /* check handle i
1855:driver_st7789.c ****     {
1856:driver_st7789.c ****         return 3;                                                                 /* return error *
1857:driver_st7789.c ****     }
1858:driver_st7789.c ****     if (vcoms > 0x3F)                                                             /* check vcoms */
1859:driver_st7789.c ****     {
1860:driver_st7789.c ****         handle->debug_print("st7789: vcoms > 0x3F.\n");                           /* vcoms > 0x3F *
1861:driver_st7789.c **** 
1862:driver_st7789.c ****         return 4;                                                                 /* return error *
1863:driver_st7789.c ****     }
1864:driver_st7789.c **** 
1865:driver_st7789.c ****     if (a_st7789_write_byte(handle, ST7789_CMD_VCOMS, ST7789_CMD) != 0)           /* write vcoms se
1866:driver_st7789.c ****     {
1867:driver_st7789.c ****         handle->debug_print("st7789: write command failed.\n");                   /* write command 
1868:driver_st7789.c **** 
1869:driver_st7789.c ****         return 1;                                                                 /* return error *
1870:driver_st7789.c ****     }
1871:driver_st7789.c ****     reg = vcoms & 0x3F;                                                           /* set param */
1872:driver_st7789.c ****     if (a_st7789_write_byte(handle, reg, ST7789_DATA) != 0)                       /* write data */
1873:driver_st7789.c ****     {
1874:driver_st7789.c ****         handle->debug_print("st7789: write data failed.\n");                      /* write data fai
1875:driver_st7789.c **** 
1876:driver_st7789.c ****         return 1;                                                                 /* return error *
1877:driver_st7789.c ****     }
1878:driver_st7789.c **** 
1879:driver_st7789.c ****     return 0;                                                                     /* success return
1880:driver_st7789.c **** }
1881:driver_st7789.c **** 
1882:driver_st7789.c **** /**
1883:driver_st7789.c ****  * @brief      convert the vcom to the register raw data
1884:driver_st7789.c ****  * @param[in]  *handle points to an st7789 handle structure
1885:driver_st7789.c ****  * @param[in]  v is the vcom
1886:driver_st7789.c ****  * @param[out] *reg points to a register raw buffer
1887:driver_st7789.c ****  * @return     status code
1888:driver_st7789.c ****  *             - 0 success
1889:driver_st7789.c ****  *             - 2 handle is NULL
1890:driver_st7789.c ****  *             - 3 handle is not initialized
1891:driver_st7789.c ****  * @note       none
1892:driver_st7789.c ****  */
1893:driver_st7789.c **** uint8_t st7789_vcom_convert_to_register(st7789_handle_t *handle, float v, uint8_t *reg)
1894:driver_st7789.c **** {
1895:driver_st7789.c ****     if (handle == NULL)                           /* check handle */
1896:driver_st7789.c ****     {
1897:driver_st7789.c ****         return 2;                                 /* return error */
ARM GAS  C:\Users\haske\AppData\Local\Temp\cc9TNOGL.s 			page 38


1898:driver_st7789.c ****     }
1899:driver_st7789.c ****     if (handle->inited != 1)                      /* check handle initialization */
1900:driver_st7789.c ****     {
1901:driver_st7789.c ****         return 3;                                 /* return error */
1902:driver_st7789.c ****     }
1903:driver_st7789.c **** 
1904:driver_st7789.c ****     *reg = (uint8_t)((v - 0.1f) / 0.025f);        /* convert real data to register data */
1905:driver_st7789.c **** 
1906:driver_st7789.c ****     return 0;                                     /* success return 0 */
1907:driver_st7789.c **** }
1908:driver_st7789.c **** 
1909:driver_st7789.c **** /**
1910:driver_st7789.c ****  * @brief      convert the register raw data to the vcom
1911:driver_st7789.c ****  * @param[in]  *handle points to an st7789 handle structure
1912:driver_st7789.c ****  * @param[in]  reg is the register raw data
1913:driver_st7789.c ****  * @param[out] *v points to a vcom buffer
1914:driver_st7789.c ****  * @return     status code
1915:driver_st7789.c ****  *             - 0 success
1916:driver_st7789.c ****  *             - 2 handle is NULL
1917:driver_st7789.c ****  *             - 3 handle is not initialized
1918:driver_st7789.c ****  * @note       none
1919:driver_st7789.c ****  */
1920:driver_st7789.c **** uint8_t st7789_vcom_convert_to_data(st7789_handle_t *handle, uint8_t reg, float *v)
1921:driver_st7789.c **** {
1922:driver_st7789.c ****     if (handle == NULL)                                  /* check handle */
1923:driver_st7789.c ****     {
1924:driver_st7789.c ****         return 2;                                        /* return error */
1925:driver_st7789.c ****     }
1926:driver_st7789.c ****     if (handle->inited != 1)                             /* check handle initialization */
1927:driver_st7789.c ****     {
1928:driver_st7789.c ****         return 3;                                        /* return error */
1929:driver_st7789.c ****     }
1930:driver_st7789.c **** 
1931:driver_st7789.c ****     *v = (uint8_t)((float)(reg) * 0.025f + 0.1f);        /* convert raw data to real data */
1932:driver_st7789.c **** 
1933:driver_st7789.c ****     return 0;                                            /* success return 0 */
1934:driver_st7789.c **** }
1935:driver_st7789.c **** 
1936:driver_st7789.c **** /**
1937:driver_st7789.c ****  * @brief     set lcm control
1938:driver_st7789.c ****  * @param[in] *handle points to an st7789 handle structure
1939:driver_st7789.c ****  * @param[in] xmy is a bool value
1940:driver_st7789.c ****  * @param[in] xbgr is a bool value
1941:driver_st7789.c ****  * @param[in] xinv is a bool value
1942:driver_st7789.c ****  * @param[in] xmx is a bool value
1943:driver_st7789.c ****  * @param[in] xmh is a bool value
1944:driver_st7789.c ****  * @param[in] xmv is a bool value
1945:driver_st7789.c ****  * @param[in] xgs is a bool value
1946:driver_st7789.c ****  * @return    status code
1947:driver_st7789.c ****  *            - 0 success
1948:driver_st7789.c ****  *            - 1 set lcm control failed
1949:driver_st7789.c ****  *            - 2 handle is NULL
1950:driver_st7789.c ****  *            - 3 handle is not initialized
1951:driver_st7789.c ****  * @note      none
1952:driver_st7789.c ****  */
1953:driver_st7789.c **** uint8_t st7789_set_lcm_control(st7789_handle_t *handle,
1954:driver_st7789.c ****                                st7789_bool_t xmy,
ARM GAS  C:\Users\haske\AppData\Local\Temp\cc9TNOGL.s 			page 39


1955:driver_st7789.c ****                                st7789_bool_t xbgr,
1956:driver_st7789.c ****                                st7789_bool_t xinv,
1957:driver_st7789.c ****                                st7789_bool_t xmx,
1958:driver_st7789.c ****                                st7789_bool_t xmh,
1959:driver_st7789.c ****                                st7789_bool_t xmv,
1960:driver_st7789.c ****                                st7789_bool_t xgs)
1961:driver_st7789.c **** {
1962:driver_st7789.c ****     uint8_t reg;
1963:driver_st7789.c **** 
1964:driver_st7789.c ****     if (handle == NULL)                                                           /* check handle *
1965:driver_st7789.c ****     {
1966:driver_st7789.c ****         return 2;                                                                 /* return error *
1967:driver_st7789.c ****     }
1968:driver_st7789.c ****     if (handle->inited != 1)                                                      /* check handle i
1969:driver_st7789.c ****     {
1970:driver_st7789.c ****         return 3;                                                                 /* return error *
1971:driver_st7789.c ****     }
1972:driver_st7789.c **** 
1973:driver_st7789.c ****     if (a_st7789_write_byte(handle, ST7789_CMD_LCMCTRL, ST7789_CMD) != 0)         /* write lcm cont
1974:driver_st7789.c ****     {
1975:driver_st7789.c ****         handle->debug_print("st7789: write command failed.\n");                   /* write command 
1976:driver_st7789.c **** 
1977:driver_st7789.c ****         return 1;                                                                 /* return error *
1978:driver_st7789.c ****     }
1979:driver_st7789.c ****     reg = (xmy << 6) | (xbgr << 5) | (xinv << 4) | (xmx << 3) |
1980:driver_st7789.c ****           (xmh << 2) | (xmv << 1) | (xgs << 0);                                   /* set param */
1981:driver_st7789.c ****     if (a_st7789_write_byte(handle, reg, ST7789_DATA) != 0)                       /* write data */
1982:driver_st7789.c ****     {
1983:driver_st7789.c ****         handle->debug_print("st7789: write data failed.\n");                      /* write data fai
1984:driver_st7789.c **** 
1985:driver_st7789.c ****         return 1;                                                                 /* return error *
1986:driver_st7789.c ****     }
1987:driver_st7789.c **** 
1988:driver_st7789.c ****     return 0;                                                                     /* success return
1989:driver_st7789.c **** }
1990:driver_st7789.c **** 
1991:driver_st7789.c **** /**
1992:driver_st7789.c ****  * @brief     set id code setting
1993:driver_st7789.c ****  * @param[in] *handle points to an st7789 handle structure
1994:driver_st7789.c ****  * @param[in] *id points to an id buffer
1995:driver_st7789.c ****  * @return    status code
1996:driver_st7789.c ****  *            - 0 success
1997:driver_st7789.c ****  *            - 1 set id code setting failed
1998:driver_st7789.c ****  *            - 2 handle is NULL
1999:driver_st7789.c ****  *            - 3 handle is not initialized
2000:driver_st7789.c ****  * @note      none
2001:driver_st7789.c ****  */
2002:driver_st7789.c **** uint8_t st7789_set_id_code_setting(st7789_handle_t *handle, uint8_t id[3])
2003:driver_st7789.c **** {
2004:driver_st7789.c ****     if (handle == NULL)                                                           /* check handle *
2005:driver_st7789.c ****     {
2006:driver_st7789.c ****         return 2;                                                                 /* return error *
2007:driver_st7789.c ****     }
2008:driver_st7789.c ****     if (handle->inited != 1)                                                      /* check handle i
2009:driver_st7789.c ****     {
2010:driver_st7789.c ****         return 3;                                                                 /* return error *
2011:driver_st7789.c ****     }
ARM GAS  C:\Users\haske\AppData\Local\Temp\cc9TNOGL.s 			page 40


2012:driver_st7789.c **** 
2013:driver_st7789.c ****     if (a_st7789_write_byte(handle, ST7789_CMD_IDSET, ST7789_CMD) != 0)           /* write id setti
2014:driver_st7789.c ****     {
2015:driver_st7789.c ****         handle->debug_print("st7789: write command failed.\n");                   /* write command 
2016:driver_st7789.c **** 
2017:driver_st7789.c ****         return 1;                                                                 /* return error *
2018:driver_st7789.c ****     }
2019:driver_st7789.c ****     if (a_st7789_write_bytes(handle, id, 3, ST7789_DATA) != 0)                    /* write data */
2020:driver_st7789.c ****     {
2021:driver_st7789.c ****         handle->debug_print("st7789: write data failed.\n");                      /* write data fai
2022:driver_st7789.c **** 
2023:driver_st7789.c ****         return 1;                                                                 /* return error *
2024:driver_st7789.c ****     }
2025:driver_st7789.c **** 
2026:driver_st7789.c ****     return 0;                                                                     /* success return
2027:driver_st7789.c **** }
2028:driver_st7789.c **** 
2029:driver_st7789.c **** /**
2030:driver_st7789.c ****  * @brief     set vdv vrh from
2031:driver_st7789.c ****  * @param[in] *handle points to an st7789 handle structure
2032:driver_st7789.c ****  * @param[in] from is the vdv and vrh from
2033:driver_st7789.c ****  * @return    status code
2034:driver_st7789.c ****  *            - 0 success
2035:driver_st7789.c ****  *            - 1 set vdv vrh from failed
2036:driver_st7789.c ****  *            - 2 handle is NULL
2037:driver_st7789.c ****  *            - 3 handle is not initialized
2038:driver_st7789.c ****  * @note      none
2039:driver_st7789.c ****  */
2040:driver_st7789.c **** uint8_t st7789_set_vdv_vrh_from(st7789_handle_t *handle, st7789_vdv_vrh_from_t from)
2041:driver_st7789.c **** {
2042:driver_st7789.c ****     uint8_t buf[2];
2043:driver_st7789.c **** 
2044:driver_st7789.c ****     if (handle == NULL)                                                           /* check handle *
2045:driver_st7789.c ****     {
2046:driver_st7789.c ****         return 2;                                                                 /* return error *
2047:driver_st7789.c ****     }
2048:driver_st7789.c ****     if (handle->inited != 1)                                                      /* check handle i
2049:driver_st7789.c ****     {
2050:driver_st7789.c ****         return 3;                                                                 /* return error *
2051:driver_st7789.c ****     }
2052:driver_st7789.c **** 
2053:driver_st7789.c ****     if (a_st7789_write_byte(handle, ST7789_CMD_VDVVRHEN, ST7789_CMD) != 0)        /* write vdv and 
2054:driver_st7789.c ****     {
2055:driver_st7789.c ****         handle->debug_print("st7789: write command failed.\n");                   /* write command 
2056:driver_st7789.c **** 
2057:driver_st7789.c ****         return 1;                                                                 /* return error *
2058:driver_st7789.c ****     }
2059:driver_st7789.c ****     buf[0] = from;                                                                /* set param1 */
2060:driver_st7789.c ****     buf[1] = 0xFF;                                                                /* set param2 */
2061:driver_st7789.c ****     if (a_st7789_write_bytes(handle, buf, 2, ST7789_DATA) != 0)                   /* write data */
2062:driver_st7789.c ****     {
2063:driver_st7789.c ****         handle->debug_print("st7789: write data failed.\n");                      /* write data fai
2064:driver_st7789.c **** 
2065:driver_st7789.c ****         return 1;                                                                 /* return error *
2066:driver_st7789.c ****     }
2067:driver_st7789.c **** 
2068:driver_st7789.c ****     return 0;                                                                     /* success return
ARM GAS  C:\Users\haske\AppData\Local\Temp\cc9TNOGL.s 			page 41


2069:driver_st7789.c **** }
2070:driver_st7789.c **** 
2071:driver_st7789.c **** /**
2072:driver_st7789.c ****  * @brief     set vrhs
2073:driver_st7789.c ****  * @param[in] *handle points to an st7789 handle structure
2074:driver_st7789.c ****  * @param[in] vrhs is the set vrhs
2075:driver_st7789.c ****  * @return    status code
2076:driver_st7789.c ****  *            - 0 success
2077:driver_st7789.c ****  *            - 1 set vrhs failed
2078:driver_st7789.c ****  *            - 2 handle is NULL
2079:driver_st7789.c ****  *            - 3 handle is not initialized
2080:driver_st7789.c ****  *            - 4 vrhs > 0x27
2081:driver_st7789.c ****  * @note      0 <= vrhs <= 0x27
2082:driver_st7789.c ****  */
2083:driver_st7789.c **** uint8_t st7789_set_vrhs(st7789_handle_t *handle, uint8_t vrhs)
2084:driver_st7789.c **** {
2085:driver_st7789.c ****     uint8_t reg;
2086:driver_st7789.c **** 
2087:driver_st7789.c ****     if (handle == NULL)                                                           /* check handle *
2088:driver_st7789.c ****     {
2089:driver_st7789.c ****         return 2;                                                                 /* return error *
2090:driver_st7789.c ****     }
2091:driver_st7789.c ****     if (handle->inited != 1)                                                      /* check handle i
2092:driver_st7789.c ****     {
2093:driver_st7789.c ****         return 3;                                                                 /* return error *
2094:driver_st7789.c ****     }
2095:driver_st7789.c ****     if (vrhs > 0x27)                                                              /* check vrhs */
2096:driver_st7789.c ****     {
2097:driver_st7789.c ****         handle->debug_print("st7789: vrhs > 0x27.\n");                            /* vrhs > 0x27 */
2098:driver_st7789.c **** 
2099:driver_st7789.c ****         return 4;                                                                 /* return error *
2100:driver_st7789.c ****     }
2101:driver_st7789.c **** 
2102:driver_st7789.c ****     if (a_st7789_write_byte(handle, ST7789_CMD_VRHS, ST7789_CMD) != 0)            /* write vrh set 
2103:driver_st7789.c ****     {
2104:driver_st7789.c ****         handle->debug_print("st7789: write command failed.\n");                   /* write command 
2105:driver_st7789.c **** 
2106:driver_st7789.c ****         return 1;                                                                 /* return error *
2107:driver_st7789.c ****     }
2108:driver_st7789.c ****     reg = vrhs & 0x3F;                                                            /* set param */
2109:driver_st7789.c ****     if (a_st7789_write_byte(handle, reg, ST7789_DATA) != 0)                       /* write data */
2110:driver_st7789.c ****     {
2111:driver_st7789.c ****         handle->debug_print("st7789: write data failed.\n");                      /* write data fai
2112:driver_st7789.c **** 
2113:driver_st7789.c ****         return 1;                                                                 /* return error *
2114:driver_st7789.c ****     }
2115:driver_st7789.c **** 
2116:driver_st7789.c ****     return 0;                                                                     /* success return
2117:driver_st7789.c **** }
2118:driver_st7789.c **** 
2119:driver_st7789.c **** /**
2120:driver_st7789.c ****  * @brief      convert the vrhs to the register raw data
2121:driver_st7789.c ****  * @param[in]  *handle points to an st7789 handle structure
2122:driver_st7789.c ****  * @param[in]  v is the vcom
2123:driver_st7789.c ****  * @param[out] *reg points to a register raw buffer
2124:driver_st7789.c ****  * @return     status code
2125:driver_st7789.c ****  *             - 0 success
ARM GAS  C:\Users\haske\AppData\Local\Temp\cc9TNOGL.s 			page 42


2126:driver_st7789.c ****  *             - 2 handle is NULL
2127:driver_st7789.c ****  *             - 3 handle is not initialized
2128:driver_st7789.c ****  * @note       none
2129:driver_st7789.c ****  */
2130:driver_st7789.c **** uint8_t st7789_vrhs_convert_to_register(st7789_handle_t *handle, float v, uint8_t *reg)
2131:driver_st7789.c **** {
2132:driver_st7789.c ****     if (handle == NULL)                           /* check handle */
2133:driver_st7789.c ****     {
2134:driver_st7789.c ****         return 2;                                 /* return error */
2135:driver_st7789.c ****     }
2136:driver_st7789.c ****     if (handle->inited != 1)                      /* check handle initialization */
2137:driver_st7789.c ****     {
2138:driver_st7789.c ****         return 3;                                 /* return error */
2139:driver_st7789.c ****     }
2140:driver_st7789.c **** 
2141:driver_st7789.c ****     *reg = (uint8_t)((v - 3.55f) / 0.05f);        /* convert real data to register data */
2142:driver_st7789.c **** 
2143:driver_st7789.c ****     return 0;                                     /* success return 0 */
2144:driver_st7789.c **** }
2145:driver_st7789.c **** 
2146:driver_st7789.c **** /**
2147:driver_st7789.c ****  * @brief      convert the register raw data to the vrhs
2148:driver_st7789.c ****  * @param[in]  *handle points to an st7789 handle structure
2149:driver_st7789.c ****  * @param[in]  reg is the register raw data
2150:driver_st7789.c ****  * @param[out] *v points to a vcom buffer
2151:driver_st7789.c ****  * @return     status code
2152:driver_st7789.c ****  *             - 0 success
2153:driver_st7789.c ****  *             - 2 handle is NULL
2154:driver_st7789.c ****  *             - 3 handle is not initialized
2155:driver_st7789.c ****  * @note       none
2156:driver_st7789.c ****  */
2157:driver_st7789.c **** uint8_t st7789_vrhs_convert_to_data(st7789_handle_t *handle, uint8_t reg, float *v)
2158:driver_st7789.c **** {
2159:driver_st7789.c ****     if (handle == NULL)                                  /* check handle */
2160:driver_st7789.c ****     {
2161:driver_st7789.c ****         return 2;                                        /* return error */
2162:driver_st7789.c ****     }
2163:driver_st7789.c ****     if (handle->inited != 1)                             /* check handle initialization */
2164:driver_st7789.c ****     {
2165:driver_st7789.c ****         return 3;                                        /* return error */
2166:driver_st7789.c ****     }
2167:driver_st7789.c **** 
2168:driver_st7789.c ****     *v = (uint8_t)((float)(reg) * 0.05f + 3.55f);        /* convert raw data to real data */
2169:driver_st7789.c **** 
2170:driver_st7789.c ****     return 0;                                            /* success return 0 */
2171:driver_st7789.c **** }
2172:driver_st7789.c **** 
2173:driver_st7789.c **** /**
2174:driver_st7789.c ****  * @brief     set vdv
2175:driver_st7789.c ****  * @param[in] *handle points to an st7789 handle structure
2176:driver_st7789.c ****  * @param[in] vdv is the set vdv
2177:driver_st7789.c ****  * @return    status code
2178:driver_st7789.c ****  *            - 0 success
2179:driver_st7789.c ****  *            - 1 set vdv failed
2180:driver_st7789.c ****  *            - 2 handle is NULL
2181:driver_st7789.c ****  *            - 3 handle is not initialized
2182:driver_st7789.c ****  *            - 4 vdv > 0x3F
ARM GAS  C:\Users\haske\AppData\Local\Temp\cc9TNOGL.s 			page 43


2183:driver_st7789.c ****  * @note      0 <= vdv <= 0x3F
2184:driver_st7789.c ****  */
2185:driver_st7789.c **** uint8_t st7789_set_vdv(st7789_handle_t *handle, uint8_t vdv)
2186:driver_st7789.c **** {
2187:driver_st7789.c ****     uint8_t reg;
2188:driver_st7789.c **** 
2189:driver_st7789.c ****     if (handle == NULL)                                                           /* check handle *
2190:driver_st7789.c ****     {
2191:driver_st7789.c ****         return 2;                                                                 /* return error *
2192:driver_st7789.c ****     }
2193:driver_st7789.c ****     if (handle->inited != 1)                                                      /* check handle i
2194:driver_st7789.c ****     {
2195:driver_st7789.c ****         return 3;                                                                 /* return error *
2196:driver_st7789.c ****     }
2197:driver_st7789.c ****     if (vdv > 0x3F)                                                               /* check vdv */
2198:driver_st7789.c ****     {
2199:driver_st7789.c ****         handle->debug_print("st7789: vdv > 0x3F.\n");                             /* vdv > 0x3F */
2200:driver_st7789.c **** 
2201:driver_st7789.c ****         return 4;                                                                 /* return error *
2202:driver_st7789.c ****     }
2203:driver_st7789.c **** 
2204:driver_st7789.c ****     if (a_st7789_write_byte(handle, ST7789_CMD_VDVSET, ST7789_CMD) != 0)          /* write vdv sett
2205:driver_st7789.c ****     {
2206:driver_st7789.c ****         handle->debug_print("st7789: write command failed.\n");                   /* write command 
2207:driver_st7789.c **** 
2208:driver_st7789.c ****         return 1;                                                                 /* return error *
2209:driver_st7789.c ****     }
2210:driver_st7789.c ****     reg = vdv & 0x3F;                                                             /* set param */
2211:driver_st7789.c ****     if (a_st7789_write_byte(handle, reg, ST7789_DATA) != 0)                       /* write data */
2212:driver_st7789.c ****     {
2213:driver_st7789.c ****         handle->debug_print("st7789: write data failed.\n");                      /* write data fai
2214:driver_st7789.c **** 
2215:driver_st7789.c ****         return 1;                                                                 /* return error *
2216:driver_st7789.c ****     }
2217:driver_st7789.c **** 
2218:driver_st7789.c ****     return 0;                                                                     /* success return
2219:driver_st7789.c **** }
2220:driver_st7789.c **** 
2221:driver_st7789.c **** /**
2222:driver_st7789.c ****  * @brief      convert the vdv to the register raw data
2223:driver_st7789.c ****  * @param[in]  *handle points to an st7789 handle structure
2224:driver_st7789.c ****  * @param[in]  v is the vcom
2225:driver_st7789.c ****  * @param[out] *reg points to a register raw buffer
2226:driver_st7789.c ****  * @return     status code
2227:driver_st7789.c ****  *             - 0 success
2228:driver_st7789.c ****  *             - 2 handle is NULL
2229:driver_st7789.c ****  *             - 3 handle is not initialized
2230:driver_st7789.c ****  * @note       none
2231:driver_st7789.c ****  */
2232:driver_st7789.c **** uint8_t st7789_vdv_convert_to_register(st7789_handle_t *handle, float v, uint8_t *reg)
2233:driver_st7789.c **** {
2234:driver_st7789.c ****     if (handle == NULL)                           /* check handle */
2235:driver_st7789.c ****     {
2236:driver_st7789.c ****         return 2;                                 /* return error */
2237:driver_st7789.c ****     }
2238:driver_st7789.c ****     if (handle->inited != 1)                      /* check handle initialization */
2239:driver_st7789.c ****     {
ARM GAS  C:\Users\haske\AppData\Local\Temp\cc9TNOGL.s 			page 44


2240:driver_st7789.c ****         return 3;                                 /* return error */
2241:driver_st7789.c ****     }
2242:driver_st7789.c **** 
2243:driver_st7789.c ****     *reg = (uint8_t)((v + 0.8f) / 0.025f);        /* convert real data to register data */
2244:driver_st7789.c **** 
2245:driver_st7789.c ****     return 0;                                     /* success return 0 */
2246:driver_st7789.c **** }
2247:driver_st7789.c **** 
2248:driver_st7789.c **** /**
2249:driver_st7789.c ****  * @brief      convert the register raw data to the vdv
2250:driver_st7789.c ****  * @param[in]  *handle points to an st7789 handle structure
2251:driver_st7789.c ****  * @param[in]  reg is the register raw data
2252:driver_st7789.c ****  * @param[out] *v points to a vcom buffer
2253:driver_st7789.c ****  * @return     status code
2254:driver_st7789.c ****  *             - 0 success
2255:driver_st7789.c ****  *             - 2 handle is NULL
2256:driver_st7789.c ****  *             - 3 handle is not initialized
2257:driver_st7789.c ****  * @note       none
2258:driver_st7789.c ****  */
2259:driver_st7789.c **** uint8_t st7789_vdv_convert_to_data(st7789_handle_t *handle, uint8_t reg, float *v)
2260:driver_st7789.c **** {
2261:driver_st7789.c ****     if (handle == NULL)                                  /* check handle */
2262:driver_st7789.c ****     {
2263:driver_st7789.c ****         return 2;                                        /* return error */
2264:driver_st7789.c ****     }
2265:driver_st7789.c ****     if (handle->inited != 1)                             /* check handle initialization */
2266:driver_st7789.c ****     {
2267:driver_st7789.c ****         return 3;                                        /* return error */
2268:driver_st7789.c ****     }
2269:driver_st7789.c **** 
2270:driver_st7789.c ****     *v = (uint8_t)((float)(reg) * 0.025f - 0.8f);        /* convert raw data to real data */
2271:driver_st7789.c **** 
2272:driver_st7789.c ****     return 0;                                            /* success return 0 */
2273:driver_st7789.c **** }
2274:driver_st7789.c **** 
2275:driver_st7789.c **** /**
2276:driver_st7789.c ****  * @brief     set vcoms offset
2277:driver_st7789.c ****  * @param[in] *handle points to an st7789 handle structure
2278:driver_st7789.c ****  * @param[in] offset is the vcoms offset
2279:driver_st7789.c ****  * @return    status code
2280:driver_st7789.c ****  *            - 0 success
2281:driver_st7789.c ****  *            - 1 set vcoms offset failed
2282:driver_st7789.c ****  *            - 2 handle is NULL
2283:driver_st7789.c ****  *            - 3 handle is not initialized
2284:driver_st7789.c ****  *            - 4 offset > 0x3F
2285:driver_st7789.c ****  * @note      0 <= offset <= 0x3F
2286:driver_st7789.c ****  */
2287:driver_st7789.c **** uint8_t st7789_set_vcoms_offset(st7789_handle_t *handle, uint8_t offset)
2288:driver_st7789.c **** {
2289:driver_st7789.c ****     uint8_t reg;
2290:driver_st7789.c **** 
2291:driver_st7789.c ****     if (handle == NULL)                                                           /* check handle *
2292:driver_st7789.c ****     {
2293:driver_st7789.c ****         return 2;                                                                 /* return error *
2294:driver_st7789.c ****     }
2295:driver_st7789.c ****     if (handle->inited != 1)                                                      /* check handle i
2296:driver_st7789.c ****     {
ARM GAS  C:\Users\haske\AppData\Local\Temp\cc9TNOGL.s 			page 45


2297:driver_st7789.c ****         return 3;                                                                 /* return error *
2298:driver_st7789.c ****     }
2299:driver_st7789.c ****     if (offset > 0x3F)                                                            /* check offset *
2300:driver_st7789.c ****     {
2301:driver_st7789.c ****         handle->debug_print("st7789: offset > 0x3F.\n");                          /* offset > 0x3F 
2302:driver_st7789.c **** 
2303:driver_st7789.c ****         return 4;                                                                 /* return error *
2304:driver_st7789.c ****     }
2305:driver_st7789.c **** 
2306:driver_st7789.c ****     if (a_st7789_write_byte(handle, ST7789_CMD_VCMOFSET, ST7789_CMD) != 0)        /* write vcoms of
2307:driver_st7789.c ****     {
2308:driver_st7789.c ****         handle->debug_print("st7789: write command failed.\n");                   /* write command 
2309:driver_st7789.c **** 
2310:driver_st7789.c ****         return 1;                                                                 /* return error *
2311:driver_st7789.c ****     }
2312:driver_st7789.c ****     reg = offset & 0x3F;                                                          /* set param */
2313:driver_st7789.c ****     if (a_st7789_write_byte(handle, reg, ST7789_DATA) != 0)                       /* write data */
2314:driver_st7789.c ****     {
2315:driver_st7789.c ****         handle->debug_print("st7789: write data failed.\n");                      /* write data fai
2316:driver_st7789.c **** 
2317:driver_st7789.c ****         return 1;                                                                 /* return error *
2318:driver_st7789.c ****     }
2319:driver_st7789.c **** 
2320:driver_st7789.c ****     return 0;                                                                     /* success return
2321:driver_st7789.c **** }
2322:driver_st7789.c **** 
2323:driver_st7789.c **** /**
2324:driver_st7789.c ****  * @brief      convert the vcoms offset to the register raw data
2325:driver_st7789.c ****  * @param[in]  *handle points to an st7789 handle structure
2326:driver_st7789.c ****  * @param[in]  v is the vcoms offset
2327:driver_st7789.c ****  * @param[out] *reg points to a register raw buffer
2328:driver_st7789.c ****  * @return     status code
2329:driver_st7789.c ****  *             - 0 success
2330:driver_st7789.c ****  *             - 2 handle is NULL
2331:driver_st7789.c ****  *             - 3 handle is not initialized
2332:driver_st7789.c ****  * @note       none
2333:driver_st7789.c ****  */
2334:driver_st7789.c **** uint8_t st7789_vcoms_offset_convert_to_register(st7789_handle_t *handle, float v, uint8_t *reg)
2335:driver_st7789.c **** {
2336:driver_st7789.c ****     if (handle == NULL)                           /* check handle */
2337:driver_st7789.c ****     {
2338:driver_st7789.c ****         return 2;                                 /* return error */
2339:driver_st7789.c ****     }
2340:driver_st7789.c ****     if (handle->inited != 1)                      /* check handle initialization */
2341:driver_st7789.c ****     {
2342:driver_st7789.c ****         return 3;                                 /* return error */
2343:driver_st7789.c ****     }
2344:driver_st7789.c **** 
2345:driver_st7789.c ****     *reg = (uint8_t)((v + 0.8f) / 0.025f);        /* convert real data to register data */
2346:driver_st7789.c **** 
2347:driver_st7789.c ****     return 0;                                     /* success return 0 */
2348:driver_st7789.c **** }
2349:driver_st7789.c **** 
2350:driver_st7789.c **** /**
2351:driver_st7789.c ****  * @brief      convert the register raw data to the vcoms offset
2352:driver_st7789.c ****  * @param[in]  *handle points to an st7789 handle structure
2353:driver_st7789.c ****  * @param[in]  reg is the register raw data
ARM GAS  C:\Users\haske\AppData\Local\Temp\cc9TNOGL.s 			page 46


2354:driver_st7789.c ****  * @param[out] *v points to a vcoms offset buffer
2355:driver_st7789.c ****  * @return     status code
2356:driver_st7789.c ****  *             - 0 success
2357:driver_st7789.c ****  *             - 2 handle is NULL
2358:driver_st7789.c ****  *             - 3 handle is not initialized
2359:driver_st7789.c ****  * @note       none
2360:driver_st7789.c ****  */
2361:driver_st7789.c **** uint8_t st7789_vcoms_offset_convert_to_data(st7789_handle_t *handle, uint8_t reg, float *v)
2362:driver_st7789.c **** {
2363:driver_st7789.c ****     if (handle == NULL)                                  /* check handle */
2364:driver_st7789.c ****     {
2365:driver_st7789.c ****         return 2;                                        /* return error */
2366:driver_st7789.c ****     }
2367:driver_st7789.c ****     if (handle->inited != 1)                             /* check handle initialization */
2368:driver_st7789.c ****     {
2369:driver_st7789.c ****         return 3;                                        /* return error */
2370:driver_st7789.c ****     }
2371:driver_st7789.c **** 
2372:driver_st7789.c ****     *v = (uint8_t)((float)(reg) * 0.025f - 0.8f);        /* convert raw data to real data */
2373:driver_st7789.c **** 
2374:driver_st7789.c ****     return 0;                                            /* success return 0 */
2375:driver_st7789.c **** }
2376:driver_st7789.c **** 
2377:driver_st7789.c **** /**
2378:driver_st7789.c ****  * @brief     set frame rate
2379:driver_st7789.c ****  * @param[in] *handle points to an st7789 handle structure
2380:driver_st7789.c ****  * @param[in] selection is the inversion selection
2381:driver_st7789.c ****  * @param[in] rate is the frame rate
2382:driver_st7789.c ****  * @return    status code
2383:driver_st7789.c ****  *            - 0 success
2384:driver_st7789.c ****  *            - 1 set frame rate failed
2385:driver_st7789.c ****  *            - 2 handle is NULL
2386:driver_st7789.c ****  *            - 3 handle is not initialized
2387:driver_st7789.c ****  * @note      none
2388:driver_st7789.c ****  */
2389:driver_st7789.c **** uint8_t st7789_set_frame_rate(st7789_handle_t *handle, st7789_inversion_selection_t selection, st77
2390:driver_st7789.c **** {
2391:driver_st7789.c ****     uint8_t reg;
2392:driver_st7789.c **** 
2393:driver_st7789.c ****     if (handle == NULL)                                                           /* check handle *
2394:driver_st7789.c ****     {
2395:driver_st7789.c ****         return 2;                                                                 /* return error *
2396:driver_st7789.c ****     }
2397:driver_st7789.c ****     if (handle->inited != 1)                                                      /* check handle i
2398:driver_st7789.c ****     {
2399:driver_st7789.c ****         return 3;                                                                 /* return error *
2400:driver_st7789.c ****     }
2401:driver_st7789.c **** 
2402:driver_st7789.c ****     if (a_st7789_write_byte(handle, ST7789_CMD_FRCTR2, ST7789_CMD) != 0)          /* write fr contr
2403:driver_st7789.c ****     {
2404:driver_st7789.c ****         handle->debug_print("st7789: write command failed.\n");                   /* write command 
2405:driver_st7789.c **** 
2406:driver_st7789.c ****         return 1;                                                                 /* return error *
2407:driver_st7789.c ****     }
2408:driver_st7789.c ****     reg = (selection << 5) | (rate << 0);                                         /* set param */
2409:driver_st7789.c ****     if (a_st7789_write_byte(handle, reg, ST7789_DATA) != 0)                       /* write data */
2410:driver_st7789.c ****     {
ARM GAS  C:\Users\haske\AppData\Local\Temp\cc9TNOGL.s 			page 47


2411:driver_st7789.c ****         handle->debug_print("st7789: write data failed.\n");                      /* write data fai
2412:driver_st7789.c **** 
2413:driver_st7789.c ****         return 1;                                                                 /* return error *
2414:driver_st7789.c ****     }
2415:driver_st7789.c **** 
2416:driver_st7789.c ****     return 0;                                                                     /* success return
2417:driver_st7789.c **** }
2418:driver_st7789.c **** 
2419:driver_st7789.c **** /**
2420:driver_st7789.c ****  * @brief     set cabc control
2421:driver_st7789.c ****  * @param[in] *handle points to an st7789 handle structure
2422:driver_st7789.c ****  * @param[in] led_on is a bool value
2423:driver_st7789.c ****  * @param[in] led_pwm_init is a bool value
2424:driver_st7789.c ****  * @param[in] led_pwm_fix is a bool value
2425:driver_st7789.c ****  * @param[in] led_pwm_polarity is a bool value
2426:driver_st7789.c ****  * @return    status code
2427:driver_st7789.c ****  *            - 0 success
2428:driver_st7789.c ****  *            - 1 set cabc control failed
2429:driver_st7789.c ****  *            - 2 handle is NULL
2430:driver_st7789.c ****  *            - 3 handle is not initialized
2431:driver_st7789.c ****  * @note      none
2432:driver_st7789.c ****  */
2433:driver_st7789.c **** uint8_t st7789_set_cabc_control(st7789_handle_t *handle,
2434:driver_st7789.c ****                                 st7789_bool_t led_on,
2435:driver_st7789.c ****                                 st7789_bool_t led_pwm_init,
2436:driver_st7789.c ****                                 st7789_bool_t led_pwm_fix,
2437:driver_st7789.c ****                                 st7789_bool_t led_pwm_polarity)
2438:driver_st7789.c **** {
2439:driver_st7789.c ****     uint8_t reg;
2440:driver_st7789.c **** 
2441:driver_st7789.c ****     if (handle == NULL)                                                           /* check handle *
2442:driver_st7789.c ****     {
2443:driver_st7789.c ****         return 2;                                                                 /* return error *
2444:driver_st7789.c ****     }
2445:driver_st7789.c ****     if (handle->inited != 1)                                                      /* check handle i
2446:driver_st7789.c ****     {
2447:driver_st7789.c ****         return 3;                                                                 /* return error *
2448:driver_st7789.c ****     }
2449:driver_st7789.c **** 
2450:driver_st7789.c ****     if (a_st7789_write_byte(handle, ST7789_CMD_CABCCTRL, ST7789_CMD) != 0)        /* write cabc con
2451:driver_st7789.c ****     {
2452:driver_st7789.c ****         handle->debug_print("st7789: write command failed.\n");                   /* write command 
2453:driver_st7789.c **** 
2454:driver_st7789.c ****         return 1;                                                                 /* return error *
2455:driver_st7789.c ****     }
2456:driver_st7789.c ****     reg = (led_on << 3) | (led_pwm_init << 2) |
2457:driver_st7789.c ****           (led_pwm_fix << 1) | (led_pwm_polarity << 0);                           /* set param */
2458:driver_st7789.c ****     if (a_st7789_write_byte(handle, reg, ST7789_DATA) != 0)                       /* write data */
2459:driver_st7789.c ****     {
2460:driver_st7789.c ****         handle->debug_print("st7789: write data failed.\n");                      /* write data fai
2461:driver_st7789.c **** 
2462:driver_st7789.c ****         return 1;                                                                 /* return error *
2463:driver_st7789.c ****     }
2464:driver_st7789.c **** 
2465:driver_st7789.c ****     return 0;                                                                     /* success return
2466:driver_st7789.c **** }
2467:driver_st7789.c **** 
ARM GAS  C:\Users\haske\AppData\Local\Temp\cc9TNOGL.s 			page 48


2468:driver_st7789.c **** /**
2469:driver_st7789.c ****  * @brief     set pwm frequency
2470:driver_st7789.c ****  * @param[in] *handle points to an st7789 handle structure
2471:driver_st7789.c ****  * @param[in] frequency is the pwm frequency
2472:driver_st7789.c ****  * @return    status code
2473:driver_st7789.c ****  *            - 0 success
2474:driver_st7789.c ****  *            - 1 set pwm frequency failed
2475:driver_st7789.c ****  *            - 2 handle is NULL
2476:driver_st7789.c ****  *            - 3 handle is not initialized
2477:driver_st7789.c ****  * @note      none
2478:driver_st7789.c ****  */
2479:driver_st7789.c **** uint8_t st7789_set_pwm_frequency(st7789_handle_t *handle, st7789_pwm_frequency_t frequency)
2480:driver_st7789.c **** {
2481:driver_st7789.c ****     uint8_t reg;
2482:driver_st7789.c **** 
2483:driver_st7789.c ****     if (handle == NULL)                                                           /* check handle *
2484:driver_st7789.c ****     {
2485:driver_st7789.c ****         return 2;                                                                 /* return error *
2486:driver_st7789.c ****     }
2487:driver_st7789.c ****     if (handle->inited != 1)                                                      /* check handle i
2488:driver_st7789.c ****     {
2489:driver_st7789.c ****         return 3;                                                                 /* return error *
2490:driver_st7789.c ****     }
2491:driver_st7789.c **** 
2492:driver_st7789.c ****     if (a_st7789_write_byte(handle, ST7789_CMD_PWMFRSEL, ST7789_CMD) != 0)        /* write pwm freq
2493:driver_st7789.c ****     {
2494:driver_st7789.c ****         handle->debug_print("st7789: write command failed.\n");                   /* write command 
2495:driver_st7789.c **** 
2496:driver_st7789.c ****         return 1;                                                                 /* return error *
2497:driver_st7789.c ****     }
2498:driver_st7789.c ****     reg = frequency;                                                              /* set param */
2499:driver_st7789.c ****     if (a_st7789_write_byte(handle, reg, ST7789_DATA) != 0)                       /* write data */
2500:driver_st7789.c ****     {
2501:driver_st7789.c ****         handle->debug_print("st7789: write data failed.\n");                      /* write data fai
2502:driver_st7789.c **** 
2503:driver_st7789.c ****         return 1;                                                                 /* return error *
2504:driver_st7789.c ****     }
2505:driver_st7789.c **** 
2506:driver_st7789.c ****     return 0;                                                                     /* success return
2507:driver_st7789.c **** }
2508:driver_st7789.c **** 
2509:driver_st7789.c **** /**
2510:driver_st7789.c ****  * @brief     set power control 1
2511:driver_st7789.c ****  * @param[in] *handle points to an st7789 handle structure
2512:driver_st7789.c ****  * @param[in] avdd is the avdd param
2513:driver_st7789.c ****  * @param[in] avcl is the avcl param
2514:driver_st7789.c ****  * @param[in] vds is the vds param
2515:driver_st7789.c ****  * @return    status code
2516:driver_st7789.c ****  *            - 0 success
2517:driver_st7789.c ****  *            - 1 set power control 1 failed
2518:driver_st7789.c ****  *            - 2 handle is NULL
2519:driver_st7789.c ****  *            - 3 handle is not initialized
2520:driver_st7789.c ****  * @note      none
2521:driver_st7789.c ****  */
2522:driver_st7789.c **** uint8_t st7789_set_power_control_1(st7789_handle_t *handle, st7789_avdd_t avdd, st7789_avcl_t avcl,
2523:driver_st7789.c **** {
2524:driver_st7789.c ****     uint8_t buf[2];
ARM GAS  C:\Users\haske\AppData\Local\Temp\cc9TNOGL.s 			page 49


2525:driver_st7789.c **** 
2526:driver_st7789.c ****     if (handle == NULL)                                                           /* check handle *
2527:driver_st7789.c ****     {
2528:driver_st7789.c ****         return 2;                                                                 /* return error *
2529:driver_st7789.c ****     }
2530:driver_st7789.c ****     if (handle->inited != 1)                                                      /* check handle i
2531:driver_st7789.c ****     {
2532:driver_st7789.c ****         return 3;                                                                 /* return error *
2533:driver_st7789.c ****     }
2534:driver_st7789.c **** 
2535:driver_st7789.c ****     if (a_st7789_write_byte(handle, ST7789_CMD_PWCTRL1, ST7789_CMD) != 0)         /* write power co
2536:driver_st7789.c ****     {
2537:driver_st7789.c ****         handle->debug_print("st7789: write command failed.\n");                   /* write command 
2538:driver_st7789.c **** 
2539:driver_st7789.c ****         return 1;                                                                 /* return error *
2540:driver_st7789.c ****     }
2541:driver_st7789.c ****     buf[0] = 0xA4;                                                                /* set param 1 */
2542:driver_st7789.c ****     buf[1] = (avdd << 6) | (avcl << 4) | (vds << 0);                              /* set param 2 */
2543:driver_st7789.c ****     if (a_st7789_write_bytes(handle, buf, 2, ST7789_DATA) != 0)                   /* write data */
2544:driver_st7789.c ****     {
2545:driver_st7789.c ****         handle->debug_print("st7789: write data failed.\n");                      /* write data fai
2546:driver_st7789.c **** 
2547:driver_st7789.c ****         return 1;                                                                 /* return error *
2548:driver_st7789.c ****     }
2549:driver_st7789.c **** 
2550:driver_st7789.c ****     return 0;                                                                     /* success return
2551:driver_st7789.c **** }
2552:driver_st7789.c **** 
2553:driver_st7789.c **** /**
2554:driver_st7789.c ****  * @brief     enable vap van signal output
2555:driver_st7789.c ****  * @param[in] *handle points to an st7789 handle structure
2556:driver_st7789.c ****  * @return    status code
2557:driver_st7789.c ****  *            - 0 success
2558:driver_st7789.c ****  *            - 1 enable vap van signal output failed
2559:driver_st7789.c ****  *            - 2 handle is NULL
2560:driver_st7789.c ****  *            - 3 handle is not initialized
2561:driver_st7789.c ****  * @note      none
2562:driver_st7789.c ****  */
2563:driver_st7789.c **** uint8_t st7789_enable_vap_van_signal_output(st7789_handle_t *handle)
2564:driver_st7789.c **** {
2565:driver_st7789.c ****     uint8_t reg;
2566:driver_st7789.c **** 
2567:driver_st7789.c ****     if (handle == NULL)                                                           /* check handle *
2568:driver_st7789.c ****     {
2569:driver_st7789.c ****         return 2;                                                                 /* return error *
2570:driver_st7789.c ****     }
2571:driver_st7789.c ****     if (handle->inited != 1)                                                      /* check handle i
2572:driver_st7789.c ****     {
2573:driver_st7789.c ****         return 3;                                                                 /* return error *
2574:driver_st7789.c ****     }
2575:driver_st7789.c **** 
2576:driver_st7789.c ****     if (a_st7789_write_byte(handle, ST7789_CMD_VAPVANEN, ST7789_CMD) != 0)        /* write enable v
2577:driver_st7789.c ****     {
2578:driver_st7789.c ****         handle->debug_print("st7789: write command failed.\n");                   /* write command 
2579:driver_st7789.c **** 
2580:driver_st7789.c ****         return 1;                                                                 /* return error *
2581:driver_st7789.c ****     }
ARM GAS  C:\Users\haske\AppData\Local\Temp\cc9TNOGL.s 			page 50


2582:driver_st7789.c ****     reg = 0x4C;                                                                   /* set param */
2583:driver_st7789.c ****     if (a_st7789_write_byte(handle, reg, ST7789_DATA) != 0)                       /* write data */
2584:driver_st7789.c ****     {
2585:driver_st7789.c ****         handle->debug_print("st7789: write data failed.\n");                      /* write data fai
2586:driver_st7789.c **** 
2587:driver_st7789.c ****         return 1;                                                                 /* return error *
2588:driver_st7789.c ****     }
2589:driver_st7789.c **** 
2590:driver_st7789.c ****     return 0;                                                                     /* success return
2591:driver_st7789.c **** }
2592:driver_st7789.c **** 
2593:driver_st7789.c **** /**
2594:driver_st7789.c ****  * @brief     enable or disable command 2
2595:driver_st7789.c ****  * @param[in] *handle points to an st7789 handle structure
2596:driver_st7789.c ****  * @param[in] enable is a bool value
2597:driver_st7789.c ****  * @return    status code
2598:driver_st7789.c ****  *            - 0 success
2599:driver_st7789.c ****  *            - 1 set command 2 enable failed
2600:driver_st7789.c ****  *            - 2 handle is NULL
2601:driver_st7789.c ****  *            - 3 handle is not initialized
2602:driver_st7789.c ****  * @note      none
2603:driver_st7789.c ****  */
2604:driver_st7789.c **** uint8_t st7789_set_command_2_enable(st7789_handle_t *handle, st7789_bool_t enable)
2605:driver_st7789.c **** {
2606:driver_st7789.c ****     uint8_t buf[4];
2607:driver_st7789.c **** 
2608:driver_st7789.c ****     if (handle == NULL)                                                           /* check handle *
2609:driver_st7789.c ****     {
2610:driver_st7789.c ****         return 2;                                                                 /* return error *
2611:driver_st7789.c ****     }
2612:driver_st7789.c ****     if (handle->inited != 1)                                                      /* check handle i
2613:driver_st7789.c ****     {
2614:driver_st7789.c ****         return 3;                                                                 /* return error *
2615:driver_st7789.c ****     }
2616:driver_st7789.c **** 
2617:driver_st7789.c ****     if (a_st7789_write_byte(handle, ST7789_CMD_CMD2EN, ST7789_CMD) != 0)          /* write command 
2618:driver_st7789.c ****     {
2619:driver_st7789.c ****         handle->debug_print("st7789: write command failed.\n");                   /* write command 
2620:driver_st7789.c **** 
2621:driver_st7789.c ****         return 1;                                                                 /* return error *
2622:driver_st7789.c ****     }
2623:driver_st7789.c ****     buf[0] = 0x5A;                                                                /* set param 1 */
2624:driver_st7789.c ****     buf[1] = 0x69;                                                                /* set param 2 */
2625:driver_st7789.c ****     buf[2] = 0x02;                                                                /* set param 3 */
2626:driver_st7789.c ****     buf[3] = enable;                                                              /* set param 4 */
2627:driver_st7789.c ****     if (a_st7789_write_bytes(handle, buf, 4, ST7789_DATA) != 0)                   /* write data */
2628:driver_st7789.c ****     {
2629:driver_st7789.c ****         handle->debug_print("st7789: write data failed.\n");                      /* write data fai
2630:driver_st7789.c **** 
2631:driver_st7789.c ****         return 1;                                                                 /* return error *
2632:driver_st7789.c ****     }
2633:driver_st7789.c **** 
2634:driver_st7789.c ****     return 0;                                                                     /* success return
2635:driver_st7789.c **** }
2636:driver_st7789.c **** 
2637:driver_st7789.c **** /**
2638:driver_st7789.c ****  * @brief     set positive voltage gamma control
ARM GAS  C:\Users\haske\AppData\Local\Temp\cc9TNOGL.s 			page 51


2639:driver_st7789.c ****  * @param[in] *handle points to an st7789 handle structure
2640:driver_st7789.c ****  * @param[in] *param points to a param buffer
2641:driver_st7789.c ****  * @return    status code
2642:driver_st7789.c ****  *            - 0 success
2643:driver_st7789.c ****  *            - 1 set positive voltage gamma control failed
2644:driver_st7789.c ****  *            - 2 handle is NULL
2645:driver_st7789.c ****  *            - 3 handle is not initialized
2646:driver_st7789.c ****  * @note      none
2647:driver_st7789.c ****  */
2648:driver_st7789.c **** uint8_t st7789_set_positive_voltage_gamma_control(st7789_handle_t *handle, uint8_t param[14])
2649:driver_st7789.c **** {
2650:driver_st7789.c ****     if (handle == NULL)                                                           /* check handle *
2651:driver_st7789.c ****     {
2652:driver_st7789.c ****         return 2;                                                                 /* return error *
2653:driver_st7789.c ****     }
2654:driver_st7789.c ****     if (handle->inited != 1)                                                      /* check handle i
2655:driver_st7789.c ****     {
2656:driver_st7789.c ****         return 3;                                                                 /* return error *
2657:driver_st7789.c ****     }
2658:driver_st7789.c **** 
2659:driver_st7789.c ****     if (a_st7789_write_byte(handle, ST7789_CMD_PVGAMCTRL, ST7789_CMD) != 0)       /* write positive
2660:driver_st7789.c ****     {
2661:driver_st7789.c ****         handle->debug_print("st7789: write command failed.\n");                   /* write command 
2662:driver_st7789.c **** 
2663:driver_st7789.c ****         return 1;                                                                 /* return error *
2664:driver_st7789.c ****     }
2665:driver_st7789.c ****     if (a_st7789_write_bytes(handle, param, 14, ST7789_DATA) != 0)                /* write data */
2666:driver_st7789.c ****     {
2667:driver_st7789.c ****         handle->debug_print("st7789: write data failed.\n");                      /* write data fai
2668:driver_st7789.c **** 
2669:driver_st7789.c ****         return 1;                                                                 /* return error *
2670:driver_st7789.c ****     }
2671:driver_st7789.c **** 
2672:driver_st7789.c ****     return 0;                                                                     /* success return
2673:driver_st7789.c **** }
2674:driver_st7789.c **** 
2675:driver_st7789.c **** /**
2676:driver_st7789.c ****  * @brief     set negative voltage gamma control
2677:driver_st7789.c ****  * @param[in] *handle points to an st7789 handle structure
2678:driver_st7789.c ****  * @param[in] *param points to a param buffer
2679:driver_st7789.c ****  * @return    status code
2680:driver_st7789.c ****  *            - 0 success
2681:driver_st7789.c ****  *            - 1 set negative voltage gamma control failed
2682:driver_st7789.c ****  *            - 2 handle is NULL
2683:driver_st7789.c ****  *            - 3 handle is not initialized
2684:driver_st7789.c ****  * @note      none
2685:driver_st7789.c ****  */
2686:driver_st7789.c **** uint8_t st7789_set_negative_voltage_gamma_control(st7789_handle_t *handle, uint8_t param[14])
2687:driver_st7789.c **** {
2688:driver_st7789.c ****     if (handle == NULL)                                                           /* check handle *
2689:driver_st7789.c ****     {
2690:driver_st7789.c ****         return 2;                                                                 /* return error *
2691:driver_st7789.c ****     }
2692:driver_st7789.c ****     if (handle->inited != 1)                                                      /* check handle i
2693:driver_st7789.c ****     {
2694:driver_st7789.c ****         return 3;                                                                 /* return error *
2695:driver_st7789.c ****     }
ARM GAS  C:\Users\haske\AppData\Local\Temp\cc9TNOGL.s 			page 52


2696:driver_st7789.c **** 
2697:driver_st7789.c ****     if (a_st7789_write_byte(handle, ST7789_CMD_NVGAMCTRL, ST7789_CMD) != 0)       /* write negative
2698:driver_st7789.c ****     {
2699:driver_st7789.c ****         handle->debug_print("st7789: write command failed.\n");                   /* write command 
2700:driver_st7789.c **** 
2701:driver_st7789.c ****         return 1;                                                                 /* return error *
2702:driver_st7789.c ****     }
2703:driver_st7789.c ****     if (a_st7789_write_bytes(handle, param, 14, ST7789_DATA) != 0)                /* write data */
2704:driver_st7789.c ****     {
2705:driver_st7789.c ****         handle->debug_print("st7789: write data failed.\n");                      /* write data fai
2706:driver_st7789.c **** 
2707:driver_st7789.c ****         return 1;                                                                 /* return error *
2708:driver_st7789.c ****     }
2709:driver_st7789.c **** 
2710:driver_st7789.c ****     return 0;                                                                     /* success return
2711:driver_st7789.c **** }
2712:driver_st7789.c **** 
2713:driver_st7789.c **** /**
2714:driver_st7789.c ****  * @brief     set red digital gamma look up table
2715:driver_st7789.c ****  * @param[in] *handle points to an st7789 handle structure
2716:driver_st7789.c ****  * @param[in] *param points to a param buffer
2717:driver_st7789.c ****  * @return    status code
2718:driver_st7789.c ****  *            - 0 success
2719:driver_st7789.c ****  *            - 1 set digital gamma look up table red failed
2720:driver_st7789.c ****  *            - 2 handle is NULL
2721:driver_st7789.c ****  *            - 3 handle is not initialized
2722:driver_st7789.c ****  * @note      none
2723:driver_st7789.c ****  */
2724:driver_st7789.c **** uint8_t st7789_set_digital_gamma_look_up_table_red(st7789_handle_t *handle, uint8_t param[64])
2725:driver_st7789.c **** {
2726:driver_st7789.c ****     if (handle == NULL)                                                           /* check handle *
2727:driver_st7789.c ****     {
2728:driver_st7789.c ****         return 2;                                                                 /* return error *
2729:driver_st7789.c ****     }
2730:driver_st7789.c ****     if (handle->inited != 1)                                                      /* check handle i
2731:driver_st7789.c ****     {
2732:driver_st7789.c ****         return 3;                                                                 /* return error *
2733:driver_st7789.c ****     }
2734:driver_st7789.c **** 
2735:driver_st7789.c ****     if (a_st7789_write_byte(handle, ST7789_CMD_DGMLUTR, ST7789_CMD) != 0)         /* write digital 
2736:driver_st7789.c ****     {
2737:driver_st7789.c ****         handle->debug_print("st7789: write command failed.\n");                   /* write command 
2738:driver_st7789.c **** 
2739:driver_st7789.c ****         return 1;                                                                 /* return error *
2740:driver_st7789.c ****     }
2741:driver_st7789.c ****     if (a_st7789_write_bytes(handle, param, 64, ST7789_DATA) != 0)                /* write data */
2742:driver_st7789.c ****     {
2743:driver_st7789.c ****         handle->debug_print("st7789: write data failed.\n");                      /* write data fai
2744:driver_st7789.c **** 
2745:driver_st7789.c ****         return 1;                                                                 /* return error *
2746:driver_st7789.c ****     }
2747:driver_st7789.c **** 
2748:driver_st7789.c ****     return 0;                                                                     /* success return
2749:driver_st7789.c **** }
2750:driver_st7789.c **** 
2751:driver_st7789.c **** /**
2752:driver_st7789.c ****  * @brief     set blue digital gamma look up table
ARM GAS  C:\Users\haske\AppData\Local\Temp\cc9TNOGL.s 			page 53


2753:driver_st7789.c ****  * @param[in] *handle points to an st7789 handle structure
2754:driver_st7789.c ****  * @param[in] *param points to a param buffer
2755:driver_st7789.c ****  * @return    status code
2756:driver_st7789.c ****  *            - 0 success
2757:driver_st7789.c ****  *            - 1 set digital gamma look up table blue failed
2758:driver_st7789.c ****  *            - 2 handle is NULL
2759:driver_st7789.c ****  *            - 3 handle is not initialized
2760:driver_st7789.c ****  * @note      none
2761:driver_st7789.c ****  */
2762:driver_st7789.c **** uint8_t st7789_set_digital_gamma_look_up_table_blue(st7789_handle_t *handle, uint8_t param[64])
2763:driver_st7789.c **** {
2764:driver_st7789.c ****     if (handle == NULL)                                                           /* check handle *
2765:driver_st7789.c ****     {
2766:driver_st7789.c ****         return 2;                                                                 /* return error *
2767:driver_st7789.c ****     }
2768:driver_st7789.c ****     if (handle->inited != 1)                                                      /* check handle i
2769:driver_st7789.c ****     {
2770:driver_st7789.c ****         return 3;                                                                 /* return error *
2771:driver_st7789.c ****     }
2772:driver_st7789.c **** 
2773:driver_st7789.c ****     if (a_st7789_write_byte(handle, ST7789_CMD_DGMLUTB, ST7789_CMD) != 0)         /* write digital 
2774:driver_st7789.c ****     {
2775:driver_st7789.c ****         handle->debug_print("st7789: write command failed.\n");                   /* write command 
2776:driver_st7789.c **** 
2777:driver_st7789.c ****         return 1;                                                                 /* return error *
2778:driver_st7789.c ****     }
2779:driver_st7789.c ****     if (a_st7789_write_bytes(handle, param, 64, ST7789_DATA) != 0)                /* write data */
2780:driver_st7789.c ****     {
2781:driver_st7789.c ****         handle->debug_print("st7789: write data failed.\n");                      /* write data fai
2782:driver_st7789.c **** 
2783:driver_st7789.c ****         return 1;                                                                 /* return error *
2784:driver_st7789.c ****     }
2785:driver_st7789.c **** 
2786:driver_st7789.c ****     return 0;                                                                     /* success return
2787:driver_st7789.c **** }
2788:driver_st7789.c **** 
2789:driver_st7789.c **** /**
2790:driver_st7789.c ****  * @brief     set gate
2791:driver_st7789.c ****  * @param[in] *handle points to an st7789 handle structure
2792:driver_st7789.c ****  * @param[in] gate_line_number is the gate line number
2793:driver_st7789.c ****  * @param[in] first_scan_line_number is the first scan line number
2794:driver_st7789.c ****  * @param[in] mode is the gate scan mode
2795:driver_st7789.c ****  * @param[in] direction is the gate scan direction
2796:driver_st7789.c ****  * @return    status code
2797:driver_st7789.c ****  *            - 0 success
2798:driver_st7789.c ****  *            - 1 set gate failed
2799:driver_st7789.c ****  *            - 2 handle is NULL
2800:driver_st7789.c ****  *            - 3 handle is not initialized
2801:driver_st7789.c ****  *            - 4 gate_line_number > 0x3F
2802:driver_st7789.c ****  *            - 5 first_scan_line_number > 0x3F
2803:driver_st7789.c ****  * @note      0 <= gate_line_number <= 0x3F
2804:driver_st7789.c ****  *            0 <= first_scan_line_number 0x3F
2805:driver_st7789.c ****  */
2806:driver_st7789.c **** uint8_t st7789_set_gate(st7789_handle_t *handle,
2807:driver_st7789.c ****                         uint8_t gate_line_number,
2808:driver_st7789.c ****                         uint8_t first_scan_line_number,
2809:driver_st7789.c ****                         st7789_gate_scan_mode_t mode,
ARM GAS  C:\Users\haske\AppData\Local\Temp\cc9TNOGL.s 			page 54


2810:driver_st7789.c ****                         st7789_gate_scan_direction_t direction)
2811:driver_st7789.c **** {
2812:driver_st7789.c ****     uint8_t buf[3];
2813:driver_st7789.c **** 
2814:driver_st7789.c ****     if (handle == NULL)                                                           /* check handle *
2815:driver_st7789.c ****     {
2816:driver_st7789.c ****         return 2;                                                                 /* return error *
2817:driver_st7789.c ****     }
2818:driver_st7789.c ****     if (handle->inited != 1)                                                      /* check handle i
2819:driver_st7789.c ****     {
2820:driver_st7789.c ****         return 3;                                                                 /* return error *
2821:driver_st7789.c ****     }
2822:driver_st7789.c ****     if (gate_line_number > 0x3F)                                                  /* check gate_lin
2823:driver_st7789.c ****     {
2824:driver_st7789.c ****         handle->debug_print("st7789: gate_line_number > 0x3F.\n");                /* gate_line_numb
2825:driver_st7789.c **** 
2826:driver_st7789.c ****         return 4;                                                                 /* return error *
2827:driver_st7789.c ****     }
2828:driver_st7789.c ****     if (first_scan_line_number > 0x3F)                                            /* check first_sc
2829:driver_st7789.c ****     {
2830:driver_st7789.c ****         handle->debug_print("st7789: first_scan_line_number > 0x3F.\n");          /* first_scan_lin
2831:driver_st7789.c **** 
2832:driver_st7789.c ****         return 5;                                                                 /* return error *
2833:driver_st7789.c ****     }
2834:driver_st7789.c **** 
2835:driver_st7789.c ****     if (a_st7789_write_byte(handle, ST7789_CMD_GATECTRL, ST7789_CMD) != 0)        /* write gate con
2836:driver_st7789.c ****     {
2837:driver_st7789.c ****         handle->debug_print("st7789: write command failed.\n");                   /* write command 
2838:driver_st7789.c **** 
2839:driver_st7789.c ****         return 1;                                                                 /* return error *
2840:driver_st7789.c ****     }
2841:driver_st7789.c ****     buf[0] = gate_line_number;                                                    /* set param 1 */
2842:driver_st7789.c ****     buf[1] = first_scan_line_number;                                              /* set param 2 */
2843:driver_st7789.c ****     buf[2] = 0x10 | (mode << 2) | (direction << 0);                               /* set param 3 */
2844:driver_st7789.c ****     if (a_st7789_write_bytes(handle, buf, 3, ST7789_DATA) != 0)                   /* write data */
2845:driver_st7789.c ****     {
2846:driver_st7789.c ****         handle->debug_print("st7789: write data failed.\n");                      /* write data fai
2847:driver_st7789.c **** 
2848:driver_st7789.c ****         return 1;                                                                 /* return error *
2849:driver_st7789.c ****     }
2850:driver_st7789.c **** 
2851:driver_st7789.c ****     return 0;                                                                     /* success return
2852:driver_st7789.c **** }
2853:driver_st7789.c **** 
2854:driver_st7789.c **** /**
2855:driver_st7789.c ****  * @brief      convert the gate line to the register raw data
2856:driver_st7789.c ****  * @param[in]  *handle points to an st7789 handle structure
2857:driver_st7789.c ****  * @param[in]  l is the gate line
2858:driver_st7789.c ****  * @param[out] *reg points to a register raw buffer
2859:driver_st7789.c ****  * @return     status code
2860:driver_st7789.c ****  *             - 0 success
2861:driver_st7789.c ****  *             - 2 handle is NULL
2862:driver_st7789.c ****  *             - 3 handle is not initialized
2863:driver_st7789.c ****  * @note       none
2864:driver_st7789.c ****  */
2865:driver_st7789.c **** uint8_t st7789_gate_line_convert_to_register(st7789_handle_t *handle, uint16_t l, uint8_t *reg)
2866:driver_st7789.c **** {
ARM GAS  C:\Users\haske\AppData\Local\Temp\cc9TNOGL.s 			page 55


2867:driver_st7789.c ****     if (handle == NULL)                       /* check handle */
2868:driver_st7789.c ****     {
2869:driver_st7789.c ****         return 2;                             /* return error */
2870:driver_st7789.c ****     }
2871:driver_st7789.c ****     if (handle->inited != 1)                  /* check handle initialization */
2872:driver_st7789.c ****     {
2873:driver_st7789.c ****         return 3;                             /* return error */
2874:driver_st7789.c ****     }
2875:driver_st7789.c **** 
2876:driver_st7789.c ****     *reg = (uint8_t)((l / 8) - 1);            /* convert real data to register data */
2877:driver_st7789.c **** 
2878:driver_st7789.c ****     return 0;                                 /* success return 0 */
2879:driver_st7789.c **** }
2880:driver_st7789.c **** 
2881:driver_st7789.c **** /**
2882:driver_st7789.c ****  * @brief      convert the register raw data to the gate line
2883:driver_st7789.c ****  * @param[in]  *handle points to an st7789 handle structure
2884:driver_st7789.c ****  * @param[in]  reg is the register raw data
2885:driver_st7789.c ****  * @param[out] *l points to a gate line buffer
2886:driver_st7789.c ****  * @return     status code
2887:driver_st7789.c ****  *             - 0 success
2888:driver_st7789.c ****  *             - 2 handle is NULL
2889:driver_st7789.c ****  *             - 3 handle is not initialized
2890:driver_st7789.c ****  * @note       none
2891:driver_st7789.c ****  */
2892:driver_st7789.c **** uint8_t st7789_gate_line_convert_to_data(st7789_handle_t *handle, uint8_t reg, uint16_t *l)
2893:driver_st7789.c **** {
2894:driver_st7789.c ****     if (handle == NULL)                    /* check handle */
2895:driver_st7789.c ****     {
2896:driver_st7789.c ****         return 2;                          /* return error */
2897:driver_st7789.c ****     }
2898:driver_st7789.c ****     if (handle->inited != 1)               /* check handle initialization */
2899:driver_st7789.c ****     {
2900:driver_st7789.c ****         return 3;                          /* return error */
2901:driver_st7789.c ****     }
2902:driver_st7789.c **** 
2903:driver_st7789.c ****     *l = (uint8_t)(reg * 8 + 8);           /* convert raw data to real data */
2904:driver_st7789.c **** 
2905:driver_st7789.c ****     return 0;                              /* success return 0 */
2906:driver_st7789.c **** }
2907:driver_st7789.c **** 
2908:driver_st7789.c **** /**
2909:driver_st7789.c ****  * @brief     set spi2 enable
2910:driver_st7789.c ****  * @param[in] *handle points to an st7789 handle structure
2911:driver_st7789.c ****  * @param[in] date_lane is a bool value
2912:driver_st7789.c ****  * @param[in] command_table_2 is a bool value
2913:driver_st7789.c ****  * @return    status code
2914:driver_st7789.c ****  *            - 0 success
2915:driver_st7789.c ****  *            - 1 set spi2 enable failed
2916:driver_st7789.c ****  *            - 2 handle is NULL
2917:driver_st7789.c ****  *            - 3 handle is not initialized
2918:driver_st7789.c ****  * @note      none
2919:driver_st7789.c ****  */
2920:driver_st7789.c **** uint8_t st7789_set_spi2_enable(st7789_handle_t *handle, st7789_bool_t date_lane, st7789_bool_t comm
2921:driver_st7789.c **** {
2922:driver_st7789.c ****     uint8_t reg;
2923:driver_st7789.c **** 
ARM GAS  C:\Users\haske\AppData\Local\Temp\cc9TNOGL.s 			page 56


2924:driver_st7789.c ****     if (handle == NULL)                                                           /* check handle *
2925:driver_st7789.c ****     {
2926:driver_st7789.c ****         return 2;                                                                 /* return error *
2927:driver_st7789.c ****     }
2928:driver_st7789.c ****     if (handle->inited != 1)                                                      /* check handle i
2929:driver_st7789.c ****     {
2930:driver_st7789.c ****         return 3;                                                                 /* return error *
2931:driver_st7789.c ****     }
2932:driver_st7789.c **** 
2933:driver_st7789.c ****     if (a_st7789_write_byte(handle, ST7789_CMD_SPI2EN, ST7789_CMD) != 0)          /* write spi2 com
2934:driver_st7789.c ****     {
2935:driver_st7789.c ****         handle->debug_print("st7789: write command failed.\n");                   /* write command 
2936:driver_st7789.c **** 
2937:driver_st7789.c ****         return 1;                                                                 /* return error *
2938:driver_st7789.c ****     }
2939:driver_st7789.c ****     reg = (date_lane << 4) | (command_table_2 << 0);                              /* set param */
2940:driver_st7789.c ****     if (a_st7789_write_byte(handle, reg, ST7789_DATA) != 0)                       /* write data */
2941:driver_st7789.c ****     {
2942:driver_st7789.c ****         handle->debug_print("st7789: write data failed.\n");                      /* write data fai
2943:driver_st7789.c **** 
2944:driver_st7789.c ****         return 1;                                                                 /* return error *
2945:driver_st7789.c ****     }
2946:driver_st7789.c **** 
2947:driver_st7789.c ****     return 0;                                                                     /* success return
2948:driver_st7789.c **** }
2949:driver_st7789.c **** 
2950:driver_st7789.c **** /**
2951:driver_st7789.c ****  * @brief     set power control 2
2952:driver_st7789.c ****  * @param[in] *handle points to an st7789 handle structure
2953:driver_st7789.c ****  * @param[in] sbclk is the sbclk div
2954:driver_st7789.c ****  * @param[in] stp14ck is the stp14ck div
2955:driver_st7789.c ****  * @return    status code
2956:driver_st7789.c ****  *            - 0 success
2957:driver_st7789.c ****  *            - 1 set power control 2 failed
2958:driver_st7789.c ****  *            - 2 handle is NULL
2959:driver_st7789.c ****  *            - 3 handle is not initialized
2960:driver_st7789.c ****  * @note      none
2961:driver_st7789.c ****  */
2962:driver_st7789.c **** uint8_t st7789_set_power_control_2(st7789_handle_t *handle, st7789_sbclk_div_t sbclk, st7789_stp14c
2963:driver_st7789.c **** {
2964:driver_st7789.c ****     uint8_t reg;
2965:driver_st7789.c **** 
2966:driver_st7789.c ****     if (handle == NULL)                                                           /* check handle *
2967:driver_st7789.c ****     {
2968:driver_st7789.c ****         return 2;                                                                 /* return error *
2969:driver_st7789.c ****     }
2970:driver_st7789.c ****     if (handle->inited != 1)                                                      /* check handle i
2971:driver_st7789.c ****     {
2972:driver_st7789.c ****         return 3;                                                                 /* return error *
2973:driver_st7789.c ****     }
2974:driver_st7789.c **** 
2975:driver_st7789.c ****     if (a_st7789_write_byte(handle, ST7789_CMD_PWCTRL2, ST7789_CMD) != 0)         /* write power co
2976:driver_st7789.c ****     {
2977:driver_st7789.c ****         handle->debug_print("st7789: write command failed.\n");                   /* write command 
2978:driver_st7789.c **** 
2979:driver_st7789.c ****         return 1;                                                                 /* return error *
2980:driver_st7789.c ****     }
ARM GAS  C:\Users\haske\AppData\Local\Temp\cc9TNOGL.s 			page 57


2981:driver_st7789.c ****     reg = (sbclk << 4) | (stp14ck << 0);                                          /* set param */
2982:driver_st7789.c ****     if (a_st7789_write_byte(handle, reg, ST7789_DATA) != 0)                       /* write data */
2983:driver_st7789.c ****     {
2984:driver_st7789.c ****         handle->debug_print("st7789: write data failed.\n");                      /* write data fai
2985:driver_st7789.c **** 
2986:driver_st7789.c ****         return 1;                                                                 /* return error *
2987:driver_st7789.c ****     }
2988:driver_st7789.c **** 
2989:driver_st7789.c ****     return 0;                                                                     /* success return
2990:driver_st7789.c **** }
2991:driver_st7789.c **** 
2992:driver_st7789.c **** /**
2993:driver_st7789.c ****  * @brief     set equalize time control
2994:driver_st7789.c ****  * @param[in] *handle points to an st7789 handle structure
2995:driver_st7789.c ****  * @param[in] source_equalize_time is the source equalize time
2996:driver_st7789.c ****  * @param[in] source_pre_drive_time is the source pre drive time
2997:driver_st7789.c ****  * @param[in] gate_equalize_time is the gate equalize time
2998:driver_st7789.c ****  * @return    status code
2999:driver_st7789.c ****  *            - 0 success
3000:driver_st7789.c ****  *            - 1 set equalize time control failed
3001:driver_st7789.c ****  *            - 2 handle is NULL
3002:driver_st7789.c ****  *            - 3 handle is not initialized
3003:driver_st7789.c ****  *            - 4 source_equalize_time > 0x1F
3004:driver_st7789.c ****  *            - 5 source_pre_drive_time > 0x1F
3005:driver_st7789.c ****  *            - 6 gate_equalize_time > 0xF
3006:driver_st7789.c ****  * @note      0 <= source_equalize_time <= 0x1F
3007:driver_st7789.c ****  */
3008:driver_st7789.c **** uint8_t st7789_set_equalize_time_control(st7789_handle_t *handle,
3009:driver_st7789.c ****                                          uint8_t source_equalize_time,
3010:driver_st7789.c ****                                          uint8_t source_pre_drive_time,
3011:driver_st7789.c ****                                          uint8_t gate_equalize_time)
3012:driver_st7789.c **** {
3013:driver_st7789.c ****     uint8_t buf[3];
3014:driver_st7789.c **** 
3015:driver_st7789.c ****     if (handle == NULL)                                                           /* check handle *
3016:driver_st7789.c ****     {
3017:driver_st7789.c ****         return 2;                                                                 /* return error *
3018:driver_st7789.c ****     }
3019:driver_st7789.c ****     if (handle->inited != 1)                                                      /* check handle i
3020:driver_st7789.c ****     {
3021:driver_st7789.c ****         return 3;                                                                 /* return error *
3022:driver_st7789.c ****     }
3023:driver_st7789.c ****     if (source_equalize_time > 0x1F)                                              /* check source_e
3024:driver_st7789.c ****     {
3025:driver_st7789.c ****         handle->debug_print("st7789: source_equalize_time > 0x1F.\n");            /* source_equaliz
3026:driver_st7789.c **** 
3027:driver_st7789.c ****         return 4;                                                                 /* return error *
3028:driver_st7789.c ****     }
3029:driver_st7789.c ****     if (source_pre_drive_time > 0x1F)                                             /* check source_p
3030:driver_st7789.c ****     {
3031:driver_st7789.c ****         handle->debug_print("st7789: source_pre_drive_time > 0x1F.\n");           /* source_pre_dri
3032:driver_st7789.c **** 
3033:driver_st7789.c ****         return 5;                                                                 /* return error *
3034:driver_st7789.c ****     }
3035:driver_st7789.c ****     if (gate_equalize_time > 0xF)                                                 /* check gate_equ
3036:driver_st7789.c ****     {
3037:driver_st7789.c ****         handle->debug_print("st7789: gate_equalize_time > 0xF.\n");               /* gate_equalize_
ARM GAS  C:\Users\haske\AppData\Local\Temp\cc9TNOGL.s 			page 58


3038:driver_st7789.c **** 
3039:driver_st7789.c ****         return 6;                                                                 /* return error *
3040:driver_st7789.c ****     }
3041:driver_st7789.c **** 
3042:driver_st7789.c ****     if (a_st7789_write_byte(handle, ST7789_CMD_EQCTRL, ST7789_CMD) != 0)          /* write equalize
3043:driver_st7789.c ****     {
3044:driver_st7789.c ****         handle->debug_print("st7789: write command failed.\n");                   /* write command 
3045:driver_st7789.c **** 
3046:driver_st7789.c ****         return 1;                                                                 /* return error *
3047:driver_st7789.c ****     }
3048:driver_st7789.c ****     buf[0] = source_equalize_time;                                                /* set param 1 */
3049:driver_st7789.c ****     buf[1] = source_pre_drive_time;                                               /* set param 2 */
3050:driver_st7789.c ****     buf[2] = gate_equalize_time;                                                  /* set param 3 */
3051:driver_st7789.c ****     if (a_st7789_write_bytes(handle, buf, 3, ST7789_DATA) != 0)                   /* write data */
3052:driver_st7789.c ****     {
3053:driver_st7789.c ****         handle->debug_print("st7789: write data failed.\n");                      /* write data fai
3054:driver_st7789.c **** 
3055:driver_st7789.c ****         return 1;                                                                 /* return error *
3056:driver_st7789.c ****     }
3057:driver_st7789.c **** 
3058:driver_st7789.c ****     return 0;                                                                     /* success return
3059:driver_st7789.c **** }
3060:driver_st7789.c **** 
3061:driver_st7789.c **** /**
3062:driver_st7789.c ****  * @brief     set program mode control
3063:driver_st7789.c ****  * @param[in] *handle points to an st7789 handle structure
3064:driver_st7789.c ****  * @return    status code
3065:driver_st7789.c ****  *            - 0 success
3066:driver_st7789.c ****  *            - 1 set program mode control failed
3067:driver_st7789.c ****  *            - 2 handle is NULL
3068:driver_st7789.c ****  *            - 3 handle is not initialized
3069:driver_st7789.c ****  * @note      none
3070:driver_st7789.c ****  */
3071:driver_st7789.c **** uint8_t st7789_set_program_mode_control(st7789_handle_t *handle)
3072:driver_st7789.c **** {
3073:driver_st7789.c ****     uint8_t reg;
3074:driver_st7789.c **** 
3075:driver_st7789.c ****     if (handle == NULL)                                                           /* check handle *
3076:driver_st7789.c ****     {
3077:driver_st7789.c ****         return 2;                                                                 /* return error *
3078:driver_st7789.c ****     }
3079:driver_st7789.c ****     if (handle->inited != 1)                                                      /* check handle i
3080:driver_st7789.c ****     {
3081:driver_st7789.c ****         return 3;                                                                 /* return error *
3082:driver_st7789.c ****     }
3083:driver_st7789.c **** 
3084:driver_st7789.c ****     if (a_st7789_write_byte(handle, ST7789_CMD_PROMCTRL, ST7789_CMD) != 0)        /* write program 
3085:driver_st7789.c ****     {
3086:driver_st7789.c ****         handle->debug_print("st7789: write command failed.\n");                   /* write command 
3087:driver_st7789.c **** 
3088:driver_st7789.c ****         return 1;                                                                 /* return error *
3089:driver_st7789.c ****     }
3090:driver_st7789.c ****     reg = 0x01;                                                                   /* set param */
3091:driver_st7789.c ****     if (a_st7789_write_byte(handle, reg, ST7789_DATA) != 0)                       /* write data */
3092:driver_st7789.c ****     {
3093:driver_st7789.c ****         handle->debug_print("st7789: write data failed.\n");                      /* write data fai
3094:driver_st7789.c **** 
ARM GAS  C:\Users\haske\AppData\Local\Temp\cc9TNOGL.s 			page 59


3095:driver_st7789.c ****         return 1;                                                                 /* return error *
3096:driver_st7789.c ****     }
3097:driver_st7789.c **** 
3098:driver_st7789.c ****     return 0;                                                                     /* success return
3099:driver_st7789.c **** }
3100:driver_st7789.c **** 
3101:driver_st7789.c **** /**
3102:driver_st7789.c ****  * @brief     enable or disable program mode
3103:driver_st7789.c ****  * @param[in] *handle points to an st7789 handle structure
3104:driver_st7789.c ****  * @param[in] enable is a bool value
3105:driver_st7789.c ****  * @return    status code
3106:driver_st7789.c ****  *            - 0 success
3107:driver_st7789.c ****  *            - 1 set program mode enable failed
3108:driver_st7789.c ****  *            - 2 handle is NULL
3109:driver_st7789.c ****  *            - 3 handle is not initialized
3110:driver_st7789.c ****  * @note      none
3111:driver_st7789.c ****  */
3112:driver_st7789.c **** uint8_t st7789_set_program_mode_enable(st7789_handle_t *handle, st7789_bool_t enable)
3113:driver_st7789.c **** {
3114:driver_st7789.c ****     uint8_t buf[4];
3115:driver_st7789.c **** 
3116:driver_st7789.c ****     if (handle == NULL)                                                           /* check handle *
3117:driver_st7789.c ****     {
3118:driver_st7789.c ****         return 2;                                                                 /* return error *
3119:driver_st7789.c ****     }
3120:driver_st7789.c ****     if (handle->inited != 1)                                                      /* check handle i
3121:driver_st7789.c ****     {
3122:driver_st7789.c ****         return 3;                                                                 /* return error *
3123:driver_st7789.c ****     }
3124:driver_st7789.c **** 
3125:driver_st7789.c ****     if (a_st7789_write_byte(handle, ST7789_CMD_PROMEN, ST7789_CMD) != 0)          /* write program 
3126:driver_st7789.c ****     {
3127:driver_st7789.c ****         handle->debug_print("st7789: write command failed.\n");                   /* write command 
3128:driver_st7789.c **** 
3129:driver_st7789.c ****         return 1;                                                                 /* return error *
3130:driver_st7789.c ****     }
3131:driver_st7789.c ****     buf[0] = 0x5A;                                                                /* set param 1 */
3132:driver_st7789.c ****     buf[1] = 0x69;                                                                /* set param 2 */
3133:driver_st7789.c ****     buf[2] = 0xEE;                                                                /* set param 3 */
3134:driver_st7789.c ****     buf[3] = enable << 2;                                                         /* set param 4 */
3135:driver_st7789.c ****     if (a_st7789_write_bytes(handle, buf, 4, ST7789_DATA) != 0)                   /* write data */
3136:driver_st7789.c ****     {
3137:driver_st7789.c ****         handle->debug_print("st7789: write data failed.\n");                      /* write data fai
3138:driver_st7789.c **** 
3139:driver_st7789.c ****         return 1;                                                                 /* return error *
3140:driver_st7789.c ****     }
3141:driver_st7789.c **** 
3142:driver_st7789.c ****     return 0;                                                                     /* success return
3143:driver_st7789.c **** }
3144:driver_st7789.c **** 
3145:driver_st7789.c **** /**
3146:driver_st7789.c ****  * @brief     set nvm setting
3147:driver_st7789.c ****  * @param[in] *handle points to an st7789 handle structure
3148:driver_st7789.c ****  * @param[in] addr is the nvm address
3149:driver_st7789.c ****  * @param[in] data is the nvm set data
3150:driver_st7789.c ****  * @return    status code
3151:driver_st7789.c ****  *            - 0 success
ARM GAS  C:\Users\haske\AppData\Local\Temp\cc9TNOGL.s 			page 60


3152:driver_st7789.c ****  *            - 1 set nvm setting failed
3153:driver_st7789.c ****  *            - 2 handle is NULL
3154:driver_st7789.c ****  *            - 3 handle is not initialized
3155:driver_st7789.c ****  * @note      none
3156:driver_st7789.c ****  */
3157:driver_st7789.c **** uint8_t st7789_set_nvm_setting(st7789_handle_t *handle, uint8_t addr, uint8_t data)
3158:driver_st7789.c **** {
3159:driver_st7789.c ****     uint8_t buf[2];
3160:driver_st7789.c **** 
3161:driver_st7789.c ****     if (handle == NULL)                                                           /* check handle *
3162:driver_st7789.c ****     {
3163:driver_st7789.c ****         return 2;                                                                 /* return error *
3164:driver_st7789.c ****     }
3165:driver_st7789.c ****     if (handle->inited != 1)                                                      /* check handle i
3166:driver_st7789.c ****     {
3167:driver_st7789.c ****         return 3;                                                                 /* return error *
3168:driver_st7789.c ****     }
3169:driver_st7789.c **** 
3170:driver_st7789.c ****     if (a_st7789_write_byte(handle, ST7789_CMD_NVMSET, ST7789_CMD) != 0)          /* write nvm sett
3171:driver_st7789.c ****     {
3172:driver_st7789.c ****         handle->debug_print("st7789: write command failed.\n");                   /* write command 
3173:driver_st7789.c **** 
3174:driver_st7789.c ****         return 1;                                                                 /* return error *
3175:driver_st7789.c ****     }
3176:driver_st7789.c ****     buf[0] = addr;                                                                /* set param 1 */
3177:driver_st7789.c ****     buf[1] = data;                                                                /* set param 2 */
3178:driver_st7789.c ****     if (a_st7789_write_bytes(handle, buf, 2, ST7789_DATA) != 0)                   /* write data */
3179:driver_st7789.c ****     {
3180:driver_st7789.c ****         handle->debug_print("st7789: write data failed.\n");                      /* write data fai
3181:driver_st7789.c **** 
3182:driver_st7789.c ****         return 1;                                                                 /* return error *
3183:driver_st7789.c ****     }
3184:driver_st7789.c **** 
3185:driver_st7789.c ****     return 0;                                                                     /* success return
3186:driver_st7789.c **** }
3187:driver_st7789.c **** 
3188:driver_st7789.c **** /**
3189:driver_st7789.c ****  * @brief     set program action
3190:driver_st7789.c ****  * @param[in] *handle points to an st7789 handle structure
3191:driver_st7789.c ****  * @return    status code
3192:driver_st7789.c ****  *            - 0 success
3193:driver_st7789.c ****  *            - 1 set program action failed
3194:driver_st7789.c ****  *            - 2 handle is NULL
3195:driver_st7789.c ****  *            - 3 handle is not initialized
3196:driver_st7789.c ****  * @note      none
3197:driver_st7789.c ****  */
3198:driver_st7789.c **** uint8_t st7789_set_program_action(st7789_handle_t *handle)
3199:driver_st7789.c **** {
3200:driver_st7789.c ****     uint8_t buf[2];
3201:driver_st7789.c **** 
3202:driver_st7789.c ****     if (handle == NULL)                                                           /* check handle *
3203:driver_st7789.c ****     {
3204:driver_st7789.c ****         return 2;                                                                 /* return error *
3205:driver_st7789.c ****     }
3206:driver_st7789.c ****     if (handle->inited != 1)                                                      /* check handle i
3207:driver_st7789.c ****     {
3208:driver_st7789.c ****         return 3;                                                                 /* return error *
ARM GAS  C:\Users\haske\AppData\Local\Temp\cc9TNOGL.s 			page 61


3209:driver_st7789.c ****     }
3210:driver_st7789.c **** 
3211:driver_st7789.c ****     if (a_st7789_write_byte(handle, ST7789_CMD_PROMACT, ST7789_CMD) != 0)         /* write program 
3212:driver_st7789.c ****     {
3213:driver_st7789.c ****         handle->debug_print("st7789: write command failed.\n");                   /* write command 
3214:driver_st7789.c **** 
3215:driver_st7789.c ****         return 1;                                                                 /* return error *
3216:driver_st7789.c ****     }
3217:driver_st7789.c ****     buf[0] = 0x29;                                                                /* set param 1 */
3218:driver_st7789.c ****     buf[1] = 0xA5;                                                                /* set param 2 */
3219:driver_st7789.c ****     if (a_st7789_write_bytes(handle, buf, 2, ST7789_DATA) != 0)                   /* write data */
3220:driver_st7789.c ****     {
3221:driver_st7789.c ****         handle->debug_print("st7789: write data failed.\n");                      /* write data fai
3222:driver_st7789.c **** 
3223:driver_st7789.c ****         return 1;                                                                 /* return error *
3224:driver_st7789.c ****     }
3225:driver_st7789.c **** 
3226:driver_st7789.c ****     return 0;                                                                     /* success return
3227:driver_st7789.c **** }
3228:driver_st7789.c **** 
3229:driver_st7789.c **** /**
3230:driver_st7789.c ****  * @brief     initialize the chip
3231:driver_st7789.c ****  * @param[in] *handle points to an st7789 handle structure
3232:driver_st7789.c ****  * @return    status code
3233:driver_st7789.c ****  *            - 0 success
3234:driver_st7789.c ****  *            - 1 spi initialization failed
3235:driver_st7789.c ****  *            - 2 handle is NULL
3236:driver_st7789.c ****  *            - 3 linked functions is NULL
3237:driver_st7789.c ****  *            - 4 reset failed
3238:driver_st7789.c ****  *            - 5 command && data init failed
3239:driver_st7789.c ****  * @note      none
3240:driver_st7789.c ****  */
3241:driver_st7789.c **** uint8_t st7789_init(st7789_handle_t *handle)
3242:driver_st7789.c **** {
3243:driver_st7789.c ****     if (handle == NULL)                                                         /* check handle */
3244:driver_st7789.c ****     {
3245:driver_st7789.c ****         return 2;                                                               /* return error */
3246:driver_st7789.c ****     }
3247:driver_st7789.c ****     if (handle->debug_print == NULL)                                            /* check debug_prin
3248:driver_st7789.c ****     {
3249:driver_st7789.c ****         return 3;                                                               /* return error */
3250:driver_st7789.c ****     }
3251:driver_st7789.c ****     if (handle->spi_init == NULL)                                               /* check spi_init *
3252:driver_st7789.c ****     {
3253:driver_st7789.c ****         handle->debug_print("st7789: spi_init is null.\n");                     /* spi_init is null
3254:driver_st7789.c **** 
3255:driver_st7789.c ****         return 3;                                                               /* return error */
3256:driver_st7789.c ****     }
3257:driver_st7789.c ****     if (handle->spi_deinit == NULL)                                             /* check spi_deinit
3258:driver_st7789.c ****     {
3259:driver_st7789.c ****         handle->debug_print("st7789: spi_deinit is null.\n");                   /* spi_deinit is nu
3260:driver_st7789.c **** 
3261:driver_st7789.c ****         return 3;                                                               /* return error */
3262:driver_st7789.c ****     }
3263:driver_st7789.c ****     if (handle->spi_write_cmd == NULL)                                          /* check spi_write_
3264:driver_st7789.c ****     {
3265:driver_st7789.c ****         handle->debug_print("st7789: spi_write_cmd is null.\n");                /* spi_init is null
ARM GAS  C:\Users\haske\AppData\Local\Temp\cc9TNOGL.s 			page 62


3266:driver_st7789.c **** 
3267:driver_st7789.c ****         return 3;                                                               /* return error */
3268:driver_st7789.c ****     }
3269:driver_st7789.c ****     if (handle->cmd_data_gpio_init == NULL)                                     /* check cmd_data_g
3270:driver_st7789.c ****     {
3271:driver_st7789.c ****         handle->debug_print("st7789: cmd_data_gpio_init is null.\n");           /* cmd_data_gpio_in
3272:driver_st7789.c **** 
3273:driver_st7789.c ****         return 3;                                                               /* return error */
3274:driver_st7789.c ****     }
3275:driver_st7789.c ****     if (handle->cmd_data_gpio_deinit == NULL)                                   /* check cmd_data_g
3276:driver_st7789.c ****     {
3277:driver_st7789.c ****         handle->debug_print("st7789: cmd_data_gpio_deinit is null.\n");         /* cmd_data_gpio_de
3278:driver_st7789.c **** 
3279:driver_st7789.c ****         return 3;                                                               /* return error */
3280:driver_st7789.c ****     }
3281:driver_st7789.c ****     if (handle->cmd_data_gpio_write == NULL)                                    /* check cmd_data_g
3282:driver_st7789.c ****     {
3283:driver_st7789.c ****         handle->debug_print("st7789: cmd_data_gpio_write is null.\n");          /* cmd_data_gpio_wr
3284:driver_st7789.c **** 
3285:driver_st7789.c ****         return 3;                                                               /* return error */
3286:driver_st7789.c ****     }
3287:driver_st7789.c ****     if (handle->reset_gpio_init == NULL)                                        /* check reset_gpio
3288:driver_st7789.c ****     {
3289:driver_st7789.c ****         handle->debug_print("st7789: reset_gpio_init is null.\n");              /* reset_gpio_init 
3290:driver_st7789.c **** 
3291:driver_st7789.c ****         return 3;                                                               /* return error */
3292:driver_st7789.c ****     }
3293:driver_st7789.c ****     if (handle->reset_gpio_deinit == NULL)                                      /* check reset_gpio
3294:driver_st7789.c ****     {
3295:driver_st7789.c ****         handle->debug_print("st7789: reset_gpio_deinit is null.\n");            /* reset_gpio_deini
3296:driver_st7789.c **** 
3297:driver_st7789.c ****         return 3;                                                               /* return error */
3298:driver_st7789.c ****     }
3299:driver_st7789.c ****     if (handle->reset_gpio_write == NULL)                                       /* check reset_gpio
3300:driver_st7789.c ****     {
3301:driver_st7789.c ****         handle->debug_print("st7789: reset_gpio_write is null.\n");             /* reset_gpio_write
3302:driver_st7789.c **** 
3303:driver_st7789.c ****         return 3;                                                               /* return error */
3304:driver_st7789.c ****     }
3305:driver_st7789.c ****     if (handle->delay_ms == NULL)                                               /* check delay_ms *
3306:driver_st7789.c ****     {
3307:driver_st7789.c ****         handle->debug_print("st7789: delay_ms is null.\n");                     /* delay_ms is null
3308:driver_st7789.c **** 
3309:driver_st7789.c ****         return 3;                                                               /* return error */
3310:driver_st7789.c ****     }
3311:driver_st7789.c **** 
3312:driver_st7789.c ****     if (handle->cmd_data_gpio_init() != 0)                                      /* check cmd_data_g
3313:driver_st7789.c ****     {
3314:driver_st7789.c ****         handle->debug_print("st7789: cmd data gpio init failed.\n");            /* cmd data gpio in
3315:driver_st7789.c **** 
3316:driver_st7789.c ****         return 5;                                                               /* return error */
3317:driver_st7789.c ****     }
3318:driver_st7789.c ****     if (handle->reset_gpio_init() != 0)                                         /* reset gpio init 
3319:driver_st7789.c ****     {
3320:driver_st7789.c ****         handle->debug_print("st7789: reset gpio init failed.\n");               /* reset gpio init 
3321:driver_st7789.c ****         (void)handle->cmd_data_gpio_deinit();                                   /* cmd_data_gpio_de
3322:driver_st7789.c **** 
ARM GAS  C:\Users\haske\AppData\Local\Temp\cc9TNOGL.s 			page 63


3323:driver_st7789.c ****         return 4;                                                               /* return error */
3324:driver_st7789.c ****     }
3325:driver_st7789.c ****     if (handle->reset_gpio_write(0) != 0)                                       /* write 0 */
3326:driver_st7789.c ****     {
3327:driver_st7789.c ****         handle->debug_print("st7789: reset gpio write failed.\n");              /* reset gpio write
3328:driver_st7789.c ****         (void)handle->cmd_data_gpio_deinit();                                   /* cmd_data_gpio_de
3329:driver_st7789.c ****         (void)handle->reset_gpio_deinit();                                      /* reset_gpio_deini
3330:driver_st7789.c **** 
3331:driver_st7789.c ****         return 4;                                                               /* return error */
3332:driver_st7789.c ****     }
3333:driver_st7789.c ****     handle->delay_ms(100);                                                      /* delay 100 ms */
3334:driver_st7789.c ****     if (handle->reset_gpio_write(1) != 0)                                       /* write 1 */
3335:driver_st7789.c ****     {
3336:driver_st7789.c ****         handle->debug_print("st7789: reset gpio write failed.\n");              /* reset gpio write
3337:driver_st7789.c ****         (void)handle->cmd_data_gpio_deinit();                                   /* cmd_data_gpio_de
3338:driver_st7789.c ****         (void)handle->reset_gpio_deinit();                                      /* reset_gpio_deini
3339:driver_st7789.c **** 
3340:driver_st7789.c ****         return 4;                                                               /* return error */
3341:driver_st7789.c ****     }
3342:driver_st7789.c ****     if (handle->spi_init() != 0)                                                /* spi init */
3343:driver_st7789.c ****     {
3344:driver_st7789.c ****         handle->debug_print("st7789: spi init failed.\n");                      /* spi init failed 
3345:driver_st7789.c ****         (void)handle->cmd_data_gpio_deinit();                                   /* cmd_data_gpio_de
3346:driver_st7789.c ****         (void)handle->reset_gpio_deinit();                                      /* reset_gpio_deini
3347:driver_st7789.c **** 
3348:driver_st7789.c ****         return 1;                                                               /* return error */
3349:driver_st7789.c ****     }
3350:driver_st7789.c ****     handle->inited = 1;                                                         /* flag inited */
3351:driver_st7789.c **** 
3352:driver_st7789.c ****     return 0;                                                                   /* success return 0
3353:driver_st7789.c **** }
3354:driver_st7789.c **** 
3355:driver_st7789.c **** /**
3356:driver_st7789.c ****  * @brief     close the chip
3357:driver_st7789.c ****  * @param[in] *handle points to an st7789 handle structure
3358:driver_st7789.c ****  * @return    status code
3359:driver_st7789.c ****  *            - 0 success
3360:driver_st7789.c ****  *            - 1 spi deinit failed
3361:driver_st7789.c ****  *            - 2 handle is NULL
3362:driver_st7789.c ****  *            - 3 handle is not initialized
3363:driver_st7789.c ****  *            - 4 power down failed
3364:driver_st7789.c ****  *            - 5 reset gpio deinit failed
3365:driver_st7789.c ****  *            - 6 command && data deinit failed
3366:driver_st7789.c ****  * @note      none
3367:driver_st7789.c ****  */
3368:driver_st7789.c **** uint8_t st7789_deinit(st7789_handle_t *handle)
3369:driver_st7789.c **** {
3370:driver_st7789.c ****     if (handle == NULL)                                                        /* check handle */
3371:driver_st7789.c ****     {
3372:driver_st7789.c ****         return 2;                                                              /* return error */
3373:driver_st7789.c ****     }
3374:driver_st7789.c ****     if (handle->inited != 1)                                                   /* check handle init
3375:driver_st7789.c ****     {
3376:driver_st7789.c ****         return 3;                                                              /* return error */
3377:driver_st7789.c ****     }
3378:driver_st7789.c **** 
3379:driver_st7789.c ****     if (a_st7789_write_byte(handle, ST7789_CMD_SLPIN, ST7789_CMD) != 0)        /* write sleep in co
ARM GAS  C:\Users\haske\AppData\Local\Temp\cc9TNOGL.s 			page 64


3380:driver_st7789.c ****     {
3381:driver_st7789.c ****         handle->debug_print("st7789: write command failed.\n");                /* write command fai
3382:driver_st7789.c **** 
3383:driver_st7789.c ****         return 1;                                                              /* return error */
3384:driver_st7789.c ****     }
3385:driver_st7789.c ****     if (handle->reset_gpio_deinit() != 0)                                      /* reset gpio deinit
3386:driver_st7789.c ****     {
3387:driver_st7789.c ****         handle->debug_print("st7789: reset gpio deinit failed.\n");            /* reset gpio deinit
3388:driver_st7789.c **** 
3389:driver_st7789.c ****         return 5;                                                              /* return error */
3390:driver_st7789.c ****     }
3391:driver_st7789.c ****     if (handle->cmd_data_gpio_deinit() != 0)                                   /* cmd data gpio dei
3392:driver_st7789.c ****     {
3393:driver_st7789.c ****         handle->debug_print("st7789: cmd data gpio deinit failed.\n");         /* cmd data gpio dei
3394:driver_st7789.c **** 
3395:driver_st7789.c ****         return 6;                                                              /* return error */
3396:driver_st7789.c ****     }
3397:driver_st7789.c ****     if (handle->spi_deinit() != 0)                                             /* spi deinit */
3398:driver_st7789.c ****     {
3399:driver_st7789.c ****         handle->debug_print("st7789: spi deinit failed.\n");                   /* spi deinit failed
3400:driver_st7789.c **** 
3401:driver_st7789.c ****         return 1;                                                              /* return error */
3402:driver_st7789.c ****     }
3403:driver_st7789.c ****     handle->inited = 0;                                                        /* flag close */
3404:driver_st7789.c **** 
3405:driver_st7789.c ****     return 0;                                                                  /* success return 0 
3406:driver_st7789.c **** }
3407:driver_st7789.c **** 
3408:driver_st7789.c **** /**
3409:driver_st7789.c ****  * @brief     set column
3410:driver_st7789.c ****  * @param[in] *handle points to an st7789 handle structure
3411:driver_st7789.c ****  * @param[in] column is the screen column
3412:driver_st7789.c ****  * @return    status code
3413:driver_st7789.c ****  *            - 0 success
3414:driver_st7789.c ****  *            - 2 handle is NULL
3415:driver_st7789.c ****  *            - 3 handle is not initialized
3416:driver_st7789.c ****  *            - 4 column > 240
3417:driver_st7789.c ****  * @note      none
3418:driver_st7789.c ****  */
3419:driver_st7789.c **** uint8_t st7789_set_column(st7789_handle_t *handle, uint16_t column)
3420:driver_st7789.c **** {
3421:driver_st7789.c ****     if (handle == NULL)                                        /* check handle */
3422:driver_st7789.c ****     {
3423:driver_st7789.c ****         return 2;                                              /* return error */
3424:driver_st7789.c ****     }
3425:driver_st7789.c ****     if (handle->inited != 1)                                   /* check handle initialization */
3426:driver_st7789.c ****     {
3427:driver_st7789.c ****         return 3;                                              /* return error */
3428:driver_st7789.c ****     }
3429:driver_st7789.c ****     if (column > 240)                                          /* check column */
3430:driver_st7789.c ****     {
3431:driver_st7789.c ****         handle->debug_print("st7789: column > 240.\n");        /* column > 240 */
3432:driver_st7789.c **** 
3433:driver_st7789.c ****         return 4;                                              /* return error */
3434:driver_st7789.c ****     }
3435:driver_st7789.c **** 
3436:driver_st7789.c ****     handle->column = column;                                   /* set column */
