ARM GAS  C:\Users\haske\AppData\Local\Temp\cczDymCg.s 			page 1


   1              		.syntax unified
   2              		.cpu cortex-m4
   3              		.eabi_attribute 27, 1
   4              		.fpu fpv4-sp-d16
   5              		.eabi_attribute 20, 1
   6              		.eabi_attribute 21, 1
   7              		.eabi_attribute 23, 3
   8              		.eabi_attribute 24, 1
   9              		.eabi_attribute 25, 1
  10              		.eabi_attribute 26, 1
  11              		.eabi_attribute 30, 1
  12              		.eabi_attribute 34, 1
  13              		.eabi_attribute 18, 4
  14              		.thumb
  15              		.syntax unified
  16              		.file	"lv_draw_arc.c"
  17              		.text
  18              	.Ltext0:
  19              		.cfi_sections	.debug_frame
  20              		.section	.text.lv_draw_arc_dsc_init,"ax",%progbits
  21              		.align	2
  22              		.global	lv_draw_arc_dsc_init
  23              		.thumb
  24              		.thumb_func
  25              		.type	lv_draw_arc_dsc_init, %function
  26              	lv_draw_arc_dsc_init:
  27              	.LFB55:
  28              		.file 1 "..\\..\\..\\arduinoLCD\\test\\Pain Drain\\libraries\\lvgl\\src\\draw\\lv_draw_arc.c"
   1:..\..\..\arduinoLCD\test\Pain Drain\libraries\lvgl\src\draw/lv_draw_arc.c **** /**
   2:..\..\..\arduinoLCD\test\Pain Drain\libraries\lvgl\src\draw/lv_draw_arc.c ****  * @file lv_draw_arc.c
   3:..\..\..\arduinoLCD\test\Pain Drain\libraries\lvgl\src\draw/lv_draw_arc.c ****  *
   4:..\..\..\arduinoLCD\test\Pain Drain\libraries\lvgl\src\draw/lv_draw_arc.c ****  */
   5:..\..\..\arduinoLCD\test\Pain Drain\libraries\lvgl\src\draw/lv_draw_arc.c **** 
   6:..\..\..\arduinoLCD\test\Pain Drain\libraries\lvgl\src\draw/lv_draw_arc.c **** /*********************
   7:..\..\..\arduinoLCD\test\Pain Drain\libraries\lvgl\src\draw/lv_draw_arc.c ****  *      INCLUDES
   8:..\..\..\arduinoLCD\test\Pain Drain\libraries\lvgl\src\draw/lv_draw_arc.c ****  *********************/
   9:..\..\..\arduinoLCD\test\Pain Drain\libraries\lvgl\src\draw/lv_draw_arc.c **** #include "lv_draw.h"
  10:..\..\..\arduinoLCD\test\Pain Drain\libraries\lvgl\src\draw/lv_draw_arc.c **** #include "lv_draw_arc.h"
  11:..\..\..\arduinoLCD\test\Pain Drain\libraries\lvgl\src\draw/lv_draw_arc.c **** 
  12:..\..\..\arduinoLCD\test\Pain Drain\libraries\lvgl\src\draw/lv_draw_arc.c **** /*********************
  13:..\..\..\arduinoLCD\test\Pain Drain\libraries\lvgl\src\draw/lv_draw_arc.c ****  *      DEFINES
  14:..\..\..\arduinoLCD\test\Pain Drain\libraries\lvgl\src\draw/lv_draw_arc.c ****  *********************/
  15:..\..\..\arduinoLCD\test\Pain Drain\libraries\lvgl\src\draw/lv_draw_arc.c **** 
  16:..\..\..\arduinoLCD\test\Pain Drain\libraries\lvgl\src\draw/lv_draw_arc.c **** /**********************
  17:..\..\..\arduinoLCD\test\Pain Drain\libraries\lvgl\src\draw/lv_draw_arc.c ****  *      TYPEDEFS
  18:..\..\..\arduinoLCD\test\Pain Drain\libraries\lvgl\src\draw/lv_draw_arc.c ****  **********************/
  19:..\..\..\arduinoLCD\test\Pain Drain\libraries\lvgl\src\draw/lv_draw_arc.c **** 
  20:..\..\..\arduinoLCD\test\Pain Drain\libraries\lvgl\src\draw/lv_draw_arc.c **** /**********************
  21:..\..\..\arduinoLCD\test\Pain Drain\libraries\lvgl\src\draw/lv_draw_arc.c ****  *  STATIC PROTOTYPES
  22:..\..\..\arduinoLCD\test\Pain Drain\libraries\lvgl\src\draw/lv_draw_arc.c ****  **********************/
  23:..\..\..\arduinoLCD\test\Pain Drain\libraries\lvgl\src\draw/lv_draw_arc.c **** 
  24:..\..\..\arduinoLCD\test\Pain Drain\libraries\lvgl\src\draw/lv_draw_arc.c **** /**********************
  25:..\..\..\arduinoLCD\test\Pain Drain\libraries\lvgl\src\draw/lv_draw_arc.c ****  *  STATIC VARIABLES
  26:..\..\..\arduinoLCD\test\Pain Drain\libraries\lvgl\src\draw/lv_draw_arc.c ****  **********************/
  27:..\..\..\arduinoLCD\test\Pain Drain\libraries\lvgl\src\draw/lv_draw_arc.c **** 
  28:..\..\..\arduinoLCD\test\Pain Drain\libraries\lvgl\src\draw/lv_draw_arc.c **** /**********************
  29:..\..\..\arduinoLCD\test\Pain Drain\libraries\lvgl\src\draw/lv_draw_arc.c ****  *      MACROS
ARM GAS  C:\Users\haske\AppData\Local\Temp\cczDymCg.s 			page 2


  30:..\..\..\arduinoLCD\test\Pain Drain\libraries\lvgl\src\draw/lv_draw_arc.c ****  **********************/
  31:..\..\..\arduinoLCD\test\Pain Drain\libraries\lvgl\src\draw/lv_draw_arc.c **** 
  32:..\..\..\arduinoLCD\test\Pain Drain\libraries\lvgl\src\draw/lv_draw_arc.c **** /**********************
  33:..\..\..\arduinoLCD\test\Pain Drain\libraries\lvgl\src\draw/lv_draw_arc.c ****  *   GLOBAL FUNCTIONS
  34:..\..\..\arduinoLCD\test\Pain Drain\libraries\lvgl\src\draw/lv_draw_arc.c ****  **********************/
  35:..\..\..\arduinoLCD\test\Pain Drain\libraries\lvgl\src\draw/lv_draw_arc.c **** 
  36:..\..\..\arduinoLCD\test\Pain Drain\libraries\lvgl\src\draw/lv_draw_arc.c **** void lv_draw_arc_dsc_init(lv_draw_arc_dsc_t * dsc)
  37:..\..\..\arduinoLCD\test\Pain Drain\libraries\lvgl\src\draw/lv_draw_arc.c **** {
  29              		.loc 1 37 0
  30              		.cfi_startproc
  31              		@ args = 0, pretend = 0, frame = 0
  32              		@ frame_needed = 0, uses_anonymous_args = 0
  33              	.LVL0:
  34 0000 10B5     		push	{r4, lr}
  35              		.cfi_def_cfa_offset 8
  36              		.cfi_offset 4, -8
  37              		.cfi_offset 14, -4
  38 0002 0446     		mov	r4, r0
  38:..\..\..\arduinoLCD\test\Pain Drain\libraries\lvgl\src\draw/lv_draw_arc.c ****     lv_memset_00(dsc, sizeof(lv_draw_arc_dsc_t));
  39              		.loc 1 38 0
  40 0004 1021     		movs	r1, #16
  41 0006 FFF7FEFF 		bl	lv_memset_00
  42              	.LVL1:
  39:..\..\..\arduinoLCD\test\Pain Drain\libraries\lvgl\src\draw/lv_draw_arc.c ****     dsc->width = 1;
  43              		.loc 1 39 0
  44 000a 0123     		movs	r3, #1
  45 000c 6380     		strh	r3, [r4, #2]	@ movhi
  40:..\..\..\arduinoLCD\test\Pain Drain\libraries\lvgl\src\draw/lv_draw_arc.c ****     dsc->opa = LV_OPA_COVER;
  46              		.loc 1 40 0
  47 000e FF23     		movs	r3, #255
  48 0010 2373     		strb	r3, [r4, #12]
  49              	.LVL2:
  50              	.LBB8:
  51              	.LBB9:
  52              	.LBB10:
  53              		.file 2 "..\\..\\..\\arduinoLCD\\test\\Pain Drain\\libraries\\lvgl\\src\\draw\\../misc/lv_color.h"
   1:..\..\..\arduinoLCD\test\Pain Drain\libraries\lvgl\src\draw\../misc/lv_color.h **** /**
   2:..\..\..\arduinoLCD\test\Pain Drain\libraries\lvgl\src\draw\../misc/lv_color.h ****  * @file lv_color.h
   3:..\..\..\arduinoLCD\test\Pain Drain\libraries\lvgl\src\draw\../misc/lv_color.h ****  *
   4:..\..\..\arduinoLCD\test\Pain Drain\libraries\lvgl\src\draw\../misc/lv_color.h ****  */
   5:..\..\..\arduinoLCD\test\Pain Drain\libraries\lvgl\src\draw\../misc/lv_color.h **** 
   6:..\..\..\arduinoLCD\test\Pain Drain\libraries\lvgl\src\draw\../misc/lv_color.h **** #ifndef LV_COLOR_H
   7:..\..\..\arduinoLCD\test\Pain Drain\libraries\lvgl\src\draw\../misc/lv_color.h **** #define LV_COLOR_H
   8:..\..\..\arduinoLCD\test\Pain Drain\libraries\lvgl\src\draw\../misc/lv_color.h **** 
   9:..\..\..\arduinoLCD\test\Pain Drain\libraries\lvgl\src\draw\../misc/lv_color.h **** #ifdef __cplusplus
  10:..\..\..\arduinoLCD\test\Pain Drain\libraries\lvgl\src\draw\../misc/lv_color.h **** extern "C" {
  11:..\..\..\arduinoLCD\test\Pain Drain\libraries\lvgl\src\draw\../misc/lv_color.h **** #endif
  12:..\..\..\arduinoLCD\test\Pain Drain\libraries\lvgl\src\draw\../misc/lv_color.h **** 
  13:..\..\..\arduinoLCD\test\Pain Drain\libraries\lvgl\src\draw\../misc/lv_color.h **** /*********************
  14:..\..\..\arduinoLCD\test\Pain Drain\libraries\lvgl\src\draw\../misc/lv_color.h ****  *      INCLUDES
  15:..\..\..\arduinoLCD\test\Pain Drain\libraries\lvgl\src\draw\../misc/lv_color.h ****  *********************/
  16:..\..\..\arduinoLCD\test\Pain Drain\libraries\lvgl\src\draw\../misc/lv_color.h **** #include "../lv_conf_internal.h"
  17:..\..\..\arduinoLCD\test\Pain Drain\libraries\lvgl\src\draw\../misc/lv_color.h **** #include "lv_assert.h"
  18:..\..\..\arduinoLCD\test\Pain Drain\libraries\lvgl\src\draw\../misc/lv_color.h **** #include "lv_math.h"
  19:..\..\..\arduinoLCD\test\Pain Drain\libraries\lvgl\src\draw\../misc/lv_color.h **** #include "lv_types.h"
  20:..\..\..\arduinoLCD\test\Pain Drain\libraries\lvgl\src\draw\../misc/lv_color.h **** 
  21:..\..\..\arduinoLCD\test\Pain Drain\libraries\lvgl\src\draw\../misc/lv_color.h **** /*Error checking*/
ARM GAS  C:\Users\haske\AppData\Local\Temp\cczDymCg.s 			page 3


  22:..\..\..\arduinoLCD\test\Pain Drain\libraries\lvgl\src\draw\../misc/lv_color.h **** #if LV_COLOR_DEPTH == 24
  23:..\..\..\arduinoLCD\test\Pain Drain\libraries\lvgl\src\draw\../misc/lv_color.h **** #error "LV_COLOR_DEPTH 24 is deprecated. Use LV_COLOR_DEPTH 32 instead (lv_conf.h)"
  24:..\..\..\arduinoLCD\test\Pain Drain\libraries\lvgl\src\draw\../misc/lv_color.h **** #endif
  25:..\..\..\arduinoLCD\test\Pain Drain\libraries\lvgl\src\draw\../misc/lv_color.h **** 
  26:..\..\..\arduinoLCD\test\Pain Drain\libraries\lvgl\src\draw\../misc/lv_color.h **** #if LV_COLOR_DEPTH != 16 && LV_COLOR_16_SWAP != 0
  27:..\..\..\arduinoLCD\test\Pain Drain\libraries\lvgl\src\draw\../misc/lv_color.h **** #error "LV_COLOR_16_SWAP requires LV_COLOR_DEPTH == 16. Set it in lv_conf.h"
  28:..\..\..\arduinoLCD\test\Pain Drain\libraries\lvgl\src\draw\../misc/lv_color.h **** #endif
  29:..\..\..\arduinoLCD\test\Pain Drain\libraries\lvgl\src\draw\../misc/lv_color.h **** 
  30:..\..\..\arduinoLCD\test\Pain Drain\libraries\lvgl\src\draw\../misc/lv_color.h **** #include <stdint.h>
  31:..\..\..\arduinoLCD\test\Pain Drain\libraries\lvgl\src\draw\../misc/lv_color.h **** 
  32:..\..\..\arduinoLCD\test\Pain Drain\libraries\lvgl\src\draw\../misc/lv_color.h **** /*********************
  33:..\..\..\arduinoLCD\test\Pain Drain\libraries\lvgl\src\draw\../misc/lv_color.h ****  *      DEFINES
  34:..\..\..\arduinoLCD\test\Pain Drain\libraries\lvgl\src\draw\../misc/lv_color.h ****  *********************/
  35:..\..\..\arduinoLCD\test\Pain Drain\libraries\lvgl\src\draw\../misc/lv_color.h **** LV_EXPORT_CONST_INT(LV_COLOR_DEPTH);
  36:..\..\..\arduinoLCD\test\Pain Drain\libraries\lvgl\src\draw\../misc/lv_color.h **** LV_EXPORT_CONST_INT(LV_COLOR_16_SWAP);
  37:..\..\..\arduinoLCD\test\Pain Drain\libraries\lvgl\src\draw\../misc/lv_color.h **** 
  38:..\..\..\arduinoLCD\test\Pain Drain\libraries\lvgl\src\draw\../misc/lv_color.h **** /**
  39:..\..\..\arduinoLCD\test\Pain Drain\libraries\lvgl\src\draw\../misc/lv_color.h ****  * Opacity percentages.
  40:..\..\..\arduinoLCD\test\Pain Drain\libraries\lvgl\src\draw\../misc/lv_color.h ****  */
  41:..\..\..\arduinoLCD\test\Pain Drain\libraries\lvgl\src\draw\../misc/lv_color.h **** enum {
  42:..\..\..\arduinoLCD\test\Pain Drain\libraries\lvgl\src\draw\../misc/lv_color.h ****     LV_OPA_TRANSP = 0,
  43:..\..\..\arduinoLCD\test\Pain Drain\libraries\lvgl\src\draw\../misc/lv_color.h ****     LV_OPA_0      = 0,
  44:..\..\..\arduinoLCD\test\Pain Drain\libraries\lvgl\src\draw\../misc/lv_color.h ****     LV_OPA_10     = 25,
  45:..\..\..\arduinoLCD\test\Pain Drain\libraries\lvgl\src\draw\../misc/lv_color.h ****     LV_OPA_20     = 51,
  46:..\..\..\arduinoLCD\test\Pain Drain\libraries\lvgl\src\draw\../misc/lv_color.h ****     LV_OPA_30     = 76,
  47:..\..\..\arduinoLCD\test\Pain Drain\libraries\lvgl\src\draw\../misc/lv_color.h ****     LV_OPA_40     = 102,
  48:..\..\..\arduinoLCD\test\Pain Drain\libraries\lvgl\src\draw\../misc/lv_color.h ****     LV_OPA_50     = 127,
  49:..\..\..\arduinoLCD\test\Pain Drain\libraries\lvgl\src\draw\../misc/lv_color.h ****     LV_OPA_60     = 153,
  50:..\..\..\arduinoLCD\test\Pain Drain\libraries\lvgl\src\draw\../misc/lv_color.h ****     LV_OPA_70     = 178,
  51:..\..\..\arduinoLCD\test\Pain Drain\libraries\lvgl\src\draw\../misc/lv_color.h ****     LV_OPA_80     = 204,
  52:..\..\..\arduinoLCD\test\Pain Drain\libraries\lvgl\src\draw\../misc/lv_color.h ****     LV_OPA_90     = 229,
  53:..\..\..\arduinoLCD\test\Pain Drain\libraries\lvgl\src\draw\../misc/lv_color.h ****     LV_OPA_100    = 255,
  54:..\..\..\arduinoLCD\test\Pain Drain\libraries\lvgl\src\draw\../misc/lv_color.h ****     LV_OPA_COVER  = 255,
  55:..\..\..\arduinoLCD\test\Pain Drain\libraries\lvgl\src\draw\../misc/lv_color.h **** };
  56:..\..\..\arduinoLCD\test\Pain Drain\libraries\lvgl\src\draw\../misc/lv_color.h **** 
  57:..\..\..\arduinoLCD\test\Pain Drain\libraries\lvgl\src\draw\../misc/lv_color.h **** #define LV_OPA_MIN 2    /*Opacities below this will be transparent*/
  58:..\..\..\arduinoLCD\test\Pain Drain\libraries\lvgl\src\draw\../misc/lv_color.h **** #define LV_OPA_MAX 253  /*Opacities above this will fully cover*/
  59:..\..\..\arduinoLCD\test\Pain Drain\libraries\lvgl\src\draw\../misc/lv_color.h **** 
  60:..\..\..\arduinoLCD\test\Pain Drain\libraries\lvgl\src\draw\../misc/lv_color.h **** #if LV_COLOR_DEPTH == 1
  61:..\..\..\arduinoLCD\test\Pain Drain\libraries\lvgl\src\draw\../misc/lv_color.h **** #define LV_COLOR_SIZE 8
  62:..\..\..\arduinoLCD\test\Pain Drain\libraries\lvgl\src\draw\../misc/lv_color.h **** #elif LV_COLOR_DEPTH == 8
  63:..\..\..\arduinoLCD\test\Pain Drain\libraries\lvgl\src\draw\../misc/lv_color.h **** #define LV_COLOR_SIZE 8
  64:..\..\..\arduinoLCD\test\Pain Drain\libraries\lvgl\src\draw\../misc/lv_color.h **** #elif LV_COLOR_DEPTH == 16
  65:..\..\..\arduinoLCD\test\Pain Drain\libraries\lvgl\src\draw\../misc/lv_color.h **** #define LV_COLOR_SIZE 16
  66:..\..\..\arduinoLCD\test\Pain Drain\libraries\lvgl\src\draw\../misc/lv_color.h **** #elif LV_COLOR_DEPTH == 32
  67:..\..\..\arduinoLCD\test\Pain Drain\libraries\lvgl\src\draw\../misc/lv_color.h **** #define LV_COLOR_SIZE 32
  68:..\..\..\arduinoLCD\test\Pain Drain\libraries\lvgl\src\draw\../misc/lv_color.h **** #else
  69:..\..\..\arduinoLCD\test\Pain Drain\libraries\lvgl\src\draw\../misc/lv_color.h **** #error "Invalid LV_COLOR_DEPTH in lv_conf.h! Set it to 1, 8, 16 or 32!"
  70:..\..\..\arduinoLCD\test\Pain Drain\libraries\lvgl\src\draw\../misc/lv_color.h **** #endif
  71:..\..\..\arduinoLCD\test\Pain Drain\libraries\lvgl\src\draw\../misc/lv_color.h **** 
  72:..\..\..\arduinoLCD\test\Pain Drain\libraries\lvgl\src\draw\../misc/lv_color.h **** #if defined(__cplusplus) && !defined(_LV_COLOR_HAS_MODERN_CPP)
  73:..\..\..\arduinoLCD\test\Pain Drain\libraries\lvgl\src\draw\../misc/lv_color.h **** /**
  74:..\..\..\arduinoLCD\test\Pain Drain\libraries\lvgl\src\draw\../misc/lv_color.h **** * MSVC compiler's definition of the __cplusplus indicating 199711L regardless to C++ standard versi
  75:..\..\..\arduinoLCD\test\Pain Drain\libraries\lvgl\src\draw\../misc/lv_color.h **** * see https://devblogs.microsoft.com/cppblog/msvc-now-correctly-reports-cplusplus
  76:..\..\..\arduinoLCD\test\Pain Drain\libraries\lvgl\src\draw\../misc/lv_color.h **** * so we use _MSC_VER macro instead of __cplusplus
  77:..\..\..\arduinoLCD\test\Pain Drain\libraries\lvgl\src\draw\../misc/lv_color.h **** */
  78:..\..\..\arduinoLCD\test\Pain Drain\libraries\lvgl\src\draw\../misc/lv_color.h **** #ifdef _MSC_VER
ARM GAS  C:\Users\haske\AppData\Local\Temp\cczDymCg.s 			page 4


  79:..\..\..\arduinoLCD\test\Pain Drain\libraries\lvgl\src\draw\../misc/lv_color.h **** #if _MSC_VER >= 1900 /*Visual Studio 2015*/
  80:..\..\..\arduinoLCD\test\Pain Drain\libraries\lvgl\src\draw\../misc/lv_color.h **** #define _LV_COLOR_HAS_MODERN_CPP 1
  81:..\..\..\arduinoLCD\test\Pain Drain\libraries\lvgl\src\draw\../misc/lv_color.h **** #endif
  82:..\..\..\arduinoLCD\test\Pain Drain\libraries\lvgl\src\draw\../misc/lv_color.h **** #else
  83:..\..\..\arduinoLCD\test\Pain Drain\libraries\lvgl\src\draw\../misc/lv_color.h **** #if __cplusplus >= 201103L
  84:..\..\..\arduinoLCD\test\Pain Drain\libraries\lvgl\src\draw\../misc/lv_color.h **** #define _LV_COLOR_HAS_MODERN_CPP 1
  85:..\..\..\arduinoLCD\test\Pain Drain\libraries\lvgl\src\draw\../misc/lv_color.h **** #endif
  86:..\..\..\arduinoLCD\test\Pain Drain\libraries\lvgl\src\draw\../misc/lv_color.h **** #endif
  87:..\..\..\arduinoLCD\test\Pain Drain\libraries\lvgl\src\draw\../misc/lv_color.h **** #endif /*__cplusplus*/
  88:..\..\..\arduinoLCD\test\Pain Drain\libraries\lvgl\src\draw\../misc/lv_color.h **** 
  89:..\..\..\arduinoLCD\test\Pain Drain\libraries\lvgl\src\draw\../misc/lv_color.h **** #ifndef _LV_COLOR_HAS_MODERN_CPP
  90:..\..\..\arduinoLCD\test\Pain Drain\libraries\lvgl\src\draw\../misc/lv_color.h **** #define _LV_COLOR_HAS_MODERN_CPP 0
  91:..\..\..\arduinoLCD\test\Pain Drain\libraries\lvgl\src\draw\../misc/lv_color.h **** #endif
  92:..\..\..\arduinoLCD\test\Pain Drain\libraries\lvgl\src\draw\../misc/lv_color.h **** 
  93:..\..\..\arduinoLCD\test\Pain Drain\libraries\lvgl\src\draw\../misc/lv_color.h **** #if _LV_COLOR_HAS_MODERN_CPP
  94:..\..\..\arduinoLCD\test\Pain Drain\libraries\lvgl\src\draw\../misc/lv_color.h **** /*Fix msvc compiler error C4576 inside C++ code*/
  95:..\..\..\arduinoLCD\test\Pain Drain\libraries\lvgl\src\draw\../misc/lv_color.h **** #define _LV_COLOR_MAKE_TYPE_HELPER lv_color_t
  96:..\..\..\arduinoLCD\test\Pain Drain\libraries\lvgl\src\draw\../misc/lv_color.h **** #else
  97:..\..\..\arduinoLCD\test\Pain Drain\libraries\lvgl\src\draw\../misc/lv_color.h **** #define _LV_COLOR_MAKE_TYPE_HELPER (lv_color_t)
  98:..\..\..\arduinoLCD\test\Pain Drain\libraries\lvgl\src\draw\../misc/lv_color.h **** #endif
  99:..\..\..\arduinoLCD\test\Pain Drain\libraries\lvgl\src\draw\../misc/lv_color.h **** 
 100:..\..\..\arduinoLCD\test\Pain Drain\libraries\lvgl\src\draw\../misc/lv_color.h **** /*---------------------------------------
 101:..\..\..\arduinoLCD\test\Pain Drain\libraries\lvgl\src\draw\../misc/lv_color.h ****  * Macros for all existing color depths
 102:..\..\..\arduinoLCD\test\Pain Drain\libraries\lvgl\src\draw\../misc/lv_color.h ****  * to set/get values of the color channels
 103:..\..\..\arduinoLCD\test\Pain Drain\libraries\lvgl\src\draw\../misc/lv_color.h ****  *------------------------------------------*/
 104:..\..\..\arduinoLCD\test\Pain Drain\libraries\lvgl\src\draw\../misc/lv_color.h **** # define LV_COLOR_SET_R1(c, v) (c).ch.red = (uint8_t)((v) & 0x1)
 105:..\..\..\arduinoLCD\test\Pain Drain\libraries\lvgl\src\draw\../misc/lv_color.h **** # define LV_COLOR_SET_G1(c, v) (c).ch.green = (uint8_t)((v) & 0x1)
 106:..\..\..\arduinoLCD\test\Pain Drain\libraries\lvgl\src\draw\../misc/lv_color.h **** # define LV_COLOR_SET_B1(c, v) (c).ch.blue = (uint8_t)((v) & 0x1)
 107:..\..\..\arduinoLCD\test\Pain Drain\libraries\lvgl\src\draw\../misc/lv_color.h **** # define LV_COLOR_SET_A1(c, v) do {} while(0)
 108:..\..\..\arduinoLCD\test\Pain Drain\libraries\lvgl\src\draw\../misc/lv_color.h **** 
 109:..\..\..\arduinoLCD\test\Pain Drain\libraries\lvgl\src\draw\../misc/lv_color.h **** # define LV_COLOR_GET_R1(c) (c).ch.red
 110:..\..\..\arduinoLCD\test\Pain Drain\libraries\lvgl\src\draw\../misc/lv_color.h **** # define LV_COLOR_GET_G1(c) (c).ch.green
 111:..\..\..\arduinoLCD\test\Pain Drain\libraries\lvgl\src\draw\../misc/lv_color.h **** # define LV_COLOR_GET_B1(c) (c).ch.blue
 112:..\..\..\arduinoLCD\test\Pain Drain\libraries\lvgl\src\draw\../misc/lv_color.h **** # define LV_COLOR_GET_A1(c) 0xFF
 113:..\..\..\arduinoLCD\test\Pain Drain\libraries\lvgl\src\draw\../misc/lv_color.h **** 
 114:..\..\..\arduinoLCD\test\Pain Drain\libraries\lvgl\src\draw\../misc/lv_color.h **** # define _LV_COLOR_ZERO_INITIALIZER1 {0x00}
 115:..\..\..\arduinoLCD\test\Pain Drain\libraries\lvgl\src\draw\../misc/lv_color.h **** # define LV_COLOR_MAKE1(r8, g8, b8)  {(uint8_t)((b8 >> 7) | (g8 >> 7) | (r8 >> 7))}
 116:..\..\..\arduinoLCD\test\Pain Drain\libraries\lvgl\src\draw\../misc/lv_color.h **** 
 117:..\..\..\arduinoLCD\test\Pain Drain\libraries\lvgl\src\draw\../misc/lv_color.h **** # define LV_COLOR_SET_R8(c, v) (c).ch.red = (uint8_t)((v) & 0x7U)
 118:..\..\..\arduinoLCD\test\Pain Drain\libraries\lvgl\src\draw\../misc/lv_color.h **** # define LV_COLOR_SET_G8(c, v) (c).ch.green = (uint8_t)((v) & 0x7U)
 119:..\..\..\arduinoLCD\test\Pain Drain\libraries\lvgl\src\draw\../misc/lv_color.h **** # define LV_COLOR_SET_B8(c, v) (c).ch.blue = (uint8_t)((v) & 0x3U)
 120:..\..\..\arduinoLCD\test\Pain Drain\libraries\lvgl\src\draw\../misc/lv_color.h **** # define LV_COLOR_SET_A8(c, v) do {} while(0)
 121:..\..\..\arduinoLCD\test\Pain Drain\libraries\lvgl\src\draw\../misc/lv_color.h **** 
 122:..\..\..\arduinoLCD\test\Pain Drain\libraries\lvgl\src\draw\../misc/lv_color.h **** # define LV_COLOR_GET_R8(c) (c).ch.red
 123:..\..\..\arduinoLCD\test\Pain Drain\libraries\lvgl\src\draw\../misc/lv_color.h **** # define LV_COLOR_GET_G8(c) (c).ch.green
 124:..\..\..\arduinoLCD\test\Pain Drain\libraries\lvgl\src\draw\../misc/lv_color.h **** # define LV_COLOR_GET_B8(c) (c).ch.blue
 125:..\..\..\arduinoLCD\test\Pain Drain\libraries\lvgl\src\draw\../misc/lv_color.h **** # define LV_COLOR_GET_A8(c) 0xFF
 126:..\..\..\arduinoLCD\test\Pain Drain\libraries\lvgl\src\draw\../misc/lv_color.h **** 
 127:..\..\..\arduinoLCD\test\Pain Drain\libraries\lvgl\src\draw\../misc/lv_color.h **** # define _LV_COLOR_ZERO_INITIALIZER8 {{0x00, 0x00, 0x00}}
 128:..\..\..\arduinoLCD\test\Pain Drain\libraries\lvgl\src\draw\../misc/lv_color.h **** # define LV_COLOR_MAKE8(r8, g8, b8) {{(uint8_t)((b8 >> 6) & 0x3U), (uint8_t)((g8 >> 5) & 0x7U), (ui
 129:..\..\..\arduinoLCD\test\Pain Drain\libraries\lvgl\src\draw\../misc/lv_color.h **** 
 130:..\..\..\arduinoLCD\test\Pain Drain\libraries\lvgl\src\draw\../misc/lv_color.h **** # define LV_COLOR_SET_R16(c, v) (c).ch.red = (uint8_t)((v) & 0x1FU)
 131:..\..\..\arduinoLCD\test\Pain Drain\libraries\lvgl\src\draw\../misc/lv_color.h **** #if LV_COLOR_16_SWAP == 0
 132:..\..\..\arduinoLCD\test\Pain Drain\libraries\lvgl\src\draw\../misc/lv_color.h **** # define LV_COLOR_SET_G16(c, v) (c).ch.green = (uint8_t)((v) & 0x3FU)
 133:..\..\..\arduinoLCD\test\Pain Drain\libraries\lvgl\src\draw\../misc/lv_color.h **** #else
 134:..\..\..\arduinoLCD\test\Pain Drain\libraries\lvgl\src\draw\../misc/lv_color.h **** # define LV_COLOR_SET_G16(c, v) {(c).ch.green_h = (uint8_t)(((v) >> 3) & 0x7); (c).ch.green_l = (ui
 135:..\..\..\arduinoLCD\test\Pain Drain\libraries\lvgl\src\draw\../misc/lv_color.h **** #endif
ARM GAS  C:\Users\haske\AppData\Local\Temp\cczDymCg.s 			page 5


 136:..\..\..\arduinoLCD\test\Pain Drain\libraries\lvgl\src\draw\../misc/lv_color.h **** # define LV_COLOR_SET_B16(c, v) (c).ch.blue = (uint8_t)((v) & 0x1FU)
 137:..\..\..\arduinoLCD\test\Pain Drain\libraries\lvgl\src\draw\../misc/lv_color.h **** # define LV_COLOR_SET_A16(c, v) do {} while(0)
 138:..\..\..\arduinoLCD\test\Pain Drain\libraries\lvgl\src\draw\../misc/lv_color.h **** 
 139:..\..\..\arduinoLCD\test\Pain Drain\libraries\lvgl\src\draw\../misc/lv_color.h **** # define LV_COLOR_GET_R16(c) (c).ch.red
 140:..\..\..\arduinoLCD\test\Pain Drain\libraries\lvgl\src\draw\../misc/lv_color.h **** #if LV_COLOR_16_SWAP == 0
 141:..\..\..\arduinoLCD\test\Pain Drain\libraries\lvgl\src\draw\../misc/lv_color.h **** # define LV_COLOR_GET_G16(c) (c).ch.green
 142:..\..\..\arduinoLCD\test\Pain Drain\libraries\lvgl\src\draw\../misc/lv_color.h **** #else
 143:..\..\..\arduinoLCD\test\Pain Drain\libraries\lvgl\src\draw\../misc/lv_color.h **** # define LV_COLOR_GET_G16(c) (((c).ch.green_h << 3) + (c).ch.green_l)
 144:..\..\..\arduinoLCD\test\Pain Drain\libraries\lvgl\src\draw\../misc/lv_color.h **** #endif
 145:..\..\..\arduinoLCD\test\Pain Drain\libraries\lvgl\src\draw\../misc/lv_color.h **** # define LV_COLOR_GET_B16(c) (c).ch.blue
 146:..\..\..\arduinoLCD\test\Pain Drain\libraries\lvgl\src\draw\../misc/lv_color.h **** # define LV_COLOR_GET_A16(c) 0xFF
 147:..\..\..\arduinoLCD\test\Pain Drain\libraries\lvgl\src\draw\../misc/lv_color.h **** 
 148:..\..\..\arduinoLCD\test\Pain Drain\libraries\lvgl\src\draw\../misc/lv_color.h **** #if LV_COLOR_16_SWAP == 0
 149:..\..\..\arduinoLCD\test\Pain Drain\libraries\lvgl\src\draw\../misc/lv_color.h **** # define _LV_COLOR_ZERO_INITIALIZER16  {{0x00, 0x00, 0x00}}
 150:..\..\..\arduinoLCD\test\Pain Drain\libraries\lvgl\src\draw\../misc/lv_color.h **** # define LV_COLOR_MAKE16(r8, g8, b8) {{(uint8_t)((b8 >> 3) & 0x1FU), (uint8_t)((g8 >> 2) & 0x3FU), 
 151:..\..\..\arduinoLCD\test\Pain Drain\libraries\lvgl\src\draw\../misc/lv_color.h **** #else
 152:..\..\..\arduinoLCD\test\Pain Drain\libraries\lvgl\src\draw\../misc/lv_color.h **** # define _LV_COLOR_ZERO_INITIALIZER16 {{0x00, 0x00, 0x00, 0x00}}
 153:..\..\..\arduinoLCD\test\Pain Drain\libraries\lvgl\src\draw\../misc/lv_color.h **** # define LV_COLOR_MAKE16(r8, g8, b8) {{(uint8_t)((g8 >> 5) & 0x7U), (uint8_t)((r8 >> 3) & 0x1FU), (
 154:..\..\..\arduinoLCD\test\Pain Drain\libraries\lvgl\src\draw\../misc/lv_color.h **** #endif
 155:..\..\..\arduinoLCD\test\Pain Drain\libraries\lvgl\src\draw\../misc/lv_color.h **** 
 156:..\..\..\arduinoLCD\test\Pain Drain\libraries\lvgl\src\draw\../misc/lv_color.h **** # define LV_COLOR_SET_R32(c, v) (c).ch.red = (uint8_t)((v) & 0xFF)
 157:..\..\..\arduinoLCD\test\Pain Drain\libraries\lvgl\src\draw\../misc/lv_color.h **** # define LV_COLOR_SET_G32(c, v) (c).ch.green = (uint8_t)((v) & 0xFF)
 158:..\..\..\arduinoLCD\test\Pain Drain\libraries\lvgl\src\draw\../misc/lv_color.h **** # define LV_COLOR_SET_B32(c, v) (c).ch.blue = (uint8_t)((v) & 0xFF)
 159:..\..\..\arduinoLCD\test\Pain Drain\libraries\lvgl\src\draw\../misc/lv_color.h **** # define LV_COLOR_SET_A32(c, v) (c).ch.alpha = (uint8_t)((v) & 0xFF)
 160:..\..\..\arduinoLCD\test\Pain Drain\libraries\lvgl\src\draw\../misc/lv_color.h **** 
 161:..\..\..\arduinoLCD\test\Pain Drain\libraries\lvgl\src\draw\../misc/lv_color.h **** # define LV_COLOR_GET_R32(c) (c).ch.red
 162:..\..\..\arduinoLCD\test\Pain Drain\libraries\lvgl\src\draw\../misc/lv_color.h **** # define LV_COLOR_GET_G32(c) (c).ch.green
 163:..\..\..\arduinoLCD\test\Pain Drain\libraries\lvgl\src\draw\../misc/lv_color.h **** # define LV_COLOR_GET_B32(c) (c).ch.blue
 164:..\..\..\arduinoLCD\test\Pain Drain\libraries\lvgl\src\draw\../misc/lv_color.h **** # define LV_COLOR_GET_A32(c) (c).ch.alpha
 165:..\..\..\arduinoLCD\test\Pain Drain\libraries\lvgl\src\draw\../misc/lv_color.h **** 
 166:..\..\..\arduinoLCD\test\Pain Drain\libraries\lvgl\src\draw\../misc/lv_color.h **** # define _LV_COLOR_ZERO_INITIALIZER32  {{0x00, 0x00, 0x00, 0x00}}
 167:..\..\..\arduinoLCD\test\Pain Drain\libraries\lvgl\src\draw\../misc/lv_color.h **** # define LV_COLOR_MAKE32(r8, g8, b8) {{b8, g8, r8, 0xff}} /*Fix 0xff alpha*/
 168:..\..\..\arduinoLCD\test\Pain Drain\libraries\lvgl\src\draw\../misc/lv_color.h **** 
 169:..\..\..\arduinoLCD\test\Pain Drain\libraries\lvgl\src\draw\../misc/lv_color.h **** /*---------------------------------------
 170:..\..\..\arduinoLCD\test\Pain Drain\libraries\lvgl\src\draw\../misc/lv_color.h ****  * Macros for the current color depth
 171:..\..\..\arduinoLCD\test\Pain Drain\libraries\lvgl\src\draw\../misc/lv_color.h ****  * to set/get values of the color channels
 172:..\..\..\arduinoLCD\test\Pain Drain\libraries\lvgl\src\draw\../misc/lv_color.h ****  *------------------------------------------*/
 173:..\..\..\arduinoLCD\test\Pain Drain\libraries\lvgl\src\draw\../misc/lv_color.h **** #define LV_COLOR_SET_R(c, v) LV_CONCAT(LV_COLOR_SET_R, LV_COLOR_DEPTH)(c, v)
 174:..\..\..\arduinoLCD\test\Pain Drain\libraries\lvgl\src\draw\../misc/lv_color.h **** #define LV_COLOR_SET_G(c, v) LV_CONCAT(LV_COLOR_SET_G, LV_COLOR_DEPTH)(c, v)
 175:..\..\..\arduinoLCD\test\Pain Drain\libraries\lvgl\src\draw\../misc/lv_color.h **** #define LV_COLOR_SET_B(c, v) LV_CONCAT(LV_COLOR_SET_B, LV_COLOR_DEPTH)(c, v)
 176:..\..\..\arduinoLCD\test\Pain Drain\libraries\lvgl\src\draw\../misc/lv_color.h **** #define LV_COLOR_SET_A(c, v) LV_CONCAT(LV_COLOR_SET_A, LV_COLOR_DEPTH)(c, v)
 177:..\..\..\arduinoLCD\test\Pain Drain\libraries\lvgl\src\draw\../misc/lv_color.h **** 
 178:..\..\..\arduinoLCD\test\Pain Drain\libraries\lvgl\src\draw\../misc/lv_color.h **** #define LV_COLOR_GET_R(c) LV_CONCAT(LV_COLOR_GET_R, LV_COLOR_DEPTH)(c)
 179:..\..\..\arduinoLCD\test\Pain Drain\libraries\lvgl\src\draw\../misc/lv_color.h **** #define LV_COLOR_GET_G(c) LV_CONCAT(LV_COLOR_GET_G, LV_COLOR_DEPTH)(c)
 180:..\..\..\arduinoLCD\test\Pain Drain\libraries\lvgl\src\draw\../misc/lv_color.h **** #define LV_COLOR_GET_B(c) LV_CONCAT(LV_COLOR_GET_B, LV_COLOR_DEPTH)(c)
 181:..\..\..\arduinoLCD\test\Pain Drain\libraries\lvgl\src\draw\../misc/lv_color.h **** #define LV_COLOR_GET_A(c) LV_CONCAT(LV_COLOR_GET_A, LV_COLOR_DEPTH)(c)
 182:..\..\..\arduinoLCD\test\Pain Drain\libraries\lvgl\src\draw\../misc/lv_color.h **** 
 183:..\..\..\arduinoLCD\test\Pain Drain\libraries\lvgl\src\draw\../misc/lv_color.h **** #define _LV_COLOR_ZERO_INITIALIZER LV_CONCAT(_LV_COLOR_ZERO_INITIALIZER, LV_COLOR_DEPTH)
 184:..\..\..\arduinoLCD\test\Pain Drain\libraries\lvgl\src\draw\../misc/lv_color.h **** #define LV_COLOR_MAKE(r8, g8, b8) LV_CONCAT(LV_COLOR_MAKE, LV_COLOR_DEPTH)(r8, g8, b8)
 185:..\..\..\arduinoLCD\test\Pain Drain\libraries\lvgl\src\draw\../misc/lv_color.h **** 
 186:..\..\..\arduinoLCD\test\Pain Drain\libraries\lvgl\src\draw\../misc/lv_color.h **** /**********************
 187:..\..\..\arduinoLCD\test\Pain Drain\libraries\lvgl\src\draw\../misc/lv_color.h ****  *      TYPEDEFS
 188:..\..\..\arduinoLCD\test\Pain Drain\libraries\lvgl\src\draw\../misc/lv_color.h ****  **********************/
 189:..\..\..\arduinoLCD\test\Pain Drain\libraries\lvgl\src\draw\../misc/lv_color.h **** 
 190:..\..\..\arduinoLCD\test\Pain Drain\libraries\lvgl\src\draw\../misc/lv_color.h **** typedef union {
 191:..\..\..\arduinoLCD\test\Pain Drain\libraries\lvgl\src\draw\../misc/lv_color.h ****     uint8_t full; /*must be declared first to set all bits of byte via initializer list*/
 192:..\..\..\arduinoLCD\test\Pain Drain\libraries\lvgl\src\draw\../misc/lv_color.h ****     union {
ARM GAS  C:\Users\haske\AppData\Local\Temp\cczDymCg.s 			page 6


 193:..\..\..\arduinoLCD\test\Pain Drain\libraries\lvgl\src\draw\../misc/lv_color.h ****         uint8_t blue : 1;
 194:..\..\..\arduinoLCD\test\Pain Drain\libraries\lvgl\src\draw\../misc/lv_color.h ****         uint8_t green : 1;
 195:..\..\..\arduinoLCD\test\Pain Drain\libraries\lvgl\src\draw\../misc/lv_color.h ****         uint8_t red : 1;
 196:..\..\..\arduinoLCD\test\Pain Drain\libraries\lvgl\src\draw\../misc/lv_color.h ****     } ch;
 197:..\..\..\arduinoLCD\test\Pain Drain\libraries\lvgl\src\draw\../misc/lv_color.h **** } lv_color1_t;
 198:..\..\..\arduinoLCD\test\Pain Drain\libraries\lvgl\src\draw\../misc/lv_color.h **** 
 199:..\..\..\arduinoLCD\test\Pain Drain\libraries\lvgl\src\draw\../misc/lv_color.h **** typedef union {
 200:..\..\..\arduinoLCD\test\Pain Drain\libraries\lvgl\src\draw\../misc/lv_color.h ****     struct {
 201:..\..\..\arduinoLCD\test\Pain Drain\libraries\lvgl\src\draw\../misc/lv_color.h ****         uint8_t blue : 2;
 202:..\..\..\arduinoLCD\test\Pain Drain\libraries\lvgl\src\draw\../misc/lv_color.h ****         uint8_t green : 3;
 203:..\..\..\arduinoLCD\test\Pain Drain\libraries\lvgl\src\draw\../misc/lv_color.h ****         uint8_t red : 3;
 204:..\..\..\arduinoLCD\test\Pain Drain\libraries\lvgl\src\draw\../misc/lv_color.h ****     } ch;
 205:..\..\..\arduinoLCD\test\Pain Drain\libraries\lvgl\src\draw\../misc/lv_color.h ****     uint8_t full;
 206:..\..\..\arduinoLCD\test\Pain Drain\libraries\lvgl\src\draw\../misc/lv_color.h **** } lv_color8_t;
 207:..\..\..\arduinoLCD\test\Pain Drain\libraries\lvgl\src\draw\../misc/lv_color.h **** 
 208:..\..\..\arduinoLCD\test\Pain Drain\libraries\lvgl\src\draw\../misc/lv_color.h **** typedef union {
 209:..\..\..\arduinoLCD\test\Pain Drain\libraries\lvgl\src\draw\../misc/lv_color.h ****     struct {
 210:..\..\..\arduinoLCD\test\Pain Drain\libraries\lvgl\src\draw\../misc/lv_color.h **** #if LV_COLOR_16_SWAP == 0
 211:..\..\..\arduinoLCD\test\Pain Drain\libraries\lvgl\src\draw\../misc/lv_color.h ****         uint16_t blue : 5;
 212:..\..\..\arduinoLCD\test\Pain Drain\libraries\lvgl\src\draw\../misc/lv_color.h ****         uint16_t green : 6;
 213:..\..\..\arduinoLCD\test\Pain Drain\libraries\lvgl\src\draw\../misc/lv_color.h ****         uint16_t red : 5;
 214:..\..\..\arduinoLCD\test\Pain Drain\libraries\lvgl\src\draw\../misc/lv_color.h **** #else
 215:..\..\..\arduinoLCD\test\Pain Drain\libraries\lvgl\src\draw\../misc/lv_color.h ****         uint16_t green_h : 3;
 216:..\..\..\arduinoLCD\test\Pain Drain\libraries\lvgl\src\draw\../misc/lv_color.h ****         uint16_t red : 5;
 217:..\..\..\arduinoLCD\test\Pain Drain\libraries\lvgl\src\draw\../misc/lv_color.h ****         uint16_t blue : 5;
 218:..\..\..\arduinoLCD\test\Pain Drain\libraries\lvgl\src\draw\../misc/lv_color.h ****         uint16_t green_l : 3;
 219:..\..\..\arduinoLCD\test\Pain Drain\libraries\lvgl\src\draw\../misc/lv_color.h **** #endif
 220:..\..\..\arduinoLCD\test\Pain Drain\libraries\lvgl\src\draw\../misc/lv_color.h ****     } ch;
 221:..\..\..\arduinoLCD\test\Pain Drain\libraries\lvgl\src\draw\../misc/lv_color.h ****     uint16_t full;
 222:..\..\..\arduinoLCD\test\Pain Drain\libraries\lvgl\src\draw\../misc/lv_color.h **** } lv_color16_t;
 223:..\..\..\arduinoLCD\test\Pain Drain\libraries\lvgl\src\draw\../misc/lv_color.h **** 
 224:..\..\..\arduinoLCD\test\Pain Drain\libraries\lvgl\src\draw\../misc/lv_color.h **** typedef union {
 225:..\..\..\arduinoLCD\test\Pain Drain\libraries\lvgl\src\draw\../misc/lv_color.h ****     struct {
 226:..\..\..\arduinoLCD\test\Pain Drain\libraries\lvgl\src\draw\../misc/lv_color.h ****         uint8_t blue;
 227:..\..\..\arduinoLCD\test\Pain Drain\libraries\lvgl\src\draw\../misc/lv_color.h ****         uint8_t green;
 228:..\..\..\arduinoLCD\test\Pain Drain\libraries\lvgl\src\draw\../misc/lv_color.h ****         uint8_t red;
 229:..\..\..\arduinoLCD\test\Pain Drain\libraries\lvgl\src\draw\../misc/lv_color.h ****         uint8_t alpha;
 230:..\..\..\arduinoLCD\test\Pain Drain\libraries\lvgl\src\draw\../misc/lv_color.h ****     } ch;
 231:..\..\..\arduinoLCD\test\Pain Drain\libraries\lvgl\src\draw\../misc/lv_color.h ****     uint32_t full;
 232:..\..\..\arduinoLCD\test\Pain Drain\libraries\lvgl\src\draw\../misc/lv_color.h **** } lv_color32_t;
 233:..\..\..\arduinoLCD\test\Pain Drain\libraries\lvgl\src\draw\../misc/lv_color.h **** 
 234:..\..\..\arduinoLCD\test\Pain Drain\libraries\lvgl\src\draw\../misc/lv_color.h **** typedef LV_CONCAT3(uint, LV_COLOR_SIZE, _t) lv_color_int_t;
 235:..\..\..\arduinoLCD\test\Pain Drain\libraries\lvgl\src\draw\../misc/lv_color.h **** typedef LV_CONCAT3(lv_color, LV_COLOR_DEPTH, _t) lv_color_t;
 236:..\..\..\arduinoLCD\test\Pain Drain\libraries\lvgl\src\draw\../misc/lv_color.h **** 
 237:..\..\..\arduinoLCD\test\Pain Drain\libraries\lvgl\src\draw\../misc/lv_color.h **** typedef struct {
 238:..\..\..\arduinoLCD\test\Pain Drain\libraries\lvgl\src\draw\../misc/lv_color.h ****     uint16_t h;
 239:..\..\..\arduinoLCD\test\Pain Drain\libraries\lvgl\src\draw\../misc/lv_color.h ****     uint8_t s;
 240:..\..\..\arduinoLCD\test\Pain Drain\libraries\lvgl\src\draw\../misc/lv_color.h ****     uint8_t v;
 241:..\..\..\arduinoLCD\test\Pain Drain\libraries\lvgl\src\draw\../misc/lv_color.h **** } lv_color_hsv_t;
 242:..\..\..\arduinoLCD\test\Pain Drain\libraries\lvgl\src\draw\../misc/lv_color.h **** 
 243:..\..\..\arduinoLCD\test\Pain Drain\libraries\lvgl\src\draw\../misc/lv_color.h **** //! @cond Doxygen_Suppress
 244:..\..\..\arduinoLCD\test\Pain Drain\libraries\lvgl\src\draw\../misc/lv_color.h **** /*No idea where the guard is required but else throws warnings in the docs*/
 245:..\..\..\arduinoLCD\test\Pain Drain\libraries\lvgl\src\draw\../misc/lv_color.h **** typedef uint8_t lv_opa_t;
 246:..\..\..\arduinoLCD\test\Pain Drain\libraries\lvgl\src\draw\../misc/lv_color.h **** //! @endcond
 247:..\..\..\arduinoLCD\test\Pain Drain\libraries\lvgl\src\draw\../misc/lv_color.h **** 
 248:..\..\..\arduinoLCD\test\Pain Drain\libraries\lvgl\src\draw\../misc/lv_color.h **** struct _lv_color_filter_dsc_t;
 249:..\..\..\arduinoLCD\test\Pain Drain\libraries\lvgl\src\draw\../misc/lv_color.h **** 
ARM GAS  C:\Users\haske\AppData\Local\Temp\cczDymCg.s 			page 7


 250:..\..\..\arduinoLCD\test\Pain Drain\libraries\lvgl\src\draw\../misc/lv_color.h **** typedef lv_color_t (*lv_color_filter_cb_t)(const struct _lv_color_filter_dsc_t *, lv_color_t, lv_op
 251:..\..\..\arduinoLCD\test\Pain Drain\libraries\lvgl\src\draw\../misc/lv_color.h **** 
 252:..\..\..\arduinoLCD\test\Pain Drain\libraries\lvgl\src\draw\../misc/lv_color.h **** typedef struct _lv_color_filter_dsc_t {
 253:..\..\..\arduinoLCD\test\Pain Drain\libraries\lvgl\src\draw\../misc/lv_color.h ****     lv_color_filter_cb_t filter_cb;
 254:..\..\..\arduinoLCD\test\Pain Drain\libraries\lvgl\src\draw\../misc/lv_color.h ****     void * user_data;
 255:..\..\..\arduinoLCD\test\Pain Drain\libraries\lvgl\src\draw\../misc/lv_color.h **** } lv_color_filter_dsc_t;
 256:..\..\..\arduinoLCD\test\Pain Drain\libraries\lvgl\src\draw\../misc/lv_color.h **** 
 257:..\..\..\arduinoLCD\test\Pain Drain\libraries\lvgl\src\draw\../misc/lv_color.h **** 
 258:..\..\..\arduinoLCD\test\Pain Drain\libraries\lvgl\src\draw\../misc/lv_color.h **** typedef enum {
 259:..\..\..\arduinoLCD\test\Pain Drain\libraries\lvgl\src\draw\../misc/lv_color.h ****     LV_PALETTE_RED,
 260:..\..\..\arduinoLCD\test\Pain Drain\libraries\lvgl\src\draw\../misc/lv_color.h ****     LV_PALETTE_PINK,
 261:..\..\..\arduinoLCD\test\Pain Drain\libraries\lvgl\src\draw\../misc/lv_color.h ****     LV_PALETTE_PURPLE,
 262:..\..\..\arduinoLCD\test\Pain Drain\libraries\lvgl\src\draw\../misc/lv_color.h ****     LV_PALETTE_DEEP_PURPLE,
 263:..\..\..\arduinoLCD\test\Pain Drain\libraries\lvgl\src\draw\../misc/lv_color.h ****     LV_PALETTE_INDIGO,
 264:..\..\..\arduinoLCD\test\Pain Drain\libraries\lvgl\src\draw\../misc/lv_color.h ****     LV_PALETTE_BLUE,
 265:..\..\..\arduinoLCD\test\Pain Drain\libraries\lvgl\src\draw\../misc/lv_color.h ****     LV_PALETTE_LIGHT_BLUE,
 266:..\..\..\arduinoLCD\test\Pain Drain\libraries\lvgl\src\draw\../misc/lv_color.h ****     LV_PALETTE_CYAN,
 267:..\..\..\arduinoLCD\test\Pain Drain\libraries\lvgl\src\draw\../misc/lv_color.h ****     LV_PALETTE_TEAL,
 268:..\..\..\arduinoLCD\test\Pain Drain\libraries\lvgl\src\draw\../misc/lv_color.h ****     LV_PALETTE_GREEN,
 269:..\..\..\arduinoLCD\test\Pain Drain\libraries\lvgl\src\draw\../misc/lv_color.h ****     LV_PALETTE_LIGHT_GREEN,
 270:..\..\..\arduinoLCD\test\Pain Drain\libraries\lvgl\src\draw\../misc/lv_color.h ****     LV_PALETTE_LIME,
 271:..\..\..\arduinoLCD\test\Pain Drain\libraries\lvgl\src\draw\../misc/lv_color.h ****     LV_PALETTE_YELLOW,
 272:..\..\..\arduinoLCD\test\Pain Drain\libraries\lvgl\src\draw\../misc/lv_color.h ****     LV_PALETTE_AMBER,
 273:..\..\..\arduinoLCD\test\Pain Drain\libraries\lvgl\src\draw\../misc/lv_color.h ****     LV_PALETTE_ORANGE,
 274:..\..\..\arduinoLCD\test\Pain Drain\libraries\lvgl\src\draw\../misc/lv_color.h ****     LV_PALETTE_DEEP_ORANGE,
 275:..\..\..\arduinoLCD\test\Pain Drain\libraries\lvgl\src\draw\../misc/lv_color.h ****     LV_PALETTE_BROWN,
 276:..\..\..\arduinoLCD\test\Pain Drain\libraries\lvgl\src\draw\../misc/lv_color.h ****     LV_PALETTE_BLUE_GREY,
 277:..\..\..\arduinoLCD\test\Pain Drain\libraries\lvgl\src\draw\../misc/lv_color.h ****     LV_PALETTE_GREY,
 278:..\..\..\arduinoLCD\test\Pain Drain\libraries\lvgl\src\draw\../misc/lv_color.h ****     _LV_PALETTE_LAST,
 279:..\..\..\arduinoLCD\test\Pain Drain\libraries\lvgl\src\draw\../misc/lv_color.h ****     LV_PALETTE_NONE = 0xff,
 280:..\..\..\arduinoLCD\test\Pain Drain\libraries\lvgl\src\draw\../misc/lv_color.h **** } lv_palette_t;
 281:..\..\..\arduinoLCD\test\Pain Drain\libraries\lvgl\src\draw\../misc/lv_color.h **** 
 282:..\..\..\arduinoLCD\test\Pain Drain\libraries\lvgl\src\draw\../misc/lv_color.h **** /**********************
 283:..\..\..\arduinoLCD\test\Pain Drain\libraries\lvgl\src\draw\../misc/lv_color.h ****  * GLOBAL PROTOTYPES
 284:..\..\..\arduinoLCD\test\Pain Drain\libraries\lvgl\src\draw\../misc/lv_color.h ****  **********************/
 285:..\..\..\arduinoLCD\test\Pain Drain\libraries\lvgl\src\draw\../misc/lv_color.h **** 
 286:..\..\..\arduinoLCD\test\Pain Drain\libraries\lvgl\src\draw\../misc/lv_color.h **** /*In color conversations:
 287:..\..\..\arduinoLCD\test\Pain Drain\libraries\lvgl\src\draw\../misc/lv_color.h ****  * - When converting to bigger color type the LSB weight of 1 LSB is calculated
 288:..\..\..\arduinoLCD\test\Pain Drain\libraries\lvgl\src\draw\../misc/lv_color.h ****  *   E.g. 16 bit Red has 5 bits
 289:..\..\..\arduinoLCD\test\Pain Drain\libraries\lvgl\src\draw\../misc/lv_color.h ****  *         8 bit Red has 3 bits
 290:..\..\..\arduinoLCD\test\Pain Drain\libraries\lvgl\src\draw\../misc/lv_color.h ****  *        ----------------------
 291:..\..\..\arduinoLCD\test\Pain Drain\libraries\lvgl\src\draw\../misc/lv_color.h ****  *        8 bit red LSB = (2^5 - 1) / (2^3 - 1) = 31 / 7 = 4
 292:..\..\..\arduinoLCD\test\Pain Drain\libraries\lvgl\src\draw\../misc/lv_color.h ****  *
 293:..\..\..\arduinoLCD\test\Pain Drain\libraries\lvgl\src\draw\../misc/lv_color.h ****  * - When calculating to smaller color type simply shift out the LSBs
 294:..\..\..\arduinoLCD\test\Pain Drain\libraries\lvgl\src\draw\../misc/lv_color.h ****  *   E.g.  8 bit Red has 3 bits
 295:..\..\..\arduinoLCD\test\Pain Drain\libraries\lvgl\src\draw\../misc/lv_color.h ****  *        16 bit Red has 5 bits
 296:..\..\..\arduinoLCD\test\Pain Drain\libraries\lvgl\src\draw\../misc/lv_color.h ****  *        ----------------------
 297:..\..\..\arduinoLCD\test\Pain Drain\libraries\lvgl\src\draw\../misc/lv_color.h ****  *         Shift right with 5 - 3 = 2
 298:..\..\..\arduinoLCD\test\Pain Drain\libraries\lvgl\src\draw\../misc/lv_color.h ****  */
 299:..\..\..\arduinoLCD\test\Pain Drain\libraries\lvgl\src\draw\../misc/lv_color.h **** static inline uint8_t lv_color_to1(lv_color_t color)
 300:..\..\..\arduinoLCD\test\Pain Drain\libraries\lvgl\src\draw\../misc/lv_color.h **** {
 301:..\..\..\arduinoLCD\test\Pain Drain\libraries\lvgl\src\draw\../misc/lv_color.h **** #if LV_COLOR_DEPTH == 1
 302:..\..\..\arduinoLCD\test\Pain Drain\libraries\lvgl\src\draw\../misc/lv_color.h ****     return color.full;
 303:..\..\..\arduinoLCD\test\Pain Drain\libraries\lvgl\src\draw\../misc/lv_color.h **** #elif LV_COLOR_DEPTH == 8
 304:..\..\..\arduinoLCD\test\Pain Drain\libraries\lvgl\src\draw\../misc/lv_color.h ****     if((LV_COLOR_GET_R(color) & 0x4) || (LV_COLOR_GET_G(color) & 0x4) || (LV_COLOR_GET_B(color) & 0
 305:..\..\..\arduinoLCD\test\Pain Drain\libraries\lvgl\src\draw\../misc/lv_color.h ****         return 1;
 306:..\..\..\arduinoLCD\test\Pain Drain\libraries\lvgl\src\draw\../misc/lv_color.h ****     }
ARM GAS  C:\Users\haske\AppData\Local\Temp\cczDymCg.s 			page 8


 307:..\..\..\arduinoLCD\test\Pain Drain\libraries\lvgl\src\draw\../misc/lv_color.h ****     else {
 308:..\..\..\arduinoLCD\test\Pain Drain\libraries\lvgl\src\draw\../misc/lv_color.h ****         return 0;
 309:..\..\..\arduinoLCD\test\Pain Drain\libraries\lvgl\src\draw\../misc/lv_color.h ****     }
 310:..\..\..\arduinoLCD\test\Pain Drain\libraries\lvgl\src\draw\../misc/lv_color.h **** #elif LV_COLOR_DEPTH == 16
 311:..\..\..\arduinoLCD\test\Pain Drain\libraries\lvgl\src\draw\../misc/lv_color.h ****     if((LV_COLOR_GET_R(color) & 0x10) || (LV_COLOR_GET_G(color) & 0x20) || (LV_COLOR_GET_B(color) &
 312:..\..\..\arduinoLCD\test\Pain Drain\libraries\lvgl\src\draw\../misc/lv_color.h ****         return 1;
 313:..\..\..\arduinoLCD\test\Pain Drain\libraries\lvgl\src\draw\../misc/lv_color.h ****     }
 314:..\..\..\arduinoLCD\test\Pain Drain\libraries\lvgl\src\draw\../misc/lv_color.h ****     else {
 315:..\..\..\arduinoLCD\test\Pain Drain\libraries\lvgl\src\draw\../misc/lv_color.h ****         return 0;
 316:..\..\..\arduinoLCD\test\Pain Drain\libraries\lvgl\src\draw\../misc/lv_color.h ****     }
 317:..\..\..\arduinoLCD\test\Pain Drain\libraries\lvgl\src\draw\../misc/lv_color.h **** #elif LV_COLOR_DEPTH == 32
 318:..\..\..\arduinoLCD\test\Pain Drain\libraries\lvgl\src\draw\../misc/lv_color.h ****     if((LV_COLOR_GET_R(color) & 0x80) || (LV_COLOR_GET_G(color) & 0x80) || (LV_COLOR_GET_B(color) &
 319:..\..\..\arduinoLCD\test\Pain Drain\libraries\lvgl\src\draw\../misc/lv_color.h ****         return 1;
 320:..\..\..\arduinoLCD\test\Pain Drain\libraries\lvgl\src\draw\../misc/lv_color.h ****     }
 321:..\..\..\arduinoLCD\test\Pain Drain\libraries\lvgl\src\draw\../misc/lv_color.h ****     else {
 322:..\..\..\arduinoLCD\test\Pain Drain\libraries\lvgl\src\draw\../misc/lv_color.h ****         return 0;
 323:..\..\..\arduinoLCD\test\Pain Drain\libraries\lvgl\src\draw\../misc/lv_color.h ****     }
 324:..\..\..\arduinoLCD\test\Pain Drain\libraries\lvgl\src\draw\../misc/lv_color.h **** #endif
 325:..\..\..\arduinoLCD\test\Pain Drain\libraries\lvgl\src\draw\../misc/lv_color.h **** }
 326:..\..\..\arduinoLCD\test\Pain Drain\libraries\lvgl\src\draw\../misc/lv_color.h **** 
 327:..\..\..\arduinoLCD\test\Pain Drain\libraries\lvgl\src\draw\../misc/lv_color.h **** static inline uint8_t lv_color_to8(lv_color_t color)
 328:..\..\..\arduinoLCD\test\Pain Drain\libraries\lvgl\src\draw\../misc/lv_color.h **** {
 329:..\..\..\arduinoLCD\test\Pain Drain\libraries\lvgl\src\draw\../misc/lv_color.h **** #if LV_COLOR_DEPTH == 1
 330:..\..\..\arduinoLCD\test\Pain Drain\libraries\lvgl\src\draw\../misc/lv_color.h ****     if(color.full == 0)
 331:..\..\..\arduinoLCD\test\Pain Drain\libraries\lvgl\src\draw\../misc/lv_color.h ****         return 0;
 332:..\..\..\arduinoLCD\test\Pain Drain\libraries\lvgl\src\draw\../misc/lv_color.h ****     else
 333:..\..\..\arduinoLCD\test\Pain Drain\libraries\lvgl\src\draw\../misc/lv_color.h ****         return 0xFF;
 334:..\..\..\arduinoLCD\test\Pain Drain\libraries\lvgl\src\draw\../misc/lv_color.h **** #elif LV_COLOR_DEPTH == 8
 335:..\..\..\arduinoLCD\test\Pain Drain\libraries\lvgl\src\draw\../misc/lv_color.h ****     return color.full;
 336:..\..\..\arduinoLCD\test\Pain Drain\libraries\lvgl\src\draw\../misc/lv_color.h **** #elif LV_COLOR_DEPTH == 16
 337:..\..\..\arduinoLCD\test\Pain Drain\libraries\lvgl\src\draw\../misc/lv_color.h ****     lv_color8_t ret;
 338:..\..\..\arduinoLCD\test\Pain Drain\libraries\lvgl\src\draw\../misc/lv_color.h ****     LV_COLOR_SET_R8(ret, LV_COLOR_GET_R(color) >> 2); /*5 - 3  = 2*/
 339:..\..\..\arduinoLCD\test\Pain Drain\libraries\lvgl\src\draw\../misc/lv_color.h ****     LV_COLOR_SET_G8(ret, LV_COLOR_GET_G(color) >> 3); /*6 - 3  = 3*/
 340:..\..\..\arduinoLCD\test\Pain Drain\libraries\lvgl\src\draw\../misc/lv_color.h ****     LV_COLOR_SET_B8(ret, LV_COLOR_GET_B(color) >> 3); /*5 - 2  = 3*/
 341:..\..\..\arduinoLCD\test\Pain Drain\libraries\lvgl\src\draw\../misc/lv_color.h ****     return ret.full;
 342:..\..\..\arduinoLCD\test\Pain Drain\libraries\lvgl\src\draw\../misc/lv_color.h **** #elif LV_COLOR_DEPTH == 32
 343:..\..\..\arduinoLCD\test\Pain Drain\libraries\lvgl\src\draw\../misc/lv_color.h ****     lv_color8_t ret;
 344:..\..\..\arduinoLCD\test\Pain Drain\libraries\lvgl\src\draw\../misc/lv_color.h ****     LV_COLOR_SET_R8(ret, LV_COLOR_GET_R(color) >> 5); /*8 - 3  = 5*/
 345:..\..\..\arduinoLCD\test\Pain Drain\libraries\lvgl\src\draw\../misc/lv_color.h ****     LV_COLOR_SET_G8(ret, LV_COLOR_GET_G(color) >> 5); /*8 - 3  = 5*/
 346:..\..\..\arduinoLCD\test\Pain Drain\libraries\lvgl\src\draw\../misc/lv_color.h ****     LV_COLOR_SET_B8(ret, LV_COLOR_GET_B(color) >> 6); /*8 - 2  = 6*/
 347:..\..\..\arduinoLCD\test\Pain Drain\libraries\lvgl\src\draw\../misc/lv_color.h ****     return ret.full;
 348:..\..\..\arduinoLCD\test\Pain Drain\libraries\lvgl\src\draw\../misc/lv_color.h **** #endif
 349:..\..\..\arduinoLCD\test\Pain Drain\libraries\lvgl\src\draw\../misc/lv_color.h **** }
 350:..\..\..\arduinoLCD\test\Pain Drain\libraries\lvgl\src\draw\../misc/lv_color.h **** 
 351:..\..\..\arduinoLCD\test\Pain Drain\libraries\lvgl\src\draw\../misc/lv_color.h **** static inline uint16_t lv_color_to16(lv_color_t color)
 352:..\..\..\arduinoLCD\test\Pain Drain\libraries\lvgl\src\draw\../misc/lv_color.h **** {
 353:..\..\..\arduinoLCD\test\Pain Drain\libraries\lvgl\src\draw\../misc/lv_color.h **** #if LV_COLOR_DEPTH == 1
 354:..\..\..\arduinoLCD\test\Pain Drain\libraries\lvgl\src\draw\../misc/lv_color.h ****     if(color.full == 0)
 355:..\..\..\arduinoLCD\test\Pain Drain\libraries\lvgl\src\draw\../misc/lv_color.h ****         return 0;
 356:..\..\..\arduinoLCD\test\Pain Drain\libraries\lvgl\src\draw\../misc/lv_color.h ****     else
 357:..\..\..\arduinoLCD\test\Pain Drain\libraries\lvgl\src\draw\../misc/lv_color.h ****         return 0xFFFF;
 358:..\..\..\arduinoLCD\test\Pain Drain\libraries\lvgl\src\draw\../misc/lv_color.h **** #elif LV_COLOR_DEPTH == 8
 359:..\..\..\arduinoLCD\test\Pain Drain\libraries\lvgl\src\draw\../misc/lv_color.h ****     lv_color16_t ret;
 360:..\..\..\arduinoLCD\test\Pain Drain\libraries\lvgl\src\draw\../misc/lv_color.h ****     LV_COLOR_SET_R16(ret, LV_COLOR_GET_R(color) * 4);  /*(2^5 - 1)/(2^3 - 1) = 31/7 = 4*/
 361:..\..\..\arduinoLCD\test\Pain Drain\libraries\lvgl\src\draw\../misc/lv_color.h ****     LV_COLOR_SET_G16(ret, LV_COLOR_GET_G(color) * 9);  /*(2^6 - 1)/(2^3 - 1) = 63/7 = 9*/
 362:..\..\..\arduinoLCD\test\Pain Drain\libraries\lvgl\src\draw\../misc/lv_color.h ****     LV_COLOR_SET_B16(ret, LV_COLOR_GET_B(color) * 10); /*(2^5 - 1)/(2^2 - 1) = 31/3 = 10*/
 363:..\..\..\arduinoLCD\test\Pain Drain\libraries\lvgl\src\draw\../misc/lv_color.h ****     return ret.full;
ARM GAS  C:\Users\haske\AppData\Local\Temp\cczDymCg.s 			page 9


 364:..\..\..\arduinoLCD\test\Pain Drain\libraries\lvgl\src\draw\../misc/lv_color.h **** #elif LV_COLOR_DEPTH == 16
 365:..\..\..\arduinoLCD\test\Pain Drain\libraries\lvgl\src\draw\../misc/lv_color.h ****     return color.full;
 366:..\..\..\arduinoLCD\test\Pain Drain\libraries\lvgl\src\draw\../misc/lv_color.h **** #elif LV_COLOR_DEPTH == 32
 367:..\..\..\arduinoLCD\test\Pain Drain\libraries\lvgl\src\draw\../misc/lv_color.h ****     lv_color16_t ret;
 368:..\..\..\arduinoLCD\test\Pain Drain\libraries\lvgl\src\draw\../misc/lv_color.h ****     LV_COLOR_SET_R16(ret, LV_COLOR_GET_R(color) >> 3); /*8 - 5  = 3*/
 369:..\..\..\arduinoLCD\test\Pain Drain\libraries\lvgl\src\draw\../misc/lv_color.h ****     LV_COLOR_SET_G16(ret, LV_COLOR_GET_G(color) >> 2); /*8 - 6  = 2*/
 370:..\..\..\arduinoLCD\test\Pain Drain\libraries\lvgl\src\draw\../misc/lv_color.h ****     LV_COLOR_SET_B16(ret, LV_COLOR_GET_B(color) >> 3); /*8 - 5  = 3*/
 371:..\..\..\arduinoLCD\test\Pain Drain\libraries\lvgl\src\draw\../misc/lv_color.h ****     return ret.full;
 372:..\..\..\arduinoLCD\test\Pain Drain\libraries\lvgl\src\draw\../misc/lv_color.h **** #endif
 373:..\..\..\arduinoLCD\test\Pain Drain\libraries\lvgl\src\draw\../misc/lv_color.h **** }
 374:..\..\..\arduinoLCD\test\Pain Drain\libraries\lvgl\src\draw\../misc/lv_color.h **** 
 375:..\..\..\arduinoLCD\test\Pain Drain\libraries\lvgl\src\draw\../misc/lv_color.h **** static inline uint32_t lv_color_to32(lv_color_t color)
 376:..\..\..\arduinoLCD\test\Pain Drain\libraries\lvgl\src\draw\../misc/lv_color.h **** {
 377:..\..\..\arduinoLCD\test\Pain Drain\libraries\lvgl\src\draw\../misc/lv_color.h **** #if LV_COLOR_DEPTH == 1
 378:..\..\..\arduinoLCD\test\Pain Drain\libraries\lvgl\src\draw\../misc/lv_color.h ****     if(color.full == 0)
 379:..\..\..\arduinoLCD\test\Pain Drain\libraries\lvgl\src\draw\../misc/lv_color.h ****         return 0xFF000000;
 380:..\..\..\arduinoLCD\test\Pain Drain\libraries\lvgl\src\draw\../misc/lv_color.h ****     else
 381:..\..\..\arduinoLCD\test\Pain Drain\libraries\lvgl\src\draw\../misc/lv_color.h ****         return 0xFFFFFFFF;
 382:..\..\..\arduinoLCD\test\Pain Drain\libraries\lvgl\src\draw\../misc/lv_color.h **** #elif LV_COLOR_DEPTH == 8
 383:..\..\..\arduinoLCD\test\Pain Drain\libraries\lvgl\src\draw\../misc/lv_color.h ****     lv_color32_t ret;
 384:..\..\..\arduinoLCD\test\Pain Drain\libraries\lvgl\src\draw\../misc/lv_color.h ****     LV_COLOR_SET_R32(ret, LV_COLOR_GET_R(color) * 36); /*(2^8 - 1)/(2^3 - 1) = 255/7 = 36*/
 385:..\..\..\arduinoLCD\test\Pain Drain\libraries\lvgl\src\draw\../misc/lv_color.h ****     LV_COLOR_SET_G32(ret, LV_COLOR_GET_G(color) * 36); /*(2^8 - 1)/(2^3 - 1) = 255/7 = 36*/
 386:..\..\..\arduinoLCD\test\Pain Drain\libraries\lvgl\src\draw\../misc/lv_color.h ****     LV_COLOR_SET_B32(ret, LV_COLOR_GET_B(color) * 85); /*(2^8 - 1)/(2^2 - 1) = 255/3 = 85*/
 387:..\..\..\arduinoLCD\test\Pain Drain\libraries\lvgl\src\draw\../misc/lv_color.h ****     LV_COLOR_SET_A32(ret, 0xFF);
 388:..\..\..\arduinoLCD\test\Pain Drain\libraries\lvgl\src\draw\../misc/lv_color.h ****     return ret.full;
 389:..\..\..\arduinoLCD\test\Pain Drain\libraries\lvgl\src\draw\../misc/lv_color.h **** #elif LV_COLOR_DEPTH == 16
 390:..\..\..\arduinoLCD\test\Pain Drain\libraries\lvgl\src\draw\../misc/lv_color.h ****     /**
 391:..\..\..\arduinoLCD\test\Pain Drain\libraries\lvgl\src\draw\../misc/lv_color.h ****      * The floating point math for conversion is:
 392:..\..\..\arduinoLCD\test\Pain Drain\libraries\lvgl\src\draw\../misc/lv_color.h ****      *  valueto = valuefrom * ( (2^bitsto - 1) / (float)(2^bitsfrom - 1) )
 393:..\..\..\arduinoLCD\test\Pain Drain\libraries\lvgl\src\draw\../misc/lv_color.h ****      * The faster integer math for conversion is:
 394:..\..\..\arduinoLCD\test\Pain Drain\libraries\lvgl\src\draw\../misc/lv_color.h ****      *  valueto = ( valuefrom * multiplier + adder ) >> divisor
 395:..\..\..\arduinoLCD\test\Pain Drain\libraries\lvgl\src\draw\../misc/lv_color.h ****      *   multiplier = FLOOR( ( (2^bitsto - 1) << divisor ) / (float)(2^bitsfrom - 1) )
 396:..\..\..\arduinoLCD\test\Pain Drain\libraries\lvgl\src\draw\../misc/lv_color.h ****      *
 397:..\..\..\arduinoLCD\test\Pain Drain\libraries\lvgl\src\draw\../misc/lv_color.h ****      * Find the first divisor where ( adder >> divisor ) <= 0
 398:..\..\..\arduinoLCD\test\Pain Drain\libraries\lvgl\src\draw\../misc/lv_color.h ****      *
 399:..\..\..\arduinoLCD\test\Pain Drain\libraries\lvgl\src\draw\../misc/lv_color.h ****      * 5-bit to 8-bit: ( 31 * multiplier + adder ) >> divisor = 255
 400:..\..\..\arduinoLCD\test\Pain Drain\libraries\lvgl\src\draw\../misc/lv_color.h ****      * divisor  multiplier  adder  min (0)  max (31)
 401:..\..\..\arduinoLCD\test\Pain Drain\libraries\lvgl\src\draw\../misc/lv_color.h ****      *       0           8      7        7       255
 402:..\..\..\arduinoLCD\test\Pain Drain\libraries\lvgl\src\draw\../misc/lv_color.h ****      *       1          16     14        7       255
 403:..\..\..\arduinoLCD\test\Pain Drain\libraries\lvgl\src\draw\../misc/lv_color.h ****      *       2          32     28        7       255
 404:..\..\..\arduinoLCD\test\Pain Drain\libraries\lvgl\src\draw\../misc/lv_color.h ****      *       3          65     25        3       255
 405:..\..\..\arduinoLCD\test\Pain Drain\libraries\lvgl\src\draw\../misc/lv_color.h ****      *       4         131     19        1       255
 406:..\..\..\arduinoLCD\test\Pain Drain\libraries\lvgl\src\draw\../misc/lv_color.h ****      *       5         263      7        0       255
 407:..\..\..\arduinoLCD\test\Pain Drain\libraries\lvgl\src\draw\../misc/lv_color.h ****      *
 408:..\..\..\arduinoLCD\test\Pain Drain\libraries\lvgl\src\draw\../misc/lv_color.h ****      * 6-bit to 8-bit: 255 = ( 63 * multiplier + adder ) >> divisor
 409:..\..\..\arduinoLCD\test\Pain Drain\libraries\lvgl\src\draw\../misc/lv_color.h ****      * divisor  multiplier  adder  min (0)  max (63)
 410:..\..\..\arduinoLCD\test\Pain Drain\libraries\lvgl\src\draw\../misc/lv_color.h ****      *       0           4      3        3       255
 411:..\..\..\arduinoLCD\test\Pain Drain\libraries\lvgl\src\draw\../misc/lv_color.h ****      *       1           8      6        3       255
 412:..\..\..\arduinoLCD\test\Pain Drain\libraries\lvgl\src\draw\../misc/lv_color.h ****      *       2          16     12        3       255
 413:..\..\..\arduinoLCD\test\Pain Drain\libraries\lvgl\src\draw\../misc/lv_color.h ****      *       3          32     24        3       255
 414:..\..\..\arduinoLCD\test\Pain Drain\libraries\lvgl\src\draw\../misc/lv_color.h ****      *       4          64     48        3       255
 415:..\..\..\arduinoLCD\test\Pain Drain\libraries\lvgl\src\draw\../misc/lv_color.h ****      *       5         129     33        1       255
 416:..\..\..\arduinoLCD\test\Pain Drain\libraries\lvgl\src\draw\../misc/lv_color.h ****      *       6         259      3        0       255
 417:..\..\..\arduinoLCD\test\Pain Drain\libraries\lvgl\src\draw\../misc/lv_color.h ****      */
 418:..\..\..\arduinoLCD\test\Pain Drain\libraries\lvgl\src\draw\../misc/lv_color.h **** 
 419:..\..\..\arduinoLCD\test\Pain Drain\libraries\lvgl\src\draw\../misc/lv_color.h ****     lv_color32_t ret;
 420:..\..\..\arduinoLCD\test\Pain Drain\libraries\lvgl\src\draw\../misc/lv_color.h ****     LV_COLOR_SET_R32(ret, (LV_COLOR_GET_R(color) * 263 + 7) >> 5);
ARM GAS  C:\Users\haske\AppData\Local\Temp\cczDymCg.s 			page 10


 421:..\..\..\arduinoLCD\test\Pain Drain\libraries\lvgl\src\draw\../misc/lv_color.h ****     LV_COLOR_SET_G32(ret, (LV_COLOR_GET_G(color) * 259 + 3) >> 6);
 422:..\..\..\arduinoLCD\test\Pain Drain\libraries\lvgl\src\draw\../misc/lv_color.h ****     LV_COLOR_SET_B32(ret, (LV_COLOR_GET_B(color) * 263 + 7) >> 5);
 423:..\..\..\arduinoLCD\test\Pain Drain\libraries\lvgl\src\draw\../misc/lv_color.h ****     LV_COLOR_SET_A32(ret, 0xFF);
 424:..\..\..\arduinoLCD\test\Pain Drain\libraries\lvgl\src\draw\../misc/lv_color.h ****     return ret.full;
 425:..\..\..\arduinoLCD\test\Pain Drain\libraries\lvgl\src\draw\../misc/lv_color.h **** #elif LV_COLOR_DEPTH == 32
 426:..\..\..\arduinoLCD\test\Pain Drain\libraries\lvgl\src\draw\../misc/lv_color.h ****     return color.full;
 427:..\..\..\arduinoLCD\test\Pain Drain\libraries\lvgl\src\draw\../misc/lv_color.h **** #endif
 428:..\..\..\arduinoLCD\test\Pain Drain\libraries\lvgl\src\draw\../misc/lv_color.h **** }
 429:..\..\..\arduinoLCD\test\Pain Drain\libraries\lvgl\src\draw\../misc/lv_color.h **** 
 430:..\..\..\arduinoLCD\test\Pain Drain\libraries\lvgl\src\draw\../misc/lv_color.h **** //! @cond Doxygen_Suppress
 431:..\..\..\arduinoLCD\test\Pain Drain\libraries\lvgl\src\draw\../misc/lv_color.h **** 
 432:..\..\..\arduinoLCD\test\Pain Drain\libraries\lvgl\src\draw\../misc/lv_color.h **** /**
 433:..\..\..\arduinoLCD\test\Pain Drain\libraries\lvgl\src\draw\../misc/lv_color.h ****  * Mix two colors with a given ratio.
 434:..\..\..\arduinoLCD\test\Pain Drain\libraries\lvgl\src\draw\../misc/lv_color.h ****  * @param c1 the first color to mix (usually the foreground)
 435:..\..\..\arduinoLCD\test\Pain Drain\libraries\lvgl\src\draw\../misc/lv_color.h ****  * @param c2 the second color to mix (usually the background)
 436:..\..\..\arduinoLCD\test\Pain Drain\libraries\lvgl\src\draw\../misc/lv_color.h ****  * @param mix The ratio of the colors. 0: full `c2`, 255: full `c1`, 127: half `c1` and half`c2`
 437:..\..\..\arduinoLCD\test\Pain Drain\libraries\lvgl\src\draw\../misc/lv_color.h ****  * @return the mixed color
 438:..\..\..\arduinoLCD\test\Pain Drain\libraries\lvgl\src\draw\../misc/lv_color.h ****  */
 439:..\..\..\arduinoLCD\test\Pain Drain\libraries\lvgl\src\draw\../misc/lv_color.h **** LV_ATTRIBUTE_FAST_MEM static inline lv_color_t lv_color_mix(lv_color_t c1, lv_color_t c2, uint8_t m
 440:..\..\..\arduinoLCD\test\Pain Drain\libraries\lvgl\src\draw\../misc/lv_color.h **** {
 441:..\..\..\arduinoLCD\test\Pain Drain\libraries\lvgl\src\draw\../misc/lv_color.h ****     lv_color_t ret;
 442:..\..\..\arduinoLCD\test\Pain Drain\libraries\lvgl\src\draw\../misc/lv_color.h **** 
 443:..\..\..\arduinoLCD\test\Pain Drain\libraries\lvgl\src\draw\../misc/lv_color.h **** #if LV_COLOR_DEPTH == 16 && LV_COLOR_16_SWAP == 0 && LV_COLOR_MIX_ROUND_OFS == 0
 444:..\..\..\arduinoLCD\test\Pain Drain\libraries\lvgl\src\draw\../misc/lv_color.h ****     /*Source: https://stackoverflow.com/a/50012418/1999969*/
 445:..\..\..\arduinoLCD\test\Pain Drain\libraries\lvgl\src\draw\../misc/lv_color.h ****     mix = (uint32_t)((uint32_t)mix + 4) >> 3;
 446:..\..\..\arduinoLCD\test\Pain Drain\libraries\lvgl\src\draw\../misc/lv_color.h ****     uint32_t bg = (uint32_t)((uint32_t)c2.full | ((uint32_t)c2.full << 16)) &
 447:..\..\..\arduinoLCD\test\Pain Drain\libraries\lvgl\src\draw\../misc/lv_color.h ****                   0x7E0F81F; /*0b00000111111000001111100000011111*/
 448:..\..\..\arduinoLCD\test\Pain Drain\libraries\lvgl\src\draw\../misc/lv_color.h ****     uint32_t fg = (uint32_t)((uint32_t)c1.full | ((uint32_t)c1.full << 16)) & 0x7E0F81F;
 449:..\..\..\arduinoLCD\test\Pain Drain\libraries\lvgl\src\draw\../misc/lv_color.h ****     uint32_t result = ((((fg - bg) * mix) >> 5) + bg) & 0x7E0F81F;
 450:..\..\..\arduinoLCD\test\Pain Drain\libraries\lvgl\src\draw\../misc/lv_color.h ****     ret.full = (uint16_t)((result >> 16) | result);
 451:..\..\..\arduinoLCD\test\Pain Drain\libraries\lvgl\src\draw\../misc/lv_color.h **** #elif LV_COLOR_DEPTH != 1
 452:..\..\..\arduinoLCD\test\Pain Drain\libraries\lvgl\src\draw\../misc/lv_color.h ****     /*LV_COLOR_DEPTH == 8, 16 or 32*/
 453:..\..\..\arduinoLCD\test\Pain Drain\libraries\lvgl\src\draw\../misc/lv_color.h ****     LV_COLOR_SET_R(ret, LV_UDIV255((uint16_t)LV_COLOR_GET_R(c1) * mix + LV_COLOR_GET_R(c2) *
 454:..\..\..\arduinoLCD\test\Pain Drain\libraries\lvgl\src\draw\../misc/lv_color.h ****                                    (255 - mix) + LV_COLOR_MIX_ROUND_OFS));
 455:..\..\..\arduinoLCD\test\Pain Drain\libraries\lvgl\src\draw\../misc/lv_color.h ****     LV_COLOR_SET_G(ret, LV_UDIV255((uint16_t)LV_COLOR_GET_G(c1) * mix + LV_COLOR_GET_G(c2) *
 456:..\..\..\arduinoLCD\test\Pain Drain\libraries\lvgl\src\draw\../misc/lv_color.h ****                                    (255 - mix) + LV_COLOR_MIX_ROUND_OFS));
 457:..\..\..\arduinoLCD\test\Pain Drain\libraries\lvgl\src\draw\../misc/lv_color.h ****     LV_COLOR_SET_B(ret, LV_UDIV255((uint16_t)LV_COLOR_GET_B(c1) * mix + LV_COLOR_GET_B(c2) *
 458:..\..\..\arduinoLCD\test\Pain Drain\libraries\lvgl\src\draw\../misc/lv_color.h ****                                    (255 - mix) + LV_COLOR_MIX_ROUND_OFS));
 459:..\..\..\arduinoLCD\test\Pain Drain\libraries\lvgl\src\draw\../misc/lv_color.h ****     LV_COLOR_SET_A(ret, 0xFF);
 460:..\..\..\arduinoLCD\test\Pain Drain\libraries\lvgl\src\draw\../misc/lv_color.h **** #else
 461:..\..\..\arduinoLCD\test\Pain Drain\libraries\lvgl\src\draw\../misc/lv_color.h ****     /*LV_COLOR_DEPTH == 1*/
 462:..\..\..\arduinoLCD\test\Pain Drain\libraries\lvgl\src\draw\../misc/lv_color.h ****     ret.full = mix > LV_OPA_50 ? c1.full : c2.full;
 463:..\..\..\arduinoLCD\test\Pain Drain\libraries\lvgl\src\draw\../misc/lv_color.h **** #endif
 464:..\..\..\arduinoLCD\test\Pain Drain\libraries\lvgl\src\draw\../misc/lv_color.h **** 
 465:..\..\..\arduinoLCD\test\Pain Drain\libraries\lvgl\src\draw\../misc/lv_color.h ****     return ret;
 466:..\..\..\arduinoLCD\test\Pain Drain\libraries\lvgl\src\draw\../misc/lv_color.h **** }
 467:..\..\..\arduinoLCD\test\Pain Drain\libraries\lvgl\src\draw\../misc/lv_color.h **** 
 468:..\..\..\arduinoLCD\test\Pain Drain\libraries\lvgl\src\draw\../misc/lv_color.h **** LV_ATTRIBUTE_FAST_MEM static inline void lv_color_premult(lv_color_t c, uint8_t mix, uint16_t * out
 469:..\..\..\arduinoLCD\test\Pain Drain\libraries\lvgl\src\draw\../misc/lv_color.h **** {
 470:..\..\..\arduinoLCD\test\Pain Drain\libraries\lvgl\src\draw\../misc/lv_color.h **** #if LV_COLOR_DEPTH != 1
 471:..\..\..\arduinoLCD\test\Pain Drain\libraries\lvgl\src\draw\../misc/lv_color.h ****     out[0] = (uint16_t)LV_COLOR_GET_R(c) * mix;
 472:..\..\..\arduinoLCD\test\Pain Drain\libraries\lvgl\src\draw\../misc/lv_color.h ****     out[1] = (uint16_t)LV_COLOR_GET_G(c) * mix;
 473:..\..\..\arduinoLCD\test\Pain Drain\libraries\lvgl\src\draw\../misc/lv_color.h ****     out[2] = (uint16_t)LV_COLOR_GET_B(c) * mix;
 474:..\..\..\arduinoLCD\test\Pain Drain\libraries\lvgl\src\draw\../misc/lv_color.h **** #else
 475:..\..\..\arduinoLCD\test\Pain Drain\libraries\lvgl\src\draw\../misc/lv_color.h ****     (void) mix;
 476:..\..\..\arduinoLCD\test\Pain Drain\libraries\lvgl\src\draw\../misc/lv_color.h ****     /*Pre-multiplication can't be used with 1 bpp*/
 477:..\..\..\arduinoLCD\test\Pain Drain\libraries\lvgl\src\draw\../misc/lv_color.h ****     out[0] = LV_COLOR_GET_R(c);
ARM GAS  C:\Users\haske\AppData\Local\Temp\cczDymCg.s 			page 11


 478:..\..\..\arduinoLCD\test\Pain Drain\libraries\lvgl\src\draw\../misc/lv_color.h ****     out[1] = LV_COLOR_GET_G(c);
 479:..\..\..\arduinoLCD\test\Pain Drain\libraries\lvgl\src\draw\../misc/lv_color.h ****     out[2] = LV_COLOR_GET_B(c);
 480:..\..\..\arduinoLCD\test\Pain Drain\libraries\lvgl\src\draw\../misc/lv_color.h **** #endif
 481:..\..\..\arduinoLCD\test\Pain Drain\libraries\lvgl\src\draw\../misc/lv_color.h **** 
 482:..\..\..\arduinoLCD\test\Pain Drain\libraries\lvgl\src\draw\../misc/lv_color.h **** }
 483:..\..\..\arduinoLCD\test\Pain Drain\libraries\lvgl\src\draw\../misc/lv_color.h **** 
 484:..\..\..\arduinoLCD\test\Pain Drain\libraries\lvgl\src\draw\../misc/lv_color.h **** /**
 485:..\..\..\arduinoLCD\test\Pain Drain\libraries\lvgl\src\draw\../misc/lv_color.h ****  * Mix two colors with a given ratio. It runs faster then `lv_color_mix` but requires some pre comp
 486:..\..\..\arduinoLCD\test\Pain Drain\libraries\lvgl\src\draw\../misc/lv_color.h ****  * @param premult_c1 The first color. Should be preprocessed with `lv_color_premult(c1)`
 487:..\..\..\arduinoLCD\test\Pain Drain\libraries\lvgl\src\draw\../misc/lv_color.h ****  * @param c2 The second color. As it is no pre computation required on it
 488:..\..\..\arduinoLCD\test\Pain Drain\libraries\lvgl\src\draw\../misc/lv_color.h ****  * @param mix The ratio of the colors. 0: full `c1`, 255: full `c2`, 127: half `c1` and half `c2`.
 489:..\..\..\arduinoLCD\test\Pain Drain\libraries\lvgl\src\draw\../misc/lv_color.h ****  *            Should be modified like mix = `255 - mix`
 490:..\..\..\arduinoLCD\test\Pain Drain\libraries\lvgl\src\draw\../misc/lv_color.h ****  * @return the mixed color
 491:..\..\..\arduinoLCD\test\Pain Drain\libraries\lvgl\src\draw\../misc/lv_color.h ****  * @note 255 won't give clearly `c1`.
 492:..\..\..\arduinoLCD\test\Pain Drain\libraries\lvgl\src\draw\../misc/lv_color.h ****  */
 493:..\..\..\arduinoLCD\test\Pain Drain\libraries\lvgl\src\draw\../misc/lv_color.h **** LV_ATTRIBUTE_FAST_MEM static inline lv_color_t lv_color_mix_premult(uint16_t * premult_c1, lv_color
 494:..\..\..\arduinoLCD\test\Pain Drain\libraries\lvgl\src\draw\../misc/lv_color.h **** {
 495:..\..\..\arduinoLCD\test\Pain Drain\libraries\lvgl\src\draw\../misc/lv_color.h ****     lv_color_t ret;
 496:..\..\..\arduinoLCD\test\Pain Drain\libraries\lvgl\src\draw\../misc/lv_color.h **** #if LV_COLOR_DEPTH != 1
 497:..\..\..\arduinoLCD\test\Pain Drain\libraries\lvgl\src\draw\../misc/lv_color.h ****     /*LV_COLOR_DEPTH == 8 or 32*/
 498:..\..\..\arduinoLCD\test\Pain Drain\libraries\lvgl\src\draw\../misc/lv_color.h ****     LV_COLOR_SET_R(ret, LV_UDIV255(premult_c1[0] + LV_COLOR_GET_R(c2) * mix + LV_COLOR_MIX_ROUND_OF
 499:..\..\..\arduinoLCD\test\Pain Drain\libraries\lvgl\src\draw\../misc/lv_color.h ****     LV_COLOR_SET_G(ret, LV_UDIV255(premult_c1[1] + LV_COLOR_GET_G(c2) * mix + LV_COLOR_MIX_ROUND_OF
 500:..\..\..\arduinoLCD\test\Pain Drain\libraries\lvgl\src\draw\../misc/lv_color.h ****     LV_COLOR_SET_B(ret, LV_UDIV255(premult_c1[2] + LV_COLOR_GET_B(c2) * mix + LV_COLOR_MIX_ROUND_OF
 501:..\..\..\arduinoLCD\test\Pain Drain\libraries\lvgl\src\draw\../misc/lv_color.h ****     LV_COLOR_SET_A(ret, 0xFF);
 502:..\..\..\arduinoLCD\test\Pain Drain\libraries\lvgl\src\draw\../misc/lv_color.h **** #else
 503:..\..\..\arduinoLCD\test\Pain Drain\libraries\lvgl\src\draw\../misc/lv_color.h ****     /*LV_COLOR_DEPTH == 1*/
 504:..\..\..\arduinoLCD\test\Pain Drain\libraries\lvgl\src\draw\../misc/lv_color.h ****     /*Restore color1*/
 505:..\..\..\arduinoLCD\test\Pain Drain\libraries\lvgl\src\draw\../misc/lv_color.h ****     lv_color_t c1;
 506:..\..\..\arduinoLCD\test\Pain Drain\libraries\lvgl\src\draw\../misc/lv_color.h ****     LV_COLOR_SET_R(c1, premult_c1[0]);
 507:..\..\..\arduinoLCD\test\Pain Drain\libraries\lvgl\src\draw\../misc/lv_color.h ****     LV_COLOR_SET_G(c1, premult_c1[1]);
 508:..\..\..\arduinoLCD\test\Pain Drain\libraries\lvgl\src\draw\../misc/lv_color.h ****     LV_COLOR_SET_B(c1, premult_c1[2]);
 509:..\..\..\arduinoLCD\test\Pain Drain\libraries\lvgl\src\draw\../misc/lv_color.h ****     ret.full = mix > LV_OPA_50 ? c2.full : c1.full;
 510:..\..\..\arduinoLCD\test\Pain Drain\libraries\lvgl\src\draw\../misc/lv_color.h **** #endif
 511:..\..\..\arduinoLCD\test\Pain Drain\libraries\lvgl\src\draw\../misc/lv_color.h **** 
 512:..\..\..\arduinoLCD\test\Pain Drain\libraries\lvgl\src\draw\../misc/lv_color.h ****     return ret;
 513:..\..\..\arduinoLCD\test\Pain Drain\libraries\lvgl\src\draw\../misc/lv_color.h **** }
 514:..\..\..\arduinoLCD\test\Pain Drain\libraries\lvgl\src\draw\../misc/lv_color.h **** 
 515:..\..\..\arduinoLCD\test\Pain Drain\libraries\lvgl\src\draw\../misc/lv_color.h **** /**
 516:..\..\..\arduinoLCD\test\Pain Drain\libraries\lvgl\src\draw\../misc/lv_color.h ****  * Mix two colors. Both color can have alpha value.
 517:..\..\..\arduinoLCD\test\Pain Drain\libraries\lvgl\src\draw\../misc/lv_color.h ****  * @param bg_color background color
 518:..\..\..\arduinoLCD\test\Pain Drain\libraries\lvgl\src\draw\../misc/lv_color.h ****  * @param bg_opa alpha of the background color
 519:..\..\..\arduinoLCD\test\Pain Drain\libraries\lvgl\src\draw\../misc/lv_color.h ****  * @param fg_color foreground color
 520:..\..\..\arduinoLCD\test\Pain Drain\libraries\lvgl\src\draw\../misc/lv_color.h ****  * @param fg_opa alpha of the foreground color
 521:..\..\..\arduinoLCD\test\Pain Drain\libraries\lvgl\src\draw\../misc/lv_color.h ****  * @param res_color the result color
 522:..\..\..\arduinoLCD\test\Pain Drain\libraries\lvgl\src\draw\../misc/lv_color.h ****  * @param res_opa the result opacity
 523:..\..\..\arduinoLCD\test\Pain Drain\libraries\lvgl\src\draw\../misc/lv_color.h ****  */
 524:..\..\..\arduinoLCD\test\Pain Drain\libraries\lvgl\src\draw\../misc/lv_color.h **** LV_ATTRIBUTE_FAST_MEM static inline void lv_color_mix_with_alpha(lv_color_t bg_color, lv_opa_t bg_o
 525:..\..\..\arduinoLCD\test\Pain Drain\libraries\lvgl\src\draw\../misc/lv_color.h ****                                                                  lv_color_t fg_color, lv_opa_t fg_o
 526:..\..\..\arduinoLCD\test\Pain Drain\libraries\lvgl\src\draw\../misc/lv_color.h ****                                                                  lv_color_t * res_color, lv_opa_t *
 527:..\..\..\arduinoLCD\test\Pain Drain\libraries\lvgl\src\draw\../misc/lv_color.h **** {
 528:..\..\..\arduinoLCD\test\Pain Drain\libraries\lvgl\src\draw\../misc/lv_color.h ****     /*Pick the foreground if it's fully opaque or the Background is fully transparent*/
 529:..\..\..\arduinoLCD\test\Pain Drain\libraries\lvgl\src\draw\../misc/lv_color.h ****     if(fg_opa >= LV_OPA_MAX || bg_opa <= LV_OPA_MIN) {
 530:..\..\..\arduinoLCD\test\Pain Drain\libraries\lvgl\src\draw\../misc/lv_color.h ****         res_color->full = fg_color.full;
 531:..\..\..\arduinoLCD\test\Pain Drain\libraries\lvgl\src\draw\../misc/lv_color.h ****         *res_opa = fg_opa;
 532:..\..\..\arduinoLCD\test\Pain Drain\libraries\lvgl\src\draw\../misc/lv_color.h ****     }
 533:..\..\..\arduinoLCD\test\Pain Drain\libraries\lvgl\src\draw\../misc/lv_color.h ****     /*Transparent foreground: use the Background*/
 534:..\..\..\arduinoLCD\test\Pain Drain\libraries\lvgl\src\draw\../misc/lv_color.h ****     else if(fg_opa <= LV_OPA_MIN) {
ARM GAS  C:\Users\haske\AppData\Local\Temp\cczDymCg.s 			page 12


 535:..\..\..\arduinoLCD\test\Pain Drain\libraries\lvgl\src\draw\../misc/lv_color.h ****         res_color->full = bg_color.full;
 536:..\..\..\arduinoLCD\test\Pain Drain\libraries\lvgl\src\draw\../misc/lv_color.h ****         *res_opa = bg_opa;
 537:..\..\..\arduinoLCD\test\Pain Drain\libraries\lvgl\src\draw\../misc/lv_color.h ****     }
 538:..\..\..\arduinoLCD\test\Pain Drain\libraries\lvgl\src\draw\../misc/lv_color.h ****     /*Opaque background: use simple mix*/
 539:..\..\..\arduinoLCD\test\Pain Drain\libraries\lvgl\src\draw\../misc/lv_color.h ****     else if(bg_opa >= LV_OPA_MAX) {
 540:..\..\..\arduinoLCD\test\Pain Drain\libraries\lvgl\src\draw\../misc/lv_color.h ****         *res_color = lv_color_mix(fg_color, bg_color, fg_opa);
 541:..\..\..\arduinoLCD\test\Pain Drain\libraries\lvgl\src\draw\../misc/lv_color.h ****         *res_opa = LV_OPA_COVER;
 542:..\..\..\arduinoLCD\test\Pain Drain\libraries\lvgl\src\draw\../misc/lv_color.h ****     }
 543:..\..\..\arduinoLCD\test\Pain Drain\libraries\lvgl\src\draw\../misc/lv_color.h ****     /*Both colors have alpha. Expensive calculation need to be applied*/
 544:..\..\..\arduinoLCD\test\Pain Drain\libraries\lvgl\src\draw\../misc/lv_color.h ****     else {
 545:..\..\..\arduinoLCD\test\Pain Drain\libraries\lvgl\src\draw\../misc/lv_color.h ****         /*Save the parameters and the result. If they will be asked again don't compute again*/
 546:..\..\..\arduinoLCD\test\Pain Drain\libraries\lvgl\src\draw\../misc/lv_color.h ****         static lv_opa_t fg_opa_save     = 0;
 547:..\..\..\arduinoLCD\test\Pain Drain\libraries\lvgl\src\draw\../misc/lv_color.h ****         static lv_opa_t bg_opa_save     = 0;
 548:..\..\..\arduinoLCD\test\Pain Drain\libraries\lvgl\src\draw\../misc/lv_color.h ****         static lv_color_t fg_color_save = _LV_COLOR_ZERO_INITIALIZER;
 549:..\..\..\arduinoLCD\test\Pain Drain\libraries\lvgl\src\draw\../misc/lv_color.h ****         static lv_color_t bg_color_save = _LV_COLOR_ZERO_INITIALIZER;
 550:..\..\..\arduinoLCD\test\Pain Drain\libraries\lvgl\src\draw\../misc/lv_color.h ****         static lv_color_t res_color_saved = _LV_COLOR_ZERO_INITIALIZER;
 551:..\..\..\arduinoLCD\test\Pain Drain\libraries\lvgl\src\draw\../misc/lv_color.h ****         static lv_opa_t res_opa_saved = 0;
 552:..\..\..\arduinoLCD\test\Pain Drain\libraries\lvgl\src\draw\../misc/lv_color.h **** 
 553:..\..\..\arduinoLCD\test\Pain Drain\libraries\lvgl\src\draw\../misc/lv_color.h ****         if(fg_opa != fg_opa_save || bg_opa != bg_opa_save || fg_color.full != fg_color_save.full ||
 554:..\..\..\arduinoLCD\test\Pain Drain\libraries\lvgl\src\draw\../misc/lv_color.h ****            bg_color.full != bg_color_save.full) {
 555:..\..\..\arduinoLCD\test\Pain Drain\libraries\lvgl\src\draw\../misc/lv_color.h ****             fg_opa_save        = fg_opa;
 556:..\..\..\arduinoLCD\test\Pain Drain\libraries\lvgl\src\draw\../misc/lv_color.h ****             bg_opa_save        = bg_opa;
 557:..\..\..\arduinoLCD\test\Pain Drain\libraries\lvgl\src\draw\../misc/lv_color.h ****             fg_color_save.full = fg_color.full;
 558:..\..\..\arduinoLCD\test\Pain Drain\libraries\lvgl\src\draw\../misc/lv_color.h ****             bg_color_save.full = bg_color.full;
 559:..\..\..\arduinoLCD\test\Pain Drain\libraries\lvgl\src\draw\../misc/lv_color.h ****             /*Info:
 560:..\..\..\arduinoLCD\test\Pain Drain\libraries\lvgl\src\draw\../misc/lv_color.h ****              * https://en.wikipedia.org/wiki/Alpha_compositing#Analytical_derivation_of_the_over_op
 561:..\..\..\arduinoLCD\test\Pain Drain\libraries\lvgl\src\draw\../misc/lv_color.h ****             res_opa_saved = 255 - ((uint16_t)((uint16_t)(255 - fg_opa) * (255 - bg_opa)) >> 8);
 562:..\..\..\arduinoLCD\test\Pain Drain\libraries\lvgl\src\draw\../misc/lv_color.h ****             LV_ASSERT(res_opa_saved != 0);
 563:..\..\..\arduinoLCD\test\Pain Drain\libraries\lvgl\src\draw\../misc/lv_color.h ****             lv_opa_t ratio = (uint16_t)((uint16_t)fg_opa * 255) / res_opa_saved;
 564:..\..\..\arduinoLCD\test\Pain Drain\libraries\lvgl\src\draw\../misc/lv_color.h ****             res_color_saved = lv_color_mix(fg_color, bg_color, ratio);
 565:..\..\..\arduinoLCD\test\Pain Drain\libraries\lvgl\src\draw\../misc/lv_color.h **** 
 566:..\..\..\arduinoLCD\test\Pain Drain\libraries\lvgl\src\draw\../misc/lv_color.h ****         }
 567:..\..\..\arduinoLCD\test\Pain Drain\libraries\lvgl\src\draw\../misc/lv_color.h **** 
 568:..\..\..\arduinoLCD\test\Pain Drain\libraries\lvgl\src\draw\../misc/lv_color.h ****         res_color->full = res_color_saved.full;
 569:..\..\..\arduinoLCD\test\Pain Drain\libraries\lvgl\src\draw\../misc/lv_color.h ****         *res_opa = res_opa_saved;
 570:..\..\..\arduinoLCD\test\Pain Drain\libraries\lvgl\src\draw\../misc/lv_color.h ****     }
 571:..\..\..\arduinoLCD\test\Pain Drain\libraries\lvgl\src\draw\../misc/lv_color.h **** }
 572:..\..\..\arduinoLCD\test\Pain Drain\libraries\lvgl\src\draw\../misc/lv_color.h **** 
 573:..\..\..\arduinoLCD\test\Pain Drain\libraries\lvgl\src\draw\../misc/lv_color.h **** //! @endcond
 574:..\..\..\arduinoLCD\test\Pain Drain\libraries\lvgl\src\draw\../misc/lv_color.h **** 
 575:..\..\..\arduinoLCD\test\Pain Drain\libraries\lvgl\src\draw\../misc/lv_color.h **** /**
 576:..\..\..\arduinoLCD\test\Pain Drain\libraries\lvgl\src\draw\../misc/lv_color.h ****  * Get the brightness of a color
 577:..\..\..\arduinoLCD\test\Pain Drain\libraries\lvgl\src\draw\../misc/lv_color.h ****  * @param color a color
 578:..\..\..\arduinoLCD\test\Pain Drain\libraries\lvgl\src\draw\../misc/lv_color.h ****  * @return the brightness [0..255]
 579:..\..\..\arduinoLCD\test\Pain Drain\libraries\lvgl\src\draw\../misc/lv_color.h ****  */
 580:..\..\..\arduinoLCD\test\Pain Drain\libraries\lvgl\src\draw\../misc/lv_color.h **** static inline uint8_t lv_color_brightness(lv_color_t color)
 581:..\..\..\arduinoLCD\test\Pain Drain\libraries\lvgl\src\draw\../misc/lv_color.h **** {
 582:..\..\..\arduinoLCD\test\Pain Drain\libraries\lvgl\src\draw\../misc/lv_color.h ****     lv_color32_t c32;
 583:..\..\..\arduinoLCD\test\Pain Drain\libraries\lvgl\src\draw\../misc/lv_color.h ****     c32.full        = lv_color_to32(color);
 584:..\..\..\arduinoLCD\test\Pain Drain\libraries\lvgl\src\draw\../misc/lv_color.h ****     uint16_t bright = (uint16_t)(3u * LV_COLOR_GET_R32(c32) + LV_COLOR_GET_B32(c32) + 4u * LV_COLOR
 585:..\..\..\arduinoLCD\test\Pain Drain\libraries\lvgl\src\draw\../misc/lv_color.h ****     return (uint8_t)(bright >> 3);
 586:..\..\..\arduinoLCD\test\Pain Drain\libraries\lvgl\src\draw\../misc/lv_color.h **** }
 587:..\..\..\arduinoLCD\test\Pain Drain\libraries\lvgl\src\draw\../misc/lv_color.h **** 
 588:..\..\..\arduinoLCD\test\Pain Drain\libraries\lvgl\src\draw\../misc/lv_color.h **** static inline lv_color_t lv_color_make(uint8_t r, uint8_t g, uint8_t b)
 589:..\..\..\arduinoLCD\test\Pain Drain\libraries\lvgl\src\draw\../misc/lv_color.h **** {
 590:..\..\..\arduinoLCD\test\Pain Drain\libraries\lvgl\src\draw\../misc/lv_color.h ****     return _LV_COLOR_MAKE_TYPE_HELPER LV_COLOR_MAKE(r, g, b);
  54              		.loc 2 590 0
ARM GAS  C:\Users\haske\AppData\Local\Temp\cczDymCg.s 			page 13


  55 0012 4FF00003 		mov	r3, #0	@ movhi
  56              	.LVL3:
  57              	.LBE10:
  58              	.LBE9:
  59              	.LBE8:
  41:..\..\..\arduinoLCD\test\Pain Drain\libraries\lvgl\src\draw/lv_draw_arc.c ****     dsc->color = lv_color_black();
  60              		.loc 1 41 0
  61 0016 2380     		strh	r3, [r4]	@ movhi
  62 0018 10BD     		pop	{r4, pc}
  63              		.cfi_endproc
  64              	.LFE55:
  65              		.size	lv_draw_arc_dsc_init, .-lv_draw_arc_dsc_init
  66 001a 00BF     		.section	.text.lv_draw_arc,"ax",%progbits
  67              		.align	2
  68              		.global	lv_draw_arc
  69              		.thumb
  70              		.thumb_func
  71              		.type	lv_draw_arc, %function
  72              	lv_draw_arc:
  73              	.LFB56:
  42:..\..\..\arduinoLCD\test\Pain Drain\libraries\lvgl\src\draw/lv_draw_arc.c **** }
  43:..\..\..\arduinoLCD\test\Pain Drain\libraries\lvgl\src\draw/lv_draw_arc.c **** 
  44:..\..\..\arduinoLCD\test\Pain Drain\libraries\lvgl\src\draw/lv_draw_arc.c **** void lv_draw_arc(lv_draw_ctx_t * draw_ctx, const lv_draw_arc_dsc_t * dsc, const lv_point_t * center
  45:..\..\..\arduinoLCD\test\Pain Drain\libraries\lvgl\src\draw/lv_draw_arc.c ****                  uint16_t start_angle, uint16_t end_angle)
  46:..\..\..\arduinoLCD\test\Pain Drain\libraries\lvgl\src\draw/lv_draw_arc.c **** {
  74              		.loc 1 46 0
  75              		.cfi_startproc
  76              		@ args = 8, pretend = 0, frame = 0
  77              		@ frame_needed = 0, uses_anonymous_args = 0
  78              	.LVL4:
  79 0000 70B5     		push	{r4, r5, r6, lr}
  80              		.cfi_def_cfa_offset 16
  81              		.cfi_offset 4, -16
  82              		.cfi_offset 5, -12
  83              		.cfi_offset 6, -8
  84              		.cfi_offset 14, -4
  85 0002 82B0     		sub	sp, sp, #8
  86              		.cfi_def_cfa_offset 24
  87 0004 BDF81850 		ldrh	r5, [sp, #24]
  88 0008 BDF81C60 		ldrh	r6, [sp, #28]
  47:..\..\..\arduinoLCD\test\Pain Drain\libraries\lvgl\src\draw/lv_draw_arc.c ****     if(dsc->opa <= LV_OPA_MIN) return;
  89              		.loc 1 47 0
  90 000c 0C7B     		ldrb	r4, [r1, #12]	@ zero_extendqisi2
  91 000e 022C     		cmp	r4, #2
  92 0010 08D9     		bls	.L3
  48:..\..\..\arduinoLCD\test\Pain Drain\libraries\lvgl\src\draw/lv_draw_arc.c ****     if(dsc->width == 0) return;
  93              		.loc 1 48 0
  94 0012 B1F90240 		ldrsh	r4, [r1, #2]
  95 0016 2CB1     		cbz	r4, .L3
  49:..\..\..\arduinoLCD\test\Pain Drain\libraries\lvgl\src\draw/lv_draw_arc.c ****     if(start_angle == end_angle) return;
  96              		.loc 1 49 0
  97 0018 B542     		cmp	r5, r6
  98 001a 03D0     		beq	.L3
  50:..\..\..\arduinoLCD\test\Pain Drain\libraries\lvgl\src\draw/lv_draw_arc.c **** 
  51:..\..\..\arduinoLCD\test\Pain Drain\libraries\lvgl\src\draw/lv_draw_arc.c ****     draw_ctx->draw_arc(draw_ctx, dsc, center, radius, start_angle, end_angle);
  99              		.loc 1 51 0
 100 001c 4469     		ldr	r4, [r0, #20]
ARM GAS  C:\Users\haske\AppData\Local\Temp\cczDymCg.s 			page 14


 101 001e 0196     		str	r6, [sp, #4]
 102 0020 0095     		str	r5, [sp]
 103 0022 A047     		blx	r4
 104              	.LVL5:
 105              	.L3:
  52:..\..\..\arduinoLCD\test\Pain Drain\libraries\lvgl\src\draw/lv_draw_arc.c **** 
  53:..\..\..\arduinoLCD\test\Pain Drain\libraries\lvgl\src\draw/lv_draw_arc.c ****     //    const lv_draw_backend_t * backend = lv_draw_backend_get();
  54:..\..\..\arduinoLCD\test\Pain Drain\libraries\lvgl\src\draw/lv_draw_arc.c ****     //    backend->draw_arc(center_x, center_y, radius, start_angle, end_angle, clip_area, dsc);
  55:..\..\..\arduinoLCD\test\Pain Drain\libraries\lvgl\src\draw/lv_draw_arc.c **** }
 106              		.loc 1 55 0
 107 0024 02B0     		add	sp, sp, #8
 108              		.cfi_def_cfa_offset 16
 109              		@ sp needed
 110 0026 70BD     		pop	{r4, r5, r6, pc}
 111              		.cfi_endproc
 112              	.LFE56:
 113              		.size	lv_draw_arc, .-lv_draw_arc
 114              		.section	.text.lv_draw_arc_get_area,"ax",%progbits
 115              		.align	2
 116              		.global	lv_draw_arc_get_area
 117              		.thumb
 118              		.thumb_func
 119              		.type	lv_draw_arc_get_area, %function
 120              	lv_draw_arc_get_area:
 121              	.LFB57:
  56:..\..\..\arduinoLCD\test\Pain Drain\libraries\lvgl\src\draw/lv_draw_arc.c **** 
  57:..\..\..\arduinoLCD\test\Pain Drain\libraries\lvgl\src\draw/lv_draw_arc.c **** void lv_draw_arc_get_area(lv_coord_t x, lv_coord_t y, uint16_t radius,  uint16_t start_angle, uint1
  58:..\..\..\arduinoLCD\test\Pain Drain\libraries\lvgl\src\draw/lv_draw_arc.c ****                           lv_coord_t w, bool rounded, lv_area_t * area)
  59:..\..\..\arduinoLCD\test\Pain Drain\libraries\lvgl\src\draw/lv_draw_arc.c **** {
 122              		.loc 1 59 0
 123              		.cfi_startproc
 124              		@ args = 16, pretend = 0, frame = 16
 125              		@ frame_needed = 0, uses_anonymous_args = 0
 126              	.LVL6:
 127 0000 2DE9F04F 		push	{r4, r5, r6, r7, r8, r9, r10, fp, lr}
 128              		.cfi_def_cfa_offset 36
 129              		.cfi_offset 4, -36
 130              		.cfi_offset 5, -32
 131              		.cfi_offset 6, -28
 132              		.cfi_offset 7, -24
 133              		.cfi_offset 8, -20
 134              		.cfi_offset 9, -16
 135              		.cfi_offset 10, -12
 136              		.cfi_offset 11, -8
 137              		.cfi_offset 14, -4
 138 0004 85B0     		sub	sp, sp, #20
 139              		.cfi_def_cfa_offset 56
 140 0006 8346     		mov	fp, r0
 141 0008 0091     		str	r1, [sp]
 142 000a 1546     		mov	r5, r2
 143 000c 1E46     		mov	r6, r3
 144 000e BDF83840 		ldrh	r4, [sp, #56]
 145 0012 BDF93CA0 		ldrsh	r10, [sp, #60]
 146 0016 9DF84020 		ldrb	r2, [sp, #64]	@ zero_extendqisi2
 147              	.LVL7:
 148 001a 119F     		ldr	r7, [sp, #68]
 149              	.LVL8:
ARM GAS  C:\Users\haske\AppData\Local\Temp\cczDymCg.s 			page 15


  60:..\..\..\arduinoLCD\test\Pain Drain\libraries\lvgl\src\draw/lv_draw_arc.c ****     lv_coord_t rout = radius;
  61:..\..\..\arduinoLCD\test\Pain Drain\libraries\lvgl\src\draw/lv_draw_arc.c **** 
  62:..\..\..\arduinoLCD\test\Pain Drain\libraries\lvgl\src\draw/lv_draw_arc.c ****     /*Special case: full arc invalidation */
  63:..\..\..\arduinoLCD\test\Pain Drain\libraries\lvgl\src\draw/lv_draw_arc.c ****     if(end_angle == start_angle + 360) {
 150              		.loc 1 63 0
 151 001c 03F5B473 		add	r3, r3, #360
 152              	.LVL9:
 153 0020 9C42     		cmp	r4, r3
 154 0022 0BD1     		bne	.L7
  64:..\..\..\arduinoLCD\test\Pain Drain\libraries\lvgl\src\draw/lv_draw_arc.c ****         area->x1 = x - rout;
 155              		.loc 1 64 0
 156 0024 82B2     		uxth	r2, r0
 157 0026 531B     		subs	r3, r2, r5
 158 0028 3B80     		strh	r3, [r7]	@ movhi
  65:..\..\..\arduinoLCD\test\Pain Drain\libraries\lvgl\src\draw/lv_draw_arc.c ****         area->y1 = y - rout;
 159              		.loc 1 65 0
 160 002a BDF80030 		ldrh	r3, [sp]
 161 002e 591B     		subs	r1, r3, r5
 162              	.LVL10:
 163 0030 7980     		strh	r1, [r7, #2]	@ movhi
  66:..\..\..\arduinoLCD\test\Pain Drain\libraries\lvgl\src\draw/lv_draw_arc.c ****         area->x2 = x + rout;
 164              		.loc 1 66 0
 165 0032 2A44     		add	r2, r2, r5
 166 0034 BA80     		strh	r2, [r7, #4]	@ movhi
  67:..\..\..\arduinoLCD\test\Pain Drain\libraries\lvgl\src\draw/lv_draw_arc.c ****         area->y2 = y + rout;
 167              		.loc 1 67 0
 168 0036 1D44     		add	r5, r5, r3
 169              	.LVL11:
 170 0038 FD80     		strh	r5, [r7, #6]	@ movhi
  68:..\..\..\arduinoLCD\test\Pain Drain\libraries\lvgl\src\draw/lv_draw_arc.c ****         return;
 171              		.loc 1 68 0
 172 003a 22E2     		b	.L6
 173              	.LVL12:
 174              	.L7:
 175 003c 0FFA85F9 		sxth	r9, r5
  69:..\..\..\arduinoLCD\test\Pain Drain\libraries\lvgl\src\draw/lv_draw_arc.c ****     }
  70:..\..\..\arduinoLCD\test\Pain Drain\libraries\lvgl\src\draw/lv_draw_arc.c **** 
  71:..\..\..\arduinoLCD\test\Pain Drain\libraries\lvgl\src\draw/lv_draw_arc.c ****     if(start_angle > 360) start_angle -= 360;
 176              		.loc 1 71 0
 177 0040 B6F5B47F 		cmp	r6, #360
 178 0044 02D9     		bls	.L9
 179              		.loc 1 71 0 is_stmt 0 discriminator 1
 180 0046 A6F5B476 		sub	r6, r6, #360
 181 004a B6B2     		uxth	r6, r6
 182              	.LVL13:
 183              	.L9:
  72:..\..\..\arduinoLCD\test\Pain Drain\libraries\lvgl\src\draw/lv_draw_arc.c ****     if(end_angle > 360) end_angle -= 360;
 184              		.loc 1 72 0 is_stmt 1
 185 004c B4F5B47F 		cmp	r4, #360
 186 0050 02D9     		bls	.L10
 187              		.loc 1 72 0 is_stmt 0 discriminator 1
 188 0052 A4F5B474 		sub	r4, r4, #360
 189 0056 A4B2     		uxth	r4, r4
 190              	.LVL14:
 191              	.L10:
  73:..\..\..\arduinoLCD\test\Pain Drain\libraries\lvgl\src\draw/lv_draw_arc.c **** 
  74:..\..\..\arduinoLCD\test\Pain Drain\libraries\lvgl\src\draw/lv_draw_arc.c ****     lv_coord_t rin = radius - w;
ARM GAS  C:\Users\haske\AppData\Local\Temp\cczDymCg.s 			page 16


 192              		.loc 1 74 0 is_stmt 1
 193 0058 CAEB0508 		rsb	r8, r10, r5
 194 005c 0FFA88F8 		sxth	r8, r8
 195              	.LVL15:
  75:..\..\..\arduinoLCD\test\Pain Drain\libraries\lvgl\src\draw/lv_draw_arc.c ****     lv_coord_t extra_area = rounded ? w / 2 + 1 : 0;
 196              		.loc 1 75 0
 197 0060 42B1     		cbz	r2, .L30
 198              		.loc 1 75 0 is_stmt 0 discriminator 1
 199 0062 0AEBDA7A 		add	r10, r10, r10, lsr #31
 200 0066 4FEA6A0A 		asr	r10, r10, #1
 201 006a 0AF1010A 		add	r10, r10, #1
 202 006e 0FFA8AFA 		sxth	r10, r10
 203 0072 01E0     		b	.L11
 204              	.L30:
 205              		.loc 1 75 0
 206 0074 4FF0000A 		mov	r10, #0
 207              	.L11:
 208              	.LVL16:
  76:..\..\..\arduinoLCD\test\Pain Drain\libraries\lvgl\src\draw/lv_draw_arc.c ****     uint8_t start_quarter = start_angle / 90;
 209              		.loc 1 76 0 is_stmt 1 discriminator 4
 210 0078 7308     		lsrs	r3, r6, #1
 211 007a D349     		ldr	r1, .L34
 212              	.LVL17:
 213 007c A1FB0323 		umull	r2, r3, r1, r3
 214 0080 C3F34713 		ubfx	r3, r3, #5, #8
 215              	.LVL18:
  77:..\..\..\arduinoLCD\test\Pain Drain\libraries\lvgl\src\draw/lv_draw_arc.c ****     uint8_t end_quarter = end_angle / 90;
 216              		.loc 1 77 0 discriminator 4
 217 0084 6208     		lsrs	r2, r4, #1
 218 0086 A1FB0212 		umull	r1, r2, r1, r2
 219 008a C2F34712 		ubfx	r2, r2, #5, #8
 220              	.LVL19:
  78:..\..\..\arduinoLCD\test\Pain Drain\libraries\lvgl\src\draw/lv_draw_arc.c **** 
  79:..\..\..\arduinoLCD\test\Pain Drain\libraries\lvgl\src\draw/lv_draw_arc.c ****     /*360 deg still counts as quarter 3 (360 / 90 would be 4)*/
  80:..\..\..\arduinoLCD\test\Pain Drain\libraries\lvgl\src\draw/lv_draw_arc.c ****     if(start_quarter == 4) start_quarter = 3;
 221              		.loc 1 80 0 discriminator 4
 222 008e 042B     		cmp	r3, #4
 223 0090 00D1     		bne	.L12
 224              		.loc 1 80 0 is_stmt 0
 225 0092 0323     		movs	r3, #3
 226              	.LVL20:
 227              	.L12:
  81:..\..\..\arduinoLCD\test\Pain Drain\libraries\lvgl\src\draw/lv_draw_arc.c ****     if(end_quarter == 4) end_quarter = 3;
 228              		.loc 1 81 0 is_stmt 1
 229 0094 042A     		cmp	r2, #4
 230 0096 00D1     		bne	.L13
 231 0098 0322     		movs	r2, #3
 232              	.LVL21:
 233              	.L13:
  82:..\..\..\arduinoLCD\test\Pain Drain\libraries\lvgl\src\draw/lv_draw_arc.c **** 
  83:..\..\..\arduinoLCD\test\Pain Drain\libraries\lvgl\src\draw/lv_draw_arc.c ****     if(start_quarter == end_quarter && start_angle <= end_angle) {
 234              		.loc 1 83 0
 235 009a 9342     		cmp	r3, r2
 236 009c 40F0D280 		bne	.L14
 237              		.loc 1 83 0 is_stmt 0 discriminator 1
 238 00a0 A642     		cmp	r6, r4
 239 00a2 00F2CF80 		bhi	.L14
ARM GAS  C:\Users\haske\AppData\Local\Temp\cczDymCg.s 			page 17


  84:..\..\..\arduinoLCD\test\Pain Drain\libraries\lvgl\src\draw/lv_draw_arc.c ****         if(start_quarter == 0) {
 240              		.loc 1 84 0 is_stmt 1
 241 00a6 8BBB     		cbnz	r3, .L15
  85:..\..\..\arduinoLCD\test\Pain Drain\libraries\lvgl\src\draw/lv_draw_arc.c ****             area->y1 = y + ((lv_trigo_sin(start_angle) * rin) >> LV_TRIGO_SHIFT) - extra_area;
 242              		.loc 1 85 0
 243 00a8 30B2     		sxth	r0, r6
 244              	.LVL22:
 245 00aa FFF7FEFF 		bl	lv_trigo_sin
 246              	.LVL23:
 247 00ae 08FB00F0 		mul	r0, r8, r0
 248 00b2 BDF80050 		ldrh	r5, [sp]
 249              	.LVL24:
 250 00b6 1FFA8AFA 		uxth	r10, r10
 251 00ba 05EBE033 		add	r3, r5, r0, asr #15
 252 00be CAEB0303 		rsb	r3, r10, r3
 253 00c2 7B80     		strh	r3, [r7, #2]	@ movhi
  86:..\..\..\arduinoLCD\test\Pain Drain\libraries\lvgl\src\draw/lv_draw_arc.c ****             area->x2 = x + ((lv_trigo_sin(start_angle + 90) * rout) >> LV_TRIGO_SHIFT) + extra_area
 254              		.loc 1 86 0
 255 00c4 06F15A00 		add	r0, r6, #90
 256 00c8 00B2     		sxth	r0, r0
 257 00ca FFF7FEFF 		bl	lv_trigo_sin
 258              	.LVL25:
 259 00ce 09FB00F0 		mul	r0, r9, r0
 260 00d2 1FFA8BF6 		uxth	r6, fp
 261              	.LVL26:
 262 00d6 06EBE033 		add	r3, r6, r0, asr #15
 263 00da 5344     		add	r3, r3, r10
 264 00dc BB80     		strh	r3, [r7, #4]	@ movhi
  87:..\..\..\arduinoLCD\test\Pain Drain\libraries\lvgl\src\draw/lv_draw_arc.c **** 
  88:..\..\..\arduinoLCD\test\Pain Drain\libraries\lvgl\src\draw/lv_draw_arc.c ****             area->y2 = y + ((lv_trigo_sin(end_angle) * rout) >> LV_TRIGO_SHIFT) + extra_area;
 265              		.loc 1 88 0
 266 00de 20B2     		sxth	r0, r4
 267 00e0 FFF7FEFF 		bl	lv_trigo_sin
 268              	.LVL27:
 269 00e4 09FB00F0 		mul	r0, r9, r0
 270 00e8 05EBE035 		add	r5, r5, r0, asr #15
 271 00ec 5544     		add	r5, r5, r10
 272 00ee FD80     		strh	r5, [r7, #6]	@ movhi
  89:..\..\..\arduinoLCD\test\Pain Drain\libraries\lvgl\src\draw/lv_draw_arc.c ****             area->x1 = x + ((lv_trigo_sin(end_angle + 90) * rin) >> LV_TRIGO_SHIFT) - extra_area;
 273              		.loc 1 89 0
 274 00f0 04F15A00 		add	r0, r4, #90
 275 00f4 00B2     		sxth	r0, r0
 276 00f6 FFF7FEFF 		bl	lv_trigo_sin
 277              	.LVL28:
 278 00fa 08FB00F0 		mul	r0, r8, r0
 279 00fe 06EBE036 		add	r6, r6, r0, asr #15
 280 0102 CAEB060A 		rsb	r10, r10, r6
 281              	.LVL29:
 282 0106 A7F800A0 		strh	r10, [r7]	@ movhi
 283 010a BAE1     		b	.L6
 284              	.LVL30:
 285              	.L15:
  90:..\..\..\arduinoLCD\test\Pain Drain\libraries\lvgl\src\draw/lv_draw_arc.c ****         }
  91:..\..\..\arduinoLCD\test\Pain Drain\libraries\lvgl\src\draw/lv_draw_arc.c ****         else if(start_quarter == 1) {
 286              		.loc 1 91 0
 287 010c 012B     		cmp	r3, #1
 288 010e 31D1     		bne	.L16
ARM GAS  C:\Users\haske\AppData\Local\Temp\cczDymCg.s 			page 18


  92:..\..\..\arduinoLCD\test\Pain Drain\libraries\lvgl\src\draw/lv_draw_arc.c ****             area->y2 = y + ((lv_trigo_sin(start_angle) * rout) >> LV_TRIGO_SHIFT) + extra_area;
 289              		.loc 1 92 0
 290 0110 30B2     		sxth	r0, r6
 291              	.LVL31:
 292 0112 FFF7FEFF 		bl	lv_trigo_sin
 293              	.LVL32:
 294 0116 09FB00F0 		mul	r0, r9, r0
 295 011a BDF80050 		ldrh	r5, [sp]
 296              	.LVL33:
 297 011e 1FFA8AFA 		uxth	r10, r10
 298 0122 05EBE033 		add	r3, r5, r0, asr #15
 299 0126 5344     		add	r3, r3, r10
 300 0128 FB80     		strh	r3, [r7, #6]	@ movhi
  93:..\..\..\arduinoLCD\test\Pain Drain\libraries\lvgl\src\draw/lv_draw_arc.c ****             area->x2 = x + ((lv_trigo_sin(start_angle + 90) * rin) >> LV_TRIGO_SHIFT) + extra_area;
 301              		.loc 1 93 0
 302 012a 06F15A00 		add	r0, r6, #90
 303 012e 00B2     		sxth	r0, r0
 304 0130 FFF7FEFF 		bl	lv_trigo_sin
 305              	.LVL34:
 306 0134 08FB00F0 		mul	r0, r8, r0
 307 0138 1FFA8BF6 		uxth	r6, fp
 308              	.LVL35:
 309 013c 06EBE033 		add	r3, r6, r0, asr #15
 310 0140 5344     		add	r3, r3, r10
 311 0142 BB80     		strh	r3, [r7, #4]	@ movhi
  94:..\..\..\arduinoLCD\test\Pain Drain\libraries\lvgl\src\draw/lv_draw_arc.c **** 
  95:..\..\..\arduinoLCD\test\Pain Drain\libraries\lvgl\src\draw/lv_draw_arc.c ****             area->y1 = y + ((lv_trigo_sin(end_angle) * rin) >> LV_TRIGO_SHIFT) - extra_area;
 312              		.loc 1 95 0
 313 0144 20B2     		sxth	r0, r4
 314 0146 FFF7FEFF 		bl	lv_trigo_sin
 315              	.LVL36:
 316 014a 08FB00F0 		mul	r0, r8, r0
 317 014e 05EBE033 		add	r3, r5, r0, asr #15
 318 0152 CAEB0303 		rsb	r3, r10, r3
 319 0156 7B80     		strh	r3, [r7, #2]	@ movhi
  96:..\..\..\arduinoLCD\test\Pain Drain\libraries\lvgl\src\draw/lv_draw_arc.c ****             area->x1 = x + ((lv_trigo_sin(end_angle + 90) * rout) >> LV_TRIGO_SHIFT) - extra_area;
 320              		.loc 1 96 0
 321 0158 04F15A00 		add	r0, r4, #90
 322 015c 00B2     		sxth	r0, r0
 323 015e FFF7FEFF 		bl	lv_trigo_sin
 324              	.LVL37:
 325 0162 09FB00F0 		mul	r0, r9, r0
 326 0166 06EBE036 		add	r6, r6, r0, asr #15
 327 016a CAEB060A 		rsb	r10, r10, r6
 328              	.LVL38:
 329 016e A7F800A0 		strh	r10, [r7]	@ movhi
 330 0172 86E1     		b	.L6
 331              	.LVL39:
 332              	.L16:
  97:..\..\..\arduinoLCD\test\Pain Drain\libraries\lvgl\src\draw/lv_draw_arc.c ****         }
  98:..\..\..\arduinoLCD\test\Pain Drain\libraries\lvgl\src\draw/lv_draw_arc.c ****         else if(start_quarter == 2) {
 333              		.loc 1 98 0
 334 0174 022B     		cmp	r3, #2
 335 0176 30D1     		bne	.L17
  99:..\..\..\arduinoLCD\test\Pain Drain\libraries\lvgl\src\draw/lv_draw_arc.c ****             area->x1 = x + ((lv_trigo_sin(start_angle + 90) * rout) >> LV_TRIGO_SHIFT) - extra_area
 336              		.loc 1 99 0
 337 0178 06F15A00 		add	r0, r6, #90
ARM GAS  C:\Users\haske\AppData\Local\Temp\cczDymCg.s 			page 19


 338              	.LVL40:
 339 017c 00B2     		sxth	r0, r0
 340 017e FFF7FEFF 		bl	lv_trigo_sin
 341              	.LVL41:
 342 0182 09FB00F0 		mul	r0, r9, r0
 343 0186 1FFA8BF5 		uxth	r5, fp
 344              	.LVL42:
 345 018a 1FFA8AFA 		uxth	r10, r10
 346 018e 05EBE033 		add	r3, r5, r0, asr #15
 347 0192 CAEB0303 		rsb	r3, r10, r3
 348 0196 3B80     		strh	r3, [r7]	@ movhi
 100:..\..\..\arduinoLCD\test\Pain Drain\libraries\lvgl\src\draw/lv_draw_arc.c ****             area->y2 = y + ((lv_trigo_sin(start_angle) * rin) >> LV_TRIGO_SHIFT) + extra_area;
 349              		.loc 1 100 0
 350 0198 30B2     		sxth	r0, r6
 351 019a FFF7FEFF 		bl	lv_trigo_sin
 352              	.LVL43:
 353 019e 08FB00F0 		mul	r0, r8, r0
 354 01a2 BDF80060 		ldrh	r6, [sp]
 355              	.LVL44:
 356 01a6 06EBE033 		add	r3, r6, r0, asr #15
 357 01aa 5344     		add	r3, r3, r10
 358 01ac FB80     		strh	r3, [r7, #6]	@ movhi
 101:..\..\..\arduinoLCD\test\Pain Drain\libraries\lvgl\src\draw/lv_draw_arc.c **** 
 102:..\..\..\arduinoLCD\test\Pain Drain\libraries\lvgl\src\draw/lv_draw_arc.c ****             area->y1 = y + ((lv_trigo_sin(end_angle) * rout) >> LV_TRIGO_SHIFT) - extra_area;
 359              		.loc 1 102 0
 360 01ae 20B2     		sxth	r0, r4
 361 01b0 FFF7FEFF 		bl	lv_trigo_sin
 362              	.LVL45:
 363 01b4 09FB00F0 		mul	r0, r9, r0
 364 01b8 06EBE033 		add	r3, r6, r0, asr #15
 365 01bc CAEB0303 		rsb	r3, r10, r3
 366 01c0 7B80     		strh	r3, [r7, #2]	@ movhi
 103:..\..\..\arduinoLCD\test\Pain Drain\libraries\lvgl\src\draw/lv_draw_arc.c ****             area->x2 = x + ((lv_trigo_sin(end_angle + 90) * rin) >> LV_TRIGO_SHIFT) + extra_area;
 367              		.loc 1 103 0
 368 01c2 04F15A00 		add	r0, r4, #90
 369 01c6 00B2     		sxth	r0, r0
 370 01c8 FFF7FEFF 		bl	lv_trigo_sin
 371              	.LVL46:
 372 01cc 08FB00F0 		mul	r0, r8, r0
 373 01d0 05EBE033 		add	r3, r5, r0, asr #15
 374 01d4 5344     		add	r3, r3, r10
 375 01d6 BB80     		strh	r3, [r7, #4]	@ movhi
 376 01d8 53E1     		b	.L6
 377              	.LVL47:
 378              	.L17:
 104:..\..\..\arduinoLCD\test\Pain Drain\libraries\lvgl\src\draw/lv_draw_arc.c ****         }
 105:..\..\..\arduinoLCD\test\Pain Drain\libraries\lvgl\src\draw/lv_draw_arc.c ****         else if(start_quarter == 3) {
 379              		.loc 1 105 0
 380 01da 032B     		cmp	r3, #3
 381 01dc 40F05181 		bne	.L6
 106:..\..\..\arduinoLCD\test\Pain Drain\libraries\lvgl\src\draw/lv_draw_arc.c ****             area->x1 = x + ((lv_trigo_sin(start_angle + 90) * rin) >> LV_TRIGO_SHIFT) - extra_area;
 382              		.loc 1 106 0
 383 01e0 06F15A00 		add	r0, r6, #90
 384              	.LVL48:
 385 01e4 00B2     		sxth	r0, r0
 386 01e6 FFF7FEFF 		bl	lv_trigo_sin
 387              	.LVL49:
ARM GAS  C:\Users\haske\AppData\Local\Temp\cczDymCg.s 			page 20


 388 01ea 08FB00F0 		mul	r0, r8, r0
 389 01ee 1FFA8BF5 		uxth	r5, fp
 390              	.LVL50:
 391 01f2 1FFA8AFA 		uxth	r10, r10
 392 01f6 05EBE033 		add	r3, r5, r0, asr #15
 393 01fa CAEB0303 		rsb	r3, r10, r3
 394 01fe 3B80     		strh	r3, [r7]	@ movhi
 107:..\..\..\arduinoLCD\test\Pain Drain\libraries\lvgl\src\draw/lv_draw_arc.c ****             area->y1 = y + ((lv_trigo_sin(start_angle) * rout) >> LV_TRIGO_SHIFT) - extra_area;
 395              		.loc 1 107 0
 396 0200 30B2     		sxth	r0, r6
 397 0202 FFF7FEFF 		bl	lv_trigo_sin
 398              	.LVL51:
 399 0206 09FB00F0 		mul	r0, r9, r0
 400 020a BDF80060 		ldrh	r6, [sp]
 401              	.LVL52:
 402 020e 06EBE033 		add	r3, r6, r0, asr #15
 403 0212 CAEB0303 		rsb	r3, r10, r3
 404 0216 7B80     		strh	r3, [r7, #2]	@ movhi
 108:..\..\..\arduinoLCD\test\Pain Drain\libraries\lvgl\src\draw/lv_draw_arc.c **** 
 109:..\..\..\arduinoLCD\test\Pain Drain\libraries\lvgl\src\draw/lv_draw_arc.c ****             area->x2 = x + ((lv_trigo_sin(end_angle + 90) * rout) >> LV_TRIGO_SHIFT) + extra_area;
 405              		.loc 1 109 0
 406 0218 04F15A00 		add	r0, r4, #90
 407 021c 00B2     		sxth	r0, r0
 408 021e FFF7FEFF 		bl	lv_trigo_sin
 409              	.LVL53:
 410 0222 09FB00F0 		mul	r0, r9, r0
 411 0226 05EBE033 		add	r3, r5, r0, asr #15
 412 022a 5344     		add	r3, r3, r10
 413 022c BB80     		strh	r3, [r7, #4]	@ movhi
 110:..\..\..\arduinoLCD\test\Pain Drain\libraries\lvgl\src\draw/lv_draw_arc.c ****             area->y2 = y + ((lv_trigo_sin(end_angle) * rin) >> LV_TRIGO_SHIFT) + extra_area;
 414              		.loc 1 110 0
 415 022e 20B2     		sxth	r0, r4
 416 0230 FFF7FEFF 		bl	lv_trigo_sin
 417              	.LVL54:
 418 0234 08FB00F0 		mul	r0, r8, r0
 419 0238 06EBE036 		add	r6, r6, r0, asr #15
 420 023c B244     		add	r10, r10, r6
 421              	.LVL55:
 422 023e A7F806A0 		strh	r10, [r7, #6]	@ movhi
 423 0242 1EE1     		b	.L6
 424              	.LVL56:
 425              	.L14:
 111:..\..\..\arduinoLCD\test\Pain Drain\libraries\lvgl\src\draw/lv_draw_arc.c ****         }
 112:..\..\..\arduinoLCD\test\Pain Drain\libraries\lvgl\src\draw/lv_draw_arc.c ****     }
 113:..\..\..\arduinoLCD\test\Pain Drain\libraries\lvgl\src\draw/lv_draw_arc.c ****     else if(start_quarter == 0 && end_quarter == 1) {
 426              		.loc 1 113 0
 427 0244 002B     		cmp	r3, #0
 428 0246 3FD1     		bne	.L18
 429              		.loc 1 113 0 is_stmt 0 discriminator 1
 430 0248 012A     		cmp	r2, #1
 431 024a 3DD1     		bne	.L18
 114:..\..\..\arduinoLCD\test\Pain Drain\libraries\lvgl\src\draw/lv_draw_arc.c ****         area->x1 = x + ((lv_trigo_sin(end_angle + 90) * rout) >> LV_TRIGO_SHIFT) - extra_area;
 432              		.loc 1 114 0 is_stmt 1
 433 024c 04F15A00 		add	r0, r4, #90
 434              	.LVL57:
 435 0250 00B2     		sxth	r0, r0
 436 0252 FFF7FEFF 		bl	lv_trigo_sin
ARM GAS  C:\Users\haske\AppData\Local\Temp\cczDymCg.s 			page 21


 437              	.LVL58:
 438 0256 09FB00F0 		mul	r0, r9, r0
 439 025a 1FFA8BF3 		uxth	r3, fp
 440 025e 0193     		str	r3, [sp, #4]
 441 0260 1FFA8AFB 		uxth	fp, r10
 442 0264 03EBE033 		add	r3, r3, r0, asr #15
 443 0268 CBEB0303 		rsb	r3, fp, r3
 444 026c 3B80     		strh	r3, [r7]	@ movhi
 115:..\..\..\arduinoLCD\test\Pain Drain\libraries\lvgl\src\draw/lv_draw_arc.c ****         area->y1 = y + ((LV_MIN(lv_trigo_sin(end_angle),
 445              		.loc 1 115 0
 446 026e 24B2     		sxth	r4, r4
 447 0270 2046     		mov	r0, r4
 448 0272 FFF7FEFF 		bl	lv_trigo_sin
 449              	.LVL59:
 450 0276 0290     		str	r0, [sp, #8]
 451 0278 0FFA86FA 		sxth	r10, r6
 452              	.LVL60:
 453 027c 5046     		mov	r0, r10
 454 027e FFF7FEFF 		bl	lv_trigo_sin
 455              	.LVL61:
 456 0282 029B     		ldr	r3, [sp, #8]
 457 0284 8342     		cmp	r3, r0
 458 0286 03DA     		bge	.L19
 459              		.loc 1 115 0 is_stmt 0 discriminator 1
 460 0288 2046     		mov	r0, r4
 461 028a FFF7FEFF 		bl	lv_trigo_sin
 462              	.LVL62:
 463 028e 02E0     		b	.L20
 464              	.L19:
 465              		.loc 1 115 0 discriminator 2
 466 0290 5046     		mov	r0, r10
 467 0292 FFF7FEFF 		bl	lv_trigo_sin
 468              	.LVL63:
 469              	.L20:
 116:..\..\..\arduinoLCD\test\Pain Drain\libraries\lvgl\src\draw/lv_draw_arc.c ****                                 lv_trigo_sin(start_angle))  * rin) >> LV_TRIGO_SHIFT) - extra_area;
 470              		.loc 1 116 0 is_stmt 1
 471 0296 00FB08F3 		mul	r3, r0, r8
 115:..\..\..\arduinoLCD\test\Pain Drain\libraries\lvgl\src\draw/lv_draw_arc.c ****         area->y1 = y + ((LV_MIN(lv_trigo_sin(end_angle),
 472              		.loc 1 115 0
 473 029a BDF80040 		ldrh	r4, [sp]
 474              	.LVL64:
 475 029e 04EBE333 		add	r3, r4, r3, asr #15
 476 02a2 CBEB0303 		rsb	r3, fp, r3
 477 02a6 7B80     		strh	r3, [r7, #2]	@ movhi
 117:..\..\..\arduinoLCD\test\Pain Drain\libraries\lvgl\src\draw/lv_draw_arc.c ****         area->x2 = x + ((lv_trigo_sin(start_angle + 90) * rout) >> LV_TRIGO_SHIFT) + extra_area;
 478              		.loc 1 117 0
 479 02a8 06F15A00 		add	r0, r6, #90
 480 02ac 00B2     		sxth	r0, r0
 481 02ae FFF7FEFF 		bl	lv_trigo_sin
 482              	.LVL65:
 483 02b2 09FB00F0 		mul	r0, r9, r0
 484 02b6 019B     		ldr	r3, [sp, #4]
 485 02b8 03EBE033 		add	r3, r3, r0, asr #15
 486 02bc 5B44     		add	r3, r3, fp
 487 02be BB80     		strh	r3, [r7, #4]	@ movhi
 118:..\..\..\arduinoLCD\test\Pain Drain\libraries\lvgl\src\draw/lv_draw_arc.c ****         area->y2 = y + rout + extra_area;
 488              		.loc 1 118 0
ARM GAS  C:\Users\haske\AppData\Local\Temp\cczDymCg.s 			page 22


 489 02c0 2C44     		add	r4, r4, r5
 490 02c2 5C44     		add	r4, r4, fp
 491 02c4 FC80     		strh	r4, [r7, #6]	@ movhi
 492 02c6 DCE0     		b	.L6
 493              	.LVL66:
 494              	.L18:
 119:..\..\..\arduinoLCD\test\Pain Drain\libraries\lvgl\src\draw/lv_draw_arc.c ****     }
 120:..\..\..\arduinoLCD\test\Pain Drain\libraries\lvgl\src\draw/lv_draw_arc.c ****     else if(start_quarter == 1 && end_quarter == 2) {
 495              		.loc 1 120 0
 496 02c8 012B     		cmp	r3, #1
 497 02ca 3FD1     		bne	.L21
 498              		.loc 1 120 0 is_stmt 0 discriminator 1
 499 02cc 022A     		cmp	r2, #2
 500 02ce 3DD1     		bne	.L21
 121:..\..\..\arduinoLCD\test\Pain Drain\libraries\lvgl\src\draw/lv_draw_arc.c ****         area->x1 = x - rout - extra_area;
 501              		.loc 1 121 0 is_stmt 1
 502 02d0 1FFA8BFB 		uxth	fp, fp
 503 02d4 1FFA8AFA 		uxth	r10, r10
 504 02d8 C5EB0B05 		rsb	r5, r5, fp
 505              	.LVL67:
 506 02dc CAEB0505 		rsb	r5, r10, r5
 507 02e0 3D80     		strh	r5, [r7]	@ movhi
 122:..\..\..\arduinoLCD\test\Pain Drain\libraries\lvgl\src\draw/lv_draw_arc.c ****         area->y1 = y + ((lv_trigo_sin(end_angle) * rout) >> LV_TRIGO_SHIFT) - extra_area;
 508              		.loc 1 122 0
 509 02e2 20B2     		sxth	r0, r4
 510              	.LVL68:
 511 02e4 FFF7FEFF 		bl	lv_trigo_sin
 512              	.LVL69:
 513 02e8 09FB00F0 		mul	r0, r9, r0
 514 02ec BDF80050 		ldrh	r5, [sp]
 515 02f0 05EBE033 		add	r3, r5, r0, asr #15
 516 02f4 CAEB0303 		rsb	r3, r10, r3
 517 02f8 7B80     		strh	r3, [r7, #2]	@ movhi
 123:..\..\..\arduinoLCD\test\Pain Drain\libraries\lvgl\src\draw/lv_draw_arc.c ****         area->x2 = x + ((LV_MAX(lv_trigo_sin(start_angle + 90),
 518              		.loc 1 123 0
 519 02fa 06F15A03 		add	r3, r6, #90
 520 02fe 1BB2     		sxth	r3, r3
 521 0300 0193     		str	r3, [sp, #4]
 522 0302 1846     		mov	r0, r3
 523 0304 FFF7FEFF 		bl	lv_trigo_sin
 524              	.LVL70:
 525 0308 0090     		str	r0, [sp]
 526 030a 5A34     		adds	r4, r4, #90
 527              	.LVL71:
 528 030c 24B2     		sxth	r4, r4
 529 030e 2046     		mov	r0, r4
 530 0310 FFF7FEFF 		bl	lv_trigo_sin
 531              	.LVL72:
 532 0314 009A     		ldr	r2, [sp]
 533 0316 8242     		cmp	r2, r0
 534 0318 03DD     		ble	.L22
 535              		.loc 1 123 0 is_stmt 0 discriminator 1
 536 031a 0198     		ldr	r0, [sp, #4]
 537 031c FFF7FEFF 		bl	lv_trigo_sin
 538              	.LVL73:
 539 0320 02E0     		b	.L23
 540              	.L22:
ARM GAS  C:\Users\haske\AppData\Local\Temp\cczDymCg.s 			page 23


 541              		.loc 1 123 0 discriminator 2
 542 0322 2046     		mov	r0, r4
 543 0324 FFF7FEFF 		bl	lv_trigo_sin
 544              	.LVL74:
 545              	.L23:
 124:..\..\..\arduinoLCD\test\Pain Drain\libraries\lvgl\src\draw/lv_draw_arc.c ****                                 lv_trigo_sin(end_angle + 90)) * rin) >> LV_TRIGO_SHIFT) + extra_are
 546              		.loc 1 124 0 is_stmt 1
 547 0328 00FB08F8 		mul	r8, r0, r8
 548              	.LVL75:
 123:..\..\..\arduinoLCD\test\Pain Drain\libraries\lvgl\src\draw/lv_draw_arc.c ****         area->x2 = x + ((LV_MAX(lv_trigo_sin(start_angle + 90),
 549              		.loc 1 123 0
 550 032c 0BEBE83B 		add	fp, fp, r8, asr #15
 551 0330 D344     		add	fp, fp, r10
 552 0332 A7F804B0 		strh	fp, [r7, #4]	@ movhi
 125:..\..\..\arduinoLCD\test\Pain Drain\libraries\lvgl\src\draw/lv_draw_arc.c ****         area->y2 = y + ((lv_trigo_sin(start_angle) * rout) >> LV_TRIGO_SHIFT) + extra_area;
 553              		.loc 1 125 0
 554 0336 30B2     		sxth	r0, r6
 555 0338 FFF7FEFF 		bl	lv_trigo_sin
 556              	.LVL76:
 557 033c 09FB00F0 		mul	r0, r9, r0
 558 0340 05EBE035 		add	r5, r5, r0, asr #15
 559 0344 AA44     		add	r10, r10, r5
 560              	.LVL77:
 561 0346 A7F806A0 		strh	r10, [r7, #6]	@ movhi
 562 034a 9AE0     		b	.L6
 563              	.LVL78:
 564              	.L21:
 126:..\..\..\arduinoLCD\test\Pain Drain\libraries\lvgl\src\draw/lv_draw_arc.c ****     }
 127:..\..\..\arduinoLCD\test\Pain Drain\libraries\lvgl\src\draw/lv_draw_arc.c ****     else if(start_quarter == 2 && end_quarter == 3) {
 565              		.loc 1 127 0
 566 034c 022B     		cmp	r3, #2
 567 034e 4AD1     		bne	.L24
 568              		.loc 1 127 0 is_stmt 0 discriminator 1
 569 0350 032A     		cmp	r2, #3
 570 0352 48D1     		bne	.L24
 128:..\..\..\arduinoLCD\test\Pain Drain\libraries\lvgl\src\draw/lv_draw_arc.c ****         area->x1 = x + ((lv_trigo_sin(start_angle + 90) * rout) >> LV_TRIGO_SHIFT) - extra_area;
 571              		.loc 1 128 0 is_stmt 1
 572 0354 06F15A00 		add	r0, r6, #90
 573              	.LVL79:
 574 0358 00B2     		sxth	r0, r0
 575 035a FFF7FEFF 		bl	lv_trigo_sin
 576              	.LVL80:
 577 035e 09FB00F0 		mul	r0, r9, r0
 578 0362 1FFA8BFB 		uxth	fp, fp
 579 0366 1FFA8AFA 		uxth	r10, r10
 580 036a 0BEBE033 		add	r3, fp, r0, asr #15
 581 036e CAEB0303 		rsb	r3, r10, r3
 582 0372 3B80     		strh	r3, [r7]	@ movhi
 129:..\..\..\arduinoLCD\test\Pain Drain\libraries\lvgl\src\draw/lv_draw_arc.c ****         area->y1 = y - rout - extra_area;
 583              		.loc 1 129 0
 584 0374 BDF80030 		ldrh	r3, [sp]
 585 0378 0093     		str	r3, [sp]
 586 037a 5D1B     		subs	r5, r3, r5
 587              	.LVL81:
 588 037c CAEB0505 		rsb	r5, r10, r5
 589 0380 7D80     		strh	r5, [r7, #2]	@ movhi
 130:..\..\..\arduinoLCD\test\Pain Drain\libraries\lvgl\src\draw/lv_draw_arc.c ****         area->x2 = x + ((lv_trigo_sin(end_angle + 90) * rout) >> LV_TRIGO_SHIFT) + extra_area;
ARM GAS  C:\Users\haske\AppData\Local\Temp\cczDymCg.s 			page 24


 590              		.loc 1 130 0
 591 0382 04F15A00 		add	r0, r4, #90
 592 0386 00B2     		sxth	r0, r0
 593 0388 FFF7FEFF 		bl	lv_trigo_sin
 594              	.LVL82:
 595 038c 09FB00F0 		mul	r0, r9, r0
 596 0390 0BEBE03B 		add	fp, fp, r0, asr #15
 597 0394 D344     		add	fp, fp, r10
 598 0396 A7F804B0 		strh	fp, [r7, #4]	@ movhi
 131:..\..\..\arduinoLCD\test\Pain Drain\libraries\lvgl\src\draw/lv_draw_arc.c ****         area->y2 = y + (LV_MAX(lv_trigo_sin(end_angle) * rin,
 599              		.loc 1 131 0
 600 039a 24B2     		sxth	r4, r4
 601 039c 2046     		mov	r0, r4
 602 039e FFF7FEFF 		bl	lv_trigo_sin
 603              	.LVL83:
 604 03a2 08FB00F5 		mul	r5, r8, r0
 605 03a6 36B2     		sxth	r6, r6
 606 03a8 3046     		mov	r0, r6
 607 03aa FFF7FEFF 		bl	lv_trigo_sin
 608              	.LVL84:
 609 03ae 08FB00F0 		mul	r0, r8, r0
 610 03b2 8542     		cmp	r5, r0
 611 03b4 0ADD     		ble	.L25
 612              		.loc 1 131 0 is_stmt 0 discriminator 1
 613 03b6 2046     		mov	r0, r4
 614 03b8 FFF7FEFF 		bl	lv_trigo_sin
 615              	.LVL85:
 616 03bc 08FB00F0 		mul	r0, r8, r0
 617 03c0 C0F3CF33 		ubfx	r3, r0, #15, #16
 618 03c4 09E0     		b	.L26
 619              	.L35:
 620 03c6 00BF     		.align	2
 621              	.L34:
 622 03c8 B7600BB6 		.word	-1240768329
 623              	.L25:
 624              		.loc 1 131 0 discriminator 2
 625 03cc 3046     		mov	r0, r6
 626 03ce FFF7FEFF 		bl	lv_trigo_sin
 627              	.LVL86:
 628 03d2 08FB00F0 		mul	r0, r8, r0
 629 03d6 C0F3CF33 		ubfx	r3, r0, #15, #16
 630              	.L26:
 631              		.loc 1 131 0 discriminator 4
 632 03da 009A     		ldr	r2, [sp]
 633 03dc 1344     		add	r3, r3, r2
 634 03de 9A44     		add	r10, r10, r3
 635              	.LVL87:
 636 03e0 A7F806A0 		strh	r10, [r7, #6]	@ movhi
 637 03e4 4DE0     		b	.L6
 638              	.LVL88:
 639              	.L24:
 132:..\..\..\arduinoLCD\test\Pain Drain\libraries\lvgl\src\draw/lv_draw_arc.c ****                                lv_trigo_sin(start_angle) * rin) >> LV_TRIGO_SHIFT) + extra_area;
 133:..\..\..\arduinoLCD\test\Pain Drain\libraries\lvgl\src\draw/lv_draw_arc.c ****     }
 134:..\..\..\arduinoLCD\test\Pain Drain\libraries\lvgl\src\draw/lv_draw_arc.c ****     else if(start_quarter == 3 && end_quarter == 0) {
 640              		.loc 1 134 0 is_stmt 1
 641 03e6 032B     		cmp	r3, #3
 642 03e8 3FD1     		bne	.L27
ARM GAS  C:\Users\haske\AppData\Local\Temp\cczDymCg.s 			page 25


 643              		.loc 1 134 0 is_stmt 0 discriminator 1
 644 03ea 002A     		cmp	r2, #0
 645 03ec 3DD1     		bne	.L27
 135:..\..\..\arduinoLCD\test\Pain Drain\libraries\lvgl\src\draw/lv_draw_arc.c ****         area->x1 = x + ((LV_MIN(lv_trigo_sin(end_angle + 90),
 646              		.loc 1 135 0 is_stmt 1
 647 03ee 04F15A03 		add	r3, r4, #90
 648              	.LVL89:
 649 03f2 1BB2     		sxth	r3, r3
 650 03f4 0293     		str	r3, [sp, #8]
 651 03f6 1846     		mov	r0, r3
 652              	.LVL90:
 653 03f8 FFF7FEFF 		bl	lv_trigo_sin
 654              	.LVL91:
 655 03fc 0190     		str	r0, [sp, #4]
 656 03fe 06F15A03 		add	r3, r6, #90
 657 0402 19B2     		sxth	r1, r3
 658 0404 0391     		str	r1, [sp, #12]
 659 0406 0846     		mov	r0, r1
 660 0408 FFF7FEFF 		bl	lv_trigo_sin
 661              	.LVL92:
 662 040c 019A     		ldr	r2, [sp, #4]
 663 040e 8242     		cmp	r2, r0
 664 0410 03DA     		bge	.L28
 665              		.loc 1 135 0 is_stmt 0 discriminator 1
 666 0412 0298     		ldr	r0, [sp, #8]
 667 0414 FFF7FEFF 		bl	lv_trigo_sin
 668              	.LVL93:
 669 0418 02E0     		b	.L29
 670              	.L28:
 671              		.loc 1 135 0 discriminator 2
 672 041a 0398     		ldr	r0, [sp, #12]
 673 041c FFF7FEFF 		bl	lv_trigo_sin
 674              	.LVL94:
 675              	.L29:
 136:..\..\..\arduinoLCD\test\Pain Drain\libraries\lvgl\src\draw/lv_draw_arc.c ****                                 lv_trigo_sin(start_angle + 90)) * rin) >> LV_TRIGO_SHIFT) - extra_a
 676              		.loc 1 136 0 is_stmt 1
 677 0420 00FB08F3 		mul	r3, r0, r8
 135:..\..\..\arduinoLCD\test\Pain Drain\libraries\lvgl\src\draw/lv_draw_arc.c ****         area->x1 = x + ((LV_MIN(lv_trigo_sin(end_angle + 90),
 678              		.loc 1 135 0
 679 0424 1FFA8BFB 		uxth	fp, fp
 680 0428 1FFA8AFA 		uxth	r10, r10
 681 042c 0BEBE333 		add	r3, fp, r3, asr #15
 682 0430 CAEB0303 		rsb	r3, r10, r3
 683 0434 3B80     		strh	r3, [r7]	@ movhi
 137:..\..\..\arduinoLCD\test\Pain Drain\libraries\lvgl\src\draw/lv_draw_arc.c ****         area->y1 = y + ((lv_trigo_sin(start_angle) * rout) >> LV_TRIGO_SHIFT) - extra_area;
 684              		.loc 1 137 0
 685 0436 30B2     		sxth	r0, r6
 686 0438 FFF7FEFF 		bl	lv_trigo_sin
 687              	.LVL95:
 688 043c 09FB00F0 		mul	r0, r9, r0
 689 0440 BDF80060 		ldrh	r6, [sp]
 690              	.LVL96:
 691 0444 06EBE033 		add	r3, r6, r0, asr #15
 692 0448 CAEB0303 		rsb	r3, r10, r3
 693 044c 7B80     		strh	r3, [r7, #2]	@ movhi
 138:..\..\..\arduinoLCD\test\Pain Drain\libraries\lvgl\src\draw/lv_draw_arc.c ****         area->x2 = x + rout + extra_area;
 694              		.loc 1 138 0
ARM GAS  C:\Users\haske\AppData\Local\Temp\cczDymCg.s 			page 26


 695 044e 5D44     		add	r5, r5, fp
 696              	.LVL97:
 697 0450 5544     		add	r5, r5, r10
 698 0452 BD80     		strh	r5, [r7, #4]	@ movhi
 139:..\..\..\arduinoLCD\test\Pain Drain\libraries\lvgl\src\draw/lv_draw_arc.c ****         area->y2 = y + ((lv_trigo_sin(end_angle) * rout) >> LV_TRIGO_SHIFT) + extra_area;
 699              		.loc 1 139 0
 700 0454 20B2     		sxth	r0, r4
 701 0456 FFF7FEFF 		bl	lv_trigo_sin
 702              	.LVL98:
 703 045a 09FB00F0 		mul	r0, r9, r0
 704 045e 06EBE030 		add	r0, r6, r0, asr #15
 705 0462 8244     		add	r10, r10, r0
 706              	.LVL99:
 707 0464 A7F806A0 		strh	r10, [r7, #6]	@ movhi
 708 0468 0BE0     		b	.L6
 709              	.LVL100:
 710              	.L27:
 140:..\..\..\arduinoLCD\test\Pain Drain\libraries\lvgl\src\draw/lv_draw_arc.c **** 
 141:..\..\..\arduinoLCD\test\Pain Drain\libraries\lvgl\src\draw/lv_draw_arc.c ****     }
 142:..\..\..\arduinoLCD\test\Pain Drain\libraries\lvgl\src\draw/lv_draw_arc.c ****     else {
 143:..\..\..\arduinoLCD\test\Pain Drain\libraries\lvgl\src\draw/lv_draw_arc.c ****         area->x1 = x - rout;
 711              		.loc 1 143 0
 712 046a 1FFA8BF2 		uxth	r2, fp
 713              	.LVL101:
 714 046e 531B     		subs	r3, r2, r5
 715              	.LVL102:
 716 0470 3B80     		strh	r3, [r7]	@ movhi
 144:..\..\..\arduinoLCD\test\Pain Drain\libraries\lvgl\src\draw/lv_draw_arc.c ****         area->y1 = y - rout;
 717              		.loc 1 144 0
 718 0472 BDF80030 		ldrh	r3, [sp]
 719 0476 591B     		subs	r1, r3, r5
 720 0478 7980     		strh	r1, [r7, #2]	@ movhi
 145:..\..\..\arduinoLCD\test\Pain Drain\libraries\lvgl\src\draw/lv_draw_arc.c ****         area->x2 = x + rout;
 721              		.loc 1 145 0
 722 047a 2A44     		add	r2, r2, r5
 723 047c BA80     		strh	r2, [r7, #4]	@ movhi
 146:..\..\..\arduinoLCD\test\Pain Drain\libraries\lvgl\src\draw/lv_draw_arc.c ****         area->y2 = y + rout;
 724              		.loc 1 146 0
 725 047e 1D44     		add	r5, r5, r3
 726              	.LVL103:
 727 0480 FD80     		strh	r5, [r7, #6]	@ movhi
 728              	.LVL104:
 729              	.L6:
 147:..\..\..\arduinoLCD\test\Pain Drain\libraries\lvgl\src\draw/lv_draw_arc.c ****     }
 148:..\..\..\arduinoLCD\test\Pain Drain\libraries\lvgl\src\draw/lv_draw_arc.c **** }
 730              		.loc 1 148 0
 731 0482 05B0     		add	sp, sp, #20
 732              		.cfi_def_cfa_offset 36
 733              		@ sp needed
 734 0484 BDE8F08F 		pop	{r4, r5, r6, r7, r8, r9, r10, fp, pc}
 735              		.cfi_endproc
 736              	.LFE57:
 737              		.size	lv_draw_arc_get_area, .-lv_draw_arc_get_area
 738              		.text
 739              	.Letext0:
 740              		.file 3 "c:\\program files (x86)\\cypress\\psoc creator\\4.4\\psoc creator\\import\\gnu\\arm\\5.4.
 741              		.file 4 "c:\\program files (x86)\\cypress\\psoc creator\\4.4\\psoc creator\\import\\gnu\\arm\\5.4.
ARM GAS  C:\Users\haske\AppData\Local\Temp\cczDymCg.s 			page 27


 742              		.file 5 "c:\\program files (x86)\\cypress\\psoc creator\\4.4\\psoc creator\\import\\gnu\\arm\\5.4.
 743              		.file 6 "c:\\projects\\paindrain\\arduinolcd\\test\\pain drain\\libraries\\lvgl\\src\\misc\\lv_are
 744              		.file 7 "c:\\projects\\paindrain\\arduinolcd\\test\\pain drain\\libraries\\lvgl\\src\\font\\lv_fon
 745              		.file 8 "..\\..\\..\\arduinoLCD\\test\\Pain Drain\\libraries\\lvgl\\src\\draw\\../misc/lv_types.h"
 746              		.file 9 "..\\..\\..\\arduinoLCD\\test\\Pain Drain\\libraries\\lvgl\\src\\draw\\../misc/lv_txt.h"
 747              		.file 10 "..\\..\\..\\arduinoLCD\\test\\Pain Drain\\libraries\\lvgl\\src\\draw\\../misc/lv_bidi.h"
 748              		.file 11 "..\\..\\..\\arduinoLCD\\test\\Pain Drain\\libraries\\lvgl\\src\\draw\\../misc/lv_style.h
 749              		.file 12 "..\\..\\..\\arduinoLCD\\test\\Pain Drain\\libraries\\lvgl\\src\\draw\\lv_img_buf.h"
 750              		.file 13 "..\\..\\..\\arduinoLCD\\test\\Pain Drain\\libraries\\lvgl\\src\\draw\\lv_draw_rect.h"
 751              		.file 14 "..\\..\\..\\arduinoLCD\\test\\Pain Drain\\libraries\\lvgl\\src\\draw\\lv_draw_label.h"
 752              		.file 15 "..\\..\\..\\arduinoLCD\\test\\Pain Drain\\libraries\\lvgl\\src\\draw\\lv_draw_img.h"
 753              		.file 16 "..\\..\\..\\arduinoLCD\\test\\Pain Drain\\libraries\\lvgl\\src\\draw\\lv_draw_line.h"
 754              		.file 17 "..\\..\\..\\arduinoLCD\\test\\Pain Drain\\libraries\\lvgl\\src\\draw\\lv_draw_arc.h"
 755              		.file 18 "..\\..\\..\\arduinoLCD\\test\\Pain Drain\\libraries\\lvgl\\src\\draw\\lv_draw_layer.h"
 756              		.file 19 "..\\..\\..\\arduinoLCD\\test\\Pain Drain\\libraries\\lvgl\\src\\draw\\lv_draw.h"
 757              		.file 20 "..\\..\\..\\arduinoLCD\\test\\Pain Drain\\libraries\\lvgl\\src\\draw\\../misc/lv_mem.h"
 758              		.file 21 "..\\..\\..\\arduinoLCD\\test\\Pain Drain\\libraries\\lvgl\\src\\draw\\../misc/lv_math.h"