ARM GAS  C:\Users\haske\AppData\Local\Temp\cc4Z1yXb.s 			page 1


   1              		.syntax unified
   2              		.cpu cortex-m4
   3              		.eabi_attribute 27, 1
   4              		.fpu fpv4-sp-d16
   5              		.eabi_attribute 20, 1
   6              		.eabi_attribute 21, 1
   7              		.eabi_attribute 23, 3
   8              		.eabi_attribute 24, 1
   9              		.eabi_attribute 25, 1
  10              		.eabi_attribute 26, 1
  11              		.eabi_attribute 30, 1
  12              		.eabi_attribute 34, 1
  13              		.eabi_attribute 18, 4
  14              		.thumb
  15              		.syntax unified
  16              		.file	"lv_draw_sw_polygon.c"
  17              		.text
  18              	.Ltext0:
  19              		.cfi_sections	.debug_frame
  20              		.section	.text.lv_draw_sw_polygon,"ax",%progbits
  21              		.align	2
  22              		.global	lv_draw_sw_polygon
  23              		.thumb
  24              		.thumb_func
  25              		.type	lv_draw_sw_polygon, %function
  26              	lv_draw_sw_polygon:
  27              	.LFB56:
  28              		.file 1 "..\\..\\..\\arduinoLCD\\test\\Pain Drain\\libraries\\lvgl\\src\\draw\\sw\\lv_draw_sw_poly
   1:..\..\..\arduinoLCD\test\Pain Drain\libraries\lvgl\src\draw\sw/lv_draw_sw_polygon.c **** /**
   2:..\..\..\arduinoLCD\test\Pain Drain\libraries\lvgl\src\draw\sw/lv_draw_sw_polygon.c ****  * @file lv_draw_sw_polygon.c
   3:..\..\..\arduinoLCD\test\Pain Drain\libraries\lvgl\src\draw\sw/lv_draw_sw_polygon.c ****  *
   4:..\..\..\arduinoLCD\test\Pain Drain\libraries\lvgl\src\draw\sw/lv_draw_sw_polygon.c ****  */
   5:..\..\..\arduinoLCD\test\Pain Drain\libraries\lvgl\src\draw\sw/lv_draw_sw_polygon.c **** 
   6:..\..\..\arduinoLCD\test\Pain Drain\libraries\lvgl\src\draw\sw/lv_draw_sw_polygon.c **** /*********************
   7:..\..\..\arduinoLCD\test\Pain Drain\libraries\lvgl\src\draw\sw/lv_draw_sw_polygon.c ****  *      INCLUDES
   8:..\..\..\arduinoLCD\test\Pain Drain\libraries\lvgl\src\draw\sw/lv_draw_sw_polygon.c ****  *********************/
   9:..\..\..\arduinoLCD\test\Pain Drain\libraries\lvgl\src\draw\sw/lv_draw_sw_polygon.c **** #include "lv_draw_sw.h"
  10:..\..\..\arduinoLCD\test\Pain Drain\libraries\lvgl\src\draw\sw/lv_draw_sw_polygon.c **** #include "../../misc/lv_math.h"
  11:..\..\..\arduinoLCD\test\Pain Drain\libraries\lvgl\src\draw\sw/lv_draw_sw_polygon.c **** #include "../../misc/lv_mem.h"
  12:..\..\..\arduinoLCD\test\Pain Drain\libraries\lvgl\src\draw\sw/lv_draw_sw_polygon.c **** #include "../../misc/lv_area.h"
  13:..\..\..\arduinoLCD\test\Pain Drain\libraries\lvgl\src\draw\sw/lv_draw_sw_polygon.c **** #include "../../misc/lv_color.h"
  14:..\..\..\arduinoLCD\test\Pain Drain\libraries\lvgl\src\draw\sw/lv_draw_sw_polygon.c **** #include "../lv_draw_rect.h"
  15:..\..\..\arduinoLCD\test\Pain Drain\libraries\lvgl\src\draw\sw/lv_draw_sw_polygon.c **** 
  16:..\..\..\arduinoLCD\test\Pain Drain\libraries\lvgl\src\draw\sw/lv_draw_sw_polygon.c **** /*********************
  17:..\..\..\arduinoLCD\test\Pain Drain\libraries\lvgl\src\draw\sw/lv_draw_sw_polygon.c ****  *      DEFINES
  18:..\..\..\arduinoLCD\test\Pain Drain\libraries\lvgl\src\draw\sw/lv_draw_sw_polygon.c ****  *********************/
  19:..\..\..\arduinoLCD\test\Pain Drain\libraries\lvgl\src\draw\sw/lv_draw_sw_polygon.c **** 
  20:..\..\..\arduinoLCD\test\Pain Drain\libraries\lvgl\src\draw\sw/lv_draw_sw_polygon.c **** /**********************
  21:..\..\..\arduinoLCD\test\Pain Drain\libraries\lvgl\src\draw\sw/lv_draw_sw_polygon.c ****  *      TYPEDEFS
  22:..\..\..\arduinoLCD\test\Pain Drain\libraries\lvgl\src\draw\sw/lv_draw_sw_polygon.c ****  **********************/
  23:..\..\..\arduinoLCD\test\Pain Drain\libraries\lvgl\src\draw\sw/lv_draw_sw_polygon.c **** 
  24:..\..\..\arduinoLCD\test\Pain Drain\libraries\lvgl\src\draw\sw/lv_draw_sw_polygon.c **** /**********************
  25:..\..\..\arduinoLCD\test\Pain Drain\libraries\lvgl\src\draw\sw/lv_draw_sw_polygon.c ****  *  STATIC PROTOTYPES
  26:..\..\..\arduinoLCD\test\Pain Drain\libraries\lvgl\src\draw\sw/lv_draw_sw_polygon.c ****  **********************/
  27:..\..\..\arduinoLCD\test\Pain Drain\libraries\lvgl\src\draw\sw/lv_draw_sw_polygon.c **** 
  28:..\..\..\arduinoLCD\test\Pain Drain\libraries\lvgl\src\draw\sw/lv_draw_sw_polygon.c **** /**********************
  29:..\..\..\arduinoLCD\test\Pain Drain\libraries\lvgl\src\draw\sw/lv_draw_sw_polygon.c ****  *  STATIC VARIABLES
ARM GAS  C:\Users\haske\AppData\Local\Temp\cc4Z1yXb.s 			page 2


  30:..\..\..\arduinoLCD\test\Pain Drain\libraries\lvgl\src\draw\sw/lv_draw_sw_polygon.c ****  **********************/
  31:..\..\..\arduinoLCD\test\Pain Drain\libraries\lvgl\src\draw\sw/lv_draw_sw_polygon.c **** 
  32:..\..\..\arduinoLCD\test\Pain Drain\libraries\lvgl\src\draw\sw/lv_draw_sw_polygon.c **** /**********************
  33:..\..\..\arduinoLCD\test\Pain Drain\libraries\lvgl\src\draw\sw/lv_draw_sw_polygon.c ****  *      MACROS
  34:..\..\..\arduinoLCD\test\Pain Drain\libraries\lvgl\src\draw\sw/lv_draw_sw_polygon.c ****  **********************/
  35:..\..\..\arduinoLCD\test\Pain Drain\libraries\lvgl\src\draw\sw/lv_draw_sw_polygon.c **** 
  36:..\..\..\arduinoLCD\test\Pain Drain\libraries\lvgl\src\draw\sw/lv_draw_sw_polygon.c **** /**********************
  37:..\..\..\arduinoLCD\test\Pain Drain\libraries\lvgl\src\draw\sw/lv_draw_sw_polygon.c ****  *   GLOBAL FUNCTIONS
  38:..\..\..\arduinoLCD\test\Pain Drain\libraries\lvgl\src\draw\sw/lv_draw_sw_polygon.c ****  **********************/
  39:..\..\..\arduinoLCD\test\Pain Drain\libraries\lvgl\src\draw\sw/lv_draw_sw_polygon.c **** 
  40:..\..\..\arduinoLCD\test\Pain Drain\libraries\lvgl\src\draw\sw/lv_draw_sw_polygon.c **** /**
  41:..\..\..\arduinoLCD\test\Pain Drain\libraries\lvgl\src\draw\sw/lv_draw_sw_polygon.c ****  * Draw a polygon. Only convex polygons are supported
  42:..\..\..\arduinoLCD\test\Pain Drain\libraries\lvgl\src\draw\sw/lv_draw_sw_polygon.c ****  * @param points an array of points
  43:..\..\..\arduinoLCD\test\Pain Drain\libraries\lvgl\src\draw\sw/lv_draw_sw_polygon.c ****  * @param point_cnt number of points
  44:..\..\..\arduinoLCD\test\Pain Drain\libraries\lvgl\src\draw\sw/lv_draw_sw_polygon.c ****  * @param clip_area polygon will be drawn only in this area
  45:..\..\..\arduinoLCD\test\Pain Drain\libraries\lvgl\src\draw\sw/lv_draw_sw_polygon.c ****  * @param draw_dsc pointer to an initialized `lv_draw_rect_dsc_t` variable
  46:..\..\..\arduinoLCD\test\Pain Drain\libraries\lvgl\src\draw\sw/lv_draw_sw_polygon.c ****  */
  47:..\..\..\arduinoLCD\test\Pain Drain\libraries\lvgl\src\draw\sw/lv_draw_sw_polygon.c **** void lv_draw_sw_polygon(lv_draw_ctx_t * draw_ctx, const lv_draw_rect_dsc_t * draw_dsc, const lv_poi
  48:..\..\..\arduinoLCD\test\Pain Drain\libraries\lvgl\src\draw\sw/lv_draw_sw_polygon.c ****                         uint16_t point_cnt)
  49:..\..\..\arduinoLCD\test\Pain Drain\libraries\lvgl\src\draw\sw/lv_draw_sw_polygon.c **** {
  29              		.loc 1 49 0
  30              		.cfi_startproc
  31              		@ args = 0, pretend = 0, frame = 40
  32              		@ frame_needed = 0, uses_anonymous_args = 0
  33              	.LVL0:
  50:..\..\..\arduinoLCD\test\Pain Drain\libraries\lvgl\src\draw\sw/lv_draw_sw_polygon.c **** #if LV_DRAW_COMPLEX
  51:..\..\..\arduinoLCD\test\Pain Drain\libraries\lvgl\src\draw\sw/lv_draw_sw_polygon.c ****     if(point_cnt < 3) return;
  34              		.loc 1 51 0
  35 0000 022B     		cmp	r3, #2
  36 0002 40F24F81 		bls	.L35
  52:..\..\..\arduinoLCD\test\Pain Drain\libraries\lvgl\src\draw\sw/lv_draw_sw_polygon.c ****     if(points == NULL) return;
  37              		.loc 1 52 0
  38 0006 002A     		cmp	r2, #0
  39 0008 00F04C81 		beq	.L35
  49:..\..\..\arduinoLCD\test\Pain Drain\libraries\lvgl\src\draw\sw/lv_draw_sw_polygon.c **** #if LV_DRAW_COMPLEX
  40              		.loc 1 49 0
  41 000c 2DE9F04F 		push	{r4, r5, r6, r7, r8, r9, r10, fp, lr}
  42              		.cfi_def_cfa_offset 36
  43              		.cfi_offset 4, -36
  44              		.cfi_offset 5, -32
  45              		.cfi_offset 6, -28
  46              		.cfi_offset 7, -24
  47              		.cfi_offset 8, -20
  48              		.cfi_offset 9, -16
  49              		.cfi_offset 10, -12
  50              		.cfi_offset 11, -8
  51              		.cfi_offset 14, -4
  52 0010 8DB0     		sub	sp, sp, #52
  53              		.cfi_def_cfa_offset 88
  54 0012 1F46     		mov	r7, r3
  55 0014 1646     		mov	r6, r2
  56 0016 0691     		str	r1, [sp, #24]
  57 0018 0490     		str	r0, [sp, #16]
  53:..\..\..\arduinoLCD\test\Pain Drain\libraries\lvgl\src\draw\sw/lv_draw_sw_polygon.c **** 
  54:..\..\..\arduinoLCD\test\Pain Drain\libraries\lvgl\src\draw\sw/lv_draw_sw_polygon.c ****     /*Join adjacent points if they are on the same coordinate*/
  55:..\..\..\arduinoLCD\test\Pain Drain\libraries\lvgl\src\draw\sw/lv_draw_sw_polygon.c ****     lv_point_t * p = lv_mem_buf_get(point_cnt * sizeof(lv_point_t));
  58              		.loc 1 55 0
ARM GAS  C:\Users\haske\AppData\Local\Temp\cc4Z1yXb.s 			page 3


  59 001a 9800     		lsls	r0, r3, #2
  60              	.LVL1:
  61 001c FFF7FEFF 		bl	lv_mem_buf_get
  62              	.LVL2:
  56:..\..\..\arduinoLCD\test\Pain Drain\libraries\lvgl\src\draw\sw/lv_draw_sw_polygon.c ****     if(p == NULL) return;
  63              		.loc 1 56 0
  64 0020 0546     		mov	r5, r0
  65 0022 0028     		cmp	r0, #0
  66 0024 00F03B81 		beq	.L1
  67              	.LVL3:
  57:..\..\..\arduinoLCD\test\Pain Drain\libraries\lvgl\src\draw\sw/lv_draw_sw_polygon.c ****     uint16_t i;
  58:..\..\..\arduinoLCD\test\Pain Drain\libraries\lvgl\src\draw\sw/lv_draw_sw_polygon.c ****     uint16_t pcnt = 0;
  59:..\..\..\arduinoLCD\test\Pain Drain\libraries\lvgl\src\draw\sw/lv_draw_sw_polygon.c ****     p[0] = points[0];
  68              		.loc 1 59 0
  69 0028 3368     		ldr	r3, [r6]	@ unaligned
  70 002a 0360     		str	r3, [r0]	@ unaligned
  71              	.LVL4:
  58:..\..\..\arduinoLCD\test\Pain Drain\libraries\lvgl\src\draw\sw/lv_draw_sw_polygon.c ****     p[0] = points[0];
  72              		.loc 1 58 0
  73 002c 0024     		movs	r4, #0
  60:..\..\..\arduinoLCD\test\Pain Drain\libraries\lvgl\src\draw\sw/lv_draw_sw_polygon.c ****     for(i = 0; i < point_cnt - 1; i++) {
  74              		.loc 1 60 0
  75 002e 2146     		mov	r1, r4
  76 0030 17E0     		b	.L3
  77              	.LVL5:
  78              	.L6:
  61:..\..\..\arduinoLCD\test\Pain Drain\libraries\lvgl\src\draw\sw/lv_draw_sw_polygon.c ****         if(points[i].x != points[i + 1].x || points[i].y != points[i + 1].y) {
  79              		.loc 1 61 0
  80 0032 06EB8102 		add	r2, r6, r1, lsl #2
  81 0036 36F92100 		ldrsh	r0, [r6, r1, lsl #2]
  82 003a 4B1C     		adds	r3, r1, #1
  83 003c 06EB830E 		add	lr, r6, r3, lsl #2
  84 0040 36F92330 		ldrsh	r3, [r6, r3, lsl #2]
  85 0044 9842     		cmp	r0, r3
  86 0046 05D1     		bne	.L4
  87              		.loc 1 61 0 is_stmt 0 discriminator 1
  88 0048 B2F90200 		ldrsh	r0, [r2, #2]
  89 004c BEF90230 		ldrsh	r3, [lr, #2]
  90 0050 9842     		cmp	r0, r3
  91 0052 04D0     		beq	.L5
  92              	.L4:
  62:..\..\..\arduinoLCD\test\Pain Drain\libraries\lvgl\src\draw\sw/lv_draw_sw_polygon.c ****             p[pcnt] = points[i];
  93              		.loc 1 62 0 is_stmt 1
  94 0054 1368     		ldr	r3, [r2]	@ unaligned
  95 0056 45F82430 		str	r3, [r5, r4, lsl #2]	@ unaligned
  63:..\..\..\arduinoLCD\test\Pain Drain\libraries\lvgl\src\draw\sw/lv_draw_sw_polygon.c ****             pcnt++;
  96              		.loc 1 63 0
  97 005a 0134     		adds	r4, r4, #1
  98              	.LVL6:
  99 005c A4B2     		uxth	r4, r4
 100              	.LVL7:
 101              	.L5:
  60:..\..\..\arduinoLCD\test\Pain Drain\libraries\lvgl\src\draw\sw/lv_draw_sw_polygon.c ****         if(points[i].x != points[i + 1].x || points[i].y != points[i + 1].y) {
 102              		.loc 1 60 0 discriminator 2
 103 005e 0131     		adds	r1, r1, #1
 104              	.LVL8:
 105 0060 89B2     		uxth	r1, r1
ARM GAS  C:\Users\haske\AppData\Local\Temp\cc4Z1yXb.s 			page 4


 106              	.LVL9:
 107              	.L3:
  60:..\..\..\arduinoLCD\test\Pain Drain\libraries\lvgl\src\draw\sw/lv_draw_sw_polygon.c ****         if(points[i].x != points[i + 1].x || points[i].y != points[i + 1].y) {
 108              		.loc 1 60 0 is_stmt 0 discriminator 1
 109 0062 7B1E     		subs	r3, r7, #1
 110 0064 9942     		cmp	r1, r3
 111 0066 E4DB     		blt	.L6
  64:..\..\..\arduinoLCD\test\Pain Drain\libraries\lvgl\src\draw\sw/lv_draw_sw_polygon.c ****         }
  65:..\..\..\arduinoLCD\test\Pain Drain\libraries\lvgl\src\draw\sw/lv_draw_sw_polygon.c ****     }
  66:..\..\..\arduinoLCD\test\Pain Drain\libraries\lvgl\src\draw\sw/lv_draw_sw_polygon.c ****     /*The first and the last points are also adjacent*/
  67:..\..\..\arduinoLCD\test\Pain Drain\libraries\lvgl\src\draw\sw/lv_draw_sw_polygon.c ****     if(points[0].x != points[point_cnt - 1].x || points[0].y != points[point_cnt - 1].y) {
 112              		.loc 1 67 0 is_stmt 1
 113 0068 B6F90010 		ldrsh	r1, [r6]
 114              	.LVL10:
 115 006c 07F18047 		add	r7, r7, #1073741824
 116 0070 013F     		subs	r7, r7, #1
 117 0072 06EB8703 		add	r3, r6, r7, lsl #2
 118 0076 36F92720 		ldrsh	r2, [r6, r7, lsl #2]
 119 007a 9142     		cmp	r1, r2
 120 007c 05D1     		bne	.L7
 121              		.loc 1 67 0 is_stmt 0 discriminator 1
 122 007e B6F90210 		ldrsh	r1, [r6, #2]
 123 0082 B3F90220 		ldrsh	r2, [r3, #2]
 124 0086 9142     		cmp	r1, r2
 125 0088 04D0     		beq	.L8
 126              	.L7:
  68:..\..\..\arduinoLCD\test\Pain Drain\libraries\lvgl\src\draw\sw/lv_draw_sw_polygon.c ****         p[pcnt] = points[point_cnt - 1];
 127              		.loc 1 68 0 is_stmt 1
 128 008a 1B68     		ldr	r3, [r3]	@ unaligned
 129 008c 45F82430 		str	r3, [r5, r4, lsl #2]	@ unaligned
  69:..\..\..\arduinoLCD\test\Pain Drain\libraries\lvgl\src\draw\sw/lv_draw_sw_polygon.c ****         pcnt++;
 130              		.loc 1 69 0
 131 0090 0134     		adds	r4, r4, #1
 132              	.LVL11:
 133 0092 A4B2     		uxth	r4, r4
 134              	.LVL12:
 135              	.L8:
  70:..\..\..\arduinoLCD\test\Pain Drain\libraries\lvgl\src\draw\sw/lv_draw_sw_polygon.c ****     }
  71:..\..\..\arduinoLCD\test\Pain Drain\libraries\lvgl\src\draw\sw/lv_draw_sw_polygon.c **** 
  72:..\..\..\arduinoLCD\test\Pain Drain\libraries\lvgl\src\draw\sw/lv_draw_sw_polygon.c ****     point_cnt = pcnt;
  73:..\..\..\arduinoLCD\test\Pain Drain\libraries\lvgl\src\draw\sw/lv_draw_sw_polygon.c ****     if(point_cnt < 3) {
 136              		.loc 1 73 0
 137 0094 022C     		cmp	r4, #2
 138 0096 03D8     		bhi	.L9
  74:..\..\..\arduinoLCD\test\Pain Drain\libraries\lvgl\src\draw\sw/lv_draw_sw_polygon.c ****         lv_mem_buf_release(p);
 139              		.loc 1 74 0
 140 0098 2846     		mov	r0, r5
 141 009a FFF7FEFF 		bl	lv_mem_buf_release
 142              	.LVL13:
  75:..\..\..\arduinoLCD\test\Pain Drain\libraries\lvgl\src\draw\sw/lv_draw_sw_polygon.c ****         return;
 143              		.loc 1 75 0
 144 009e FEE0     		b	.L1
 145              	.L9:
  76:..\..\..\arduinoLCD\test\Pain Drain\libraries\lvgl\src\draw\sw/lv_draw_sw_polygon.c ****     }
  77:..\..\..\arduinoLCD\test\Pain Drain\libraries\lvgl\src\draw\sw/lv_draw_sw_polygon.c **** 
  78:..\..\..\arduinoLCD\test\Pain Drain\libraries\lvgl\src\draw\sw/lv_draw_sw_polygon.c ****     lv_area_t poly_coords = {.x1 = LV_COORD_MAX, .y1 = LV_COORD_MAX, .x2 = LV_COORD_MIN, .y2 = LV_C
 146              		.loc 1 78 0
ARM GAS  C:\Users\haske\AppData\Local\Temp\cc4Z1yXb.s 			page 5


 147 00a0 814A     		ldr	r2, .L36
 148 00a2 0AAB     		add	r3, sp, #40
 149 00a4 1068     		ldr	r0, [r2]	@ unaligned
 150 00a6 5168     		ldr	r1, [r2, #4]	@ unaligned
 151 00a8 03C3     		stmia	r3!, {r0, r1}
 152              	.LVL14:
  79:..\..\..\arduinoLCD\test\Pain Drain\libraries\lvgl\src\draw\sw/lv_draw_sw_polygon.c **** 
  80:..\..\..\arduinoLCD\test\Pain Drain\libraries\lvgl\src\draw\sw/lv_draw_sw_polygon.c ****     for(i = 0; i < point_cnt; i++) {
 153              		.loc 1 80 0
 154 00aa 0023     		movs	r3, #0
 155 00ac 27E0     		b	.L10
 156              	.LVL15:
 157              	.L11:
  81:..\..\..\arduinoLCD\test\Pain Drain\libraries\lvgl\src\draw\sw/lv_draw_sw_polygon.c ****         poly_coords.x1 = LV_MIN(poly_coords.x1, p[i].x);
 158              		.loc 1 81 0 discriminator 3
 159 00ae 05EB8301 		add	r1, r5, r3, lsl #2
 160 00b2 35F92300 		ldrsh	r0, [r5, r3, lsl #2]
 161 00b6 BDF92820 		ldrsh	r2, [sp, #40]
 162 00ba 8242     		cmp	r2, r0
 163 00bc A8BF     		it	ge
 164 00be 0246     		movge	r2, r0
 165 00c0 ADF82820 		strh	r2, [sp, #40]	@ movhi
  82:..\..\..\arduinoLCD\test\Pain Drain\libraries\lvgl\src\draw\sw/lv_draw_sw_polygon.c ****         poly_coords.y1 = LV_MIN(poly_coords.y1, p[i].y);
 166              		.loc 1 82 0 discriminator 3
 167 00c4 B1F90200 		ldrsh	r0, [r1, #2]
 168 00c8 BDF92A20 		ldrsh	r2, [sp, #42]
 169 00cc 8242     		cmp	r2, r0
 170 00ce A8BF     		it	ge
 171 00d0 0246     		movge	r2, r0
 172 00d2 ADF82A20 		strh	r2, [sp, #42]	@ movhi
  83:..\..\..\arduinoLCD\test\Pain Drain\libraries\lvgl\src\draw\sw/lv_draw_sw_polygon.c ****         poly_coords.x2 = LV_MAX(poly_coords.x2, p[i].x);
 173              		.loc 1 83 0 discriminator 3
 174 00d6 35F92300 		ldrsh	r0, [r5, r3, lsl #2]
 175 00da BDF92C20 		ldrsh	r2, [sp, #44]
 176 00de 8242     		cmp	r2, r0
 177 00e0 B8BF     		it	lt
 178 00e2 0246     		movlt	r2, r0
 179 00e4 ADF82C20 		strh	r2, [sp, #44]	@ movhi
  84:..\..\..\arduinoLCD\test\Pain Drain\libraries\lvgl\src\draw\sw/lv_draw_sw_polygon.c ****         poly_coords.y2 = LV_MAX(poly_coords.y2, p[i].y);
 180              		.loc 1 84 0 discriminator 3
 181 00e8 B1F90210 		ldrsh	r1, [r1, #2]
 182 00ec BDF92E20 		ldrsh	r2, [sp, #46]
 183 00f0 8A42     		cmp	r2, r1
 184 00f2 B8BF     		it	lt
 185 00f4 0A46     		movlt	r2, r1
 186 00f6 ADF82E20 		strh	r2, [sp, #46]	@ movhi
  80:..\..\..\arduinoLCD\test\Pain Drain\libraries\lvgl\src\draw\sw/lv_draw_sw_polygon.c ****         poly_coords.x1 = LV_MIN(poly_coords.x1, p[i].x);
 187              		.loc 1 80 0 discriminator 3
 188 00fa 0133     		adds	r3, r3, #1
 189              	.LVL16:
 190 00fc 9BB2     		uxth	r3, r3
 191              	.LVL17:
 192              	.L10:
  80:..\..\..\arduinoLCD\test\Pain Drain\libraries\lvgl\src\draw\sw/lv_draw_sw_polygon.c ****         poly_coords.x1 = LV_MIN(poly_coords.x1, p[i].x);
 193              		.loc 1 80 0 is_stmt 0 discriminator 1
 194 00fe A342     		cmp	r3, r4
 195 0100 D5D3     		bcc	.L11
ARM GAS  C:\Users\haske\AppData\Local\Temp\cc4Z1yXb.s 			page 6


  85:..\..\..\arduinoLCD\test\Pain Drain\libraries\lvgl\src\draw\sw/lv_draw_sw_polygon.c ****     }
  86:..\..\..\arduinoLCD\test\Pain Drain\libraries\lvgl\src\draw\sw/lv_draw_sw_polygon.c **** 
  87:..\..\..\arduinoLCD\test\Pain Drain\libraries\lvgl\src\draw\sw/lv_draw_sw_polygon.c ****     bool is_common;
  88:..\..\..\arduinoLCD\test\Pain Drain\libraries\lvgl\src\draw\sw/lv_draw_sw_polygon.c ****     lv_area_t clip_area;
  89:..\..\..\arduinoLCD\test\Pain Drain\libraries\lvgl\src\draw\sw/lv_draw_sw_polygon.c ****     is_common = _lv_area_intersect(&clip_area, &poly_coords, draw_ctx->clip_area);
 196              		.loc 1 89 0 is_stmt 1
 197 0102 049B     		ldr	r3, [sp, #16]
 198              	.LVL18:
 199 0104 9A68     		ldr	r2, [r3, #8]
 200 0106 0AA9     		add	r1, sp, #40
 201 0108 08A8     		add	r0, sp, #32
 202 010a FFF7FEFF 		bl	_lv_area_intersect
 203              	.LVL19:
  90:..\..\..\arduinoLCD\test\Pain Drain\libraries\lvgl\src\draw\sw/lv_draw_sw_polygon.c ****     if(!is_common) {
 204              		.loc 1 90 0
 205 010e 18B9     		cbnz	r0, .L12
  91:..\..\..\arduinoLCD\test\Pain Drain\libraries\lvgl\src\draw\sw/lv_draw_sw_polygon.c ****         lv_mem_buf_release(p);
 206              		.loc 1 91 0
 207 0110 2846     		mov	r0, r5
 208              	.LVL20:
 209 0112 FFF7FEFF 		bl	lv_mem_buf_release
 210              	.LVL21:
  92:..\..\..\arduinoLCD\test\Pain Drain\libraries\lvgl\src\draw\sw/lv_draw_sw_polygon.c ****         return;
 211              		.loc 1 92 0
 212 0116 C2E0     		b	.L1
 213              	.LVL22:
 214              	.L12:
  93:..\..\..\arduinoLCD\test\Pain Drain\libraries\lvgl\src\draw\sw/lv_draw_sw_polygon.c ****     }
  94:..\..\..\arduinoLCD\test\Pain Drain\libraries\lvgl\src\draw\sw/lv_draw_sw_polygon.c **** 
  95:..\..\..\arduinoLCD\test\Pain Drain\libraries\lvgl\src\draw\sw/lv_draw_sw_polygon.c ****     const lv_area_t * clip_area_ori = draw_ctx->clip_area;
 215              		.loc 1 95 0
 216 0118 049A     		ldr	r2, [sp, #16]
 217 011a 9368     		ldr	r3, [r2, #8]
 218 011c 0793     		str	r3, [sp, #28]
 219              	.LVL23:
  96:..\..\..\arduinoLCD\test\Pain Drain\libraries\lvgl\src\draw\sw/lv_draw_sw_polygon.c ****     draw_ctx->clip_area = &clip_area;
 220              		.loc 1 96 0
 221 011e 08AB     		add	r3, sp, #32
 222              	.LVL24:
 223 0120 9360     		str	r3, [r2, #8]
 224              	.LVL25:
  97:..\..\..\arduinoLCD\test\Pain Drain\libraries\lvgl\src\draw\sw/lv_draw_sw_polygon.c **** 
  98:..\..\..\arduinoLCD\test\Pain Drain\libraries\lvgl\src\draw\sw/lv_draw_sw_polygon.c ****     /*Find the lowest point*/
  99:..\..\..\arduinoLCD\test\Pain Drain\libraries\lvgl\src\draw\sw/lv_draw_sw_polygon.c ****     lv_coord_t y_min = p[0].y;
 225              		.loc 1 99 0
 226 0122 B5F90210 		ldrsh	r1, [r5, #2]
 227              	.LVL26:
 100:..\..\..\arduinoLCD\test\Pain Drain\libraries\lvgl\src\draw\sw/lv_draw_sw_polygon.c ****     int16_t y_min_i = 0;
 228              		.loc 1 100 0
 229 0126 0026     		movs	r6, #0
 230              	.LVL27:
 101:..\..\..\arduinoLCD\test\Pain Drain\libraries\lvgl\src\draw\sw/lv_draw_sw_polygon.c **** 
 102:..\..\..\arduinoLCD\test\Pain Drain\libraries\lvgl\src\draw\sw/lv_draw_sw_polygon.c ****     for(i = 1; i < point_cnt; i++) {
 231              		.loc 1 102 0
 232 0128 0123     		movs	r3, #1
 233 012a 09E0     		b	.L13
 234              	.LVL28:
ARM GAS  C:\Users\haske\AppData\Local\Temp\cc4Z1yXb.s 			page 7


 235              	.L15:
 103:..\..\..\arduinoLCD\test\Pain Drain\libraries\lvgl\src\draw\sw/lv_draw_sw_polygon.c ****         if(p[i].y < y_min) {
 236              		.loc 1 103 0
 237 012c 05EB8302 		add	r2, r5, r3, lsl #2
 238 0130 B2F90220 		ldrsh	r2, [r2, #2]
 239 0134 9142     		cmp	r1, r2
 240 0136 01DD     		ble	.L14
 241              	.LVL29:
 104:..\..\..\arduinoLCD\test\Pain Drain\libraries\lvgl\src\draw\sw/lv_draw_sw_polygon.c ****             y_min = p[i].y;
 105:..\..\..\arduinoLCD\test\Pain Drain\libraries\lvgl\src\draw\sw/lv_draw_sw_polygon.c ****             y_min_i = i;
 242              		.loc 1 105 0
 243 0138 1EB2     		sxth	r6, r3
 244              	.LVL30:
 104:..\..\..\arduinoLCD\test\Pain Drain\libraries\lvgl\src\draw\sw/lv_draw_sw_polygon.c ****             y_min = p[i].y;
 245              		.loc 1 104 0
 246 013a 1146     		mov	r1, r2
 247              	.LVL31:
 248              	.L14:
 102:..\..\..\arduinoLCD\test\Pain Drain\libraries\lvgl\src\draw\sw/lv_draw_sw_polygon.c ****         if(p[i].y < y_min) {
 249              		.loc 1 102 0 discriminator 2
 250 013c 0133     		adds	r3, r3, #1
 251              	.LVL32:
 252 013e 9BB2     		uxth	r3, r3
 253              	.LVL33:
 254              	.L13:
 102:..\..\..\arduinoLCD\test\Pain Drain\libraries\lvgl\src\draw\sw/lv_draw_sw_polygon.c ****         if(p[i].y < y_min) {
 255              		.loc 1 102 0 is_stmt 0 discriminator 1
 256 0140 A342     		cmp	r3, r4
 257 0142 F3D3     		bcc	.L15
 106:..\..\..\arduinoLCD\test\Pain Drain\libraries\lvgl\src\draw\sw/lv_draw_sw_polygon.c ****         }
 107:..\..\..\arduinoLCD\test\Pain Drain\libraries\lvgl\src\draw\sw/lv_draw_sw_polygon.c ****     }
 108:..\..\..\arduinoLCD\test\Pain Drain\libraries\lvgl\src\draw\sw/lv_draw_sw_polygon.c **** 
 109:..\..\..\arduinoLCD\test\Pain Drain\libraries\lvgl\src\draw\sw/lv_draw_sw_polygon.c ****     lv_draw_mask_line_param_t * mp = lv_mem_buf_get(sizeof(lv_draw_mask_line_param_t) * point_cnt);
 258              		.loc 1 109 0 is_stmt 1
 259 0144 A346     		mov	fp, r4
 260 0146 2C20     		movs	r0, #44
 261              	.LVL34:
 262 0148 00FB04F0 		mul	r0, r0, r4
 263 014c FFF7FEFF 		bl	lv_mem_buf_get
 264              	.LVL35:
 265 0150 0390     		str	r0, [sp, #12]
 266              	.LVL36:
 110:..\..\..\arduinoLCD\test\Pain Drain\libraries\lvgl\src\draw\sw/lv_draw_sw_polygon.c ****     lv_draw_mask_line_param_t * mp_next = mp;
 111:..\..\..\arduinoLCD\test\Pain Drain\libraries\lvgl\src\draw\sw/lv_draw_sw_polygon.c **** 
 112:..\..\..\arduinoLCD\test\Pain Drain\libraries\lvgl\src\draw\sw/lv_draw_sw_polygon.c ****     int32_t i_prev_left = y_min_i;
 267              		.loc 1 112 0
 268 0152 B146     		mov	r9, r6
 269              	.LVL37:
 113:..\..\..\arduinoLCD\test\Pain Drain\libraries\lvgl\src\draw\sw/lv_draw_sw_polygon.c ****     int32_t i_prev_right = y_min_i;
 114:..\..\..\arduinoLCD\test\Pain Drain\libraries\lvgl\src\draw\sw/lv_draw_sw_polygon.c ****     int32_t i_next_left;
 115:..\..\..\arduinoLCD\test\Pain Drain\libraries\lvgl\src\draw\sw/lv_draw_sw_polygon.c ****     int32_t i_next_right;
 116:..\..\..\arduinoLCD\test\Pain Drain\libraries\lvgl\src\draw\sw/lv_draw_sw_polygon.c ****     uint32_t mask_cnt = 0;
 117:..\..\..\arduinoLCD\test\Pain Drain\libraries\lvgl\src\draw\sw/lv_draw_sw_polygon.c **** 
 118:..\..\..\arduinoLCD\test\Pain Drain\libraries\lvgl\src\draw\sw/lv_draw_sw_polygon.c ****     /*Get the index of the left and right points*/
 119:..\..\..\arduinoLCD\test\Pain Drain\libraries\lvgl\src\draw\sw/lv_draw_sw_polygon.c ****     i_next_left = y_min_i - 1;
 120:..\..\..\arduinoLCD\test\Pain Drain\libraries\lvgl\src\draw\sw/lv_draw_sw_polygon.c ****     if(i_next_left < 0) i_next_left = point_cnt + i_next_left;
 270              		.loc 1 120 0
ARM GAS  C:\Users\haske\AppData\Local\Temp\cc4Z1yXb.s 			page 8


 271 0154 731E     		subs	r3, r6, #1
 272              	.LVL38:
 273 0156 00D5     		bpl	.L16
 274              		.loc 1 120 0 is_stmt 0 discriminator 1
 275 0158 2344     		add	r3, r3, r4
 276              	.LVL39:
 277              	.L16:
 121:..\..\..\arduinoLCD\test\Pain Drain\libraries\lvgl\src\draw\sw/lv_draw_sw_polygon.c **** 
 122:..\..\..\arduinoLCD\test\Pain Drain\libraries\lvgl\src\draw\sw/lv_draw_sw_polygon.c ****     i_next_right = y_min_i + 1;
 278              		.loc 1 122 0 is_stmt 1
 279 015a 09F10102 		add	r2, r9, #1
 280              	.LVL40:
 123:..\..\..\arduinoLCD\test\Pain Drain\libraries\lvgl\src\draw\sw/lv_draw_sw_polygon.c ****     if(i_next_right > point_cnt - 1) i_next_right = 0;
 281              		.loc 1 123 0
 282 015e 0594     		str	r4, [sp, #20]
 283 0160 013C     		subs	r4, r4, #1
 284              	.LVL41:
 285 0162 A242     		cmp	r2, r4
 286 0164 00DD     		ble	.L17
 287 0166 0022     		movs	r2, #0
 288              	.LVL42:
 289              	.L17:
 124:..\..\..\arduinoLCD\test\Pain Drain\libraries\lvgl\src\draw\sw/lv_draw_sw_polygon.c **** 
 125:..\..\..\arduinoLCD\test\Pain Drain\libraries\lvgl\src\draw\sw/lv_draw_sw_polygon.c ****     /**
 126:..\..\..\arduinoLCD\test\Pain Drain\libraries\lvgl\src\draw\sw/lv_draw_sw_polygon.c ****      * Check if the order of points is inverted or not.
 127:..\..\..\arduinoLCD\test\Pain Drain\libraries\lvgl\src\draw\sw/lv_draw_sw_polygon.c ****      * The normal case is when the left point is on `y_min_i - 1`
 128:..\..\..\arduinoLCD\test\Pain Drain\libraries\lvgl\src\draw\sw/lv_draw_sw_polygon.c ****      * Explanation:
 129:..\..\..\arduinoLCD\test\Pain Drain\libraries\lvgl\src\draw\sw/lv_draw_sw_polygon.c ****      *   if angle(p_left) < angle(p_right) -> inverted
 130:..\..\..\arduinoLCD\test\Pain Drain\libraries\lvgl\src\draw\sw/lv_draw_sw_polygon.c ****      *   dy_left/dx_left < dy_right/dx_right
 131:..\..\..\arduinoLCD\test\Pain Drain\libraries\lvgl\src\draw\sw/lv_draw_sw_polygon.c ****      *   dy_left * dx_right < dy_right * dx_left
 132:..\..\..\arduinoLCD\test\Pain Drain\libraries\lvgl\src\draw\sw/lv_draw_sw_polygon.c ****      */
 133:..\..\..\arduinoLCD\test\Pain Drain\libraries\lvgl\src\draw\sw/lv_draw_sw_polygon.c ****     lv_coord_t dxl = p[i_next_left].x - p[y_min_i].x;
 290              		.loc 1 133 0
 291 0168 05EB830C 		add	ip, r5, r3, lsl #2
 292 016c 35F92330 		ldrsh	r3, [r5, r3, lsl #2]
 293              	.LVL43:
 294 0170 05EB860E 		add	lr, r5, r6, lsl #2
 295 0174 35F82610 		ldrh	r1, [r5, r6, lsl #2]
 296 0178 5B1A     		subs	r3, r3, r1
 297 017a 18B2     		sxth	r0, r3
 298              	.LVL44:
 134:..\..\..\arduinoLCD\test\Pain Drain\libraries\lvgl\src\draw\sw/lv_draw_sw_polygon.c ****     lv_coord_t dxr = p[i_next_right].x - p[y_min_i].x;
 299              		.loc 1 134 0
 300 017c 05EB8207 		add	r7, r5, r2, lsl #2
 301 0180 35F92260 		ldrsh	r6, [r5, r2, lsl #2]
 302              	.LVL45:
 303 0184 711A     		subs	r1, r6, r1
 304 0186 0EB2     		sxth	r6, r1
 305              	.LVL46:
 135:..\..\..\arduinoLCD\test\Pain Drain\libraries\lvgl\src\draw\sw/lv_draw_sw_polygon.c ****     lv_coord_t dyl = p[i_next_left].y - p[y_min_i].y;
 306              		.loc 1 135 0
 307 0188 BCF90210 		ldrsh	r1, [ip, #2]
 308 018c BEF80230 		ldrh	r3, [lr, #2]
 309 0190 C91A     		subs	r1, r1, r3
 310 0192 09B2     		sxth	r1, r1
 311              	.LVL47:
 136:..\..\..\arduinoLCD\test\Pain Drain\libraries\lvgl\src\draw\sw/lv_draw_sw_polygon.c ****     lv_coord_t dyr = p[i_next_right].y - p[y_min_i].y;
ARM GAS  C:\Users\haske\AppData\Local\Temp\cc4Z1yXb.s 			page 9


 312              		.loc 1 136 0
 313 0194 B7F90220 		ldrsh	r2, [r7, #2]
 314              	.LVL48:
 315 0198 D31A     		subs	r3, r2, r3
 316 019a 1BB2     		sxth	r3, r3
 317              	.LVL49:
 137:..\..\..\arduinoLCD\test\Pain Drain\libraries\lvgl\src\draw\sw/lv_draw_sw_polygon.c **** 
 138:..\..\..\arduinoLCD\test\Pain Drain\libraries\lvgl\src\draw\sw/lv_draw_sw_polygon.c ****     bool inv = false;
 139:..\..\..\arduinoLCD\test\Pain Drain\libraries\lvgl\src\draw\sw/lv_draw_sw_polygon.c ****     if(dyl * dxr < dyr * dxl) inv = true;
 318              		.loc 1 139 0
 319 019c 06FB01F1 		mul	r1, r6, r1
 320              	.LVL50:
 321 01a0 00FB03F3 		mul	r3, r0, r3
 322              	.LVL51:
 323 01a4 9942     		cmp	r1, r3
 324 01a6 02DB     		blt	.L31
 138:..\..\..\arduinoLCD\test\Pain Drain\libraries\lvgl\src\draw\sw/lv_draw_sw_polygon.c ****     if(dyl * dxr < dyr * dxl) inv = true;
 325              		.loc 1 138 0
 326 01a8 0023     		movs	r3, #0
 327 01aa 0293     		str	r3, [sp, #8]
 328 01ac 01E0     		b	.L18
 329              	.L31:
 330              		.loc 1 139 0
 331 01ae 0123     		movs	r3, #1
 332 01b0 0293     		str	r3, [sp, #8]
 333              	.L18:
 334 01b2 CA46     		mov	r10, r9
 335 01b4 039B     		ldr	r3, [sp, #12]
 336 01b6 9C46     		mov	ip, r3
 337              	.LVL52:
 338 01b8 0026     		movs	r6, #0
 339              	.LVL53:
 340              	.L28:
 140:..\..\..\arduinoLCD\test\Pain Drain\libraries\lvgl\src\draw\sw/lv_draw_sw_polygon.c **** 
 141:..\..\..\arduinoLCD\test\Pain Drain\libraries\lvgl\src\draw\sw/lv_draw_sw_polygon.c ****     do {
 142:..\..\..\arduinoLCD\test\Pain Drain\libraries\lvgl\src\draw\sw/lv_draw_sw_polygon.c ****         if(!inv) {
 341              		.loc 1 142 0
 342 01ba 029B     		ldr	r3, [sp, #8]
 343 01bc 4BB9     		cbnz	r3, .L19
 344              	.LVL54:
 143:..\..\..\arduinoLCD\test\Pain Drain\libraries\lvgl\src\draw\sw/lv_draw_sw_polygon.c ****             i_next_left = i_prev_left - 1;
 144:..\..\..\arduinoLCD\test\Pain Drain\libraries\lvgl\src\draw\sw/lv_draw_sw_polygon.c ****             if(i_next_left < 0) i_next_left = point_cnt + i_next_left;
 345              		.loc 1 144 0
 346 01be B9F10107 		subs	r7, r9, #1
 347              	.LVL55:
 348 01c2 01D5     		bpl	.L20
 349              		.loc 1 144 0 is_stmt 0 discriminator 1
 350 01c4 059B     		ldr	r3, [sp, #20]
 351 01c6 1F44     		add	r7, r7, r3
 352              	.LVL56:
 353              	.L20:
 145:..\..\..\arduinoLCD\test\Pain Drain\libraries\lvgl\src\draw\sw/lv_draw_sw_polygon.c **** 
 146:..\..\..\arduinoLCD\test\Pain Drain\libraries\lvgl\src\draw\sw/lv_draw_sw_polygon.c ****             i_next_right = i_prev_right + 1;
 354              		.loc 1 146 0 is_stmt 1
 355 01c8 0AF10108 		add	r8, r10, #1
 356              	.LVL57:
 147:..\..\..\arduinoLCD\test\Pain Drain\libraries\lvgl\src\draw\sw/lv_draw_sw_polygon.c ****             if(i_next_right > point_cnt - 1) i_next_right = 0;
ARM GAS  C:\Users\haske\AppData\Local\Temp\cc4Z1yXb.s 			page 10


 357              		.loc 1 147 0
 358 01cc 4445     		cmp	r4, r8
 359 01ce 0BDB     		blt	.L32
 360 01d0 0CE0     		b	.L21
 361              	.LVL58:
 362              	.L19:
 148:..\..\..\arduinoLCD\test\Pain Drain\libraries\lvgl\src\draw\sw/lv_draw_sw_polygon.c ****         }
 149:..\..\..\arduinoLCD\test\Pain Drain\libraries\lvgl\src\draw\sw/lv_draw_sw_polygon.c ****         else {
 150:..\..\..\arduinoLCD\test\Pain Drain\libraries\lvgl\src\draw\sw/lv_draw_sw_polygon.c ****             i_next_left = i_prev_left + 1;
 363              		.loc 1 150 0
 364 01d2 09F10107 		add	r7, r9, #1
 365              	.LVL59:
 151:..\..\..\arduinoLCD\test\Pain Drain\libraries\lvgl\src\draw\sw/lv_draw_sw_polygon.c ****             if(i_next_left > point_cnt - 1) i_next_left = 0;
 366              		.loc 1 151 0
 367 01d6 BC42     		cmp	r4, r7
 368 01d8 00DA     		bge	.L22
 369 01da 0027     		movs	r7, #0
 370              	.LVL60:
 371              	.L22:
 152:..\..\..\arduinoLCD\test\Pain Drain\libraries\lvgl\src\draw\sw/lv_draw_sw_polygon.c **** 
 153:..\..\..\arduinoLCD\test\Pain Drain\libraries\lvgl\src\draw\sw/lv_draw_sw_polygon.c ****             i_next_right = i_prev_right - 1;
 154:..\..\..\arduinoLCD\test\Pain Drain\libraries\lvgl\src\draw\sw/lv_draw_sw_polygon.c ****             if(i_next_right < 0) i_next_right = point_cnt + i_next_right;
 372              		.loc 1 154 0
 373 01dc BAF10108 		subs	r8, r10, #1
 374              	.LVL61:
 375 01e0 04D5     		bpl	.L21
 376              		.loc 1 154 0 is_stmt 0 discriminator 1
 377 01e2 059B     		ldr	r3, [sp, #20]
 378 01e4 9844     		add	r8, r8, r3
 379              	.LVL62:
 380 01e6 01E0     		b	.L21
 381              	.L32:
 147:..\..\..\arduinoLCD\test\Pain Drain\libraries\lvgl\src\draw\sw/lv_draw_sw_polygon.c ****         }
 382              		.loc 1 147 0 is_stmt 1
 383 01e8 4FF00008 		mov	r8, #0
 384              	.LVL63:
 385              	.L21:
 155:..\..\..\arduinoLCD\test\Pain Drain\libraries\lvgl\src\draw\sw/lv_draw_sw_polygon.c ****         }
 156:..\..\..\arduinoLCD\test\Pain Drain\libraries\lvgl\src\draw\sw/lv_draw_sw_polygon.c **** 
 157:..\..\..\arduinoLCD\test\Pain Drain\libraries\lvgl\src\draw\sw/lv_draw_sw_polygon.c ****         if(p[i_next_left].y >= p[i_prev_left].y) {
 386              		.loc 1 157 0
 387 01ec BB00     		lsls	r3, r7, #2
 388 01ee EA18     		adds	r2, r5, r3
 389 01f0 B2F90200 		ldrsh	r0, [r2, #2]
 390 01f4 4FEA8901 		lsl	r1, r9, #2
 391 01f8 6A18     		adds	r2, r5, r1
 392 01fa B2F90220 		ldrsh	r2, [r2, #2]
 393 01fe 9042     		cmp	r0, r2
 394 0200 16DB     		blt	.L23
 158:..\..\..\arduinoLCD\test\Pain Drain\libraries\lvgl\src\draw\sw/lv_draw_sw_polygon.c ****             if(p[i_next_left].y != p[i_prev_left].y &&
 395              		.loc 1 158 0
 396 0202 13D0     		beq	.L24
 159:..\..\..\arduinoLCD\test\Pain Drain\libraries\lvgl\src\draw\sw/lv_draw_sw_polygon.c ****                p[i_next_left].x != p[i_prev_left].x) {
 397              		.loc 1 159 0 discriminator 1
 398 0204 EB5E     		ldrsh	r3, [r5, r3]
 399 0206 695E     		ldrsh	r1, [r5, r1]
 158:..\..\..\arduinoLCD\test\Pain Drain\libraries\lvgl\src\draw\sw/lv_draw_sw_polygon.c ****             if(p[i_next_left].y != p[i_prev_left].y &&
ARM GAS  C:\Users\haske\AppData\Local\Temp\cc4Z1yXb.s 			page 11


 400              		.loc 1 158 0 discriminator 1
 401 0208 8B42     		cmp	r3, r1
 402 020a 0FD0     		beq	.L24
 160:..\..\..\arduinoLCD\test\Pain Drain\libraries\lvgl\src\draw\sw/lv_draw_sw_polygon.c ****                 lv_draw_mask_line_points_init(mp_next, p[i_prev_left].x, p[i_prev_left].y,
 403              		.loc 1 160 0
 404 020c 4FF0010E 		mov	lr, #1
 405 0210 CDF804E0 		str	lr, [sp, #4]
 406 0214 0090     		str	r0, [sp]
 407 0216 E146     		mov	r9, ip
 408              	.LVL64:
 409 0218 6046     		mov	r0, ip
 410 021a FFF7FEFF 		bl	lv_draw_mask_line_points_init
 411              	.LVL65:
 161:..\..\..\arduinoLCD\test\Pain Drain\libraries\lvgl\src\draw\sw/lv_draw_sw_polygon.c ****                                               p[i_next_left].x, p[i_next_left].y,
 162:..\..\..\arduinoLCD\test\Pain Drain\libraries\lvgl\src\draw\sw/lv_draw_sw_polygon.c ****                                               LV_DRAW_MASK_LINE_SIDE_RIGHT);
 163:..\..\..\arduinoLCD\test\Pain Drain\libraries\lvgl\src\draw\sw/lv_draw_sw_polygon.c ****                 lv_draw_mask_add(mp_next, mp);
 412              		.loc 1 163 0
 413 021e 0399     		ldr	r1, [sp, #12]
 414 0220 4846     		mov	r0, r9
 415 0222 FFF7FEFF 		bl	lv_draw_mask_add
 416              	.LVL66:
 164:..\..\..\arduinoLCD\test\Pain Drain\libraries\lvgl\src\draw\sw/lv_draw_sw_polygon.c ****                 mp_next++;
 417              		.loc 1 164 0
 418 0226 4B46     		mov	r3, r9
 419 0228 2C33     		adds	r3, r3, #44
 420 022a 9C46     		mov	ip, r3
 421              	.LVL67:
 422              	.L24:
 165:..\..\..\arduinoLCD\test\Pain Drain\libraries\lvgl\src\draw\sw/lv_draw_sw_polygon.c ****             }
 166:..\..\..\arduinoLCD\test\Pain Drain\libraries\lvgl\src\draw\sw/lv_draw_sw_polygon.c ****             mask_cnt++;
 423              		.loc 1 166 0
 424 022c 0136     		adds	r6, r6, #1
 425              	.LVL68:
 167:..\..\..\arduinoLCD\test\Pain Drain\libraries\lvgl\src\draw\sw/lv_draw_sw_polygon.c ****             i_prev_left = i_next_left;
 426              		.loc 1 167 0
 427 022e B946     		mov	r9, r7
 428              	.LVL69:
 429              	.L23:
 168:..\..\..\arduinoLCD\test\Pain Drain\libraries\lvgl\src\draw\sw/lv_draw_sw_polygon.c ****         }
 169:..\..\..\arduinoLCD\test\Pain Drain\libraries\lvgl\src\draw\sw/lv_draw_sw_polygon.c **** 
 170:..\..\..\arduinoLCD\test\Pain Drain\libraries\lvgl\src\draw\sw/lv_draw_sw_polygon.c ****         if(mask_cnt == point_cnt) break;
 430              		.loc 1 170 0
 431 0230 5E45     		cmp	r6, fp
 432 0232 22D0     		beq	.L25
 171:..\..\..\arduinoLCD\test\Pain Drain\libraries\lvgl\src\draw\sw/lv_draw_sw_polygon.c **** 
 172:..\..\..\arduinoLCD\test\Pain Drain\libraries\lvgl\src\draw\sw/lv_draw_sw_polygon.c ****         if(p[i_next_right].y >= p[i_prev_right].y) {
 433              		.loc 1 172 0
 434 0234 4FEA8803 		lsl	r3, r8, #2
 435 0238 EA18     		adds	r2, r5, r3
 436 023a B2F90200 		ldrsh	r0, [r2, #2]
 437 023e 4FEA8A01 		lsl	r1, r10, #2
 438 0242 6A18     		adds	r2, r5, r1
 439 0244 B2F90220 		ldrsh	r2, [r2, #2]
 440 0248 9042     		cmp	r0, r2
 441 024a 14DB     		blt	.L26
 173:..\..\..\arduinoLCD\test\Pain Drain\libraries\lvgl\src\draw\sw/lv_draw_sw_polygon.c ****             if(p[i_next_right].y != p[i_prev_right].y &&
 442              		.loc 1 173 0
ARM GAS  C:\Users\haske\AppData\Local\Temp\cc4Z1yXb.s 			page 12


 443 024c 11D0     		beq	.L27
 174:..\..\..\arduinoLCD\test\Pain Drain\libraries\lvgl\src\draw\sw/lv_draw_sw_polygon.c ****                p[i_next_right].x != p[i_prev_right].x) {
 444              		.loc 1 174 0 discriminator 1
 445 024e EB5E     		ldrsh	r3, [r5, r3]
 446 0250 695E     		ldrsh	r1, [r5, r1]
 173:..\..\..\arduinoLCD\test\Pain Drain\libraries\lvgl\src\draw\sw/lv_draw_sw_polygon.c ****             if(p[i_next_right].y != p[i_prev_right].y &&
 447              		.loc 1 173 0 discriminator 1
 448 0252 8B42     		cmp	r3, r1
 449 0254 0DD0     		beq	.L27
 175:..\..\..\arduinoLCD\test\Pain Drain\libraries\lvgl\src\draw\sw/lv_draw_sw_polygon.c **** 
 176:..\..\..\arduinoLCD\test\Pain Drain\libraries\lvgl\src\draw\sw/lv_draw_sw_polygon.c ****                 lv_draw_mask_line_points_init(mp_next, p[i_prev_right].x, p[i_prev_right].y,
 450              		.loc 1 176 0
 451 0256 0027     		movs	r7, #0
 452              	.LVL70:
 453 0258 0197     		str	r7, [sp, #4]
 454 025a 0090     		str	r0, [sp]
 455 025c 6746     		mov	r7, ip
 456 025e 6046     		mov	r0, ip
 457 0260 FFF7FEFF 		bl	lv_draw_mask_line_points_init
 458              	.LVL71:
 177:..\..\..\arduinoLCD\test\Pain Drain\libraries\lvgl\src\draw\sw/lv_draw_sw_polygon.c ****                                               p[i_next_right].x, p[i_next_right].y,
 178:..\..\..\arduinoLCD\test\Pain Drain\libraries\lvgl\src\draw\sw/lv_draw_sw_polygon.c ****                                               LV_DRAW_MASK_LINE_SIDE_LEFT);
 179:..\..\..\arduinoLCD\test\Pain Drain\libraries\lvgl\src\draw\sw/lv_draw_sw_polygon.c ****                 lv_draw_mask_add(mp_next, mp);
 459              		.loc 1 179 0
 460 0264 0399     		ldr	r1, [sp, #12]
 461 0266 3846     		mov	r0, r7
 462 0268 FFF7FEFF 		bl	lv_draw_mask_add
 463              	.LVL72:
 180:..\..\..\arduinoLCD\test\Pain Drain\libraries\lvgl\src\draw\sw/lv_draw_sw_polygon.c ****                 mp_next++;
 464              		.loc 1 180 0
 465 026c 3B46     		mov	r3, r7
 466 026e 2C33     		adds	r3, r3, #44
 467 0270 9C46     		mov	ip, r3
 468              	.LVL73:
 469              	.L27:
 181:..\..\..\arduinoLCD\test\Pain Drain\libraries\lvgl\src\draw\sw/lv_draw_sw_polygon.c ****             }
 182:..\..\..\arduinoLCD\test\Pain Drain\libraries\lvgl\src\draw\sw/lv_draw_sw_polygon.c ****             mask_cnt++;
 470              		.loc 1 182 0
 471 0272 0136     		adds	r6, r6, #1
 472              	.LVL74:
 183:..\..\..\arduinoLCD\test\Pain Drain\libraries\lvgl\src\draw\sw/lv_draw_sw_polygon.c ****             i_prev_right = i_next_right;
 473              		.loc 1 183 0
 474 0274 C246     		mov	r10, r8
 475              	.LVL75:
 476              	.L26:
 184:..\..\..\arduinoLCD\test\Pain Drain\libraries\lvgl\src\draw\sw/lv_draw_sw_polygon.c ****         }
 185:..\..\..\arduinoLCD\test\Pain Drain\libraries\lvgl\src\draw\sw/lv_draw_sw_polygon.c **** 
 186:..\..\..\arduinoLCD\test\Pain Drain\libraries\lvgl\src\draw\sw/lv_draw_sw_polygon.c ****     } while(mask_cnt < point_cnt);
 477              		.loc 1 186 0
 478 0276 5E45     		cmp	r6, fp
 479 0278 9FD3     		bcc	.L28
 480              	.L25:
 187:..\..\..\arduinoLCD\test\Pain Drain\libraries\lvgl\src\draw\sw/lv_draw_sw_polygon.c **** 
 188:..\..\..\arduinoLCD\test\Pain Drain\libraries\lvgl\src\draw\sw/lv_draw_sw_polygon.c ****     lv_draw_rect(draw_ctx, draw_dsc, &poly_coords);
 481              		.loc 1 188 0
 482 027a 0AAA     		add	r2, sp, #40
 483 027c 0699     		ldr	r1, [sp, #24]
ARM GAS  C:\Users\haske\AppData\Local\Temp\cc4Z1yXb.s 			page 13


 484 027e 049E     		ldr	r6, [sp, #16]
 485              	.LVL76:
 486 0280 3046     		mov	r0, r6
 487 0282 FFF7FEFF 		bl	lv_draw_rect
 488              	.LVL77:
 189:..\..\..\arduinoLCD\test\Pain Drain\libraries\lvgl\src\draw\sw/lv_draw_sw_polygon.c **** 
 190:..\..\..\arduinoLCD\test\Pain Drain\libraries\lvgl\src\draw\sw/lv_draw_sw_polygon.c ****     lv_draw_mask_remove_custom(mp);
 489              		.loc 1 190 0
 490 0286 039C     		ldr	r4, [sp, #12]
 491 0288 2046     		mov	r0, r4
 492 028a FFF7FEFF 		bl	lv_draw_mask_remove_custom
 493              	.LVL78:
 191:..\..\..\arduinoLCD\test\Pain Drain\libraries\lvgl\src\draw\sw/lv_draw_sw_polygon.c **** 
 192:..\..\..\arduinoLCD\test\Pain Drain\libraries\lvgl\src\draw\sw/lv_draw_sw_polygon.c ****     lv_mem_buf_release(mp);
 494              		.loc 1 192 0
 495 028e 2046     		mov	r0, r4
 496 0290 FFF7FEFF 		bl	lv_mem_buf_release
 497              	.LVL79:
 193:..\..\..\arduinoLCD\test\Pain Drain\libraries\lvgl\src\draw\sw/lv_draw_sw_polygon.c ****     lv_mem_buf_release(p);
 498              		.loc 1 193 0
 499 0294 2846     		mov	r0, r5
 500 0296 FFF7FEFF 		bl	lv_mem_buf_release
 501              	.LVL80:
 194:..\..\..\arduinoLCD\test\Pain Drain\libraries\lvgl\src\draw\sw/lv_draw_sw_polygon.c **** 
 195:..\..\..\arduinoLCD\test\Pain Drain\libraries\lvgl\src\draw\sw/lv_draw_sw_polygon.c ****     draw_ctx->clip_area = clip_area_ori;
 502              		.loc 1 195 0
 503 029a 079B     		ldr	r3, [sp, #28]
 504 029c B360     		str	r3, [r6, #8]
 505              	.LVL81:
 506              	.L1:
 196:..\..\..\arduinoLCD\test\Pain Drain\libraries\lvgl\src\draw\sw/lv_draw_sw_polygon.c **** #else
 197:..\..\..\arduinoLCD\test\Pain Drain\libraries\lvgl\src\draw\sw/lv_draw_sw_polygon.c ****     LV_UNUSED(points);
 198:..\..\..\arduinoLCD\test\Pain Drain\libraries\lvgl\src\draw\sw/lv_draw_sw_polygon.c ****     LV_UNUSED(point_cnt);
 199:..\..\..\arduinoLCD\test\Pain Drain\libraries\lvgl\src\draw\sw/lv_draw_sw_polygon.c ****     LV_UNUSED(draw_ctx);
 200:..\..\..\arduinoLCD\test\Pain Drain\libraries\lvgl\src\draw\sw/lv_draw_sw_polygon.c ****     LV_UNUSED(draw_dsc);
 201:..\..\..\arduinoLCD\test\Pain Drain\libraries\lvgl\src\draw\sw/lv_draw_sw_polygon.c ****     LV_LOG_WARN("Can't draw polygon with LV_DRAW_COMPLEX == 0");
 202:..\..\..\arduinoLCD\test\Pain Drain\libraries\lvgl\src\draw\sw/lv_draw_sw_polygon.c **** #endif /*LV_DRAW_COMPLEX*/
 203:..\..\..\arduinoLCD\test\Pain Drain\libraries\lvgl\src\draw\sw/lv_draw_sw_polygon.c **** }
 507              		.loc 1 203 0
 508 029e 0DB0     		add	sp, sp, #52
 509              		.cfi_def_cfa_offset 36
 510              		@ sp needed
 511 02a0 BDE8F08F 		pop	{r4, r5, r6, r7, r8, r9, r10, fp, pc}
 512              	.LVL82:
 513              	.L35:
 514              		.cfi_def_cfa_offset 0
 515              		.cfi_restore 4
 516              		.cfi_restore 5
 517              		.cfi_restore 6
 518              		.cfi_restore 7
 519              		.cfi_restore 8
 520              		.cfi_restore 9
 521              		.cfi_restore 10
 522              		.cfi_restore 11
 523              		.cfi_restore 14
 524 02a4 7047     		bx	lr
 525              	.L37:
ARM GAS  C:\Users\haske\AppData\Local\Temp\cc4Z1yXb.s 			page 14


 526 02a6 00BF     		.align	2
 527              	.L36:
 528 02a8 00000000 		.word	.LANCHOR0
 529              		.cfi_endproc
 530              	.LFE56:
 531              		.size	lv_draw_sw_polygon, .-lv_draw_sw_polygon
 532              		.section	.rodata
 533              		.align	2
 534              		.set	.LANCHOR0,. + 0
 535              	.LC0:
 536 0000 FF1F     		.short	8191
 537 0002 FF1F     		.short	8191
 538 0004 01E0     		.short	-8191
 539 0006 01E0     		.short	-8191
 540              		.text
 541              	.Letext0:
 542              		.file 2 "c:\\program files (x86)\\cypress\\psoc creator\\4.4\\psoc creator\\import\\gnu\\arm\\5.4.
 543              		.file 3 "c:\\program files (x86)\\cypress\\psoc creator\\4.4\\psoc creator\\import\\gnu\\arm\\5.4.
 544              		.file 4 "c:\\projects\\paindrain\\arduinolcd\\test\\pain drain\\libraries\\lvgl\\src\\misc\\lv_typ
 545              		.file 5 "c:\\program files (x86)\\cypress\\psoc creator\\4.4\\psoc creator\\import\\gnu\\arm\\5.4.
 546              		.file 6 "c:\\projects\\paindrain\\arduinolcd\\test\\pain drain\\libraries\\lvgl\\src\\misc\\lv_col
 547              		.file 7 "c:\\projects\\paindrain\\arduinolcd\\test\\pain drain\\libraries\\lvgl\\src\\misc\\lv_are
 548              		.file 8 "c:\\projects\\paindrain\\arduinolcd\\test\\pain drain\\libraries\\lvgl\\src\\font\\lv_fon
 549              		.file 9 "c:\\projects\\paindrain\\arduinolcd\\test\\pain drain\\libraries\\lvgl\\src\\misc\\lv_txt
 550              		.file 10 "c:\\projects\\paindrain\\arduinolcd\\test\\pain drain\\libraries\\lvgl\\src\\misc\\lv_bi
 551              		.file 11 "c:\\projects\\paindrain\\arduinolcd\\test\\pain drain\\libraries\\lvgl\\src\\misc\\lv_st
 552              		.file 12 "..\\..\\..\\arduinoLCD\\test\\Pain Drain\\libraries\\lvgl\\src\\draw\\sw\\../lv_draw_mas
 553              		.file 13 "..\\..\\..\\arduinoLCD\\test\\Pain Drain\\libraries\\lvgl\\src\\draw\\sw\\../lv_img_buf.
 554              		.file 14 "..\\..\\..\\arduinoLCD\\test\\Pain Drain\\libraries\\lvgl\\src\\draw\\sw\\../lv_draw_rec
 555              		.file 15 "..\\..\\..\\arduinoLCD\\test\\Pain Drain\\libraries\\lvgl\\src\\draw\\sw\\../lv_draw_lab
 556              		.file 16 "..\\..\\..\\arduinoLCD\\test\\Pain Drain\\libraries\\lvgl\\src\\draw\\sw\\../lv_draw_img
 557              		.file 17 "..\\..\\..\\arduinoLCD\\test\\Pain Drain\\libraries\\lvgl\\src\\draw\\sw\\../lv_draw_lin
 558              		.file 18 "..\\..\\..\\arduinoLCD\\test\\Pain Drain\\libraries\\lvgl\\src\\draw\\sw\\../lv_draw_arc
 559              		.file 19 "..\\..\\..\\arduinoLCD\\test\\Pain Drain\\libraries\\lvgl\\src\\draw\\sw\\../lv_draw_lay
 560              		.file 20 "..\\..\\..\\arduinoLCD\\test\\Pain Drain\\libraries\\lvgl\\src\\draw\\sw\\../lv_draw.h"
 561              		.file 21 "c:\\projects\\paindrain\\arduinolcd\\test\\pain drain\\libraries\\lvgl\\src\\misc\\lv_me