ARM GAS  C:\Users\haske\AppData\Local\Temp\cccSbkbr.s 			page 1


   1              		.syntax unified
   2              		.cpu cortex-m4
   3              		.eabi_attribute 27, 1
   4              		.fpu fpv4-sp-d16
   5              		.eabi_attribute 20, 1
   6              		.eabi_attribute 21, 1
   7              		.eabi_attribute 23, 3
   8              		.eabi_attribute 24, 1
   9              		.eabi_attribute 25, 1
  10              		.eabi_attribute 26, 1
  11              		.eabi_attribute 30, 1
  12              		.eabi_attribute 34, 1
  13              		.eabi_attribute 18, 4
  14              		.thumb
  15              		.syntax unified
  16              		.file	"lv_draw_sw_gradient.c"
  17              		.text
  18              	.Ltext0:
  19              		.cfi_sections	.debug_frame
  20              		.section	.text.compute_key,"ax",%progbits
  21              		.align	2
  22              		.thumb
  23              		.thumb_func
  24              		.type	compute_key, %function
  25              	compute_key:
  26              	.LFB56:
  27              		.file 1 "..\\..\\..\\arduinoLCD\\test\\Pain Drain\\libraries\\lvgl\\src\\draw\\sw\\lv_draw_sw_grad
   1:..\..\..\arduinoLCD\test\Pain Drain\libraries\lvgl\src\draw\sw/lv_draw_sw_gradient.c **** /**
   2:..\..\..\arduinoLCD\test\Pain Drain\libraries\lvgl\src\draw\sw/lv_draw_sw_gradient.c ****  * @file lv_draw_sw_gradient.c
   3:..\..\..\arduinoLCD\test\Pain Drain\libraries\lvgl\src\draw\sw/lv_draw_sw_gradient.c ****  *
   4:..\..\..\arduinoLCD\test\Pain Drain\libraries\lvgl\src\draw\sw/lv_draw_sw_gradient.c ****  */
   5:..\..\..\arduinoLCD\test\Pain Drain\libraries\lvgl\src\draw\sw/lv_draw_sw_gradient.c **** 
   6:..\..\..\arduinoLCD\test\Pain Drain\libraries\lvgl\src\draw\sw/lv_draw_sw_gradient.c **** /*********************
   7:..\..\..\arduinoLCD\test\Pain Drain\libraries\lvgl\src\draw\sw/lv_draw_sw_gradient.c ****  *      INCLUDES
   8:..\..\..\arduinoLCD\test\Pain Drain\libraries\lvgl\src\draw\sw/lv_draw_sw_gradient.c ****  *********************/
   9:..\..\..\arduinoLCD\test\Pain Drain\libraries\lvgl\src\draw\sw/lv_draw_sw_gradient.c **** #include "lv_draw_sw_gradient.h"
  10:..\..\..\arduinoLCD\test\Pain Drain\libraries\lvgl\src\draw\sw/lv_draw_sw_gradient.c **** #include "../../misc/lv_gc.h"
  11:..\..\..\arduinoLCD\test\Pain Drain\libraries\lvgl\src\draw\sw/lv_draw_sw_gradient.c **** #include "../../misc/lv_types.h"
  12:..\..\..\arduinoLCD\test\Pain Drain\libraries\lvgl\src\draw\sw/lv_draw_sw_gradient.c **** 
  13:..\..\..\arduinoLCD\test\Pain Drain\libraries\lvgl\src\draw\sw/lv_draw_sw_gradient.c **** /*********************
  14:..\..\..\arduinoLCD\test\Pain Drain\libraries\lvgl\src\draw\sw/lv_draw_sw_gradient.c ****  *      DEFINES
  15:..\..\..\arduinoLCD\test\Pain Drain\libraries\lvgl\src\draw\sw/lv_draw_sw_gradient.c ****  *********************/
  16:..\..\..\arduinoLCD\test\Pain Drain\libraries\lvgl\src\draw\sw/lv_draw_sw_gradient.c **** #if _DITHER_GRADIENT
  17:..\..\..\arduinoLCD\test\Pain Drain\libraries\lvgl\src\draw\sw/lv_draw_sw_gradient.c ****     #define GRAD_CM(r,g,b) LV_COLOR_MAKE32(r,g,b)
  18:..\..\..\arduinoLCD\test\Pain Drain\libraries\lvgl\src\draw\sw/lv_draw_sw_gradient.c ****     #define GRAD_CONV(t, x) t.full = lv_color_to32(x)
  19:..\..\..\arduinoLCD\test\Pain Drain\libraries\lvgl\src\draw\sw/lv_draw_sw_gradient.c **** #else
  20:..\..\..\arduinoLCD\test\Pain Drain\libraries\lvgl\src\draw\sw/lv_draw_sw_gradient.c ****     #define GRAD_CM(r,g,b) LV_COLOR_MAKE(r,g,b)
  21:..\..\..\arduinoLCD\test\Pain Drain\libraries\lvgl\src\draw\sw/lv_draw_sw_gradient.c ****     #define GRAD_CONV(t, x) t = x
  22:..\..\..\arduinoLCD\test\Pain Drain\libraries\lvgl\src\draw\sw/lv_draw_sw_gradient.c **** #endif
  23:..\..\..\arduinoLCD\test\Pain Drain\libraries\lvgl\src\draw\sw/lv_draw_sw_gradient.c **** 
  24:..\..\..\arduinoLCD\test\Pain Drain\libraries\lvgl\src\draw\sw/lv_draw_sw_gradient.c **** #undef ALIGN
  25:..\..\..\arduinoLCD\test\Pain Drain\libraries\lvgl\src\draw\sw/lv_draw_sw_gradient.c **** #if defined(LV_ARCH_64)
  26:..\..\..\arduinoLCD\test\Pain Drain\libraries\lvgl\src\draw\sw/lv_draw_sw_gradient.c ****     #define ALIGN(X)    (((X) + 7) & ~7)
  27:..\..\..\arduinoLCD\test\Pain Drain\libraries\lvgl\src\draw\sw/lv_draw_sw_gradient.c **** #else
  28:..\..\..\arduinoLCD\test\Pain Drain\libraries\lvgl\src\draw\sw/lv_draw_sw_gradient.c ****     #define ALIGN(X)    (((X) + 3) & ~3)
  29:..\..\..\arduinoLCD\test\Pain Drain\libraries\lvgl\src\draw\sw/lv_draw_sw_gradient.c **** #endif
  30:..\..\..\arduinoLCD\test\Pain Drain\libraries\lvgl\src\draw\sw/lv_draw_sw_gradient.c **** 
ARM GAS  C:\Users\haske\AppData\Local\Temp\cccSbkbr.s 			page 2


  31:..\..\..\arduinoLCD\test\Pain Drain\libraries\lvgl\src\draw\sw/lv_draw_sw_gradient.c **** #if LV_GRAD_CACHE_DEF_SIZE != 0 && LV_GRAD_CACHE_DEF_SIZE < 256
  32:..\..\..\arduinoLCD\test\Pain Drain\libraries\lvgl\src\draw\sw/lv_draw_sw_gradient.c ****     #error "LV_GRAD_CACHE_DEF_SIZE is too small"
  33:..\..\..\arduinoLCD\test\Pain Drain\libraries\lvgl\src\draw\sw/lv_draw_sw_gradient.c **** #endif
  34:..\..\..\arduinoLCD\test\Pain Drain\libraries\lvgl\src\draw\sw/lv_draw_sw_gradient.c **** 
  35:..\..\..\arduinoLCD\test\Pain Drain\libraries\lvgl\src\draw\sw/lv_draw_sw_gradient.c **** /**********************
  36:..\..\..\arduinoLCD\test\Pain Drain\libraries\lvgl\src\draw\sw/lv_draw_sw_gradient.c ****  *  STATIC PROTOTYPES
  37:..\..\..\arduinoLCD\test\Pain Drain\libraries\lvgl\src\draw\sw/lv_draw_sw_gradient.c ****  **********************/
  38:..\..\..\arduinoLCD\test\Pain Drain\libraries\lvgl\src\draw\sw/lv_draw_sw_gradient.c **** static lv_grad_t * next_in_cache(lv_grad_t * item);
  39:..\..\..\arduinoLCD\test\Pain Drain\libraries\lvgl\src\draw\sw/lv_draw_sw_gradient.c **** 
  40:..\..\..\arduinoLCD\test\Pain Drain\libraries\lvgl\src\draw\sw/lv_draw_sw_gradient.c **** typedef lv_res_t (*op_cache_t)(lv_grad_t * c, void * ctx);
  41:..\..\..\arduinoLCD\test\Pain Drain\libraries\lvgl\src\draw\sw/lv_draw_sw_gradient.c **** static lv_res_t iterate_cache(op_cache_t func, void * ctx, lv_grad_t ** out);
  42:..\..\..\arduinoLCD\test\Pain Drain\libraries\lvgl\src\draw\sw/lv_draw_sw_gradient.c **** static size_t get_cache_item_size(lv_grad_t * c);
  43:..\..\..\arduinoLCD\test\Pain Drain\libraries\lvgl\src\draw\sw/lv_draw_sw_gradient.c **** static lv_grad_t * allocate_item(const lv_grad_dsc_t * g, lv_coord_t w, lv_coord_t h);
  44:..\..\..\arduinoLCD\test\Pain Drain\libraries\lvgl\src\draw\sw/lv_draw_sw_gradient.c **** static lv_res_t find_oldest_item_life(lv_grad_t * c, void * ctx);
  45:..\..\..\arduinoLCD\test\Pain Drain\libraries\lvgl\src\draw\sw/lv_draw_sw_gradient.c **** static lv_res_t kill_oldest_item(lv_grad_t * c, void * ctx);
  46:..\..\..\arduinoLCD\test\Pain Drain\libraries\lvgl\src\draw\sw/lv_draw_sw_gradient.c **** static lv_res_t find_item(lv_grad_t * c, void * ctx);
  47:..\..\..\arduinoLCD\test\Pain Drain\libraries\lvgl\src\draw\sw/lv_draw_sw_gradient.c **** static void free_item(lv_grad_t * c);
  48:..\..\..\arduinoLCD\test\Pain Drain\libraries\lvgl\src\draw\sw/lv_draw_sw_gradient.c **** static  uint32_t compute_key(const lv_grad_dsc_t * g, lv_coord_t w, lv_coord_t h);
  49:..\..\..\arduinoLCD\test\Pain Drain\libraries\lvgl\src\draw\sw/lv_draw_sw_gradient.c **** 
  50:..\..\..\arduinoLCD\test\Pain Drain\libraries\lvgl\src\draw\sw/lv_draw_sw_gradient.c **** 
  51:..\..\..\arduinoLCD\test\Pain Drain\libraries\lvgl\src\draw\sw/lv_draw_sw_gradient.c **** /**********************
  52:..\..\..\arduinoLCD\test\Pain Drain\libraries\lvgl\src\draw\sw/lv_draw_sw_gradient.c ****  *   STATIC VARIABLE
  53:..\..\..\arduinoLCD\test\Pain Drain\libraries\lvgl\src\draw\sw/lv_draw_sw_gradient.c ****  **********************/
  54:..\..\..\arduinoLCD\test\Pain Drain\libraries\lvgl\src\draw\sw/lv_draw_sw_gradient.c **** static size_t    grad_cache_size = 0;
  55:..\..\..\arduinoLCD\test\Pain Drain\libraries\lvgl\src\draw\sw/lv_draw_sw_gradient.c **** static uint8_t * grad_cache_end = 0;
  56:..\..\..\arduinoLCD\test\Pain Drain\libraries\lvgl\src\draw\sw/lv_draw_sw_gradient.c **** 
  57:..\..\..\arduinoLCD\test\Pain Drain\libraries\lvgl\src\draw\sw/lv_draw_sw_gradient.c **** /**********************
  58:..\..\..\arduinoLCD\test\Pain Drain\libraries\lvgl\src\draw\sw/lv_draw_sw_gradient.c ****  *   STATIC FUNCTIONS
  59:..\..\..\arduinoLCD\test\Pain Drain\libraries\lvgl\src\draw\sw/lv_draw_sw_gradient.c ****  **********************/
  60:..\..\..\arduinoLCD\test\Pain Drain\libraries\lvgl\src\draw\sw/lv_draw_sw_gradient.c **** union void_cast {
  61:..\..\..\arduinoLCD\test\Pain Drain\libraries\lvgl\src\draw\sw/lv_draw_sw_gradient.c ****     const void * ptr;
  62:..\..\..\arduinoLCD\test\Pain Drain\libraries\lvgl\src\draw\sw/lv_draw_sw_gradient.c ****     const uint32_t value;
  63:..\..\..\arduinoLCD\test\Pain Drain\libraries\lvgl\src\draw\sw/lv_draw_sw_gradient.c **** };
  64:..\..\..\arduinoLCD\test\Pain Drain\libraries\lvgl\src\draw\sw/lv_draw_sw_gradient.c **** 
  65:..\..\..\arduinoLCD\test\Pain Drain\libraries\lvgl\src\draw\sw/lv_draw_sw_gradient.c **** static uint32_t compute_key(const lv_grad_dsc_t * g, lv_coord_t size, lv_coord_t w)
  66:..\..\..\arduinoLCD\test\Pain Drain\libraries\lvgl\src\draw\sw/lv_draw_sw_gradient.c **** {
  28              		.loc 1 66 0
  29              		.cfi_startproc
  30              		@ args = 0, pretend = 0, frame = 0
  31              		@ frame_needed = 0, uses_anonymous_args = 0
  32              		@ link register save eliminated.
  33              	.LVL0:
  67:..\..\..\arduinoLCD\test\Pain Drain\libraries\lvgl\src\draw\sw/lv_draw_sw_gradient.c ****     union void_cast v;
  68:..\..\..\arduinoLCD\test\Pain Drain\libraries\lvgl\src\draw\sw/lv_draw_sw_gradient.c ****     v.ptr = g;
  69:..\..\..\arduinoLCD\test\Pain Drain\libraries\lvgl\src\draw\sw/lv_draw_sw_gradient.c ****     return (v.value ^ size ^ (w >> 1)); /*Yes, this is correct, it's like a hash that changes if th
  34              		.loc 1 69 0
  35 0000 4840     		eors	r0, r0, r1
  36              	.LVL1:
  70:..\..\..\arduinoLCD\test\Pain Drain\libraries\lvgl\src\draw\sw/lv_draw_sw_gradient.c **** }
  37              		.loc 1 70 0
  38 0002 80EA6200 		eor	r0, r0, r2, asr #1
  39 0006 7047     		bx	lr
  40              		.cfi_endproc
  41              	.LFE56:
  42              		.size	compute_key, .-compute_key
  43              		.section	.text.get_cache_item_size,"ax",%progbits
  44              		.align	2
ARM GAS  C:\Users\haske\AppData\Local\Temp\cccSbkbr.s 			page 3


  45              		.thumb
  46              		.thumb_func
  47              		.type	get_cache_item_size, %function
  48              	get_cache_item_size:
  49              	.LFB57:
  71:..\..\..\arduinoLCD\test\Pain Drain\libraries\lvgl\src\draw\sw/lv_draw_sw_gradient.c **** 
  72:..\..\..\arduinoLCD\test\Pain Drain\libraries\lvgl\src\draw\sw/lv_draw_sw_gradient.c **** static size_t get_cache_item_size(lv_grad_t * c)
  73:..\..\..\arduinoLCD\test\Pain Drain\libraries\lvgl\src\draw\sw/lv_draw_sw_gradient.c **** {
  50              		.loc 1 73 0
  51              		.cfi_startproc
  52              		@ args = 0, pretend = 0, frame = 0
  53              		@ frame_needed = 0, uses_anonymous_args = 0
  54              		@ link register save eliminated.
  55              	.LVL2:
  74:..\..\..\arduinoLCD\test\Pain Drain\libraries\lvgl\src\draw\sw/lv_draw_sw_gradient.c ****     size_t s = ALIGN(sizeof(*c)) + ALIGN(c->alloc_size * sizeof(lv_color_t));
  56              		.loc 1 74 0
  57 0000 B0F90C00 		ldrsh	r0, [r0, #12]
  58              	.LVL3:
  59 0004 4000     		lsls	r0, r0, #1
  60 0006 0330     		adds	r0, r0, #3
  61 0008 20F00300 		bic	r0, r0, #3
  62              	.LVL4:
  75:..\..\..\arduinoLCD\test\Pain Drain\libraries\lvgl\src\draw\sw/lv_draw_sw_gradient.c **** #if _DITHER_GRADIENT
  76:..\..\..\arduinoLCD\test\Pain Drain\libraries\lvgl\src\draw\sw/lv_draw_sw_gradient.c ****     s += ALIGN(c->size * sizeof(lv_color32_t));
  77:..\..\..\arduinoLCD\test\Pain Drain\libraries\lvgl\src\draw\sw/lv_draw_sw_gradient.c **** #if LV_DITHER_ERROR_DIFFUSION == 1
  78:..\..\..\arduinoLCD\test\Pain Drain\libraries\lvgl\src\draw\sw/lv_draw_sw_gradient.c ****     s += ALIGN(c->w * sizeof(lv_scolor24_t));
  79:..\..\..\arduinoLCD\test\Pain Drain\libraries\lvgl\src\draw\sw/lv_draw_sw_gradient.c **** #endif
  80:..\..\..\arduinoLCD\test\Pain Drain\libraries\lvgl\src\draw\sw/lv_draw_sw_gradient.c **** #endif
  81:..\..\..\arduinoLCD\test\Pain Drain\libraries\lvgl\src\draw\sw/lv_draw_sw_gradient.c ****     return s;
  82:..\..\..\arduinoLCD\test\Pain Drain\libraries\lvgl\src\draw\sw/lv_draw_sw_gradient.c **** }
  63              		.loc 1 82 0
  64 000c 1030     		adds	r0, r0, #16
  65              	.LVL5:
  66 000e 7047     		bx	lr
  67              		.cfi_endproc
  68              	.LFE57:
  69              		.size	get_cache_item_size, .-get_cache_item_size
  70              		.section	.text.next_in_cache,"ax",%progbits
  71              		.align	2
  72              		.thumb
  73              		.thumb_func
  74              		.type	next_in_cache, %function
  75              	next_in_cache:
  76              	.LFB58:
  83:..\..\..\arduinoLCD\test\Pain Drain\libraries\lvgl\src\draw\sw/lv_draw_sw_gradient.c **** 
  84:..\..\..\arduinoLCD\test\Pain Drain\libraries\lvgl\src\draw\sw/lv_draw_sw_gradient.c **** static lv_grad_t * next_in_cache(lv_grad_t * item)
  85:..\..\..\arduinoLCD\test\Pain Drain\libraries\lvgl\src\draw\sw/lv_draw_sw_gradient.c **** {
  77              		.loc 1 85 0
  78              		.cfi_startproc
  79              		@ args = 0, pretend = 0, frame = 0
  80              		@ frame_needed = 0, uses_anonymous_args = 0
  81              	.LVL6:
  86:..\..\..\arduinoLCD\test\Pain Drain\libraries\lvgl\src\draw\sw/lv_draw_sw_gradient.c ****     if(grad_cache_size == 0) return NULL;
  82              		.loc 1 86 0
  83 0000 0A4B     		ldr	r3, .L10
  84 0002 1B68     		ldr	r3, [r3]
  85 0004 73B1     		cbz	r3, .L6
ARM GAS  C:\Users\haske\AppData\Local\Temp\cccSbkbr.s 			page 4


  87:..\..\..\arduinoLCD\test\Pain Drain\libraries\lvgl\src\draw\sw/lv_draw_sw_gradient.c **** 
  88:..\..\..\arduinoLCD\test\Pain Drain\libraries\lvgl\src\draw\sw/lv_draw_sw_gradient.c ****     if(item == NULL)
  86              		.loc 1 88 0
  87 0006 10B9     		cbnz	r0, .L5
  89:..\..\..\arduinoLCD\test\Pain Drain\libraries\lvgl\src\draw\sw/lv_draw_sw_gradient.c ****         return (lv_grad_t *)LV_GC_ROOT(_lv_grad_cache_mem);
  88              		.loc 1 89 0
  89 0008 094B     		ldr	r3, .L10+4
  90 000a 1868     		ldr	r0, [r3]
  91              	.LVL7:
  90:..\..\..\arduinoLCD\test\Pain Drain\libraries\lvgl\src\draw\sw/lv_draw_sw_gradient.c **** 
  91:..\..\..\arduinoLCD\test\Pain Drain\libraries\lvgl\src\draw\sw/lv_draw_sw_gradient.c ****     size_t s = get_cache_item_size(item);
  92:..\..\..\arduinoLCD\test\Pain Drain\libraries\lvgl\src\draw\sw/lv_draw_sw_gradient.c ****     /*Compute the size for this cache item*/
  93:..\..\..\arduinoLCD\test\Pain Drain\libraries\lvgl\src\draw\sw/lv_draw_sw_gradient.c ****     if((uint8_t *)item + s >= grad_cache_end) return NULL;
  94:..\..\..\arduinoLCD\test\Pain Drain\libraries\lvgl\src\draw\sw/lv_draw_sw_gradient.c ****     else return (lv_grad_t *)((uint8_t *)item + s);
  95:..\..\..\arduinoLCD\test\Pain Drain\libraries\lvgl\src\draw\sw/lv_draw_sw_gradient.c **** }
  92              		.loc 1 95 0
  93 000c 7047     		bx	lr
  94              	.LVL8:
  95              	.L5:
  85:..\..\..\arduinoLCD\test\Pain Drain\libraries\lvgl\src\draw\sw/lv_draw_sw_gradient.c ****     if(grad_cache_size == 0) return NULL;
  96              		.loc 1 85 0
  97 000e 10B5     		push	{r4, lr}
  98              		.cfi_def_cfa_offset 8
  99              		.cfi_offset 4, -8
 100              		.cfi_offset 14, -4
 101 0010 0446     		mov	r4, r0
  91:..\..\..\arduinoLCD\test\Pain Drain\libraries\lvgl\src\draw\sw/lv_draw_sw_gradient.c ****     /*Compute the size for this cache item*/
 102              		.loc 1 91 0
 103 0012 FFF7FEFF 		bl	get_cache_item_size
 104              	.LVL9:
  93:..\..\..\arduinoLCD\test\Pain Drain\libraries\lvgl\src\draw\sw/lv_draw_sw_gradient.c ****     else return (lv_grad_t *)((uint8_t *)item + s);
 105              		.loc 1 93 0
 106 0016 2044     		add	r0, r0, r4
 107              	.LVL10:
 108 0018 044B     		ldr	r3, .L10
 109 001a 5B68     		ldr	r3, [r3, #4]
 110 001c 9842     		cmp	r0, r3
 111 001e 03D3     		bcc	.L4
 112 0020 0020     		movs	r0, #0
 113 0022 10BD     		pop	{r4, pc}
 114              	.LVL11:
 115              	.L6:
 116              		.cfi_def_cfa_offset 0
 117              		.cfi_restore 4
 118              		.cfi_restore 14
  86:..\..\..\arduinoLCD\test\Pain Drain\libraries\lvgl\src\draw\sw/lv_draw_sw_gradient.c **** 
 119              		.loc 1 86 0
 120 0024 0020     		movs	r0, #0
 121              	.LVL12:
 122 0026 7047     		bx	lr
 123              	.LVL13:
 124              	.L4:
 125              		.cfi_def_cfa_offset 8
 126              		.cfi_offset 4, -8
 127              		.cfi_offset 14, -4
 128              		.loc 1 95 0
 129 0028 10BD     		pop	{r4, pc}
ARM GAS  C:\Users\haske\AppData\Local\Temp\cccSbkbr.s 			page 5


 130              	.LVL14:
 131              	.L11:
 132 002a 00BF     		.align	2
 133              	.L10:
 134 002c 00000000 		.word	.LANCHOR0
 135 0030 00000000 		.word	_lv_grad_cache_mem
 136              		.cfi_endproc
 137              	.LFE58:
 138              		.size	next_in_cache, .-next_in_cache
 139              		.section	.text.iterate_cache,"ax",%progbits
 140              		.align	2
 141              		.thumb
 142              		.thumb_func
 143              		.type	iterate_cache, %function
 144              	iterate_cache:
 145              	.LFB59:
  96:..\..\..\arduinoLCD\test\Pain Drain\libraries\lvgl\src\draw\sw/lv_draw_sw_gradient.c **** 
  97:..\..\..\arduinoLCD\test\Pain Drain\libraries\lvgl\src\draw\sw/lv_draw_sw_gradient.c **** static lv_res_t iterate_cache(op_cache_t func, void * ctx, lv_grad_t ** out)
  98:..\..\..\arduinoLCD\test\Pain Drain\libraries\lvgl\src\draw\sw/lv_draw_sw_gradient.c **** {
 146              		.loc 1 98 0
 147              		.cfi_startproc
 148              		@ args = 0, pretend = 0, frame = 0
 149              		@ frame_needed = 0, uses_anonymous_args = 0
 150              	.LVL15:
 151 0000 F8B5     		push	{r3, r4, r5, r6, r7, lr}
 152              		.cfi_def_cfa_offset 24
 153              		.cfi_offset 3, -24
 154              		.cfi_offset 4, -20
 155              		.cfi_offset 5, -16
 156              		.cfi_offset 6, -12
 157              		.cfi_offset 7, -8
 158              		.cfi_offset 14, -4
 159 0002 0646     		mov	r6, r0
 160 0004 0D46     		mov	r5, r1
 161 0006 1746     		mov	r7, r2
  99:..\..\..\arduinoLCD\test\Pain Drain\libraries\lvgl\src\draw\sw/lv_draw_sw_gradient.c ****     lv_grad_t * first = next_in_cache(NULL);
 162              		.loc 1 99 0
 163 0008 0020     		movs	r0, #0
 164              	.LVL16:
 165 000a FFF7FEFF 		bl	next_in_cache
 166              	.LVL17:
 167 000e 0446     		mov	r4, r0
 168              	.LVL18:
 100:..\..\..\arduinoLCD\test\Pain Drain\libraries\lvgl\src\draw\sw/lv_draw_sw_gradient.c ****     while(first != NULL && first->life) {
 169              		.loc 1 100 0
 170 0010 0BE0     		b	.L13
 171              	.L16:
 101:..\..\..\arduinoLCD\test\Pain Drain\libraries\lvgl\src\draw\sw/lv_draw_sw_gradient.c ****         if((*func)(first, ctx) == LV_RES_OK) {
 172              		.loc 1 101 0
 173 0012 2946     		mov	r1, r5
 174 0014 2046     		mov	r0, r4
 175              	.LVL19:
 176 0016 B047     		blx	r6
 177              	.LVL20:
 178 0018 0128     		cmp	r0, #1
 179 001a 02D1     		bne	.L14
 102:..\..\..\arduinoLCD\test\Pain Drain\libraries\lvgl\src\draw\sw/lv_draw_sw_gradient.c ****             if(out != NULL) *out = first;
ARM GAS  C:\Users\haske\AppData\Local\Temp\cccSbkbr.s 			page 6


 180              		.loc 1 102 0
 181 001c 77B1     		cbz	r7, .L15
 182              		.loc 1 102 0 is_stmt 0 discriminator 1
 183 001e 3C60     		str	r4, [r7]
 184 0020 F8BD     		pop	{r3, r4, r5, r6, r7, pc}
 185              	.LVL21:
 186              	.L14:
 103:..\..\..\arduinoLCD\test\Pain Drain\libraries\lvgl\src\draw\sw/lv_draw_sw_gradient.c ****             return LV_RES_OK;
 104:..\..\..\arduinoLCD\test\Pain Drain\libraries\lvgl\src\draw\sw/lv_draw_sw_gradient.c ****         }
 105:..\..\..\arduinoLCD\test\Pain Drain\libraries\lvgl\src\draw\sw/lv_draw_sw_gradient.c ****         first = next_in_cache(first);
 187              		.loc 1 105 0 is_stmt 1
 188 0022 2046     		mov	r0, r4
 189 0024 FFF7FEFF 		bl	next_in_cache
 190              	.LVL22:
 191 0028 0446     		mov	r4, r0
 192              	.LVL23:
 193              	.L13:
 100:..\..\..\arduinoLCD\test\Pain Drain\libraries\lvgl\src\draw\sw/lv_draw_sw_gradient.c ****         if((*func)(first, ctx) == LV_RES_OK) {
 194              		.loc 1 100 0
 195 002a 34B1     		cbz	r4, .L17
 100:..\..\..\arduinoLCD\test\Pain Drain\libraries\lvgl\src\draw\sw/lv_draw_sw_gradient.c ****         if((*func)(first, ctx) == LV_RES_OK) {
 196              		.loc 1 100 0 is_stmt 0 discriminator 1
 197 002c 6368     		ldr	r3, [r4, #4]
 198 002e 23F04043 		bic	r3, r3, #-1073741824
 199 0032 002B     		cmp	r3, #0
 200 0034 EDD1     		bne	.L16
 106:..\..\..\arduinoLCD\test\Pain Drain\libraries\lvgl\src\draw\sw/lv_draw_sw_gradient.c ****     }
 107:..\..\..\arduinoLCD\test\Pain Drain\libraries\lvgl\src\draw\sw/lv_draw_sw_gradient.c ****     return LV_RES_INV;
 201              		.loc 1 107 0 is_stmt 1
 202 0036 0020     		movs	r0, #0
 203              	.LVL24:
 204 0038 F8BD     		pop	{r3, r4, r5, r6, r7, pc}
 205              	.LVL25:
 206              	.L17:
 207 003a 0020     		movs	r0, #0
 208              	.LVL26:
 209              	.L15:
 108:..\..\..\arduinoLCD\test\Pain Drain\libraries\lvgl\src\draw\sw/lv_draw_sw_gradient.c **** }
 210              		.loc 1 108 0
 211 003c F8BD     		pop	{r3, r4, r5, r6, r7, pc}
 212              		.cfi_endproc
 213              	.LFE59:
 214              		.size	iterate_cache, .-iterate_cache
 215 003e 00BF     		.section	.text.find_oldest_item_life,"ax",%progbits
 216              		.align	2
 217              		.thumb
 218              		.thumb_func
 219              		.type	find_oldest_item_life, %function
 220              	find_oldest_item_life:
 221              	.LFB60:
 109:..\..\..\arduinoLCD\test\Pain Drain\libraries\lvgl\src\draw\sw/lv_draw_sw_gradient.c **** 
 110:..\..\..\arduinoLCD\test\Pain Drain\libraries\lvgl\src\draw\sw/lv_draw_sw_gradient.c **** static lv_res_t find_oldest_item_life(lv_grad_t * c, void * ctx)
 111:..\..\..\arduinoLCD\test\Pain Drain\libraries\lvgl\src\draw\sw/lv_draw_sw_gradient.c **** {
 222              		.loc 1 111 0
 223              		.cfi_startproc
 224              		@ args = 0, pretend = 0, frame = 0
 225              		@ frame_needed = 0, uses_anonymous_args = 0
ARM GAS  C:\Users\haske\AppData\Local\Temp\cccSbkbr.s 			page 7


 226              		@ link register save eliminated.
 227              	.LVL27:
 112:..\..\..\arduinoLCD\test\Pain Drain\libraries\lvgl\src\draw\sw/lv_draw_sw_gradient.c ****     uint32_t * min_life = (uint32_t *)ctx;
 113:..\..\..\arduinoLCD\test\Pain Drain\libraries\lvgl\src\draw\sw/lv_draw_sw_gradient.c ****     if(c->life < *min_life) *min_life = c->life;
 228              		.loc 1 113 0
 229 0000 4368     		ldr	r3, [r0, #4]
 230 0002 C3F31D03 		ubfx	r3, r3, #0, #30
 231 0006 0A68     		ldr	r2, [r1]
 232 0008 9342     		cmp	r3, r2
 233 000a 00D2     		bcs	.L20
 234              		.loc 1 113 0 is_stmt 0 discriminator 1
 235 000c 0B60     		str	r3, [r1]
 236              	.L20:
 114:..\..\..\arduinoLCD\test\Pain Drain\libraries\lvgl\src\draw\sw/lv_draw_sw_gradient.c ****     return LV_RES_INV;
 115:..\..\..\arduinoLCD\test\Pain Drain\libraries\lvgl\src\draw\sw/lv_draw_sw_gradient.c **** }
 237              		.loc 1 115 0 is_stmt 1
 238 000e 0020     		movs	r0, #0
 239              	.LVL28:
 240 0010 7047     		bx	lr
 241              		.cfi_endproc
 242              	.LFE60:
 243              		.size	find_oldest_item_life, .-find_oldest_item_life
 244 0012 00BF     		.section	.text.find_item,"ax",%progbits
 245              		.align	2
 246              		.thumb
 247              		.thumb_func
 248              		.type	find_item, %function
 249              	find_item:
 250              	.LFB63:
 116:..\..\..\arduinoLCD\test\Pain Drain\libraries\lvgl\src\draw\sw/lv_draw_sw_gradient.c **** 
 117:..\..\..\arduinoLCD\test\Pain Drain\libraries\lvgl\src\draw\sw/lv_draw_sw_gradient.c **** static void free_item(lv_grad_t * c)
 118:..\..\..\arduinoLCD\test\Pain Drain\libraries\lvgl\src\draw\sw/lv_draw_sw_gradient.c **** {
 119:..\..\..\arduinoLCD\test\Pain Drain\libraries\lvgl\src\draw\sw/lv_draw_sw_gradient.c ****     size_t size = get_cache_item_size(c);
 120:..\..\..\arduinoLCD\test\Pain Drain\libraries\lvgl\src\draw\sw/lv_draw_sw_gradient.c ****     size_t next_items_size = (size_t)(grad_cache_end - (uint8_t *)c) - size;
 121:..\..\..\arduinoLCD\test\Pain Drain\libraries\lvgl\src\draw\sw/lv_draw_sw_gradient.c ****     grad_cache_end -= size;
 122:..\..\..\arduinoLCD\test\Pain Drain\libraries\lvgl\src\draw\sw/lv_draw_sw_gradient.c ****     if(next_items_size) {
 123:..\..\..\arduinoLCD\test\Pain Drain\libraries\lvgl\src\draw\sw/lv_draw_sw_gradient.c ****         uint8_t * old = (uint8_t *)c;
 124:..\..\..\arduinoLCD\test\Pain Drain\libraries\lvgl\src\draw\sw/lv_draw_sw_gradient.c ****         lv_memcpy(c, ((uint8_t *)c) + size, next_items_size);
 125:..\..\..\arduinoLCD\test\Pain Drain\libraries\lvgl\src\draw\sw/lv_draw_sw_gradient.c ****         /* Then need to fix all internal pointers too */
 126:..\..\..\arduinoLCD\test\Pain Drain\libraries\lvgl\src\draw\sw/lv_draw_sw_gradient.c ****         while((uint8_t *)c != grad_cache_end) {
 127:..\..\..\arduinoLCD\test\Pain Drain\libraries\lvgl\src\draw\sw/lv_draw_sw_gradient.c ****             c->map = (lv_color_t *)(((uint8_t *)c->map) - size);
 128:..\..\..\arduinoLCD\test\Pain Drain\libraries\lvgl\src\draw\sw/lv_draw_sw_gradient.c **** #if _DITHER_GRADIENT
 129:..\..\..\arduinoLCD\test\Pain Drain\libraries\lvgl\src\draw\sw/lv_draw_sw_gradient.c ****             c->hmap = (lv_color32_t *)(((uint8_t *)c->hmap) - size);
 130:..\..\..\arduinoLCD\test\Pain Drain\libraries\lvgl\src\draw\sw/lv_draw_sw_gradient.c **** #if LV_DITHER_ERROR_DIFFUSION == 1
 131:..\..\..\arduinoLCD\test\Pain Drain\libraries\lvgl\src\draw\sw/lv_draw_sw_gradient.c ****             c->error_acc = (lv_scolor24_t *)(((uint8_t *)c->error_acc) - size);
 132:..\..\..\arduinoLCD\test\Pain Drain\libraries\lvgl\src\draw\sw/lv_draw_sw_gradient.c **** #endif
 133:..\..\..\arduinoLCD\test\Pain Drain\libraries\lvgl\src\draw\sw/lv_draw_sw_gradient.c **** #endif
 134:..\..\..\arduinoLCD\test\Pain Drain\libraries\lvgl\src\draw\sw/lv_draw_sw_gradient.c ****             c = (lv_grad_t *)(((uint8_t *)c) + get_cache_item_size(c));
 135:..\..\..\arduinoLCD\test\Pain Drain\libraries\lvgl\src\draw\sw/lv_draw_sw_gradient.c ****         }
 136:..\..\..\arduinoLCD\test\Pain Drain\libraries\lvgl\src\draw\sw/lv_draw_sw_gradient.c ****         lv_memset_00(old + next_items_size, size);
 137:..\..\..\arduinoLCD\test\Pain Drain\libraries\lvgl\src\draw\sw/lv_draw_sw_gradient.c ****     }
 138:..\..\..\arduinoLCD\test\Pain Drain\libraries\lvgl\src\draw\sw/lv_draw_sw_gradient.c **** }
 139:..\..\..\arduinoLCD\test\Pain Drain\libraries\lvgl\src\draw\sw/lv_draw_sw_gradient.c **** 
 140:..\..\..\arduinoLCD\test\Pain Drain\libraries\lvgl\src\draw\sw/lv_draw_sw_gradient.c **** static lv_res_t kill_oldest_item(lv_grad_t * c, void * ctx)
 141:..\..\..\arduinoLCD\test\Pain Drain\libraries\lvgl\src\draw\sw/lv_draw_sw_gradient.c **** {
 142:..\..\..\arduinoLCD\test\Pain Drain\libraries\lvgl\src\draw\sw/lv_draw_sw_gradient.c ****     uint32_t * min_life = (uint32_t *)ctx;
 143:..\..\..\arduinoLCD\test\Pain Drain\libraries\lvgl\src\draw\sw/lv_draw_sw_gradient.c ****     if(c->life == *min_life) {
ARM GAS  C:\Users\haske\AppData\Local\Temp\cccSbkbr.s 			page 8


 144:..\..\..\arduinoLCD\test\Pain Drain\libraries\lvgl\src\draw\sw/lv_draw_sw_gradient.c ****         /*Found, let's kill it*/
 145:..\..\..\arduinoLCD\test\Pain Drain\libraries\lvgl\src\draw\sw/lv_draw_sw_gradient.c ****         free_item(c);
 146:..\..\..\arduinoLCD\test\Pain Drain\libraries\lvgl\src\draw\sw/lv_draw_sw_gradient.c ****         return LV_RES_OK;
 147:..\..\..\arduinoLCD\test\Pain Drain\libraries\lvgl\src\draw\sw/lv_draw_sw_gradient.c ****     }
 148:..\..\..\arduinoLCD\test\Pain Drain\libraries\lvgl\src\draw\sw/lv_draw_sw_gradient.c ****     return LV_RES_INV;
 149:..\..\..\arduinoLCD\test\Pain Drain\libraries\lvgl\src\draw\sw/lv_draw_sw_gradient.c **** }
 150:..\..\..\arduinoLCD\test\Pain Drain\libraries\lvgl\src\draw\sw/lv_draw_sw_gradient.c **** 
 151:..\..\..\arduinoLCD\test\Pain Drain\libraries\lvgl\src\draw\sw/lv_draw_sw_gradient.c **** static lv_res_t find_item(lv_grad_t * c, void * ctx)
 152:..\..\..\arduinoLCD\test\Pain Drain\libraries\lvgl\src\draw\sw/lv_draw_sw_gradient.c **** {
 251              		.loc 1 152 0
 252              		.cfi_startproc
 253              		@ args = 0, pretend = 0, frame = 0
 254              		@ frame_needed = 0, uses_anonymous_args = 0
 255              		@ link register save eliminated.
 256              	.LVL29:
 153:..\..\..\arduinoLCD\test\Pain Drain\libraries\lvgl\src\draw\sw/lv_draw_sw_gradient.c ****     uint32_t * k = (uint32_t *)ctx;
 154:..\..\..\arduinoLCD\test\Pain Drain\libraries\lvgl\src\draw\sw/lv_draw_sw_gradient.c ****     if(c->key == *k) return LV_RES_OK;
 257              		.loc 1 154 0
 258 0000 0268     		ldr	r2, [r0]
 259 0002 0B68     		ldr	r3, [r1]
 260 0004 9A42     		cmp	r2, r3
 261 0006 01D1     		bne	.L23
 262 0008 0120     		movs	r0, #1
 263              	.LVL30:
 264 000a 7047     		bx	lr
 265              	.LVL31:
 266              	.L23:
 155:..\..\..\arduinoLCD\test\Pain Drain\libraries\lvgl\src\draw\sw/lv_draw_sw_gradient.c ****     return LV_RES_INV;
 267              		.loc 1 155 0
 268 000c 0020     		movs	r0, #0
 269              	.LVL32:
 156:..\..\..\arduinoLCD\test\Pain Drain\libraries\lvgl\src\draw\sw/lv_draw_sw_gradient.c **** }
 270              		.loc 1 156 0
 271 000e 7047     		bx	lr
 272              		.cfi_endproc
 273              	.LFE63:
 274              		.size	find_item, .-find_item
 275              		.section	.text.allocate_item,"ax",%progbits
 276              		.align	2
 277              		.thumb
 278              		.thumb_func
 279              		.type	allocate_item, %function
 280              	allocate_item:
 281              	.LFB64:
 157:..\..\..\arduinoLCD\test\Pain Drain\libraries\lvgl\src\draw\sw/lv_draw_sw_gradient.c **** 
 158:..\..\..\arduinoLCD\test\Pain Drain\libraries\lvgl\src\draw\sw/lv_draw_sw_gradient.c **** static lv_grad_t * allocate_item(const lv_grad_dsc_t * g, lv_coord_t w, lv_coord_t h)
 159:..\..\..\arduinoLCD\test\Pain Drain\libraries\lvgl\src\draw\sw/lv_draw_sw_gradient.c **** {
 282              		.loc 1 159 0
 283              		.cfi_startproc
 284              		@ args = 0, pretend = 0, frame = 8
 285              		@ frame_needed = 0, uses_anonymous_args = 0
 286              	.LVL33:
 287 0000 2DE9F043 		push	{r4, r5, r6, r7, r8, r9, lr}
 288              		.cfi_def_cfa_offset 28
 289              		.cfi_offset 4, -28
 290              		.cfi_offset 5, -24
 291              		.cfi_offset 6, -20
ARM GAS  C:\Users\haske\AppData\Local\Temp\cccSbkbr.s 			page 9


 292              		.cfi_offset 7, -16
 293              		.cfi_offset 8, -12
 294              		.cfi_offset 9, -8
 295              		.cfi_offset 14, -4
 296 0004 83B0     		sub	sp, sp, #12
 297              		.cfi_def_cfa_offset 40
 298 0006 8046     		mov	r8, r0
 299 0008 0E46     		mov	r6, r1
 160:..\..\..\arduinoLCD\test\Pain Drain\libraries\lvgl\src\draw\sw/lv_draw_sw_gradient.c ****     lv_coord_t size = g->dir == LV_GRAD_DIR_HOR ? w : h;
 300              		.loc 1 160 0
 301 000a 437A     		ldrb	r3, [r0, #9]	@ zero_extendqisi2
 302 000c 03F00703 		and	r3, r3, #7
 303 0010 022B     		cmp	r3, #2
 304 0012 01D1     		bne	.L35
 305 0014 0F46     		mov	r7, r1
 306 0016 00E0     		b	.L25
 307              	.L35:
 308 0018 1746     		mov	r7, r2
 309              	.L25:
 310              	.LVL34:
 161:..\..\..\arduinoLCD\test\Pain Drain\libraries\lvgl\src\draw\sw/lv_draw_sw_gradient.c ****     lv_coord_t map_size = LV_MAX(w, h); /* The map is being used horizontally (width) unless
 311              		.loc 1 161 0 discriminator 4
 312 001a B242     		cmp	r2, r6
 313 001c B8BF     		it	lt
 314 001e 3246     		movlt	r2, r6
 315              	.LVL35:
 316 0020 1546     		mov	r5, r2
 317              	.LVL36:
 162:..\..\..\arduinoLCD\test\Pain Drain\libraries\lvgl\src\draw\sw/lv_draw_sw_gradient.c ****                                            no dithering is selected where it's used vertically */
 163:..\..\..\arduinoLCD\test\Pain Drain\libraries\lvgl\src\draw\sw/lv_draw_sw_gradient.c **** 
 164:..\..\..\arduinoLCD\test\Pain Drain\libraries\lvgl\src\draw\sw/lv_draw_sw_gradient.c ****     size_t req_size = ALIGN(sizeof(lv_grad_t)) + ALIGN(map_size * sizeof(lv_color_t));
 318              		.loc 1 164 0 discriminator 4
 319 0022 5400     		lsls	r4, r2, #1
 320 0024 0334     		adds	r4, r4, #3
 321 0026 24F00304 		bic	r4, r4, #3
 322 002a 1034     		adds	r4, r4, #16
 323              	.LVL37:
 165:..\..\..\arduinoLCD\test\Pain Drain\libraries\lvgl\src\draw\sw/lv_draw_sw_gradient.c **** #if _DITHER_GRADIENT
 166:..\..\..\arduinoLCD\test\Pain Drain\libraries\lvgl\src\draw\sw/lv_draw_sw_gradient.c ****     req_size += ALIGN(size * sizeof(lv_color32_t));
 167:..\..\..\arduinoLCD\test\Pain Drain\libraries\lvgl\src\draw\sw/lv_draw_sw_gradient.c **** #if LV_DITHER_ERROR_DIFFUSION == 1
 168:..\..\..\arduinoLCD\test\Pain Drain\libraries\lvgl\src\draw\sw/lv_draw_sw_gradient.c ****     req_size += ALIGN(w * sizeof(lv_scolor24_t));
 169:..\..\..\arduinoLCD\test\Pain Drain\libraries\lvgl\src\draw\sw/lv_draw_sw_gradient.c **** #endif
 170:..\..\..\arduinoLCD\test\Pain Drain\libraries\lvgl\src\draw\sw/lv_draw_sw_gradient.c **** #endif
 171:..\..\..\arduinoLCD\test\Pain Drain\libraries\lvgl\src\draw\sw/lv_draw_sw_gradient.c **** 
 172:..\..\..\arduinoLCD\test\Pain Drain\libraries\lvgl\src\draw\sw/lv_draw_sw_gradient.c ****     size_t act_size = (size_t)(grad_cache_end - LV_GC_ROOT(_lv_grad_cache_mem));
 324              		.loc 1 172 0 discriminator 4
 325 002c 384A     		ldr	r2, .L39
 326              	.LVL38:
 327 002e D2F80490 		ldr	r9, [r2, #4]
 328 0032 384B     		ldr	r3, .L39+4
 329 0034 1B68     		ldr	r3, [r3]
 330 0036 C3EB0903 		rsb	r3, r3, r9
 331              	.LVL39:
 173:..\..\..\arduinoLCD\test\Pain Drain\libraries\lvgl\src\draw\sw/lv_draw_sw_gradient.c ****     lv_grad_t * item = NULL;
 174:..\..\..\arduinoLCD\test\Pain Drain\libraries\lvgl\src\draw\sw/lv_draw_sw_gradient.c ****     if(req_size + act_size < grad_cache_size) {
 332              		.loc 1 174 0 discriminator 4
 333 003a E118     		adds	r1, r4, r3
ARM GAS  C:\Users\haske\AppData\Local\Temp\cccSbkbr.s 			page 10


 334              	.LVL40:
 335 003c 1268     		ldr	r2, [r2]
 336 003e 9142     		cmp	r1, r2
 337 0040 06D2     		bcs	.L26
 338              	.LVL41:
 175:..\..\..\arduinoLCD\test\Pain Drain\libraries\lvgl\src\draw\sw/lv_draw_sw_gradient.c ****         item = (lv_grad_t *)grad_cache_end;
 176:..\..\..\arduinoLCD\test\Pain Drain\libraries\lvgl\src\draw\sw/lv_draw_sw_gradient.c ****         item->not_cached = 0;
 339              		.loc 1 176 0
 340 0042 99F80730 		ldrb	r3, [r9, #7]	@ zero_extendqisi2
 341              	.LVL42:
 342 0046 6FF3C713 		bfc	r3, #7, #1
 343 004a 89F80730 		strb	r3, [r9, #7]
 344              	.LVL43:
 345 004e 31E0     		b	.L27
 346              	.LVL44:
 347              	.L26:
 177:..\..\..\arduinoLCD\test\Pain Drain\libraries\lvgl\src\draw\sw/lv_draw_sw_gradient.c ****     }
 178:..\..\..\arduinoLCD\test\Pain Drain\libraries\lvgl\src\draw\sw/lv_draw_sw_gradient.c ****     else {
 179:..\..\..\arduinoLCD\test\Pain Drain\libraries\lvgl\src\draw\sw/lv_draw_sw_gradient.c ****         /*Need to evict items from cache until we find enough space to allocate this one */
 180:..\..\..\arduinoLCD\test\Pain Drain\libraries\lvgl\src\draw\sw/lv_draw_sw_gradient.c ****         if(req_size <= grad_cache_size) {
 348              		.loc 1 180 0
 349 0050 9442     		cmp	r4, r2
 350 0052 15D9     		bls	.L28
 351 0054 23E0     		b	.L37
 352              	.LVL45:
 353              	.L30:
 354              	.LBB8:
 181:..\..\..\arduinoLCD\test\Pain Drain\libraries\lvgl\src\draw\sw/lv_draw_sw_gradient.c ****             while(act_size + req_size > grad_cache_size) {
 182:..\..\..\arduinoLCD\test\Pain Drain\libraries\lvgl\src\draw\sw/lv_draw_sw_gradient.c ****                 uint32_t oldest_life = UINT32_MAX;
 355              		.loc 1 182 0
 356 0056 0DF10809 		add	r9, sp, #8
 357 005a 4FF0FF33 		mov	r3, #-1
 358 005e 49F8043D 		str	r3, [r9, #-4]!
 183:..\..\..\arduinoLCD\test\Pain Drain\libraries\lvgl\src\draw\sw/lv_draw_sw_gradient.c ****                 iterate_cache(&find_oldest_item_life, &oldest_life, NULL);
 359              		.loc 1 183 0
 360 0062 0022     		movs	r2, #0
 361 0064 4946     		mov	r1, r9
 362 0066 2C48     		ldr	r0, .L39+8
 363 0068 FFF7FEFF 		bl	iterate_cache
 364              	.LVL46:
 184:..\..\..\arduinoLCD\test\Pain Drain\libraries\lvgl\src\draw\sw/lv_draw_sw_gradient.c ****                 iterate_cache(&kill_oldest_item, &oldest_life, NULL);
 365              		.loc 1 184 0
 366 006c 0022     		movs	r2, #0
 367 006e 4946     		mov	r1, r9
 368 0070 2A48     		ldr	r0, .L39+12
 369 0072 FFF7FEFF 		bl	iterate_cache
 370              	.LVL47:
 185:..\..\..\arduinoLCD\test\Pain Drain\libraries\lvgl\src\draw\sw/lv_draw_sw_gradient.c ****                 act_size = (size_t)(grad_cache_end - LV_GC_ROOT(_lv_grad_cache_mem));
 371              		.loc 1 185 0
 372 0076 264B     		ldr	r3, .L39
 373 0078 5B68     		ldr	r3, [r3, #4]
 374 007a 264A     		ldr	r2, .L39+4
 375 007c 1268     		ldr	r2, [r2]
 376 007e 9B1A     		subs	r3, r3, r2
 377              	.LVL48:
 378              	.L28:
 379              	.LBE8:
ARM GAS  C:\Users\haske\AppData\Local\Temp\cccSbkbr.s 			page 11


 181:..\..\..\arduinoLCD\test\Pain Drain\libraries\lvgl\src\draw\sw/lv_draw_sw_gradient.c ****                 uint32_t oldest_life = UINT32_MAX;
 380              		.loc 1 181 0
 381 0080 2344     		add	r3, r3, r4
 382              	.LVL49:
 383 0082 234A     		ldr	r2, .L39
 384 0084 1268     		ldr	r2, [r2]
 385 0086 9342     		cmp	r3, r2
 386 0088 E5D8     		bhi	.L30
 186:..\..\..\arduinoLCD\test\Pain Drain\libraries\lvgl\src\draw\sw/lv_draw_sw_gradient.c ****             }
 187:..\..\..\arduinoLCD\test\Pain Drain\libraries\lvgl\src\draw\sw/lv_draw_sw_gradient.c ****             item = (lv_grad_t *)grad_cache_end;
 387              		.loc 1 187 0
 388 008a 214B     		ldr	r3, .L39
 389 008c D3F80490 		ldr	r9, [r3, #4]
 390              	.LVL50:
 188:..\..\..\arduinoLCD\test\Pain Drain\libraries\lvgl\src\draw\sw/lv_draw_sw_gradient.c ****             item->not_cached = 0;
 391              		.loc 1 188 0
 392 0090 99F80730 		ldrb	r3, [r9, #7]	@ zero_extendqisi2
 393 0094 6FF3C713 		bfc	r3, #7, #1
 394 0098 89F80730 		strb	r3, [r9, #7]
 395 009c 0AE0     		b	.L27
 396              	.LVL51:
 397              	.L37:
 189:..\..\..\arduinoLCD\test\Pain Drain\libraries\lvgl\src\draw\sw/lv_draw_sw_gradient.c ****         }
 190:..\..\..\arduinoLCD\test\Pain Drain\libraries\lvgl\src\draw\sw/lv_draw_sw_gradient.c ****         else {
 191:..\..\..\arduinoLCD\test\Pain Drain\libraries\lvgl\src\draw\sw/lv_draw_sw_gradient.c ****             /*The cache is too small. Allocate the item manually and free it later.*/
 192:..\..\..\arduinoLCD\test\Pain Drain\libraries\lvgl\src\draw\sw/lv_draw_sw_gradient.c ****             item = lv_mem_alloc(req_size);
 398              		.loc 1 192 0
 399 009e 2046     		mov	r0, r4
 400              	.LVL52:
 401 00a0 FFF7FEFF 		bl	lv_mem_alloc
 402              	.LVL53:
 193:..\..\..\arduinoLCD\test\Pain Drain\libraries\lvgl\src\draw\sw/lv_draw_sw_gradient.c ****             LV_ASSERT_MALLOC(item);
 403              		.loc 1 193 0
 404 00a4 8146     		mov	r9, r0
 405 00a6 00B9     		cbnz	r0, .L31
 406              	.L32:
 407 00a8 FEE7     		b	.L32
 408              	.L31:
 194:..\..\..\arduinoLCD\test\Pain Drain\libraries\lvgl\src\draw\sw/lv_draw_sw_gradient.c ****             if(item == NULL) return NULL;
 409              		.loc 1 194 0
 410 00aa 68B3     		cbz	r0, .L36
 195:..\..\..\arduinoLCD\test\Pain Drain\libraries\lvgl\src\draw\sw/lv_draw_sw_gradient.c ****             item->not_cached = 1;
 411              		.loc 1 195 0
 412 00ac C379     		ldrb	r3, [r0, #7]	@ zero_extendqisi2
 413 00ae 43F08003 		orr	r3, r3, #128
 414 00b2 C371     		strb	r3, [r0, #7]
 415              	.LVL54:
 416              	.L27:
 196:..\..\..\arduinoLCD\test\Pain Drain\libraries\lvgl\src\draw\sw/lv_draw_sw_gradient.c ****         }
 197:..\..\..\arduinoLCD\test\Pain Drain\libraries\lvgl\src\draw\sw/lv_draw_sw_gradient.c ****     }
 198:..\..\..\arduinoLCD\test\Pain Drain\libraries\lvgl\src\draw\sw/lv_draw_sw_gradient.c **** 
 199:..\..\..\arduinoLCD\test\Pain Drain\libraries\lvgl\src\draw\sw/lv_draw_sw_gradient.c ****     item->key = compute_key(g, size, w);
 417              		.loc 1 199 0
 418 00b4 3246     		mov	r2, r6
 419 00b6 3946     		mov	r1, r7
 420 00b8 4046     		mov	r0, r8
 421 00ba FFF7FEFF 		bl	compute_key
ARM GAS  C:\Users\haske\AppData\Local\Temp\cccSbkbr.s 			page 12


 422              	.LVL55:
 423 00be C9F80000 		str	r0, [r9]
 200:..\..\..\arduinoLCD\test\Pain Drain\libraries\lvgl\src\draw\sw/lv_draw_sw_gradient.c ****     item->life = 1;
 424              		.loc 1 200 0
 425 00c2 D9F80430 		ldr	r3, [r9, #4]
 426 00c6 0122     		movs	r2, #1
 427 00c8 62F31D03 		bfi	r3, r2, #0, #30
 428 00cc C9F80430 		str	r3, [r9, #4]
 201:..\..\..\arduinoLCD\test\Pain Drain\libraries\lvgl\src\draw\sw/lv_draw_sw_gradient.c ****     item->filled = 0;
 429              		.loc 1 201 0
 430 00d0 1B0E     		lsrs	r3, r3, #24
 431 00d2 6FF38613 		bfc	r3, #6, #1
 432 00d6 89F80730 		strb	r3, [r9, #7]
 202:..\..\..\arduinoLCD\test\Pain Drain\libraries\lvgl\src\draw\sw/lv_draw_sw_gradient.c ****     item->alloc_size = map_size;
 433              		.loc 1 202 0
 434 00da A9F80C50 		strh	r5, [r9, #12]	@ movhi
 203:..\..\..\arduinoLCD\test\Pain Drain\libraries\lvgl\src\draw\sw/lv_draw_sw_gradient.c ****     item->size = size;
 435              		.loc 1 203 0
 436 00de A9F80E70 		strh	r7, [r9, #14]	@ movhi
 204:..\..\..\arduinoLCD\test\Pain Drain\libraries\lvgl\src\draw\sw/lv_draw_sw_gradient.c ****     if(item->not_cached) {
 437              		.loc 1 204 0
 438 00e2 13F0800F 		tst	r3, #128
 439 00e6 05D0     		beq	.L34
 440              	.LVL56:
 441              	.LBB9:
 205:..\..\..\arduinoLCD\test\Pain Drain\libraries\lvgl\src\draw\sw/lv_draw_sw_gradient.c ****         uint8_t * p = (uint8_t *)item;
 206:..\..\..\arduinoLCD\test\Pain Drain\libraries\lvgl\src\draw\sw/lv_draw_sw_gradient.c ****         item->map = (lv_color_t *)(p + ALIGN(sizeof(*item)));
 442              		.loc 1 206 0
 443 00e8 09F11003 		add	r3, r9, #16
 444 00ec C9F80830 		str	r3, [r9, #8]
 445              	.LBE9:
 207:..\..\..\arduinoLCD\test\Pain Drain\libraries\lvgl\src\draw\sw/lv_draw_sw_gradient.c **** #if _DITHER_GRADIENT
 208:..\..\..\arduinoLCD\test\Pain Drain\libraries\lvgl\src\draw\sw/lv_draw_sw_gradient.c ****         item->hmap = (lv_color32_t *)(p + ALIGN(sizeof(*item)) + ALIGN(map_size * sizeof(lv_color_t
 209:..\..\..\arduinoLCD\test\Pain Drain\libraries\lvgl\src\draw\sw/lv_draw_sw_gradient.c **** #if LV_DITHER_ERROR_DIFFUSION == 1
 210:..\..\..\arduinoLCD\test\Pain Drain\libraries\lvgl\src\draw\sw/lv_draw_sw_gradient.c ****         item->error_acc = (lv_scolor24_t *)(p + ALIGN(sizeof(*item)) + ALIGN(size * sizeof(lv_grad_
 211:..\..\..\arduinoLCD\test\Pain Drain\libraries\lvgl\src\draw\sw/lv_draw_sw_gradient.c ****                                             ALIGN(map_size * sizeof(lv_color_t)));
 212:..\..\..\arduinoLCD\test\Pain Drain\libraries\lvgl\src\draw\sw/lv_draw_sw_gradient.c ****         item->w = w;
 213:..\..\..\arduinoLCD\test\Pain Drain\libraries\lvgl\src\draw\sw/lv_draw_sw_gradient.c **** #endif
 214:..\..\..\arduinoLCD\test\Pain Drain\libraries\lvgl\src\draw\sw/lv_draw_sw_gradient.c **** #endif
 215:..\..\..\arduinoLCD\test\Pain Drain\libraries\lvgl\src\draw\sw/lv_draw_sw_gradient.c ****     }
 216:..\..\..\arduinoLCD\test\Pain Drain\libraries\lvgl\src\draw\sw/lv_draw_sw_gradient.c ****     else {
 217:..\..\..\arduinoLCD\test\Pain Drain\libraries\lvgl\src\draw\sw/lv_draw_sw_gradient.c ****         item->map = (lv_color_t *)(grad_cache_end + ALIGN(sizeof(*item)));
 218:..\..\..\arduinoLCD\test\Pain Drain\libraries\lvgl\src\draw\sw/lv_draw_sw_gradient.c **** #if _DITHER_GRADIENT
 219:..\..\..\arduinoLCD\test\Pain Drain\libraries\lvgl\src\draw\sw/lv_draw_sw_gradient.c ****         item->hmap = (lv_color32_t *)(grad_cache_end + ALIGN(sizeof(*item)) + ALIGN(map_size * size
 220:..\..\..\arduinoLCD\test\Pain Drain\libraries\lvgl\src\draw\sw/lv_draw_sw_gradient.c **** #if LV_DITHER_ERROR_DIFFUSION == 1
 221:..\..\..\arduinoLCD\test\Pain Drain\libraries\lvgl\src\draw\sw/lv_draw_sw_gradient.c ****         item->error_acc = (lv_scolor24_t *)(grad_cache_end + ALIGN(sizeof(*item)) + ALIGN(size * si
 222:..\..\..\arduinoLCD\test\Pain Drain\libraries\lvgl\src\draw\sw/lv_draw_sw_gradient.c ****                                             ALIGN(map_size * sizeof(lv_color_t)));
 223:..\..\..\arduinoLCD\test\Pain Drain\libraries\lvgl\src\draw\sw/lv_draw_sw_gradient.c ****         item->w = w;
 224:..\..\..\arduinoLCD\test\Pain Drain\libraries\lvgl\src\draw\sw/lv_draw_sw_gradient.c **** #endif
 225:..\..\..\arduinoLCD\test\Pain Drain\libraries\lvgl\src\draw\sw/lv_draw_sw_gradient.c **** #endif
 226:..\..\..\arduinoLCD\test\Pain Drain\libraries\lvgl\src\draw\sw/lv_draw_sw_gradient.c ****         grad_cache_end += req_size;
 227:..\..\..\arduinoLCD\test\Pain Drain\libraries\lvgl\src\draw\sw/lv_draw_sw_gradient.c ****     }
 228:..\..\..\arduinoLCD\test\Pain Drain\libraries\lvgl\src\draw\sw/lv_draw_sw_gradient.c ****     return item;
 446              		.loc 1 228 0
 447 00f0 4846     		mov	r0, r9
 448 00f2 0AE0     		b	.L33
 449              	.LVL57:
ARM GAS  C:\Users\haske\AppData\Local\Temp\cccSbkbr.s 			page 13


 450              	.L34:
 217:..\..\..\arduinoLCD\test\Pain Drain\libraries\lvgl\src\draw\sw/lv_draw_sw_gradient.c **** #if _DITHER_GRADIENT
 451              		.loc 1 217 0
 452 00f4 064B     		ldr	r3, .L39
 453 00f6 5A68     		ldr	r2, [r3, #4]
 454 00f8 02F11001 		add	r1, r2, #16
 455 00fc C9F80810 		str	r1, [r9, #8]
 226:..\..\..\arduinoLCD\test\Pain Drain\libraries\lvgl\src\draw\sw/lv_draw_sw_gradient.c ****     }
 456              		.loc 1 226 0
 457 0100 1444     		add	r4, r4, r2
 458              	.LVL58:
 459 0102 5C60     		str	r4, [r3, #4]
 460              		.loc 1 228 0
 461 0104 4846     		mov	r0, r9
 462 0106 00E0     		b	.L33
 463              	.LVL59:
 464              	.L36:
 194:..\..\..\arduinoLCD\test\Pain Drain\libraries\lvgl\src\draw\sw/lv_draw_sw_gradient.c ****             item->not_cached = 1;
 465              		.loc 1 194 0
 466 0108 0020     		movs	r0, #0
 467              	.LVL60:
 468              	.L33:
 229:..\..\..\arduinoLCD\test\Pain Drain\libraries\lvgl\src\draw\sw/lv_draw_sw_gradient.c **** }
 469              		.loc 1 229 0
 470 010a 03B0     		add	sp, sp, #12
 471              		.cfi_def_cfa_offset 28
 472              		@ sp needed
 473 010c BDE8F083 		pop	{r4, r5, r6, r7, r8, r9, pc}
 474              	.LVL61:
 475              	.L40:
 476              		.align	2
 477              	.L39:
 478 0110 00000000 		.word	.LANCHOR0
 479 0114 00000000 		.word	_lv_grad_cache_mem
 480 0118 00000000 		.word	find_oldest_item_life
 481 011c 00000000 		.word	kill_oldest_item
 482              		.cfi_endproc
 483              	.LFE64:
 484              		.size	allocate_item, .-allocate_item
 485              		.section	.text.free_item,"ax",%progbits
 486              		.align	2
 487              		.thumb
 488              		.thumb_func
 489              		.type	free_item, %function
 490              	free_item:
 491              	.LFB61:
 118:..\..\..\arduinoLCD\test\Pain Drain\libraries\lvgl\src\draw\sw/lv_draw_sw_gradient.c ****     size_t size = get_cache_item_size(c);
 492              		.loc 1 118 0
 493              		.cfi_startproc
 494              		@ args = 0, pretend = 0, frame = 0
 495              		@ frame_needed = 0, uses_anonymous_args = 0
 496              	.LVL62:
 497 0000 2DE9F041 		push	{r4, r5, r6, r7, r8, lr}
 498              		.cfi_def_cfa_offset 24
 499              		.cfi_offset 4, -24
 500              		.cfi_offset 5, -20
 501              		.cfi_offset 6, -16
ARM GAS  C:\Users\haske\AppData\Local\Temp\cccSbkbr.s 			page 14


 502              		.cfi_offset 7, -12
 503              		.cfi_offset 8, -8
 504              		.cfi_offset 14, -4
 505 0004 8046     		mov	r8, r0
 119:..\..\..\arduinoLCD\test\Pain Drain\libraries\lvgl\src\draw\sw/lv_draw_sw_gradient.c ****     size_t next_items_size = (size_t)(grad_cache_end - (uint8_t *)c) - size;
 506              		.loc 1 119 0
 507 0006 FFF7FEFF 		bl	get_cache_item_size
 508              	.LVL63:
 120:..\..\..\arduinoLCD\test\Pain Drain\libraries\lvgl\src\draw\sw/lv_draw_sw_gradient.c ****     grad_cache_end -= size;
 509              		.loc 1 120 0
 510 000a 124A     		ldr	r2, .L46
 511 000c 5368     		ldr	r3, [r2, #4]
 512 000e C8EB0306 		rsb	r6, r8, r3
 513              	.LVL64:
 121:..\..\..\arduinoLCD\test\Pain Drain\libraries\lvgl\src\draw\sw/lv_draw_sw_gradient.c ****     if(next_items_size) {
 514              		.loc 1 121 0
 515 0012 4542     		negs	r5, r0
 516 0014 2B44     		add	r3, r3, r5
 517 0016 5360     		str	r3, [r2, #4]
 122:..\..\..\arduinoLCD\test\Pain Drain\libraries\lvgl\src\draw\sw/lv_draw_sw_gradient.c ****         uint8_t * old = (uint8_t *)c;
 518              		.loc 1 122 0
 519 0018 361A     		subs	r6, r6, r0
 520              	.LVL65:
 521 001a 18D0     		beq	.L41
 522 001c 0746     		mov	r7, r0
 523              	.LVL66:
 524              	.LBB10:
 124:..\..\..\arduinoLCD\test\Pain Drain\libraries\lvgl\src\draw\sw/lv_draw_sw_gradient.c ****         /* Then need to fix all internal pointers too */
 525              		.loc 1 124 0
 526 001e 3246     		mov	r2, r6
 527 0020 08EB0001 		add	r1, r8, r0
 528 0024 4046     		mov	r0, r8
 529              	.LVL67:
 530 0026 FFF7FEFF 		bl	lv_memcpy
 531              	.LVL68:
 126:..\..\..\arduinoLCD\test\Pain Drain\libraries\lvgl\src\draw\sw/lv_draw_sw_gradient.c ****             c->map = (lv_color_t *)(((uint8_t *)c->map) - size);
 532              		.loc 1 126 0
 533 002a 4446     		mov	r4, r8
 534 002c 06E0     		b	.L43
 535              	.LVL69:
 536              	.L44:
 127:..\..\..\arduinoLCD\test\Pain Drain\libraries\lvgl\src\draw\sw/lv_draw_sw_gradient.c **** #if _DITHER_GRADIENT
 537              		.loc 1 127 0
 538 002e A368     		ldr	r3, [r4, #8]
 539 0030 2B44     		add	r3, r3, r5
 540 0032 A360     		str	r3, [r4, #8]
 134:..\..\..\arduinoLCD\test\Pain Drain\libraries\lvgl\src\draw\sw/lv_draw_sw_gradient.c ****         }
 541              		.loc 1 134 0
 542 0034 2046     		mov	r0, r4
 543 0036 FFF7FEFF 		bl	get_cache_item_size
 544              	.LVL70:
 545 003a 0444     		add	r4, r4, r0
 546              	.LVL71:
 547              	.L43:
 126:..\..\..\arduinoLCD\test\Pain Drain\libraries\lvgl\src\draw\sw/lv_draw_sw_gradient.c ****             c->map = (lv_color_t *)(((uint8_t *)c->map) - size);
 548              		.loc 1 126 0
 549 003c 054B     		ldr	r3, .L46
ARM GAS  C:\Users\haske\AppData\Local\Temp\cccSbkbr.s 			page 15


 550 003e 5B68     		ldr	r3, [r3, #4]
 551 0040 9C42     		cmp	r4, r3
 552 0042 F4D1     		bne	.L44
 136:..\..\..\arduinoLCD\test\Pain Drain\libraries\lvgl\src\draw\sw/lv_draw_sw_gradient.c ****     }
 553              		.loc 1 136 0
 554 0044 3946     		mov	r1, r7
 555 0046 08EB0600 		add	r0, r8, r6
 556 004a FFF7FEFF 		bl	lv_memset_00
 557              	.LVL72:
 558              	.L41:
 559 004e BDE8F081 		pop	{r4, r5, r6, r7, r8, pc}
 560              	.LVL73:
 561              	.L47:
 562 0052 00BF     		.align	2
 563              	.L46:
 564 0054 00000000 		.word	.LANCHOR0
 565              	.LBE10:
 566              		.cfi_endproc
 567              	.LFE61:
 568              		.size	free_item, .-free_item
 569              		.section	.text.kill_oldest_item,"ax",%progbits
 570              		.align	2
 571              		.thumb
 572              		.thumb_func
 573              		.type	kill_oldest_item, %function
 574              	kill_oldest_item:
 575              	.LFB62:
 141:..\..\..\arduinoLCD\test\Pain Drain\libraries\lvgl\src\draw\sw/lv_draw_sw_gradient.c ****     uint32_t * min_life = (uint32_t *)ctx;
 576              		.loc 1 141 0
 577              		.cfi_startproc
 578              		@ args = 0, pretend = 0, frame = 0
 579              		@ frame_needed = 0, uses_anonymous_args = 0
 580              	.LVL74:
 581 0000 08B5     		push	{r3, lr}
 582              		.cfi_def_cfa_offset 8
 583              		.cfi_offset 3, -8
 584              		.cfi_offset 14, -4
 585              	.LVL75:
 143:..\..\..\arduinoLCD\test\Pain Drain\libraries\lvgl\src\draw\sw/lv_draw_sw_gradient.c ****         /*Found, let's kill it*/
 586              		.loc 1 143 0
 587 0002 4368     		ldr	r3, [r0, #4]
 588 0004 C3F31D03 		ubfx	r3, r3, #0, #30
 589 0008 0A68     		ldr	r2, [r1]
 590 000a 9342     		cmp	r3, r2
 591 000c 03D1     		bne	.L50
 145:..\..\..\arduinoLCD\test\Pain Drain\libraries\lvgl\src\draw\sw/lv_draw_sw_gradient.c ****         return LV_RES_OK;
 592              		.loc 1 145 0
 593 000e FFF7FEFF 		bl	free_item
 594              	.LVL76:
 146:..\..\..\arduinoLCD\test\Pain Drain\libraries\lvgl\src\draw\sw/lv_draw_sw_gradient.c ****     }
 595              		.loc 1 146 0
 596 0012 0120     		movs	r0, #1
 597 0014 08BD     		pop	{r3, pc}
 598              	.LVL77:
 599              	.L50:
 148:..\..\..\arduinoLCD\test\Pain Drain\libraries\lvgl\src\draw\sw/lv_draw_sw_gradient.c **** }
 600              		.loc 1 148 0
ARM GAS  C:\Users\haske\AppData\Local\Temp\cccSbkbr.s 			page 16


 601 0016 0020     		movs	r0, #0
 602              	.LVL78:
 149:..\..\..\arduinoLCD\test\Pain Drain\libraries\lvgl\src\draw\sw/lv_draw_sw_gradient.c **** 
 603              		.loc 1 149 0
 604 0018 08BD     		pop	{r3, pc}
 605              		.cfi_endproc
 606              	.LFE62:
 607              		.size	kill_oldest_item, .-kill_oldest_item
 608 001a 00BF     		.section	.text.lv_gradient_free_cache,"ax",%progbits
 609              		.align	2
 610              		.global	lv_gradient_free_cache
 611              		.thumb
 612              		.thumb_func
 613              		.type	lv_gradient_free_cache, %function
 614              	lv_gradient_free_cache:
 615              	.LFB65:
 230:..\..\..\arduinoLCD\test\Pain Drain\libraries\lvgl\src\draw\sw/lv_draw_sw_gradient.c **** 
 231:..\..\..\arduinoLCD\test\Pain Drain\libraries\lvgl\src\draw\sw/lv_draw_sw_gradient.c **** 
 232:..\..\..\arduinoLCD\test\Pain Drain\libraries\lvgl\src\draw\sw/lv_draw_sw_gradient.c **** /**********************
 233:..\..\..\arduinoLCD\test\Pain Drain\libraries\lvgl\src\draw\sw/lv_draw_sw_gradient.c ****  *     FUNCTIONS
 234:..\..\..\arduinoLCD\test\Pain Drain\libraries\lvgl\src\draw\sw/lv_draw_sw_gradient.c ****  **********************/
 235:..\..\..\arduinoLCD\test\Pain Drain\libraries\lvgl\src\draw\sw/lv_draw_sw_gradient.c **** void lv_gradient_free_cache(void)
 236:..\..\..\arduinoLCD\test\Pain Drain\libraries\lvgl\src\draw\sw/lv_draw_sw_gradient.c **** {
 616              		.loc 1 236 0
 617              		.cfi_startproc
 618              		@ args = 0, pretend = 0, frame = 0
 619              		@ frame_needed = 0, uses_anonymous_args = 0
 620 0000 10B5     		push	{r4, lr}
 621              		.cfi_def_cfa_offset 8
 622              		.cfi_offset 4, -8
 623              		.cfi_offset 14, -4
 237:..\..\..\arduinoLCD\test\Pain Drain\libraries\lvgl\src\draw\sw/lv_draw_sw_gradient.c ****     lv_mem_free(LV_GC_ROOT(_lv_grad_cache_mem));
 624              		.loc 1 237 0
 625 0002 054C     		ldr	r4, .L54
 626 0004 2068     		ldr	r0, [r4]
 627 0006 FFF7FEFF 		bl	lv_mem_free
 628              	.LVL79:
 238:..\..\..\arduinoLCD\test\Pain Drain\libraries\lvgl\src\draw\sw/lv_draw_sw_gradient.c ****     LV_GC_ROOT(_lv_grad_cache_mem) = grad_cache_end = NULL;
 629              		.loc 1 238 0
 630 000a 044A     		ldr	r2, .L54+4
 631 000c 0023     		movs	r3, #0
 632 000e 5360     		str	r3, [r2, #4]
 633 0010 2360     		str	r3, [r4]
 239:..\..\..\arduinoLCD\test\Pain Drain\libraries\lvgl\src\draw\sw/lv_draw_sw_gradient.c ****     grad_cache_size = 0;
 634              		.loc 1 239 0
 635 0012 1360     		str	r3, [r2]
 636 0014 10BD     		pop	{r4, pc}
 637              	.L55:
 638 0016 00BF     		.align	2
 639              	.L54:
 640 0018 00000000 		.word	_lv_grad_cache_mem
 641 001c 00000000 		.word	.LANCHOR0
 642              		.cfi_endproc
 643              	.LFE65:
 644              		.size	lv_gradient_free_cache, .-lv_gradient_free_cache
 645              		.section	.text.lv_gradient_set_cache_size,"ax",%progbits
 646              		.align	2
ARM GAS  C:\Users\haske\AppData\Local\Temp\cccSbkbr.s 			page 17


 647              		.global	lv_gradient_set_cache_size
 648              		.thumb
 649              		.thumb_func
 650              		.type	lv_gradient_set_cache_size, %function
 651              	lv_gradient_set_cache_size:
 652              	.LFB66:
 240:..\..\..\arduinoLCD\test\Pain Drain\libraries\lvgl\src\draw\sw/lv_draw_sw_gradient.c **** }
 241:..\..\..\arduinoLCD\test\Pain Drain\libraries\lvgl\src\draw\sw/lv_draw_sw_gradient.c **** 
 242:..\..\..\arduinoLCD\test\Pain Drain\libraries\lvgl\src\draw\sw/lv_draw_sw_gradient.c **** void lv_gradient_set_cache_size(size_t max_bytes)
 243:..\..\..\arduinoLCD\test\Pain Drain\libraries\lvgl\src\draw\sw/lv_draw_sw_gradient.c **** {
 653              		.loc 1 243 0
 654              		.cfi_startproc
 655              		@ args = 0, pretend = 0, frame = 0
 656              		@ frame_needed = 0, uses_anonymous_args = 0
 657              	.LVL80:
 658 0000 38B5     		push	{r3, r4, r5, lr}
 659              		.cfi_def_cfa_offset 16
 660              		.cfi_offset 3, -16
 661              		.cfi_offset 4, -12
 662              		.cfi_offset 5, -8
 663              		.cfi_offset 14, -4
 664 0002 0446     		mov	r4, r0
 244:..\..\..\arduinoLCD\test\Pain Drain\libraries\lvgl\src\draw\sw/lv_draw_sw_gradient.c ****     lv_mem_free(LV_GC_ROOT(_lv_grad_cache_mem));
 665              		.loc 1 244 0
 666 0004 084D     		ldr	r5, .L60
 667 0006 2868     		ldr	r0, [r5]
 668              	.LVL81:
 669 0008 FFF7FEFF 		bl	lv_mem_free
 670              	.LVL82:
 245:..\..\..\arduinoLCD\test\Pain Drain\libraries\lvgl\src\draw\sw/lv_draw_sw_gradient.c ****     grad_cache_end = LV_GC_ROOT(_lv_grad_cache_mem) = lv_mem_alloc(max_bytes);
 671              		.loc 1 245 0
 672 000c 2046     		mov	r0, r4
 673 000e FFF7FEFF 		bl	lv_mem_alloc
 674              	.LVL83:
 675 0012 2860     		str	r0, [r5]
 676 0014 054B     		ldr	r3, .L60+4
 677 0016 5860     		str	r0, [r3, #4]
 246:..\..\..\arduinoLCD\test\Pain Drain\libraries\lvgl\src\draw\sw/lv_draw_sw_gradient.c ****     LV_ASSERT_MALLOC(LV_GC_ROOT(_lv_grad_cache_mem));
 678              		.loc 1 246 0
 679 0018 00B9     		cbnz	r0, .L57
 680              	.L58:
 681 001a FEE7     		b	.L58
 682              	.L57:
 247:..\..\..\arduinoLCD\test\Pain Drain\libraries\lvgl\src\draw\sw/lv_draw_sw_gradient.c ****     lv_memset_00(LV_GC_ROOT(_lv_grad_cache_mem), max_bytes);
 683              		.loc 1 247 0
 684 001c 2146     		mov	r1, r4
 685 001e FFF7FEFF 		bl	lv_memset_00
 686              	.LVL84:
 248:..\..\..\arduinoLCD\test\Pain Drain\libraries\lvgl\src\draw\sw/lv_draw_sw_gradient.c ****     grad_cache_size = max_bytes;
 687              		.loc 1 248 0
 688 0022 024B     		ldr	r3, .L60+4
 689 0024 1C60     		str	r4, [r3]
 690 0026 38BD     		pop	{r3, r4, r5, pc}
 691              	.LVL85:
 692              	.L61:
 693              		.align	2
 694              	.L60:
ARM GAS  C:\Users\haske\AppData\Local\Temp\cccSbkbr.s 			page 18


 695 0028 00000000 		.word	_lv_grad_cache_mem
 696 002c 00000000 		.word	.LANCHOR0
 697              		.cfi_endproc
 698              	.LFE66:
 699              		.size	lv_gradient_set_cache_size, .-lv_gradient_set_cache_size
 700              		.section	.text.lv_gradient_calculate,"ax",%progbits
 701              		.align	2
 702              		.global	lv_gradient_calculate
 703              		.thumb
 704              		.thumb_func
 705              		.type	lv_gradient_calculate, %function
 706              	lv_gradient_calculate:
 707              	.LFB68:
 249:..\..\..\arduinoLCD\test\Pain Drain\libraries\lvgl\src\draw\sw/lv_draw_sw_gradient.c **** }
 250:..\..\..\arduinoLCD\test\Pain Drain\libraries\lvgl\src\draw\sw/lv_draw_sw_gradient.c **** 
 251:..\..\..\arduinoLCD\test\Pain Drain\libraries\lvgl\src\draw\sw/lv_draw_sw_gradient.c **** lv_grad_t * lv_gradient_get(const lv_grad_dsc_t * g, lv_coord_t w, lv_coord_t h)
 252:..\..\..\arduinoLCD\test\Pain Drain\libraries\lvgl\src\draw\sw/lv_draw_sw_gradient.c **** {
 253:..\..\..\arduinoLCD\test\Pain Drain\libraries\lvgl\src\draw\sw/lv_draw_sw_gradient.c ****     /* No gradient, no cache */
 254:..\..\..\arduinoLCD\test\Pain Drain\libraries\lvgl\src\draw\sw/lv_draw_sw_gradient.c ****     if(g->dir == LV_GRAD_DIR_NONE) return NULL;
 255:..\..\..\arduinoLCD\test\Pain Drain\libraries\lvgl\src\draw\sw/lv_draw_sw_gradient.c **** 
 256:..\..\..\arduinoLCD\test\Pain Drain\libraries\lvgl\src\draw\sw/lv_draw_sw_gradient.c ****     /* Step 0: Check if the cache exist (else create it) */
 257:..\..\..\arduinoLCD\test\Pain Drain\libraries\lvgl\src\draw\sw/lv_draw_sw_gradient.c ****     static bool inited = false;
 258:..\..\..\arduinoLCD\test\Pain Drain\libraries\lvgl\src\draw\sw/lv_draw_sw_gradient.c ****     if(!inited) {
 259:..\..\..\arduinoLCD\test\Pain Drain\libraries\lvgl\src\draw\sw/lv_draw_sw_gradient.c ****         lv_gradient_set_cache_size(LV_GRAD_CACHE_DEF_SIZE);
 260:..\..\..\arduinoLCD\test\Pain Drain\libraries\lvgl\src\draw\sw/lv_draw_sw_gradient.c ****         inited = true;
 261:..\..\..\arduinoLCD\test\Pain Drain\libraries\lvgl\src\draw\sw/lv_draw_sw_gradient.c ****     }
 262:..\..\..\arduinoLCD\test\Pain Drain\libraries\lvgl\src\draw\sw/lv_draw_sw_gradient.c **** 
 263:..\..\..\arduinoLCD\test\Pain Drain\libraries\lvgl\src\draw\sw/lv_draw_sw_gradient.c ****     /* Step 1: Search cache for the given key */
 264:..\..\..\arduinoLCD\test\Pain Drain\libraries\lvgl\src\draw\sw/lv_draw_sw_gradient.c ****     lv_coord_t size = g->dir == LV_GRAD_DIR_HOR ? w : h;
 265:..\..\..\arduinoLCD\test\Pain Drain\libraries\lvgl\src\draw\sw/lv_draw_sw_gradient.c ****     uint32_t key = compute_key(g, size, w);
 266:..\..\..\arduinoLCD\test\Pain Drain\libraries\lvgl\src\draw\sw/lv_draw_sw_gradient.c ****     lv_grad_t * item = NULL;
 267:..\..\..\arduinoLCD\test\Pain Drain\libraries\lvgl\src\draw\sw/lv_draw_sw_gradient.c ****     if(iterate_cache(&find_item, &key, &item) == LV_RES_OK) {
 268:..\..\..\arduinoLCD\test\Pain Drain\libraries\lvgl\src\draw\sw/lv_draw_sw_gradient.c ****         item->life++; /* Don't forget to bump the counter */
 269:..\..\..\arduinoLCD\test\Pain Drain\libraries\lvgl\src\draw\sw/lv_draw_sw_gradient.c ****         return item;
 270:..\..\..\arduinoLCD\test\Pain Drain\libraries\lvgl\src\draw\sw/lv_draw_sw_gradient.c ****     }
 271:..\..\..\arduinoLCD\test\Pain Drain\libraries\lvgl\src\draw\sw/lv_draw_sw_gradient.c **** 
 272:..\..\..\arduinoLCD\test\Pain Drain\libraries\lvgl\src\draw\sw/lv_draw_sw_gradient.c ****     /* Step 2: Need to allocate an item for it */
 273:..\..\..\arduinoLCD\test\Pain Drain\libraries\lvgl\src\draw\sw/lv_draw_sw_gradient.c ****     item = allocate_item(g, w, h);
 274:..\..\..\arduinoLCD\test\Pain Drain\libraries\lvgl\src\draw\sw/lv_draw_sw_gradient.c ****     if(item == NULL) {
 275:..\..\..\arduinoLCD\test\Pain Drain\libraries\lvgl\src\draw\sw/lv_draw_sw_gradient.c ****         LV_LOG_WARN("Faild to allcoate item for teh gradient");
 276:..\..\..\arduinoLCD\test\Pain Drain\libraries\lvgl\src\draw\sw/lv_draw_sw_gradient.c ****         return item;
 277:..\..\..\arduinoLCD\test\Pain Drain\libraries\lvgl\src\draw\sw/lv_draw_sw_gradient.c ****     }
 278:..\..\..\arduinoLCD\test\Pain Drain\libraries\lvgl\src\draw\sw/lv_draw_sw_gradient.c **** 
 279:..\..\..\arduinoLCD\test\Pain Drain\libraries\lvgl\src\draw\sw/lv_draw_sw_gradient.c ****     /* Step 3: Fill it with the gradient, as expected */
 280:..\..\..\arduinoLCD\test\Pain Drain\libraries\lvgl\src\draw\sw/lv_draw_sw_gradient.c **** #if _DITHER_GRADIENT
 281:..\..\..\arduinoLCD\test\Pain Drain\libraries\lvgl\src\draw\sw/lv_draw_sw_gradient.c ****     for(lv_coord_t i = 0; i < item->size; i++) {
 282:..\..\..\arduinoLCD\test\Pain Drain\libraries\lvgl\src\draw\sw/lv_draw_sw_gradient.c ****         item->hmap[i] = lv_gradient_calculate(g, item->size, i);
 283:..\..\..\arduinoLCD\test\Pain Drain\libraries\lvgl\src\draw\sw/lv_draw_sw_gradient.c ****     }
 284:..\..\..\arduinoLCD\test\Pain Drain\libraries\lvgl\src\draw\sw/lv_draw_sw_gradient.c **** #if LV_DITHER_ERROR_DIFFUSION == 1
 285:..\..\..\arduinoLCD\test\Pain Drain\libraries\lvgl\src\draw\sw/lv_draw_sw_gradient.c ****     lv_memset_00(item->error_acc, w * sizeof(lv_scolor24_t));
 286:..\..\..\arduinoLCD\test\Pain Drain\libraries\lvgl\src\draw\sw/lv_draw_sw_gradient.c **** #endif
 287:..\..\..\arduinoLCD\test\Pain Drain\libraries\lvgl\src\draw\sw/lv_draw_sw_gradient.c **** #else
 288:..\..\..\arduinoLCD\test\Pain Drain\libraries\lvgl\src\draw\sw/lv_draw_sw_gradient.c ****     for(lv_coord_t i = 0; i < item->size; i++) {
 289:..\..\..\arduinoLCD\test\Pain Drain\libraries\lvgl\src\draw\sw/lv_draw_sw_gradient.c ****         item->map[i] = lv_gradient_calculate(g, item->size, i);
 290:..\..\..\arduinoLCD\test\Pain Drain\libraries\lvgl\src\draw\sw/lv_draw_sw_gradient.c ****     }
 291:..\..\..\arduinoLCD\test\Pain Drain\libraries\lvgl\src\draw\sw/lv_draw_sw_gradient.c **** #endif
 292:..\..\..\arduinoLCD\test\Pain Drain\libraries\lvgl\src\draw\sw/lv_draw_sw_gradient.c **** 
ARM GAS  C:\Users\haske\AppData\Local\Temp\cccSbkbr.s 			page 19


 293:..\..\..\arduinoLCD\test\Pain Drain\libraries\lvgl\src\draw\sw/lv_draw_sw_gradient.c ****     return item;
 294:..\..\..\arduinoLCD\test\Pain Drain\libraries\lvgl\src\draw\sw/lv_draw_sw_gradient.c **** }
 295:..\..\..\arduinoLCD\test\Pain Drain\libraries\lvgl\src\draw\sw/lv_draw_sw_gradient.c **** 
 296:..\..\..\arduinoLCD\test\Pain Drain\libraries\lvgl\src\draw\sw/lv_draw_sw_gradient.c **** LV_ATTRIBUTE_FAST_MEM lv_grad_color_t lv_gradient_calculate(const lv_grad_dsc_t * dsc, lv_coord_t r
 297:..\..\..\arduinoLCD\test\Pain Drain\libraries\lvgl\src\draw\sw/lv_draw_sw_gradient.c ****                                                             lv_coord_t frac)
 298:..\..\..\arduinoLCD\test\Pain Drain\libraries\lvgl\src\draw\sw/lv_draw_sw_gradient.c **** {
 708              		.loc 1 298 0
 709              		.cfi_startproc
 710              		@ args = 0, pretend = 0, frame = 0
 711              		@ frame_needed = 0, uses_anonymous_args = 0
 712              	.LVL86:
 713 0000 2DE9F043 		push	{r4, r5, r6, r7, r8, r9, lr}
 714              		.cfi_def_cfa_offset 28
 715              		.cfi_offset 4, -28
 716              		.cfi_offset 5, -24
 717              		.cfi_offset 6, -20
 718              		.cfi_offset 7, -16
 719              		.cfi_offset 8, -12
 720              		.cfi_offset 9, -8
 721              		.cfi_offset 14, -4
 299:..\..\..\arduinoLCD\test\Pain Drain\libraries\lvgl\src\draw\sw/lv_draw_sw_gradient.c ****     lv_grad_color_t tmp;
 300:..\..\..\arduinoLCD\test\Pain Drain\libraries\lvgl\src\draw\sw/lv_draw_sw_gradient.c ****     lv_color32_t one, two;
 301:..\..\..\arduinoLCD\test\Pain Drain\libraries\lvgl\src\draw\sw/lv_draw_sw_gradient.c ****     /*Clip out-of-bounds first*/
 302:..\..\..\arduinoLCD\test\Pain Drain\libraries\lvgl\src\draw\sw/lv_draw_sw_gradient.c ****     int32_t min = (dsc->stops[0].frac * range) >> 8;
 722              		.loc 1 302 0
 723 0004 8778     		ldrb	r7, [r0, #2]	@ zero_extendqisi2
 724 0006 01FB07F7 		mul	r7, r1, r7
 725 000a 3F12     		asrs	r7, r7, #8
 726              	.LVL87:
 303:..\..\..\arduinoLCD\test\Pain Drain\libraries\lvgl\src\draw\sw/lv_draw_sw_gradient.c ****     if(frac <= min) {
 727              		.loc 1 303 0
 728 000c 9742     		cmp	r7, r2
 729 000e 02DB     		blt	.L63
 304:..\..\..\arduinoLCD\test\Pain Drain\libraries\lvgl\src\draw\sw/lv_draw_sw_gradient.c ****         GRAD_CONV(tmp, dsc->stops[0].color);
 730              		.loc 1 304 0
 731 0010 0088     		ldrh	r0, [r0]
 732              	.LVL88:
 305:..\..\..\arduinoLCD\test\Pain Drain\libraries\lvgl\src\draw\sw/lv_draw_sw_gradient.c ****         return tmp;
 733              		.loc 1 305 0
 734 0012 BDE8F083 		pop	{r4, r5, r6, r7, r8, r9, pc}
 735              	.LVL89:
 736              	.L63:
 737 0016 8846     		mov	r8, r1
 738 0018 9146     		mov	r9, r2
 306:..\..\..\arduinoLCD\test\Pain Drain\libraries\lvgl\src\draw\sw/lv_draw_sw_gradient.c ****     }
 307:..\..\..\arduinoLCD\test\Pain Drain\libraries\lvgl\src\draw\sw/lv_draw_sw_gradient.c **** 
 308:..\..\..\arduinoLCD\test\Pain Drain\libraries\lvgl\src\draw\sw/lv_draw_sw_gradient.c ****     int32_t max = (dsc->stops[dsc->stops_count - 1].frac * range) >> 8;
 739              		.loc 1 308 0
 740 001a 90F808C0 		ldrb	ip, [r0, #8]	@ zero_extendqisi2
 741 001e 0CF1FF35 		add	r5, ip, #-1
 742 0022 00EB8504 		add	r4, r0, r5, lsl #2
 743 0026 A478     		ldrb	r4, [r4, #2]	@ zero_extendqisi2
 744 0028 01FB04F4 		mul	r4, r1, r4
 745              	.LVL90:
 309:..\..\..\arduinoLCD\test\Pain Drain\libraries\lvgl\src\draw\sw/lv_draw_sw_gradient.c ****     if(frac >= max) {
 746              		.loc 1 309 0
 747 002c B2EB242F 		cmp	r2, r4, asr #8
ARM GAS  C:\Users\haske\AppData\Local\Temp\cccSbkbr.s 			page 20


 748 0030 66DB     		blt	.L71
 310:..\..\..\arduinoLCD\test\Pain Drain\libraries\lvgl\src\draw\sw/lv_draw_sw_gradient.c ****         GRAD_CONV(tmp, dsc->stops[dsc->stops_count - 1].color);
 749              		.loc 1 310 0
 750 0032 30F82500 		ldrh	r0, [r0, r5, lsl #2]
 751              	.LVL91:
 311:..\..\..\arduinoLCD\test\Pain Drain\libraries\lvgl\src\draw\sw/lv_draw_sw_gradient.c ****         return tmp;
 752              		.loc 1 311 0
 753 0036 BDE8F083 		pop	{r4, r5, r6, r7, r8, r9, pc}
 754              	.LVL92:
 755              	.L68:
 756              	.LBB11:
 757              	.LBB12:
 312:..\..\..\arduinoLCD\test\Pain Drain\libraries\lvgl\src\draw\sw/lv_draw_sw_gradient.c ****     }
 313:..\..\..\arduinoLCD\test\Pain Drain\libraries\lvgl\src\draw\sw/lv_draw_sw_gradient.c **** 
 314:..\..\..\arduinoLCD\test\Pain Drain\libraries\lvgl\src\draw\sw/lv_draw_sw_gradient.c ****     /*Find the 2 closest stop now*/
 315:..\..\..\arduinoLCD\test\Pain Drain\libraries\lvgl\src\draw\sw/lv_draw_sw_gradient.c ****     int32_t d = 0;
 316:..\..\..\arduinoLCD\test\Pain Drain\libraries\lvgl\src\draw\sw/lv_draw_sw_gradient.c ****     for(uint8_t i = 1; i < dsc->stops_count; i++) {
 317:..\..\..\arduinoLCD\test\Pain Drain\libraries\lvgl\src\draw\sw/lv_draw_sw_gradient.c ****         int32_t cur = (dsc->stops[i].frac * range) >> 8;
 758              		.loc 1 317 0
 759 003a A646     		mov	lr, r4
 760 003c 00EB8405 		add	r5, r0, r4, lsl #2
 761 0040 AD78     		ldrb	r5, [r5, #2]	@ zero_extendqisi2
 762 0042 08FB05F5 		mul	r5, r8, r5
 763 0046 2D12     		asrs	r5, r5, #8
 764              	.LVL93:
 318:..\..\..\arduinoLCD\test\Pain Drain\libraries\lvgl\src\draw\sw/lv_draw_sw_gradient.c ****         if(frac <= cur) {
 765              		.loc 1 318 0
 766 0048 A945     		cmp	r9, r5
 767 004a 56DC     		bgt	.L66
 319:..\..\..\arduinoLCD\test\Pain Drain\libraries\lvgl\src\draw\sw/lv_draw_sw_gradient.c ****             one.full = lv_color_to32(dsc->stops[i - 1].color);
 768              		.loc 1 319 0
 769 004c 671E     		subs	r7, r4, #1
 770              	.LVL94:
 771 004e 30F82730 		ldrh	r3, [r0, r7, lsl #2]
 772              	.LVL95:
 773              	.LBB13:
 774              	.LBB14:
 775              		.file 2 "c:\\projects\\paindrain\\arduinolcd\\test\\pain drain\\libraries\\lvgl\\src\\misc\\lv_col
   1:c:\projects\paindrain\arduinolcd\test\pain drain\libraries\lvgl\src\misc\lv_color.h **** /**
   2:c:\projects\paindrain\arduinolcd\test\pain drain\libraries\lvgl\src\misc\lv_color.h ****  * @file lv_color.h
   3:c:\projects\paindrain\arduinolcd\test\pain drain\libraries\lvgl\src\misc\lv_color.h ****  *
   4:c:\projects\paindrain\arduinolcd\test\pain drain\libraries\lvgl\src\misc\lv_color.h ****  */
   5:c:\projects\paindrain\arduinolcd\test\pain drain\libraries\lvgl\src\misc\lv_color.h **** 
   6:c:\projects\paindrain\arduinolcd\test\pain drain\libraries\lvgl\src\misc\lv_color.h **** #ifndef LV_COLOR_H
   7:c:\projects\paindrain\arduinolcd\test\pain drain\libraries\lvgl\src\misc\lv_color.h **** #define LV_COLOR_H
   8:c:\projects\paindrain\arduinolcd\test\pain drain\libraries\lvgl\src\misc\lv_color.h **** 
   9:c:\projects\paindrain\arduinolcd\test\pain drain\libraries\lvgl\src\misc\lv_color.h **** #ifdef __cplusplus
  10:c:\projects\paindrain\arduinolcd\test\pain drain\libraries\lvgl\src\misc\lv_color.h **** extern "C" {
  11:c:\projects\paindrain\arduinolcd\test\pain drain\libraries\lvgl\src\misc\lv_color.h **** #endif
  12:c:\projects\paindrain\arduinolcd\test\pain drain\libraries\lvgl\src\misc\lv_color.h **** 
  13:c:\projects\paindrain\arduinolcd\test\pain drain\libraries\lvgl\src\misc\lv_color.h **** /*********************
  14:c:\projects\paindrain\arduinolcd\test\pain drain\libraries\lvgl\src\misc\lv_color.h ****  *      INCLUDES
  15:c:\projects\paindrain\arduinolcd\test\pain drain\libraries\lvgl\src\misc\lv_color.h ****  *********************/
  16:c:\projects\paindrain\arduinolcd\test\pain drain\libraries\lvgl\src\misc\lv_color.h **** #include "../lv_conf_internal.h"
  17:c:\projects\paindrain\arduinolcd\test\pain drain\libraries\lvgl\src\misc\lv_color.h **** #include "lv_assert.h"
  18:c:\projects\paindrain\arduinolcd\test\pain drain\libraries\lvgl\src\misc\lv_color.h **** #include "lv_math.h"
  19:c:\projects\paindrain\arduinolcd\test\pain drain\libraries\lvgl\src\misc\lv_color.h **** #include "lv_types.h"
ARM GAS  C:\Users\haske\AppData\Local\Temp\cccSbkbr.s 			page 21


  20:c:\projects\paindrain\arduinolcd\test\pain drain\libraries\lvgl\src\misc\lv_color.h **** 
  21:c:\projects\paindrain\arduinolcd\test\pain drain\libraries\lvgl\src\misc\lv_color.h **** /*Error checking*/
  22:c:\projects\paindrain\arduinolcd\test\pain drain\libraries\lvgl\src\misc\lv_color.h **** #if LV_COLOR_DEPTH == 24
  23:c:\projects\paindrain\arduinolcd\test\pain drain\libraries\lvgl\src\misc\lv_color.h **** #error "LV_COLOR_DEPTH 24 is deprecated. Use LV_COLOR_DEPTH 32 instead (lv_conf.h)"
  24:c:\projects\paindrain\arduinolcd\test\pain drain\libraries\lvgl\src\misc\lv_color.h **** #endif
  25:c:\projects\paindrain\arduinolcd\test\pain drain\libraries\lvgl\src\misc\lv_color.h **** 
  26:c:\projects\paindrain\arduinolcd\test\pain drain\libraries\lvgl\src\misc\lv_color.h **** #if LV_COLOR_DEPTH != 16 && LV_COLOR_16_SWAP != 0
  27:c:\projects\paindrain\arduinolcd\test\pain drain\libraries\lvgl\src\misc\lv_color.h **** #error "LV_COLOR_16_SWAP requires LV_COLOR_DEPTH == 16. Set it in lv_conf.h"
  28:c:\projects\paindrain\arduinolcd\test\pain drain\libraries\lvgl\src\misc\lv_color.h **** #endif
  29:c:\projects\paindrain\arduinolcd\test\pain drain\libraries\lvgl\src\misc\lv_color.h **** 
  30:c:\projects\paindrain\arduinolcd\test\pain drain\libraries\lvgl\src\misc\lv_color.h **** #include <stdint.h>
  31:c:\projects\paindrain\arduinolcd\test\pain drain\libraries\lvgl\src\misc\lv_color.h **** 
  32:c:\projects\paindrain\arduinolcd\test\pain drain\libraries\lvgl\src\misc\lv_color.h **** /*********************
  33:c:\projects\paindrain\arduinolcd\test\pain drain\libraries\lvgl\src\misc\lv_color.h ****  *      DEFINES
  34:c:\projects\paindrain\arduinolcd\test\pain drain\libraries\lvgl\src\misc\lv_color.h ****  *********************/
  35:c:\projects\paindrain\arduinolcd\test\pain drain\libraries\lvgl\src\misc\lv_color.h **** LV_EXPORT_CONST_INT(LV_COLOR_DEPTH);
  36:c:\projects\paindrain\arduinolcd\test\pain drain\libraries\lvgl\src\misc\lv_color.h **** LV_EXPORT_CONST_INT(LV_COLOR_16_SWAP);
  37:c:\projects\paindrain\arduinolcd\test\pain drain\libraries\lvgl\src\misc\lv_color.h **** 
  38:c:\projects\paindrain\arduinolcd\test\pain drain\libraries\lvgl\src\misc\lv_color.h **** /**
  39:c:\projects\paindrain\arduinolcd\test\pain drain\libraries\lvgl\src\misc\lv_color.h ****  * Opacity percentages.
  40:c:\projects\paindrain\arduinolcd\test\pain drain\libraries\lvgl\src\misc\lv_color.h ****  */
  41:c:\projects\paindrain\arduinolcd\test\pain drain\libraries\lvgl\src\misc\lv_color.h **** enum {
  42:c:\projects\paindrain\arduinolcd\test\pain drain\libraries\lvgl\src\misc\lv_color.h ****     LV_OPA_TRANSP = 0,
  43:c:\projects\paindrain\arduinolcd\test\pain drain\libraries\lvgl\src\misc\lv_color.h ****     LV_OPA_0      = 0,
  44:c:\projects\paindrain\arduinolcd\test\pain drain\libraries\lvgl\src\misc\lv_color.h ****     LV_OPA_10     = 25,
  45:c:\projects\paindrain\arduinolcd\test\pain drain\libraries\lvgl\src\misc\lv_color.h ****     LV_OPA_20     = 51,
  46:c:\projects\paindrain\arduinolcd\test\pain drain\libraries\lvgl\src\misc\lv_color.h ****     LV_OPA_30     = 76,
  47:c:\projects\paindrain\arduinolcd\test\pain drain\libraries\lvgl\src\misc\lv_color.h ****     LV_OPA_40     = 102,
  48:c:\projects\paindrain\arduinolcd\test\pain drain\libraries\lvgl\src\misc\lv_color.h ****     LV_OPA_50     = 127,
  49:c:\projects\paindrain\arduinolcd\test\pain drain\libraries\lvgl\src\misc\lv_color.h ****     LV_OPA_60     = 153,
  50:c:\projects\paindrain\arduinolcd\test\pain drain\libraries\lvgl\src\misc\lv_color.h ****     LV_OPA_70     = 178,
  51:c:\projects\paindrain\arduinolcd\test\pain drain\libraries\lvgl\src\misc\lv_color.h ****     LV_OPA_80     = 204,
  52:c:\projects\paindrain\arduinolcd\test\pain drain\libraries\lvgl\src\misc\lv_color.h ****     LV_OPA_90     = 229,
  53:c:\projects\paindrain\arduinolcd\test\pain drain\libraries\lvgl\src\misc\lv_color.h ****     LV_OPA_100    = 255,
  54:c:\projects\paindrain\arduinolcd\test\pain drain\libraries\lvgl\src\misc\lv_color.h ****     LV_OPA_COVER  = 255,
  55:c:\projects\paindrain\arduinolcd\test\pain drain\libraries\lvgl\src\misc\lv_color.h **** };
  56:c:\projects\paindrain\arduinolcd\test\pain drain\libraries\lvgl\src\misc\lv_color.h **** 
  57:c:\projects\paindrain\arduinolcd\test\pain drain\libraries\lvgl\src\misc\lv_color.h **** #define LV_OPA_MIN 2    /*Opacities below this will be transparent*/
  58:c:\projects\paindrain\arduinolcd\test\pain drain\libraries\lvgl\src\misc\lv_color.h **** #define LV_OPA_MAX 253  /*Opacities above this will fully cover*/
  59:c:\projects\paindrain\arduinolcd\test\pain drain\libraries\lvgl\src\misc\lv_color.h **** 
  60:c:\projects\paindrain\arduinolcd\test\pain drain\libraries\lvgl\src\misc\lv_color.h **** #if LV_COLOR_DEPTH == 1
  61:c:\projects\paindrain\arduinolcd\test\pain drain\libraries\lvgl\src\misc\lv_color.h **** #define LV_COLOR_SIZE 8
  62:c:\projects\paindrain\arduinolcd\test\pain drain\libraries\lvgl\src\misc\lv_color.h **** #elif LV_COLOR_DEPTH == 8
  63:c:\projects\paindrain\arduinolcd\test\pain drain\libraries\lvgl\src\misc\lv_color.h **** #define LV_COLOR_SIZE 8
  64:c:\projects\paindrain\arduinolcd\test\pain drain\libraries\lvgl\src\misc\lv_color.h **** #elif LV_COLOR_DEPTH == 16
  65:c:\projects\paindrain\arduinolcd\test\pain drain\libraries\lvgl\src\misc\lv_color.h **** #define LV_COLOR_SIZE 16
  66:c:\projects\paindrain\arduinolcd\test\pain drain\libraries\lvgl\src\misc\lv_color.h **** #elif LV_COLOR_DEPTH == 32
  67:c:\projects\paindrain\arduinolcd\test\pain drain\libraries\lvgl\src\misc\lv_color.h **** #define LV_COLOR_SIZE 32
  68:c:\projects\paindrain\arduinolcd\test\pain drain\libraries\lvgl\src\misc\lv_color.h **** #else
  69:c:\projects\paindrain\arduinolcd\test\pain drain\libraries\lvgl\src\misc\lv_color.h **** #error "Invalid LV_COLOR_DEPTH in lv_conf.h! Set it to 1, 8, 16 or 32!"
  70:c:\projects\paindrain\arduinolcd\test\pain drain\libraries\lvgl\src\misc\lv_color.h **** #endif
  71:c:\projects\paindrain\arduinolcd\test\pain drain\libraries\lvgl\src\misc\lv_color.h **** 
  72:c:\projects\paindrain\arduinolcd\test\pain drain\libraries\lvgl\src\misc\lv_color.h **** #if defined(__cplusplus) && !defined(_LV_COLOR_HAS_MODERN_CPP)
  73:c:\projects\paindrain\arduinolcd\test\pain drain\libraries\lvgl\src\misc\lv_color.h **** /**
  74:c:\projects\paindrain\arduinolcd\test\pain drain\libraries\lvgl\src\misc\lv_color.h **** * MSVC compiler's definition of the __cplusplus indicating 199711L regardless to C++ standard versi
  75:c:\projects\paindrain\arduinolcd\test\pain drain\libraries\lvgl\src\misc\lv_color.h **** * see https://devblogs.microsoft.com/cppblog/msvc-now-correctly-reports-cplusplus
  76:c:\projects\paindrain\arduinolcd\test\pain drain\libraries\lvgl\src\misc\lv_color.h **** * so we use _MSC_VER macro instead of __cplusplus
ARM GAS  C:\Users\haske\AppData\Local\Temp\cccSbkbr.s 			page 22


  77:c:\projects\paindrain\arduinolcd\test\pain drain\libraries\lvgl\src\misc\lv_color.h **** */
  78:c:\projects\paindrain\arduinolcd\test\pain drain\libraries\lvgl\src\misc\lv_color.h **** #ifdef _MSC_VER
  79:c:\projects\paindrain\arduinolcd\test\pain drain\libraries\lvgl\src\misc\lv_color.h **** #if _MSC_VER >= 1900 /*Visual Studio 2015*/
  80:c:\projects\paindrain\arduinolcd\test\pain drain\libraries\lvgl\src\misc\lv_color.h **** #define _LV_COLOR_HAS_MODERN_CPP 1
  81:c:\projects\paindrain\arduinolcd\test\pain drain\libraries\lvgl\src\misc\lv_color.h **** #endif
  82:c:\projects\paindrain\arduinolcd\test\pain drain\libraries\lvgl\src\misc\lv_color.h **** #else
  83:c:\projects\paindrain\arduinolcd\test\pain drain\libraries\lvgl\src\misc\lv_color.h **** #if __cplusplus >= 201103L
  84:c:\projects\paindrain\arduinolcd\test\pain drain\libraries\lvgl\src\misc\lv_color.h **** #define _LV_COLOR_HAS_MODERN_CPP 1
  85:c:\projects\paindrain\arduinolcd\test\pain drain\libraries\lvgl\src\misc\lv_color.h **** #endif
  86:c:\projects\paindrain\arduinolcd\test\pain drain\libraries\lvgl\src\misc\lv_color.h **** #endif
  87:c:\projects\paindrain\arduinolcd\test\pain drain\libraries\lvgl\src\misc\lv_color.h **** #endif /*__cplusplus*/
  88:c:\projects\paindrain\arduinolcd\test\pain drain\libraries\lvgl\src\misc\lv_color.h **** 
  89:c:\projects\paindrain\arduinolcd\test\pain drain\libraries\lvgl\src\misc\lv_color.h **** #ifndef _LV_COLOR_HAS_MODERN_CPP
  90:c:\projects\paindrain\arduinolcd\test\pain drain\libraries\lvgl\src\misc\lv_color.h **** #define _LV_COLOR_HAS_MODERN_CPP 0
  91:c:\projects\paindrain\arduinolcd\test\pain drain\libraries\lvgl\src\misc\lv_color.h **** #endif
  92:c:\projects\paindrain\arduinolcd\test\pain drain\libraries\lvgl\src\misc\lv_color.h **** 
  93:c:\projects\paindrain\arduinolcd\test\pain drain\libraries\lvgl\src\misc\lv_color.h **** #if _LV_COLOR_HAS_MODERN_CPP
  94:c:\projects\paindrain\arduinolcd\test\pain drain\libraries\lvgl\src\misc\lv_color.h **** /*Fix msvc compiler error C4576 inside C++ code*/
  95:c:\projects\paindrain\arduinolcd\test\pain drain\libraries\lvgl\src\misc\lv_color.h **** #define _LV_COLOR_MAKE_TYPE_HELPER lv_color_t
  96:c:\projects\paindrain\arduinolcd\test\pain drain\libraries\lvgl\src\misc\lv_color.h **** #else
  97:c:\projects\paindrain\arduinolcd\test\pain drain\libraries\lvgl\src\misc\lv_color.h **** #define _LV_COLOR_MAKE_TYPE_HELPER (lv_color_t)
  98:c:\projects\paindrain\arduinolcd\test\pain drain\libraries\lvgl\src\misc\lv_color.h **** #endif
  99:c:\projects\paindrain\arduinolcd\test\pain drain\libraries\lvgl\src\misc\lv_color.h **** 
 100:c:\projects\paindrain\arduinolcd\test\pain drain\libraries\lvgl\src\misc\lv_color.h **** /*---------------------------------------
 101:c:\projects\paindrain\arduinolcd\test\pain drain\libraries\lvgl\src\misc\lv_color.h ****  * Macros for all existing color depths
 102:c:\projects\paindrain\arduinolcd\test\pain drain\libraries\lvgl\src\misc\lv_color.h ****  * to set/get values of the color channels
 103:c:\projects\paindrain\arduinolcd\test\pain drain\libraries\lvgl\src\misc\lv_color.h ****  *------------------------------------------*/
 104:c:\projects\paindrain\arduinolcd\test\pain drain\libraries\lvgl\src\misc\lv_color.h **** # define LV_COLOR_SET_R1(c, v) (c).ch.red = (uint8_t)((v) & 0x1)
 105:c:\projects\paindrain\arduinolcd\test\pain drain\libraries\lvgl\src\misc\lv_color.h **** # define LV_COLOR_SET_G1(c, v) (c).ch.green = (uint8_t)((v) & 0x1)
 106:c:\projects\paindrain\arduinolcd\test\pain drain\libraries\lvgl\src\misc\lv_color.h **** # define LV_COLOR_SET_B1(c, v) (c).ch.blue = (uint8_t)((v) & 0x1)
 107:c:\projects\paindrain\arduinolcd\test\pain drain\libraries\lvgl\src\misc\lv_color.h **** # define LV_COLOR_SET_A1(c, v) do {} while(0)
 108:c:\projects\paindrain\arduinolcd\test\pain drain\libraries\lvgl\src\misc\lv_color.h **** 
 109:c:\projects\paindrain\arduinolcd\test\pain drain\libraries\lvgl\src\misc\lv_color.h **** # define LV_COLOR_GET_R1(c) (c).ch.red
 110:c:\projects\paindrain\arduinolcd\test\pain drain\libraries\lvgl\src\misc\lv_color.h **** # define LV_COLOR_GET_G1(c) (c).ch.green
 111:c:\projects\paindrain\arduinolcd\test\pain drain\libraries\lvgl\src\misc\lv_color.h **** # define LV_COLOR_GET_B1(c) (c).ch.blue
 112:c:\projects\paindrain\arduinolcd\test\pain drain\libraries\lvgl\src\misc\lv_color.h **** # define LV_COLOR_GET_A1(c) 0xFF
 113:c:\projects\paindrain\arduinolcd\test\pain drain\libraries\lvgl\src\misc\lv_color.h **** 
 114:c:\projects\paindrain\arduinolcd\test\pain drain\libraries\lvgl\src\misc\lv_color.h **** # define _LV_COLOR_ZERO_INITIALIZER1 {0x00}
 115:c:\projects\paindrain\arduinolcd\test\pain drain\libraries\lvgl\src\misc\lv_color.h **** # define LV_COLOR_MAKE1(r8, g8, b8)  {(uint8_t)((b8 >> 7) | (g8 >> 7) | (r8 >> 7))}
 116:c:\projects\paindrain\arduinolcd\test\pain drain\libraries\lvgl\src\misc\lv_color.h **** 
 117:c:\projects\paindrain\arduinolcd\test\pain drain\libraries\lvgl\src\misc\lv_color.h **** # define LV_COLOR_SET_R8(c, v) (c).ch.red = (uint8_t)((v) & 0x7U)
 118:c:\projects\paindrain\arduinolcd\test\pain drain\libraries\lvgl\src\misc\lv_color.h **** # define LV_COLOR_SET_G8(c, v) (c).ch.green = (uint8_t)((v) & 0x7U)
 119:c:\projects\paindrain\arduinolcd\test\pain drain\libraries\lvgl\src\misc\lv_color.h **** # define LV_COLOR_SET_B8(c, v) (c).ch.blue = (uint8_t)((v) & 0x3U)
 120:c:\projects\paindrain\arduinolcd\test\pain drain\libraries\lvgl\src\misc\lv_color.h **** # define LV_COLOR_SET_A8(c, v) do {} while(0)
 121:c:\projects\paindrain\arduinolcd\test\pain drain\libraries\lvgl\src\misc\lv_color.h **** 
 122:c:\projects\paindrain\arduinolcd\test\pain drain\libraries\lvgl\src\misc\lv_color.h **** # define LV_COLOR_GET_R8(c) (c).ch.red
 123:c:\projects\paindrain\arduinolcd\test\pain drain\libraries\lvgl\src\misc\lv_color.h **** # define LV_COLOR_GET_G8(c) (c).ch.green
 124:c:\projects\paindrain\arduinolcd\test\pain drain\libraries\lvgl\src\misc\lv_color.h **** # define LV_COLOR_GET_B8(c) (c).ch.blue
 125:c:\projects\paindrain\arduinolcd\test\pain drain\libraries\lvgl\src\misc\lv_color.h **** # define LV_COLOR_GET_A8(c) 0xFF
 126:c:\projects\paindrain\arduinolcd\test\pain drain\libraries\lvgl\src\misc\lv_color.h **** 
 127:c:\projects\paindrain\arduinolcd\test\pain drain\libraries\lvgl\src\misc\lv_color.h **** # define _LV_COLOR_ZERO_INITIALIZER8 {{0x00, 0x00, 0x00}}
 128:c:\projects\paindrain\arduinolcd\test\pain drain\libraries\lvgl\src\misc\lv_color.h **** # define LV_COLOR_MAKE8(r8, g8, b8) {{(uint8_t)((b8 >> 6) & 0x3U), (uint8_t)((g8 >> 5) & 0x7U), (ui
 129:c:\projects\paindrain\arduinolcd\test\pain drain\libraries\lvgl\src\misc\lv_color.h **** 
 130:c:\projects\paindrain\arduinolcd\test\pain drain\libraries\lvgl\src\misc\lv_color.h **** # define LV_COLOR_SET_R16(c, v) (c).ch.red = (uint8_t)((v) & 0x1FU)
 131:c:\projects\paindrain\arduinolcd\test\pain drain\libraries\lvgl\src\misc\lv_color.h **** #if LV_COLOR_16_SWAP == 0
 132:c:\projects\paindrain\arduinolcd\test\pain drain\libraries\lvgl\src\misc\lv_color.h **** # define LV_COLOR_SET_G16(c, v) (c).ch.green = (uint8_t)((v) & 0x3FU)
 133:c:\projects\paindrain\arduinolcd\test\pain drain\libraries\lvgl\src\misc\lv_color.h **** #else
ARM GAS  C:\Users\haske\AppData\Local\Temp\cccSbkbr.s 			page 23


 134:c:\projects\paindrain\arduinolcd\test\pain drain\libraries\lvgl\src\misc\lv_color.h **** # define LV_COLOR_SET_G16(c, v) {(c).ch.green_h = (uint8_t)(((v) >> 3) & 0x7); (c).ch.green_l = (ui
 135:c:\projects\paindrain\arduinolcd\test\pain drain\libraries\lvgl\src\misc\lv_color.h **** #endif
 136:c:\projects\paindrain\arduinolcd\test\pain drain\libraries\lvgl\src\misc\lv_color.h **** # define LV_COLOR_SET_B16(c, v) (c).ch.blue = (uint8_t)((v) & 0x1FU)
 137:c:\projects\paindrain\arduinolcd\test\pain drain\libraries\lvgl\src\misc\lv_color.h **** # define LV_COLOR_SET_A16(c, v) do {} while(0)
 138:c:\projects\paindrain\arduinolcd\test\pain drain\libraries\lvgl\src\misc\lv_color.h **** 
 139:c:\projects\paindrain\arduinolcd\test\pain drain\libraries\lvgl\src\misc\lv_color.h **** # define LV_COLOR_GET_R16(c) (c).ch.red
 140:c:\projects\paindrain\arduinolcd\test\pain drain\libraries\lvgl\src\misc\lv_color.h **** #if LV_COLOR_16_SWAP == 0
 141:c:\projects\paindrain\arduinolcd\test\pain drain\libraries\lvgl\src\misc\lv_color.h **** # define LV_COLOR_GET_G16(c) (c).ch.green
 142:c:\projects\paindrain\arduinolcd\test\pain drain\libraries\lvgl\src\misc\lv_color.h **** #else
 143:c:\projects\paindrain\arduinolcd\test\pain drain\libraries\lvgl\src\misc\lv_color.h **** # define LV_COLOR_GET_G16(c) (((c).ch.green_h << 3) + (c).ch.green_l)
 144:c:\projects\paindrain\arduinolcd\test\pain drain\libraries\lvgl\src\misc\lv_color.h **** #endif
 145:c:\projects\paindrain\arduinolcd\test\pain drain\libraries\lvgl\src\misc\lv_color.h **** # define LV_COLOR_GET_B16(c) (c).ch.blue
 146:c:\projects\paindrain\arduinolcd\test\pain drain\libraries\lvgl\src\misc\lv_color.h **** # define LV_COLOR_GET_A16(c) 0xFF
 147:c:\projects\paindrain\arduinolcd\test\pain drain\libraries\lvgl\src\misc\lv_color.h **** 
 148:c:\projects\paindrain\arduinolcd\test\pain drain\libraries\lvgl\src\misc\lv_color.h **** #if LV_COLOR_16_SWAP == 0
 149:c:\projects\paindrain\arduinolcd\test\pain drain\libraries\lvgl\src\misc\lv_color.h **** # define _LV_COLOR_ZERO_INITIALIZER16  {{0x00, 0x00, 0x00}}
 150:c:\projects\paindrain\arduinolcd\test\pain drain\libraries\lvgl\src\misc\lv_color.h **** # define LV_COLOR_MAKE16(r8, g8, b8) {{(uint8_t)((b8 >> 3) & 0x1FU), (uint8_t)((g8 >> 2) & 0x3FU), 
 151:c:\projects\paindrain\arduinolcd\test\pain drain\libraries\lvgl\src\misc\lv_color.h **** #else
 152:c:\projects\paindrain\arduinolcd\test\pain drain\libraries\lvgl\src\misc\lv_color.h **** # define _LV_COLOR_ZERO_INITIALIZER16 {{0x00, 0x00, 0x00, 0x00}}
 153:c:\projects\paindrain\arduinolcd\test\pain drain\libraries\lvgl\src\misc\lv_color.h **** # define LV_COLOR_MAKE16(r8, g8, b8) {{(uint8_t)((g8 >> 5) & 0x7U), (uint8_t)((r8 >> 3) & 0x1FU), (
 154:c:\projects\paindrain\arduinolcd\test\pain drain\libraries\lvgl\src\misc\lv_color.h **** #endif
 155:c:\projects\paindrain\arduinolcd\test\pain drain\libraries\lvgl\src\misc\lv_color.h **** 
 156:c:\projects\paindrain\arduinolcd\test\pain drain\libraries\lvgl\src\misc\lv_color.h **** # define LV_COLOR_SET_R32(c, v) (c).ch.red = (uint8_t)((v) & 0xFF)
 157:c:\projects\paindrain\arduinolcd\test\pain drain\libraries\lvgl\src\misc\lv_color.h **** # define LV_COLOR_SET_G32(c, v) (c).ch.green = (uint8_t)((v) & 0xFF)
 158:c:\projects\paindrain\arduinolcd\test\pain drain\libraries\lvgl\src\misc\lv_color.h **** # define LV_COLOR_SET_B32(c, v) (c).ch.blue = (uint8_t)((v) & 0xFF)
 159:c:\projects\paindrain\arduinolcd\test\pain drain\libraries\lvgl\src\misc\lv_color.h **** # define LV_COLOR_SET_A32(c, v) (c).ch.alpha = (uint8_t)((v) & 0xFF)
 160:c:\projects\paindrain\arduinolcd\test\pain drain\libraries\lvgl\src\misc\lv_color.h **** 
 161:c:\projects\paindrain\arduinolcd\test\pain drain\libraries\lvgl\src\misc\lv_color.h **** # define LV_COLOR_GET_R32(c) (c).ch.red
 162:c:\projects\paindrain\arduinolcd\test\pain drain\libraries\lvgl\src\misc\lv_color.h **** # define LV_COLOR_GET_G32(c) (c).ch.green
 163:c:\projects\paindrain\arduinolcd\test\pain drain\libraries\lvgl\src\misc\lv_color.h **** # define LV_COLOR_GET_B32(c) (c).ch.blue
 164:c:\projects\paindrain\arduinolcd\test\pain drain\libraries\lvgl\src\misc\lv_color.h **** # define LV_COLOR_GET_A32(c) (c).ch.alpha
 165:c:\projects\paindrain\arduinolcd\test\pain drain\libraries\lvgl\src\misc\lv_color.h **** 
 166:c:\projects\paindrain\arduinolcd\test\pain drain\libraries\lvgl\src\misc\lv_color.h **** # define _LV_COLOR_ZERO_INITIALIZER32  {{0x00, 0x00, 0x00, 0x00}}
 167:c:\projects\paindrain\arduinolcd\test\pain drain\libraries\lvgl\src\misc\lv_color.h **** # define LV_COLOR_MAKE32(r8, g8, b8) {{b8, g8, r8, 0xff}} /*Fix 0xff alpha*/
 168:c:\projects\paindrain\arduinolcd\test\pain drain\libraries\lvgl\src\misc\lv_color.h **** 
 169:c:\projects\paindrain\arduinolcd\test\pain drain\libraries\lvgl\src\misc\lv_color.h **** /*---------------------------------------
 170:c:\projects\paindrain\arduinolcd\test\pain drain\libraries\lvgl\src\misc\lv_color.h ****  * Macros for the current color depth
 171:c:\projects\paindrain\arduinolcd\test\pain drain\libraries\lvgl\src\misc\lv_color.h ****  * to set/get values of the color channels
 172:c:\projects\paindrain\arduinolcd\test\pain drain\libraries\lvgl\src\misc\lv_color.h ****  *------------------------------------------*/
 173:c:\projects\paindrain\arduinolcd\test\pain drain\libraries\lvgl\src\misc\lv_color.h **** #define LV_COLOR_SET_R(c, v) LV_CONCAT(LV_COLOR_SET_R, LV_COLOR_DEPTH)(c, v)
 174:c:\projects\paindrain\arduinolcd\test\pain drain\libraries\lvgl\src\misc\lv_color.h **** #define LV_COLOR_SET_G(c, v) LV_CONCAT(LV_COLOR_SET_G, LV_COLOR_DEPTH)(c, v)
 175:c:\projects\paindrain\arduinolcd\test\pain drain\libraries\lvgl\src\misc\lv_color.h **** #define LV_COLOR_SET_B(c, v) LV_CONCAT(LV_COLOR_SET_B, LV_COLOR_DEPTH)(c, v)
 176:c:\projects\paindrain\arduinolcd\test\pain drain\libraries\lvgl\src\misc\lv_color.h **** #define LV_COLOR_SET_A(c, v) LV_CONCAT(LV_COLOR_SET_A, LV_COLOR_DEPTH)(c, v)
 177:c:\projects\paindrain\arduinolcd\test\pain drain\libraries\lvgl\src\misc\lv_color.h **** 
 178:c:\projects\paindrain\arduinolcd\test\pain drain\libraries\lvgl\src\misc\lv_color.h **** #define LV_COLOR_GET_R(c) LV_CONCAT(LV_COLOR_GET_R, LV_COLOR_DEPTH)(c)
 179:c:\projects\paindrain\arduinolcd\test\pain drain\libraries\lvgl\src\misc\lv_color.h **** #define LV_COLOR_GET_G(c) LV_CONCAT(LV_COLOR_GET_G, LV_COLOR_DEPTH)(c)
 180:c:\projects\paindrain\arduinolcd\test\pain drain\libraries\lvgl\src\misc\lv_color.h **** #define LV_COLOR_GET_B(c) LV_CONCAT(LV_COLOR_GET_B, LV_COLOR_DEPTH)(c)
 181:c:\projects\paindrain\arduinolcd\test\pain drain\libraries\lvgl\src\misc\lv_color.h **** #define LV_COLOR_GET_A(c) LV_CONCAT(LV_COLOR_GET_A, LV_COLOR_DEPTH)(c)
 182:c:\projects\paindrain\arduinolcd\test\pain drain\libraries\lvgl\src\misc\lv_color.h **** 
 183:c:\projects\paindrain\arduinolcd\test\pain drain\libraries\lvgl\src\misc\lv_color.h **** #define _LV_COLOR_ZERO_INITIALIZER LV_CONCAT(_LV_COLOR_ZERO_INITIALIZER, LV_COLOR_DEPTH)
 184:c:\projects\paindrain\arduinolcd\test\pain drain\libraries\lvgl\src\misc\lv_color.h **** #define LV_COLOR_MAKE(r8, g8, b8) LV_CONCAT(LV_COLOR_MAKE, LV_COLOR_DEPTH)(r8, g8, b8)
 185:c:\projects\paindrain\arduinolcd\test\pain drain\libraries\lvgl\src\misc\lv_color.h **** 
 186:c:\projects\paindrain\arduinolcd\test\pain drain\libraries\lvgl\src\misc\lv_color.h **** /**********************
 187:c:\projects\paindrain\arduinolcd\test\pain drain\libraries\lvgl\src\misc\lv_color.h ****  *      TYPEDEFS
 188:c:\projects\paindrain\arduinolcd\test\pain drain\libraries\lvgl\src\misc\lv_color.h ****  **********************/
 189:c:\projects\paindrain\arduinolcd\test\pain drain\libraries\lvgl\src\misc\lv_color.h **** 
 190:c:\projects\paindrain\arduinolcd\test\pain drain\libraries\lvgl\src\misc\lv_color.h **** typedef union {
ARM GAS  C:\Users\haske\AppData\Local\Temp\cccSbkbr.s 			page 24


 191:c:\projects\paindrain\arduinolcd\test\pain drain\libraries\lvgl\src\misc\lv_color.h ****     uint8_t full; /*must be declared first to set all bits of byte via initializer list*/
 192:c:\projects\paindrain\arduinolcd\test\pain drain\libraries\lvgl\src\misc\lv_color.h ****     union {
 193:c:\projects\paindrain\arduinolcd\test\pain drain\libraries\lvgl\src\misc\lv_color.h ****         uint8_t blue : 1;
 194:c:\projects\paindrain\arduinolcd\test\pain drain\libraries\lvgl\src\misc\lv_color.h ****         uint8_t green : 1;
 195:c:\projects\paindrain\arduinolcd\test\pain drain\libraries\lvgl\src\misc\lv_color.h ****         uint8_t red : 1;
 196:c:\projects\paindrain\arduinolcd\test\pain drain\libraries\lvgl\src\misc\lv_color.h ****     } ch;
 197:c:\projects\paindrain\arduinolcd\test\pain drain\libraries\lvgl\src\misc\lv_color.h **** } lv_color1_t;
 198:c:\projects\paindrain\arduinolcd\test\pain drain\libraries\lvgl\src\misc\lv_color.h **** 
 199:c:\projects\paindrain\arduinolcd\test\pain drain\libraries\lvgl\src\misc\lv_color.h **** typedef union {
 200:c:\projects\paindrain\arduinolcd\test\pain drain\libraries\lvgl\src\misc\lv_color.h ****     struct {
 201:c:\projects\paindrain\arduinolcd\test\pain drain\libraries\lvgl\src\misc\lv_color.h ****         uint8_t blue : 2;
 202:c:\projects\paindrain\arduinolcd\test\pain drain\libraries\lvgl\src\misc\lv_color.h ****         uint8_t green : 3;
 203:c:\projects\paindrain\arduinolcd\test\pain drain\libraries\lvgl\src\misc\lv_color.h ****         uint8_t red : 3;
 204:c:\projects\paindrain\arduinolcd\test\pain drain\libraries\lvgl\src\misc\lv_color.h ****     } ch;
 205:c:\projects\paindrain\arduinolcd\test\pain drain\libraries\lvgl\src\misc\lv_color.h ****     uint8_t full;
 206:c:\projects\paindrain\arduinolcd\test\pain drain\libraries\lvgl\src\misc\lv_color.h **** } lv_color8_t;
 207:c:\projects\paindrain\arduinolcd\test\pain drain\libraries\lvgl\src\misc\lv_color.h **** 
 208:c:\projects\paindrain\arduinolcd\test\pain drain\libraries\lvgl\src\misc\lv_color.h **** typedef union {
 209:c:\projects\paindrain\arduinolcd\test\pain drain\libraries\lvgl\src\misc\lv_color.h ****     struct {
 210:c:\projects\paindrain\arduinolcd\test\pain drain\libraries\lvgl\src\misc\lv_color.h **** #if LV_COLOR_16_SWAP == 0
 211:c:\projects\paindrain\arduinolcd\test\pain drain\libraries\lvgl\src\misc\lv_color.h ****         uint16_t blue : 5;
 212:c:\projects\paindrain\arduinolcd\test\pain drain\libraries\lvgl\src\misc\lv_color.h ****         uint16_t green : 6;
 213:c:\projects\paindrain\arduinolcd\test\pain drain\libraries\lvgl\src\misc\lv_color.h ****         uint16_t red : 5;
 214:c:\projects\paindrain\arduinolcd\test\pain drain\libraries\lvgl\src\misc\lv_color.h **** #else
 215:c:\projects\paindrain\arduinolcd\test\pain drain\libraries\lvgl\src\misc\lv_color.h ****         uint16_t green_h : 3;
 216:c:\projects\paindrain\arduinolcd\test\pain drain\libraries\lvgl\src\misc\lv_color.h ****         uint16_t red : 5;
 217:c:\projects\paindrain\arduinolcd\test\pain drain\libraries\lvgl\src\misc\lv_color.h ****         uint16_t blue : 5;
 218:c:\projects\paindrain\arduinolcd\test\pain drain\libraries\lvgl\src\misc\lv_color.h ****         uint16_t green_l : 3;
 219:c:\projects\paindrain\arduinolcd\test\pain drain\libraries\lvgl\src\misc\lv_color.h **** #endif
 220:c:\projects\paindrain\arduinolcd\test\pain drain\libraries\lvgl\src\misc\lv_color.h ****     } ch;
 221:c:\projects\paindrain\arduinolcd\test\pain drain\libraries\lvgl\src\misc\lv_color.h ****     uint16_t full;
 222:c:\projects\paindrain\arduinolcd\test\pain drain\libraries\lvgl\src\misc\lv_color.h **** } lv_color16_t;
 223:c:\projects\paindrain\arduinolcd\test\pain drain\libraries\lvgl\src\misc\lv_color.h **** 
 224:c:\projects\paindrain\arduinolcd\test\pain drain\libraries\lvgl\src\misc\lv_color.h **** typedef union {
 225:c:\projects\paindrain\arduinolcd\test\pain drain\libraries\lvgl\src\misc\lv_color.h ****     struct {
 226:c:\projects\paindrain\arduinolcd\test\pain drain\libraries\lvgl\src\misc\lv_color.h ****         uint8_t blue;
 227:c:\projects\paindrain\arduinolcd\test\pain drain\libraries\lvgl\src\misc\lv_color.h ****         uint8_t green;
 228:c:\projects\paindrain\arduinolcd\test\pain drain\libraries\lvgl\src\misc\lv_color.h ****         uint8_t red;
 229:c:\projects\paindrain\arduinolcd\test\pain drain\libraries\lvgl\src\misc\lv_color.h ****         uint8_t alpha;
 230:c:\projects\paindrain\arduinolcd\test\pain drain\libraries\lvgl\src\misc\lv_color.h ****     } ch;
 231:c:\projects\paindrain\arduinolcd\test\pain drain\libraries\lvgl\src\misc\lv_color.h ****     uint32_t full;
 232:c:\projects\paindrain\arduinolcd\test\pain drain\libraries\lvgl\src\misc\lv_color.h **** } lv_color32_t;
 233:c:\projects\paindrain\arduinolcd\test\pain drain\libraries\lvgl\src\misc\lv_color.h **** 
 234:c:\projects\paindrain\arduinolcd\test\pain drain\libraries\lvgl\src\misc\lv_color.h **** typedef LV_CONCAT3(uint, LV_COLOR_SIZE, _t) lv_color_int_t;
 235:c:\projects\paindrain\arduinolcd\test\pain drain\libraries\lvgl\src\misc\lv_color.h **** typedef LV_CONCAT3(lv_color, LV_COLOR_DEPTH, _t) lv_color_t;
 236:c:\projects\paindrain\arduinolcd\test\pain drain\libraries\lvgl\src\misc\lv_color.h **** 
 237:c:\projects\paindrain\arduinolcd\test\pain drain\libraries\lvgl\src\misc\lv_color.h **** typedef struct {
 238:c:\projects\paindrain\arduinolcd\test\pain drain\libraries\lvgl\src\misc\lv_color.h ****     uint16_t h;
 239:c:\projects\paindrain\arduinolcd\test\pain drain\libraries\lvgl\src\misc\lv_color.h ****     uint8_t s;
 240:c:\projects\paindrain\arduinolcd\test\pain drain\libraries\lvgl\src\misc\lv_color.h ****     uint8_t v;
 241:c:\projects\paindrain\arduinolcd\test\pain drain\libraries\lvgl\src\misc\lv_color.h **** } lv_color_hsv_t;
 242:c:\projects\paindrain\arduinolcd\test\pain drain\libraries\lvgl\src\misc\lv_color.h **** 
 243:c:\projects\paindrain\arduinolcd\test\pain drain\libraries\lvgl\src\misc\lv_color.h **** //! @cond Doxygen_Suppress
 244:c:\projects\paindrain\arduinolcd\test\pain drain\libraries\lvgl\src\misc\lv_color.h **** /*No idea where the guard is required but else throws warnings in the docs*/
 245:c:\projects\paindrain\arduinolcd\test\pain drain\libraries\lvgl\src\misc\lv_color.h **** typedef uint8_t lv_opa_t;
 246:c:\projects\paindrain\arduinolcd\test\pain drain\libraries\lvgl\src\misc\lv_color.h **** //! @endcond
 247:c:\projects\paindrain\arduinolcd\test\pain drain\libraries\lvgl\src\misc\lv_color.h **** 
ARM GAS  C:\Users\haske\AppData\Local\Temp\cccSbkbr.s 			page 25


 248:c:\projects\paindrain\arduinolcd\test\pain drain\libraries\lvgl\src\misc\lv_color.h **** struct _lv_color_filter_dsc_t;
 249:c:\projects\paindrain\arduinolcd\test\pain drain\libraries\lvgl\src\misc\lv_color.h **** 
 250:c:\projects\paindrain\arduinolcd\test\pain drain\libraries\lvgl\src\misc\lv_color.h **** typedef lv_color_t (*lv_color_filter_cb_t)(const struct _lv_color_filter_dsc_t *, lv_color_t, lv_op
 251:c:\projects\paindrain\arduinolcd\test\pain drain\libraries\lvgl\src\misc\lv_color.h **** 
 252:c:\projects\paindrain\arduinolcd\test\pain drain\libraries\lvgl\src\misc\lv_color.h **** typedef struct _lv_color_filter_dsc_t {
 253:c:\projects\paindrain\arduinolcd\test\pain drain\libraries\lvgl\src\misc\lv_color.h ****     lv_color_filter_cb_t filter_cb;
 254:c:\projects\paindrain\arduinolcd\test\pain drain\libraries\lvgl\src\misc\lv_color.h ****     void * user_data;
 255:c:\projects\paindrain\arduinolcd\test\pain drain\libraries\lvgl\src\misc\lv_color.h **** } lv_color_filter_dsc_t;
 256:c:\projects\paindrain\arduinolcd\test\pain drain\libraries\lvgl\src\misc\lv_color.h **** 
 257:c:\projects\paindrain\arduinolcd\test\pain drain\libraries\lvgl\src\misc\lv_color.h **** 
 258:c:\projects\paindrain\arduinolcd\test\pain drain\libraries\lvgl\src\misc\lv_color.h **** typedef enum {
 259:c:\projects\paindrain\arduinolcd\test\pain drain\libraries\lvgl\src\misc\lv_color.h ****     LV_PALETTE_RED,
 260:c:\projects\paindrain\arduinolcd\test\pain drain\libraries\lvgl\src\misc\lv_color.h ****     LV_PALETTE_PINK,
 261:c:\projects\paindrain\arduinolcd\test\pain drain\libraries\lvgl\src\misc\lv_color.h ****     LV_PALETTE_PURPLE,
 262:c:\projects\paindrain\arduinolcd\test\pain drain\libraries\lvgl\src\misc\lv_color.h ****     LV_PALETTE_DEEP_PURPLE,
 263:c:\projects\paindrain\arduinolcd\test\pain drain\libraries\lvgl\src\misc\lv_color.h ****     LV_PALETTE_INDIGO,
 264:c:\projects\paindrain\arduinolcd\test\pain drain\libraries\lvgl\src\misc\lv_color.h ****     LV_PALETTE_BLUE,
 265:c:\projects\paindrain\arduinolcd\test\pain drain\libraries\lvgl\src\misc\lv_color.h ****     LV_PALETTE_LIGHT_BLUE,
 266:c:\projects\paindrain\arduinolcd\test\pain drain\libraries\lvgl\src\misc\lv_color.h ****     LV_PALETTE_CYAN,
 267:c:\projects\paindrain\arduinolcd\test\pain drain\libraries\lvgl\src\misc\lv_color.h ****     LV_PALETTE_TEAL,
 268:c:\projects\paindrain\arduinolcd\test\pain drain\libraries\lvgl\src\misc\lv_color.h ****     LV_PALETTE_GREEN,
 269:c:\projects\paindrain\arduinolcd\test\pain drain\libraries\lvgl\src\misc\lv_color.h ****     LV_PALETTE_LIGHT_GREEN,
 270:c:\projects\paindrain\arduinolcd\test\pain drain\libraries\lvgl\src\misc\lv_color.h ****     LV_PALETTE_LIME,
 271:c:\projects\paindrain\arduinolcd\test\pain drain\libraries\lvgl\src\misc\lv_color.h ****     LV_PALETTE_YELLOW,
 272:c:\projects\paindrain\arduinolcd\test\pain drain\libraries\lvgl\src\misc\lv_color.h ****     LV_PALETTE_AMBER,
 273:c:\projects\paindrain\arduinolcd\test\pain drain\libraries\lvgl\src\misc\lv_color.h ****     LV_PALETTE_ORANGE,
 274:c:\projects\paindrain\arduinolcd\test\pain drain\libraries\lvgl\src\misc\lv_color.h ****     LV_PALETTE_DEEP_ORANGE,
 275:c:\projects\paindrain\arduinolcd\test\pain drain\libraries\lvgl\src\misc\lv_color.h ****     LV_PALETTE_BROWN,
 276:c:\projects\paindrain\arduinolcd\test\pain drain\libraries\lvgl\src\misc\lv_color.h ****     LV_PALETTE_BLUE_GREY,
 277:c:\projects\paindrain\arduinolcd\test\pain drain\libraries\lvgl\src\misc\lv_color.h ****     LV_PALETTE_GREY,
 278:c:\projects\paindrain\arduinolcd\test\pain drain\libraries\lvgl\src\misc\lv_color.h ****     _LV_PALETTE_LAST,
 279:c:\projects\paindrain\arduinolcd\test\pain drain\libraries\lvgl\src\misc\lv_color.h ****     LV_PALETTE_NONE = 0xff,
 280:c:\projects\paindrain\arduinolcd\test\pain drain\libraries\lvgl\src\misc\lv_color.h **** } lv_palette_t;
 281:c:\projects\paindrain\arduinolcd\test\pain drain\libraries\lvgl\src\misc\lv_color.h **** 
 282:c:\projects\paindrain\arduinolcd\test\pain drain\libraries\lvgl\src\misc\lv_color.h **** /**********************
 283:c:\projects\paindrain\arduinolcd\test\pain drain\libraries\lvgl\src\misc\lv_color.h ****  * GLOBAL PROTOTYPES
 284:c:\projects\paindrain\arduinolcd\test\pain drain\libraries\lvgl\src\misc\lv_color.h ****  **********************/
 285:c:\projects\paindrain\arduinolcd\test\pain drain\libraries\lvgl\src\misc\lv_color.h **** 
 286:c:\projects\paindrain\arduinolcd\test\pain drain\libraries\lvgl\src\misc\lv_color.h **** /*In color conversations:
 287:c:\projects\paindrain\arduinolcd\test\pain drain\libraries\lvgl\src\misc\lv_color.h ****  * - When converting to bigger color type the LSB weight of 1 LSB is calculated
 288:c:\projects\paindrain\arduinolcd\test\pain drain\libraries\lvgl\src\misc\lv_color.h ****  *   E.g. 16 bit Red has 5 bits
 289:c:\projects\paindrain\arduinolcd\test\pain drain\libraries\lvgl\src\misc\lv_color.h ****  *         8 bit Red has 3 bits
 290:c:\projects\paindrain\arduinolcd\test\pain drain\libraries\lvgl\src\misc\lv_color.h ****  *        ----------------------
 291:c:\projects\paindrain\arduinolcd\test\pain drain\libraries\lvgl\src\misc\lv_color.h ****  *        8 bit red LSB = (2^5 - 1) / (2^3 - 1) = 31 / 7 = 4
 292:c:\projects\paindrain\arduinolcd\test\pain drain\libraries\lvgl\src\misc\lv_color.h ****  *
 293:c:\projects\paindrain\arduinolcd\test\pain drain\libraries\lvgl\src\misc\lv_color.h ****  * - When calculating to smaller color type simply shift out the LSBs
 294:c:\projects\paindrain\arduinolcd\test\pain drain\libraries\lvgl\src\misc\lv_color.h ****  *   E.g.  8 bit Red has 3 bits
 295:c:\projects\paindrain\arduinolcd\test\pain drain\libraries\lvgl\src\misc\lv_color.h ****  *        16 bit Red has 5 bits
 296:c:\projects\paindrain\arduinolcd\test\pain drain\libraries\lvgl\src\misc\lv_color.h ****  *        ----------------------
 297:c:\projects\paindrain\arduinolcd\test\pain drain\libraries\lvgl\src\misc\lv_color.h ****  *         Shift right with 5 - 3 = 2
 298:c:\projects\paindrain\arduinolcd\test\pain drain\libraries\lvgl\src\misc\lv_color.h ****  */
 299:c:\projects\paindrain\arduinolcd\test\pain drain\libraries\lvgl\src\misc\lv_color.h **** static inline uint8_t lv_color_to1(lv_color_t color)
 300:c:\projects\paindrain\arduinolcd\test\pain drain\libraries\lvgl\src\misc\lv_color.h **** {
 301:c:\projects\paindrain\arduinolcd\test\pain drain\libraries\lvgl\src\misc\lv_color.h **** #if LV_COLOR_DEPTH == 1
 302:c:\projects\paindrain\arduinolcd\test\pain drain\libraries\lvgl\src\misc\lv_color.h ****     return color.full;
 303:c:\projects\paindrain\arduinolcd\test\pain drain\libraries\lvgl\src\misc\lv_color.h **** #elif LV_COLOR_DEPTH == 8
 304:c:\projects\paindrain\arduinolcd\test\pain drain\libraries\lvgl\src\misc\lv_color.h ****     if((LV_COLOR_GET_R(color) & 0x4) || (LV_COLOR_GET_G(color) & 0x4) || (LV_COLOR_GET_B(color) & 0
ARM GAS  C:\Users\haske\AppData\Local\Temp\cccSbkbr.s 			page 26


 305:c:\projects\paindrain\arduinolcd\test\pain drain\libraries\lvgl\src\misc\lv_color.h ****         return 1;
 306:c:\projects\paindrain\arduinolcd\test\pain drain\libraries\lvgl\src\misc\lv_color.h ****     }
 307:c:\projects\paindrain\arduinolcd\test\pain drain\libraries\lvgl\src\misc\lv_color.h ****     else {
 308:c:\projects\paindrain\arduinolcd\test\pain drain\libraries\lvgl\src\misc\lv_color.h ****         return 0;
 309:c:\projects\paindrain\arduinolcd\test\pain drain\libraries\lvgl\src\misc\lv_color.h ****     }
 310:c:\projects\paindrain\arduinolcd\test\pain drain\libraries\lvgl\src\misc\lv_color.h **** #elif LV_COLOR_DEPTH == 16
 311:c:\projects\paindrain\arduinolcd\test\pain drain\libraries\lvgl\src\misc\lv_color.h ****     if((LV_COLOR_GET_R(color) & 0x10) || (LV_COLOR_GET_G(color) & 0x20) || (LV_COLOR_GET_B(color) &
 312:c:\projects\paindrain\arduinolcd\test\pain drain\libraries\lvgl\src\misc\lv_color.h ****         return 1;
 313:c:\projects\paindrain\arduinolcd\test\pain drain\libraries\lvgl\src\misc\lv_color.h ****     }
 314:c:\projects\paindrain\arduinolcd\test\pain drain\libraries\lvgl\src\misc\lv_color.h ****     else {
 315:c:\projects\paindrain\arduinolcd\test\pain drain\libraries\lvgl\src\misc\lv_color.h ****         return 0;
 316:c:\projects\paindrain\arduinolcd\test\pain drain\libraries\lvgl\src\misc\lv_color.h ****     }
 317:c:\projects\paindrain\arduinolcd\test\pain drain\libraries\lvgl\src\misc\lv_color.h **** #elif LV_COLOR_DEPTH == 32
 318:c:\projects\paindrain\arduinolcd\test\pain drain\libraries\lvgl\src\misc\lv_color.h ****     if((LV_COLOR_GET_R(color) & 0x80) || (LV_COLOR_GET_G(color) & 0x80) || (LV_COLOR_GET_B(color) &
 319:c:\projects\paindrain\arduinolcd\test\pain drain\libraries\lvgl\src\misc\lv_color.h ****         return 1;
 320:c:\projects\paindrain\arduinolcd\test\pain drain\libraries\lvgl\src\misc\lv_color.h ****     }
 321:c:\projects\paindrain\arduinolcd\test\pain drain\libraries\lvgl\src\misc\lv_color.h ****     else {
 322:c:\projects\paindrain\arduinolcd\test\pain drain\libraries\lvgl\src\misc\lv_color.h ****         return 0;
 323:c:\projects\paindrain\arduinolcd\test\pain drain\libraries\lvgl\src\misc\lv_color.h ****     }
 324:c:\projects\paindrain\arduinolcd\test\pain drain\libraries\lvgl\src\misc\lv_color.h **** #endif
 325:c:\projects\paindrain\arduinolcd\test\pain drain\libraries\lvgl\src\misc\lv_color.h **** }
 326:c:\projects\paindrain\arduinolcd\test\pain drain\libraries\lvgl\src\misc\lv_color.h **** 
 327:c:\projects\paindrain\arduinolcd\test\pain drain\libraries\lvgl\src\misc\lv_color.h **** static inline uint8_t lv_color_to8(lv_color_t color)
 328:c:\projects\paindrain\arduinolcd\test\pain drain\libraries\lvgl\src\misc\lv_color.h **** {
 329:c:\projects\paindrain\arduinolcd\test\pain drain\libraries\lvgl\src\misc\lv_color.h **** #if LV_COLOR_DEPTH == 1
 330:c:\projects\paindrain\arduinolcd\test\pain drain\libraries\lvgl\src\misc\lv_color.h ****     if(color.full == 0)
 331:c:\projects\paindrain\arduinolcd\test\pain drain\libraries\lvgl\src\misc\lv_color.h ****         return 0;
 332:c:\projects\paindrain\arduinolcd\test\pain drain\libraries\lvgl\src\misc\lv_color.h ****     else
 333:c:\projects\paindrain\arduinolcd\test\pain drain\libraries\lvgl\src\misc\lv_color.h ****         return 0xFF;
 334:c:\projects\paindrain\arduinolcd\test\pain drain\libraries\lvgl\src\misc\lv_color.h **** #elif LV_COLOR_DEPTH == 8
 335:c:\projects\paindrain\arduinolcd\test\pain drain\libraries\lvgl\src\misc\lv_color.h ****     return color.full;
 336:c:\projects\paindrain\arduinolcd\test\pain drain\libraries\lvgl\src\misc\lv_color.h **** #elif LV_COLOR_DEPTH == 16
 337:c:\projects\paindrain\arduinolcd\test\pain drain\libraries\lvgl\src\misc\lv_color.h ****     lv_color8_t ret;
 338:c:\projects\paindrain\arduinolcd\test\pain drain\libraries\lvgl\src\misc\lv_color.h ****     LV_COLOR_SET_R8(ret, LV_COLOR_GET_R(color) >> 2); /*5 - 3  = 2*/
 339:c:\projects\paindrain\arduinolcd\test\pain drain\libraries\lvgl\src\misc\lv_color.h ****     LV_COLOR_SET_G8(ret, LV_COLOR_GET_G(color) >> 3); /*6 - 3  = 3*/
 340:c:\projects\paindrain\arduinolcd\test\pain drain\libraries\lvgl\src\misc\lv_color.h ****     LV_COLOR_SET_B8(ret, LV_COLOR_GET_B(color) >> 3); /*5 - 2  = 3*/
 341:c:\projects\paindrain\arduinolcd\test\pain drain\libraries\lvgl\src\misc\lv_color.h ****     return ret.full;
 342:c:\projects\paindrain\arduinolcd\test\pain drain\libraries\lvgl\src\misc\lv_color.h **** #elif LV_COLOR_DEPTH == 32
 343:c:\projects\paindrain\arduinolcd\test\pain drain\libraries\lvgl\src\misc\lv_color.h ****     lv_color8_t ret;
 344:c:\projects\paindrain\arduinolcd\test\pain drain\libraries\lvgl\src\misc\lv_color.h ****     LV_COLOR_SET_R8(ret, LV_COLOR_GET_R(color) >> 5); /*8 - 3  = 5*/
 345:c:\projects\paindrain\arduinolcd\test\pain drain\libraries\lvgl\src\misc\lv_color.h ****     LV_COLOR_SET_G8(ret, LV_COLOR_GET_G(color) >> 5); /*8 - 3  = 5*/
 346:c:\projects\paindrain\arduinolcd\test\pain drain\libraries\lvgl\src\misc\lv_color.h ****     LV_COLOR_SET_B8(ret, LV_COLOR_GET_B(color) >> 6); /*8 - 2  = 6*/
 347:c:\projects\paindrain\arduinolcd\test\pain drain\libraries\lvgl\src\misc\lv_color.h ****     return ret.full;
 348:c:\projects\paindrain\arduinolcd\test\pain drain\libraries\lvgl\src\misc\lv_color.h **** #endif
 349:c:\projects\paindrain\arduinolcd\test\pain drain\libraries\lvgl\src\misc\lv_color.h **** }
 350:c:\projects\paindrain\arduinolcd\test\pain drain\libraries\lvgl\src\misc\lv_color.h **** 
 351:c:\projects\paindrain\arduinolcd\test\pain drain\libraries\lvgl\src\misc\lv_color.h **** static inline uint16_t lv_color_to16(lv_color_t color)
 352:c:\projects\paindrain\arduinolcd\test\pain drain\libraries\lvgl\src\misc\lv_color.h **** {
 353:c:\projects\paindrain\arduinolcd\test\pain drain\libraries\lvgl\src\misc\lv_color.h **** #if LV_COLOR_DEPTH == 1
 354:c:\projects\paindrain\arduinolcd\test\pain drain\libraries\lvgl\src\misc\lv_color.h ****     if(color.full == 0)
 355:c:\projects\paindrain\arduinolcd\test\pain drain\libraries\lvgl\src\misc\lv_color.h ****         return 0;
 356:c:\projects\paindrain\arduinolcd\test\pain drain\libraries\lvgl\src\misc\lv_color.h ****     else
 357:c:\projects\paindrain\arduinolcd\test\pain drain\libraries\lvgl\src\misc\lv_color.h ****         return 0xFFFF;
 358:c:\projects\paindrain\arduinolcd\test\pain drain\libraries\lvgl\src\misc\lv_color.h **** #elif LV_COLOR_DEPTH == 8
 359:c:\projects\paindrain\arduinolcd\test\pain drain\libraries\lvgl\src\misc\lv_color.h ****     lv_color16_t ret;
 360:c:\projects\paindrain\arduinolcd\test\pain drain\libraries\lvgl\src\misc\lv_color.h ****     LV_COLOR_SET_R16(ret, LV_COLOR_GET_R(color) * 4);  /*(2^5 - 1)/(2^3 - 1) = 31/7 = 4*/
 361:c:\projects\paindrain\arduinolcd\test\pain drain\libraries\lvgl\src\misc\lv_color.h ****     LV_COLOR_SET_G16(ret, LV_COLOR_GET_G(color) * 9);  /*(2^6 - 1)/(2^3 - 1) = 63/7 = 9*/
ARM GAS  C:\Users\haske\AppData\Local\Temp\cccSbkbr.s 			page 27


 362:c:\projects\paindrain\arduinolcd\test\pain drain\libraries\lvgl\src\misc\lv_color.h ****     LV_COLOR_SET_B16(ret, LV_COLOR_GET_B(color) * 10); /*(2^5 - 1)/(2^2 - 1) = 31/3 = 10*/
 363:c:\projects\paindrain\arduinolcd\test\pain drain\libraries\lvgl\src\misc\lv_color.h ****     return ret.full;
 364:c:\projects\paindrain\arduinolcd\test\pain drain\libraries\lvgl\src\misc\lv_color.h **** #elif LV_COLOR_DEPTH == 16
 365:c:\projects\paindrain\arduinolcd\test\pain drain\libraries\lvgl\src\misc\lv_color.h ****     return color.full;
 366:c:\projects\paindrain\arduinolcd\test\pain drain\libraries\lvgl\src\misc\lv_color.h **** #elif LV_COLOR_DEPTH == 32
 367:c:\projects\paindrain\arduinolcd\test\pain drain\libraries\lvgl\src\misc\lv_color.h ****     lv_color16_t ret;
 368:c:\projects\paindrain\arduinolcd\test\pain drain\libraries\lvgl\src\misc\lv_color.h ****     LV_COLOR_SET_R16(ret, LV_COLOR_GET_R(color) >> 3); /*8 - 5  = 3*/
 369:c:\projects\paindrain\arduinolcd\test\pain drain\libraries\lvgl\src\misc\lv_color.h ****     LV_COLOR_SET_G16(ret, LV_COLOR_GET_G(color) >> 2); /*8 - 6  = 2*/
 370:c:\projects\paindrain\arduinolcd\test\pain drain\libraries\lvgl\src\misc\lv_color.h ****     LV_COLOR_SET_B16(ret, LV_COLOR_GET_B(color) >> 3); /*8 - 5  = 3*/
 371:c:\projects\paindrain\arduinolcd\test\pain drain\libraries\lvgl\src\misc\lv_color.h ****     return ret.full;
 372:c:\projects\paindrain\arduinolcd\test\pain drain\libraries\lvgl\src\misc\lv_color.h **** #endif
 373:c:\projects\paindrain\arduinolcd\test\pain drain\libraries\lvgl\src\misc\lv_color.h **** }
 374:c:\projects\paindrain\arduinolcd\test\pain drain\libraries\lvgl\src\misc\lv_color.h **** 
 375:c:\projects\paindrain\arduinolcd\test\pain drain\libraries\lvgl\src\misc\lv_color.h **** static inline uint32_t lv_color_to32(lv_color_t color)
 376:c:\projects\paindrain\arduinolcd\test\pain drain\libraries\lvgl\src\misc\lv_color.h **** {
 377:c:\projects\paindrain\arduinolcd\test\pain drain\libraries\lvgl\src\misc\lv_color.h **** #if LV_COLOR_DEPTH == 1
 378:c:\projects\paindrain\arduinolcd\test\pain drain\libraries\lvgl\src\misc\lv_color.h ****     if(color.full == 0)
 379:c:\projects\paindrain\arduinolcd\test\pain drain\libraries\lvgl\src\misc\lv_color.h ****         return 0xFF000000;
 380:c:\projects\paindrain\arduinolcd\test\pain drain\libraries\lvgl\src\misc\lv_color.h ****     else
 381:c:\projects\paindrain\arduinolcd\test\pain drain\libraries\lvgl\src\misc\lv_color.h ****         return 0xFFFFFFFF;
 382:c:\projects\paindrain\arduinolcd\test\pain drain\libraries\lvgl\src\misc\lv_color.h **** #elif LV_COLOR_DEPTH == 8
 383:c:\projects\paindrain\arduinolcd\test\pain drain\libraries\lvgl\src\misc\lv_color.h ****     lv_color32_t ret;
 384:c:\projects\paindrain\arduinolcd\test\pain drain\libraries\lvgl\src\misc\lv_color.h ****     LV_COLOR_SET_R32(ret, LV_COLOR_GET_R(color) * 36); /*(2^8 - 1)/(2^3 - 1) = 255/7 = 36*/
 385:c:\projects\paindrain\arduinolcd\test\pain drain\libraries\lvgl\src\misc\lv_color.h ****     LV_COLOR_SET_G32(ret, LV_COLOR_GET_G(color) * 36); /*(2^8 - 1)/(2^3 - 1) = 255/7 = 36*/
 386:c:\projects\paindrain\arduinolcd\test\pain drain\libraries\lvgl\src\misc\lv_color.h ****     LV_COLOR_SET_B32(ret, LV_COLOR_GET_B(color) * 85); /*(2^8 - 1)/(2^2 - 1) = 255/3 = 85*/
 387:c:\projects\paindrain\arduinolcd\test\pain drain\libraries\lvgl\src\misc\lv_color.h ****     LV_COLOR_SET_A32(ret, 0xFF);
 388:c:\projects\paindrain\arduinolcd\test\pain drain\libraries\lvgl\src\misc\lv_color.h ****     return ret.full;
 389:c:\projects\paindrain\arduinolcd\test\pain drain\libraries\lvgl\src\misc\lv_color.h **** #elif LV_COLOR_DEPTH == 16
 390:c:\projects\paindrain\arduinolcd\test\pain drain\libraries\lvgl\src\misc\lv_color.h ****     /**
 391:c:\projects\paindrain\arduinolcd\test\pain drain\libraries\lvgl\src\misc\lv_color.h ****      * The floating point math for conversion is:
 392:c:\projects\paindrain\arduinolcd\test\pain drain\libraries\lvgl\src\misc\lv_color.h ****      *  valueto = valuefrom * ( (2^bitsto - 1) / (float)(2^bitsfrom - 1) )
 393:c:\projects\paindrain\arduinolcd\test\pain drain\libraries\lvgl\src\misc\lv_color.h ****      * The faster integer math for conversion is:
 394:c:\projects\paindrain\arduinolcd\test\pain drain\libraries\lvgl\src\misc\lv_color.h ****      *  valueto = ( valuefrom * multiplier + adder ) >> divisor
 395:c:\projects\paindrain\arduinolcd\test\pain drain\libraries\lvgl\src\misc\lv_color.h ****      *   multiplier = FLOOR( ( (2^bitsto - 1) << divisor ) / (float)(2^bitsfrom - 1) )
 396:c:\projects\paindrain\arduinolcd\test\pain drain\libraries\lvgl\src\misc\lv_color.h ****      *
 397:c:\projects\paindrain\arduinolcd\test\pain drain\libraries\lvgl\src\misc\lv_color.h ****      * Find the first divisor where ( adder >> divisor ) <= 0
 398:c:\projects\paindrain\arduinolcd\test\pain drain\libraries\lvgl\src\misc\lv_color.h ****      *
 399:c:\projects\paindrain\arduinolcd\test\pain drain\libraries\lvgl\src\misc\lv_color.h ****      * 5-bit to 8-bit: ( 31 * multiplier + adder ) >> divisor = 255
 400:c:\projects\paindrain\arduinolcd\test\pain drain\libraries\lvgl\src\misc\lv_color.h ****      * divisor  multiplier  adder  min (0)  max (31)
 401:c:\projects\paindrain\arduinolcd\test\pain drain\libraries\lvgl\src\misc\lv_color.h ****      *       0           8      7        7       255
 402:c:\projects\paindrain\arduinolcd\test\pain drain\libraries\lvgl\src\misc\lv_color.h ****      *       1          16     14        7       255
 403:c:\projects\paindrain\arduinolcd\test\pain drain\libraries\lvgl\src\misc\lv_color.h ****      *       2          32     28        7       255
 404:c:\projects\paindrain\arduinolcd\test\pain drain\libraries\lvgl\src\misc\lv_color.h ****      *       3          65     25        3       255
 405:c:\projects\paindrain\arduinolcd\test\pain drain\libraries\lvgl\src\misc\lv_color.h ****      *       4         131     19        1       255
 406:c:\projects\paindrain\arduinolcd\test\pain drain\libraries\lvgl\src\misc\lv_color.h ****      *       5         263      7        0       255
 407:c:\projects\paindrain\arduinolcd\test\pain drain\libraries\lvgl\src\misc\lv_color.h ****      *
 408:c:\projects\paindrain\arduinolcd\test\pain drain\libraries\lvgl\src\misc\lv_color.h ****      * 6-bit to 8-bit: 255 = ( 63 * multiplier + adder ) >> divisor
 409:c:\projects\paindrain\arduinolcd\test\pain drain\libraries\lvgl\src\misc\lv_color.h ****      * divisor  multiplier  adder  min (0)  max (63)
 410:c:\projects\paindrain\arduinolcd\test\pain drain\libraries\lvgl\src\misc\lv_color.h ****      *       0           4      3        3       255
 411:c:\projects\paindrain\arduinolcd\test\pain drain\libraries\lvgl\src\misc\lv_color.h ****      *       1           8      6        3       255
 412:c:\projects\paindrain\arduinolcd\test\pain drain\libraries\lvgl\src\misc\lv_color.h ****      *       2          16     12        3       255
 413:c:\projects\paindrain\arduinolcd\test\pain drain\libraries\lvgl\src\misc\lv_color.h ****      *       3          32     24        3       255
 414:c:\projects\paindrain\arduinolcd\test\pain drain\libraries\lvgl\src\misc\lv_color.h ****      *       4          64     48        3       255
 415:c:\projects\paindrain\arduinolcd\test\pain drain\libraries\lvgl\src\misc\lv_color.h ****      *       5         129     33        1       255
 416:c:\projects\paindrain\arduinolcd\test\pain drain\libraries\lvgl\src\misc\lv_color.h ****      *       6         259      3        0       255
 417:c:\projects\paindrain\arduinolcd\test\pain drain\libraries\lvgl\src\misc\lv_color.h ****      */
 418:c:\projects\paindrain\arduinolcd\test\pain drain\libraries\lvgl\src\misc\lv_color.h **** 
ARM GAS  C:\Users\haske\AppData\Local\Temp\cccSbkbr.s 			page 28


 419:c:\projects\paindrain\arduinolcd\test\pain drain\libraries\lvgl\src\misc\lv_color.h ****     lv_color32_t ret;
 420:c:\projects\paindrain\arduinolcd\test\pain drain\libraries\lvgl\src\misc\lv_color.h ****     LV_COLOR_SET_R32(ret, (LV_COLOR_GET_R(color) * 263 + 7) >> 5);
 776              		.loc 2 420 0
 777 0052 C3F3C424 		ubfx	r4, r3, #11, #5
 778              	.LVL96:
 779 0056 04EB4416 		add	r6, r4, r4, lsl #5
 780 005a C4EBC604 		rsb	r4, r4, r6, lsl #3
 781 005e 0734     		adds	r4, r4, #7
 782 0060 C4F34714 		ubfx	r4, r4, #5, #8
 783 0064 0026     		movs	r6, #0
 784              	.LVL97:
 785 0066 64F31746 		bfi	r6, r4, #16, #8
 786              	.LVL98:
 421:c:\projects\paindrain\arduinolcd\test\pain drain\libraries\lvgl\src\misc\lv_color.h ****     LV_COLOR_SET_G32(ret, (LV_COLOR_GET_G(color) * 259 + 3) >> 6);
 787              		.loc 2 421 0
 788 006a C3F34514 		ubfx	r4, r3, #5, #6
 789 006e 04EBC41C 		add	ip, r4, r4, lsl #7
 790              	.LVL99:
 791 0072 04EB4C04 		add	r4, r4, ip, lsl #1
 792 0076 0334     		adds	r4, r4, #3
 793 0078 C4F38714 		ubfx	r4, r4, #6, #8
 794 007c 64F30F26 		bfi	r6, r4, #8, #8
 422:c:\projects\paindrain\arduinolcd\test\pain drain\libraries\lvgl\src\misc\lv_color.h ****     LV_COLOR_SET_B32(ret, (LV_COLOR_GET_B(color) * 263 + 7) >> 5);
 795              		.loc 2 422 0
 796 0080 03F01F03 		and	r3, r3, #31
 797              	.LVL100:
 798 0084 03EB4314 		add	r4, r3, r3, lsl #5
 799 0088 C3EBC403 		rsb	r3, r3, r4, lsl #3
 800 008c 0733     		adds	r3, r3, #7
 801 008e C3F34713 		ubfx	r3, r3, #5, #8
 802 0092 63F30706 		bfi	r6, r3, #0, #8
 803              	.LBE14:
 804              	.LBE13:
 805              		.loc 1 319 0
 806 0096 46F07F46 		orr	r6, r6, #-16777216
 807              	.LVL101:
 808 009a 30F82E40 		ldrh	r4, [r0, lr, lsl #2]
 809              	.LVL102:
 810              	.LBB15:
 811              	.LBB16:
 420:c:\projects\paindrain\arduinolcd\test\pain drain\libraries\lvgl\src\misc\lv_color.h ****     LV_COLOR_SET_G32(ret, (LV_COLOR_GET_G(color) * 259 + 3) >> 6);
 812              		.loc 2 420 0
 813 009e C4F3C423 		ubfx	r3, r4, #11, #5
 814 00a2 03EB431E 		add	lr, r3, r3, lsl #5
 815 00a6 C3EBCE0E 		rsb	lr, r3, lr, lsl #3
 816 00aa 0EF1070E 		add	lr, lr, #7
 817 00ae CEF3471E 		ubfx	lr, lr, #5, #8
 818 00b2 0023     		movs	r3, #0
 819              	.LVL103:
 820 00b4 6EF31743 		bfi	r3, lr, #16, #8
 821              	.LVL104:
 421:c:\projects\paindrain\arduinolcd\test\pain drain\libraries\lvgl\src\misc\lv_color.h ****     LV_COLOR_SET_G32(ret, (LV_COLOR_GET_G(color) * 259 + 3) >> 6);
 822              		.loc 2 421 0
 823 00b8 C4F3451E 		ubfx	lr, r4, #5, #6
 824 00bc 0EEBCE1C 		add	ip, lr, lr, lsl #7
 825 00c0 0EEB4C0E 		add	lr, lr, ip, lsl #1
 826 00c4 0EF1030E 		add	lr, lr, #3
ARM GAS  C:\Users\haske\AppData\Local\Temp\cccSbkbr.s 			page 29


 827 00c8 CEF3871E 		ubfx	lr, lr, #6, #8
 828 00cc 6EF30F23 		bfi	r3, lr, #8, #8
 829              		.loc 2 422 0
 830 00d0 04F01F04 		and	r4, r4, #31
 831              	.LVL105:
 832 00d4 04EB441E 		add	lr, r4, r4, lsl #5
 833 00d8 C4EBCE04 		rsb	r4, r4, lr, lsl #3
 834 00dc 0734     		adds	r4, r4, #7
 835 00de C4F34714 		ubfx	r4, r4, #5, #8
 836 00e2 64F30703 		bfi	r3, r4, #0, #8
 837              	.LBE16:
 838              	.LBE15:
 320:..\..\..\arduinoLCD\test\Pain Drain\libraries\lvgl\src\draw\sw/lv_draw_sw_gradient.c ****             two.full = lv_color_to32(dsc->stops[i].color);
 839              		.loc 1 320 0
 840 00e6 43F07F43 		orr	r3, r3, #-16777216
 841              	.LVL106:
 321:..\..\..\arduinoLCD\test\Pain Drain\libraries\lvgl\src\draw\sw/lv_draw_sw_gradient.c ****             min = (dsc->stops[i - 1].frac * range) >> 8;
 842              		.loc 1 321 0
 843 00ea 00EB8700 		add	r0, r0, r7, lsl #2
 844              	.LVL107:
 845 00ee 8778     		ldrb	r7, [r0, #2]	@ zero_extendqisi2
 846 00f0 01FB07F1 		mul	r1, r1, r7
 847              	.LVL108:
 848 00f4 0F12     		asrs	r7, r1, #8
 849              	.LVL109:
 322:..\..\..\arduinoLCD\test\Pain Drain\libraries\lvgl\src\draw\sw/lv_draw_sw_gradient.c ****             max = (dsc->stops[i].frac * range) >> 8;
 323:..\..\..\arduinoLCD\test\Pain Drain\libraries\lvgl\src\draw\sw/lv_draw_sw_gradient.c ****             d = max - min;
 850              		.loc 1 323 0
 851 00f6 ED1B     		subs	r5, r5, r7
 852              	.LVL110:
 324:..\..\..\arduinoLCD\test\Pain Drain\libraries\lvgl\src\draw\sw/lv_draw_sw_gradient.c ****             break;
 853              		.loc 1 324 0
 854 00f8 06E0     		b	.L67
 855              	.LVL111:
 856              	.L66:
 857              	.LBE12:
 316:..\..\..\arduinoLCD\test\Pain Drain\libraries\lvgl\src\draw\sw/lv_draw_sw_gradient.c ****         int32_t cur = (dsc->stops[i].frac * range) >> 8;
 858              		.loc 1 316 0 discriminator 2
 859 00fa 0134     		adds	r4, r4, #1
 860              	.LVL112:
 861 00fc E4B2     		uxtb	r4, r4
 862              	.LVL113:
 863 00fe 00E0     		b	.L65
 864              	.LVL114:
 865              	.L71:
 866              	.LBE11:
 867 0100 0124     		movs	r4, #1
 868              	.LVL115:
 869              	.L65:
 870              	.LBB17:
 316:..\..\..\arduinoLCD\test\Pain Drain\libraries\lvgl\src\draw\sw/lv_draw_sw_gradient.c ****         int32_t cur = (dsc->stops[i].frac * range) >> 8;
 871              		.loc 1 316 0 is_stmt 0 discriminator 1
 872 0102 6445     		cmp	r4, ip
 873 0104 99D3     		bcc	.L68
 874              	.LBE17:
 315:..\..\..\arduinoLCD\test\Pain Drain\libraries\lvgl\src\draw\sw/lv_draw_sw_gradient.c ****     for(uint8_t i = 1; i < dsc->stops_count; i++) {
 875              		.loc 1 315 0 is_stmt 1
ARM GAS  C:\Users\haske\AppData\Local\Temp\cccSbkbr.s 			page 30


 876 0106 0025     		movs	r5, #0
 877              	.LVL116:
 878              	.L67:
 325:..\..\..\arduinoLCD\test\Pain Drain\libraries\lvgl\src\draw\sw/lv_draw_sw_gradient.c ****         }
 326:..\..\..\arduinoLCD\test\Pain Drain\libraries\lvgl\src\draw\sw/lv_draw_sw_gradient.c ****     }
 327:..\..\..\arduinoLCD\test\Pain Drain\libraries\lvgl\src\draw\sw/lv_draw_sw_gradient.c **** 
 328:..\..\..\arduinoLCD\test\Pain Drain\libraries\lvgl\src\draw\sw/lv_draw_sw_gradient.c ****     LV_ASSERT(d != 0);
 879              		.loc 1 328 0
 880 0108 05B9     		cbnz	r5, .L69
 881              	.L70:
 882 010a FEE7     		b	.L70
 883              	.L69:
 329:..\..\..\arduinoLCD\test\Pain Drain\libraries\lvgl\src\draw\sw/lv_draw_sw_gradient.c **** 
 330:..\..\..\arduinoLCD\test\Pain Drain\libraries\lvgl\src\draw\sw/lv_draw_sw_gradient.c ****     /*Then interpolate*/
 331:..\..\..\arduinoLCD\test\Pain Drain\libraries\lvgl\src\draw\sw/lv_draw_sw_gradient.c ****     frac -= min;
 884              		.loc 1 331 0
 885 010c D21B     		subs	r2, r2, r7
 886              	.LVL117:
 887 010e 12B2     		sxth	r2, r2
 888              	.LVL118:
 332:..\..\..\arduinoLCD\test\Pain Drain\libraries\lvgl\src\draw\sw/lv_draw_sw_gradient.c ****     lv_opa_t mix = (frac * 255) / d;
 889              		.loc 1 332 0
 890 0110 C2EB0222 		rsb	r2, r2, r2, lsl #8
 891              	.LVL119:
 892 0114 92FBF5F2 		sdiv	r2, r2, r5
 893 0118 D2B2     		uxtb	r2, r2
 894              	.LVL120:
 333:..\..\..\arduinoLCD\test\Pain Drain\libraries\lvgl\src\draw\sw/lv_draw_sw_gradient.c ****     lv_opa_t imix = 255 - mix;
 895              		.loc 1 333 0
 896 011a D443     		mvns	r4, r2
 897 011c E4B2     		uxtb	r4, r4
 898              	.LVL121:
 334:..\..\..\arduinoLCD\test\Pain Drain\libraries\lvgl\src\draw\sw/lv_draw_sw_gradient.c **** 
 335:..\..\..\arduinoLCD\test\Pain Drain\libraries\lvgl\src\draw\sw/lv_draw_sw_gradient.c ****     lv_grad_color_t r = GRAD_CM(LV_UDIV255(two.ch.red * mix   + one.ch.red * imix),
 899              		.loc 1 335 0
 900 011e D9B2     		uxtb	r1, r3
 901 0120 F0B2     		uxtb	r0, r6
 902 0122 04FB00F0 		mul	r0, r4, r0
 903 0126 02FB0101 		mla	r1, r2, r1, r0
 904 012a 01EB0120 		add	r0, r1, r1, lsl #8
 905 012e 01EBC011 		add	r1, r1, r0, lsl #7
 906 0132 890E     		lsrs	r1, r1, #26
 907 0134 4FF00000 		mov	r0, #0	@ movhi
 908              	.LVL122:
 909 0138 61F30400 		bfi	r0, r1, #0, #5
 910              	.LVL123:
 911 013c C3F30721 		ubfx	r1, r3, #8, #8
 912 0140 C6F30725 		ubfx	r5, r6, #8, #8
 913              	.LVL124:
 914 0144 04FB05F5 		mul	r5, r4, r5
 915 0148 02FB0151 		mla	r1, r2, r1, r5
 916 014c 01EB0125 		add	r5, r1, r1, lsl #8
 917 0150 01EBC511 		add	r1, r1, r5, lsl #7
 918 0154 490E     		lsrs	r1, r1, #25
 919 0156 61F34A10 		bfi	r0, r1, #5, #6
 920 015a C3F30743 		ubfx	r3, r3, #16, #8
 921 015e C6F30746 		ubfx	r6, r6, #16, #8
ARM GAS  C:\Users\haske\AppData\Local\Temp\cccSbkbr.s 			page 31


 922 0162 04FB06F4 		mul	r4, r4, r6
 923              	.LVL125:
 924 0166 02FB0342 		mla	r2, r2, r3, r4
 925              	.LVL126:
 926 016a 02EB0223 		add	r3, r2, r2, lsl #8
 927 016e 02EBC312 		add	r2, r2, r3, lsl #7
 928 0172 930E     		lsrs	r3, r2, #26
 929 0174 63F3CF20 		bfi	r0, r3, #11, #5
 930              	.LVL127:
 336:..\..\..\arduinoLCD\test\Pain Drain\libraries\lvgl\src\draw\sw/lv_draw_sw_gradient.c ****                                 LV_UDIV255(two.ch.green * mix + one.ch.green * imix),
 337:..\..\..\arduinoLCD\test\Pain Drain\libraries\lvgl\src\draw\sw/lv_draw_sw_gradient.c ****                                 LV_UDIV255(two.ch.blue * mix  + one.ch.blue * imix));
 338:..\..\..\arduinoLCD\test\Pain Drain\libraries\lvgl\src\draw\sw/lv_draw_sw_gradient.c ****     return r;
 339:..\..\..\arduinoLCD\test\Pain Drain\libraries\lvgl\src\draw\sw/lv_draw_sw_gradient.c **** }
 931              		.loc 1 339 0
 932 0178 BDE8F083 		pop	{r4, r5, r6, r7, r8, r9, pc}
 933              		.cfi_endproc
 934              	.LFE68:
 935              		.size	lv_gradient_calculate, .-lv_gradient_calculate
 936              		.section	.text.lv_gradient_get,"ax",%progbits
 937              		.align	2
 938              		.global	lv_gradient_get
 939              		.thumb
 940              		.thumb_func
 941              		.type	lv_gradient_get, %function
 942              	lv_gradient_get:
 943              	.LFB67:
 252:..\..\..\arduinoLCD\test\Pain Drain\libraries\lvgl\src\draw\sw/lv_draw_sw_gradient.c ****     /* No gradient, no cache */
 944              		.loc 1 252 0
 945              		.cfi_startproc
 946              		@ args = 0, pretend = 0, frame = 8
 947              		@ frame_needed = 0, uses_anonymous_args = 0
 948              	.LVL128:
 254:..\..\..\arduinoLCD\test\Pain Drain\libraries\lvgl\src\draw\sw/lv_draw_sw_gradient.c **** 
 949              		.loc 1 254 0
 950 0000 437A     		ldrb	r3, [r0, #9]	@ zero_extendqisi2
 951 0002 13F0070F 		tst	r3, #7
 952 0006 45D0     		beq	.L80
 252:..\..\..\arduinoLCD\test\Pain Drain\libraries\lvgl\src\draw\sw/lv_draw_sw_gradient.c ****     /* No gradient, no cache */
 953              		.loc 1 252 0
 954 0008 70B5     		push	{r4, r5, r6, lr}
 955              		.cfi_def_cfa_offset 16
 956              		.cfi_offset 4, -16
 957              		.cfi_offset 5, -12
 958              		.cfi_offset 6, -8
 959              		.cfi_offset 14, -4
 960 000a 82B0     		sub	sp, sp, #8
 961              		.cfi_def_cfa_offset 24
 962 000c 1646     		mov	r6, r2
 963 000e 0C46     		mov	r4, r1
 964 0010 0546     		mov	r5, r0
 258:..\..\..\arduinoLCD\test\Pain Drain\libraries\lvgl\src\draw\sw/lv_draw_sw_gradient.c ****         lv_gradient_set_cache_size(LV_GRAD_CACHE_DEF_SIZE);
 965              		.loc 1 258 0
 966 0012 224B     		ldr	r3, .L84
 967 0014 1B7A     		ldrb	r3, [r3, #8]	@ zero_extendqisi2
 968 0016 2BB9     		cbnz	r3, .L75
 259:..\..\..\arduinoLCD\test\Pain Drain\libraries\lvgl\src\draw\sw/lv_draw_sw_gradient.c ****         inited = true;
 969              		.loc 1 259 0
ARM GAS  C:\Users\haske\AppData\Local\Temp\cccSbkbr.s 			page 32


 970 0018 0020     		movs	r0, #0
 971              	.LVL129:
 972 001a FFF7FEFF 		bl	lv_gradient_set_cache_size
 973              	.LVL130:
 260:..\..\..\arduinoLCD\test\Pain Drain\libraries\lvgl\src\draw\sw/lv_draw_sw_gradient.c ****     }
 974              		.loc 1 260 0
 975 001e 0122     		movs	r2, #1
 976 0020 1E4B     		ldr	r3, .L84
 977 0022 1A72     		strb	r2, [r3, #8]
 978              	.L75:
 264:..\..\..\arduinoLCD\test\Pain Drain\libraries\lvgl\src\draw\sw/lv_draw_sw_gradient.c ****     uint32_t key = compute_key(g, size, w);
 979              		.loc 1 264 0
 980 0024 6B7A     		ldrb	r3, [r5, #9]	@ zero_extendqisi2
 981 0026 03F00703 		and	r3, r3, #7
 982 002a 022B     		cmp	r3, #2
 983 002c 01D1     		bne	.L81
 984 002e 2146     		mov	r1, r4
 985 0030 00E0     		b	.L76
 986              	.L81:
 987 0032 3146     		mov	r1, r6
 988              	.L76:
 989              	.LVL131:
 265:..\..\..\arduinoLCD\test\Pain Drain\libraries\lvgl\src\draw\sw/lv_draw_sw_gradient.c ****     lv_grad_t * item = NULL;
 990              		.loc 1 265 0 discriminator 4
 991 0034 2246     		mov	r2, r4
 992 0036 2846     		mov	r0, r5
 993 0038 FFF7FEFF 		bl	compute_key
 994              	.LVL132:
 995 003c 0190     		str	r0, [sp, #4]
 266:..\..\..\arduinoLCD\test\Pain Drain\libraries\lvgl\src\draw\sw/lv_draw_sw_gradient.c ****     if(iterate_cache(&find_item, &key, &item) == LV_RES_OK) {
 996              		.loc 1 266 0 discriminator 4
 997 003e 02AA     		add	r2, sp, #8
 998 0040 0023     		movs	r3, #0
 999 0042 42F8083D 		str	r3, [r2, #-8]!
 267:..\..\..\arduinoLCD\test\Pain Drain\libraries\lvgl\src\draw\sw/lv_draw_sw_gradient.c ****         item->life++; /* Don't forget to bump the counter */
 1000              		.loc 1 267 0 discriminator 4
 1001 0046 01A9     		add	r1, sp, #4
 1002 0048 1548     		ldr	r0, .L84+4
 1003 004a FFF7FEFF 		bl	iterate_cache
 1004              	.LVL133:
 1005 004e 0128     		cmp	r0, #1
 1006 0050 08D1     		bne	.L77
 268:..\..\..\arduinoLCD\test\Pain Drain\libraries\lvgl\src\draw\sw/lv_draw_sw_gradient.c ****         return item;
 1007              		.loc 1 268 0
 1008 0052 0098     		ldr	r0, [sp]
 1009 0054 4368     		ldr	r3, [r0, #4]
 1010 0056 C3F31D02 		ubfx	r2, r3, #0, #30
 1011 005a 0132     		adds	r2, r2, #1
 1012 005c 62F31D03 		bfi	r3, r2, #0, #30
 1013 0060 4360     		str	r3, [r0, #4]
 269:..\..\..\arduinoLCD\test\Pain Drain\libraries\lvgl\src\draw\sw/lv_draw_sw_gradient.c ****     }
 1014              		.loc 1 269 0
 1015 0062 19E0     		b	.L74
 1016              	.L77:
 273:..\..\..\arduinoLCD\test\Pain Drain\libraries\lvgl\src\draw\sw/lv_draw_sw_gradient.c ****     if(item == NULL) {
 1017              		.loc 1 273 0
 1018 0064 3246     		mov	r2, r6
ARM GAS  C:\Users\haske\AppData\Local\Temp\cccSbkbr.s 			page 33


 1019 0066 2146     		mov	r1, r4
 1020 0068 2846     		mov	r0, r5
 1021 006a FFF7FEFF 		bl	allocate_item
 1022              	.LVL134:
 1023 006e 0090     		str	r0, [sp]
 274:..\..\..\arduinoLCD\test\Pain Drain\libraries\lvgl\src\draw\sw/lv_draw_sw_gradient.c ****         LV_LOG_WARN("Faild to allcoate item for teh gradient");
 1024              		.loc 1 274 0
 1025 0070 90B1     		cbz	r0, .L74
 1026 0072 0024     		movs	r4, #0
 1027 0074 08E0     		b	.L78
 1028              	.LVL135:
 1029              	.L79:
 1030              	.LBB18:
 289:..\..\..\arduinoLCD\test\Pain Drain\libraries\lvgl\src\draw\sw/lv_draw_sw_gradient.c ****     }
 1031              		.loc 1 289 0 discriminator 3
 1032 0076 8668     		ldr	r6, [r0, #8]
 1033 0078 2246     		mov	r2, r4
 1034 007a 2846     		mov	r0, r5
 1035 007c FFF7FEFF 		bl	lv_gradient_calculate
 1036              	.LVL136:
 1037 0080 26F81400 		strh	r0, [r6, r4, lsl #1]	@ movhi
 288:..\..\..\arduinoLCD\test\Pain Drain\libraries\lvgl\src\draw\sw/lv_draw_sw_gradient.c ****         item->map[i] = lv_gradient_calculate(g, item->size, i);
 1038              		.loc 1 288 0 discriminator 3
 1039 0084 0134     		adds	r4, r4, #1
 1040              	.LVL137:
 1041 0086 24B2     		sxth	r4, r4
 1042              	.LVL138:
 1043              	.L78:
 288:..\..\..\arduinoLCD\test\Pain Drain\libraries\lvgl\src\draw\sw/lv_draw_sw_gradient.c ****         item->map[i] = lv_gradient_calculate(g, item->size, i);
 1044              		.loc 1 288 0 is_stmt 0 discriminator 1
 1045 0088 0098     		ldr	r0, [sp]
 1046 008a B0F90E10 		ldrsh	r1, [r0, #14]
 1047 008e 8C42     		cmp	r4, r1
 1048 0090 F1DB     		blt	.L79
 1049 0092 01E0     		b	.L74
 1050              	.LVL139:
 1051              	.L80:
 1052              		.cfi_def_cfa_offset 0
 1053              		.cfi_restore 4
 1054              		.cfi_restore 5
 1055              		.cfi_restore 6
 1056              		.cfi_restore 14
 1057              	.LBE18:
 254:..\..\..\arduinoLCD\test\Pain Drain\libraries\lvgl\src\draw\sw/lv_draw_sw_gradient.c **** 
 1058              		.loc 1 254 0 is_stmt 1
 1059 0094 0020     		movs	r0, #0
 1060              	.LVL140:
 1061 0096 7047     		bx	lr
 1062              	.LVL141:
 1063              	.L74:
 1064              		.cfi_def_cfa_offset 24
 1065              		.cfi_offset 4, -16
 1066              		.cfi_offset 5, -12
 1067              		.cfi_offset 6, -8
 1068              		.cfi_offset 14, -4
 294:..\..\..\arduinoLCD\test\Pain Drain\libraries\lvgl\src\draw\sw/lv_draw_sw_gradient.c **** 
 1069              		.loc 1 294 0
ARM GAS  C:\Users\haske\AppData\Local\Temp\cccSbkbr.s 			page 34


 1070 0098 02B0     		add	sp, sp, #8
 1071              		.cfi_def_cfa_offset 16
 1072              		@ sp needed
 1073 009a 70BD     		pop	{r4, r5, r6, pc}
 1074              	.LVL142:
 1075              	.L85:
 1076              		.align	2
 1077              	.L84:
 1078 009c 00000000 		.word	.LANCHOR0
 1079 00a0 00000000 		.word	find_item
 1080              		.cfi_endproc
 1081              	.LFE67:
 1082              		.size	lv_gradient_get, .-lv_gradient_get
 1083              		.section	.text.lv_gradient_cleanup,"ax",%progbits
 1084              		.align	2
 1085              		.global	lv_gradient_cleanup
 1086              		.thumb
 1087              		.thumb_func
 1088              		.type	lv_gradient_cleanup, %function
 1089              	lv_gradient_cleanup:
 1090              	.LFB69:
 340:..\..\..\arduinoLCD\test\Pain Drain\libraries\lvgl\src\draw\sw/lv_draw_sw_gradient.c **** 
 341:..\..\..\arduinoLCD\test\Pain Drain\libraries\lvgl\src\draw\sw/lv_draw_sw_gradient.c **** void lv_gradient_cleanup(lv_grad_t * grad)
 342:..\..\..\arduinoLCD\test\Pain Drain\libraries\lvgl\src\draw\sw/lv_draw_sw_gradient.c **** {
 1091              		.loc 1 342 0
 1092              		.cfi_startproc
 1093              		@ args = 0, pretend = 0, frame = 0
 1094              		@ frame_needed = 0, uses_anonymous_args = 0
 1095              	.LVL143:
 1096 0000 08B5     		push	{r3, lr}
 1097              		.cfi_def_cfa_offset 8
 1098              		.cfi_offset 3, -8
 1099              		.cfi_offset 14, -4
 343:..\..\..\arduinoLCD\test\Pain Drain\libraries\lvgl\src\draw\sw/lv_draw_sw_gradient.c ****     if(grad->not_cached) {
 1100              		.loc 1 343 0
 1101 0002 C379     		ldrb	r3, [r0, #7]	@ zero_extendqisi2
 1102 0004 13F0800F 		tst	r3, #128
 1103 0008 01D0     		beq	.L86
 344:..\..\..\arduinoLCD\test\Pain Drain\libraries\lvgl\src\draw\sw/lv_draw_sw_gradient.c ****         lv_mem_free(grad);
 1104              		.loc 1 344 0
 1105 000a FFF7FEFF 		bl	lv_mem_free
 1106              	.LVL144:
 1107              	.L86:
 1108 000e 08BD     		pop	{r3, pc}
 1109              		.cfi_endproc
 1110              	.LFE69:
 1111              		.size	lv_gradient_cleanup, .-lv_gradient_cleanup
 1112              		.bss
 1113              		.align	2
 1114              		.set	.LANCHOR0,. + 0
 1115              		.type	grad_cache_size, %object
 1116              		.size	grad_cache_size, 4
 1117              	grad_cache_size:
 1118 0000 00000000 		.space	4
 1119              		.type	grad_cache_end, %object
 1120              		.size	grad_cache_end, 4
 1121              	grad_cache_end:
ARM GAS  C:\Users\haske\AppData\Local\Temp\cccSbkbr.s 			page 35


 1122 0004 00000000 		.space	4
 1123              		.type	inited.6812, %object
 1124              		.size	inited.6812, 1
 1125              	inited.6812:
 1126 0008 00       		.space	1
 1127              		.text
 1128              	.Letext0:
 1129              		.file 3 "c:\\program files (x86)\\cypress\\psoc creator\\4.4\\psoc creator\\import\\gnu\\arm\\5.4.
 1130              		.file 4 "c:\\program files (x86)\\cypress\\psoc creator\\4.4\\psoc creator\\import\\gnu\\arm\\5.4.
 1131              		.file 5 "c:\\projects\\paindrain\\arduinolcd\\test\\pain drain\\libraries\\lvgl\\src\\misc\\lv_typ
 1132              		.file 6 "c:\\program files (x86)\\cypress\\psoc creator\\4.4\\psoc creator\\import\\gnu\\arm\\5.4.
 1133              		.file 7 "c:\\projects\\paindrain\\arduinolcd\\test\\pain drain\\libraries\\lvgl\\src\\misc\\lv_are
 1134              		.file 8 "c:\\projects\\paindrain\\arduinolcd\\test\\pain drain\\libraries\\lvgl\\src\\font\\lv_fon
 1135              		.file 9 "c:\\projects\\paindrain\\arduinolcd\\test\\pain drain\\libraries\\lvgl\\src\\misc\\lv_sty
 1136              		.file 10 "..\\..\\..\\arduinoLCD\\test\\Pain Drain\\libraries\\lvgl\\src\\draw\\sw\\lv_draw_sw_gra
 1137              		.file 11 "c:\\projects\\paindrain\\arduinolcd\\test\\pain drain\\libraries\\lvgl\\src\\misc\\lv_gc
 1138              		.file 12 "c:\\projects\\paindrain\\arduinolcd\\test\\pain drain\\libraries\\lvgl\\src\\misc\\lv_me