ARM GAS  C:\Users\haske\AppData\Local\Temp\cc7ZkKza.s 			page 1


   1              		.syntax unified
   2              		.cpu cortex-m4
   3              		.eabi_attribute 27, 1
   4              		.fpu fpv4-sp-d16
   5              		.eabi_attribute 20, 1
   6              		.eabi_attribute 21, 1
   7              		.eabi_attribute 23, 3
   8              		.eabi_attribute 24, 1
   9              		.eabi_attribute 25, 1
  10              		.eabi_attribute 26, 1
  11              		.eabi_attribute 30, 1
  12              		.eabi_attribute 34, 1
  13              		.eabi_attribute 18, 4
  14              		.thumb
  15              		.syntax unified
  16              		.file	"lv_draw_sw_blend.c"
  17              		.text
  18              	.Ltext0:
  19              		.cfi_sections	.debug_frame
  20              		.section	.text.fill_blended,"ax",%progbits
  21              		.align	2
  22              		.thumb
  23              		.thumb_func
  24              		.type	fill_blended, %function
  25              	fill_blended:
  26              	.LFB163:
  27              		.file 1 "..\\..\\..\\arduinoLCD\\test\\Pain Drain\\libraries\\lvgl\\src\\draw\\sw\\lv_draw_sw_blen
   1:..\..\..\arduinoLCD\test\Pain Drain\libraries\lvgl\src\draw\sw/lv_draw_sw_blend.c **** /**
   2:..\..\..\arduinoLCD\test\Pain Drain\libraries\lvgl\src\draw\sw/lv_draw_sw_blend.c ****  * @file lv_draw_sw_blend.c
   3:..\..\..\arduinoLCD\test\Pain Drain\libraries\lvgl\src\draw\sw/lv_draw_sw_blend.c ****  *
   4:..\..\..\arduinoLCD\test\Pain Drain\libraries\lvgl\src\draw\sw/lv_draw_sw_blend.c ****  */
   5:..\..\..\arduinoLCD\test\Pain Drain\libraries\lvgl\src\draw\sw/lv_draw_sw_blend.c **** 
   6:..\..\..\arduinoLCD\test\Pain Drain\libraries\lvgl\src\draw\sw/lv_draw_sw_blend.c **** /*********************
   7:..\..\..\arduinoLCD\test\Pain Drain\libraries\lvgl\src\draw\sw/lv_draw_sw_blend.c ****  *      INCLUDES
   8:..\..\..\arduinoLCD\test\Pain Drain\libraries\lvgl\src\draw\sw/lv_draw_sw_blend.c ****  *********************/
   9:..\..\..\arduinoLCD\test\Pain Drain\libraries\lvgl\src\draw\sw/lv_draw_sw_blend.c **** #include "lv_draw_sw.h"
  10:..\..\..\arduinoLCD\test\Pain Drain\libraries\lvgl\src\draw\sw/lv_draw_sw_blend.c **** #include "../../misc/lv_math.h"
  11:..\..\..\arduinoLCD\test\Pain Drain\libraries\lvgl\src\draw\sw/lv_draw_sw_blend.c **** #include "../../hal/lv_hal_disp.h"
  12:..\..\..\arduinoLCD\test\Pain Drain\libraries\lvgl\src\draw\sw/lv_draw_sw_blend.c **** #include "../../core/lv_refr.h"
  13:..\..\..\arduinoLCD\test\Pain Drain\libraries\lvgl\src\draw\sw/lv_draw_sw_blend.c **** 
  14:..\..\..\arduinoLCD\test\Pain Drain\libraries\lvgl\src\draw\sw/lv_draw_sw_blend.c **** /*********************
  15:..\..\..\arduinoLCD\test\Pain Drain\libraries\lvgl\src\draw\sw/lv_draw_sw_blend.c ****  *      DEFINES
  16:..\..\..\arduinoLCD\test\Pain Drain\libraries\lvgl\src\draw\sw/lv_draw_sw_blend.c ****  *********************/
  17:..\..\..\arduinoLCD\test\Pain Drain\libraries\lvgl\src\draw\sw/lv_draw_sw_blend.c **** 
  18:..\..\..\arduinoLCD\test\Pain Drain\libraries\lvgl\src\draw\sw/lv_draw_sw_blend.c **** /**********************
  19:..\..\..\arduinoLCD\test\Pain Drain\libraries\lvgl\src\draw\sw/lv_draw_sw_blend.c ****  *      TYPEDEFS
  20:..\..\..\arduinoLCD\test\Pain Drain\libraries\lvgl\src\draw\sw/lv_draw_sw_blend.c ****  **********************/
  21:..\..\..\arduinoLCD\test\Pain Drain\libraries\lvgl\src\draw\sw/lv_draw_sw_blend.c **** 
  22:..\..\..\arduinoLCD\test\Pain Drain\libraries\lvgl\src\draw\sw/lv_draw_sw_blend.c **** /**********************
  23:..\..\..\arduinoLCD\test\Pain Drain\libraries\lvgl\src\draw\sw/lv_draw_sw_blend.c ****  *  STATIC PROTOTYPES
  24:..\..\..\arduinoLCD\test\Pain Drain\libraries\lvgl\src\draw\sw/lv_draw_sw_blend.c ****  **********************/
  25:..\..\..\arduinoLCD\test\Pain Drain\libraries\lvgl\src\draw\sw/lv_draw_sw_blend.c **** 
  26:..\..\..\arduinoLCD\test\Pain Drain\libraries\lvgl\src\draw\sw/lv_draw_sw_blend.c **** static void fill_set_px(lv_color_t * dest_buf, const lv_area_t * blend_area, lv_coord_t dest_stride
  27:..\..\..\arduinoLCD\test\Pain Drain\libraries\lvgl\src\draw\sw/lv_draw_sw_blend.c ****                         lv_color_t color, lv_opa_t opa, const lv_opa_t * mask, lv_coord_t mask_stid
  28:..\..\..\arduinoLCD\test\Pain Drain\libraries\lvgl\src\draw\sw/lv_draw_sw_blend.c **** 
  29:..\..\..\arduinoLCD\test\Pain Drain\libraries\lvgl\src\draw\sw/lv_draw_sw_blend.c **** LV_ATTRIBUTE_FAST_MEM static void fill_normal(lv_color_t * dest_buf, const lv_area_t * dest_area,
  30:..\..\..\arduinoLCD\test\Pain Drain\libraries\lvgl\src\draw\sw/lv_draw_sw_blend.c ****                                               lv_coord_t dest_stride, lv_color_t color, lv_opa_t op
ARM GAS  C:\Users\haske\AppData\Local\Temp\cc7ZkKza.s 			page 2


  31:..\..\..\arduinoLCD\test\Pain Drain\libraries\lvgl\src\draw\sw/lv_draw_sw_blend.c **** 
  32:..\..\..\arduinoLCD\test\Pain Drain\libraries\lvgl\src\draw\sw/lv_draw_sw_blend.c **** 
  33:..\..\..\arduinoLCD\test\Pain Drain\libraries\lvgl\src\draw\sw/lv_draw_sw_blend.c **** #if LV_COLOR_SCREEN_TRANSP
  34:..\..\..\arduinoLCD\test\Pain Drain\libraries\lvgl\src\draw\sw/lv_draw_sw_blend.c **** LV_ATTRIBUTE_FAST_MEM static void fill_argb(lv_color_t * dest_buf, const lv_area_t * dest_area,
  35:..\..\..\arduinoLCD\test\Pain Drain\libraries\lvgl\src\draw\sw/lv_draw_sw_blend.c ****                                             lv_coord_t dest_stride, lv_color_t color, lv_opa_t opa,
  36:..\..\..\arduinoLCD\test\Pain Drain\libraries\lvgl\src\draw\sw/lv_draw_sw_blend.c **** #endif /*LV_COLOR_SCREEN_TRANSP*/
  37:..\..\..\arduinoLCD\test\Pain Drain\libraries\lvgl\src\draw\sw/lv_draw_sw_blend.c **** 
  38:..\..\..\arduinoLCD\test\Pain Drain\libraries\lvgl\src\draw\sw/lv_draw_sw_blend.c **** #if LV_DRAW_COMPLEX
  39:..\..\..\arduinoLCD\test\Pain Drain\libraries\lvgl\src\draw\sw/lv_draw_sw_blend.c **** static void fill_blended(lv_color_t * dest_buf, const lv_area_t * dest_area, lv_coord_t dest_stride
  40:..\..\..\arduinoLCD\test\Pain Drain\libraries\lvgl\src\draw\sw/lv_draw_sw_blend.c ****                          lv_opa_t opa, const lv_opa_t * mask, lv_coord_t mask_stride, lv_blend_mode
  41:..\..\..\arduinoLCD\test\Pain Drain\libraries\lvgl\src\draw\sw/lv_draw_sw_blend.c **** #endif  /*LV_DRAW_COMPLEX*/
  42:..\..\..\arduinoLCD\test\Pain Drain\libraries\lvgl\src\draw\sw/lv_draw_sw_blend.c **** 
  43:..\..\..\arduinoLCD\test\Pain Drain\libraries\lvgl\src\draw\sw/lv_draw_sw_blend.c **** static void map_set_px(lv_color_t * dest_buf, const lv_area_t * dest_area, lv_coord_t dest_stride,
  44:..\..\..\arduinoLCD\test\Pain Drain\libraries\lvgl\src\draw\sw/lv_draw_sw_blend.c ****                        const lv_color_t * src_buf, lv_coord_t src_stride, lv_opa_t opa, const lv_op
  45:..\..\..\arduinoLCD\test\Pain Drain\libraries\lvgl\src\draw\sw/lv_draw_sw_blend.c **** 
  46:..\..\..\arduinoLCD\test\Pain Drain\libraries\lvgl\src\draw\sw/lv_draw_sw_blend.c **** LV_ATTRIBUTE_FAST_MEM static void map_normal(lv_color_t * dest_buf, const lv_area_t * dest_area, lv
  47:..\..\..\arduinoLCD\test\Pain Drain\libraries\lvgl\src\draw\sw/lv_draw_sw_blend.c ****                                              const lv_color_t * src_buf, lv_coord_t src_stride, lv_
  48:..\..\..\arduinoLCD\test\Pain Drain\libraries\lvgl\src\draw\sw/lv_draw_sw_blend.c **** 
  49:..\..\..\arduinoLCD\test\Pain Drain\libraries\lvgl\src\draw\sw/lv_draw_sw_blend.c **** #if LV_COLOR_SCREEN_TRANSP
  50:..\..\..\arduinoLCD\test\Pain Drain\libraries\lvgl\src\draw\sw/lv_draw_sw_blend.c **** LV_ATTRIBUTE_FAST_MEM static void map_argb(lv_color_t * dest_buf, const lv_area_t * dest_area, lv_c
  51:..\..\..\arduinoLCD\test\Pain Drain\libraries\lvgl\src\draw\sw/lv_draw_sw_blend.c ****                                            const lv_color_t * src_buf, lv_coord_t src_stride, lv_op
  52:..\..\..\arduinoLCD\test\Pain Drain\libraries\lvgl\src\draw\sw/lv_draw_sw_blend.c ****                                            const lv_opa_t * mask, lv_coord_t mask_stride, lv_blend_
  53:..\..\..\arduinoLCD\test\Pain Drain\libraries\lvgl\src\draw\sw/lv_draw_sw_blend.c **** 
  54:..\..\..\arduinoLCD\test\Pain Drain\libraries\lvgl\src\draw\sw/lv_draw_sw_blend.c **** #endif /*LV_COLOR_SCREEN_TRANSP*/
  55:..\..\..\arduinoLCD\test\Pain Drain\libraries\lvgl\src\draw\sw/lv_draw_sw_blend.c **** 
  56:..\..\..\arduinoLCD\test\Pain Drain\libraries\lvgl\src\draw\sw/lv_draw_sw_blend.c **** #if LV_DRAW_COMPLEX
  57:..\..\..\arduinoLCD\test\Pain Drain\libraries\lvgl\src\draw\sw/lv_draw_sw_blend.c **** static void map_blended(lv_color_t * dest_buf, const lv_area_t * dest_area, lv_coord_t dest_stride,
  58:..\..\..\arduinoLCD\test\Pain Drain\libraries\lvgl\src\draw\sw/lv_draw_sw_blend.c ****                         const lv_color_t * src_buf, lv_coord_t src_stride, lv_opa_t opa,
  59:..\..\..\arduinoLCD\test\Pain Drain\libraries\lvgl\src\draw\sw/lv_draw_sw_blend.c ****                         const lv_opa_t * mask, lv_coord_t mask_stride, lv_blend_mode_t blend_mode);
  60:..\..\..\arduinoLCD\test\Pain Drain\libraries\lvgl\src\draw\sw/lv_draw_sw_blend.c **** 
  61:..\..\..\arduinoLCD\test\Pain Drain\libraries\lvgl\src\draw\sw/lv_draw_sw_blend.c **** static inline lv_color_t color_blend_true_color_additive(lv_color_t fg, lv_color_t bg, lv_opa_t opa
  62:..\..\..\arduinoLCD\test\Pain Drain\libraries\lvgl\src\draw\sw/lv_draw_sw_blend.c **** static inline lv_color_t color_blend_true_color_subtractive(lv_color_t fg, lv_color_t bg, lv_opa_t 
  63:..\..\..\arduinoLCD\test\Pain Drain\libraries\lvgl\src\draw\sw/lv_draw_sw_blend.c **** static inline lv_color_t color_blend_true_color_multiply(lv_color_t fg, lv_color_t bg, lv_opa_t opa
  64:..\..\..\arduinoLCD\test\Pain Drain\libraries\lvgl\src\draw\sw/lv_draw_sw_blend.c **** #endif /*LV_DRAW_COMPLEX*/
  65:..\..\..\arduinoLCD\test\Pain Drain\libraries\lvgl\src\draw\sw/lv_draw_sw_blend.c **** 
  66:..\..\..\arduinoLCD\test\Pain Drain\libraries\lvgl\src\draw\sw/lv_draw_sw_blend.c **** /**********************
  67:..\..\..\arduinoLCD\test\Pain Drain\libraries\lvgl\src\draw\sw/lv_draw_sw_blend.c ****  *  STATIC VARIABLES
  68:..\..\..\arduinoLCD\test\Pain Drain\libraries\lvgl\src\draw\sw/lv_draw_sw_blend.c ****  **********************/
  69:..\..\..\arduinoLCD\test\Pain Drain\libraries\lvgl\src\draw\sw/lv_draw_sw_blend.c **** 
  70:..\..\..\arduinoLCD\test\Pain Drain\libraries\lvgl\src\draw\sw/lv_draw_sw_blend.c **** /**********************
  71:..\..\..\arduinoLCD\test\Pain Drain\libraries\lvgl\src\draw\sw/lv_draw_sw_blend.c ****  *      MACROS
  72:..\..\..\arduinoLCD\test\Pain Drain\libraries\lvgl\src\draw\sw/lv_draw_sw_blend.c ****  **********************/
  73:..\..\..\arduinoLCD\test\Pain Drain\libraries\lvgl\src\draw\sw/lv_draw_sw_blend.c **** #define FILL_NORMAL_MASK_PX(color)                                                          \
  74:..\..\..\arduinoLCD\test\Pain Drain\libraries\lvgl\src\draw\sw/lv_draw_sw_blend.c ****     if(*mask == LV_OPA_COVER) *dest_buf = color;                                 \
  75:..\..\..\arduinoLCD\test\Pain Drain\libraries\lvgl\src\draw\sw/lv_draw_sw_blend.c ****     else *dest_buf = lv_color_mix(color, *dest_buf, *mask);            \
  76:..\..\..\arduinoLCD\test\Pain Drain\libraries\lvgl\src\draw\sw/lv_draw_sw_blend.c ****     mask++;                                                         \
  77:..\..\..\arduinoLCD\test\Pain Drain\libraries\lvgl\src\draw\sw/lv_draw_sw_blend.c ****     dest_buf++;
  78:..\..\..\arduinoLCD\test\Pain Drain\libraries\lvgl\src\draw\sw/lv_draw_sw_blend.c **** 
  79:..\..\..\arduinoLCD\test\Pain Drain\libraries\lvgl\src\draw\sw/lv_draw_sw_blend.c **** #define MAP_NORMAL_MASK_PX(x)                                                          \
  80:..\..\..\arduinoLCD\test\Pain Drain\libraries\lvgl\src\draw\sw/lv_draw_sw_blend.c ****     if(*mask_tmp_x) {          \
  81:..\..\..\arduinoLCD\test\Pain Drain\libraries\lvgl\src\draw\sw/lv_draw_sw_blend.c ****         if(*mask_tmp_x == LV_OPA_COVER) dest_buf[x] = src_buf[x];                                 \
  82:..\..\..\arduinoLCD\test\Pain Drain\libraries\lvgl\src\draw\sw/lv_draw_sw_blend.c ****         else dest_buf[x] = lv_color_mix(src_buf[x], dest_buf[x], *mask_tmp_x);            \
  83:..\..\..\arduinoLCD\test\Pain Drain\libraries\lvgl\src\draw\sw/lv_draw_sw_blend.c ****     }                                                                                              
  84:..\..\..\arduinoLCD\test\Pain Drain\libraries\lvgl\src\draw\sw/lv_draw_sw_blend.c ****     mask_tmp_x++;
  85:..\..\..\arduinoLCD\test\Pain Drain\libraries\lvgl\src\draw\sw/lv_draw_sw_blend.c **** 
  86:..\..\..\arduinoLCD\test\Pain Drain\libraries\lvgl\src\draw\sw/lv_draw_sw_blend.c **** 
  87:..\..\..\arduinoLCD\test\Pain Drain\libraries\lvgl\src\draw\sw/lv_draw_sw_blend.c **** /**********************
ARM GAS  C:\Users\haske\AppData\Local\Temp\cc7ZkKza.s 			page 3


  88:..\..\..\arduinoLCD\test\Pain Drain\libraries\lvgl\src\draw\sw/lv_draw_sw_blend.c ****  *   GLOBAL FUNCTIONS
  89:..\..\..\arduinoLCD\test\Pain Drain\libraries\lvgl\src\draw\sw/lv_draw_sw_blend.c ****  **********************/
  90:..\..\..\arduinoLCD\test\Pain Drain\libraries\lvgl\src\draw\sw/lv_draw_sw_blend.c **** 
  91:..\..\..\arduinoLCD\test\Pain Drain\libraries\lvgl\src\draw\sw/lv_draw_sw_blend.c **** void lv_draw_sw_blend(lv_draw_ctx_t * draw_ctx, const lv_draw_sw_blend_dsc_t * dsc)
  92:..\..\..\arduinoLCD\test\Pain Drain\libraries\lvgl\src\draw\sw/lv_draw_sw_blend.c **** {
  93:..\..\..\arduinoLCD\test\Pain Drain\libraries\lvgl\src\draw\sw/lv_draw_sw_blend.c ****     /*Do not draw transparent things*/
  94:..\..\..\arduinoLCD\test\Pain Drain\libraries\lvgl\src\draw\sw/lv_draw_sw_blend.c ****     if(dsc->opa <= LV_OPA_MIN) return;
  95:..\..\..\arduinoLCD\test\Pain Drain\libraries\lvgl\src\draw\sw/lv_draw_sw_blend.c **** 
  96:..\..\..\arduinoLCD\test\Pain Drain\libraries\lvgl\src\draw\sw/lv_draw_sw_blend.c ****     lv_area_t blend_area;
  97:..\..\..\arduinoLCD\test\Pain Drain\libraries\lvgl\src\draw\sw/lv_draw_sw_blend.c ****     if(!_lv_area_intersect(&blend_area, dsc->blend_area, draw_ctx->clip_area)) return;
  98:..\..\..\arduinoLCD\test\Pain Drain\libraries\lvgl\src\draw\sw/lv_draw_sw_blend.c **** 
  99:..\..\..\arduinoLCD\test\Pain Drain\libraries\lvgl\src\draw\sw/lv_draw_sw_blend.c ****     if(draw_ctx->wait_for_finish) draw_ctx->wait_for_finish(draw_ctx);
 100:..\..\..\arduinoLCD\test\Pain Drain\libraries\lvgl\src\draw\sw/lv_draw_sw_blend.c **** 
 101:..\..\..\arduinoLCD\test\Pain Drain\libraries\lvgl\src\draw\sw/lv_draw_sw_blend.c ****     ((lv_draw_sw_ctx_t *)draw_ctx)->blend(draw_ctx, dsc);
 102:..\..\..\arduinoLCD\test\Pain Drain\libraries\lvgl\src\draw\sw/lv_draw_sw_blend.c **** }
 103:..\..\..\arduinoLCD\test\Pain Drain\libraries\lvgl\src\draw\sw/lv_draw_sw_blend.c **** 
 104:..\..\..\arduinoLCD\test\Pain Drain\libraries\lvgl\src\draw\sw/lv_draw_sw_blend.c **** LV_ATTRIBUTE_FAST_MEM void lv_draw_sw_blend_basic(lv_draw_ctx_t * draw_ctx, const lv_draw_sw_blend_
 105:..\..\..\arduinoLCD\test\Pain Drain\libraries\lvgl\src\draw\sw/lv_draw_sw_blend.c **** {
 106:..\..\..\arduinoLCD\test\Pain Drain\libraries\lvgl\src\draw\sw/lv_draw_sw_blend.c ****     lv_opa_t * mask;
 107:..\..\..\arduinoLCD\test\Pain Drain\libraries\lvgl\src\draw\sw/lv_draw_sw_blend.c ****     if(dsc->mask_buf == NULL) mask = NULL;
 108:..\..\..\arduinoLCD\test\Pain Drain\libraries\lvgl\src\draw\sw/lv_draw_sw_blend.c ****     if(dsc->mask_buf && dsc->mask_res == LV_DRAW_MASK_RES_TRANSP) return;
 109:..\..\..\arduinoLCD\test\Pain Drain\libraries\lvgl\src\draw\sw/lv_draw_sw_blend.c ****     else if(dsc->mask_res == LV_DRAW_MASK_RES_FULL_COVER) mask = NULL;
 110:..\..\..\arduinoLCD\test\Pain Drain\libraries\lvgl\src\draw\sw/lv_draw_sw_blend.c ****     else mask = dsc->mask_buf;
 111:..\..\..\arduinoLCD\test\Pain Drain\libraries\lvgl\src\draw\sw/lv_draw_sw_blend.c **** 
 112:..\..\..\arduinoLCD\test\Pain Drain\libraries\lvgl\src\draw\sw/lv_draw_sw_blend.c ****     lv_coord_t dest_stride = lv_area_get_width(draw_ctx->buf_area);
 113:..\..\..\arduinoLCD\test\Pain Drain\libraries\lvgl\src\draw\sw/lv_draw_sw_blend.c **** 
 114:..\..\..\arduinoLCD\test\Pain Drain\libraries\lvgl\src\draw\sw/lv_draw_sw_blend.c ****     lv_area_t blend_area;
 115:..\..\..\arduinoLCD\test\Pain Drain\libraries\lvgl\src\draw\sw/lv_draw_sw_blend.c ****     if(!_lv_area_intersect(&blend_area, dsc->blend_area, draw_ctx->clip_area)) return;
 116:..\..\..\arduinoLCD\test\Pain Drain\libraries\lvgl\src\draw\sw/lv_draw_sw_blend.c **** 
 117:..\..\..\arduinoLCD\test\Pain Drain\libraries\lvgl\src\draw\sw/lv_draw_sw_blend.c ****     lv_disp_t * disp = _lv_refr_get_disp_refreshing();
 118:..\..\..\arduinoLCD\test\Pain Drain\libraries\lvgl\src\draw\sw/lv_draw_sw_blend.c ****     lv_color_t * dest_buf = draw_ctx->buf;
 119:..\..\..\arduinoLCD\test\Pain Drain\libraries\lvgl\src\draw\sw/lv_draw_sw_blend.c ****     if(disp->driver->set_px_cb == NULL) {
 120:..\..\..\arduinoLCD\test\Pain Drain\libraries\lvgl\src\draw\sw/lv_draw_sw_blend.c ****         if(disp->driver->screen_transp == 0) {
 121:..\..\..\arduinoLCD\test\Pain Drain\libraries\lvgl\src\draw\sw/lv_draw_sw_blend.c ****             dest_buf += dest_stride * (blend_area.y1 - draw_ctx->buf_area->y1) + (blend_area.x1 - d
 122:..\..\..\arduinoLCD\test\Pain Drain\libraries\lvgl\src\draw\sw/lv_draw_sw_blend.c ****         }
 123:..\..\..\arduinoLCD\test\Pain Drain\libraries\lvgl\src\draw\sw/lv_draw_sw_blend.c ****         else {
 124:..\..\..\arduinoLCD\test\Pain Drain\libraries\lvgl\src\draw\sw/lv_draw_sw_blend.c ****             /*With LV_COLOR_DEPTH 16 it means ARGB8565 (3 bytes format)*/
 125:..\..\..\arduinoLCD\test\Pain Drain\libraries\lvgl\src\draw\sw/lv_draw_sw_blend.c ****             uint8_t * dest_buf8 = (uint8_t *) dest_buf;
 126:..\..\..\arduinoLCD\test\Pain Drain\libraries\lvgl\src\draw\sw/lv_draw_sw_blend.c ****             dest_buf8 += dest_stride * (blend_area.y1 - draw_ctx->buf_area->y1) * LV_IMG_PX_SIZE_AL
 127:..\..\..\arduinoLCD\test\Pain Drain\libraries\lvgl\src\draw\sw/lv_draw_sw_blend.c ****             dest_buf8 += (blend_area.x1 - draw_ctx->buf_area->x1) * LV_IMG_PX_SIZE_ALPHA_BYTE;
 128:..\..\..\arduinoLCD\test\Pain Drain\libraries\lvgl\src\draw\sw/lv_draw_sw_blend.c ****             dest_buf = (lv_color_t *)dest_buf8;
 129:..\..\..\arduinoLCD\test\Pain Drain\libraries\lvgl\src\draw\sw/lv_draw_sw_blend.c ****         }
 130:..\..\..\arduinoLCD\test\Pain Drain\libraries\lvgl\src\draw\sw/lv_draw_sw_blend.c ****     }
 131:..\..\..\arduinoLCD\test\Pain Drain\libraries\lvgl\src\draw\sw/lv_draw_sw_blend.c **** 
 132:..\..\..\arduinoLCD\test\Pain Drain\libraries\lvgl\src\draw\sw/lv_draw_sw_blend.c ****     const lv_color_t * src_buf = dsc->src_buf;
 133:..\..\..\arduinoLCD\test\Pain Drain\libraries\lvgl\src\draw\sw/lv_draw_sw_blend.c ****     lv_coord_t src_stride;
 134:..\..\..\arduinoLCD\test\Pain Drain\libraries\lvgl\src\draw\sw/lv_draw_sw_blend.c ****     if(src_buf) {
 135:..\..\..\arduinoLCD\test\Pain Drain\libraries\lvgl\src\draw\sw/lv_draw_sw_blend.c ****         src_stride = lv_area_get_width(dsc->blend_area);
 136:..\..\..\arduinoLCD\test\Pain Drain\libraries\lvgl\src\draw\sw/lv_draw_sw_blend.c ****         src_buf += src_stride * (blend_area.y1 - dsc->blend_area->y1) + (blend_area.x1 - dsc->blend
 137:..\..\..\arduinoLCD\test\Pain Drain\libraries\lvgl\src\draw\sw/lv_draw_sw_blend.c ****     }
 138:..\..\..\arduinoLCD\test\Pain Drain\libraries\lvgl\src\draw\sw/lv_draw_sw_blend.c ****     else {
 139:..\..\..\arduinoLCD\test\Pain Drain\libraries\lvgl\src\draw\sw/lv_draw_sw_blend.c ****         src_stride = 0;
 140:..\..\..\arduinoLCD\test\Pain Drain\libraries\lvgl\src\draw\sw/lv_draw_sw_blend.c ****     }
 141:..\..\..\arduinoLCD\test\Pain Drain\libraries\lvgl\src\draw\sw/lv_draw_sw_blend.c **** 
 142:..\..\..\arduinoLCD\test\Pain Drain\libraries\lvgl\src\draw\sw/lv_draw_sw_blend.c ****     lv_coord_t mask_stride;
 143:..\..\..\arduinoLCD\test\Pain Drain\libraries\lvgl\src\draw\sw/lv_draw_sw_blend.c ****     if(mask) {
 144:..\..\..\arduinoLCD\test\Pain Drain\libraries\lvgl\src\draw\sw/lv_draw_sw_blend.c ****         /*Round the values in the mask if anti-aliasing is disabled*/
ARM GAS  C:\Users\haske\AppData\Local\Temp\cc7ZkKza.s 			page 4


 145:..\..\..\arduinoLCD\test\Pain Drain\libraries\lvgl\src\draw\sw/lv_draw_sw_blend.c ****         if(disp->driver->antialiasing == 0) {
 146:..\..\..\arduinoLCD\test\Pain Drain\libraries\lvgl\src\draw\sw/lv_draw_sw_blend.c ****             int32_t mask_size = lv_area_get_size(dsc->mask_area);
 147:..\..\..\arduinoLCD\test\Pain Drain\libraries\lvgl\src\draw\sw/lv_draw_sw_blend.c ****             int32_t i;
 148:..\..\..\arduinoLCD\test\Pain Drain\libraries\lvgl\src\draw\sw/lv_draw_sw_blend.c ****             for(i = 0; i < mask_size; i++) {
 149:..\..\..\arduinoLCD\test\Pain Drain\libraries\lvgl\src\draw\sw/lv_draw_sw_blend.c ****                 mask[i] = mask[i] > 128 ? LV_OPA_COVER : LV_OPA_TRANSP;
 150:..\..\..\arduinoLCD\test\Pain Drain\libraries\lvgl\src\draw\sw/lv_draw_sw_blend.c ****             }
 151:..\..\..\arduinoLCD\test\Pain Drain\libraries\lvgl\src\draw\sw/lv_draw_sw_blend.c ****         }
 152:..\..\..\arduinoLCD\test\Pain Drain\libraries\lvgl\src\draw\sw/lv_draw_sw_blend.c **** 
 153:..\..\..\arduinoLCD\test\Pain Drain\libraries\lvgl\src\draw\sw/lv_draw_sw_blend.c ****         mask_stride = lv_area_get_width(dsc->mask_area);
 154:..\..\..\arduinoLCD\test\Pain Drain\libraries\lvgl\src\draw\sw/lv_draw_sw_blend.c ****         mask += mask_stride * (blend_area.y1 - dsc->mask_area->y1) + (blend_area.x1 - dsc->mask_are
 155:..\..\..\arduinoLCD\test\Pain Drain\libraries\lvgl\src\draw\sw/lv_draw_sw_blend.c **** 
 156:..\..\..\arduinoLCD\test\Pain Drain\libraries\lvgl\src\draw\sw/lv_draw_sw_blend.c ****     }
 157:..\..\..\arduinoLCD\test\Pain Drain\libraries\lvgl\src\draw\sw/lv_draw_sw_blend.c ****     else {
 158:..\..\..\arduinoLCD\test\Pain Drain\libraries\lvgl\src\draw\sw/lv_draw_sw_blend.c ****         mask_stride = 0;
 159:..\..\..\arduinoLCD\test\Pain Drain\libraries\lvgl\src\draw\sw/lv_draw_sw_blend.c ****     }
 160:..\..\..\arduinoLCD\test\Pain Drain\libraries\lvgl\src\draw\sw/lv_draw_sw_blend.c **** 
 161:..\..\..\arduinoLCD\test\Pain Drain\libraries\lvgl\src\draw\sw/lv_draw_sw_blend.c ****     lv_area_move(&blend_area, -draw_ctx->buf_area->x1, -draw_ctx->buf_area->y1);
 162:..\..\..\arduinoLCD\test\Pain Drain\libraries\lvgl\src\draw\sw/lv_draw_sw_blend.c **** 
 163:..\..\..\arduinoLCD\test\Pain Drain\libraries\lvgl\src\draw\sw/lv_draw_sw_blend.c **** 
 164:..\..\..\arduinoLCD\test\Pain Drain\libraries\lvgl\src\draw\sw/lv_draw_sw_blend.c ****     if(disp->driver->set_px_cb) {
 165:..\..\..\arduinoLCD\test\Pain Drain\libraries\lvgl\src\draw\sw/lv_draw_sw_blend.c ****         if(dsc->src_buf == NULL) {
 166:..\..\..\arduinoLCD\test\Pain Drain\libraries\lvgl\src\draw\sw/lv_draw_sw_blend.c ****             fill_set_px(dest_buf, &blend_area, dest_stride, dsc->color, dsc->opa, mask, mask_stride
 167:..\..\..\arduinoLCD\test\Pain Drain\libraries\lvgl\src\draw\sw/lv_draw_sw_blend.c ****         }
 168:..\..\..\arduinoLCD\test\Pain Drain\libraries\lvgl\src\draw\sw/lv_draw_sw_blend.c ****         else {
 169:..\..\..\arduinoLCD\test\Pain Drain\libraries\lvgl\src\draw\sw/lv_draw_sw_blend.c ****             map_set_px(dest_buf, &blend_area, dest_stride, src_buf, src_stride, dsc->opa, mask, mas
 170:..\..\..\arduinoLCD\test\Pain Drain\libraries\lvgl\src\draw\sw/lv_draw_sw_blend.c ****         }
 171:..\..\..\arduinoLCD\test\Pain Drain\libraries\lvgl\src\draw\sw/lv_draw_sw_blend.c ****     }
 172:..\..\..\arduinoLCD\test\Pain Drain\libraries\lvgl\src\draw\sw/lv_draw_sw_blend.c **** #if LV_COLOR_SCREEN_TRANSP
 173:..\..\..\arduinoLCD\test\Pain Drain\libraries\lvgl\src\draw\sw/lv_draw_sw_blend.c ****     else if(disp->driver->screen_transp) {
 174:..\..\..\arduinoLCD\test\Pain Drain\libraries\lvgl\src\draw\sw/lv_draw_sw_blend.c ****         if(dsc->src_buf == NULL) {
 175:..\..\..\arduinoLCD\test\Pain Drain\libraries\lvgl\src\draw\sw/lv_draw_sw_blend.c ****             fill_argb(dest_buf, &blend_area, dest_stride, dsc->color, dsc->opa, mask, mask_stride);
 176:..\..\..\arduinoLCD\test\Pain Drain\libraries\lvgl\src\draw\sw/lv_draw_sw_blend.c ****         }
 177:..\..\..\arduinoLCD\test\Pain Drain\libraries\lvgl\src\draw\sw/lv_draw_sw_blend.c ****         else {
 178:..\..\..\arduinoLCD\test\Pain Drain\libraries\lvgl\src\draw\sw/lv_draw_sw_blend.c ****             map_argb(dest_buf, &blend_area, dest_stride, src_buf, src_stride, dsc->opa, mask, mask_
 179:..\..\..\arduinoLCD\test\Pain Drain\libraries\lvgl\src\draw\sw/lv_draw_sw_blend.c ****         }
 180:..\..\..\arduinoLCD\test\Pain Drain\libraries\lvgl\src\draw\sw/lv_draw_sw_blend.c ****     }
 181:..\..\..\arduinoLCD\test\Pain Drain\libraries\lvgl\src\draw\sw/lv_draw_sw_blend.c **** #endif
 182:..\..\..\arduinoLCD\test\Pain Drain\libraries\lvgl\src\draw\sw/lv_draw_sw_blend.c ****     else if(dsc->blend_mode == LV_BLEND_MODE_NORMAL) {
 183:..\..\..\arduinoLCD\test\Pain Drain\libraries\lvgl\src\draw\sw/lv_draw_sw_blend.c ****         if(dsc->src_buf == NULL) {
 184:..\..\..\arduinoLCD\test\Pain Drain\libraries\lvgl\src\draw\sw/lv_draw_sw_blend.c ****             fill_normal(dest_buf, &blend_area, dest_stride, dsc->color, dsc->opa, mask, mask_stride
 185:..\..\..\arduinoLCD\test\Pain Drain\libraries\lvgl\src\draw\sw/lv_draw_sw_blend.c ****         }
 186:..\..\..\arduinoLCD\test\Pain Drain\libraries\lvgl\src\draw\sw/lv_draw_sw_blend.c ****         else {
 187:..\..\..\arduinoLCD\test\Pain Drain\libraries\lvgl\src\draw\sw/lv_draw_sw_blend.c ****             map_normal(dest_buf, &blend_area, dest_stride, src_buf, src_stride, dsc->opa, mask, mas
 188:..\..\..\arduinoLCD\test\Pain Drain\libraries\lvgl\src\draw\sw/lv_draw_sw_blend.c ****         }
 189:..\..\..\arduinoLCD\test\Pain Drain\libraries\lvgl\src\draw\sw/lv_draw_sw_blend.c ****     }
 190:..\..\..\arduinoLCD\test\Pain Drain\libraries\lvgl\src\draw\sw/lv_draw_sw_blend.c ****     else {
 191:..\..\..\arduinoLCD\test\Pain Drain\libraries\lvgl\src\draw\sw/lv_draw_sw_blend.c **** #if LV_DRAW_COMPLEX
 192:..\..\..\arduinoLCD\test\Pain Drain\libraries\lvgl\src\draw\sw/lv_draw_sw_blend.c ****         if(dsc->src_buf == NULL) {
 193:..\..\..\arduinoLCD\test\Pain Drain\libraries\lvgl\src\draw\sw/lv_draw_sw_blend.c ****             fill_blended(dest_buf, &blend_area, dest_stride, dsc->color, dsc->opa, mask, mask_strid
 194:..\..\..\arduinoLCD\test\Pain Drain\libraries\lvgl\src\draw\sw/lv_draw_sw_blend.c ****         }
 195:..\..\..\arduinoLCD\test\Pain Drain\libraries\lvgl\src\draw\sw/lv_draw_sw_blend.c ****         else {
 196:..\..\..\arduinoLCD\test\Pain Drain\libraries\lvgl\src\draw\sw/lv_draw_sw_blend.c ****             map_blended(dest_buf, &blend_area, dest_stride, src_buf, src_stride, dsc->opa, mask, ma
 197:..\..\..\arduinoLCD\test\Pain Drain\libraries\lvgl\src\draw\sw/lv_draw_sw_blend.c ****         }
 198:..\..\..\arduinoLCD\test\Pain Drain\libraries\lvgl\src\draw\sw/lv_draw_sw_blend.c **** #endif
 199:..\..\..\arduinoLCD\test\Pain Drain\libraries\lvgl\src\draw\sw/lv_draw_sw_blend.c ****     }
 200:..\..\..\arduinoLCD\test\Pain Drain\libraries\lvgl\src\draw\sw/lv_draw_sw_blend.c **** }
 201:..\..\..\arduinoLCD\test\Pain Drain\libraries\lvgl\src\draw\sw/lv_draw_sw_blend.c **** 
ARM GAS  C:\Users\haske\AppData\Local\Temp\cc7ZkKza.s 			page 5


 202:..\..\..\arduinoLCD\test\Pain Drain\libraries\lvgl\src\draw\sw/lv_draw_sw_blend.c **** 
 203:..\..\..\arduinoLCD\test\Pain Drain\libraries\lvgl\src\draw\sw/lv_draw_sw_blend.c **** /**********************
 204:..\..\..\arduinoLCD\test\Pain Drain\libraries\lvgl\src\draw\sw/lv_draw_sw_blend.c ****  *   STATIC FUNCTIONS
 205:..\..\..\arduinoLCD\test\Pain Drain\libraries\lvgl\src\draw\sw/lv_draw_sw_blend.c ****  **********************/
 206:..\..\..\arduinoLCD\test\Pain Drain\libraries\lvgl\src\draw\sw/lv_draw_sw_blend.c **** 
 207:..\..\..\arduinoLCD\test\Pain Drain\libraries\lvgl\src\draw\sw/lv_draw_sw_blend.c **** static void fill_set_px(lv_color_t * dest_buf, const lv_area_t * blend_area, lv_coord_t dest_stride
 208:..\..\..\arduinoLCD\test\Pain Drain\libraries\lvgl\src\draw\sw/lv_draw_sw_blend.c ****                         lv_color_t color, lv_opa_t opa, const lv_opa_t * mask, lv_coord_t mask_stid
 209:..\..\..\arduinoLCD\test\Pain Drain\libraries\lvgl\src\draw\sw/lv_draw_sw_blend.c **** {
 210:..\..\..\arduinoLCD\test\Pain Drain\libraries\lvgl\src\draw\sw/lv_draw_sw_blend.c ****     lv_disp_t * disp = _lv_refr_get_disp_refreshing();
 211:..\..\..\arduinoLCD\test\Pain Drain\libraries\lvgl\src\draw\sw/lv_draw_sw_blend.c **** 
 212:..\..\..\arduinoLCD\test\Pain Drain\libraries\lvgl\src\draw\sw/lv_draw_sw_blend.c ****     int32_t x;
 213:..\..\..\arduinoLCD\test\Pain Drain\libraries\lvgl\src\draw\sw/lv_draw_sw_blend.c ****     int32_t y;
 214:..\..\..\arduinoLCD\test\Pain Drain\libraries\lvgl\src\draw\sw/lv_draw_sw_blend.c **** 
 215:..\..\..\arduinoLCD\test\Pain Drain\libraries\lvgl\src\draw\sw/lv_draw_sw_blend.c ****     if(mask == NULL) {
 216:..\..\..\arduinoLCD\test\Pain Drain\libraries\lvgl\src\draw\sw/lv_draw_sw_blend.c ****         for(y = blend_area->y1; y <= blend_area->y2; y++) {
 217:..\..\..\arduinoLCD\test\Pain Drain\libraries\lvgl\src\draw\sw/lv_draw_sw_blend.c ****             for(x = blend_area->x1; x <= blend_area->x2; x++) {
 218:..\..\..\arduinoLCD\test\Pain Drain\libraries\lvgl\src\draw\sw/lv_draw_sw_blend.c ****                 disp->driver->set_px_cb(disp->driver, (void *)dest_buf, dest_stride, x, y, color, o
 219:..\..\..\arduinoLCD\test\Pain Drain\libraries\lvgl\src\draw\sw/lv_draw_sw_blend.c ****             }
 220:..\..\..\arduinoLCD\test\Pain Drain\libraries\lvgl\src\draw\sw/lv_draw_sw_blend.c ****         }
 221:..\..\..\arduinoLCD\test\Pain Drain\libraries\lvgl\src\draw\sw/lv_draw_sw_blend.c ****     }
 222:..\..\..\arduinoLCD\test\Pain Drain\libraries\lvgl\src\draw\sw/lv_draw_sw_blend.c ****     else {
 223:..\..\..\arduinoLCD\test\Pain Drain\libraries\lvgl\src\draw\sw/lv_draw_sw_blend.c ****         int32_t w = lv_area_get_width(blend_area);
 224:..\..\..\arduinoLCD\test\Pain Drain\libraries\lvgl\src\draw\sw/lv_draw_sw_blend.c ****         int32_t h = lv_area_get_height(blend_area);
 225:..\..\..\arduinoLCD\test\Pain Drain\libraries\lvgl\src\draw\sw/lv_draw_sw_blend.c **** 
 226:..\..\..\arduinoLCD\test\Pain Drain\libraries\lvgl\src\draw\sw/lv_draw_sw_blend.c ****         for(y = 0; y < h; y++) {
 227:..\..\..\arduinoLCD\test\Pain Drain\libraries\lvgl\src\draw\sw/lv_draw_sw_blend.c ****             for(x = 0; x < w; x++) {
 228:..\..\..\arduinoLCD\test\Pain Drain\libraries\lvgl\src\draw\sw/lv_draw_sw_blend.c ****                 if(mask[x]) {
 229:..\..\..\arduinoLCD\test\Pain Drain\libraries\lvgl\src\draw\sw/lv_draw_sw_blend.c **** 
 230:..\..\..\arduinoLCD\test\Pain Drain\libraries\lvgl\src\draw\sw/lv_draw_sw_blend.c **** 
 231:..\..\..\arduinoLCD\test\Pain Drain\libraries\lvgl\src\draw\sw/lv_draw_sw_blend.c ****                     disp->driver->set_px_cb(disp->driver, (void *)dest_buf, dest_stride, blend_area
 232:..\..\..\arduinoLCD\test\Pain Drain\libraries\lvgl\src\draw\sw/lv_draw_sw_blend.c ****                                             (uint32_t)((uint32_t)opa * mask[x]) >> 8);
 233:..\..\..\arduinoLCD\test\Pain Drain\libraries\lvgl\src\draw\sw/lv_draw_sw_blend.c ****                 }
 234:..\..\..\arduinoLCD\test\Pain Drain\libraries\lvgl\src\draw\sw/lv_draw_sw_blend.c ****             }
 235:..\..\..\arduinoLCD\test\Pain Drain\libraries\lvgl\src\draw\sw/lv_draw_sw_blend.c ****             mask += mask_stide;
 236:..\..\..\arduinoLCD\test\Pain Drain\libraries\lvgl\src\draw\sw/lv_draw_sw_blend.c ****         }
 237:..\..\..\arduinoLCD\test\Pain Drain\libraries\lvgl\src\draw\sw/lv_draw_sw_blend.c ****     }
 238:..\..\..\arduinoLCD\test\Pain Drain\libraries\lvgl\src\draw\sw/lv_draw_sw_blend.c **** }
 239:..\..\..\arduinoLCD\test\Pain Drain\libraries\lvgl\src\draw\sw/lv_draw_sw_blend.c **** 
 240:..\..\..\arduinoLCD\test\Pain Drain\libraries\lvgl\src\draw\sw/lv_draw_sw_blend.c **** LV_ATTRIBUTE_FAST_MEM static void fill_normal(lv_color_t * dest_buf, const lv_area_t * dest_area,
 241:..\..\..\arduinoLCD\test\Pain Drain\libraries\lvgl\src\draw\sw/lv_draw_sw_blend.c ****                                               lv_coord_t dest_stride, lv_color_t color, lv_opa_t op
 242:..\..\..\arduinoLCD\test\Pain Drain\libraries\lvgl\src\draw\sw/lv_draw_sw_blend.c **** {
 243:..\..\..\arduinoLCD\test\Pain Drain\libraries\lvgl\src\draw\sw/lv_draw_sw_blend.c ****     int32_t w = lv_area_get_width(dest_area);
 244:..\..\..\arduinoLCD\test\Pain Drain\libraries\lvgl\src\draw\sw/lv_draw_sw_blend.c ****     int32_t h = lv_area_get_height(dest_area);
 245:..\..\..\arduinoLCD\test\Pain Drain\libraries\lvgl\src\draw\sw/lv_draw_sw_blend.c **** 
 246:..\..\..\arduinoLCD\test\Pain Drain\libraries\lvgl\src\draw\sw/lv_draw_sw_blend.c ****     int32_t x;
 247:..\..\..\arduinoLCD\test\Pain Drain\libraries\lvgl\src\draw\sw/lv_draw_sw_blend.c ****     int32_t y;
 248:..\..\..\arduinoLCD\test\Pain Drain\libraries\lvgl\src\draw\sw/lv_draw_sw_blend.c **** 
 249:..\..\..\arduinoLCD\test\Pain Drain\libraries\lvgl\src\draw\sw/lv_draw_sw_blend.c ****     /*No mask*/
 250:..\..\..\arduinoLCD\test\Pain Drain\libraries\lvgl\src\draw\sw/lv_draw_sw_blend.c ****     if(mask == NULL) {
 251:..\..\..\arduinoLCD\test\Pain Drain\libraries\lvgl\src\draw\sw/lv_draw_sw_blend.c ****         if(opa >= LV_OPA_MAX) {
 252:..\..\..\arduinoLCD\test\Pain Drain\libraries\lvgl\src\draw\sw/lv_draw_sw_blend.c ****             for(y = 0; y < h; y++) {
 253:..\..\..\arduinoLCD\test\Pain Drain\libraries\lvgl\src\draw\sw/lv_draw_sw_blend.c ****                 lv_color_fill(dest_buf, color, w);
 254:..\..\..\arduinoLCD\test\Pain Drain\libraries\lvgl\src\draw\sw/lv_draw_sw_blend.c ****                 dest_buf += dest_stride;
 255:..\..\..\arduinoLCD\test\Pain Drain\libraries\lvgl\src\draw\sw/lv_draw_sw_blend.c ****             }
 256:..\..\..\arduinoLCD\test\Pain Drain\libraries\lvgl\src\draw\sw/lv_draw_sw_blend.c ****         }
 257:..\..\..\arduinoLCD\test\Pain Drain\libraries\lvgl\src\draw\sw/lv_draw_sw_blend.c ****         /*Has opacity*/
 258:..\..\..\arduinoLCD\test\Pain Drain\libraries\lvgl\src\draw\sw/lv_draw_sw_blend.c ****         else {
ARM GAS  C:\Users\haske\AppData\Local\Temp\cc7ZkKza.s 			page 6


 259:..\..\..\arduinoLCD\test\Pain Drain\libraries\lvgl\src\draw\sw/lv_draw_sw_blend.c ****             lv_color_t last_dest_color = lv_color_black();
 260:..\..\..\arduinoLCD\test\Pain Drain\libraries\lvgl\src\draw\sw/lv_draw_sw_blend.c ****             lv_color_t last_res_color = lv_color_mix(color, last_dest_color, opa);
 261:..\..\..\arduinoLCD\test\Pain Drain\libraries\lvgl\src\draw\sw/lv_draw_sw_blend.c **** 
 262:..\..\..\arduinoLCD\test\Pain Drain\libraries\lvgl\src\draw\sw/lv_draw_sw_blend.c **** #if LV_COLOR_MIX_ROUND_OFS == 0 && LV_COLOR_DEPTH == 16
 263:..\..\..\arduinoLCD\test\Pain Drain\libraries\lvgl\src\draw\sw/lv_draw_sw_blend.c ****             /*lv_color_mix work with an optimized algorithm with 16 bit color depth.
 264:..\..\..\arduinoLCD\test\Pain Drain\libraries\lvgl\src\draw\sw/lv_draw_sw_blend.c ****              *However, it introduces some rounded error on opa.
 265:..\..\..\arduinoLCD\test\Pain Drain\libraries\lvgl\src\draw\sw/lv_draw_sw_blend.c ****              *Introduce the same error here too to make lv_color_premult produces the same result *
 266:..\..\..\arduinoLCD\test\Pain Drain\libraries\lvgl\src\draw\sw/lv_draw_sw_blend.c ****             opa = (uint32_t)((uint32_t)opa + 4) >> 3;
 267:..\..\..\arduinoLCD\test\Pain Drain\libraries\lvgl\src\draw\sw/lv_draw_sw_blend.c ****             opa = opa << 3;
 268:..\..\..\arduinoLCD\test\Pain Drain\libraries\lvgl\src\draw\sw/lv_draw_sw_blend.c **** #endif
 269:..\..\..\arduinoLCD\test\Pain Drain\libraries\lvgl\src\draw\sw/lv_draw_sw_blend.c **** 
 270:..\..\..\arduinoLCD\test\Pain Drain\libraries\lvgl\src\draw\sw/lv_draw_sw_blend.c ****             uint16_t color_premult[3];
 271:..\..\..\arduinoLCD\test\Pain Drain\libraries\lvgl\src\draw\sw/lv_draw_sw_blend.c ****             lv_color_premult(color, opa, color_premult);
 272:..\..\..\arduinoLCD\test\Pain Drain\libraries\lvgl\src\draw\sw/lv_draw_sw_blend.c ****             lv_opa_t opa_inv = 255 - opa;
 273:..\..\..\arduinoLCD\test\Pain Drain\libraries\lvgl\src\draw\sw/lv_draw_sw_blend.c **** 
 274:..\..\..\arduinoLCD\test\Pain Drain\libraries\lvgl\src\draw\sw/lv_draw_sw_blend.c ****             for(y = 0; y < h; y++) {
 275:..\..\..\arduinoLCD\test\Pain Drain\libraries\lvgl\src\draw\sw/lv_draw_sw_blend.c ****                 for(x = 0; x < w; x++) {
 276:..\..\..\arduinoLCD\test\Pain Drain\libraries\lvgl\src\draw\sw/lv_draw_sw_blend.c ****                     if(last_dest_color.full != dest_buf[x].full) {
 277:..\..\..\arduinoLCD\test\Pain Drain\libraries\lvgl\src\draw\sw/lv_draw_sw_blend.c ****                         last_dest_color = dest_buf[x];
 278:..\..\..\arduinoLCD\test\Pain Drain\libraries\lvgl\src\draw\sw/lv_draw_sw_blend.c ****                         last_res_color = lv_color_mix_premult(color_premult, dest_buf[x], opa_inv);
 279:..\..\..\arduinoLCD\test\Pain Drain\libraries\lvgl\src\draw\sw/lv_draw_sw_blend.c ****                     }
 280:..\..\..\arduinoLCD\test\Pain Drain\libraries\lvgl\src\draw\sw/lv_draw_sw_blend.c ****                     dest_buf[x] = last_res_color;
 281:..\..\..\arduinoLCD\test\Pain Drain\libraries\lvgl\src\draw\sw/lv_draw_sw_blend.c ****                 }
 282:..\..\..\arduinoLCD\test\Pain Drain\libraries\lvgl\src\draw\sw/lv_draw_sw_blend.c ****                 dest_buf += dest_stride;
 283:..\..\..\arduinoLCD\test\Pain Drain\libraries\lvgl\src\draw\sw/lv_draw_sw_blend.c ****             }
 284:..\..\..\arduinoLCD\test\Pain Drain\libraries\lvgl\src\draw\sw/lv_draw_sw_blend.c ****         }
 285:..\..\..\arduinoLCD\test\Pain Drain\libraries\lvgl\src\draw\sw/lv_draw_sw_blend.c ****     }
 286:..\..\..\arduinoLCD\test\Pain Drain\libraries\lvgl\src\draw\sw/lv_draw_sw_blend.c ****     /*Masked*/
 287:..\..\..\arduinoLCD\test\Pain Drain\libraries\lvgl\src\draw\sw/lv_draw_sw_blend.c ****     else {
 288:..\..\..\arduinoLCD\test\Pain Drain\libraries\lvgl\src\draw\sw/lv_draw_sw_blend.c **** #if LV_COLOR_DEPTH == 16
 289:..\..\..\arduinoLCD\test\Pain Drain\libraries\lvgl\src\draw\sw/lv_draw_sw_blend.c ****         uint32_t c32 = color.full + ((uint32_t)color.full << 16);
 290:..\..\..\arduinoLCD\test\Pain Drain\libraries\lvgl\src\draw\sw/lv_draw_sw_blend.c **** #endif
 291:..\..\..\arduinoLCD\test\Pain Drain\libraries\lvgl\src\draw\sw/lv_draw_sw_blend.c ****         /*Only the mask matters*/
 292:..\..\..\arduinoLCD\test\Pain Drain\libraries\lvgl\src\draw\sw/lv_draw_sw_blend.c ****         if(opa >= LV_OPA_MAX) {
 293:..\..\..\arduinoLCD\test\Pain Drain\libraries\lvgl\src\draw\sw/lv_draw_sw_blend.c ****             int32_t x_end4 = w - 4;
 294:..\..\..\arduinoLCD\test\Pain Drain\libraries\lvgl\src\draw\sw/lv_draw_sw_blend.c ****             for(y = 0; y < h; y++) {
 295:..\..\..\arduinoLCD\test\Pain Drain\libraries\lvgl\src\draw\sw/lv_draw_sw_blend.c ****                 for(x = 0; x < w && ((lv_uintptr_t)(mask) & 0x3); x++) {
 296:..\..\..\arduinoLCD\test\Pain Drain\libraries\lvgl\src\draw\sw/lv_draw_sw_blend.c ****                     FILL_NORMAL_MASK_PX(color)
 297:..\..\..\arduinoLCD\test\Pain Drain\libraries\lvgl\src\draw\sw/lv_draw_sw_blend.c ****                 }
 298:..\..\..\arduinoLCD\test\Pain Drain\libraries\lvgl\src\draw\sw/lv_draw_sw_blend.c **** 
 299:..\..\..\arduinoLCD\test\Pain Drain\libraries\lvgl\src\draw\sw/lv_draw_sw_blend.c ****                 for(; x <= x_end4; x += 4) {
 300:..\..\..\arduinoLCD\test\Pain Drain\libraries\lvgl\src\draw\sw/lv_draw_sw_blend.c ****                     uint32_t mask32 = *((uint32_t *)mask);
 301:..\..\..\arduinoLCD\test\Pain Drain\libraries\lvgl\src\draw\sw/lv_draw_sw_blend.c ****                     if(mask32 == 0xFFFFFFFF) {
 302:..\..\..\arduinoLCD\test\Pain Drain\libraries\lvgl\src\draw\sw/lv_draw_sw_blend.c **** #if LV_COLOR_DEPTH == 16
 303:..\..\..\arduinoLCD\test\Pain Drain\libraries\lvgl\src\draw\sw/lv_draw_sw_blend.c ****                         if((lv_uintptr_t)dest_buf & 0x3) {
 304:..\..\..\arduinoLCD\test\Pain Drain\libraries\lvgl\src\draw\sw/lv_draw_sw_blend.c ****                             *(dest_buf + 0) = color;
 305:..\..\..\arduinoLCD\test\Pain Drain\libraries\lvgl\src\draw\sw/lv_draw_sw_blend.c ****                             uint32_t * d = (uint32_t *)(dest_buf + 1);
 306:..\..\..\arduinoLCD\test\Pain Drain\libraries\lvgl\src\draw\sw/lv_draw_sw_blend.c ****                             *d = c32;
 307:..\..\..\arduinoLCD\test\Pain Drain\libraries\lvgl\src\draw\sw/lv_draw_sw_blend.c ****                             *(dest_buf + 3) = color;
 308:..\..\..\arduinoLCD\test\Pain Drain\libraries\lvgl\src\draw\sw/lv_draw_sw_blend.c ****                         }
 309:..\..\..\arduinoLCD\test\Pain Drain\libraries\lvgl\src\draw\sw/lv_draw_sw_blend.c ****                         else {
 310:..\..\..\arduinoLCD\test\Pain Drain\libraries\lvgl\src\draw\sw/lv_draw_sw_blend.c ****                             uint32_t * d = (uint32_t *)dest_buf;
 311:..\..\..\arduinoLCD\test\Pain Drain\libraries\lvgl\src\draw\sw/lv_draw_sw_blend.c ****                             *d = c32;
 312:..\..\..\arduinoLCD\test\Pain Drain\libraries\lvgl\src\draw\sw/lv_draw_sw_blend.c ****                             *(d + 1) = c32;
 313:..\..\..\arduinoLCD\test\Pain Drain\libraries\lvgl\src\draw\sw/lv_draw_sw_blend.c ****                         }
 314:..\..\..\arduinoLCD\test\Pain Drain\libraries\lvgl\src\draw\sw/lv_draw_sw_blend.c **** #else
 315:..\..\..\arduinoLCD\test\Pain Drain\libraries\lvgl\src\draw\sw/lv_draw_sw_blend.c ****                         dest_buf[0] = color;
ARM GAS  C:\Users\haske\AppData\Local\Temp\cc7ZkKza.s 			page 7


 316:..\..\..\arduinoLCD\test\Pain Drain\libraries\lvgl\src\draw\sw/lv_draw_sw_blend.c ****                         dest_buf[1] = color;
 317:..\..\..\arduinoLCD\test\Pain Drain\libraries\lvgl\src\draw\sw/lv_draw_sw_blend.c ****                         dest_buf[2] = color;
 318:..\..\..\arduinoLCD\test\Pain Drain\libraries\lvgl\src\draw\sw/lv_draw_sw_blend.c ****                         dest_buf[3] = color;
 319:..\..\..\arduinoLCD\test\Pain Drain\libraries\lvgl\src\draw\sw/lv_draw_sw_blend.c **** #endif
 320:..\..\..\arduinoLCD\test\Pain Drain\libraries\lvgl\src\draw\sw/lv_draw_sw_blend.c ****                         dest_buf += 4;
 321:..\..\..\arduinoLCD\test\Pain Drain\libraries\lvgl\src\draw\sw/lv_draw_sw_blend.c ****                         mask += 4;
 322:..\..\..\arduinoLCD\test\Pain Drain\libraries\lvgl\src\draw\sw/lv_draw_sw_blend.c ****                     }
 323:..\..\..\arduinoLCD\test\Pain Drain\libraries\lvgl\src\draw\sw/lv_draw_sw_blend.c ****                     else if(mask32) {
 324:..\..\..\arduinoLCD\test\Pain Drain\libraries\lvgl\src\draw\sw/lv_draw_sw_blend.c ****                         FILL_NORMAL_MASK_PX(color)
 325:..\..\..\arduinoLCD\test\Pain Drain\libraries\lvgl\src\draw\sw/lv_draw_sw_blend.c ****                         FILL_NORMAL_MASK_PX(color)
 326:..\..\..\arduinoLCD\test\Pain Drain\libraries\lvgl\src\draw\sw/lv_draw_sw_blend.c ****                         FILL_NORMAL_MASK_PX(color)
 327:..\..\..\arduinoLCD\test\Pain Drain\libraries\lvgl\src\draw\sw/lv_draw_sw_blend.c ****                         FILL_NORMAL_MASK_PX(color)
 328:..\..\..\arduinoLCD\test\Pain Drain\libraries\lvgl\src\draw\sw/lv_draw_sw_blend.c ****                     }
 329:..\..\..\arduinoLCD\test\Pain Drain\libraries\lvgl\src\draw\sw/lv_draw_sw_blend.c ****                     else {
 330:..\..\..\arduinoLCD\test\Pain Drain\libraries\lvgl\src\draw\sw/lv_draw_sw_blend.c ****                         mask += 4;
 331:..\..\..\arduinoLCD\test\Pain Drain\libraries\lvgl\src\draw\sw/lv_draw_sw_blend.c ****                         dest_buf += 4;
 332:..\..\..\arduinoLCD\test\Pain Drain\libraries\lvgl\src\draw\sw/lv_draw_sw_blend.c ****                     }
 333:..\..\..\arduinoLCD\test\Pain Drain\libraries\lvgl\src\draw\sw/lv_draw_sw_blend.c ****                 }
 334:..\..\..\arduinoLCD\test\Pain Drain\libraries\lvgl\src\draw\sw/lv_draw_sw_blend.c **** 
 335:..\..\..\arduinoLCD\test\Pain Drain\libraries\lvgl\src\draw\sw/lv_draw_sw_blend.c ****                 for(; x < w ; x++) {
 336:..\..\..\arduinoLCD\test\Pain Drain\libraries\lvgl\src\draw\sw/lv_draw_sw_blend.c ****                     FILL_NORMAL_MASK_PX(color)
 337:..\..\..\arduinoLCD\test\Pain Drain\libraries\lvgl\src\draw\sw/lv_draw_sw_blend.c ****                 }
 338:..\..\..\arduinoLCD\test\Pain Drain\libraries\lvgl\src\draw\sw/lv_draw_sw_blend.c ****                 dest_buf += (dest_stride - w);
 339:..\..\..\arduinoLCD\test\Pain Drain\libraries\lvgl\src\draw\sw/lv_draw_sw_blend.c ****                 mask += (mask_stride - w);
 340:..\..\..\arduinoLCD\test\Pain Drain\libraries\lvgl\src\draw\sw/lv_draw_sw_blend.c ****             }
 341:..\..\..\arduinoLCD\test\Pain Drain\libraries\lvgl\src\draw\sw/lv_draw_sw_blend.c ****         }
 342:..\..\..\arduinoLCD\test\Pain Drain\libraries\lvgl\src\draw\sw/lv_draw_sw_blend.c ****         /*With opacity*/
 343:..\..\..\arduinoLCD\test\Pain Drain\libraries\lvgl\src\draw\sw/lv_draw_sw_blend.c ****         else {
 344:..\..\..\arduinoLCD\test\Pain Drain\libraries\lvgl\src\draw\sw/lv_draw_sw_blend.c ****             /*Buffer the result color to avoid recalculating the same color*/
 345:..\..\..\arduinoLCD\test\Pain Drain\libraries\lvgl\src\draw\sw/lv_draw_sw_blend.c ****             lv_color_t last_dest_color;
 346:..\..\..\arduinoLCD\test\Pain Drain\libraries\lvgl\src\draw\sw/lv_draw_sw_blend.c ****             lv_color_t last_res_color;
 347:..\..\..\arduinoLCD\test\Pain Drain\libraries\lvgl\src\draw\sw/lv_draw_sw_blend.c ****             lv_opa_t last_mask = LV_OPA_TRANSP;
 348:..\..\..\arduinoLCD\test\Pain Drain\libraries\lvgl\src\draw\sw/lv_draw_sw_blend.c ****             last_dest_color.full = dest_buf[0].full;
 349:..\..\..\arduinoLCD\test\Pain Drain\libraries\lvgl\src\draw\sw/lv_draw_sw_blend.c ****             last_res_color.full = dest_buf[0].full;
 350:..\..\..\arduinoLCD\test\Pain Drain\libraries\lvgl\src\draw\sw/lv_draw_sw_blend.c ****             lv_opa_t opa_tmp = LV_OPA_TRANSP;
 351:..\..\..\arduinoLCD\test\Pain Drain\libraries\lvgl\src\draw\sw/lv_draw_sw_blend.c **** 
 352:..\..\..\arduinoLCD\test\Pain Drain\libraries\lvgl\src\draw\sw/lv_draw_sw_blend.c ****             for(y = 0; y < h; y++) {
 353:..\..\..\arduinoLCD\test\Pain Drain\libraries\lvgl\src\draw\sw/lv_draw_sw_blend.c ****                 for(x = 0; x < w; x++) {
 354:..\..\..\arduinoLCD\test\Pain Drain\libraries\lvgl\src\draw\sw/lv_draw_sw_blend.c ****                     if(*mask) {
 355:..\..\..\arduinoLCD\test\Pain Drain\libraries\lvgl\src\draw\sw/lv_draw_sw_blend.c ****                         if(*mask != last_mask) opa_tmp = *mask == LV_OPA_COVER ? opa :
 356:..\..\..\arduinoLCD\test\Pain Drain\libraries\lvgl\src\draw\sw/lv_draw_sw_blend.c ****                                                              (uint32_t)((uint32_t)(*mask) * opa) >>
 357:..\..\..\arduinoLCD\test\Pain Drain\libraries\lvgl\src\draw\sw/lv_draw_sw_blend.c ****                         if(*mask != last_mask || last_dest_color.full != dest_buf[x].full) {
 358:..\..\..\arduinoLCD\test\Pain Drain\libraries\lvgl\src\draw\sw/lv_draw_sw_blend.c ****                             if(opa_tmp == LV_OPA_COVER) last_res_color = color;
 359:..\..\..\arduinoLCD\test\Pain Drain\libraries\lvgl\src\draw\sw/lv_draw_sw_blend.c ****                             else last_res_color = lv_color_mix(color, dest_buf[x], opa_tmp);
 360:..\..\..\arduinoLCD\test\Pain Drain\libraries\lvgl\src\draw\sw/lv_draw_sw_blend.c ****                             last_mask = *mask;
 361:..\..\..\arduinoLCD\test\Pain Drain\libraries\lvgl\src\draw\sw/lv_draw_sw_blend.c ****                             last_dest_color.full = dest_buf[x].full;
 362:..\..\..\arduinoLCD\test\Pain Drain\libraries\lvgl\src\draw\sw/lv_draw_sw_blend.c ****                         }
 363:..\..\..\arduinoLCD\test\Pain Drain\libraries\lvgl\src\draw\sw/lv_draw_sw_blend.c ****                         dest_buf[x] = last_res_color;
 364:..\..\..\arduinoLCD\test\Pain Drain\libraries\lvgl\src\draw\sw/lv_draw_sw_blend.c ****                     }
 365:..\..\..\arduinoLCD\test\Pain Drain\libraries\lvgl\src\draw\sw/lv_draw_sw_blend.c ****                     mask++;
 366:..\..\..\arduinoLCD\test\Pain Drain\libraries\lvgl\src\draw\sw/lv_draw_sw_blend.c ****                 }
 367:..\..\..\arduinoLCD\test\Pain Drain\libraries\lvgl\src\draw\sw/lv_draw_sw_blend.c ****                 dest_buf += dest_stride;
 368:..\..\..\arduinoLCD\test\Pain Drain\libraries\lvgl\src\draw\sw/lv_draw_sw_blend.c ****                 mask += (mask_stride - w);
 369:..\..\..\arduinoLCD\test\Pain Drain\libraries\lvgl\src\draw\sw/lv_draw_sw_blend.c ****             }
 370:..\..\..\arduinoLCD\test\Pain Drain\libraries\lvgl\src\draw\sw/lv_draw_sw_blend.c ****         }
 371:..\..\..\arduinoLCD\test\Pain Drain\libraries\lvgl\src\draw\sw/lv_draw_sw_blend.c ****     }
 372:..\..\..\arduinoLCD\test\Pain Drain\libraries\lvgl\src\draw\sw/lv_draw_sw_blend.c **** }
ARM GAS  C:\Users\haske\AppData\Local\Temp\cc7ZkKza.s 			page 8


 373:..\..\..\arduinoLCD\test\Pain Drain\libraries\lvgl\src\draw\sw/lv_draw_sw_blend.c **** 
 374:..\..\..\arduinoLCD\test\Pain Drain\libraries\lvgl\src\draw\sw/lv_draw_sw_blend.c **** #if LV_COLOR_SCREEN_TRANSP
 375:..\..\..\arduinoLCD\test\Pain Drain\libraries\lvgl\src\draw\sw/lv_draw_sw_blend.c **** static inline void set_px_argb(uint8_t * buf, lv_color_t color, lv_opa_t opa)
 376:..\..\..\arduinoLCD\test\Pain Drain\libraries\lvgl\src\draw\sw/lv_draw_sw_blend.c **** {
 377:..\..\..\arduinoLCD\test\Pain Drain\libraries\lvgl\src\draw\sw/lv_draw_sw_blend.c ****     lv_color_t bg_color;
 378:..\..\..\arduinoLCD\test\Pain Drain\libraries\lvgl\src\draw\sw/lv_draw_sw_blend.c ****     lv_color_t res_color;
 379:..\..\..\arduinoLCD\test\Pain Drain\libraries\lvgl\src\draw\sw/lv_draw_sw_blend.c ****     lv_opa_t bg_opa = buf[LV_IMG_PX_SIZE_ALPHA_BYTE - 1];
 380:..\..\..\arduinoLCD\test\Pain Drain\libraries\lvgl\src\draw\sw/lv_draw_sw_blend.c **** #if LV_COLOR_DEPTH == 8
 381:..\..\..\arduinoLCD\test\Pain Drain\libraries\lvgl\src\draw\sw/lv_draw_sw_blend.c ****     bg_color.full = buf[0];
 382:..\..\..\arduinoLCD\test\Pain Drain\libraries\lvgl\src\draw\sw/lv_draw_sw_blend.c ****     lv_color_mix_with_alpha(bg_color, bg_opa, color, opa, &res_color, &buf[1]);
 383:..\..\..\arduinoLCD\test\Pain Drain\libraries\lvgl\src\draw\sw/lv_draw_sw_blend.c ****     if(buf[1] <= LV_OPA_MIN) return;
 384:..\..\..\arduinoLCD\test\Pain Drain\libraries\lvgl\src\draw\sw/lv_draw_sw_blend.c ****     buf[0] = res_color.full;
 385:..\..\..\arduinoLCD\test\Pain Drain\libraries\lvgl\src\draw\sw/lv_draw_sw_blend.c **** #elif LV_COLOR_DEPTH == 16
 386:..\..\..\arduinoLCD\test\Pain Drain\libraries\lvgl\src\draw\sw/lv_draw_sw_blend.c ****     bg_color.full = buf[0] + (buf[1] << 8);
 387:..\..\..\arduinoLCD\test\Pain Drain\libraries\lvgl\src\draw\sw/lv_draw_sw_blend.c ****     lv_color_mix_with_alpha(bg_color, bg_opa, color, opa, &res_color, &buf[2]);
 388:..\..\..\arduinoLCD\test\Pain Drain\libraries\lvgl\src\draw\sw/lv_draw_sw_blend.c ****     if(buf[2] <= LV_OPA_MIN) return;
 389:..\..\..\arduinoLCD\test\Pain Drain\libraries\lvgl\src\draw\sw/lv_draw_sw_blend.c ****     buf[0] = res_color.full & 0xff;
 390:..\..\..\arduinoLCD\test\Pain Drain\libraries\lvgl\src\draw\sw/lv_draw_sw_blend.c ****     buf[1] = res_color.full >> 8;
 391:..\..\..\arduinoLCD\test\Pain Drain\libraries\lvgl\src\draw\sw/lv_draw_sw_blend.c **** #elif LV_COLOR_DEPTH == 32
 392:..\..\..\arduinoLCD\test\Pain Drain\libraries\lvgl\src\draw\sw/lv_draw_sw_blend.c ****     bg_color = *((lv_color_t *)buf);
 393:..\..\..\arduinoLCD\test\Pain Drain\libraries\lvgl\src\draw\sw/lv_draw_sw_blend.c ****     lv_color_mix_with_alpha(bg_color, bg_opa, color, opa, &res_color, &buf[3]);
 394:..\..\..\arduinoLCD\test\Pain Drain\libraries\lvgl\src\draw\sw/lv_draw_sw_blend.c ****     if(buf[3] <= LV_OPA_MIN) return;
 395:..\..\..\arduinoLCD\test\Pain Drain\libraries\lvgl\src\draw\sw/lv_draw_sw_blend.c ****     buf[0] = res_color.ch.blue;
 396:..\..\..\arduinoLCD\test\Pain Drain\libraries\lvgl\src\draw\sw/lv_draw_sw_blend.c ****     buf[1] = res_color.ch.green;
 397:..\..\..\arduinoLCD\test\Pain Drain\libraries\lvgl\src\draw\sw/lv_draw_sw_blend.c ****     buf[2] = res_color.ch.red;
 398:..\..\..\arduinoLCD\test\Pain Drain\libraries\lvgl\src\draw\sw/lv_draw_sw_blend.c **** #endif
 399:..\..\..\arduinoLCD\test\Pain Drain\libraries\lvgl\src\draw\sw/lv_draw_sw_blend.c **** }
 400:..\..\..\arduinoLCD\test\Pain Drain\libraries\lvgl\src\draw\sw/lv_draw_sw_blend.c **** 
 401:..\..\..\arduinoLCD\test\Pain Drain\libraries\lvgl\src\draw\sw/lv_draw_sw_blend.c **** static inline void set_px_argb_blend(uint8_t * buf, lv_color_t color, lv_opa_t opa, lv_color_t (*bl
 402:..\..\..\arduinoLCD\test\Pain Drain\libraries\lvgl\src\draw\sw/lv_draw_sw_blend.c ****                                                                                                    
 403:..\..\..\arduinoLCD\test\Pain Drain\libraries\lvgl\src\draw\sw/lv_draw_sw_blend.c **** {
 404:..\..\..\arduinoLCD\test\Pain Drain\libraries\lvgl\src\draw\sw/lv_draw_sw_blend.c ****     static lv_color_t last_dest_color;
 405:..\..\..\arduinoLCD\test\Pain Drain\libraries\lvgl\src\draw\sw/lv_draw_sw_blend.c ****     static lv_color_t last_src_color;
 406:..\..\..\arduinoLCD\test\Pain Drain\libraries\lvgl\src\draw\sw/lv_draw_sw_blend.c ****     static lv_color_t last_res_color;
 407:..\..\..\arduinoLCD\test\Pain Drain\libraries\lvgl\src\draw\sw/lv_draw_sw_blend.c ****     static uint32_t last_opa = 0xffff; /*Set to an invalid value for first*/
 408:..\..\..\arduinoLCD\test\Pain Drain\libraries\lvgl\src\draw\sw/lv_draw_sw_blend.c **** 
 409:..\..\..\arduinoLCD\test\Pain Drain\libraries\lvgl\src\draw\sw/lv_draw_sw_blend.c ****     lv_color_t bg_color;
 410:..\..\..\arduinoLCD\test\Pain Drain\libraries\lvgl\src\draw\sw/lv_draw_sw_blend.c **** 
 411:..\..\..\arduinoLCD\test\Pain Drain\libraries\lvgl\src\draw\sw/lv_draw_sw_blend.c ****     /*Get the BG color*/
 412:..\..\..\arduinoLCD\test\Pain Drain\libraries\lvgl\src\draw\sw/lv_draw_sw_blend.c **** #if LV_COLOR_DEPTH == 8
 413:..\..\..\arduinoLCD\test\Pain Drain\libraries\lvgl\src\draw\sw/lv_draw_sw_blend.c ****     if(buf[1] <= LV_OPA_MIN) return;
 414:..\..\..\arduinoLCD\test\Pain Drain\libraries\lvgl\src\draw\sw/lv_draw_sw_blend.c ****     bg_color.full = buf[0];
 415:..\..\..\arduinoLCD\test\Pain Drain\libraries\lvgl\src\draw\sw/lv_draw_sw_blend.c **** #elif LV_COLOR_DEPTH == 16
 416:..\..\..\arduinoLCD\test\Pain Drain\libraries\lvgl\src\draw\sw/lv_draw_sw_blend.c ****     if(buf[2] <= LV_OPA_MIN) return;
 417:..\..\..\arduinoLCD\test\Pain Drain\libraries\lvgl\src\draw\sw/lv_draw_sw_blend.c ****     bg_color.full = buf[0] + (buf[1] << 8);
 418:..\..\..\arduinoLCD\test\Pain Drain\libraries\lvgl\src\draw\sw/lv_draw_sw_blend.c **** #elif LV_COLOR_DEPTH == 32
 419:..\..\..\arduinoLCD\test\Pain Drain\libraries\lvgl\src\draw\sw/lv_draw_sw_blend.c ****     if(buf[3] <= LV_OPA_MIN) return;
 420:..\..\..\arduinoLCD\test\Pain Drain\libraries\lvgl\src\draw\sw/lv_draw_sw_blend.c ****     bg_color = *((lv_color_t *)buf);
 421:..\..\..\arduinoLCD\test\Pain Drain\libraries\lvgl\src\draw\sw/lv_draw_sw_blend.c **** #endif
 422:..\..\..\arduinoLCD\test\Pain Drain\libraries\lvgl\src\draw\sw/lv_draw_sw_blend.c **** 
 423:..\..\..\arduinoLCD\test\Pain Drain\libraries\lvgl\src\draw\sw/lv_draw_sw_blend.c ****     /*Get the result color*/
 424:..\..\..\arduinoLCD\test\Pain Drain\libraries\lvgl\src\draw\sw/lv_draw_sw_blend.c ****     if(last_dest_color.full != bg_color.full || last_src_color.full != color.full || last_opa != op
 425:..\..\..\arduinoLCD\test\Pain Drain\libraries\lvgl\src\draw\sw/lv_draw_sw_blend.c ****         last_dest_color = bg_color;
 426:..\..\..\arduinoLCD\test\Pain Drain\libraries\lvgl\src\draw\sw/lv_draw_sw_blend.c ****         last_src_color = color;
 427:..\..\..\arduinoLCD\test\Pain Drain\libraries\lvgl\src\draw\sw/lv_draw_sw_blend.c ****         last_opa = opa;
 428:..\..\..\arduinoLCD\test\Pain Drain\libraries\lvgl\src\draw\sw/lv_draw_sw_blend.c ****         last_res_color = blend_fp(last_src_color, last_dest_color, last_opa);
 429:..\..\..\arduinoLCD\test\Pain Drain\libraries\lvgl\src\draw\sw/lv_draw_sw_blend.c ****     }
ARM GAS  C:\Users\haske\AppData\Local\Temp\cc7ZkKza.s 			page 9


 430:..\..\..\arduinoLCD\test\Pain Drain\libraries\lvgl\src\draw\sw/lv_draw_sw_blend.c **** 
 431:..\..\..\arduinoLCD\test\Pain Drain\libraries\lvgl\src\draw\sw/lv_draw_sw_blend.c ****     /*Set the result color*/
 432:..\..\..\arduinoLCD\test\Pain Drain\libraries\lvgl\src\draw\sw/lv_draw_sw_blend.c **** #if LV_COLOR_DEPTH == 8
 433:..\..\..\arduinoLCD\test\Pain Drain\libraries\lvgl\src\draw\sw/lv_draw_sw_blend.c ****     buf[0] = res_color.full;
 434:..\..\..\arduinoLCD\test\Pain Drain\libraries\lvgl\src\draw\sw/lv_draw_sw_blend.c **** #elif LV_COLOR_DEPTH == 16
 435:..\..\..\arduinoLCD\test\Pain Drain\libraries\lvgl\src\draw\sw/lv_draw_sw_blend.c ****     buf[0] = last_res_color.full & 0xff;
 436:..\..\..\arduinoLCD\test\Pain Drain\libraries\lvgl\src\draw\sw/lv_draw_sw_blend.c ****     buf[1] = last_res_color.full >> 8;
 437:..\..\..\arduinoLCD\test\Pain Drain\libraries\lvgl\src\draw\sw/lv_draw_sw_blend.c **** #elif LV_COLOR_DEPTH == 32
 438:..\..\..\arduinoLCD\test\Pain Drain\libraries\lvgl\src\draw\sw/lv_draw_sw_blend.c ****     buf[0] = last_res_color.ch.blue;
 439:..\..\..\arduinoLCD\test\Pain Drain\libraries\lvgl\src\draw\sw/lv_draw_sw_blend.c ****     buf[1] = last_res_color.ch.green;
 440:..\..\..\arduinoLCD\test\Pain Drain\libraries\lvgl\src\draw\sw/lv_draw_sw_blend.c ****     buf[2] = last_res_color.ch.red;
 441:..\..\..\arduinoLCD\test\Pain Drain\libraries\lvgl\src\draw\sw/lv_draw_sw_blend.c **** #endif
 442:..\..\..\arduinoLCD\test\Pain Drain\libraries\lvgl\src\draw\sw/lv_draw_sw_blend.c **** 
 443:..\..\..\arduinoLCD\test\Pain Drain\libraries\lvgl\src\draw\sw/lv_draw_sw_blend.c **** }
 444:..\..\..\arduinoLCD\test\Pain Drain\libraries\lvgl\src\draw\sw/lv_draw_sw_blend.c **** 
 445:..\..\..\arduinoLCD\test\Pain Drain\libraries\lvgl\src\draw\sw/lv_draw_sw_blend.c **** LV_ATTRIBUTE_FAST_MEM static void fill_argb(lv_color_t * dest_buf, const lv_area_t * dest_area,
 446:..\..\..\arduinoLCD\test\Pain Drain\libraries\lvgl\src\draw\sw/lv_draw_sw_blend.c ****                                             lv_coord_t dest_stride, lv_color_t color, lv_opa_t opa,
 447:..\..\..\arduinoLCD\test\Pain Drain\libraries\lvgl\src\draw\sw/lv_draw_sw_blend.c **** {
 448:..\..\..\arduinoLCD\test\Pain Drain\libraries\lvgl\src\draw\sw/lv_draw_sw_blend.c ****     uint8_t * dest_buf8 = (uint8_t *) dest_buf;
 449:..\..\..\arduinoLCD\test\Pain Drain\libraries\lvgl\src\draw\sw/lv_draw_sw_blend.c ****     int32_t w = lv_area_get_width(dest_area);
 450:..\..\..\arduinoLCD\test\Pain Drain\libraries\lvgl\src\draw\sw/lv_draw_sw_blend.c ****     int32_t h = lv_area_get_height(dest_area);
 451:..\..\..\arduinoLCD\test\Pain Drain\libraries\lvgl\src\draw\sw/lv_draw_sw_blend.c **** 
 452:..\..\..\arduinoLCD\test\Pain Drain\libraries\lvgl\src\draw\sw/lv_draw_sw_blend.c ****     int32_t x;
 453:..\..\..\arduinoLCD\test\Pain Drain\libraries\lvgl\src\draw\sw/lv_draw_sw_blend.c ****     int32_t y;
 454:..\..\..\arduinoLCD\test\Pain Drain\libraries\lvgl\src\draw\sw/lv_draw_sw_blend.c **** 
 455:..\..\..\arduinoLCD\test\Pain Drain\libraries\lvgl\src\draw\sw/lv_draw_sw_blend.c ****     uint8_t ctmp[LV_IMG_PX_SIZE_ALPHA_BYTE];
 456:..\..\..\arduinoLCD\test\Pain Drain\libraries\lvgl\src\draw\sw/lv_draw_sw_blend.c ****     lv_memcpy(ctmp, &color, sizeof(lv_color_t));
 457:..\..\..\arduinoLCD\test\Pain Drain\libraries\lvgl\src\draw\sw/lv_draw_sw_blend.c ****     ctmp[LV_IMG_PX_SIZE_ALPHA_BYTE - 1] = opa;
 458:..\..\..\arduinoLCD\test\Pain Drain\libraries\lvgl\src\draw\sw/lv_draw_sw_blend.c **** 
 459:..\..\..\arduinoLCD\test\Pain Drain\libraries\lvgl\src\draw\sw/lv_draw_sw_blend.c ****     /*No mask*/
 460:..\..\..\arduinoLCD\test\Pain Drain\libraries\lvgl\src\draw\sw/lv_draw_sw_blend.c ****     if(mask == NULL) {
 461:..\..\..\arduinoLCD\test\Pain Drain\libraries\lvgl\src\draw\sw/lv_draw_sw_blend.c ****         if(opa >= LV_OPA_MAX) {
 462:..\..\..\arduinoLCD\test\Pain Drain\libraries\lvgl\src\draw\sw/lv_draw_sw_blend.c ****             for(x = 0; x < w; x++) {
 463:..\..\..\arduinoLCD\test\Pain Drain\libraries\lvgl\src\draw\sw/lv_draw_sw_blend.c ****                 lv_memcpy(dest_buf8, ctmp, LV_IMG_PX_SIZE_ALPHA_BYTE);
 464:..\..\..\arduinoLCD\test\Pain Drain\libraries\lvgl\src\draw\sw/lv_draw_sw_blend.c ****                 dest_buf8 += LV_IMG_PX_SIZE_ALPHA_BYTE;
 465:..\..\..\arduinoLCD\test\Pain Drain\libraries\lvgl\src\draw\sw/lv_draw_sw_blend.c ****             }
 466:..\..\..\arduinoLCD\test\Pain Drain\libraries\lvgl\src\draw\sw/lv_draw_sw_blend.c **** 
 467:..\..\..\arduinoLCD\test\Pain Drain\libraries\lvgl\src\draw\sw/lv_draw_sw_blend.c ****             dest_buf8 += (dest_stride - w) * LV_IMG_PX_SIZE_ALPHA_BYTE;
 468:..\..\..\arduinoLCD\test\Pain Drain\libraries\lvgl\src\draw\sw/lv_draw_sw_blend.c **** 
 469:..\..\..\arduinoLCD\test\Pain Drain\libraries\lvgl\src\draw\sw/lv_draw_sw_blend.c ****             for(y = 1; y < h; y++) {
 470:..\..\..\arduinoLCD\test\Pain Drain\libraries\lvgl\src\draw\sw/lv_draw_sw_blend.c ****                 lv_memcpy(dest_buf8, (uint8_t *) dest_buf, w * LV_IMG_PX_SIZE_ALPHA_BYTE);
 471:..\..\..\arduinoLCD\test\Pain Drain\libraries\lvgl\src\draw\sw/lv_draw_sw_blend.c ****                 dest_buf8 += dest_stride * LV_IMG_PX_SIZE_ALPHA_BYTE;
 472:..\..\..\arduinoLCD\test\Pain Drain\libraries\lvgl\src\draw\sw/lv_draw_sw_blend.c ****             }
 473:..\..\..\arduinoLCD\test\Pain Drain\libraries\lvgl\src\draw\sw/lv_draw_sw_blend.c ****         }
 474:..\..\..\arduinoLCD\test\Pain Drain\libraries\lvgl\src\draw\sw/lv_draw_sw_blend.c ****         /*Has opacity*/
 475:..\..\..\arduinoLCD\test\Pain Drain\libraries\lvgl\src\draw\sw/lv_draw_sw_blend.c ****         else {
 476:..\..\..\arduinoLCD\test\Pain Drain\libraries\lvgl\src\draw\sw/lv_draw_sw_blend.c ****             uint8_t * dest_buf8_row = dest_buf8;
 477:..\..\..\arduinoLCD\test\Pain Drain\libraries\lvgl\src\draw\sw/lv_draw_sw_blend.c ****             for(y = 0; y < h; y++) {
 478:..\..\..\arduinoLCD\test\Pain Drain\libraries\lvgl\src\draw\sw/lv_draw_sw_blend.c ****                 for(x = 0; x < w; x++) {
 479:..\..\..\arduinoLCD\test\Pain Drain\libraries\lvgl\src\draw\sw/lv_draw_sw_blend.c ****                     set_px_argb(dest_buf8, color, opa);
 480:..\..\..\arduinoLCD\test\Pain Drain\libraries\lvgl\src\draw\sw/lv_draw_sw_blend.c ****                     dest_buf8 += LV_IMG_PX_SIZE_ALPHA_BYTE;
 481:..\..\..\arduinoLCD\test\Pain Drain\libraries\lvgl\src\draw\sw/lv_draw_sw_blend.c ****                 }
 482:..\..\..\arduinoLCD\test\Pain Drain\libraries\lvgl\src\draw\sw/lv_draw_sw_blend.c ****                 dest_buf8_row += dest_stride * LV_IMG_PX_SIZE_ALPHA_BYTE;
 483:..\..\..\arduinoLCD\test\Pain Drain\libraries\lvgl\src\draw\sw/lv_draw_sw_blend.c ****                 dest_buf8 = dest_buf8_row;
 484:..\..\..\arduinoLCD\test\Pain Drain\libraries\lvgl\src\draw\sw/lv_draw_sw_blend.c ****             }
 485:..\..\..\arduinoLCD\test\Pain Drain\libraries\lvgl\src\draw\sw/lv_draw_sw_blend.c ****         }
 486:..\..\..\arduinoLCD\test\Pain Drain\libraries\lvgl\src\draw\sw/lv_draw_sw_blend.c ****     }
ARM GAS  C:\Users\haske\AppData\Local\Temp\cc7ZkKza.s 			page 10


 487:..\..\..\arduinoLCD\test\Pain Drain\libraries\lvgl\src\draw\sw/lv_draw_sw_blend.c ****     /*Masked*/
 488:..\..\..\arduinoLCD\test\Pain Drain\libraries\lvgl\src\draw\sw/lv_draw_sw_blend.c ****     else {
 489:..\..\..\arduinoLCD\test\Pain Drain\libraries\lvgl\src\draw\sw/lv_draw_sw_blend.c ****         /*Only the mask matters*/
 490:..\..\..\arduinoLCD\test\Pain Drain\libraries\lvgl\src\draw\sw/lv_draw_sw_blend.c ****         if(opa >= LV_OPA_MAX) {
 491:..\..\..\arduinoLCD\test\Pain Drain\libraries\lvgl\src\draw\sw/lv_draw_sw_blend.c ****             uint8_t * dest_buf8_row = dest_buf8;
 492:..\..\..\arduinoLCD\test\Pain Drain\libraries\lvgl\src\draw\sw/lv_draw_sw_blend.c ****             for(y = 0; y < h; y++) {
 493:..\..\..\arduinoLCD\test\Pain Drain\libraries\lvgl\src\draw\sw/lv_draw_sw_blend.c ****                 for(x = 0; x < w; x++) {
 494:..\..\..\arduinoLCD\test\Pain Drain\libraries\lvgl\src\draw\sw/lv_draw_sw_blend.c ****                     set_px_argb(dest_buf8, color,  *mask);
 495:..\..\..\arduinoLCD\test\Pain Drain\libraries\lvgl\src\draw\sw/lv_draw_sw_blend.c ****                     mask++;
 496:..\..\..\arduinoLCD\test\Pain Drain\libraries\lvgl\src\draw\sw/lv_draw_sw_blend.c ****                     dest_buf8 += LV_IMG_PX_SIZE_ALPHA_BYTE;
 497:..\..\..\arduinoLCD\test\Pain Drain\libraries\lvgl\src\draw\sw/lv_draw_sw_blend.c ****                 }
 498:..\..\..\arduinoLCD\test\Pain Drain\libraries\lvgl\src\draw\sw/lv_draw_sw_blend.c ****                 dest_buf8_row += dest_stride * LV_IMG_PX_SIZE_ALPHA_BYTE;
 499:..\..\..\arduinoLCD\test\Pain Drain\libraries\lvgl\src\draw\sw/lv_draw_sw_blend.c ****                 dest_buf8 = dest_buf8_row;
 500:..\..\..\arduinoLCD\test\Pain Drain\libraries\lvgl\src\draw\sw/lv_draw_sw_blend.c ****             }
 501:..\..\..\arduinoLCD\test\Pain Drain\libraries\lvgl\src\draw\sw/lv_draw_sw_blend.c ****         }
 502:..\..\..\arduinoLCD\test\Pain Drain\libraries\lvgl\src\draw\sw/lv_draw_sw_blend.c ****         /*With opacity*/
 503:..\..\..\arduinoLCD\test\Pain Drain\libraries\lvgl\src\draw\sw/lv_draw_sw_blend.c ****         else {
 504:..\..\..\arduinoLCD\test\Pain Drain\libraries\lvgl\src\draw\sw/lv_draw_sw_blend.c ****             /*Buffer the result color to avoid recalculating the same color*/
 505:..\..\..\arduinoLCD\test\Pain Drain\libraries\lvgl\src\draw\sw/lv_draw_sw_blend.c ****             lv_opa_t last_mask = LV_OPA_TRANSP;
 506:..\..\..\arduinoLCD\test\Pain Drain\libraries\lvgl\src\draw\sw/lv_draw_sw_blend.c ****             lv_opa_t opa_tmp = LV_OPA_TRANSP;
 507:..\..\..\arduinoLCD\test\Pain Drain\libraries\lvgl\src\draw\sw/lv_draw_sw_blend.c **** 
 508:..\..\..\arduinoLCD\test\Pain Drain\libraries\lvgl\src\draw\sw/lv_draw_sw_blend.c ****             uint8_t * dest_buf8_row = dest_buf8;
 509:..\..\..\arduinoLCD\test\Pain Drain\libraries\lvgl\src\draw\sw/lv_draw_sw_blend.c ****             for(y = 0; y < h; y++) {
 510:..\..\..\arduinoLCD\test\Pain Drain\libraries\lvgl\src\draw\sw/lv_draw_sw_blend.c ****                 for(x = 0; x < w; x++) {
 511:..\..\..\arduinoLCD\test\Pain Drain\libraries\lvgl\src\draw\sw/lv_draw_sw_blend.c ****                     if(*mask) {
 512:..\..\..\arduinoLCD\test\Pain Drain\libraries\lvgl\src\draw\sw/lv_draw_sw_blend.c ****                         if(*mask != last_mask) opa_tmp = *mask == LV_OPA_COVER ? opa :
 513:..\..\..\arduinoLCD\test\Pain Drain\libraries\lvgl\src\draw\sw/lv_draw_sw_blend.c ****                                                              (uint32_t)((uint32_t)(*mask) * opa) >>
 514:..\..\..\arduinoLCD\test\Pain Drain\libraries\lvgl\src\draw\sw/lv_draw_sw_blend.c **** 
 515:..\..\..\arduinoLCD\test\Pain Drain\libraries\lvgl\src\draw\sw/lv_draw_sw_blend.c ****                         set_px_argb(dest_buf8, color,  opa_tmp);
 516:..\..\..\arduinoLCD\test\Pain Drain\libraries\lvgl\src\draw\sw/lv_draw_sw_blend.c ****                     }
 517:..\..\..\arduinoLCD\test\Pain Drain\libraries\lvgl\src\draw\sw/lv_draw_sw_blend.c ****                     dest_buf8 += LV_IMG_PX_SIZE_ALPHA_BYTE;
 518:..\..\..\arduinoLCD\test\Pain Drain\libraries\lvgl\src\draw\sw/lv_draw_sw_blend.c ****                     mask++;
 519:..\..\..\arduinoLCD\test\Pain Drain\libraries\lvgl\src\draw\sw/lv_draw_sw_blend.c ****                 }
 520:..\..\..\arduinoLCD\test\Pain Drain\libraries\lvgl\src\draw\sw/lv_draw_sw_blend.c ****                 dest_buf8_row += dest_stride * LV_IMG_PX_SIZE_ALPHA_BYTE;
 521:..\..\..\arduinoLCD\test\Pain Drain\libraries\lvgl\src\draw\sw/lv_draw_sw_blend.c ****                 dest_buf8 = dest_buf8_row;
 522:..\..\..\arduinoLCD\test\Pain Drain\libraries\lvgl\src\draw\sw/lv_draw_sw_blend.c ****                 mask += (mask_stride - w);
 523:..\..\..\arduinoLCD\test\Pain Drain\libraries\lvgl\src\draw\sw/lv_draw_sw_blend.c ****             }
 524:..\..\..\arduinoLCD\test\Pain Drain\libraries\lvgl\src\draw\sw/lv_draw_sw_blend.c ****         }
 525:..\..\..\arduinoLCD\test\Pain Drain\libraries\lvgl\src\draw\sw/lv_draw_sw_blend.c ****     }
 526:..\..\..\arduinoLCD\test\Pain Drain\libraries\lvgl\src\draw\sw/lv_draw_sw_blend.c **** }
 527:..\..\..\arduinoLCD\test\Pain Drain\libraries\lvgl\src\draw\sw/lv_draw_sw_blend.c **** #endif
 528:..\..\..\arduinoLCD\test\Pain Drain\libraries\lvgl\src\draw\sw/lv_draw_sw_blend.c **** 
 529:..\..\..\arduinoLCD\test\Pain Drain\libraries\lvgl\src\draw\sw/lv_draw_sw_blend.c **** #if LV_DRAW_COMPLEX
 530:..\..\..\arduinoLCD\test\Pain Drain\libraries\lvgl\src\draw\sw/lv_draw_sw_blend.c **** static void fill_blended(lv_color_t * dest_buf, const lv_area_t * dest_area,
 531:..\..\..\arduinoLCD\test\Pain Drain\libraries\lvgl\src\draw\sw/lv_draw_sw_blend.c ****                          lv_coord_t dest_stride, lv_color_t color, lv_opa_t opa, const lv_opa_t * m
 532:..\..\..\arduinoLCD\test\Pain Drain\libraries\lvgl\src\draw\sw/lv_draw_sw_blend.c ****                          lv_blend_mode_t blend_mode)
 533:..\..\..\arduinoLCD\test\Pain Drain\libraries\lvgl\src\draw\sw/lv_draw_sw_blend.c **** {
  28              		.loc 1 533 0
  29              		.cfi_startproc
  30              		@ args = 16, pretend = 0, frame = 24
  31              		@ frame_needed = 0, uses_anonymous_args = 0
  32              	.LVL0:
  33 0000 2DE9F04F 		push	{r4, r5, r6, r7, r8, r9, r10, fp, lr}
  34              		.cfi_def_cfa_offset 36
  35              		.cfi_offset 4, -36
  36              		.cfi_offset 5, -32
  37              		.cfi_offset 6, -28
ARM GAS  C:\Users\haske\AppData\Local\Temp\cc7ZkKza.s 			page 11


  38              		.cfi_offset 7, -24
  39              		.cfi_offset 8, -20
  40              		.cfi_offset 9, -16
  41              		.cfi_offset 10, -12
  42              		.cfi_offset 11, -8
  43              		.cfi_offset 14, -4
  44 0004 87B0     		sub	sp, sp, #28
  45              		.cfi_def_cfa_offset 64
  46 0006 0746     		mov	r7, r0
  47 0008 0492     		str	r2, [sp, #16]
  48 000a ADF80630 		strh	r3, [sp, #6]	@ movhi
  49 000e 9DF84030 		ldrb	r3, [sp, #64]	@ zero_extendqisi2
  50              	.LVL1:
  51 0012 0293     		str	r3, [sp, #8]
  52 0014 119E     		ldr	r6, [sp, #68]
  53 0016 BDF94830 		ldrsh	r3, [sp, #72]
  54 001a 0593     		str	r3, [sp, #20]
  55 001c 9DF84C20 		ldrb	r2, [sp, #76]	@ zero_extendqisi2
  56              	.LVL2:
  57              	.LBB98:
  58              	.LBB99:
  59              		.file 2 "c:\\projects\\paindrain\\arduinolcd\\test\\pain drain\\libraries\\lvgl\\src\\misc\\lv_are
   1:c:\projects\paindrain\arduinolcd\test\pain drain\libraries\lvgl\src\misc\lv_area.h **** /**
   2:c:\projects\paindrain\arduinolcd\test\pain drain\libraries\lvgl\src\misc\lv_area.h ****  * @file lv_area.h
   3:c:\projects\paindrain\arduinolcd\test\pain drain\libraries\lvgl\src\misc\lv_area.h ****  *
   4:c:\projects\paindrain\arduinolcd\test\pain drain\libraries\lvgl\src\misc\lv_area.h ****  */
   5:c:\projects\paindrain\arduinolcd\test\pain drain\libraries\lvgl\src\misc\lv_area.h **** 
   6:c:\projects\paindrain\arduinolcd\test\pain drain\libraries\lvgl\src\misc\lv_area.h **** #ifndef LV_AREA_H
   7:c:\projects\paindrain\arduinolcd\test\pain drain\libraries\lvgl\src\misc\lv_area.h **** #define LV_AREA_H
   8:c:\projects\paindrain\arduinolcd\test\pain drain\libraries\lvgl\src\misc\lv_area.h **** 
   9:c:\projects\paindrain\arduinolcd\test\pain drain\libraries\lvgl\src\misc\lv_area.h **** #ifdef __cplusplus
  10:c:\projects\paindrain\arduinolcd\test\pain drain\libraries\lvgl\src\misc\lv_area.h **** extern "C" {
  11:c:\projects\paindrain\arduinolcd\test\pain drain\libraries\lvgl\src\misc\lv_area.h **** #endif
  12:c:\projects\paindrain\arduinolcd\test\pain drain\libraries\lvgl\src\misc\lv_area.h **** 
  13:c:\projects\paindrain\arduinolcd\test\pain drain\libraries\lvgl\src\misc\lv_area.h **** /*********************
  14:c:\projects\paindrain\arduinolcd\test\pain drain\libraries\lvgl\src\misc\lv_area.h ****  *      INCLUDES
  15:c:\projects\paindrain\arduinolcd\test\pain drain\libraries\lvgl\src\misc\lv_area.h ****  *********************/
  16:c:\projects\paindrain\arduinolcd\test\pain drain\libraries\lvgl\src\misc\lv_area.h **** #include "../lv_conf_internal.h"
  17:c:\projects\paindrain\arduinolcd\test\pain drain\libraries\lvgl\src\misc\lv_area.h **** #include <stdbool.h>
  18:c:\projects\paindrain\arduinolcd\test\pain drain\libraries\lvgl\src\misc\lv_area.h **** #include <stdint.h>
  19:c:\projects\paindrain\arduinolcd\test\pain drain\libraries\lvgl\src\misc\lv_area.h **** 
  20:c:\projects\paindrain\arduinolcd\test\pain drain\libraries\lvgl\src\misc\lv_area.h **** /*********************
  21:c:\projects\paindrain\arduinolcd\test\pain drain\libraries\lvgl\src\misc\lv_area.h ****  *      DEFINES
  22:c:\projects\paindrain\arduinolcd\test\pain drain\libraries\lvgl\src\misc\lv_area.h ****  *********************/
  23:c:\projects\paindrain\arduinolcd\test\pain drain\libraries\lvgl\src\misc\lv_area.h **** 
  24:c:\projects\paindrain\arduinolcd\test\pain drain\libraries\lvgl\src\misc\lv_area.h **** #if LV_USE_LARGE_COORD
  25:c:\projects\paindrain\arduinolcd\test\pain drain\libraries\lvgl\src\misc\lv_area.h **** typedef int32_t lv_coord_t;
  26:c:\projects\paindrain\arduinolcd\test\pain drain\libraries\lvgl\src\misc\lv_area.h **** #else
  27:c:\projects\paindrain\arduinolcd\test\pain drain\libraries\lvgl\src\misc\lv_area.h **** typedef int16_t lv_coord_t;
  28:c:\projects\paindrain\arduinolcd\test\pain drain\libraries\lvgl\src\misc\lv_area.h **** #endif
  29:c:\projects\paindrain\arduinolcd\test\pain drain\libraries\lvgl\src\misc\lv_area.h **** 
  30:c:\projects\paindrain\arduinolcd\test\pain drain\libraries\lvgl\src\misc\lv_area.h **** /**********************
  31:c:\projects\paindrain\arduinolcd\test\pain drain\libraries\lvgl\src\misc\lv_area.h ****  *      TYPEDEFS
  32:c:\projects\paindrain\arduinolcd\test\pain drain\libraries\lvgl\src\misc\lv_area.h ****  **********************/
  33:c:\projects\paindrain\arduinolcd\test\pain drain\libraries\lvgl\src\misc\lv_area.h **** 
  34:c:\projects\paindrain\arduinolcd\test\pain drain\libraries\lvgl\src\misc\lv_area.h **** /**
  35:c:\projects\paindrain\arduinolcd\test\pain drain\libraries\lvgl\src\misc\lv_area.h ****  * Represents a point on the screen.
ARM GAS  C:\Users\haske\AppData\Local\Temp\cc7ZkKza.s 			page 12


  36:c:\projects\paindrain\arduinolcd\test\pain drain\libraries\lvgl\src\misc\lv_area.h ****  */
  37:c:\projects\paindrain\arduinolcd\test\pain drain\libraries\lvgl\src\misc\lv_area.h **** typedef struct {
  38:c:\projects\paindrain\arduinolcd\test\pain drain\libraries\lvgl\src\misc\lv_area.h ****     lv_coord_t x;
  39:c:\projects\paindrain\arduinolcd\test\pain drain\libraries\lvgl\src\misc\lv_area.h ****     lv_coord_t y;
  40:c:\projects\paindrain\arduinolcd\test\pain drain\libraries\lvgl\src\misc\lv_area.h **** } lv_point_t;
  41:c:\projects\paindrain\arduinolcd\test\pain drain\libraries\lvgl\src\misc\lv_area.h **** 
  42:c:\projects\paindrain\arduinolcd\test\pain drain\libraries\lvgl\src\misc\lv_area.h **** /** Represents an area of the screen.*/
  43:c:\projects\paindrain\arduinolcd\test\pain drain\libraries\lvgl\src\misc\lv_area.h **** typedef struct {
  44:c:\projects\paindrain\arduinolcd\test\pain drain\libraries\lvgl\src\misc\lv_area.h ****     lv_coord_t x1;
  45:c:\projects\paindrain\arduinolcd\test\pain drain\libraries\lvgl\src\misc\lv_area.h ****     lv_coord_t y1;
  46:c:\projects\paindrain\arduinolcd\test\pain drain\libraries\lvgl\src\misc\lv_area.h ****     lv_coord_t x2;
  47:c:\projects\paindrain\arduinolcd\test\pain drain\libraries\lvgl\src\misc\lv_area.h ****     lv_coord_t y2;
  48:c:\projects\paindrain\arduinolcd\test\pain drain\libraries\lvgl\src\misc\lv_area.h **** } lv_area_t;
  49:c:\projects\paindrain\arduinolcd\test\pain drain\libraries\lvgl\src\misc\lv_area.h **** 
  50:c:\projects\paindrain\arduinolcd\test\pain drain\libraries\lvgl\src\misc\lv_area.h **** /** Alignments*/
  51:c:\projects\paindrain\arduinolcd\test\pain drain\libraries\lvgl\src\misc\lv_area.h **** enum {
  52:c:\projects\paindrain\arduinolcd\test\pain drain\libraries\lvgl\src\misc\lv_area.h ****     LV_ALIGN_DEFAULT = 0,
  53:c:\projects\paindrain\arduinolcd\test\pain drain\libraries\lvgl\src\misc\lv_area.h ****     LV_ALIGN_TOP_LEFT,
  54:c:\projects\paindrain\arduinolcd\test\pain drain\libraries\lvgl\src\misc\lv_area.h ****     LV_ALIGN_TOP_MID,
  55:c:\projects\paindrain\arduinolcd\test\pain drain\libraries\lvgl\src\misc\lv_area.h ****     LV_ALIGN_TOP_RIGHT,
  56:c:\projects\paindrain\arduinolcd\test\pain drain\libraries\lvgl\src\misc\lv_area.h ****     LV_ALIGN_BOTTOM_LEFT,
  57:c:\projects\paindrain\arduinolcd\test\pain drain\libraries\lvgl\src\misc\lv_area.h ****     LV_ALIGN_BOTTOM_MID,
  58:c:\projects\paindrain\arduinolcd\test\pain drain\libraries\lvgl\src\misc\lv_area.h ****     LV_ALIGN_BOTTOM_RIGHT,
  59:c:\projects\paindrain\arduinolcd\test\pain drain\libraries\lvgl\src\misc\lv_area.h ****     LV_ALIGN_LEFT_MID,
  60:c:\projects\paindrain\arduinolcd\test\pain drain\libraries\lvgl\src\misc\lv_area.h ****     LV_ALIGN_RIGHT_MID,
  61:c:\projects\paindrain\arduinolcd\test\pain drain\libraries\lvgl\src\misc\lv_area.h ****     LV_ALIGN_CENTER,
  62:c:\projects\paindrain\arduinolcd\test\pain drain\libraries\lvgl\src\misc\lv_area.h **** 
  63:c:\projects\paindrain\arduinolcd\test\pain drain\libraries\lvgl\src\misc\lv_area.h ****     LV_ALIGN_OUT_TOP_LEFT,
  64:c:\projects\paindrain\arduinolcd\test\pain drain\libraries\lvgl\src\misc\lv_area.h ****     LV_ALIGN_OUT_TOP_MID,
  65:c:\projects\paindrain\arduinolcd\test\pain drain\libraries\lvgl\src\misc\lv_area.h ****     LV_ALIGN_OUT_TOP_RIGHT,
  66:c:\projects\paindrain\arduinolcd\test\pain drain\libraries\lvgl\src\misc\lv_area.h ****     LV_ALIGN_OUT_BOTTOM_LEFT,
  67:c:\projects\paindrain\arduinolcd\test\pain drain\libraries\lvgl\src\misc\lv_area.h ****     LV_ALIGN_OUT_BOTTOM_MID,
  68:c:\projects\paindrain\arduinolcd\test\pain drain\libraries\lvgl\src\misc\lv_area.h ****     LV_ALIGN_OUT_BOTTOM_RIGHT,
  69:c:\projects\paindrain\arduinolcd\test\pain drain\libraries\lvgl\src\misc\lv_area.h ****     LV_ALIGN_OUT_LEFT_TOP,
  70:c:\projects\paindrain\arduinolcd\test\pain drain\libraries\lvgl\src\misc\lv_area.h ****     LV_ALIGN_OUT_LEFT_MID,
  71:c:\projects\paindrain\arduinolcd\test\pain drain\libraries\lvgl\src\misc\lv_area.h ****     LV_ALIGN_OUT_LEFT_BOTTOM,
  72:c:\projects\paindrain\arduinolcd\test\pain drain\libraries\lvgl\src\misc\lv_area.h ****     LV_ALIGN_OUT_RIGHT_TOP,
  73:c:\projects\paindrain\arduinolcd\test\pain drain\libraries\lvgl\src\misc\lv_area.h ****     LV_ALIGN_OUT_RIGHT_MID,
  74:c:\projects\paindrain\arduinolcd\test\pain drain\libraries\lvgl\src\misc\lv_area.h ****     LV_ALIGN_OUT_RIGHT_BOTTOM,
  75:c:\projects\paindrain\arduinolcd\test\pain drain\libraries\lvgl\src\misc\lv_area.h **** };
  76:c:\projects\paindrain\arduinolcd\test\pain drain\libraries\lvgl\src\misc\lv_area.h **** typedef uint8_t lv_align_t;
  77:c:\projects\paindrain\arduinolcd\test\pain drain\libraries\lvgl\src\misc\lv_area.h **** 
  78:c:\projects\paindrain\arduinolcd\test\pain drain\libraries\lvgl\src\misc\lv_area.h **** enum {
  79:c:\projects\paindrain\arduinolcd\test\pain drain\libraries\lvgl\src\misc\lv_area.h ****     LV_DIR_NONE     = 0x00,
  80:c:\projects\paindrain\arduinolcd\test\pain drain\libraries\lvgl\src\misc\lv_area.h ****     LV_DIR_LEFT     = (1 << 0),
  81:c:\projects\paindrain\arduinolcd\test\pain drain\libraries\lvgl\src\misc\lv_area.h ****     LV_DIR_RIGHT    = (1 << 1),
  82:c:\projects\paindrain\arduinolcd\test\pain drain\libraries\lvgl\src\misc\lv_area.h ****     LV_DIR_TOP      = (1 << 2),
  83:c:\projects\paindrain\arduinolcd\test\pain drain\libraries\lvgl\src\misc\lv_area.h ****     LV_DIR_BOTTOM   = (1 << 3),
  84:c:\projects\paindrain\arduinolcd\test\pain drain\libraries\lvgl\src\misc\lv_area.h ****     LV_DIR_HOR      = LV_DIR_LEFT | LV_DIR_RIGHT,
  85:c:\projects\paindrain\arduinolcd\test\pain drain\libraries\lvgl\src\misc\lv_area.h ****     LV_DIR_VER      = LV_DIR_TOP | LV_DIR_BOTTOM,
  86:c:\projects\paindrain\arduinolcd\test\pain drain\libraries\lvgl\src\misc\lv_area.h ****     LV_DIR_ALL      = LV_DIR_HOR | LV_DIR_VER,
  87:c:\projects\paindrain\arduinolcd\test\pain drain\libraries\lvgl\src\misc\lv_area.h **** };
  88:c:\projects\paindrain\arduinolcd\test\pain drain\libraries\lvgl\src\misc\lv_area.h **** 
  89:c:\projects\paindrain\arduinolcd\test\pain drain\libraries\lvgl\src\misc\lv_area.h **** typedef uint8_t lv_dir_t;
  90:c:\projects\paindrain\arduinolcd\test\pain drain\libraries\lvgl\src\misc\lv_area.h **** 
  91:c:\projects\paindrain\arduinolcd\test\pain drain\libraries\lvgl\src\misc\lv_area.h **** /**********************
  92:c:\projects\paindrain\arduinolcd\test\pain drain\libraries\lvgl\src\misc\lv_area.h ****  * GLOBAL PROTOTYPES
ARM GAS  C:\Users\haske\AppData\Local\Temp\cc7ZkKza.s 			page 13


  93:c:\projects\paindrain\arduinolcd\test\pain drain\libraries\lvgl\src\misc\lv_area.h ****  **********************/
  94:c:\projects\paindrain\arduinolcd\test\pain drain\libraries\lvgl\src\misc\lv_area.h **** 
  95:c:\projects\paindrain\arduinolcd\test\pain drain\libraries\lvgl\src\misc\lv_area.h **** /**
  96:c:\projects\paindrain\arduinolcd\test\pain drain\libraries\lvgl\src\misc\lv_area.h ****  * Initialize an area
  97:c:\projects\paindrain\arduinolcd\test\pain drain\libraries\lvgl\src\misc\lv_area.h ****  * @param area_p pointer to an area
  98:c:\projects\paindrain\arduinolcd\test\pain drain\libraries\lvgl\src\misc\lv_area.h ****  * @param x1 left coordinate of the area
  99:c:\projects\paindrain\arduinolcd\test\pain drain\libraries\lvgl\src\misc\lv_area.h ****  * @param y1 top coordinate of the area
 100:c:\projects\paindrain\arduinolcd\test\pain drain\libraries\lvgl\src\misc\lv_area.h ****  * @param x2 right coordinate of the area
 101:c:\projects\paindrain\arduinolcd\test\pain drain\libraries\lvgl\src\misc\lv_area.h ****  * @param y2 bottom coordinate of the area
 102:c:\projects\paindrain\arduinolcd\test\pain drain\libraries\lvgl\src\misc\lv_area.h ****  */
 103:c:\projects\paindrain\arduinolcd\test\pain drain\libraries\lvgl\src\misc\lv_area.h **** void lv_area_set(lv_area_t * area_p, lv_coord_t x1, lv_coord_t y1, lv_coord_t x2, lv_coord_t y2);
 104:c:\projects\paindrain\arduinolcd\test\pain drain\libraries\lvgl\src\misc\lv_area.h **** 
 105:c:\projects\paindrain\arduinolcd\test\pain drain\libraries\lvgl\src\misc\lv_area.h **** /**
 106:c:\projects\paindrain\arduinolcd\test\pain drain\libraries\lvgl\src\misc\lv_area.h ****  * Copy an area
 107:c:\projects\paindrain\arduinolcd\test\pain drain\libraries\lvgl\src\misc\lv_area.h ****  * @param dest pointer to the destination area
 108:c:\projects\paindrain\arduinolcd\test\pain drain\libraries\lvgl\src\misc\lv_area.h ****  * @param src pointer to the source area
 109:c:\projects\paindrain\arduinolcd\test\pain drain\libraries\lvgl\src\misc\lv_area.h ****  */
 110:c:\projects\paindrain\arduinolcd\test\pain drain\libraries\lvgl\src\misc\lv_area.h **** inline static void lv_area_copy(lv_area_t * dest, const lv_area_t * src)
 111:c:\projects\paindrain\arduinolcd\test\pain drain\libraries\lvgl\src\misc\lv_area.h **** {
 112:c:\projects\paindrain\arduinolcd\test\pain drain\libraries\lvgl\src\misc\lv_area.h ****     dest->x1 = src->x1;
 113:c:\projects\paindrain\arduinolcd\test\pain drain\libraries\lvgl\src\misc\lv_area.h ****     dest->y1 = src->y1;
 114:c:\projects\paindrain\arduinolcd\test\pain drain\libraries\lvgl\src\misc\lv_area.h ****     dest->x2 = src->x2;
 115:c:\projects\paindrain\arduinolcd\test\pain drain\libraries\lvgl\src\misc\lv_area.h ****     dest->y2 = src->y2;
 116:c:\projects\paindrain\arduinolcd\test\pain drain\libraries\lvgl\src\misc\lv_area.h **** }
 117:c:\projects\paindrain\arduinolcd\test\pain drain\libraries\lvgl\src\misc\lv_area.h **** 
 118:c:\projects\paindrain\arduinolcd\test\pain drain\libraries\lvgl\src\misc\lv_area.h **** /**
 119:c:\projects\paindrain\arduinolcd\test\pain drain\libraries\lvgl\src\misc\lv_area.h ****  * Get the width of an area
 120:c:\projects\paindrain\arduinolcd\test\pain drain\libraries\lvgl\src\misc\lv_area.h ****  * @param area_p pointer to an area
 121:c:\projects\paindrain\arduinolcd\test\pain drain\libraries\lvgl\src\misc\lv_area.h ****  * @return the width of the area (if x1 == x2 -> width = 1)
 122:c:\projects\paindrain\arduinolcd\test\pain drain\libraries\lvgl\src\misc\lv_area.h ****  */
 123:c:\projects\paindrain\arduinolcd\test\pain drain\libraries\lvgl\src\misc\lv_area.h **** static inline lv_coord_t lv_area_get_width(const lv_area_t * area_p)
 124:c:\projects\paindrain\arduinolcd\test\pain drain\libraries\lvgl\src\misc\lv_area.h **** {
 125:c:\projects\paindrain\arduinolcd\test\pain drain\libraries\lvgl\src\misc\lv_area.h ****     return (lv_coord_t)(area_p->x2 - area_p->x1 + 1);
  60              		.loc 2 125 0
  61 0020 B1F90430 		ldrsh	r3, [r1, #4]
  62 0024 B1F90090 		ldrsh	r9, [r1]
  63 0028 C9EB0309 		rsb	r9, r9, r3
  64 002c 09F10109 		add	r9, r9, #1
  65 0030 0FFA89F9 		sxth	r9, r9
  66              	.LVL3:
  67              	.LBE99:
  68              	.LBE98:
  69              	.LBB100:
  70              	.LBB101:
 126:c:\projects\paindrain\arduinolcd\test\pain drain\libraries\lvgl\src\misc\lv_area.h **** }
 127:c:\projects\paindrain\arduinolcd\test\pain drain\libraries\lvgl\src\misc\lv_area.h **** 
 128:c:\projects\paindrain\arduinolcd\test\pain drain\libraries\lvgl\src\misc\lv_area.h **** /**
 129:c:\projects\paindrain\arduinolcd\test\pain drain\libraries\lvgl\src\misc\lv_area.h ****  * Get the height of an area
 130:c:\projects\paindrain\arduinolcd\test\pain drain\libraries\lvgl\src\misc\lv_area.h ****  * @param area_p pointer to an area
 131:c:\projects\paindrain\arduinolcd\test\pain drain\libraries\lvgl\src\misc\lv_area.h ****  * @return the height of the area (if y1 == y2 -> height = 1)
 132:c:\projects\paindrain\arduinolcd\test\pain drain\libraries\lvgl\src\misc\lv_area.h ****  */
 133:c:\projects\paindrain\arduinolcd\test\pain drain\libraries\lvgl\src\misc\lv_area.h **** static inline lv_coord_t lv_area_get_height(const lv_area_t * area_p)
 134:c:\projects\paindrain\arduinolcd\test\pain drain\libraries\lvgl\src\misc\lv_area.h **** {
 135:c:\projects\paindrain\arduinolcd\test\pain drain\libraries\lvgl\src\misc\lv_area.h ****     return (lv_coord_t)(area_p->y2 - area_p->y1 + 1);
  71              		.loc 2 135 0
  72 0034 B1F90630 		ldrsh	r3, [r1, #6]
  73 0038 B1F90210 		ldrsh	r1, [r1, #2]
ARM GAS  C:\Users\haske\AppData\Local\Temp\cc7ZkKza.s 			page 14


  74              	.LVL4:
  75 003c 5B1A     		subs	r3, r3, r1
  76 003e 0133     		adds	r3, r3, #1
  77 0040 1BB2     		sxth	r3, r3
  78 0042 0393     		str	r3, [sp, #12]
  79              	.LVL5:
  80              	.LBE101:
  81              	.LBE100:
 534:..\..\..\arduinoLCD\test\Pain Drain\libraries\lvgl\src\draw\sw/lv_draw_sw_blend.c **** 
 535:..\..\..\arduinoLCD\test\Pain Drain\libraries\lvgl\src\draw\sw/lv_draw_sw_blend.c ****     int32_t w = lv_area_get_width(dest_area);
 536:..\..\..\arduinoLCD\test\Pain Drain\libraries\lvgl\src\draw\sw/lv_draw_sw_blend.c ****     int32_t h = lv_area_get_height(dest_area);
 537:..\..\..\arduinoLCD\test\Pain Drain\libraries\lvgl\src\draw\sw/lv_draw_sw_blend.c **** 
 538:..\..\..\arduinoLCD\test\Pain Drain\libraries\lvgl\src\draw\sw/lv_draw_sw_blend.c ****     int32_t x;
 539:..\..\..\arduinoLCD\test\Pain Drain\libraries\lvgl\src\draw\sw/lv_draw_sw_blend.c ****     int32_t y;
 540:..\..\..\arduinoLCD\test\Pain Drain\libraries\lvgl\src\draw\sw/lv_draw_sw_blend.c **** 
 541:..\..\..\arduinoLCD\test\Pain Drain\libraries\lvgl\src\draw\sw/lv_draw_sw_blend.c ****     lv_color_t (*blend_fp)(lv_color_t, lv_color_t, lv_opa_t);
 542:..\..\..\arduinoLCD\test\Pain Drain\libraries\lvgl\src\draw\sw/lv_draw_sw_blend.c ****     switch(blend_mode) {
  82              		.loc 1 542 0
  83 0044 022A     		cmp	r2, #2
  84 0046 09D0     		beq	.L19
  85 0048 032A     		cmp	r2, #3
  86 004a 04D0     		beq	.L4
  87 004c 012A     		cmp	r2, #1
  88 004e 73D1     		bne	.L1
 543:..\..\..\arduinoLCD\test\Pain Drain\libraries\lvgl\src\draw\sw/lv_draw_sw_blend.c ****         case LV_BLEND_MODE_ADDITIVE:
 544:..\..\..\arduinoLCD\test\Pain Drain\libraries\lvgl\src\draw\sw/lv_draw_sw_blend.c ****             blend_fp = color_blend_true_color_additive;
  89              		.loc 1 544 0
  90 0050 DFF8ECB0 		ldr	fp, .L25
  91 0054 04E0     		b	.L3
  92              	.L4:
  93              	.LVL6:
 545:..\..\..\arduinoLCD\test\Pain Drain\libraries\lvgl\src\draw\sw/lv_draw_sw_blend.c ****             break;
 546:..\..\..\arduinoLCD\test\Pain Drain\libraries\lvgl\src\draw\sw/lv_draw_sw_blend.c ****         case LV_BLEND_MODE_SUBTRACTIVE:
 547:..\..\..\arduinoLCD\test\Pain Drain\libraries\lvgl\src\draw\sw/lv_draw_sw_blend.c ****             blend_fp = color_blend_true_color_subtractive;
 548:..\..\..\arduinoLCD\test\Pain Drain\libraries\lvgl\src\draw\sw/lv_draw_sw_blend.c ****             break;
 549:..\..\..\arduinoLCD\test\Pain Drain\libraries\lvgl\src\draw\sw/lv_draw_sw_blend.c ****         case LV_BLEND_MODE_MULTIPLY:
 550:..\..\..\arduinoLCD\test\Pain Drain\libraries\lvgl\src\draw\sw/lv_draw_sw_blend.c ****             blend_fp = color_blend_true_color_multiply;
  94              		.loc 1 550 0
  95 0056 DFF8ECB0 		ldr	fp, .L25+4
 551:..\..\..\arduinoLCD\test\Pain Drain\libraries\lvgl\src\draw\sw/lv_draw_sw_blend.c ****             break;
  96              		.loc 1 551 0
  97 005a 01E0     		b	.L3
  98              	.LVL7:
  99              	.L19:
 547:..\..\..\arduinoLCD\test\Pain Drain\libraries\lvgl\src\draw\sw/lv_draw_sw_blend.c ****             break;
 100              		.loc 1 547 0
 101 005c DFF8E8B0 		ldr	fp, .L25+8
 102              	.L3:
 103              	.LVL8:
 552:..\..\..\arduinoLCD\test\Pain Drain\libraries\lvgl\src\draw\sw/lv_draw_sw_blend.c ****         default:
 553:..\..\..\arduinoLCD\test\Pain Drain\libraries\lvgl\src\draw\sw/lv_draw_sw_blend.c ****             LV_LOG_WARN("fill_blended: unsupported blend mode");
 554:..\..\..\arduinoLCD\test\Pain Drain\libraries\lvgl\src\draw\sw/lv_draw_sw_blend.c ****             return;
 555:..\..\..\arduinoLCD\test\Pain Drain\libraries\lvgl\src\draw\sw/lv_draw_sw_blend.c ****     }
 556:..\..\..\arduinoLCD\test\Pain Drain\libraries\lvgl\src\draw\sw/lv_draw_sw_blend.c **** 
 557:..\..\..\arduinoLCD\test\Pain Drain\libraries\lvgl\src\draw\sw/lv_draw_sw_blend.c ****     /*Simple fill (maybe with opacity), no masking*/
 558:..\..\..\arduinoLCD\test\Pain Drain\libraries\lvgl\src\draw\sw/lv_draw_sw_blend.c ****     if(mask == NULL) {
 104              		.loc 1 558 0
ARM GAS  C:\Users\haske\AppData\Local\Temp\cc7ZkKza.s 			page 15


 105 0060 36BB     		cbnz	r6, .L6
 106              	.LBB102:
 559:..\..\..\arduinoLCD\test\Pain Drain\libraries\lvgl\src\draw\sw/lv_draw_sw_blend.c ****         lv_color_t last_dest_color = dest_buf[0];
 107              		.loc 1 559 0
 108 0062 3D88     		ldrh	r5, [r7]
 560:..\..\..\arduinoLCD\test\Pain Drain\libraries\lvgl\src\draw\sw/lv_draw_sw_blend.c ****         lv_color_t last_res_color = blend_fp(color, dest_buf[0], opa);
 109              		.loc 1 560 0
 110 0064 029A     		ldr	r2, [sp, #8]
 111              	.LVL9:
 112 0066 2946     		mov	r1, r5	@ movhi
 113 0068 BDF80600 		ldrh	r0, [sp, #6]
 114              	.LVL10:
 115 006c D847     		blx	fp
 116              	.LVL11:
 561:..\..\..\arduinoLCD\test\Pain Drain\libraries\lvgl\src\draw\sw/lv_draw_sw_blend.c ****         for(y = 0; y < h; y++) {
 117              		.loc 1 561 0
 118 006e 4FF00008 		mov	r8, #0
 119 0072 DDF80CA0 		ldr	r10, [sp, #12]
 120 0076 18E0     		b	.L7
 121              	.LVL12:
 122              	.L9:
 562:..\..\..\arduinoLCD\test\Pain Drain\libraries\lvgl\src\draw\sw/lv_draw_sw_blend.c ****             for(x = 0; x < w; x++) {
 563:..\..\..\arduinoLCD\test\Pain Drain\libraries\lvgl\src\draw\sw/lv_draw_sw_blend.c ****                 if(last_dest_color.full != dest_buf[x].full) {
 123              		.loc 1 563 0
 124 0078 ABB2     		uxth	r3, r5
 125 007a 07EB4406 		add	r6, r7, r4, lsl #1
 126 007e 37F81420 		ldrh	r2, [r7, r4, lsl #1]
 127 0082 9342     		cmp	r3, r2
 128 0084 06D0     		beq	.L8
 564:..\..\..\arduinoLCD\test\Pain Drain\libraries\lvgl\src\draw\sw/lv_draw_sw_blend.c ****                     last_dest_color = dest_buf[x];
 129              		.loc 1 564 0
 130 0086 37F81450 		ldrh	r5, [r7, r4, lsl #1]
 131              	.LVL13:
 565:..\..\..\arduinoLCD\test\Pain Drain\libraries\lvgl\src\draw\sw/lv_draw_sw_blend.c ****                     last_res_color = blend_fp(color, dest_buf[x], opa);
 132              		.loc 1 565 0
 133 008a 029A     		ldr	r2, [sp, #8]
 134              	.LVL14:
 135 008c 2946     		mov	r1, r5	@ movhi
 136 008e BDF80600 		ldrh	r0, [sp, #6]
 137              	.LVL15:
 138 0092 D847     		blx	fp
 139              	.LVL16:
 140              	.L8:
 566:..\..\..\arduinoLCD\test\Pain Drain\libraries\lvgl\src\draw\sw/lv_draw_sw_blend.c ****                 }
 567:..\..\..\arduinoLCD\test\Pain Drain\libraries\lvgl\src\draw\sw/lv_draw_sw_blend.c ****                 dest_buf[x] = last_res_color;
 141              		.loc 1 567 0 discriminator 2
 142 0094 3080     		strh	r0, [r6]	@ movhi
 562:..\..\..\arduinoLCD\test\Pain Drain\libraries\lvgl\src\draw\sw/lv_draw_sw_blend.c ****                 if(last_dest_color.full != dest_buf[x].full) {
 143              		.loc 1 562 0 discriminator 2
 144 0096 0134     		adds	r4, r4, #1
 145              	.LVL17:
 146 0098 00E0     		b	.L10
 147              	.LVL18:
 148              	.L20:
 149 009a 0024     		movs	r4, #0
 150              	.L10:
 151              	.LVL19:
ARM GAS  C:\Users\haske\AppData\Local\Temp\cc7ZkKza.s 			page 16


 562:..\..\..\arduinoLCD\test\Pain Drain\libraries\lvgl\src\draw\sw/lv_draw_sw_blend.c ****                 if(last_dest_color.full != dest_buf[x].full) {
 152              		.loc 1 562 0 is_stmt 0 discriminator 1
 153 009c 4C45     		cmp	r4, r9
 154 009e EBDB     		blt	.L9
 568:..\..\..\arduinoLCD\test\Pain Drain\libraries\lvgl\src\draw\sw/lv_draw_sw_blend.c ****             }
 569:..\..\..\arduinoLCD\test\Pain Drain\libraries\lvgl\src\draw\sw/lv_draw_sw_blend.c ****             dest_buf += dest_stride;
 155              		.loc 1 569 0 is_stmt 1 discriminator 2
 156 00a0 049B     		ldr	r3, [sp, #16]
 157 00a2 07EB4307 		add	r7, r7, r3, lsl #1
 158              	.LVL20:
 561:..\..\..\arduinoLCD\test\Pain Drain\libraries\lvgl\src\draw\sw/lv_draw_sw_blend.c ****             for(x = 0; x < w; x++) {
 159              		.loc 1 561 0 discriminator 2
 160 00a6 08F10108 		add	r8, r8, #1
 161              	.LVL21:
 162              	.L7:
 561:..\..\..\arduinoLCD\test\Pain Drain\libraries\lvgl\src\draw\sw/lv_draw_sw_blend.c ****             for(x = 0; x < w; x++) {
 163              		.loc 1 561 0 is_stmt 0 discriminator 1
 164 00aa D045     		cmp	r8, r10
 165 00ac F5DB     		blt	.L20
 166 00ae 43E0     		b	.L1
 167              	.LVL22:
 168              	.L6:
 169              	.LBE102:
 170              	.LBB103:
 570:..\..\..\arduinoLCD\test\Pain Drain\libraries\lvgl\src\draw\sw/lv_draw_sw_blend.c ****         }
 571:..\..\..\arduinoLCD\test\Pain Drain\libraries\lvgl\src\draw\sw/lv_draw_sw_blend.c ****     }
 572:..\..\..\arduinoLCD\test\Pain Drain\libraries\lvgl\src\draw\sw/lv_draw_sw_blend.c ****     /*Masked*/
 573:..\..\..\arduinoLCD\test\Pain Drain\libraries\lvgl\src\draw\sw/lv_draw_sw_blend.c ****     else {
 574:..\..\..\arduinoLCD\test\Pain Drain\libraries\lvgl\src\draw\sw/lv_draw_sw_blend.c ****         /*Buffer the result color to avoid recalculating the same color*/
 575:..\..\..\arduinoLCD\test\Pain Drain\libraries\lvgl\src\draw\sw/lv_draw_sw_blend.c ****         lv_color_t last_dest_color;
 576:..\..\..\arduinoLCD\test\Pain Drain\libraries\lvgl\src\draw\sw/lv_draw_sw_blend.c ****         lv_color_t last_res_color;
 577:..\..\..\arduinoLCD\test\Pain Drain\libraries\lvgl\src\draw\sw/lv_draw_sw_blend.c ****         lv_opa_t last_mask = LV_OPA_TRANSP;
 578:..\..\..\arduinoLCD\test\Pain Drain\libraries\lvgl\src\draw\sw/lv_draw_sw_blend.c ****         last_dest_color = dest_buf[0];
 171              		.loc 1 578 0 is_stmt 1
 172 00b0 B7F800A0 		ldrh	r10, [r7]
 579:..\..\..\arduinoLCD\test\Pain Drain\libraries\lvgl\src\draw\sw/lv_draw_sw_blend.c ****         lv_opa_t opa_tmp = mask[0] >= LV_OPA_MAX ? opa : (uint32_t)((uint32_t)mask[0] * opa) >> 8;
 173              		.loc 1 579 0
 174 00b4 3378     		ldrb	r3, [r6]	@ zero_extendqisi2
 175              	.LVL23:
 176 00b6 FC2B     		cmp	r3, #252
 177 00b8 05D8     		bhi	.L21
 178              		.loc 1 579 0 is_stmt 0 discriminator 1
 179 00ba 029A     		ldr	r2, [sp, #8]
 180 00bc 03FB02F3 		mul	r3, r3, r2
 181 00c0 C3F30722 		ubfx	r2, r3, #8, #8
 182 00c4 00E0     		b	.L11
 183              	.L21:
 184              		.loc 1 579 0
 185 00c6 029A     		ldr	r2, [sp, #8]
 186              	.L11:
 187              	.LVL24:
 580:..\..\..\arduinoLCD\test\Pain Drain\libraries\lvgl\src\draw\sw/lv_draw_sw_blend.c ****         last_res_color = blend_fp(color, last_dest_color, opa_tmp);
 188              		.loc 1 580 0 is_stmt 1 discriminator 4
 189 00c8 5146     		mov	r1, r10	@ movhi
 190 00ca BDF80600 		ldrh	r0, [sp, #6]
 191              	.LVL25:
 192 00ce D847     		blx	fp
ARM GAS  C:\Users\haske\AppData\Local\Temp\cc7ZkKza.s 			page 17


 193              	.LVL26:
 577:..\..\..\arduinoLCD\test\Pain Drain\libraries\lvgl\src\draw\sw/lv_draw_sw_blend.c ****         last_dest_color = dest_buf[0];
 194              		.loc 1 577 0 discriminator 4
 195 00d0 0023     		movs	r3, #0
 196 00d2 5146     		mov	r1, r10	@ movhi
 197 00d4 9A46     		mov	r10, r3
 198              	.LVL27:
 581:..\..\..\arduinoLCD\test\Pain Drain\libraries\lvgl\src\draw\sw/lv_draw_sw_blend.c **** 
 582:..\..\..\arduinoLCD\test\Pain Drain\libraries\lvgl\src\draw\sw/lv_draw_sw_blend.c ****         for(y = 0; y < h; y++) {
 199              		.loc 1 582 0 discriminator 4
 200 00d6 2CE0     		b	.L12
 201              	.LVL28:
 202              	.L17:
 583:..\..\..\arduinoLCD\test\Pain Drain\libraries\lvgl\src\draw\sw/lv_draw_sw_blend.c ****             for(x = 0; x < w; x++) {
 584:..\..\..\arduinoLCD\test\Pain Drain\libraries\lvgl\src\draw\sw/lv_draw_sw_blend.c ****                 if(mask[x] == 0) continue;
 203              		.loc 1 584 0
 204 00d8 2546     		mov	r5, r4
 205 00da 06EB0408 		add	r8, r6, r4
 206 00de 325D     		ldrb	r2, [r6, r4]	@ zero_extendqisi2
 207 00e0 DAB1     		cbz	r2, .L13
 585:..\..\..\arduinoLCD\test\Pain Drain\libraries\lvgl\src\draw\sw/lv_draw_sw_blend.c ****                 if(mask[x] != last_mask || last_dest_color.full != dest_buf[x].full) {
 208              		.loc 1 585 0
 209 00e2 9342     		cmp	r3, r2
 210 00e4 05D1     		bne	.L14
 211              		.loc 1 585 0 is_stmt 0 discriminator 1
 212 00e6 1FFA81FE 		uxth	lr, r1
 213 00ea 37F814C0 		ldrh	ip, [r7, r4, lsl #1]
 214 00ee E645     		cmp	lr, ip
 215 00f0 11D0     		beq	.L15
 216              	.L14:
 586:..\..\..\arduinoLCD\test\Pain Drain\libraries\lvgl\src\draw\sw/lv_draw_sw_blend.c ****                     opa_tmp = mask[x] >= LV_OPA_MAX ? opa : (uint32_t)((uint32_t)mask[x] * opa) >> 
 217              		.loc 1 586 0 is_stmt 1
 218 00f2 FC2A     		cmp	r2, #252
 219 00f4 05D8     		bhi	.L22
 220              		.loc 1 586 0 is_stmt 0 discriminator 1
 221 00f6 029B     		ldr	r3, [sp, #8]
 222              	.LVL29:
 223 00f8 02FB03F2 		mul	r2, r2, r3
 224 00fc C2F30722 		ubfx	r2, r2, #8, #8
 225 0100 00E0     		b	.L16
 226              	.LVL30:
 227              	.L22:
 228              		.loc 1 586 0
 229 0102 029A     		ldr	r2, [sp, #8]
 230              	.LVL31:
 231              	.L16:
 587:..\..\..\arduinoLCD\test\Pain Drain\libraries\lvgl\src\draw\sw/lv_draw_sw_blend.c **** 
 588:..\..\..\arduinoLCD\test\Pain Drain\libraries\lvgl\src\draw\sw/lv_draw_sw_blend.c ****                     last_res_color = blend_fp(color, dest_buf[x], opa_tmp);
 232              		.loc 1 588 0 is_stmt 1 discriminator 4
 233 0104 37F81510 		ldrh	r1, [r7, r5, lsl #1]
 234              	.LVL32:
 235 0108 BDF80600 		ldrh	r0, [sp, #6]
 236              	.LVL33:
 237 010c D847     		blx	fp
 238              	.LVL34:
 589:..\..\..\arduinoLCD\test\Pain Drain\libraries\lvgl\src\draw\sw/lv_draw_sw_blend.c ****                     last_mask = mask[x];
 239              		.loc 1 589 0 discriminator 4
ARM GAS  C:\Users\haske\AppData\Local\Temp\cc7ZkKza.s 			page 18


 240 010e 98F80030 		ldrb	r3, [r8]	@ zero_extendqisi2
 241              	.LVL35:
 590:..\..\..\arduinoLCD\test\Pain Drain\libraries\lvgl\src\draw\sw/lv_draw_sw_blend.c ****                     last_dest_color.full = dest_buf[x].full;
 242              		.loc 1 590 0 discriminator 4
 243 0112 37F81510 		ldrh	r1, [r7, r5, lsl #1]
 244              	.LVL36:
 245              	.L15:
 591:..\..\..\arduinoLCD\test\Pain Drain\libraries\lvgl\src\draw\sw/lv_draw_sw_blend.c ****                 }
 592:..\..\..\arduinoLCD\test\Pain Drain\libraries\lvgl\src\draw\sw/lv_draw_sw_blend.c ****                 dest_buf[x] = last_res_color;
 246              		.loc 1 592 0
 247 0116 27F81500 		strh	r0, [r7, r5, lsl #1]	@ movhi
 248              	.L13:
 583:..\..\..\arduinoLCD\test\Pain Drain\libraries\lvgl\src\draw\sw/lv_draw_sw_blend.c ****                 if(mask[x] == 0) continue;
 249              		.loc 1 583 0 discriminator 2
 250 011a 0134     		adds	r4, r4, #1
 251              	.LVL37:
 252 011c 00E0     		b	.L18
 253              	.LVL38:
 254              	.L23:
 255 011e 0024     		movs	r4, #0
 256              	.LVL39:
 257              	.L18:
 583:..\..\..\arduinoLCD\test\Pain Drain\libraries\lvgl\src\draw\sw/lv_draw_sw_blend.c ****                 if(mask[x] == 0) continue;
 258              		.loc 1 583 0 is_stmt 0 discriminator 1
 259 0120 4C45     		cmp	r4, r9
 260 0122 D9DB     		blt	.L17
 593:..\..\..\arduinoLCD\test\Pain Drain\libraries\lvgl\src\draw\sw/lv_draw_sw_blend.c ****             }
 594:..\..\..\arduinoLCD\test\Pain Drain\libraries\lvgl\src\draw\sw/lv_draw_sw_blend.c ****             dest_buf += dest_stride;
 261              		.loc 1 594 0 is_stmt 1 discriminator 2
 262 0124 049A     		ldr	r2, [sp, #16]
 263 0126 07EB4207 		add	r7, r7, r2, lsl #1
 264              	.LVL40:
 595:..\..\..\arduinoLCD\test\Pain Drain\libraries\lvgl\src\draw\sw/lv_draw_sw_blend.c ****             mask += mask_stride;
 265              		.loc 1 595 0 discriminator 2
 266 012a 059A     		ldr	r2, [sp, #20]
 267 012c 1644     		add	r6, r6, r2
 268              	.LVL41:
 582:..\..\..\arduinoLCD\test\Pain Drain\libraries\lvgl\src\draw\sw/lv_draw_sw_blend.c ****             for(x = 0; x < w; x++) {
 269              		.loc 1 582 0 discriminator 2
 270 012e 0AF1010A 		add	r10, r10, #1
 271              	.LVL42:
 272              	.L12:
 582:..\..\..\arduinoLCD\test\Pain Drain\libraries\lvgl\src\draw\sw/lv_draw_sw_blend.c ****             for(x = 0; x < w; x++) {
 273              		.loc 1 582 0 is_stmt 0 discriminator 1
 274 0132 039A     		ldr	r2, [sp, #12]
 275 0134 9245     		cmp	r10, r2
 276 0136 F2DB     		blt	.L23
 277              	.LVL43:
 278              	.L1:
 279              	.LBE103:
 596:..\..\..\arduinoLCD\test\Pain Drain\libraries\lvgl\src\draw\sw/lv_draw_sw_blend.c ****         }
 597:..\..\..\arduinoLCD\test\Pain Drain\libraries\lvgl\src\draw\sw/lv_draw_sw_blend.c ****     }
 598:..\..\..\arduinoLCD\test\Pain Drain\libraries\lvgl\src\draw\sw/lv_draw_sw_blend.c **** }
 280              		.loc 1 598 0 is_stmt 1
 281 0138 07B0     		add	sp, sp, #28
 282              		.cfi_def_cfa_offset 36
 283              		@ sp needed
ARM GAS  C:\Users\haske\AppData\Local\Temp\cc7ZkKza.s 			page 19


 284 013a BDE8F08F 		pop	{r4, r5, r6, r7, r8, r9, r10, fp, pc}
 285              	.LVL44:
 286              	.L26:
 287 013e 00BF     		.align	2
 288              	.L25:
 289 0140 00000000 		.word	color_blend_true_color_additive
 290 0144 00000000 		.word	color_blend_true_color_multiply
 291 0148 00000000 		.word	color_blend_true_color_subtractive
 292              		.cfi_endproc
 293              	.LFE163:
 294              		.size	fill_blended, .-fill_blended
 295              		.section	.text.map_blended,"ax",%progbits
 296              		.align	2
 297              		.thumb
 298              		.thumb_func
 299              		.type	map_blended, %function
 300              	map_blended:
 301              	.LFB166:
 599:..\..\..\arduinoLCD\test\Pain Drain\libraries\lvgl\src\draw\sw/lv_draw_sw_blend.c **** #endif
 600:..\..\..\arduinoLCD\test\Pain Drain\libraries\lvgl\src\draw\sw/lv_draw_sw_blend.c **** 
 601:..\..\..\arduinoLCD\test\Pain Drain\libraries\lvgl\src\draw\sw/lv_draw_sw_blend.c **** static void map_set_px(lv_color_t * dest_buf, const lv_area_t * dest_area, lv_coord_t dest_stride,
 602:..\..\..\arduinoLCD\test\Pain Drain\libraries\lvgl\src\draw\sw/lv_draw_sw_blend.c ****                        const lv_color_t * src_buf, lv_coord_t src_stride, lv_opa_t opa, const lv_op
 603:..\..\..\arduinoLCD\test\Pain Drain\libraries\lvgl\src\draw\sw/lv_draw_sw_blend.c **** 
 604:..\..\..\arduinoLCD\test\Pain Drain\libraries\lvgl\src\draw\sw/lv_draw_sw_blend.c **** {
 605:..\..\..\arduinoLCD\test\Pain Drain\libraries\lvgl\src\draw\sw/lv_draw_sw_blend.c ****     lv_disp_t * disp = _lv_refr_get_disp_refreshing();
 606:..\..\..\arduinoLCD\test\Pain Drain\libraries\lvgl\src\draw\sw/lv_draw_sw_blend.c **** 
 607:..\..\..\arduinoLCD\test\Pain Drain\libraries\lvgl\src\draw\sw/lv_draw_sw_blend.c ****     int32_t w = lv_area_get_width(dest_area);
 608:..\..\..\arduinoLCD\test\Pain Drain\libraries\lvgl\src\draw\sw/lv_draw_sw_blend.c ****     int32_t h = lv_area_get_height(dest_area);
 609:..\..\..\arduinoLCD\test\Pain Drain\libraries\lvgl\src\draw\sw/lv_draw_sw_blend.c **** 
 610:..\..\..\arduinoLCD\test\Pain Drain\libraries\lvgl\src\draw\sw/lv_draw_sw_blend.c ****     int32_t x;
 611:..\..\..\arduinoLCD\test\Pain Drain\libraries\lvgl\src\draw\sw/lv_draw_sw_blend.c ****     int32_t y;
 612:..\..\..\arduinoLCD\test\Pain Drain\libraries\lvgl\src\draw\sw/lv_draw_sw_blend.c **** 
 613:..\..\..\arduinoLCD\test\Pain Drain\libraries\lvgl\src\draw\sw/lv_draw_sw_blend.c ****     if(mask == NULL) {
 614:..\..\..\arduinoLCD\test\Pain Drain\libraries\lvgl\src\draw\sw/lv_draw_sw_blend.c ****         for(y = 0; y < h; y++) {
 615:..\..\..\arduinoLCD\test\Pain Drain\libraries\lvgl\src\draw\sw/lv_draw_sw_blend.c ****             for(x = 0; x < w; x++) {
 616:..\..\..\arduinoLCD\test\Pain Drain\libraries\lvgl\src\draw\sw/lv_draw_sw_blend.c ****                 disp->driver->set_px_cb(disp->driver, (void *)dest_buf, dest_stride, dest_area->x1 
 617:..\..\..\arduinoLCD\test\Pain Drain\libraries\lvgl\src\draw\sw/lv_draw_sw_blend.c ****                                         opa);
 618:..\..\..\arduinoLCD\test\Pain Drain\libraries\lvgl\src\draw\sw/lv_draw_sw_blend.c ****             }
 619:..\..\..\arduinoLCD\test\Pain Drain\libraries\lvgl\src\draw\sw/lv_draw_sw_blend.c ****             src_buf += src_stride;
 620:..\..\..\arduinoLCD\test\Pain Drain\libraries\lvgl\src\draw\sw/lv_draw_sw_blend.c ****         }
 621:..\..\..\arduinoLCD\test\Pain Drain\libraries\lvgl\src\draw\sw/lv_draw_sw_blend.c ****     }
 622:..\..\..\arduinoLCD\test\Pain Drain\libraries\lvgl\src\draw\sw/lv_draw_sw_blend.c ****     else {
 623:..\..\..\arduinoLCD\test\Pain Drain\libraries\lvgl\src\draw\sw/lv_draw_sw_blend.c ****         for(y = 0; y < h; y++) {
 624:..\..\..\arduinoLCD\test\Pain Drain\libraries\lvgl\src\draw\sw/lv_draw_sw_blend.c ****             for(x = 0; x < w; x++) {
 625:..\..\..\arduinoLCD\test\Pain Drain\libraries\lvgl\src\draw\sw/lv_draw_sw_blend.c ****                 if(mask[x]) {
 626:..\..\..\arduinoLCD\test\Pain Drain\libraries\lvgl\src\draw\sw/lv_draw_sw_blend.c ****                     disp->driver->set_px_cb(disp->driver, (void *)dest_buf, dest_stride, dest_area-
 627:..\..\..\arduinoLCD\test\Pain Drain\libraries\lvgl\src\draw\sw/lv_draw_sw_blend.c ****                                             (uint32_t)((uint32_t)opa * mask[x]) >> 8);
 628:..\..\..\arduinoLCD\test\Pain Drain\libraries\lvgl\src\draw\sw/lv_draw_sw_blend.c ****                 }
 629:..\..\..\arduinoLCD\test\Pain Drain\libraries\lvgl\src\draw\sw/lv_draw_sw_blend.c ****             }
 630:..\..\..\arduinoLCD\test\Pain Drain\libraries\lvgl\src\draw\sw/lv_draw_sw_blend.c ****             mask += mask_stride;
 631:..\..\..\arduinoLCD\test\Pain Drain\libraries\lvgl\src\draw\sw/lv_draw_sw_blend.c ****             src_buf += src_stride;
 632:..\..\..\arduinoLCD\test\Pain Drain\libraries\lvgl\src\draw\sw/lv_draw_sw_blend.c ****         }
 633:..\..\..\arduinoLCD\test\Pain Drain\libraries\lvgl\src\draw\sw/lv_draw_sw_blend.c ****     }
 634:..\..\..\arduinoLCD\test\Pain Drain\libraries\lvgl\src\draw\sw/lv_draw_sw_blend.c **** }
 635:..\..\..\arduinoLCD\test\Pain Drain\libraries\lvgl\src\draw\sw/lv_draw_sw_blend.c **** 
 636:..\..\..\arduinoLCD\test\Pain Drain\libraries\lvgl\src\draw\sw/lv_draw_sw_blend.c **** LV_ATTRIBUTE_FAST_MEM static void map_normal(lv_color_t * dest_buf, const lv_area_t * dest_area, lv
 637:..\..\..\arduinoLCD\test\Pain Drain\libraries\lvgl\src\draw\sw/lv_draw_sw_blend.c ****                                              const lv_color_t * src_buf, lv_coord_t src_stride, lv_
ARM GAS  C:\Users\haske\AppData\Local\Temp\cc7ZkKza.s 			page 20


 638:..\..\..\arduinoLCD\test\Pain Drain\libraries\lvgl\src\draw\sw/lv_draw_sw_blend.c **** 
 639:..\..\..\arduinoLCD\test\Pain Drain\libraries\lvgl\src\draw\sw/lv_draw_sw_blend.c **** {
 640:..\..\..\arduinoLCD\test\Pain Drain\libraries\lvgl\src\draw\sw/lv_draw_sw_blend.c ****     int32_t w = lv_area_get_width(dest_area);
 641:..\..\..\arduinoLCD\test\Pain Drain\libraries\lvgl\src\draw\sw/lv_draw_sw_blend.c ****     int32_t h = lv_area_get_height(dest_area);
 642:..\..\..\arduinoLCD\test\Pain Drain\libraries\lvgl\src\draw\sw/lv_draw_sw_blend.c **** 
 643:..\..\..\arduinoLCD\test\Pain Drain\libraries\lvgl\src\draw\sw/lv_draw_sw_blend.c ****     int32_t x;
 644:..\..\..\arduinoLCD\test\Pain Drain\libraries\lvgl\src\draw\sw/lv_draw_sw_blend.c ****     int32_t y;
 645:..\..\..\arduinoLCD\test\Pain Drain\libraries\lvgl\src\draw\sw/lv_draw_sw_blend.c **** 
 646:..\..\..\arduinoLCD\test\Pain Drain\libraries\lvgl\src\draw\sw/lv_draw_sw_blend.c ****     /*Simple fill (maybe with opacity), no masking*/
 647:..\..\..\arduinoLCD\test\Pain Drain\libraries\lvgl\src\draw\sw/lv_draw_sw_blend.c ****     if(mask == NULL) {
 648:..\..\..\arduinoLCD\test\Pain Drain\libraries\lvgl\src\draw\sw/lv_draw_sw_blend.c ****         if(opa >= LV_OPA_MAX) {
 649:..\..\..\arduinoLCD\test\Pain Drain\libraries\lvgl\src\draw\sw/lv_draw_sw_blend.c ****             for(y = 0; y < h; y++) {
 650:..\..\..\arduinoLCD\test\Pain Drain\libraries\lvgl\src\draw\sw/lv_draw_sw_blend.c ****                 lv_memcpy(dest_buf, src_buf, w * sizeof(lv_color_t));
 651:..\..\..\arduinoLCD\test\Pain Drain\libraries\lvgl\src\draw\sw/lv_draw_sw_blend.c ****                 dest_buf += dest_stride;
 652:..\..\..\arduinoLCD\test\Pain Drain\libraries\lvgl\src\draw\sw/lv_draw_sw_blend.c ****                 src_buf += src_stride;
 653:..\..\..\arduinoLCD\test\Pain Drain\libraries\lvgl\src\draw\sw/lv_draw_sw_blend.c ****             }
 654:..\..\..\arduinoLCD\test\Pain Drain\libraries\lvgl\src\draw\sw/lv_draw_sw_blend.c ****         }
 655:..\..\..\arduinoLCD\test\Pain Drain\libraries\lvgl\src\draw\sw/lv_draw_sw_blend.c ****         else {
 656:..\..\..\arduinoLCD\test\Pain Drain\libraries\lvgl\src\draw\sw/lv_draw_sw_blend.c ****             for(y = 0; y < h; y++) {
 657:..\..\..\arduinoLCD\test\Pain Drain\libraries\lvgl\src\draw\sw/lv_draw_sw_blend.c ****                 for(x = 0; x < w; x++) {
 658:..\..\..\arduinoLCD\test\Pain Drain\libraries\lvgl\src\draw\sw/lv_draw_sw_blend.c ****                     dest_buf[x] = lv_color_mix(src_buf[x], dest_buf[x], opa);
 659:..\..\..\arduinoLCD\test\Pain Drain\libraries\lvgl\src\draw\sw/lv_draw_sw_blend.c ****                 }
 660:..\..\..\arduinoLCD\test\Pain Drain\libraries\lvgl\src\draw\sw/lv_draw_sw_blend.c ****                 dest_buf += dest_stride;
 661:..\..\..\arduinoLCD\test\Pain Drain\libraries\lvgl\src\draw\sw/lv_draw_sw_blend.c ****                 src_buf += src_stride;
 662:..\..\..\arduinoLCD\test\Pain Drain\libraries\lvgl\src\draw\sw/lv_draw_sw_blend.c ****             }
 663:..\..\..\arduinoLCD\test\Pain Drain\libraries\lvgl\src\draw\sw/lv_draw_sw_blend.c ****         }
 664:..\..\..\arduinoLCD\test\Pain Drain\libraries\lvgl\src\draw\sw/lv_draw_sw_blend.c ****     }
 665:..\..\..\arduinoLCD\test\Pain Drain\libraries\lvgl\src\draw\sw/lv_draw_sw_blend.c ****     /*Masked*/
 666:..\..\..\arduinoLCD\test\Pain Drain\libraries\lvgl\src\draw\sw/lv_draw_sw_blend.c ****     else {
 667:..\..\..\arduinoLCD\test\Pain Drain\libraries\lvgl\src\draw\sw/lv_draw_sw_blend.c ****         /*Only the mask matters*/
 668:..\..\..\arduinoLCD\test\Pain Drain\libraries\lvgl\src\draw\sw/lv_draw_sw_blend.c ****         if(opa > LV_OPA_MAX) {
 669:..\..\..\arduinoLCD\test\Pain Drain\libraries\lvgl\src\draw\sw/lv_draw_sw_blend.c ****             int32_t x_end4 = w - 4;
 670:..\..\..\arduinoLCD\test\Pain Drain\libraries\lvgl\src\draw\sw/lv_draw_sw_blend.c **** 
 671:..\..\..\arduinoLCD\test\Pain Drain\libraries\lvgl\src\draw\sw/lv_draw_sw_blend.c ****             for(y = 0; y < h; y++) {
 672:..\..\..\arduinoLCD\test\Pain Drain\libraries\lvgl\src\draw\sw/lv_draw_sw_blend.c ****                 const lv_opa_t * mask_tmp_x = mask;
 673:..\..\..\arduinoLCD\test\Pain Drain\libraries\lvgl\src\draw\sw/lv_draw_sw_blend.c **** #if 0
 674:..\..\..\arduinoLCD\test\Pain Drain\libraries\lvgl\src\draw\sw/lv_draw_sw_blend.c ****                 for(x = 0; x < w; x++) {
 675:..\..\..\arduinoLCD\test\Pain Drain\libraries\lvgl\src\draw\sw/lv_draw_sw_blend.c ****                     MAP_NORMAL_MASK_PX(x);
 676:..\..\..\arduinoLCD\test\Pain Drain\libraries\lvgl\src\draw\sw/lv_draw_sw_blend.c ****                 }
 677:..\..\..\arduinoLCD\test\Pain Drain\libraries\lvgl\src\draw\sw/lv_draw_sw_blend.c **** #else
 678:..\..\..\arduinoLCD\test\Pain Drain\libraries\lvgl\src\draw\sw/lv_draw_sw_blend.c ****                 for(x = 0; x < w && ((lv_uintptr_t)mask_tmp_x & 0x3); x++) {
 679:..\..\..\arduinoLCD\test\Pain Drain\libraries\lvgl\src\draw\sw/lv_draw_sw_blend.c ****                     MAP_NORMAL_MASK_PX(x)
 680:..\..\..\arduinoLCD\test\Pain Drain\libraries\lvgl\src\draw\sw/lv_draw_sw_blend.c ****                 }
 681:..\..\..\arduinoLCD\test\Pain Drain\libraries\lvgl\src\draw\sw/lv_draw_sw_blend.c **** 
 682:..\..\..\arduinoLCD\test\Pain Drain\libraries\lvgl\src\draw\sw/lv_draw_sw_blend.c ****                 uint32_t * mask32 = (uint32_t *)mask_tmp_x;
 683:..\..\..\arduinoLCD\test\Pain Drain\libraries\lvgl\src\draw\sw/lv_draw_sw_blend.c ****                 for(; x < x_end4; x += 4) {
 684:..\..\..\arduinoLCD\test\Pain Drain\libraries\lvgl\src\draw\sw/lv_draw_sw_blend.c ****                     if(*mask32) {
 685:..\..\..\arduinoLCD\test\Pain Drain\libraries\lvgl\src\draw\sw/lv_draw_sw_blend.c ****                         if((*mask32) == 0xFFFFFFFF) {
 686:..\..\..\arduinoLCD\test\Pain Drain\libraries\lvgl\src\draw\sw/lv_draw_sw_blend.c ****                             dest_buf[x] = src_buf[x];
 687:..\..\..\arduinoLCD\test\Pain Drain\libraries\lvgl\src\draw\sw/lv_draw_sw_blend.c ****                             dest_buf[x + 1] = src_buf[x + 1];
 688:..\..\..\arduinoLCD\test\Pain Drain\libraries\lvgl\src\draw\sw/lv_draw_sw_blend.c ****                             dest_buf[x + 2] = src_buf[x + 2];
 689:..\..\..\arduinoLCD\test\Pain Drain\libraries\lvgl\src\draw\sw/lv_draw_sw_blend.c ****                             dest_buf[x + 3] = src_buf[x + 3];
 690:..\..\..\arduinoLCD\test\Pain Drain\libraries\lvgl\src\draw\sw/lv_draw_sw_blend.c ****                         }
 691:..\..\..\arduinoLCD\test\Pain Drain\libraries\lvgl\src\draw\sw/lv_draw_sw_blend.c ****                         else {
 692:..\..\..\arduinoLCD\test\Pain Drain\libraries\lvgl\src\draw\sw/lv_draw_sw_blend.c ****                             mask_tmp_x = (const lv_opa_t *)mask32;
 693:..\..\..\arduinoLCD\test\Pain Drain\libraries\lvgl\src\draw\sw/lv_draw_sw_blend.c ****                             MAP_NORMAL_MASK_PX(x)
 694:..\..\..\arduinoLCD\test\Pain Drain\libraries\lvgl\src\draw\sw/lv_draw_sw_blend.c ****                             MAP_NORMAL_MASK_PX(x + 1)
ARM GAS  C:\Users\haske\AppData\Local\Temp\cc7ZkKza.s 			page 21


 695:..\..\..\arduinoLCD\test\Pain Drain\libraries\lvgl\src\draw\sw/lv_draw_sw_blend.c ****                             MAP_NORMAL_MASK_PX(x + 2)
 696:..\..\..\arduinoLCD\test\Pain Drain\libraries\lvgl\src\draw\sw/lv_draw_sw_blend.c ****                             MAP_NORMAL_MASK_PX(x + 3)
 697:..\..\..\arduinoLCD\test\Pain Drain\libraries\lvgl\src\draw\sw/lv_draw_sw_blend.c ****                         }
 698:..\..\..\arduinoLCD\test\Pain Drain\libraries\lvgl\src\draw\sw/lv_draw_sw_blend.c ****                     }
 699:..\..\..\arduinoLCD\test\Pain Drain\libraries\lvgl\src\draw\sw/lv_draw_sw_blend.c ****                     mask32++;
 700:..\..\..\arduinoLCD\test\Pain Drain\libraries\lvgl\src\draw\sw/lv_draw_sw_blend.c ****                 }
 701:..\..\..\arduinoLCD\test\Pain Drain\libraries\lvgl\src\draw\sw/lv_draw_sw_blend.c **** 
 702:..\..\..\arduinoLCD\test\Pain Drain\libraries\lvgl\src\draw\sw/lv_draw_sw_blend.c ****                 mask_tmp_x = (const lv_opa_t *)mask32;
 703:..\..\..\arduinoLCD\test\Pain Drain\libraries\lvgl\src\draw\sw/lv_draw_sw_blend.c ****                 for(; x < w ; x++) {
 704:..\..\..\arduinoLCD\test\Pain Drain\libraries\lvgl\src\draw\sw/lv_draw_sw_blend.c ****                     MAP_NORMAL_MASK_PX(x)
 705:..\..\..\arduinoLCD\test\Pain Drain\libraries\lvgl\src\draw\sw/lv_draw_sw_blend.c ****                 }
 706:..\..\..\arduinoLCD\test\Pain Drain\libraries\lvgl\src\draw\sw/lv_draw_sw_blend.c **** #endif
 707:..\..\..\arduinoLCD\test\Pain Drain\libraries\lvgl\src\draw\sw/lv_draw_sw_blend.c ****                 dest_buf += dest_stride;
 708:..\..\..\arduinoLCD\test\Pain Drain\libraries\lvgl\src\draw\sw/lv_draw_sw_blend.c ****                 src_buf += src_stride;
 709:..\..\..\arduinoLCD\test\Pain Drain\libraries\lvgl\src\draw\sw/lv_draw_sw_blend.c ****                 mask += mask_stride;
 710:..\..\..\arduinoLCD\test\Pain Drain\libraries\lvgl\src\draw\sw/lv_draw_sw_blend.c ****             }
 711:..\..\..\arduinoLCD\test\Pain Drain\libraries\lvgl\src\draw\sw/lv_draw_sw_blend.c ****         }
 712:..\..\..\arduinoLCD\test\Pain Drain\libraries\lvgl\src\draw\sw/lv_draw_sw_blend.c ****         /*Handle opa and mask values too*/
 713:..\..\..\arduinoLCD\test\Pain Drain\libraries\lvgl\src\draw\sw/lv_draw_sw_blend.c ****         else {
 714:..\..\..\arduinoLCD\test\Pain Drain\libraries\lvgl\src\draw\sw/lv_draw_sw_blend.c ****             for(y = 0; y < h; y++) {
 715:..\..\..\arduinoLCD\test\Pain Drain\libraries\lvgl\src\draw\sw/lv_draw_sw_blend.c ****                 for(x = 0; x < w; x++) {
 716:..\..\..\arduinoLCD\test\Pain Drain\libraries\lvgl\src\draw\sw/lv_draw_sw_blend.c ****                     if(mask[x]) {
 717:..\..\..\arduinoLCD\test\Pain Drain\libraries\lvgl\src\draw\sw/lv_draw_sw_blend.c ****                         lv_opa_t opa_tmp = mask[x] >= LV_OPA_MAX ? opa : ((opa * mask[x]) >> 8);
 718:..\..\..\arduinoLCD\test\Pain Drain\libraries\lvgl\src\draw\sw/lv_draw_sw_blend.c ****                         dest_buf[x] = lv_color_mix(src_buf[x], dest_buf[x], opa_tmp);
 719:..\..\..\arduinoLCD\test\Pain Drain\libraries\lvgl\src\draw\sw/lv_draw_sw_blend.c ****                     }
 720:..\..\..\arduinoLCD\test\Pain Drain\libraries\lvgl\src\draw\sw/lv_draw_sw_blend.c ****                 }
 721:..\..\..\arduinoLCD\test\Pain Drain\libraries\lvgl\src\draw\sw/lv_draw_sw_blend.c ****                 dest_buf += dest_stride;
 722:..\..\..\arduinoLCD\test\Pain Drain\libraries\lvgl\src\draw\sw/lv_draw_sw_blend.c ****                 src_buf += src_stride;
 723:..\..\..\arduinoLCD\test\Pain Drain\libraries\lvgl\src\draw\sw/lv_draw_sw_blend.c ****                 mask += mask_stride;
 724:..\..\..\arduinoLCD\test\Pain Drain\libraries\lvgl\src\draw\sw/lv_draw_sw_blend.c ****             }
 725:..\..\..\arduinoLCD\test\Pain Drain\libraries\lvgl\src\draw\sw/lv_draw_sw_blend.c ****         }
 726:..\..\..\arduinoLCD\test\Pain Drain\libraries\lvgl\src\draw\sw/lv_draw_sw_blend.c ****     }
 727:..\..\..\arduinoLCD\test\Pain Drain\libraries\lvgl\src\draw\sw/lv_draw_sw_blend.c **** }
 728:..\..\..\arduinoLCD\test\Pain Drain\libraries\lvgl\src\draw\sw/lv_draw_sw_blend.c **** 
 729:..\..\..\arduinoLCD\test\Pain Drain\libraries\lvgl\src\draw\sw/lv_draw_sw_blend.c **** 
 730:..\..\..\arduinoLCD\test\Pain Drain\libraries\lvgl\src\draw\sw/lv_draw_sw_blend.c **** 
 731:..\..\..\arduinoLCD\test\Pain Drain\libraries\lvgl\src\draw\sw/lv_draw_sw_blend.c **** #if LV_COLOR_SCREEN_TRANSP
 732:..\..\..\arduinoLCD\test\Pain Drain\libraries\lvgl\src\draw\sw/lv_draw_sw_blend.c **** LV_ATTRIBUTE_FAST_MEM static void map_argb(lv_color_t * dest_buf, const lv_area_t * dest_area, lv_c
 733:..\..\..\arduinoLCD\test\Pain Drain\libraries\lvgl\src\draw\sw/lv_draw_sw_blend.c ****                                            const lv_color_t * src_buf, lv_coord_t src_stride, lv_op
 734:..\..\..\arduinoLCD\test\Pain Drain\libraries\lvgl\src\draw\sw/lv_draw_sw_blend.c ****                                            const lv_opa_t * mask, lv_coord_t mask_stride, lv_blend_
 735:..\..\..\arduinoLCD\test\Pain Drain\libraries\lvgl\src\draw\sw/lv_draw_sw_blend.c **** 
 736:..\..\..\arduinoLCD\test\Pain Drain\libraries\lvgl\src\draw\sw/lv_draw_sw_blend.c **** {
 737:..\..\..\arduinoLCD\test\Pain Drain\libraries\lvgl\src\draw\sw/lv_draw_sw_blend.c ****     uint8_t * dest_buf8 = (uint8_t *) dest_buf;
 738:..\..\..\arduinoLCD\test\Pain Drain\libraries\lvgl\src\draw\sw/lv_draw_sw_blend.c **** 
 739:..\..\..\arduinoLCD\test\Pain Drain\libraries\lvgl\src\draw\sw/lv_draw_sw_blend.c ****     int32_t w = lv_area_get_width(dest_area);
 740:..\..\..\arduinoLCD\test\Pain Drain\libraries\lvgl\src\draw\sw/lv_draw_sw_blend.c ****     int32_t h = lv_area_get_height(dest_area);
 741:..\..\..\arduinoLCD\test\Pain Drain\libraries\lvgl\src\draw\sw/lv_draw_sw_blend.c **** 
 742:..\..\..\arduinoLCD\test\Pain Drain\libraries\lvgl\src\draw\sw/lv_draw_sw_blend.c ****     int32_t x;
 743:..\..\..\arduinoLCD\test\Pain Drain\libraries\lvgl\src\draw\sw/lv_draw_sw_blend.c ****     int32_t y;
 744:..\..\..\arduinoLCD\test\Pain Drain\libraries\lvgl\src\draw\sw/lv_draw_sw_blend.c **** 
 745:..\..\..\arduinoLCD\test\Pain Drain\libraries\lvgl\src\draw\sw/lv_draw_sw_blend.c ****     lv_color_t (*blend_fp)(lv_color_t, lv_color_t, lv_opa_t);
 746:..\..\..\arduinoLCD\test\Pain Drain\libraries\lvgl\src\draw\sw/lv_draw_sw_blend.c ****     switch(blend_mode) {
 747:..\..\..\arduinoLCD\test\Pain Drain\libraries\lvgl\src\draw\sw/lv_draw_sw_blend.c ****         case LV_BLEND_MODE_ADDITIVE:
 748:..\..\..\arduinoLCD\test\Pain Drain\libraries\lvgl\src\draw\sw/lv_draw_sw_blend.c ****             blend_fp = color_blend_true_color_additive;
 749:..\..\..\arduinoLCD\test\Pain Drain\libraries\lvgl\src\draw\sw/lv_draw_sw_blend.c ****             break;
 750:..\..\..\arduinoLCD\test\Pain Drain\libraries\lvgl\src\draw\sw/lv_draw_sw_blend.c ****         case LV_BLEND_MODE_SUBTRACTIVE:
 751:..\..\..\arduinoLCD\test\Pain Drain\libraries\lvgl\src\draw\sw/lv_draw_sw_blend.c ****             blend_fp = color_blend_true_color_subtractive;
ARM GAS  C:\Users\haske\AppData\Local\Temp\cc7ZkKza.s 			page 22


 752:..\..\..\arduinoLCD\test\Pain Drain\libraries\lvgl\src\draw\sw/lv_draw_sw_blend.c ****             break;
 753:..\..\..\arduinoLCD\test\Pain Drain\libraries\lvgl\src\draw\sw/lv_draw_sw_blend.c ****         case LV_BLEND_MODE_MULTIPLY:
 754:..\..\..\arduinoLCD\test\Pain Drain\libraries\lvgl\src\draw\sw/lv_draw_sw_blend.c ****             blend_fp = color_blend_true_color_multiply;
 755:..\..\..\arduinoLCD\test\Pain Drain\libraries\lvgl\src\draw\sw/lv_draw_sw_blend.c ****             break;
 756:..\..\..\arduinoLCD\test\Pain Drain\libraries\lvgl\src\draw\sw/lv_draw_sw_blend.c ****         default:
 757:..\..\..\arduinoLCD\test\Pain Drain\libraries\lvgl\src\draw\sw/lv_draw_sw_blend.c ****             blend_fp = NULL;
 758:..\..\..\arduinoLCD\test\Pain Drain\libraries\lvgl\src\draw\sw/lv_draw_sw_blend.c ****     }
 759:..\..\..\arduinoLCD\test\Pain Drain\libraries\lvgl\src\draw\sw/lv_draw_sw_blend.c **** 
 760:..\..\..\arduinoLCD\test\Pain Drain\libraries\lvgl\src\draw\sw/lv_draw_sw_blend.c ****     /*Simple fill (maybe with opacity), no masking*/
 761:..\..\..\arduinoLCD\test\Pain Drain\libraries\lvgl\src\draw\sw/lv_draw_sw_blend.c ****     if(mask == NULL) {
 762:..\..\..\arduinoLCD\test\Pain Drain\libraries\lvgl\src\draw\sw/lv_draw_sw_blend.c ****         if(opa >= LV_OPA_MAX) {
 763:..\..\..\arduinoLCD\test\Pain Drain\libraries\lvgl\src\draw\sw/lv_draw_sw_blend.c ****             if(blend_fp == NULL && LV_COLOR_DEPTH == 32) {
 764:..\..\..\arduinoLCD\test\Pain Drain\libraries\lvgl\src\draw\sw/lv_draw_sw_blend.c ****                 for(y = 0; y < h; y++) {
 765:..\..\..\arduinoLCD\test\Pain Drain\libraries\lvgl\src\draw\sw/lv_draw_sw_blend.c ****                     lv_memcpy(dest_buf, src_buf, w * sizeof(lv_color_t));
 766:..\..\..\arduinoLCD\test\Pain Drain\libraries\lvgl\src\draw\sw/lv_draw_sw_blend.c ****                     dest_buf += dest_stride;
 767:..\..\..\arduinoLCD\test\Pain Drain\libraries\lvgl\src\draw\sw/lv_draw_sw_blend.c ****                     src_buf += src_stride;
 768:..\..\..\arduinoLCD\test\Pain Drain\libraries\lvgl\src\draw\sw/lv_draw_sw_blend.c ****                 }
 769:..\..\..\arduinoLCD\test\Pain Drain\libraries\lvgl\src\draw\sw/lv_draw_sw_blend.c ****             }
 770:..\..\..\arduinoLCD\test\Pain Drain\libraries\lvgl\src\draw\sw/lv_draw_sw_blend.c ****             else {
 771:..\..\..\arduinoLCD\test\Pain Drain\libraries\lvgl\src\draw\sw/lv_draw_sw_blend.c ****                 uint8_t * dest_buf8_row = dest_buf8;
 772:..\..\..\arduinoLCD\test\Pain Drain\libraries\lvgl\src\draw\sw/lv_draw_sw_blend.c ****                 for(y = 0; y < h; y++) {
 773:..\..\..\arduinoLCD\test\Pain Drain\libraries\lvgl\src\draw\sw/lv_draw_sw_blend.c ****                     if(blend_fp == NULL) {
 774:..\..\..\arduinoLCD\test\Pain Drain\libraries\lvgl\src\draw\sw/lv_draw_sw_blend.c ****                         for(x = 0; x < w; x++) {
 775:..\..\..\arduinoLCD\test\Pain Drain\libraries\lvgl\src\draw\sw/lv_draw_sw_blend.c ****                             set_px_argb(dest_buf8, src_buf[x], LV_OPA_COVER);
 776:..\..\..\arduinoLCD\test\Pain Drain\libraries\lvgl\src\draw\sw/lv_draw_sw_blend.c ****                             dest_buf8 += LV_IMG_PX_SIZE_ALPHA_BYTE;
 777:..\..\..\arduinoLCD\test\Pain Drain\libraries\lvgl\src\draw\sw/lv_draw_sw_blend.c ****                         }
 778:..\..\..\arduinoLCD\test\Pain Drain\libraries\lvgl\src\draw\sw/lv_draw_sw_blend.c ****                     }
 779:..\..\..\arduinoLCD\test\Pain Drain\libraries\lvgl\src\draw\sw/lv_draw_sw_blend.c ****                     else {
 780:..\..\..\arduinoLCD\test\Pain Drain\libraries\lvgl\src\draw\sw/lv_draw_sw_blend.c ****                         for(x = 0; x < w; x++) {
 781:..\..\..\arduinoLCD\test\Pain Drain\libraries\lvgl\src\draw\sw/lv_draw_sw_blend.c ****                             set_px_argb_blend(dest_buf8, src_buf[x], LV_OPA_COVER, blend_fp);
 782:..\..\..\arduinoLCD\test\Pain Drain\libraries\lvgl\src\draw\sw/lv_draw_sw_blend.c ****                             dest_buf8 += LV_IMG_PX_SIZE_ALPHA_BYTE;
 783:..\..\..\arduinoLCD\test\Pain Drain\libraries\lvgl\src\draw\sw/lv_draw_sw_blend.c ****                         }
 784:..\..\..\arduinoLCD\test\Pain Drain\libraries\lvgl\src\draw\sw/lv_draw_sw_blend.c ****                     }
 785:..\..\..\arduinoLCD\test\Pain Drain\libraries\lvgl\src\draw\sw/lv_draw_sw_blend.c **** 
 786:..\..\..\arduinoLCD\test\Pain Drain\libraries\lvgl\src\draw\sw/lv_draw_sw_blend.c ****                     dest_buf8_row += dest_stride * LV_IMG_PX_SIZE_ALPHA_BYTE;
 787:..\..\..\arduinoLCD\test\Pain Drain\libraries\lvgl\src\draw\sw/lv_draw_sw_blend.c ****                     dest_buf8 = dest_buf8_row;
 788:..\..\..\arduinoLCD\test\Pain Drain\libraries\lvgl\src\draw\sw/lv_draw_sw_blend.c ****                     src_buf += src_stride;
 789:..\..\..\arduinoLCD\test\Pain Drain\libraries\lvgl\src\draw\sw/lv_draw_sw_blend.c ****                 }
 790:..\..\..\arduinoLCD\test\Pain Drain\libraries\lvgl\src\draw\sw/lv_draw_sw_blend.c ****             }
 791:..\..\..\arduinoLCD\test\Pain Drain\libraries\lvgl\src\draw\sw/lv_draw_sw_blend.c ****         }
 792:..\..\..\arduinoLCD\test\Pain Drain\libraries\lvgl\src\draw\sw/lv_draw_sw_blend.c ****         /*No mask but opacity*/
 793:..\..\..\arduinoLCD\test\Pain Drain\libraries\lvgl\src\draw\sw/lv_draw_sw_blend.c ****         else {
 794:..\..\..\arduinoLCD\test\Pain Drain\libraries\lvgl\src\draw\sw/lv_draw_sw_blend.c ****             uint8_t * dest_buf8_row = dest_buf8;
 795:..\..\..\arduinoLCD\test\Pain Drain\libraries\lvgl\src\draw\sw/lv_draw_sw_blend.c ****             for(y = 0; y < h; y++) {
 796:..\..\..\arduinoLCD\test\Pain Drain\libraries\lvgl\src\draw\sw/lv_draw_sw_blend.c ****                 if(blend_fp == NULL) {
 797:..\..\..\arduinoLCD\test\Pain Drain\libraries\lvgl\src\draw\sw/lv_draw_sw_blend.c ****                     for(x = 0; x < w; x++) {
 798:..\..\..\arduinoLCD\test\Pain Drain\libraries\lvgl\src\draw\sw/lv_draw_sw_blend.c ****                         set_px_argb(dest_buf8, src_buf[x], opa);
 799:..\..\..\arduinoLCD\test\Pain Drain\libraries\lvgl\src\draw\sw/lv_draw_sw_blend.c ****                         dest_buf8 += LV_IMG_PX_SIZE_ALPHA_BYTE;
 800:..\..\..\arduinoLCD\test\Pain Drain\libraries\lvgl\src\draw\sw/lv_draw_sw_blend.c ****                     }
 801:..\..\..\arduinoLCD\test\Pain Drain\libraries\lvgl\src\draw\sw/lv_draw_sw_blend.c ****                 }
 802:..\..\..\arduinoLCD\test\Pain Drain\libraries\lvgl\src\draw\sw/lv_draw_sw_blend.c ****                 else {
 803:..\..\..\arduinoLCD\test\Pain Drain\libraries\lvgl\src\draw\sw/lv_draw_sw_blend.c ****                     for(x = 0; x < w; x++) {
 804:..\..\..\arduinoLCD\test\Pain Drain\libraries\lvgl\src\draw\sw/lv_draw_sw_blend.c ****                         set_px_argb_blend(dest_buf8, src_buf[x], opa, blend_fp);
 805:..\..\..\arduinoLCD\test\Pain Drain\libraries\lvgl\src\draw\sw/lv_draw_sw_blend.c ****                         dest_buf8 += LV_IMG_PX_SIZE_ALPHA_BYTE;
 806:..\..\..\arduinoLCD\test\Pain Drain\libraries\lvgl\src\draw\sw/lv_draw_sw_blend.c ****                     }
 807:..\..\..\arduinoLCD\test\Pain Drain\libraries\lvgl\src\draw\sw/lv_draw_sw_blend.c ****                 }
 808:..\..\..\arduinoLCD\test\Pain Drain\libraries\lvgl\src\draw\sw/lv_draw_sw_blend.c **** 
ARM GAS  C:\Users\haske\AppData\Local\Temp\cc7ZkKza.s 			page 23


 809:..\..\..\arduinoLCD\test\Pain Drain\libraries\lvgl\src\draw\sw/lv_draw_sw_blend.c ****                 dest_buf8_row += dest_stride * LV_IMG_PX_SIZE_ALPHA_BYTE;
 810:..\..\..\arduinoLCD\test\Pain Drain\libraries\lvgl\src\draw\sw/lv_draw_sw_blend.c ****                 dest_buf8 = dest_buf8_row;
 811:..\..\..\arduinoLCD\test\Pain Drain\libraries\lvgl\src\draw\sw/lv_draw_sw_blend.c ****                 src_buf += src_stride;
 812:..\..\..\arduinoLCD\test\Pain Drain\libraries\lvgl\src\draw\sw/lv_draw_sw_blend.c ****             }
 813:..\..\..\arduinoLCD\test\Pain Drain\libraries\lvgl\src\draw\sw/lv_draw_sw_blend.c ****         }
 814:..\..\..\arduinoLCD\test\Pain Drain\libraries\lvgl\src\draw\sw/lv_draw_sw_blend.c ****     }
 815:..\..\..\arduinoLCD\test\Pain Drain\libraries\lvgl\src\draw\sw/lv_draw_sw_blend.c ****     /*Masked*/
 816:..\..\..\arduinoLCD\test\Pain Drain\libraries\lvgl\src\draw\sw/lv_draw_sw_blend.c ****     else {
 817:..\..\..\arduinoLCD\test\Pain Drain\libraries\lvgl\src\draw\sw/lv_draw_sw_blend.c ****         /*Only the mask matters*/
 818:..\..\..\arduinoLCD\test\Pain Drain\libraries\lvgl\src\draw\sw/lv_draw_sw_blend.c ****         if(opa > LV_OPA_MAX) {
 819:..\..\..\arduinoLCD\test\Pain Drain\libraries\lvgl\src\draw\sw/lv_draw_sw_blend.c ****             uint8_t * dest_buf8_row = dest_buf8;
 820:..\..\..\arduinoLCD\test\Pain Drain\libraries\lvgl\src\draw\sw/lv_draw_sw_blend.c ****             for(y = 0; y < h; y++) {
 821:..\..\..\arduinoLCD\test\Pain Drain\libraries\lvgl\src\draw\sw/lv_draw_sw_blend.c ****                 if(blend_fp == NULL) {
 822:..\..\..\arduinoLCD\test\Pain Drain\libraries\lvgl\src\draw\sw/lv_draw_sw_blend.c ****                     for(x = 0; x < w; x++) {
 823:..\..\..\arduinoLCD\test\Pain Drain\libraries\lvgl\src\draw\sw/lv_draw_sw_blend.c ****                         set_px_argb(dest_buf8, src_buf[x], mask[x]);
 824:..\..\..\arduinoLCD\test\Pain Drain\libraries\lvgl\src\draw\sw/lv_draw_sw_blend.c ****                         dest_buf8 += LV_IMG_PX_SIZE_ALPHA_BYTE;
 825:..\..\..\arduinoLCD\test\Pain Drain\libraries\lvgl\src\draw\sw/lv_draw_sw_blend.c ****                     }
 826:..\..\..\arduinoLCD\test\Pain Drain\libraries\lvgl\src\draw\sw/lv_draw_sw_blend.c ****                 }
 827:..\..\..\arduinoLCD\test\Pain Drain\libraries\lvgl\src\draw\sw/lv_draw_sw_blend.c ****                 else {
 828:..\..\..\arduinoLCD\test\Pain Drain\libraries\lvgl\src\draw\sw/lv_draw_sw_blend.c ****                     for(x = 0; x < w; x++) {
 829:..\..\..\arduinoLCD\test\Pain Drain\libraries\lvgl\src\draw\sw/lv_draw_sw_blend.c ****                         set_px_argb_blend(dest_buf8, src_buf[x], mask[x], blend_fp);
 830:..\..\..\arduinoLCD\test\Pain Drain\libraries\lvgl\src\draw\sw/lv_draw_sw_blend.c ****                         dest_buf8 += LV_IMG_PX_SIZE_ALPHA_BYTE;
 831:..\..\..\arduinoLCD\test\Pain Drain\libraries\lvgl\src\draw\sw/lv_draw_sw_blend.c ****                     }
 832:..\..\..\arduinoLCD\test\Pain Drain\libraries\lvgl\src\draw\sw/lv_draw_sw_blend.c ****                 }
 833:..\..\..\arduinoLCD\test\Pain Drain\libraries\lvgl\src\draw\sw/lv_draw_sw_blend.c ****                 dest_buf8_row += dest_stride * LV_IMG_PX_SIZE_ALPHA_BYTE;
 834:..\..\..\arduinoLCD\test\Pain Drain\libraries\lvgl\src\draw\sw/lv_draw_sw_blend.c ****                 dest_buf8 = dest_buf8_row;
 835:..\..\..\arduinoLCD\test\Pain Drain\libraries\lvgl\src\draw\sw/lv_draw_sw_blend.c ****                 src_buf += src_stride;
 836:..\..\..\arduinoLCD\test\Pain Drain\libraries\lvgl\src\draw\sw/lv_draw_sw_blend.c ****                 mask += mask_stride;
 837:..\..\..\arduinoLCD\test\Pain Drain\libraries\lvgl\src\draw\sw/lv_draw_sw_blend.c ****             }
 838:..\..\..\arduinoLCD\test\Pain Drain\libraries\lvgl\src\draw\sw/lv_draw_sw_blend.c ****         }
 839:..\..\..\arduinoLCD\test\Pain Drain\libraries\lvgl\src\draw\sw/lv_draw_sw_blend.c ****         /*Handle opa and mask values too*/
 840:..\..\..\arduinoLCD\test\Pain Drain\libraries\lvgl\src\draw\sw/lv_draw_sw_blend.c ****         else {
 841:..\..\..\arduinoLCD\test\Pain Drain\libraries\lvgl\src\draw\sw/lv_draw_sw_blend.c ****             uint8_t * dest_buf8_row = dest_buf8;
 842:..\..\..\arduinoLCD\test\Pain Drain\libraries\lvgl\src\draw\sw/lv_draw_sw_blend.c ****             for(y = 0; y < h; y++) {
 843:..\..\..\arduinoLCD\test\Pain Drain\libraries\lvgl\src\draw\sw/lv_draw_sw_blend.c ****                 if(blend_fp == NULL) {
 844:..\..\..\arduinoLCD\test\Pain Drain\libraries\lvgl\src\draw\sw/lv_draw_sw_blend.c ****                     for(x = 0; x < w; x++) {
 845:..\..\..\arduinoLCD\test\Pain Drain\libraries\lvgl\src\draw\sw/lv_draw_sw_blend.c ****                         if(mask[x]) {
 846:..\..\..\arduinoLCD\test\Pain Drain\libraries\lvgl\src\draw\sw/lv_draw_sw_blend.c ****                             lv_opa_t opa_tmp = mask[x] >= LV_OPA_MAX ? opa : ((opa * mask[x]) >> 8)
 847:..\..\..\arduinoLCD\test\Pain Drain\libraries\lvgl\src\draw\sw/lv_draw_sw_blend.c ****                             set_px_argb(dest_buf8, src_buf[x], opa_tmp);
 848:..\..\..\arduinoLCD\test\Pain Drain\libraries\lvgl\src\draw\sw/lv_draw_sw_blend.c ****                         }
 849:..\..\..\arduinoLCD\test\Pain Drain\libraries\lvgl\src\draw\sw/lv_draw_sw_blend.c ****                         dest_buf8 += LV_IMG_PX_SIZE_ALPHA_BYTE;
 850:..\..\..\arduinoLCD\test\Pain Drain\libraries\lvgl\src\draw\sw/lv_draw_sw_blend.c ****                     }
 851:..\..\..\arduinoLCD\test\Pain Drain\libraries\lvgl\src\draw\sw/lv_draw_sw_blend.c ****                 }
 852:..\..\..\arduinoLCD\test\Pain Drain\libraries\lvgl\src\draw\sw/lv_draw_sw_blend.c ****                 else {
 853:..\..\..\arduinoLCD\test\Pain Drain\libraries\lvgl\src\draw\sw/lv_draw_sw_blend.c ****                     for(x = 0; x < w; x++) {
 854:..\..\..\arduinoLCD\test\Pain Drain\libraries\lvgl\src\draw\sw/lv_draw_sw_blend.c ****                         if(mask[x]) {
 855:..\..\..\arduinoLCD\test\Pain Drain\libraries\lvgl\src\draw\sw/lv_draw_sw_blend.c ****                             lv_opa_t opa_tmp = mask[x] >= LV_OPA_MAX ? opa : ((opa * mask[x]) >> 8)
 856:..\..\..\arduinoLCD\test\Pain Drain\libraries\lvgl\src\draw\sw/lv_draw_sw_blend.c ****                             set_px_argb_blend(dest_buf8, src_buf[x], opa_tmp, blend_fp);
 857:..\..\..\arduinoLCD\test\Pain Drain\libraries\lvgl\src\draw\sw/lv_draw_sw_blend.c ****                         }
 858:..\..\..\arduinoLCD\test\Pain Drain\libraries\lvgl\src\draw\sw/lv_draw_sw_blend.c ****                         dest_buf8 += LV_IMG_PX_SIZE_ALPHA_BYTE;
 859:..\..\..\arduinoLCD\test\Pain Drain\libraries\lvgl\src\draw\sw/lv_draw_sw_blend.c ****                     }
 860:..\..\..\arduinoLCD\test\Pain Drain\libraries\lvgl\src\draw\sw/lv_draw_sw_blend.c ****                 }
 861:..\..\..\arduinoLCD\test\Pain Drain\libraries\lvgl\src\draw\sw/lv_draw_sw_blend.c ****                 dest_buf8_row += dest_stride * LV_IMG_PX_SIZE_ALPHA_BYTE;
 862:..\..\..\arduinoLCD\test\Pain Drain\libraries\lvgl\src\draw\sw/lv_draw_sw_blend.c ****                 dest_buf8 = dest_buf8_row;
 863:..\..\..\arduinoLCD\test\Pain Drain\libraries\lvgl\src\draw\sw/lv_draw_sw_blend.c ****                 src_buf += src_stride;
 864:..\..\..\arduinoLCD\test\Pain Drain\libraries\lvgl\src\draw\sw/lv_draw_sw_blend.c ****                 mask += mask_stride;
 865:..\..\..\arduinoLCD\test\Pain Drain\libraries\lvgl\src\draw\sw/lv_draw_sw_blend.c ****             }
ARM GAS  C:\Users\haske\AppData\Local\Temp\cc7ZkKza.s 			page 24


 866:..\..\..\arduinoLCD\test\Pain Drain\libraries\lvgl\src\draw\sw/lv_draw_sw_blend.c ****         }
 867:..\..\..\arduinoLCD\test\Pain Drain\libraries\lvgl\src\draw\sw/lv_draw_sw_blend.c ****     }
 868:..\..\..\arduinoLCD\test\Pain Drain\libraries\lvgl\src\draw\sw/lv_draw_sw_blend.c **** }
 869:..\..\..\arduinoLCD\test\Pain Drain\libraries\lvgl\src\draw\sw/lv_draw_sw_blend.c **** #endif
 870:..\..\..\arduinoLCD\test\Pain Drain\libraries\lvgl\src\draw\sw/lv_draw_sw_blend.c **** 
 871:..\..\..\arduinoLCD\test\Pain Drain\libraries\lvgl\src\draw\sw/lv_draw_sw_blend.c **** 
 872:..\..\..\arduinoLCD\test\Pain Drain\libraries\lvgl\src\draw\sw/lv_draw_sw_blend.c **** #if LV_DRAW_COMPLEX
 873:..\..\..\arduinoLCD\test\Pain Drain\libraries\lvgl\src\draw\sw/lv_draw_sw_blend.c **** static void map_blended(lv_color_t * dest_buf, const lv_area_t * dest_area, lv_coord_t dest_stride,
 874:..\..\..\arduinoLCD\test\Pain Drain\libraries\lvgl\src\draw\sw/lv_draw_sw_blend.c ****                         const lv_color_t * src_buf, lv_coord_t src_stride, lv_opa_t opa,
 875:..\..\..\arduinoLCD\test\Pain Drain\libraries\lvgl\src\draw\sw/lv_draw_sw_blend.c ****                         const lv_opa_t * mask, lv_coord_t mask_stride, lv_blend_mode_t blend_mode)
 876:..\..\..\arduinoLCD\test\Pain Drain\libraries\lvgl\src\draw\sw/lv_draw_sw_blend.c **** {
 302              		.loc 1 876 0
 303              		.cfi_startproc
 304              		@ args = 20, pretend = 0, frame = 32
 305              		@ frame_needed = 0, uses_anonymous_args = 0
 306              	.LVL45:
 307 0000 2DE9F04F 		push	{r4, r5, r6, r7, r8, r9, r10, fp, lr}
 308              		.cfi_def_cfa_offset 36
 309              		.cfi_offset 4, -36
 310              		.cfi_offset 5, -32
 311              		.cfi_offset 6, -28
 312              		.cfi_offset 7, -24
 313              		.cfi_offset 8, -20
 314              		.cfi_offset 9, -16
 315              		.cfi_offset 10, -12
 316              		.cfi_offset 11, -8
 317              		.cfi_offset 14, -4
 318 0004 89B0     		sub	sp, sp, #36
 319              		.cfi_def_cfa_offset 72
 320 0006 8046     		mov	r8, r0
 321 0008 0592     		str	r2, [sp, #20]
 322 000a 9946     		mov	r9, r3
 323 000c BDF94830 		ldrsh	r3, [sp, #72]
 324              	.LVL46:
 325 0010 0693     		str	r3, [sp, #24]
 326 0012 9DF84C30 		ldrb	r3, [sp, #76]	@ zero_extendqisi2
 327 0016 0193     		str	r3, [sp, #4]
 328 0018 DDF850B0 		ldr	fp, [sp, #80]
 329 001c BDF95430 		ldrsh	r3, [sp, #84]
 330 0020 0793     		str	r3, [sp, #28]
 331 0022 9DF85820 		ldrb	r2, [sp, #88]	@ zero_extendqisi2
 332              	.LVL47:
 333              	.LBB104:
 334              	.LBB105:
 125:c:\projects\paindrain\arduinolcd\test\pain drain\libraries\lvgl\src\misc\lv_area.h **** }
 335              		.loc 2 125 0
 336 0026 B1F90430 		ldrsh	r3, [r1, #4]
 337 002a B1F900A0 		ldrsh	r10, [r1]
 338 002e CAEB030A 		rsb	r10, r10, r3
 339 0032 0AF1010A 		add	r10, r10, #1
 340 0036 0FFA8AFA 		sxth	r10, r10
 341              	.LVL48:
 342              	.LBE105:
 343              	.LBE104:
 344              	.LBB106:
 345              	.LBB107:
 346              		.loc 2 135 0
ARM GAS  C:\Users\haske\AppData\Local\Temp\cc7ZkKza.s 			page 25


 347 003a B1F90630 		ldrsh	r3, [r1, #6]
 348 003e B1F90210 		ldrsh	r1, [r1, #2]
 349              	.LVL49:
 350 0042 5B1A     		subs	r3, r3, r1
 351 0044 0133     		adds	r3, r3, #1
 352 0046 1BB2     		sxth	r3, r3
 353 0048 0493     		str	r3, [sp, #16]
 354              	.LVL50:
 355              	.LBE107:
 356              	.LBE106:
 877:..\..\..\arduinoLCD\test\Pain Drain\libraries\lvgl\src\draw\sw/lv_draw_sw_blend.c **** 
 878:..\..\..\arduinoLCD\test\Pain Drain\libraries\lvgl\src\draw\sw/lv_draw_sw_blend.c ****     int32_t w = lv_area_get_width(dest_area);
 879:..\..\..\arduinoLCD\test\Pain Drain\libraries\lvgl\src\draw\sw/lv_draw_sw_blend.c ****     int32_t h = lv_area_get_height(dest_area);
 880:..\..\..\arduinoLCD\test\Pain Drain\libraries\lvgl\src\draw\sw/lv_draw_sw_blend.c **** 
 881:..\..\..\arduinoLCD\test\Pain Drain\libraries\lvgl\src\draw\sw/lv_draw_sw_blend.c ****     int32_t x;
 882:..\..\..\arduinoLCD\test\Pain Drain\libraries\lvgl\src\draw\sw/lv_draw_sw_blend.c ****     int32_t y;
 883:..\..\..\arduinoLCD\test\Pain Drain\libraries\lvgl\src\draw\sw/lv_draw_sw_blend.c **** 
 884:..\..\..\arduinoLCD\test\Pain Drain\libraries\lvgl\src\draw\sw/lv_draw_sw_blend.c ****     lv_color_t (*blend_fp)(lv_color_t, lv_color_t, lv_opa_t);
 885:..\..\..\arduinoLCD\test\Pain Drain\libraries\lvgl\src\draw\sw/lv_draw_sw_blend.c ****     switch(blend_mode) {
 357              		.loc 1 885 0
 358 004a 022A     		cmp	r2, #2
 359 004c 0AD0     		beq	.L48
 360 004e 032A     		cmp	r2, #3
 361 0050 05D0     		beq	.L30
 362 0052 012A     		cmp	r2, #1
 363 0054 40F09D80 		bne	.L27
 886:..\..\..\arduinoLCD\test\Pain Drain\libraries\lvgl\src\draw\sw/lv_draw_sw_blend.c ****         case LV_BLEND_MODE_ADDITIVE:
 887:..\..\..\arduinoLCD\test\Pain Drain\libraries\lvgl\src\draw\sw/lv_draw_sw_blend.c ****             blend_fp = color_blend_true_color_additive;
 364              		.loc 1 887 0
 365 0058 4F4B     		ldr	r3, .L54
 366              	.LVL51:
 367 005a 0293     		str	r3, [sp, #8]
 368 005c 04E0     		b	.L29
 369              	.LVL52:
 370              	.L30:
 888:..\..\..\arduinoLCD\test\Pain Drain\libraries\lvgl\src\draw\sw/lv_draw_sw_blend.c ****             break;
 889:..\..\..\arduinoLCD\test\Pain Drain\libraries\lvgl\src\draw\sw/lv_draw_sw_blend.c ****         case LV_BLEND_MODE_SUBTRACTIVE:
 890:..\..\..\arduinoLCD\test\Pain Drain\libraries\lvgl\src\draw\sw/lv_draw_sw_blend.c ****             blend_fp = color_blend_true_color_subtractive;
 891:..\..\..\arduinoLCD\test\Pain Drain\libraries\lvgl\src\draw\sw/lv_draw_sw_blend.c ****             break;
 892:..\..\..\arduinoLCD\test\Pain Drain\libraries\lvgl\src\draw\sw/lv_draw_sw_blend.c ****         case LV_BLEND_MODE_MULTIPLY:
 893:..\..\..\arduinoLCD\test\Pain Drain\libraries\lvgl\src\draw\sw/lv_draw_sw_blend.c ****             blend_fp = color_blend_true_color_multiply;
 371              		.loc 1 893 0
 372 005e 4F4B     		ldr	r3, .L54+4
 373              	.LVL53:
 374 0060 0293     		str	r3, [sp, #8]
 894:..\..\..\arduinoLCD\test\Pain Drain\libraries\lvgl\src\draw\sw/lv_draw_sw_blend.c ****             break;
 375              		.loc 1 894 0
 376 0062 01E0     		b	.L29
 377              	.LVL54:
 378              	.L48:
 890:..\..\..\arduinoLCD\test\Pain Drain\libraries\lvgl\src\draw\sw/lv_draw_sw_blend.c ****             break;
 379              		.loc 1 890 0
 380 0064 4E4B     		ldr	r3, .L54+8
 381              	.LVL55:
 382 0066 0293     		str	r3, [sp, #8]
 383              	.L29:
 384              	.LVL56:
ARM GAS  C:\Users\haske\AppData\Local\Temp\cc7ZkKza.s 			page 26


 895:..\..\..\arduinoLCD\test\Pain Drain\libraries\lvgl\src\draw\sw/lv_draw_sw_blend.c ****         default:
 896:..\..\..\arduinoLCD\test\Pain Drain\libraries\lvgl\src\draw\sw/lv_draw_sw_blend.c ****             LV_LOG_WARN("fill_blended: unsupported blend mode");
 897:..\..\..\arduinoLCD\test\Pain Drain\libraries\lvgl\src\draw\sw/lv_draw_sw_blend.c ****             return;
 898:..\..\..\arduinoLCD\test\Pain Drain\libraries\lvgl\src\draw\sw/lv_draw_sw_blend.c ****     }
 899:..\..\..\arduinoLCD\test\Pain Drain\libraries\lvgl\src\draw\sw/lv_draw_sw_blend.c **** 
 900:..\..\..\arduinoLCD\test\Pain Drain\libraries\lvgl\src\draw\sw/lv_draw_sw_blend.c ****     lv_color_t last_dest_color;
 901:..\..\..\arduinoLCD\test\Pain Drain\libraries\lvgl\src\draw\sw/lv_draw_sw_blend.c ****     lv_color_t last_src_color;
 902:..\..\..\arduinoLCD\test\Pain Drain\libraries\lvgl\src\draw\sw/lv_draw_sw_blend.c ****     /*Simple fill (maybe with opacity), no masking*/
 903:..\..\..\arduinoLCD\test\Pain Drain\libraries\lvgl\src\draw\sw/lv_draw_sw_blend.c ****     if(mask == NULL) {
 385              		.loc 1 903 0
 386 0068 BBF1000F 		cmp	fp, #0
 387 006c 37D1     		bne	.L32
 388              	.LBB108:
 904:..\..\..\arduinoLCD\test\Pain Drain\libraries\lvgl\src\draw\sw/lv_draw_sw_blend.c ****         last_dest_color = dest_buf[0];
 389              		.loc 1 904 0
 390 006e B8F80030 		ldrh	r3, [r8]
 391              	.LVL57:
 392 0072 1D46     		mov	r5, r3	@ movhi
 905:..\..\..\arduinoLCD\test\Pain Drain\libraries\lvgl\src\draw\sw/lv_draw_sw_blend.c ****         last_src_color = src_buf[0];
 393              		.loc 1 905 0
 394 0074 B9F80070 		ldrh	r7, [r9]
 906:..\..\..\arduinoLCD\test\Pain Drain\libraries\lvgl\src\draw\sw/lv_draw_sw_blend.c ****         lv_color_t last_res_color = blend_fp(last_src_color, last_dest_color, opa);
 395              		.loc 1 906 0
 396 0078 019A     		ldr	r2, [sp, #4]
 397 007a 1946     		mov	r1, r3	@ movhi
 398              	.LVL58:
 399 007c 3846     		mov	r0, r7	@ movhi
 400              	.LVL59:
 401 007e 029C     		ldr	r4, [sp, #8]
 402 0080 A047     		blx	r4
 403              	.LVL60:
 907:..\..\..\arduinoLCD\test\Pain Drain\libraries\lvgl\src\draw\sw/lv_draw_sw_blend.c ****         for(y = 0; y < h; y++) {
 404              		.loc 1 907 0
 405 0082 0026     		movs	r6, #0
 406 0084 0096     		str	r6, [sp]
 407 0086 A346     		mov	fp, r4
 408              	.LVL61:
 409 0088 2E46     		mov	r6, r5	@ movhi
 410 008a 23E0     		b	.L33
 411              	.LVL62:
 412              	.L36:
 908:..\..\..\arduinoLCD\test\Pain Drain\libraries\lvgl\src\draw\sw/lv_draw_sw_blend.c ****             for(x = 0; x < w; x++) {
 909:..\..\..\arduinoLCD\test\Pain Drain\libraries\lvgl\src\draw\sw/lv_draw_sw_blend.c ****                 if(last_src_color.full != src_buf[x].full || last_dest_color.full != dest_buf[x].fu
 413              		.loc 1 909 0
 414 008c BBB2     		uxth	r3, r7
 415 008e 6500     		lsls	r5, r4, #1
 416 0090 09EB0501 		add	r1, r9, r5
 417 0094 39F81420 		ldrh	r2, [r9, r4, lsl #1]
 418 0098 9342     		cmp	r3, r2
 419 009a 04D1     		bne	.L34
 420              		.loc 1 909 0 is_stmt 0 discriminator 1
 421 009c B3B2     		uxth	r3, r6
 422 009e 38F81420 		ldrh	r2, [r8, r4, lsl #1]
 423 00a2 9342     		cmp	r3, r2
 424 00a4 06D0     		beq	.L35
 425              	.L34:
 910:..\..\..\arduinoLCD\test\Pain Drain\libraries\lvgl\src\draw\sw/lv_draw_sw_blend.c ****                     last_dest_color = dest_buf[x];
ARM GAS  C:\Users\haske\AppData\Local\Temp\cc7ZkKza.s 			page 27


 426              		.loc 1 910 0 is_stmt 1
 427 00a6 38F80560 		ldrh	r6, [r8, r5]
 428              	.LVL63:
 911:..\..\..\arduinoLCD\test\Pain Drain\libraries\lvgl\src\draw\sw/lv_draw_sw_blend.c ****                     last_src_color = src_buf[x];
 429              		.loc 1 911 0
 430 00aa 0F88     		ldrh	r7, [r1]
 431              	.LVL64:
 912:..\..\..\arduinoLCD\test\Pain Drain\libraries\lvgl\src\draw\sw/lv_draw_sw_blend.c ****                     last_res_color = blend_fp(last_src_color, last_dest_color, opa);
 432              		.loc 1 912 0
 433 00ac 019A     		ldr	r2, [sp, #4]
 434              	.LVL65:
 435 00ae 3146     		mov	r1, r6	@ movhi
 436              	.LVL66:
 437 00b0 3846     		mov	r0, r7	@ movhi
 438              	.LVL67:
 439 00b2 D847     		blx	fp
 440              	.LVL68:
 441              	.L35:
 913:..\..\..\arduinoLCD\test\Pain Drain\libraries\lvgl\src\draw\sw/lv_draw_sw_blend.c ****                 }
 914:..\..\..\arduinoLCD\test\Pain Drain\libraries\lvgl\src\draw\sw/lv_draw_sw_blend.c ****                 dest_buf[x] = last_res_color;
 442              		.loc 1 914 0 discriminator 2
 443 00b4 28F80500 		strh	r0, [r8, r5]	@ movhi
 908:..\..\..\arduinoLCD\test\Pain Drain\libraries\lvgl\src\draw\sw/lv_draw_sw_blend.c ****                 if(last_src_color.full != src_buf[x].full || last_dest_color.full != dest_buf[x].fu
 444              		.loc 1 908 0 discriminator 2
 445 00b8 0134     		adds	r4, r4, #1
 446              	.LVL69:
 447 00ba 00E0     		b	.L37
 448              	.LVL70:
 449              	.L49:
 450 00bc 0024     		movs	r4, #0
 451              	.LVL71:
 452              	.L37:
 908:..\..\..\arduinoLCD\test\Pain Drain\libraries\lvgl\src\draw\sw/lv_draw_sw_blend.c ****                 if(last_src_color.full != src_buf[x].full || last_dest_color.full != dest_buf[x].fu
 453              		.loc 1 908 0 is_stmt 0 discriminator 1
 454 00be 5445     		cmp	r4, r10
 455 00c0 E4DB     		blt	.L36
 915:..\..\..\arduinoLCD\test\Pain Drain\libraries\lvgl\src\draw\sw/lv_draw_sw_blend.c ****             }
 916:..\..\..\arduinoLCD\test\Pain Drain\libraries\lvgl\src\draw\sw/lv_draw_sw_blend.c ****             dest_buf += dest_stride;
 456              		.loc 1 916 0 is_stmt 1 discriminator 2
 457 00c2 059B     		ldr	r3, [sp, #20]
 458 00c4 08EB4308 		add	r8, r8, r3, lsl #1
 459              	.LVL72:
 917:..\..\..\arduinoLCD\test\Pain Drain\libraries\lvgl\src\draw\sw/lv_draw_sw_blend.c ****             src_buf += src_stride;
 460              		.loc 1 917 0 discriminator 2
 461 00c8 069B     		ldr	r3, [sp, #24]
 462 00ca 09EB4309 		add	r9, r9, r3, lsl #1
 463              	.LVL73:
 907:..\..\..\arduinoLCD\test\Pain Drain\libraries\lvgl\src\draw\sw/lv_draw_sw_blend.c ****             for(x = 0; x < w; x++) {
 464              		.loc 1 907 0 discriminator 2
 465 00ce 009B     		ldr	r3, [sp]
 466 00d0 0133     		adds	r3, r3, #1
 467 00d2 0093     		str	r3, [sp]
 468              	.LVL74:
 469              	.L33:
 907:..\..\..\arduinoLCD\test\Pain Drain\libraries\lvgl\src\draw\sw/lv_draw_sw_blend.c ****             for(x = 0; x < w; x++) {
 470              		.loc 1 907 0 is_stmt 0 discriminator 1
 471 00d4 009B     		ldr	r3, [sp]
ARM GAS  C:\Users\haske\AppData\Local\Temp\cc7ZkKza.s 			page 28


 472 00d6 049A     		ldr	r2, [sp, #16]
 473 00d8 9342     		cmp	r3, r2
 474 00da EFDB     		blt	.L49
 475 00dc 59E0     		b	.L27
 476              	.LVL75:
 477              	.L32:
 478              	.LBE108:
 479              	.LBB109:
 918:..\..\..\arduinoLCD\test\Pain Drain\libraries\lvgl\src\draw\sw/lv_draw_sw_blend.c ****         }
 919:..\..\..\arduinoLCD\test\Pain Drain\libraries\lvgl\src\draw\sw/lv_draw_sw_blend.c ****     }
 920:..\..\..\arduinoLCD\test\Pain Drain\libraries\lvgl\src\draw\sw/lv_draw_sw_blend.c ****     /*Masked*/
 921:..\..\..\arduinoLCD\test\Pain Drain\libraries\lvgl\src\draw\sw/lv_draw_sw_blend.c ****     else {
 922:..\..\..\arduinoLCD\test\Pain Drain\libraries\lvgl\src\draw\sw/lv_draw_sw_blend.c ****         last_dest_color = dest_buf[0];
 480              		.loc 1 922 0 is_stmt 1
 481 00de B8F80030 		ldrh	r3, [r8]
 482              	.LVL76:
 483 00e2 ADF80030 		strh	r3, [sp]	@ movhi
 923:..\..\..\arduinoLCD\test\Pain Drain\libraries\lvgl\src\draw\sw/lv_draw_sw_blend.c ****         last_src_color = src_buf[0];
 484              		.loc 1 923 0
 485 00e6 B9F80070 		ldrh	r7, [r9]
 924:..\..\..\arduinoLCD\test\Pain Drain\libraries\lvgl\src\draw\sw/lv_draw_sw_blend.c ****         lv_opa_t last_opa = mask[0] >= LV_OPA_MAX ? opa : ((opa * mask[0]) >> 8);
 486              		.loc 1 924 0
 487 00ea 9BF80030 		ldrb	r3, [fp]	@ zero_extendqisi2
 488              	.LVL77:
 489 00ee FC2B     		cmp	r3, #252
 490 00f0 05D8     		bhi	.L50
 491              		.loc 1 924 0 is_stmt 0 discriminator 1
 492 00f2 019A     		ldr	r2, [sp, #4]
 493 00f4 03FB02F3 		mul	r3, r3, r2
 494 00f8 C3F30723 		ubfx	r3, r3, #8, #8
 495 00fc 00E0     		b	.L39
 496              	.L50:
 497              		.loc 1 924 0
 498 00fe 019B     		ldr	r3, [sp, #4]
 499              	.L39:
 500              	.LVL78:
 925:..\..\..\arduinoLCD\test\Pain Drain\libraries\lvgl\src\draw\sw/lv_draw_sw_blend.c ****         lv_color_t last_res_color = blend_fp(last_src_color, last_dest_color, last_opa);
 501              		.loc 1 925 0 is_stmt 1 discriminator 4
 502 0100 1C46     		mov	r4, r3
 503 0102 1A46     		mov	r2, r3
 504 0104 BDF80010 		ldrh	r1, [sp]
 505              	.LVL79:
 506 0108 3846     		mov	r0, r7	@ movhi
 507              	.LVL80:
 508 010a 029B     		ldr	r3, [sp, #8]
 509              	.LVL81:
 510 010c 9847     		blx	r3
 511              	.LVL82:
 926:..\..\..\arduinoLCD\test\Pain Drain\libraries\lvgl\src\draw\sw/lv_draw_sw_blend.c ****         for(y = 0; y < h; y++) {
 512              		.loc 1 926 0 discriminator 4
 513 010e 0023     		movs	r3, #0
 514 0110 0393     		str	r3, [sp, #12]
 515 0112 2246     		mov	r2, r4
 516 0114 39E0     		b	.L40
 517              	.LVL83:
 518              	.L45:
 519              	.LBB110:
ARM GAS  C:\Users\haske\AppData\Local\Temp\cc7ZkKza.s 			page 29


 927:..\..\..\arduinoLCD\test\Pain Drain\libraries\lvgl\src\draw\sw/lv_draw_sw_blend.c ****             for(x = 0; x < w; x++) {
 928:..\..\..\arduinoLCD\test\Pain Drain\libraries\lvgl\src\draw\sw/lv_draw_sw_blend.c ****                 if(mask[x] == 0) continue;
 520              		.loc 1 928 0
 521 0116 2646     		mov	r6, r4
 522 0118 1BF80450 		ldrb	r5, [fp, r4]	@ zero_extendqisi2
 523 011c 2DB3     		cbz	r5, .L41
 929:..\..\..\arduinoLCD\test\Pain Drain\libraries\lvgl\src\draw\sw/lv_draw_sw_blend.c ****                 lv_opa_t opa_tmp = mask[x] >= LV_OPA_MAX ? opa : ((opa * mask[x]) >> 8);
 524              		.loc 1 929 0
 525 011e FC2D     		cmp	r5, #252
 526 0120 05D8     		bhi	.L51
 527              		.loc 1 929 0 is_stmt 0 discriminator 1
 528 0122 019B     		ldr	r3, [sp, #4]
 529 0124 05FB03F5 		mul	r5, r5, r3
 530 0128 C5F30725 		ubfx	r5, r5, #8, #8
 531 012c 00E0     		b	.L42
 532              	.L51:
 533              		.loc 1 929 0
 534 012e 019D     		ldr	r5, [sp, #4]
 535              	.L42:
 536              	.LVL84:
 930:..\..\..\arduinoLCD\test\Pain Drain\libraries\lvgl\src\draw\sw/lv_draw_sw_blend.c ****                 if(last_src_color.full != src_buf[x].full || last_dest_color.full != dest_buf[x].fu
 537              		.loc 1 930 0 is_stmt 1 discriminator 4
 538 0130 BBB2     		uxth	r3, r7
 539 0132 09EB460E 		add	lr, r9, r6, lsl #1
 540 0136 39F81610 		ldrh	r1, [r9, r6, lsl #1]
 541 013a 8B42     		cmp	r3, r1
 542 013c 07D1     		bne	.L43
 543              		.loc 1 930 0 is_stmt 0 discriminator 1
 544 013e BDF80030 		ldrh	r3, [sp]
 545 0142 38F81610 		ldrh	r1, [r8, r6, lsl #1]
 546 0146 8B42     		cmp	r3, r1
 547 0148 01D1     		bne	.L43
 548              		.loc 1 930 0 discriminator 2
 549 014a AA42     		cmp	r2, r5
 550 014c 0BD0     		beq	.L44
 551              	.L43:
 931:..\..\..\arduinoLCD\test\Pain Drain\libraries\lvgl\src\draw\sw/lv_draw_sw_blend.c ****                     last_dest_color = dest_buf[x];
 552              		.loc 1 931 0 is_stmt 1
 553 014e 38F81630 		ldrh	r3, [r8, r6, lsl #1]
 554              	.LVL85:
 555 0152 ADF80030 		strh	r3, [sp]	@ movhi
 932:..\..\..\arduinoLCD\test\Pain Drain\libraries\lvgl\src\draw\sw/lv_draw_sw_blend.c ****                     last_src_color = src_buf[x];
 556              		.loc 1 932 0
 557 0156 BEF80070 		ldrh	r7, [lr]
 558              	.LVL86:
 933:..\..\..\arduinoLCD\test\Pain Drain\libraries\lvgl\src\draw\sw/lv_draw_sw_blend.c ****                     last_opa = opa_tmp;
 934:..\..\..\arduinoLCD\test\Pain Drain\libraries\lvgl\src\draw\sw/lv_draw_sw_blend.c ****                     last_res_color = blend_fp(last_src_color, last_dest_color, last_opa);
 559              		.loc 1 934 0
 560 015a 2A46     		mov	r2, r5
 561 015c 1946     		mov	r1, r3	@ movhi
 562              	.LVL87:
 563 015e 3846     		mov	r0, r7	@ movhi
 564              	.LVL88:
 565 0160 029B     		ldr	r3, [sp, #8]
 566              	.LVL89:
 567 0162 9847     		blx	r3
 568              	.LVL90:
ARM GAS  C:\Users\haske\AppData\Local\Temp\cc7ZkKza.s 			page 30


 933:..\..\..\arduinoLCD\test\Pain Drain\libraries\lvgl\src\draw\sw/lv_draw_sw_blend.c ****                     last_opa = opa_tmp;
 569              		.loc 1 933 0
 570 0164 2A46     		mov	r2, r5
 571              	.LVL91:
 572              	.L44:
 935:..\..\..\arduinoLCD\test\Pain Drain\libraries\lvgl\src\draw\sw/lv_draw_sw_blend.c ****                 }
 936:..\..\..\arduinoLCD\test\Pain Drain\libraries\lvgl\src\draw\sw/lv_draw_sw_blend.c ****                 dest_buf[x] = last_res_color;
 573              		.loc 1 936 0
 574 0166 28F81600 		strh	r0, [r8, r6, lsl #1]	@ movhi
 575              	.LVL92:
 576              	.L41:
 577              	.LBE110:
 927:..\..\..\arduinoLCD\test\Pain Drain\libraries\lvgl\src\draw\sw/lv_draw_sw_blend.c ****                 if(mask[x] == 0) continue;
 578              		.loc 1 927 0 discriminator 2
 579 016a 0134     		adds	r4, r4, #1
 580              	.LVL93:
 581 016c 00E0     		b	.L46
 582              	.LVL94:
 583              	.L52:
 584 016e 0024     		movs	r4, #0
 585              	.LVL95:
 586              	.L46:
 927:..\..\..\arduinoLCD\test\Pain Drain\libraries\lvgl\src\draw\sw/lv_draw_sw_blend.c ****                 if(mask[x] == 0) continue;
 587              		.loc 1 927 0 is_stmt 0 discriminator 1
 588 0170 5445     		cmp	r4, r10
 589 0172 D0DB     		blt	.L45
 937:..\..\..\arduinoLCD\test\Pain Drain\libraries\lvgl\src\draw\sw/lv_draw_sw_blend.c ****             }
 938:..\..\..\arduinoLCD\test\Pain Drain\libraries\lvgl\src\draw\sw/lv_draw_sw_blend.c ****             dest_buf += dest_stride;
 590              		.loc 1 938 0 is_stmt 1 discriminator 2
 591 0174 059B     		ldr	r3, [sp, #20]
 592 0176 08EB4308 		add	r8, r8, r3, lsl #1
 593              	.LVL96:
 939:..\..\..\arduinoLCD\test\Pain Drain\libraries\lvgl\src\draw\sw/lv_draw_sw_blend.c ****             src_buf += src_stride;
 594              		.loc 1 939 0 discriminator 2
 595 017a 069B     		ldr	r3, [sp, #24]
 596 017c 09EB4309 		add	r9, r9, r3, lsl #1
 597              	.LVL97:
 940:..\..\..\arduinoLCD\test\Pain Drain\libraries\lvgl\src\draw\sw/lv_draw_sw_blend.c ****             mask += mask_stride;
 598              		.loc 1 940 0 discriminator 2
 599 0180 079B     		ldr	r3, [sp, #28]
 600 0182 9B44     		add	fp, fp, r3
 601              	.LVL98:
 926:..\..\..\arduinoLCD\test\Pain Drain\libraries\lvgl\src\draw\sw/lv_draw_sw_blend.c ****             for(x = 0; x < w; x++) {
 602              		.loc 1 926 0 discriminator 2
 603 0184 039B     		ldr	r3, [sp, #12]
 604 0186 0133     		adds	r3, r3, #1
 605 0188 0393     		str	r3, [sp, #12]
 606              	.LVL99:
 607              	.L40:
 926:..\..\..\arduinoLCD\test\Pain Drain\libraries\lvgl\src\draw\sw/lv_draw_sw_blend.c ****             for(x = 0; x < w; x++) {
 608              		.loc 1 926 0 is_stmt 0 discriminator 1
 609 018a 039B     		ldr	r3, [sp, #12]
 610 018c 0499     		ldr	r1, [sp, #16]
 611 018e 8B42     		cmp	r3, r1
 612 0190 EDDB     		blt	.L52
 613              	.LVL100:
 614              	.L27:
ARM GAS  C:\Users\haske\AppData\Local\Temp\cc7ZkKza.s 			page 31


 615              	.LBE109:
 941:..\..\..\arduinoLCD\test\Pain Drain\libraries\lvgl\src\draw\sw/lv_draw_sw_blend.c ****         }
 942:..\..\..\arduinoLCD\test\Pain Drain\libraries\lvgl\src\draw\sw/lv_draw_sw_blend.c ****     }
 943:..\..\..\arduinoLCD\test\Pain Drain\libraries\lvgl\src\draw\sw/lv_draw_sw_blend.c **** }
 616              		.loc 1 943 0 is_stmt 1
 617 0192 09B0     		add	sp, sp, #36
 618              		.cfi_def_cfa_offset 36
 619              		@ sp needed
 620 0194 BDE8F08F 		pop	{r4, r5, r6, r7, r8, r9, r10, fp, pc}
 621              	.LVL101:
 622              	.L55:
 623              		.align	2
 624              	.L54:
 625 0198 00000000 		.word	color_blend_true_color_additive
 626 019c 00000000 		.word	color_blend_true_color_multiply
 627 01a0 00000000 		.word	color_blend_true_color_subtractive
 628              		.cfi_endproc
 629              	.LFE166:
 630              		.size	map_blended, .-map_blended
 631              		.section	.text.color_blend_true_color_additive,"ax",%progbits
 632              		.align	2
 633              		.thumb
 634              		.thumb_func
 635              		.type	color_blend_true_color_additive, %function
 636              	color_blend_true_color_additive:
 637              	.LFB167:
 944:..\..\..\arduinoLCD\test\Pain Drain\libraries\lvgl\src\draw\sw/lv_draw_sw_blend.c **** 
 945:..\..\..\arduinoLCD\test\Pain Drain\libraries\lvgl\src\draw\sw/lv_draw_sw_blend.c **** static inline lv_color_t color_blend_true_color_additive(lv_color_t fg, lv_color_t bg, lv_opa_t opa
 946:..\..\..\arduinoLCD\test\Pain Drain\libraries\lvgl\src\draw\sw/lv_draw_sw_blend.c **** {
 638              		.loc 1 946 0
 639              		.cfi_startproc
 640              		@ args = 0, pretend = 0, frame = 0
 641              		@ frame_needed = 0, uses_anonymous_args = 0
 642              		@ link register save eliminated.
 643              	.LVL102:
 947:..\..\..\arduinoLCD\test\Pain Drain\libraries\lvgl\src\draw\sw/lv_draw_sw_blend.c **** 
 948:..\..\..\arduinoLCD\test\Pain Drain\libraries\lvgl\src\draw\sw/lv_draw_sw_blend.c ****     if(opa <= LV_OPA_MIN) return bg;
 644              		.loc 1 948 0
 645 0000 022A     		cmp	r2, #2
 646 0002 01D8     		bhi	.L57
 647              		.loc 1 948 0 is_stmt 0 discriminator 1
 648 0004 0846     		mov	r0, r1	@ movhi
 649              	.LVL103:
 949:..\..\..\arduinoLCD\test\Pain Drain\libraries\lvgl\src\draw\sw/lv_draw_sw_blend.c **** 
 950:..\..\..\arduinoLCD\test\Pain Drain\libraries\lvgl\src\draw\sw/lv_draw_sw_blend.c ****     uint32_t tmp;
 951:..\..\..\arduinoLCD\test\Pain Drain\libraries\lvgl\src\draw\sw/lv_draw_sw_blend.c **** #if LV_COLOR_DEPTH == 1
 952:..\..\..\arduinoLCD\test\Pain Drain\libraries\lvgl\src\draw\sw/lv_draw_sw_blend.c ****     tmp = bg.full + fg.full;
 953:..\..\..\arduinoLCD\test\Pain Drain\libraries\lvgl\src\draw\sw/lv_draw_sw_blend.c ****     fg.full = LV_MIN(tmp, 1);
 954:..\..\..\arduinoLCD\test\Pain Drain\libraries\lvgl\src\draw\sw/lv_draw_sw_blend.c **** #else
 955:..\..\..\arduinoLCD\test\Pain Drain\libraries\lvgl\src\draw\sw/lv_draw_sw_blend.c ****     tmp = bg.ch.red + fg.ch.red;
 956:..\..\..\arduinoLCD\test\Pain Drain\libraries\lvgl\src\draw\sw/lv_draw_sw_blend.c **** #if LV_COLOR_DEPTH == 8
 957:..\..\..\arduinoLCD\test\Pain Drain\libraries\lvgl\src\draw\sw/lv_draw_sw_blend.c ****     fg.ch.red = LV_MIN(tmp, 7);
 958:..\..\..\arduinoLCD\test\Pain Drain\libraries\lvgl\src\draw\sw/lv_draw_sw_blend.c **** #elif LV_COLOR_DEPTH == 16
 959:..\..\..\arduinoLCD\test\Pain Drain\libraries\lvgl\src\draw\sw/lv_draw_sw_blend.c ****     fg.ch.red = LV_MIN(tmp, 31);
 960:..\..\..\arduinoLCD\test\Pain Drain\libraries\lvgl\src\draw\sw/lv_draw_sw_blend.c **** #elif LV_COLOR_DEPTH == 32
 961:..\..\..\arduinoLCD\test\Pain Drain\libraries\lvgl\src\draw\sw/lv_draw_sw_blend.c ****     fg.ch.red = LV_MIN(tmp, 255);
 962:..\..\..\arduinoLCD\test\Pain Drain\libraries\lvgl\src\draw\sw/lv_draw_sw_blend.c **** #endif
ARM GAS  C:\Users\haske\AppData\Local\Temp\cc7ZkKza.s 			page 32


 963:..\..\..\arduinoLCD\test\Pain Drain\libraries\lvgl\src\draw\sw/lv_draw_sw_blend.c **** 
 964:..\..\..\arduinoLCD\test\Pain Drain\libraries\lvgl\src\draw\sw/lv_draw_sw_blend.c **** #if LV_COLOR_DEPTH == 8
 965:..\..\..\arduinoLCD\test\Pain Drain\libraries\lvgl\src\draw\sw/lv_draw_sw_blend.c ****     tmp = bg.ch.green + fg.ch.green;
 966:..\..\..\arduinoLCD\test\Pain Drain\libraries\lvgl\src\draw\sw/lv_draw_sw_blend.c ****     fg.ch.green = LV_MIN(tmp, 7);
 967:..\..\..\arduinoLCD\test\Pain Drain\libraries\lvgl\src\draw\sw/lv_draw_sw_blend.c **** #elif LV_COLOR_DEPTH == 16
 968:..\..\..\arduinoLCD\test\Pain Drain\libraries\lvgl\src\draw\sw/lv_draw_sw_blend.c **** #if LV_COLOR_16_SWAP == 0
 969:..\..\..\arduinoLCD\test\Pain Drain\libraries\lvgl\src\draw\sw/lv_draw_sw_blend.c ****     tmp = bg.ch.green + fg.ch.green;
 970:..\..\..\arduinoLCD\test\Pain Drain\libraries\lvgl\src\draw\sw/lv_draw_sw_blend.c ****     fg.ch.green = LV_MIN(tmp, 63);
 971:..\..\..\arduinoLCD\test\Pain Drain\libraries\lvgl\src\draw\sw/lv_draw_sw_blend.c **** #else
 972:..\..\..\arduinoLCD\test\Pain Drain\libraries\lvgl\src\draw\sw/lv_draw_sw_blend.c ****     tmp = (bg.ch.green_h << 3) + bg.ch.green_l + (fg.ch.green_h << 3) + fg.ch.green_l;
 973:..\..\..\arduinoLCD\test\Pain Drain\libraries\lvgl\src\draw\sw/lv_draw_sw_blend.c ****     tmp = LV_MIN(tmp, 63);
 974:..\..\..\arduinoLCD\test\Pain Drain\libraries\lvgl\src\draw\sw/lv_draw_sw_blend.c ****     fg.ch.green_h = tmp >> 3;
 975:..\..\..\arduinoLCD\test\Pain Drain\libraries\lvgl\src\draw\sw/lv_draw_sw_blend.c ****     fg.ch.green_l = tmp & 0x7;
 976:..\..\..\arduinoLCD\test\Pain Drain\libraries\lvgl\src\draw\sw/lv_draw_sw_blend.c **** #endif
 977:..\..\..\arduinoLCD\test\Pain Drain\libraries\lvgl\src\draw\sw/lv_draw_sw_blend.c **** 
 978:..\..\..\arduinoLCD\test\Pain Drain\libraries\lvgl\src\draw\sw/lv_draw_sw_blend.c **** #elif LV_COLOR_DEPTH == 32
 979:..\..\..\arduinoLCD\test\Pain Drain\libraries\lvgl\src\draw\sw/lv_draw_sw_blend.c ****     tmp = bg.ch.green + fg.ch.green;
 980:..\..\..\arduinoLCD\test\Pain Drain\libraries\lvgl\src\draw\sw/lv_draw_sw_blend.c ****     fg.ch.green = LV_MIN(tmp, 255);
 981:..\..\..\arduinoLCD\test\Pain Drain\libraries\lvgl\src\draw\sw/lv_draw_sw_blend.c **** #endif
 982:..\..\..\arduinoLCD\test\Pain Drain\libraries\lvgl\src\draw\sw/lv_draw_sw_blend.c **** 
 983:..\..\..\arduinoLCD\test\Pain Drain\libraries\lvgl\src\draw\sw/lv_draw_sw_blend.c ****     tmp = bg.ch.blue + fg.ch.blue;
 984:..\..\..\arduinoLCD\test\Pain Drain\libraries\lvgl\src\draw\sw/lv_draw_sw_blend.c **** #if LV_COLOR_DEPTH == 8
 985:..\..\..\arduinoLCD\test\Pain Drain\libraries\lvgl\src\draw\sw/lv_draw_sw_blend.c ****     fg.ch.blue = LV_MIN(tmp, 4);
 986:..\..\..\arduinoLCD\test\Pain Drain\libraries\lvgl\src\draw\sw/lv_draw_sw_blend.c **** #elif LV_COLOR_DEPTH == 16
 987:..\..\..\arduinoLCD\test\Pain Drain\libraries\lvgl\src\draw\sw/lv_draw_sw_blend.c ****     fg.ch.blue = LV_MIN(tmp, 31);
 988:..\..\..\arduinoLCD\test\Pain Drain\libraries\lvgl\src\draw\sw/lv_draw_sw_blend.c **** #elif LV_COLOR_DEPTH == 32
 989:..\..\..\arduinoLCD\test\Pain Drain\libraries\lvgl\src\draw\sw/lv_draw_sw_blend.c ****     fg.ch.blue = LV_MIN(tmp, 255);
 990:..\..\..\arduinoLCD\test\Pain Drain\libraries\lvgl\src\draw\sw/lv_draw_sw_blend.c **** #endif
 991:..\..\..\arduinoLCD\test\Pain Drain\libraries\lvgl\src\draw\sw/lv_draw_sw_blend.c **** #endif
 992:..\..\..\arduinoLCD\test\Pain Drain\libraries\lvgl\src\draw\sw/lv_draw_sw_blend.c **** 
 993:..\..\..\arduinoLCD\test\Pain Drain\libraries\lvgl\src\draw\sw/lv_draw_sw_blend.c ****     if(opa == LV_OPA_COVER) return fg;
 994:..\..\..\arduinoLCD\test\Pain Drain\libraries\lvgl\src\draw\sw/lv_draw_sw_blend.c **** 
 995:..\..\..\arduinoLCD\test\Pain Drain\libraries\lvgl\src\draw\sw/lv_draw_sw_blend.c ****     return lv_color_mix(fg, bg, opa);
 996:..\..\..\arduinoLCD\test\Pain Drain\libraries\lvgl\src\draw\sw/lv_draw_sw_blend.c **** }
 650              		.loc 1 996 0 is_stmt 1 discriminator 1
 651 0006 7047     		bx	lr
 652              	.LVL104:
 653              	.L57:
 946:..\..\..\arduinoLCD\test\Pain Drain\libraries\lvgl\src\draw\sw/lv_draw_sw_blend.c **** 
 654              		.loc 1 946 0
 655 0008 30B4     		push	{r4, r5}
 656              		.cfi_def_cfa_offset 8
 657              		.cfi_offset 4, -8
 658              		.cfi_offset 5, -4
 955:..\..\..\arduinoLCD\test\Pain Drain\libraries\lvgl\src\draw\sw/lv_draw_sw_blend.c **** #if LV_COLOR_DEPTH == 8
 659              		.loc 1 955 0
 660 000a C1F3C423 		ubfx	r3, r1, #11, #5
 661 000e C0F3C424 		ubfx	r4, r0, #11, #5
 662 0012 2344     		add	r3, r3, r4
 663              	.LVL105:
 959:..\..\..\arduinoLCD\test\Pain Drain\libraries\lvgl\src\draw\sw/lv_draw_sw_blend.c **** #elif LV_COLOR_DEPTH == 32
 664              		.loc 1 959 0
 665 0014 1F2B     		cmp	r3, #31
 666 0016 28BF     		it	cs
 667 0018 1F23     		movcs	r3, #31
 668              	.LVL106:
 669 001a 63F3CF20 		bfi	r0, r3, #11, #5
ARM GAS  C:\Users\haske\AppData\Local\Temp\cc7ZkKza.s 			page 33


 969:..\..\..\arduinoLCD\test\Pain Drain\libraries\lvgl\src\draw\sw/lv_draw_sw_blend.c ****     fg.ch.green = LV_MIN(tmp, 63);
 670              		.loc 1 969 0
 671 001e C1F34513 		ubfx	r3, r1, #5, #6
 672 0022 C0F34514 		ubfx	r4, r0, #5, #6
 673              	.LVL107:
 674 0026 2344     		add	r3, r3, r4
 675              	.LVL108:
 970:..\..\..\arduinoLCD\test\Pain Drain\libraries\lvgl\src\draw\sw/lv_draw_sw_blend.c **** #else
 676              		.loc 1 970 0
 677 0028 3F2B     		cmp	r3, #63
 678 002a 28BF     		it	cs
 679 002c 3F23     		movcs	r3, #63
 680              	.LVL109:
 681 002e 63F34A10 		bfi	r0, r3, #5, #6
 983:..\..\..\arduinoLCD\test\Pain Drain\libraries\lvgl\src\draw\sw/lv_draw_sw_blend.c **** #if LV_COLOR_DEPTH == 8
 682              		.loc 1 983 0
 683 0032 01F01F03 		and	r3, r1, #31
 684 0036 00F01F04 		and	r4, r0, #31
 685              	.LVL110:
 686 003a 2344     		add	r3, r3, r4
 687              	.LVL111:
 987:..\..\..\arduinoLCD\test\Pain Drain\libraries\lvgl\src\draw\sw/lv_draw_sw_blend.c **** #elif LV_COLOR_DEPTH == 32
 688              		.loc 1 987 0
 689 003c 1F2B     		cmp	r3, #31
 690 003e 28BF     		it	cs
 691 0040 1F23     		movcs	r3, #31
 692              	.LVL112:
 693 0042 63F30400 		bfi	r0, r3, #0, #5
 993:..\..\..\arduinoLCD\test\Pain Drain\libraries\lvgl\src\draw\sw/lv_draw_sw_blend.c **** 
 694              		.loc 1 993 0
 695 0046 FF2A     		cmp	r2, #255
 696 0048 16D0     		beq	.L58
 697              	.LVL113:
 698              	.LBB111:
 699              	.LBB112:
 700              		.file 3 "c:\\projects\\paindrain\\arduinolcd\\test\\pain drain\\libraries\\lvgl\\src\\misc\\lv_col
   1:c:\projects\paindrain\arduinolcd\test\pain drain\libraries\lvgl\src\misc\lv_color.h **** /**
   2:c:\projects\paindrain\arduinolcd\test\pain drain\libraries\lvgl\src\misc\lv_color.h ****  * @file lv_color.h
   3:c:\projects\paindrain\arduinolcd\test\pain drain\libraries\lvgl\src\misc\lv_color.h ****  *
   4:c:\projects\paindrain\arduinolcd\test\pain drain\libraries\lvgl\src\misc\lv_color.h ****  */
   5:c:\projects\paindrain\arduinolcd\test\pain drain\libraries\lvgl\src\misc\lv_color.h **** 
   6:c:\projects\paindrain\arduinolcd\test\pain drain\libraries\lvgl\src\misc\lv_color.h **** #ifndef LV_COLOR_H
   7:c:\projects\paindrain\arduinolcd\test\pain drain\libraries\lvgl\src\misc\lv_color.h **** #define LV_COLOR_H
   8:c:\projects\paindrain\arduinolcd\test\pain drain\libraries\lvgl\src\misc\lv_color.h **** 
   9:c:\projects\paindrain\arduinolcd\test\pain drain\libraries\lvgl\src\misc\lv_color.h **** #ifdef __cplusplus
  10:c:\projects\paindrain\arduinolcd\test\pain drain\libraries\lvgl\src\misc\lv_color.h **** extern "C" {
  11:c:\projects\paindrain\arduinolcd\test\pain drain\libraries\lvgl\src\misc\lv_color.h **** #endif
  12:c:\projects\paindrain\arduinolcd\test\pain drain\libraries\lvgl\src\misc\lv_color.h **** 
  13:c:\projects\paindrain\arduinolcd\test\pain drain\libraries\lvgl\src\misc\lv_color.h **** /*********************
  14:c:\projects\paindrain\arduinolcd\test\pain drain\libraries\lvgl\src\misc\lv_color.h ****  *      INCLUDES
  15:c:\projects\paindrain\arduinolcd\test\pain drain\libraries\lvgl\src\misc\lv_color.h ****  *********************/
  16:c:\projects\paindrain\arduinolcd\test\pain drain\libraries\lvgl\src\misc\lv_color.h **** #include "../lv_conf_internal.h"
  17:c:\projects\paindrain\arduinolcd\test\pain drain\libraries\lvgl\src\misc\lv_color.h **** #include "lv_assert.h"
  18:c:\projects\paindrain\arduinolcd\test\pain drain\libraries\lvgl\src\misc\lv_color.h **** #include "lv_math.h"
  19:c:\projects\paindrain\arduinolcd\test\pain drain\libraries\lvgl\src\misc\lv_color.h **** #include "lv_types.h"
  20:c:\projects\paindrain\arduinolcd\test\pain drain\libraries\lvgl\src\misc\lv_color.h **** 
  21:c:\projects\paindrain\arduinolcd\test\pain drain\libraries\lvgl\src\misc\lv_color.h **** /*Error checking*/
ARM GAS  C:\Users\haske\AppData\Local\Temp\cc7ZkKza.s 			page 34


  22:c:\projects\paindrain\arduinolcd\test\pain drain\libraries\lvgl\src\misc\lv_color.h **** #if LV_COLOR_DEPTH == 24
  23:c:\projects\paindrain\arduinolcd\test\pain drain\libraries\lvgl\src\misc\lv_color.h **** #error "LV_COLOR_DEPTH 24 is deprecated. Use LV_COLOR_DEPTH 32 instead (lv_conf.h)"
  24:c:\projects\paindrain\arduinolcd\test\pain drain\libraries\lvgl\src\misc\lv_color.h **** #endif
  25:c:\projects\paindrain\arduinolcd\test\pain drain\libraries\lvgl\src\misc\lv_color.h **** 
  26:c:\projects\paindrain\arduinolcd\test\pain drain\libraries\lvgl\src\misc\lv_color.h **** #if LV_COLOR_DEPTH != 16 && LV_COLOR_16_SWAP != 0
  27:c:\projects\paindrain\arduinolcd\test\pain drain\libraries\lvgl\src\misc\lv_color.h **** #error "LV_COLOR_16_SWAP requires LV_COLOR_DEPTH == 16. Set it in lv_conf.h"
  28:c:\projects\paindrain\arduinolcd\test\pain drain\libraries\lvgl\src\misc\lv_color.h **** #endif
  29:c:\projects\paindrain\arduinolcd\test\pain drain\libraries\lvgl\src\misc\lv_color.h **** 
  30:c:\projects\paindrain\arduinolcd\test\pain drain\libraries\lvgl\src\misc\lv_color.h **** #include <stdint.h>
  31:c:\projects\paindrain\arduinolcd\test\pain drain\libraries\lvgl\src\misc\lv_color.h **** 
  32:c:\projects\paindrain\arduinolcd\test\pain drain\libraries\lvgl\src\misc\lv_color.h **** /*********************
  33:c:\projects\paindrain\arduinolcd\test\pain drain\libraries\lvgl\src\misc\lv_color.h ****  *      DEFINES
  34:c:\projects\paindrain\arduinolcd\test\pain drain\libraries\lvgl\src\misc\lv_color.h ****  *********************/
  35:c:\projects\paindrain\arduinolcd\test\pain drain\libraries\lvgl\src\misc\lv_color.h **** LV_EXPORT_CONST_INT(LV_COLOR_DEPTH);
  36:c:\projects\paindrain\arduinolcd\test\pain drain\libraries\lvgl\src\misc\lv_color.h **** LV_EXPORT_CONST_INT(LV_COLOR_16_SWAP);
  37:c:\projects\paindrain\arduinolcd\test\pain drain\libraries\lvgl\src\misc\lv_color.h **** 
  38:c:\projects\paindrain\arduinolcd\test\pain drain\libraries\lvgl\src\misc\lv_color.h **** /**
  39:c:\projects\paindrain\arduinolcd\test\pain drain\libraries\lvgl\src\misc\lv_color.h ****  * Opacity percentages.
  40:c:\projects\paindrain\arduinolcd\test\pain drain\libraries\lvgl\src\misc\lv_color.h ****  */
  41:c:\projects\paindrain\arduinolcd\test\pain drain\libraries\lvgl\src\misc\lv_color.h **** enum {
  42:c:\projects\paindrain\arduinolcd\test\pain drain\libraries\lvgl\src\misc\lv_color.h ****     LV_OPA_TRANSP = 0,
  43:c:\projects\paindrain\arduinolcd\test\pain drain\libraries\lvgl\src\misc\lv_color.h ****     LV_OPA_0      = 0,
  44:c:\projects\paindrain\arduinolcd\test\pain drain\libraries\lvgl\src\misc\lv_color.h ****     LV_OPA_10     = 25,
  45:c:\projects\paindrain\arduinolcd\test\pain drain\libraries\lvgl\src\misc\lv_color.h ****     LV_OPA_20     = 51,
  46:c:\projects\paindrain\arduinolcd\test\pain drain\libraries\lvgl\src\misc\lv_color.h ****     LV_OPA_30     = 76,
  47:c:\projects\paindrain\arduinolcd\test\pain drain\libraries\lvgl\src\misc\lv_color.h ****     LV_OPA_40     = 102,
  48:c:\projects\paindrain\arduinolcd\test\pain drain\libraries\lvgl\src\misc\lv_color.h ****     LV_OPA_50     = 127,
  49:c:\projects\paindrain\arduinolcd\test\pain drain\libraries\lvgl\src\misc\lv_color.h ****     LV_OPA_60     = 153,
  50:c:\projects\paindrain\arduinolcd\test\pain drain\libraries\lvgl\src\misc\lv_color.h ****     LV_OPA_70     = 178,
  51:c:\projects\paindrain\arduinolcd\test\pain drain\libraries\lvgl\src\misc\lv_color.h ****     LV_OPA_80     = 204,
  52:c:\projects\paindrain\arduinolcd\test\pain drain\libraries\lvgl\src\misc\lv_color.h ****     LV_OPA_90     = 229,
  53:c:\projects\paindrain\arduinolcd\test\pain drain\libraries\lvgl\src\misc\lv_color.h ****     LV_OPA_100    = 255,
  54:c:\projects\paindrain\arduinolcd\test\pain drain\libraries\lvgl\src\misc\lv_color.h ****     LV_OPA_COVER  = 255,
  55:c:\projects\paindrain\arduinolcd\test\pain drain\libraries\lvgl\src\misc\lv_color.h **** };
  56:c:\projects\paindrain\arduinolcd\test\pain drain\libraries\lvgl\src\misc\lv_color.h **** 
  57:c:\projects\paindrain\arduinolcd\test\pain drain\libraries\lvgl\src\misc\lv_color.h **** #define LV_OPA_MIN 2    /*Opacities below this will be transparent*/
  58:c:\projects\paindrain\arduinolcd\test\pain drain\libraries\lvgl\src\misc\lv_color.h **** #define LV_OPA_MAX 253  /*Opacities above this will fully cover*/
  59:c:\projects\paindrain\arduinolcd\test\pain drain\libraries\lvgl\src\misc\lv_color.h **** 
  60:c:\projects\paindrain\arduinolcd\test\pain drain\libraries\lvgl\src\misc\lv_color.h **** #if LV_COLOR_DEPTH == 1
  61:c:\projects\paindrain\arduinolcd\test\pain drain\libraries\lvgl\src\misc\lv_color.h **** #define LV_COLOR_SIZE 8
  62:c:\projects\paindrain\arduinolcd\test\pain drain\libraries\lvgl\src\misc\lv_color.h **** #elif LV_COLOR_DEPTH == 8
  63:c:\projects\paindrain\arduinolcd\test\pain drain\libraries\lvgl\src\misc\lv_color.h **** #define LV_COLOR_SIZE 8
  64:c:\projects\paindrain\arduinolcd\test\pain drain\libraries\lvgl\src\misc\lv_color.h **** #elif LV_COLOR_DEPTH == 16
  65:c:\projects\paindrain\arduinolcd\test\pain drain\libraries\lvgl\src\misc\lv_color.h **** #define LV_COLOR_SIZE 16
  66:c:\projects\paindrain\arduinolcd\test\pain drain\libraries\lvgl\src\misc\lv_color.h **** #elif LV_COLOR_DEPTH == 32
  67:c:\projects\paindrain\arduinolcd\test\pain drain\libraries\lvgl\src\misc\lv_color.h **** #define LV_COLOR_SIZE 32
  68:c:\projects\paindrain\arduinolcd\test\pain drain\libraries\lvgl\src\misc\lv_color.h **** #else
  69:c:\projects\paindrain\arduinolcd\test\pain drain\libraries\lvgl\src\misc\lv_color.h **** #error "Invalid LV_COLOR_DEPTH in lv_conf.h! Set it to 1, 8, 16 or 32!"
  70:c:\projects\paindrain\arduinolcd\test\pain drain\libraries\lvgl\src\misc\lv_color.h **** #endif
  71:c:\projects\paindrain\arduinolcd\test\pain drain\libraries\lvgl\src\misc\lv_color.h **** 
  72:c:\projects\paindrain\arduinolcd\test\pain drain\libraries\lvgl\src\misc\lv_color.h **** #if defined(__cplusplus) && !defined(_LV_COLOR_HAS_MODERN_CPP)
  73:c:\projects\paindrain\arduinolcd\test\pain drain\libraries\lvgl\src\misc\lv_color.h **** /**
  74:c:\projects\paindrain\arduinolcd\test\pain drain\libraries\lvgl\src\misc\lv_color.h **** * MSVC compiler's definition of the __cplusplus indicating 199711L regardless to C++ standard versi
  75:c:\projects\paindrain\arduinolcd\test\pain drain\libraries\lvgl\src\misc\lv_color.h **** * see https://devblogs.microsoft.com/cppblog/msvc-now-correctly-reports-cplusplus
  76:c:\projects\paindrain\arduinolcd\test\pain drain\libraries\lvgl\src\misc\lv_color.h **** * so we use _MSC_VER macro instead of __cplusplus
  77:c:\projects\paindrain\arduinolcd\test\pain drain\libraries\lvgl\src\misc\lv_color.h **** */
  78:c:\projects\paindrain\arduinolcd\test\pain drain\libraries\lvgl\src\misc\lv_color.h **** #ifdef _MSC_VER
ARM GAS  C:\Users\haske\AppData\Local\Temp\cc7ZkKza.s 			page 35


  79:c:\projects\paindrain\arduinolcd\test\pain drain\libraries\lvgl\src\misc\lv_color.h **** #if _MSC_VER >= 1900 /*Visual Studio 2015*/
  80:c:\projects\paindrain\arduinolcd\test\pain drain\libraries\lvgl\src\misc\lv_color.h **** #define _LV_COLOR_HAS_MODERN_CPP 1
  81:c:\projects\paindrain\arduinolcd\test\pain drain\libraries\lvgl\src\misc\lv_color.h **** #endif
  82:c:\projects\paindrain\arduinolcd\test\pain drain\libraries\lvgl\src\misc\lv_color.h **** #else
  83:c:\projects\paindrain\arduinolcd\test\pain drain\libraries\lvgl\src\misc\lv_color.h **** #if __cplusplus >= 201103L
  84:c:\projects\paindrain\arduinolcd\test\pain drain\libraries\lvgl\src\misc\lv_color.h **** #define _LV_COLOR_HAS_MODERN_CPP 1
  85:c:\projects\paindrain\arduinolcd\test\pain drain\libraries\lvgl\src\misc\lv_color.h **** #endif
  86:c:\projects\paindrain\arduinolcd\test\pain drain\libraries\lvgl\src\misc\lv_color.h **** #endif
  87:c:\projects\paindrain\arduinolcd\test\pain drain\libraries\lvgl\src\misc\lv_color.h **** #endif /*__cplusplus*/
  88:c:\projects\paindrain\arduinolcd\test\pain drain\libraries\lvgl\src\misc\lv_color.h **** 
  89:c:\projects\paindrain\arduinolcd\test\pain drain\libraries\lvgl\src\misc\lv_color.h **** #ifndef _LV_COLOR_HAS_MODERN_CPP
  90:c:\projects\paindrain\arduinolcd\test\pain drain\libraries\lvgl\src\misc\lv_color.h **** #define _LV_COLOR_HAS_MODERN_CPP 0
  91:c:\projects\paindrain\arduinolcd\test\pain drain\libraries\lvgl\src\misc\lv_color.h **** #endif
  92:c:\projects\paindrain\arduinolcd\test\pain drain\libraries\lvgl\src\misc\lv_color.h **** 
  93:c:\projects\paindrain\arduinolcd\test\pain drain\libraries\lvgl\src\misc\lv_color.h **** #if _LV_COLOR_HAS_MODERN_CPP
  94:c:\projects\paindrain\arduinolcd\test\pain drain\libraries\lvgl\src\misc\lv_color.h **** /*Fix msvc compiler error C4576 inside C++ code*/
  95:c:\projects\paindrain\arduinolcd\test\pain drain\libraries\lvgl\src\misc\lv_color.h **** #define _LV_COLOR_MAKE_TYPE_HELPER lv_color_t
  96:c:\projects\paindrain\arduinolcd\test\pain drain\libraries\lvgl\src\misc\lv_color.h **** #else
  97:c:\projects\paindrain\arduinolcd\test\pain drain\libraries\lvgl\src\misc\lv_color.h **** #define _LV_COLOR_MAKE_TYPE_HELPER (lv_color_t)
  98:c:\projects\paindrain\arduinolcd\test\pain drain\libraries\lvgl\src\misc\lv_color.h **** #endif
  99:c:\projects\paindrain\arduinolcd\test\pain drain\libraries\lvgl\src\misc\lv_color.h **** 
 100:c:\projects\paindrain\arduinolcd\test\pain drain\libraries\lvgl\src\misc\lv_color.h **** /*---------------------------------------
 101:c:\projects\paindrain\arduinolcd\test\pain drain\libraries\lvgl\src\misc\lv_color.h ****  * Macros for all existing color depths
 102:c:\projects\paindrain\arduinolcd\test\pain drain\libraries\lvgl\src\misc\lv_color.h ****  * to set/get values of the color channels
 103:c:\projects\paindrain\arduinolcd\test\pain drain\libraries\lvgl\src\misc\lv_color.h ****  *------------------------------------------*/
 104:c:\projects\paindrain\arduinolcd\test\pain drain\libraries\lvgl\src\misc\lv_color.h **** # define LV_COLOR_SET_R1(c, v) (c).ch.red = (uint8_t)((v) & 0x1)
 105:c:\projects\paindrain\arduinolcd\test\pain drain\libraries\lvgl\src\misc\lv_color.h **** # define LV_COLOR_SET_G1(c, v) (c).ch.green = (uint8_t)((v) & 0x1)
 106:c:\projects\paindrain\arduinolcd\test\pain drain\libraries\lvgl\src\misc\lv_color.h **** # define LV_COLOR_SET_B1(c, v) (c).ch.blue = (uint8_t)((v) & 0x1)
 107:c:\projects\paindrain\arduinolcd\test\pain drain\libraries\lvgl\src\misc\lv_color.h **** # define LV_COLOR_SET_A1(c, v) do {} while(0)
 108:c:\projects\paindrain\arduinolcd\test\pain drain\libraries\lvgl\src\misc\lv_color.h **** 
 109:c:\projects\paindrain\arduinolcd\test\pain drain\libraries\lvgl\src\misc\lv_color.h **** # define LV_COLOR_GET_R1(c) (c).ch.red
 110:c:\projects\paindrain\arduinolcd\test\pain drain\libraries\lvgl\src\misc\lv_color.h **** # define LV_COLOR_GET_G1(c) (c).ch.green
 111:c:\projects\paindrain\arduinolcd\test\pain drain\libraries\lvgl\src\misc\lv_color.h **** # define LV_COLOR_GET_B1(c) (c).ch.blue
 112:c:\projects\paindrain\arduinolcd\test\pain drain\libraries\lvgl\src\misc\lv_color.h **** # define LV_COLOR_GET_A1(c) 0xFF
 113:c:\projects\paindrain\arduinolcd\test\pain drain\libraries\lvgl\src\misc\lv_color.h **** 
 114:c:\projects\paindrain\arduinolcd\test\pain drain\libraries\lvgl\src\misc\lv_color.h **** # define _LV_COLOR_ZERO_INITIALIZER1 {0x00}
 115:c:\projects\paindrain\arduinolcd\test\pain drain\libraries\lvgl\src\misc\lv_color.h **** # define LV_COLOR_MAKE1(r8, g8, b8)  {(uint8_t)((b8 >> 7) | (g8 >> 7) | (r8 >> 7))}
 116:c:\projects\paindrain\arduinolcd\test\pain drain\libraries\lvgl\src\misc\lv_color.h **** 
 117:c:\projects\paindrain\arduinolcd\test\pain drain\libraries\lvgl\src\misc\lv_color.h **** # define LV_COLOR_SET_R8(c, v) (c).ch.red = (uint8_t)((v) & 0x7U)
 118:c:\projects\paindrain\arduinolcd\test\pain drain\libraries\lvgl\src\misc\lv_color.h **** # define LV_COLOR_SET_G8(c, v) (c).ch.green = (uint8_t)((v) & 0x7U)
 119:c:\projects\paindrain\arduinolcd\test\pain drain\libraries\lvgl\src\misc\lv_color.h **** # define LV_COLOR_SET_B8(c, v) (c).ch.blue = (uint8_t)((v) & 0x3U)
 120:c:\projects\paindrain\arduinolcd\test\pain drain\libraries\lvgl\src\misc\lv_color.h **** # define LV_COLOR_SET_A8(c, v) do {} while(0)
 121:c:\projects\paindrain\arduinolcd\test\pain drain\libraries\lvgl\src\misc\lv_color.h **** 
 122:c:\projects\paindrain\arduinolcd\test\pain drain\libraries\lvgl\src\misc\lv_color.h **** # define LV_COLOR_GET_R8(c) (c).ch.red
 123:c:\projects\paindrain\arduinolcd\test\pain drain\libraries\lvgl\src\misc\lv_color.h **** # define LV_COLOR_GET_G8(c) (c).ch.green
 124:c:\projects\paindrain\arduinolcd\test\pain drain\libraries\lvgl\src\misc\lv_color.h **** # define LV_COLOR_GET_B8(c) (c).ch.blue
 125:c:\projects\paindrain\arduinolcd\test\pain drain\libraries\lvgl\src\misc\lv_color.h **** # define LV_COLOR_GET_A8(c) 0xFF
 126:c:\projects\paindrain\arduinolcd\test\pain drain\libraries\lvgl\src\misc\lv_color.h **** 
 127:c:\projects\paindrain\arduinolcd\test\pain drain\libraries\lvgl\src\misc\lv_color.h **** # define _LV_COLOR_ZERO_INITIALIZER8 {{0x00, 0x00, 0x00}}
 128:c:\projects\paindrain\arduinolcd\test\pain drain\libraries\lvgl\src\misc\lv_color.h **** # define LV_COLOR_MAKE8(r8, g8, b8) {{(uint8_t)((b8 >> 6) & 0x3U), (uint8_t)((g8 >> 5) & 0x7U), (ui
 129:c:\projects\paindrain\arduinolcd\test\pain drain\libraries\lvgl\src\misc\lv_color.h **** 
 130:c:\projects\paindrain\arduinolcd\test\pain drain\libraries\lvgl\src\misc\lv_color.h **** # define LV_COLOR_SET_R16(c, v) (c).ch.red = (uint8_t)((v) & 0x1FU)
 131:c:\projects\paindrain\arduinolcd\test\pain drain\libraries\lvgl\src\misc\lv_color.h **** #if LV_COLOR_16_SWAP == 0
 132:c:\projects\paindrain\arduinolcd\test\pain drain\libraries\lvgl\src\misc\lv_color.h **** # define LV_COLOR_SET_G16(c, v) (c).ch.green = (uint8_t)((v) & 0x3FU)
 133:c:\projects\paindrain\arduinolcd\test\pain drain\libraries\lvgl\src\misc\lv_color.h **** #else
 134:c:\projects\paindrain\arduinolcd\test\pain drain\libraries\lvgl\src\misc\lv_color.h **** # define LV_COLOR_SET_G16(c, v) {(c).ch.green_h = (uint8_t)(((v) >> 3) & 0x7); (c).ch.green_l = (ui
 135:c:\projects\paindrain\arduinolcd\test\pain drain\libraries\lvgl\src\misc\lv_color.h **** #endif
ARM GAS  C:\Users\haske\AppData\Local\Temp\cc7ZkKza.s 			page 36


 136:c:\projects\paindrain\arduinolcd\test\pain drain\libraries\lvgl\src\misc\lv_color.h **** # define LV_COLOR_SET_B16(c, v) (c).ch.blue = (uint8_t)((v) & 0x1FU)
 137:c:\projects\paindrain\arduinolcd\test\pain drain\libraries\lvgl\src\misc\lv_color.h **** # define LV_COLOR_SET_A16(c, v) do {} while(0)
 138:c:\projects\paindrain\arduinolcd\test\pain drain\libraries\lvgl\src\misc\lv_color.h **** 
 139:c:\projects\paindrain\arduinolcd\test\pain drain\libraries\lvgl\src\misc\lv_color.h **** # define LV_COLOR_GET_R16(c) (c).ch.red
 140:c:\projects\paindrain\arduinolcd\test\pain drain\libraries\lvgl\src\misc\lv_color.h **** #if LV_COLOR_16_SWAP == 0
 141:c:\projects\paindrain\arduinolcd\test\pain drain\libraries\lvgl\src\misc\lv_color.h **** # define LV_COLOR_GET_G16(c) (c).ch.green
 142:c:\projects\paindrain\arduinolcd\test\pain drain\libraries\lvgl\src\misc\lv_color.h **** #else
 143:c:\projects\paindrain\arduinolcd\test\pain drain\libraries\lvgl\src\misc\lv_color.h **** # define LV_COLOR_GET_G16(c) (((c).ch.green_h << 3) + (c).ch.green_l)
 144:c:\projects\paindrain\arduinolcd\test\pain drain\libraries\lvgl\src\misc\lv_color.h **** #endif
 145:c:\projects\paindrain\arduinolcd\test\pain drain\libraries\lvgl\src\misc\lv_color.h **** # define LV_COLOR_GET_B16(c) (c).ch.blue
 146:c:\projects\paindrain\arduinolcd\test\pain drain\libraries\lvgl\src\misc\lv_color.h **** # define LV_COLOR_GET_A16(c) 0xFF
 147:c:\projects\paindrain\arduinolcd\test\pain drain\libraries\lvgl\src\misc\lv_color.h **** 
 148:c:\projects\paindrain\arduinolcd\test\pain drain\libraries\lvgl\src\misc\lv_color.h **** #if LV_COLOR_16_SWAP == 0
 149:c:\projects\paindrain\arduinolcd\test\pain drain\libraries\lvgl\src\misc\lv_color.h **** # define _LV_COLOR_ZERO_INITIALIZER16  {{0x00, 0x00, 0x00}}
 150:c:\projects\paindrain\arduinolcd\test\pain drain\libraries\lvgl\src\misc\lv_color.h **** # define LV_COLOR_MAKE16(r8, g8, b8) {{(uint8_t)((b8 >> 3) & 0x1FU), (uint8_t)((g8 >> 2) & 0x3FU), 
 151:c:\projects\paindrain\arduinolcd\test\pain drain\libraries\lvgl\src\misc\lv_color.h **** #else
 152:c:\projects\paindrain\arduinolcd\test\pain drain\libraries\lvgl\src\misc\lv_color.h **** # define _LV_COLOR_ZERO_INITIALIZER16 {{0x00, 0x00, 0x00, 0x00}}
 153:c:\projects\paindrain\arduinolcd\test\pain drain\libraries\lvgl\src\misc\lv_color.h **** # define LV_COLOR_MAKE16(r8, g8, b8) {{(uint8_t)((g8 >> 5) & 0x7U), (uint8_t)((r8 >> 3) & 0x1FU), (
 154:c:\projects\paindrain\arduinolcd\test\pain drain\libraries\lvgl\src\misc\lv_color.h **** #endif
 155:c:\projects\paindrain\arduinolcd\test\pain drain\libraries\lvgl\src\misc\lv_color.h **** 
 156:c:\projects\paindrain\arduinolcd\test\pain drain\libraries\lvgl\src\misc\lv_color.h **** # define LV_COLOR_SET_R32(c, v) (c).ch.red = (uint8_t)((v) & 0xFF)
 157:c:\projects\paindrain\arduinolcd\test\pain drain\libraries\lvgl\src\misc\lv_color.h **** # define LV_COLOR_SET_G32(c, v) (c).ch.green = (uint8_t)((v) & 0xFF)
 158:c:\projects\paindrain\arduinolcd\test\pain drain\libraries\lvgl\src\misc\lv_color.h **** # define LV_COLOR_SET_B32(c, v) (c).ch.blue = (uint8_t)((v) & 0xFF)
 159:c:\projects\paindrain\arduinolcd\test\pain drain\libraries\lvgl\src\misc\lv_color.h **** # define LV_COLOR_SET_A32(c, v) (c).ch.alpha = (uint8_t)((v) & 0xFF)
 160:c:\projects\paindrain\arduinolcd\test\pain drain\libraries\lvgl\src\misc\lv_color.h **** 
 161:c:\projects\paindrain\arduinolcd\test\pain drain\libraries\lvgl\src\misc\lv_color.h **** # define LV_COLOR_GET_R32(c) (c).ch.red
 162:c:\projects\paindrain\arduinolcd\test\pain drain\libraries\lvgl\src\misc\lv_color.h **** # define LV_COLOR_GET_G32(c) (c).ch.green
 163:c:\projects\paindrain\arduinolcd\test\pain drain\libraries\lvgl\src\misc\lv_color.h **** # define LV_COLOR_GET_B32(c) (c).ch.blue
 164:c:\projects\paindrain\arduinolcd\test\pain drain\libraries\lvgl\src\misc\lv_color.h **** # define LV_COLOR_GET_A32(c) (c).ch.alpha
 165:c:\projects\paindrain\arduinolcd\test\pain drain\libraries\lvgl\src\misc\lv_color.h **** 
 166:c:\projects\paindrain\arduinolcd\test\pain drain\libraries\lvgl\src\misc\lv_color.h **** # define _LV_COLOR_ZERO_INITIALIZER32  {{0x00, 0x00, 0x00, 0x00}}
 167:c:\projects\paindrain\arduinolcd\test\pain drain\libraries\lvgl\src\misc\lv_color.h **** # define LV_COLOR_MAKE32(r8, g8, b8) {{b8, g8, r8, 0xff}} /*Fix 0xff alpha*/
 168:c:\projects\paindrain\arduinolcd\test\pain drain\libraries\lvgl\src\misc\lv_color.h **** 
 169:c:\projects\paindrain\arduinolcd\test\pain drain\libraries\lvgl\src\misc\lv_color.h **** /*---------------------------------------
 170:c:\projects\paindrain\arduinolcd\test\pain drain\libraries\lvgl\src\misc\lv_color.h ****  * Macros for the current color depth
 171:c:\projects\paindrain\arduinolcd\test\pain drain\libraries\lvgl\src\misc\lv_color.h ****  * to set/get values of the color channels
 172:c:\projects\paindrain\arduinolcd\test\pain drain\libraries\lvgl\src\misc\lv_color.h ****  *------------------------------------------*/
 173:c:\projects\paindrain\arduinolcd\test\pain drain\libraries\lvgl\src\misc\lv_color.h **** #define LV_COLOR_SET_R(c, v) LV_CONCAT(LV_COLOR_SET_R, LV_COLOR_DEPTH)(c, v)
 174:c:\projects\paindrain\arduinolcd\test\pain drain\libraries\lvgl\src\misc\lv_color.h **** #define LV_COLOR_SET_G(c, v) LV_CONCAT(LV_COLOR_SET_G, LV_COLOR_DEPTH)(c, v)
 175:c:\projects\paindrain\arduinolcd\test\pain drain\libraries\lvgl\src\misc\lv_color.h **** #define LV_COLOR_SET_B(c, v) LV_CONCAT(LV_COLOR_SET_B, LV_COLOR_DEPTH)(c, v)
 176:c:\projects\paindrain\arduinolcd\test\pain drain\libraries\lvgl\src\misc\lv_color.h **** #define LV_COLOR_SET_A(c, v) LV_CONCAT(LV_COLOR_SET_A, LV_COLOR_DEPTH)(c, v)
 177:c:\projects\paindrain\arduinolcd\test\pain drain\libraries\lvgl\src\misc\lv_color.h **** 
 178:c:\projects\paindrain\arduinolcd\test\pain drain\libraries\lvgl\src\misc\lv_color.h **** #define LV_COLOR_GET_R(c) LV_CONCAT(LV_COLOR_GET_R, LV_COLOR_DEPTH)(c)
 179:c:\projects\paindrain\arduinolcd\test\pain drain\libraries\lvgl\src\misc\lv_color.h **** #define LV_COLOR_GET_G(c) LV_CONCAT(LV_COLOR_GET_G, LV_COLOR_DEPTH)(c)
 180:c:\projects\paindrain\arduinolcd\test\pain drain\libraries\lvgl\src\misc\lv_color.h **** #define LV_COLOR_GET_B(c) LV_CONCAT(LV_COLOR_GET_B, LV_COLOR_DEPTH)(c)
 181:c:\projects\paindrain\arduinolcd\test\pain drain\libraries\lvgl\src\misc\lv_color.h **** #define LV_COLOR_GET_A(c) LV_CONCAT(LV_COLOR_GET_A, LV_COLOR_DEPTH)(c)
 182:c:\projects\paindrain\arduinolcd\test\pain drain\libraries\lvgl\src\misc\lv_color.h **** 
 183:c:\projects\paindrain\arduinolcd\test\pain drain\libraries\lvgl\src\misc\lv_color.h **** #define _LV_COLOR_ZERO_INITIALIZER LV_CONCAT(_LV_COLOR_ZERO_INITIALIZER, LV_COLOR_DEPTH)
 184:c:\projects\paindrain\arduinolcd\test\pain drain\libraries\lvgl\src\misc\lv_color.h **** #define LV_COLOR_MAKE(r8, g8, b8) LV_CONCAT(LV_COLOR_MAKE, LV_COLOR_DEPTH)(r8, g8, b8)
 185:c:\projects\paindrain\arduinolcd\test\pain drain\libraries\lvgl\src\misc\lv_color.h **** 
 186:c:\projects\paindrain\arduinolcd\test\pain drain\libraries\lvgl\src\misc\lv_color.h **** /**********************
 187:c:\projects\paindrain\arduinolcd\test\pain drain\libraries\lvgl\src\misc\lv_color.h ****  *      TYPEDEFS
 188:c:\projects\paindrain\arduinolcd\test\pain drain\libraries\lvgl\src\misc\lv_color.h ****  **********************/
 189:c:\projects\paindrain\arduinolcd\test\pain drain\libraries\lvgl\src\misc\lv_color.h **** 
 190:c:\projects\paindrain\arduinolcd\test\pain drain\libraries\lvgl\src\misc\lv_color.h **** typedef union {
 191:c:\projects\paindrain\arduinolcd\test\pain drain\libraries\lvgl\src\misc\lv_color.h ****     uint8_t full; /*must be declared first to set all bits of byte via initializer list*/
 192:c:\projects\paindrain\arduinolcd\test\pain drain\libraries\lvgl\src\misc\lv_color.h ****     union {
ARM GAS  C:\Users\haske\AppData\Local\Temp\cc7ZkKza.s 			page 37


 193:c:\projects\paindrain\arduinolcd\test\pain drain\libraries\lvgl\src\misc\lv_color.h ****         uint8_t blue : 1;
 194:c:\projects\paindrain\arduinolcd\test\pain drain\libraries\lvgl\src\misc\lv_color.h ****         uint8_t green : 1;
 195:c:\projects\paindrain\arduinolcd\test\pain drain\libraries\lvgl\src\misc\lv_color.h ****         uint8_t red : 1;
 196:c:\projects\paindrain\arduinolcd\test\pain drain\libraries\lvgl\src\misc\lv_color.h ****     } ch;
 197:c:\projects\paindrain\arduinolcd\test\pain drain\libraries\lvgl\src\misc\lv_color.h **** } lv_color1_t;
 198:c:\projects\paindrain\arduinolcd\test\pain drain\libraries\lvgl\src\misc\lv_color.h **** 
 199:c:\projects\paindrain\arduinolcd\test\pain drain\libraries\lvgl\src\misc\lv_color.h **** typedef union {
 200:c:\projects\paindrain\arduinolcd\test\pain drain\libraries\lvgl\src\misc\lv_color.h ****     struct {
 201:c:\projects\paindrain\arduinolcd\test\pain drain\libraries\lvgl\src\misc\lv_color.h ****         uint8_t blue : 2;
 202:c:\projects\paindrain\arduinolcd\test\pain drain\libraries\lvgl\src\misc\lv_color.h ****         uint8_t green : 3;
 203:c:\projects\paindrain\arduinolcd\test\pain drain\libraries\lvgl\src\misc\lv_color.h ****         uint8_t red : 3;
 204:c:\projects\paindrain\arduinolcd\test\pain drain\libraries\lvgl\src\misc\lv_color.h ****     } ch;
 205:c:\projects\paindrain\arduinolcd\test\pain drain\libraries\lvgl\src\misc\lv_color.h ****     uint8_t full;
 206:c:\projects\paindrain\arduinolcd\test\pain drain\libraries\lvgl\src\misc\lv_color.h **** } lv_color8_t;
 207:c:\projects\paindrain\arduinolcd\test\pain drain\libraries\lvgl\src\misc\lv_color.h **** 
 208:c:\projects\paindrain\arduinolcd\test\pain drain\libraries\lvgl\src\misc\lv_color.h **** typedef union {
 209:c:\projects\paindrain\arduinolcd\test\pain drain\libraries\lvgl\src\misc\lv_color.h ****     struct {
 210:c:\projects\paindrain\arduinolcd\test\pain drain\libraries\lvgl\src\misc\lv_color.h **** #if LV_COLOR_16_SWAP == 0
 211:c:\projects\paindrain\arduinolcd\test\pain drain\libraries\lvgl\src\misc\lv_color.h ****         uint16_t blue : 5;
 212:c:\projects\paindrain\arduinolcd\test\pain drain\libraries\lvgl\src\misc\lv_color.h ****         uint16_t green : 6;
 213:c:\projects\paindrain\arduinolcd\test\pain drain\libraries\lvgl\src\misc\lv_color.h ****         uint16_t red : 5;
 214:c:\projects\paindrain\arduinolcd\test\pain drain\libraries\lvgl\src\misc\lv_color.h **** #else
 215:c:\projects\paindrain\arduinolcd\test\pain drain\libraries\lvgl\src\misc\lv_color.h ****         uint16_t green_h : 3;
 216:c:\projects\paindrain\arduinolcd\test\pain drain\libraries\lvgl\src\misc\lv_color.h ****         uint16_t red : 5;
 217:c:\projects\paindrain\arduinolcd\test\pain drain\libraries\lvgl\src\misc\lv_color.h ****         uint16_t blue : 5;
 218:c:\projects\paindrain\arduinolcd\test\pain drain\libraries\lvgl\src\misc\lv_color.h ****         uint16_t green_l : 3;
 219:c:\projects\paindrain\arduinolcd\test\pain drain\libraries\lvgl\src\misc\lv_color.h **** #endif
 220:c:\projects\paindrain\arduinolcd\test\pain drain\libraries\lvgl\src\misc\lv_color.h ****     } ch;
 221:c:\projects\paindrain\arduinolcd\test\pain drain\libraries\lvgl\src\misc\lv_color.h ****     uint16_t full;
 222:c:\projects\paindrain\arduinolcd\test\pain drain\libraries\lvgl\src\misc\lv_color.h **** } lv_color16_t;
 223:c:\projects\paindrain\arduinolcd\test\pain drain\libraries\lvgl\src\misc\lv_color.h **** 
 224:c:\projects\paindrain\arduinolcd\test\pain drain\libraries\lvgl\src\misc\lv_color.h **** typedef union {
 225:c:\projects\paindrain\arduinolcd\test\pain drain\libraries\lvgl\src\misc\lv_color.h ****     struct {
 226:c:\projects\paindrain\arduinolcd\test\pain drain\libraries\lvgl\src\misc\lv_color.h ****         uint8_t blue;
 227:c:\projects\paindrain\arduinolcd\test\pain drain\libraries\lvgl\src\misc\lv_color.h ****         uint8_t green;
 228:c:\projects\paindrain\arduinolcd\test\pain drain\libraries\lvgl\src\misc\lv_color.h ****         uint8_t red;
 229:c:\projects\paindrain\arduinolcd\test\pain drain\libraries\lvgl\src\misc\lv_color.h ****         uint8_t alpha;
 230:c:\projects\paindrain\arduinolcd\test\pain drain\libraries\lvgl\src\misc\lv_color.h ****     } ch;
 231:c:\projects\paindrain\arduinolcd\test\pain drain\libraries\lvgl\src\misc\lv_color.h ****     uint32_t full;
 232:c:\projects\paindrain\arduinolcd\test\pain drain\libraries\lvgl\src\misc\lv_color.h **** } lv_color32_t;
 233:c:\projects\paindrain\arduinolcd\test\pain drain\libraries\lvgl\src\misc\lv_color.h **** 
 234:c:\projects\paindrain\arduinolcd\test\pain drain\libraries\lvgl\src\misc\lv_color.h **** typedef LV_CONCAT3(uint, LV_COLOR_SIZE, _t) lv_color_int_t;
 235:c:\projects\paindrain\arduinolcd\test\pain drain\libraries\lvgl\src\misc\lv_color.h **** typedef LV_CONCAT3(lv_color, LV_COLOR_DEPTH, _t) lv_color_t;
 236:c:\projects\paindrain\arduinolcd\test\pain drain\libraries\lvgl\src\misc\lv_color.h **** 
 237:c:\projects\paindrain\arduinolcd\test\pain drain\libraries\lvgl\src\misc\lv_color.h **** typedef struct {
 238:c:\projects\paindrain\arduinolcd\test\pain drain\libraries\lvgl\src\misc\lv_color.h ****     uint16_t h;
 239:c:\projects\paindrain\arduinolcd\test\pain drain\libraries\lvgl\src\misc\lv_color.h ****     uint8_t s;
 240:c:\projects\paindrain\arduinolcd\test\pain drain\libraries\lvgl\src\misc\lv_color.h ****     uint8_t v;
 241:c:\projects\paindrain\arduinolcd\test\pain drain\libraries\lvgl\src\misc\lv_color.h **** } lv_color_hsv_t;
 242:c:\projects\paindrain\arduinolcd\test\pain drain\libraries\lvgl\src\misc\lv_color.h **** 
 243:c:\projects\paindrain\arduinolcd\test\pain drain\libraries\lvgl\src\misc\lv_color.h **** //! @cond Doxygen_Suppress
 244:c:\projects\paindrain\arduinolcd\test\pain drain\libraries\lvgl\src\misc\lv_color.h **** /*No idea where the guard is required but else throws warnings in the docs*/
 245:c:\projects\paindrain\arduinolcd\test\pain drain\libraries\lvgl\src\misc\lv_color.h **** typedef uint8_t lv_opa_t;
 246:c:\projects\paindrain\arduinolcd\test\pain drain\libraries\lvgl\src\misc\lv_color.h **** //! @endcond
 247:c:\projects\paindrain\arduinolcd\test\pain drain\libraries\lvgl\src\misc\lv_color.h **** 
 248:c:\projects\paindrain\arduinolcd\test\pain drain\libraries\lvgl\src\misc\lv_color.h **** struct _lv_color_filter_dsc_t;
 249:c:\projects\paindrain\arduinolcd\test\pain drain\libraries\lvgl\src\misc\lv_color.h **** 
ARM GAS  C:\Users\haske\AppData\Local\Temp\cc7ZkKza.s 			page 38


 250:c:\projects\paindrain\arduinolcd\test\pain drain\libraries\lvgl\src\misc\lv_color.h **** typedef lv_color_t (*lv_color_filter_cb_t)(const struct _lv_color_filter_dsc_t *, lv_color_t, lv_op
 251:c:\projects\paindrain\arduinolcd\test\pain drain\libraries\lvgl\src\misc\lv_color.h **** 
 252:c:\projects\paindrain\arduinolcd\test\pain drain\libraries\lvgl\src\misc\lv_color.h **** typedef struct _lv_color_filter_dsc_t {
 253:c:\projects\paindrain\arduinolcd\test\pain drain\libraries\lvgl\src\misc\lv_color.h ****     lv_color_filter_cb_t filter_cb;
 254:c:\projects\paindrain\arduinolcd\test\pain drain\libraries\lvgl\src\misc\lv_color.h ****     void * user_data;
 255:c:\projects\paindrain\arduinolcd\test\pain drain\libraries\lvgl\src\misc\lv_color.h **** } lv_color_filter_dsc_t;
 256:c:\projects\paindrain\arduinolcd\test\pain drain\libraries\lvgl\src\misc\lv_color.h **** 
 257:c:\projects\paindrain\arduinolcd\test\pain drain\libraries\lvgl\src\misc\lv_color.h **** 
 258:c:\projects\paindrain\arduinolcd\test\pain drain\libraries\lvgl\src\misc\lv_color.h **** typedef enum {
 259:c:\projects\paindrain\arduinolcd\test\pain drain\libraries\lvgl\src\misc\lv_color.h ****     LV_PALETTE_RED,
 260:c:\projects\paindrain\arduinolcd\test\pain drain\libraries\lvgl\src\misc\lv_color.h ****     LV_PALETTE_PINK,
 261:c:\projects\paindrain\arduinolcd\test\pain drain\libraries\lvgl\src\misc\lv_color.h ****     LV_PALETTE_PURPLE,
 262:c:\projects\paindrain\arduinolcd\test\pain drain\libraries\lvgl\src\misc\lv_color.h ****     LV_PALETTE_DEEP_PURPLE,
 263:c:\projects\paindrain\arduinolcd\test\pain drain\libraries\lvgl\src\misc\lv_color.h ****     LV_PALETTE_INDIGO,
 264:c:\projects\paindrain\arduinolcd\test\pain drain\libraries\lvgl\src\misc\lv_color.h ****     LV_PALETTE_BLUE,
 265:c:\projects\paindrain\arduinolcd\test\pain drain\libraries\lvgl\src\misc\lv_color.h ****     LV_PALETTE_LIGHT_BLUE,
 266:c:\projects\paindrain\arduinolcd\test\pain drain\libraries\lvgl\src\misc\lv_color.h ****     LV_PALETTE_CYAN,
 267:c:\projects\paindrain\arduinolcd\test\pain drain\libraries\lvgl\src\misc\lv_color.h ****     LV_PALETTE_TEAL,
 268:c:\projects\paindrain\arduinolcd\test\pain drain\libraries\lvgl\src\misc\lv_color.h ****     LV_PALETTE_GREEN,
 269:c:\projects\paindrain\arduinolcd\test\pain drain\libraries\lvgl\src\misc\lv_color.h ****     LV_PALETTE_LIGHT_GREEN,
 270:c:\projects\paindrain\arduinolcd\test\pain drain\libraries\lvgl\src\misc\lv_color.h ****     LV_PALETTE_LIME,
 271:c:\projects\paindrain\arduinolcd\test\pain drain\libraries\lvgl\src\misc\lv_color.h ****     LV_PALETTE_YELLOW,
 272:c:\projects\paindrain\arduinolcd\test\pain drain\libraries\lvgl\src\misc\lv_color.h ****     LV_PALETTE_AMBER,
 273:c:\projects\paindrain\arduinolcd\test\pain drain\libraries\lvgl\src\misc\lv_color.h ****     LV_PALETTE_ORANGE,
 274:c:\projects\paindrain\arduinolcd\test\pain drain\libraries\lvgl\src\misc\lv_color.h ****     LV_PALETTE_DEEP_ORANGE,
 275:c:\projects\paindrain\arduinolcd\test\pain drain\libraries\lvgl\src\misc\lv_color.h ****     LV_PALETTE_BROWN,
 276:c:\projects\paindrain\arduinolcd\test\pain drain\libraries\lvgl\src\misc\lv_color.h ****     LV_PALETTE_BLUE_GREY,
 277:c:\projects\paindrain\arduinolcd\test\pain drain\libraries\lvgl\src\misc\lv_color.h ****     LV_PALETTE_GREY,
 278:c:\projects\paindrain\arduinolcd\test\pain drain\libraries\lvgl\src\misc\lv_color.h ****     _LV_PALETTE_LAST,
 279:c:\projects\paindrain\arduinolcd\test\pain drain\libraries\lvgl\src\misc\lv_color.h ****     LV_PALETTE_NONE = 0xff,
 280:c:\projects\paindrain\arduinolcd\test\pain drain\libraries\lvgl\src\misc\lv_color.h **** } lv_palette_t;
 281:c:\projects\paindrain\arduinolcd\test\pain drain\libraries\lvgl\src\misc\lv_color.h **** 
 282:c:\projects\paindrain\arduinolcd\test\pain drain\libraries\lvgl\src\misc\lv_color.h **** /**********************
 283:c:\projects\paindrain\arduinolcd\test\pain drain\libraries\lvgl\src\misc\lv_color.h ****  * GLOBAL PROTOTYPES
 284:c:\projects\paindrain\arduinolcd\test\pain drain\libraries\lvgl\src\misc\lv_color.h ****  **********************/
 285:c:\projects\paindrain\arduinolcd\test\pain drain\libraries\lvgl\src\misc\lv_color.h **** 
 286:c:\projects\paindrain\arduinolcd\test\pain drain\libraries\lvgl\src\misc\lv_color.h **** /*In color conversations:
 287:c:\projects\paindrain\arduinolcd\test\pain drain\libraries\lvgl\src\misc\lv_color.h ****  * - When converting to bigger color type the LSB weight of 1 LSB is calculated
 288:c:\projects\paindrain\arduinolcd\test\pain drain\libraries\lvgl\src\misc\lv_color.h ****  *   E.g. 16 bit Red has 5 bits
 289:c:\projects\paindrain\arduinolcd\test\pain drain\libraries\lvgl\src\misc\lv_color.h ****  *         8 bit Red has 3 bits
 290:c:\projects\paindrain\arduinolcd\test\pain drain\libraries\lvgl\src\misc\lv_color.h ****  *        ----------------------
 291:c:\projects\paindrain\arduinolcd\test\pain drain\libraries\lvgl\src\misc\lv_color.h ****  *        8 bit red LSB = (2^5 - 1) / (2^3 - 1) = 31 / 7 = 4
 292:c:\projects\paindrain\arduinolcd\test\pain drain\libraries\lvgl\src\misc\lv_color.h ****  *
 293:c:\projects\paindrain\arduinolcd\test\pain drain\libraries\lvgl\src\misc\lv_color.h ****  * - When calculating to smaller color type simply shift out the LSBs
 294:c:\projects\paindrain\arduinolcd\test\pain drain\libraries\lvgl\src\misc\lv_color.h ****  *   E.g.  8 bit Red has 3 bits
 295:c:\projects\paindrain\arduinolcd\test\pain drain\libraries\lvgl\src\misc\lv_color.h ****  *        16 bit Red has 5 bits
 296:c:\projects\paindrain\arduinolcd\test\pain drain\libraries\lvgl\src\misc\lv_color.h ****  *        ----------------------
 297:c:\projects\paindrain\arduinolcd\test\pain drain\libraries\lvgl\src\misc\lv_color.h ****  *         Shift right with 5 - 3 = 2
 298:c:\projects\paindrain\arduinolcd\test\pain drain\libraries\lvgl\src\misc\lv_color.h ****  */
 299:c:\projects\paindrain\arduinolcd\test\pain drain\libraries\lvgl\src\misc\lv_color.h **** static inline uint8_t lv_color_to1(lv_color_t color)
 300:c:\projects\paindrain\arduinolcd\test\pain drain\libraries\lvgl\src\misc\lv_color.h **** {
 301:c:\projects\paindrain\arduinolcd\test\pain drain\libraries\lvgl\src\misc\lv_color.h **** #if LV_COLOR_DEPTH == 1
 302:c:\projects\paindrain\arduinolcd\test\pain drain\libraries\lvgl\src\misc\lv_color.h ****     return color.full;
 303:c:\projects\paindrain\arduinolcd\test\pain drain\libraries\lvgl\src\misc\lv_color.h **** #elif LV_COLOR_DEPTH == 8
 304:c:\projects\paindrain\arduinolcd\test\pain drain\libraries\lvgl\src\misc\lv_color.h ****     if((LV_COLOR_GET_R(color) & 0x4) || (LV_COLOR_GET_G(color) & 0x4) || (LV_COLOR_GET_B(color) & 0
 305:c:\projects\paindrain\arduinolcd\test\pain drain\libraries\lvgl\src\misc\lv_color.h ****         return 1;
 306:c:\projects\paindrain\arduinolcd\test\pain drain\libraries\lvgl\src\misc\lv_color.h ****     }
ARM GAS  C:\Users\haske\AppData\Local\Temp\cc7ZkKza.s 			page 39


 307:c:\projects\paindrain\arduinolcd\test\pain drain\libraries\lvgl\src\misc\lv_color.h ****     else {
 308:c:\projects\paindrain\arduinolcd\test\pain drain\libraries\lvgl\src\misc\lv_color.h ****         return 0;
 309:c:\projects\paindrain\arduinolcd\test\pain drain\libraries\lvgl\src\misc\lv_color.h ****     }
 310:c:\projects\paindrain\arduinolcd\test\pain drain\libraries\lvgl\src\misc\lv_color.h **** #elif LV_COLOR_DEPTH == 16
 311:c:\projects\paindrain\arduinolcd\test\pain drain\libraries\lvgl\src\misc\lv_color.h ****     if((LV_COLOR_GET_R(color) & 0x10) || (LV_COLOR_GET_G(color) & 0x20) || (LV_COLOR_GET_B(color) &
 312:c:\projects\paindrain\arduinolcd\test\pain drain\libraries\lvgl\src\misc\lv_color.h ****         return 1;
 313:c:\projects\paindrain\arduinolcd\test\pain drain\libraries\lvgl\src\misc\lv_color.h ****     }
 314:c:\projects\paindrain\arduinolcd\test\pain drain\libraries\lvgl\src\misc\lv_color.h ****     else {
 315:c:\projects\paindrain\arduinolcd\test\pain drain\libraries\lvgl\src\misc\lv_color.h ****         return 0;
 316:c:\projects\paindrain\arduinolcd\test\pain drain\libraries\lvgl\src\misc\lv_color.h ****     }
 317:c:\projects\paindrain\arduinolcd\test\pain drain\libraries\lvgl\src\misc\lv_color.h **** #elif LV_COLOR_DEPTH == 32
 318:c:\projects\paindrain\arduinolcd\test\pain drain\libraries\lvgl\src\misc\lv_color.h ****     if((LV_COLOR_GET_R(color) & 0x80) || (LV_COLOR_GET_G(color) & 0x80) || (LV_COLOR_GET_B(color) &
 319:c:\projects\paindrain\arduinolcd\test\pain drain\libraries\lvgl\src\misc\lv_color.h ****         return 1;
 320:c:\projects\paindrain\arduinolcd\test\pain drain\libraries\lvgl\src\misc\lv_color.h ****     }
 321:c:\projects\paindrain\arduinolcd\test\pain drain\libraries\lvgl\src\misc\lv_color.h ****     else {
 322:c:\projects\paindrain\arduinolcd\test\pain drain\libraries\lvgl\src\misc\lv_color.h ****         return 0;
 323:c:\projects\paindrain\arduinolcd\test\pain drain\libraries\lvgl\src\misc\lv_color.h ****     }
 324:c:\projects\paindrain\arduinolcd\test\pain drain\libraries\lvgl\src\misc\lv_color.h **** #endif
 325:c:\projects\paindrain\arduinolcd\test\pain drain\libraries\lvgl\src\misc\lv_color.h **** }
 326:c:\projects\paindrain\arduinolcd\test\pain drain\libraries\lvgl\src\misc\lv_color.h **** 
 327:c:\projects\paindrain\arduinolcd\test\pain drain\libraries\lvgl\src\misc\lv_color.h **** static inline uint8_t lv_color_to8(lv_color_t color)
 328:c:\projects\paindrain\arduinolcd\test\pain drain\libraries\lvgl\src\misc\lv_color.h **** {
 329:c:\projects\paindrain\arduinolcd\test\pain drain\libraries\lvgl\src\misc\lv_color.h **** #if LV_COLOR_DEPTH == 1
 330:c:\projects\paindrain\arduinolcd\test\pain drain\libraries\lvgl\src\misc\lv_color.h ****     if(color.full == 0)
 331:c:\projects\paindrain\arduinolcd\test\pain drain\libraries\lvgl\src\misc\lv_color.h ****         return 0;
 332:c:\projects\paindrain\arduinolcd\test\pain drain\libraries\lvgl\src\misc\lv_color.h ****     else
 333:c:\projects\paindrain\arduinolcd\test\pain drain\libraries\lvgl\src\misc\lv_color.h ****         return 0xFF;
 334:c:\projects\paindrain\arduinolcd\test\pain drain\libraries\lvgl\src\misc\lv_color.h **** #elif LV_COLOR_DEPTH == 8
 335:c:\projects\paindrain\arduinolcd\test\pain drain\libraries\lvgl\src\misc\lv_color.h ****     return color.full;
 336:c:\projects\paindrain\arduinolcd\test\pain drain\libraries\lvgl\src\misc\lv_color.h **** #elif LV_COLOR_DEPTH == 16
 337:c:\projects\paindrain\arduinolcd\test\pain drain\libraries\lvgl\src\misc\lv_color.h ****     lv_color8_t ret;
 338:c:\projects\paindrain\arduinolcd\test\pain drain\libraries\lvgl\src\misc\lv_color.h ****     LV_COLOR_SET_R8(ret, LV_COLOR_GET_R(color) >> 2); /*5 - 3  = 2*/
 339:c:\projects\paindrain\arduinolcd\test\pain drain\libraries\lvgl\src\misc\lv_color.h ****     LV_COLOR_SET_G8(ret, LV_COLOR_GET_G(color) >> 3); /*6 - 3  = 3*/
 340:c:\projects\paindrain\arduinolcd\test\pain drain\libraries\lvgl\src\misc\lv_color.h ****     LV_COLOR_SET_B8(ret, LV_COLOR_GET_B(color) >> 3); /*5 - 2  = 3*/
 341:c:\projects\paindrain\arduinolcd\test\pain drain\libraries\lvgl\src\misc\lv_color.h ****     return ret.full;
 342:c:\projects\paindrain\arduinolcd\test\pain drain\libraries\lvgl\src\misc\lv_color.h **** #elif LV_COLOR_DEPTH == 32
 343:c:\projects\paindrain\arduinolcd\test\pain drain\libraries\lvgl\src\misc\lv_color.h ****     lv_color8_t ret;
 344:c:\projects\paindrain\arduinolcd\test\pain drain\libraries\lvgl\src\misc\lv_color.h ****     LV_COLOR_SET_R8(ret, LV_COLOR_GET_R(color) >> 5); /*8 - 3  = 5*/
 345:c:\projects\paindrain\arduinolcd\test\pain drain\libraries\lvgl\src\misc\lv_color.h ****     LV_COLOR_SET_G8(ret, LV_COLOR_GET_G(color) >> 5); /*8 - 3  = 5*/
 346:c:\projects\paindrain\arduinolcd\test\pain drain\libraries\lvgl\src\misc\lv_color.h ****     LV_COLOR_SET_B8(ret, LV_COLOR_GET_B(color) >> 6); /*8 - 2  = 6*/
 347:c:\projects\paindrain\arduinolcd\test\pain drain\libraries\lvgl\src\misc\lv_color.h ****     return ret.full;
 348:c:\projects\paindrain\arduinolcd\test\pain drain\libraries\lvgl\src\misc\lv_color.h **** #endif
 349:c:\projects\paindrain\arduinolcd\test\pain drain\libraries\lvgl\src\misc\lv_color.h **** }
 350:c:\projects\paindrain\arduinolcd\test\pain drain\libraries\lvgl\src\misc\lv_color.h **** 
 351:c:\projects\paindrain\arduinolcd\test\pain drain\libraries\lvgl\src\misc\lv_color.h **** static inline uint16_t lv_color_to16(lv_color_t color)
 352:c:\projects\paindrain\arduinolcd\test\pain drain\libraries\lvgl\src\misc\lv_color.h **** {
 353:c:\projects\paindrain\arduinolcd\test\pain drain\libraries\lvgl\src\misc\lv_color.h **** #if LV_COLOR_DEPTH == 1
 354:c:\projects\paindrain\arduinolcd\test\pain drain\libraries\lvgl\src\misc\lv_color.h ****     if(color.full == 0)
 355:c:\projects\paindrain\arduinolcd\test\pain drain\libraries\lvgl\src\misc\lv_color.h ****         return 0;
 356:c:\projects\paindrain\arduinolcd\test\pain drain\libraries\lvgl\src\misc\lv_color.h ****     else
 357:c:\projects\paindrain\arduinolcd\test\pain drain\libraries\lvgl\src\misc\lv_color.h ****         return 0xFFFF;
 358:c:\projects\paindrain\arduinolcd\test\pain drain\libraries\lvgl\src\misc\lv_color.h **** #elif LV_COLOR_DEPTH == 8
 359:c:\projects\paindrain\arduinolcd\test\pain drain\libraries\lvgl\src\misc\lv_color.h ****     lv_color16_t ret;
 360:c:\projects\paindrain\arduinolcd\test\pain drain\libraries\lvgl\src\misc\lv_color.h ****     LV_COLOR_SET_R16(ret, LV_COLOR_GET_R(color) * 4);  /*(2^5 - 1)/(2^3 - 1) = 31/7 = 4*/
 361:c:\projects\paindrain\arduinolcd\test\pain drain\libraries\lvgl\src\misc\lv_color.h ****     LV_COLOR_SET_G16(ret, LV_COLOR_GET_G(color) * 9);  /*(2^6 - 1)/(2^3 - 1) = 63/7 = 9*/
 362:c:\projects\paindrain\arduinolcd\test\pain drain\libraries\lvgl\src\misc\lv_color.h ****     LV_COLOR_SET_B16(ret, LV_COLOR_GET_B(color) * 10); /*(2^5 - 1)/(2^2 - 1) = 31/3 = 10*/
 363:c:\projects\paindrain\arduinolcd\test\pain drain\libraries\lvgl\src\misc\lv_color.h ****     return ret.full;
ARM GAS  C:\Users\haske\AppData\Local\Temp\cc7ZkKza.s 			page 40


 364:c:\projects\paindrain\arduinolcd\test\pain drain\libraries\lvgl\src\misc\lv_color.h **** #elif LV_COLOR_DEPTH == 16
 365:c:\projects\paindrain\arduinolcd\test\pain drain\libraries\lvgl\src\misc\lv_color.h ****     return color.full;
 366:c:\projects\paindrain\arduinolcd\test\pain drain\libraries\lvgl\src\misc\lv_color.h **** #elif LV_COLOR_DEPTH == 32
 367:c:\projects\paindrain\arduinolcd\test\pain drain\libraries\lvgl\src\misc\lv_color.h ****     lv_color16_t ret;
 368:c:\projects\paindrain\arduinolcd\test\pain drain\libraries\lvgl\src\misc\lv_color.h ****     LV_COLOR_SET_R16(ret, LV_COLOR_GET_R(color) >> 3); /*8 - 5  = 3*/
 369:c:\projects\paindrain\arduinolcd\test\pain drain\libraries\lvgl\src\misc\lv_color.h ****     LV_COLOR_SET_G16(ret, LV_COLOR_GET_G(color) >> 2); /*8 - 6  = 2*/
 370:c:\projects\paindrain\arduinolcd\test\pain drain\libraries\lvgl\src\misc\lv_color.h ****     LV_COLOR_SET_B16(ret, LV_COLOR_GET_B(color) >> 3); /*8 - 5  = 3*/
 371:c:\projects\paindrain\arduinolcd\test\pain drain\libraries\lvgl\src\misc\lv_color.h ****     return ret.full;
 372:c:\projects\paindrain\arduinolcd\test\pain drain\libraries\lvgl\src\misc\lv_color.h **** #endif
 373:c:\projects\paindrain\arduinolcd\test\pain drain\libraries\lvgl\src\misc\lv_color.h **** }
 374:c:\projects\paindrain\arduinolcd\test\pain drain\libraries\lvgl\src\misc\lv_color.h **** 
 375:c:\projects\paindrain\arduinolcd\test\pain drain\libraries\lvgl\src\misc\lv_color.h **** static inline uint32_t lv_color_to32(lv_color_t color)
 376:c:\projects\paindrain\arduinolcd\test\pain drain\libraries\lvgl\src\misc\lv_color.h **** {
 377:c:\projects\paindrain\arduinolcd\test\pain drain\libraries\lvgl\src\misc\lv_color.h **** #if LV_COLOR_DEPTH == 1
 378:c:\projects\paindrain\arduinolcd\test\pain drain\libraries\lvgl\src\misc\lv_color.h ****     if(color.full == 0)
 379:c:\projects\paindrain\arduinolcd\test\pain drain\libraries\lvgl\src\misc\lv_color.h ****         return 0xFF000000;
 380:c:\projects\paindrain\arduinolcd\test\pain drain\libraries\lvgl\src\misc\lv_color.h ****     else
 381:c:\projects\paindrain\arduinolcd\test\pain drain\libraries\lvgl\src\misc\lv_color.h ****         return 0xFFFFFFFF;
 382:c:\projects\paindrain\arduinolcd\test\pain drain\libraries\lvgl\src\misc\lv_color.h **** #elif LV_COLOR_DEPTH == 8
 383:c:\projects\paindrain\arduinolcd\test\pain drain\libraries\lvgl\src\misc\lv_color.h ****     lv_color32_t ret;
 384:c:\projects\paindrain\arduinolcd\test\pain drain\libraries\lvgl\src\misc\lv_color.h ****     LV_COLOR_SET_R32(ret, LV_COLOR_GET_R(color) * 36); /*(2^8 - 1)/(2^3 - 1) = 255/7 = 36*/
 385:c:\projects\paindrain\arduinolcd\test\pain drain\libraries\lvgl\src\misc\lv_color.h ****     LV_COLOR_SET_G32(ret, LV_COLOR_GET_G(color) * 36); /*(2^8 - 1)/(2^3 - 1) = 255/7 = 36*/
 386:c:\projects\paindrain\arduinolcd\test\pain drain\libraries\lvgl\src\misc\lv_color.h ****     LV_COLOR_SET_B32(ret, LV_COLOR_GET_B(color) * 85); /*(2^8 - 1)/(2^2 - 1) = 255/3 = 85*/
 387:c:\projects\paindrain\arduinolcd\test\pain drain\libraries\lvgl\src\misc\lv_color.h ****     LV_COLOR_SET_A32(ret, 0xFF);
 388:c:\projects\paindrain\arduinolcd\test\pain drain\libraries\lvgl\src\misc\lv_color.h ****     return ret.full;
 389:c:\projects\paindrain\arduinolcd\test\pain drain\libraries\lvgl\src\misc\lv_color.h **** #elif LV_COLOR_DEPTH == 16
 390:c:\projects\paindrain\arduinolcd\test\pain drain\libraries\lvgl\src\misc\lv_color.h ****     /**
 391:c:\projects\paindrain\arduinolcd\test\pain drain\libraries\lvgl\src\misc\lv_color.h ****      * The floating point math for conversion is:
 392:c:\projects\paindrain\arduinolcd\test\pain drain\libraries\lvgl\src\misc\lv_color.h ****      *  valueto = valuefrom * ( (2^bitsto - 1) / (float)(2^bitsfrom - 1) )
 393:c:\projects\paindrain\arduinolcd\test\pain drain\libraries\lvgl\src\misc\lv_color.h ****      * The faster integer math for conversion is:
 394:c:\projects\paindrain\arduinolcd\test\pain drain\libraries\lvgl\src\misc\lv_color.h ****      *  valueto = ( valuefrom * multiplier + adder ) >> divisor
 395:c:\projects\paindrain\arduinolcd\test\pain drain\libraries\lvgl\src\misc\lv_color.h ****      *   multiplier = FLOOR( ( (2^bitsto - 1) << divisor ) / (float)(2^bitsfrom - 1) )
 396:c:\projects\paindrain\arduinolcd\test\pain drain\libraries\lvgl\src\misc\lv_color.h ****      *
 397:c:\projects\paindrain\arduinolcd\test\pain drain\libraries\lvgl\src\misc\lv_color.h ****      * Find the first divisor where ( adder >> divisor ) <= 0
 398:c:\projects\paindrain\arduinolcd\test\pain drain\libraries\lvgl\src\misc\lv_color.h ****      *
 399:c:\projects\paindrain\arduinolcd\test\pain drain\libraries\lvgl\src\misc\lv_color.h ****      * 5-bit to 8-bit: ( 31 * multiplier + adder ) >> divisor = 255
 400:c:\projects\paindrain\arduinolcd\test\pain drain\libraries\lvgl\src\misc\lv_color.h ****      * divisor  multiplier  adder  min (0)  max (31)
 401:c:\projects\paindrain\arduinolcd\test\pain drain\libraries\lvgl\src\misc\lv_color.h ****      *       0           8      7        7       255
 402:c:\projects\paindrain\arduinolcd\test\pain drain\libraries\lvgl\src\misc\lv_color.h ****      *       1          16     14        7       255
 403:c:\projects\paindrain\arduinolcd\test\pain drain\libraries\lvgl\src\misc\lv_color.h ****      *       2          32     28        7       255
 404:c:\projects\paindrain\arduinolcd\test\pain drain\libraries\lvgl\src\misc\lv_color.h ****      *       3          65     25        3       255
 405:c:\projects\paindrain\arduinolcd\test\pain drain\libraries\lvgl\src\misc\lv_color.h ****      *       4         131     19        1       255
 406:c:\projects\paindrain\arduinolcd\test\pain drain\libraries\lvgl\src\misc\lv_color.h ****      *       5         263      7        0       255
 407:c:\projects\paindrain\arduinolcd\test\pain drain\libraries\lvgl\src\misc\lv_color.h ****      *
 408:c:\projects\paindrain\arduinolcd\test\pain drain\libraries\lvgl\src\misc\lv_color.h ****      * 6-bit to 8-bit: 255 = ( 63 * multiplier + adder ) >> divisor
 409:c:\projects\paindrain\arduinolcd\test\pain drain\libraries\lvgl\src\misc\lv_color.h ****      * divisor  multiplier  adder  min (0)  max (63)
 410:c:\projects\paindrain\arduinolcd\test\pain drain\libraries\lvgl\src\misc\lv_color.h ****      *       0           4      3        3       255
 411:c:\projects\paindrain\arduinolcd\test\pain drain\libraries\lvgl\src\misc\lv_color.h ****      *       1           8      6        3       255
 412:c:\projects\paindrain\arduinolcd\test\pain drain\libraries\lvgl\src\misc\lv_color.h ****      *       2          16     12        3       255
 413:c:\projects\paindrain\arduinolcd\test\pain drain\libraries\lvgl\src\misc\lv_color.h ****      *       3          32     24        3       255
 414:c:\projects\paindrain\arduinolcd\test\pain drain\libraries\lvgl\src\misc\lv_color.h ****      *       4          64     48        3       255
 415:c:\projects\paindrain\arduinolcd\test\pain drain\libraries\lvgl\src\misc\lv_color.h ****      *       5         129     33        1       255
 416:c:\projects\paindrain\arduinolcd\test\pain drain\libraries\lvgl\src\misc\lv_color.h ****      *       6         259      3        0       255
 417:c:\projects\paindrain\arduinolcd\test\pain drain\libraries\lvgl\src\misc\lv_color.h ****      */
 418:c:\projects\paindrain\arduinolcd\test\pain drain\libraries\lvgl\src\misc\lv_color.h **** 
 419:c:\projects\paindrain\arduinolcd\test\pain drain\libraries\lvgl\src\misc\lv_color.h ****     lv_color32_t ret;
 420:c:\projects\paindrain\arduinolcd\test\pain drain\libraries\lvgl\src\misc\lv_color.h ****     LV_COLOR_SET_R32(ret, (LV_COLOR_GET_R(color) * 263 + 7) >> 5);
ARM GAS  C:\Users\haske\AppData\Local\Temp\cc7ZkKza.s 			page 41


 421:c:\projects\paindrain\arduinolcd\test\pain drain\libraries\lvgl\src\misc\lv_color.h ****     LV_COLOR_SET_G32(ret, (LV_COLOR_GET_G(color) * 259 + 3) >> 6);
 422:c:\projects\paindrain\arduinolcd\test\pain drain\libraries\lvgl\src\misc\lv_color.h ****     LV_COLOR_SET_B32(ret, (LV_COLOR_GET_B(color) * 263 + 7) >> 5);
 423:c:\projects\paindrain\arduinolcd\test\pain drain\libraries\lvgl\src\misc\lv_color.h ****     LV_COLOR_SET_A32(ret, 0xFF);
 424:c:\projects\paindrain\arduinolcd\test\pain drain\libraries\lvgl\src\misc\lv_color.h ****     return ret.full;
 425:c:\projects\paindrain\arduinolcd\test\pain drain\libraries\lvgl\src\misc\lv_color.h **** #elif LV_COLOR_DEPTH == 32
 426:c:\projects\paindrain\arduinolcd\test\pain drain\libraries\lvgl\src\misc\lv_color.h ****     return color.full;
 427:c:\projects\paindrain\arduinolcd\test\pain drain\libraries\lvgl\src\misc\lv_color.h **** #endif
 428:c:\projects\paindrain\arduinolcd\test\pain drain\libraries\lvgl\src\misc\lv_color.h **** }
 429:c:\projects\paindrain\arduinolcd\test\pain drain\libraries\lvgl\src\misc\lv_color.h **** 
 430:c:\projects\paindrain\arduinolcd\test\pain drain\libraries\lvgl\src\misc\lv_color.h **** //! @cond Doxygen_Suppress
 431:c:\projects\paindrain\arduinolcd\test\pain drain\libraries\lvgl\src\misc\lv_color.h **** 
 432:c:\projects\paindrain\arduinolcd\test\pain drain\libraries\lvgl\src\misc\lv_color.h **** /**
 433:c:\projects\paindrain\arduinolcd\test\pain drain\libraries\lvgl\src\misc\lv_color.h ****  * Mix two colors with a given ratio.
 434:c:\projects\paindrain\arduinolcd\test\pain drain\libraries\lvgl\src\misc\lv_color.h ****  * @param c1 the first color to mix (usually the foreground)
 435:c:\projects\paindrain\arduinolcd\test\pain drain\libraries\lvgl\src\misc\lv_color.h ****  * @param c2 the second color to mix (usually the background)
 436:c:\projects\paindrain\arduinolcd\test\pain drain\libraries\lvgl\src\misc\lv_color.h ****  * @param mix The ratio of the colors. 0: full `c2`, 255: full `c1`, 127: half `c1` and half`c2`
 437:c:\projects\paindrain\arduinolcd\test\pain drain\libraries\lvgl\src\misc\lv_color.h ****  * @return the mixed color
 438:c:\projects\paindrain\arduinolcd\test\pain drain\libraries\lvgl\src\misc\lv_color.h ****  */
 439:c:\projects\paindrain\arduinolcd\test\pain drain\libraries\lvgl\src\misc\lv_color.h **** LV_ATTRIBUTE_FAST_MEM static inline lv_color_t lv_color_mix(lv_color_t c1, lv_color_t c2, uint8_t m
 440:c:\projects\paindrain\arduinolcd\test\pain drain\libraries\lvgl\src\misc\lv_color.h **** {
 441:c:\projects\paindrain\arduinolcd\test\pain drain\libraries\lvgl\src\misc\lv_color.h ****     lv_color_t ret;
 442:c:\projects\paindrain\arduinolcd\test\pain drain\libraries\lvgl\src\misc\lv_color.h **** 
 443:c:\projects\paindrain\arduinolcd\test\pain drain\libraries\lvgl\src\misc\lv_color.h **** #if LV_COLOR_DEPTH == 16 && LV_COLOR_16_SWAP == 0 && LV_COLOR_MIX_ROUND_OFS == 0
 444:c:\projects\paindrain\arduinolcd\test\pain drain\libraries\lvgl\src\misc\lv_color.h ****     /*Source: https://stackoverflow.com/a/50012418/1999969*/
 445:c:\projects\paindrain\arduinolcd\test\pain drain\libraries\lvgl\src\misc\lv_color.h ****     mix = (uint32_t)((uint32_t)mix + 4) >> 3;
 701              		.loc 3 445 0
 702 004a 0432     		adds	r2, r2, #4
 703              	.LVL114:
 446:c:\projects\paindrain\arduinolcd\test\pain drain\libraries\lvgl\src\misc\lv_color.h ****     uint32_t bg = (uint32_t)((uint32_t)c2.full | ((uint32_t)c2.full << 16)) &
 704              		.loc 3 446 0
 705 004c 89B2     		uxth	r1, r1
 706              	.LVL115:
 707 004e 41EA0141 		orr	r1, r1, r1, lsl #16
 708 0052 0A4D     		ldr	r5, .L61
 709 0054 01EA0503 		and	r3, r1, r5
 710              	.LVL116:
 447:c:\projects\paindrain\arduinolcd\test\pain drain\libraries\lvgl\src\misc\lv_color.h ****                   0x7E0F81F; /*0b00000111111000001111100000011111*/
 448:c:\projects\paindrain\arduinolcd\test\pain drain\libraries\lvgl\src\misc\lv_color.h ****     uint32_t fg = (uint32_t)((uint32_t)c1.full | ((uint32_t)c1.full << 16)) & 0x7E0F81F;
 711              		.loc 3 448 0
 712 0058 80B2     		uxth	r0, r0
 713              	.LVL117:
 714 005a 40EA0040 		orr	r0, r0, r0, lsl #16
 715 005e 00EA0504 		and	r4, r0, r5
 716              	.LVL118:
 449:c:\projects\paindrain\arduinolcd\test\pain drain\libraries\lvgl\src\misc\lv_color.h ****     uint32_t result = ((((fg - bg) * mix) >> 5) + bg) & 0x7E0F81F;
 717              		.loc 3 449 0
 718 0062 E41A     		subs	r4, r4, r3
 719              	.LVL119:
 720 0064 C2F3C702 		ubfx	r2, r2, #3, #8
 721              	.LVL120:
 722 0068 04FB02F2 		mul	r2, r4, r2
 723 006c 03EB5213 		add	r3, r3, r2, lsr #5
 724              	.LVL121:
 725 0070 03EA0500 		and	r0, r3, r5
 726              	.LVL122:
 727 0074 40EA1040 		orr	r0, r0, r0, lsr #16
 728              	.LVL123:
ARM GAS  C:\Users\haske\AppData\Local\Temp\cc7ZkKza.s 			page 42


 729              	.L58:
 730              	.LVL124:
 731              	.LBE112:
 732              	.LBE111:
 733              		.loc 1 996 0
 734 0078 30BC     		pop	{r4, r5}
 735              		.cfi_restore 5
 736              		.cfi_restore 4
 737              		.cfi_def_cfa_offset 0
 738 007a 7047     		bx	lr
 739              	.L62:
 740              		.align	2
 741              	.L61:
 742 007c 1FF8E007 		.word	132184095
 743              		.cfi_endproc
 744              	.LFE167:
 745              		.size	color_blend_true_color_additive, .-color_blend_true_color_additive
 746              		.section	.text.color_blend_true_color_subtractive,"ax",%progbits
 747              		.align	2
 748              		.thumb
 749              		.thumb_func
 750              		.type	color_blend_true_color_subtractive, %function
 751              	color_blend_true_color_subtractive:
 752              	.LFB168:
 997:..\..\..\arduinoLCD\test\Pain Drain\libraries\lvgl\src\draw\sw/lv_draw_sw_blend.c **** 
 998:..\..\..\arduinoLCD\test\Pain Drain\libraries\lvgl\src\draw\sw/lv_draw_sw_blend.c **** static inline lv_color_t color_blend_true_color_subtractive(lv_color_t fg, lv_color_t bg, lv_opa_t 
 999:..\..\..\arduinoLCD\test\Pain Drain\libraries\lvgl\src\draw\sw/lv_draw_sw_blend.c **** {
 753              		.loc 1 999 0
 754              		.cfi_startproc
 755              		@ args = 0, pretend = 0, frame = 0
 756              		@ frame_needed = 0, uses_anonymous_args = 0
 757              		@ link register save eliminated.
 758              	.LVL125:
1000:..\..\..\arduinoLCD\test\Pain Drain\libraries\lvgl\src\draw\sw/lv_draw_sw_blend.c ****     if(opa <= LV_OPA_MIN) return bg;
 759              		.loc 1 1000 0
 760 0000 022A     		cmp	r2, #2
 761 0002 01D8     		bhi	.L64
 762              		.loc 1 1000 0 is_stmt 0 discriminator 1
 763 0004 0846     		mov	r0, r1	@ movhi
 764              	.LVL126:
1001:..\..\..\arduinoLCD\test\Pain Drain\libraries\lvgl\src\draw\sw/lv_draw_sw_blend.c **** 
1002:..\..\..\arduinoLCD\test\Pain Drain\libraries\lvgl\src\draw\sw/lv_draw_sw_blend.c ****     int32_t tmp;
1003:..\..\..\arduinoLCD\test\Pain Drain\libraries\lvgl\src\draw\sw/lv_draw_sw_blend.c ****     tmp = bg.ch.red - fg.ch.red;
1004:..\..\..\arduinoLCD\test\Pain Drain\libraries\lvgl\src\draw\sw/lv_draw_sw_blend.c ****     fg.ch.red = LV_MAX(tmp, 0);
1005:..\..\..\arduinoLCD\test\Pain Drain\libraries\lvgl\src\draw\sw/lv_draw_sw_blend.c **** 
1006:..\..\..\arduinoLCD\test\Pain Drain\libraries\lvgl\src\draw\sw/lv_draw_sw_blend.c **** #if LV_COLOR_16_SWAP == 0
1007:..\..\..\arduinoLCD\test\Pain Drain\libraries\lvgl\src\draw\sw/lv_draw_sw_blend.c ****     tmp = bg.ch.green - fg.ch.green;
1008:..\..\..\arduinoLCD\test\Pain Drain\libraries\lvgl\src\draw\sw/lv_draw_sw_blend.c ****     fg.ch.green = LV_MAX(tmp, 0);
1009:..\..\..\arduinoLCD\test\Pain Drain\libraries\lvgl\src\draw\sw/lv_draw_sw_blend.c **** #else
1010:..\..\..\arduinoLCD\test\Pain Drain\libraries\lvgl\src\draw\sw/lv_draw_sw_blend.c ****     tmp = (bg.ch.green_h << 3) + bg.ch.green_l + (fg.ch.green_h << 3) + fg.ch.green_l;
1011:..\..\..\arduinoLCD\test\Pain Drain\libraries\lvgl\src\draw\sw/lv_draw_sw_blend.c ****     tmp = LV_MAX(tmp, 0);
1012:..\..\..\arduinoLCD\test\Pain Drain\libraries\lvgl\src\draw\sw/lv_draw_sw_blend.c ****     fg.ch.green_h = tmp >> 3;
1013:..\..\..\arduinoLCD\test\Pain Drain\libraries\lvgl\src\draw\sw/lv_draw_sw_blend.c ****     fg.ch.green_l = tmp & 0x7;
1014:..\..\..\arduinoLCD\test\Pain Drain\libraries\lvgl\src\draw\sw/lv_draw_sw_blend.c **** #endif
1015:..\..\..\arduinoLCD\test\Pain Drain\libraries\lvgl\src\draw\sw/lv_draw_sw_blend.c **** 
1016:..\..\..\arduinoLCD\test\Pain Drain\libraries\lvgl\src\draw\sw/lv_draw_sw_blend.c ****     tmp = bg.ch.blue - fg.ch.blue;
1017:..\..\..\arduinoLCD\test\Pain Drain\libraries\lvgl\src\draw\sw/lv_draw_sw_blend.c ****     fg.ch.blue = LV_MAX(tmp, 0);
ARM GAS  C:\Users\haske\AppData\Local\Temp\cc7ZkKza.s 			page 43


1018:..\..\..\arduinoLCD\test\Pain Drain\libraries\lvgl\src\draw\sw/lv_draw_sw_blend.c **** 
1019:..\..\..\arduinoLCD\test\Pain Drain\libraries\lvgl\src\draw\sw/lv_draw_sw_blend.c ****     if(opa == LV_OPA_COVER) return fg;
1020:..\..\..\arduinoLCD\test\Pain Drain\libraries\lvgl\src\draw\sw/lv_draw_sw_blend.c **** 
1021:..\..\..\arduinoLCD\test\Pain Drain\libraries\lvgl\src\draw\sw/lv_draw_sw_blend.c ****     return lv_color_mix(fg, bg, opa);
1022:..\..\..\arduinoLCD\test\Pain Drain\libraries\lvgl\src\draw\sw/lv_draw_sw_blend.c **** }
 765              		.loc 1 1022 0 is_stmt 1 discriminator 1
 766 0006 7047     		bx	lr
 767              	.LVL127:
 768              	.L64:
 999:..\..\..\arduinoLCD\test\Pain Drain\libraries\lvgl\src\draw\sw/lv_draw_sw_blend.c ****     if(opa <= LV_OPA_MIN) return bg;
 769              		.loc 1 999 0
 770 0008 30B4     		push	{r4, r5}
 771              		.cfi_def_cfa_offset 8
 772              		.cfi_offset 4, -8
 773              		.cfi_offset 5, -4
1003:..\..\..\arduinoLCD\test\Pain Drain\libraries\lvgl\src\draw\sw/lv_draw_sw_blend.c ****     fg.ch.red = LV_MAX(tmp, 0);
 774              		.loc 1 1003 0
 775 000a C1F3C423 		ubfx	r3, r1, #11, #5
 776 000e C0F3C424 		ubfx	r4, r0, #11, #5
 777 0012 1B1B     		subs	r3, r3, r4
 778              	.LVL128:
1004:..\..\..\arduinoLCD\test\Pain Drain\libraries\lvgl\src\draw\sw/lv_draw_sw_blend.c **** 
 779              		.loc 1 1004 0
 780 0014 23EAE373 		bic	r3, r3, r3, asr #31
 781              	.LVL129:
 782 0018 63F3CF20 		bfi	r0, r3, #11, #5
1007:..\..\..\arduinoLCD\test\Pain Drain\libraries\lvgl\src\draw\sw/lv_draw_sw_blend.c ****     fg.ch.green = LV_MAX(tmp, 0);
 783              		.loc 1 1007 0
 784 001c C1F34513 		ubfx	r3, r1, #5, #6
 785 0020 C0F34514 		ubfx	r4, r0, #5, #6
 786              	.LVL130:
 787 0024 1B1B     		subs	r3, r3, r4
 788              	.LVL131:
1008:..\..\..\arduinoLCD\test\Pain Drain\libraries\lvgl\src\draw\sw/lv_draw_sw_blend.c **** #else
 789              		.loc 1 1008 0
 790 0026 23EAE373 		bic	r3, r3, r3, asr #31
 791              	.LVL132:
 792 002a 63F34A10 		bfi	r0, r3, #5, #6
1016:..\..\..\arduinoLCD\test\Pain Drain\libraries\lvgl\src\draw\sw/lv_draw_sw_blend.c ****     fg.ch.blue = LV_MAX(tmp, 0);
 793              		.loc 1 1016 0
 794 002e 01F01F03 		and	r3, r1, #31
 795 0032 00F01F04 		and	r4, r0, #31
 796              	.LVL133:
 797 0036 1B1B     		subs	r3, r3, r4
 798              	.LVL134:
1017:..\..\..\arduinoLCD\test\Pain Drain\libraries\lvgl\src\draw\sw/lv_draw_sw_blend.c **** 
 799              		.loc 1 1017 0
 800 0038 23EAE373 		bic	r3, r3, r3, asr #31
 801              	.LVL135:
 802 003c 63F30400 		bfi	r0, r3, #0, #5
1019:..\..\..\arduinoLCD\test\Pain Drain\libraries\lvgl\src\draw\sw/lv_draw_sw_blend.c **** 
 803              		.loc 1 1019 0
 804 0040 FF2A     		cmp	r2, #255
 805 0042 16D0     		beq	.L65
 806              	.LVL136:
 807              	.LBB113:
 808              	.LBB114:
ARM GAS  C:\Users\haske\AppData\Local\Temp\cc7ZkKza.s 			page 44


 445:c:\projects\paindrain\arduinolcd\test\pain drain\libraries\lvgl\src\misc\lv_color.h ****     uint32_t bg = (uint32_t)((uint32_t)c2.full | ((uint32_t)c2.full << 16)) &
 809              		.loc 3 445 0
 810 0044 0432     		adds	r2, r2, #4
 811              	.LVL137:
 446:c:\projects\paindrain\arduinolcd\test\pain drain\libraries\lvgl\src\misc\lv_color.h ****                   0x7E0F81F; /*0b00000111111000001111100000011111*/
 812              		.loc 3 446 0
 813 0046 89B2     		uxth	r1, r1
 814              	.LVL138:
 815 0048 41EA0141 		orr	r1, r1, r1, lsl #16
 816 004c 0A4D     		ldr	r5, .L68
 817 004e 01EA0503 		and	r3, r1, r5
 818              	.LVL139:
 448:c:\projects\paindrain\arduinolcd\test\pain drain\libraries\lvgl\src\misc\lv_color.h ****     uint32_t result = ((((fg - bg) * mix) >> 5) + bg) & 0x7E0F81F;
 819              		.loc 3 448 0
 820 0052 80B2     		uxth	r0, r0
 821              	.LVL140:
 822 0054 40EA0040 		orr	r0, r0, r0, lsl #16
 823 0058 00EA0504 		and	r4, r0, r5
 824              	.LVL141:
 825              		.loc 3 449 0
 826 005c E41A     		subs	r4, r4, r3
 827              	.LVL142:
 828 005e C2F3C702 		ubfx	r2, r2, #3, #8
 829              	.LVL143:
 830 0062 04FB02F2 		mul	r2, r4, r2
 831 0066 03EB5213 		add	r3, r3, r2, lsr #5
 832              	.LVL144:
 833 006a 03EA0500 		and	r0, r3, r5
 834              	.LVL145:
 835 006e 40EA1040 		orr	r0, r0, r0, lsr #16
 836              	.LVL146:
 837              	.L65:
 838              	.LVL147:
 839              	.LBE114:
 840              	.LBE113:
 841              		.loc 1 1022 0
 842 0072 30BC     		pop	{r4, r5}
 843              		.cfi_restore 5
 844              		.cfi_restore 4
 845              		.cfi_def_cfa_offset 0
 846 0074 7047     		bx	lr
 847              	.L69:
 848 0076 00BF     		.align	2
 849              	.L68:
 850 0078 1FF8E007 		.word	132184095
 851              		.cfi_endproc
 852              	.LFE168:
 853              		.size	color_blend_true_color_subtractive, .-color_blend_true_color_subtractive
 854              		.section	.text.color_blend_true_color_multiply,"ax",%progbits
 855              		.align	2
 856              		.thumb
 857              		.thumb_func
 858              		.type	color_blend_true_color_multiply, %function
 859              	color_blend_true_color_multiply:
 860              	.LFB169:
1023:..\..\..\arduinoLCD\test\Pain Drain\libraries\lvgl\src\draw\sw/lv_draw_sw_blend.c **** 
1024:..\..\..\arduinoLCD\test\Pain Drain\libraries\lvgl\src\draw\sw/lv_draw_sw_blend.c **** static inline lv_color_t color_blend_true_color_multiply(lv_color_t fg, lv_color_t bg, lv_opa_t opa
ARM GAS  C:\Users\haske\AppData\Local\Temp\cc7ZkKza.s 			page 45


1025:..\..\..\arduinoLCD\test\Pain Drain\libraries\lvgl\src\draw\sw/lv_draw_sw_blend.c **** {
 861              		.loc 1 1025 0
 862              		.cfi_startproc
 863              		@ args = 0, pretend = 0, frame = 0
 864              		@ frame_needed = 0, uses_anonymous_args = 0
 865              		@ link register save eliminated.
 866              	.LVL148:
1026:..\..\..\arduinoLCD\test\Pain Drain\libraries\lvgl\src\draw\sw/lv_draw_sw_blend.c ****     if(opa <= LV_OPA_MIN) return bg;
 867              		.loc 1 1026 0
 868 0000 022A     		cmp	r2, #2
 869 0002 01D8     		bhi	.L71
 870              		.loc 1 1026 0 is_stmt 0 discriminator 1
 871 0004 0846     		mov	r0, r1	@ movhi
 872              	.LVL149:
1027:..\..\..\arduinoLCD\test\Pain Drain\libraries\lvgl\src\draw\sw/lv_draw_sw_blend.c **** 
1028:..\..\..\arduinoLCD\test\Pain Drain\libraries\lvgl\src\draw\sw/lv_draw_sw_blend.c **** #if LV_COLOR_DEPTH == 32
1029:..\..\..\arduinoLCD\test\Pain Drain\libraries\lvgl\src\draw\sw/lv_draw_sw_blend.c ****     fg.ch.red = (fg.ch.red * bg.ch.red) >> 8;
1030:..\..\..\arduinoLCD\test\Pain Drain\libraries\lvgl\src\draw\sw/lv_draw_sw_blend.c ****     fg.ch.green = (fg.ch.green * bg.ch.green) >> 8;
1031:..\..\..\arduinoLCD\test\Pain Drain\libraries\lvgl\src\draw\sw/lv_draw_sw_blend.c ****     fg.ch.blue = (fg.ch.blue * bg.ch.blue) >> 8;
1032:..\..\..\arduinoLCD\test\Pain Drain\libraries\lvgl\src\draw\sw/lv_draw_sw_blend.c **** #elif LV_COLOR_DEPTH == 16
1033:..\..\..\arduinoLCD\test\Pain Drain\libraries\lvgl\src\draw\sw/lv_draw_sw_blend.c ****     fg.ch.red = (fg.ch.red * bg.ch.red) >> 5;
1034:..\..\..\arduinoLCD\test\Pain Drain\libraries\lvgl\src\draw\sw/lv_draw_sw_blend.c ****     fg.ch.blue = (fg.ch.blue * bg.ch.blue) >> 5;
1035:..\..\..\arduinoLCD\test\Pain Drain\libraries\lvgl\src\draw\sw/lv_draw_sw_blend.c ****     LV_COLOR_SET_G(fg, (LV_COLOR_GET_G(fg) * LV_COLOR_GET_G(bg)) >> 6);
1036:..\..\..\arduinoLCD\test\Pain Drain\libraries\lvgl\src\draw\sw/lv_draw_sw_blend.c **** #elif LV_COLOR_DEPTH == 8
1037:..\..\..\arduinoLCD\test\Pain Drain\libraries\lvgl\src\draw\sw/lv_draw_sw_blend.c ****     fg.ch.red = (fg.ch.red * bg.ch.red) >> 3;
1038:..\..\..\arduinoLCD\test\Pain Drain\libraries\lvgl\src\draw\sw/lv_draw_sw_blend.c ****     fg.ch.green = (fg.ch.green * bg.ch.green) >> 3;
1039:..\..\..\arduinoLCD\test\Pain Drain\libraries\lvgl\src\draw\sw/lv_draw_sw_blend.c ****     fg.ch.blue = (fg.ch.blue * bg.ch.blue) >> 2;
1040:..\..\..\arduinoLCD\test\Pain Drain\libraries\lvgl\src\draw\sw/lv_draw_sw_blend.c **** #endif
1041:..\..\..\arduinoLCD\test\Pain Drain\libraries\lvgl\src\draw\sw/lv_draw_sw_blend.c **** 
1042:..\..\..\arduinoLCD\test\Pain Drain\libraries\lvgl\src\draw\sw/lv_draw_sw_blend.c ****     if(opa == LV_OPA_COVER) return fg;
1043:..\..\..\arduinoLCD\test\Pain Drain\libraries\lvgl\src\draw\sw/lv_draw_sw_blend.c **** 
1044:..\..\..\arduinoLCD\test\Pain Drain\libraries\lvgl\src\draw\sw/lv_draw_sw_blend.c ****     return lv_color_mix(fg, bg, opa);
1045:..\..\..\arduinoLCD\test\Pain Drain\libraries\lvgl\src\draw\sw/lv_draw_sw_blend.c **** }
 873              		.loc 1 1045 0 is_stmt 1 discriminator 1
 874 0006 7047     		bx	lr
 875              	.LVL150:
 876              	.L71:
1025:..\..\..\arduinoLCD\test\Pain Drain\libraries\lvgl\src\draw\sw/lv_draw_sw_blend.c ****     if(opa <= LV_OPA_MIN) return bg;
 877              		.loc 1 1025 0
 878 0008 30B4     		push	{r4, r5}
 879              		.cfi_def_cfa_offset 8
 880              		.cfi_offset 4, -8
 881              		.cfi_offset 5, -4
1033:..\..\..\arduinoLCD\test\Pain Drain\libraries\lvgl\src\draw\sw/lv_draw_sw_blend.c ****     fg.ch.blue = (fg.ch.blue * bg.ch.blue) >> 5;
 882              		.loc 1 1033 0
 883 000a C0F3C424 		ubfx	r4, r0, #11, #5
 884 000e C1F3C423 		ubfx	r3, r1, #11, #5
 885 0012 03FB04F3 		mul	r3, r3, r4
 886 0016 5B11     		asrs	r3, r3, #5
 887 0018 63F3CF20 		bfi	r0, r3, #11, #5
1034:..\..\..\arduinoLCD\test\Pain Drain\libraries\lvgl\src\draw\sw/lv_draw_sw_blend.c ****     LV_COLOR_SET_G(fg, (LV_COLOR_GET_G(fg) * LV_COLOR_GET_G(bg)) >> 6);
 888              		.loc 1 1034 0
 889 001c 00F01F04 		and	r4, r0, #31
 890 0020 01F01F03 		and	r3, r1, #31
 891 0024 03FB04F3 		mul	r3, r3, r4
 892 0028 5B11     		asrs	r3, r3, #5
 893 002a 63F30400 		bfi	r0, r3, #0, #5
ARM GAS  C:\Users\haske\AppData\Local\Temp\cc7ZkKza.s 			page 46


1035:..\..\..\arduinoLCD\test\Pain Drain\libraries\lvgl\src\draw\sw/lv_draw_sw_blend.c **** #elif LV_COLOR_DEPTH == 8
 894              		.loc 1 1035 0
 895 002e C0F34514 		ubfx	r4, r0, #5, #6
 896 0032 C1F34513 		ubfx	r3, r1, #5, #6
 897 0036 03FB04F3 		mul	r3, r3, r4
 898 003a 9B11     		asrs	r3, r3, #6
 899 003c 63F34A10 		bfi	r0, r3, #5, #6
1042:..\..\..\arduinoLCD\test\Pain Drain\libraries\lvgl\src\draw\sw/lv_draw_sw_blend.c **** 
 900              		.loc 1 1042 0
 901 0040 FF2A     		cmp	r2, #255
 902 0042 16D0     		beq	.L72
 903              	.LVL151:
 904              	.LBB115:
 905              	.LBB116:
 445:c:\projects\paindrain\arduinolcd\test\pain drain\libraries\lvgl\src\misc\lv_color.h ****     uint32_t bg = (uint32_t)((uint32_t)c2.full | ((uint32_t)c2.full << 16)) &
 906              		.loc 3 445 0
 907 0044 0432     		adds	r2, r2, #4
 908              	.LVL152:
 446:c:\projects\paindrain\arduinolcd\test\pain drain\libraries\lvgl\src\misc\lv_color.h ****                   0x7E0F81F; /*0b00000111111000001111100000011111*/
 909              		.loc 3 446 0
 910 0046 89B2     		uxth	r1, r1
 911              	.LVL153:
 912 0048 41EA0141 		orr	r1, r1, r1, lsl #16
 913 004c 0A4D     		ldr	r5, .L75
 914 004e 01EA0503 		and	r3, r1, r5
 915              	.LVL154:
 448:c:\projects\paindrain\arduinolcd\test\pain drain\libraries\lvgl\src\misc\lv_color.h ****     uint32_t result = ((((fg - bg) * mix) >> 5) + bg) & 0x7E0F81F;
 916              		.loc 3 448 0
 917 0052 80B2     		uxth	r0, r0
 918              	.LVL155:
 919 0054 40EA0040 		orr	r0, r0, r0, lsl #16
 920 0058 00EA0504 		and	r4, r0, r5
 921              	.LVL156:
 922              		.loc 3 449 0
 923 005c E41A     		subs	r4, r4, r3
 924              	.LVL157:
 925 005e C2F3C702 		ubfx	r2, r2, #3, #8
 926              	.LVL158:
 927 0062 04FB02F2 		mul	r2, r4, r2
 928 0066 03EB5213 		add	r3, r3, r2, lsr #5
 929              	.LVL159:
 930 006a 03EA0500 		and	r0, r3, r5
 931              	.LVL160:
 932 006e 40EA1040 		orr	r0, r0, r0, lsr #16
 933              	.LVL161:
 934              	.L72:
 935              	.LVL162:
 936              	.LBE116:
 937              	.LBE115:
 938              		.loc 1 1045 0
 939 0072 30BC     		pop	{r4, r5}
 940              		.cfi_restore 5
 941              		.cfi_restore 4
 942              		.cfi_def_cfa_offset 0
 943 0074 7047     		bx	lr
 944              	.L76:
 945 0076 00BF     		.align	2
ARM GAS  C:\Users\haske\AppData\Local\Temp\cc7ZkKza.s 			page 47


 946              	.L75:
 947 0078 1FF8E007 		.word	132184095
 948              		.cfi_endproc
 949              	.LFE169:
 950              		.size	color_blend_true_color_multiply, .-color_blend_true_color_multiply
 951              		.section	.text.fill_set_px,"ax",%progbits
 952              		.align	2
 953              		.thumb
 954              		.thumb_func
 955              		.type	fill_set_px, %function
 956              	fill_set_px:
 957              	.LFB161:
 209:..\..\..\arduinoLCD\test\Pain Drain\libraries\lvgl\src\draw\sw/lv_draw_sw_blend.c ****     lv_disp_t * disp = _lv_refr_get_disp_refreshing();
 958              		.loc 1 209 0
 959              		.cfi_startproc
 960              		@ args = 12, pretend = 0, frame = 24
 961              		@ frame_needed = 0, uses_anonymous_args = 0
 962              	.LVL163:
 963 0000 2DE9F04F 		push	{r4, r5, r6, r7, r8, r9, r10, fp, lr}
 964              		.cfi_def_cfa_offset 36
 965              		.cfi_offset 4, -36
 966              		.cfi_offset 5, -32
 967              		.cfi_offset 6, -28
 968              		.cfi_offset 7, -24
 969              		.cfi_offset 8, -20
 970              		.cfi_offset 9, -16
 971              		.cfi_offset 10, -12
 972              		.cfi_offset 11, -8
 973              		.cfi_offset 14, -4
 974 0004 8BB0     		sub	sp, sp, #44
 975              		.cfi_def_cfa_offset 80
 976 0006 0590     		str	r0, [sp, #20]
 977 0008 0F46     		mov	r7, r1
 978 000a 0692     		str	r2, [sp, #24]
 979 000c 9A46     		mov	r10, r3	@ movhi
 980 000e 9DF85030 		ldrb	r3, [sp, #80]	@ zero_extendqisi2
 981              	.LVL164:
 982 0012 0793     		str	r3, [sp, #28]
 983 0014 159D     		ldr	r5, [sp, #84]
 984 0016 BDF95830 		ldrsh	r3, [sp, #88]
 985 001a 0993     		str	r3, [sp, #36]
 210:..\..\..\arduinoLCD\test\Pain Drain\libraries\lvgl\src\draw\sw/lv_draw_sw_blend.c **** 
 986              		.loc 1 210 0
 987 001c FFF7FEFF 		bl	_lv_refr_get_disp_refreshing
 988              	.LVL165:
