ARM GAS  C:\Users\haske\AppData\Local\Temp\ccxlcgkV.s 			page 1


   1              		.syntax unified
   2              		.cpu cortex-m4
   3              		.eabi_attribute 27, 1
   4              		.fpu fpv4-sp-d16
   5              		.eabi_attribute 20, 1
   6              		.eabi_attribute 21, 1
   7              		.eabi_attribute 23, 3
   8              		.eabi_attribute 24, 1
   9              		.eabi_attribute 25, 1
  10              		.eabi_attribute 26, 1
  11              		.eabi_attribute 30, 1
  12              		.eabi_attribute 34, 1
  13              		.eabi_attribute 18, 4
  14              		.thumb
  15              		.syntax unified
  16              		.file	"lv_draw_sw_arc.c"
  17              		.text
  18              	.Ltext0:
  19              		.cfi_sections	.debug_frame
  20              		.section	.text.draw_quarter_0,"ax",%progbits
  21              		.align	2
  22              		.thumb
  23              		.thumb_func
  24              		.type	draw_quarter_0, %function
  25              	draw_quarter_0:
  26              	.LFB57:
  27              		.file 1 "..\\..\\..\\arduinoLCD\\test\\Pain Drain\\libraries\\lvgl\\src\\draw\\sw\\lv_draw_sw_arc.
   1:..\..\..\arduinoLCD\test\Pain Drain\libraries\lvgl\src\draw\sw/lv_draw_sw_arc.c **** /**
   2:..\..\..\arduinoLCD\test\Pain Drain\libraries\lvgl\src\draw\sw/lv_draw_sw_arc.c ****  * @file lv_draw_arc.c
   3:..\..\..\arduinoLCD\test\Pain Drain\libraries\lvgl\src\draw\sw/lv_draw_sw_arc.c ****  *
   4:..\..\..\arduinoLCD\test\Pain Drain\libraries\lvgl\src\draw\sw/lv_draw_sw_arc.c ****  */
   5:..\..\..\arduinoLCD\test\Pain Drain\libraries\lvgl\src\draw\sw/lv_draw_sw_arc.c **** 
   6:..\..\..\arduinoLCD\test\Pain Drain\libraries\lvgl\src\draw\sw/lv_draw_sw_arc.c **** /*********************
   7:..\..\..\arduinoLCD\test\Pain Drain\libraries\lvgl\src\draw\sw/lv_draw_sw_arc.c ****  *      INCLUDES
   8:..\..\..\arduinoLCD\test\Pain Drain\libraries\lvgl\src\draw\sw/lv_draw_sw_arc.c ****  *********************/
   9:..\..\..\arduinoLCD\test\Pain Drain\libraries\lvgl\src\draw\sw/lv_draw_sw_arc.c **** #include "lv_draw_sw.h"
  10:..\..\..\arduinoLCD\test\Pain Drain\libraries\lvgl\src\draw\sw/lv_draw_sw_arc.c **** #include "../../misc/lv_math.h"
  11:..\..\..\arduinoLCD\test\Pain Drain\libraries\lvgl\src\draw\sw/lv_draw_sw_arc.c **** #include "../../misc/lv_log.h"
  12:..\..\..\arduinoLCD\test\Pain Drain\libraries\lvgl\src\draw\sw/lv_draw_sw_arc.c **** #include "../../misc/lv_mem.h"
  13:..\..\..\arduinoLCD\test\Pain Drain\libraries\lvgl\src\draw\sw/lv_draw_sw_arc.c **** #include "../lv_draw.h"
  14:..\..\..\arduinoLCD\test\Pain Drain\libraries\lvgl\src\draw\sw/lv_draw_sw_arc.c **** 
  15:..\..\..\arduinoLCD\test\Pain Drain\libraries\lvgl\src\draw\sw/lv_draw_sw_arc.c **** /*********************
  16:..\..\..\arduinoLCD\test\Pain Drain\libraries\lvgl\src\draw\sw/lv_draw_sw_arc.c ****  *      DEFINES
  17:..\..\..\arduinoLCD\test\Pain Drain\libraries\lvgl\src\draw\sw/lv_draw_sw_arc.c ****  *********************/
  18:..\..\..\arduinoLCD\test\Pain Drain\libraries\lvgl\src\draw\sw/lv_draw_sw_arc.c **** #define SPLIT_RADIUS_LIMIT 10  /*With radius greater than this the arc will drawn in quarters. A qu
  19:..\..\..\arduinoLCD\test\Pain Drain\libraries\lvgl\src\draw\sw/lv_draw_sw_arc.c **** #define SPLIT_ANGLE_GAP_LIMIT 60  /*With small gaps in the arc don't bother with splitting because 
  20:..\..\..\arduinoLCD\test\Pain Drain\libraries\lvgl\src\draw\sw/lv_draw_sw_arc.c **** 
  21:..\..\..\arduinoLCD\test\Pain Drain\libraries\lvgl\src\draw\sw/lv_draw_sw_arc.c **** /**********************
  22:..\..\..\arduinoLCD\test\Pain Drain\libraries\lvgl\src\draw\sw/lv_draw_sw_arc.c ****  *      TYPEDEFS
  23:..\..\..\arduinoLCD\test\Pain Drain\libraries\lvgl\src\draw\sw/lv_draw_sw_arc.c ****  **********************/
  24:..\..\..\arduinoLCD\test\Pain Drain\libraries\lvgl\src\draw\sw/lv_draw_sw_arc.c **** typedef struct {
  25:..\..\..\arduinoLCD\test\Pain Drain\libraries\lvgl\src\draw\sw/lv_draw_sw_arc.c ****     const lv_point_t * center;
  26:..\..\..\arduinoLCD\test\Pain Drain\libraries\lvgl\src\draw\sw/lv_draw_sw_arc.c ****     lv_coord_t radius;
  27:..\..\..\arduinoLCD\test\Pain Drain\libraries\lvgl\src\draw\sw/lv_draw_sw_arc.c ****     uint16_t start_angle;
  28:..\..\..\arduinoLCD\test\Pain Drain\libraries\lvgl\src\draw\sw/lv_draw_sw_arc.c ****     uint16_t end_angle;
  29:..\..\..\arduinoLCD\test\Pain Drain\libraries\lvgl\src\draw\sw/lv_draw_sw_arc.c ****     uint16_t start_quarter;
  30:..\..\..\arduinoLCD\test\Pain Drain\libraries\lvgl\src\draw\sw/lv_draw_sw_arc.c ****     uint16_t end_quarter;
ARM GAS  C:\Users\haske\AppData\Local\Temp\ccxlcgkV.s 			page 2


  31:..\..\..\arduinoLCD\test\Pain Drain\libraries\lvgl\src\draw\sw/lv_draw_sw_arc.c ****     lv_coord_t width;
  32:..\..\..\arduinoLCD\test\Pain Drain\libraries\lvgl\src\draw\sw/lv_draw_sw_arc.c ****     lv_draw_rect_dsc_t * draw_dsc;
  33:..\..\..\arduinoLCD\test\Pain Drain\libraries\lvgl\src\draw\sw/lv_draw_sw_arc.c ****     const lv_area_t * draw_area;
  34:..\..\..\arduinoLCD\test\Pain Drain\libraries\lvgl\src\draw\sw/lv_draw_sw_arc.c ****     lv_draw_ctx_t * draw_ctx;
  35:..\..\..\arduinoLCD\test\Pain Drain\libraries\lvgl\src\draw\sw/lv_draw_sw_arc.c **** } quarter_draw_dsc_t;
  36:..\..\..\arduinoLCD\test\Pain Drain\libraries\lvgl\src\draw\sw/lv_draw_sw_arc.c **** 
  37:..\..\..\arduinoLCD\test\Pain Drain\libraries\lvgl\src\draw\sw/lv_draw_sw_arc.c **** /**********************
  38:..\..\..\arduinoLCD\test\Pain Drain\libraries\lvgl\src\draw\sw/lv_draw_sw_arc.c ****  *  STATIC PROTOTYPES
  39:..\..\..\arduinoLCD\test\Pain Drain\libraries\lvgl\src\draw\sw/lv_draw_sw_arc.c ****  **********************/
  40:..\..\..\arduinoLCD\test\Pain Drain\libraries\lvgl\src\draw\sw/lv_draw_sw_arc.c **** #if LV_DRAW_COMPLEX
  41:..\..\..\arduinoLCD\test\Pain Drain\libraries\lvgl\src\draw\sw/lv_draw_sw_arc.c ****     static void draw_quarter_0(quarter_draw_dsc_t * q);
  42:..\..\..\arduinoLCD\test\Pain Drain\libraries\lvgl\src\draw\sw/lv_draw_sw_arc.c ****     static void draw_quarter_1(quarter_draw_dsc_t * q);
  43:..\..\..\arduinoLCD\test\Pain Drain\libraries\lvgl\src\draw\sw/lv_draw_sw_arc.c ****     static void draw_quarter_2(quarter_draw_dsc_t * q);
  44:..\..\..\arduinoLCD\test\Pain Drain\libraries\lvgl\src\draw\sw/lv_draw_sw_arc.c ****     static void draw_quarter_3(quarter_draw_dsc_t * q);
  45:..\..\..\arduinoLCD\test\Pain Drain\libraries\lvgl\src\draw\sw/lv_draw_sw_arc.c ****     static void get_rounded_area(int16_t angle, lv_coord_t radius, uint8_t thickness, lv_area_t * r
  46:..\..\..\arduinoLCD\test\Pain Drain\libraries\lvgl\src\draw\sw/lv_draw_sw_arc.c **** #endif /*LV_DRAW_COMPLEX*/
  47:..\..\..\arduinoLCD\test\Pain Drain\libraries\lvgl\src\draw\sw/lv_draw_sw_arc.c **** 
  48:..\..\..\arduinoLCD\test\Pain Drain\libraries\lvgl\src\draw\sw/lv_draw_sw_arc.c **** /**********************
  49:..\..\..\arduinoLCD\test\Pain Drain\libraries\lvgl\src\draw\sw/lv_draw_sw_arc.c ****  *  STATIC VARIABLES
  50:..\..\..\arduinoLCD\test\Pain Drain\libraries\lvgl\src\draw\sw/lv_draw_sw_arc.c ****  **********************/
  51:..\..\..\arduinoLCD\test\Pain Drain\libraries\lvgl\src\draw\sw/lv_draw_sw_arc.c **** 
  52:..\..\..\arduinoLCD\test\Pain Drain\libraries\lvgl\src\draw\sw/lv_draw_sw_arc.c **** /**********************
  53:..\..\..\arduinoLCD\test\Pain Drain\libraries\lvgl\src\draw\sw/lv_draw_sw_arc.c ****  *      MACROS
  54:..\..\..\arduinoLCD\test\Pain Drain\libraries\lvgl\src\draw\sw/lv_draw_sw_arc.c ****  **********************/
  55:..\..\..\arduinoLCD\test\Pain Drain\libraries\lvgl\src\draw\sw/lv_draw_sw_arc.c **** 
  56:..\..\..\arduinoLCD\test\Pain Drain\libraries\lvgl\src\draw\sw/lv_draw_sw_arc.c **** /**********************
  57:..\..\..\arduinoLCD\test\Pain Drain\libraries\lvgl\src\draw\sw/lv_draw_sw_arc.c ****  *   GLOBAL FUNCTIONS
  58:..\..\..\arduinoLCD\test\Pain Drain\libraries\lvgl\src\draw\sw/lv_draw_sw_arc.c ****  **********************/
  59:..\..\..\arduinoLCD\test\Pain Drain\libraries\lvgl\src\draw\sw/lv_draw_sw_arc.c **** 
  60:..\..\..\arduinoLCD\test\Pain Drain\libraries\lvgl\src\draw\sw/lv_draw_sw_arc.c **** void lv_draw_sw_arc(lv_draw_ctx_t * draw_ctx, const lv_draw_arc_dsc_t * dsc, const lv_point_t * cen
  61:..\..\..\arduinoLCD\test\Pain Drain\libraries\lvgl\src\draw\sw/lv_draw_sw_arc.c ****                     uint16_t start_angle, uint16_t end_angle)
  62:..\..\..\arduinoLCD\test\Pain Drain\libraries\lvgl\src\draw\sw/lv_draw_sw_arc.c **** {
  63:..\..\..\arduinoLCD\test\Pain Drain\libraries\lvgl\src\draw\sw/lv_draw_sw_arc.c **** #if LV_DRAW_COMPLEX
  64:..\..\..\arduinoLCD\test\Pain Drain\libraries\lvgl\src\draw\sw/lv_draw_sw_arc.c ****     if(dsc->opa <= LV_OPA_MIN) return;
  65:..\..\..\arduinoLCD\test\Pain Drain\libraries\lvgl\src\draw\sw/lv_draw_sw_arc.c ****     if(dsc->width == 0) return;
  66:..\..\..\arduinoLCD\test\Pain Drain\libraries\lvgl\src\draw\sw/lv_draw_sw_arc.c ****     if(start_angle == end_angle) return;
  67:..\..\..\arduinoLCD\test\Pain Drain\libraries\lvgl\src\draw\sw/lv_draw_sw_arc.c **** 
  68:..\..\..\arduinoLCD\test\Pain Drain\libraries\lvgl\src\draw\sw/lv_draw_sw_arc.c ****     lv_coord_t width = dsc->width;
  69:..\..\..\arduinoLCD\test\Pain Drain\libraries\lvgl\src\draw\sw/lv_draw_sw_arc.c ****     if(width > radius) width = radius;
  70:..\..\..\arduinoLCD\test\Pain Drain\libraries\lvgl\src\draw\sw/lv_draw_sw_arc.c **** 
  71:..\..\..\arduinoLCD\test\Pain Drain\libraries\lvgl\src\draw\sw/lv_draw_sw_arc.c ****     lv_draw_rect_dsc_t cir_dsc;
  72:..\..\..\arduinoLCD\test\Pain Drain\libraries\lvgl\src\draw\sw/lv_draw_sw_arc.c ****     lv_draw_rect_dsc_init(&cir_dsc);
  73:..\..\..\arduinoLCD\test\Pain Drain\libraries\lvgl\src\draw\sw/lv_draw_sw_arc.c ****     cir_dsc.blend_mode = dsc->blend_mode;
  74:..\..\..\arduinoLCD\test\Pain Drain\libraries\lvgl\src\draw\sw/lv_draw_sw_arc.c ****     if(dsc->img_src) {
  75:..\..\..\arduinoLCD\test\Pain Drain\libraries\lvgl\src\draw\sw/lv_draw_sw_arc.c ****         cir_dsc.bg_opa = LV_OPA_TRANSP;
  76:..\..\..\arduinoLCD\test\Pain Drain\libraries\lvgl\src\draw\sw/lv_draw_sw_arc.c ****         cir_dsc.bg_img_src = dsc->img_src;
  77:..\..\..\arduinoLCD\test\Pain Drain\libraries\lvgl\src\draw\sw/lv_draw_sw_arc.c ****         cir_dsc.bg_img_opa = dsc->opa;
  78:..\..\..\arduinoLCD\test\Pain Drain\libraries\lvgl\src\draw\sw/lv_draw_sw_arc.c ****     }
  79:..\..\..\arduinoLCD\test\Pain Drain\libraries\lvgl\src\draw\sw/lv_draw_sw_arc.c ****     else {
  80:..\..\..\arduinoLCD\test\Pain Drain\libraries\lvgl\src\draw\sw/lv_draw_sw_arc.c ****         cir_dsc.bg_opa = dsc->opa;
  81:..\..\..\arduinoLCD\test\Pain Drain\libraries\lvgl\src\draw\sw/lv_draw_sw_arc.c ****         cir_dsc.bg_color = dsc->color;
  82:..\..\..\arduinoLCD\test\Pain Drain\libraries\lvgl\src\draw\sw/lv_draw_sw_arc.c ****     }
  83:..\..\..\arduinoLCD\test\Pain Drain\libraries\lvgl\src\draw\sw/lv_draw_sw_arc.c **** 
  84:..\..\..\arduinoLCD\test\Pain Drain\libraries\lvgl\src\draw\sw/lv_draw_sw_arc.c ****     lv_area_t area_out;
  85:..\..\..\arduinoLCD\test\Pain Drain\libraries\lvgl\src\draw\sw/lv_draw_sw_arc.c ****     area_out.x1 = center->x - radius;
  86:..\..\..\arduinoLCD\test\Pain Drain\libraries\lvgl\src\draw\sw/lv_draw_sw_arc.c ****     area_out.y1 = center->y - radius;
  87:..\..\..\arduinoLCD\test\Pain Drain\libraries\lvgl\src\draw\sw/lv_draw_sw_arc.c ****     area_out.x2 = center->x + radius - 1;  /*-1 because the center already belongs to the left/bott
ARM GAS  C:\Users\haske\AppData\Local\Temp\ccxlcgkV.s 			page 3


  88:..\..\..\arduinoLCD\test\Pain Drain\libraries\lvgl\src\draw\sw/lv_draw_sw_arc.c ****     area_out.y2 = center->y + radius - 1;
  89:..\..\..\arduinoLCD\test\Pain Drain\libraries\lvgl\src\draw\sw/lv_draw_sw_arc.c **** 
  90:..\..\..\arduinoLCD\test\Pain Drain\libraries\lvgl\src\draw\sw/lv_draw_sw_arc.c ****     lv_area_t area_in;
  91:..\..\..\arduinoLCD\test\Pain Drain\libraries\lvgl\src\draw\sw/lv_draw_sw_arc.c ****     lv_area_copy(&area_in, &area_out);
  92:..\..\..\arduinoLCD\test\Pain Drain\libraries\lvgl\src\draw\sw/lv_draw_sw_arc.c ****     area_in.x1 += dsc->width;
  93:..\..\..\arduinoLCD\test\Pain Drain\libraries\lvgl\src\draw\sw/lv_draw_sw_arc.c ****     area_in.y1 += dsc->width;
  94:..\..\..\arduinoLCD\test\Pain Drain\libraries\lvgl\src\draw\sw/lv_draw_sw_arc.c ****     area_in.x2 -= dsc->width;
  95:..\..\..\arduinoLCD\test\Pain Drain\libraries\lvgl\src\draw\sw/lv_draw_sw_arc.c ****     area_in.y2 -= dsc->width;
  96:..\..\..\arduinoLCD\test\Pain Drain\libraries\lvgl\src\draw\sw/lv_draw_sw_arc.c **** 
  97:..\..\..\arduinoLCD\test\Pain Drain\libraries\lvgl\src\draw\sw/lv_draw_sw_arc.c ****     /*Create inner the mask*/
  98:..\..\..\arduinoLCD\test\Pain Drain\libraries\lvgl\src\draw\sw/lv_draw_sw_arc.c ****     int16_t mask_in_id = LV_MASK_ID_INV;
  99:..\..\..\arduinoLCD\test\Pain Drain\libraries\lvgl\src\draw\sw/lv_draw_sw_arc.c ****     lv_draw_mask_radius_param_t mask_in_param;
 100:..\..\..\arduinoLCD\test\Pain Drain\libraries\lvgl\src\draw\sw/lv_draw_sw_arc.c ****     bool mask_in_param_valid = false;
 101:..\..\..\arduinoLCD\test\Pain Drain\libraries\lvgl\src\draw\sw/lv_draw_sw_arc.c ****     if(lv_area_get_width(&area_in) > 0 && lv_area_get_height(&area_in) > 0) {
 102:..\..\..\arduinoLCD\test\Pain Drain\libraries\lvgl\src\draw\sw/lv_draw_sw_arc.c ****         lv_draw_mask_radius_init(&mask_in_param, &area_in, LV_RADIUS_CIRCLE, true);
 103:..\..\..\arduinoLCD\test\Pain Drain\libraries\lvgl\src\draw\sw/lv_draw_sw_arc.c ****         mask_in_param_valid = true;
 104:..\..\..\arduinoLCD\test\Pain Drain\libraries\lvgl\src\draw\sw/lv_draw_sw_arc.c ****         mask_in_id = lv_draw_mask_add(&mask_in_param, NULL);
 105:..\..\..\arduinoLCD\test\Pain Drain\libraries\lvgl\src\draw\sw/lv_draw_sw_arc.c ****     }
 106:..\..\..\arduinoLCD\test\Pain Drain\libraries\lvgl\src\draw\sw/lv_draw_sw_arc.c **** 
 107:..\..\..\arduinoLCD\test\Pain Drain\libraries\lvgl\src\draw\sw/lv_draw_sw_arc.c ****     lv_draw_mask_radius_param_t mask_out_param;
 108:..\..\..\arduinoLCD\test\Pain Drain\libraries\lvgl\src\draw\sw/lv_draw_sw_arc.c ****     lv_draw_mask_radius_init(&mask_out_param, &area_out, LV_RADIUS_CIRCLE, false);
 109:..\..\..\arduinoLCD\test\Pain Drain\libraries\lvgl\src\draw\sw/lv_draw_sw_arc.c ****     int16_t mask_out_id = lv_draw_mask_add(&mask_out_param, NULL);
 110:..\..\..\arduinoLCD\test\Pain Drain\libraries\lvgl\src\draw\sw/lv_draw_sw_arc.c **** 
 111:..\..\..\arduinoLCD\test\Pain Drain\libraries\lvgl\src\draw\sw/lv_draw_sw_arc.c ****     /*Draw a full ring*/
 112:..\..\..\arduinoLCD\test\Pain Drain\libraries\lvgl\src\draw\sw/lv_draw_sw_arc.c ****     if(start_angle + 360 == end_angle || start_angle == end_angle + 360) {
 113:..\..\..\arduinoLCD\test\Pain Drain\libraries\lvgl\src\draw\sw/lv_draw_sw_arc.c ****         cir_dsc.radius = LV_RADIUS_CIRCLE;
 114:..\..\..\arduinoLCD\test\Pain Drain\libraries\lvgl\src\draw\sw/lv_draw_sw_arc.c ****         lv_draw_rect(draw_ctx, &cir_dsc, &area_out);
 115:..\..\..\arduinoLCD\test\Pain Drain\libraries\lvgl\src\draw\sw/lv_draw_sw_arc.c **** 
 116:..\..\..\arduinoLCD\test\Pain Drain\libraries\lvgl\src\draw\sw/lv_draw_sw_arc.c ****         lv_draw_mask_remove_id(mask_out_id);
 117:..\..\..\arduinoLCD\test\Pain Drain\libraries\lvgl\src\draw\sw/lv_draw_sw_arc.c ****         if(mask_in_id != LV_MASK_ID_INV) lv_draw_mask_remove_id(mask_in_id);
 118:..\..\..\arduinoLCD\test\Pain Drain\libraries\lvgl\src\draw\sw/lv_draw_sw_arc.c **** 
 119:..\..\..\arduinoLCD\test\Pain Drain\libraries\lvgl\src\draw\sw/lv_draw_sw_arc.c ****         lv_draw_mask_free_param(&mask_out_param);
 120:..\..\..\arduinoLCD\test\Pain Drain\libraries\lvgl\src\draw\sw/lv_draw_sw_arc.c ****         if(mask_in_param_valid) {
 121:..\..\..\arduinoLCD\test\Pain Drain\libraries\lvgl\src\draw\sw/lv_draw_sw_arc.c ****             lv_draw_mask_free_param(&mask_in_param);
 122:..\..\..\arduinoLCD\test\Pain Drain\libraries\lvgl\src\draw\sw/lv_draw_sw_arc.c ****         }
 123:..\..\..\arduinoLCD\test\Pain Drain\libraries\lvgl\src\draw\sw/lv_draw_sw_arc.c **** 
 124:..\..\..\arduinoLCD\test\Pain Drain\libraries\lvgl\src\draw\sw/lv_draw_sw_arc.c ****         return;
 125:..\..\..\arduinoLCD\test\Pain Drain\libraries\lvgl\src\draw\sw/lv_draw_sw_arc.c ****     }
 126:..\..\..\arduinoLCD\test\Pain Drain\libraries\lvgl\src\draw\sw/lv_draw_sw_arc.c **** 
 127:..\..\..\arduinoLCD\test\Pain Drain\libraries\lvgl\src\draw\sw/lv_draw_sw_arc.c ****     while(start_angle >= 360) start_angle -= 360;
 128:..\..\..\arduinoLCD\test\Pain Drain\libraries\lvgl\src\draw\sw/lv_draw_sw_arc.c ****     while(end_angle >= 360) end_angle -= 360;
 129:..\..\..\arduinoLCD\test\Pain Drain\libraries\lvgl\src\draw\sw/lv_draw_sw_arc.c **** 
 130:..\..\..\arduinoLCD\test\Pain Drain\libraries\lvgl\src\draw\sw/lv_draw_sw_arc.c ****     lv_draw_mask_angle_param_t mask_angle_param;
 131:..\..\..\arduinoLCD\test\Pain Drain\libraries\lvgl\src\draw\sw/lv_draw_sw_arc.c ****     lv_draw_mask_angle_init(&mask_angle_param, center->x, center->y, start_angle, end_angle);
 132:..\..\..\arduinoLCD\test\Pain Drain\libraries\lvgl\src\draw\sw/lv_draw_sw_arc.c ****     int16_t mask_angle_id = lv_draw_mask_add(&mask_angle_param, NULL);
 133:..\..\..\arduinoLCD\test\Pain Drain\libraries\lvgl\src\draw\sw/lv_draw_sw_arc.c **** 
 134:..\..\..\arduinoLCD\test\Pain Drain\libraries\lvgl\src\draw\sw/lv_draw_sw_arc.c ****     int32_t angle_gap;
 135:..\..\..\arduinoLCD\test\Pain Drain\libraries\lvgl\src\draw\sw/lv_draw_sw_arc.c ****     if(end_angle > start_angle) {
 136:..\..\..\arduinoLCD\test\Pain Drain\libraries\lvgl\src\draw\sw/lv_draw_sw_arc.c ****         angle_gap = 360 - (end_angle - start_angle);
 137:..\..\..\arduinoLCD\test\Pain Drain\libraries\lvgl\src\draw\sw/lv_draw_sw_arc.c ****     }
 138:..\..\..\arduinoLCD\test\Pain Drain\libraries\lvgl\src\draw\sw/lv_draw_sw_arc.c ****     else {
 139:..\..\..\arduinoLCD\test\Pain Drain\libraries\lvgl\src\draw\sw/lv_draw_sw_arc.c ****         angle_gap = start_angle - end_angle;
 140:..\..\..\arduinoLCD\test\Pain Drain\libraries\lvgl\src\draw\sw/lv_draw_sw_arc.c ****     }
 141:..\..\..\arduinoLCD\test\Pain Drain\libraries\lvgl\src\draw\sw/lv_draw_sw_arc.c **** 
 142:..\..\..\arduinoLCD\test\Pain Drain\libraries\lvgl\src\draw\sw/lv_draw_sw_arc.c ****     const lv_area_t * clip_area_ori = draw_ctx->clip_area;
 143:..\..\..\arduinoLCD\test\Pain Drain\libraries\lvgl\src\draw\sw/lv_draw_sw_arc.c **** 
 144:..\..\..\arduinoLCD\test\Pain Drain\libraries\lvgl\src\draw\sw/lv_draw_sw_arc.c ****     if(angle_gap > SPLIT_ANGLE_GAP_LIMIT && radius > SPLIT_RADIUS_LIMIT) {
ARM GAS  C:\Users\haske\AppData\Local\Temp\ccxlcgkV.s 			page 4


 145:..\..\..\arduinoLCD\test\Pain Drain\libraries\lvgl\src\draw\sw/lv_draw_sw_arc.c ****         /*Handle each quarter individually and skip which is empty*/
 146:..\..\..\arduinoLCD\test\Pain Drain\libraries\lvgl\src\draw\sw/lv_draw_sw_arc.c ****         quarter_draw_dsc_t q_dsc;
 147:..\..\..\arduinoLCD\test\Pain Drain\libraries\lvgl\src\draw\sw/lv_draw_sw_arc.c ****         q_dsc.center = center;
 148:..\..\..\arduinoLCD\test\Pain Drain\libraries\lvgl\src\draw\sw/lv_draw_sw_arc.c ****         q_dsc.radius = radius;
 149:..\..\..\arduinoLCD\test\Pain Drain\libraries\lvgl\src\draw\sw/lv_draw_sw_arc.c ****         q_dsc.start_angle = start_angle;
 150:..\..\..\arduinoLCD\test\Pain Drain\libraries\lvgl\src\draw\sw/lv_draw_sw_arc.c ****         q_dsc.end_angle = end_angle;
 151:..\..\..\arduinoLCD\test\Pain Drain\libraries\lvgl\src\draw\sw/lv_draw_sw_arc.c ****         q_dsc.start_quarter = (start_angle / 90) & 0x3;
 152:..\..\..\arduinoLCD\test\Pain Drain\libraries\lvgl\src\draw\sw/lv_draw_sw_arc.c ****         q_dsc.end_quarter = (end_angle / 90) & 0x3;
 153:..\..\..\arduinoLCD\test\Pain Drain\libraries\lvgl\src\draw\sw/lv_draw_sw_arc.c ****         q_dsc.width = width;
 154:..\..\..\arduinoLCD\test\Pain Drain\libraries\lvgl\src\draw\sw/lv_draw_sw_arc.c ****         q_dsc.draw_dsc = &cir_dsc;
 155:..\..\..\arduinoLCD\test\Pain Drain\libraries\lvgl\src\draw\sw/lv_draw_sw_arc.c ****         q_dsc.draw_area = &area_out;
 156:..\..\..\arduinoLCD\test\Pain Drain\libraries\lvgl\src\draw\sw/lv_draw_sw_arc.c ****         q_dsc.draw_ctx = draw_ctx;
 157:..\..\..\arduinoLCD\test\Pain Drain\libraries\lvgl\src\draw\sw/lv_draw_sw_arc.c **** 
 158:..\..\..\arduinoLCD\test\Pain Drain\libraries\lvgl\src\draw\sw/lv_draw_sw_arc.c ****         draw_quarter_0(&q_dsc);
 159:..\..\..\arduinoLCD\test\Pain Drain\libraries\lvgl\src\draw\sw/lv_draw_sw_arc.c ****         draw_quarter_1(&q_dsc);
 160:..\..\..\arduinoLCD\test\Pain Drain\libraries\lvgl\src\draw\sw/lv_draw_sw_arc.c ****         draw_quarter_2(&q_dsc);
 161:..\..\..\arduinoLCD\test\Pain Drain\libraries\lvgl\src\draw\sw/lv_draw_sw_arc.c ****         draw_quarter_3(&q_dsc);
 162:..\..\..\arduinoLCD\test\Pain Drain\libraries\lvgl\src\draw\sw/lv_draw_sw_arc.c ****     }
 163:..\..\..\arduinoLCD\test\Pain Drain\libraries\lvgl\src\draw\sw/lv_draw_sw_arc.c ****     else {
 164:..\..\..\arduinoLCD\test\Pain Drain\libraries\lvgl\src\draw\sw/lv_draw_sw_arc.c ****         lv_draw_rect(draw_ctx, &cir_dsc, &area_out);
 165:..\..\..\arduinoLCD\test\Pain Drain\libraries\lvgl\src\draw\sw/lv_draw_sw_arc.c ****     }
 166:..\..\..\arduinoLCD\test\Pain Drain\libraries\lvgl\src\draw\sw/lv_draw_sw_arc.c **** 
 167:..\..\..\arduinoLCD\test\Pain Drain\libraries\lvgl\src\draw\sw/lv_draw_sw_arc.c ****     lv_draw_mask_free_param(&mask_angle_param);
 168:..\..\..\arduinoLCD\test\Pain Drain\libraries\lvgl\src\draw\sw/lv_draw_sw_arc.c ****     lv_draw_mask_free_param(&mask_out_param);
 169:..\..\..\arduinoLCD\test\Pain Drain\libraries\lvgl\src\draw\sw/lv_draw_sw_arc.c ****     if(mask_in_param_valid) {
 170:..\..\..\arduinoLCD\test\Pain Drain\libraries\lvgl\src\draw\sw/lv_draw_sw_arc.c ****         lv_draw_mask_free_param(&mask_in_param);
 171:..\..\..\arduinoLCD\test\Pain Drain\libraries\lvgl\src\draw\sw/lv_draw_sw_arc.c ****     }
 172:..\..\..\arduinoLCD\test\Pain Drain\libraries\lvgl\src\draw\sw/lv_draw_sw_arc.c **** 
 173:..\..\..\arduinoLCD\test\Pain Drain\libraries\lvgl\src\draw\sw/lv_draw_sw_arc.c ****     lv_draw_mask_remove_id(mask_angle_id);
 174:..\..\..\arduinoLCD\test\Pain Drain\libraries\lvgl\src\draw\sw/lv_draw_sw_arc.c ****     lv_draw_mask_remove_id(mask_out_id);
 175:..\..\..\arduinoLCD\test\Pain Drain\libraries\lvgl\src\draw\sw/lv_draw_sw_arc.c ****     if(mask_in_id != LV_MASK_ID_INV) lv_draw_mask_remove_id(mask_in_id);
 176:..\..\..\arduinoLCD\test\Pain Drain\libraries\lvgl\src\draw\sw/lv_draw_sw_arc.c **** 
 177:..\..\..\arduinoLCD\test\Pain Drain\libraries\lvgl\src\draw\sw/lv_draw_sw_arc.c ****     if(dsc->rounded) {
 178:..\..\..\arduinoLCD\test\Pain Drain\libraries\lvgl\src\draw\sw/lv_draw_sw_arc.c **** 
 179:..\..\..\arduinoLCD\test\Pain Drain\libraries\lvgl\src\draw\sw/lv_draw_sw_arc.c ****         lv_draw_mask_radius_param_t mask_end_param;
 180:..\..\..\arduinoLCD\test\Pain Drain\libraries\lvgl\src\draw\sw/lv_draw_sw_arc.c **** 
 181:..\..\..\arduinoLCD\test\Pain Drain\libraries\lvgl\src\draw\sw/lv_draw_sw_arc.c ****         lv_area_t round_area;
 182:..\..\..\arduinoLCD\test\Pain Drain\libraries\lvgl\src\draw\sw/lv_draw_sw_arc.c ****         get_rounded_area(start_angle, radius, width, &round_area);
 183:..\..\..\arduinoLCD\test\Pain Drain\libraries\lvgl\src\draw\sw/lv_draw_sw_arc.c ****         round_area.x1 += center->x;
 184:..\..\..\arduinoLCD\test\Pain Drain\libraries\lvgl\src\draw\sw/lv_draw_sw_arc.c ****         round_area.x2 += center->x;
 185:..\..\..\arduinoLCD\test\Pain Drain\libraries\lvgl\src\draw\sw/lv_draw_sw_arc.c ****         round_area.y1 += center->y;
 186:..\..\..\arduinoLCD\test\Pain Drain\libraries\lvgl\src\draw\sw/lv_draw_sw_arc.c ****         round_area.y2 += center->y;
 187:..\..\..\arduinoLCD\test\Pain Drain\libraries\lvgl\src\draw\sw/lv_draw_sw_arc.c ****         lv_area_t clip_area2;
 188:..\..\..\arduinoLCD\test\Pain Drain\libraries\lvgl\src\draw\sw/lv_draw_sw_arc.c ****         if(_lv_area_intersect(&clip_area2, clip_area_ori, &round_area)) {
 189:..\..\..\arduinoLCD\test\Pain Drain\libraries\lvgl\src\draw\sw/lv_draw_sw_arc.c ****             lv_draw_mask_radius_init(&mask_end_param, &round_area, LV_RADIUS_CIRCLE, false);
 190:..\..\..\arduinoLCD\test\Pain Drain\libraries\lvgl\src\draw\sw/lv_draw_sw_arc.c ****             int16_t mask_end_id = lv_draw_mask_add(&mask_end_param, NULL);
 191:..\..\..\arduinoLCD\test\Pain Drain\libraries\lvgl\src\draw\sw/lv_draw_sw_arc.c **** 
 192:..\..\..\arduinoLCD\test\Pain Drain\libraries\lvgl\src\draw\sw/lv_draw_sw_arc.c ****             draw_ctx->clip_area = &clip_area2;
 193:..\..\..\arduinoLCD\test\Pain Drain\libraries\lvgl\src\draw\sw/lv_draw_sw_arc.c ****             lv_draw_rect(draw_ctx, &cir_dsc, &area_out);
 194:..\..\..\arduinoLCD\test\Pain Drain\libraries\lvgl\src\draw\sw/lv_draw_sw_arc.c ****             lv_draw_mask_remove_id(mask_end_id);
 195:..\..\..\arduinoLCD\test\Pain Drain\libraries\lvgl\src\draw\sw/lv_draw_sw_arc.c ****             lv_draw_mask_free_param(&mask_end_param);
 196:..\..\..\arduinoLCD\test\Pain Drain\libraries\lvgl\src\draw\sw/lv_draw_sw_arc.c ****         }
 197:..\..\..\arduinoLCD\test\Pain Drain\libraries\lvgl\src\draw\sw/lv_draw_sw_arc.c **** 
 198:..\..\..\arduinoLCD\test\Pain Drain\libraries\lvgl\src\draw\sw/lv_draw_sw_arc.c ****         get_rounded_area(end_angle, radius, width, &round_area);
 199:..\..\..\arduinoLCD\test\Pain Drain\libraries\lvgl\src\draw\sw/lv_draw_sw_arc.c ****         round_area.x1 += center->x;
 200:..\..\..\arduinoLCD\test\Pain Drain\libraries\lvgl\src\draw\sw/lv_draw_sw_arc.c ****         round_area.x2 += center->x;
 201:..\..\..\arduinoLCD\test\Pain Drain\libraries\lvgl\src\draw\sw/lv_draw_sw_arc.c ****         round_area.y1 += center->y;
ARM GAS  C:\Users\haske\AppData\Local\Temp\ccxlcgkV.s 			page 5


 202:..\..\..\arduinoLCD\test\Pain Drain\libraries\lvgl\src\draw\sw/lv_draw_sw_arc.c ****         round_area.y2 += center->y;
 203:..\..\..\arduinoLCD\test\Pain Drain\libraries\lvgl\src\draw\sw/lv_draw_sw_arc.c ****         if(_lv_area_intersect(&clip_area2, clip_area_ori, &round_area)) {
 204:..\..\..\arduinoLCD\test\Pain Drain\libraries\lvgl\src\draw\sw/lv_draw_sw_arc.c ****             lv_draw_mask_radius_init(&mask_end_param, &round_area, LV_RADIUS_CIRCLE, false);
 205:..\..\..\arduinoLCD\test\Pain Drain\libraries\lvgl\src\draw\sw/lv_draw_sw_arc.c ****             int16_t mask_end_id = lv_draw_mask_add(&mask_end_param, NULL);
 206:..\..\..\arduinoLCD\test\Pain Drain\libraries\lvgl\src\draw\sw/lv_draw_sw_arc.c **** 
 207:..\..\..\arduinoLCD\test\Pain Drain\libraries\lvgl\src\draw\sw/lv_draw_sw_arc.c ****             draw_ctx->clip_area = &clip_area2;
 208:..\..\..\arduinoLCD\test\Pain Drain\libraries\lvgl\src\draw\sw/lv_draw_sw_arc.c ****             lv_draw_rect(draw_ctx, &cir_dsc, &area_out);
 209:..\..\..\arduinoLCD\test\Pain Drain\libraries\lvgl\src\draw\sw/lv_draw_sw_arc.c ****             lv_draw_mask_remove_id(mask_end_id);
 210:..\..\..\arduinoLCD\test\Pain Drain\libraries\lvgl\src\draw\sw/lv_draw_sw_arc.c ****             lv_draw_mask_free_param(&mask_end_param);
 211:..\..\..\arduinoLCD\test\Pain Drain\libraries\lvgl\src\draw\sw/lv_draw_sw_arc.c ****         }
 212:..\..\..\arduinoLCD\test\Pain Drain\libraries\lvgl\src\draw\sw/lv_draw_sw_arc.c ****         draw_ctx->clip_area = clip_area_ori;
 213:..\..\..\arduinoLCD\test\Pain Drain\libraries\lvgl\src\draw\sw/lv_draw_sw_arc.c ****     }
 214:..\..\..\arduinoLCD\test\Pain Drain\libraries\lvgl\src\draw\sw/lv_draw_sw_arc.c **** #else
 215:..\..\..\arduinoLCD\test\Pain Drain\libraries\lvgl\src\draw\sw/lv_draw_sw_arc.c ****     LV_LOG_WARN("Can't draw arc with LV_DRAW_COMPLEX == 0");
 216:..\..\..\arduinoLCD\test\Pain Drain\libraries\lvgl\src\draw\sw/lv_draw_sw_arc.c ****     LV_UNUSED(center);
 217:..\..\..\arduinoLCD\test\Pain Drain\libraries\lvgl\src\draw\sw/lv_draw_sw_arc.c ****     LV_UNUSED(radius);
 218:..\..\..\arduinoLCD\test\Pain Drain\libraries\lvgl\src\draw\sw/lv_draw_sw_arc.c ****     LV_UNUSED(start_angle);
 219:..\..\..\arduinoLCD\test\Pain Drain\libraries\lvgl\src\draw\sw/lv_draw_sw_arc.c ****     LV_UNUSED(end_angle);
 220:..\..\..\arduinoLCD\test\Pain Drain\libraries\lvgl\src\draw\sw/lv_draw_sw_arc.c ****     LV_UNUSED(draw_ctx);
 221:..\..\..\arduinoLCD\test\Pain Drain\libraries\lvgl\src\draw\sw/lv_draw_sw_arc.c ****     LV_UNUSED(dsc);
 222:..\..\..\arduinoLCD\test\Pain Drain\libraries\lvgl\src\draw\sw/lv_draw_sw_arc.c **** #endif /*LV_DRAW_COMPLEX*/
 223:..\..\..\arduinoLCD\test\Pain Drain\libraries\lvgl\src\draw\sw/lv_draw_sw_arc.c **** }
 224:..\..\..\arduinoLCD\test\Pain Drain\libraries\lvgl\src\draw\sw/lv_draw_sw_arc.c **** 
 225:..\..\..\arduinoLCD\test\Pain Drain\libraries\lvgl\src\draw\sw/lv_draw_sw_arc.c **** /**********************
 226:..\..\..\arduinoLCD\test\Pain Drain\libraries\lvgl\src\draw\sw/lv_draw_sw_arc.c ****  *   STATIC FUNCTIONS
 227:..\..\..\arduinoLCD\test\Pain Drain\libraries\lvgl\src\draw\sw/lv_draw_sw_arc.c ****  **********************/
 228:..\..\..\arduinoLCD\test\Pain Drain\libraries\lvgl\src\draw\sw/lv_draw_sw_arc.c **** 
 229:..\..\..\arduinoLCD\test\Pain Drain\libraries\lvgl\src\draw\sw/lv_draw_sw_arc.c **** #if LV_DRAW_COMPLEX
 230:..\..\..\arduinoLCD\test\Pain Drain\libraries\lvgl\src\draw\sw/lv_draw_sw_arc.c **** static void draw_quarter_0(quarter_draw_dsc_t * q)
 231:..\..\..\arduinoLCD\test\Pain Drain\libraries\lvgl\src\draw\sw/lv_draw_sw_arc.c **** {
  28              		.loc 1 231 0
  29              		.cfi_startproc
  30              		@ args = 0, pretend = 0, frame = 8
  31              		@ frame_needed = 0, uses_anonymous_args = 0
  32              	.LVL0:
  33 0000 70B5     		push	{r4, r5, r6, lr}
  34              		.cfi_def_cfa_offset 16
  35              		.cfi_offset 4, -16
  36              		.cfi_offset 5, -12
  37              		.cfi_offset 6, -8
  38              		.cfi_offset 14, -4
  39 0002 82B0     		sub	sp, sp, #8
  40              		.cfi_def_cfa_offset 24
  41 0004 0446     		mov	r4, r0
 232:..\..\..\arduinoLCD\test\Pain Drain\libraries\lvgl\src\draw\sw/lv_draw_sw_arc.c ****     const lv_area_t * clip_area_ori = q->draw_ctx->clip_area;
  42              		.loc 1 232 0
  43 0006 8369     		ldr	r3, [r0, #24]
  44 0008 9D68     		ldr	r5, [r3, #8]
  45              	.LVL1:
 233:..\..\..\arduinoLCD\test\Pain Drain\libraries\lvgl\src\draw\sw/lv_draw_sw_arc.c ****     lv_area_t quarter_area;
 234:..\..\..\arduinoLCD\test\Pain Drain\libraries\lvgl\src\draw\sw/lv_draw_sw_arc.c **** 
 235:..\..\..\arduinoLCD\test\Pain Drain\libraries\lvgl\src\draw\sw/lv_draw_sw_arc.c ****     if(q->start_quarter == 0 && q->end_quarter == 0 && q->start_angle < q->end_angle) {
  46              		.loc 1 235 0
  47 000a 4389     		ldrh	r3, [r0, #10]
  48 000c 002B     		cmp	r3, #0
  49 000e 5AD1     		bne	.L2
  50              		.loc 1 235 0 is_stmt 0 discriminator 1
ARM GAS  C:\Users\haske\AppData\Local\Temp\ccxlcgkV.s 			page 6


  51 0010 8289     		ldrh	r2, [r0, #12]
  52 0012 002A     		cmp	r2, #0
  53 0014 57D1     		bne	.L2
  54              		.loc 1 235 0 discriminator 2
  55 0016 C088     		ldrh	r0, [r0, #6]
  56              	.LVL2:
  57 0018 2289     		ldrh	r2, [r4, #8]
  58 001a 9042     		cmp	r0, r2
  59 001c 53D2     		bcs	.L2
  60              	.LBB12:
 236:..\..\..\arduinoLCD\test\Pain Drain\libraries\lvgl\src\draw\sw/lv_draw_sw_arc.c ****         /*Small arc here*/
 237:..\..\..\arduinoLCD\test\Pain Drain\libraries\lvgl\src\draw\sw/lv_draw_sw_arc.c ****         quarter_area.y1 = q->center->y + ((lv_trigo_sin(q->start_angle) * (q->radius - q->width)) >
  61              		.loc 1 237 0 is_stmt 1
  62 001e 2368     		ldr	r3, [r4]
  63 0020 B3F90260 		ldrsh	r6, [r3, #2]
  64 0024 00B2     		sxth	r0, r0
  65 0026 FFF7FEFF 		bl	lv_trigo_sin
  66              	.LVL3:
  67 002a B4F90430 		ldrsh	r3, [r4, #4]
  68 002e B4F90E20 		ldrsh	r2, [r4, #14]
  69 0032 9B1A     		subs	r3, r3, r2
  70 0034 03FB00F0 		mul	r0, r3, r0
  71 0038 06EBE030 		add	r0, r6, r0, asr #15
  72 003c ADF80200 		strh	r0, [sp, #2]	@ movhi
 238:..\..\..\arduinoLCD\test\Pain Drain\libraries\lvgl\src\draw\sw/lv_draw_sw_arc.c ****         quarter_area.x2 = q->center->x + ((lv_trigo_sin(q->start_angle + 90) * (q->radius)) >> LV_T
  73              		.loc 1 238 0
  74 0040 2368     		ldr	r3, [r4]
  75 0042 B3F90060 		ldrsh	r6, [r3]
  76 0046 E088     		ldrh	r0, [r4, #6]
  77 0048 5A30     		adds	r0, r0, #90
  78 004a 00B2     		sxth	r0, r0
  79 004c FFF7FEFF 		bl	lv_trigo_sin
  80              	.LVL4:
  81 0050 B4F90430 		ldrsh	r3, [r4, #4]
  82 0054 03FB00F0 		mul	r0, r3, r0
  83 0058 06EBE036 		add	r6, r6, r0, asr #15
  84 005c ADF80460 		strh	r6, [sp, #4]	@ movhi
 239:..\..\..\arduinoLCD\test\Pain Drain\libraries\lvgl\src\draw\sw/lv_draw_sw_arc.c **** 
 240:..\..\..\arduinoLCD\test\Pain Drain\libraries\lvgl\src\draw\sw/lv_draw_sw_arc.c ****         quarter_area.y2 = q->center->y + ((lv_trigo_sin(q->end_angle) * q->radius) >> LV_TRIGO_SHIF
  85              		.loc 1 240 0
  86 0060 2368     		ldr	r3, [r4]
  87 0062 B3F90260 		ldrsh	r6, [r3, #2]
  88 0066 B4F90800 		ldrsh	r0, [r4, #8]
  89 006a FFF7FEFF 		bl	lv_trigo_sin
  90              	.LVL5:
  91 006e B4F90430 		ldrsh	r3, [r4, #4]
  92 0072 03FB00F0 		mul	r0, r3, r0
  93 0076 06EBE036 		add	r6, r6, r0, asr #15
  94 007a ADF80660 		strh	r6, [sp, #6]	@ movhi
 241:..\..\..\arduinoLCD\test\Pain Drain\libraries\lvgl\src\draw\sw/lv_draw_sw_arc.c ****         quarter_area.x1 = q->center->x + ((lv_trigo_sin(q->end_angle + 90) * (q->radius - q->width)
  95              		.loc 1 241 0
  96 007e 2368     		ldr	r3, [r4]
  97 0080 B3F90060 		ldrsh	r6, [r3]
  98 0084 2089     		ldrh	r0, [r4, #8]
  99 0086 5A30     		adds	r0, r0, #90
 100 0088 00B2     		sxth	r0, r0
 101 008a FFF7FEFF 		bl	lv_trigo_sin
ARM GAS  C:\Users\haske\AppData\Local\Temp\ccxlcgkV.s 			page 7


 102              	.LVL6:
 103 008e B4F90430 		ldrsh	r3, [r4, #4]
 104 0092 B4F90E20 		ldrsh	r2, [r4, #14]
 105 0096 9B1A     		subs	r3, r3, r2
 106 0098 03FB00F0 		mul	r0, r3, r0
 107 009c 06EBE033 		add	r3, r6, r0, asr #15
 108 00a0 02A8     		add	r0, sp, #8
 109 00a2 20F8083D 		strh	r3, [r0, #-8]!	@ movhi
 242:..\..\..\arduinoLCD\test\Pain Drain\libraries\lvgl\src\draw\sw/lv_draw_sw_arc.c **** 
 243:..\..\..\arduinoLCD\test\Pain Drain\libraries\lvgl\src\draw\sw/lv_draw_sw_arc.c ****         bool ok = _lv_area_intersect(&quarter_area, &quarter_area, clip_area_ori);
 110              		.loc 1 243 0
 111 00a6 2A46     		mov	r2, r5
 112 00a8 0146     		mov	r1, r0
 113 00aa FFF7FEFF 		bl	_lv_area_intersect
 114              	.LVL7:
 244:..\..\..\arduinoLCD\test\Pain Drain\libraries\lvgl\src\draw\sw/lv_draw_sw_arc.c ****         if(ok) {
 115              		.loc 1 244 0
 116 00ae 0028     		cmp	r0, #0
 117 00b0 00F0C080 		beq	.L3
 245:..\..\..\arduinoLCD\test\Pain Drain\libraries\lvgl\src\draw\sw/lv_draw_sw_arc.c ****             q->draw_ctx->clip_area = &quarter_area;
 118              		.loc 1 245 0
 119 00b4 A369     		ldr	r3, [r4, #24]
 120 00b6 C3F808D0 		str	sp, [r3, #8]
 246:..\..\..\arduinoLCD\test\Pain Drain\libraries\lvgl\src\draw\sw/lv_draw_sw_arc.c ****             lv_draw_rect(q->draw_ctx, q->draw_dsc, q->draw_area);
 121              		.loc 1 246 0
 122 00ba 6269     		ldr	r2, [r4, #20]
 123 00bc 2169     		ldr	r1, [r4, #16]
 124 00be A069     		ldr	r0, [r4, #24]
 125              	.LVL8:
 126 00c0 FFF7FEFF 		bl	lv_draw_rect
 127              	.LVL9:
 128 00c4 B6E0     		b	.L3
 129              	.L2:
 130              	.LBE12:
 247:..\..\..\arduinoLCD\test\Pain Drain\libraries\lvgl\src\draw\sw/lv_draw_sw_arc.c ****         }
 248:..\..\..\arduinoLCD\test\Pain Drain\libraries\lvgl\src\draw\sw/lv_draw_sw_arc.c ****     }
 249:..\..\..\arduinoLCD\test\Pain Drain\libraries\lvgl\src\draw\sw/lv_draw_sw_arc.c ****     else if(q->start_quarter == 0 || q->end_quarter == 0) {
 131              		.loc 1 249 0
 132 00c6 13B1     		cbz	r3, .L4
 133              		.loc 1 249 0 is_stmt 0 discriminator 1
 134 00c8 A289     		ldrh	r2, [r4, #12]
 135 00ca 002A     		cmp	r2, #0
 136 00cc 7CD1     		bne	.L5
 137              	.L4:
 250:..\..\..\arduinoLCD\test\Pain Drain\libraries\lvgl\src\draw\sw/lv_draw_sw_arc.c ****         /*Start and/or end arcs here*/
 251:..\..\..\arduinoLCD\test\Pain Drain\libraries\lvgl\src\draw\sw/lv_draw_sw_arc.c ****         if(q->start_quarter == 0) {
 138              		.loc 1 251 0 is_stmt 1
 139 00ce 002B     		cmp	r3, #0
 140 00d0 3AD1     		bne	.L6
 141              	.LBB13:
 252:..\..\..\arduinoLCD\test\Pain Drain\libraries\lvgl\src\draw\sw/lv_draw_sw_arc.c ****             quarter_area.x1 = q->center->x;
 142              		.loc 1 252 0
 143 00d2 2368     		ldr	r3, [r4]
 144 00d4 B3F90020 		ldrsh	r2, [r3]
 145 00d8 ADF80020 		strh	r2, [sp]	@ movhi
 253:..\..\..\arduinoLCD\test\Pain Drain\libraries\lvgl\src\draw\sw/lv_draw_sw_arc.c ****             quarter_area.y2 = q->center->y + q->radius;
 146              		.loc 1 253 0
ARM GAS  C:\Users\haske\AppData\Local\Temp\ccxlcgkV.s 			page 8


 147 00dc B3F90210 		ldrsh	r1, [r3, #2]
 148 00e0 B4F90420 		ldrsh	r2, [r4, #4]
 149 00e4 0A44     		add	r2, r2, r1
 150 00e6 ADF80620 		strh	r2, [sp, #6]	@ movhi
 254:..\..\..\arduinoLCD\test\Pain Drain\libraries\lvgl\src\draw\sw/lv_draw_sw_arc.c **** 
 255:..\..\..\arduinoLCD\test\Pain Drain\libraries\lvgl\src\draw\sw/lv_draw_sw_arc.c ****             quarter_area.y1 = q->center->y + ((lv_trigo_sin(q->start_angle) * (q->radius - q->width
 151              		.loc 1 255 0
 152 00ea B3F90260 		ldrsh	r6, [r3, #2]
 153 00ee B4F90600 		ldrsh	r0, [r4, #6]
 154 00f2 FFF7FEFF 		bl	lv_trigo_sin
 155              	.LVL10:
 156 00f6 B4F90430 		ldrsh	r3, [r4, #4]
 157 00fa B4F90E20 		ldrsh	r2, [r4, #14]
 158 00fe 9B1A     		subs	r3, r3, r2
 159 0100 03FB00F0 		mul	r0, r3, r0
 160 0104 06EBE030 		add	r0, r6, r0, asr #15
 161 0108 ADF80200 		strh	r0, [sp, #2]	@ movhi
 256:..\..\..\arduinoLCD\test\Pain Drain\libraries\lvgl\src\draw\sw/lv_draw_sw_arc.c ****             quarter_area.x2 = q->center->x + ((lv_trigo_sin(q->start_angle + 90) * (q->radius)) >> 
 162              		.loc 1 256 0
 163 010c 2368     		ldr	r3, [r4]
 164 010e B3F90060 		ldrsh	r6, [r3]
 165 0112 E088     		ldrh	r0, [r4, #6]
 166 0114 5A30     		adds	r0, r0, #90
 167 0116 00B2     		sxth	r0, r0
 168 0118 FFF7FEFF 		bl	lv_trigo_sin
 169              	.LVL11:
 170 011c B4F90430 		ldrsh	r3, [r4, #4]
 171 0120 03FB00F0 		mul	r0, r3, r0
 172 0124 06EBE036 		add	r6, r6, r0, asr #15
 173 0128 ADF80460 		strh	r6, [sp, #4]	@ movhi
 257:..\..\..\arduinoLCD\test\Pain Drain\libraries\lvgl\src\draw\sw/lv_draw_sw_arc.c **** 
 258:..\..\..\arduinoLCD\test\Pain Drain\libraries\lvgl\src\draw\sw/lv_draw_sw_arc.c ****             bool ok = _lv_area_intersect(&quarter_area, &quarter_area, clip_area_ori);
 174              		.loc 1 258 0
 175 012c 2A46     		mov	r2, r5
 176 012e 6946     		mov	r1, sp
 177 0130 6846     		mov	r0, sp
 178 0132 FFF7FEFF 		bl	_lv_area_intersect
 179              	.LVL12:
 259:..\..\..\arduinoLCD\test\Pain Drain\libraries\lvgl\src\draw\sw/lv_draw_sw_arc.c ****             if(ok) {
 180              		.loc 1 259 0
 181 0136 38B1     		cbz	r0, .L6
 260:..\..\..\arduinoLCD\test\Pain Drain\libraries\lvgl\src\draw\sw/lv_draw_sw_arc.c ****                 q->draw_ctx->clip_area = &quarter_area;
 182              		.loc 1 260 0
 183 0138 A369     		ldr	r3, [r4, #24]
 184 013a C3F808D0 		str	sp, [r3, #8]
 261:..\..\..\arduinoLCD\test\Pain Drain\libraries\lvgl\src\draw\sw/lv_draw_sw_arc.c ****                 lv_draw_rect(q->draw_ctx, q->draw_dsc, q->draw_area);
 185              		.loc 1 261 0
 186 013e 6269     		ldr	r2, [r4, #20]
 187 0140 2169     		ldr	r1, [r4, #16]
 188 0142 A069     		ldr	r0, [r4, #24]
 189              	.LVL13:
 190 0144 FFF7FEFF 		bl	lv_draw_rect
 191              	.LVL14:
 192              	.L6:
 193              	.LBE13:
 262:..\..\..\arduinoLCD\test\Pain Drain\libraries\lvgl\src\draw\sw/lv_draw_sw_arc.c ****             }
 263:..\..\..\arduinoLCD\test\Pain Drain\libraries\lvgl\src\draw\sw/lv_draw_sw_arc.c ****         }
ARM GAS  C:\Users\haske\AppData\Local\Temp\ccxlcgkV.s 			page 9


 264:..\..\..\arduinoLCD\test\Pain Drain\libraries\lvgl\src\draw\sw/lv_draw_sw_arc.c ****         if(q->end_quarter == 0) {
 194              		.loc 1 264 0
 195 0148 A389     		ldrh	r3, [r4, #12]
 196 014a 002B     		cmp	r3, #0
 197 014c 72D1     		bne	.L3
 198              	.LBB14:
 265:..\..\..\arduinoLCD\test\Pain Drain\libraries\lvgl\src\draw\sw/lv_draw_sw_arc.c ****             quarter_area.x2 = q->center->x + q->radius;
 199              		.loc 1 265 0
 200 014e 2368     		ldr	r3, [r4]
 201 0150 B3F90010 		ldrsh	r1, [r3]
 202 0154 B4F90420 		ldrsh	r2, [r4, #4]
 203 0158 0A44     		add	r2, r2, r1
 204 015a ADF80420 		strh	r2, [sp, #4]	@ movhi
 266:..\..\..\arduinoLCD\test\Pain Drain\libraries\lvgl\src\draw\sw/lv_draw_sw_arc.c ****             quarter_area.y1 = q->center->y;
 205              		.loc 1 266 0
 206 015e B3F90220 		ldrsh	r2, [r3, #2]
 207 0162 ADF80220 		strh	r2, [sp, #2]	@ movhi
 267:..\..\..\arduinoLCD\test\Pain Drain\libraries\lvgl\src\draw\sw/lv_draw_sw_arc.c **** 
 268:..\..\..\arduinoLCD\test\Pain Drain\libraries\lvgl\src\draw\sw/lv_draw_sw_arc.c ****             quarter_area.y2 = q->center->y + ((lv_trigo_sin(q->end_angle) * q->radius) >> LV_TRIGO_
 208              		.loc 1 268 0
 209 0166 B3F90260 		ldrsh	r6, [r3, #2]
 210 016a B4F90800 		ldrsh	r0, [r4, #8]
 211 016e FFF7FEFF 		bl	lv_trigo_sin
 212              	.LVL15:
 213 0172 B4F90430 		ldrsh	r3, [r4, #4]
 214 0176 03FB00F0 		mul	r0, r3, r0
 215 017a 06EBE036 		add	r6, r6, r0, asr #15
 216 017e ADF80660 		strh	r6, [sp, #6]	@ movhi
 269:..\..\..\arduinoLCD\test\Pain Drain\libraries\lvgl\src\draw\sw/lv_draw_sw_arc.c ****             quarter_area.x1 = q->center->x + ((lv_trigo_sin(q->end_angle + 90) * (q->radius - q->wi
 217              		.loc 1 269 0
 218 0182 2368     		ldr	r3, [r4]
 219 0184 B3F90060 		ldrsh	r6, [r3]
 220 0188 2089     		ldrh	r0, [r4, #8]
 221 018a 5A30     		adds	r0, r0, #90
 222 018c 00B2     		sxth	r0, r0
 223 018e FFF7FEFF 		bl	lv_trigo_sin
 224              	.LVL16:
 225 0192 B4F90430 		ldrsh	r3, [r4, #4]
 226 0196 B4F90E20 		ldrsh	r2, [r4, #14]
 227 019a 9B1A     		subs	r3, r3, r2
 228 019c 03FB00F0 		mul	r0, r3, r0
 229 01a0 06EBE033 		add	r3, r6, r0, asr #15
 230 01a4 02A8     		add	r0, sp, #8
 231 01a6 20F8083D 		strh	r3, [r0, #-8]!	@ movhi
 270:..\..\..\arduinoLCD\test\Pain Drain\libraries\lvgl\src\draw\sw/lv_draw_sw_arc.c **** 
 271:..\..\..\arduinoLCD\test\Pain Drain\libraries\lvgl\src\draw\sw/lv_draw_sw_arc.c ****             bool ok = _lv_area_intersect(&quarter_area, &quarter_area, clip_area_ori);
 232              		.loc 1 271 0
 233 01aa 2A46     		mov	r2, r5
 234 01ac 0146     		mov	r1, r0
 235 01ae FFF7FEFF 		bl	_lv_area_intersect
 236              	.LVL17:
 272:..\..\..\arduinoLCD\test\Pain Drain\libraries\lvgl\src\draw\sw/lv_draw_sw_arc.c ****             if(ok) {
 237              		.loc 1 272 0
 238 01b2 0028     		cmp	r0, #0
 239 01b4 3ED0     		beq	.L3
 273:..\..\..\arduinoLCD\test\Pain Drain\libraries\lvgl\src\draw\sw/lv_draw_sw_arc.c ****                 q->draw_ctx->clip_area = &quarter_area;
 240              		.loc 1 273 0
ARM GAS  C:\Users\haske\AppData\Local\Temp\ccxlcgkV.s 			page 10


 241 01b6 A369     		ldr	r3, [r4, #24]
 242 01b8 C3F808D0 		str	sp, [r3, #8]
 274:..\..\..\arduinoLCD\test\Pain Drain\libraries\lvgl\src\draw\sw/lv_draw_sw_arc.c ****                 lv_draw_rect(q->draw_ctx, q->draw_dsc, q->draw_area);
 243              		.loc 1 274 0
 244 01bc 6269     		ldr	r2, [r4, #20]
 245 01be 2169     		ldr	r1, [r4, #16]
 246 01c0 A069     		ldr	r0, [r4, #24]
 247              	.LVL18:
 248 01c2 FFF7FEFF 		bl	lv_draw_rect
 249              	.LVL19:
 250 01c6 35E0     		b	.L3
 251              	.L5:
 252              	.LBE14:
 275:..\..\..\arduinoLCD\test\Pain Drain\libraries\lvgl\src\draw\sw/lv_draw_sw_arc.c ****             }
 276:..\..\..\arduinoLCD\test\Pain Drain\libraries\lvgl\src\draw\sw/lv_draw_sw_arc.c ****         }
 277:..\..\..\arduinoLCD\test\Pain Drain\libraries\lvgl\src\draw\sw/lv_draw_sw_arc.c ****     }
 278:..\..\..\arduinoLCD\test\Pain Drain\libraries\lvgl\src\draw\sw/lv_draw_sw_arc.c ****     else if((q->start_quarter == q->end_quarter && q->start_quarter != 0 && q->end_angle < q->start
 253              		.loc 1 278 0
 254 01c8 9342     		cmp	r3, r2
 255 01ca 04D1     		bne	.L7
 256              		.loc 1 278 0 is_stmt 0 discriminator 1
 257 01cc 1BB1     		cbz	r3, .L7
 258              		.loc 1 278 0 discriminator 3
 259 01ce 2089     		ldrh	r0, [r4, #8]
 260 01d0 E188     		ldrh	r1, [r4, #6]
 261 01d2 8842     		cmp	r0, r1
 262 01d4 0BD3     		bcc	.L8
 263              	.L7:
 264              		.loc 1 278 0 discriminator 5
 265 01d6 022B     		cmp	r3, #2
 266 01d8 01D1     		bne	.L9
 279:..\..\..\arduinoLCD\test\Pain Drain\libraries\lvgl\src\draw\sw/lv_draw_sw_arc.c ****             (q->start_quarter == 2 && q->end_quarter == 1) ||
 267              		.loc 1 279 0 is_stmt 1
 268 01da 012A     		cmp	r2, #1
 269 01dc 07D0     		beq	.L8
 270              	.L9:
 271              		.loc 1 279 0 is_stmt 0 discriminator 1
 272 01de 032B     		cmp	r3, #3
 273 01e0 01D1     		bne	.L10
 280:..\..\..\arduinoLCD\test\Pain Drain\libraries\lvgl\src\draw\sw/lv_draw_sw_arc.c ****             (q->start_quarter == 3 && q->end_quarter == 2) ||
 274              		.loc 1 280 0 is_stmt 1
 275 01e2 022A     		cmp	r2, #2
 276 01e4 03D0     		beq	.L8
 277              	.L10:
 278              		.loc 1 280 0 is_stmt 0 discriminator 1
 279 01e6 032B     		cmp	r3, #3
 280 01e8 24D1     		bne	.L3
 281:..\..\..\arduinoLCD\test\Pain Drain\libraries\lvgl\src\draw\sw/lv_draw_sw_arc.c ****             (q->start_quarter == 3 && q->end_quarter == 1)) {
 281              		.loc 1 281 0 is_stmt 1
 282 01ea 012A     		cmp	r2, #1
 283 01ec 22D1     		bne	.L3
 284              	.L8:
 285              	.LBB15:
 282:..\..\..\arduinoLCD\test\Pain Drain\libraries\lvgl\src\draw\sw/lv_draw_sw_arc.c ****         /*Arc crosses here*/
 283:..\..\..\arduinoLCD\test\Pain Drain\libraries\lvgl\src\draw\sw/lv_draw_sw_arc.c ****         quarter_area.x1 = q->center->x;
 286              		.loc 1 283 0
 287 01ee 2368     		ldr	r3, [r4]
ARM GAS  C:\Users\haske\AppData\Local\Temp\ccxlcgkV.s 			page 11


 288 01f0 B3F90020 		ldrsh	r2, [r3]
 289 01f4 ADF80020 		strh	r2, [sp]	@ movhi
 284:..\..\..\arduinoLCD\test\Pain Drain\libraries\lvgl\src\draw\sw/lv_draw_sw_arc.c ****         quarter_area.y1 = q->center->y;
 290              		.loc 1 284 0
 291 01f8 B3F90220 		ldrsh	r2, [r3, #2]
 292 01fc ADF80220 		strh	r2, [sp, #2]	@ movhi
 285:..\..\..\arduinoLCD\test\Pain Drain\libraries\lvgl\src\draw\sw/lv_draw_sw_arc.c ****         quarter_area.x2 = q->center->x + q->radius;
 293              		.loc 1 285 0
 294 0200 B3F90020 		ldrsh	r2, [r3]
 295 0204 B4F90410 		ldrsh	r1, [r4, #4]
 296 0208 0A44     		add	r2, r2, r1
 297 020a ADF80420 		strh	r2, [sp, #4]	@ movhi
 286:..\..\..\arduinoLCD\test\Pain Drain\libraries\lvgl\src\draw\sw/lv_draw_sw_arc.c ****         quarter_area.y2 = q->center->y + q->radius;
 298              		.loc 1 286 0
 299 020e B3F90230 		ldrsh	r3, [r3, #2]
 300 0212 0B44     		add	r3, r3, r1
 301 0214 ADF80630 		strh	r3, [sp, #6]	@ movhi
 287:..\..\..\arduinoLCD\test\Pain Drain\libraries\lvgl\src\draw\sw/lv_draw_sw_arc.c **** 
 288:..\..\..\arduinoLCD\test\Pain Drain\libraries\lvgl\src\draw\sw/lv_draw_sw_arc.c ****         bool ok = _lv_area_intersect(&quarter_area, &quarter_area, clip_area_ori);
 302              		.loc 1 288 0
 303 0218 2A46     		mov	r2, r5
 304 021a 6946     		mov	r1, sp
 305 021c 6846     		mov	r0, sp
 306 021e FFF7FEFF 		bl	_lv_area_intersect
 307              	.LVL20:
 289:..\..\..\arduinoLCD\test\Pain Drain\libraries\lvgl\src\draw\sw/lv_draw_sw_arc.c ****         if(ok) {
 308              		.loc 1 289 0
 309 0222 38B1     		cbz	r0, .L3
 290:..\..\..\arduinoLCD\test\Pain Drain\libraries\lvgl\src\draw\sw/lv_draw_sw_arc.c ****             q->draw_ctx->clip_area = &quarter_area;
 310              		.loc 1 290 0
 311 0224 A369     		ldr	r3, [r4, #24]
 312 0226 C3F808D0 		str	sp, [r3, #8]
 291:..\..\..\arduinoLCD\test\Pain Drain\libraries\lvgl\src\draw\sw/lv_draw_sw_arc.c ****             lv_draw_rect(q->draw_ctx, q->draw_dsc, q->draw_area);
 313              		.loc 1 291 0
 314 022a 6269     		ldr	r2, [r4, #20]
 315 022c 2169     		ldr	r1, [r4, #16]
 316 022e A069     		ldr	r0, [r4, #24]
 317              	.LVL21:
 318 0230 FFF7FEFF 		bl	lv_draw_rect
 319              	.LVL22:
 320              	.L3:
 321              	.LBE15:
 292:..\..\..\arduinoLCD\test\Pain Drain\libraries\lvgl\src\draw\sw/lv_draw_sw_arc.c ****         }
 293:..\..\..\arduinoLCD\test\Pain Drain\libraries\lvgl\src\draw\sw/lv_draw_sw_arc.c ****     }
 294:..\..\..\arduinoLCD\test\Pain Drain\libraries\lvgl\src\draw\sw/lv_draw_sw_arc.c ****     q->draw_ctx->clip_area = clip_area_ori;
 322              		.loc 1 294 0
 323 0234 A369     		ldr	r3, [r4, #24]
 324 0236 9D60     		str	r5, [r3, #8]
 295:..\..\..\arduinoLCD\test\Pain Drain\libraries\lvgl\src\draw\sw/lv_draw_sw_arc.c **** }
 325              		.loc 1 295 0
 326 0238 02B0     		add	sp, sp, #8
 327              		.cfi_def_cfa_offset 16
 328              		@ sp needed
 329 023a 70BD     		pop	{r4, r5, r6, pc}
 330              		.cfi_endproc
 331              	.LFE57:
 332              		.size	draw_quarter_0, .-draw_quarter_0
ARM GAS  C:\Users\haske\AppData\Local\Temp\ccxlcgkV.s 			page 12


 333              		.section	.text.draw_quarter_1,"ax",%progbits
 334              		.align	2
 335              		.thumb
 336              		.thumb_func
 337              		.type	draw_quarter_1, %function
 338              	draw_quarter_1:
 339              	.LFB58:
 296:..\..\..\arduinoLCD\test\Pain Drain\libraries\lvgl\src\draw\sw/lv_draw_sw_arc.c **** 
 297:..\..\..\arduinoLCD\test\Pain Drain\libraries\lvgl\src\draw\sw/lv_draw_sw_arc.c **** static void draw_quarter_1(quarter_draw_dsc_t * q)
 298:..\..\..\arduinoLCD\test\Pain Drain\libraries\lvgl\src\draw\sw/lv_draw_sw_arc.c **** {
 340              		.loc 1 298 0
 341              		.cfi_startproc
 342              		@ args = 0, pretend = 0, frame = 8
 343              		@ frame_needed = 0, uses_anonymous_args = 0
 344              	.LVL23:
 345 0000 70B5     		push	{r4, r5, r6, lr}
 346              		.cfi_def_cfa_offset 16
 347              		.cfi_offset 4, -16
 348              		.cfi_offset 5, -12
 349              		.cfi_offset 6, -8
 350              		.cfi_offset 14, -4
 351 0002 82B0     		sub	sp, sp, #8
 352              		.cfi_def_cfa_offset 24
 353 0004 0446     		mov	r4, r0
 299:..\..\..\arduinoLCD\test\Pain Drain\libraries\lvgl\src\draw\sw/lv_draw_sw_arc.c ****     const lv_area_t * clip_area_ori = q->draw_ctx->clip_area;
 354              		.loc 1 299 0
 355 0006 8369     		ldr	r3, [r0, #24]
 356 0008 9D68     		ldr	r5, [r3, #8]
 357              	.LVL24:
 300:..\..\..\arduinoLCD\test\Pain Drain\libraries\lvgl\src\draw\sw/lv_draw_sw_arc.c ****     lv_area_t quarter_area;
 301:..\..\..\arduinoLCD\test\Pain Drain\libraries\lvgl\src\draw\sw/lv_draw_sw_arc.c **** 
 302:..\..\..\arduinoLCD\test\Pain Drain\libraries\lvgl\src\draw\sw/lv_draw_sw_arc.c ****     if(q->start_quarter == 1 && q->end_quarter == 1 && q->start_angle < q->end_angle) {
 358              		.loc 1 302 0
 359 000a 4389     		ldrh	r3, [r0, #10]
 360 000c 012B     		cmp	r3, #1
 361 000e 5AD1     		bne	.L13
 362              		.loc 1 302 0 is_stmt 0 discriminator 1
 363 0010 8289     		ldrh	r2, [r0, #12]
 364 0012 012A     		cmp	r2, #1
 365 0014 57D1     		bne	.L13
 366              		.loc 1 302 0 discriminator 2
 367 0016 C088     		ldrh	r0, [r0, #6]
 368              	.LVL25:
 369 0018 2289     		ldrh	r2, [r4, #8]
 370 001a 9042     		cmp	r0, r2
 371 001c 53D2     		bcs	.L13
 372              	.LBB16:
 303:..\..\..\arduinoLCD\test\Pain Drain\libraries\lvgl\src\draw\sw/lv_draw_sw_arc.c ****         /*Small arc here*/
 304:..\..\..\arduinoLCD\test\Pain Drain\libraries\lvgl\src\draw\sw/lv_draw_sw_arc.c ****         quarter_area.y2 = q->center->y + ((lv_trigo_sin(q->start_angle) * (q->radius)) >> LV_TRIGO_
 373              		.loc 1 304 0 is_stmt 1
 374 001e 2368     		ldr	r3, [r4]
 375 0020 B3F90260 		ldrsh	r6, [r3, #2]
 376 0024 00B2     		sxth	r0, r0
 377 0026 FFF7FEFF 		bl	lv_trigo_sin
 378              	.LVL26:
 379 002a B4F90430 		ldrsh	r3, [r4, #4]
 380 002e 03FB00F0 		mul	r0, r3, r0
ARM GAS  C:\Users\haske\AppData\Local\Temp\ccxlcgkV.s 			page 13


 381 0032 06EBE036 		add	r6, r6, r0, asr #15
 382 0036 ADF80660 		strh	r6, [sp, #6]	@ movhi
 305:..\..\..\arduinoLCD\test\Pain Drain\libraries\lvgl\src\draw\sw/lv_draw_sw_arc.c ****         quarter_area.x2 = q->center->x + ((lv_trigo_sin(q->start_angle + 90) * (q->radius - q->widt
 383              		.loc 1 305 0
 384 003a 2368     		ldr	r3, [r4]
 385 003c B3F90060 		ldrsh	r6, [r3]
 386 0040 E088     		ldrh	r0, [r4, #6]
 387 0042 5A30     		adds	r0, r0, #90
 388 0044 00B2     		sxth	r0, r0
 389 0046 FFF7FEFF 		bl	lv_trigo_sin
 390              	.LVL27:
 391 004a B4F90430 		ldrsh	r3, [r4, #4]
 392 004e B4F90E20 		ldrsh	r2, [r4, #14]
 393 0052 9B1A     		subs	r3, r3, r2
 394 0054 03FB00F0 		mul	r0, r3, r0
 395 0058 06EBE030 		add	r0, r6, r0, asr #15
 396 005c ADF80400 		strh	r0, [sp, #4]	@ movhi
 306:..\..\..\arduinoLCD\test\Pain Drain\libraries\lvgl\src\draw\sw/lv_draw_sw_arc.c **** 
 307:..\..\..\arduinoLCD\test\Pain Drain\libraries\lvgl\src\draw\sw/lv_draw_sw_arc.c ****         quarter_area.y1 = q->center->y + ((lv_trigo_sin(q->end_angle) * (q->radius - q->width)) >> 
 397              		.loc 1 307 0
 398 0060 2368     		ldr	r3, [r4]
 399 0062 B3F90260 		ldrsh	r6, [r3, #2]
 400 0066 B4F90800 		ldrsh	r0, [r4, #8]
 401 006a FFF7FEFF 		bl	lv_trigo_sin
 402              	.LVL28:
 403 006e B4F90430 		ldrsh	r3, [r4, #4]
 404 0072 B4F90E20 		ldrsh	r2, [r4, #14]
 405 0076 9B1A     		subs	r3, r3, r2
 406 0078 03FB00F0 		mul	r0, r3, r0
 407 007c 06EBE030 		add	r0, r6, r0, asr #15
 408 0080 ADF80200 		strh	r0, [sp, #2]	@ movhi
 308:..\..\..\arduinoLCD\test\Pain Drain\libraries\lvgl\src\draw\sw/lv_draw_sw_arc.c ****         quarter_area.x1 = q->center->x + ((lv_trigo_sin(q->end_angle + 90) * (q->radius)) >> LV_TRI
 409              		.loc 1 308 0
 410 0084 2368     		ldr	r3, [r4]
 411 0086 B3F90060 		ldrsh	r6, [r3]
 412 008a 2089     		ldrh	r0, [r4, #8]
 413 008c 5A30     		adds	r0, r0, #90
 414 008e 00B2     		sxth	r0, r0
 415 0090 FFF7FEFF 		bl	lv_trigo_sin
 416              	.LVL29:
 417 0094 B4F90430 		ldrsh	r3, [r4, #4]
 418 0098 03FB00F0 		mul	r0, r3, r0
 419 009c 06EBE036 		add	r6, r6, r0, asr #15
 420 00a0 02A8     		add	r0, sp, #8
 421 00a2 20F8086D 		strh	r6, [r0, #-8]!	@ movhi
 309:..\..\..\arduinoLCD\test\Pain Drain\libraries\lvgl\src\draw\sw/lv_draw_sw_arc.c **** 
 310:..\..\..\arduinoLCD\test\Pain Drain\libraries\lvgl\src\draw\sw/lv_draw_sw_arc.c ****         bool ok = _lv_area_intersect(&quarter_area, &quarter_area, clip_area_ori);
 422              		.loc 1 310 0
 423 00a6 2A46     		mov	r2, r5
 424 00a8 0146     		mov	r1, r0
 425 00aa FFF7FEFF 		bl	_lv_area_intersect
 426              	.LVL30:
 311:..\..\..\arduinoLCD\test\Pain Drain\libraries\lvgl\src\draw\sw/lv_draw_sw_arc.c ****         if(ok) {
 427              		.loc 1 311 0
 428 00ae 0028     		cmp	r0, #0
 429 00b0 00F0C280 		beq	.L14
 312:..\..\..\arduinoLCD\test\Pain Drain\libraries\lvgl\src\draw\sw/lv_draw_sw_arc.c ****             q->draw_ctx->clip_area = &quarter_area;
ARM GAS  C:\Users\haske\AppData\Local\Temp\ccxlcgkV.s 			page 14


 430              		.loc 1 312 0
 431 00b4 A369     		ldr	r3, [r4, #24]
 432 00b6 C3F808D0 		str	sp, [r3, #8]
 313:..\..\..\arduinoLCD\test\Pain Drain\libraries\lvgl\src\draw\sw/lv_draw_sw_arc.c ****             lv_draw_rect(q->draw_ctx, q->draw_dsc, q->draw_area);
 433              		.loc 1 313 0
 434 00ba 6269     		ldr	r2, [r4, #20]
 435 00bc 2169     		ldr	r1, [r4, #16]
 436 00be A069     		ldr	r0, [r4, #24]
 437              	.LVL31:
 438 00c0 FFF7FEFF 		bl	lv_draw_rect
 439              	.LVL32:
 440 00c4 B8E0     		b	.L14
 441              	.L13:
 442              	.LBE16:
 314:..\..\..\arduinoLCD\test\Pain Drain\libraries\lvgl\src\draw\sw/lv_draw_sw_arc.c ****         }
 315:..\..\..\arduinoLCD\test\Pain Drain\libraries\lvgl\src\draw\sw/lv_draw_sw_arc.c ****     }
 316:..\..\..\arduinoLCD\test\Pain Drain\libraries\lvgl\src\draw\sw/lv_draw_sw_arc.c ****     else if(q->start_quarter == 1 || q->end_quarter == 1) {
 443              		.loc 1 316 0
 444 00c6 012B     		cmp	r3, #1
 445 00c8 02D0     		beq	.L15
 446              		.loc 1 316 0 is_stmt 0 discriminator 1
 447 00ca A289     		ldrh	r2, [r4, #12]
 448 00cc 012A     		cmp	r2, #1
 449 00ce 7DD1     		bne	.L16
 450              	.L15:
 317:..\..\..\arduinoLCD\test\Pain Drain\libraries\lvgl\src\draw\sw/lv_draw_sw_arc.c ****         /*Start and/or end arcs here*/
 318:..\..\..\arduinoLCD\test\Pain Drain\libraries\lvgl\src\draw\sw/lv_draw_sw_arc.c ****         if(q->start_quarter == 1) {
 451              		.loc 1 318 0 is_stmt 1
 452 00d0 012B     		cmp	r3, #1
 453 00d2 3AD1     		bne	.L17
 454              	.LBB17:
 319:..\..\..\arduinoLCD\test\Pain Drain\libraries\lvgl\src\draw\sw/lv_draw_sw_arc.c ****             quarter_area.x1 = q->center->x - q->radius;
 455              		.loc 1 319 0
 456 00d4 2368     		ldr	r3, [r4]
 457 00d6 B3F90020 		ldrsh	r2, [r3]
 458 00da B4F90410 		ldrsh	r1, [r4, #4]
 459 00de 521A     		subs	r2, r2, r1
 460 00e0 ADF80020 		strh	r2, [sp]	@ movhi
 320:..\..\..\arduinoLCD\test\Pain Drain\libraries\lvgl\src\draw\sw/lv_draw_sw_arc.c ****             quarter_area.y1 = q->center->y;
 461              		.loc 1 320 0
 462 00e4 B3F90220 		ldrsh	r2, [r3, #2]
 463 00e8 ADF80220 		strh	r2, [sp, #2]	@ movhi
 321:..\..\..\arduinoLCD\test\Pain Drain\libraries\lvgl\src\draw\sw/lv_draw_sw_arc.c **** 
 322:..\..\..\arduinoLCD\test\Pain Drain\libraries\lvgl\src\draw\sw/lv_draw_sw_arc.c ****             quarter_area.y2 = q->center->y + ((lv_trigo_sin(q->start_angle) * (q->radius)) >> LV_TR
 464              		.loc 1 322 0
 465 00ec B3F90260 		ldrsh	r6, [r3, #2]
 466 00f0 B4F90600 		ldrsh	r0, [r4, #6]
 467 00f4 FFF7FEFF 		bl	lv_trigo_sin
 468              	.LVL33:
 469 00f8 B4F90430 		ldrsh	r3, [r4, #4]
 470 00fc 03FB00F0 		mul	r0, r3, r0
 471 0100 06EBE036 		add	r6, r6, r0, asr #15
 472 0104 ADF80660 		strh	r6, [sp, #6]	@ movhi
 323:..\..\..\arduinoLCD\test\Pain Drain\libraries\lvgl\src\draw\sw/lv_draw_sw_arc.c ****             quarter_area.x2 = q->center->x + ((lv_trigo_sin(q->start_angle + 90) * (q->radius - q->
 473              		.loc 1 323 0
 474 0108 2368     		ldr	r3, [r4]
 475 010a B3F90060 		ldrsh	r6, [r3]
ARM GAS  C:\Users\haske\AppData\Local\Temp\ccxlcgkV.s 			page 15


 476 010e E088     		ldrh	r0, [r4, #6]
 477 0110 5A30     		adds	r0, r0, #90
 478 0112 00B2     		sxth	r0, r0
 479 0114 FFF7FEFF 		bl	lv_trigo_sin
 480              	.LVL34:
 481 0118 B4F90430 		ldrsh	r3, [r4, #4]
 482 011c B4F90E20 		ldrsh	r2, [r4, #14]
 483 0120 9B1A     		subs	r3, r3, r2
 484 0122 03FB00F0 		mul	r0, r3, r0
 485 0126 06EBE030 		add	r0, r6, r0, asr #15
 486 012a ADF80400 		strh	r0, [sp, #4]	@ movhi
 324:..\..\..\arduinoLCD\test\Pain Drain\libraries\lvgl\src\draw\sw/lv_draw_sw_arc.c **** 
 325:..\..\..\arduinoLCD\test\Pain Drain\libraries\lvgl\src\draw\sw/lv_draw_sw_arc.c ****             bool ok = _lv_area_intersect(&quarter_area, &quarter_area, clip_area_ori);
 487              		.loc 1 325 0
 488 012e 2A46     		mov	r2, r5
 489 0130 6946     		mov	r1, sp
 490 0132 6846     		mov	r0, sp
 491 0134 FFF7FEFF 		bl	_lv_area_intersect
 492              	.LVL35:
 326:..\..\..\arduinoLCD\test\Pain Drain\libraries\lvgl\src\draw\sw/lv_draw_sw_arc.c ****             if(ok) {
 493              		.loc 1 326 0
 494 0138 38B1     		cbz	r0, .L17
 327:..\..\..\arduinoLCD\test\Pain Drain\libraries\lvgl\src\draw\sw/lv_draw_sw_arc.c ****                 q->draw_ctx->clip_area = &quarter_area;
 495              		.loc 1 327 0
 496 013a A369     		ldr	r3, [r4, #24]
 497 013c C3F808D0 		str	sp, [r3, #8]
 328:..\..\..\arduinoLCD\test\Pain Drain\libraries\lvgl\src\draw\sw/lv_draw_sw_arc.c ****                 lv_draw_rect(q->draw_ctx, q->draw_dsc, q->draw_area);
 498              		.loc 1 328 0
 499 0140 6269     		ldr	r2, [r4, #20]
 500 0142 2169     		ldr	r1, [r4, #16]
 501 0144 A069     		ldr	r0, [r4, #24]
 502              	.LVL36:
 503 0146 FFF7FEFF 		bl	lv_draw_rect
 504              	.LVL37:
 505              	.L17:
 506              	.LBE17:
 329:..\..\..\arduinoLCD\test\Pain Drain\libraries\lvgl\src\draw\sw/lv_draw_sw_arc.c ****             }
 330:..\..\..\arduinoLCD\test\Pain Drain\libraries\lvgl\src\draw\sw/lv_draw_sw_arc.c ****         }
 331:..\..\..\arduinoLCD\test\Pain Drain\libraries\lvgl\src\draw\sw/lv_draw_sw_arc.c ****         if(q->end_quarter == 1) {
 507              		.loc 1 331 0
 508 014a A389     		ldrh	r3, [r4, #12]
 509 014c 012B     		cmp	r3, #1
 510 014e 73D1     		bne	.L14
 511              	.LBB18:
 332:..\..\..\arduinoLCD\test\Pain Drain\libraries\lvgl\src\draw\sw/lv_draw_sw_arc.c ****             quarter_area.x2 = q->center->x - 1;
 512              		.loc 1 332 0
 513 0150 2368     		ldr	r3, [r4]
 514 0152 B3F90020 		ldrsh	r2, [r3]
 515 0156 013A     		subs	r2, r2, #1
 516 0158 ADF80420 		strh	r2, [sp, #4]	@ movhi
 333:..\..\..\arduinoLCD\test\Pain Drain\libraries\lvgl\src\draw\sw/lv_draw_sw_arc.c ****             quarter_area.y2 = q->center->y + q->radius;
 517              		.loc 1 333 0
 518 015c B3F90210 		ldrsh	r1, [r3, #2]
 519 0160 B4F90420 		ldrsh	r2, [r4, #4]
 520 0164 0A44     		add	r2, r2, r1
 521 0166 ADF80620 		strh	r2, [sp, #6]	@ movhi
 334:..\..\..\arduinoLCD\test\Pain Drain\libraries\lvgl\src\draw\sw/lv_draw_sw_arc.c **** 
ARM GAS  C:\Users\haske\AppData\Local\Temp\ccxlcgkV.s 			page 16


 335:..\..\..\arduinoLCD\test\Pain Drain\libraries\lvgl\src\draw\sw/lv_draw_sw_arc.c ****             quarter_area.y1 = q->center->y + ((lv_trigo_sin(q->end_angle) * (q->radius - q->width))
 522              		.loc 1 335 0
 523 016a B3F90260 		ldrsh	r6, [r3, #2]
 524 016e B4F90800 		ldrsh	r0, [r4, #8]
 525 0172 FFF7FEFF 		bl	lv_trigo_sin
 526              	.LVL38:
 527 0176 B4F90430 		ldrsh	r3, [r4, #4]
 528 017a B4F90E20 		ldrsh	r2, [r4, #14]
 529 017e 9B1A     		subs	r3, r3, r2
 530 0180 03FB00F0 		mul	r0, r3, r0
 531 0184 06EBE030 		add	r0, r6, r0, asr #15
 532 0188 ADF80200 		strh	r0, [sp, #2]	@ movhi
 336:..\..\..\arduinoLCD\test\Pain Drain\libraries\lvgl\src\draw\sw/lv_draw_sw_arc.c ****             quarter_area.x1 = q->center->x + ((lv_trigo_sin(q->end_angle + 90) * (q->radius)) >> LV
 533              		.loc 1 336 0
 534 018c 2368     		ldr	r3, [r4]
 535 018e B3F90060 		ldrsh	r6, [r3]
 536 0192 2089     		ldrh	r0, [r4, #8]
 537 0194 5A30     		adds	r0, r0, #90
 538 0196 00B2     		sxth	r0, r0
 539 0198 FFF7FEFF 		bl	lv_trigo_sin
 540              	.LVL39:
 541 019c B4F90430 		ldrsh	r3, [r4, #4]
 542 01a0 03FB00F0 		mul	r0, r3, r0
 543 01a4 06EBE036 		add	r6, r6, r0, asr #15
 544 01a8 02A8     		add	r0, sp, #8
 545 01aa 20F8086D 		strh	r6, [r0, #-8]!	@ movhi
 337:..\..\..\arduinoLCD\test\Pain Drain\libraries\lvgl\src\draw\sw/lv_draw_sw_arc.c **** 
 338:..\..\..\arduinoLCD\test\Pain Drain\libraries\lvgl\src\draw\sw/lv_draw_sw_arc.c ****             bool ok = _lv_area_intersect(&quarter_area, &quarter_area, clip_area_ori);
 546              		.loc 1 338 0
 547 01ae 2A46     		mov	r2, r5
 548 01b0 0146     		mov	r1, r0
 549 01b2 FFF7FEFF 		bl	_lv_area_intersect
 550              	.LVL40:
 339:..\..\..\arduinoLCD\test\Pain Drain\libraries\lvgl\src\draw\sw/lv_draw_sw_arc.c ****             if(ok) {
 551              		.loc 1 339 0
 552 01b6 0028     		cmp	r0, #0
 553 01b8 3ED0     		beq	.L14
 340:..\..\..\arduinoLCD\test\Pain Drain\libraries\lvgl\src\draw\sw/lv_draw_sw_arc.c ****                 q->draw_ctx->clip_area = &quarter_area;
 554              		.loc 1 340 0
 555 01ba A369     		ldr	r3, [r4, #24]
 556 01bc C3F808D0 		str	sp, [r3, #8]
 341:..\..\..\arduinoLCD\test\Pain Drain\libraries\lvgl\src\draw\sw/lv_draw_sw_arc.c ****                 lv_draw_rect(q->draw_ctx, q->draw_dsc, q->draw_area);
 557              		.loc 1 341 0
 558 01c0 6269     		ldr	r2, [r4, #20]
 559 01c2 2169     		ldr	r1, [r4, #16]
 560 01c4 A069     		ldr	r0, [r4, #24]
 561              	.LVL41:
 562 01c6 FFF7FEFF 		bl	lv_draw_rect
 563              	.LVL42:
 564 01ca 35E0     		b	.L14
 565              	.L16:
 566              	.LBE18:
 342:..\..\..\arduinoLCD\test\Pain Drain\libraries\lvgl\src\draw\sw/lv_draw_sw_arc.c ****             }
 343:..\..\..\arduinoLCD\test\Pain Drain\libraries\lvgl\src\draw\sw/lv_draw_sw_arc.c ****         }
 344:..\..\..\arduinoLCD\test\Pain Drain\libraries\lvgl\src\draw\sw/lv_draw_sw_arc.c ****     }
 345:..\..\..\arduinoLCD\test\Pain Drain\libraries\lvgl\src\draw\sw/lv_draw_sw_arc.c ****     else if((q->start_quarter == q->end_quarter && q->start_quarter != 1 && q->end_angle < q->start
 567              		.loc 1 345 0
ARM GAS  C:\Users\haske\AppData\Local\Temp\ccxlcgkV.s 			page 17


 568 01cc 9342     		cmp	r3, r2
 569 01ce 05D1     		bne	.L18
 570              		.loc 1 345 0 is_stmt 0 discriminator 1
 571 01d0 012B     		cmp	r3, #1
 572 01d2 03D0     		beq	.L18
 573              		.loc 1 345 0 discriminator 3
 574 01d4 2089     		ldrh	r0, [r4, #8]
 575 01d6 E188     		ldrh	r1, [r4, #6]
 576 01d8 8842     		cmp	r0, r1
 577 01da 09D3     		bcc	.L19
 578              	.L18:
 579              		.loc 1 345 0 discriminator 5
 580 01dc 0BB9     		cbnz	r3, .L20
 346:..\..\..\arduinoLCD\test\Pain Drain\libraries\lvgl\src\draw\sw/lv_draw_sw_arc.c ****             (q->start_quarter == 0 && q->end_quarter == 2) ||
 581              		.loc 1 346 0 is_stmt 1
 582 01de 022A     		cmp	r2, #2
 583 01e0 06D0     		beq	.L19
 584              	.L20:
 585              		.loc 1 346 0 is_stmt 0 discriminator 1
 586 01e2 0BB9     		cbnz	r3, .L21
 347:..\..\..\arduinoLCD\test\Pain Drain\libraries\lvgl\src\draw\sw/lv_draw_sw_arc.c ****             (q->start_quarter == 0 && q->end_quarter == 3) ||
 587              		.loc 1 347 0 is_stmt 1
 588 01e4 032A     		cmp	r2, #3
 589 01e6 03D0     		beq	.L19
 590              	.L21:
 591              		.loc 1 347 0 is_stmt 0 discriminator 1
 592 01e8 032B     		cmp	r3, #3
 593 01ea 25D1     		bne	.L14
 348:..\..\..\arduinoLCD\test\Pain Drain\libraries\lvgl\src\draw\sw/lv_draw_sw_arc.c ****             (q->start_quarter == 3 && q->end_quarter == 2)) {
 594              		.loc 1 348 0 is_stmt 1
 595 01ec 022A     		cmp	r2, #2
 596 01ee 23D1     		bne	.L14
 597              	.L19:
 598              	.LBB19:
 349:..\..\..\arduinoLCD\test\Pain Drain\libraries\lvgl\src\draw\sw/lv_draw_sw_arc.c ****         /*Arc crosses here*/
 350:..\..\..\arduinoLCD\test\Pain Drain\libraries\lvgl\src\draw\sw/lv_draw_sw_arc.c ****         quarter_area.x1 = q->center->x - q->radius;
 599              		.loc 1 350 0
 600 01f0 2368     		ldr	r3, [r4]
 601 01f2 B3F90020 		ldrsh	r2, [r3]
 602 01f6 B4F90410 		ldrsh	r1, [r4, #4]
 603 01fa 521A     		subs	r2, r2, r1
 604 01fc ADF80020 		strh	r2, [sp]	@ movhi
 351:..\..\..\arduinoLCD\test\Pain Drain\libraries\lvgl\src\draw\sw/lv_draw_sw_arc.c ****         quarter_area.y1 = q->center->y;
 605              		.loc 1 351 0
 606 0200 B3F90220 		ldrsh	r2, [r3, #2]
 607 0204 ADF80220 		strh	r2, [sp, #2]	@ movhi
 352:..\..\..\arduinoLCD\test\Pain Drain\libraries\lvgl\src\draw\sw/lv_draw_sw_arc.c ****         quarter_area.x2 = q->center->x - 1;
 608              		.loc 1 352 0
 609 0208 B3F90020 		ldrsh	r2, [r3]
 610 020c 013A     		subs	r2, r2, #1
 611 020e ADF80420 		strh	r2, [sp, #4]	@ movhi
 353:..\..\..\arduinoLCD\test\Pain Drain\libraries\lvgl\src\draw\sw/lv_draw_sw_arc.c ****         quarter_area.y2 = q->center->y + q->radius;
 612              		.loc 1 353 0
 613 0212 B3F90230 		ldrsh	r3, [r3, #2]
 614 0216 0B44     		add	r3, r3, r1
 615 0218 ADF80630 		strh	r3, [sp, #6]	@ movhi
 354:..\..\..\arduinoLCD\test\Pain Drain\libraries\lvgl\src\draw\sw/lv_draw_sw_arc.c **** 
ARM GAS  C:\Users\haske\AppData\Local\Temp\ccxlcgkV.s 			page 18


 355:..\..\..\arduinoLCD\test\Pain Drain\libraries\lvgl\src\draw\sw/lv_draw_sw_arc.c ****         bool ok = _lv_area_intersect(&quarter_area, &quarter_area, clip_area_ori);
 616              		.loc 1 355 0
 617 021c 2A46     		mov	r2, r5
 618 021e 6946     		mov	r1, sp
 619 0220 6846     		mov	r0, sp
 620 0222 FFF7FEFF 		bl	_lv_area_intersect
 621              	.LVL43:
 356:..\..\..\arduinoLCD\test\Pain Drain\libraries\lvgl\src\draw\sw/lv_draw_sw_arc.c ****         if(ok) {
 622              		.loc 1 356 0
 623 0226 38B1     		cbz	r0, .L14
 357:..\..\..\arduinoLCD\test\Pain Drain\libraries\lvgl\src\draw\sw/lv_draw_sw_arc.c ****             q->draw_ctx->clip_area = &quarter_area;
 624              		.loc 1 357 0
 625 0228 A369     		ldr	r3, [r4, #24]
 626 022a C3F808D0 		str	sp, [r3, #8]
 358:..\..\..\arduinoLCD\test\Pain Drain\libraries\lvgl\src\draw\sw/lv_draw_sw_arc.c ****             lv_draw_rect(q->draw_ctx, q->draw_dsc, q->draw_area);
 627              		.loc 1 358 0
 628 022e 6269     		ldr	r2, [r4, #20]
 629 0230 2169     		ldr	r1, [r4, #16]
 630 0232 A069     		ldr	r0, [r4, #24]
 631              	.LVL44:
 632 0234 FFF7FEFF 		bl	lv_draw_rect
 633              	.LVL45:
 634              	.L14:
 635              	.LBE19:
 359:..\..\..\arduinoLCD\test\Pain Drain\libraries\lvgl\src\draw\sw/lv_draw_sw_arc.c ****         }
 360:..\..\..\arduinoLCD\test\Pain Drain\libraries\lvgl\src\draw\sw/lv_draw_sw_arc.c ****     }
 361:..\..\..\arduinoLCD\test\Pain Drain\libraries\lvgl\src\draw\sw/lv_draw_sw_arc.c ****     q->draw_ctx->clip_area = clip_area_ori;
 636              		.loc 1 361 0
 637 0238 A369     		ldr	r3, [r4, #24]
 638 023a 9D60     		str	r5, [r3, #8]
 362:..\..\..\arduinoLCD\test\Pain Drain\libraries\lvgl\src\draw\sw/lv_draw_sw_arc.c **** }
 639              		.loc 1 362 0
 640 023c 02B0     		add	sp, sp, #8
 641              		.cfi_def_cfa_offset 16
 642              		@ sp needed
 643 023e 70BD     		pop	{r4, r5, r6, pc}
 644              		.cfi_endproc
 645              	.LFE58:
 646              		.size	draw_quarter_1, .-draw_quarter_1
 647              		.section	.text.draw_quarter_2,"ax",%progbits
 648              		.align	2
 649              		.thumb
 650              		.thumb_func
 651              		.type	draw_quarter_2, %function
 652              	draw_quarter_2:
 653              	.LFB59:
 363:..\..\..\arduinoLCD\test\Pain Drain\libraries\lvgl\src\draw\sw/lv_draw_sw_arc.c **** 
 364:..\..\..\arduinoLCD\test\Pain Drain\libraries\lvgl\src\draw\sw/lv_draw_sw_arc.c **** static void draw_quarter_2(quarter_draw_dsc_t * q)
 365:..\..\..\arduinoLCD\test\Pain Drain\libraries\lvgl\src\draw\sw/lv_draw_sw_arc.c **** {
 654              		.loc 1 365 0
 655              		.cfi_startproc
 656              		@ args = 0, pretend = 0, frame = 8
 657              		@ frame_needed = 0, uses_anonymous_args = 0
 658              	.LVL46:
 659 0000 70B5     		push	{r4, r5, r6, lr}
 660              		.cfi_def_cfa_offset 16
 661              		.cfi_offset 4, -16
ARM GAS  C:\Users\haske\AppData\Local\Temp\ccxlcgkV.s 			page 19


 662              		.cfi_offset 5, -12
 663              		.cfi_offset 6, -8
 664              		.cfi_offset 14, -4
 665 0002 82B0     		sub	sp, sp, #8
 666              		.cfi_def_cfa_offset 24
 667 0004 0446     		mov	r4, r0
 366:..\..\..\arduinoLCD\test\Pain Drain\libraries\lvgl\src\draw\sw/lv_draw_sw_arc.c ****     const lv_area_t * clip_area_ori = q->draw_ctx->clip_area;
 668              		.loc 1 366 0
 669 0006 8369     		ldr	r3, [r0, #24]
 670 0008 9D68     		ldr	r5, [r3, #8]
 671              	.LVL47:
 367:..\..\..\arduinoLCD\test\Pain Drain\libraries\lvgl\src\draw\sw/lv_draw_sw_arc.c ****     lv_area_t quarter_area;
 368:..\..\..\arduinoLCD\test\Pain Drain\libraries\lvgl\src\draw\sw/lv_draw_sw_arc.c **** 
 369:..\..\..\arduinoLCD\test\Pain Drain\libraries\lvgl\src\draw\sw/lv_draw_sw_arc.c ****     if(q->start_quarter == 2 && q->end_quarter == 2 && q->start_angle < q->end_angle) {
 672              		.loc 1 369 0
 673 000a 4389     		ldrh	r3, [r0, #10]
 674 000c 022B     		cmp	r3, #2
 675 000e 5AD1     		bne	.L24
 676              		.loc 1 369 0 is_stmt 0 discriminator 1
 677 0010 8289     		ldrh	r2, [r0, #12]
 678 0012 022A     		cmp	r2, #2
 679 0014 57D1     		bne	.L24
 680              		.loc 1 369 0 discriminator 2
 681 0016 C088     		ldrh	r0, [r0, #6]
 682              	.LVL48:
 683 0018 2289     		ldrh	r2, [r4, #8]
 684 001a 9042     		cmp	r0, r2
 685 001c 53D2     		bcs	.L24
 686              	.LBB20:
 370:..\..\..\arduinoLCD\test\Pain Drain\libraries\lvgl\src\draw\sw/lv_draw_sw_arc.c ****         /*Small arc here*/
 371:..\..\..\arduinoLCD\test\Pain Drain\libraries\lvgl\src\draw\sw/lv_draw_sw_arc.c ****         quarter_area.x1 = q->center->x + ((lv_trigo_sin(q->start_angle + 90) * (q->radius)) >> LV_T
 687              		.loc 1 371 0 is_stmt 1
 688 001e 2368     		ldr	r3, [r4]
 689 0020 B3F90060 		ldrsh	r6, [r3]
 690 0024 5A30     		adds	r0, r0, #90
 691 0026 00B2     		sxth	r0, r0
 692 0028 FFF7FEFF 		bl	lv_trigo_sin
 693              	.LVL49:
 694 002c B4F90430 		ldrsh	r3, [r4, #4]
 695 0030 03FB00F0 		mul	r0, r3, r0
 696 0034 06EBE036 		add	r6, r6, r0, asr #15
 697 0038 ADF80060 		strh	r6, [sp]	@ movhi
 372:..\..\..\arduinoLCD\test\Pain Drain\libraries\lvgl\src\draw\sw/lv_draw_sw_arc.c ****         quarter_area.y2 = q->center->y + ((lv_trigo_sin(q->start_angle) * (q->radius - q->width)) >
 698              		.loc 1 372 0
 699 003c 2368     		ldr	r3, [r4]
 700 003e B3F90260 		ldrsh	r6, [r3, #2]
 701 0042 B4F90600 		ldrsh	r0, [r4, #6]
 702 0046 FFF7FEFF 		bl	lv_trigo_sin
 703              	.LVL50:
 704 004a B4F90430 		ldrsh	r3, [r4, #4]
 705 004e B4F90E20 		ldrsh	r2, [r4, #14]
 706 0052 9B1A     		subs	r3, r3, r2
 707 0054 03FB00F0 		mul	r0, r3, r0
 708 0058 06EBE030 		add	r0, r6, r0, asr #15
 709 005c ADF80600 		strh	r0, [sp, #6]	@ movhi
 373:..\..\..\arduinoLCD\test\Pain Drain\libraries\lvgl\src\draw\sw/lv_draw_sw_arc.c **** 
 374:..\..\..\arduinoLCD\test\Pain Drain\libraries\lvgl\src\draw\sw/lv_draw_sw_arc.c ****         quarter_area.y1 = q->center->y + ((lv_trigo_sin(q->end_angle) * q->radius) >> LV_TRIGO_SHIF
ARM GAS  C:\Users\haske\AppData\Local\Temp\ccxlcgkV.s 			page 20


 710              		.loc 1 374 0
 711 0060 2368     		ldr	r3, [r4]
 712 0062 B3F90260 		ldrsh	r6, [r3, #2]
 713 0066 B4F90800 		ldrsh	r0, [r4, #8]
 714 006a FFF7FEFF 		bl	lv_trigo_sin
 715              	.LVL51:
 716 006e B4F90430 		ldrsh	r3, [r4, #4]
 717 0072 03FB00F0 		mul	r0, r3, r0
 718 0076 06EBE036 		add	r6, r6, r0, asr #15
 719 007a ADF80260 		strh	r6, [sp, #2]	@ movhi
 375:..\..\..\arduinoLCD\test\Pain Drain\libraries\lvgl\src\draw\sw/lv_draw_sw_arc.c ****         quarter_area.x2 = q->center->x + ((lv_trigo_sin(q->end_angle + 90) * (q->radius - q->width)
 720              		.loc 1 375 0
 721 007e 2368     		ldr	r3, [r4]
 722 0080 B3F90060 		ldrsh	r6, [r3]
 723 0084 2089     		ldrh	r0, [r4, #8]
 724 0086 5A30     		adds	r0, r0, #90
 725 0088 00B2     		sxth	r0, r0
 726 008a FFF7FEFF 		bl	lv_trigo_sin
 727              	.LVL52:
 728 008e B4F90430 		ldrsh	r3, [r4, #4]
 729 0092 B4F90E20 		ldrsh	r2, [r4, #14]
 730 0096 9B1A     		subs	r3, r3, r2
 731 0098 03FB00F0 		mul	r0, r3, r0
 732 009c 06EBE030 		add	r0, r6, r0, asr #15
 733 00a0 ADF80400 		strh	r0, [sp, #4]	@ movhi
 376:..\..\..\arduinoLCD\test\Pain Drain\libraries\lvgl\src\draw\sw/lv_draw_sw_arc.c **** 
 377:..\..\..\arduinoLCD\test\Pain Drain\libraries\lvgl\src\draw\sw/lv_draw_sw_arc.c ****         bool ok = _lv_area_intersect(&quarter_area, &quarter_area, clip_area_ori);
 734              		.loc 1 377 0
 735 00a4 2A46     		mov	r2, r5
 736 00a6 6946     		mov	r1, sp
 737 00a8 6846     		mov	r0, sp
 738 00aa FFF7FEFF 		bl	_lv_area_intersect
 739              	.LVL53:
 378:..\..\..\arduinoLCD\test\Pain Drain\libraries\lvgl\src\draw\sw/lv_draw_sw_arc.c ****         if(ok) {
 740              		.loc 1 378 0
 741 00ae 0028     		cmp	r0, #0
 742 00b0 00F0C380 		beq	.L25
 379:..\..\..\arduinoLCD\test\Pain Drain\libraries\lvgl\src\draw\sw/lv_draw_sw_arc.c ****             q->draw_ctx->clip_area = &quarter_area;
 743              		.loc 1 379 0
 744 00b4 A369     		ldr	r3, [r4, #24]
 745 00b6 C3F808D0 		str	sp, [r3, #8]
 380:..\..\..\arduinoLCD\test\Pain Drain\libraries\lvgl\src\draw\sw/lv_draw_sw_arc.c ****             lv_draw_rect(q->draw_ctx, q->draw_dsc, q->draw_area);
 746              		.loc 1 380 0
 747 00ba 6269     		ldr	r2, [r4, #20]
 748 00bc 2169     		ldr	r1, [r4, #16]
 749 00be A069     		ldr	r0, [r4, #24]
 750              	.LVL54:
 751 00c0 FFF7FEFF 		bl	lv_draw_rect
 752              	.LVL55:
 753 00c4 B9E0     		b	.L25
 754              	.L24:
 755              	.LBE20:
 381:..\..\..\arduinoLCD\test\Pain Drain\libraries\lvgl\src\draw\sw/lv_draw_sw_arc.c ****         }
 382:..\..\..\arduinoLCD\test\Pain Drain\libraries\lvgl\src\draw\sw/lv_draw_sw_arc.c ****     }
 383:..\..\..\arduinoLCD\test\Pain Drain\libraries\lvgl\src\draw\sw/lv_draw_sw_arc.c ****     else if(q->start_quarter == 2 || q->end_quarter == 2) {
 756              		.loc 1 383 0
 757 00c6 022B     		cmp	r3, #2
ARM GAS  C:\Users\haske\AppData\Local\Temp\ccxlcgkV.s 			page 21


 758 00c8 02D0     		beq	.L26
 759              		.loc 1 383 0 is_stmt 0 discriminator 1
 760 00ca A289     		ldrh	r2, [r4, #12]
 761 00cc 022A     		cmp	r2, #2
 762 00ce 7ED1     		bne	.L27
 763              	.L26:
 384:..\..\..\arduinoLCD\test\Pain Drain\libraries\lvgl\src\draw\sw/lv_draw_sw_arc.c ****         /*Start and/or end arcs here*/
 385:..\..\..\arduinoLCD\test\Pain Drain\libraries\lvgl\src\draw\sw/lv_draw_sw_arc.c ****         if(q->start_quarter == 2) {
 764              		.loc 1 385 0 is_stmt 1
 765 00d0 022B     		cmp	r3, #2
 766 00d2 3BD1     		bne	.L28
 767              	.LBB21:
 386:..\..\..\arduinoLCD\test\Pain Drain\libraries\lvgl\src\draw\sw/lv_draw_sw_arc.c ****             quarter_area.x2 = q->center->x - 1;
 768              		.loc 1 386 0
 769 00d4 2368     		ldr	r3, [r4]
 770 00d6 B3F90020 		ldrsh	r2, [r3]
 771 00da 013A     		subs	r2, r2, #1
 772 00dc ADF80420 		strh	r2, [sp, #4]	@ movhi
 387:..\..\..\arduinoLCD\test\Pain Drain\libraries\lvgl\src\draw\sw/lv_draw_sw_arc.c ****             quarter_area.y1 = q->center->y - q->radius;
 773              		.loc 1 387 0
 774 00e0 B3F90220 		ldrsh	r2, [r3, #2]
 775 00e4 B4F90410 		ldrsh	r1, [r4, #4]
 776 00e8 521A     		subs	r2, r2, r1
 777 00ea ADF80220 		strh	r2, [sp, #2]	@ movhi
 388:..\..\..\arduinoLCD\test\Pain Drain\libraries\lvgl\src\draw\sw/lv_draw_sw_arc.c **** 
 389:..\..\..\arduinoLCD\test\Pain Drain\libraries\lvgl\src\draw\sw/lv_draw_sw_arc.c ****             quarter_area.x1 = q->center->x + ((lv_trigo_sin(q->start_angle + 90) * (q->radius)) >> 
 778              		.loc 1 389 0
 779 00ee B3F90060 		ldrsh	r6, [r3]
 780 00f2 E088     		ldrh	r0, [r4, #6]
 781 00f4 5A30     		adds	r0, r0, #90
 782 00f6 00B2     		sxth	r0, r0
 783 00f8 FFF7FEFF 		bl	lv_trigo_sin
 784              	.LVL56:
 785 00fc B4F90430 		ldrsh	r3, [r4, #4]
 786 0100 03FB00F0 		mul	r0, r3, r0
 787 0104 06EBE036 		add	r6, r6, r0, asr #15
 788 0108 ADF80060 		strh	r6, [sp]	@ movhi
 390:..\..\..\arduinoLCD\test\Pain Drain\libraries\lvgl\src\draw\sw/lv_draw_sw_arc.c ****             quarter_area.y2 = q->center->y + ((lv_trigo_sin(q->start_angle) * (q->radius - q->width
 789              		.loc 1 390 0
 790 010c 2368     		ldr	r3, [r4]
 791 010e B3F90260 		ldrsh	r6, [r3, #2]
 792 0112 B4F90600 		ldrsh	r0, [r4, #6]
 793 0116 FFF7FEFF 		bl	lv_trigo_sin
 794              	.LVL57:
 795 011a B4F90430 		ldrsh	r3, [r4, #4]
 796 011e B4F90E20 		ldrsh	r2, [r4, #14]
 797 0122 9B1A     		subs	r3, r3, r2
 798 0124 03FB00F0 		mul	r0, r3, r0
 799 0128 06EBE030 		add	r0, r6, r0, asr #15
 800 012c ADF80600 		strh	r0, [sp, #6]	@ movhi
 391:..\..\..\arduinoLCD\test\Pain Drain\libraries\lvgl\src\draw\sw/lv_draw_sw_arc.c **** 
 392:..\..\..\arduinoLCD\test\Pain Drain\libraries\lvgl\src\draw\sw/lv_draw_sw_arc.c ****             bool ok = _lv_area_intersect(&quarter_area, &quarter_area, clip_area_ori);
 801              		.loc 1 392 0
 802 0130 2A46     		mov	r2, r5
 803 0132 6946     		mov	r1, sp
 804 0134 6846     		mov	r0, sp
 805 0136 FFF7FEFF 		bl	_lv_area_intersect
ARM GAS  C:\Users\haske\AppData\Local\Temp\ccxlcgkV.s 			page 22


 806              	.LVL58:
 393:..\..\..\arduinoLCD\test\Pain Drain\libraries\lvgl\src\draw\sw/lv_draw_sw_arc.c ****             if(ok) {
 807              		.loc 1 393 0
 808 013a 38B1     		cbz	r0, .L28
 394:..\..\..\arduinoLCD\test\Pain Drain\libraries\lvgl\src\draw\sw/lv_draw_sw_arc.c ****                 q->draw_ctx->clip_area = &quarter_area;
 809              		.loc 1 394 0
 810 013c A369     		ldr	r3, [r4, #24]
 811 013e C3F808D0 		str	sp, [r3, #8]
 395:..\..\..\arduinoLCD\test\Pain Drain\libraries\lvgl\src\draw\sw/lv_draw_sw_arc.c ****                 lv_draw_rect(q->draw_ctx, q->draw_dsc, q->draw_area);
 812              		.loc 1 395 0
 813 0142 6269     		ldr	r2, [r4, #20]
 814 0144 2169     		ldr	r1, [r4, #16]
 815 0146 A069     		ldr	r0, [r4, #24]
 816              	.LVL59:
 817 0148 FFF7FEFF 		bl	lv_draw_rect
 818              	.LVL60:
 819              	.L28:
 820              	.LBE21:
 396:..\..\..\arduinoLCD\test\Pain Drain\libraries\lvgl\src\draw\sw/lv_draw_sw_arc.c ****             }
 397:..\..\..\arduinoLCD\test\Pain Drain\libraries\lvgl\src\draw\sw/lv_draw_sw_arc.c ****         }
 398:..\..\..\arduinoLCD\test\Pain Drain\libraries\lvgl\src\draw\sw/lv_draw_sw_arc.c ****         if(q->end_quarter == 2) {
 821              		.loc 1 398 0
 822 014c A389     		ldrh	r3, [r4, #12]
 823 014e 022B     		cmp	r3, #2
 824 0150 73D1     		bne	.L25
 825              	.LBB22:
 399:..\..\..\arduinoLCD\test\Pain Drain\libraries\lvgl\src\draw\sw/lv_draw_sw_arc.c ****             quarter_area.x1 = q->center->x - q->radius;
 826              		.loc 1 399 0
 827 0152 2368     		ldr	r3, [r4]
 828 0154 B3F90020 		ldrsh	r2, [r3]
 829 0158 B4F90410 		ldrsh	r1, [r4, #4]
 830 015c 521A     		subs	r2, r2, r1
 831 015e ADF80020 		strh	r2, [sp]	@ movhi
 400:..\..\..\arduinoLCD\test\Pain Drain\libraries\lvgl\src\draw\sw/lv_draw_sw_arc.c ****             quarter_area.y2 = q->center->y - 1;
 832              		.loc 1 400 0
 833 0162 B3F90220 		ldrsh	r2, [r3, #2]
 834 0166 013A     		subs	r2, r2, #1
 835 0168 ADF80620 		strh	r2, [sp, #6]	@ movhi
 401:..\..\..\arduinoLCD\test\Pain Drain\libraries\lvgl\src\draw\sw/lv_draw_sw_arc.c **** 
 402:..\..\..\arduinoLCD\test\Pain Drain\libraries\lvgl\src\draw\sw/lv_draw_sw_arc.c ****             quarter_area.x2 = q->center->x + ((lv_trigo_sin(q->end_angle + 90) * (q->radius - q->wi
 836              		.loc 1 402 0
 837 016c B3F90060 		ldrsh	r6, [r3]
 838 0170 2089     		ldrh	r0, [r4, #8]
 839 0172 5A30     		adds	r0, r0, #90
 840 0174 00B2     		sxth	r0, r0
 841 0176 FFF7FEFF 		bl	lv_trigo_sin
 842              	.LVL61:
 843 017a B4F90430 		ldrsh	r3, [r4, #4]
 844 017e B4F90E20 		ldrsh	r2, [r4, #14]
 845 0182 9B1A     		subs	r3, r3, r2
 846 0184 03FB00F0 		mul	r0, r3, r0
 847 0188 06EBE030 		add	r0, r6, r0, asr #15
 848 018c ADF80400 		strh	r0, [sp, #4]	@ movhi
 403:..\..\..\arduinoLCD\test\Pain Drain\libraries\lvgl\src\draw\sw/lv_draw_sw_arc.c ****             quarter_area.y1 = q->center->y + ((lv_trigo_sin(q->end_angle) * (q->radius)) >> LV_TRIG
 849              		.loc 1 403 0
 850 0190 2368     		ldr	r3, [r4]
 851 0192 B3F90260 		ldrsh	r6, [r3, #2]
ARM GAS  C:\Users\haske\AppData\Local\Temp\ccxlcgkV.s 			page 23


 852 0196 B4F90800 		ldrsh	r0, [r4, #8]
 853 019a FFF7FEFF 		bl	lv_trigo_sin
 854              	.LVL62:
 855 019e B4F90430 		ldrsh	r3, [r4, #4]
 856 01a2 03FB00F0 		mul	r0, r3, r0
 857 01a6 06EBE036 		add	r6, r6, r0, asr #15
 858 01aa ADF80260 		strh	r6, [sp, #2]	@ movhi
 404:..\..\..\arduinoLCD\test\Pain Drain\libraries\lvgl\src\draw\sw/lv_draw_sw_arc.c **** 
 405:..\..\..\arduinoLCD\test\Pain Drain\libraries\lvgl\src\draw\sw/lv_draw_sw_arc.c ****             bool ok = _lv_area_intersect(&quarter_area, &quarter_area, clip_area_ori);
 859              		.loc 1 405 0
 860 01ae 2A46     		mov	r2, r5
 861 01b0 6946     		mov	r1, sp
 862 01b2 6846     		mov	r0, sp
 863 01b4 FFF7FEFF 		bl	_lv_area_intersect
 864              	.LVL63:
 406:..\..\..\arduinoLCD\test\Pain Drain\libraries\lvgl\src\draw\sw/lv_draw_sw_arc.c ****             if(ok) {
 865              		.loc 1 406 0
 866 01b8 0028     		cmp	r0, #0
 867 01ba 3ED0     		beq	.L25
 407:..\..\..\arduinoLCD\test\Pain Drain\libraries\lvgl\src\draw\sw/lv_draw_sw_arc.c ****                 q->draw_ctx->clip_area = &quarter_area;
 868              		.loc 1 407 0
 869 01bc A369     		ldr	r3, [r4, #24]
 870 01be C3F808D0 		str	sp, [r3, #8]
 408:..\..\..\arduinoLCD\test\Pain Drain\libraries\lvgl\src\draw\sw/lv_draw_sw_arc.c ****                 lv_draw_rect(q->draw_ctx, q->draw_dsc, q->draw_area);
 871              		.loc 1 408 0
 872 01c2 6269     		ldr	r2, [r4, #20]
 873 01c4 2169     		ldr	r1, [r4, #16]
 874 01c6 A069     		ldr	r0, [r4, #24]
 875              	.LVL64:
 876 01c8 FFF7FEFF 		bl	lv_draw_rect
 877              	.LVL65:
 878 01cc 35E0     		b	.L25
 879              	.L27:
 880              	.LBE22:
 409:..\..\..\arduinoLCD\test\Pain Drain\libraries\lvgl\src\draw\sw/lv_draw_sw_arc.c ****             }
 410:..\..\..\arduinoLCD\test\Pain Drain\libraries\lvgl\src\draw\sw/lv_draw_sw_arc.c ****         }
 411:..\..\..\arduinoLCD\test\Pain Drain\libraries\lvgl\src\draw\sw/lv_draw_sw_arc.c ****     }
 412:..\..\..\arduinoLCD\test\Pain Drain\libraries\lvgl\src\draw\sw/lv_draw_sw_arc.c ****     else if((q->start_quarter == q->end_quarter && q->start_quarter != 2 && q->end_angle < q->start
 881              		.loc 1 412 0
 882 01ce 9342     		cmp	r3, r2
 883 01d0 05D1     		bne	.L29
 884              		.loc 1 412 0 is_stmt 0 discriminator 1
 885 01d2 022B     		cmp	r3, #2
 886 01d4 03D0     		beq	.L29
 887              		.loc 1 412 0 discriminator 3
 888 01d6 2089     		ldrh	r0, [r4, #8]
 889 01d8 E188     		ldrh	r1, [r4, #6]
 890 01da 8842     		cmp	r0, r1
 891 01dc 09D3     		bcc	.L30
 892              	.L29:
 893              		.loc 1 412 0 discriminator 5
 894 01de 0BB9     		cbnz	r3, .L31
 413:..\..\..\arduinoLCD\test\Pain Drain\libraries\lvgl\src\draw\sw/lv_draw_sw_arc.c ****             (q->start_quarter == 0 && q->end_quarter == 3) ||
 895              		.loc 1 413 0 is_stmt 1
 896 01e0 032A     		cmp	r2, #3
 897 01e2 06D0     		beq	.L30
 898              	.L31:
ARM GAS  C:\Users\haske\AppData\Local\Temp\ccxlcgkV.s 			page 24


 899              		.loc 1 413 0 is_stmt 0 discriminator 1
 900 01e4 012B     		cmp	r3, #1
 901 01e6 01D1     		bne	.L32
 414:..\..\..\arduinoLCD\test\Pain Drain\libraries\lvgl\src\draw\sw/lv_draw_sw_arc.c ****             (q->start_quarter == 1 && q->end_quarter == 3) ||
 902              		.loc 1 414 0 is_stmt 1
 903 01e8 032A     		cmp	r2, #3
 904 01ea 02D0     		beq	.L30
 905              	.L32:
 906              		.loc 1 414 0 is_stmt 0 discriminator 1
 907 01ec 012B     		cmp	r3, #1
 908 01ee 24D1     		bne	.L25
 415:..\..\..\arduinoLCD\test\Pain Drain\libraries\lvgl\src\draw\sw/lv_draw_sw_arc.c ****             (q->start_quarter == 1 && q->end_quarter == 0)) {
 909              		.loc 1 415 0 is_stmt 1
 910 01f0 1ABB     		cbnz	r2, .L25
 911              	.L30:
 912              	.LBB23:
 416:..\..\..\arduinoLCD\test\Pain Drain\libraries\lvgl\src\draw\sw/lv_draw_sw_arc.c ****         /*Arc crosses here*/
 417:..\..\..\arduinoLCD\test\Pain Drain\libraries\lvgl\src\draw\sw/lv_draw_sw_arc.c ****         quarter_area.x1 = q->center->x - q->radius;
 913              		.loc 1 417 0
 914 01f2 2368     		ldr	r3, [r4]
 915 01f4 B3F90010 		ldrsh	r1, [r3]
 916 01f8 A088     		ldrh	r0, [r4, #4]
 917 01fa 091A     		subs	r1, r1, r0
 918 01fc ADF80010 		strh	r1, [sp]	@ movhi
 418:..\..\..\arduinoLCD\test\Pain Drain\libraries\lvgl\src\draw\sw/lv_draw_sw_arc.c ****         quarter_area.y1 = q->center->y - q->radius;
 919              		.loc 1 418 0
 920 0200 B3F90220 		ldrsh	r2, [r3, #2]
 921 0204 121A     		subs	r2, r2, r0
 922 0206 ADF80220 		strh	r2, [sp, #2]	@ movhi
 419:..\..\..\arduinoLCD\test\Pain Drain\libraries\lvgl\src\draw\sw/lv_draw_sw_arc.c ****         quarter_area.x2 = q->center->x - 1;
 923              		.loc 1 419 0
 924 020a B3F90020 		ldrsh	r2, [r3]
 925 020e 013A     		subs	r2, r2, #1
 926 0210 ADF80420 		strh	r2, [sp, #4]	@ movhi
 420:..\..\..\arduinoLCD\test\Pain Drain\libraries\lvgl\src\draw\sw/lv_draw_sw_arc.c ****         quarter_area.y2 = q->center->y - 1;
 927              		.loc 1 420 0
 928 0214 B3F90230 		ldrsh	r3, [r3, #2]
 929 0218 013B     		subs	r3, r3, #1
 930 021a ADF80630 		strh	r3, [sp, #6]	@ movhi
 421:..\..\..\arduinoLCD\test\Pain Drain\libraries\lvgl\src\draw\sw/lv_draw_sw_arc.c **** 
 422:..\..\..\arduinoLCD\test\Pain Drain\libraries\lvgl\src\draw\sw/lv_draw_sw_arc.c ****         bool ok = _lv_area_intersect(&quarter_area, &quarter_area, clip_area_ori);
 931              		.loc 1 422 0
 932 021e 2A46     		mov	r2, r5
 933 0220 6946     		mov	r1, sp
 934 0222 6846     		mov	r0, sp
 935 0224 FFF7FEFF 		bl	_lv_area_intersect
 936              	.LVL66:
 423:..\..\..\arduinoLCD\test\Pain Drain\libraries\lvgl\src\draw\sw/lv_draw_sw_arc.c ****         if(ok) {
 937              		.loc 1 423 0
 938 0228 38B1     		cbz	r0, .L25
 424:..\..\..\arduinoLCD\test\Pain Drain\libraries\lvgl\src\draw\sw/lv_draw_sw_arc.c ****             q->draw_ctx->clip_area = &quarter_area;
 939              		.loc 1 424 0
 940 022a A369     		ldr	r3, [r4, #24]
 941 022c C3F808D0 		str	sp, [r3, #8]
 425:..\..\..\arduinoLCD\test\Pain Drain\libraries\lvgl\src\draw\sw/lv_draw_sw_arc.c ****             lv_draw_rect(q->draw_ctx, q->draw_dsc, q->draw_area);
 942              		.loc 1 425 0
 943 0230 6269     		ldr	r2, [r4, #20]
ARM GAS  C:\Users\haske\AppData\Local\Temp\ccxlcgkV.s 			page 25


 944 0232 2169     		ldr	r1, [r4, #16]
 945 0234 A069     		ldr	r0, [r4, #24]
 946              	.LVL67:
 947 0236 FFF7FEFF 		bl	lv_draw_rect
 948              	.LVL68:
 949              	.L25:
 950              	.LBE23:
 426:..\..\..\arduinoLCD\test\Pain Drain\libraries\lvgl\src\draw\sw/lv_draw_sw_arc.c ****         }
 427:..\..\..\arduinoLCD\test\Pain Drain\libraries\lvgl\src\draw\sw/lv_draw_sw_arc.c ****     }
 428:..\..\..\arduinoLCD\test\Pain Drain\libraries\lvgl\src\draw\sw/lv_draw_sw_arc.c ****     q->draw_ctx->clip_area = clip_area_ori;
 951              		.loc 1 428 0
 952 023a A369     		ldr	r3, [r4, #24]
 953 023c 9D60     		str	r5, [r3, #8]
 429:..\..\..\arduinoLCD\test\Pain Drain\libraries\lvgl\src\draw\sw/lv_draw_sw_arc.c **** }
 954              		.loc 1 429 0
 955 023e 02B0     		add	sp, sp, #8
 956              		.cfi_def_cfa_offset 16
 957              		@ sp needed
 958 0240 70BD     		pop	{r4, r5, r6, pc}
 959              		.cfi_endproc
 960              	.LFE59:
 961              		.size	draw_quarter_2, .-draw_quarter_2
 962 0242 00BF     		.section	.text.draw_quarter_3,"ax",%progbits
 963              		.align	2
 964              		.thumb
 965              		.thumb_func
 966              		.type	draw_quarter_3, %function
 967              	draw_quarter_3:
 968              	.LFB60:
 430:..\..\..\arduinoLCD\test\Pain Drain\libraries\lvgl\src\draw\sw/lv_draw_sw_arc.c **** 
 431:..\..\..\arduinoLCD\test\Pain Drain\libraries\lvgl\src\draw\sw/lv_draw_sw_arc.c **** static void draw_quarter_3(quarter_draw_dsc_t * q)
 432:..\..\..\arduinoLCD\test\Pain Drain\libraries\lvgl\src\draw\sw/lv_draw_sw_arc.c **** {
 969              		.loc 1 432 0
 970              		.cfi_startproc
 971              		@ args = 0, pretend = 0, frame = 8
 972              		@ frame_needed = 0, uses_anonymous_args = 0
 973              	.LVL69:
 974 0000 70B5     		push	{r4, r5, r6, lr}
 975              		.cfi_def_cfa_offset 16
 976              		.cfi_offset 4, -16
 977              		.cfi_offset 5, -12
 978              		.cfi_offset 6, -8
 979              		.cfi_offset 14, -4
 980 0002 82B0     		sub	sp, sp, #8
 981              		.cfi_def_cfa_offset 24
 982 0004 0446     		mov	r4, r0
 433:..\..\..\arduinoLCD\test\Pain Drain\libraries\lvgl\src\draw\sw/lv_draw_sw_arc.c ****     const lv_area_t * clip_area_ori = q->draw_ctx->clip_area;
 983              		.loc 1 433 0
 984 0006 8369     		ldr	r3, [r0, #24]
 985 0008 9D68     		ldr	r5, [r3, #8]
 986              	.LVL70:
 434:..\..\..\arduinoLCD\test\Pain Drain\libraries\lvgl\src\draw\sw/lv_draw_sw_arc.c ****     lv_area_t quarter_area;
 435:..\..\..\arduinoLCD\test\Pain Drain\libraries\lvgl\src\draw\sw/lv_draw_sw_arc.c **** 
 436:..\..\..\arduinoLCD\test\Pain Drain\libraries\lvgl\src\draw\sw/lv_draw_sw_arc.c ****     if(q->start_quarter == 3 && q->end_quarter == 3 && q->start_angle < q->end_angle) {
 987              		.loc 1 436 0
 988 000a 4389     		ldrh	r3, [r0, #10]
 989 000c 032B     		cmp	r3, #3
ARM GAS  C:\Users\haske\AppData\Local\Temp\ccxlcgkV.s 			page 26


 990 000e 5AD1     		bne	.L35
 991              		.loc 1 436 0 is_stmt 0 discriminator 1
 992 0010 8289     		ldrh	r2, [r0, #12]
 993 0012 032A     		cmp	r2, #3
 994 0014 57D1     		bne	.L35
 995              		.loc 1 436 0 discriminator 2
 996 0016 C088     		ldrh	r0, [r0, #6]
 997              	.LVL71:
 998 0018 2289     		ldrh	r2, [r4, #8]
 999 001a 9042     		cmp	r0, r2
 1000 001c 53D2     		bcs	.L35
 1001              	.LBB24:
 437:..\..\..\arduinoLCD\test\Pain Drain\libraries\lvgl\src\draw\sw/lv_draw_sw_arc.c ****         /*Small arc here*/
 438:..\..\..\arduinoLCD\test\Pain Drain\libraries\lvgl\src\draw\sw/lv_draw_sw_arc.c ****         quarter_area.x1 = q->center->x + ((lv_trigo_sin(q->start_angle + 90) * (q->radius - q->widt
 1002              		.loc 1 438 0 is_stmt 1
 1003 001e 2368     		ldr	r3, [r4]
 1004 0020 B3F90060 		ldrsh	r6, [r3]
 1005 0024 5A30     		adds	r0, r0, #90
 1006 0026 00B2     		sxth	r0, r0
 1007 0028 FFF7FEFF 		bl	lv_trigo_sin
 1008              	.LVL72:
 1009 002c B4F90430 		ldrsh	r3, [r4, #4]
 1010 0030 B4F90E20 		ldrsh	r2, [r4, #14]
 1011 0034 9B1A     		subs	r3, r3, r2
 1012 0036 03FB00F0 		mul	r0, r3, r0
 1013 003a 06EBE030 		add	r0, r6, r0, asr #15
 1014 003e ADF80000 		strh	r0, [sp]	@ movhi
 439:..\..\..\arduinoLCD\test\Pain Drain\libraries\lvgl\src\draw\sw/lv_draw_sw_arc.c ****         quarter_area.y1 = q->center->y + ((lv_trigo_sin(q->start_angle) * (q->radius)) >> LV_TRIGO_
 1015              		.loc 1 439 0
 1016 0042 2368     		ldr	r3, [r4]
 1017 0044 B3F90260 		ldrsh	r6, [r3, #2]
 1018 0048 B4F90600 		ldrsh	r0, [r4, #6]
 1019 004c FFF7FEFF 		bl	lv_trigo_sin
 1020              	.LVL73:
 1021 0050 B4F90430 		ldrsh	r3, [r4, #4]
 1022 0054 03FB00F0 		mul	r0, r3, r0
 1023 0058 06EBE036 		add	r6, r6, r0, asr #15
 1024 005c ADF80260 		strh	r6, [sp, #2]	@ movhi
 440:..\..\..\arduinoLCD\test\Pain Drain\libraries\lvgl\src\draw\sw/lv_draw_sw_arc.c **** 
 441:..\..\..\arduinoLCD\test\Pain Drain\libraries\lvgl\src\draw\sw/lv_draw_sw_arc.c ****         quarter_area.x2 = q->center->x + ((lv_trigo_sin(q->end_angle + 90) * (q->radius)) >> LV_TRI
 1025              		.loc 1 441 0
 1026 0060 2368     		ldr	r3, [r4]
 1027 0062 B3F90060 		ldrsh	r6, [r3]
 1028 0066 2089     		ldrh	r0, [r4, #8]
 1029 0068 5A30     		adds	r0, r0, #90
 1030 006a 00B2     		sxth	r0, r0
 1031 006c FFF7FEFF 		bl	lv_trigo_sin
 1032              	.LVL74:
 1033 0070 B4F90430 		ldrsh	r3, [r4, #4]
 1034 0074 03FB00F0 		mul	r0, r3, r0
 1035 0078 06EBE036 		add	r6, r6, r0, asr #15
 1036 007c ADF80460 		strh	r6, [sp, #4]	@ movhi
 442:..\..\..\arduinoLCD\test\Pain Drain\libraries\lvgl\src\draw\sw/lv_draw_sw_arc.c ****         quarter_area.y2 = q->center->y + ((lv_trigo_sin(q->end_angle) * (q->radius - q->width)) >> 
 1037              		.loc 1 442 0
 1038 0080 2368     		ldr	r3, [r4]
 1039 0082 B3F90260 		ldrsh	r6, [r3, #2]
 1040 0086 B4F90800 		ldrsh	r0, [r4, #8]
ARM GAS  C:\Users\haske\AppData\Local\Temp\ccxlcgkV.s 			page 27


 1041 008a FFF7FEFF 		bl	lv_trigo_sin
 1042              	.LVL75:
 1043 008e B4F90430 		ldrsh	r3, [r4, #4]
 1044 0092 B4F90E20 		ldrsh	r2, [r4, #14]
 1045 0096 9B1A     		subs	r3, r3, r2
 1046 0098 03FB00F0 		mul	r0, r3, r0
 1047 009c 06EBE030 		add	r0, r6, r0, asr #15
 1048 00a0 ADF80600 		strh	r0, [sp, #6]	@ movhi
 443:..\..\..\arduinoLCD\test\Pain Drain\libraries\lvgl\src\draw\sw/lv_draw_sw_arc.c **** 
 444:..\..\..\arduinoLCD\test\Pain Drain\libraries\lvgl\src\draw\sw/lv_draw_sw_arc.c ****         bool ok = _lv_area_intersect(&quarter_area, &quarter_area, clip_area_ori);
 1049              		.loc 1 444 0
 1050 00a4 2A46     		mov	r2, r5
 1051 00a6 6946     		mov	r1, sp
 1052 00a8 6846     		mov	r0, sp
 1053 00aa FFF7FEFF 		bl	_lv_area_intersect
 1054              	.LVL76:
 445:..\..\..\arduinoLCD\test\Pain Drain\libraries\lvgl\src\draw\sw/lv_draw_sw_arc.c ****         if(ok) {
 1055              		.loc 1 445 0
 1056 00ae 0028     		cmp	r0, #0
 1057 00b0 00F0C180 		beq	.L36
 446:..\..\..\arduinoLCD\test\Pain Drain\libraries\lvgl\src\draw\sw/lv_draw_sw_arc.c ****             q->draw_ctx->clip_area = &quarter_area;
 1058              		.loc 1 446 0
 1059 00b4 A369     		ldr	r3, [r4, #24]
 1060 00b6 C3F808D0 		str	sp, [r3, #8]
 447:..\..\..\arduinoLCD\test\Pain Drain\libraries\lvgl\src\draw\sw/lv_draw_sw_arc.c ****             lv_draw_rect(q->draw_ctx, q->draw_dsc, q->draw_area);
 1061              		.loc 1 447 0
 1062 00ba 6269     		ldr	r2, [r4, #20]
 1063 00bc 2169     		ldr	r1, [r4, #16]
 1064 00be A069     		ldr	r0, [r4, #24]
 1065              	.LVL77:
 1066 00c0 FFF7FEFF 		bl	lv_draw_rect
 1067              	.LVL78:
 1068 00c4 B7E0     		b	.L36
 1069              	.L35:
 1070              	.LBE24:
 448:..\..\..\arduinoLCD\test\Pain Drain\libraries\lvgl\src\draw\sw/lv_draw_sw_arc.c ****         }
 449:..\..\..\arduinoLCD\test\Pain Drain\libraries\lvgl\src\draw\sw/lv_draw_sw_arc.c ****     }
 450:..\..\..\arduinoLCD\test\Pain Drain\libraries\lvgl\src\draw\sw/lv_draw_sw_arc.c ****     else if(q->start_quarter == 3 || q->end_quarter == 3) {
 1071              		.loc 1 450 0
 1072 00c6 032B     		cmp	r3, #3
 1073 00c8 02D0     		beq	.L37
 1074              		.loc 1 450 0 is_stmt 0 discriminator 1
 1075 00ca A289     		ldrh	r2, [r4, #12]
 1076 00cc 032A     		cmp	r2, #3
 1077 00ce 7DD1     		bne	.L38
 1078              	.L37:
 451:..\..\..\arduinoLCD\test\Pain Drain\libraries\lvgl\src\draw\sw/lv_draw_sw_arc.c ****         /*Start and/or end arcs here*/
 452:..\..\..\arduinoLCD\test\Pain Drain\libraries\lvgl\src\draw\sw/lv_draw_sw_arc.c ****         if(q->start_quarter == 3) {
 1079              		.loc 1 452 0 is_stmt 1
 1080 00d0 032B     		cmp	r3, #3
 1081 00d2 3BD1     		bne	.L39
 1082              	.LBB25:
 453:..\..\..\arduinoLCD\test\Pain Drain\libraries\lvgl\src\draw\sw/lv_draw_sw_arc.c ****             quarter_area.x2 = q->center->x + q->radius;
 1083              		.loc 1 453 0
 1084 00d4 2368     		ldr	r3, [r4]
 1085 00d6 B3F90010 		ldrsh	r1, [r3]
 1086 00da B4F90420 		ldrsh	r2, [r4, #4]
ARM GAS  C:\Users\haske\AppData\Local\Temp\ccxlcgkV.s 			page 28


 1087 00de 0A44     		add	r2, r2, r1
 1088 00e0 ADF80420 		strh	r2, [sp, #4]	@ movhi
 454:..\..\..\arduinoLCD\test\Pain Drain\libraries\lvgl\src\draw\sw/lv_draw_sw_arc.c ****             quarter_area.y2 = q->center->y - 1;
 1089              		.loc 1 454 0
 1090 00e4 B3F90220 		ldrsh	r2, [r3, #2]
 1091 00e8 013A     		subs	r2, r2, #1
 1092 00ea ADF80620 		strh	r2, [sp, #6]	@ movhi
 455:..\..\..\arduinoLCD\test\Pain Drain\libraries\lvgl\src\draw\sw/lv_draw_sw_arc.c **** 
 456:..\..\..\arduinoLCD\test\Pain Drain\libraries\lvgl\src\draw\sw/lv_draw_sw_arc.c ****             quarter_area.x1 = q->center->x + ((lv_trigo_sin(q->start_angle + 90) * (q->radius - q->
 1093              		.loc 1 456 0
 1094 00ee B3F90060 		ldrsh	r6, [r3]
 1095 00f2 E088     		ldrh	r0, [r4, #6]
 1096 00f4 5A30     		adds	r0, r0, #90
 1097 00f6 00B2     		sxth	r0, r0
 1098 00f8 FFF7FEFF 		bl	lv_trigo_sin
 1099              	.LVL79:
 1100 00fc B4F90430 		ldrsh	r3, [r4, #4]
 1101 0100 B4F90E20 		ldrsh	r2, [r4, #14]
 1102 0104 9B1A     		subs	r3, r3, r2
 1103 0106 03FB00F0 		mul	r0, r3, r0
 1104 010a 06EBE030 		add	r0, r6, r0, asr #15
 1105 010e ADF80000 		strh	r0, [sp]	@ movhi
 457:..\..\..\arduinoLCD\test\Pain Drain\libraries\lvgl\src\draw\sw/lv_draw_sw_arc.c ****             quarter_area.y1 = q->center->y + ((lv_trigo_sin(q->start_angle) * (q->radius)) >> LV_TR
 1106              		.loc 1 457 0
 1107 0112 2368     		ldr	r3, [r4]
 1108 0114 B3F90260 		ldrsh	r6, [r3, #2]
 1109 0118 B4F90600 		ldrsh	r0, [r4, #6]
 1110 011c FFF7FEFF 		bl	lv_trigo_sin
 1111              	.LVL80:
 1112 0120 B4F90430 		ldrsh	r3, [r4, #4]
 1113 0124 03FB00F0 		mul	r0, r3, r0
 1114 0128 06EBE036 		add	r6, r6, r0, asr #15
 1115 012c ADF80260 		strh	r6, [sp, #2]	@ movhi
 458:..\..\..\arduinoLCD\test\Pain Drain\libraries\lvgl\src\draw\sw/lv_draw_sw_arc.c **** 
 459:..\..\..\arduinoLCD\test\Pain Drain\libraries\lvgl\src\draw\sw/lv_draw_sw_arc.c ****             bool ok = _lv_area_intersect(&quarter_area, &quarter_area, clip_area_ori);
 1116              		.loc 1 459 0
 1117 0130 2A46     		mov	r2, r5
 1118 0132 6946     		mov	r1, sp
 1119 0134 6846     		mov	r0, sp
 1120 0136 FFF7FEFF 		bl	_lv_area_intersect
 1121              	.LVL81:
 460:..\..\..\arduinoLCD\test\Pain Drain\libraries\lvgl\src\draw\sw/lv_draw_sw_arc.c ****             if(ok) {
 1122              		.loc 1 460 0
 1123 013a 38B1     		cbz	r0, .L39
 461:..\..\..\arduinoLCD\test\Pain Drain\libraries\lvgl\src\draw\sw/lv_draw_sw_arc.c ****                 q->draw_ctx->clip_area = &quarter_area;
 1124              		.loc 1 461 0
 1125 013c A369     		ldr	r3, [r4, #24]
 1126 013e C3F808D0 		str	sp, [r3, #8]
 462:..\..\..\arduinoLCD\test\Pain Drain\libraries\lvgl\src\draw\sw/lv_draw_sw_arc.c ****                 lv_draw_rect(q->draw_ctx, q->draw_dsc, q->draw_area);
 1127              		.loc 1 462 0
 1128 0142 6269     		ldr	r2, [r4, #20]
 1129 0144 2169     		ldr	r1, [r4, #16]
 1130 0146 A069     		ldr	r0, [r4, #24]
 1131              	.LVL82:
 1132 0148 FFF7FEFF 		bl	lv_draw_rect
 1133              	.LVL83:
 1134              	.L39:
ARM GAS  C:\Users\haske\AppData\Local\Temp\ccxlcgkV.s 			page 29


 1135              	.LBE25:
 463:..\..\..\arduinoLCD\test\Pain Drain\libraries\lvgl\src\draw\sw/lv_draw_sw_arc.c ****             }
 464:..\..\..\arduinoLCD\test\Pain Drain\libraries\lvgl\src\draw\sw/lv_draw_sw_arc.c ****         }
 465:..\..\..\arduinoLCD\test\Pain Drain\libraries\lvgl\src\draw\sw/lv_draw_sw_arc.c ****         if(q->end_quarter == 3) {
 1136              		.loc 1 465 0
 1137 014c A389     		ldrh	r3, [r4, #12]
 1138 014e 032B     		cmp	r3, #3
 1139 0150 71D1     		bne	.L36
 1140              	.LBB26:
 466:..\..\..\arduinoLCD\test\Pain Drain\libraries\lvgl\src\draw\sw/lv_draw_sw_arc.c ****             quarter_area.x1 = q->center->x;
 1141              		.loc 1 466 0
 1142 0152 2368     		ldr	r3, [r4]
 1143 0154 B3F90020 		ldrsh	r2, [r3]
 1144 0158 ADF80020 		strh	r2, [sp]	@ movhi
 467:..\..\..\arduinoLCD\test\Pain Drain\libraries\lvgl\src\draw\sw/lv_draw_sw_arc.c ****             quarter_area.y1 = q->center->y - q->radius;
 1145              		.loc 1 467 0
 1146 015c B3F90220 		ldrsh	r2, [r3, #2]
 1147 0160 B4F90410 		ldrsh	r1, [r4, #4]
 1148 0164 521A     		subs	r2, r2, r1
 1149 0166 ADF80220 		strh	r2, [sp, #2]	@ movhi
 468:..\..\..\arduinoLCD\test\Pain Drain\libraries\lvgl\src\draw\sw/lv_draw_sw_arc.c **** 
 469:..\..\..\arduinoLCD\test\Pain Drain\libraries\lvgl\src\draw\sw/lv_draw_sw_arc.c ****             quarter_area.x2 = q->center->x + ((lv_trigo_sin(q->end_angle + 90) * (q->radius)) >> LV
 1150              		.loc 1 469 0
 1151 016a B3F90060 		ldrsh	r6, [r3]
 1152 016e 2089     		ldrh	r0, [r4, #8]
 1153 0170 5A30     		adds	r0, r0, #90
 1154 0172 00B2     		sxth	r0, r0
 1155 0174 FFF7FEFF 		bl	lv_trigo_sin
 1156              	.LVL84:
 1157 0178 B4F90430 		ldrsh	r3, [r4, #4]
 1158 017c 03FB00F0 		mul	r0, r3, r0
 1159 0180 06EBE036 		add	r6, r6, r0, asr #15
 1160 0184 ADF80460 		strh	r6, [sp, #4]	@ movhi
 470:..\..\..\arduinoLCD\test\Pain Drain\libraries\lvgl\src\draw\sw/lv_draw_sw_arc.c ****             quarter_area.y2 = q->center->y + ((lv_trigo_sin(q->end_angle) * (q->radius - q->width))
 1161              		.loc 1 470 0
 1162 0188 2368     		ldr	r3, [r4]
 1163 018a B3F90260 		ldrsh	r6, [r3, #2]
 1164 018e B4F90800 		ldrsh	r0, [r4, #8]
 1165 0192 FFF7FEFF 		bl	lv_trigo_sin
 1166              	.LVL85:
 1167 0196 B4F90430 		ldrsh	r3, [r4, #4]
 1168 019a B4F90E20 		ldrsh	r2, [r4, #14]
 1169 019e 9B1A     		subs	r3, r3, r2
 1170 01a0 03FB00F0 		mul	r0, r3, r0
 1171 01a4 06EBE030 		add	r0, r6, r0, asr #15
 1172 01a8 ADF80600 		strh	r0, [sp, #6]	@ movhi
 471:..\..\..\arduinoLCD\test\Pain Drain\libraries\lvgl\src\draw\sw/lv_draw_sw_arc.c **** 
 472:..\..\..\arduinoLCD\test\Pain Drain\libraries\lvgl\src\draw\sw/lv_draw_sw_arc.c ****             bool ok = _lv_area_intersect(&quarter_area, &quarter_area, clip_area_ori);
 1173              		.loc 1 472 0
 1174 01ac 2A46     		mov	r2, r5
 1175 01ae 6946     		mov	r1, sp
 1176 01b0 6846     		mov	r0, sp
 1177 01b2 FFF7FEFF 		bl	_lv_area_intersect
 1178              	.LVL86:
 473:..\..\..\arduinoLCD\test\Pain Drain\libraries\lvgl\src\draw\sw/lv_draw_sw_arc.c ****             if(ok) {
 1179              		.loc 1 473 0
 1180 01b6 0028     		cmp	r0, #0
ARM GAS  C:\Users\haske\AppData\Local\Temp\ccxlcgkV.s 			page 30


 1181 01b8 3DD0     		beq	.L36
 474:..\..\..\arduinoLCD\test\Pain Drain\libraries\lvgl\src\draw\sw/lv_draw_sw_arc.c ****                 q->draw_ctx->clip_area = &quarter_area;
 1182              		.loc 1 474 0
 1183 01ba A369     		ldr	r3, [r4, #24]
 1184 01bc C3F808D0 		str	sp, [r3, #8]
 475:..\..\..\arduinoLCD\test\Pain Drain\libraries\lvgl\src\draw\sw/lv_draw_sw_arc.c ****                 lv_draw_rect(q->draw_ctx, q->draw_dsc, q->draw_area);
 1185              		.loc 1 475 0
 1186 01c0 6269     		ldr	r2, [r4, #20]
 1187 01c2 2169     		ldr	r1, [r4, #16]
 1188 01c4 A069     		ldr	r0, [r4, #24]
 1189              	.LVL87:
 1190 01c6 FFF7FEFF 		bl	lv_draw_rect
 1191              	.LVL88:
 1192 01ca 34E0     		b	.L36
 1193              	.L38:
 1194              	.LBE26:
 476:..\..\..\arduinoLCD\test\Pain Drain\libraries\lvgl\src\draw\sw/lv_draw_sw_arc.c ****             }
 477:..\..\..\arduinoLCD\test\Pain Drain\libraries\lvgl\src\draw\sw/lv_draw_sw_arc.c ****         }
 478:..\..\..\arduinoLCD\test\Pain Drain\libraries\lvgl\src\draw\sw/lv_draw_sw_arc.c ****     }
 479:..\..\..\arduinoLCD\test\Pain Drain\libraries\lvgl\src\draw\sw/lv_draw_sw_arc.c ****     else if((q->start_quarter == q->end_quarter && q->start_quarter != 3 && q->end_angle < q->start
 1195              		.loc 1 479 0
 1196 01cc 9342     		cmp	r3, r2
 1197 01ce 05D1     		bne	.L40
 1198              		.loc 1 479 0 is_stmt 0 discriminator 1
 1199 01d0 032B     		cmp	r3, #3
 1200 01d2 03D0     		beq	.L40
 1201              		.loc 1 479 0 discriminator 3
 1202 01d4 2089     		ldrh	r0, [r4, #8]
 1203 01d6 E188     		ldrh	r1, [r4, #6]
 1204 01d8 8842     		cmp	r0, r1
 1205 01da 09D3     		bcc	.L41
 1206              	.L40:
 1207              		.loc 1 479 0 discriminator 5
 1208 01dc 022B     		cmp	r3, #2
 1209 01de 00D1     		bne	.L42
 480:..\..\..\arduinoLCD\test\Pain Drain\libraries\lvgl\src\draw\sw/lv_draw_sw_arc.c ****             (q->start_quarter == 2 && q->end_quarter == 0) ||
 1210              		.loc 1 480 0 is_stmt 1
 1211 01e0 32B1     		cbz	r2, .L41
 1212              	.L42:
 1213              		.loc 1 480 0 is_stmt 0 discriminator 1
 1214 01e2 012B     		cmp	r3, #1
 1215 01e4 00D1     		bne	.L43
 481:..\..\..\arduinoLCD\test\Pain Drain\libraries\lvgl\src\draw\sw/lv_draw_sw_arc.c ****             (q->start_quarter == 1 && q->end_quarter == 0) ||
 1216              		.loc 1 481 0 is_stmt 1
 1217 01e6 1AB1     		cbz	r2, .L41
 1218              	.L43:
 1219              		.loc 1 481 0 is_stmt 0 discriminator 1
 1220 01e8 022B     		cmp	r3, #2
 1221 01ea 24D1     		bne	.L36
 482:..\..\..\arduinoLCD\test\Pain Drain\libraries\lvgl\src\draw\sw/lv_draw_sw_arc.c ****             (q->start_quarter == 2 && q->end_quarter == 1)) {
 1222              		.loc 1 482 0 is_stmt 1
 1223 01ec 012A     		cmp	r2, #1
 1224 01ee 22D1     		bne	.L36
 1225              	.L41:
 1226              	.LBB27:
 483:..\..\..\arduinoLCD\test\Pain Drain\libraries\lvgl\src\draw\sw/lv_draw_sw_arc.c ****         /*Arc crosses here*/
 484:..\..\..\arduinoLCD\test\Pain Drain\libraries\lvgl\src\draw\sw/lv_draw_sw_arc.c ****         quarter_area.x1 = q->center->x;
ARM GAS  C:\Users\haske\AppData\Local\Temp\ccxlcgkV.s 			page 31


 1227              		.loc 1 484 0
 1228 01f0 2368     		ldr	r3, [r4]
 1229 01f2 B3F90020 		ldrsh	r2, [r3]
 1230 01f6 ADF80020 		strh	r2, [sp]	@ movhi
 485:..\..\..\arduinoLCD\test\Pain Drain\libraries\lvgl\src\draw\sw/lv_draw_sw_arc.c ****         quarter_area.y1 = q->center->y - q->radius;
 1231              		.loc 1 485 0
 1232 01fa B3F90210 		ldrsh	r1, [r3, #2]
 1233 01fe A088     		ldrh	r0, [r4, #4]
 1234 0200 091A     		subs	r1, r1, r0
 1235 0202 ADF80210 		strh	r1, [sp, #2]	@ movhi
 486:..\..\..\arduinoLCD\test\Pain Drain\libraries\lvgl\src\draw\sw/lv_draw_sw_arc.c ****         quarter_area.x2 = q->center->x + q->radius;
 1236              		.loc 1 486 0
 1237 0206 B3F90020 		ldrsh	r2, [r3]
 1238 020a 0244     		add	r2, r2, r0
 1239 020c ADF80420 		strh	r2, [sp, #4]	@ movhi
 487:..\..\..\arduinoLCD\test\Pain Drain\libraries\lvgl\src\draw\sw/lv_draw_sw_arc.c ****         quarter_area.y2 = q->center->y - 1;
 1240              		.loc 1 487 0
 1241 0210 B3F90230 		ldrsh	r3, [r3, #2]
 1242 0214 013B     		subs	r3, r3, #1
 1243 0216 ADF80630 		strh	r3, [sp, #6]	@ movhi
 488:..\..\..\arduinoLCD\test\Pain Drain\libraries\lvgl\src\draw\sw/lv_draw_sw_arc.c **** 
 489:..\..\..\arduinoLCD\test\Pain Drain\libraries\lvgl\src\draw\sw/lv_draw_sw_arc.c ****         bool ok = _lv_area_intersect(&quarter_area, &quarter_area, clip_area_ori);
 1244              		.loc 1 489 0
 1245 021a 2A46     		mov	r2, r5
 1246 021c 6946     		mov	r1, sp
 1247 021e 6846     		mov	r0, sp
 1248 0220 FFF7FEFF 		bl	_lv_area_intersect
 1249              	.LVL89:
 490:..\..\..\arduinoLCD\test\Pain Drain\libraries\lvgl\src\draw\sw/lv_draw_sw_arc.c ****         if(ok) {
 1250              		.loc 1 490 0
 1251 0224 38B1     		cbz	r0, .L36
 491:..\..\..\arduinoLCD\test\Pain Drain\libraries\lvgl\src\draw\sw/lv_draw_sw_arc.c ****             q->draw_ctx->clip_area = &quarter_area;
 1252              		.loc 1 491 0
 1253 0226 A369     		ldr	r3, [r4, #24]
 1254 0228 C3F808D0 		str	sp, [r3, #8]
 492:..\..\..\arduinoLCD\test\Pain Drain\libraries\lvgl\src\draw\sw/lv_draw_sw_arc.c ****             lv_draw_rect(q->draw_ctx, q->draw_dsc, q->draw_area);
 1255              		.loc 1 492 0
 1256 022c 6269     		ldr	r2, [r4, #20]
 1257 022e 2169     		ldr	r1, [r4, #16]
 1258 0230 A069     		ldr	r0, [r4, #24]
 1259              	.LVL90:
 1260 0232 FFF7FEFF 		bl	lv_draw_rect
 1261              	.LVL91:
 1262              	.L36:
 1263              	.LBE27:
 493:..\..\..\arduinoLCD\test\Pain Drain\libraries\lvgl\src\draw\sw/lv_draw_sw_arc.c ****         }
 494:..\..\..\arduinoLCD\test\Pain Drain\libraries\lvgl\src\draw\sw/lv_draw_sw_arc.c ****     }
 495:..\..\..\arduinoLCD\test\Pain Drain\libraries\lvgl\src\draw\sw/lv_draw_sw_arc.c **** 
 496:..\..\..\arduinoLCD\test\Pain Drain\libraries\lvgl\src\draw\sw/lv_draw_sw_arc.c ****     q->draw_ctx->clip_area = clip_area_ori;
 1264              		.loc 1 496 0
 1265 0236 A369     		ldr	r3, [r4, #24]
 1266 0238 9D60     		str	r5, [r3, #8]
 497:..\..\..\arduinoLCD\test\Pain Drain\libraries\lvgl\src\draw\sw/lv_draw_sw_arc.c **** }
 1267              		.loc 1 497 0
 1268 023a 02B0     		add	sp, sp, #8
 1269              		.cfi_def_cfa_offset 16
 1270              		@ sp needed
ARM GAS  C:\Users\haske\AppData\Local\Temp\ccxlcgkV.s 			page 32


 1271 023c 70BD     		pop	{r4, r5, r6, pc}
 1272              		.cfi_endproc
 1273              	.LFE60:
 1274              		.size	draw_quarter_3, .-draw_quarter_3
 1275 023e 00BF     		.section	.text.get_rounded_area,"ax",%progbits
 1276              		.align	2
 1277              		.thumb
 1278              		.thumb_func
 1279              		.type	get_rounded_area, %function
 1280              	get_rounded_area:
 1281              	.LFB61:
 498:..\..\..\arduinoLCD\test\Pain Drain\libraries\lvgl\src\draw\sw/lv_draw_sw_arc.c **** 
 499:..\..\..\arduinoLCD\test\Pain Drain\libraries\lvgl\src\draw\sw/lv_draw_sw_arc.c **** static void get_rounded_area(int16_t angle, lv_coord_t radius, uint8_t thickness, lv_area_t * res_a
 500:..\..\..\arduinoLCD\test\Pain Drain\libraries\lvgl\src\draw\sw/lv_draw_sw_arc.c **** {
 1282              		.loc 1 500 0
 1283              		.cfi_startproc
 1284              		@ args = 0, pretend = 0, frame = 0
 1285              		@ frame_needed = 0, uses_anonymous_args = 0
 1286              	.LVL92:
 1287 0000 2DE9F843 		push	{r3, r4, r5, r6, r7, r8, r9, lr}
 1288              		.cfi_def_cfa_offset 32
 1289              		.cfi_offset 3, -32
 1290              		.cfi_offset 4, -28
 1291              		.cfi_offset 5, -24
 1292              		.cfi_offset 6, -20
 1293              		.cfi_offset 7, -16
 1294              		.cfi_offset 8, -12
 1295              		.cfi_offset 9, -8
 1296              		.cfi_offset 14, -4
 1297 0004 8146     		mov	r9, r0
 1298 0006 1F46     		mov	r7, r3
 1299              	.LVL93:
 501:..\..\..\arduinoLCD\test\Pain Drain\libraries\lvgl\src\draw\sw/lv_draw_sw_arc.c ****     const uint8_t ps = 8;
 502:..\..\..\arduinoLCD\test\Pain Drain\libraries\lvgl\src\draw\sw/lv_draw_sw_arc.c ****     const uint8_t pa = 127;
 503:..\..\..\arduinoLCD\test\Pain Drain\libraries\lvgl\src\draw\sw/lv_draw_sw_arc.c **** 
 504:..\..\..\arduinoLCD\test\Pain Drain\libraries\lvgl\src\draw\sw/lv_draw_sw_arc.c ****     int32_t thick_half = thickness / 2;
 1300              		.loc 1 504 0
 1301 0008 5508     		lsrs	r5, r2, #1
 1302              	.LVL94:
 505:..\..\..\arduinoLCD\test\Pain Drain\libraries\lvgl\src\draw\sw/lv_draw_sw_arc.c ****     uint8_t thick_corr = (thickness & 0x01) ? 0 : 1;
 1303              		.loc 1 505 0
 1304 000a 82F00102 		eor	r2, r2, #1
 1305              	.LVL95:
 1306 000e 02F00106 		and	r6, r2, #1
 1307              	.LVL96:
 506:..\..\..\arduinoLCD\test\Pain Drain\libraries\lvgl\src\draw\sw/lv_draw_sw_arc.c **** 
 507:..\..\..\arduinoLCD\test\Pain Drain\libraries\lvgl\src\draw\sw/lv_draw_sw_arc.c ****     int32_t cir_x;
 508:..\..\..\arduinoLCD\test\Pain Drain\libraries\lvgl\src\draw\sw/lv_draw_sw_arc.c ****     int32_t cir_y;
 509:..\..\..\arduinoLCD\test\Pain Drain\libraries\lvgl\src\draw\sw/lv_draw_sw_arc.c **** 
 510:..\..\..\arduinoLCD\test\Pain Drain\libraries\lvgl\src\draw\sw/lv_draw_sw_arc.c ****     cir_x = ((radius - thick_half) * lv_trigo_sin(90 - angle)) >> (LV_TRIGO_SHIFT - ps);
 1308              		.loc 1 510 0
 1309 0012 C5EB0108 		rsb	r8, r5, r1
 1310 0016 C0F15A00 		rsb	r0, r0, #90
 1311              	.LVL97:
 1312 001a 00B2     		sxth	r0, r0
 1313 001c FFF7FEFF 		bl	lv_trigo_sin
 1314              	.LVL98:
ARM GAS  C:\Users\haske\AppData\Local\Temp\ccxlcgkV.s 			page 33


 1315 0020 08FB00F0 		mul	r0, r8, r0
 1316 0024 C411     		asrs	r4, r0, #7
 1317              	.LVL99:
 511:..\..\..\arduinoLCD\test\Pain Drain\libraries\lvgl\src\draw\sw/lv_draw_sw_arc.c ****     cir_y = ((radius - thick_half) * lv_trigo_sin(angle)) >> (LV_TRIGO_SHIFT - ps);
 1318              		.loc 1 511 0
 1319 0026 4846     		mov	r0, r9
 1320 0028 FFF7FEFF 		bl	lv_trigo_sin
 1321              	.LVL100:
 1322 002c 08FB00F0 		mul	r0, r8, r0
 1323 0030 C011     		asrs	r0, r0, #7
 1324              	.LVL101:
 512:..\..\..\arduinoLCD\test\Pain Drain\libraries\lvgl\src\draw\sw/lv_draw_sw_arc.c **** 
 513:..\..\..\arduinoLCD\test\Pain Drain\libraries\lvgl\src\draw\sw/lv_draw_sw_arc.c ****     /*Actually the center of the pixel need to be calculated so apply 1/2 px offset*/
 514:..\..\..\arduinoLCD\test\Pain Drain\libraries\lvgl\src\draw\sw/lv_draw_sw_arc.c ****     if(cir_x > 0) {
 1325              		.loc 1 514 0
 1326 0032 002C     		cmp	r4, #0
 1327 0034 09DD     		ble	.L46
 515:..\..\..\arduinoLCD\test\Pain Drain\libraries\lvgl\src\draw\sw/lv_draw_sw_arc.c ****         cir_x = (cir_x - pa) >> ps;
 1328              		.loc 1 515 0
 1329 0036 7F3C     		subs	r4, r4, #127
 1330              	.LVL102:
 516:..\..\..\arduinoLCD\test\Pain Drain\libraries\lvgl\src\draw\sw/lv_draw_sw_arc.c ****         res_area->x1 = cir_x - thick_half + thick_corr;
 1331              		.loc 1 516 0
 1332 0038 C4F30F24 		ubfx	r4, r4, #8, #16
 1333              	.LVL103:
 1334 003c ABB2     		uxth	r3, r5
 1335 003e E21A     		subs	r2, r4, r3
 1336 0040 3244     		add	r2, r2, r6
 1337 0042 3A80     		strh	r2, [r7]	@ movhi
 517:..\..\..\arduinoLCD\test\Pain Drain\libraries\lvgl\src\draw\sw/lv_draw_sw_arc.c ****         res_area->x2 = cir_x + thick_half;
 1338              		.loc 1 517 0
 1339 0044 1C44     		add	r4, r4, r3
 1340 0046 BC80     		strh	r4, [r7, #4]	@ movhi
 1341 0048 08E0     		b	.L47
 1342              	.LVL104:
 1343              	.L46:
 518:..\..\..\arduinoLCD\test\Pain Drain\libraries\lvgl\src\draw\sw/lv_draw_sw_arc.c ****     }
 519:..\..\..\arduinoLCD\test\Pain Drain\libraries\lvgl\src\draw\sw/lv_draw_sw_arc.c ****     else {
 520:..\..\..\arduinoLCD\test\Pain Drain\libraries\lvgl\src\draw\sw/lv_draw_sw_arc.c ****         cir_x = (cir_x + pa) >> ps;
 1344              		.loc 1 520 0
 1345 004a 7F34     		adds	r4, r4, #127
 1346              	.LVL105:
 521:..\..\..\arduinoLCD\test\Pain Drain\libraries\lvgl\src\draw\sw/lv_draw_sw_arc.c ****         res_area->x1 = cir_x - thick_half;
 1347              		.loc 1 521 0
 1348 004c C4F30F24 		ubfx	r4, r4, #8, #16
 1349              	.LVL106:
 1350 0050 ABB2     		uxth	r3, r5
 1351 0052 E21A     		subs	r2, r4, r3
 1352 0054 3A80     		strh	r2, [r7]	@ movhi
 522:..\..\..\arduinoLCD\test\Pain Drain\libraries\lvgl\src\draw\sw/lv_draw_sw_arc.c ****         res_area->x2 = cir_x + thick_half - thick_corr;
 1353              		.loc 1 522 0
 1354 0056 1C44     		add	r4, r4, r3
 1355 0058 A41B     		subs	r4, r4, r6
 1356 005a BC80     		strh	r4, [r7, #4]	@ movhi
 1357              	.L47:
 523:..\..\..\arduinoLCD\test\Pain Drain\libraries\lvgl\src\draw\sw/lv_draw_sw_arc.c ****     }
 524:..\..\..\arduinoLCD\test\Pain Drain\libraries\lvgl\src\draw\sw/lv_draw_sw_arc.c **** 
ARM GAS  C:\Users\haske\AppData\Local\Temp\ccxlcgkV.s 			page 34


 525:..\..\..\arduinoLCD\test\Pain Drain\libraries\lvgl\src\draw\sw/lv_draw_sw_arc.c ****     if(cir_y > 0) {
 1358              		.loc 1 525 0
 1359 005c 0028     		cmp	r0, #0
 1360 005e 0ADD     		ble	.L48
 526:..\..\..\arduinoLCD\test\Pain Drain\libraries\lvgl\src\draw\sw/lv_draw_sw_arc.c ****         cir_y = (cir_y - pa) >> ps;
 1361              		.loc 1 526 0
 1362 0060 7F38     		subs	r0, r0, #127
 1363              	.LVL107:
 527:..\..\..\arduinoLCD\test\Pain Drain\libraries\lvgl\src\draw\sw/lv_draw_sw_arc.c ****         res_area->y1 = cir_y - thick_half + thick_corr;
 1364              		.loc 1 527 0
 1365 0062 C0F30F20 		ubfx	r0, r0, #8, #16
 1366              	.LVL108:
 1367 0066 ADB2     		uxth	r5, r5
 1368              	.LVL109:
 1369 0068 421B     		subs	r2, r0, r5
 1370 006a 1644     		add	r6, r6, r2
 1371              	.LVL110:
 1372 006c 7E80     		strh	r6, [r7, #2]	@ movhi
 528:..\..\..\arduinoLCD\test\Pain Drain\libraries\lvgl\src\draw\sw/lv_draw_sw_arc.c ****         res_area->y2 = cir_y + thick_half;
 1373              		.loc 1 528 0
 1374 006e 0544     		add	r5, r5, r0
 1375 0070 FD80     		strh	r5, [r7, #6]	@ movhi
 1376 0072 BDE8F883 		pop	{r3, r4, r5, r6, r7, r8, r9, pc}
 1377              	.LVL111:
 1378              	.L48:
 529:..\..\..\arduinoLCD\test\Pain Drain\libraries\lvgl\src\draw\sw/lv_draw_sw_arc.c ****     }
 530:..\..\..\arduinoLCD\test\Pain Drain\libraries\lvgl\src\draw\sw/lv_draw_sw_arc.c ****     else {
 531:..\..\..\arduinoLCD\test\Pain Drain\libraries\lvgl\src\draw\sw/lv_draw_sw_arc.c ****         cir_y = (cir_y + pa) >> ps;
 1379              		.loc 1 531 0
 1380 0076 7F30     		adds	r0, r0, #127
 1381              	.LVL112:
 532:..\..\..\arduinoLCD\test\Pain Drain\libraries\lvgl\src\draw\sw/lv_draw_sw_arc.c ****         res_area->y1 = cir_y - thick_half;
 1382              		.loc 1 532 0
 1383 0078 C0F30F20 		ubfx	r0, r0, #8, #16
 1384              	.LVL113:
 1385 007c ADB2     		uxth	r5, r5
 1386              	.LVL114:
 1387 007e 431B     		subs	r3, r0, r5
 1388 0080 7B80     		strh	r3, [r7, #2]	@ movhi
 533:..\..\..\arduinoLCD\test\Pain Drain\libraries\lvgl\src\draw\sw/lv_draw_sw_arc.c ****         res_area->y2 = cir_y + thick_half - thick_corr;
 1389              		.loc 1 533 0
 1390 0082 0544     		add	r5, r5, r0
 1391 0084 AE1B     		subs	r6, r5, r6
 1392              	.LVL115:
 1393 0086 FE80     		strh	r6, [r7, #6]	@ movhi
 1394 0088 BDE8F883 		pop	{r3, r4, r5, r6, r7, r8, r9, pc}
 1395              		.cfi_endproc
 1396              	.LFE61:
 1397              		.size	get_rounded_area, .-get_rounded_area
 1398              		.section	.text.lv_draw_sw_arc,"ax",%progbits
 1399              		.align	2
 1400              		.global	lv_draw_sw_arc
 1401              		.thumb
 1402              		.thumb_func
 1403              		.type	lv_draw_sw_arc, %function
 1404              	lv_draw_sw_arc:
 1405              	.LFB56:
ARM GAS  C:\Users\haske\AppData\Local\Temp\ccxlcgkV.s 			page 35


  62:..\..\..\arduinoLCD\test\Pain Drain\libraries\lvgl\src\draw\sw/lv_draw_sw_arc.c **** #if LV_DRAW_COMPLEX
 1406              		.loc 1 62 0
 1407              		.cfi_startproc
 1408              		@ args = 8, pretend = 0, frame = 296
 1409              		@ frame_needed = 0, uses_anonymous_args = 0
 1410              	.LVL116:
 1411 0000 2DE9F04F 		push	{r4, r5, r6, r7, r8, r9, r10, fp, lr}
 1412              		.cfi_def_cfa_offset 36
 1413              		.cfi_offset 4, -36
 1414              		.cfi_offset 5, -32
 1415              		.cfi_offset 6, -28
 1416              		.cfi_offset 7, -24
 1417              		.cfi_offset 8, -20
 1418              		.cfi_offset 9, -16
 1419              		.cfi_offset 10, -12
 1420              		.cfi_offset 11, -8
 1421              		.cfi_offset 14, -4
 1422 0004 CDB0     		sub	sp, sp, #308
 1423              		.cfi_def_cfa_offset 344
 1424 0006 BDF85851 		ldrh	r5, [sp, #344]
 1425 000a BDF85C41 		ldrh	r4, [sp, #348]
  64:..\..\..\arduinoLCD\test\Pain Drain\libraries\lvgl\src\draw\sw/lv_draw_sw_arc.c ****     if(dsc->width == 0) return;
 1426              		.loc 1 64 0
 1427 000e 0E7B     		ldrb	r6, [r1, #12]	@ zero_extendqisi2
 1428 0010 022E     		cmp	r6, #2
 1429 0012 40F2A981 		bls	.L51
  65:..\..\..\arduinoLCD\test\Pain Drain\libraries\lvgl\src\draw\sw/lv_draw_sw_arc.c ****     if(start_angle == end_angle) return;
 1430              		.loc 1 65 0
 1431 0016 B1F902A0 		ldrsh	r10, [r1, #2]
 1432 001a BAF1000F 		cmp	r10, #0
 1433 001e 00F0A381 		beq	.L51
  66:..\..\..\arduinoLCD\test\Pain Drain\libraries\lvgl\src\draw\sw/lv_draw_sw_arc.c **** 
 1434              		.loc 1 66 0
 1435 0022 A542     		cmp	r5, r4
 1436 0024 00F0A081 		beq	.L51
 1437              	.LVL117:
  69:..\..\..\arduinoLCD\test\Pain Drain\libraries\lvgl\src\draw\sw/lv_draw_sw_arc.c **** 
 1438              		.loc 1 69 0
 1439 0028 9A45     		cmp	r10, r3
 1440 002a 01DD     		ble	.L53
  69:..\..\..\arduinoLCD\test\Pain Drain\libraries\lvgl\src\draw\sw/lv_draw_sw_arc.c **** 
 1441              		.loc 1 69 0 is_stmt 0 discriminator 1
 1442 002c 0FFA83FA 		sxth	r10, r3
 1443              	.LVL118:
 1444              	.L53:
 1445 0030 1F46     		mov	r7, r3
 1446 0032 9046     		mov	r8, r2
 1447 0034 0E46     		mov	r6, r1
 1448 0036 8146     		mov	r9, r0
  72:..\..\..\arduinoLCD\test\Pain Drain\libraries\lvgl\src\draw\sw/lv_draw_sw_arc.c ****     cir_dsc.blend_mode = dsc->blend_mode;
 1449              		.loc 1 72 0 is_stmt 1
 1450 0038 3EA8     		add	r0, sp, #248
 1451              	.LVL119:
 1452 003a FFF7FEFF 		bl	lv_draw_rect_dsc_init
 1453              	.LVL120:
  73:..\..\..\arduinoLCD\test\Pain Drain\libraries\lvgl\src\draw\sw/lv_draw_sw_arc.c ****     if(dsc->img_src) {
 1454              		.loc 1 73 0
ARM GAS  C:\Users\haske\AppData\Local\Temp\ccxlcgkV.s 			page 36


 1455 003e 737B     		ldrb	r3, [r6, #13]	@ zero_extendqisi2
 1456 0040 C3F30103 		ubfx	r3, r3, #0, #2
 1457 0044 8DF8FA30 		strb	r3, [sp, #250]
  74:..\..\..\arduinoLCD\test\Pain Drain\libraries\lvgl\src\draw\sw/lv_draw_sw_arc.c ****         cir_dsc.bg_opa = LV_OPA_TRANSP;
 1458              		.loc 1 74 0
 1459 0048 B368     		ldr	r3, [r6, #8]
 1460 004a 3BB1     		cbz	r3, .L54
  75:..\..\..\arduinoLCD\test\Pain Drain\libraries\lvgl\src\draw\sw/lv_draw_sw_arc.c ****         cir_dsc.bg_img_src = dsc->img_src;
 1461              		.loc 1 75 0
 1462 004c 0022     		movs	r2, #0
 1463 004e 8DF8FB20 		strb	r2, [sp, #251]
  76:..\..\..\arduinoLCD\test\Pain Drain\libraries\lvgl\src\draw\sw/lv_draw_sw_arc.c ****         cir_dsc.bg_img_opa = dsc->opa;
 1464              		.loc 1 76 0
 1465 0052 4293     		str	r3, [sp, #264]
  77:..\..\..\arduinoLCD\test\Pain Drain\libraries\lvgl\src\draw\sw/lv_draw_sw_arc.c ****     }
 1466              		.loc 1 77 0
 1467 0054 337B     		ldrb	r3, [r6, #12]	@ zero_extendqisi2
 1468 0056 8DF81231 		strb	r3, [sp, #274]
 1469 005a 05E0     		b	.L55
 1470              	.L54:
  80:..\..\..\arduinoLCD\test\Pain Drain\libraries\lvgl\src\draw\sw/lv_draw_sw_arc.c ****         cir_dsc.bg_color = dsc->color;
 1471              		.loc 1 80 0
 1472 005c 337B     		ldrb	r3, [r6, #12]	@ zero_extendqisi2
 1473 005e 8DF8FB30 		strb	r3, [sp, #251]
  81:..\..\..\arduinoLCD\test\Pain Drain\libraries\lvgl\src\draw\sw/lv_draw_sw_arc.c ****     }
 1474              		.loc 1 81 0
 1475 0062 3388     		ldrh	r3, [r6]
 1476 0064 ADF8FC30 		strh	r3, [sp, #252]	@ movhi
 1477              	.L55:
  85:..\..\..\arduinoLCD\test\Pain Drain\libraries\lvgl\src\draw\sw/lv_draw_sw_arc.c ****     area_out.y1 = center->y - radius;
 1478              		.loc 1 85 0
 1479 0068 B8F90020 		ldrsh	r2, [r8]
 1480 006c C7EB020E 		rsb	lr, r7, r2
 1481 0070 1FFA8EFE 		uxth	lr, lr
 1482 0074 ADF8F0E0 		strh	lr, [sp, #240]	@ movhi
  86:..\..\..\arduinoLCD\test\Pain Drain\libraries\lvgl\src\draw\sw/lv_draw_sw_arc.c ****     area_out.x2 = center->x + radius - 1;  /*-1 because the center already belongs to the left/bott
 1483              		.loc 1 86 0
 1484 0078 B8F90200 		ldrsh	r0, [r8, #2]
 1485 007c C11B     		subs	r1, r0, r7
 1486 007e 89B2     		uxth	r1, r1
 1487 0080 ADF8F210 		strh	r1, [sp, #242]	@ movhi
  87:..\..\..\arduinoLCD\test\Pain Drain\libraries\lvgl\src\draw\sw/lv_draw_sw_arc.c ****     area_out.y2 = center->y + radius - 1;
 1488              		.loc 1 87 0
 1489 0084 3A44     		add	r2, r2, r7
 1490 0086 013A     		subs	r2, r2, #1
 1491 0088 92B2     		uxth	r2, r2
 1492 008a ADF8F420 		strh	r2, [sp, #244]	@ movhi
  88:..\..\..\arduinoLCD\test\Pain Drain\libraries\lvgl\src\draw\sw/lv_draw_sw_arc.c **** 
 1493              		.loc 1 88 0
 1494 008e 3844     		add	r0, r0, r7
 1495 0090 0138     		subs	r0, r0, #1
 1496 0092 80B2     		uxth	r0, r0
 1497 0094 ADF8F600 		strh	r0, [sp, #246]	@ movhi
  92:..\..\..\arduinoLCD\test\Pain Drain\libraries\lvgl\src\draw\sw/lv_draw_sw_arc.c ****     area_in.y1 += dsc->width;
 1498              		.loc 1 92 0
 1499 0098 B6F902C0 		ldrsh	ip, [r6, #2]
 1500 009c 1FFA8CFB 		uxth	fp, ip
ARM GAS  C:\Users\haske\AppData\Local\Temp\ccxlcgkV.s 			page 37


 1501 00a0 0EEB0B03 		add	r3, lr, fp
 1502 00a4 1FFA83FE 		uxth	lr, r3
 1503 00a8 ADF8E8E0 		strh	lr, [sp, #232]	@ movhi
  93:..\..\..\arduinoLCD\test\Pain Drain\libraries\lvgl\src\draw\sw/lv_draw_sw_arc.c ****     area_in.x2 -= dsc->width;
 1504              		.loc 1 93 0
 1505 00ac 5944     		add	r1, r1, fp
 1506 00ae 89B2     		uxth	r1, r1
 1507 00b0 ADF8EA10 		strh	r1, [sp, #234]	@ movhi
  94:..\..\..\arduinoLCD\test\Pain Drain\libraries\lvgl\src\draw\sw/lv_draw_sw_arc.c ****     area_in.y2 -= dsc->width;
 1508              		.loc 1 94 0
 1509 00b4 CCEB0202 		rsb	r2, ip, r2
 1510 00b8 93B2     		uxth	r3, r2
 1511 00ba ADF8EC30 		strh	r3, [sp, #236]	@ movhi
  95:..\..\..\arduinoLCD\test\Pain Drain\libraries\lvgl\src\draw\sw/lv_draw_sw_arc.c **** 
 1512              		.loc 1 95 0
 1513 00be CCEB0000 		rsb	r0, ip, r0
 1514 00c2 80B2     		uxth	r0, r0
 1515 00c4 ADF8EE00 		strh	r0, [sp, #238]	@ movhi
 1516              	.LVL121:
 1517              	.LBB28:
 1518              	.LBB29:
 1519              		.file 2 "c:\\projects\\paindrain\\arduinolcd\\test\\pain drain\\libraries\\lvgl\\src\\misc\\lv_are
   1:c:\projects\paindrain\arduinolcd\test\pain drain\libraries\lvgl\src\misc\lv_area.h **** /**
   2:c:\projects\paindrain\arduinolcd\test\pain drain\libraries\lvgl\src\misc\lv_area.h ****  * @file lv_area.h
   3:c:\projects\paindrain\arduinolcd\test\pain drain\libraries\lvgl\src\misc\lv_area.h ****  *
   4:c:\projects\paindrain\arduinolcd\test\pain drain\libraries\lvgl\src\misc\lv_area.h ****  */
   5:c:\projects\paindrain\arduinolcd\test\pain drain\libraries\lvgl\src\misc\lv_area.h **** 
   6:c:\projects\paindrain\arduinolcd\test\pain drain\libraries\lvgl\src\misc\lv_area.h **** #ifndef LV_AREA_H
   7:c:\projects\paindrain\arduinolcd\test\pain drain\libraries\lvgl\src\misc\lv_area.h **** #define LV_AREA_H
   8:c:\projects\paindrain\arduinolcd\test\pain drain\libraries\lvgl\src\misc\lv_area.h **** 
   9:c:\projects\paindrain\arduinolcd\test\pain drain\libraries\lvgl\src\misc\lv_area.h **** #ifdef __cplusplus
  10:c:\projects\paindrain\arduinolcd\test\pain drain\libraries\lvgl\src\misc\lv_area.h **** extern "C" {
  11:c:\projects\paindrain\arduinolcd\test\pain drain\libraries\lvgl\src\misc\lv_area.h **** #endif
  12:c:\projects\paindrain\arduinolcd\test\pain drain\libraries\lvgl\src\misc\lv_area.h **** 
  13:c:\projects\paindrain\arduinolcd\test\pain drain\libraries\lvgl\src\misc\lv_area.h **** /*********************
  14:c:\projects\paindrain\arduinolcd\test\pain drain\libraries\lvgl\src\misc\lv_area.h ****  *      INCLUDES
  15:c:\projects\paindrain\arduinolcd\test\pain drain\libraries\lvgl\src\misc\lv_area.h ****  *********************/
  16:c:\projects\paindrain\arduinolcd\test\pain drain\libraries\lvgl\src\misc\lv_area.h **** #include "../lv_conf_internal.h"
  17:c:\projects\paindrain\arduinolcd\test\pain drain\libraries\lvgl\src\misc\lv_area.h **** #include <stdbool.h>
  18:c:\projects\paindrain\arduinolcd\test\pain drain\libraries\lvgl\src\misc\lv_area.h **** #include <stdint.h>
  19:c:\projects\paindrain\arduinolcd\test\pain drain\libraries\lvgl\src\misc\lv_area.h **** 
  20:c:\projects\paindrain\arduinolcd\test\pain drain\libraries\lvgl\src\misc\lv_area.h **** /*********************
  21:c:\projects\paindrain\arduinolcd\test\pain drain\libraries\lvgl\src\misc\lv_area.h ****  *      DEFINES
  22:c:\projects\paindrain\arduinolcd\test\pain drain\libraries\lvgl\src\misc\lv_area.h ****  *********************/
  23:c:\projects\paindrain\arduinolcd\test\pain drain\libraries\lvgl\src\misc\lv_area.h **** 
  24:c:\projects\paindrain\arduinolcd\test\pain drain\libraries\lvgl\src\misc\lv_area.h **** #if LV_USE_LARGE_COORD
  25:c:\projects\paindrain\arduinolcd\test\pain drain\libraries\lvgl\src\misc\lv_area.h **** typedef int32_t lv_coord_t;
  26:c:\projects\paindrain\arduinolcd\test\pain drain\libraries\lvgl\src\misc\lv_area.h **** #else
  27:c:\projects\paindrain\arduinolcd\test\pain drain\libraries\lvgl\src\misc\lv_area.h **** typedef int16_t lv_coord_t;
  28:c:\projects\paindrain\arduinolcd\test\pain drain\libraries\lvgl\src\misc\lv_area.h **** #endif
  29:c:\projects\paindrain\arduinolcd\test\pain drain\libraries\lvgl\src\misc\lv_area.h **** 
  30:c:\projects\paindrain\arduinolcd\test\pain drain\libraries\lvgl\src\misc\lv_area.h **** /**********************
  31:c:\projects\paindrain\arduinolcd\test\pain drain\libraries\lvgl\src\misc\lv_area.h ****  *      TYPEDEFS
  32:c:\projects\paindrain\arduinolcd\test\pain drain\libraries\lvgl\src\misc\lv_area.h ****  **********************/
  33:c:\projects\paindrain\arduinolcd\test\pain drain\libraries\lvgl\src\misc\lv_area.h **** 
  34:c:\projects\paindrain\arduinolcd\test\pain drain\libraries\lvgl\src\misc\lv_area.h **** /**
  35:c:\projects\paindrain\arduinolcd\test\pain drain\libraries\lvgl\src\misc\lv_area.h ****  * Represents a point on the screen.
ARM GAS  C:\Users\haske\AppData\Local\Temp\ccxlcgkV.s 			page 38


  36:c:\projects\paindrain\arduinolcd\test\pain drain\libraries\lvgl\src\misc\lv_area.h ****  */
  37:c:\projects\paindrain\arduinolcd\test\pain drain\libraries\lvgl\src\misc\lv_area.h **** typedef struct {
  38:c:\projects\paindrain\arduinolcd\test\pain drain\libraries\lvgl\src\misc\lv_area.h ****     lv_coord_t x;
  39:c:\projects\paindrain\arduinolcd\test\pain drain\libraries\lvgl\src\misc\lv_area.h ****     lv_coord_t y;
  40:c:\projects\paindrain\arduinolcd\test\pain drain\libraries\lvgl\src\misc\lv_area.h **** } lv_point_t;
  41:c:\projects\paindrain\arduinolcd\test\pain drain\libraries\lvgl\src\misc\lv_area.h **** 
  42:c:\projects\paindrain\arduinolcd\test\pain drain\libraries\lvgl\src\misc\lv_area.h **** /** Represents an area of the screen.*/
  43:c:\projects\paindrain\arduinolcd\test\pain drain\libraries\lvgl\src\misc\lv_area.h **** typedef struct {
  44:c:\projects\paindrain\arduinolcd\test\pain drain\libraries\lvgl\src\misc\lv_area.h ****     lv_coord_t x1;
  45:c:\projects\paindrain\arduinolcd\test\pain drain\libraries\lvgl\src\misc\lv_area.h ****     lv_coord_t y1;
  46:c:\projects\paindrain\arduinolcd\test\pain drain\libraries\lvgl\src\misc\lv_area.h ****     lv_coord_t x2;
  47:c:\projects\paindrain\arduinolcd\test\pain drain\libraries\lvgl\src\misc\lv_area.h ****     lv_coord_t y2;
  48:c:\projects\paindrain\arduinolcd\test\pain drain\libraries\lvgl\src\misc\lv_area.h **** } lv_area_t;
  49:c:\projects\paindrain\arduinolcd\test\pain drain\libraries\lvgl\src\misc\lv_area.h **** 
  50:c:\projects\paindrain\arduinolcd\test\pain drain\libraries\lvgl\src\misc\lv_area.h **** /** Alignments*/
  51:c:\projects\paindrain\arduinolcd\test\pain drain\libraries\lvgl\src\misc\lv_area.h **** enum {
  52:c:\projects\paindrain\arduinolcd\test\pain drain\libraries\lvgl\src\misc\lv_area.h ****     LV_ALIGN_DEFAULT = 0,
  53:c:\projects\paindrain\arduinolcd\test\pain drain\libraries\lvgl\src\misc\lv_area.h ****     LV_ALIGN_TOP_LEFT,
  54:c:\projects\paindrain\arduinolcd\test\pain drain\libraries\lvgl\src\misc\lv_area.h ****     LV_ALIGN_TOP_MID,
  55:c:\projects\paindrain\arduinolcd\test\pain drain\libraries\lvgl\src\misc\lv_area.h ****     LV_ALIGN_TOP_RIGHT,
  56:c:\projects\paindrain\arduinolcd\test\pain drain\libraries\lvgl\src\misc\lv_area.h ****     LV_ALIGN_BOTTOM_LEFT,
  57:c:\projects\paindrain\arduinolcd\test\pain drain\libraries\lvgl\src\misc\lv_area.h ****     LV_ALIGN_BOTTOM_MID,
  58:c:\projects\paindrain\arduinolcd\test\pain drain\libraries\lvgl\src\misc\lv_area.h ****     LV_ALIGN_BOTTOM_RIGHT,
  59:c:\projects\paindrain\arduinolcd\test\pain drain\libraries\lvgl\src\misc\lv_area.h ****     LV_ALIGN_LEFT_MID,
  60:c:\projects\paindrain\arduinolcd\test\pain drain\libraries\lvgl\src\misc\lv_area.h ****     LV_ALIGN_RIGHT_MID,
  61:c:\projects\paindrain\arduinolcd\test\pain drain\libraries\lvgl\src\misc\lv_area.h ****     LV_ALIGN_CENTER,
  62:c:\projects\paindrain\arduinolcd\test\pain drain\libraries\lvgl\src\misc\lv_area.h **** 
  63:c:\projects\paindrain\arduinolcd\test\pain drain\libraries\lvgl\src\misc\lv_area.h ****     LV_ALIGN_OUT_TOP_LEFT,
  64:c:\projects\paindrain\arduinolcd\test\pain drain\libraries\lvgl\src\misc\lv_area.h ****     LV_ALIGN_OUT_TOP_MID,
  65:c:\projects\paindrain\arduinolcd\test\pain drain\libraries\lvgl\src\misc\lv_area.h ****     LV_ALIGN_OUT_TOP_RIGHT,
  66:c:\projects\paindrain\arduinolcd\test\pain drain\libraries\lvgl\src\misc\lv_area.h ****     LV_ALIGN_OUT_BOTTOM_LEFT,
  67:c:\projects\paindrain\arduinolcd\test\pain drain\libraries\lvgl\src\misc\lv_area.h ****     LV_ALIGN_OUT_BOTTOM_MID,
  68:c:\projects\paindrain\arduinolcd\test\pain drain\libraries\lvgl\src\misc\lv_area.h ****     LV_ALIGN_OUT_BOTTOM_RIGHT,
  69:c:\projects\paindrain\arduinolcd\test\pain drain\libraries\lvgl\src\misc\lv_area.h ****     LV_ALIGN_OUT_LEFT_TOP,
  70:c:\projects\paindrain\arduinolcd\test\pain drain\libraries\lvgl\src\misc\lv_area.h ****     LV_ALIGN_OUT_LEFT_MID,
  71:c:\projects\paindrain\arduinolcd\test\pain drain\libraries\lvgl\src\misc\lv_area.h ****     LV_ALIGN_OUT_LEFT_BOTTOM,
  72:c:\projects\paindrain\arduinolcd\test\pain drain\libraries\lvgl\src\misc\lv_area.h ****     LV_ALIGN_OUT_RIGHT_TOP,
  73:c:\projects\paindrain\arduinolcd\test\pain drain\libraries\lvgl\src\misc\lv_area.h ****     LV_ALIGN_OUT_RIGHT_MID,
  74:c:\projects\paindrain\arduinolcd\test\pain drain\libraries\lvgl\src\misc\lv_area.h ****     LV_ALIGN_OUT_RIGHT_BOTTOM,
  75:c:\projects\paindrain\arduinolcd\test\pain drain\libraries\lvgl\src\misc\lv_area.h **** };
  76:c:\projects\paindrain\arduinolcd\test\pain drain\libraries\lvgl\src\misc\lv_area.h **** typedef uint8_t lv_align_t;
  77:c:\projects\paindrain\arduinolcd\test\pain drain\libraries\lvgl\src\misc\lv_area.h **** 
  78:c:\projects\paindrain\arduinolcd\test\pain drain\libraries\lvgl\src\misc\lv_area.h **** enum {
  79:c:\projects\paindrain\arduinolcd\test\pain drain\libraries\lvgl\src\misc\lv_area.h ****     LV_DIR_NONE     = 0x00,
  80:c:\projects\paindrain\arduinolcd\test\pain drain\libraries\lvgl\src\misc\lv_area.h ****     LV_DIR_LEFT     = (1 << 0),
  81:c:\projects\paindrain\arduinolcd\test\pain drain\libraries\lvgl\src\misc\lv_area.h ****     LV_DIR_RIGHT    = (1 << 1),
  82:c:\projects\paindrain\arduinolcd\test\pain drain\libraries\lvgl\src\misc\lv_area.h ****     LV_DIR_TOP      = (1 << 2),
  83:c:\projects\paindrain\arduinolcd\test\pain drain\libraries\lvgl\src\misc\lv_area.h ****     LV_DIR_BOTTOM   = (1 << 3),
  84:c:\projects\paindrain\arduinolcd\test\pain drain\libraries\lvgl\src\misc\lv_area.h ****     LV_DIR_HOR      = LV_DIR_LEFT | LV_DIR_RIGHT,
  85:c:\projects\paindrain\arduinolcd\test\pain drain\libraries\lvgl\src\misc\lv_area.h ****     LV_DIR_VER      = LV_DIR_TOP | LV_DIR_BOTTOM,
  86:c:\projects\paindrain\arduinolcd\test\pain drain\libraries\lvgl\src\misc\lv_area.h ****     LV_DIR_ALL      = LV_DIR_HOR | LV_DIR_VER,
  87:c:\projects\paindrain\arduinolcd\test\pain drain\libraries\lvgl\src\misc\lv_area.h **** };
  88:c:\projects\paindrain\arduinolcd\test\pain drain\libraries\lvgl\src\misc\lv_area.h **** 
  89:c:\projects\paindrain\arduinolcd\test\pain drain\libraries\lvgl\src\misc\lv_area.h **** typedef uint8_t lv_dir_t;
  90:c:\projects\paindrain\arduinolcd\test\pain drain\libraries\lvgl\src\misc\lv_area.h **** 
  91:c:\projects\paindrain\arduinolcd\test\pain drain\libraries\lvgl\src\misc\lv_area.h **** /**********************
  92:c:\projects\paindrain\arduinolcd\test\pain drain\libraries\lvgl\src\misc\lv_area.h ****  * GLOBAL PROTOTYPES
ARM GAS  C:\Users\haske\AppData\Local\Temp\ccxlcgkV.s 			page 39


  93:c:\projects\paindrain\arduinolcd\test\pain drain\libraries\lvgl\src\misc\lv_area.h ****  **********************/
  94:c:\projects\paindrain\arduinolcd\test\pain drain\libraries\lvgl\src\misc\lv_area.h **** 
  95:c:\projects\paindrain\arduinolcd\test\pain drain\libraries\lvgl\src\misc\lv_area.h **** /**
  96:c:\projects\paindrain\arduinolcd\test\pain drain\libraries\lvgl\src\misc\lv_area.h ****  * Initialize an area
  97:c:\projects\paindrain\arduinolcd\test\pain drain\libraries\lvgl\src\misc\lv_area.h ****  * @param area_p pointer to an area
  98:c:\projects\paindrain\arduinolcd\test\pain drain\libraries\lvgl\src\misc\lv_area.h ****  * @param x1 left coordinate of the area
  99:c:\projects\paindrain\arduinolcd\test\pain drain\libraries\lvgl\src\misc\lv_area.h ****  * @param y1 top coordinate of the area
 100:c:\projects\paindrain\arduinolcd\test\pain drain\libraries\lvgl\src\misc\lv_area.h ****  * @param x2 right coordinate of the area
 101:c:\projects\paindrain\arduinolcd\test\pain drain\libraries\lvgl\src\misc\lv_area.h ****  * @param y2 bottom coordinate of the area
 102:c:\projects\paindrain\arduinolcd\test\pain drain\libraries\lvgl\src\misc\lv_area.h ****  */
 103:c:\projects\paindrain\arduinolcd\test\pain drain\libraries\lvgl\src\misc\lv_area.h **** void lv_area_set(lv_area_t * area_p, lv_coord_t x1, lv_coord_t y1, lv_coord_t x2, lv_coord_t y2);
 104:c:\projects\paindrain\arduinolcd\test\pain drain\libraries\lvgl\src\misc\lv_area.h **** 
 105:c:\projects\paindrain\arduinolcd\test\pain drain\libraries\lvgl\src\misc\lv_area.h **** /**
 106:c:\projects\paindrain\arduinolcd\test\pain drain\libraries\lvgl\src\misc\lv_area.h ****  * Copy an area
 107:c:\projects\paindrain\arduinolcd\test\pain drain\libraries\lvgl\src\misc\lv_area.h ****  * @param dest pointer to the destination area
 108:c:\projects\paindrain\arduinolcd\test\pain drain\libraries\lvgl\src\misc\lv_area.h ****  * @param src pointer to the source area
 109:c:\projects\paindrain\arduinolcd\test\pain drain\libraries\lvgl\src\misc\lv_area.h ****  */
 110:c:\projects\paindrain\arduinolcd\test\pain drain\libraries\lvgl\src\misc\lv_area.h **** inline static void lv_area_copy(lv_area_t * dest, const lv_area_t * src)
 111:c:\projects\paindrain\arduinolcd\test\pain drain\libraries\lvgl\src\misc\lv_area.h **** {
 112:c:\projects\paindrain\arduinolcd\test\pain drain\libraries\lvgl\src\misc\lv_area.h ****     dest->x1 = src->x1;
 113:c:\projects\paindrain\arduinolcd\test\pain drain\libraries\lvgl\src\misc\lv_area.h ****     dest->y1 = src->y1;
 114:c:\projects\paindrain\arduinolcd\test\pain drain\libraries\lvgl\src\misc\lv_area.h ****     dest->x2 = src->x2;
 115:c:\projects\paindrain\arduinolcd\test\pain drain\libraries\lvgl\src\misc\lv_area.h ****     dest->y2 = src->y2;
 116:c:\projects\paindrain\arduinolcd\test\pain drain\libraries\lvgl\src\misc\lv_area.h **** }
 117:c:\projects\paindrain\arduinolcd\test\pain drain\libraries\lvgl\src\misc\lv_area.h **** 
 118:c:\projects\paindrain\arduinolcd\test\pain drain\libraries\lvgl\src\misc\lv_area.h **** /**
 119:c:\projects\paindrain\arduinolcd\test\pain drain\libraries\lvgl\src\misc\lv_area.h ****  * Get the width of an area
 120:c:\projects\paindrain\arduinolcd\test\pain drain\libraries\lvgl\src\misc\lv_area.h ****  * @param area_p pointer to an area
 121:c:\projects\paindrain\arduinolcd\test\pain drain\libraries\lvgl\src\misc\lv_area.h ****  * @return the width of the area (if x1 == x2 -> width = 1)
 122:c:\projects\paindrain\arduinolcd\test\pain drain\libraries\lvgl\src\misc\lv_area.h ****  */
 123:c:\projects\paindrain\arduinolcd\test\pain drain\libraries\lvgl\src\misc\lv_area.h **** static inline lv_coord_t lv_area_get_width(const lv_area_t * area_p)
 124:c:\projects\paindrain\arduinolcd\test\pain drain\libraries\lvgl\src\misc\lv_area.h **** {
 125:c:\projects\paindrain\arduinolcd\test\pain drain\libraries\lvgl\src\misc\lv_area.h ****     return (lv_coord_t)(area_p->x2 - area_p->x1 + 1);
 1520              		.loc 2 125 0
 1521 00c8 CEEB0303 		rsb	r3, lr, r3
 1522 00cc 0133     		adds	r3, r3, #1
 1523 00ce 1BB2     		sxth	r3, r3
 1524              	.LVL122:
 1525              	.LBE29:
 1526              	.LBE28:
 101:..\..\..\arduinoLCD\test\Pain Drain\libraries\lvgl\src\draw\sw/lv_draw_sw_arc.c ****         lv_draw_mask_radius_init(&mask_in_param, &area_in, LV_RADIUS_CIRCLE, true);
 1527              		.loc 1 101 0
 1528 00d0 002B     		cmp	r3, #0
 1529 00d2 13DD     		ble	.L73
 1530              	.LVL123:
 1531              	.LBB30:
 1532              	.LBB31:
 126:c:\projects\paindrain\arduinolcd\test\pain drain\libraries\lvgl\src\misc\lv_area.h **** }
 127:c:\projects\paindrain\arduinolcd\test\pain drain\libraries\lvgl\src\misc\lv_area.h **** 
 128:c:\projects\paindrain\arduinolcd\test\pain drain\libraries\lvgl\src\misc\lv_area.h **** /**
 129:c:\projects\paindrain\arduinolcd\test\pain drain\libraries\lvgl\src\misc\lv_area.h ****  * Get the height of an area
 130:c:\projects\paindrain\arduinolcd\test\pain drain\libraries\lvgl\src\misc\lv_area.h ****  * @param area_p pointer to an area
 131:c:\projects\paindrain\arduinolcd\test\pain drain\libraries\lvgl\src\misc\lv_area.h ****  * @return the height of the area (if y1 == y2 -> height = 1)
 132:c:\projects\paindrain\arduinolcd\test\pain drain\libraries\lvgl\src\misc\lv_area.h ****  */
 133:c:\projects\paindrain\arduinolcd\test\pain drain\libraries\lvgl\src\misc\lv_area.h **** static inline lv_coord_t lv_area_get_height(const lv_area_t * area_p)
 134:c:\projects\paindrain\arduinolcd\test\pain drain\libraries\lvgl\src\misc\lv_area.h **** {
 135:c:\projects\paindrain\arduinolcd\test\pain drain\libraries\lvgl\src\misc\lv_area.h ****     return (lv_coord_t)(area_p->y2 - area_p->y1 + 1);
ARM GAS  C:\Users\haske\AppData\Local\Temp\ccxlcgkV.s 			page 40


 1533              		.loc 2 135 0
 1534 00d4 411A     		subs	r1, r0, r1
 1535 00d6 0131     		adds	r1, r1, #1
 1536 00d8 09B2     		sxth	r1, r1
 1537              	.LVL124:
 1538              	.LBE31:
 1539              	.LBE30:
 101:..\..\..\arduinoLCD\test\Pain Drain\libraries\lvgl\src\draw\sw/lv_draw_sw_arc.c ****         lv_draw_mask_radius_init(&mask_in_param, &area_in, LV_RADIUS_CIRCLE, true);
 1540              		.loc 1 101 0
 1541 00da 0029     		cmp	r1, #0
 1542 00dc 13DD     		ble	.L74
 102:..\..\..\arduinoLCD\test\Pain Drain\libraries\lvgl\src\draw\sw/lv_draw_sw_arc.c ****         mask_in_param_valid = true;
 1543              		.loc 1 102 0
 1544 00de 0123     		movs	r3, #1
 1545 00e0 47F6FF72 		movw	r2, #32767
 1546 00e4 3AA9     		add	r1, sp, #232
 1547 00e6 34A8     		add	r0, sp, #208
 1548 00e8 FFF7FEFF 		bl	lv_draw_mask_radius_init
 1549              	.LVL125:
 104:..\..\..\arduinoLCD\test\Pain Drain\libraries\lvgl\src\draw\sw/lv_draw_sw_arc.c ****     }
 1550              		.loc 1 104 0
 1551 00ec 0021     		movs	r1, #0
 1552 00ee 34A8     		add	r0, sp, #208
 1553 00f0 FFF7FEFF 		bl	lv_draw_mask_add
 1554              	.LVL126:
 1555 00f4 8346     		mov	fp, r0
 1556              	.LVL127:
 103:..\..\..\arduinoLCD\test\Pain Drain\libraries\lvgl\src\draw\sw/lv_draw_sw_arc.c ****         mask_in_id = lv_draw_mask_add(&mask_in_param, NULL);
 1557              		.loc 1 103 0
 1558 00f6 0123     		movs	r3, #1
 1559 00f8 0293     		str	r3, [sp, #8]
 1560 00fa 08E0     		b	.L56
 1561              	.LVL128:
 1562              	.L73:
 100:..\..\..\arduinoLCD\test\Pain Drain\libraries\lvgl\src\draw\sw/lv_draw_sw_arc.c ****     if(lv_area_get_width(&area_in) > 0 && lv_area_get_height(&area_in) > 0) {
 1563              		.loc 1 100 0
 1564 00fc 0023     		movs	r3, #0
 1565 00fe 0293     		str	r3, [sp, #8]
  98:..\..\..\arduinoLCD\test\Pain Drain\libraries\lvgl\src\draw\sw/lv_draw_sw_arc.c ****     lv_draw_mask_radius_param_t mask_in_param;
 1566              		.loc 1 98 0
 1567 0100 4FF0FF3B 		mov	fp, #-1
 1568 0104 03E0     		b	.L56
 1569              	.L74:
 100:..\..\..\arduinoLCD\test\Pain Drain\libraries\lvgl\src\draw\sw/lv_draw_sw_arc.c ****     if(lv_area_get_width(&area_in) > 0 && lv_area_get_height(&area_in) > 0) {
 1570              		.loc 1 100 0
 1571 0106 0023     		movs	r3, #0
 1572 0108 0293     		str	r3, [sp, #8]
  98:..\..\..\arduinoLCD\test\Pain Drain\libraries\lvgl\src\draw\sw/lv_draw_sw_arc.c ****     lv_draw_mask_radius_param_t mask_in_param;
 1573              		.loc 1 98 0
 1574 010a 4FF0FF3B 		mov	fp, #-1
 1575              	.LVL129:
 1576              	.L56:
 108:..\..\..\arduinoLCD\test\Pain Drain\libraries\lvgl\src\draw\sw/lv_draw_sw_arc.c ****     int16_t mask_out_id = lv_draw_mask_add(&mask_out_param, NULL);
 1577              		.loc 1 108 0
 1578 010e 0023     		movs	r3, #0
 1579 0110 47F6FF72 		movw	r2, #32767
 1580 0114 3CA9     		add	r1, sp, #240
ARM GAS  C:\Users\haske\AppData\Local\Temp\ccxlcgkV.s 			page 41


 1581 0116 2EA8     		add	r0, sp, #184
 1582 0118 FFF7FEFF 		bl	lv_draw_mask_radius_init
 1583              	.LVL130:
 109:..\..\..\arduinoLCD\test\Pain Drain\libraries\lvgl\src\draw\sw/lv_draw_sw_arc.c **** 
 1584              		.loc 1 109 0
 1585 011c 0021     		movs	r1, #0
 1586 011e 2EA8     		add	r0, sp, #184
 1587 0120 FFF7FEFF 		bl	lv_draw_mask_add
 1588              	.LVL131:
 1589 0124 0390     		str	r0, [sp, #12]
 1590              	.LVL132:
 112:..\..\..\arduinoLCD\test\Pain Drain\libraries\lvgl\src\draw\sw/lv_draw_sw_arc.c ****         cir_dsc.radius = LV_RADIUS_CIRCLE;
 1591              		.loc 1 112 0
 1592 0126 05F5B473 		add	r3, r5, #360
 1593 012a A342     		cmp	r3, r4
 1594 012c 03D0     		beq	.L57
 112:..\..\..\arduinoLCD\test\Pain Drain\libraries\lvgl\src\draw\sw/lv_draw_sw_arc.c ****         cir_dsc.radius = LV_RADIUS_CIRCLE;
 1595              		.loc 1 112 0 is_stmt 0 discriminator 1
 1596 012e 04F5B473 		add	r3, r4, #360
 1597 0132 9D42     		cmp	r5, r3
 1598 0134 1FD1     		bne	.L58
 1599              	.L57:
 113:..\..\..\arduinoLCD\test\Pain Drain\libraries\lvgl\src\draw\sw/lv_draw_sw_arc.c ****         lv_draw_rect(draw_ctx, &cir_dsc, &area_out);
 1600              		.loc 1 113 0 is_stmt 1
 1601 0136 47F6FF73 		movw	r3, #32767
 1602 013a ADF8F830 		strh	r3, [sp, #248]	@ movhi
 114:..\..\..\arduinoLCD\test\Pain Drain\libraries\lvgl\src\draw\sw/lv_draw_sw_arc.c **** 
 1603              		.loc 1 114 0
 1604 013e 3CAA     		add	r2, sp, #240
 1605 0140 3EA9     		add	r1, sp, #248
 1606 0142 4846     		mov	r0, r9
 1607 0144 FFF7FEFF 		bl	lv_draw_rect
 1608              	.LVL133:
 116:..\..\..\arduinoLCD\test\Pain Drain\libraries\lvgl\src\draw\sw/lv_draw_sw_arc.c ****         if(mask_in_id != LV_MASK_ID_INV) lv_draw_mask_remove_id(mask_in_id);
 1609              		.loc 1 116 0
 1610 0148 0398     		ldr	r0, [sp, #12]
 1611 014a FFF7FEFF 		bl	lv_draw_mask_remove_id
 1612              	.LVL134:
 117:..\..\..\arduinoLCD\test\Pain Drain\libraries\lvgl\src\draw\sw/lv_draw_sw_arc.c **** 
 1613              		.loc 1 117 0
 1614 014e BBF1FF3F 		cmp	fp, #-1
 1615 0152 02D0     		beq	.L59
 117:..\..\..\arduinoLCD\test\Pain Drain\libraries\lvgl\src\draw\sw/lv_draw_sw_arc.c **** 
 1616              		.loc 1 117 0 is_stmt 0 discriminator 1
 1617 0154 5846     		mov	r0, fp
 1618 0156 FFF7FEFF 		bl	lv_draw_mask_remove_id
 1619              	.LVL135:
 1620              	.L59:
 119:..\..\..\arduinoLCD\test\Pain Drain\libraries\lvgl\src\draw\sw/lv_draw_sw_arc.c ****         if(mask_in_param_valid) {
 1621              		.loc 1 119 0 is_stmt 1
 1622 015a 2EA8     		add	r0, sp, #184
 1623 015c FFF7FEFF 		bl	lv_draw_mask_free_param
 1624              	.LVL136:
 120:..\..\..\arduinoLCD\test\Pain Drain\libraries\lvgl\src\draw\sw/lv_draw_sw_arc.c ****             lv_draw_mask_free_param(&mask_in_param);
 1625              		.loc 1 120 0
 1626 0160 029B     		ldr	r3, [sp, #8]
 1627 0162 002B     		cmp	r3, #0
ARM GAS  C:\Users\haske\AppData\Local\Temp\ccxlcgkV.s 			page 42


 1628 0164 00F00081 		beq	.L51
 121:..\..\..\arduinoLCD\test\Pain Drain\libraries\lvgl\src\draw\sw/lv_draw_sw_arc.c ****         }
 1629              		.loc 1 121 0
 1630 0168 34A8     		add	r0, sp, #208
 1631 016a FFF7FEFF 		bl	lv_draw_mask_free_param
 1632              	.LVL137:
 1633 016e FBE0     		b	.L51
 1634              	.LVL138:
 1635              	.L60:
 127:..\..\..\arduinoLCD\test\Pain Drain\libraries\lvgl\src\draw\sw/lv_draw_sw_arc.c ****     while(end_angle >= 360) end_angle -= 360;
 1636              		.loc 1 127 0 discriminator 2
 1637 0170 A5F5B475 		sub	r5, r5, #360
 1638              	.LVL139:
 1639 0174 ADB2     		uxth	r5, r5
 1640              	.LVL140:
 1641              	.L58:
 127:..\..\..\arduinoLCD\test\Pain Drain\libraries\lvgl\src\draw\sw/lv_draw_sw_arc.c ****     while(end_angle >= 360) end_angle -= 360;
 1642              		.loc 1 127 0 is_stmt 0 discriminator 1
 1643 0176 B5F5B47F 		cmp	r5, #360
 1644 017a F9D2     		bcs	.L60
 1645 017c 02E0     		b	.L61
 1646              	.LVL141:
 1647              	.L62:
 128:..\..\..\arduinoLCD\test\Pain Drain\libraries\lvgl\src\draw\sw/lv_draw_sw_arc.c **** 
 1648              		.loc 1 128 0 is_stmt 1 discriminator 2
 1649 017e A4F5B474 		sub	r4, r4, #360
 1650              	.LVL142:
 1651 0182 A4B2     		uxth	r4, r4
 1652              	.LVL143:
 1653              	.L61:
 128:..\..\..\arduinoLCD\test\Pain Drain\libraries\lvgl\src\draw\sw/lv_draw_sw_arc.c **** 
 1654              		.loc 1 128 0 is_stmt 0 discriminator 1
 1655 0184 B4F5B47F 		cmp	r4, #360
 1656 0188 F9D2     		bcs	.L62
 131:..\..\..\arduinoLCD\test\Pain Drain\libraries\lvgl\src\draw\sw/lv_draw_sw_arc.c ****     int16_t mask_angle_id = lv_draw_mask_add(&mask_angle_param, NULL);
 1657              		.loc 1 131 0 is_stmt 1
 1658 018a 2BB2     		sxth	r3, r5
 1659 018c 0693     		str	r3, [sp, #24]
 1660 018e 22B2     		sxth	r2, r4
 1661 0190 1046     		mov	r0, r2
 1662 0192 0792     		str	r2, [sp, #28]
 1663 0194 B8F90220 		ldrsh	r2, [r8, #2]
 1664 0198 B8F90010 		ldrsh	r1, [r8]
 1665 019c 0090     		str	r0, [sp]
 1666 019e 13A8     		add	r0, sp, #76
 1667 01a0 FFF7FEFF 		bl	lv_draw_mask_angle_init
 1668              	.LVL144:
 132:..\..\..\arduinoLCD\test\Pain Drain\libraries\lvgl\src\draw\sw/lv_draw_sw_arc.c **** 
 1669              		.loc 1 132 0
 1670 01a4 0021     		movs	r1, #0
 1671 01a6 13A8     		add	r0, sp, #76
 1672 01a8 FFF7FEFF 		bl	lv_draw_mask_add
 1673              	.LVL145:
 1674 01ac 0590     		str	r0, [sp, #20]
 1675              	.LVL146:
 135:..\..\..\arduinoLCD\test\Pain Drain\libraries\lvgl\src\draw\sw/lv_draw_sw_arc.c ****         angle_gap = 360 - (end_angle - start_angle);
 1676              		.loc 1 135 0
ARM GAS  C:\Users\haske\AppData\Local\Temp\ccxlcgkV.s 			page 43


 1677 01ae A542     		cmp	r5, r4
 1678 01b0 03D2     		bcs	.L63
 136:..\..\..\arduinoLCD\test\Pain Drain\libraries\lvgl\src\draw\sw/lv_draw_sw_arc.c ****     }
 1679              		.loc 1 136 0
 1680 01b2 631B     		subs	r3, r4, r5
 1681 01b4 C3F5B473 		rsb	r3, r3, #360
 1682              	.LVL147:
 1683 01b8 00E0     		b	.L64
 1684              	.LVL148:
 1685              	.L63:
 139:..\..\..\arduinoLCD\test\Pain Drain\libraries\lvgl\src\draw\sw/lv_draw_sw_arc.c ****     }
 1686              		.loc 1 139 0
 1687 01ba 2B1B     		subs	r3, r5, r4
 1688              	.LVL149:
 1689              	.L64:
 142:..\..\..\arduinoLCD\test\Pain Drain\libraries\lvgl\src\draw\sw/lv_draw_sw_arc.c **** 
 1690              		.loc 1 142 0
 1691 01bc D9F80820 		ldr	r2, [r9, #8]
 1692 01c0 0492     		str	r2, [sp, #16]
 1693              	.LVL150:
 144:..\..\..\arduinoLCD\test\Pain Drain\libraries\lvgl\src\draw\sw/lv_draw_sw_arc.c ****         /*Handle each quarter individually and skip which is empty*/
 1694              		.loc 1 144 0
 1695 01c2 3C2B     		cmp	r3, #60
 1696 01c4 2DDD     		ble	.L65
 144:..\..\..\arduinoLCD\test\Pain Drain\libraries\lvgl\src\draw\sw/lv_draw_sw_arc.c ****         /*Handle each quarter individually and skip which is empty*/
 1697              		.loc 1 144 0 is_stmt 0 discriminator 1
 1698 01c6 0A2F     		cmp	r7, #10
 1699 01c8 2BD9     		bls	.L65
 1700              	.LBB32:
 147:..\..\..\arduinoLCD\test\Pain Drain\libraries\lvgl\src\draw\sw/lv_draw_sw_arc.c ****         q_dsc.radius = radius;
 1701              		.loc 1 147 0 is_stmt 1
 1702 01ca CDF83080 		str	r8, [sp, #48]
 148:..\..\..\arduinoLCD\test\Pain Drain\libraries\lvgl\src\draw\sw/lv_draw_sw_arc.c ****         q_dsc.start_angle = start_angle;
 1703              		.loc 1 148 0
 1704 01ce ADF83470 		strh	r7, [sp, #52]	@ movhi
 149:..\..\..\arduinoLCD\test\Pain Drain\libraries\lvgl\src\draw\sw/lv_draw_sw_arc.c ****         q_dsc.end_angle = end_angle;
 1705              		.loc 1 149 0
 1706 01d2 ADF83650 		strh	r5, [sp, #54]	@ movhi
 150:..\..\..\arduinoLCD\test\Pain Drain\libraries\lvgl\src\draw\sw/lv_draw_sw_arc.c ****         q_dsc.start_quarter = (start_angle / 90) & 0x3;
 1707              		.loc 1 150 0
 1708 01d6 ADF83840 		strh	r4, [sp, #56]	@ movhi
 151:..\..\..\arduinoLCD\test\Pain Drain\libraries\lvgl\src\draw\sw/lv_draw_sw_arc.c ****         q_dsc.end_quarter = (end_angle / 90) & 0x3;
 1709              		.loc 1 151 0
 1710 01da 6A08     		lsrs	r2, r5, #1
 1711              	.LVL151:
 1712 01dc 644B     		ldr	r3, .L77
 1713              	.LVL152:
 1714 01de A3FB0212 		umull	r1, r2, r3, r2
 1715 01e2 C2F34112 		ubfx	r2, r2, #5, #2
 1716 01e6 ADF83A20 		strh	r2, [sp, #58]	@ movhi
 152:..\..\..\arduinoLCD\test\Pain Drain\libraries\lvgl\src\draw\sw/lv_draw_sw_arc.c ****         q_dsc.width = width;
 1717              		.loc 1 152 0
 1718 01ea 6408     		lsrs	r4, r4, #1
 1719              	.LVL153:
 1720 01ec A3FB0423 		umull	r2, r3, r3, r4
 1721 01f0 C3F34113 		ubfx	r3, r3, #5, #2
 1722 01f4 ADF83C30 		strh	r3, [sp, #60]	@ movhi
ARM GAS  C:\Users\haske\AppData\Local\Temp\ccxlcgkV.s 			page 44


 153:..\..\..\arduinoLCD\test\Pain Drain\libraries\lvgl\src\draw\sw/lv_draw_sw_arc.c ****         q_dsc.draw_dsc = &cir_dsc;
 1723              		.loc 1 153 0
 1724 01f8 ADF83EA0 		strh	r10, [sp, #62]	@ movhi
 154:..\..\..\arduinoLCD\test\Pain Drain\libraries\lvgl\src\draw\sw/lv_draw_sw_arc.c ****         q_dsc.draw_area = &area_out;
 1725              		.loc 1 154 0
 1726 01fc 3EAB     		add	r3, sp, #248
 1727 01fe 1093     		str	r3, [sp, #64]
 155:..\..\..\arduinoLCD\test\Pain Drain\libraries\lvgl\src\draw\sw/lv_draw_sw_arc.c ****         q_dsc.draw_ctx = draw_ctx;
 1728              		.loc 1 155 0
 1729 0200 3CAB     		add	r3, sp, #240
 1730 0202 1193     		str	r3, [sp, #68]
 156:..\..\..\arduinoLCD\test\Pain Drain\libraries\lvgl\src\draw\sw/lv_draw_sw_arc.c **** 
 1731              		.loc 1 156 0
 1732 0204 CDF84890 		str	r9, [sp, #72]
 158:..\..\..\arduinoLCD\test\Pain Drain\libraries\lvgl\src\draw\sw/lv_draw_sw_arc.c ****         draw_quarter_1(&q_dsc);
 1733              		.loc 1 158 0
 1734 0208 0CA8     		add	r0, sp, #48
 1735 020a FFF7FEFF 		bl	draw_quarter_0
 1736              	.LVL154:
 159:..\..\..\arduinoLCD\test\Pain Drain\libraries\lvgl\src\draw\sw/lv_draw_sw_arc.c ****         draw_quarter_2(&q_dsc);
 1737              		.loc 1 159 0
 1738 020e 0CA8     		add	r0, sp, #48
 1739 0210 FFF7FEFF 		bl	draw_quarter_1
 1740              	.LVL155:
 160:..\..\..\arduinoLCD\test\Pain Drain\libraries\lvgl\src\draw\sw/lv_draw_sw_arc.c ****         draw_quarter_3(&q_dsc);
 1741              		.loc 1 160 0
 1742 0214 0CA8     		add	r0, sp, #48
 1743 0216 FFF7FEFF 		bl	draw_quarter_2
 1744              	.LVL156:
 161:..\..\..\arduinoLCD\test\Pain Drain\libraries\lvgl\src\draw\sw/lv_draw_sw_arc.c ****     }
 1745              		.loc 1 161 0
 1746 021a 0CA8     		add	r0, sp, #48
 1747 021c FFF7FEFF 		bl	draw_quarter_3
 1748              	.LVL157:
 1749              	.LBE32:
 144:..\..\..\arduinoLCD\test\Pain Drain\libraries\lvgl\src\draw\sw/lv_draw_sw_arc.c ****         /*Handle each quarter individually and skip which is empty*/
 1750              		.loc 1 144 0
 1751 0220 04E0     		b	.L66
 1752              	.LVL158:
 1753              	.L65:
 164:..\..\..\arduinoLCD\test\Pain Drain\libraries\lvgl\src\draw\sw/lv_draw_sw_arc.c ****     }
 1754              		.loc 1 164 0
 1755 0222 3CAA     		add	r2, sp, #240
 1756              	.LVL159:
 1757 0224 3EA9     		add	r1, sp, #248
 1758 0226 4846     		mov	r0, r9
 1759 0228 FFF7FEFF 		bl	lv_draw_rect
 1760              	.LVL160:
 1761              	.L66:
 167:..\..\..\arduinoLCD\test\Pain Drain\libraries\lvgl\src\draw\sw/lv_draw_sw_arc.c ****     lv_draw_mask_free_param(&mask_out_param);
 1762              		.loc 1 167 0
 1763 022c 13A8     		add	r0, sp, #76
 1764 022e FFF7FEFF 		bl	lv_draw_mask_free_param
 1765              	.LVL161:
 168:..\..\..\arduinoLCD\test\Pain Drain\libraries\lvgl\src\draw\sw/lv_draw_sw_arc.c ****     if(mask_in_param_valid) {
 1766              		.loc 1 168 0
 1767 0232 2EA8     		add	r0, sp, #184
ARM GAS  C:\Users\haske\AppData\Local\Temp\ccxlcgkV.s 			page 45


 1768 0234 FFF7FEFF 		bl	lv_draw_mask_free_param
 1769              	.LVL162:
 169:..\..\..\arduinoLCD\test\Pain Drain\libraries\lvgl\src\draw\sw/lv_draw_sw_arc.c ****         lv_draw_mask_free_param(&mask_in_param);
 1770              		.loc 1 169 0
 1771 0238 029B     		ldr	r3, [sp, #8]
 1772 023a 13B1     		cbz	r3, .L67
 170:..\..\..\arduinoLCD\test\Pain Drain\libraries\lvgl\src\draw\sw/lv_draw_sw_arc.c ****     }
 1773              		.loc 1 170 0
 1774 023c 34A8     		add	r0, sp, #208
 1775 023e FFF7FEFF 		bl	lv_draw_mask_free_param
 1776              	.LVL163:
 1777              	.L67:
 173:..\..\..\arduinoLCD\test\Pain Drain\libraries\lvgl\src\draw\sw/lv_draw_sw_arc.c ****     lv_draw_mask_remove_id(mask_out_id);
 1778              		.loc 1 173 0
 1779 0242 0598     		ldr	r0, [sp, #20]
 1780 0244 FFF7FEFF 		bl	lv_draw_mask_remove_id
 1781              	.LVL164:
 174:..\..\..\arduinoLCD\test\Pain Drain\libraries\lvgl\src\draw\sw/lv_draw_sw_arc.c ****     if(mask_in_id != LV_MASK_ID_INV) lv_draw_mask_remove_id(mask_in_id);
 1782              		.loc 1 174 0
 1783 0248 0398     		ldr	r0, [sp, #12]
 1784 024a FFF7FEFF 		bl	lv_draw_mask_remove_id
 1785              	.LVL165:
 175:..\..\..\arduinoLCD\test\Pain Drain\libraries\lvgl\src\draw\sw/lv_draw_sw_arc.c **** 
 1786              		.loc 1 175 0
 1787 024e BBF1FF3F 		cmp	fp, #-1
 1788 0252 02D0     		beq	.L68
 175:..\..\..\arduinoLCD\test\Pain Drain\libraries\lvgl\src\draw\sw/lv_draw_sw_arc.c **** 
 1789              		.loc 1 175 0 is_stmt 0 discriminator 1
 1790 0254 5846     		mov	r0, fp
 1791 0256 FFF7FEFF 		bl	lv_draw_mask_remove_id
 1792              	.LVL166:
 1793              	.L68:
 177:..\..\..\arduinoLCD\test\Pain Drain\libraries\lvgl\src\draw\sw/lv_draw_sw_arc.c **** 
 1794              		.loc 1 177 0 is_stmt 1
 1795 025a 737B     		ldrb	r3, [r6, #13]	@ zero_extendqisi2
 1796 025c 13F0040F 		tst	r3, #4
 1797 0260 00F08280 		beq	.L51
 1798              	.LBB33:
 182:..\..\..\arduinoLCD\test\Pain Drain\libraries\lvgl\src\draw\sw/lv_draw_sw_arc.c ****         round_area.x1 += center->x;
 1799              		.loc 1 182 0
 1800 0264 3FB2     		sxth	r7, r7
 1801 0266 5FFA8AFA 		uxtb	r10, r10
 1802              	.LVL167:
 1803 026a 08AB     		add	r3, sp, #32
 1804 026c 5246     		mov	r2, r10
 1805 026e 3946     		mov	r1, r7
 1806 0270 0698     		ldr	r0, [sp, #24]
 1807 0272 FFF7FEFF 		bl	get_rounded_area
 1808              	.LVL168:
 183:..\..\..\arduinoLCD\test\Pain Drain\libraries\lvgl\src\draw\sw/lv_draw_sw_arc.c ****         round_area.x2 += center->x;
 1809              		.loc 1 183 0
 1810 0276 B8F90010 		ldrsh	r1, [r8]
 1811 027a BDF82020 		ldrh	r2, [sp, #32]
 1812 027e 0A44     		add	r2, r2, r1
 1813 0280 ADF82020 		strh	r2, [sp, #32]	@ movhi
 184:..\..\..\arduinoLCD\test\Pain Drain\libraries\lvgl\src\draw\sw/lv_draw_sw_arc.c ****         round_area.y1 += center->y;
 1814              		.loc 1 184 0
ARM GAS  C:\Users\haske\AppData\Local\Temp\ccxlcgkV.s 			page 46


 1815 0284 BDF82430 		ldrh	r3, [sp, #36]
 1816 0288 0B44     		add	r3, r3, r1
 1817 028a ADF82430 		strh	r3, [sp, #36]	@ movhi
 185:..\..\..\arduinoLCD\test\Pain Drain\libraries\lvgl\src\draw\sw/lv_draw_sw_arc.c ****         round_area.y2 += center->y;
 1818              		.loc 1 185 0
 1819 028e B8F90210 		ldrsh	r1, [r8, #2]
 1820 0292 BDF82220 		ldrh	r2, [sp, #34]
 1821 0296 0A44     		add	r2, r2, r1
 1822 0298 ADF82220 		strh	r2, [sp, #34]	@ movhi
 186:..\..\..\arduinoLCD\test\Pain Drain\libraries\lvgl\src\draw\sw/lv_draw_sw_arc.c ****         lv_area_t clip_area2;
 1823              		.loc 1 186 0
 1824 029c BDF82630 		ldrh	r3, [sp, #38]
 1825 02a0 0B44     		add	r3, r3, r1
 1826 02a2 ADF82630 		strh	r3, [sp, #38]	@ movhi
 188:..\..\..\arduinoLCD\test\Pain Drain\libraries\lvgl\src\draw\sw/lv_draw_sw_arc.c ****             lv_draw_mask_radius_init(&mask_end_param, &round_area, LV_RADIUS_CIRCLE, false);
 1827              		.loc 1 188 0
 1828 02a6 08AA     		add	r2, sp, #32
 1829 02a8 0499     		ldr	r1, [sp, #16]
 1830 02aa 0AA8     		add	r0, sp, #40
 1831 02ac FFF7FEFF 		bl	_lv_area_intersect
 1832              	.LVL169:
 1833 02b0 C8B1     		cbz	r0, .L70
 1834              	.LBB34:
 189:..\..\..\arduinoLCD\test\Pain Drain\libraries\lvgl\src\draw\sw/lv_draw_sw_arc.c ****             int16_t mask_end_id = lv_draw_mask_add(&mask_end_param, NULL);
 1835              		.loc 1 189 0
 1836 02b2 0023     		movs	r3, #0
 1837 02b4 47F6FF72 		movw	r2, #32767
 1838 02b8 08A9     		add	r1, sp, #32
 1839 02ba 0CA8     		add	r0, sp, #48
 1840 02bc FFF7FEFF 		bl	lv_draw_mask_radius_init
 1841              	.LVL170:
 190:..\..\..\arduinoLCD\test\Pain Drain\libraries\lvgl\src\draw\sw/lv_draw_sw_arc.c **** 
 1842              		.loc 1 190 0
 1843 02c0 0021     		movs	r1, #0
 1844 02c2 0CA8     		add	r0, sp, #48
 1845 02c4 FFF7FEFF 		bl	lv_draw_mask_add
 1846              	.LVL171:
 1847 02c8 0446     		mov	r4, r0
 1848              	.LVL172:
 192:..\..\..\arduinoLCD\test\Pain Drain\libraries\lvgl\src\draw\sw/lv_draw_sw_arc.c ****             lv_draw_rect(draw_ctx, &cir_dsc, &area_out);
 1849              		.loc 1 192 0
 1850 02ca 0AAB     		add	r3, sp, #40
 1851 02cc C9F80830 		str	r3, [r9, #8]
 193:..\..\..\arduinoLCD\test\Pain Drain\libraries\lvgl\src\draw\sw/lv_draw_sw_arc.c ****             lv_draw_mask_remove_id(mask_end_id);
 1852              		.loc 1 193 0
 1853 02d0 3CAA     		add	r2, sp, #240
 1854 02d2 3EA9     		add	r1, sp, #248
 1855 02d4 4846     		mov	r0, r9
 1856 02d6 FFF7FEFF 		bl	lv_draw_rect
 1857              	.LVL173:
 194:..\..\..\arduinoLCD\test\Pain Drain\libraries\lvgl\src\draw\sw/lv_draw_sw_arc.c ****             lv_draw_mask_free_param(&mask_end_param);
 1858              		.loc 1 194 0
 1859 02da 2046     		mov	r0, r4
 1860 02dc FFF7FEFF 		bl	lv_draw_mask_remove_id
 1861              	.LVL174:
 195:..\..\..\arduinoLCD\test\Pain Drain\libraries\lvgl\src\draw\sw/lv_draw_sw_arc.c ****         }
 1862              		.loc 1 195 0
ARM GAS  C:\Users\haske\AppData\Local\Temp\ccxlcgkV.s 			page 47


 1863 02e0 0CA8     		add	r0, sp, #48
 1864 02e2 FFF7FEFF 		bl	lv_draw_mask_free_param
 1865              	.LVL175:
 1866              	.L70:
 1867              	.LBE34:
 198:..\..\..\arduinoLCD\test\Pain Drain\libraries\lvgl\src\draw\sw/lv_draw_sw_arc.c ****         round_area.x1 += center->x;
 1868              		.loc 1 198 0
 1869 02e6 08AB     		add	r3, sp, #32
 1870 02e8 5246     		mov	r2, r10
 1871 02ea 3946     		mov	r1, r7
 1872 02ec 0798     		ldr	r0, [sp, #28]
 1873 02ee FFF7FEFF 		bl	get_rounded_area
 1874              	.LVL176:
 199:..\..\..\arduinoLCD\test\Pain Drain\libraries\lvgl\src\draw\sw/lv_draw_sw_arc.c ****         round_area.x2 += center->x;
 1875              		.loc 1 199 0
 1876 02f2 B8F90010 		ldrsh	r1, [r8]
 1877 02f6 BDF82020 		ldrh	r2, [sp, #32]
 1878 02fa 0A44     		add	r2, r2, r1
 1879 02fc ADF82020 		strh	r2, [sp, #32]	@ movhi
 200:..\..\..\arduinoLCD\test\Pain Drain\libraries\lvgl\src\draw\sw/lv_draw_sw_arc.c ****         round_area.y1 += center->y;
 1880              		.loc 1 200 0
 1881 0300 BDF82430 		ldrh	r3, [sp, #36]
 1882 0304 0B44     		add	r3, r3, r1
 1883 0306 ADF82430 		strh	r3, [sp, #36]	@ movhi
 201:..\..\..\arduinoLCD\test\Pain Drain\libraries\lvgl\src\draw\sw/lv_draw_sw_arc.c ****         round_area.y2 += center->y;
 1884              		.loc 1 201 0
 1885 030a B8F90210 		ldrsh	r1, [r8, #2]
 1886 030e BDF82220 		ldrh	r2, [sp, #34]
 1887 0312 0A44     		add	r2, r2, r1
 1888 0314 ADF82220 		strh	r2, [sp, #34]	@ movhi
 202:..\..\..\arduinoLCD\test\Pain Drain\libraries\lvgl\src\draw\sw/lv_draw_sw_arc.c ****         if(_lv_area_intersect(&clip_area2, clip_area_ori, &round_area)) {
 1889              		.loc 1 202 0
 1890 0318 BDF82630 		ldrh	r3, [sp, #38]
 1891 031c 0B44     		add	r3, r3, r1
 1892 031e ADF82630 		strh	r3, [sp, #38]	@ movhi
 203:..\..\..\arduinoLCD\test\Pain Drain\libraries\lvgl\src\draw\sw/lv_draw_sw_arc.c ****             lv_draw_mask_radius_init(&mask_end_param, &round_area, LV_RADIUS_CIRCLE, false);
 1893              		.loc 1 203 0
 1894 0322 08AA     		add	r2, sp, #32
 1895 0324 0499     		ldr	r1, [sp, #16]
 1896 0326 0AA8     		add	r0, sp, #40
 1897 0328 FFF7FEFF 		bl	_lv_area_intersect
 1898              	.LVL177:
 1899 032c C8B1     		cbz	r0, .L71
 1900              	.LBB35:
 204:..\..\..\arduinoLCD\test\Pain Drain\libraries\lvgl\src\draw\sw/lv_draw_sw_arc.c ****             int16_t mask_end_id = lv_draw_mask_add(&mask_end_param, NULL);
 1901              		.loc 1 204 0
 1902 032e 0023     		movs	r3, #0
 1903 0330 47F6FF72 		movw	r2, #32767
 1904 0334 08A9     		add	r1, sp, #32
 1905 0336 0CA8     		add	r0, sp, #48
 1906 0338 FFF7FEFF 		bl	lv_draw_mask_radius_init
 1907              	.LVL178:
 205:..\..\..\arduinoLCD\test\Pain Drain\libraries\lvgl\src\draw\sw/lv_draw_sw_arc.c **** 
 1908              		.loc 1 205 0
 1909 033c 0021     		movs	r1, #0
 1910 033e 0CA8     		add	r0, sp, #48
 1911 0340 FFF7FEFF 		bl	lv_draw_mask_add
ARM GAS  C:\Users\haske\AppData\Local\Temp\ccxlcgkV.s 			page 48


 1912              	.LVL179:
 1913 0344 0446     		mov	r4, r0
 1914              	.LVL180:
 207:..\..\..\arduinoLCD\test\Pain Drain\libraries\lvgl\src\draw\sw/lv_draw_sw_arc.c ****             lv_draw_rect(draw_ctx, &cir_dsc, &area_out);
 1915              		.loc 1 207 0
 1916 0346 0AAB     		add	r3, sp, #40
 1917 0348 C9F80830 		str	r3, [r9, #8]
 208:..\..\..\arduinoLCD\test\Pain Drain\libraries\lvgl\src\draw\sw/lv_draw_sw_arc.c ****             lv_draw_mask_remove_id(mask_end_id);
 1918              		.loc 1 208 0
 1919 034c 3CAA     		add	r2, sp, #240
 1920 034e 3EA9     		add	r1, sp, #248
 1921 0350 4846     		mov	r0, r9
 1922 0352 FFF7FEFF 		bl	lv_draw_rect
 1923              	.LVL181:
 209:..\..\..\arduinoLCD\test\Pain Drain\libraries\lvgl\src\draw\sw/lv_draw_sw_arc.c ****             lv_draw_mask_free_param(&mask_end_param);
 1924              		.loc 1 209 0
 1925 0356 2046     		mov	r0, r4
 1926 0358 FFF7FEFF 		bl	lv_draw_mask_remove_id
 1927              	.LVL182:
 210:..\..\..\arduinoLCD\test\Pain Drain\libraries\lvgl\src\draw\sw/lv_draw_sw_arc.c ****         }
 1928              		.loc 1 210 0
 1929 035c 0CA8     		add	r0, sp, #48
 1930 035e FFF7FEFF 		bl	lv_draw_mask_free_param
 1931              	.LVL183:
 1932              	.L71:
 1933              	.LBE35:
 212:..\..\..\arduinoLCD\test\Pain Drain\libraries\lvgl\src\draw\sw/lv_draw_sw_arc.c ****     }
 1934              		.loc 1 212 0
 1935 0362 049B     		ldr	r3, [sp, #16]
 1936 0364 C9F80830 		str	r3, [r9, #8]
 1937              	.LVL184:
 1938              	.L51:
 1939              	.LBE33:
 223:..\..\..\arduinoLCD\test\Pain Drain\libraries\lvgl\src\draw\sw/lv_draw_sw_arc.c **** 
 1940              		.loc 1 223 0
 1941 0368 4DB0     		add	sp, sp, #308
 1942              		.cfi_def_cfa_offset 36
 1943              		@ sp needed
 1944 036a BDE8F08F 		pop	{r4, r5, r6, r7, r8, r9, r10, fp, pc}
 1945              	.L78:
 1946 036e 00BF     		.align	2
 1947              	.L77:
 1948 0370 B7600BB6 		.word	-1240768329
 1949              		.cfi_endproc
 1950              	.LFE56:
 1951              		.size	lv_draw_sw_arc, .-lv_draw_sw_arc
 1952              		.text
 1953              	.Letext0:
 1954              		.file 3 "c:\\program files (x86)\\cypress\\psoc creator\\4.4\\psoc creator\\import\\gnu\\arm\\5.4.
 1955              		.file 4 "c:\\program files (x86)\\cypress\\psoc creator\\4.4\\psoc creator\\import\\gnu\\arm\\5.4.
 1956              		.file 5 "c:\\projects\\paindrain\\arduinolcd\\test\\pain drain\\libraries\\lvgl\\src\\misc\\lv_typ
 1957              		.file 6 "c:\\program files (x86)\\cypress\\psoc creator\\4.4\\psoc creator\\import\\gnu\\arm\\5.4.
 1958              		.file 7 "c:\\projects\\paindrain\\arduinolcd\\test\\pain drain\\libraries\\lvgl\\src\\misc\\lv_col
 1959              		.file 8 "c:\\projects\\paindrain\\arduinolcd\\test\\pain drain\\libraries\\lvgl\\src\\font\\lv_fon
 1960              		.file 9 "c:\\projects\\paindrain\\arduinolcd\\test\\pain drain\\libraries\\lvgl\\src\\misc\\lv_txt
 1961              		.file 10 "c:\\projects\\paindrain\\arduinolcd\\test\\pain drain\\libraries\\lvgl\\src\\misc\\lv_bi
 1962              		.file 11 "c:\\projects\\paindrain\\arduinolcd\\test\\pain drain\\libraries\\lvgl\\src\\misc\\lv_st
ARM GAS  C:\Users\haske\AppData\Local\Temp\ccxlcgkV.s 			page 49


 1963              		.file 12 "..\\..\\..\\arduinoLCD\\test\\Pain Drain\\libraries\\lvgl\\src\\draw\\sw\\../lv_draw_mas
 1964              		.file 13 "..\\..\\..\\arduinoLCD\\test\\Pain Drain\\libraries\\lvgl\\src\\draw\\sw\\../lv_img_buf.
 1965              		.file 14 "..\\..\\..\\arduinoLCD\\test\\Pain Drain\\libraries\\lvgl\\src\\draw\\sw\\../lv_draw_rec
 1966              		.file 15 "..\\..\\..\\arduinoLCD\\test\\Pain Drain\\libraries\\lvgl\\src\\draw\\sw\\../lv_draw_lab
 1967              		.file 16 "..\\..\\..\\arduinoLCD\\test\\Pain Drain\\libraries\\lvgl\\src\\draw\\sw\\../lv_draw_img
 1968              		.file 17 "..\\..\\..\\arduinoLCD\\test\\Pain Drain\\libraries\\lvgl\\src\\draw\\sw\\../lv_draw_lin
 1969              		.file 18 "..\\..\\..\\arduinoLCD\\test\\Pain Drain\\libraries\\lvgl\\src\\draw\\sw\\../lv_draw_arc
 1970              		.file 19 "..\\..\\..\\arduinoLCD\\test\\Pain Drain\\libraries\\lvgl\\src\\draw\\sw\\../lv_draw_lay
 1971              		.file 20 "..\\..\\..\\arduinoLCD\\test\\Pain Drain\\libraries\\lvgl\\src\\draw\\sw\\../lv_draw.h"
 1972              		.file 21 "c:\\projects\\paindrain\\arduinolcd\\test\\pain drain\\libraries\\lvgl\\src\\misc\\lv_ma