ARM GAS  C:\Users\haske\AppData\Local\Temp\ccmIjDGo.s 			page 1


   1              		.syntax unified
   2              		.cpu cortex-m4
   3              		.eabi_attribute 27, 1
   4              		.fpu fpv4-sp-d16
   5              		.eabi_attribute 20, 1
   6              		.eabi_attribute 21, 1
   7              		.eabi_attribute 23, 3
   8              		.eabi_attribute 24, 1
   9              		.eabi_attribute 25, 1
  10              		.eabi_attribute 26, 1
  11              		.eabi_attribute 30, 1
  12              		.eabi_attribute 34, 1
  13              		.eabi_attribute 18, 4
  14              		.thumb
  15              		.syntax unified
  16              		.file	"lv_draw_label.c"
  17              		.text
  18              	.Ltext0:
  19              		.cfi_sections	.debug_frame
  20              		.section	.text.hex_char_to_num,"ax",%progbits
  21              		.align	2
  22              		.thumb
  23              		.thumb_func
  24              		.type	hex_char_to_num, %function
  25              	hex_char_to_num:
  26              	.LFB162:
  27              		.file 1 "..\\..\\..\\arduinoLCD\\test\\Pain Drain\\libraries\\lvgl\\src\\draw\\lv_draw_label.c"
   1:..\..\..\arduinoLCD\test\Pain Drain\libraries\lvgl\src\draw/lv_draw_label.c **** /**
   2:..\..\..\arduinoLCD\test\Pain Drain\libraries\lvgl\src\draw/lv_draw_label.c ****  * @file lv_draw_label.c
   3:..\..\..\arduinoLCD\test\Pain Drain\libraries\lvgl\src\draw/lv_draw_label.c ****  *
   4:..\..\..\arduinoLCD\test\Pain Drain\libraries\lvgl\src\draw/lv_draw_label.c ****  */
   5:..\..\..\arduinoLCD\test\Pain Drain\libraries\lvgl\src\draw/lv_draw_label.c **** 
   6:..\..\..\arduinoLCD\test\Pain Drain\libraries\lvgl\src\draw/lv_draw_label.c **** /*********************
   7:..\..\..\arduinoLCD\test\Pain Drain\libraries\lvgl\src\draw/lv_draw_label.c ****  *      INCLUDES
   8:..\..\..\arduinoLCD\test\Pain Drain\libraries\lvgl\src\draw/lv_draw_label.c ****  *********************/
   9:..\..\..\arduinoLCD\test\Pain Drain\libraries\lvgl\src\draw/lv_draw_label.c **** #include "lv_draw.h"
  10:..\..\..\arduinoLCD\test\Pain Drain\libraries\lvgl\src\draw/lv_draw_label.c **** #include "lv_draw_label.h"
  11:..\..\..\arduinoLCD\test\Pain Drain\libraries\lvgl\src\draw/lv_draw_label.c **** #include "../misc/lv_math.h"
  12:..\..\..\arduinoLCD\test\Pain Drain\libraries\lvgl\src\draw/lv_draw_label.c **** #include "../hal/lv_hal_disp.h"
  13:..\..\..\arduinoLCD\test\Pain Drain\libraries\lvgl\src\draw/lv_draw_label.c **** #include "../core/lv_refr.h"
  14:..\..\..\arduinoLCD\test\Pain Drain\libraries\lvgl\src\draw/lv_draw_label.c **** #include "../misc/lv_bidi.h"
  15:..\..\..\arduinoLCD\test\Pain Drain\libraries\lvgl\src\draw/lv_draw_label.c **** #include "../misc/lv_assert.h"
  16:..\..\..\arduinoLCD\test\Pain Drain\libraries\lvgl\src\draw/lv_draw_label.c **** 
  17:..\..\..\arduinoLCD\test\Pain Drain\libraries\lvgl\src\draw/lv_draw_label.c **** /*********************
  18:..\..\..\arduinoLCD\test\Pain Drain\libraries\lvgl\src\draw/lv_draw_label.c ****  *      DEFINES
  19:..\..\..\arduinoLCD\test\Pain Drain\libraries\lvgl\src\draw/lv_draw_label.c ****  *********************/
  20:..\..\..\arduinoLCD\test\Pain Drain\libraries\lvgl\src\draw/lv_draw_label.c **** #define LABEL_RECOLOR_PAR_LENGTH 6
  21:..\..\..\arduinoLCD\test\Pain Drain\libraries\lvgl\src\draw/lv_draw_label.c **** #define LV_LABEL_HINT_UPDATE_TH 1024 /*Update the "hint" if the label's y coordinates have changed 
  22:..\..\..\arduinoLCD\test\Pain Drain\libraries\lvgl\src\draw/lv_draw_label.c **** 
  23:..\..\..\arduinoLCD\test\Pain Drain\libraries\lvgl\src\draw/lv_draw_label.c **** /**********************
  24:..\..\..\arduinoLCD\test\Pain Drain\libraries\lvgl\src\draw/lv_draw_label.c ****  *      TYPEDEFS
  25:..\..\..\arduinoLCD\test\Pain Drain\libraries\lvgl\src\draw/lv_draw_label.c ****  **********************/
  26:..\..\..\arduinoLCD\test\Pain Drain\libraries\lvgl\src\draw/lv_draw_label.c **** enum {
  27:..\..\..\arduinoLCD\test\Pain Drain\libraries\lvgl\src\draw/lv_draw_label.c ****     CMD_STATE_WAIT,
  28:..\..\..\arduinoLCD\test\Pain Drain\libraries\lvgl\src\draw/lv_draw_label.c ****     CMD_STATE_PAR,
  29:..\..\..\arduinoLCD\test\Pain Drain\libraries\lvgl\src\draw/lv_draw_label.c ****     CMD_STATE_IN,
  30:..\..\..\arduinoLCD\test\Pain Drain\libraries\lvgl\src\draw/lv_draw_label.c **** };
ARM GAS  C:\Users\haske\AppData\Local\Temp\ccmIjDGo.s 			page 2


  31:..\..\..\arduinoLCD\test\Pain Drain\libraries\lvgl\src\draw/lv_draw_label.c **** typedef uint8_t cmd_state_t;
  32:..\..\..\arduinoLCD\test\Pain Drain\libraries\lvgl\src\draw/lv_draw_label.c **** 
  33:..\..\..\arduinoLCD\test\Pain Drain\libraries\lvgl\src\draw/lv_draw_label.c **** /**********************
  34:..\..\..\arduinoLCD\test\Pain Drain\libraries\lvgl\src\draw/lv_draw_label.c ****  *  STATIC PROTOTYPES
  35:..\..\..\arduinoLCD\test\Pain Drain\libraries\lvgl\src\draw/lv_draw_label.c ****  **********************/
  36:..\..\..\arduinoLCD\test\Pain Drain\libraries\lvgl\src\draw/lv_draw_label.c **** 
  37:..\..\..\arduinoLCD\test\Pain Drain\libraries\lvgl\src\draw/lv_draw_label.c **** static uint8_t hex_char_to_num(char hex);
  38:..\..\..\arduinoLCD\test\Pain Drain\libraries\lvgl\src\draw/lv_draw_label.c **** 
  39:..\..\..\arduinoLCD\test\Pain Drain\libraries\lvgl\src\draw/lv_draw_label.c **** /**********************
  40:..\..\..\arduinoLCD\test\Pain Drain\libraries\lvgl\src\draw/lv_draw_label.c ****  *  STATIC VARIABLES
  41:..\..\..\arduinoLCD\test\Pain Drain\libraries\lvgl\src\draw/lv_draw_label.c ****  **********************/
  42:..\..\..\arduinoLCD\test\Pain Drain\libraries\lvgl\src\draw/lv_draw_label.c **** 
  43:..\..\..\arduinoLCD\test\Pain Drain\libraries\lvgl\src\draw/lv_draw_label.c **** /**********************
  44:..\..\..\arduinoLCD\test\Pain Drain\libraries\lvgl\src\draw/lv_draw_label.c ****  *  GLOBAL VARIABLES
  45:..\..\..\arduinoLCD\test\Pain Drain\libraries\lvgl\src\draw/lv_draw_label.c ****  **********************/
  46:..\..\..\arduinoLCD\test\Pain Drain\libraries\lvgl\src\draw/lv_draw_label.c **** 
  47:..\..\..\arduinoLCD\test\Pain Drain\libraries\lvgl\src\draw/lv_draw_label.c **** /**********************
  48:..\..\..\arduinoLCD\test\Pain Drain\libraries\lvgl\src\draw/lv_draw_label.c ****  *      MACROS
  49:..\..\..\arduinoLCD\test\Pain Drain\libraries\lvgl\src\draw/lv_draw_label.c ****  **********************/
  50:..\..\..\arduinoLCD\test\Pain Drain\libraries\lvgl\src\draw/lv_draw_label.c **** 
  51:..\..\..\arduinoLCD\test\Pain Drain\libraries\lvgl\src\draw/lv_draw_label.c **** /**********************
  52:..\..\..\arduinoLCD\test\Pain Drain\libraries\lvgl\src\draw/lv_draw_label.c ****  *   GLOBAL FUNCTIONS
  53:..\..\..\arduinoLCD\test\Pain Drain\libraries\lvgl\src\draw/lv_draw_label.c ****  **********************/
  54:..\..\..\arduinoLCD\test\Pain Drain\libraries\lvgl\src\draw/lv_draw_label.c **** 
  55:..\..\..\arduinoLCD\test\Pain Drain\libraries\lvgl\src\draw/lv_draw_label.c **** void lv_draw_label_dsc_init(lv_draw_label_dsc_t * dsc)
  56:..\..\..\arduinoLCD\test\Pain Drain\libraries\lvgl\src\draw/lv_draw_label.c **** {
  57:..\..\..\arduinoLCD\test\Pain Drain\libraries\lvgl\src\draw/lv_draw_label.c ****     lv_memset_00(dsc, sizeof(lv_draw_label_dsc_t));
  58:..\..\..\arduinoLCD\test\Pain Drain\libraries\lvgl\src\draw/lv_draw_label.c ****     dsc->opa = LV_OPA_COVER;
  59:..\..\..\arduinoLCD\test\Pain Drain\libraries\lvgl\src\draw/lv_draw_label.c ****     dsc->color = lv_color_black();
  60:..\..\..\arduinoLCD\test\Pain Drain\libraries\lvgl\src\draw/lv_draw_label.c ****     dsc->font = LV_FONT_DEFAULT;
  61:..\..\..\arduinoLCD\test\Pain Drain\libraries\lvgl\src\draw/lv_draw_label.c ****     dsc->sel_start = LV_DRAW_LABEL_NO_TXT_SEL;
  62:..\..\..\arduinoLCD\test\Pain Drain\libraries\lvgl\src\draw/lv_draw_label.c ****     dsc->sel_end = LV_DRAW_LABEL_NO_TXT_SEL;
  63:..\..\..\arduinoLCD\test\Pain Drain\libraries\lvgl\src\draw/lv_draw_label.c ****     dsc->sel_color = lv_color_black();
  64:..\..\..\arduinoLCD\test\Pain Drain\libraries\lvgl\src\draw/lv_draw_label.c ****     dsc->sel_bg_color = lv_palette_main(LV_PALETTE_BLUE);
  65:..\..\..\arduinoLCD\test\Pain Drain\libraries\lvgl\src\draw/lv_draw_label.c ****     dsc->bidi_dir = LV_BASE_DIR_LTR;
  66:..\..\..\arduinoLCD\test\Pain Drain\libraries\lvgl\src\draw/lv_draw_label.c **** }
  67:..\..\..\arduinoLCD\test\Pain Drain\libraries\lvgl\src\draw/lv_draw_label.c **** 
  68:..\..\..\arduinoLCD\test\Pain Drain\libraries\lvgl\src\draw/lv_draw_label.c **** /**
  69:..\..\..\arduinoLCD\test\Pain Drain\libraries\lvgl\src\draw/lv_draw_label.c ****  * Write a text
  70:..\..\..\arduinoLCD\test\Pain Drain\libraries\lvgl\src\draw/lv_draw_label.c ****  * @param coords coordinates of the label
  71:..\..\..\arduinoLCD\test\Pain Drain\libraries\lvgl\src\draw/lv_draw_label.c ****  * @param mask the label will be drawn only in this area
  72:..\..\..\arduinoLCD\test\Pain Drain\libraries\lvgl\src\draw/lv_draw_label.c ****  * @param dsc pointer to draw descriptor
  73:..\..\..\arduinoLCD\test\Pain Drain\libraries\lvgl\src\draw/lv_draw_label.c ****  * @param txt `\0` terminated text to write
  74:..\..\..\arduinoLCD\test\Pain Drain\libraries\lvgl\src\draw/lv_draw_label.c ****  * @param hint pointer to a `lv_draw_label_hint_t` variable.
  75:..\..\..\arduinoLCD\test\Pain Drain\libraries\lvgl\src\draw/lv_draw_label.c ****  * It is managed by the draw to speed up the drawing of very long texts (thousands of lines).
  76:..\..\..\arduinoLCD\test\Pain Drain\libraries\lvgl\src\draw/lv_draw_label.c ****  */
  77:..\..\..\arduinoLCD\test\Pain Drain\libraries\lvgl\src\draw/lv_draw_label.c **** LV_ATTRIBUTE_FAST_MEM void lv_draw_label(lv_draw_ctx_t * draw_ctx, const lv_draw_label_dsc_t * dsc,
  78:..\..\..\arduinoLCD\test\Pain Drain\libraries\lvgl\src\draw/lv_draw_label.c ****                                          const lv_area_t * coords, const char * txt, lv_draw_label_
  79:..\..\..\arduinoLCD\test\Pain Drain\libraries\lvgl\src\draw/lv_draw_label.c **** {
  80:..\..\..\arduinoLCD\test\Pain Drain\libraries\lvgl\src\draw/lv_draw_label.c ****     if(dsc->opa <= LV_OPA_MIN) return;
  81:..\..\..\arduinoLCD\test\Pain Drain\libraries\lvgl\src\draw/lv_draw_label.c ****     if(dsc->font == NULL) {
  82:..\..\..\arduinoLCD\test\Pain Drain\libraries\lvgl\src\draw/lv_draw_label.c ****         LV_LOG_WARN("dsc->font == NULL");
  83:..\..\..\arduinoLCD\test\Pain Drain\libraries\lvgl\src\draw/lv_draw_label.c ****         return;
  84:..\..\..\arduinoLCD\test\Pain Drain\libraries\lvgl\src\draw/lv_draw_label.c ****     }
  85:..\..\..\arduinoLCD\test\Pain Drain\libraries\lvgl\src\draw/lv_draw_label.c **** 
  86:..\..\..\arduinoLCD\test\Pain Drain\libraries\lvgl\src\draw/lv_draw_label.c ****     if(draw_ctx->draw_letter == NULL) {
  87:..\..\..\arduinoLCD\test\Pain Drain\libraries\lvgl\src\draw/lv_draw_label.c ****         LV_LOG_WARN("draw->draw_letter == NULL (there is no function to draw letters)");
ARM GAS  C:\Users\haske\AppData\Local\Temp\ccmIjDGo.s 			page 3


  88:..\..\..\arduinoLCD\test\Pain Drain\libraries\lvgl\src\draw/lv_draw_label.c ****         return;
  89:..\..\..\arduinoLCD\test\Pain Drain\libraries\lvgl\src\draw/lv_draw_label.c ****     }
  90:..\..\..\arduinoLCD\test\Pain Drain\libraries\lvgl\src\draw/lv_draw_label.c **** 
  91:..\..\..\arduinoLCD\test\Pain Drain\libraries\lvgl\src\draw/lv_draw_label.c ****     lv_draw_label_dsc_t dsc_mod = *dsc;
  92:..\..\..\arduinoLCD\test\Pain Drain\libraries\lvgl\src\draw/lv_draw_label.c **** 
  93:..\..\..\arduinoLCD\test\Pain Drain\libraries\lvgl\src\draw/lv_draw_label.c ****     const lv_font_t * font = dsc->font;
  94:..\..\..\arduinoLCD\test\Pain Drain\libraries\lvgl\src\draw/lv_draw_label.c ****     int32_t w;
  95:..\..\..\arduinoLCD\test\Pain Drain\libraries\lvgl\src\draw/lv_draw_label.c **** 
  96:..\..\..\arduinoLCD\test\Pain Drain\libraries\lvgl\src\draw/lv_draw_label.c ****     /*No need to waste processor time if string is empty*/
  97:..\..\..\arduinoLCD\test\Pain Drain\libraries\lvgl\src\draw/lv_draw_label.c ****     if(txt == NULL || txt[0] == '\0')
  98:..\..\..\arduinoLCD\test\Pain Drain\libraries\lvgl\src\draw/lv_draw_label.c ****         return;
  99:..\..\..\arduinoLCD\test\Pain Drain\libraries\lvgl\src\draw/lv_draw_label.c **** 
 100:..\..\..\arduinoLCD\test\Pain Drain\libraries\lvgl\src\draw/lv_draw_label.c ****     lv_area_t clipped_area;
 101:..\..\..\arduinoLCD\test\Pain Drain\libraries\lvgl\src\draw/lv_draw_label.c ****     bool clip_ok = _lv_area_intersect(&clipped_area, coords, draw_ctx->clip_area);
 102:..\..\..\arduinoLCD\test\Pain Drain\libraries\lvgl\src\draw/lv_draw_label.c ****     if(!clip_ok) return;
 103:..\..\..\arduinoLCD\test\Pain Drain\libraries\lvgl\src\draw/lv_draw_label.c **** 
 104:..\..\..\arduinoLCD\test\Pain Drain\libraries\lvgl\src\draw/lv_draw_label.c ****     lv_text_align_t align = dsc->align;
 105:..\..\..\arduinoLCD\test\Pain Drain\libraries\lvgl\src\draw/lv_draw_label.c ****     lv_base_dir_t base_dir = dsc->bidi_dir;
 106:..\..\..\arduinoLCD\test\Pain Drain\libraries\lvgl\src\draw/lv_draw_label.c **** 
 107:..\..\..\arduinoLCD\test\Pain Drain\libraries\lvgl\src\draw/lv_draw_label.c ****     lv_bidi_calculate_align(&align, &base_dir, txt);
 108:..\..\..\arduinoLCD\test\Pain Drain\libraries\lvgl\src\draw/lv_draw_label.c **** 
 109:..\..\..\arduinoLCD\test\Pain Drain\libraries\lvgl\src\draw/lv_draw_label.c ****     if((dsc->flag & LV_TEXT_FLAG_EXPAND) == 0) {
 110:..\..\..\arduinoLCD\test\Pain Drain\libraries\lvgl\src\draw/lv_draw_label.c ****         /*Normally use the label's width as width*/
 111:..\..\..\arduinoLCD\test\Pain Drain\libraries\lvgl\src\draw/lv_draw_label.c ****         w = lv_area_get_width(coords);
 112:..\..\..\arduinoLCD\test\Pain Drain\libraries\lvgl\src\draw/lv_draw_label.c ****     }
 113:..\..\..\arduinoLCD\test\Pain Drain\libraries\lvgl\src\draw/lv_draw_label.c ****     else {
 114:..\..\..\arduinoLCD\test\Pain Drain\libraries\lvgl\src\draw/lv_draw_label.c ****         /*If EXPAND is enabled then not limit the text's width to the object's width*/
 115:..\..\..\arduinoLCD\test\Pain Drain\libraries\lvgl\src\draw/lv_draw_label.c ****         lv_point_t p;
 116:..\..\..\arduinoLCD\test\Pain Drain\libraries\lvgl\src\draw/lv_draw_label.c ****         lv_txt_get_size(&p, txt, dsc->font, dsc->letter_space, dsc->line_space, LV_COORD_MAX,
 117:..\..\..\arduinoLCD\test\Pain Drain\libraries\lvgl\src\draw/lv_draw_label.c ****                         dsc->flag);
 118:..\..\..\arduinoLCD\test\Pain Drain\libraries\lvgl\src\draw/lv_draw_label.c ****         w = p.x;
 119:..\..\..\arduinoLCD\test\Pain Drain\libraries\lvgl\src\draw/lv_draw_label.c ****     }
 120:..\..\..\arduinoLCD\test\Pain Drain\libraries\lvgl\src\draw/lv_draw_label.c **** 
 121:..\..\..\arduinoLCD\test\Pain Drain\libraries\lvgl\src\draw/lv_draw_label.c ****     int32_t line_height_font = lv_font_get_line_height(font);
 122:..\..\..\arduinoLCD\test\Pain Drain\libraries\lvgl\src\draw/lv_draw_label.c ****     int32_t line_height = line_height_font + dsc->line_space;
 123:..\..\..\arduinoLCD\test\Pain Drain\libraries\lvgl\src\draw/lv_draw_label.c **** 
 124:..\..\..\arduinoLCD\test\Pain Drain\libraries\lvgl\src\draw/lv_draw_label.c ****     /*Init variables for the first line*/
 125:..\..\..\arduinoLCD\test\Pain Drain\libraries\lvgl\src\draw/lv_draw_label.c ****     int32_t line_width = 0;
 126:..\..\..\arduinoLCD\test\Pain Drain\libraries\lvgl\src\draw/lv_draw_label.c ****     lv_point_t pos;
 127:..\..\..\arduinoLCD\test\Pain Drain\libraries\lvgl\src\draw/lv_draw_label.c ****     pos.x = coords->x1;
 128:..\..\..\arduinoLCD\test\Pain Drain\libraries\lvgl\src\draw/lv_draw_label.c ****     pos.y = coords->y1;
 129:..\..\..\arduinoLCD\test\Pain Drain\libraries\lvgl\src\draw/lv_draw_label.c **** 
 130:..\..\..\arduinoLCD\test\Pain Drain\libraries\lvgl\src\draw/lv_draw_label.c ****     int32_t x_ofs = 0;
 131:..\..\..\arduinoLCD\test\Pain Drain\libraries\lvgl\src\draw/lv_draw_label.c ****     int32_t y_ofs = 0;
 132:..\..\..\arduinoLCD\test\Pain Drain\libraries\lvgl\src\draw/lv_draw_label.c ****     x_ofs = dsc->ofs_x;
 133:..\..\..\arduinoLCD\test\Pain Drain\libraries\lvgl\src\draw/lv_draw_label.c ****     y_ofs = dsc->ofs_y;
 134:..\..\..\arduinoLCD\test\Pain Drain\libraries\lvgl\src\draw/lv_draw_label.c ****     pos.y += y_ofs;
 135:..\..\..\arduinoLCD\test\Pain Drain\libraries\lvgl\src\draw/lv_draw_label.c **** 
 136:..\..\..\arduinoLCD\test\Pain Drain\libraries\lvgl\src\draw/lv_draw_label.c ****     uint32_t line_start     = 0;
 137:..\..\..\arduinoLCD\test\Pain Drain\libraries\lvgl\src\draw/lv_draw_label.c ****     int32_t last_line_start = -1;
 138:..\..\..\arduinoLCD\test\Pain Drain\libraries\lvgl\src\draw/lv_draw_label.c **** 
 139:..\..\..\arduinoLCD\test\Pain Drain\libraries\lvgl\src\draw/lv_draw_label.c ****     /*Check the hint to use the cached info*/
 140:..\..\..\arduinoLCD\test\Pain Drain\libraries\lvgl\src\draw/lv_draw_label.c ****     if(hint && y_ofs == 0 && coords->y1 < 0) {
 141:..\..\..\arduinoLCD\test\Pain Drain\libraries\lvgl\src\draw/lv_draw_label.c ****         /*If the label changed too much recalculate the hint.*/
 142:..\..\..\arduinoLCD\test\Pain Drain\libraries\lvgl\src\draw/lv_draw_label.c ****         if(LV_ABS(hint->coord_y - coords->y1) > LV_LABEL_HINT_UPDATE_TH - 2 * line_height) {
 143:..\..\..\arduinoLCD\test\Pain Drain\libraries\lvgl\src\draw/lv_draw_label.c ****             hint->line_start = -1;
 144:..\..\..\arduinoLCD\test\Pain Drain\libraries\lvgl\src\draw/lv_draw_label.c ****         }
ARM GAS  C:\Users\haske\AppData\Local\Temp\ccmIjDGo.s 			page 4


 145:..\..\..\arduinoLCD\test\Pain Drain\libraries\lvgl\src\draw/lv_draw_label.c ****         last_line_start = hint->line_start;
 146:..\..\..\arduinoLCD\test\Pain Drain\libraries\lvgl\src\draw/lv_draw_label.c ****     }
 147:..\..\..\arduinoLCD\test\Pain Drain\libraries\lvgl\src\draw/lv_draw_label.c **** 
 148:..\..\..\arduinoLCD\test\Pain Drain\libraries\lvgl\src\draw/lv_draw_label.c ****     /*Use the hint if it's valid*/
 149:..\..\..\arduinoLCD\test\Pain Drain\libraries\lvgl\src\draw/lv_draw_label.c ****     if(hint && last_line_start >= 0) {
 150:..\..\..\arduinoLCD\test\Pain Drain\libraries\lvgl\src\draw/lv_draw_label.c ****         line_start = last_line_start;
 151:..\..\..\arduinoLCD\test\Pain Drain\libraries\lvgl\src\draw/lv_draw_label.c ****         pos.y += hint->y;
 152:..\..\..\arduinoLCD\test\Pain Drain\libraries\lvgl\src\draw/lv_draw_label.c ****     }
 153:..\..\..\arduinoLCD\test\Pain Drain\libraries\lvgl\src\draw/lv_draw_label.c **** 
 154:..\..\..\arduinoLCD\test\Pain Drain\libraries\lvgl\src\draw/lv_draw_label.c ****     uint32_t line_end = line_start + _lv_txt_get_next_line(&txt[line_start], font, dsc->letter_spac
 155:..\..\..\arduinoLCD\test\Pain Drain\libraries\lvgl\src\draw/lv_draw_label.c **** 
 156:..\..\..\arduinoLCD\test\Pain Drain\libraries\lvgl\src\draw/lv_draw_label.c ****     /*Go the first visible line*/
 157:..\..\..\arduinoLCD\test\Pain Drain\libraries\lvgl\src\draw/lv_draw_label.c ****     while(pos.y + line_height_font < draw_ctx->clip_area->y1) {
 158:..\..\..\arduinoLCD\test\Pain Drain\libraries\lvgl\src\draw/lv_draw_label.c ****         /*Go to next line*/
 159:..\..\..\arduinoLCD\test\Pain Drain\libraries\lvgl\src\draw/lv_draw_label.c ****         line_start = line_end;
 160:..\..\..\arduinoLCD\test\Pain Drain\libraries\lvgl\src\draw/lv_draw_label.c ****         line_end += _lv_txt_get_next_line(&txt[line_start], font, dsc->letter_space, w, NULL, dsc->
 161:..\..\..\arduinoLCD\test\Pain Drain\libraries\lvgl\src\draw/lv_draw_label.c ****         pos.y += line_height;
 162:..\..\..\arduinoLCD\test\Pain Drain\libraries\lvgl\src\draw/lv_draw_label.c **** 
 163:..\..\..\arduinoLCD\test\Pain Drain\libraries\lvgl\src\draw/lv_draw_label.c ****         /*Save at the threshold coordinate*/
 164:..\..\..\arduinoLCD\test\Pain Drain\libraries\lvgl\src\draw/lv_draw_label.c ****         if(hint && pos.y >= -LV_LABEL_HINT_UPDATE_TH && hint->line_start < 0) {
 165:..\..\..\arduinoLCD\test\Pain Drain\libraries\lvgl\src\draw/lv_draw_label.c ****             hint->line_start = line_start;
 166:..\..\..\arduinoLCD\test\Pain Drain\libraries\lvgl\src\draw/lv_draw_label.c ****             hint->y          = pos.y - coords->y1;
 167:..\..\..\arduinoLCD\test\Pain Drain\libraries\lvgl\src\draw/lv_draw_label.c ****             hint->coord_y    = coords->y1;
 168:..\..\..\arduinoLCD\test\Pain Drain\libraries\lvgl\src\draw/lv_draw_label.c ****         }
 169:..\..\..\arduinoLCD\test\Pain Drain\libraries\lvgl\src\draw/lv_draw_label.c **** 
 170:..\..\..\arduinoLCD\test\Pain Drain\libraries\lvgl\src\draw/lv_draw_label.c ****         if(txt[line_start] == '\0') return;
 171:..\..\..\arduinoLCD\test\Pain Drain\libraries\lvgl\src\draw/lv_draw_label.c ****     }
 172:..\..\..\arduinoLCD\test\Pain Drain\libraries\lvgl\src\draw/lv_draw_label.c **** 
 173:..\..\..\arduinoLCD\test\Pain Drain\libraries\lvgl\src\draw/lv_draw_label.c ****     /*Align to middle*/
 174:..\..\..\arduinoLCD\test\Pain Drain\libraries\lvgl\src\draw/lv_draw_label.c ****     if(align == LV_TEXT_ALIGN_CENTER) {
 175:..\..\..\arduinoLCD\test\Pain Drain\libraries\lvgl\src\draw/lv_draw_label.c ****         line_width = lv_txt_get_width(&txt[line_start], line_end - line_start, font, dsc->letter_sp
 176:..\..\..\arduinoLCD\test\Pain Drain\libraries\lvgl\src\draw/lv_draw_label.c **** 
 177:..\..\..\arduinoLCD\test\Pain Drain\libraries\lvgl\src\draw/lv_draw_label.c ****         pos.x += (lv_area_get_width(coords) - line_width) / 2;
 178:..\..\..\arduinoLCD\test\Pain Drain\libraries\lvgl\src\draw/lv_draw_label.c **** 
 179:..\..\..\arduinoLCD\test\Pain Drain\libraries\lvgl\src\draw/lv_draw_label.c ****     }
 180:..\..\..\arduinoLCD\test\Pain Drain\libraries\lvgl\src\draw/lv_draw_label.c ****     /*Align to the right*/
 181:..\..\..\arduinoLCD\test\Pain Drain\libraries\lvgl\src\draw/lv_draw_label.c ****     else if(align == LV_TEXT_ALIGN_RIGHT) {
 182:..\..\..\arduinoLCD\test\Pain Drain\libraries\lvgl\src\draw/lv_draw_label.c ****         line_width = lv_txt_get_width(&txt[line_start], line_end - line_start, font, dsc->letter_sp
 183:..\..\..\arduinoLCD\test\Pain Drain\libraries\lvgl\src\draw/lv_draw_label.c ****         pos.x += lv_area_get_width(coords) - line_width;
 184:..\..\..\arduinoLCD\test\Pain Drain\libraries\lvgl\src\draw/lv_draw_label.c ****     }
 185:..\..\..\arduinoLCD\test\Pain Drain\libraries\lvgl\src\draw/lv_draw_label.c ****     uint32_t sel_start = dsc->sel_start;
 186:..\..\..\arduinoLCD\test\Pain Drain\libraries\lvgl\src\draw/lv_draw_label.c ****     uint32_t sel_end = dsc->sel_end;
 187:..\..\..\arduinoLCD\test\Pain Drain\libraries\lvgl\src\draw/lv_draw_label.c ****     if(sel_start > sel_end) {
 188:..\..\..\arduinoLCD\test\Pain Drain\libraries\lvgl\src\draw/lv_draw_label.c ****         uint32_t tmp = sel_start;
 189:..\..\..\arduinoLCD\test\Pain Drain\libraries\lvgl\src\draw/lv_draw_label.c ****         sel_start = sel_end;
 190:..\..\..\arduinoLCD\test\Pain Drain\libraries\lvgl\src\draw/lv_draw_label.c ****         sel_end = tmp;
 191:..\..\..\arduinoLCD\test\Pain Drain\libraries\lvgl\src\draw/lv_draw_label.c ****     }
 192:..\..\..\arduinoLCD\test\Pain Drain\libraries\lvgl\src\draw/lv_draw_label.c ****     lv_draw_line_dsc_t line_dsc;
 193:..\..\..\arduinoLCD\test\Pain Drain\libraries\lvgl\src\draw/lv_draw_label.c **** 
 194:..\..\..\arduinoLCD\test\Pain Drain\libraries\lvgl\src\draw/lv_draw_label.c ****     if((dsc->decor & LV_TEXT_DECOR_UNDERLINE) || (dsc->decor & LV_TEXT_DECOR_STRIKETHROUGH)) {
 195:..\..\..\arduinoLCD\test\Pain Drain\libraries\lvgl\src\draw/lv_draw_label.c ****         lv_draw_line_dsc_init(&line_dsc);
 196:..\..\..\arduinoLCD\test\Pain Drain\libraries\lvgl\src\draw/lv_draw_label.c ****         line_dsc.color = dsc->color;
 197:..\..\..\arduinoLCD\test\Pain Drain\libraries\lvgl\src\draw/lv_draw_label.c ****         line_dsc.width = font->underline_thickness ? font->underline_thickness : 1;
 198:..\..\..\arduinoLCD\test\Pain Drain\libraries\lvgl\src\draw/lv_draw_label.c ****         line_dsc.opa = dsc->opa;
 199:..\..\..\arduinoLCD\test\Pain Drain\libraries\lvgl\src\draw/lv_draw_label.c ****         line_dsc.blend_mode = dsc->blend_mode;
 200:..\..\..\arduinoLCD\test\Pain Drain\libraries\lvgl\src\draw/lv_draw_label.c ****     }
 201:..\..\..\arduinoLCD\test\Pain Drain\libraries\lvgl\src\draw/lv_draw_label.c **** 
ARM GAS  C:\Users\haske\AppData\Local\Temp\ccmIjDGo.s 			page 5


 202:..\..\..\arduinoLCD\test\Pain Drain\libraries\lvgl\src\draw/lv_draw_label.c ****     cmd_state_t cmd_state = CMD_STATE_WAIT;
 203:..\..\..\arduinoLCD\test\Pain Drain\libraries\lvgl\src\draw/lv_draw_label.c ****     uint32_t i;
 204:..\..\..\arduinoLCD\test\Pain Drain\libraries\lvgl\src\draw/lv_draw_label.c ****     uint32_t par_start = 0;
 205:..\..\..\arduinoLCD\test\Pain Drain\libraries\lvgl\src\draw/lv_draw_label.c ****     lv_color_t recolor  = lv_color_black();
 206:..\..\..\arduinoLCD\test\Pain Drain\libraries\lvgl\src\draw/lv_draw_label.c ****     lv_color_t color = lv_color_black();
 207:..\..\..\arduinoLCD\test\Pain Drain\libraries\lvgl\src\draw/lv_draw_label.c ****     int32_t letter_w;
 208:..\..\..\arduinoLCD\test\Pain Drain\libraries\lvgl\src\draw/lv_draw_label.c **** 
 209:..\..\..\arduinoLCD\test\Pain Drain\libraries\lvgl\src\draw/lv_draw_label.c ****     lv_draw_rect_dsc_t draw_dsc_sel;
 210:..\..\..\arduinoLCD\test\Pain Drain\libraries\lvgl\src\draw/lv_draw_label.c ****     lv_draw_rect_dsc_init(&draw_dsc_sel);
 211:..\..\..\arduinoLCD\test\Pain Drain\libraries\lvgl\src\draw/lv_draw_label.c ****     draw_dsc_sel.bg_color = dsc->sel_bg_color;
 212:..\..\..\arduinoLCD\test\Pain Drain\libraries\lvgl\src\draw/lv_draw_label.c **** 
 213:..\..\..\arduinoLCD\test\Pain Drain\libraries\lvgl\src\draw/lv_draw_label.c ****     int32_t pos_x_start = pos.x;
 214:..\..\..\arduinoLCD\test\Pain Drain\libraries\lvgl\src\draw/lv_draw_label.c ****     /*Write out all lines*/
 215:..\..\..\arduinoLCD\test\Pain Drain\libraries\lvgl\src\draw/lv_draw_label.c ****     while(txt[line_start] != '\0') {
 216:..\..\..\arduinoLCD\test\Pain Drain\libraries\lvgl\src\draw/lv_draw_label.c ****         pos.x += x_ofs;
 217:..\..\..\arduinoLCD\test\Pain Drain\libraries\lvgl\src\draw/lv_draw_label.c **** 
 218:..\..\..\arduinoLCD\test\Pain Drain\libraries\lvgl\src\draw/lv_draw_label.c ****         /*Write all letter of a line*/
 219:..\..\..\arduinoLCD\test\Pain Drain\libraries\lvgl\src\draw/lv_draw_label.c ****         cmd_state = CMD_STATE_WAIT;
 220:..\..\..\arduinoLCD\test\Pain Drain\libraries\lvgl\src\draw/lv_draw_label.c ****         i         = 0;
 221:..\..\..\arduinoLCD\test\Pain Drain\libraries\lvgl\src\draw/lv_draw_label.c **** #if LV_USE_BIDI
 222:..\..\..\arduinoLCD\test\Pain Drain\libraries\lvgl\src\draw/lv_draw_label.c ****         char * bidi_txt = lv_mem_buf_get(line_end - line_start + 1);
 223:..\..\..\arduinoLCD\test\Pain Drain\libraries\lvgl\src\draw/lv_draw_label.c ****         _lv_bidi_process_paragraph(txt + line_start, bidi_txt, line_end - line_start, base_dir, NUL
 224:..\..\..\arduinoLCD\test\Pain Drain\libraries\lvgl\src\draw/lv_draw_label.c **** #else
 225:..\..\..\arduinoLCD\test\Pain Drain\libraries\lvgl\src\draw/lv_draw_label.c ****         const char * bidi_txt = txt + line_start;
 226:..\..\..\arduinoLCD\test\Pain Drain\libraries\lvgl\src\draw/lv_draw_label.c **** #endif
 227:..\..\..\arduinoLCD\test\Pain Drain\libraries\lvgl\src\draw/lv_draw_label.c **** 
 228:..\..\..\arduinoLCD\test\Pain Drain\libraries\lvgl\src\draw/lv_draw_label.c ****         while(i < line_end - line_start) {
 229:..\..\..\arduinoLCD\test\Pain Drain\libraries\lvgl\src\draw/lv_draw_label.c ****             uint32_t logical_char_pos = 0;
 230:..\..\..\arduinoLCD\test\Pain Drain\libraries\lvgl\src\draw/lv_draw_label.c ****             if(sel_start != 0xFFFF && sel_end != 0xFFFF) {
 231:..\..\..\arduinoLCD\test\Pain Drain\libraries\lvgl\src\draw/lv_draw_label.c **** #if LV_USE_BIDI
 232:..\..\..\arduinoLCD\test\Pain Drain\libraries\lvgl\src\draw/lv_draw_label.c ****                 logical_char_pos = _lv_txt_encoded_get_char_id(txt, line_start);
 233:..\..\..\arduinoLCD\test\Pain Drain\libraries\lvgl\src\draw/lv_draw_label.c ****                 uint32_t t = _lv_txt_encoded_get_char_id(bidi_txt, i);
 234:..\..\..\arduinoLCD\test\Pain Drain\libraries\lvgl\src\draw/lv_draw_label.c ****                 logical_char_pos += _lv_bidi_get_logical_pos(bidi_txt, NULL, line_end - line_start,
 235:..\..\..\arduinoLCD\test\Pain Drain\libraries\lvgl\src\draw/lv_draw_label.c **** #else
 236:..\..\..\arduinoLCD\test\Pain Drain\libraries\lvgl\src\draw/lv_draw_label.c ****                 logical_char_pos = _lv_txt_encoded_get_char_id(txt, line_start + i);
 237:..\..\..\arduinoLCD\test\Pain Drain\libraries\lvgl\src\draw/lv_draw_label.c **** #endif
 238:..\..\..\arduinoLCD\test\Pain Drain\libraries\lvgl\src\draw/lv_draw_label.c ****             }
 239:..\..\..\arduinoLCD\test\Pain Drain\libraries\lvgl\src\draw/lv_draw_label.c **** 
 240:..\..\..\arduinoLCD\test\Pain Drain\libraries\lvgl\src\draw/lv_draw_label.c ****             uint32_t letter;
 241:..\..\..\arduinoLCD\test\Pain Drain\libraries\lvgl\src\draw/lv_draw_label.c ****             uint32_t letter_next;
 242:..\..\..\arduinoLCD\test\Pain Drain\libraries\lvgl\src\draw/lv_draw_label.c ****             _lv_txt_encoded_letter_next_2(bidi_txt, &letter, &letter_next, &i);
 243:..\..\..\arduinoLCD\test\Pain Drain\libraries\lvgl\src\draw/lv_draw_label.c ****             /*Handle the re-color command*/
 244:..\..\..\arduinoLCD\test\Pain Drain\libraries\lvgl\src\draw/lv_draw_label.c ****             if((dsc->flag & LV_TEXT_FLAG_RECOLOR) != 0) {
 245:..\..\..\arduinoLCD\test\Pain Drain\libraries\lvgl\src\draw/lv_draw_label.c ****                 if(letter == (uint32_t)LV_TXT_COLOR_CMD[0]) {
 246:..\..\..\arduinoLCD\test\Pain Drain\libraries\lvgl\src\draw/lv_draw_label.c ****                     if(cmd_state == CMD_STATE_WAIT) { /*Start char*/
 247:..\..\..\arduinoLCD\test\Pain Drain\libraries\lvgl\src\draw/lv_draw_label.c ****                         par_start = i;
 248:..\..\..\arduinoLCD\test\Pain Drain\libraries\lvgl\src\draw/lv_draw_label.c ****                         cmd_state = CMD_STATE_PAR;
 249:..\..\..\arduinoLCD\test\Pain Drain\libraries\lvgl\src\draw/lv_draw_label.c ****                         continue;
 250:..\..\..\arduinoLCD\test\Pain Drain\libraries\lvgl\src\draw/lv_draw_label.c ****                     }
 251:..\..\..\arduinoLCD\test\Pain Drain\libraries\lvgl\src\draw/lv_draw_label.c ****                     else if(cmd_state == CMD_STATE_PAR) {   /*Other start char in parameter escaped
 252:..\..\..\arduinoLCD\test\Pain Drain\libraries\lvgl\src\draw/lv_draw_label.c ****                         cmd_state = CMD_STATE_WAIT;
 253:..\..\..\arduinoLCD\test\Pain Drain\libraries\lvgl\src\draw/lv_draw_label.c ****                     }
 254:..\..\..\arduinoLCD\test\Pain Drain\libraries\lvgl\src\draw/lv_draw_label.c ****                     else if(cmd_state == CMD_STATE_IN) {   /*Command end*/
 255:..\..\..\arduinoLCD\test\Pain Drain\libraries\lvgl\src\draw/lv_draw_label.c ****                         cmd_state = CMD_STATE_WAIT;
 256:..\..\..\arduinoLCD\test\Pain Drain\libraries\lvgl\src\draw/lv_draw_label.c ****                         continue;
 257:..\..\..\arduinoLCD\test\Pain Drain\libraries\lvgl\src\draw/lv_draw_label.c ****                     }
 258:..\..\..\arduinoLCD\test\Pain Drain\libraries\lvgl\src\draw/lv_draw_label.c ****                 }
ARM GAS  C:\Users\haske\AppData\Local\Temp\ccmIjDGo.s 			page 6


 259:..\..\..\arduinoLCD\test\Pain Drain\libraries\lvgl\src\draw/lv_draw_label.c **** 
 260:..\..\..\arduinoLCD\test\Pain Drain\libraries\lvgl\src\draw/lv_draw_label.c ****                 /*Skip the color parameter and wait the space after it*/
 261:..\..\..\arduinoLCD\test\Pain Drain\libraries\lvgl\src\draw/lv_draw_label.c ****                 if(cmd_state == CMD_STATE_PAR) {
 262:..\..\..\arduinoLCD\test\Pain Drain\libraries\lvgl\src\draw/lv_draw_label.c ****                     if(letter == ' ') {
 263:..\..\..\arduinoLCD\test\Pain Drain\libraries\lvgl\src\draw/lv_draw_label.c ****                         /*Get the parameter*/
 264:..\..\..\arduinoLCD\test\Pain Drain\libraries\lvgl\src\draw/lv_draw_label.c ****                         if(i - par_start == LABEL_RECOLOR_PAR_LENGTH + 1) {
 265:..\..\..\arduinoLCD\test\Pain Drain\libraries\lvgl\src\draw/lv_draw_label.c ****                             char buf[LABEL_RECOLOR_PAR_LENGTH + 1];
 266:..\..\..\arduinoLCD\test\Pain Drain\libraries\lvgl\src\draw/lv_draw_label.c ****                             lv_memcpy_small(buf, &bidi_txt[par_start], LABEL_RECOLOR_PAR_LENGTH);
 267:..\..\..\arduinoLCD\test\Pain Drain\libraries\lvgl\src\draw/lv_draw_label.c ****                             buf[LABEL_RECOLOR_PAR_LENGTH] = '\0';
 268:..\..\..\arduinoLCD\test\Pain Drain\libraries\lvgl\src\draw/lv_draw_label.c ****                             int r, g, b;
 269:..\..\..\arduinoLCD\test\Pain Drain\libraries\lvgl\src\draw/lv_draw_label.c ****                             r       = (hex_char_to_num(buf[0]) << 4) + hex_char_to_num(buf[1]);
 270:..\..\..\arduinoLCD\test\Pain Drain\libraries\lvgl\src\draw/lv_draw_label.c ****                             g       = (hex_char_to_num(buf[2]) << 4) + hex_char_to_num(buf[3]);
 271:..\..\..\arduinoLCD\test\Pain Drain\libraries\lvgl\src\draw/lv_draw_label.c ****                             b       = (hex_char_to_num(buf[4]) << 4) + hex_char_to_num(buf[5]);
 272:..\..\..\arduinoLCD\test\Pain Drain\libraries\lvgl\src\draw/lv_draw_label.c ****                             recolor = lv_color_make(r, g, b);
 273:..\..\..\arduinoLCD\test\Pain Drain\libraries\lvgl\src\draw/lv_draw_label.c ****                         }
 274:..\..\..\arduinoLCD\test\Pain Drain\libraries\lvgl\src\draw/lv_draw_label.c ****                         else {
 275:..\..\..\arduinoLCD\test\Pain Drain\libraries\lvgl\src\draw/lv_draw_label.c ****                             recolor.full = dsc->color.full;
 276:..\..\..\arduinoLCD\test\Pain Drain\libraries\lvgl\src\draw/lv_draw_label.c ****                         }
 277:..\..\..\arduinoLCD\test\Pain Drain\libraries\lvgl\src\draw/lv_draw_label.c ****                         cmd_state = CMD_STATE_IN; /*After the parameter the text is in the command*
 278:..\..\..\arduinoLCD\test\Pain Drain\libraries\lvgl\src\draw/lv_draw_label.c ****                     }
 279:..\..\..\arduinoLCD\test\Pain Drain\libraries\lvgl\src\draw/lv_draw_label.c ****                     continue;
 280:..\..\..\arduinoLCD\test\Pain Drain\libraries\lvgl\src\draw/lv_draw_label.c ****                 }
 281:..\..\..\arduinoLCD\test\Pain Drain\libraries\lvgl\src\draw/lv_draw_label.c ****             }
 282:..\..\..\arduinoLCD\test\Pain Drain\libraries\lvgl\src\draw/lv_draw_label.c **** 
 283:..\..\..\arduinoLCD\test\Pain Drain\libraries\lvgl\src\draw/lv_draw_label.c ****             color = dsc->color;
 284:..\..\..\arduinoLCD\test\Pain Drain\libraries\lvgl\src\draw/lv_draw_label.c **** 
 285:..\..\..\arduinoLCD\test\Pain Drain\libraries\lvgl\src\draw/lv_draw_label.c ****             if(cmd_state == CMD_STATE_IN) color = recolor;
 286:..\..\..\arduinoLCD\test\Pain Drain\libraries\lvgl\src\draw/lv_draw_label.c **** 
 287:..\..\..\arduinoLCD\test\Pain Drain\libraries\lvgl\src\draw/lv_draw_label.c ****             letter_w = lv_font_get_glyph_width(font, letter, letter_next);
 288:..\..\..\arduinoLCD\test\Pain Drain\libraries\lvgl\src\draw/lv_draw_label.c **** 
 289:..\..\..\arduinoLCD\test\Pain Drain\libraries\lvgl\src\draw/lv_draw_label.c ****             if(sel_start != 0xFFFF && sel_end != 0xFFFF) {
 290:..\..\..\arduinoLCD\test\Pain Drain\libraries\lvgl\src\draw/lv_draw_label.c ****                 if(logical_char_pos >= sel_start && logical_char_pos < sel_end) {
 291:..\..\..\arduinoLCD\test\Pain Drain\libraries\lvgl\src\draw/lv_draw_label.c ****                     lv_area_t sel_coords;
 292:..\..\..\arduinoLCD\test\Pain Drain\libraries\lvgl\src\draw/lv_draw_label.c ****                     sel_coords.x1 = pos.x;
 293:..\..\..\arduinoLCD\test\Pain Drain\libraries\lvgl\src\draw/lv_draw_label.c ****                     sel_coords.y1 = pos.y;
 294:..\..\..\arduinoLCD\test\Pain Drain\libraries\lvgl\src\draw/lv_draw_label.c ****                     sel_coords.x2 = pos.x + letter_w + dsc->letter_space - 1;
 295:..\..\..\arduinoLCD\test\Pain Drain\libraries\lvgl\src\draw/lv_draw_label.c ****                     sel_coords.y2 = pos.y + line_height - 1;
 296:..\..\..\arduinoLCD\test\Pain Drain\libraries\lvgl\src\draw/lv_draw_label.c ****                     lv_draw_rect(draw_ctx, &draw_dsc_sel, &sel_coords);
 297:..\..\..\arduinoLCD\test\Pain Drain\libraries\lvgl\src\draw/lv_draw_label.c ****                     color = dsc->sel_color;
 298:..\..\..\arduinoLCD\test\Pain Drain\libraries\lvgl\src\draw/lv_draw_label.c ****                 }
 299:..\..\..\arduinoLCD\test\Pain Drain\libraries\lvgl\src\draw/lv_draw_label.c ****             }
 300:..\..\..\arduinoLCD\test\Pain Drain\libraries\lvgl\src\draw/lv_draw_label.c **** 
 301:..\..\..\arduinoLCD\test\Pain Drain\libraries\lvgl\src\draw/lv_draw_label.c ****             dsc_mod.color = color;
 302:..\..\..\arduinoLCD\test\Pain Drain\libraries\lvgl\src\draw/lv_draw_label.c ****             lv_draw_letter(draw_ctx, &dsc_mod, &pos, letter);
 303:..\..\..\arduinoLCD\test\Pain Drain\libraries\lvgl\src\draw/lv_draw_label.c **** 
 304:..\..\..\arduinoLCD\test\Pain Drain\libraries\lvgl\src\draw/lv_draw_label.c ****             if(letter_w > 0) {
 305:..\..\..\arduinoLCD\test\Pain Drain\libraries\lvgl\src\draw/lv_draw_label.c ****                 pos.x += letter_w + dsc->letter_space;
 306:..\..\..\arduinoLCD\test\Pain Drain\libraries\lvgl\src\draw/lv_draw_label.c ****             }
 307:..\..\..\arduinoLCD\test\Pain Drain\libraries\lvgl\src\draw/lv_draw_label.c ****         }
 308:..\..\..\arduinoLCD\test\Pain Drain\libraries\lvgl\src\draw/lv_draw_label.c **** 
 309:..\..\..\arduinoLCD\test\Pain Drain\libraries\lvgl\src\draw/lv_draw_label.c ****         if(dsc->decor & LV_TEXT_DECOR_STRIKETHROUGH) {
 310:..\..\..\arduinoLCD\test\Pain Drain\libraries\lvgl\src\draw/lv_draw_label.c ****             lv_point_t p1;
 311:..\..\..\arduinoLCD\test\Pain Drain\libraries\lvgl\src\draw/lv_draw_label.c ****             lv_point_t p2;
 312:..\..\..\arduinoLCD\test\Pain Drain\libraries\lvgl\src\draw/lv_draw_label.c ****             p1.x = pos_x_start;
 313:..\..\..\arduinoLCD\test\Pain Drain\libraries\lvgl\src\draw/lv_draw_label.c ****             p1.y = pos.y + (dsc->font->line_height / 2)  + line_dsc.width / 2;
 314:..\..\..\arduinoLCD\test\Pain Drain\libraries\lvgl\src\draw/lv_draw_label.c ****             p2.x = pos.x;
 315:..\..\..\arduinoLCD\test\Pain Drain\libraries\lvgl\src\draw/lv_draw_label.c ****             p2.y = p1.y;
ARM GAS  C:\Users\haske\AppData\Local\Temp\ccmIjDGo.s 			page 7


 316:..\..\..\arduinoLCD\test\Pain Drain\libraries\lvgl\src\draw/lv_draw_label.c ****             line_dsc.color = color;
 317:..\..\..\arduinoLCD\test\Pain Drain\libraries\lvgl\src\draw/lv_draw_label.c ****             lv_draw_line(draw_ctx, &line_dsc, &p1, &p2);
 318:..\..\..\arduinoLCD\test\Pain Drain\libraries\lvgl\src\draw/lv_draw_label.c ****         }
 319:..\..\..\arduinoLCD\test\Pain Drain\libraries\lvgl\src\draw/lv_draw_label.c **** 
 320:..\..\..\arduinoLCD\test\Pain Drain\libraries\lvgl\src\draw/lv_draw_label.c ****         if(dsc->decor  & LV_TEXT_DECOR_UNDERLINE) {
 321:..\..\..\arduinoLCD\test\Pain Drain\libraries\lvgl\src\draw/lv_draw_label.c ****             lv_point_t p1;
 322:..\..\..\arduinoLCD\test\Pain Drain\libraries\lvgl\src\draw/lv_draw_label.c ****             lv_point_t p2;
 323:..\..\..\arduinoLCD\test\Pain Drain\libraries\lvgl\src\draw/lv_draw_label.c ****             p1.x = pos_x_start;
 324:..\..\..\arduinoLCD\test\Pain Drain\libraries\lvgl\src\draw/lv_draw_label.c ****             p1.y = pos.y + dsc->font->line_height - dsc->font->base_line - font->underline_position
 325:..\..\..\arduinoLCD\test\Pain Drain\libraries\lvgl\src\draw/lv_draw_label.c ****             p2.x = pos.x;
 326:..\..\..\arduinoLCD\test\Pain Drain\libraries\lvgl\src\draw/lv_draw_label.c ****             p2.y = p1.y;
 327:..\..\..\arduinoLCD\test\Pain Drain\libraries\lvgl\src\draw/lv_draw_label.c ****             line_dsc.color = color;
 328:..\..\..\arduinoLCD\test\Pain Drain\libraries\lvgl\src\draw/lv_draw_label.c ****             lv_draw_line(draw_ctx, &line_dsc, &p1, &p2);
 329:..\..\..\arduinoLCD\test\Pain Drain\libraries\lvgl\src\draw/lv_draw_label.c ****         }
 330:..\..\..\arduinoLCD\test\Pain Drain\libraries\lvgl\src\draw/lv_draw_label.c **** 
 331:..\..\..\arduinoLCD\test\Pain Drain\libraries\lvgl\src\draw/lv_draw_label.c **** #if LV_USE_BIDI
 332:..\..\..\arduinoLCD\test\Pain Drain\libraries\lvgl\src\draw/lv_draw_label.c ****         lv_mem_buf_release(bidi_txt);
 333:..\..\..\arduinoLCD\test\Pain Drain\libraries\lvgl\src\draw/lv_draw_label.c ****         bidi_txt = NULL;
 334:..\..\..\arduinoLCD\test\Pain Drain\libraries\lvgl\src\draw/lv_draw_label.c **** #endif
 335:..\..\..\arduinoLCD\test\Pain Drain\libraries\lvgl\src\draw/lv_draw_label.c ****         /*Go to next line*/
 336:..\..\..\arduinoLCD\test\Pain Drain\libraries\lvgl\src\draw/lv_draw_label.c ****         line_start = line_end;
 337:..\..\..\arduinoLCD\test\Pain Drain\libraries\lvgl\src\draw/lv_draw_label.c ****         line_end += _lv_txt_get_next_line(&txt[line_start], font, dsc->letter_space, w, NULL, dsc->
 338:..\..\..\arduinoLCD\test\Pain Drain\libraries\lvgl\src\draw/lv_draw_label.c **** 
 339:..\..\..\arduinoLCD\test\Pain Drain\libraries\lvgl\src\draw/lv_draw_label.c ****         pos.x = coords->x1;
 340:..\..\..\arduinoLCD\test\Pain Drain\libraries\lvgl\src\draw/lv_draw_label.c ****         /*Align to middle*/
 341:..\..\..\arduinoLCD\test\Pain Drain\libraries\lvgl\src\draw/lv_draw_label.c ****         if(align == LV_TEXT_ALIGN_CENTER) {
 342:..\..\..\arduinoLCD\test\Pain Drain\libraries\lvgl\src\draw/lv_draw_label.c ****             line_width =
 343:..\..\..\arduinoLCD\test\Pain Drain\libraries\lvgl\src\draw/lv_draw_label.c ****                 lv_txt_get_width(&txt[line_start], line_end - line_start, font, dsc->letter_space, 
 344:..\..\..\arduinoLCD\test\Pain Drain\libraries\lvgl\src\draw/lv_draw_label.c **** 
 345:..\..\..\arduinoLCD\test\Pain Drain\libraries\lvgl\src\draw/lv_draw_label.c ****             pos.x += (lv_area_get_width(coords) - line_width) / 2;
 346:..\..\..\arduinoLCD\test\Pain Drain\libraries\lvgl\src\draw/lv_draw_label.c **** 
 347:..\..\..\arduinoLCD\test\Pain Drain\libraries\lvgl\src\draw/lv_draw_label.c ****         }
 348:..\..\..\arduinoLCD\test\Pain Drain\libraries\lvgl\src\draw/lv_draw_label.c ****         /*Align to the right*/
 349:..\..\..\arduinoLCD\test\Pain Drain\libraries\lvgl\src\draw/lv_draw_label.c ****         else if(align == LV_TEXT_ALIGN_RIGHT) {
 350:..\..\..\arduinoLCD\test\Pain Drain\libraries\lvgl\src\draw/lv_draw_label.c ****             line_width =
 351:..\..\..\arduinoLCD\test\Pain Drain\libraries\lvgl\src\draw/lv_draw_label.c ****                 lv_txt_get_width(&txt[line_start], line_end - line_start, font, dsc->letter_space, 
 352:..\..\..\arduinoLCD\test\Pain Drain\libraries\lvgl\src\draw/lv_draw_label.c ****             pos.x += lv_area_get_width(coords) - line_width;
 353:..\..\..\arduinoLCD\test\Pain Drain\libraries\lvgl\src\draw/lv_draw_label.c ****         }
 354:..\..\..\arduinoLCD\test\Pain Drain\libraries\lvgl\src\draw/lv_draw_label.c **** 
 355:..\..\..\arduinoLCD\test\Pain Drain\libraries\lvgl\src\draw/lv_draw_label.c ****         /*Go the next line position*/
 356:..\..\..\arduinoLCD\test\Pain Drain\libraries\lvgl\src\draw/lv_draw_label.c ****         pos.y += line_height;
 357:..\..\..\arduinoLCD\test\Pain Drain\libraries\lvgl\src\draw/lv_draw_label.c **** 
 358:..\..\..\arduinoLCD\test\Pain Drain\libraries\lvgl\src\draw/lv_draw_label.c ****         if(pos.y > draw_ctx->clip_area->y2) return;
 359:..\..\..\arduinoLCD\test\Pain Drain\libraries\lvgl\src\draw/lv_draw_label.c ****     }
 360:..\..\..\arduinoLCD\test\Pain Drain\libraries\lvgl\src\draw/lv_draw_label.c **** 
 361:..\..\..\arduinoLCD\test\Pain Drain\libraries\lvgl\src\draw/lv_draw_label.c ****     LV_ASSERT_MEM_INTEGRITY();
 362:..\..\..\arduinoLCD\test\Pain Drain\libraries\lvgl\src\draw/lv_draw_label.c **** }
 363:..\..\..\arduinoLCD\test\Pain Drain\libraries\lvgl\src\draw/lv_draw_label.c **** 
 364:..\..\..\arduinoLCD\test\Pain Drain\libraries\lvgl\src\draw/lv_draw_label.c **** void lv_draw_letter(lv_draw_ctx_t * draw_ctx, const lv_draw_label_dsc_t * dsc,  const lv_point_t * 
 365:..\..\..\arduinoLCD\test\Pain Drain\libraries\lvgl\src\draw/lv_draw_label.c ****                     uint32_t letter)
 366:..\..\..\arduinoLCD\test\Pain Drain\libraries\lvgl\src\draw/lv_draw_label.c **** {
 367:..\..\..\arduinoLCD\test\Pain Drain\libraries\lvgl\src\draw/lv_draw_label.c ****     draw_ctx->draw_letter(draw_ctx, dsc, pos_p, letter);
 368:..\..\..\arduinoLCD\test\Pain Drain\libraries\lvgl\src\draw/lv_draw_label.c **** }
 369:..\..\..\arduinoLCD\test\Pain Drain\libraries\lvgl\src\draw/lv_draw_label.c **** 
 370:..\..\..\arduinoLCD\test\Pain Drain\libraries\lvgl\src\draw/lv_draw_label.c **** 
 371:..\..\..\arduinoLCD\test\Pain Drain\libraries\lvgl\src\draw/lv_draw_label.c **** /**********************
 372:..\..\..\arduinoLCD\test\Pain Drain\libraries\lvgl\src\draw/lv_draw_label.c ****  *   STATIC FUNCTIONS
ARM GAS  C:\Users\haske\AppData\Local\Temp\ccmIjDGo.s 			page 8


 373:..\..\..\arduinoLCD\test\Pain Drain\libraries\lvgl\src\draw/lv_draw_label.c ****  **********************/
 374:..\..\..\arduinoLCD\test\Pain Drain\libraries\lvgl\src\draw/lv_draw_label.c **** 
 375:..\..\..\arduinoLCD\test\Pain Drain\libraries\lvgl\src\draw/lv_draw_label.c **** /**
 376:..\..\..\arduinoLCD\test\Pain Drain\libraries\lvgl\src\draw/lv_draw_label.c ****  * Convert a hexadecimal characters to a number (0..15)
 377:..\..\..\arduinoLCD\test\Pain Drain\libraries\lvgl\src\draw/lv_draw_label.c ****  * @param hex Pointer to a hexadecimal character (0..9, A..F)
 378:..\..\..\arduinoLCD\test\Pain Drain\libraries\lvgl\src\draw/lv_draw_label.c ****  * @return the numerical value of `hex` or 0 on error
 379:..\..\..\arduinoLCD\test\Pain Drain\libraries\lvgl\src\draw/lv_draw_label.c ****  */
 380:..\..\..\arduinoLCD\test\Pain Drain\libraries\lvgl\src\draw/lv_draw_label.c **** static uint8_t hex_char_to_num(char hex)
 381:..\..\..\arduinoLCD\test\Pain Drain\libraries\lvgl\src\draw/lv_draw_label.c **** {
  28              		.loc 1 381 0
  29              		.cfi_startproc
  30              		@ args = 0, pretend = 0, frame = 0
  31              		@ frame_needed = 0, uses_anonymous_args = 0
  32              		@ link register save eliminated.
  33              	.LVL0:
  34 0000 0346     		mov	r3, r0
  35              	.LVL1:
 382:..\..\..\arduinoLCD\test\Pain Drain\libraries\lvgl\src\draw/lv_draw_label.c ****     uint8_t result = 0;
 383:..\..\..\arduinoLCD\test\Pain Drain\libraries\lvgl\src\draw/lv_draw_label.c **** 
 384:..\..\..\arduinoLCD\test\Pain Drain\libraries\lvgl\src\draw/lv_draw_label.c ****     if(hex >= '0' && hex <= '9') {
  36              		.loc 1 384 0
  37 0002 3038     		subs	r0, r0, #48
  38              	.LVL2:
  39 0004 C0B2     		uxtb	r0, r0
  40 0006 0928     		cmp	r0, #9
  41 0008 18D9     		bls	.L2
 385:..\..\..\arduinoLCD\test\Pain Drain\libraries\lvgl\src\draw/lv_draw_label.c ****         result = hex - '0';
 386:..\..\..\arduinoLCD\test\Pain Drain\libraries\lvgl\src\draw/lv_draw_label.c ****     }
 387:..\..\..\arduinoLCD\test\Pain Drain\libraries\lvgl\src\draw/lv_draw_label.c ****     else {
 388:..\..\..\arduinoLCD\test\Pain Drain\libraries\lvgl\src\draw/lv_draw_label.c ****         if(hex >= 'a') hex -= 'a' - 'A'; /*Convert to upper case*/
  42              		.loc 1 388 0
  43 000a 602B     		cmp	r3, #96
  44 000c 01D9     		bls	.L3
  45              		.loc 1 388 0 is_stmt 0 discriminator 1
  46 000e 203B     		subs	r3, r3, #32
  47 0010 DBB2     		uxtb	r3, r3
  48              	.LVL3:
  49              	.L3:
 389:..\..\..\arduinoLCD\test\Pain Drain\libraries\lvgl\src\draw/lv_draw_label.c **** 
 390:..\..\..\arduinoLCD\test\Pain Drain\libraries\lvgl\src\draw/lv_draw_label.c ****         switch(hex) {
  50              		.loc 1 390 0 is_stmt 1
  51 0012 413B     		subs	r3, r3, #65
  52              	.LVL4:
  53 0014 052B     		cmp	r3, #5
  54 0016 0ED8     		bhi	.L4
  55 0018 DFE803F0 		tbb	[pc, r3]
  56              	.L6:
  57 001c 03       		.byte	(.L5-.L6)/2
  58 001d 0F       		.byte	(.L11-.L6)/2
  59 001e 05       		.byte	(.L7-.L6)/2
  60 001f 07       		.byte	(.L8-.L6)/2
  61 0020 09       		.byte	(.L9-.L6)/2
  62 0021 0B       		.byte	(.L10-.L6)/2
  63              		.p2align 1
  64              	.L5:
 391:..\..\..\arduinoLCD\test\Pain Drain\libraries\lvgl\src\draw/lv_draw_label.c ****             case 'A':
 392:..\..\..\arduinoLCD\test\Pain Drain\libraries\lvgl\src\draw/lv_draw_label.c ****                 result = 10;
ARM GAS  C:\Users\haske\AppData\Local\Temp\ccmIjDGo.s 			page 9


  65              		.loc 1 392 0
  66 0022 0A20     		movs	r0, #10
  67 0024 7047     		bx	lr
  68              	.L7:
  69              	.LVL5:
 393:..\..\..\arduinoLCD\test\Pain Drain\libraries\lvgl\src\draw/lv_draw_label.c ****                 break;
 394:..\..\..\arduinoLCD\test\Pain Drain\libraries\lvgl\src\draw/lv_draw_label.c ****             case 'B':
 395:..\..\..\arduinoLCD\test\Pain Drain\libraries\lvgl\src\draw/lv_draw_label.c ****                 result = 11;
 396:..\..\..\arduinoLCD\test\Pain Drain\libraries\lvgl\src\draw/lv_draw_label.c ****                 break;
 397:..\..\..\arduinoLCD\test\Pain Drain\libraries\lvgl\src\draw/lv_draw_label.c ****             case 'C':
 398:..\..\..\arduinoLCD\test\Pain Drain\libraries\lvgl\src\draw/lv_draw_label.c ****                 result = 12;
  70              		.loc 1 398 0
  71 0026 0C20     		movs	r0, #12
 399:..\..\..\arduinoLCD\test\Pain Drain\libraries\lvgl\src\draw/lv_draw_label.c ****                 break;
  72              		.loc 1 399 0
  73 0028 7047     		bx	lr
  74              	.LVL6:
  75              	.L8:
 400:..\..\..\arduinoLCD\test\Pain Drain\libraries\lvgl\src\draw/lv_draw_label.c ****             case 'D':
 401:..\..\..\arduinoLCD\test\Pain Drain\libraries\lvgl\src\draw/lv_draw_label.c ****                 result = 13;
  76              		.loc 1 401 0
  77 002a 0D20     		movs	r0, #13
 402:..\..\..\arduinoLCD\test\Pain Drain\libraries\lvgl\src\draw/lv_draw_label.c ****                 break;
  78              		.loc 1 402 0
  79 002c 7047     		bx	lr
  80              	.LVL7:
  81              	.L9:
 403:..\..\..\arduinoLCD\test\Pain Drain\libraries\lvgl\src\draw/lv_draw_label.c ****             case 'E':
 404:..\..\..\arduinoLCD\test\Pain Drain\libraries\lvgl\src\draw/lv_draw_label.c ****                 result = 14;
  82              		.loc 1 404 0
  83 002e 0E20     		movs	r0, #14
 405:..\..\..\arduinoLCD\test\Pain Drain\libraries\lvgl\src\draw/lv_draw_label.c ****                 break;
  84              		.loc 1 405 0
  85 0030 7047     		bx	lr
  86              	.LVL8:
  87              	.L10:
 406:..\..\..\arduinoLCD\test\Pain Drain\libraries\lvgl\src\draw/lv_draw_label.c ****             case 'F':
 407:..\..\..\arduinoLCD\test\Pain Drain\libraries\lvgl\src\draw/lv_draw_label.c ****                 result = 15;
  88              		.loc 1 407 0
  89 0032 0F20     		movs	r0, #15
 408:..\..\..\arduinoLCD\test\Pain Drain\libraries\lvgl\src\draw/lv_draw_label.c ****                 break;
  90              		.loc 1 408 0
  91 0034 7047     		bx	lr
  92              	.LVL9:
  93              	.L4:
 409:..\..\..\arduinoLCD\test\Pain Drain\libraries\lvgl\src\draw/lv_draw_label.c ****             default:
 410:..\..\..\arduinoLCD\test\Pain Drain\libraries\lvgl\src\draw/lv_draw_label.c ****                 result = 0;
  94              		.loc 1 410 0
  95 0036 0020     		movs	r0, #0
 411:..\..\..\arduinoLCD\test\Pain Drain\libraries\lvgl\src\draw/lv_draw_label.c ****                 break;
  96              		.loc 1 411 0
  97 0038 7047     		bx	lr
  98              	.L11:
 395:..\..\..\arduinoLCD\test\Pain Drain\libraries\lvgl\src\draw/lv_draw_label.c ****                 break;
  99              		.loc 1 395 0
 100 003a 0B20     		movs	r0, #11
 101              	.L2:
ARM GAS  C:\Users\haske\AppData\Local\Temp\ccmIjDGo.s 			page 10


 102              	.LVL10:
 412:..\..\..\arduinoLCD\test\Pain Drain\libraries\lvgl\src\draw/lv_draw_label.c ****         }
 413:..\..\..\arduinoLCD\test\Pain Drain\libraries\lvgl\src\draw/lv_draw_label.c ****     }
 414:..\..\..\arduinoLCD\test\Pain Drain\libraries\lvgl\src\draw/lv_draw_label.c **** 
 415:..\..\..\arduinoLCD\test\Pain Drain\libraries\lvgl\src\draw/lv_draw_label.c ****     return result;
 416:..\..\..\arduinoLCD\test\Pain Drain\libraries\lvgl\src\draw/lv_draw_label.c **** }
 103              		.loc 1 416 0
 104 003c 7047     		bx	lr
 105              		.cfi_endproc
 106              	.LFE162:
 107              		.size	hex_char_to_num, .-hex_char_to_num
 108 003e 00BF     		.section	.text.lv_draw_label_dsc_init,"ax",%progbits
 109              		.align	2
 110              		.global	lv_draw_label_dsc_init
 111              		.thumb
 112              		.thumb_func
 113              		.type	lv_draw_label_dsc_init, %function
 114              	lv_draw_label_dsc_init:
 115              	.LFB159:
  56:..\..\..\arduinoLCD\test\Pain Drain\libraries\lvgl\src\draw/lv_draw_label.c ****     lv_memset_00(dsc, sizeof(lv_draw_label_dsc_t));
 116              		.loc 1 56 0
 117              		.cfi_startproc
 118              		@ args = 0, pretend = 0, frame = 0
 119              		@ frame_needed = 0, uses_anonymous_args = 0
 120              	.LVL11:
 121 0000 10B5     		push	{r4, lr}
 122              		.cfi_def_cfa_offset 8
 123              		.cfi_offset 4, -8
 124              		.cfi_offset 14, -4
 125 0002 0446     		mov	r4, r0
  57:..\..\..\arduinoLCD\test\Pain Drain\libraries\lvgl\src\draw/lv_draw_label.c ****     dsc->opa = LV_OPA_COVER;
 126              		.loc 1 57 0
 127 0004 2021     		movs	r1, #32
 128 0006 FFF7FEFF 		bl	lv_memset_00
 129              	.LVL12:
  58:..\..\..\arduinoLCD\test\Pain Drain\libraries\lvgl\src\draw/lv_draw_label.c ****     dsc->color = lv_color_black();
 130              		.loc 1 58 0
 131 000a FF23     		movs	r3, #255
 132 000c A376     		strb	r3, [r4, #26]
 133              	.LVL13:
 134              	.LBB46:
 135              	.LBB47:
 136              	.LBB48:
 137              		.file 2 "..\\..\\..\\arduinoLCD\\test\\Pain Drain\\libraries\\lvgl\\src\\draw\\../misc/lv_color.h"
   1:..\..\..\arduinoLCD\test\Pain Drain\libraries\lvgl\src\draw\../misc/lv_color.h **** /**
   2:..\..\..\arduinoLCD\test\Pain Drain\libraries\lvgl\src\draw\../misc/lv_color.h ****  * @file lv_color.h
   3:..\..\..\arduinoLCD\test\Pain Drain\libraries\lvgl\src\draw\../misc/lv_color.h ****  *
   4:..\..\..\arduinoLCD\test\Pain Drain\libraries\lvgl\src\draw\../misc/lv_color.h ****  */
   5:..\..\..\arduinoLCD\test\Pain Drain\libraries\lvgl\src\draw\../misc/lv_color.h **** 
   6:..\..\..\arduinoLCD\test\Pain Drain\libraries\lvgl\src\draw\../misc/lv_color.h **** #ifndef LV_COLOR_H
   7:..\..\..\arduinoLCD\test\Pain Drain\libraries\lvgl\src\draw\../misc/lv_color.h **** #define LV_COLOR_H
   8:..\..\..\arduinoLCD\test\Pain Drain\libraries\lvgl\src\draw\../misc/lv_color.h **** 
   9:..\..\..\arduinoLCD\test\Pain Drain\libraries\lvgl\src\draw\../misc/lv_color.h **** #ifdef __cplusplus
  10:..\..\..\arduinoLCD\test\Pain Drain\libraries\lvgl\src\draw\../misc/lv_color.h **** extern "C" {
  11:..\..\..\arduinoLCD\test\Pain Drain\libraries\lvgl\src\draw\../misc/lv_color.h **** #endif
  12:..\..\..\arduinoLCD\test\Pain Drain\libraries\lvgl\src\draw\../misc/lv_color.h **** 
  13:..\..\..\arduinoLCD\test\Pain Drain\libraries\lvgl\src\draw\../misc/lv_color.h **** /*********************
ARM GAS  C:\Users\haske\AppData\Local\Temp\ccmIjDGo.s 			page 11


  14:..\..\..\arduinoLCD\test\Pain Drain\libraries\lvgl\src\draw\../misc/lv_color.h ****  *      INCLUDES
  15:..\..\..\arduinoLCD\test\Pain Drain\libraries\lvgl\src\draw\../misc/lv_color.h ****  *********************/
  16:..\..\..\arduinoLCD\test\Pain Drain\libraries\lvgl\src\draw\../misc/lv_color.h **** #include "../lv_conf_internal.h"
  17:..\..\..\arduinoLCD\test\Pain Drain\libraries\lvgl\src\draw\../misc/lv_color.h **** #include "lv_assert.h"
  18:..\..\..\arduinoLCD\test\Pain Drain\libraries\lvgl\src\draw\../misc/lv_color.h **** #include "lv_math.h"
  19:..\..\..\arduinoLCD\test\Pain Drain\libraries\lvgl\src\draw\../misc/lv_color.h **** #include "lv_types.h"
  20:..\..\..\arduinoLCD\test\Pain Drain\libraries\lvgl\src\draw\../misc/lv_color.h **** 
  21:..\..\..\arduinoLCD\test\Pain Drain\libraries\lvgl\src\draw\../misc/lv_color.h **** /*Error checking*/
  22:..\..\..\arduinoLCD\test\Pain Drain\libraries\lvgl\src\draw\../misc/lv_color.h **** #if LV_COLOR_DEPTH == 24
  23:..\..\..\arduinoLCD\test\Pain Drain\libraries\lvgl\src\draw\../misc/lv_color.h **** #error "LV_COLOR_DEPTH 24 is deprecated. Use LV_COLOR_DEPTH 32 instead (lv_conf.h)"
  24:..\..\..\arduinoLCD\test\Pain Drain\libraries\lvgl\src\draw\../misc/lv_color.h **** #endif
  25:..\..\..\arduinoLCD\test\Pain Drain\libraries\lvgl\src\draw\../misc/lv_color.h **** 
  26:..\..\..\arduinoLCD\test\Pain Drain\libraries\lvgl\src\draw\../misc/lv_color.h **** #if LV_COLOR_DEPTH != 16 && LV_COLOR_16_SWAP != 0
  27:..\..\..\arduinoLCD\test\Pain Drain\libraries\lvgl\src\draw\../misc/lv_color.h **** #error "LV_COLOR_16_SWAP requires LV_COLOR_DEPTH == 16. Set it in lv_conf.h"
  28:..\..\..\arduinoLCD\test\Pain Drain\libraries\lvgl\src\draw\../misc/lv_color.h **** #endif
  29:..\..\..\arduinoLCD\test\Pain Drain\libraries\lvgl\src\draw\../misc/lv_color.h **** 
  30:..\..\..\arduinoLCD\test\Pain Drain\libraries\lvgl\src\draw\../misc/lv_color.h **** #include <stdint.h>
  31:..\..\..\arduinoLCD\test\Pain Drain\libraries\lvgl\src\draw\../misc/lv_color.h **** 
  32:..\..\..\arduinoLCD\test\Pain Drain\libraries\lvgl\src\draw\../misc/lv_color.h **** /*********************
  33:..\..\..\arduinoLCD\test\Pain Drain\libraries\lvgl\src\draw\../misc/lv_color.h ****  *      DEFINES
  34:..\..\..\arduinoLCD\test\Pain Drain\libraries\lvgl\src\draw\../misc/lv_color.h ****  *********************/
  35:..\..\..\arduinoLCD\test\Pain Drain\libraries\lvgl\src\draw\../misc/lv_color.h **** LV_EXPORT_CONST_INT(LV_COLOR_DEPTH);
  36:..\..\..\arduinoLCD\test\Pain Drain\libraries\lvgl\src\draw\../misc/lv_color.h **** LV_EXPORT_CONST_INT(LV_COLOR_16_SWAP);
  37:..\..\..\arduinoLCD\test\Pain Drain\libraries\lvgl\src\draw\../misc/lv_color.h **** 
  38:..\..\..\arduinoLCD\test\Pain Drain\libraries\lvgl\src\draw\../misc/lv_color.h **** /**
  39:..\..\..\arduinoLCD\test\Pain Drain\libraries\lvgl\src\draw\../misc/lv_color.h ****  * Opacity percentages.
  40:..\..\..\arduinoLCD\test\Pain Drain\libraries\lvgl\src\draw\../misc/lv_color.h ****  */
  41:..\..\..\arduinoLCD\test\Pain Drain\libraries\lvgl\src\draw\../misc/lv_color.h **** enum {
  42:..\..\..\arduinoLCD\test\Pain Drain\libraries\lvgl\src\draw\../misc/lv_color.h ****     LV_OPA_TRANSP = 0,
  43:..\..\..\arduinoLCD\test\Pain Drain\libraries\lvgl\src\draw\../misc/lv_color.h ****     LV_OPA_0      = 0,
  44:..\..\..\arduinoLCD\test\Pain Drain\libraries\lvgl\src\draw\../misc/lv_color.h ****     LV_OPA_10     = 25,
  45:..\..\..\arduinoLCD\test\Pain Drain\libraries\lvgl\src\draw\../misc/lv_color.h ****     LV_OPA_20     = 51,
  46:..\..\..\arduinoLCD\test\Pain Drain\libraries\lvgl\src\draw\../misc/lv_color.h ****     LV_OPA_30     = 76,
  47:..\..\..\arduinoLCD\test\Pain Drain\libraries\lvgl\src\draw\../misc/lv_color.h ****     LV_OPA_40     = 102,
  48:..\..\..\arduinoLCD\test\Pain Drain\libraries\lvgl\src\draw\../misc/lv_color.h ****     LV_OPA_50     = 127,
  49:..\..\..\arduinoLCD\test\Pain Drain\libraries\lvgl\src\draw\../misc/lv_color.h ****     LV_OPA_60     = 153,
  50:..\..\..\arduinoLCD\test\Pain Drain\libraries\lvgl\src\draw\../misc/lv_color.h ****     LV_OPA_70     = 178,
  51:..\..\..\arduinoLCD\test\Pain Drain\libraries\lvgl\src\draw\../misc/lv_color.h ****     LV_OPA_80     = 204,
  52:..\..\..\arduinoLCD\test\Pain Drain\libraries\lvgl\src\draw\../misc/lv_color.h ****     LV_OPA_90     = 229,
  53:..\..\..\arduinoLCD\test\Pain Drain\libraries\lvgl\src\draw\../misc/lv_color.h ****     LV_OPA_100    = 255,
  54:..\..\..\arduinoLCD\test\Pain Drain\libraries\lvgl\src\draw\../misc/lv_color.h ****     LV_OPA_COVER  = 255,
  55:..\..\..\arduinoLCD\test\Pain Drain\libraries\lvgl\src\draw\../misc/lv_color.h **** };
  56:..\..\..\arduinoLCD\test\Pain Drain\libraries\lvgl\src\draw\../misc/lv_color.h **** 
  57:..\..\..\arduinoLCD\test\Pain Drain\libraries\lvgl\src\draw\../misc/lv_color.h **** #define LV_OPA_MIN 2    /*Opacities below this will be transparent*/
  58:..\..\..\arduinoLCD\test\Pain Drain\libraries\lvgl\src\draw\../misc/lv_color.h **** #define LV_OPA_MAX 253  /*Opacities above this will fully cover*/
  59:..\..\..\arduinoLCD\test\Pain Drain\libraries\lvgl\src\draw\../misc/lv_color.h **** 
  60:..\..\..\arduinoLCD\test\Pain Drain\libraries\lvgl\src\draw\../misc/lv_color.h **** #if LV_COLOR_DEPTH == 1
  61:..\..\..\arduinoLCD\test\Pain Drain\libraries\lvgl\src\draw\../misc/lv_color.h **** #define LV_COLOR_SIZE 8
  62:..\..\..\arduinoLCD\test\Pain Drain\libraries\lvgl\src\draw\../misc/lv_color.h **** #elif LV_COLOR_DEPTH == 8
  63:..\..\..\arduinoLCD\test\Pain Drain\libraries\lvgl\src\draw\../misc/lv_color.h **** #define LV_COLOR_SIZE 8
  64:..\..\..\arduinoLCD\test\Pain Drain\libraries\lvgl\src\draw\../misc/lv_color.h **** #elif LV_COLOR_DEPTH == 16
  65:..\..\..\arduinoLCD\test\Pain Drain\libraries\lvgl\src\draw\../misc/lv_color.h **** #define LV_COLOR_SIZE 16
  66:..\..\..\arduinoLCD\test\Pain Drain\libraries\lvgl\src\draw\../misc/lv_color.h **** #elif LV_COLOR_DEPTH == 32
  67:..\..\..\arduinoLCD\test\Pain Drain\libraries\lvgl\src\draw\../misc/lv_color.h **** #define LV_COLOR_SIZE 32
  68:..\..\..\arduinoLCD\test\Pain Drain\libraries\lvgl\src\draw\../misc/lv_color.h **** #else
  69:..\..\..\arduinoLCD\test\Pain Drain\libraries\lvgl\src\draw\../misc/lv_color.h **** #error "Invalid LV_COLOR_DEPTH in lv_conf.h! Set it to 1, 8, 16 or 32!"
  70:..\..\..\arduinoLCD\test\Pain Drain\libraries\lvgl\src\draw\../misc/lv_color.h **** #endif
ARM GAS  C:\Users\haske\AppData\Local\Temp\ccmIjDGo.s 			page 12


  71:..\..\..\arduinoLCD\test\Pain Drain\libraries\lvgl\src\draw\../misc/lv_color.h **** 
  72:..\..\..\arduinoLCD\test\Pain Drain\libraries\lvgl\src\draw\../misc/lv_color.h **** #if defined(__cplusplus) && !defined(_LV_COLOR_HAS_MODERN_CPP)
  73:..\..\..\arduinoLCD\test\Pain Drain\libraries\lvgl\src\draw\../misc/lv_color.h **** /**
  74:..\..\..\arduinoLCD\test\Pain Drain\libraries\lvgl\src\draw\../misc/lv_color.h **** * MSVC compiler's definition of the __cplusplus indicating 199711L regardless to C++ standard versi
  75:..\..\..\arduinoLCD\test\Pain Drain\libraries\lvgl\src\draw\../misc/lv_color.h **** * see https://devblogs.microsoft.com/cppblog/msvc-now-correctly-reports-cplusplus
  76:..\..\..\arduinoLCD\test\Pain Drain\libraries\lvgl\src\draw\../misc/lv_color.h **** * so we use _MSC_VER macro instead of __cplusplus
  77:..\..\..\arduinoLCD\test\Pain Drain\libraries\lvgl\src\draw\../misc/lv_color.h **** */
  78:..\..\..\arduinoLCD\test\Pain Drain\libraries\lvgl\src\draw\../misc/lv_color.h **** #ifdef _MSC_VER
  79:..\..\..\arduinoLCD\test\Pain Drain\libraries\lvgl\src\draw\../misc/lv_color.h **** #if _MSC_VER >= 1900 /*Visual Studio 2015*/
  80:..\..\..\arduinoLCD\test\Pain Drain\libraries\lvgl\src\draw\../misc/lv_color.h **** #define _LV_COLOR_HAS_MODERN_CPP 1
  81:..\..\..\arduinoLCD\test\Pain Drain\libraries\lvgl\src\draw\../misc/lv_color.h **** #endif
  82:..\..\..\arduinoLCD\test\Pain Drain\libraries\lvgl\src\draw\../misc/lv_color.h **** #else
  83:..\..\..\arduinoLCD\test\Pain Drain\libraries\lvgl\src\draw\../misc/lv_color.h **** #if __cplusplus >= 201103L
  84:..\..\..\arduinoLCD\test\Pain Drain\libraries\lvgl\src\draw\../misc/lv_color.h **** #define _LV_COLOR_HAS_MODERN_CPP 1
  85:..\..\..\arduinoLCD\test\Pain Drain\libraries\lvgl\src\draw\../misc/lv_color.h **** #endif
  86:..\..\..\arduinoLCD\test\Pain Drain\libraries\lvgl\src\draw\../misc/lv_color.h **** #endif
  87:..\..\..\arduinoLCD\test\Pain Drain\libraries\lvgl\src\draw\../misc/lv_color.h **** #endif /*__cplusplus*/
  88:..\..\..\arduinoLCD\test\Pain Drain\libraries\lvgl\src\draw\../misc/lv_color.h **** 
  89:..\..\..\arduinoLCD\test\Pain Drain\libraries\lvgl\src\draw\../misc/lv_color.h **** #ifndef _LV_COLOR_HAS_MODERN_CPP
  90:..\..\..\arduinoLCD\test\Pain Drain\libraries\lvgl\src\draw\../misc/lv_color.h **** #define _LV_COLOR_HAS_MODERN_CPP 0
  91:..\..\..\arduinoLCD\test\Pain Drain\libraries\lvgl\src\draw\../misc/lv_color.h **** #endif
  92:..\..\..\arduinoLCD\test\Pain Drain\libraries\lvgl\src\draw\../misc/lv_color.h **** 
  93:..\..\..\arduinoLCD\test\Pain Drain\libraries\lvgl\src\draw\../misc/lv_color.h **** #if _LV_COLOR_HAS_MODERN_CPP
  94:..\..\..\arduinoLCD\test\Pain Drain\libraries\lvgl\src\draw\../misc/lv_color.h **** /*Fix msvc compiler error C4576 inside C++ code*/
  95:..\..\..\arduinoLCD\test\Pain Drain\libraries\lvgl\src\draw\../misc/lv_color.h **** #define _LV_COLOR_MAKE_TYPE_HELPER lv_color_t
  96:..\..\..\arduinoLCD\test\Pain Drain\libraries\lvgl\src\draw\../misc/lv_color.h **** #else
  97:..\..\..\arduinoLCD\test\Pain Drain\libraries\lvgl\src\draw\../misc/lv_color.h **** #define _LV_COLOR_MAKE_TYPE_HELPER (lv_color_t)
  98:..\..\..\arduinoLCD\test\Pain Drain\libraries\lvgl\src\draw\../misc/lv_color.h **** #endif
  99:..\..\..\arduinoLCD\test\Pain Drain\libraries\lvgl\src\draw\../misc/lv_color.h **** 
 100:..\..\..\arduinoLCD\test\Pain Drain\libraries\lvgl\src\draw\../misc/lv_color.h **** /*---------------------------------------
 101:..\..\..\arduinoLCD\test\Pain Drain\libraries\lvgl\src\draw\../misc/lv_color.h ****  * Macros for all existing color depths
 102:..\..\..\arduinoLCD\test\Pain Drain\libraries\lvgl\src\draw\../misc/lv_color.h ****  * to set/get values of the color channels
 103:..\..\..\arduinoLCD\test\Pain Drain\libraries\lvgl\src\draw\../misc/lv_color.h ****  *------------------------------------------*/
 104:..\..\..\arduinoLCD\test\Pain Drain\libraries\lvgl\src\draw\../misc/lv_color.h **** # define LV_COLOR_SET_R1(c, v) (c).ch.red = (uint8_t)((v) & 0x1)
 105:..\..\..\arduinoLCD\test\Pain Drain\libraries\lvgl\src\draw\../misc/lv_color.h **** # define LV_COLOR_SET_G1(c, v) (c).ch.green = (uint8_t)((v) & 0x1)
 106:..\..\..\arduinoLCD\test\Pain Drain\libraries\lvgl\src\draw\../misc/lv_color.h **** # define LV_COLOR_SET_B1(c, v) (c).ch.blue = (uint8_t)((v) & 0x1)
 107:..\..\..\arduinoLCD\test\Pain Drain\libraries\lvgl\src\draw\../misc/lv_color.h **** # define LV_COLOR_SET_A1(c, v) do {} while(0)
 108:..\..\..\arduinoLCD\test\Pain Drain\libraries\lvgl\src\draw\../misc/lv_color.h **** 
 109:..\..\..\arduinoLCD\test\Pain Drain\libraries\lvgl\src\draw\../misc/lv_color.h **** # define LV_COLOR_GET_R1(c) (c).ch.red
 110:..\..\..\arduinoLCD\test\Pain Drain\libraries\lvgl\src\draw\../misc/lv_color.h **** # define LV_COLOR_GET_G1(c) (c).ch.green
 111:..\..\..\arduinoLCD\test\Pain Drain\libraries\lvgl\src\draw\../misc/lv_color.h **** # define LV_COLOR_GET_B1(c) (c).ch.blue
 112:..\..\..\arduinoLCD\test\Pain Drain\libraries\lvgl\src\draw\../misc/lv_color.h **** # define LV_COLOR_GET_A1(c) 0xFF
 113:..\..\..\arduinoLCD\test\Pain Drain\libraries\lvgl\src\draw\../misc/lv_color.h **** 
 114:..\..\..\arduinoLCD\test\Pain Drain\libraries\lvgl\src\draw\../misc/lv_color.h **** # define _LV_COLOR_ZERO_INITIALIZER1 {0x00}
 115:..\..\..\arduinoLCD\test\Pain Drain\libraries\lvgl\src\draw\../misc/lv_color.h **** # define LV_COLOR_MAKE1(r8, g8, b8)  {(uint8_t)((b8 >> 7) | (g8 >> 7) | (r8 >> 7))}
 116:..\..\..\arduinoLCD\test\Pain Drain\libraries\lvgl\src\draw\../misc/lv_color.h **** 
 117:..\..\..\arduinoLCD\test\Pain Drain\libraries\lvgl\src\draw\../misc/lv_color.h **** # define LV_COLOR_SET_R8(c, v) (c).ch.red = (uint8_t)((v) & 0x7U)
 118:..\..\..\arduinoLCD\test\Pain Drain\libraries\lvgl\src\draw\../misc/lv_color.h **** # define LV_COLOR_SET_G8(c, v) (c).ch.green = (uint8_t)((v) & 0x7U)
 119:..\..\..\arduinoLCD\test\Pain Drain\libraries\lvgl\src\draw\../misc/lv_color.h **** # define LV_COLOR_SET_B8(c, v) (c).ch.blue = (uint8_t)((v) & 0x3U)
 120:..\..\..\arduinoLCD\test\Pain Drain\libraries\lvgl\src\draw\../misc/lv_color.h **** # define LV_COLOR_SET_A8(c, v) do {} while(0)
 121:..\..\..\arduinoLCD\test\Pain Drain\libraries\lvgl\src\draw\../misc/lv_color.h **** 
 122:..\..\..\arduinoLCD\test\Pain Drain\libraries\lvgl\src\draw\../misc/lv_color.h **** # define LV_COLOR_GET_R8(c) (c).ch.red
 123:..\..\..\arduinoLCD\test\Pain Drain\libraries\lvgl\src\draw\../misc/lv_color.h **** # define LV_COLOR_GET_G8(c) (c).ch.green
 124:..\..\..\arduinoLCD\test\Pain Drain\libraries\lvgl\src\draw\../misc/lv_color.h **** # define LV_COLOR_GET_B8(c) (c).ch.blue
 125:..\..\..\arduinoLCD\test\Pain Drain\libraries\lvgl\src\draw\../misc/lv_color.h **** # define LV_COLOR_GET_A8(c) 0xFF
 126:..\..\..\arduinoLCD\test\Pain Drain\libraries\lvgl\src\draw\../misc/lv_color.h **** 
 127:..\..\..\arduinoLCD\test\Pain Drain\libraries\lvgl\src\draw\../misc/lv_color.h **** # define _LV_COLOR_ZERO_INITIALIZER8 {{0x00, 0x00, 0x00}}
ARM GAS  C:\Users\haske\AppData\Local\Temp\ccmIjDGo.s 			page 13


 128:..\..\..\arduinoLCD\test\Pain Drain\libraries\lvgl\src\draw\../misc/lv_color.h **** # define LV_COLOR_MAKE8(r8, g8, b8) {{(uint8_t)((b8 >> 6) & 0x3U), (uint8_t)((g8 >> 5) & 0x7U), (ui
 129:..\..\..\arduinoLCD\test\Pain Drain\libraries\lvgl\src\draw\../misc/lv_color.h **** 
 130:..\..\..\arduinoLCD\test\Pain Drain\libraries\lvgl\src\draw\../misc/lv_color.h **** # define LV_COLOR_SET_R16(c, v) (c).ch.red = (uint8_t)((v) & 0x1FU)
 131:..\..\..\arduinoLCD\test\Pain Drain\libraries\lvgl\src\draw\../misc/lv_color.h **** #if LV_COLOR_16_SWAP == 0
 132:..\..\..\arduinoLCD\test\Pain Drain\libraries\lvgl\src\draw\../misc/lv_color.h **** # define LV_COLOR_SET_G16(c, v) (c).ch.green = (uint8_t)((v) & 0x3FU)
 133:..\..\..\arduinoLCD\test\Pain Drain\libraries\lvgl\src\draw\../misc/lv_color.h **** #else
 134:..\..\..\arduinoLCD\test\Pain Drain\libraries\lvgl\src\draw\../misc/lv_color.h **** # define LV_COLOR_SET_G16(c, v) {(c).ch.green_h = (uint8_t)(((v) >> 3) & 0x7); (c).ch.green_l = (ui
 135:..\..\..\arduinoLCD\test\Pain Drain\libraries\lvgl\src\draw\../misc/lv_color.h **** #endif
 136:..\..\..\arduinoLCD\test\Pain Drain\libraries\lvgl\src\draw\../misc/lv_color.h **** # define LV_COLOR_SET_B16(c, v) (c).ch.blue = (uint8_t)((v) & 0x1FU)
 137:..\..\..\arduinoLCD\test\Pain Drain\libraries\lvgl\src\draw\../misc/lv_color.h **** # define LV_COLOR_SET_A16(c, v) do {} while(0)
 138:..\..\..\arduinoLCD\test\Pain Drain\libraries\lvgl\src\draw\../misc/lv_color.h **** 
 139:..\..\..\arduinoLCD\test\Pain Drain\libraries\lvgl\src\draw\../misc/lv_color.h **** # define LV_COLOR_GET_R16(c) (c).ch.red
 140:..\..\..\arduinoLCD\test\Pain Drain\libraries\lvgl\src\draw\../misc/lv_color.h **** #if LV_COLOR_16_SWAP == 0
 141:..\..\..\arduinoLCD\test\Pain Drain\libraries\lvgl\src\draw\../misc/lv_color.h **** # define LV_COLOR_GET_G16(c) (c).ch.green
 142:..\..\..\arduinoLCD\test\Pain Drain\libraries\lvgl\src\draw\../misc/lv_color.h **** #else
 143:..\..\..\arduinoLCD\test\Pain Drain\libraries\lvgl\src\draw\../misc/lv_color.h **** # define LV_COLOR_GET_G16(c) (((c).ch.green_h << 3) + (c).ch.green_l)
 144:..\..\..\arduinoLCD\test\Pain Drain\libraries\lvgl\src\draw\../misc/lv_color.h **** #endif
 145:..\..\..\arduinoLCD\test\Pain Drain\libraries\lvgl\src\draw\../misc/lv_color.h **** # define LV_COLOR_GET_B16(c) (c).ch.blue
 146:..\..\..\arduinoLCD\test\Pain Drain\libraries\lvgl\src\draw\../misc/lv_color.h **** # define LV_COLOR_GET_A16(c) 0xFF
 147:..\..\..\arduinoLCD\test\Pain Drain\libraries\lvgl\src\draw\../misc/lv_color.h **** 
 148:..\..\..\arduinoLCD\test\Pain Drain\libraries\lvgl\src\draw\../misc/lv_color.h **** #if LV_COLOR_16_SWAP == 0
 149:..\..\..\arduinoLCD\test\Pain Drain\libraries\lvgl\src\draw\../misc/lv_color.h **** # define _LV_COLOR_ZERO_INITIALIZER16  {{0x00, 0x00, 0x00}}
 150:..\..\..\arduinoLCD\test\Pain Drain\libraries\lvgl\src\draw\../misc/lv_color.h **** # define LV_COLOR_MAKE16(r8, g8, b8) {{(uint8_t)((b8 >> 3) & 0x1FU), (uint8_t)((g8 >> 2) & 0x3FU), 
 151:..\..\..\arduinoLCD\test\Pain Drain\libraries\lvgl\src\draw\../misc/lv_color.h **** #else
 152:..\..\..\arduinoLCD\test\Pain Drain\libraries\lvgl\src\draw\../misc/lv_color.h **** # define _LV_COLOR_ZERO_INITIALIZER16 {{0x00, 0x00, 0x00, 0x00}}
 153:..\..\..\arduinoLCD\test\Pain Drain\libraries\lvgl\src\draw\../misc/lv_color.h **** # define LV_COLOR_MAKE16(r8, g8, b8) {{(uint8_t)((g8 >> 5) & 0x7U), (uint8_t)((r8 >> 3) & 0x1FU), (
 154:..\..\..\arduinoLCD\test\Pain Drain\libraries\lvgl\src\draw\../misc/lv_color.h **** #endif
 155:..\..\..\arduinoLCD\test\Pain Drain\libraries\lvgl\src\draw\../misc/lv_color.h **** 
 156:..\..\..\arduinoLCD\test\Pain Drain\libraries\lvgl\src\draw\../misc/lv_color.h **** # define LV_COLOR_SET_R32(c, v) (c).ch.red = (uint8_t)((v) & 0xFF)
 157:..\..\..\arduinoLCD\test\Pain Drain\libraries\lvgl\src\draw\../misc/lv_color.h **** # define LV_COLOR_SET_G32(c, v) (c).ch.green = (uint8_t)((v) & 0xFF)
 158:..\..\..\arduinoLCD\test\Pain Drain\libraries\lvgl\src\draw\../misc/lv_color.h **** # define LV_COLOR_SET_B32(c, v) (c).ch.blue = (uint8_t)((v) & 0xFF)
 159:..\..\..\arduinoLCD\test\Pain Drain\libraries\lvgl\src\draw\../misc/lv_color.h **** # define LV_COLOR_SET_A32(c, v) (c).ch.alpha = (uint8_t)((v) & 0xFF)
 160:..\..\..\arduinoLCD\test\Pain Drain\libraries\lvgl\src\draw\../misc/lv_color.h **** 
 161:..\..\..\arduinoLCD\test\Pain Drain\libraries\lvgl\src\draw\../misc/lv_color.h **** # define LV_COLOR_GET_R32(c) (c).ch.red
 162:..\..\..\arduinoLCD\test\Pain Drain\libraries\lvgl\src\draw\../misc/lv_color.h **** # define LV_COLOR_GET_G32(c) (c).ch.green
 163:..\..\..\arduinoLCD\test\Pain Drain\libraries\lvgl\src\draw\../misc/lv_color.h **** # define LV_COLOR_GET_B32(c) (c).ch.blue
 164:..\..\..\arduinoLCD\test\Pain Drain\libraries\lvgl\src\draw\../misc/lv_color.h **** # define LV_COLOR_GET_A32(c) (c).ch.alpha
 165:..\..\..\arduinoLCD\test\Pain Drain\libraries\lvgl\src\draw\../misc/lv_color.h **** 
 166:..\..\..\arduinoLCD\test\Pain Drain\libraries\lvgl\src\draw\../misc/lv_color.h **** # define _LV_COLOR_ZERO_INITIALIZER32  {{0x00, 0x00, 0x00, 0x00}}
 167:..\..\..\arduinoLCD\test\Pain Drain\libraries\lvgl\src\draw\../misc/lv_color.h **** # define LV_COLOR_MAKE32(r8, g8, b8) {{b8, g8, r8, 0xff}} /*Fix 0xff alpha*/
 168:..\..\..\arduinoLCD\test\Pain Drain\libraries\lvgl\src\draw\../misc/lv_color.h **** 
 169:..\..\..\arduinoLCD\test\Pain Drain\libraries\lvgl\src\draw\../misc/lv_color.h **** /*---------------------------------------
 170:..\..\..\arduinoLCD\test\Pain Drain\libraries\lvgl\src\draw\../misc/lv_color.h ****  * Macros for the current color depth
 171:..\..\..\arduinoLCD\test\Pain Drain\libraries\lvgl\src\draw\../misc/lv_color.h ****  * to set/get values of the color channels
 172:..\..\..\arduinoLCD\test\Pain Drain\libraries\lvgl\src\draw\../misc/lv_color.h ****  *------------------------------------------*/
 173:..\..\..\arduinoLCD\test\Pain Drain\libraries\lvgl\src\draw\../misc/lv_color.h **** #define LV_COLOR_SET_R(c, v) LV_CONCAT(LV_COLOR_SET_R, LV_COLOR_DEPTH)(c, v)
 174:..\..\..\arduinoLCD\test\Pain Drain\libraries\lvgl\src\draw\../misc/lv_color.h **** #define LV_COLOR_SET_G(c, v) LV_CONCAT(LV_COLOR_SET_G, LV_COLOR_DEPTH)(c, v)
 175:..\..\..\arduinoLCD\test\Pain Drain\libraries\lvgl\src\draw\../misc/lv_color.h **** #define LV_COLOR_SET_B(c, v) LV_CONCAT(LV_COLOR_SET_B, LV_COLOR_DEPTH)(c, v)
 176:..\..\..\arduinoLCD\test\Pain Drain\libraries\lvgl\src\draw\../misc/lv_color.h **** #define LV_COLOR_SET_A(c, v) LV_CONCAT(LV_COLOR_SET_A, LV_COLOR_DEPTH)(c, v)
 177:..\..\..\arduinoLCD\test\Pain Drain\libraries\lvgl\src\draw\../misc/lv_color.h **** 
 178:..\..\..\arduinoLCD\test\Pain Drain\libraries\lvgl\src\draw\../misc/lv_color.h **** #define LV_COLOR_GET_R(c) LV_CONCAT(LV_COLOR_GET_R, LV_COLOR_DEPTH)(c)
 179:..\..\..\arduinoLCD\test\Pain Drain\libraries\lvgl\src\draw\../misc/lv_color.h **** #define LV_COLOR_GET_G(c) LV_CONCAT(LV_COLOR_GET_G, LV_COLOR_DEPTH)(c)
 180:..\..\..\arduinoLCD\test\Pain Drain\libraries\lvgl\src\draw\../misc/lv_color.h **** #define LV_COLOR_GET_B(c) LV_CONCAT(LV_COLOR_GET_B, LV_COLOR_DEPTH)(c)
 181:..\..\..\arduinoLCD\test\Pain Drain\libraries\lvgl\src\draw\../misc/lv_color.h **** #define LV_COLOR_GET_A(c) LV_CONCAT(LV_COLOR_GET_A, LV_COLOR_DEPTH)(c)
 182:..\..\..\arduinoLCD\test\Pain Drain\libraries\lvgl\src\draw\../misc/lv_color.h **** 
 183:..\..\..\arduinoLCD\test\Pain Drain\libraries\lvgl\src\draw\../misc/lv_color.h **** #define _LV_COLOR_ZERO_INITIALIZER LV_CONCAT(_LV_COLOR_ZERO_INITIALIZER, LV_COLOR_DEPTH)
 184:..\..\..\arduinoLCD\test\Pain Drain\libraries\lvgl\src\draw\../misc/lv_color.h **** #define LV_COLOR_MAKE(r8, g8, b8) LV_CONCAT(LV_COLOR_MAKE, LV_COLOR_DEPTH)(r8, g8, b8)
ARM GAS  C:\Users\haske\AppData\Local\Temp\ccmIjDGo.s 			page 14


 185:..\..\..\arduinoLCD\test\Pain Drain\libraries\lvgl\src\draw\../misc/lv_color.h **** 
 186:..\..\..\arduinoLCD\test\Pain Drain\libraries\lvgl\src\draw\../misc/lv_color.h **** /**********************
 187:..\..\..\arduinoLCD\test\Pain Drain\libraries\lvgl\src\draw\../misc/lv_color.h ****  *      TYPEDEFS
 188:..\..\..\arduinoLCD\test\Pain Drain\libraries\lvgl\src\draw\../misc/lv_color.h ****  **********************/
 189:..\..\..\arduinoLCD\test\Pain Drain\libraries\lvgl\src\draw\../misc/lv_color.h **** 
 190:..\..\..\arduinoLCD\test\Pain Drain\libraries\lvgl\src\draw\../misc/lv_color.h **** typedef union {
 191:..\..\..\arduinoLCD\test\Pain Drain\libraries\lvgl\src\draw\../misc/lv_color.h ****     uint8_t full; /*must be declared first to set all bits of byte via initializer list*/
 192:..\..\..\arduinoLCD\test\Pain Drain\libraries\lvgl\src\draw\../misc/lv_color.h ****     union {
 193:..\..\..\arduinoLCD\test\Pain Drain\libraries\lvgl\src\draw\../misc/lv_color.h ****         uint8_t blue : 1;
 194:..\..\..\arduinoLCD\test\Pain Drain\libraries\lvgl\src\draw\../misc/lv_color.h ****         uint8_t green : 1;
 195:..\..\..\arduinoLCD\test\Pain Drain\libraries\lvgl\src\draw\../misc/lv_color.h ****         uint8_t red : 1;
 196:..\..\..\arduinoLCD\test\Pain Drain\libraries\lvgl\src\draw\../misc/lv_color.h ****     } ch;
 197:..\..\..\arduinoLCD\test\Pain Drain\libraries\lvgl\src\draw\../misc/lv_color.h **** } lv_color1_t;
 198:..\..\..\arduinoLCD\test\Pain Drain\libraries\lvgl\src\draw\../misc/lv_color.h **** 
 199:..\..\..\arduinoLCD\test\Pain Drain\libraries\lvgl\src\draw\../misc/lv_color.h **** typedef union {
 200:..\..\..\arduinoLCD\test\Pain Drain\libraries\lvgl\src\draw\../misc/lv_color.h ****     struct {
 201:..\..\..\arduinoLCD\test\Pain Drain\libraries\lvgl\src\draw\../misc/lv_color.h ****         uint8_t blue : 2;
 202:..\..\..\arduinoLCD\test\Pain Drain\libraries\lvgl\src\draw\../misc/lv_color.h ****         uint8_t green : 3;
 203:..\..\..\arduinoLCD\test\Pain Drain\libraries\lvgl\src\draw\../misc/lv_color.h ****         uint8_t red : 3;
 204:..\..\..\arduinoLCD\test\Pain Drain\libraries\lvgl\src\draw\../misc/lv_color.h ****     } ch;
 205:..\..\..\arduinoLCD\test\Pain Drain\libraries\lvgl\src\draw\../misc/lv_color.h ****     uint8_t full;
 206:..\..\..\arduinoLCD\test\Pain Drain\libraries\lvgl\src\draw\../misc/lv_color.h **** } lv_color8_t;
 207:..\..\..\arduinoLCD\test\Pain Drain\libraries\lvgl\src\draw\../misc/lv_color.h **** 
 208:..\..\..\arduinoLCD\test\Pain Drain\libraries\lvgl\src\draw\../misc/lv_color.h **** typedef union {
 209:..\..\..\arduinoLCD\test\Pain Drain\libraries\lvgl\src\draw\../misc/lv_color.h ****     struct {
 210:..\..\..\arduinoLCD\test\Pain Drain\libraries\lvgl\src\draw\../misc/lv_color.h **** #if LV_COLOR_16_SWAP == 0
 211:..\..\..\arduinoLCD\test\Pain Drain\libraries\lvgl\src\draw\../misc/lv_color.h ****         uint16_t blue : 5;
 212:..\..\..\arduinoLCD\test\Pain Drain\libraries\lvgl\src\draw\../misc/lv_color.h ****         uint16_t green : 6;
 213:..\..\..\arduinoLCD\test\Pain Drain\libraries\lvgl\src\draw\../misc/lv_color.h ****         uint16_t red : 5;
 214:..\..\..\arduinoLCD\test\Pain Drain\libraries\lvgl\src\draw\../misc/lv_color.h **** #else
 215:..\..\..\arduinoLCD\test\Pain Drain\libraries\lvgl\src\draw\../misc/lv_color.h ****         uint16_t green_h : 3;
 216:..\..\..\arduinoLCD\test\Pain Drain\libraries\lvgl\src\draw\../misc/lv_color.h ****         uint16_t red : 5;
 217:..\..\..\arduinoLCD\test\Pain Drain\libraries\lvgl\src\draw\../misc/lv_color.h ****         uint16_t blue : 5;
 218:..\..\..\arduinoLCD\test\Pain Drain\libraries\lvgl\src\draw\../misc/lv_color.h ****         uint16_t green_l : 3;
 219:..\..\..\arduinoLCD\test\Pain Drain\libraries\lvgl\src\draw\../misc/lv_color.h **** #endif
 220:..\..\..\arduinoLCD\test\Pain Drain\libraries\lvgl\src\draw\../misc/lv_color.h ****     } ch;
 221:..\..\..\arduinoLCD\test\Pain Drain\libraries\lvgl\src\draw\../misc/lv_color.h ****     uint16_t full;
 222:..\..\..\arduinoLCD\test\Pain Drain\libraries\lvgl\src\draw\../misc/lv_color.h **** } lv_color16_t;
 223:..\..\..\arduinoLCD\test\Pain Drain\libraries\lvgl\src\draw\../misc/lv_color.h **** 
 224:..\..\..\arduinoLCD\test\Pain Drain\libraries\lvgl\src\draw\../misc/lv_color.h **** typedef union {
 225:..\..\..\arduinoLCD\test\Pain Drain\libraries\lvgl\src\draw\../misc/lv_color.h ****     struct {
 226:..\..\..\arduinoLCD\test\Pain Drain\libraries\lvgl\src\draw\../misc/lv_color.h ****         uint8_t blue;
 227:..\..\..\arduinoLCD\test\Pain Drain\libraries\lvgl\src\draw\../misc/lv_color.h ****         uint8_t green;
 228:..\..\..\arduinoLCD\test\Pain Drain\libraries\lvgl\src\draw\../misc/lv_color.h ****         uint8_t red;
 229:..\..\..\arduinoLCD\test\Pain Drain\libraries\lvgl\src\draw\../misc/lv_color.h ****         uint8_t alpha;
 230:..\..\..\arduinoLCD\test\Pain Drain\libraries\lvgl\src\draw\../misc/lv_color.h ****     } ch;
 231:..\..\..\arduinoLCD\test\Pain Drain\libraries\lvgl\src\draw\../misc/lv_color.h ****     uint32_t full;
 232:..\..\..\arduinoLCD\test\Pain Drain\libraries\lvgl\src\draw\../misc/lv_color.h **** } lv_color32_t;
 233:..\..\..\arduinoLCD\test\Pain Drain\libraries\lvgl\src\draw\../misc/lv_color.h **** 
 234:..\..\..\arduinoLCD\test\Pain Drain\libraries\lvgl\src\draw\../misc/lv_color.h **** typedef LV_CONCAT3(uint, LV_COLOR_SIZE, _t) lv_color_int_t;
 235:..\..\..\arduinoLCD\test\Pain Drain\libraries\lvgl\src\draw\../misc/lv_color.h **** typedef LV_CONCAT3(lv_color, LV_COLOR_DEPTH, _t) lv_color_t;
 236:..\..\..\arduinoLCD\test\Pain Drain\libraries\lvgl\src\draw\../misc/lv_color.h **** 
 237:..\..\..\arduinoLCD\test\Pain Drain\libraries\lvgl\src\draw\../misc/lv_color.h **** typedef struct {
 238:..\..\..\arduinoLCD\test\Pain Drain\libraries\lvgl\src\draw\../misc/lv_color.h ****     uint16_t h;
 239:..\..\..\arduinoLCD\test\Pain Drain\libraries\lvgl\src\draw\../misc/lv_color.h ****     uint8_t s;
 240:..\..\..\arduinoLCD\test\Pain Drain\libraries\lvgl\src\draw\../misc/lv_color.h ****     uint8_t v;
 241:..\..\..\arduinoLCD\test\Pain Drain\libraries\lvgl\src\draw\../misc/lv_color.h **** } lv_color_hsv_t;
ARM GAS  C:\Users\haske\AppData\Local\Temp\ccmIjDGo.s 			page 15


 242:..\..\..\arduinoLCD\test\Pain Drain\libraries\lvgl\src\draw\../misc/lv_color.h **** 
 243:..\..\..\arduinoLCD\test\Pain Drain\libraries\lvgl\src\draw\../misc/lv_color.h **** //! @cond Doxygen_Suppress
 244:..\..\..\arduinoLCD\test\Pain Drain\libraries\lvgl\src\draw\../misc/lv_color.h **** /*No idea where the guard is required but else throws warnings in the docs*/
 245:..\..\..\arduinoLCD\test\Pain Drain\libraries\lvgl\src\draw\../misc/lv_color.h **** typedef uint8_t lv_opa_t;
 246:..\..\..\arduinoLCD\test\Pain Drain\libraries\lvgl\src\draw\../misc/lv_color.h **** //! @endcond
 247:..\..\..\arduinoLCD\test\Pain Drain\libraries\lvgl\src\draw\../misc/lv_color.h **** 
 248:..\..\..\arduinoLCD\test\Pain Drain\libraries\lvgl\src\draw\../misc/lv_color.h **** struct _lv_color_filter_dsc_t;
 249:..\..\..\arduinoLCD\test\Pain Drain\libraries\lvgl\src\draw\../misc/lv_color.h **** 
 250:..\..\..\arduinoLCD\test\Pain Drain\libraries\lvgl\src\draw\../misc/lv_color.h **** typedef lv_color_t (*lv_color_filter_cb_t)(const struct _lv_color_filter_dsc_t *, lv_color_t, lv_op
 251:..\..\..\arduinoLCD\test\Pain Drain\libraries\lvgl\src\draw\../misc/lv_color.h **** 
 252:..\..\..\arduinoLCD\test\Pain Drain\libraries\lvgl\src\draw\../misc/lv_color.h **** typedef struct _lv_color_filter_dsc_t {
 253:..\..\..\arduinoLCD\test\Pain Drain\libraries\lvgl\src\draw\../misc/lv_color.h ****     lv_color_filter_cb_t filter_cb;
 254:..\..\..\arduinoLCD\test\Pain Drain\libraries\lvgl\src\draw\../misc/lv_color.h ****     void * user_data;
 255:..\..\..\arduinoLCD\test\Pain Drain\libraries\lvgl\src\draw\../misc/lv_color.h **** } lv_color_filter_dsc_t;
 256:..\..\..\arduinoLCD\test\Pain Drain\libraries\lvgl\src\draw\../misc/lv_color.h **** 
 257:..\..\..\arduinoLCD\test\Pain Drain\libraries\lvgl\src\draw\../misc/lv_color.h **** 
 258:..\..\..\arduinoLCD\test\Pain Drain\libraries\lvgl\src\draw\../misc/lv_color.h **** typedef enum {
 259:..\..\..\arduinoLCD\test\Pain Drain\libraries\lvgl\src\draw\../misc/lv_color.h ****     LV_PALETTE_RED,
 260:..\..\..\arduinoLCD\test\Pain Drain\libraries\lvgl\src\draw\../misc/lv_color.h ****     LV_PALETTE_PINK,
 261:..\..\..\arduinoLCD\test\Pain Drain\libraries\lvgl\src\draw\../misc/lv_color.h ****     LV_PALETTE_PURPLE,
 262:..\..\..\arduinoLCD\test\Pain Drain\libraries\lvgl\src\draw\../misc/lv_color.h ****     LV_PALETTE_DEEP_PURPLE,
 263:..\..\..\arduinoLCD\test\Pain Drain\libraries\lvgl\src\draw\../misc/lv_color.h ****     LV_PALETTE_INDIGO,
 264:..\..\..\arduinoLCD\test\Pain Drain\libraries\lvgl\src\draw\../misc/lv_color.h ****     LV_PALETTE_BLUE,
 265:..\..\..\arduinoLCD\test\Pain Drain\libraries\lvgl\src\draw\../misc/lv_color.h ****     LV_PALETTE_LIGHT_BLUE,
 266:..\..\..\arduinoLCD\test\Pain Drain\libraries\lvgl\src\draw\../misc/lv_color.h ****     LV_PALETTE_CYAN,
 267:..\..\..\arduinoLCD\test\Pain Drain\libraries\lvgl\src\draw\../misc/lv_color.h ****     LV_PALETTE_TEAL,
 268:..\..\..\arduinoLCD\test\Pain Drain\libraries\lvgl\src\draw\../misc/lv_color.h ****     LV_PALETTE_GREEN,
 269:..\..\..\arduinoLCD\test\Pain Drain\libraries\lvgl\src\draw\../misc/lv_color.h ****     LV_PALETTE_LIGHT_GREEN,
 270:..\..\..\arduinoLCD\test\Pain Drain\libraries\lvgl\src\draw\../misc/lv_color.h ****     LV_PALETTE_LIME,
 271:..\..\..\arduinoLCD\test\Pain Drain\libraries\lvgl\src\draw\../misc/lv_color.h ****     LV_PALETTE_YELLOW,
 272:..\..\..\arduinoLCD\test\Pain Drain\libraries\lvgl\src\draw\../misc/lv_color.h ****     LV_PALETTE_AMBER,
 273:..\..\..\arduinoLCD\test\Pain Drain\libraries\lvgl\src\draw\../misc/lv_color.h ****     LV_PALETTE_ORANGE,
 274:..\..\..\arduinoLCD\test\Pain Drain\libraries\lvgl\src\draw\../misc/lv_color.h ****     LV_PALETTE_DEEP_ORANGE,
 275:..\..\..\arduinoLCD\test\Pain Drain\libraries\lvgl\src\draw\../misc/lv_color.h ****     LV_PALETTE_BROWN,
 276:..\..\..\arduinoLCD\test\Pain Drain\libraries\lvgl\src\draw\../misc/lv_color.h ****     LV_PALETTE_BLUE_GREY,
 277:..\..\..\arduinoLCD\test\Pain Drain\libraries\lvgl\src\draw\../misc/lv_color.h ****     LV_PALETTE_GREY,
 278:..\..\..\arduinoLCD\test\Pain Drain\libraries\lvgl\src\draw\../misc/lv_color.h ****     _LV_PALETTE_LAST,
 279:..\..\..\arduinoLCD\test\Pain Drain\libraries\lvgl\src\draw\../misc/lv_color.h ****     LV_PALETTE_NONE = 0xff,
 280:..\..\..\arduinoLCD\test\Pain Drain\libraries\lvgl\src\draw\../misc/lv_color.h **** } lv_palette_t;
 281:..\..\..\arduinoLCD\test\Pain Drain\libraries\lvgl\src\draw\../misc/lv_color.h **** 
 282:..\..\..\arduinoLCD\test\Pain Drain\libraries\lvgl\src\draw\../misc/lv_color.h **** /**********************
 283:..\..\..\arduinoLCD\test\Pain Drain\libraries\lvgl\src\draw\../misc/lv_color.h ****  * GLOBAL PROTOTYPES
 284:..\..\..\arduinoLCD\test\Pain Drain\libraries\lvgl\src\draw\../misc/lv_color.h ****  **********************/
 285:..\..\..\arduinoLCD\test\Pain Drain\libraries\lvgl\src\draw\../misc/lv_color.h **** 
 286:..\..\..\arduinoLCD\test\Pain Drain\libraries\lvgl\src\draw\../misc/lv_color.h **** /*In color conversations:
 287:..\..\..\arduinoLCD\test\Pain Drain\libraries\lvgl\src\draw\../misc/lv_color.h ****  * - When converting to bigger color type the LSB weight of 1 LSB is calculated
 288:..\..\..\arduinoLCD\test\Pain Drain\libraries\lvgl\src\draw\../misc/lv_color.h ****  *   E.g. 16 bit Red has 5 bits
 289:..\..\..\arduinoLCD\test\Pain Drain\libraries\lvgl\src\draw\../misc/lv_color.h ****  *         8 bit Red has 3 bits
 290:..\..\..\arduinoLCD\test\Pain Drain\libraries\lvgl\src\draw\../misc/lv_color.h ****  *        ----------------------
 291:..\..\..\arduinoLCD\test\Pain Drain\libraries\lvgl\src\draw\../misc/lv_color.h ****  *        8 bit red LSB = (2^5 - 1) / (2^3 - 1) = 31 / 7 = 4
 292:..\..\..\arduinoLCD\test\Pain Drain\libraries\lvgl\src\draw\../misc/lv_color.h ****  *
 293:..\..\..\arduinoLCD\test\Pain Drain\libraries\lvgl\src\draw\../misc/lv_color.h ****  * - When calculating to smaller color type simply shift out the LSBs
 294:..\..\..\arduinoLCD\test\Pain Drain\libraries\lvgl\src\draw\../misc/lv_color.h ****  *   E.g.  8 bit Red has 3 bits
 295:..\..\..\arduinoLCD\test\Pain Drain\libraries\lvgl\src\draw\../misc/lv_color.h ****  *        16 bit Red has 5 bits
 296:..\..\..\arduinoLCD\test\Pain Drain\libraries\lvgl\src\draw\../misc/lv_color.h ****  *        ----------------------
 297:..\..\..\arduinoLCD\test\Pain Drain\libraries\lvgl\src\draw\../misc/lv_color.h ****  *         Shift right with 5 - 3 = 2
 298:..\..\..\arduinoLCD\test\Pain Drain\libraries\lvgl\src\draw\../misc/lv_color.h ****  */
ARM GAS  C:\Users\haske\AppData\Local\Temp\ccmIjDGo.s 			page 16


 299:..\..\..\arduinoLCD\test\Pain Drain\libraries\lvgl\src\draw\../misc/lv_color.h **** static inline uint8_t lv_color_to1(lv_color_t color)
 300:..\..\..\arduinoLCD\test\Pain Drain\libraries\lvgl\src\draw\../misc/lv_color.h **** {
 301:..\..\..\arduinoLCD\test\Pain Drain\libraries\lvgl\src\draw\../misc/lv_color.h **** #if LV_COLOR_DEPTH == 1
 302:..\..\..\arduinoLCD\test\Pain Drain\libraries\lvgl\src\draw\../misc/lv_color.h ****     return color.full;
 303:..\..\..\arduinoLCD\test\Pain Drain\libraries\lvgl\src\draw\../misc/lv_color.h **** #elif LV_COLOR_DEPTH == 8
 304:..\..\..\arduinoLCD\test\Pain Drain\libraries\lvgl\src\draw\../misc/lv_color.h ****     if((LV_COLOR_GET_R(color) & 0x4) || (LV_COLOR_GET_G(color) & 0x4) || (LV_COLOR_GET_B(color) & 0
 305:..\..\..\arduinoLCD\test\Pain Drain\libraries\lvgl\src\draw\../misc/lv_color.h ****         return 1;
 306:..\..\..\arduinoLCD\test\Pain Drain\libraries\lvgl\src\draw\../misc/lv_color.h ****     }
 307:..\..\..\arduinoLCD\test\Pain Drain\libraries\lvgl\src\draw\../misc/lv_color.h ****     else {
 308:..\..\..\arduinoLCD\test\Pain Drain\libraries\lvgl\src\draw\../misc/lv_color.h ****         return 0;
 309:..\..\..\arduinoLCD\test\Pain Drain\libraries\lvgl\src\draw\../misc/lv_color.h ****     }
 310:..\..\..\arduinoLCD\test\Pain Drain\libraries\lvgl\src\draw\../misc/lv_color.h **** #elif LV_COLOR_DEPTH == 16
 311:..\..\..\arduinoLCD\test\Pain Drain\libraries\lvgl\src\draw\../misc/lv_color.h ****     if((LV_COLOR_GET_R(color) & 0x10) || (LV_COLOR_GET_G(color) & 0x20) || (LV_COLOR_GET_B(color) &
 312:..\..\..\arduinoLCD\test\Pain Drain\libraries\lvgl\src\draw\../misc/lv_color.h ****         return 1;
 313:..\..\..\arduinoLCD\test\Pain Drain\libraries\lvgl\src\draw\../misc/lv_color.h ****     }
 314:..\..\..\arduinoLCD\test\Pain Drain\libraries\lvgl\src\draw\../misc/lv_color.h ****     else {
 315:..\..\..\arduinoLCD\test\Pain Drain\libraries\lvgl\src\draw\../misc/lv_color.h ****         return 0;
 316:..\..\..\arduinoLCD\test\Pain Drain\libraries\lvgl\src\draw\../misc/lv_color.h ****     }
 317:..\..\..\arduinoLCD\test\Pain Drain\libraries\lvgl\src\draw\../misc/lv_color.h **** #elif LV_COLOR_DEPTH == 32
 318:..\..\..\arduinoLCD\test\Pain Drain\libraries\lvgl\src\draw\../misc/lv_color.h ****     if((LV_COLOR_GET_R(color) & 0x80) || (LV_COLOR_GET_G(color) & 0x80) || (LV_COLOR_GET_B(color) &
 319:..\..\..\arduinoLCD\test\Pain Drain\libraries\lvgl\src\draw\../misc/lv_color.h ****         return 1;
 320:..\..\..\arduinoLCD\test\Pain Drain\libraries\lvgl\src\draw\../misc/lv_color.h ****     }
 321:..\..\..\arduinoLCD\test\Pain Drain\libraries\lvgl\src\draw\../misc/lv_color.h ****     else {
 322:..\..\..\arduinoLCD\test\Pain Drain\libraries\lvgl\src\draw\../misc/lv_color.h ****         return 0;
 323:..\..\..\arduinoLCD\test\Pain Drain\libraries\lvgl\src\draw\../misc/lv_color.h ****     }
 324:..\..\..\arduinoLCD\test\Pain Drain\libraries\lvgl\src\draw\../misc/lv_color.h **** #endif
 325:..\..\..\arduinoLCD\test\Pain Drain\libraries\lvgl\src\draw\../misc/lv_color.h **** }
 326:..\..\..\arduinoLCD\test\Pain Drain\libraries\lvgl\src\draw\../misc/lv_color.h **** 
 327:..\..\..\arduinoLCD\test\Pain Drain\libraries\lvgl\src\draw\../misc/lv_color.h **** static inline uint8_t lv_color_to8(lv_color_t color)
 328:..\..\..\arduinoLCD\test\Pain Drain\libraries\lvgl\src\draw\../misc/lv_color.h **** {
 329:..\..\..\arduinoLCD\test\Pain Drain\libraries\lvgl\src\draw\../misc/lv_color.h **** #if LV_COLOR_DEPTH == 1
 330:..\..\..\arduinoLCD\test\Pain Drain\libraries\lvgl\src\draw\../misc/lv_color.h ****     if(color.full == 0)
 331:..\..\..\arduinoLCD\test\Pain Drain\libraries\lvgl\src\draw\../misc/lv_color.h ****         return 0;
 332:..\..\..\arduinoLCD\test\Pain Drain\libraries\lvgl\src\draw\../misc/lv_color.h ****     else
 333:..\..\..\arduinoLCD\test\Pain Drain\libraries\lvgl\src\draw\../misc/lv_color.h ****         return 0xFF;
 334:..\..\..\arduinoLCD\test\Pain Drain\libraries\lvgl\src\draw\../misc/lv_color.h **** #elif LV_COLOR_DEPTH == 8
 335:..\..\..\arduinoLCD\test\Pain Drain\libraries\lvgl\src\draw\../misc/lv_color.h ****     return color.full;
 336:..\..\..\arduinoLCD\test\Pain Drain\libraries\lvgl\src\draw\../misc/lv_color.h **** #elif LV_COLOR_DEPTH == 16
 337:..\..\..\arduinoLCD\test\Pain Drain\libraries\lvgl\src\draw\../misc/lv_color.h ****     lv_color8_t ret;
 338:..\..\..\arduinoLCD\test\Pain Drain\libraries\lvgl\src\draw\../misc/lv_color.h ****     LV_COLOR_SET_R8(ret, LV_COLOR_GET_R(color) >> 2); /*5 - 3  = 2*/
 339:..\..\..\arduinoLCD\test\Pain Drain\libraries\lvgl\src\draw\../misc/lv_color.h ****     LV_COLOR_SET_G8(ret, LV_COLOR_GET_G(color) >> 3); /*6 - 3  = 3*/
 340:..\..\..\arduinoLCD\test\Pain Drain\libraries\lvgl\src\draw\../misc/lv_color.h ****     LV_COLOR_SET_B8(ret, LV_COLOR_GET_B(color) >> 3); /*5 - 2  = 3*/
 341:..\..\..\arduinoLCD\test\Pain Drain\libraries\lvgl\src\draw\../misc/lv_color.h ****     return ret.full;
 342:..\..\..\arduinoLCD\test\Pain Drain\libraries\lvgl\src\draw\../misc/lv_color.h **** #elif LV_COLOR_DEPTH == 32
 343:..\..\..\arduinoLCD\test\Pain Drain\libraries\lvgl\src\draw\../misc/lv_color.h ****     lv_color8_t ret;
 344:..\..\..\arduinoLCD\test\Pain Drain\libraries\lvgl\src\draw\../misc/lv_color.h ****     LV_COLOR_SET_R8(ret, LV_COLOR_GET_R(color) >> 5); /*8 - 3  = 5*/
 345:..\..\..\arduinoLCD\test\Pain Drain\libraries\lvgl\src\draw\../misc/lv_color.h ****     LV_COLOR_SET_G8(ret, LV_COLOR_GET_G(color) >> 5); /*8 - 3  = 5*/
 346:..\..\..\arduinoLCD\test\Pain Drain\libraries\lvgl\src\draw\../misc/lv_color.h ****     LV_COLOR_SET_B8(ret, LV_COLOR_GET_B(color) >> 6); /*8 - 2  = 6*/
 347:..\..\..\arduinoLCD\test\Pain Drain\libraries\lvgl\src\draw\../misc/lv_color.h ****     return ret.full;
 348:..\..\..\arduinoLCD\test\Pain Drain\libraries\lvgl\src\draw\../misc/lv_color.h **** #endif
 349:..\..\..\arduinoLCD\test\Pain Drain\libraries\lvgl\src\draw\../misc/lv_color.h **** }
 350:..\..\..\arduinoLCD\test\Pain Drain\libraries\lvgl\src\draw\../misc/lv_color.h **** 
 351:..\..\..\arduinoLCD\test\Pain Drain\libraries\lvgl\src\draw\../misc/lv_color.h **** static inline uint16_t lv_color_to16(lv_color_t color)
 352:..\..\..\arduinoLCD\test\Pain Drain\libraries\lvgl\src\draw\../misc/lv_color.h **** {
 353:..\..\..\arduinoLCD\test\Pain Drain\libraries\lvgl\src\draw\../misc/lv_color.h **** #if LV_COLOR_DEPTH == 1
 354:..\..\..\arduinoLCD\test\Pain Drain\libraries\lvgl\src\draw\../misc/lv_color.h ****     if(color.full == 0)
 355:..\..\..\arduinoLCD\test\Pain Drain\libraries\lvgl\src\draw\../misc/lv_color.h ****         return 0;
ARM GAS  C:\Users\haske\AppData\Local\Temp\ccmIjDGo.s 			page 17


 356:..\..\..\arduinoLCD\test\Pain Drain\libraries\lvgl\src\draw\../misc/lv_color.h ****     else
 357:..\..\..\arduinoLCD\test\Pain Drain\libraries\lvgl\src\draw\../misc/lv_color.h ****         return 0xFFFF;
 358:..\..\..\arduinoLCD\test\Pain Drain\libraries\lvgl\src\draw\../misc/lv_color.h **** #elif LV_COLOR_DEPTH == 8
 359:..\..\..\arduinoLCD\test\Pain Drain\libraries\lvgl\src\draw\../misc/lv_color.h ****     lv_color16_t ret;
 360:..\..\..\arduinoLCD\test\Pain Drain\libraries\lvgl\src\draw\../misc/lv_color.h ****     LV_COLOR_SET_R16(ret, LV_COLOR_GET_R(color) * 4);  /*(2^5 - 1)/(2^3 - 1) = 31/7 = 4*/
 361:..\..\..\arduinoLCD\test\Pain Drain\libraries\lvgl\src\draw\../misc/lv_color.h ****     LV_COLOR_SET_G16(ret, LV_COLOR_GET_G(color) * 9);  /*(2^6 - 1)/(2^3 - 1) = 63/7 = 9*/
 362:..\..\..\arduinoLCD\test\Pain Drain\libraries\lvgl\src\draw\../misc/lv_color.h ****     LV_COLOR_SET_B16(ret, LV_COLOR_GET_B(color) * 10); /*(2^5 - 1)/(2^2 - 1) = 31/3 = 10*/
 363:..\..\..\arduinoLCD\test\Pain Drain\libraries\lvgl\src\draw\../misc/lv_color.h ****     return ret.full;
 364:..\..\..\arduinoLCD\test\Pain Drain\libraries\lvgl\src\draw\../misc/lv_color.h **** #elif LV_COLOR_DEPTH == 16
 365:..\..\..\arduinoLCD\test\Pain Drain\libraries\lvgl\src\draw\../misc/lv_color.h ****     return color.full;
 366:..\..\..\arduinoLCD\test\Pain Drain\libraries\lvgl\src\draw\../misc/lv_color.h **** #elif LV_COLOR_DEPTH == 32
 367:..\..\..\arduinoLCD\test\Pain Drain\libraries\lvgl\src\draw\../misc/lv_color.h ****     lv_color16_t ret;
 368:..\..\..\arduinoLCD\test\Pain Drain\libraries\lvgl\src\draw\../misc/lv_color.h ****     LV_COLOR_SET_R16(ret, LV_COLOR_GET_R(color) >> 3); /*8 - 5  = 3*/
 369:..\..\..\arduinoLCD\test\Pain Drain\libraries\lvgl\src\draw\../misc/lv_color.h ****     LV_COLOR_SET_G16(ret, LV_COLOR_GET_G(color) >> 2); /*8 - 6  = 2*/
 370:..\..\..\arduinoLCD\test\Pain Drain\libraries\lvgl\src\draw\../misc/lv_color.h ****     LV_COLOR_SET_B16(ret, LV_COLOR_GET_B(color) >> 3); /*8 - 5  = 3*/
 371:..\..\..\arduinoLCD\test\Pain Drain\libraries\lvgl\src\draw\../misc/lv_color.h ****     return ret.full;
 372:..\..\..\arduinoLCD\test\Pain Drain\libraries\lvgl\src\draw\../misc/lv_color.h **** #endif
 373:..\..\..\arduinoLCD\test\Pain Drain\libraries\lvgl\src\draw\../misc/lv_color.h **** }
 374:..\..\..\arduinoLCD\test\Pain Drain\libraries\lvgl\src\draw\../misc/lv_color.h **** 
 375:..\..\..\arduinoLCD\test\Pain Drain\libraries\lvgl\src\draw\../misc/lv_color.h **** static inline uint32_t lv_color_to32(lv_color_t color)
 376:..\..\..\arduinoLCD\test\Pain Drain\libraries\lvgl\src\draw\../misc/lv_color.h **** {
 377:..\..\..\arduinoLCD\test\Pain Drain\libraries\lvgl\src\draw\../misc/lv_color.h **** #if LV_COLOR_DEPTH == 1
 378:..\..\..\arduinoLCD\test\Pain Drain\libraries\lvgl\src\draw\../misc/lv_color.h ****     if(color.full == 0)
 379:..\..\..\arduinoLCD\test\Pain Drain\libraries\lvgl\src\draw\../misc/lv_color.h ****         return 0xFF000000;
 380:..\..\..\arduinoLCD\test\Pain Drain\libraries\lvgl\src\draw\../misc/lv_color.h ****     else
 381:..\..\..\arduinoLCD\test\Pain Drain\libraries\lvgl\src\draw\../misc/lv_color.h ****         return 0xFFFFFFFF;
 382:..\..\..\arduinoLCD\test\Pain Drain\libraries\lvgl\src\draw\../misc/lv_color.h **** #elif LV_COLOR_DEPTH == 8
 383:..\..\..\arduinoLCD\test\Pain Drain\libraries\lvgl\src\draw\../misc/lv_color.h ****     lv_color32_t ret;
 384:..\..\..\arduinoLCD\test\Pain Drain\libraries\lvgl\src\draw\../misc/lv_color.h ****     LV_COLOR_SET_R32(ret, LV_COLOR_GET_R(color) * 36); /*(2^8 - 1)/(2^3 - 1) = 255/7 = 36*/
 385:..\..\..\arduinoLCD\test\Pain Drain\libraries\lvgl\src\draw\../misc/lv_color.h ****     LV_COLOR_SET_G32(ret, LV_COLOR_GET_G(color) * 36); /*(2^8 - 1)/(2^3 - 1) = 255/7 = 36*/
 386:..\..\..\arduinoLCD\test\Pain Drain\libraries\lvgl\src\draw\../misc/lv_color.h ****     LV_COLOR_SET_B32(ret, LV_COLOR_GET_B(color) * 85); /*(2^8 - 1)/(2^2 - 1) = 255/3 = 85*/
 387:..\..\..\arduinoLCD\test\Pain Drain\libraries\lvgl\src\draw\../misc/lv_color.h ****     LV_COLOR_SET_A32(ret, 0xFF);
 388:..\..\..\arduinoLCD\test\Pain Drain\libraries\lvgl\src\draw\../misc/lv_color.h ****     return ret.full;
 389:..\..\..\arduinoLCD\test\Pain Drain\libraries\lvgl\src\draw\../misc/lv_color.h **** #elif LV_COLOR_DEPTH == 16
 390:..\..\..\arduinoLCD\test\Pain Drain\libraries\lvgl\src\draw\../misc/lv_color.h ****     /**
 391:..\..\..\arduinoLCD\test\Pain Drain\libraries\lvgl\src\draw\../misc/lv_color.h ****      * The floating point math for conversion is:
 392:..\..\..\arduinoLCD\test\Pain Drain\libraries\lvgl\src\draw\../misc/lv_color.h ****      *  valueto = valuefrom * ( (2^bitsto - 1) / (float)(2^bitsfrom - 1) )
 393:..\..\..\arduinoLCD\test\Pain Drain\libraries\lvgl\src\draw\../misc/lv_color.h ****      * The faster integer math for conversion is:
 394:..\..\..\arduinoLCD\test\Pain Drain\libraries\lvgl\src\draw\../misc/lv_color.h ****      *  valueto = ( valuefrom * multiplier + adder ) >> divisor
 395:..\..\..\arduinoLCD\test\Pain Drain\libraries\lvgl\src\draw\../misc/lv_color.h ****      *   multiplier = FLOOR( ( (2^bitsto - 1) << divisor ) / (float)(2^bitsfrom - 1) )
 396:..\..\..\arduinoLCD\test\Pain Drain\libraries\lvgl\src\draw\../misc/lv_color.h ****      *
 397:..\..\..\arduinoLCD\test\Pain Drain\libraries\lvgl\src\draw\../misc/lv_color.h ****      * Find the first divisor where ( adder >> divisor ) <= 0
 398:..\..\..\arduinoLCD\test\Pain Drain\libraries\lvgl\src\draw\../misc/lv_color.h ****      *
 399:..\..\..\arduinoLCD\test\Pain Drain\libraries\lvgl\src\draw\../misc/lv_color.h ****      * 5-bit to 8-bit: ( 31 * multiplier + adder ) >> divisor = 255
 400:..\..\..\arduinoLCD\test\Pain Drain\libraries\lvgl\src\draw\../misc/lv_color.h ****      * divisor  multiplier  adder  min (0)  max (31)
 401:..\..\..\arduinoLCD\test\Pain Drain\libraries\lvgl\src\draw\../misc/lv_color.h ****      *       0           8      7        7       255
 402:..\..\..\arduinoLCD\test\Pain Drain\libraries\lvgl\src\draw\../misc/lv_color.h ****      *       1          16     14        7       255
 403:..\..\..\arduinoLCD\test\Pain Drain\libraries\lvgl\src\draw\../misc/lv_color.h ****      *       2          32     28        7       255
 404:..\..\..\arduinoLCD\test\Pain Drain\libraries\lvgl\src\draw\../misc/lv_color.h ****      *       3          65     25        3       255
 405:..\..\..\arduinoLCD\test\Pain Drain\libraries\lvgl\src\draw\../misc/lv_color.h ****      *       4         131     19        1       255
 406:..\..\..\arduinoLCD\test\Pain Drain\libraries\lvgl\src\draw\../misc/lv_color.h ****      *       5         263      7        0       255
 407:..\..\..\arduinoLCD\test\Pain Drain\libraries\lvgl\src\draw\../misc/lv_color.h ****      *
 408:..\..\..\arduinoLCD\test\Pain Drain\libraries\lvgl\src\draw\../misc/lv_color.h ****      * 6-bit to 8-bit: 255 = ( 63 * multiplier + adder ) >> divisor
 409:..\..\..\arduinoLCD\test\Pain Drain\libraries\lvgl\src\draw\../misc/lv_color.h ****      * divisor  multiplier  adder  min (0)  max (63)
 410:..\..\..\arduinoLCD\test\Pain Drain\libraries\lvgl\src\draw\../misc/lv_color.h ****      *       0           4      3        3       255
 411:..\..\..\arduinoLCD\test\Pain Drain\libraries\lvgl\src\draw\../misc/lv_color.h ****      *       1           8      6        3       255
 412:..\..\..\arduinoLCD\test\Pain Drain\libraries\lvgl\src\draw\../misc/lv_color.h ****      *       2          16     12        3       255
ARM GAS  C:\Users\haske\AppData\Local\Temp\ccmIjDGo.s 			page 18


 413:..\..\..\arduinoLCD\test\Pain Drain\libraries\lvgl\src\draw\../misc/lv_color.h ****      *       3          32     24        3       255
 414:..\..\..\arduinoLCD\test\Pain Drain\libraries\lvgl\src\draw\../misc/lv_color.h ****      *       4          64     48        3       255
 415:..\..\..\arduinoLCD\test\Pain Drain\libraries\lvgl\src\draw\../misc/lv_color.h ****      *       5         129     33        1       255
 416:..\..\..\arduinoLCD\test\Pain Drain\libraries\lvgl\src\draw\../misc/lv_color.h ****      *       6         259      3        0       255
 417:..\..\..\arduinoLCD\test\Pain Drain\libraries\lvgl\src\draw\../misc/lv_color.h ****      */
 418:..\..\..\arduinoLCD\test\Pain Drain\libraries\lvgl\src\draw\../misc/lv_color.h **** 
 419:..\..\..\arduinoLCD\test\Pain Drain\libraries\lvgl\src\draw\../misc/lv_color.h ****     lv_color32_t ret;
 420:..\..\..\arduinoLCD\test\Pain Drain\libraries\lvgl\src\draw\../misc/lv_color.h ****     LV_COLOR_SET_R32(ret, (LV_COLOR_GET_R(color) * 263 + 7) >> 5);
 421:..\..\..\arduinoLCD\test\Pain Drain\libraries\lvgl\src\draw\../misc/lv_color.h ****     LV_COLOR_SET_G32(ret, (LV_COLOR_GET_G(color) * 259 + 3) >> 6);
 422:..\..\..\arduinoLCD\test\Pain Drain\libraries\lvgl\src\draw\../misc/lv_color.h ****     LV_COLOR_SET_B32(ret, (LV_COLOR_GET_B(color) * 263 + 7) >> 5);
 423:..\..\..\arduinoLCD\test\Pain Drain\libraries\lvgl\src\draw\../misc/lv_color.h ****     LV_COLOR_SET_A32(ret, 0xFF);
 424:..\..\..\arduinoLCD\test\Pain Drain\libraries\lvgl\src\draw\../misc/lv_color.h ****     return ret.full;
 425:..\..\..\arduinoLCD\test\Pain Drain\libraries\lvgl\src\draw\../misc/lv_color.h **** #elif LV_COLOR_DEPTH == 32
 426:..\..\..\arduinoLCD\test\Pain Drain\libraries\lvgl\src\draw\../misc/lv_color.h ****     return color.full;
 427:..\..\..\arduinoLCD\test\Pain Drain\libraries\lvgl\src\draw\../misc/lv_color.h **** #endif
 428:..\..\..\arduinoLCD\test\Pain Drain\libraries\lvgl\src\draw\../misc/lv_color.h **** }
 429:..\..\..\arduinoLCD\test\Pain Drain\libraries\lvgl\src\draw\../misc/lv_color.h **** 
 430:..\..\..\arduinoLCD\test\Pain Drain\libraries\lvgl\src\draw\../misc/lv_color.h **** //! @cond Doxygen_Suppress
 431:..\..\..\arduinoLCD\test\Pain Drain\libraries\lvgl\src\draw\../misc/lv_color.h **** 
 432:..\..\..\arduinoLCD\test\Pain Drain\libraries\lvgl\src\draw\../misc/lv_color.h **** /**
 433:..\..\..\arduinoLCD\test\Pain Drain\libraries\lvgl\src\draw\../misc/lv_color.h ****  * Mix two colors with a given ratio.
 434:..\..\..\arduinoLCD\test\Pain Drain\libraries\lvgl\src\draw\../misc/lv_color.h ****  * @param c1 the first color to mix (usually the foreground)
 435:..\..\..\arduinoLCD\test\Pain Drain\libraries\lvgl\src\draw\../misc/lv_color.h ****  * @param c2 the second color to mix (usually the background)
 436:..\..\..\arduinoLCD\test\Pain Drain\libraries\lvgl\src\draw\../misc/lv_color.h ****  * @param mix The ratio of the colors. 0: full `c2`, 255: full `c1`, 127: half `c1` and half`c2`
 437:..\..\..\arduinoLCD\test\Pain Drain\libraries\lvgl\src\draw\../misc/lv_color.h ****  * @return the mixed color
 438:..\..\..\arduinoLCD\test\Pain Drain\libraries\lvgl\src\draw\../misc/lv_color.h ****  */
 439:..\..\..\arduinoLCD\test\Pain Drain\libraries\lvgl\src\draw\../misc/lv_color.h **** LV_ATTRIBUTE_FAST_MEM static inline lv_color_t lv_color_mix(lv_color_t c1, lv_color_t c2, uint8_t m
 440:..\..\..\arduinoLCD\test\Pain Drain\libraries\lvgl\src\draw\../misc/lv_color.h **** {
 441:..\..\..\arduinoLCD\test\Pain Drain\libraries\lvgl\src\draw\../misc/lv_color.h ****     lv_color_t ret;
 442:..\..\..\arduinoLCD\test\Pain Drain\libraries\lvgl\src\draw\../misc/lv_color.h **** 
 443:..\..\..\arduinoLCD\test\Pain Drain\libraries\lvgl\src\draw\../misc/lv_color.h **** #if LV_COLOR_DEPTH == 16 && LV_COLOR_16_SWAP == 0 && LV_COLOR_MIX_ROUND_OFS == 0
 444:..\..\..\arduinoLCD\test\Pain Drain\libraries\lvgl\src\draw\../misc/lv_color.h ****     /*Source: https://stackoverflow.com/a/50012418/1999969*/
 445:..\..\..\arduinoLCD\test\Pain Drain\libraries\lvgl\src\draw\../misc/lv_color.h ****     mix = (uint32_t)((uint32_t)mix + 4) >> 3;
 446:..\..\..\arduinoLCD\test\Pain Drain\libraries\lvgl\src\draw\../misc/lv_color.h ****     uint32_t bg = (uint32_t)((uint32_t)c2.full | ((uint32_t)c2.full << 16)) &
 447:..\..\..\arduinoLCD\test\Pain Drain\libraries\lvgl\src\draw\../misc/lv_color.h ****                   0x7E0F81F; /*0b00000111111000001111100000011111*/
 448:..\..\..\arduinoLCD\test\Pain Drain\libraries\lvgl\src\draw\../misc/lv_color.h ****     uint32_t fg = (uint32_t)((uint32_t)c1.full | ((uint32_t)c1.full << 16)) & 0x7E0F81F;
 449:..\..\..\arduinoLCD\test\Pain Drain\libraries\lvgl\src\draw\../misc/lv_color.h ****     uint32_t result = ((((fg - bg) * mix) >> 5) + bg) & 0x7E0F81F;
 450:..\..\..\arduinoLCD\test\Pain Drain\libraries\lvgl\src\draw\../misc/lv_color.h ****     ret.full = (uint16_t)((result >> 16) | result);
 451:..\..\..\arduinoLCD\test\Pain Drain\libraries\lvgl\src\draw\../misc/lv_color.h **** #elif LV_COLOR_DEPTH != 1
 452:..\..\..\arduinoLCD\test\Pain Drain\libraries\lvgl\src\draw\../misc/lv_color.h ****     /*LV_COLOR_DEPTH == 8, 16 or 32*/
 453:..\..\..\arduinoLCD\test\Pain Drain\libraries\lvgl\src\draw\../misc/lv_color.h ****     LV_COLOR_SET_R(ret, LV_UDIV255((uint16_t)LV_COLOR_GET_R(c1) * mix + LV_COLOR_GET_R(c2) *
 454:..\..\..\arduinoLCD\test\Pain Drain\libraries\lvgl\src\draw\../misc/lv_color.h ****                                    (255 - mix) + LV_COLOR_MIX_ROUND_OFS));
 455:..\..\..\arduinoLCD\test\Pain Drain\libraries\lvgl\src\draw\../misc/lv_color.h ****     LV_COLOR_SET_G(ret, LV_UDIV255((uint16_t)LV_COLOR_GET_G(c1) * mix + LV_COLOR_GET_G(c2) *
 456:..\..\..\arduinoLCD\test\Pain Drain\libraries\lvgl\src\draw\../misc/lv_color.h ****                                    (255 - mix) + LV_COLOR_MIX_ROUND_OFS));
 457:..\..\..\arduinoLCD\test\Pain Drain\libraries\lvgl\src\draw\../misc/lv_color.h ****     LV_COLOR_SET_B(ret, LV_UDIV255((uint16_t)LV_COLOR_GET_B(c1) * mix + LV_COLOR_GET_B(c2) *
 458:..\..\..\arduinoLCD\test\Pain Drain\libraries\lvgl\src\draw\../misc/lv_color.h ****                                    (255 - mix) + LV_COLOR_MIX_ROUND_OFS));
 459:..\..\..\arduinoLCD\test\Pain Drain\libraries\lvgl\src\draw\../misc/lv_color.h ****     LV_COLOR_SET_A(ret, 0xFF);
 460:..\..\..\arduinoLCD\test\Pain Drain\libraries\lvgl\src\draw\../misc/lv_color.h **** #else
 461:..\..\..\arduinoLCD\test\Pain Drain\libraries\lvgl\src\draw\../misc/lv_color.h ****     /*LV_COLOR_DEPTH == 1*/
 462:..\..\..\arduinoLCD\test\Pain Drain\libraries\lvgl\src\draw\../misc/lv_color.h ****     ret.full = mix > LV_OPA_50 ? c1.full : c2.full;
 463:..\..\..\arduinoLCD\test\Pain Drain\libraries\lvgl\src\draw\../misc/lv_color.h **** #endif
 464:..\..\..\arduinoLCD\test\Pain Drain\libraries\lvgl\src\draw\../misc/lv_color.h **** 
 465:..\..\..\arduinoLCD\test\Pain Drain\libraries\lvgl\src\draw\../misc/lv_color.h ****     return ret;
 466:..\..\..\arduinoLCD\test\Pain Drain\libraries\lvgl\src\draw\../misc/lv_color.h **** }
 467:..\..\..\arduinoLCD\test\Pain Drain\libraries\lvgl\src\draw\../misc/lv_color.h **** 
 468:..\..\..\arduinoLCD\test\Pain Drain\libraries\lvgl\src\draw\../misc/lv_color.h **** LV_ATTRIBUTE_FAST_MEM static inline void lv_color_premult(lv_color_t c, uint8_t mix, uint16_t * out
 469:..\..\..\arduinoLCD\test\Pain Drain\libraries\lvgl\src\draw\../misc/lv_color.h **** {
ARM GAS  C:\Users\haske\AppData\Local\Temp\ccmIjDGo.s 			page 19


 470:..\..\..\arduinoLCD\test\Pain Drain\libraries\lvgl\src\draw\../misc/lv_color.h **** #if LV_COLOR_DEPTH != 1
 471:..\..\..\arduinoLCD\test\Pain Drain\libraries\lvgl\src\draw\../misc/lv_color.h ****     out[0] = (uint16_t)LV_COLOR_GET_R(c) * mix;
 472:..\..\..\arduinoLCD\test\Pain Drain\libraries\lvgl\src\draw\../misc/lv_color.h ****     out[1] = (uint16_t)LV_COLOR_GET_G(c) * mix;
 473:..\..\..\arduinoLCD\test\Pain Drain\libraries\lvgl\src\draw\../misc/lv_color.h ****     out[2] = (uint16_t)LV_COLOR_GET_B(c) * mix;
 474:..\..\..\arduinoLCD\test\Pain Drain\libraries\lvgl\src\draw\../misc/lv_color.h **** #else
 475:..\..\..\arduinoLCD\test\Pain Drain\libraries\lvgl\src\draw\../misc/lv_color.h ****     (void) mix;
 476:..\..\..\arduinoLCD\test\Pain Drain\libraries\lvgl\src\draw\../misc/lv_color.h ****     /*Pre-multiplication can't be used with 1 bpp*/
 477:..\..\..\arduinoLCD\test\Pain Drain\libraries\lvgl\src\draw\../misc/lv_color.h ****     out[0] = LV_COLOR_GET_R(c);
 478:..\..\..\arduinoLCD\test\Pain Drain\libraries\lvgl\src\draw\../misc/lv_color.h ****     out[1] = LV_COLOR_GET_G(c);
 479:..\..\..\arduinoLCD\test\Pain Drain\libraries\lvgl\src\draw\../misc/lv_color.h ****     out[2] = LV_COLOR_GET_B(c);
 480:..\..\..\arduinoLCD\test\Pain Drain\libraries\lvgl\src\draw\../misc/lv_color.h **** #endif
 481:..\..\..\arduinoLCD\test\Pain Drain\libraries\lvgl\src\draw\../misc/lv_color.h **** 
 482:..\..\..\arduinoLCD\test\Pain Drain\libraries\lvgl\src\draw\../misc/lv_color.h **** }
 483:..\..\..\arduinoLCD\test\Pain Drain\libraries\lvgl\src\draw\../misc/lv_color.h **** 
 484:..\..\..\arduinoLCD\test\Pain Drain\libraries\lvgl\src\draw\../misc/lv_color.h **** /**
 485:..\..\..\arduinoLCD\test\Pain Drain\libraries\lvgl\src\draw\../misc/lv_color.h ****  * Mix two colors with a given ratio. It runs faster then `lv_color_mix` but requires some pre comp
 486:..\..\..\arduinoLCD\test\Pain Drain\libraries\lvgl\src\draw\../misc/lv_color.h ****  * @param premult_c1 The first color. Should be preprocessed with `lv_color_premult(c1)`
 487:..\..\..\arduinoLCD\test\Pain Drain\libraries\lvgl\src\draw\../misc/lv_color.h ****  * @param c2 The second color. As it is no pre computation required on it
 488:..\..\..\arduinoLCD\test\Pain Drain\libraries\lvgl\src\draw\../misc/lv_color.h ****  * @param mix The ratio of the colors. 0: full `c1`, 255: full `c2`, 127: half `c1` and half `c2`.
 489:..\..\..\arduinoLCD\test\Pain Drain\libraries\lvgl\src\draw\../misc/lv_color.h ****  *            Should be modified like mix = `255 - mix`
 490:..\..\..\arduinoLCD\test\Pain Drain\libraries\lvgl\src\draw\../misc/lv_color.h ****  * @return the mixed color
 491:..\..\..\arduinoLCD\test\Pain Drain\libraries\lvgl\src\draw\../misc/lv_color.h ****  * @note 255 won't give clearly `c1`.
 492:..\..\..\arduinoLCD\test\Pain Drain\libraries\lvgl\src\draw\../misc/lv_color.h ****  */
 493:..\..\..\arduinoLCD\test\Pain Drain\libraries\lvgl\src\draw\../misc/lv_color.h **** LV_ATTRIBUTE_FAST_MEM static inline lv_color_t lv_color_mix_premult(uint16_t * premult_c1, lv_color
 494:..\..\..\arduinoLCD\test\Pain Drain\libraries\lvgl\src\draw\../misc/lv_color.h **** {
 495:..\..\..\arduinoLCD\test\Pain Drain\libraries\lvgl\src\draw\../misc/lv_color.h ****     lv_color_t ret;
 496:..\..\..\arduinoLCD\test\Pain Drain\libraries\lvgl\src\draw\../misc/lv_color.h **** #if LV_COLOR_DEPTH != 1
 497:..\..\..\arduinoLCD\test\Pain Drain\libraries\lvgl\src\draw\../misc/lv_color.h ****     /*LV_COLOR_DEPTH == 8 or 32*/
 498:..\..\..\arduinoLCD\test\Pain Drain\libraries\lvgl\src\draw\../misc/lv_color.h ****     LV_COLOR_SET_R(ret, LV_UDIV255(premult_c1[0] + LV_COLOR_GET_R(c2) * mix + LV_COLOR_MIX_ROUND_OF
 499:..\..\..\arduinoLCD\test\Pain Drain\libraries\lvgl\src\draw\../misc/lv_color.h ****     LV_COLOR_SET_G(ret, LV_UDIV255(premult_c1[1] + LV_COLOR_GET_G(c2) * mix + LV_COLOR_MIX_ROUND_OF
 500:..\..\..\arduinoLCD\test\Pain Drain\libraries\lvgl\src\draw\../misc/lv_color.h ****     LV_COLOR_SET_B(ret, LV_UDIV255(premult_c1[2] + LV_COLOR_GET_B(c2) * mix + LV_COLOR_MIX_ROUND_OF
 501:..\..\..\arduinoLCD\test\Pain Drain\libraries\lvgl\src\draw\../misc/lv_color.h ****     LV_COLOR_SET_A(ret, 0xFF);
 502:..\..\..\arduinoLCD\test\Pain Drain\libraries\lvgl\src\draw\../misc/lv_color.h **** #else
 503:..\..\..\arduinoLCD\test\Pain Drain\libraries\lvgl\src\draw\../misc/lv_color.h ****     /*LV_COLOR_DEPTH == 1*/
 504:..\..\..\arduinoLCD\test\Pain Drain\libraries\lvgl\src\draw\../misc/lv_color.h ****     /*Restore color1*/
 505:..\..\..\arduinoLCD\test\Pain Drain\libraries\lvgl\src\draw\../misc/lv_color.h ****     lv_color_t c1;
 506:..\..\..\arduinoLCD\test\Pain Drain\libraries\lvgl\src\draw\../misc/lv_color.h ****     LV_COLOR_SET_R(c1, premult_c1[0]);
 507:..\..\..\arduinoLCD\test\Pain Drain\libraries\lvgl\src\draw\../misc/lv_color.h ****     LV_COLOR_SET_G(c1, premult_c1[1]);
 508:..\..\..\arduinoLCD\test\Pain Drain\libraries\lvgl\src\draw\../misc/lv_color.h ****     LV_COLOR_SET_B(c1, premult_c1[2]);
 509:..\..\..\arduinoLCD\test\Pain Drain\libraries\lvgl\src\draw\../misc/lv_color.h ****     ret.full = mix > LV_OPA_50 ? c2.full : c1.full;
 510:..\..\..\arduinoLCD\test\Pain Drain\libraries\lvgl\src\draw\../misc/lv_color.h **** #endif
 511:..\..\..\arduinoLCD\test\Pain Drain\libraries\lvgl\src\draw\../misc/lv_color.h **** 
 512:..\..\..\arduinoLCD\test\Pain Drain\libraries\lvgl\src\draw\../misc/lv_color.h ****     return ret;
 513:..\..\..\arduinoLCD\test\Pain Drain\libraries\lvgl\src\draw\../misc/lv_color.h **** }
 514:..\..\..\arduinoLCD\test\Pain Drain\libraries\lvgl\src\draw\../misc/lv_color.h **** 
 515:..\..\..\arduinoLCD\test\Pain Drain\libraries\lvgl\src\draw\../misc/lv_color.h **** /**
 516:..\..\..\arduinoLCD\test\Pain Drain\libraries\lvgl\src\draw\../misc/lv_color.h ****  * Mix two colors. Both color can have alpha value.
 517:..\..\..\arduinoLCD\test\Pain Drain\libraries\lvgl\src\draw\../misc/lv_color.h ****  * @param bg_color background color
 518:..\..\..\arduinoLCD\test\Pain Drain\libraries\lvgl\src\draw\../misc/lv_color.h ****  * @param bg_opa alpha of the background color
 519:..\..\..\arduinoLCD\test\Pain Drain\libraries\lvgl\src\draw\../misc/lv_color.h ****  * @param fg_color foreground color
 520:..\..\..\arduinoLCD\test\Pain Drain\libraries\lvgl\src\draw\../misc/lv_color.h ****  * @param fg_opa alpha of the foreground color
 521:..\..\..\arduinoLCD\test\Pain Drain\libraries\lvgl\src\draw\../misc/lv_color.h ****  * @param res_color the result color
 522:..\..\..\arduinoLCD\test\Pain Drain\libraries\lvgl\src\draw\../misc/lv_color.h ****  * @param res_opa the result opacity
 523:..\..\..\arduinoLCD\test\Pain Drain\libraries\lvgl\src\draw\../misc/lv_color.h ****  */
 524:..\..\..\arduinoLCD\test\Pain Drain\libraries\lvgl\src\draw\../misc/lv_color.h **** LV_ATTRIBUTE_FAST_MEM static inline void lv_color_mix_with_alpha(lv_color_t bg_color, lv_opa_t bg_o
 525:..\..\..\arduinoLCD\test\Pain Drain\libraries\lvgl\src\draw\../misc/lv_color.h ****                                                                  lv_color_t fg_color, lv_opa_t fg_o
 526:..\..\..\arduinoLCD\test\Pain Drain\libraries\lvgl\src\draw\../misc/lv_color.h ****                                                                  lv_color_t * res_color, lv_opa_t *
ARM GAS  C:\Users\haske\AppData\Local\Temp\ccmIjDGo.s 			page 20


 527:..\..\..\arduinoLCD\test\Pain Drain\libraries\lvgl\src\draw\../misc/lv_color.h **** {
 528:..\..\..\arduinoLCD\test\Pain Drain\libraries\lvgl\src\draw\../misc/lv_color.h ****     /*Pick the foreground if it's fully opaque or the Background is fully transparent*/
 529:..\..\..\arduinoLCD\test\Pain Drain\libraries\lvgl\src\draw\../misc/lv_color.h ****     if(fg_opa >= LV_OPA_MAX || bg_opa <= LV_OPA_MIN) {
 530:..\..\..\arduinoLCD\test\Pain Drain\libraries\lvgl\src\draw\../misc/lv_color.h ****         res_color->full = fg_color.full;
 531:..\..\..\arduinoLCD\test\Pain Drain\libraries\lvgl\src\draw\../misc/lv_color.h ****         *res_opa = fg_opa;
 532:..\..\..\arduinoLCD\test\Pain Drain\libraries\lvgl\src\draw\../misc/lv_color.h ****     }
 533:..\..\..\arduinoLCD\test\Pain Drain\libraries\lvgl\src\draw\../misc/lv_color.h ****     /*Transparent foreground: use the Background*/
 534:..\..\..\arduinoLCD\test\Pain Drain\libraries\lvgl\src\draw\../misc/lv_color.h ****     else if(fg_opa <= LV_OPA_MIN) {
 535:..\..\..\arduinoLCD\test\Pain Drain\libraries\lvgl\src\draw\../misc/lv_color.h ****         res_color->full = bg_color.full;
 536:..\..\..\arduinoLCD\test\Pain Drain\libraries\lvgl\src\draw\../misc/lv_color.h ****         *res_opa = bg_opa;
 537:..\..\..\arduinoLCD\test\Pain Drain\libraries\lvgl\src\draw\../misc/lv_color.h ****     }
 538:..\..\..\arduinoLCD\test\Pain Drain\libraries\lvgl\src\draw\../misc/lv_color.h ****     /*Opaque background: use simple mix*/
 539:..\..\..\arduinoLCD\test\Pain Drain\libraries\lvgl\src\draw\../misc/lv_color.h ****     else if(bg_opa >= LV_OPA_MAX) {
 540:..\..\..\arduinoLCD\test\Pain Drain\libraries\lvgl\src\draw\../misc/lv_color.h ****         *res_color = lv_color_mix(fg_color, bg_color, fg_opa);
 541:..\..\..\arduinoLCD\test\Pain Drain\libraries\lvgl\src\draw\../misc/lv_color.h ****         *res_opa = LV_OPA_COVER;
 542:..\..\..\arduinoLCD\test\Pain Drain\libraries\lvgl\src\draw\../misc/lv_color.h ****     }
 543:..\..\..\arduinoLCD\test\Pain Drain\libraries\lvgl\src\draw\../misc/lv_color.h ****     /*Both colors have alpha. Expensive calculation need to be applied*/
 544:..\..\..\arduinoLCD\test\Pain Drain\libraries\lvgl\src\draw\../misc/lv_color.h ****     else {
 545:..\..\..\arduinoLCD\test\Pain Drain\libraries\lvgl\src\draw\../misc/lv_color.h ****         /*Save the parameters and the result. If they will be asked again don't compute again*/
 546:..\..\..\arduinoLCD\test\Pain Drain\libraries\lvgl\src\draw\../misc/lv_color.h ****         static lv_opa_t fg_opa_save     = 0;
 547:..\..\..\arduinoLCD\test\Pain Drain\libraries\lvgl\src\draw\../misc/lv_color.h ****         static lv_opa_t bg_opa_save     = 0;
 548:..\..\..\arduinoLCD\test\Pain Drain\libraries\lvgl\src\draw\../misc/lv_color.h ****         static lv_color_t fg_color_save = _LV_COLOR_ZERO_INITIALIZER;
 549:..\..\..\arduinoLCD\test\Pain Drain\libraries\lvgl\src\draw\../misc/lv_color.h ****         static lv_color_t bg_color_save = _LV_COLOR_ZERO_INITIALIZER;
 550:..\..\..\arduinoLCD\test\Pain Drain\libraries\lvgl\src\draw\../misc/lv_color.h ****         static lv_color_t res_color_saved = _LV_COLOR_ZERO_INITIALIZER;
 551:..\..\..\arduinoLCD\test\Pain Drain\libraries\lvgl\src\draw\../misc/lv_color.h ****         static lv_opa_t res_opa_saved = 0;
 552:..\..\..\arduinoLCD\test\Pain Drain\libraries\lvgl\src\draw\../misc/lv_color.h **** 
 553:..\..\..\arduinoLCD\test\Pain Drain\libraries\lvgl\src\draw\../misc/lv_color.h ****         if(fg_opa != fg_opa_save || bg_opa != bg_opa_save || fg_color.full != fg_color_save.full ||
 554:..\..\..\arduinoLCD\test\Pain Drain\libraries\lvgl\src\draw\../misc/lv_color.h ****            bg_color.full != bg_color_save.full) {
 555:..\..\..\arduinoLCD\test\Pain Drain\libraries\lvgl\src\draw\../misc/lv_color.h ****             fg_opa_save        = fg_opa;
 556:..\..\..\arduinoLCD\test\Pain Drain\libraries\lvgl\src\draw\../misc/lv_color.h ****             bg_opa_save        = bg_opa;
 557:..\..\..\arduinoLCD\test\Pain Drain\libraries\lvgl\src\draw\../misc/lv_color.h ****             fg_color_save.full = fg_color.full;
 558:..\..\..\arduinoLCD\test\Pain Drain\libraries\lvgl\src\draw\../misc/lv_color.h ****             bg_color_save.full = bg_color.full;
 559:..\..\..\arduinoLCD\test\Pain Drain\libraries\lvgl\src\draw\../misc/lv_color.h ****             /*Info:
 560:..\..\..\arduinoLCD\test\Pain Drain\libraries\lvgl\src\draw\../misc/lv_color.h ****              * https://en.wikipedia.org/wiki/Alpha_compositing#Analytical_derivation_of_the_over_op
 561:..\..\..\arduinoLCD\test\Pain Drain\libraries\lvgl\src\draw\../misc/lv_color.h ****             res_opa_saved = 255 - ((uint16_t)((uint16_t)(255 - fg_opa) * (255 - bg_opa)) >> 8);
 562:..\..\..\arduinoLCD\test\Pain Drain\libraries\lvgl\src\draw\../misc/lv_color.h ****             LV_ASSERT(res_opa_saved != 0);
 563:..\..\..\arduinoLCD\test\Pain Drain\libraries\lvgl\src\draw\../misc/lv_color.h ****             lv_opa_t ratio = (uint16_t)((uint16_t)fg_opa * 255) / res_opa_saved;
 564:..\..\..\arduinoLCD\test\Pain Drain\libraries\lvgl\src\draw\../misc/lv_color.h ****             res_color_saved = lv_color_mix(fg_color, bg_color, ratio);
 565:..\..\..\arduinoLCD\test\Pain Drain\libraries\lvgl\src\draw\../misc/lv_color.h **** 
 566:..\..\..\arduinoLCD\test\Pain Drain\libraries\lvgl\src\draw\../misc/lv_color.h ****         }
 567:..\..\..\arduinoLCD\test\Pain Drain\libraries\lvgl\src\draw\../misc/lv_color.h **** 
 568:..\..\..\arduinoLCD\test\Pain Drain\libraries\lvgl\src\draw\../misc/lv_color.h ****         res_color->full = res_color_saved.full;
 569:..\..\..\arduinoLCD\test\Pain Drain\libraries\lvgl\src\draw\../misc/lv_color.h ****         *res_opa = res_opa_saved;
 570:..\..\..\arduinoLCD\test\Pain Drain\libraries\lvgl\src\draw\../misc/lv_color.h ****     }
 571:..\..\..\arduinoLCD\test\Pain Drain\libraries\lvgl\src\draw\../misc/lv_color.h **** }
 572:..\..\..\arduinoLCD\test\Pain Drain\libraries\lvgl\src\draw\../misc/lv_color.h **** 
 573:..\..\..\arduinoLCD\test\Pain Drain\libraries\lvgl\src\draw\../misc/lv_color.h **** //! @endcond
 574:..\..\..\arduinoLCD\test\Pain Drain\libraries\lvgl\src\draw\../misc/lv_color.h **** 
 575:..\..\..\arduinoLCD\test\Pain Drain\libraries\lvgl\src\draw\../misc/lv_color.h **** /**
 576:..\..\..\arduinoLCD\test\Pain Drain\libraries\lvgl\src\draw\../misc/lv_color.h ****  * Get the brightness of a color
 577:..\..\..\arduinoLCD\test\Pain Drain\libraries\lvgl\src\draw\../misc/lv_color.h ****  * @param color a color
 578:..\..\..\arduinoLCD\test\Pain Drain\libraries\lvgl\src\draw\../misc/lv_color.h ****  * @return the brightness [0..255]
 579:..\..\..\arduinoLCD\test\Pain Drain\libraries\lvgl\src\draw\../misc/lv_color.h ****  */
 580:..\..\..\arduinoLCD\test\Pain Drain\libraries\lvgl\src\draw\../misc/lv_color.h **** static inline uint8_t lv_color_brightness(lv_color_t color)
 581:..\..\..\arduinoLCD\test\Pain Drain\libraries\lvgl\src\draw\../misc/lv_color.h **** {
 582:..\..\..\arduinoLCD\test\Pain Drain\libraries\lvgl\src\draw\../misc/lv_color.h ****     lv_color32_t c32;
 583:..\..\..\arduinoLCD\test\Pain Drain\libraries\lvgl\src\draw\../misc/lv_color.h ****     c32.full        = lv_color_to32(color);
ARM GAS  C:\Users\haske\AppData\Local\Temp\ccmIjDGo.s 			page 21


 584:..\..\..\arduinoLCD\test\Pain Drain\libraries\lvgl\src\draw\../misc/lv_color.h ****     uint16_t bright = (uint16_t)(3u * LV_COLOR_GET_R32(c32) + LV_COLOR_GET_B32(c32) + 4u * LV_COLOR
 585:..\..\..\arduinoLCD\test\Pain Drain\libraries\lvgl\src\draw\../misc/lv_color.h ****     return (uint8_t)(bright >> 3);
 586:..\..\..\arduinoLCD\test\Pain Drain\libraries\lvgl\src\draw\../misc/lv_color.h **** }
 587:..\..\..\arduinoLCD\test\Pain Drain\libraries\lvgl\src\draw\../misc/lv_color.h **** 
 588:..\..\..\arduinoLCD\test\Pain Drain\libraries\lvgl\src\draw\../misc/lv_color.h **** static inline lv_color_t lv_color_make(uint8_t r, uint8_t g, uint8_t b)
 589:..\..\..\arduinoLCD\test\Pain Drain\libraries\lvgl\src\draw\../misc/lv_color.h **** {
 590:..\..\..\arduinoLCD\test\Pain Drain\libraries\lvgl\src\draw\../misc/lv_color.h ****     return _LV_COLOR_MAKE_TYPE_HELPER LV_COLOR_MAKE(r, g, b);
 138              		.loc 2 590 0
 139 000e 4FF00003 		mov	r3, #0	@ movhi
 140              	.LVL14:
 141              	.LBE48:
 142              	.LBE47:
 143              	.LBE46:
  59:..\..\..\arduinoLCD\test\Pain Drain\libraries\lvgl\src\draw/lv_draw_label.c ****     dsc->font = LV_FONT_DEFAULT;
 144              		.loc 1 59 0
 145 0012 A381     		strh	r3, [r4, #12]	@ movhi
  60:..\..\..\arduinoLCD\test\Pain Drain\libraries\lvgl\src\draw/lv_draw_label.c ****     dsc->sel_start = LV_DRAW_LABEL_NO_TXT_SEL;
 146              		.loc 1 60 0
 147 0014 074B     		ldr	r3, .L14
 148 0016 2360     		str	r3, [r4]
  61:..\..\..\arduinoLCD\test\Pain Drain\libraries\lvgl\src\draw/lv_draw_label.c ****     dsc->sel_end = LV_DRAW_LABEL_NO_TXT_SEL;
 149              		.loc 1 61 0
 150 0018 4FF6FF73 		movw	r3, #65535
 151 001c 6360     		str	r3, [r4, #4]
  62:..\..\..\arduinoLCD\test\Pain Drain\libraries\lvgl\src\draw/lv_draw_label.c ****     dsc->sel_color = lv_color_black();
 152              		.loc 1 62 0
 153 001e A360     		str	r3, [r4, #8]
 154              	.LVL15:
 155              	.LBB49:
 156              	.LBB50:
 157              	.LBB51:
 158              		.loc 2 590 0
 159 0020 4FF00003 		mov	r3, #0	@ movhi
 160              	.LVL16:
 161              	.LBE51:
 162              	.LBE50:
 163              	.LBE49:
  63:..\..\..\arduinoLCD\test\Pain Drain\libraries\lvgl\src\draw/lv_draw_label.c ****     dsc->sel_bg_color = lv_palette_main(LV_PALETTE_BLUE);
 164              		.loc 1 63 0
 165 0024 E381     		strh	r3, [r4, #14]	@ movhi
  64:..\..\..\arduinoLCD\test\Pain Drain\libraries\lvgl\src\draw/lv_draw_label.c ****     dsc->bidi_dir = LV_BASE_DIR_LTR;
 166              		.loc 1 64 0
 167 0026 0520     		movs	r0, #5
 168 0028 FFF7FEFF 		bl	lv_palette_main
 169              	.LVL17:
 170 002c 2082     		strh	r0, [r4, #16]	@ movhi
  65:..\..\..\arduinoLCD\test\Pain Drain\libraries\lvgl\src\draw/lv_draw_label.c **** }
 171              		.loc 1 65 0
 172 002e 0023     		movs	r3, #0
 173 0030 E376     		strb	r3, [r4, #27]
 174 0032 10BD     		pop	{r4, pc}
 175              	.LVL18:
 176              	.L15:
 177              		.align	2
 178              	.L14:
 179 0034 00000000 		.word	lv_font_montserrat_14
 180              		.cfi_endproc
ARM GAS  C:\Users\haske\AppData\Local\Temp\ccmIjDGo.s 			page 22


 181              	.LFE159:
 182              		.size	lv_draw_label_dsc_init, .-lv_draw_label_dsc_init
 183              		.section	.text.lv_draw_letter,"ax",%progbits
 184              		.align	2
 185              		.global	lv_draw_letter
 186              		.thumb
 187              		.thumb_func
 188              		.type	lv_draw_letter, %function
 189              	lv_draw_letter:
 190              	.LFB161:
 366:..\..\..\arduinoLCD\test\Pain Drain\libraries\lvgl\src\draw/lv_draw_label.c ****     draw_ctx->draw_letter(draw_ctx, dsc, pos_p, letter);
 191              		.loc 1 366 0
 192              		.cfi_startproc
 193              		@ args = 0, pretend = 0, frame = 0
 194              		@ frame_needed = 0, uses_anonymous_args = 0
 195              	.LVL19:
 196 0000 10B5     		push	{r4, lr}
 197              		.cfi_def_cfa_offset 8
 198              		.cfi_offset 4, -8
 199              		.cfi_offset 14, -4
 367:..\..\..\arduinoLCD\test\Pain Drain\libraries\lvgl\src\draw/lv_draw_label.c **** }
 200              		.loc 1 367 0
 201 0002 046A     		ldr	r4, [r0, #32]
 202 0004 A047     		blx	r4
 203              	.LVL20:
 204 0006 10BD     		pop	{r4, pc}
 205              		.cfi_endproc
 206              	.LFE161:
 207              		.size	lv_draw_letter, .-lv_draw_letter
 208              		.section	.text.lv_draw_label,"ax",%progbits
 209              		.align	2
 210              		.global	lv_draw_label
 211              		.thumb
 212              		.thumb_func
 213              		.type	lv_draw_label, %function
 214              	lv_draw_label:
 215              	.LFB160:
  79:..\..\..\arduinoLCD\test\Pain Drain\libraries\lvgl\src\draw/lv_draw_label.c ****     if(dsc->opa <= LV_OPA_MIN) return;
 216              		.loc 1 79 0
 217              		.cfi_startproc
 218              		@ args = 4, pretend = 0, frame = 200
 219              		@ frame_needed = 0, uses_anonymous_args = 0
 220              	.LVL21:
 221 0000 2DE9F04F 		push	{r4, r5, r6, r7, r8, r9, r10, fp, lr}
 222              		.cfi_def_cfa_offset 36
 223              		.cfi_offset 4, -36
 224              		.cfi_offset 5, -32
 225              		.cfi_offset 6, -28
 226              		.cfi_offset 7, -24
 227              		.cfi_offset 8, -20
 228              		.cfi_offset 9, -16
 229              		.cfi_offset 10, -12
 230              		.cfi_offset 11, -8
 231              		.cfi_offset 14, -4
 232 0004 B7B0     		sub	sp, sp, #220
 233              		.cfi_def_cfa_offset 256
 234 0006 9846     		mov	r8, r3
ARM GAS  C:\Users\haske\AppData\Local\Temp\ccmIjDGo.s 			page 23


 235 0008 409C     		ldr	r4, [sp, #256]
  80:..\..\..\arduinoLCD\test\Pain Drain\libraries\lvgl\src\draw/lv_draw_label.c ****     if(dsc->font == NULL) {
 236              		.loc 1 80 0
 237 000a 8B7E     		ldrb	r3, [r1, #26]	@ zero_extendqisi2
 238              	.LVL22:
 239 000c 022B     		cmp	r3, #2
 240 000e 40F2D782 		bls	.L18
 241 0012 8646     		mov	lr, r0
 242 0014 0D46     		mov	r5, r1
 243 0016 9446     		mov	ip, r2
  81:..\..\..\arduinoLCD\test\Pain Drain\libraries\lvgl\src\draw/lv_draw_label.c ****         LV_LOG_WARN("dsc->font == NULL");
 244              		.loc 1 81 0
 245 0018 0B68     		ldr	r3, [r1]
 246 001a 002B     		cmp	r3, #0
 247 001c 00F0D082 		beq	.L18
  86:..\..\..\arduinoLCD\test\Pain Drain\libraries\lvgl\src\draw/lv_draw_label.c ****         LV_LOG_WARN("draw->draw_letter == NULL (there is no function to draw letters)");
 248              		.loc 1 86 0
 249 0020 036A     		ldr	r3, [r0, #32]
 250 0022 002B     		cmp	r3, #0
 251 0024 00F0CC82 		beq	.L18
  91:..\..\..\arduinoLCD\test\Pain Drain\libraries\lvgl\src\draw/lv_draw_label.c **** 
 252              		.loc 1 91 0
 253 0028 2EAE     		add	r6, sp, #184
 254 002a 0F46     		mov	r7, r1
 255 002c 0FCF     		ldmia	r7!, {r0, r1, r2, r3}
 256              	.LVL23:
 257 002e 0FC6     		stmia	r6!, {r0, r1, r2, r3}
 258 0030 97E80F00 		ldmia	r7, {r0, r1, r2, r3}
 259 0034 86E80F00 		stmia	r6, {r0, r1, r2, r3}
  93:..\..\..\arduinoLCD\test\Pain Drain\libraries\lvgl\src\draw/lv_draw_label.c ****     int32_t w;
 260              		.loc 1 93 0
 261 0038 2B68     		ldr	r3, [r5]
 262 003a 0693     		str	r3, [sp, #24]
 263              	.LVL24:
  97:..\..\..\arduinoLCD\test\Pain Drain\libraries\lvgl\src\draw/lv_draw_label.c ****         return;
 264              		.loc 1 97 0
 265 003c B8F1000F 		cmp	r8, #0
 266 0040 00F0BE82 		beq	.L18
  97:..\..\..\arduinoLCD\test\Pain Drain\libraries\lvgl\src\draw/lv_draw_label.c ****         return;
 267              		.loc 1 97 0 is_stmt 0 discriminator 1
 268 0044 98F80030 		ldrb	r3, [r8]	@ zero_extendqisi2
 269              	.LVL25:
 270 0048 002B     		cmp	r3, #0
 271 004a 00F0B982 		beq	.L18
 272 004e CDF82480 		str	r8, [sp, #36]
 273 0052 6146     		mov	r1, ip
 274 0054 CDF834C0 		str	ip, [sp, #52]
 275 0058 CDF820E0 		str	lr, [sp, #32]
 101:..\..\..\arduinoLCD\test\Pain Drain\libraries\lvgl\src\draw/lv_draw_label.c ****     if(!clip_ok) return;
 276              		.loc 1 101 0 is_stmt 1
 277 005c DEF80820 		ldr	r2, [lr, #8]
 278 0060 2CA8     		add	r0, sp, #176
 279 0062 FFF7FEFF 		bl	_lv_area_intersect
 280              	.LVL26:
 102:..\..\..\arduinoLCD\test\Pain Drain\libraries\lvgl\src\draw/lv_draw_label.c **** 
 281              		.loc 1 102 0
 282 0066 0028     		cmp	r0, #0
ARM GAS  C:\Users\haske\AppData\Local\Temp\ccmIjDGo.s 			page 24


 283 0068 00F0AA82 		beq	.L18
 104:..\..\..\arduinoLCD\test\Pain Drain\libraries\lvgl\src\draw/lv_draw_label.c ****     lv_base_dir_t base_dir = dsc->bidi_dir;
 284              		.loc 1 104 0
 285 006c 2B7F     		ldrb	r3, [r5, #28]	@ zero_extendqisi2
 286 006e 0C93     		str	r3, [sp, #48]
 287              	.LVL27:
 288              	.LBB52:
 289              	.LBB53:
 290              		.file 3 "..\\..\\..\\arduinoLCD\\test\\Pain Drain\\libraries\\lvgl\\src\\draw\\../misc/lv_bidi.h"
   1:..\..\..\arduinoLCD\test\Pain Drain\libraries\lvgl\src\draw\../misc/lv_bidi.h **** /**
   2:..\..\..\arduinoLCD\test\Pain Drain\libraries\lvgl\src\draw\../misc/lv_bidi.h ****  * @file lv_bidi.h
   3:..\..\..\arduinoLCD\test\Pain Drain\libraries\lvgl\src\draw\../misc/lv_bidi.h ****  *
   4:..\..\..\arduinoLCD\test\Pain Drain\libraries\lvgl\src\draw\../misc/lv_bidi.h ****  */
   5:..\..\..\arduinoLCD\test\Pain Drain\libraries\lvgl\src\draw\../misc/lv_bidi.h **** 
   6:..\..\..\arduinoLCD\test\Pain Drain\libraries\lvgl\src\draw\../misc/lv_bidi.h **** #ifndef LV_BIDI_H
   7:..\..\..\arduinoLCD\test\Pain Drain\libraries\lvgl\src\draw\../misc/lv_bidi.h **** #define LV_BIDI_H
   8:..\..\..\arduinoLCD\test\Pain Drain\libraries\lvgl\src\draw\../misc/lv_bidi.h **** 
   9:..\..\..\arduinoLCD\test\Pain Drain\libraries\lvgl\src\draw\../misc/lv_bidi.h **** #ifdef __cplusplus
  10:..\..\..\arduinoLCD\test\Pain Drain\libraries\lvgl\src\draw\../misc/lv_bidi.h **** extern "C" {
  11:..\..\..\arduinoLCD\test\Pain Drain\libraries\lvgl\src\draw\../misc/lv_bidi.h **** #endif
  12:..\..\..\arduinoLCD\test\Pain Drain\libraries\lvgl\src\draw\../misc/lv_bidi.h **** 
  13:..\..\..\arduinoLCD\test\Pain Drain\libraries\lvgl\src\draw\../misc/lv_bidi.h **** /*********************
  14:..\..\..\arduinoLCD\test\Pain Drain\libraries\lvgl\src\draw\../misc/lv_bidi.h ****  *      INCLUDES
  15:..\..\..\arduinoLCD\test\Pain Drain\libraries\lvgl\src\draw\../misc/lv_bidi.h ****  *********************/
  16:..\..\..\arduinoLCD\test\Pain Drain\libraries\lvgl\src\draw\../misc/lv_bidi.h **** #include "../lv_conf_internal.h"
  17:..\..\..\arduinoLCD\test\Pain Drain\libraries\lvgl\src\draw\../misc/lv_bidi.h **** 
  18:..\..\..\arduinoLCD\test\Pain Drain\libraries\lvgl\src\draw\../misc/lv_bidi.h **** #include <stdbool.h>
  19:..\..\..\arduinoLCD\test\Pain Drain\libraries\lvgl\src\draw\../misc/lv_bidi.h **** #include <stdint.h>
  20:..\..\..\arduinoLCD\test\Pain Drain\libraries\lvgl\src\draw\../misc/lv_bidi.h **** #include "lv_txt.h"
  21:..\..\..\arduinoLCD\test\Pain Drain\libraries\lvgl\src\draw\../misc/lv_bidi.h **** 
  22:..\..\..\arduinoLCD\test\Pain Drain\libraries\lvgl\src\draw\../misc/lv_bidi.h **** /*********************
  23:..\..\..\arduinoLCD\test\Pain Drain\libraries\lvgl\src\draw\../misc/lv_bidi.h ****  *      DEFINES
  24:..\..\..\arduinoLCD\test\Pain Drain\libraries\lvgl\src\draw\../misc/lv_bidi.h ****  *********************/
  25:..\..\..\arduinoLCD\test\Pain Drain\libraries\lvgl\src\draw\../misc/lv_bidi.h **** /*Special non printable strong characters.
  26:..\..\..\arduinoLCD\test\Pain Drain\libraries\lvgl\src\draw\../misc/lv_bidi.h ****  *They can be inserted to texts to affect the run's direction*/
  27:..\..\..\arduinoLCD\test\Pain Drain\libraries\lvgl\src\draw\../misc/lv_bidi.h **** #define LV_BIDI_LRO  "\xE2\x80\xAD" /*U+202D*/
  28:..\..\..\arduinoLCD\test\Pain Drain\libraries\lvgl\src\draw\../misc/lv_bidi.h **** #define LV_BIDI_RLO  "\xE2\x80\xAE" /*U+202E*/
  29:..\..\..\arduinoLCD\test\Pain Drain\libraries\lvgl\src\draw\../misc/lv_bidi.h **** 
  30:..\..\..\arduinoLCD\test\Pain Drain\libraries\lvgl\src\draw\../misc/lv_bidi.h **** /**********************
  31:..\..\..\arduinoLCD\test\Pain Drain\libraries\lvgl\src\draw\../misc/lv_bidi.h ****  *      TYPEDEFS
  32:..\..\..\arduinoLCD\test\Pain Drain\libraries\lvgl\src\draw\../misc/lv_bidi.h ****  **********************/
  33:..\..\..\arduinoLCD\test\Pain Drain\libraries\lvgl\src\draw\../misc/lv_bidi.h **** enum {
  34:..\..\..\arduinoLCD\test\Pain Drain\libraries\lvgl\src\draw\../misc/lv_bidi.h ****     LV_BASE_DIR_LTR      = 0x00,
  35:..\..\..\arduinoLCD\test\Pain Drain\libraries\lvgl\src\draw\../misc/lv_bidi.h ****     LV_BASE_DIR_RTL      = 0x01,
  36:..\..\..\arduinoLCD\test\Pain Drain\libraries\lvgl\src\draw\../misc/lv_bidi.h ****     LV_BASE_DIR_AUTO     = 0x02,
  37:..\..\..\arduinoLCD\test\Pain Drain\libraries\lvgl\src\draw\../misc/lv_bidi.h **** 
  38:..\..\..\arduinoLCD\test\Pain Drain\libraries\lvgl\src\draw\../misc/lv_bidi.h ****     LV_BASE_DIR_NEUTRAL  = 0x20,
  39:..\..\..\arduinoLCD\test\Pain Drain\libraries\lvgl\src\draw\../misc/lv_bidi.h ****     LV_BASE_DIR_WEAK     = 0x21,
  40:..\..\..\arduinoLCD\test\Pain Drain\libraries\lvgl\src\draw\../misc/lv_bidi.h **** };
  41:..\..\..\arduinoLCD\test\Pain Drain\libraries\lvgl\src\draw\../misc/lv_bidi.h **** 
  42:..\..\..\arduinoLCD\test\Pain Drain\libraries\lvgl\src\draw\../misc/lv_bidi.h **** typedef uint8_t lv_base_dir_t;
  43:..\..\..\arduinoLCD\test\Pain Drain\libraries\lvgl\src\draw\../misc/lv_bidi.h **** 
  44:..\..\..\arduinoLCD\test\Pain Drain\libraries\lvgl\src\draw\../misc/lv_bidi.h **** /**********************
  45:..\..\..\arduinoLCD\test\Pain Drain\libraries\lvgl\src\draw\../misc/lv_bidi.h ****  * GLOBAL PROTOTYPES
  46:..\..\..\arduinoLCD\test\Pain Drain\libraries\lvgl\src\draw\../misc/lv_bidi.h ****  **********************/
  47:..\..\..\arduinoLCD\test\Pain Drain\libraries\lvgl\src\draw\../misc/lv_bidi.h **** #if LV_USE_BIDI
  48:..\..\..\arduinoLCD\test\Pain Drain\libraries\lvgl\src\draw\../misc/lv_bidi.h **** 
ARM GAS  C:\Users\haske\AppData\Local\Temp\ccmIjDGo.s 			page 25


  49:..\..\..\arduinoLCD\test\Pain Drain\libraries\lvgl\src\draw\../misc/lv_bidi.h **** /**
  50:..\..\..\arduinoLCD\test\Pain Drain\libraries\lvgl\src\draw\../misc/lv_bidi.h ****  * Convert a text to get the characters in the correct visual order according to
  51:..\..\..\arduinoLCD\test\Pain Drain\libraries\lvgl\src\draw\../misc/lv_bidi.h ****  * Unicode Bidirectional Algorithm
  52:..\..\..\arduinoLCD\test\Pain Drain\libraries\lvgl\src\draw\../misc/lv_bidi.h ****  * @param str_in the text to process
  53:..\..\..\arduinoLCD\test\Pain Drain\libraries\lvgl\src\draw\../misc/lv_bidi.h ****  * @param str_out store the result here. Has the be `strlen(str_in)` length
  54:..\..\..\arduinoLCD\test\Pain Drain\libraries\lvgl\src\draw\../misc/lv_bidi.h ****  * @param base_dir `LV_BASE_DIR_LTR` or `LV_BASE_DIR_RTL`
  55:..\..\..\arduinoLCD\test\Pain Drain\libraries\lvgl\src\draw\../misc/lv_bidi.h ****  */
  56:..\..\..\arduinoLCD\test\Pain Drain\libraries\lvgl\src\draw\../misc/lv_bidi.h **** void _lv_bidi_process(const char * str_in, char * str_out, lv_base_dir_t base_dir);
  57:..\..\..\arduinoLCD\test\Pain Drain\libraries\lvgl\src\draw\../misc/lv_bidi.h **** 
  58:..\..\..\arduinoLCD\test\Pain Drain\libraries\lvgl\src\draw\../misc/lv_bidi.h **** /**
  59:..\..\..\arduinoLCD\test\Pain Drain\libraries\lvgl\src\draw\../misc/lv_bidi.h ****  * Auto-detect the direction of a text based on the first strong character
  60:..\..\..\arduinoLCD\test\Pain Drain\libraries\lvgl\src\draw\../misc/lv_bidi.h ****  * @param txt the text to process
  61:..\..\..\arduinoLCD\test\Pain Drain\libraries\lvgl\src\draw\../misc/lv_bidi.h ****  * @return `LV_BASE_DIR_LTR` or `LV_BASE_DIR_RTL`
  62:..\..\..\arduinoLCD\test\Pain Drain\libraries\lvgl\src\draw\../misc/lv_bidi.h ****  */
  63:..\..\..\arduinoLCD\test\Pain Drain\libraries\lvgl\src\draw\../misc/lv_bidi.h **** lv_base_dir_t _lv_bidi_detect_base_dir(const char * txt);
  64:..\..\..\arduinoLCD\test\Pain Drain\libraries\lvgl\src\draw\../misc/lv_bidi.h **** 
  65:..\..\..\arduinoLCD\test\Pain Drain\libraries\lvgl\src\draw\../misc/lv_bidi.h **** /**
  66:..\..\..\arduinoLCD\test\Pain Drain\libraries\lvgl\src\draw\../misc/lv_bidi.h ****  * Get the logical position of a character in a line
  67:..\..\..\arduinoLCD\test\Pain Drain\libraries\lvgl\src\draw\../misc/lv_bidi.h ****  * @param str_in the input string. Can be only one line.
  68:..\..\..\arduinoLCD\test\Pain Drain\libraries\lvgl\src\draw\../misc/lv_bidi.h ****  * @param bidi_txt internally the text is bidi processed which buffer can be get here.
  69:..\..\..\arduinoLCD\test\Pain Drain\libraries\lvgl\src\draw\../misc/lv_bidi.h ****  * If not required anymore has to freed with `lv_mem_free()`
  70:..\..\..\arduinoLCD\test\Pain Drain\libraries\lvgl\src\draw\../misc/lv_bidi.h ****  * Can be `NULL` is unused
  71:..\..\..\arduinoLCD\test\Pain Drain\libraries\lvgl\src\draw\../misc/lv_bidi.h ****  * @param len length of the line in character count
  72:..\..\..\arduinoLCD\test\Pain Drain\libraries\lvgl\src\draw\../misc/lv_bidi.h ****  * @param base_dir base direction of the text: `LV_BASE_DIR_LTR` or `LV_BASE_DIR_RTL`
  73:..\..\..\arduinoLCD\test\Pain Drain\libraries\lvgl\src\draw\../misc/lv_bidi.h ****  * @param visual_pos the visual character position which logical position should be get
  74:..\..\..\arduinoLCD\test\Pain Drain\libraries\lvgl\src\draw\../misc/lv_bidi.h ****  * @param is_rtl tell the char at `visual_pos` is RTL or LTR context
  75:..\..\..\arduinoLCD\test\Pain Drain\libraries\lvgl\src\draw\../misc/lv_bidi.h ****  * @return the logical character position
  76:..\..\..\arduinoLCD\test\Pain Drain\libraries\lvgl\src\draw\../misc/lv_bidi.h ****  */
  77:..\..\..\arduinoLCD\test\Pain Drain\libraries\lvgl\src\draw\../misc/lv_bidi.h **** uint16_t _lv_bidi_get_logical_pos(const char * str_in, char ** bidi_txt, uint32_t len, lv_base_dir_
  78:..\..\..\arduinoLCD\test\Pain Drain\libraries\lvgl\src\draw\../misc/lv_bidi.h ****                                   uint32_t visual_pos, bool * is_rtl);
  79:..\..\..\arduinoLCD\test\Pain Drain\libraries\lvgl\src\draw\../misc/lv_bidi.h **** 
  80:..\..\..\arduinoLCD\test\Pain Drain\libraries\lvgl\src\draw\../misc/lv_bidi.h **** /**
  81:..\..\..\arduinoLCD\test\Pain Drain\libraries\lvgl\src\draw\../misc/lv_bidi.h ****  * Get the visual position of a character in a line
  82:..\..\..\arduinoLCD\test\Pain Drain\libraries\lvgl\src\draw\../misc/lv_bidi.h ****  * @param str_in the input string. Can be only one line.
  83:..\..\..\arduinoLCD\test\Pain Drain\libraries\lvgl\src\draw\../misc/lv_bidi.h ****  * @param bidi_txt internally the text is bidi processed which buffer can be get here.
  84:..\..\..\arduinoLCD\test\Pain Drain\libraries\lvgl\src\draw\../misc/lv_bidi.h ****  * If not required anymore has to freed with `lv_mem_free()`
  85:..\..\..\arduinoLCD\test\Pain Drain\libraries\lvgl\src\draw\../misc/lv_bidi.h ****  * Can be `NULL` is unused
  86:..\..\..\arduinoLCD\test\Pain Drain\libraries\lvgl\src\draw\../misc/lv_bidi.h ****  * @param len length of the line in character count
  87:..\..\..\arduinoLCD\test\Pain Drain\libraries\lvgl\src\draw\../misc/lv_bidi.h ****  * @param base_dir base direction of the text: `LV_BASE_DIR_LTR` or `LV_BASE_DIR_RTL`
  88:..\..\..\arduinoLCD\test\Pain Drain\libraries\lvgl\src\draw\../misc/lv_bidi.h ****  * @param logical_pos the logical character position which visual position should be get
  89:..\..\..\arduinoLCD\test\Pain Drain\libraries\lvgl\src\draw\../misc/lv_bidi.h ****  * @param is_rtl tell the char at `logical_pos` is RTL or LTR context
  90:..\..\..\arduinoLCD\test\Pain Drain\libraries\lvgl\src\draw\../misc/lv_bidi.h ****  * @return the visual character position
  91:..\..\..\arduinoLCD\test\Pain Drain\libraries\lvgl\src\draw\../misc/lv_bidi.h ****  */
  92:..\..\..\arduinoLCD\test\Pain Drain\libraries\lvgl\src\draw\../misc/lv_bidi.h **** uint16_t _lv_bidi_get_visual_pos(const char * str_in, char ** bidi_txt, uint16_t len, lv_base_dir_t
  93:..\..\..\arduinoLCD\test\Pain Drain\libraries\lvgl\src\draw\../misc/lv_bidi.h ****                                  uint32_t logical_pos, bool * is_rtl);
  94:..\..\..\arduinoLCD\test\Pain Drain\libraries\lvgl\src\draw\../misc/lv_bidi.h **** 
  95:..\..\..\arduinoLCD\test\Pain Drain\libraries\lvgl\src\draw\../misc/lv_bidi.h **** /**
  96:..\..\..\arduinoLCD\test\Pain Drain\libraries\lvgl\src\draw\../misc/lv_bidi.h ****  * Bidi process a paragraph of text
  97:..\..\..\arduinoLCD\test\Pain Drain\libraries\lvgl\src\draw\../misc/lv_bidi.h ****  * @param str_in the string to process
  98:..\..\..\arduinoLCD\test\Pain Drain\libraries\lvgl\src\draw\../misc/lv_bidi.h ****  * @param str_out store the result here
  99:..\..\..\arduinoLCD\test\Pain Drain\libraries\lvgl\src\draw\../misc/lv_bidi.h ****  * @param len length of the text
 100:..\..\..\arduinoLCD\test\Pain Drain\libraries\lvgl\src\draw\../misc/lv_bidi.h ****  * @param base_dir base dir of the text
 101:..\..\..\arduinoLCD\test\Pain Drain\libraries\lvgl\src\draw\../misc/lv_bidi.h ****  * @param pos_conv_out an `uint16_t` array to store the related logical position of the character.
 102:..\..\..\arduinoLCD\test\Pain Drain\libraries\lvgl\src\draw\../misc/lv_bidi.h ****  * Can be `NULL` is unused
 103:..\..\..\arduinoLCD\test\Pain Drain\libraries\lvgl\src\draw\../misc/lv_bidi.h ****  * @param pos_conv_len length of `pos_conv_out` in element count
 104:..\..\..\arduinoLCD\test\Pain Drain\libraries\lvgl\src\draw\../misc/lv_bidi.h ****  */
 105:..\..\..\arduinoLCD\test\Pain Drain\libraries\lvgl\src\draw\../misc/lv_bidi.h **** void _lv_bidi_process_paragraph(const char * str_in, char * str_out, uint32_t len, lv_base_dir_t ba
ARM GAS  C:\Users\haske\AppData\Local\Temp\ccmIjDGo.s 			page 26


 106:..\..\..\arduinoLCD\test\Pain Drain\libraries\lvgl\src\draw\../misc/lv_bidi.h ****                                 uint16_t * pos_conv_out, uint16_t pos_conv_len);
 107:..\..\..\arduinoLCD\test\Pain Drain\libraries\lvgl\src\draw\../misc/lv_bidi.h **** 
 108:..\..\..\arduinoLCD\test\Pain Drain\libraries\lvgl\src\draw\../misc/lv_bidi.h **** /**
 109:..\..\..\arduinoLCD\test\Pain Drain\libraries\lvgl\src\draw\../misc/lv_bidi.h ****  * Get the real text alignment from the a text alignment, base direction and a text.
 110:..\..\..\arduinoLCD\test\Pain Drain\libraries\lvgl\src\draw\../misc/lv_bidi.h ****  * @param align     LV_TEXT_ALIGN_..., write back the calculated align here (LV_TEXT_ALIGN_LEFT/RIG
 111:..\..\..\arduinoLCD\test\Pain Drain\libraries\lvgl\src\draw\../misc/lv_bidi.h ****  * @param base_dir  LV_BASE_DIR_..., write the calculated base dir here (LV_BASE_DIR_LTR/RTL)
 112:..\..\..\arduinoLCD\test\Pain Drain\libraries\lvgl\src\draw\../misc/lv_bidi.h ****  * @param txt       a text, used with LV_BASE_DIR_AUTO to determine the base direction
 113:..\..\..\arduinoLCD\test\Pain Drain\libraries\lvgl\src\draw\../misc/lv_bidi.h ****  */
 114:..\..\..\arduinoLCD\test\Pain Drain\libraries\lvgl\src\draw\../misc/lv_bidi.h **** void lv_bidi_calculate_align(lv_text_align_t * align, lv_base_dir_t * base_dir, const char * txt);
 115:..\..\..\arduinoLCD\test\Pain Drain\libraries\lvgl\src\draw\../misc/lv_bidi.h **** 
 116:..\..\..\arduinoLCD\test\Pain Drain\libraries\lvgl\src\draw\../misc/lv_bidi.h **** 
 117:..\..\..\arduinoLCD\test\Pain Drain\libraries\lvgl\src\draw\../misc/lv_bidi.h **** /**********************
 118:..\..\..\arduinoLCD\test\Pain Drain\libraries\lvgl\src\draw\../misc/lv_bidi.h ****  *      MACROS
 119:..\..\..\arduinoLCD\test\Pain Drain\libraries\lvgl\src\draw\../misc/lv_bidi.h ****  **********************/
 120:..\..\..\arduinoLCD\test\Pain Drain\libraries\lvgl\src\draw\../misc/lv_bidi.h **** 
 121:..\..\..\arduinoLCD\test\Pain Drain\libraries\lvgl\src\draw\../misc/lv_bidi.h **** #else /*LV_USE_BIDI*/
 122:..\..\..\arduinoLCD\test\Pain Drain\libraries\lvgl\src\draw\../misc/lv_bidi.h **** /**
 123:..\..\..\arduinoLCD\test\Pain Drain\libraries\lvgl\src\draw\../misc/lv_bidi.h ****  * For compatibility if LV_USE_BIDI = 0
 124:..\..\..\arduinoLCD\test\Pain Drain\libraries\lvgl\src\draw\../misc/lv_bidi.h ****  * Get the real text alignment from the a text alignment, base direction and a text.
 125:..\..\..\arduinoLCD\test\Pain Drain\libraries\lvgl\src\draw\../misc/lv_bidi.h ****  * @param align     For LV_TEXT_ALIGN_AUTO give LV_TEXT_ALIGN_LEFT else leave unchanged, write back
 126:..\..\..\arduinoLCD\test\Pain Drain\libraries\lvgl\src\draw\../misc/lv_bidi.h ****  * @param base_dir  Unused
 127:..\..\..\arduinoLCD\test\Pain Drain\libraries\lvgl\src\draw\../misc/lv_bidi.h ****  * @param txt       Unused
 128:..\..\..\arduinoLCD\test\Pain Drain\libraries\lvgl\src\draw\../misc/lv_bidi.h ****  */
 129:..\..\..\arduinoLCD\test\Pain Drain\libraries\lvgl\src\draw\../misc/lv_bidi.h **** static inline void lv_bidi_calculate_align(lv_text_align_t * align, lv_base_dir_t * base_dir, const
 130:..\..\..\arduinoLCD\test\Pain Drain\libraries\lvgl\src\draw\../misc/lv_bidi.h **** {
 131:..\..\..\arduinoLCD\test\Pain Drain\libraries\lvgl\src\draw\../misc/lv_bidi.h ****     LV_UNUSED(txt);
 132:..\..\..\arduinoLCD\test\Pain Drain\libraries\lvgl\src\draw\../misc/lv_bidi.h ****     LV_UNUSED(base_dir);
 133:..\..\..\arduinoLCD\test\Pain Drain\libraries\lvgl\src\draw\../misc/lv_bidi.h ****     if(*align == LV_TEXT_ALIGN_AUTO) * align = LV_TEXT_ALIGN_LEFT;
 291              		.loc 3 133 0
 292 0070 0BB9     		cbnz	r3, .L20
 293 0072 0123     		movs	r3, #1
 294              	.LVL28:
 295 0074 0C93     		str	r3, [sp, #48]
 296              	.LVL29:
 297              	.L20:
 298              	.LBE53:
 299              	.LBE52:
 109:..\..\..\arduinoLCD\test\Pain Drain\libraries\lvgl\src\draw/lv_draw_label.c ****         /*Normally use the label's width as width*/
 300              		.loc 1 109 0
 301 0076 6A7F     		ldrb	r2, [r5, #29]	@ zero_extendqisi2
 302 0078 12F0020F 		tst	r2, #2
 303 007c 08D1     		bne	.L21
 304              	.LVL30:
 305              	.LBB54:
 306              	.LBB55:
 307              		.file 4 "c:\\projects\\paindrain\\arduinolcd\\test\\pain drain\\libraries\\lvgl\\src\\misc\\lv_are
   1:c:\projects\paindrain\arduinolcd\test\pain drain\libraries\lvgl\src\misc\lv_area.h **** /**
   2:c:\projects\paindrain\arduinolcd\test\pain drain\libraries\lvgl\src\misc\lv_area.h ****  * @file lv_area.h
   3:c:\projects\paindrain\arduinolcd\test\pain drain\libraries\lvgl\src\misc\lv_area.h ****  *
   4:c:\projects\paindrain\arduinolcd\test\pain drain\libraries\lvgl\src\misc\lv_area.h ****  */
   5:c:\projects\paindrain\arduinolcd\test\pain drain\libraries\lvgl\src\misc\lv_area.h **** 
   6:c:\projects\paindrain\arduinolcd\test\pain drain\libraries\lvgl\src\misc\lv_area.h **** #ifndef LV_AREA_H
   7:c:\projects\paindrain\arduinolcd\test\pain drain\libraries\lvgl\src\misc\lv_area.h **** #define LV_AREA_H
   8:c:\projects\paindrain\arduinolcd\test\pain drain\libraries\lvgl\src\misc\lv_area.h **** 
   9:c:\projects\paindrain\arduinolcd\test\pain drain\libraries\lvgl\src\misc\lv_area.h **** #ifdef __cplusplus
  10:c:\projects\paindrain\arduinolcd\test\pain drain\libraries\lvgl\src\misc\lv_area.h **** extern "C" {
  11:c:\projects\paindrain\arduinolcd\test\pain drain\libraries\lvgl\src\misc\lv_area.h **** #endif
ARM GAS  C:\Users\haske\AppData\Local\Temp\ccmIjDGo.s 			page 27


  12:c:\projects\paindrain\arduinolcd\test\pain drain\libraries\lvgl\src\misc\lv_area.h **** 
  13:c:\projects\paindrain\arduinolcd\test\pain drain\libraries\lvgl\src\misc\lv_area.h **** /*********************
  14:c:\projects\paindrain\arduinolcd\test\pain drain\libraries\lvgl\src\misc\lv_area.h ****  *      INCLUDES
  15:c:\projects\paindrain\arduinolcd\test\pain drain\libraries\lvgl\src\misc\lv_area.h ****  *********************/
  16:c:\projects\paindrain\arduinolcd\test\pain drain\libraries\lvgl\src\misc\lv_area.h **** #include "../lv_conf_internal.h"
  17:c:\projects\paindrain\arduinolcd\test\pain drain\libraries\lvgl\src\misc\lv_area.h **** #include <stdbool.h>
  18:c:\projects\paindrain\arduinolcd\test\pain drain\libraries\lvgl\src\misc\lv_area.h **** #include <stdint.h>
  19:c:\projects\paindrain\arduinolcd\test\pain drain\libraries\lvgl\src\misc\lv_area.h **** 
  20:c:\projects\paindrain\arduinolcd\test\pain drain\libraries\lvgl\src\misc\lv_area.h **** /*********************
  21:c:\projects\paindrain\arduinolcd\test\pain drain\libraries\lvgl\src\misc\lv_area.h ****  *      DEFINES
  22:c:\projects\paindrain\arduinolcd\test\pain drain\libraries\lvgl\src\misc\lv_area.h ****  *********************/
  23:c:\projects\paindrain\arduinolcd\test\pain drain\libraries\lvgl\src\misc\lv_area.h **** 
  24:c:\projects\paindrain\arduinolcd\test\pain drain\libraries\lvgl\src\misc\lv_area.h **** #if LV_USE_LARGE_COORD
  25:c:\projects\paindrain\arduinolcd\test\pain drain\libraries\lvgl\src\misc\lv_area.h **** typedef int32_t lv_coord_t;
  26:c:\projects\paindrain\arduinolcd\test\pain drain\libraries\lvgl\src\misc\lv_area.h **** #else
  27:c:\projects\paindrain\arduinolcd\test\pain drain\libraries\lvgl\src\misc\lv_area.h **** typedef int16_t lv_coord_t;
  28:c:\projects\paindrain\arduinolcd\test\pain drain\libraries\lvgl\src\misc\lv_area.h **** #endif
  29:c:\projects\paindrain\arduinolcd\test\pain drain\libraries\lvgl\src\misc\lv_area.h **** 
  30:c:\projects\paindrain\arduinolcd\test\pain drain\libraries\lvgl\src\misc\lv_area.h **** /**********************
  31:c:\projects\paindrain\arduinolcd\test\pain drain\libraries\lvgl\src\misc\lv_area.h ****  *      TYPEDEFS
  32:c:\projects\paindrain\arduinolcd\test\pain drain\libraries\lvgl\src\misc\lv_area.h ****  **********************/
  33:c:\projects\paindrain\arduinolcd\test\pain drain\libraries\lvgl\src\misc\lv_area.h **** 
  34:c:\projects\paindrain\arduinolcd\test\pain drain\libraries\lvgl\src\misc\lv_area.h **** /**
  35:c:\projects\paindrain\arduinolcd\test\pain drain\libraries\lvgl\src\misc\lv_area.h ****  * Represents a point on the screen.
  36:c:\projects\paindrain\arduinolcd\test\pain drain\libraries\lvgl\src\misc\lv_area.h ****  */
  37:c:\projects\paindrain\arduinolcd\test\pain drain\libraries\lvgl\src\misc\lv_area.h **** typedef struct {
  38:c:\projects\paindrain\arduinolcd\test\pain drain\libraries\lvgl\src\misc\lv_area.h ****     lv_coord_t x;
  39:c:\projects\paindrain\arduinolcd\test\pain drain\libraries\lvgl\src\misc\lv_area.h ****     lv_coord_t y;
  40:c:\projects\paindrain\arduinolcd\test\pain drain\libraries\lvgl\src\misc\lv_area.h **** } lv_point_t;
  41:c:\projects\paindrain\arduinolcd\test\pain drain\libraries\lvgl\src\misc\lv_area.h **** 
  42:c:\projects\paindrain\arduinolcd\test\pain drain\libraries\lvgl\src\misc\lv_area.h **** /** Represents an area of the screen.*/
  43:c:\projects\paindrain\arduinolcd\test\pain drain\libraries\lvgl\src\misc\lv_area.h **** typedef struct {
  44:c:\projects\paindrain\arduinolcd\test\pain drain\libraries\lvgl\src\misc\lv_area.h ****     lv_coord_t x1;
  45:c:\projects\paindrain\arduinolcd\test\pain drain\libraries\lvgl\src\misc\lv_area.h ****     lv_coord_t y1;
  46:c:\projects\paindrain\arduinolcd\test\pain drain\libraries\lvgl\src\misc\lv_area.h ****     lv_coord_t x2;
  47:c:\projects\paindrain\arduinolcd\test\pain drain\libraries\lvgl\src\misc\lv_area.h ****     lv_coord_t y2;
  48:c:\projects\paindrain\arduinolcd\test\pain drain\libraries\lvgl\src\misc\lv_area.h **** } lv_area_t;
  49:c:\projects\paindrain\arduinolcd\test\pain drain\libraries\lvgl\src\misc\lv_area.h **** 
  50:c:\projects\paindrain\arduinolcd\test\pain drain\libraries\lvgl\src\misc\lv_area.h **** /** Alignments*/
  51:c:\projects\paindrain\arduinolcd\test\pain drain\libraries\lvgl\src\misc\lv_area.h **** enum {
  52:c:\projects\paindrain\arduinolcd\test\pain drain\libraries\lvgl\src\misc\lv_area.h ****     LV_ALIGN_DEFAULT = 0,
  53:c:\projects\paindrain\arduinolcd\test\pain drain\libraries\lvgl\src\misc\lv_area.h ****     LV_ALIGN_TOP_LEFT,
  54:c:\projects\paindrain\arduinolcd\test\pain drain\libraries\lvgl\src\misc\lv_area.h ****     LV_ALIGN_TOP_MID,
  55:c:\projects\paindrain\arduinolcd\test\pain drain\libraries\lvgl\src\misc\lv_area.h ****     LV_ALIGN_TOP_RIGHT,
  56:c:\projects\paindrain\arduinolcd\test\pain drain\libraries\lvgl\src\misc\lv_area.h ****     LV_ALIGN_BOTTOM_LEFT,
  57:c:\projects\paindrain\arduinolcd\test\pain drain\libraries\lvgl\src\misc\lv_area.h ****     LV_ALIGN_BOTTOM_MID,
  58:c:\projects\paindrain\arduinolcd\test\pain drain\libraries\lvgl\src\misc\lv_area.h ****     LV_ALIGN_BOTTOM_RIGHT,
  59:c:\projects\paindrain\arduinolcd\test\pain drain\libraries\lvgl\src\misc\lv_area.h ****     LV_ALIGN_LEFT_MID,
  60:c:\projects\paindrain\arduinolcd\test\pain drain\libraries\lvgl\src\misc\lv_area.h ****     LV_ALIGN_RIGHT_MID,
  61:c:\projects\paindrain\arduinolcd\test\pain drain\libraries\lvgl\src\misc\lv_area.h ****     LV_ALIGN_CENTER,
  62:c:\projects\paindrain\arduinolcd\test\pain drain\libraries\lvgl\src\misc\lv_area.h **** 
  63:c:\projects\paindrain\arduinolcd\test\pain drain\libraries\lvgl\src\misc\lv_area.h ****     LV_ALIGN_OUT_TOP_LEFT,
  64:c:\projects\paindrain\arduinolcd\test\pain drain\libraries\lvgl\src\misc\lv_area.h ****     LV_ALIGN_OUT_TOP_MID,
  65:c:\projects\paindrain\arduinolcd\test\pain drain\libraries\lvgl\src\misc\lv_area.h ****     LV_ALIGN_OUT_TOP_RIGHT,
  66:c:\projects\paindrain\arduinolcd\test\pain drain\libraries\lvgl\src\misc\lv_area.h ****     LV_ALIGN_OUT_BOTTOM_LEFT,
  67:c:\projects\paindrain\arduinolcd\test\pain drain\libraries\lvgl\src\misc\lv_area.h ****     LV_ALIGN_OUT_BOTTOM_MID,
  68:c:\projects\paindrain\arduinolcd\test\pain drain\libraries\lvgl\src\misc\lv_area.h ****     LV_ALIGN_OUT_BOTTOM_RIGHT,
ARM GAS  C:\Users\haske\AppData\Local\Temp\ccmIjDGo.s 			page 28


  69:c:\projects\paindrain\arduinolcd\test\pain drain\libraries\lvgl\src\misc\lv_area.h ****     LV_ALIGN_OUT_LEFT_TOP,
  70:c:\projects\paindrain\arduinolcd\test\pain drain\libraries\lvgl\src\misc\lv_area.h ****     LV_ALIGN_OUT_LEFT_MID,
  71:c:\projects\paindrain\arduinolcd\test\pain drain\libraries\lvgl\src\misc\lv_area.h ****     LV_ALIGN_OUT_LEFT_BOTTOM,
  72:c:\projects\paindrain\arduinolcd\test\pain drain\libraries\lvgl\src\misc\lv_area.h ****     LV_ALIGN_OUT_RIGHT_TOP,
  73:c:\projects\paindrain\arduinolcd\test\pain drain\libraries\lvgl\src\misc\lv_area.h ****     LV_ALIGN_OUT_RIGHT_MID,
  74:c:\projects\paindrain\arduinolcd\test\pain drain\libraries\lvgl\src\misc\lv_area.h ****     LV_ALIGN_OUT_RIGHT_BOTTOM,
  75:c:\projects\paindrain\arduinolcd\test\pain drain\libraries\lvgl\src\misc\lv_area.h **** };
  76:c:\projects\paindrain\arduinolcd\test\pain drain\libraries\lvgl\src\misc\lv_area.h **** typedef uint8_t lv_align_t;
  77:c:\projects\paindrain\arduinolcd\test\pain drain\libraries\lvgl\src\misc\lv_area.h **** 
  78:c:\projects\paindrain\arduinolcd\test\pain drain\libraries\lvgl\src\misc\lv_area.h **** enum {
  79:c:\projects\paindrain\arduinolcd\test\pain drain\libraries\lvgl\src\misc\lv_area.h ****     LV_DIR_NONE     = 0x00,
  80:c:\projects\paindrain\arduinolcd\test\pain drain\libraries\lvgl\src\misc\lv_area.h ****     LV_DIR_LEFT     = (1 << 0),
  81:c:\projects\paindrain\arduinolcd\test\pain drain\libraries\lvgl\src\misc\lv_area.h ****     LV_DIR_RIGHT    = (1 << 1),
  82:c:\projects\paindrain\arduinolcd\test\pain drain\libraries\lvgl\src\misc\lv_area.h ****     LV_DIR_TOP      = (1 << 2),
  83:c:\projects\paindrain\arduinolcd\test\pain drain\libraries\lvgl\src\misc\lv_area.h ****     LV_DIR_BOTTOM   = (1 << 3),
  84:c:\projects\paindrain\arduinolcd\test\pain drain\libraries\lvgl\src\misc\lv_area.h ****     LV_DIR_HOR      = LV_DIR_LEFT | LV_DIR_RIGHT,
  85:c:\projects\paindrain\arduinolcd\test\pain drain\libraries\lvgl\src\misc\lv_area.h ****     LV_DIR_VER      = LV_DIR_TOP | LV_DIR_BOTTOM,
  86:c:\projects\paindrain\arduinolcd\test\pain drain\libraries\lvgl\src\misc\lv_area.h ****     LV_DIR_ALL      = LV_DIR_HOR | LV_DIR_VER,
  87:c:\projects\paindrain\arduinolcd\test\pain drain\libraries\lvgl\src\misc\lv_area.h **** };
  88:c:\projects\paindrain\arduinolcd\test\pain drain\libraries\lvgl\src\misc\lv_area.h **** 
  89:c:\projects\paindrain\arduinolcd\test\pain drain\libraries\lvgl\src\misc\lv_area.h **** typedef uint8_t lv_dir_t;
  90:c:\projects\paindrain\arduinolcd\test\pain drain\libraries\lvgl\src\misc\lv_area.h **** 
  91:c:\projects\paindrain\arduinolcd\test\pain drain\libraries\lvgl\src\misc\lv_area.h **** /**********************
  92:c:\projects\paindrain\arduinolcd\test\pain drain\libraries\lvgl\src\misc\lv_area.h ****  * GLOBAL PROTOTYPES
  93:c:\projects\paindrain\arduinolcd\test\pain drain\libraries\lvgl\src\misc\lv_area.h ****  **********************/
  94:c:\projects\paindrain\arduinolcd\test\pain drain\libraries\lvgl\src\misc\lv_area.h **** 
  95:c:\projects\paindrain\arduinolcd\test\pain drain\libraries\lvgl\src\misc\lv_area.h **** /**
  96:c:\projects\paindrain\arduinolcd\test\pain drain\libraries\lvgl\src\misc\lv_area.h ****  * Initialize an area
  97:c:\projects\paindrain\arduinolcd\test\pain drain\libraries\lvgl\src\misc\lv_area.h ****  * @param area_p pointer to an area
  98:c:\projects\paindrain\arduinolcd\test\pain drain\libraries\lvgl\src\misc\lv_area.h ****  * @param x1 left coordinate of the area
  99:c:\projects\paindrain\arduinolcd\test\pain drain\libraries\lvgl\src\misc\lv_area.h ****  * @param y1 top coordinate of the area
 100:c:\projects\paindrain\arduinolcd\test\pain drain\libraries\lvgl\src\misc\lv_area.h ****  * @param x2 right coordinate of the area
 101:c:\projects\paindrain\arduinolcd\test\pain drain\libraries\lvgl\src\misc\lv_area.h ****  * @param y2 bottom coordinate of the area
 102:c:\projects\paindrain\arduinolcd\test\pain drain\libraries\lvgl\src\misc\lv_area.h ****  */
 103:c:\projects\paindrain\arduinolcd\test\pain drain\libraries\lvgl\src\misc\lv_area.h **** void lv_area_set(lv_area_t * area_p, lv_coord_t x1, lv_coord_t y1, lv_coord_t x2, lv_coord_t y2);
 104:c:\projects\paindrain\arduinolcd\test\pain drain\libraries\lvgl\src\misc\lv_area.h **** 
 105:c:\projects\paindrain\arduinolcd\test\pain drain\libraries\lvgl\src\misc\lv_area.h **** /**
 106:c:\projects\paindrain\arduinolcd\test\pain drain\libraries\lvgl\src\misc\lv_area.h ****  * Copy an area
 107:c:\projects\paindrain\arduinolcd\test\pain drain\libraries\lvgl\src\misc\lv_area.h ****  * @param dest pointer to the destination area
 108:c:\projects\paindrain\arduinolcd\test\pain drain\libraries\lvgl\src\misc\lv_area.h ****  * @param src pointer to the source area
 109:c:\projects\paindrain\arduinolcd\test\pain drain\libraries\lvgl\src\misc\lv_area.h ****  */
 110:c:\projects\paindrain\arduinolcd\test\pain drain\libraries\lvgl\src\misc\lv_area.h **** inline static void lv_area_copy(lv_area_t * dest, const lv_area_t * src)
 111:c:\projects\paindrain\arduinolcd\test\pain drain\libraries\lvgl\src\misc\lv_area.h **** {
 112:c:\projects\paindrain\arduinolcd\test\pain drain\libraries\lvgl\src\misc\lv_area.h ****     dest->x1 = src->x1;
 113:c:\projects\paindrain\arduinolcd\test\pain drain\libraries\lvgl\src\misc\lv_area.h ****     dest->y1 = src->y1;
 114:c:\projects\paindrain\arduinolcd\test\pain drain\libraries\lvgl\src\misc\lv_area.h ****     dest->x2 = src->x2;
 115:c:\projects\paindrain\arduinolcd\test\pain drain\libraries\lvgl\src\misc\lv_area.h ****     dest->y2 = src->y2;
 116:c:\projects\paindrain\arduinolcd\test\pain drain\libraries\lvgl\src\misc\lv_area.h **** }
 117:c:\projects\paindrain\arduinolcd\test\pain drain\libraries\lvgl\src\misc\lv_area.h **** 
 118:c:\projects\paindrain\arduinolcd\test\pain drain\libraries\lvgl\src\misc\lv_area.h **** /**
 119:c:\projects\paindrain\arduinolcd\test\pain drain\libraries\lvgl\src\misc\lv_area.h ****  * Get the width of an area
 120:c:\projects\paindrain\arduinolcd\test\pain drain\libraries\lvgl\src\misc\lv_area.h ****  * @param area_p pointer to an area
 121:c:\projects\paindrain\arduinolcd\test\pain drain\libraries\lvgl\src\misc\lv_area.h ****  * @return the width of the area (if x1 == x2 -> width = 1)
 122:c:\projects\paindrain\arduinolcd\test\pain drain\libraries\lvgl\src\misc\lv_area.h ****  */
 123:c:\projects\paindrain\arduinolcd\test\pain drain\libraries\lvgl\src\misc\lv_area.h **** static inline lv_coord_t lv_area_get_width(const lv_area_t * area_p)
 124:c:\projects\paindrain\arduinolcd\test\pain drain\libraries\lvgl\src\misc\lv_area.h **** {
 125:c:\projects\paindrain\arduinolcd\test\pain drain\libraries\lvgl\src\misc\lv_area.h ****     return (lv_coord_t)(area_p->x2 - area_p->x1 + 1);
ARM GAS  C:\Users\haske\AppData\Local\Temp\ccmIjDGo.s 			page 29


 308              		.loc 4 125 0
 309 007e 0D9A     		ldr	r2, [sp, #52]
 310 0080 B2F90430 		ldrsh	r3, [r2, #4]
 311 0084 B2F90020 		ldrsh	r2, [r2]
 312 0088 9B1A     		subs	r3, r3, r2
 313 008a 0133     		adds	r3, r3, #1
 314 008c 1BB2     		sxth	r3, r3
 315              	.LVL31:
 316              	.LBE55:
 317              	.LBE54:
 318 008e 0FE0     		b	.L22
 319              	.LVL32:
 320              	.L21:
 321              	.LBB56:
 116:..\..\..\arduinoLCD\test\Pain Drain\libraries\lvgl\src\draw/lv_draw_label.c ****                         dsc->flag);
 322              		.loc 1 116 0
 323 0090 B5F91430 		ldrsh	r3, [r5, #20]
 324 0094 0292     		str	r2, [sp, #8]
 325              	.LVL33:
 326 0096 41F6FF72 		movw	r2, #8191
 327 009a 0192     		str	r2, [sp, #4]
 328 009c B5F91220 		ldrsh	r2, [r5, #18]
 329 00a0 0092     		str	r2, [sp]
 330 00a2 2A68     		ldr	r2, [r5]
 331 00a4 0999     		ldr	r1, [sp, #36]
 332 00a6 17A8     		add	r0, sp, #92
 333              	.LVL34:
 334 00a8 FFF7FEFF 		bl	lv_txt_get_size
 335              	.LVL35:
 118:..\..\..\arduinoLCD\test\Pain Drain\libraries\lvgl\src\draw/lv_draw_label.c ****     }
 336              		.loc 1 118 0
 337 00ac BDF95C30 		ldrsh	r3, [sp, #92]
 338              	.LVL36:
 339              	.L22:
 340              	.LBE56:
 341              	.LBB57:
 342              	.LBB58:
 343              		.file 5 "c:\\projects\\paindrain\\arduinolcd\\test\\pain drain\\libraries\\lvgl\\src\\font\\lv_fon
   1:c:\projects\paindrain\arduinolcd\test\pain drain\libraries\lvgl\src\font\lv_font.h **** /**
   2:c:\projects\paindrain\arduinolcd\test\pain drain\libraries\lvgl\src\font\lv_font.h ****  * @file lv_font.h
   3:c:\projects\paindrain\arduinolcd\test\pain drain\libraries\lvgl\src\font\lv_font.h ****  *
   4:c:\projects\paindrain\arduinolcd\test\pain drain\libraries\lvgl\src\font\lv_font.h ****  */
   5:c:\projects\paindrain\arduinolcd\test\pain drain\libraries\lvgl\src\font\lv_font.h **** 
   6:c:\projects\paindrain\arduinolcd\test\pain drain\libraries\lvgl\src\font\lv_font.h **** #ifndef LV_FONT_H
   7:c:\projects\paindrain\arduinolcd\test\pain drain\libraries\lvgl\src\font\lv_font.h **** #define LV_FONT_H
   8:c:\projects\paindrain\arduinolcd\test\pain drain\libraries\lvgl\src\font\lv_font.h **** 
   9:c:\projects\paindrain\arduinolcd\test\pain drain\libraries\lvgl\src\font\lv_font.h **** #ifdef __cplusplus
  10:c:\projects\paindrain\arduinolcd\test\pain drain\libraries\lvgl\src\font\lv_font.h **** extern "C" {
  11:c:\projects\paindrain\arduinolcd\test\pain drain\libraries\lvgl\src\font\lv_font.h **** #endif
  12:c:\projects\paindrain\arduinolcd\test\pain drain\libraries\lvgl\src\font\lv_font.h **** 
  13:c:\projects\paindrain\arduinolcd\test\pain drain\libraries\lvgl\src\font\lv_font.h **** /*********************
  14:c:\projects\paindrain\arduinolcd\test\pain drain\libraries\lvgl\src\font\lv_font.h ****  *      INCLUDES
  15:c:\projects\paindrain\arduinolcd\test\pain drain\libraries\lvgl\src\font\lv_font.h ****  *********************/
  16:c:\projects\paindrain\arduinolcd\test\pain drain\libraries\lvgl\src\font\lv_font.h **** #include "../lv_conf_internal.h"
  17:c:\projects\paindrain\arduinolcd\test\pain drain\libraries\lvgl\src\font\lv_font.h **** #include <stdint.h>
  18:c:\projects\paindrain\arduinolcd\test\pain drain\libraries\lvgl\src\font\lv_font.h **** #include <stddef.h>
  19:c:\projects\paindrain\arduinolcd\test\pain drain\libraries\lvgl\src\font\lv_font.h **** #include <stdbool.h>
ARM GAS  C:\Users\haske\AppData\Local\Temp\ccmIjDGo.s 			page 30


  20:c:\projects\paindrain\arduinolcd\test\pain drain\libraries\lvgl\src\font\lv_font.h **** 
  21:c:\projects\paindrain\arduinolcd\test\pain drain\libraries\lvgl\src\font\lv_font.h **** #include "lv_symbol_def.h"
  22:c:\projects\paindrain\arduinolcd\test\pain drain\libraries\lvgl\src\font\lv_font.h **** #include "../misc/lv_area.h"
  23:c:\projects\paindrain\arduinolcd\test\pain drain\libraries\lvgl\src\font\lv_font.h **** 
  24:c:\projects\paindrain\arduinolcd\test\pain drain\libraries\lvgl\src\font\lv_font.h **** /*********************
  25:c:\projects\paindrain\arduinolcd\test\pain drain\libraries\lvgl\src\font\lv_font.h ****  *      DEFINES
  26:c:\projects\paindrain\arduinolcd\test\pain drain\libraries\lvgl\src\font\lv_font.h ****  *********************/
  27:c:\projects\paindrain\arduinolcd\test\pain drain\libraries\lvgl\src\font\lv_font.h **** 
  28:c:\projects\paindrain\arduinolcd\test\pain drain\libraries\lvgl\src\font\lv_font.h **** /* imgfont identifier */
  29:c:\projects\paindrain\arduinolcd\test\pain drain\libraries\lvgl\src\font\lv_font.h **** #define LV_IMGFONT_BPP 9
  30:c:\projects\paindrain\arduinolcd\test\pain drain\libraries\lvgl\src\font\lv_font.h **** 
  31:c:\projects\paindrain\arduinolcd\test\pain drain\libraries\lvgl\src\font\lv_font.h **** /**********************
  32:c:\projects\paindrain\arduinolcd\test\pain drain\libraries\lvgl\src\font\lv_font.h ****  *      TYPEDEFS
  33:c:\projects\paindrain\arduinolcd\test\pain drain\libraries\lvgl\src\font\lv_font.h ****  **********************/
  34:c:\projects\paindrain\arduinolcd\test\pain drain\libraries\lvgl\src\font\lv_font.h **** 
  35:c:\projects\paindrain\arduinolcd\test\pain drain\libraries\lvgl\src\font\lv_font.h **** /*------------------
  36:c:\projects\paindrain\arduinolcd\test\pain drain\libraries\lvgl\src\font\lv_font.h ****  * General types
  37:c:\projects\paindrain\arduinolcd\test\pain drain\libraries\lvgl\src\font\lv_font.h ****  *-----------------*/
  38:c:\projects\paindrain\arduinolcd\test\pain drain\libraries\lvgl\src\font\lv_font.h **** 
  39:c:\projects\paindrain\arduinolcd\test\pain drain\libraries\lvgl\src\font\lv_font.h **** struct _lv_font_t;
  40:c:\projects\paindrain\arduinolcd\test\pain drain\libraries\lvgl\src\font\lv_font.h **** /** Describes the properties of a glyph.*/
  41:c:\projects\paindrain\arduinolcd\test\pain drain\libraries\lvgl\src\font\lv_font.h **** typedef struct {
  42:c:\projects\paindrain\arduinolcd\test\pain drain\libraries\lvgl\src\font\lv_font.h ****     const struct _lv_font_t *
  43:c:\projects\paindrain\arduinolcd\test\pain drain\libraries\lvgl\src\font\lv_font.h ****         resolved_font; /**< Pointer to a font where the glyph was actually found after handling fal
  44:c:\projects\paindrain\arduinolcd\test\pain drain\libraries\lvgl\src\font\lv_font.h ****     uint16_t adv_w; /**< The glyph needs this space. Draw the next glyph after this width.*/
  45:c:\projects\paindrain\arduinolcd\test\pain drain\libraries\lvgl\src\font\lv_font.h ****     uint16_t box_w; /**< Width of the glyph's bounding box*/
  46:c:\projects\paindrain\arduinolcd\test\pain drain\libraries\lvgl\src\font\lv_font.h ****     uint16_t box_h; /**< Height of the glyph's bounding box*/
  47:c:\projects\paindrain\arduinolcd\test\pain drain\libraries\lvgl\src\font\lv_font.h ****     int16_t ofs_x;  /**< x offset of the bounding box*/
  48:c:\projects\paindrain\arduinolcd\test\pain drain\libraries\lvgl\src\font\lv_font.h ****     int16_t ofs_y;  /**< y offset of the bounding box*/
  49:c:\projects\paindrain\arduinolcd\test\pain drain\libraries\lvgl\src\font\lv_font.h ****     uint8_t bpp: 4;  /**< Bit-per-pixel: 1, 2, 4, 8*/
  50:c:\projects\paindrain\arduinolcd\test\pain drain\libraries\lvgl\src\font\lv_font.h ****     uint8_t is_placeholder: 1; /** Glyph is missing. But placeholder will still be displayed */
  51:c:\projects\paindrain\arduinolcd\test\pain drain\libraries\lvgl\src\font\lv_font.h **** } lv_font_glyph_dsc_t;
  52:c:\projects\paindrain\arduinolcd\test\pain drain\libraries\lvgl\src\font\lv_font.h **** 
  53:c:\projects\paindrain\arduinolcd\test\pain drain\libraries\lvgl\src\font\lv_font.h **** /** The bitmaps might be upscaled by 3 to achieve subpixel rendering.*/
  54:c:\projects\paindrain\arduinolcd\test\pain drain\libraries\lvgl\src\font\lv_font.h **** enum {
  55:c:\projects\paindrain\arduinolcd\test\pain drain\libraries\lvgl\src\font\lv_font.h ****     LV_FONT_SUBPX_NONE,
  56:c:\projects\paindrain\arduinolcd\test\pain drain\libraries\lvgl\src\font\lv_font.h ****     LV_FONT_SUBPX_HOR,
  57:c:\projects\paindrain\arduinolcd\test\pain drain\libraries\lvgl\src\font\lv_font.h ****     LV_FONT_SUBPX_VER,
  58:c:\projects\paindrain\arduinolcd\test\pain drain\libraries\lvgl\src\font\lv_font.h ****     LV_FONT_SUBPX_BOTH,
  59:c:\projects\paindrain\arduinolcd\test\pain drain\libraries\lvgl\src\font\lv_font.h **** };
  60:c:\projects\paindrain\arduinolcd\test\pain drain\libraries\lvgl\src\font\lv_font.h **** 
  61:c:\projects\paindrain\arduinolcd\test\pain drain\libraries\lvgl\src\font\lv_font.h **** typedef uint8_t lv_font_subpx_t;
  62:c:\projects\paindrain\arduinolcd\test\pain drain\libraries\lvgl\src\font\lv_font.h **** 
  63:c:\projects\paindrain\arduinolcd\test\pain drain\libraries\lvgl\src\font\lv_font.h **** /** Describe the properties of a font*/
  64:c:\projects\paindrain\arduinolcd\test\pain drain\libraries\lvgl\src\font\lv_font.h **** typedef struct _lv_font_t {
  65:c:\projects\paindrain\arduinolcd\test\pain drain\libraries\lvgl\src\font\lv_font.h ****     /** Get a glyph's descriptor from a font*/
  66:c:\projects\paindrain\arduinolcd\test\pain drain\libraries\lvgl\src\font\lv_font.h ****     bool (*get_glyph_dsc)(const struct _lv_font_t *, lv_font_glyph_dsc_t *, uint32_t letter, uint32
  67:c:\projects\paindrain\arduinolcd\test\pain drain\libraries\lvgl\src\font\lv_font.h **** 
  68:c:\projects\paindrain\arduinolcd\test\pain drain\libraries\lvgl\src\font\lv_font.h ****     /** Get a glyph's bitmap from a font*/
  69:c:\projects\paindrain\arduinolcd\test\pain drain\libraries\lvgl\src\font\lv_font.h ****     const uint8_t * (*get_glyph_bitmap)(const struct _lv_font_t *, uint32_t);
  70:c:\projects\paindrain\arduinolcd\test\pain drain\libraries\lvgl\src\font\lv_font.h **** 
  71:c:\projects\paindrain\arduinolcd\test\pain drain\libraries\lvgl\src\font\lv_font.h ****     /*Pointer to the font in a font pack (must have the same line height)*/
  72:c:\projects\paindrain\arduinolcd\test\pain drain\libraries\lvgl\src\font\lv_font.h ****     lv_coord_t line_height;         /**< The real line height where any text fits*/
  73:c:\projects\paindrain\arduinolcd\test\pain drain\libraries\lvgl\src\font\lv_font.h ****     lv_coord_t base_line;           /**< Base line measured from the top of the line_height*/
  74:c:\projects\paindrain\arduinolcd\test\pain drain\libraries\lvgl\src\font\lv_font.h ****     uint8_t subpx  : 2;             /**< An element of `lv_font_subpx_t`*/
  75:c:\projects\paindrain\arduinolcd\test\pain drain\libraries\lvgl\src\font\lv_font.h **** 
  76:c:\projects\paindrain\arduinolcd\test\pain drain\libraries\lvgl\src\font\lv_font.h ****     int8_t underline_position;      /**< Distance between the top of the underline and base line (<
ARM GAS  C:\Users\haske\AppData\Local\Temp\ccmIjDGo.s 			page 31


  77:c:\projects\paindrain\arduinolcd\test\pain drain\libraries\lvgl\src\font\lv_font.h ****     int8_t underline_thickness;     /**< Thickness of the underline*/
  78:c:\projects\paindrain\arduinolcd\test\pain drain\libraries\lvgl\src\font\lv_font.h **** 
  79:c:\projects\paindrain\arduinolcd\test\pain drain\libraries\lvgl\src\font\lv_font.h ****     const void * dsc;               /**< Store implementation specific or run_time data or caching 
  80:c:\projects\paindrain\arduinolcd\test\pain drain\libraries\lvgl\src\font\lv_font.h ****     const struct _lv_font_t * fallback;   /**< Fallback font for missing glyph. Resolved recursivel
  81:c:\projects\paindrain\arduinolcd\test\pain drain\libraries\lvgl\src\font\lv_font.h **** #if LV_USE_USER_DATA
  82:c:\projects\paindrain\arduinolcd\test\pain drain\libraries\lvgl\src\font\lv_font.h ****     void * user_data;               /**< Custom user data for font.*/
  83:c:\projects\paindrain\arduinolcd\test\pain drain\libraries\lvgl\src\font\lv_font.h **** #endif
  84:c:\projects\paindrain\arduinolcd\test\pain drain\libraries\lvgl\src\font\lv_font.h **** } lv_font_t;
  85:c:\projects\paindrain\arduinolcd\test\pain drain\libraries\lvgl\src\font\lv_font.h **** 
  86:c:\projects\paindrain\arduinolcd\test\pain drain\libraries\lvgl\src\font\lv_font.h **** /**********************
  87:c:\projects\paindrain\arduinolcd\test\pain drain\libraries\lvgl\src\font\lv_font.h ****  * GLOBAL PROTOTYPES
  88:c:\projects\paindrain\arduinolcd\test\pain drain\libraries\lvgl\src\font\lv_font.h ****  **********************/
  89:c:\projects\paindrain\arduinolcd\test\pain drain\libraries\lvgl\src\font\lv_font.h **** 
  90:c:\projects\paindrain\arduinolcd\test\pain drain\libraries\lvgl\src\font\lv_font.h **** /**
  91:c:\projects\paindrain\arduinolcd\test\pain drain\libraries\lvgl\src\font\lv_font.h ****  * Return with the bitmap of a font.
  92:c:\projects\paindrain\arduinolcd\test\pain drain\libraries\lvgl\src\font\lv_font.h ****  * @param font_p pointer to a font
  93:c:\projects\paindrain\arduinolcd\test\pain drain\libraries\lvgl\src\font\lv_font.h ****  * @param letter a UNICODE character code
  94:c:\projects\paindrain\arduinolcd\test\pain drain\libraries\lvgl\src\font\lv_font.h ****  * @return pointer to the bitmap of the letter
  95:c:\projects\paindrain\arduinolcd\test\pain drain\libraries\lvgl\src\font\lv_font.h ****  */
  96:c:\projects\paindrain\arduinolcd\test\pain drain\libraries\lvgl\src\font\lv_font.h **** const uint8_t * lv_font_get_glyph_bitmap(const lv_font_t * font_p, uint32_t letter);
  97:c:\projects\paindrain\arduinolcd\test\pain drain\libraries\lvgl\src\font\lv_font.h **** 
  98:c:\projects\paindrain\arduinolcd\test\pain drain\libraries\lvgl\src\font\lv_font.h **** /**
  99:c:\projects\paindrain\arduinolcd\test\pain drain\libraries\lvgl\src\font\lv_font.h ****  * Get the descriptor of a glyph
 100:c:\projects\paindrain\arduinolcd\test\pain drain\libraries\lvgl\src\font\lv_font.h ****  * @param font_p pointer to font
 101:c:\projects\paindrain\arduinolcd\test\pain drain\libraries\lvgl\src\font\lv_font.h ****  * @param dsc_out store the result descriptor here
 102:c:\projects\paindrain\arduinolcd\test\pain drain\libraries\lvgl\src\font\lv_font.h ****  * @param letter a UNICODE letter code
 103:c:\projects\paindrain\arduinolcd\test\pain drain\libraries\lvgl\src\font\lv_font.h ****  * @param letter_next the next letter after `letter`. Used for kerning
 104:c:\projects\paindrain\arduinolcd\test\pain drain\libraries\lvgl\src\font\lv_font.h ****  * @return true: descriptor is successfully loaded into `dsc_out`.
 105:c:\projects\paindrain\arduinolcd\test\pain drain\libraries\lvgl\src\font\lv_font.h ****  *         false: the letter was not found, no data is loaded to `dsc_out`
 106:c:\projects\paindrain\arduinolcd\test\pain drain\libraries\lvgl\src\font\lv_font.h ****  */
 107:c:\projects\paindrain\arduinolcd\test\pain drain\libraries\lvgl\src\font\lv_font.h **** bool lv_font_get_glyph_dsc(const lv_font_t * font_p, lv_font_glyph_dsc_t * dsc_out, uint32_t letter
 108:c:\projects\paindrain\arduinolcd\test\pain drain\libraries\lvgl\src\font\lv_font.h ****                            uint32_t letter_next);
 109:c:\projects\paindrain\arduinolcd\test\pain drain\libraries\lvgl\src\font\lv_font.h **** 
 110:c:\projects\paindrain\arduinolcd\test\pain drain\libraries\lvgl\src\font\lv_font.h **** /**
 111:c:\projects\paindrain\arduinolcd\test\pain drain\libraries\lvgl\src\font\lv_font.h ****  * Get the width of a glyph with kerning
 112:c:\projects\paindrain\arduinolcd\test\pain drain\libraries\lvgl\src\font\lv_font.h ****  * @param font pointer to a font
 113:c:\projects\paindrain\arduinolcd\test\pain drain\libraries\lvgl\src\font\lv_font.h ****  * @param letter a UNICODE letter
 114:c:\projects\paindrain\arduinolcd\test\pain drain\libraries\lvgl\src\font\lv_font.h ****  * @param letter_next the next letter after `letter`. Used for kerning
 115:c:\projects\paindrain\arduinolcd\test\pain drain\libraries\lvgl\src\font\lv_font.h ****  * @return the width of the glyph
 116:c:\projects\paindrain\arduinolcd\test\pain drain\libraries\lvgl\src\font\lv_font.h ****  */
 117:c:\projects\paindrain\arduinolcd\test\pain drain\libraries\lvgl\src\font\lv_font.h **** uint16_t lv_font_get_glyph_width(const lv_font_t * font, uint32_t letter, uint32_t letter_next);
 118:c:\projects\paindrain\arduinolcd\test\pain drain\libraries\lvgl\src\font\lv_font.h **** 
 119:c:\projects\paindrain\arduinolcd\test\pain drain\libraries\lvgl\src\font\lv_font.h **** /**
 120:c:\projects\paindrain\arduinolcd\test\pain drain\libraries\lvgl\src\font\lv_font.h ****  * Get the line height of a font. All characters fit into this height
 121:c:\projects\paindrain\arduinolcd\test\pain drain\libraries\lvgl\src\font\lv_font.h ****  * @param font_p pointer to a font
 122:c:\projects\paindrain\arduinolcd\test\pain drain\libraries\lvgl\src\font\lv_font.h ****  * @return the height of a font
 123:c:\projects\paindrain\arduinolcd\test\pain drain\libraries\lvgl\src\font\lv_font.h ****  */
 124:c:\projects\paindrain\arduinolcd\test\pain drain\libraries\lvgl\src\font\lv_font.h **** static inline lv_coord_t lv_font_get_line_height(const lv_font_t * font_p)
 125:c:\projects\paindrain\arduinolcd\test\pain drain\libraries\lvgl\src\font\lv_font.h **** {
 126:c:\projects\paindrain\arduinolcd\test\pain drain\libraries\lvgl\src\font\lv_font.h ****     return font_p->line_height;
 344              		.loc 5 126 0
 345 00b0 069A     		ldr	r2, [sp, #24]
 346 00b2 B2F90860 		ldrsh	r6, [r2, #8]
 347              	.LVL37:
 348              	.LBE58:
 349              	.LBE57:
 122:..\..\..\arduinoLCD\test\Pain Drain\libraries\lvgl\src\draw/lv_draw_label.c **** 
ARM GAS  C:\Users\haske\AppData\Local\Temp\ccmIjDGo.s 			page 32


 350              		.loc 1 122 0
 351 00b6 B5F91220 		ldrsh	r2, [r5, #18]
 352 00ba B218     		adds	r2, r6, r2
 353 00bc 0E92     		str	r2, [sp, #56]
 354              	.LVL38:
 127:..\..\..\arduinoLCD\test\Pain Drain\libraries\lvgl\src\draw/lv_draw_label.c ****     pos.y = coords->y1;
 355              		.loc 1 127 0
 356 00be 0D98     		ldr	r0, [sp, #52]
 357 00c0 B0F90020 		ldrsh	r2, [r0]
 358              	.LVL39:
 359 00c4 ADF8AC20 		strh	r2, [sp, #172]	@ movhi
 128:..\..\..\arduinoLCD\test\Pain Drain\libraries\lvgl\src\draw/lv_draw_label.c **** 
 360              		.loc 1 128 0
 361 00c8 B0F90220 		ldrsh	r2, [r0, #2]
 362              	.LVL40:
 132:..\..\..\arduinoLCD\test\Pain Drain\libraries\lvgl\src\draw/lv_draw_label.c ****     y_ofs = dsc->ofs_y;
 363              		.loc 1 132 0
 364 00cc B5F91610 		ldrsh	r1, [r5, #22]
 365 00d0 1091     		str	r1, [sp, #64]
 366              	.LVL41:
 133:..\..\..\arduinoLCD\test\Pain Drain\libraries\lvgl\src\draw/lv_draw_label.c ****     pos.y += y_ofs;
 367              		.loc 1 133 0
 368 00d2 B5F91810 		ldrsh	r1, [r5, #24]
 369              	.LVL42:
 134:..\..\..\arduinoLCD\test\Pain Drain\libraries\lvgl\src\draw/lv_draw_label.c **** 
 370              		.loc 1 134 0
 371 00d6 0A44     		add	r2, r2, r1
 372 00d8 ADF8AE20 		strh	r2, [sp, #174]	@ movhi
 373              	.LVL43:
 140:..\..\..\arduinoLCD\test\Pain Drain\libraries\lvgl\src\draw/lv_draw_label.c ****         /*If the label changed too much recalculate the hint.*/
 374              		.loc 1 140 0
 375 00dc ACB1     		cbz	r4, .L57
 140:..\..\..\arduinoLCD\test\Pain Drain\libraries\lvgl\src\draw/lv_draw_label.c ****         /*If the label changed too much recalculate the hint.*/
 376              		.loc 1 140 0 is_stmt 0 discriminator 1
 377 00de B9B9     		cbnz	r1, .L58
 140:..\..\..\arduinoLCD\test\Pain Drain\libraries\lvgl\src\draw/lv_draw_label.c ****         /*If the label changed too much recalculate the hint.*/
 378              		.loc 1 140 0 discriminator 2
 379 00e0 B0F90220 		ldrsh	r2, [r0, #2]
 380 00e4 002A     		cmp	r2, #0
 381 00e6 16DA     		bge	.L59
 142:..\..\..\arduinoLCD\test\Pain Drain\libraries\lvgl\src\draw/lv_draw_label.c ****             hint->line_start = -1;
 382              		.loc 1 142 0 is_stmt 1
 383 00e8 A168     		ldr	r1, [r4, #8]
 384              	.LVL44:
 385 00ea 891A     		subs	r1, r1, r2
 386 00ec 81EAE172 		eor	r2, r1, r1, asr #31
 387 00f0 A2EBE172 		sub	r2, r2, r1, asr #31
 388 00f4 0E99     		ldr	r1, [sp, #56]
 389 00f6 C1F50071 		rsb	r1, r1, #512
 390 00fa B2EB410F 		cmp	r2, r1, lsl #1
 391 00fe 02DD     		ble	.L24
 143:..\..\..\arduinoLCD\test\Pain Drain\libraries\lvgl\src\draw/lv_draw_label.c ****         }
 392              		.loc 1 143 0
 393 0100 4FF0FF32 		mov	r2, #-1
 394 0104 2260     		str	r2, [r4]
 395              	.LVL45:
 396              	.L24:
ARM GAS  C:\Users\haske\AppData\Local\Temp\ccmIjDGo.s 			page 33


 145:..\..\..\arduinoLCD\test\Pain Drain\libraries\lvgl\src\draw/lv_draw_label.c ****     }
 397              		.loc 1 145 0
 398 0106 2768     		ldr	r7, [r4]
 399              	.LVL46:
 400 0108 07E0     		b	.L23
 401              	.LVL47:
 402              	.L57:
 137:..\..\..\arduinoLCD\test\Pain Drain\libraries\lvgl\src\draw/lv_draw_label.c **** 
 403              		.loc 1 137 0
 404 010a 4FF0FF37 		mov	r7, #-1
 405 010e 04E0     		b	.L23
 406              	.L58:
 407 0110 4FF0FF37 		mov	r7, #-1
 408 0114 01E0     		b	.L23
 409              	.L59:
 410 0116 4FF0FF37 		mov	r7, #-1
 411              	.LVL48:
 412              	.L23:
 149:..\..\..\arduinoLCD\test\Pain Drain\libraries\lvgl\src\draw/lv_draw_label.c ****         line_start = last_line_start;
 413              		.loc 1 149 0
 414 011a 44B1     		cbz	r4, .L60
 149:..\..\..\arduinoLCD\test\Pain Drain\libraries\lvgl\src\draw/lv_draw_label.c ****         line_start = last_line_start;
 415              		.loc 1 149 0 is_stmt 0 discriminator 1
 416 011c 002F     		cmp	r7, #0
 417 011e 08DB     		blt	.L61
 418              	.LVL49:
 151:..\..\..\arduinoLCD\test\Pain Drain\libraries\lvgl\src\draw/lv_draw_label.c ****     }
 419              		.loc 1 151 0 is_stmt 1
 420 0120 6168     		ldr	r1, [r4, #4]
 421 0122 BDF8AE20 		ldrh	r2, [sp, #174]
 422 0126 0A44     		add	r2, r2, r1
 423 0128 ADF8AE20 		strh	r2, [sp, #174]	@ movhi
 424 012c 02E0     		b	.L25
 425              	.LVL50:
 426              	.L60:
 136:..\..\..\arduinoLCD\test\Pain Drain\libraries\lvgl\src\draw/lv_draw_label.c ****     int32_t last_line_start = -1;
 427              		.loc 1 136 0
 428 012e 0027     		movs	r7, #0
 429              	.LVL51:
 430 0130 00E0     		b	.L25
 431              	.LVL52:
 432              	.L61:
 433 0132 0027     		movs	r7, #0
 434              	.LVL53:
 435              	.L25:
 154:..\..\..\arduinoLCD\test\Pain Drain\libraries\lvgl\src\draw/lv_draw_label.c **** 
 436              		.loc 1 154 0
 437 0134 1BB2     		sxth	r3, r3
 438              	.LVL54:
 439 0136 1946     		mov	r1, r3
 440 0138 0A93     		str	r3, [sp, #40]
 441 013a B5F91420 		ldrsh	r2, [r5, #20]
 442 013e 6B7F     		ldrb	r3, [r5, #29]	@ zero_extendqisi2
 443 0140 0193     		str	r3, [sp, #4]
 444 0142 0023     		movs	r3, #0
 445 0144 0093     		str	r3, [sp]
 446 0146 0B46     		mov	r3, r1
ARM GAS  C:\Users\haske\AppData\Local\Temp\ccmIjDGo.s 			page 34


 447 0148 0699     		ldr	r1, [sp, #24]
 448 014a 0998     		ldr	r0, [sp, #36]
 449 014c 3844     		add	r0, r0, r7
 450 014e FFF7FEFF 		bl	_lv_txt_get_next_line
 451              	.LVL55:
 452 0152 07EB000B 		add	fp, r7, r0
 453              	.LVL56:
 454 0156 DDF83890 		ldr	r9, [sp, #56]
 455 015a DDF82080 		ldr	r8, [sp, #32]
 456              	.LVL57:
 457 015e DDF824A0 		ldr	r10, [sp, #36]
 157:..\..\..\arduinoLCD\test\Pain Drain\libraries\lvgl\src\draw/lv_draw_label.c ****         /*Go to next line*/
 458              		.loc 1 157 0
 459 0162 2CE0     		b	.L26
 460              	.L28:
 461              	.LVL58:
 160:..\..\..\arduinoLCD\test\Pain Drain\libraries\lvgl\src\draw/lv_draw_label.c ****         pos.y += line_height;
 462              		.loc 1 160 0
 463 0164 0AEB0B07 		add	r7, r10, fp
 464 0168 B5F91420 		ldrsh	r2, [r5, #20]
 465 016c 6B7F     		ldrb	r3, [r5, #29]	@ zero_extendqisi2
 466 016e 0193     		str	r3, [sp, #4]
 467 0170 0023     		movs	r3, #0
 468 0172 0093     		str	r3, [sp]
 469 0174 0A9B     		ldr	r3, [sp, #40]
 470 0176 0699     		ldr	r1, [sp, #24]
 471 0178 3846     		mov	r0, r7
 472 017a FFF7FEFF 		bl	_lv_txt_get_next_line
 473              	.LVL59:
 474 017e 5844     		add	r0, r0, fp
 475              	.LVL60:
 161:..\..\..\arduinoLCD\test\Pain Drain\libraries\lvgl\src\draw/lv_draw_label.c **** 
 476              		.loc 1 161 0
 477 0180 BDF8AE30 		ldrh	r3, [sp, #174]
 478 0184 4B44     		add	r3, r3, r9
 479 0186 1BB2     		sxth	r3, r3
 480 0188 ADF8AE30 		strh	r3, [sp, #174]	@ movhi
 164:..\..\..\arduinoLCD\test\Pain Drain\libraries\lvgl\src\draw/lv_draw_label.c ****             hint->line_start = line_start;
 481              		.loc 1 164 0
 482 018c 8CB1     		cbz	r4, .L27
 164:..\..\..\arduinoLCD\test\Pain Drain\libraries\lvgl\src\draw/lv_draw_label.c ****             hint->line_start = line_start;
 483              		.loc 1 164 0 is_stmt 0 discriminator 1
 484 018e 13F5806F 		cmn	r3, #1024
 485 0192 0EDB     		blt	.L27
 164:..\..\..\arduinoLCD\test\Pain Drain\libraries\lvgl\src\draw/lv_draw_label.c ****             hint->line_start = line_start;
 486              		.loc 1 164 0 discriminator 2
 487 0194 2368     		ldr	r3, [r4]
 488 0196 002B     		cmp	r3, #0
 489 0198 0BDA     		bge	.L27
 165:..\..\..\arduinoLCD\test\Pain Drain\libraries\lvgl\src\draw/lv_draw_label.c ****             hint->y          = pos.y - coords->y1;
 490              		.loc 1 165 0 is_stmt 1
 491 019a C4F800B0 		str	fp, [r4]
 166:..\..\..\arduinoLCD\test\Pain Drain\libraries\lvgl\src\draw/lv_draw_label.c ****             hint->coord_y    = coords->y1;
 492              		.loc 1 166 0
 493 019e BDF9AE30 		ldrsh	r3, [sp, #174]
 494 01a2 0D99     		ldr	r1, [sp, #52]
 495 01a4 B1F90220 		ldrsh	r2, [r1, #2]
ARM GAS  C:\Users\haske\AppData\Local\Temp\ccmIjDGo.s 			page 35


 496 01a8 9B1A     		subs	r3, r3, r2
 497 01aa 6360     		str	r3, [r4, #4]
 167:..\..\..\arduinoLCD\test\Pain Drain\libraries\lvgl\src\draw/lv_draw_label.c ****         }
 498              		.loc 1 167 0
 499 01ac B1F90230 		ldrsh	r3, [r1, #2]
 500 01b0 A360     		str	r3, [r4, #8]
 501              	.L27:
 170:..\..\..\arduinoLCD\test\Pain Drain\libraries\lvgl\src\draw/lv_draw_label.c ****     }
 502              		.loc 1 170 0
 503 01b2 3B78     		ldrb	r3, [r7]	@ zero_extendqisi2
 159:..\..\..\arduinoLCD\test\Pain Drain\libraries\lvgl\src\draw/lv_draw_label.c ****         line_end += _lv_txt_get_next_line(&txt[line_start], font, dsc->letter_space, w, NULL, dsc->
 504              		.loc 1 159 0
 505 01b4 5F46     		mov	r7, fp
 170:..\..\..\arduinoLCD\test\Pain Drain\libraries\lvgl\src\draw/lv_draw_label.c ****     }
 506              		.loc 1 170 0
 507 01b6 002B     		cmp	r3, #0
 508 01b8 00F00282 		beq	.L18
 509              	.LVL61:
 160:..\..\..\arduinoLCD\test\Pain Drain\libraries\lvgl\src\draw/lv_draw_label.c ****         pos.y += line_height;
 510              		.loc 1 160 0
 511 01bc 8346     		mov	fp, r0
 512              	.LVL62:
 513              	.L26:
 157:..\..\..\arduinoLCD\test\Pain Drain\libraries\lvgl\src\draw/lv_draw_label.c ****         /*Go to next line*/
 514              		.loc 1 157 0
 515 01be BDF9AE30 		ldrsh	r3, [sp, #174]
 516 01c2 3344     		add	r3, r3, r6
 517 01c4 D8F80820 		ldr	r2, [r8, #8]
 518 01c8 B2F90220 		ldrsh	r2, [r2, #2]
 519 01cc 9342     		cmp	r3, r2
 520 01ce C9DB     		blt	.L28
 174:..\..\..\arduinoLCD\test\Pain Drain\libraries\lvgl\src\draw/lv_draw_label.c ****         line_width = lv_txt_get_width(&txt[line_start], line_end - line_start, font, dsc->letter_sp
 521              		.loc 1 174 0
 522 01d0 0C9B     		ldr	r3, [sp, #48]
 523 01d2 022B     		cmp	r3, #2
 524 01d4 1CD1     		bne	.L29
 175:..\..\..\arduinoLCD\test\Pain Drain\libraries\lvgl\src\draw/lv_draw_label.c **** 
 525              		.loc 1 175 0
 526 01d6 B5F91430 		ldrsh	r3, [r5, #20]
 527 01da 6A7F     		ldrb	r2, [r5, #29]	@ zero_extendqisi2
 528 01dc 0092     		str	r2, [sp]
 529 01de 069A     		ldr	r2, [sp, #24]
 530 01e0 C7EB0B01 		rsb	r1, r7, fp
 531 01e4 0998     		ldr	r0, [sp, #36]
 532 01e6 3844     		add	r0, r0, r7
 533 01e8 FFF7FEFF 		bl	lv_txt_get_width
 534              	.LVL63:
 535              	.LBB59:
 536              	.LBB60:
 537              		.loc 4 125 0
 538 01ec 0D9A     		ldr	r2, [sp, #52]
 539 01ee B2F90430 		ldrsh	r3, [r2, #4]
 540 01f2 B2F90020 		ldrsh	r2, [r2]
 541 01f6 9B1A     		subs	r3, r3, r2
 542 01f8 0133     		adds	r3, r3, #1
 543 01fa 1BB2     		sxth	r3, r3
 544              	.LVL64:
ARM GAS  C:\Users\haske\AppData\Local\Temp\ccmIjDGo.s 			page 36


 545              	.LBE60:
 546              	.LBE59:
 177:..\..\..\arduinoLCD\test\Pain Drain\libraries\lvgl\src\draw/lv_draw_label.c **** 
 547              		.loc 1 177 0
 548 01fc 181A     		subs	r0, r3, r0
 549              	.LVL65:
 550 01fe 00EBD070 		add	r0, r0, r0, lsr #31
 551 0202 BDF8AC30 		ldrh	r3, [sp, #172]
 552 0206 03EB6000 		add	r0, r3, r0, asr #1
 553 020a ADF8AC00 		strh	r0, [sp, #172]	@ movhi
 554 020e 1BE0     		b	.L30
 555              	.LVL66:
 556              	.L29:
 181:..\..\..\arduinoLCD\test\Pain Drain\libraries\lvgl\src\draw/lv_draw_label.c ****         line_width = lv_txt_get_width(&txt[line_start], line_end - line_start, font, dsc->letter_sp
 557              		.loc 1 181 0
 558 0210 0C9B     		ldr	r3, [sp, #48]
 559 0212 032B     		cmp	r3, #3
 560 0214 18D1     		bne	.L30
 182:..\..\..\arduinoLCD\test\Pain Drain\libraries\lvgl\src\draw/lv_draw_label.c ****         pos.x += lv_area_get_width(coords) - line_width;
 561              		.loc 1 182 0
 562 0216 B5F91430 		ldrsh	r3, [r5, #20]
 563 021a 6A7F     		ldrb	r2, [r5, #29]	@ zero_extendqisi2
 564 021c 0092     		str	r2, [sp]
 565 021e 069A     		ldr	r2, [sp, #24]
 566 0220 C7EB0B01 		rsb	r1, r7, fp
 567 0224 0998     		ldr	r0, [sp, #36]
 568 0226 3844     		add	r0, r0, r7
 569 0228 FFF7FEFF 		bl	lv_txt_get_width
 570              	.LVL67:
 571              	.LBB61:
 572              	.LBB62:
 573              		.loc 4 125 0
 574 022c 0D9A     		ldr	r2, [sp, #52]
 575 022e B2F90430 		ldrsh	r3, [r2, #4]
 576 0232 B2F90020 		ldrsh	r2, [r2]
 577 0236 9B1A     		subs	r3, r3, r2
 578 0238 0133     		adds	r3, r3, #1
 579 023a 1BB2     		sxth	r3, r3
 580              	.LVL68:
 581              	.LBE62:
 582              	.LBE61:
 183:..\..\..\arduinoLCD\test\Pain Drain\libraries\lvgl\src\draw/lv_draw_label.c ****     }
 583              		.loc 1 183 0
 584 023c 181A     		subs	r0, r3, r0
 585              	.LVL69:
 586 023e BDF8AC20 		ldrh	r2, [sp, #172]
 587 0242 8318     		adds	r3, r0, r2
 588 0244 ADF8AC30 		strh	r3, [sp, #172]	@ movhi
 589              	.L30:
 185:..\..\..\arduinoLCD\test\Pain Drain\libraries\lvgl\src\draw/lv_draw_label.c ****     uint32_t sel_end = dsc->sel_end;
 590              		.loc 1 185 0
 591 0248 D5F804A0 		ldr	r10, [r5, #4]
 592              	.LVL70:
 186:..\..\..\arduinoLCD\test\Pain Drain\libraries\lvgl\src\draw/lv_draw_label.c ****     if(sel_start > sel_end) {
 593              		.loc 1 186 0
 594 024c AE68     		ldr	r6, [r5, #8]
 595              	.LVL71:
ARM GAS  C:\Users\haske\AppData\Local\Temp\ccmIjDGo.s 			page 37


 187:..\..\..\arduinoLCD\test\Pain Drain\libraries\lvgl\src\draw/lv_draw_label.c ****         uint32_t tmp = sel_start;
 596              		.loc 1 187 0
 597 024e B245     		cmp	r10, r6
 598 0250 02D8     		bhi	.L31
 599 0252 3346     		mov	r3, r6
 185:..\..\..\arduinoLCD\test\Pain Drain\libraries\lvgl\src\draw/lv_draw_label.c ****     uint32_t sel_end = dsc->sel_end;
 600              		.loc 1 185 0
 601 0254 5646     		mov	r6, r10
 602              	.LVL72:
 186:..\..\..\arduinoLCD\test\Pain Drain\libraries\lvgl\src\draw/lv_draw_label.c ****     if(sel_start > sel_end) {
 603              		.loc 1 186 0
 604 0256 9A46     		mov	r10, r3
 605              	.LVL73:
 606              	.L31:
 194:..\..\..\arduinoLCD\test\Pain Drain\libraries\lvgl\src\draw/lv_draw_label.c ****         lv_draw_line_dsc_init(&line_dsc);
 607              		.loc 1 194 0
 608 0258 AB7F     		ldrb	r3, [r5, #30]	@ zero_extendqisi2
 609 025a 13F0030F 		tst	r3, #3
 610 025e 1AD0     		beq	.L32
 195:..\..\..\arduinoLCD\test\Pain Drain\libraries\lvgl\src\draw/lv_draw_label.c ****         line_dsc.color = dsc->color;
 611              		.loc 1 195 0
 612 0260 28A8     		add	r0, sp, #160
 613 0262 FFF7FEFF 		bl	lv_draw_line_dsc_init
 614              	.LVL74:
 196:..\..\..\arduinoLCD\test\Pain Drain\libraries\lvgl\src\draw/lv_draw_label.c ****         line_dsc.width = font->underline_thickness ? font->underline_thickness : 1;
 615              		.loc 1 196 0
 616 0266 AB89     		ldrh	r3, [r5, #12]
 617 0268 ADF8A030 		strh	r3, [sp, #160]	@ movhi
 197:..\..\..\arduinoLCD\test\Pain Drain\libraries\lvgl\src\draw/lv_draw_label.c ****         line_dsc.opa = dsc->opa;
 618              		.loc 1 197 0
 619 026c 069B     		ldr	r3, [sp, #24]
 620 026e 93F90E30 		ldrsb	r3, [r3, #14]
 621 0272 0BB1     		cbz	r3, .L62
 197:..\..\..\arduinoLCD\test\Pain Drain\libraries\lvgl\src\draw/lv_draw_label.c ****         line_dsc.opa = dsc->opa;
 622              		.loc 1 197 0 is_stmt 0 discriminator 1
 623 0274 1BB2     		sxth	r3, r3
 624 0276 00E0     		b	.L33
 625              	.L62:
 197:..\..\..\arduinoLCD\test\Pain Drain\libraries\lvgl\src\draw/lv_draw_label.c ****         line_dsc.opa = dsc->opa;
 626              		.loc 1 197 0
 627 0278 0123     		movs	r3, #1
 628              	.L33:
 197:..\..\..\arduinoLCD\test\Pain Drain\libraries\lvgl\src\draw/lv_draw_label.c ****         line_dsc.opa = dsc->opa;
 629              		.loc 1 197 0 discriminator 4
 630 027a ADF8A230 		strh	r3, [sp, #162]	@ movhi
 198:..\..\..\arduinoLCD\test\Pain Drain\libraries\lvgl\src\draw/lv_draw_label.c ****         line_dsc.blend_mode = dsc->blend_mode;
 631              		.loc 1 198 0 is_stmt 1 discriminator 4
 632 027e AB7E     		ldrb	r3, [r5, #26]	@ zero_extendqisi2
 633 0280 8DF8A830 		strb	r3, [sp, #168]
 199:..\..\..\arduinoLCD\test\Pain Drain\libraries\lvgl\src\draw/lv_draw_label.c ****     }
 634              		.loc 1 199 0 discriminator 4
 635 0284 AB7F     		ldrb	r3, [r5, #30]	@ zero_extendqisi2
 636 0286 C3F3C203 		ubfx	r3, r3, #3, #3
 637 028a 9DF8A920 		ldrb	r2, [sp, #169]	@ zero_extendqisi2
 638 028e 63F30102 		bfi	r2, r3, #0, #2
 639 0292 8DF8A920 		strb	r2, [sp, #169]
 640              	.L32:
ARM GAS  C:\Users\haske\AppData\Local\Temp\ccmIjDGo.s 			page 38


 641              	.LVL75:
 642 0296 4FF00003 		mov	r3, #0	@ movhi
 643              	.LVL76:
 644 029a ADF82E30 		strh	r3, [sp, #46]	@ movhi
 645 029e 9946     		mov	r9, r3	@ movhi
 646              	.LVL77:
 210:..\..\..\arduinoLCD\test\Pain Drain\libraries\lvgl\src\draw/lv_draw_label.c ****     draw_dsc_sel.bg_color = dsc->sel_bg_color;
 647              		.loc 1 210 0
 648 02a0 19A8     		add	r0, sp, #100
 649 02a2 FFF7FEFF 		bl	lv_draw_rect_dsc_init
 650              	.LVL78:
 211:..\..\..\arduinoLCD\test\Pain Drain\libraries\lvgl\src\draw/lv_draw_label.c **** 
 651              		.loc 1 211 0
 652 02a6 2B8A     		ldrh	r3, [r5, #16]
 653 02a8 ADF86830 		strh	r3, [sp, #104]	@ movhi
 213:..\..\..\arduinoLCD\test\Pain Drain\libraries\lvgl\src\draw/lv_draw_label.c ****     /*Write out all lines*/
 654              		.loc 1 213 0
 655 02ac BDF9AC30 		ldrsh	r3, [sp, #172]
 656 02b0 1193     		str	r3, [sp, #68]
 657              	.LVL79:
 204:..\..\..\arduinoLCD\test\Pain Drain\libraries\lvgl\src\draw/lv_draw_label.c ****     lv_color_t recolor  = lv_color_black();
 658              		.loc 1 204 0
 659 02b2 0023     		movs	r3, #0
 660 02b4 0F93     		str	r3, [sp, #60]
 661 02b6 B846     		mov	r8, r7
 215:..\..\..\arduinoLCD\test\Pain Drain\libraries\lvgl\src\draw/lv_draw_label.c ****         pos.x += x_ofs;
 662              		.loc 1 215 0
 663 02b8 79E1     		b	.L34
 664              	.LVL80:
 665              	.L54:
 666              	.LBB63:
 216:..\..\..\arduinoLCD\test\Pain Drain\libraries\lvgl\src\draw/lv_draw_label.c **** 
 667              		.loc 1 216 0
 668 02ba BDF8AC30 		ldrh	r3, [sp, #172]
 669 02be 109A     		ldr	r2, [sp, #64]
 670 02c0 1344     		add	r3, r3, r2
 671 02c2 ADF8AC30 		strh	r3, [sp, #172]	@ movhi
 672              	.LVL81:
 220:..\..\..\arduinoLCD\test\Pain Drain\libraries\lvgl\src\draw/lv_draw_label.c **** #if LV_USE_BIDI
 673              		.loc 1 220 0
 674 02c6 0027     		movs	r7, #0
 675 02c8 2797     		str	r7, [sp, #156]
 676              	.LVL82:
 228:..\..\..\arduinoLCD\test\Pain Drain\libraries\lvgl\src\draw/lv_draw_label.c ****             uint32_t logical_char_pos = 0;
 677              		.loc 1 228 0
 678 02ca C0E0     		b	.L35
 679              	.LVL83:
 680              	.L49:
 681              	.LBB64:
 230:..\..\..\arduinoLCD\test\Pain Drain\libraries\lvgl\src\draw/lv_draw_label.c **** #if LV_USE_BIDI
 682              		.loc 1 230 0
 683 02cc 4FF6FF73 		movw	r3, #65535
 684 02d0 9E42     		cmp	r6, r3
 685 02d2 08D0     		beq	.L63
 230:..\..\..\arduinoLCD\test\Pain Drain\libraries\lvgl\src\draw/lv_draw_label.c **** #if LV_USE_BIDI
 686              		.loc 1 230 0 is_stmt 0 discriminator 1
 687 02d4 9A45     		cmp	r10, r3
ARM GAS  C:\Users\haske\AppData\Local\Temp\ccmIjDGo.s 			page 39


 688 02d6 09D0     		beq	.L64
 236:..\..\..\arduinoLCD\test\Pain Drain\libraries\lvgl\src\draw/lv_draw_label.c **** #endif
 689              		.loc 1 236 0 is_stmt 1
 690 02d8 BB4B     		ldr	r3, .L68
 691 02da 1B68     		ldr	r3, [r3]
 692 02dc 4144     		add	r1, r1, r8
 693 02de 0998     		ldr	r0, [sp, #36]
 694 02e0 9847     		blx	r3
 695              	.LVL84:
 696 02e2 0590     		str	r0, [sp, #20]
 697              	.LVL85:
 698 02e4 04E0     		b	.L36
 699              	.LVL86:
 700              	.L63:
 229:..\..\..\arduinoLCD\test\Pain Drain\libraries\lvgl\src\draw/lv_draw_label.c ****             if(sel_start != 0xFFFF && sel_end != 0xFFFF) {
 701              		.loc 1 229 0
 702 02e6 0023     		movs	r3, #0
 703 02e8 0593     		str	r3, [sp, #20]
 704 02ea 01E0     		b	.L36
 705              	.L64:
 706 02ec 0023     		movs	r3, #0
 707 02ee 0593     		str	r3, [sp, #20]
 708              	.LVL87:
 709              	.L36:
 242:..\..\..\arduinoLCD\test\Pain Drain\libraries\lvgl\src\draw/lv_draw_label.c ****             /*Handle the re-color command*/
 710              		.loc 1 242 0
 711 02f0 27AB     		add	r3, sp, #156
 712 02f2 16AA     		add	r2, sp, #88
 713 02f4 15A9     		add	r1, sp, #84
 714 02f6 0798     		ldr	r0, [sp, #28]
 715 02f8 FFF7FEFF 		bl	_lv_txt_encoded_letter_next_2
 716              	.LVL88:
 244:..\..\..\arduinoLCD\test\Pain Drain\libraries\lvgl\src\draw/lv_draw_label.c ****                 if(letter == (uint32_t)LV_TXT_COLOR_CMD[0]) {
 717              		.loc 1 244 0
 718 02fc 6B7F     		ldrb	r3, [r5, #29]	@ zero_extendqisi2
 719 02fe 13F0010F 		tst	r3, #1
 720 0302 5ED0     		beq	.L37
 245:..\..\..\arduinoLCD\test\Pain Drain\libraries\lvgl\src\draw/lv_draw_label.c ****                     if(cmd_state == CMD_STATE_WAIT) { /*Start char*/
 721              		.loc 1 245 0
 722 0304 159B     		ldr	r3, [sp, #84]
 723 0306 232B     		cmp	r3, #35
 724 0308 0AD1     		bne	.L38
 246:..\..\..\arduinoLCD\test\Pain Drain\libraries\lvgl\src\draw/lv_draw_label.c ****                         par_start = i;
 725              		.loc 1 246 0
 726 030a 1FB9     		cbnz	r7, .L39
 247:..\..\..\arduinoLCD\test\Pain Drain\libraries\lvgl\src\draw/lv_draw_label.c ****                         cmd_state = CMD_STATE_PAR;
 727              		.loc 1 247 0
 728 030c 279B     		ldr	r3, [sp, #156]
 729 030e 0F93     		str	r3, [sp, #60]
 730              	.LVL89:
 248:..\..\..\arduinoLCD\test\Pain Drain\libraries\lvgl\src\draw/lv_draw_label.c ****                         continue;
 731              		.loc 1 248 0
 732 0310 0127     		movs	r7, #1
 249:..\..\..\arduinoLCD\test\Pain Drain\libraries\lvgl\src\draw/lv_draw_label.c ****                     }
 733              		.loc 1 249 0
 734 0312 9CE0     		b	.L35
 735              	.LVL90:
ARM GAS  C:\Users\haske\AppData\Local\Temp\ccmIjDGo.s 			page 40


 736              	.L39:
 251:..\..\..\arduinoLCD\test\Pain Drain\libraries\lvgl\src\draw/lv_draw_label.c ****                         cmd_state = CMD_STATE_WAIT;
 737              		.loc 1 251 0
 738 0314 012F     		cmp	r7, #1
 739 0316 02D0     		beq	.L65
 254:..\..\..\arduinoLCD\test\Pain Drain\libraries\lvgl\src\draw/lv_draw_label.c ****                         cmd_state = CMD_STATE_WAIT;
 740              		.loc 1 254 0
 741 0318 022F     		cmp	r7, #2
 742 031a 01D1     		bne	.L38
 743 031c 96E0     		b	.L66
 744              	.L65:
 252:..\..\..\arduinoLCD\test\Pain Drain\libraries\lvgl\src\draw/lv_draw_label.c ****                     }
 745              		.loc 1 252 0
 746 031e 0027     		movs	r7, #0
 747              	.LVL91:
 748              	.L38:
 261:..\..\..\arduinoLCD\test\Pain Drain\libraries\lvgl\src\draw/lv_draw_label.c ****                     if(letter == ' ') {
 749              		.loc 1 261 0
 750 0320 012F     		cmp	r7, #1
 751 0322 4ED1     		bne	.L37
 262:..\..\..\arduinoLCD\test\Pain Drain\libraries\lvgl\src\draw/lv_draw_label.c ****                         /*Get the parameter*/
 752              		.loc 1 262 0
 753 0324 202B     		cmp	r3, #32
 754 0326 40F09280 		bne	.L35
 264:..\..\..\arduinoLCD\test\Pain Drain\libraries\lvgl\src\draw/lv_draw_label.c ****                             char buf[LABEL_RECOLOR_PAR_LENGTH + 1];
 755              		.loc 1 264 0
 756 032a 279B     		ldr	r3, [sp, #156]
 757 032c 0F9A     		ldr	r2, [sp, #60]
 758 032e 9B1A     		subs	r3, r3, r2
 759 0330 072B     		cmp	r3, #7
 760 0332 41D1     		bne	.L42
 761              	.LBB65:
 266:..\..\..\arduinoLCD\test\Pain Drain\libraries\lvgl\src\draw/lv_draw_label.c ****                             buf[LABEL_RECOLOR_PAR_LENGTH] = '\0';
 762              		.loc 1 266 0
 763 0334 079B     		ldr	r3, [sp, #28]
 764 0336 9918     		adds	r1, r3, r2
 765              	.LVL92:
 766              	.LBB66:
 767              	.LBB67:
 768              		.file 6 "..\\..\\..\\arduinoLCD\\test\\Pain Drain\\libraries\\lvgl\\src\\draw\\../misc/lv_mem.h"
   1:..\..\..\arduinoLCD\test\Pain Drain\libraries\lvgl\src\draw\../misc/lv_mem.h **** /**
   2:..\..\..\arduinoLCD\test\Pain Drain\libraries\lvgl\src\draw\../misc/lv_mem.h ****  * @file lv_mem.h
   3:..\..\..\arduinoLCD\test\Pain Drain\libraries\lvgl\src\draw\../misc/lv_mem.h ****  *
   4:..\..\..\arduinoLCD\test\Pain Drain\libraries\lvgl\src\draw\../misc/lv_mem.h ****  */
   5:..\..\..\arduinoLCD\test\Pain Drain\libraries\lvgl\src\draw\../misc/lv_mem.h **** 
   6:..\..\..\arduinoLCD\test\Pain Drain\libraries\lvgl\src\draw\../misc/lv_mem.h **** #ifndef LV_MEM_H
   7:..\..\..\arduinoLCD\test\Pain Drain\libraries\lvgl\src\draw\../misc/lv_mem.h **** #define LV_MEM_H
   8:..\..\..\arduinoLCD\test\Pain Drain\libraries\lvgl\src\draw\../misc/lv_mem.h **** 
   9:..\..\..\arduinoLCD\test\Pain Drain\libraries\lvgl\src\draw\../misc/lv_mem.h **** #ifdef __cplusplus
  10:..\..\..\arduinoLCD\test\Pain Drain\libraries\lvgl\src\draw\../misc/lv_mem.h **** extern "C" {
  11:..\..\..\arduinoLCD\test\Pain Drain\libraries\lvgl\src\draw\../misc/lv_mem.h **** #endif
  12:..\..\..\arduinoLCD\test\Pain Drain\libraries\lvgl\src\draw\../misc/lv_mem.h **** 
  13:..\..\..\arduinoLCD\test\Pain Drain\libraries\lvgl\src\draw\../misc/lv_mem.h **** /*********************
  14:..\..\..\arduinoLCD\test\Pain Drain\libraries\lvgl\src\draw\../misc/lv_mem.h ****  *      INCLUDES
  15:..\..\..\arduinoLCD\test\Pain Drain\libraries\lvgl\src\draw\../misc/lv_mem.h ****  *********************/
  16:..\..\..\arduinoLCD\test\Pain Drain\libraries\lvgl\src\draw\../misc/lv_mem.h **** #include "../lv_conf_internal.h"
  17:..\..\..\arduinoLCD\test\Pain Drain\libraries\lvgl\src\draw\../misc/lv_mem.h **** 
ARM GAS  C:\Users\haske\AppData\Local\Temp\ccmIjDGo.s 			page 41


  18:..\..\..\arduinoLCD\test\Pain Drain\libraries\lvgl\src\draw\../misc/lv_mem.h **** #include <stdint.h>
  19:..\..\..\arduinoLCD\test\Pain Drain\libraries\lvgl\src\draw\../misc/lv_mem.h **** #include <stddef.h>
  20:..\..\..\arduinoLCD\test\Pain Drain\libraries\lvgl\src\draw\../misc/lv_mem.h **** #include <string.h>
  21:..\..\..\arduinoLCD\test\Pain Drain\libraries\lvgl\src\draw\../misc/lv_mem.h **** 
  22:..\..\..\arduinoLCD\test\Pain Drain\libraries\lvgl\src\draw\../misc/lv_mem.h **** #include "lv_types.h"
  23:..\..\..\arduinoLCD\test\Pain Drain\libraries\lvgl\src\draw\../misc/lv_mem.h **** 
  24:..\..\..\arduinoLCD\test\Pain Drain\libraries\lvgl\src\draw\../misc/lv_mem.h **** /*********************
  25:..\..\..\arduinoLCD\test\Pain Drain\libraries\lvgl\src\draw\../misc/lv_mem.h ****  *      DEFINES
  26:..\..\..\arduinoLCD\test\Pain Drain\libraries\lvgl\src\draw\../misc/lv_mem.h ****  *********************/
  27:..\..\..\arduinoLCD\test\Pain Drain\libraries\lvgl\src\draw\../misc/lv_mem.h **** 
  28:..\..\..\arduinoLCD\test\Pain Drain\libraries\lvgl\src\draw\../misc/lv_mem.h **** /**********************
  29:..\..\..\arduinoLCD\test\Pain Drain\libraries\lvgl\src\draw\../misc/lv_mem.h ****  *      TYPEDEFS
  30:..\..\..\arduinoLCD\test\Pain Drain\libraries\lvgl\src\draw\../misc/lv_mem.h ****  **********************/
  31:..\..\..\arduinoLCD\test\Pain Drain\libraries\lvgl\src\draw\../misc/lv_mem.h **** 
  32:..\..\..\arduinoLCD\test\Pain Drain\libraries\lvgl\src\draw\../misc/lv_mem.h **** /**
  33:..\..\..\arduinoLCD\test\Pain Drain\libraries\lvgl\src\draw\../misc/lv_mem.h ****  * Heap information structure.
  34:..\..\..\arduinoLCD\test\Pain Drain\libraries\lvgl\src\draw\../misc/lv_mem.h ****  */
  35:..\..\..\arduinoLCD\test\Pain Drain\libraries\lvgl\src\draw\../misc/lv_mem.h **** typedef struct {
  36:..\..\..\arduinoLCD\test\Pain Drain\libraries\lvgl\src\draw\../misc/lv_mem.h ****     uint32_t total_size; /**< Total heap size*/
  37:..\..\..\arduinoLCD\test\Pain Drain\libraries\lvgl\src\draw\../misc/lv_mem.h ****     uint32_t free_cnt;
  38:..\..\..\arduinoLCD\test\Pain Drain\libraries\lvgl\src\draw\../misc/lv_mem.h ****     uint32_t free_size; /**< Size of available memory*/
  39:..\..\..\arduinoLCD\test\Pain Drain\libraries\lvgl\src\draw\../misc/lv_mem.h ****     uint32_t free_biggest_size;
  40:..\..\..\arduinoLCD\test\Pain Drain\libraries\lvgl\src\draw\../misc/lv_mem.h ****     uint32_t used_cnt;
  41:..\..\..\arduinoLCD\test\Pain Drain\libraries\lvgl\src\draw\../misc/lv_mem.h ****     uint32_t max_used; /**< Max size of Heap memory used*/
  42:..\..\..\arduinoLCD\test\Pain Drain\libraries\lvgl\src\draw\../misc/lv_mem.h ****     uint8_t used_pct; /**< Percentage used*/
  43:..\..\..\arduinoLCD\test\Pain Drain\libraries\lvgl\src\draw\../misc/lv_mem.h ****     uint8_t frag_pct; /**< Amount of fragmentation*/
  44:..\..\..\arduinoLCD\test\Pain Drain\libraries\lvgl\src\draw\../misc/lv_mem.h **** } lv_mem_monitor_t;
  45:..\..\..\arduinoLCD\test\Pain Drain\libraries\lvgl\src\draw\../misc/lv_mem.h **** 
  46:..\..\..\arduinoLCD\test\Pain Drain\libraries\lvgl\src\draw\../misc/lv_mem.h **** typedef struct {
  47:..\..\..\arduinoLCD\test\Pain Drain\libraries\lvgl\src\draw\../misc/lv_mem.h ****     void * p;
  48:..\..\..\arduinoLCD\test\Pain Drain\libraries\lvgl\src\draw\../misc/lv_mem.h ****     uint16_t size;
  49:..\..\..\arduinoLCD\test\Pain Drain\libraries\lvgl\src\draw\../misc/lv_mem.h ****     uint8_t used : 1;
  50:..\..\..\arduinoLCD\test\Pain Drain\libraries\lvgl\src\draw\../misc/lv_mem.h **** } lv_mem_buf_t;
  51:..\..\..\arduinoLCD\test\Pain Drain\libraries\lvgl\src\draw\../misc/lv_mem.h **** 
  52:..\..\..\arduinoLCD\test\Pain Drain\libraries\lvgl\src\draw\../misc/lv_mem.h **** typedef lv_mem_buf_t lv_mem_buf_arr_t[LV_MEM_BUF_MAX_NUM];
  53:..\..\..\arduinoLCD\test\Pain Drain\libraries\lvgl\src\draw\../misc/lv_mem.h **** 
  54:..\..\..\arduinoLCD\test\Pain Drain\libraries\lvgl\src\draw\../misc/lv_mem.h **** /**********************
  55:..\..\..\arduinoLCD\test\Pain Drain\libraries\lvgl\src\draw\../misc/lv_mem.h ****  * GLOBAL PROTOTYPES
  56:..\..\..\arduinoLCD\test\Pain Drain\libraries\lvgl\src\draw\../misc/lv_mem.h ****  **********************/
  57:..\..\..\arduinoLCD\test\Pain Drain\libraries\lvgl\src\draw\../misc/lv_mem.h **** 
  58:..\..\..\arduinoLCD\test\Pain Drain\libraries\lvgl\src\draw\../misc/lv_mem.h **** /**
  59:..\..\..\arduinoLCD\test\Pain Drain\libraries\lvgl\src\draw\../misc/lv_mem.h ****  * Initialize the dyn_mem module (work memory and other variables)
  60:..\..\..\arduinoLCD\test\Pain Drain\libraries\lvgl\src\draw\../misc/lv_mem.h ****  */
  61:..\..\..\arduinoLCD\test\Pain Drain\libraries\lvgl\src\draw\../misc/lv_mem.h **** void lv_mem_init(void);
  62:..\..\..\arduinoLCD\test\Pain Drain\libraries\lvgl\src\draw\../misc/lv_mem.h **** 
  63:..\..\..\arduinoLCD\test\Pain Drain\libraries\lvgl\src\draw\../misc/lv_mem.h **** /**
  64:..\..\..\arduinoLCD\test\Pain Drain\libraries\lvgl\src\draw\../misc/lv_mem.h ****  * Clean up the memory buffer which frees all the allocated memories.
  65:..\..\..\arduinoLCD\test\Pain Drain\libraries\lvgl\src\draw\../misc/lv_mem.h ****  * @note It work only if `LV_MEM_CUSTOM == 0`
  66:..\..\..\arduinoLCD\test\Pain Drain\libraries\lvgl\src\draw\../misc/lv_mem.h ****  */
  67:..\..\..\arduinoLCD\test\Pain Drain\libraries\lvgl\src\draw\../misc/lv_mem.h **** void lv_mem_deinit(void);
  68:..\..\..\arduinoLCD\test\Pain Drain\libraries\lvgl\src\draw\../misc/lv_mem.h **** 
  69:..\..\..\arduinoLCD\test\Pain Drain\libraries\lvgl\src\draw\../misc/lv_mem.h **** /**
  70:..\..\..\arduinoLCD\test\Pain Drain\libraries\lvgl\src\draw\../misc/lv_mem.h ****  * Allocate a memory dynamically
  71:..\..\..\arduinoLCD\test\Pain Drain\libraries\lvgl\src\draw\../misc/lv_mem.h ****  * @param size size of the memory to allocate in bytes
  72:..\..\..\arduinoLCD\test\Pain Drain\libraries\lvgl\src\draw\../misc/lv_mem.h ****  * @return pointer to the allocated memory
  73:..\..\..\arduinoLCD\test\Pain Drain\libraries\lvgl\src\draw\../misc/lv_mem.h ****  */
  74:..\..\..\arduinoLCD\test\Pain Drain\libraries\lvgl\src\draw\../misc/lv_mem.h **** void * lv_mem_alloc(size_t size);
ARM GAS  C:\Users\haske\AppData\Local\Temp\ccmIjDGo.s 			page 42


  75:..\..\..\arduinoLCD\test\Pain Drain\libraries\lvgl\src\draw\../misc/lv_mem.h **** 
  76:..\..\..\arduinoLCD\test\Pain Drain\libraries\lvgl\src\draw\../misc/lv_mem.h **** /**
  77:..\..\..\arduinoLCD\test\Pain Drain\libraries\lvgl\src\draw\../misc/lv_mem.h ****  * Free an allocated data
  78:..\..\..\arduinoLCD\test\Pain Drain\libraries\lvgl\src\draw\../misc/lv_mem.h ****  * @param data pointer to an allocated memory
  79:..\..\..\arduinoLCD\test\Pain Drain\libraries\lvgl\src\draw\../misc/lv_mem.h ****  */
  80:..\..\..\arduinoLCD\test\Pain Drain\libraries\lvgl\src\draw\../misc/lv_mem.h **** void lv_mem_free(void * data);
  81:..\..\..\arduinoLCD\test\Pain Drain\libraries\lvgl\src\draw\../misc/lv_mem.h **** 
  82:..\..\..\arduinoLCD\test\Pain Drain\libraries\lvgl\src\draw\../misc/lv_mem.h **** /**
  83:..\..\..\arduinoLCD\test\Pain Drain\libraries\lvgl\src\draw\../misc/lv_mem.h ****  * Reallocate a memory with a new size. The old content will be kept.
  84:..\..\..\arduinoLCD\test\Pain Drain\libraries\lvgl\src\draw\../misc/lv_mem.h ****  * @param data pointer to an allocated memory.
  85:..\..\..\arduinoLCD\test\Pain Drain\libraries\lvgl\src\draw\../misc/lv_mem.h ****  * Its content will be copied to the new memory block and freed
  86:..\..\..\arduinoLCD\test\Pain Drain\libraries\lvgl\src\draw\../misc/lv_mem.h ****  * @param new_size the desired new size in byte
  87:..\..\..\arduinoLCD\test\Pain Drain\libraries\lvgl\src\draw\../misc/lv_mem.h ****  * @return pointer to the new memory, NULL on failure
  88:..\..\..\arduinoLCD\test\Pain Drain\libraries\lvgl\src\draw\../misc/lv_mem.h ****  */
  89:..\..\..\arduinoLCD\test\Pain Drain\libraries\lvgl\src\draw\../misc/lv_mem.h **** void * lv_mem_realloc(void * data_p, size_t new_size);
  90:..\..\..\arduinoLCD\test\Pain Drain\libraries\lvgl\src\draw\../misc/lv_mem.h **** 
  91:..\..\..\arduinoLCD\test\Pain Drain\libraries\lvgl\src\draw\../misc/lv_mem.h **** /**
  92:..\..\..\arduinoLCD\test\Pain Drain\libraries\lvgl\src\draw\../misc/lv_mem.h ****  *
  93:..\..\..\arduinoLCD\test\Pain Drain\libraries\lvgl\src\draw\../misc/lv_mem.h ****  * @return
  94:..\..\..\arduinoLCD\test\Pain Drain\libraries\lvgl\src\draw\../misc/lv_mem.h ****  */
  95:..\..\..\arduinoLCD\test\Pain Drain\libraries\lvgl\src\draw\../misc/lv_mem.h **** lv_res_t lv_mem_test(void);
  96:..\..\..\arduinoLCD\test\Pain Drain\libraries\lvgl\src\draw\../misc/lv_mem.h **** 
  97:..\..\..\arduinoLCD\test\Pain Drain\libraries\lvgl\src\draw\../misc/lv_mem.h **** /**
  98:..\..\..\arduinoLCD\test\Pain Drain\libraries\lvgl\src\draw\../misc/lv_mem.h ****  * Give information about the work memory of dynamic allocation
  99:..\..\..\arduinoLCD\test\Pain Drain\libraries\lvgl\src\draw\../misc/lv_mem.h ****  * @param mon_p pointer to a lv_mem_monitor_t variable,
 100:..\..\..\arduinoLCD\test\Pain Drain\libraries\lvgl\src\draw\../misc/lv_mem.h ****  *              the result of the analysis will be stored here
 101:..\..\..\arduinoLCD\test\Pain Drain\libraries\lvgl\src\draw\../misc/lv_mem.h ****  */
 102:..\..\..\arduinoLCD\test\Pain Drain\libraries\lvgl\src\draw\../misc/lv_mem.h **** void lv_mem_monitor(lv_mem_monitor_t * mon_p);
 103:..\..\..\arduinoLCD\test\Pain Drain\libraries\lvgl\src\draw\../misc/lv_mem.h **** 
 104:..\..\..\arduinoLCD\test\Pain Drain\libraries\lvgl\src\draw\../misc/lv_mem.h **** 
 105:..\..\..\arduinoLCD\test\Pain Drain\libraries\lvgl\src\draw\../misc/lv_mem.h **** /**
 106:..\..\..\arduinoLCD\test\Pain Drain\libraries\lvgl\src\draw\../misc/lv_mem.h ****  * Get a temporal buffer with the given size.
 107:..\..\..\arduinoLCD\test\Pain Drain\libraries\lvgl\src\draw\../misc/lv_mem.h ****  * @param size the required size
 108:..\..\..\arduinoLCD\test\Pain Drain\libraries\lvgl\src\draw\../misc/lv_mem.h ****  */
 109:..\..\..\arduinoLCD\test\Pain Drain\libraries\lvgl\src\draw\../misc/lv_mem.h **** void * lv_mem_buf_get(uint32_t size);
 110:..\..\..\arduinoLCD\test\Pain Drain\libraries\lvgl\src\draw\../misc/lv_mem.h **** 
 111:..\..\..\arduinoLCD\test\Pain Drain\libraries\lvgl\src\draw\../misc/lv_mem.h **** /**
 112:..\..\..\arduinoLCD\test\Pain Drain\libraries\lvgl\src\draw\../misc/lv_mem.h ****  * Release a memory buffer
 113:..\..\..\arduinoLCD\test\Pain Drain\libraries\lvgl\src\draw\../misc/lv_mem.h ****  * @param p buffer to release
 114:..\..\..\arduinoLCD\test\Pain Drain\libraries\lvgl\src\draw\../misc/lv_mem.h ****  */
 115:..\..\..\arduinoLCD\test\Pain Drain\libraries\lvgl\src\draw\../misc/lv_mem.h **** void lv_mem_buf_release(void * p);
 116:..\..\..\arduinoLCD\test\Pain Drain\libraries\lvgl\src\draw\../misc/lv_mem.h **** 
 117:..\..\..\arduinoLCD\test\Pain Drain\libraries\lvgl\src\draw\../misc/lv_mem.h **** /**
 118:..\..\..\arduinoLCD\test\Pain Drain\libraries\lvgl\src\draw\../misc/lv_mem.h ****  * Free all memory buffers
 119:..\..\..\arduinoLCD\test\Pain Drain\libraries\lvgl\src\draw\../misc/lv_mem.h ****  */
 120:..\..\..\arduinoLCD\test\Pain Drain\libraries\lvgl\src\draw\../misc/lv_mem.h **** void lv_mem_buf_free_all(void);
 121:..\..\..\arduinoLCD\test\Pain Drain\libraries\lvgl\src\draw\../misc/lv_mem.h **** 
 122:..\..\..\arduinoLCD\test\Pain Drain\libraries\lvgl\src\draw\../misc/lv_mem.h **** //! @cond Doxygen_Suppress
 123:..\..\..\arduinoLCD\test\Pain Drain\libraries\lvgl\src\draw\../misc/lv_mem.h **** 
 124:..\..\..\arduinoLCD\test\Pain Drain\libraries\lvgl\src\draw\../misc/lv_mem.h **** #if LV_MEMCPY_MEMSET_STD
 125:..\..\..\arduinoLCD\test\Pain Drain\libraries\lvgl\src\draw\../misc/lv_mem.h **** 
 126:..\..\..\arduinoLCD\test\Pain Drain\libraries\lvgl\src\draw\../misc/lv_mem.h **** /**
 127:..\..\..\arduinoLCD\test\Pain Drain\libraries\lvgl\src\draw\../misc/lv_mem.h ****  * Wrapper for the standard memcpy
 128:..\..\..\arduinoLCD\test\Pain Drain\libraries\lvgl\src\draw\../misc/lv_mem.h ****  * @param dst pointer to the destination buffer
 129:..\..\..\arduinoLCD\test\Pain Drain\libraries\lvgl\src\draw\../misc/lv_mem.h ****  * @param src pointer to the source buffer
 130:..\..\..\arduinoLCD\test\Pain Drain\libraries\lvgl\src\draw\../misc/lv_mem.h ****  * @param len number of byte to copy
 131:..\..\..\arduinoLCD\test\Pain Drain\libraries\lvgl\src\draw\../misc/lv_mem.h ****  */
ARM GAS  C:\Users\haske\AppData\Local\Temp\ccmIjDGo.s 			page 43


 132:..\..\..\arduinoLCD\test\Pain Drain\libraries\lvgl\src\draw\../misc/lv_mem.h **** static inline void * lv_memcpy(void * dst, const void * src, size_t len)
 133:..\..\..\arduinoLCD\test\Pain Drain\libraries\lvgl\src\draw\../misc/lv_mem.h **** {
 134:..\..\..\arduinoLCD\test\Pain Drain\libraries\lvgl\src\draw\../misc/lv_mem.h ****     return memcpy(dst, src, len);
 135:..\..\..\arduinoLCD\test\Pain Drain\libraries\lvgl\src\draw\../misc/lv_mem.h **** }
 136:..\..\..\arduinoLCD\test\Pain Drain\libraries\lvgl\src\draw\../misc/lv_mem.h **** 
 137:..\..\..\arduinoLCD\test\Pain Drain\libraries\lvgl\src\draw\../misc/lv_mem.h **** /**
 138:..\..\..\arduinoLCD\test\Pain Drain\libraries\lvgl\src\draw\../misc/lv_mem.h ****  * Wrapper for the standard memcpy
 139:..\..\..\arduinoLCD\test\Pain Drain\libraries\lvgl\src\draw\../misc/lv_mem.h ****  * @param dst pointer to the destination buffer
 140:..\..\..\arduinoLCD\test\Pain Drain\libraries\lvgl\src\draw\../misc/lv_mem.h ****  * @param src pointer to the source buffer
 141:..\..\..\arduinoLCD\test\Pain Drain\libraries\lvgl\src\draw\../misc/lv_mem.h ****  * @param len number of byte to copy
 142:..\..\..\arduinoLCD\test\Pain Drain\libraries\lvgl\src\draw\../misc/lv_mem.h ****  */
 143:..\..\..\arduinoLCD\test\Pain Drain\libraries\lvgl\src\draw\../misc/lv_mem.h **** static inline void * lv_memcpy_small(void * dst, const void * src, size_t len)
 144:..\..\..\arduinoLCD\test\Pain Drain\libraries\lvgl\src\draw\../misc/lv_mem.h **** {
 145:..\..\..\arduinoLCD\test\Pain Drain\libraries\lvgl\src\draw\../misc/lv_mem.h ****     return memcpy(dst, src, len);
 146:..\..\..\arduinoLCD\test\Pain Drain\libraries\lvgl\src\draw\../misc/lv_mem.h **** }
 147:..\..\..\arduinoLCD\test\Pain Drain\libraries\lvgl\src\draw\../misc/lv_mem.h **** 
 148:..\..\..\arduinoLCD\test\Pain Drain\libraries\lvgl\src\draw\../misc/lv_mem.h **** /**
 149:..\..\..\arduinoLCD\test\Pain Drain\libraries\lvgl\src\draw\../misc/lv_mem.h ****  * Wrapper for the standard memset
 150:..\..\..\arduinoLCD\test\Pain Drain\libraries\lvgl\src\draw\../misc/lv_mem.h ****  * @param dst pointer to the destination buffer
 151:..\..\..\arduinoLCD\test\Pain Drain\libraries\lvgl\src\draw\../misc/lv_mem.h ****  * @param v value to set [0..255]
 152:..\..\..\arduinoLCD\test\Pain Drain\libraries\lvgl\src\draw\../misc/lv_mem.h ****  * @param len number of byte to set
 153:..\..\..\arduinoLCD\test\Pain Drain\libraries\lvgl\src\draw\../misc/lv_mem.h ****  */
 154:..\..\..\arduinoLCD\test\Pain Drain\libraries\lvgl\src\draw\../misc/lv_mem.h **** static inline void lv_memset(void * dst, uint8_t v, size_t len)
 155:..\..\..\arduinoLCD\test\Pain Drain\libraries\lvgl\src\draw\../misc/lv_mem.h **** {
 156:..\..\..\arduinoLCD\test\Pain Drain\libraries\lvgl\src\draw\../misc/lv_mem.h ****     memset(dst, v, len);
 157:..\..\..\arduinoLCD\test\Pain Drain\libraries\lvgl\src\draw\../misc/lv_mem.h **** }
 158:..\..\..\arduinoLCD\test\Pain Drain\libraries\lvgl\src\draw\../misc/lv_mem.h **** 
 159:..\..\..\arduinoLCD\test\Pain Drain\libraries\lvgl\src\draw\../misc/lv_mem.h **** /**
 160:..\..\..\arduinoLCD\test\Pain Drain\libraries\lvgl\src\draw\../misc/lv_mem.h ****  * Wrapper for the standard memset with fixed 0x00 value
 161:..\..\..\arduinoLCD\test\Pain Drain\libraries\lvgl\src\draw\../misc/lv_mem.h ****  * @param dst pointer to the destination buffer
 162:..\..\..\arduinoLCD\test\Pain Drain\libraries\lvgl\src\draw\../misc/lv_mem.h ****  * @param len number of byte to set
 163:..\..\..\arduinoLCD\test\Pain Drain\libraries\lvgl\src\draw\../misc/lv_mem.h ****  */
 164:..\..\..\arduinoLCD\test\Pain Drain\libraries\lvgl\src\draw\../misc/lv_mem.h **** static inline void lv_memset_00(void * dst, size_t len)
 165:..\..\..\arduinoLCD\test\Pain Drain\libraries\lvgl\src\draw\../misc/lv_mem.h **** {
 166:..\..\..\arduinoLCD\test\Pain Drain\libraries\lvgl\src\draw\../misc/lv_mem.h ****     memset(dst, 0x00, len);
 167:..\..\..\arduinoLCD\test\Pain Drain\libraries\lvgl\src\draw\../misc/lv_mem.h **** }
 168:..\..\..\arduinoLCD\test\Pain Drain\libraries\lvgl\src\draw\../misc/lv_mem.h **** 
 169:..\..\..\arduinoLCD\test\Pain Drain\libraries\lvgl\src\draw\../misc/lv_mem.h **** /**
 170:..\..\..\arduinoLCD\test\Pain Drain\libraries\lvgl\src\draw\../misc/lv_mem.h ****  * Wrapper for the standard memset with fixed 0xFF value
 171:..\..\..\arduinoLCD\test\Pain Drain\libraries\lvgl\src\draw\../misc/lv_mem.h ****  * @param dst pointer to the destination buffer
 172:..\..\..\arduinoLCD\test\Pain Drain\libraries\lvgl\src\draw\../misc/lv_mem.h ****  * @param len number of byte to set
 173:..\..\..\arduinoLCD\test\Pain Drain\libraries\lvgl\src\draw\../misc/lv_mem.h ****  */
 174:..\..\..\arduinoLCD\test\Pain Drain\libraries\lvgl\src\draw\../misc/lv_mem.h **** static inline void lv_memset_ff(void * dst, size_t len)
 175:..\..\..\arduinoLCD\test\Pain Drain\libraries\lvgl\src\draw\../misc/lv_mem.h **** {
 176:..\..\..\arduinoLCD\test\Pain Drain\libraries\lvgl\src\draw\../misc/lv_mem.h ****     memset(dst, 0xFF, len);
 177:..\..\..\arduinoLCD\test\Pain Drain\libraries\lvgl\src\draw\../misc/lv_mem.h **** }
 178:..\..\..\arduinoLCD\test\Pain Drain\libraries\lvgl\src\draw\../misc/lv_mem.h **** 
 179:..\..\..\arduinoLCD\test\Pain Drain\libraries\lvgl\src\draw\../misc/lv_mem.h **** #else
 180:..\..\..\arduinoLCD\test\Pain Drain\libraries\lvgl\src\draw\../misc/lv_mem.h **** /**
 181:..\..\..\arduinoLCD\test\Pain Drain\libraries\lvgl\src\draw\../misc/lv_mem.h ****  * Same as `memcpy` but optimized for 4 byte operation.
 182:..\..\..\arduinoLCD\test\Pain Drain\libraries\lvgl\src\draw\../misc/lv_mem.h ****  * @param dst pointer to the destination buffer
 183:..\..\..\arduinoLCD\test\Pain Drain\libraries\lvgl\src\draw\../misc/lv_mem.h ****  * @param src pointer to the source buffer
 184:..\..\..\arduinoLCD\test\Pain Drain\libraries\lvgl\src\draw\../misc/lv_mem.h ****  * @param len number of byte to copy
 185:..\..\..\arduinoLCD\test\Pain Drain\libraries\lvgl\src\draw\../misc/lv_mem.h ****  */
 186:..\..\..\arduinoLCD\test\Pain Drain\libraries\lvgl\src\draw\../misc/lv_mem.h **** LV_ATTRIBUTE_FAST_MEM void * lv_memcpy(void * dst, const void * src, size_t len);
 187:..\..\..\arduinoLCD\test\Pain Drain\libraries\lvgl\src\draw\../misc/lv_mem.h **** 
 188:..\..\..\arduinoLCD\test\Pain Drain\libraries\lvgl\src\draw\../misc/lv_mem.h **** /**
ARM GAS  C:\Users\haske\AppData\Local\Temp\ccmIjDGo.s 			page 44


 189:..\..\..\arduinoLCD\test\Pain Drain\libraries\lvgl\src\draw\../misc/lv_mem.h ****  * Same as `memcpy` but optimized to copy only a few bytes.
 190:..\..\..\arduinoLCD\test\Pain Drain\libraries\lvgl\src\draw\../misc/lv_mem.h ****  * @param dst pointer to the destination buffer
 191:..\..\..\arduinoLCD\test\Pain Drain\libraries\lvgl\src\draw\../misc/lv_mem.h ****  * @param src pointer to the source buffer
 192:..\..\..\arduinoLCD\test\Pain Drain\libraries\lvgl\src\draw\../misc/lv_mem.h ****  * @param len number of byte to copy
 193:..\..\..\arduinoLCD\test\Pain Drain\libraries\lvgl\src\draw\../misc/lv_mem.h ****  */
 194:..\..\..\arduinoLCD\test\Pain Drain\libraries\lvgl\src\draw\../misc/lv_mem.h **** LV_ATTRIBUTE_FAST_MEM static inline void * lv_memcpy_small(void * dst, const void * src, size_t len
 195:..\..\..\arduinoLCD\test\Pain Drain\libraries\lvgl\src\draw\../misc/lv_mem.h **** {
 196:..\..\..\arduinoLCD\test\Pain Drain\libraries\lvgl\src\draw\../misc/lv_mem.h ****     uint8_t * d8 = (uint8_t *)dst;
 769              		.loc 6 196 0
 770 0338 17AA     		add	r2, sp, #92
 771              	.LVL93:
 772              	.LBE67:
 773              	.LBE66:
 266:..\..\..\arduinoLCD\test\Pain Drain\libraries\lvgl\src\draw/lv_draw_label.c ****                             buf[LABEL_RECOLOR_PAR_LENGTH] = '\0';
 774              		.loc 1 266 0
 775 033a 0623     		movs	r3, #6
 776 033c 04E0     		b	.L43
 777              	.LVL94:
 778              	.L44:
 779              	.LBB69:
 780              	.LBB68:
 197:..\..\..\arduinoLCD\test\Pain Drain\libraries\lvgl\src\draw\../misc/lv_mem.h ****     const uint8_t * s8 = (const uint8_t *)src;
 198:..\..\..\arduinoLCD\test\Pain Drain\libraries\lvgl\src\draw\../misc/lv_mem.h **** 
 199:..\..\..\arduinoLCD\test\Pain Drain\libraries\lvgl\src\draw\../misc/lv_mem.h ****     while(len) {
 200:..\..\..\arduinoLCD\test\Pain Drain\libraries\lvgl\src\draw\../misc/lv_mem.h ****         *d8 = *s8;
 781              		.loc 6 200 0
 782 033e 11F8010B 		ldrb	r0, [r1], #1	@ zero_extendqisi2
 783              	.LVL95:
 784 0342 02F8010B 		strb	r0, [r2], #1
 785              	.LVL96:
 201:..\..\..\arduinoLCD\test\Pain Drain\libraries\lvgl\src\draw\../misc/lv_mem.h ****         d8++;
 202:..\..\..\arduinoLCD\test\Pain Drain\libraries\lvgl\src\draw\../misc/lv_mem.h ****         s8++;
 203:..\..\..\arduinoLCD\test\Pain Drain\libraries\lvgl\src\draw\../misc/lv_mem.h ****         len--;
 786              		.loc 6 203 0
 787 0346 013B     		subs	r3, r3, #1
 788              	.LVL97:
 789              	.L43:
 199:..\..\..\arduinoLCD\test\Pain Drain\libraries\lvgl\src\draw\../misc/lv_mem.h ****         *d8 = *s8;
 790              		.loc 6 199 0
 791 0348 002B     		cmp	r3, #0
 792 034a F8D1     		bne	.L44
 793              	.LVL98:
 794              	.LBE68:
 795              	.LBE69:
 267:..\..\..\arduinoLCD\test\Pain Drain\libraries\lvgl\src\draw/lv_draw_label.c ****                             int r, g, b;
 796              		.loc 1 267 0
 797 034c 8DF86230 		strb	r3, [sp, #98]
 269:..\..\..\arduinoLCD\test\Pain Drain\libraries\lvgl\src\draw/lv_draw_label.c ****                             g       = (hex_char_to_num(buf[2]) << 4) + hex_char_to_num(buf[3]);
 798              		.loc 1 269 0
 799 0350 9DF85C00 		ldrb	r0, [sp, #92]	@ zero_extendqisi2
 800 0354 FFF7FEFF 		bl	hex_char_to_num
 801              	.LVL99:
 802 0358 0401     		lsls	r4, r0, #4
 803 035a 9DF85D00 		ldrb	r0, [sp, #93]	@ zero_extendqisi2
 804 035e FFF7FEFF 		bl	hex_char_to_num
 805              	.LVL100:
 806 0362 2318     		adds	r3, r4, r0
ARM GAS  C:\Users\haske\AppData\Local\Temp\ccmIjDGo.s 			page 45


 807 0364 0593     		str	r3, [sp, #20]
 808              	.LVL101:
 270:..\..\..\arduinoLCD\test\Pain Drain\libraries\lvgl\src\draw/lv_draw_label.c ****                             b       = (hex_char_to_num(buf[4]) << 4) + hex_char_to_num(buf[5]);
 809              		.loc 1 270 0
 810 0366 9DF85E00 		ldrb	r0, [sp, #94]	@ zero_extendqisi2
 811 036a FFF7FEFF 		bl	hex_char_to_num
 812              	.LVL102:
 813 036e 0401     		lsls	r4, r0, #4
 814 0370 9DF85F00 		ldrb	r0, [sp, #95]	@ zero_extendqisi2
 815 0374 FFF7FEFF 		bl	hex_char_to_num
 816              	.LVL103:
 817 0378 0444     		add	r4, r4, r0
 818              	.LVL104:
 271:..\..\..\arduinoLCD\test\Pain Drain\libraries\lvgl\src\draw/lv_draw_label.c ****                             recolor = lv_color_make(r, g, b);
 819              		.loc 1 271 0
 820 037a 9DF86000 		ldrb	r0, [sp, #96]	@ zero_extendqisi2
 821 037e FFF7FEFF 		bl	hex_char_to_num
 822              	.LVL105:
 823 0382 0701     		lsls	r7, r0, #4
 824              	.LVL106:
 825 0384 9DF86100 		ldrb	r0, [sp, #97]	@ zero_extendqisi2
 826 0388 FFF7FEFF 		bl	hex_char_to_num
 827              	.LVL107:
 828 038c 3844     		add	r0, r0, r7
 829              	.LVL108:
 830              	.LBB70:
 831              	.LBB71:
 832              		.loc 2 590 0
 833 038e C0F3C403 		ubfx	r3, r0, #3, #5
 834 0392 C4F38504 		ubfx	r4, r4, #2, #6
 835              	.LVL109:
 836 0396 059A     		ldr	r2, [sp, #20]
 837 0398 C2F3C402 		ubfx	r2, r2, #3, #5
 838 039c 1299     		ldr	r1, [sp, #72]
 839 039e 63F30401 		bfi	r1, r3, #0, #5
 840 03a2 0B46     		mov	r3, r1
 841 03a4 64F34A13 		bfi	r3, r4, #5, #6
 842 03a8 62F3CF23 		bfi	r3, r2, #11, #5
 843 03ac ADF84830 		strh	r3, [sp, #72]	@ movhi
 844 03b0 ADF82E30 		strh	r3, [sp, #46]	@ movhi
 845              	.LVL110:
 846              	.LBE71:
 847              	.LBE70:
 848              	.LBE65:
 277:..\..\..\arduinoLCD\test\Pain Drain\libraries\lvgl\src\draw/lv_draw_label.c ****                     }
 849              		.loc 1 277 0
 850 03b4 0227     		movs	r7, #2
 851 03b6 4AE0     		b	.L35
 852              	.LVL111:
 853              	.L42:
 275:..\..\..\arduinoLCD\test\Pain Drain\libraries\lvgl\src\draw/lv_draw_label.c ****                         }
 854              		.loc 1 275 0
 855 03b8 AB89     		ldrh	r3, [r5, #12]
 856              	.LVL112:
 857 03ba ADF82E30 		strh	r3, [sp, #46]	@ movhi
 277:..\..\..\arduinoLCD\test\Pain Drain\libraries\lvgl\src\draw/lv_draw_label.c ****                     }
 858              		.loc 1 277 0
ARM GAS  C:\Users\haske\AppData\Local\Temp\ccmIjDGo.s 			page 46


 859 03be 0227     		movs	r7, #2
 860              	.LVL113:
 279:..\..\..\arduinoLCD\test\Pain Drain\libraries\lvgl\src\draw/lv_draw_label.c ****                 }
 861              		.loc 1 279 0
 862 03c0 45E0     		b	.L35
 863              	.LVL114:
 864              	.L37:
 283:..\..\..\arduinoLCD\test\Pain Drain\libraries\lvgl\src\draw/lv_draw_label.c **** 
 865              		.loc 1 283 0
 866 03c2 B5F80C90 		ldrh	r9, [r5, #12]
 867              	.LVL115:
 285:..\..\..\arduinoLCD\test\Pain Drain\libraries\lvgl\src\draw/lv_draw_label.c **** 
 868              		.loc 1 285 0
 869 03c6 022F     		cmp	r7, #2
 870 03c8 01D1     		bne	.L45
 285:..\..\..\arduinoLCD\test\Pain Drain\libraries\lvgl\src\draw/lv_draw_label.c **** 
 871              		.loc 1 285 0 is_stmt 0 discriminator 1
 872 03ca BDF82E90 		ldrh	r9, [sp, #46]
 873              	.L45:
 287:..\..\..\arduinoLCD\test\Pain Drain\libraries\lvgl\src\draw/lv_draw_label.c **** 
 874              		.loc 1 287 0 is_stmt 1
 875 03ce 169A     		ldr	r2, [sp, #88]
 876 03d0 1599     		ldr	r1, [sp, #84]
 877 03d2 0698     		ldr	r0, [sp, #24]
 878 03d4 FFF7FEFF 		bl	lv_font_get_glyph_width
 879              	.LVL116:
 880 03d8 0446     		mov	r4, r0
 881              	.LVL117:
 289:..\..\..\arduinoLCD\test\Pain Drain\libraries\lvgl\src\draw/lv_draw_label.c ****                 if(logical_char_pos >= sel_start && logical_char_pos < sel_end) {
 882              		.loc 1 289 0
 883 03da 4FF6FF73 		movw	r3, #65535
 884 03de 9E42     		cmp	r6, r3
 885 03e0 21D0     		beq	.L46
 289:..\..\..\arduinoLCD\test\Pain Drain\libraries\lvgl\src\draw/lv_draw_label.c ****                 if(logical_char_pos >= sel_start && logical_char_pos < sel_end) {
 886              		.loc 1 289 0 is_stmt 0 discriminator 1
 887 03e2 9A45     		cmp	r10, r3
 888 03e4 1FD0     		beq	.L46
 290:..\..\..\arduinoLCD\test\Pain Drain\libraries\lvgl\src\draw/lv_draw_label.c ****                     lv_area_t sel_coords;
 889              		.loc 1 290 0 is_stmt 1
 890 03e6 059A     		ldr	r2, [sp, #20]
 891 03e8 9642     		cmp	r6, r2
 892 03ea 1CD8     		bhi	.L46
 290:..\..\..\arduinoLCD\test\Pain Drain\libraries\lvgl\src\draw/lv_draw_label.c ****                     lv_area_t sel_coords;
 893              		.loc 1 290 0 is_stmt 0 discriminator 1
 894 03ec 9245     		cmp	r10, r2
 895 03ee 1AD9     		bls	.L46
 896              	.LBB72:
 292:..\..\..\arduinoLCD\test\Pain Drain\libraries\lvgl\src\draw/lv_draw_label.c ****                     sel_coords.y1 = pos.y;
 897              		.loc 1 292 0 is_stmt 1
 898 03f0 BDF9AC20 		ldrsh	r2, [sp, #172]
 899 03f4 ADF85C20 		strh	r2, [sp, #92]	@ movhi
 293:..\..\..\arduinoLCD\test\Pain Drain\libraries\lvgl\src\draw/lv_draw_label.c ****                     sel_coords.x2 = pos.x + letter_w + dsc->letter_space - 1;
 900              		.loc 1 293 0
 901 03f8 BDF9AE30 		ldrsh	r3, [sp, #174]
 902 03fc ADF85E30 		strh	r3, [sp, #94]	@ movhi
 294:..\..\..\arduinoLCD\test\Pain Drain\libraries\lvgl\src\draw/lv_draw_label.c ****                     sel_coords.y2 = pos.y + line_height - 1;
 903              		.loc 1 294 0
ARM GAS  C:\Users\haske\AppData\Local\Temp\ccmIjDGo.s 			page 47


 904 0400 B5F91410 		ldrsh	r1, [r5, #20]
 905 0404 0244     		add	r2, r2, r0
 906 0406 0A44     		add	r2, r2, r1
 907 0408 013A     		subs	r2, r2, #1
 908 040a ADF86020 		strh	r2, [sp, #96]	@ movhi
 295:..\..\..\arduinoLCD\test\Pain Drain\libraries\lvgl\src\draw/lv_draw_label.c ****                     lv_draw_rect(draw_ctx, &draw_dsc_sel, &sel_coords);
 909              		.loc 1 295 0
 910 040e 0E9A     		ldr	r2, [sp, #56]
 911 0410 1344     		add	r3, r3, r2
 912 0412 013B     		subs	r3, r3, #1
 913 0414 ADF86230 		strh	r3, [sp, #98]	@ movhi
 296:..\..\..\arduinoLCD\test\Pain Drain\libraries\lvgl\src\draw/lv_draw_label.c ****                     color = dsc->sel_color;
 914              		.loc 1 296 0
 915 0418 17AA     		add	r2, sp, #92
 916 041a 19A9     		add	r1, sp, #100
 917 041c 0898     		ldr	r0, [sp, #32]
 918              	.LVL118:
 919 041e FFF7FEFF 		bl	lv_draw_rect
 920              	.LVL119:
 297:..\..\..\arduinoLCD\test\Pain Drain\libraries\lvgl\src\draw/lv_draw_label.c ****                 }
 921              		.loc 1 297 0
 922 0422 B5F80E90 		ldrh	r9, [r5, #14]
 923              	.L46:
 924              	.LVL120:
 925              	.LBE72:
 301:..\..\..\arduinoLCD\test\Pain Drain\libraries\lvgl\src\draw/lv_draw_label.c ****             lv_draw_letter(draw_ctx, &dsc_mod, &pos, letter);
 926              		.loc 1 301 0
 927 0426 ADF8C490 		strh	r9, [sp, #196]	@ movhi
 302:..\..\..\arduinoLCD\test\Pain Drain\libraries\lvgl\src\draw/lv_draw_label.c **** 
 928              		.loc 1 302 0
 929 042a 159B     		ldr	r3, [sp, #84]
 930 042c 2BAA     		add	r2, sp, #172
 931 042e 2EA9     		add	r1, sp, #184
 932 0430 0898     		ldr	r0, [sp, #32]
 933 0432 FFF7FEFF 		bl	lv_draw_letter
 934              	.LVL121:
 304:..\..\..\arduinoLCD\test\Pain Drain\libraries\lvgl\src\draw/lv_draw_label.c ****                 pos.x += letter_w + dsc->letter_space;
 935              		.loc 1 304 0
 936 0436 002C     		cmp	r4, #0
 937 0438 09DD     		ble	.L35
 305:..\..\..\arduinoLCD\test\Pain Drain\libraries\lvgl\src\draw/lv_draw_label.c ****             }
 938              		.loc 1 305 0
 939 043a B5F91430 		ldrsh	r3, [r5, #20]
 940 043e 1C44     		add	r4, r4, r3
 941              	.LVL122:
 942 0440 BDF8AC30 		ldrh	r3, [sp, #172]
 943 0444 1C44     		add	r4, r4, r3
 944 0446 ADF8AC40 		strh	r4, [sp, #172]	@ movhi
 945 044a 00E0     		b	.L35
 946              	.L66:
 255:..\..\..\arduinoLCD\test\Pain Drain\libraries\lvgl\src\draw/lv_draw_label.c ****                         continue;
 947              		.loc 1 255 0
 948 044c 0027     		movs	r7, #0
 949              	.LVL123:
 950              	.L35:
 951              	.LBE64:
 228:..\..\..\arduinoLCD\test\Pain Drain\libraries\lvgl\src\draw/lv_draw_label.c ****             uint32_t logical_char_pos = 0;
ARM GAS  C:\Users\haske\AppData\Local\Temp\ccmIjDGo.s 			page 48


 952              		.loc 1 228 0
 953 044e C8EB0B03 		rsb	r3, r8, fp
 954              	.LVL124:
 955 0452 2799     		ldr	r1, [sp, #156]
 956 0454 8B42     		cmp	r3, r1
 957 0456 3FF639AF 		bhi	.L49
 309:..\..\..\arduinoLCD\test\Pain Drain\libraries\lvgl\src\draw/lv_draw_label.c ****             lv_point_t p1;
 958              		.loc 1 309 0
 959 045a AB7F     		ldrb	r3, [r5, #30]	@ zero_extendqisi2
 960 045c 13F0020F 		tst	r3, #2
 961 0460 23D0     		beq	.L50
 962              	.LBB73:
 312:..\..\..\arduinoLCD\test\Pain Drain\libraries\lvgl\src\draw/lv_draw_label.c ****             p1.y = pos.y + (dsc->font->line_height / 2)  + line_dsc.width / 2;
 963              		.loc 1 312 0
 964 0462 BDF84430 		ldrh	r3, [sp, #68]
 965 0466 ADF85830 		strh	r3, [sp, #88]	@ movhi
 313:..\..\..\arduinoLCD\test\Pain Drain\libraries\lvgl\src\draw/lv_draw_label.c ****             p2.x = pos.x;
 966              		.loc 1 313 0
 967 046a BDF9AE10 		ldrsh	r1, [sp, #174]
 968 046e 2B68     		ldr	r3, [r5]
 969 0470 B3F90830 		ldrsh	r3, [r3, #8]
 970 0474 BDF9A200 		ldrsh	r0, [sp, #162]
 971 0478 03EBD373 		add	r3, r3, r3, lsr #31
 972 047c 01EB6302 		add	r2, r1, r3, asr #1
 973 0480 00EBD073 		add	r3, r0, r0, lsr #31
 974 0484 02EB6303 		add	r3, r2, r3, asr #1
 975 0488 1BB2     		sxth	r3, r3
 976 048a ADF85A30 		strh	r3, [sp, #90]	@ movhi
 314:..\..\..\arduinoLCD\test\Pain Drain\libraries\lvgl\src\draw/lv_draw_label.c ****             p2.y = p1.y;
 977              		.loc 1 314 0
 978 048e BDF9AC20 		ldrsh	r2, [sp, #172]
 979 0492 ADF85C20 		strh	r2, [sp, #92]	@ movhi
 315:..\..\..\arduinoLCD\test\Pain Drain\libraries\lvgl\src\draw/lv_draw_label.c ****             line_dsc.color = color;
 980              		.loc 1 315 0
 981 0496 ADF85E30 		strh	r3, [sp, #94]	@ movhi
 316:..\..\..\arduinoLCD\test\Pain Drain\libraries\lvgl\src\draw/lv_draw_label.c ****             lv_draw_line(draw_ctx, &line_dsc, &p1, &p2);
 982              		.loc 1 316 0
 983 049a ADF8A090 		strh	r9, [sp, #160]	@ movhi
 317:..\..\..\arduinoLCD\test\Pain Drain\libraries\lvgl\src\draw/lv_draw_label.c ****         }
 984              		.loc 1 317 0
 985 049e 17AB     		add	r3, sp, #92
 986 04a0 16AA     		add	r2, sp, #88
 987 04a2 28A9     		add	r1, sp, #160
 988 04a4 0898     		ldr	r0, [sp, #32]
 989 04a6 FFF7FEFF 		bl	lv_draw_line
 990              	.LVL125:
 991              	.L50:
 992              	.LBE73:
 320:..\..\..\arduinoLCD\test\Pain Drain\libraries\lvgl\src\draw/lv_draw_label.c ****             lv_point_t p1;
 993              		.loc 1 320 0
 994 04aa AB7F     		ldrb	r3, [r5, #30]	@ zero_extendqisi2
 995 04ac 13F0010F 		tst	r3, #1
 996 04b0 21D0     		beq	.L51
 997              	.LBB74:
 323:..\..\..\arduinoLCD\test\Pain Drain\libraries\lvgl\src\draw/lv_draw_label.c ****             p1.y = pos.y + dsc->font->line_height - dsc->font->base_line - font->underline_position
 998              		.loc 1 323 0
 999 04b2 BDF84430 		ldrh	r3, [sp, #68]
ARM GAS  C:\Users\haske\AppData\Local\Temp\ccmIjDGo.s 			page 49


 1000 04b6 ADF85830 		strh	r3, [sp, #88]	@ movhi
 324:..\..\..\arduinoLCD\test\Pain Drain\libraries\lvgl\src\draw/lv_draw_label.c ****             p2.x = pos.x;
 1001              		.loc 1 324 0
 1002 04ba BDF9AE00 		ldrsh	r0, [sp, #174]
 1003 04be 2968     		ldr	r1, [r5]
 1004 04c0 B1F90820 		ldrsh	r2, [r1, #8]
 1005 04c4 B1F90A30 		ldrsh	r3, [r1, #10]
 1006 04c8 0699     		ldr	r1, [sp, #24]
 1007 04ca 91F90D10 		ldrsb	r1, [r1, #13]
 1008 04ce 0244     		add	r2, r2, r0
 1009 04d0 D31A     		subs	r3, r2, r3
 1010 04d2 5B1A     		subs	r3, r3, r1
 1011 04d4 1BB2     		sxth	r3, r3
 1012 04d6 ADF85A30 		strh	r3, [sp, #90]	@ movhi
 325:..\..\..\arduinoLCD\test\Pain Drain\libraries\lvgl\src\draw/lv_draw_label.c ****             p2.y = p1.y;
 1013              		.loc 1 325 0
 1014 04da BDF9AC20 		ldrsh	r2, [sp, #172]
 1015 04de ADF85C20 		strh	r2, [sp, #92]	@ movhi
 326:..\..\..\arduinoLCD\test\Pain Drain\libraries\lvgl\src\draw/lv_draw_label.c ****             line_dsc.color = color;
 1016              		.loc 1 326 0
 1017 04e2 ADF85E30 		strh	r3, [sp, #94]	@ movhi
 327:..\..\..\arduinoLCD\test\Pain Drain\libraries\lvgl\src\draw/lv_draw_label.c ****             lv_draw_line(draw_ctx, &line_dsc, &p1, &p2);
 1018              		.loc 1 327 0
 1019 04e6 ADF8A090 		strh	r9, [sp, #160]	@ movhi
 328:..\..\..\arduinoLCD\test\Pain Drain\libraries\lvgl\src\draw/lv_draw_label.c ****         }
 1020              		.loc 1 328 0
 1021 04ea 17AB     		add	r3, sp, #92
 1022 04ec 16AA     		add	r2, sp, #88
 1023 04ee 28A9     		add	r1, sp, #160
 1024 04f0 0898     		ldr	r0, [sp, #32]
 1025 04f2 FFF7FEFF 		bl	lv_draw_line
 1026              	.LVL126:
 1027              	.L51:
 1028              	.LBE74:
 337:..\..\..\arduinoLCD\test\Pain Drain\libraries\lvgl\src\draw/lv_draw_label.c **** 
 1029              		.loc 1 337 0
 1030 04f6 099B     		ldr	r3, [sp, #36]
 1031 04f8 03EB0B07 		add	r7, r3, fp
 1032              	.LVL127:
 1033 04fc B5F91420 		ldrsh	r2, [r5, #20]
 1034 0500 6B7F     		ldrb	r3, [r5, #29]	@ zero_extendqisi2
 1035 0502 0193     		str	r3, [sp, #4]
 1036 0504 0023     		movs	r3, #0
 1037 0506 0093     		str	r3, [sp]
 1038 0508 0A9B     		ldr	r3, [sp, #40]
 1039 050a 0699     		ldr	r1, [sp, #24]
 1040 050c 3846     		mov	r0, r7
 1041 050e FFF7FEFF 		bl	_lv_txt_get_next_line
 1042              	.LVL128:
 1043 0512 0BEB0004 		add	r4, fp, r0
 1044              	.LVL129:
 339:..\..\..\arduinoLCD\test\Pain Drain\libraries\lvgl\src\draw/lv_draw_label.c ****         /*Align to middle*/
 1045              		.loc 1 339 0
 1046 0516 0D9B     		ldr	r3, [sp, #52]
 1047 0518 B3F90030 		ldrsh	r3, [r3]
 1048 051c ADF8AC30 		strh	r3, [sp, #172]	@ movhi
 341:..\..\..\arduinoLCD\test\Pain Drain\libraries\lvgl\src\draw/lv_draw_label.c ****             line_width =
ARM GAS  C:\Users\haske\AppData\Local\Temp\ccmIjDGo.s 			page 50


 1049              		.loc 1 341 0
 1050 0520 0C9B     		ldr	r3, [sp, #48]
 1051 0522 022B     		cmp	r3, #2
 1052 0524 1AD1     		bne	.L52
 343:..\..\..\arduinoLCD\test\Pain Drain\libraries\lvgl\src\draw/lv_draw_label.c **** 
 1053              		.loc 1 343 0
 1054 0526 B5F91430 		ldrsh	r3, [r5, #20]
 1055 052a 6A7F     		ldrb	r2, [r5, #29]	@ zero_extendqisi2
 1056 052c 0092     		str	r2, [sp]
 1057 052e 069A     		ldr	r2, [sp, #24]
 1058 0530 0146     		mov	r1, r0
 1059 0532 3846     		mov	r0, r7
 1060 0534 FFF7FEFF 		bl	lv_txt_get_width
 1061              	.LVL130:
 1062              	.LBB75:
 1063              	.LBB76:
 1064              		.loc 4 125 0
 1065 0538 0D9A     		ldr	r2, [sp, #52]
 1066 053a B2F90430 		ldrsh	r3, [r2, #4]
 1067 053e B2F90020 		ldrsh	r2, [r2]
 1068 0542 9B1A     		subs	r3, r3, r2
 1069 0544 0133     		adds	r3, r3, #1
 1070 0546 1BB2     		sxth	r3, r3
 1071              	.LVL131:
 1072              	.LBE76:
 1073              	.LBE75:
 345:..\..\..\arduinoLCD\test\Pain Drain\libraries\lvgl\src\draw/lv_draw_label.c **** 
 1074              		.loc 1 345 0
 1075 0548 181A     		subs	r0, r3, r0
 1076              	.LVL132:
 1077 054a 00EBD070 		add	r0, r0, r0, lsr #31
 1078 054e BDF8AC30 		ldrh	r3, [sp, #172]
 1079 0552 03EB6000 		add	r0, r3, r0, asr #1
 1080 0556 ADF8AC00 		strh	r0, [sp, #172]	@ movhi
 1081 055a 19E0     		b	.L53
 1082              	.L52:
 349:..\..\..\arduinoLCD\test\Pain Drain\libraries\lvgl\src\draw/lv_draw_label.c ****             line_width =
 1083              		.loc 1 349 0
 1084 055c 0C9B     		ldr	r3, [sp, #48]
 1085 055e 032B     		cmp	r3, #3
 1086 0560 16D1     		bne	.L53
 351:..\..\..\arduinoLCD\test\Pain Drain\libraries\lvgl\src\draw/lv_draw_label.c ****             pos.x += lv_area_get_width(coords) - line_width;
 1087              		.loc 1 351 0
 1088 0562 B5F91430 		ldrsh	r3, [r5, #20]
 1089 0566 6A7F     		ldrb	r2, [r5, #29]	@ zero_extendqisi2
 1090 0568 0092     		str	r2, [sp]
 1091 056a 069A     		ldr	r2, [sp, #24]
 1092 056c 0146     		mov	r1, r0
 1093 056e 3846     		mov	r0, r7
 1094 0570 FFF7FEFF 		bl	lv_txt_get_width
 1095              	.LVL133:
 1096              	.LBB77:
 1097              	.LBB78:
 1098              		.loc 4 125 0
 1099 0574 0D9A     		ldr	r2, [sp, #52]
 1100 0576 B2F90430 		ldrsh	r3, [r2, #4]
 1101 057a B2F90020 		ldrsh	r2, [r2]
ARM GAS  C:\Users\haske\AppData\Local\Temp\ccmIjDGo.s 			page 51


 1102 057e 9B1A     		subs	r3, r3, r2
 1103 0580 0133     		adds	r3, r3, #1
 1104 0582 1BB2     		sxth	r3, r3
 1105              	.LVL134:
 1106              	.LBE78:
 1107              	.LBE77:
 352:..\..\..\arduinoLCD\test\Pain Drain\libraries\lvgl\src\draw/lv_draw_label.c ****         }
 1108              		.loc 1 352 0
 1109 0584 181A     		subs	r0, r3, r0
 1110              	.LVL135:
 1111 0586 BDF8AC20 		ldrh	r2, [sp, #172]
 1112 058a 8318     		adds	r3, r0, r2
 1113 058c ADF8AC30 		strh	r3, [sp, #172]	@ movhi
 1114              	.L53:
 356:..\..\..\arduinoLCD\test\Pain Drain\libraries\lvgl\src\draw/lv_draw_label.c **** 
 1115              		.loc 1 356 0
 1116 0590 BDF8AE30 		ldrh	r3, [sp, #174]
 1117 0594 0E9A     		ldr	r2, [sp, #56]
 1118 0596 1344     		add	r3, r3, r2
 1119 0598 1BB2     		sxth	r3, r3
 1120 059a ADF8AE30 		strh	r3, [sp, #174]	@ movhi
 358:..\..\..\arduinoLCD\test\Pain Drain\libraries\lvgl\src\draw/lv_draw_label.c ****     }
 1121              		.loc 1 358 0
 1122 059e 089A     		ldr	r2, [sp, #32]
 1123 05a0 9268     		ldr	r2, [r2, #8]
 1124 05a2 B2F90620 		ldrsh	r2, [r2, #6]
 336:..\..\..\arduinoLCD\test\Pain Drain\libraries\lvgl\src\draw/lv_draw_label.c ****         line_end += _lv_txt_get_next_line(&txt[line_start], font, dsc->letter_space, w, NULL, dsc->
 1125              		.loc 1 336 0
 1126 05a6 D846     		mov	r8, fp
 358:..\..\..\arduinoLCD\test\Pain Drain\libraries\lvgl\src\draw/lv_draw_label.c ****     }
 1127              		.loc 1 358 0
 1128 05a8 9342     		cmp	r3, r2
 1129 05aa 09DC     		bgt	.L18
 1130              	.LVL136:
 337:..\..\..\arduinoLCD\test\Pain Drain\libraries\lvgl\src\draw/lv_draw_label.c **** 
 1131              		.loc 1 337 0
 1132 05ac A346     		mov	fp, r4
 1133              	.LVL137:
 1134              	.L34:
 1135              	.LBE63:
 215:..\..\..\arduinoLCD\test\Pain Drain\libraries\lvgl\src\draw/lv_draw_label.c ****         pos.x += x_ofs;
 1136              		.loc 1 215 0
 1137 05ae 099A     		ldr	r2, [sp, #36]
 1138 05b0 1346     		mov	r3, r2
 1139 05b2 4344     		add	r3, r3, r8
 1140 05b4 0793     		str	r3, [sp, #28]
 1141 05b6 12F80830 		ldrb	r3, [r2, r8]	@ zero_extendqisi2
 1142 05ba 002B     		cmp	r3, #0
 1143 05bc 7FF47DAE 		bne	.L54
 1144              	.LVL138:
 1145              	.L18:
 362:..\..\..\arduinoLCD\test\Pain Drain\libraries\lvgl\src\draw/lv_draw_label.c **** 
 1146              		.loc 1 362 0
 1147 05c0 37B0     		add	sp, sp, #220
 1148              		.cfi_def_cfa_offset 36
 1149              		@ sp needed
 1150 05c2 BDE8F08F 		pop	{r4, r5, r6, r7, r8, r9, r10, fp, pc}
ARM GAS  C:\Users\haske\AppData\Local\Temp\ccmIjDGo.s 			page 52


 1151              	.LVL139:
 1152              	.L69:
 1153 05c6 00BF     		.align	2
 1154              	.L68:
 1155 05c8 00000000 		.word	_lv_txt_encoded_get_char_id
 1156              		.cfi_endproc
 1157              	.LFE160:
 1158              		.size	lv_draw_label, .-lv_draw_label
 1159              		.text
 1160              	.Letext0:
 1161              		.file 7 "c:\\program files (x86)\\cypress\\psoc creator\\4.4\\psoc creator\\import\\gnu\\arm\\5.4.
 1162              		.file 8 "c:\\program files (x86)\\cypress\\psoc creator\\4.4\\psoc creator\\import\\gnu\\arm\\5.4.
 1163              		.file 9 "c:\\program files (x86)\\cypress\\psoc creator\\4.4\\psoc creator\\import\\gnu\\arm\\5.4.
 1164              		.file 10 "..\\..\\..\\arduinoLCD\\test\\Pain Drain\\libraries\\lvgl\\src\\draw\\../misc/lv_types.h
 1165              		.file 11 "..\\..\\..\\arduinoLCD\\test\\Pain Drain\\libraries\\lvgl\\src\\draw\\../misc/lv_txt.h"
 1166              		.file 12 "..\\..\\..\\arduinoLCD\\test\\Pain Drain\\libraries\\lvgl\\src\\draw\\../misc/lv_style.h
 1167              		.file 13 "..\\..\\..\\arduinoLCD\\test\\Pain Drain\\libraries\\lvgl\\src\\draw\\lv_img_buf.h"
 1168              		.file 14 "..\\..\\..\\arduinoLCD\\test\\Pain Drain\\libraries\\lvgl\\src\\draw\\lv_draw_rect.h"
 1169              		.file 15 "..\\..\\..\\arduinoLCD\\test\\Pain Drain\\libraries\\lvgl\\src\\draw\\lv_draw_label.h"
 1170              		.file 16 "..\\..\\..\\arduinoLCD\\test\\Pain Drain\\libraries\\lvgl\\src\\draw\\lv_draw_img.h"
 1171              		.file 17 "..\\..\\..\\arduinoLCD\\test\\Pain Drain\\libraries\\lvgl\\src\\draw\\lv_draw_line.h"
 1172              		.file 18 "..\\..\\..\\arduinoLCD\\test\\Pain Drain\\libraries\\lvgl\\src\\draw\\lv_draw_arc.h"
 1173              		.file 19 "..\\..\\..\\arduinoLCD\\test\\Pain Drain\\libraries\\lvgl\\src\\draw\\lv_draw_layer.h"
 1174              		.file 20 "..\\..\\..\\arduinoLCD\\test\\Pain Drain\\libraries\\lvgl\\src\\draw\\lv_draw.h"
 1175              		.section	.debug_info,"",%progbits
 1176              	.Ldebug_info0:
 1177 0000 85180000 		.4byte	0x1885
 1178 0004 0400     		.2byte	0x4
 1179 0006 00000000 		.4byte	.Ldebug_abbrev0
 1180 000a 04       		.byte	0x4
 1181 000b 01       		.uleb128 0x1
 1182 000c 34060000 		.4byte	.LASF270
 1183 0010 0C       		.byte	0xc
 1184 0011 6C040000 		.4byte	.LASF271
 1185 0015 F90C0000 		.4byte	.LASF272
 1186 0019 18000000 		.4byte	.Ldebug_ranges0+0x18
 1187 001d 00000000 		.4byte	0
 1188 0021 00000000 		.4byte	.Ldebug_line0
 1189 0025 02       		.uleb128 0x2
 1190 0026 080A0000 		.4byte	.LASF0
 1191 002a 07       		.byte	0x7
 1192 002b 1B       		.byte	0x1b
 1193 002c 30000000 		.4byte	0x30
 1194 0030 03       		.uleb128 0x3
 1195 0031 01       		.byte	0x1
 1196 0032 06       		.byte	0x6
 1197 0033 9F020000 		.4byte	.LASF2
 1198 0037 02       		.uleb128 0x2
 1199 0038 A2010000 		.4byte	.LASF1
 1200 003c 07       		.byte	0x7
 1201 003d 1D       		.byte	0x1d
 1202 003e 42000000 		.4byte	0x42
 1203 0042 03       		.uleb128 0x3
 1204 0043 01       		.byte	0x1
 1205 0044 08       		.byte	0x8
 1206 0045 13030000 		.4byte	.LASF3
 1207 0049 02       		.uleb128 0x2
ARM GAS  C:\Users\haske\AppData\Local\Temp\ccmIjDGo.s 			page 53


 1208 004a 100B0000 		.4byte	.LASF4
 1209 004e 07       		.byte	0x7
 1210 004f 29       		.byte	0x29
 1211 0050 54000000 		.4byte	0x54
 1212 0054 03       		.uleb128 0x3
 1213 0055 02       		.byte	0x2
 1214 0056 05       		.byte	0x5
 1215 0057 580C0000 		.4byte	.LASF5
 1216 005b 02       		.uleb128 0x2
 1217 005c 07040000 		.4byte	.LASF6
 1218 0060 07       		.byte	0x7
 1219 0061 2B       		.byte	0x2b
 1220 0062 66000000 		.4byte	0x66
 1221 0066 03       		.uleb128 0x3
 1222 0067 02       		.byte	0x2
 1223 0068 07       		.byte	0x7
 1224 0069 220E0000 		.4byte	.LASF7
 1225 006d 02       		.uleb128 0x2
 1226 006e 8F0E0000 		.4byte	.LASF8
 1227 0072 07       		.byte	0x7
 1228 0073 3F       		.byte	0x3f
 1229 0074 78000000 		.4byte	0x78
 1230 0078 03       		.uleb128 0x3
 1231 0079 04       		.byte	0x4
 1232 007a 05       		.byte	0x5
 1233 007b BE010000 		.4byte	.LASF9
 1234 007f 02       		.uleb128 0x2
 1235 0080 61070000 		.4byte	.LASF10
 1236 0084 07       		.byte	0x7
 1237 0085 41       		.byte	0x41
 1238 0086 8A000000 		.4byte	0x8a
 1239 008a 03       		.uleb128 0x3
 1240 008b 04       		.byte	0x4
 1241 008c 07       		.byte	0x7
 1242 008d A1050000 		.4byte	.LASF11
 1243 0091 03       		.uleb128 0x3
 1244 0092 08       		.byte	0x8
 1245 0093 05       		.byte	0x5
 1246 0094 8E070000 		.4byte	.LASF12
 1247 0098 03       		.uleb128 0x3
 1248 0099 08       		.byte	0x8
 1249 009a 07       		.byte	0x7
 1250 009b 270A0000 		.4byte	.LASF13
 1251 009f 04       		.uleb128 0x4
 1252 00a0 04       		.byte	0x4
 1253 00a1 05       		.byte	0x5
 1254 00a2 696E7400 		.ascii	"int\000"
 1255 00a6 03       		.uleb128 0x3
 1256 00a7 04       		.byte	0x4
 1257 00a8 07       		.byte	0x7
 1258 00a9 67080000 		.4byte	.LASF14
 1259 00ad 02       		.uleb128 0x2
 1260 00ae 00000000 		.4byte	.LASF15
 1261 00b2 08       		.byte	0x8
 1262 00b3 14       		.byte	0x14
 1263 00b4 25000000 		.4byte	0x25
 1264 00b8 02       		.uleb128 0x2
ARM GAS  C:\Users\haske\AppData\Local\Temp\ccmIjDGo.s 			page 54


 1265 00b9 AB020000 		.4byte	.LASF16
 1266 00bd 08       		.byte	0x8
 1267 00be 18       		.byte	0x18
 1268 00bf 37000000 		.4byte	0x37
 1269 00c3 02       		.uleb128 0x2
 1270 00c4 970C0000 		.4byte	.LASF17
 1271 00c8 08       		.byte	0x8
 1272 00c9 20       		.byte	0x20
 1273 00ca 49000000 		.4byte	0x49
 1274 00ce 02       		.uleb128 0x2
 1275 00cf 5F0A0000 		.4byte	.LASF18
 1276 00d3 08       		.byte	0x8
 1277 00d4 24       		.byte	0x24
 1278 00d5 5B000000 		.4byte	0x5b
 1279 00d9 02       		.uleb128 0x2
 1280 00da 6A000000 		.4byte	.LASF19
 1281 00de 08       		.byte	0x8
 1282 00df 2C       		.byte	0x2c
 1283 00e0 6D000000 		.4byte	0x6d
 1284 00e4 02       		.uleb128 0x2
 1285 00e5 D50D0000 		.4byte	.LASF20
 1286 00e9 08       		.byte	0x8
 1287 00ea 30       		.byte	0x30
 1288 00eb 7F000000 		.4byte	0x7f
 1289 00ef 02       		.uleb128 0x2
 1290 00f0 07000000 		.4byte	.LASF21
 1291 00f4 09       		.byte	0x9
 1292 00f5 D8       		.byte	0xd8
 1293 00f6 A6000000 		.4byte	0xa6
 1294 00fa 03       		.uleb128 0x3
 1295 00fb 08       		.byte	0x8
 1296 00fc 04       		.byte	0x4
 1297 00fd 45090000 		.4byte	.LASF22
 1298 0101 02       		.uleb128 0x2
 1299 0102 4B0E0000 		.4byte	.LASF23
 1300 0106 04       		.byte	0x4
 1301 0107 1B       		.byte	0x1b
 1302 0108 C3000000 		.4byte	0xc3
 1303 010c 05       		.uleb128 0x5
 1304 010d 04       		.byte	0x4
 1305 010e 04       		.byte	0x4
 1306 010f 25       		.byte	0x25
 1307 0110 29010000 		.4byte	0x129
 1308 0114 06       		.uleb128 0x6
 1309 0115 7800     		.ascii	"x\000"
 1310 0117 04       		.byte	0x4
 1311 0118 26       		.byte	0x26
 1312 0119 01010000 		.4byte	0x101
 1313 011d 00       		.byte	0
 1314 011e 06       		.uleb128 0x6
 1315 011f 7900     		.ascii	"y\000"
 1316 0121 04       		.byte	0x4
 1317 0122 27       		.byte	0x27
 1318 0123 01010000 		.4byte	0x101
 1319 0127 02       		.byte	0x2
 1320 0128 00       		.byte	0
 1321 0129 02       		.uleb128 0x2
ARM GAS  C:\Users\haske\AppData\Local\Temp\ccmIjDGo.s 			page 55


 1322 012a 72000000 		.4byte	.LASF24
 1323 012e 04       		.byte	0x4
 1324 012f 28       		.byte	0x28
 1325 0130 0C010000 		.4byte	0x10c
 1326 0134 05       		.uleb128 0x5
 1327 0135 08       		.byte	0x8
 1328 0136 04       		.byte	0x4
 1329 0137 2B       		.byte	0x2b
 1330 0138 69010000 		.4byte	0x169
 1331 013c 06       		.uleb128 0x6
 1332 013d 783100   		.ascii	"x1\000"
 1333 0140 04       		.byte	0x4
 1334 0141 2C       		.byte	0x2c
 1335 0142 01010000 		.4byte	0x101
 1336 0146 00       		.byte	0
 1337 0147 06       		.uleb128 0x6
 1338 0148 793100   		.ascii	"y1\000"
 1339 014b 04       		.byte	0x4
 1340 014c 2D       		.byte	0x2d
 1341 014d 01010000 		.4byte	0x101
 1342 0151 02       		.byte	0x2
 1343 0152 06       		.uleb128 0x6
 1344 0153 783200   		.ascii	"x2\000"
 1345 0156 04       		.byte	0x4
 1346 0157 2E       		.byte	0x2e
 1347 0158 01010000 		.4byte	0x101
 1348 015c 04       		.byte	0x4
 1349 015d 06       		.uleb128 0x6
 1350 015e 793200   		.ascii	"y2\000"
 1351 0161 04       		.byte	0x4
 1352 0162 2F       		.byte	0x2f
 1353 0163 01010000 		.4byte	0x101
 1354 0167 06       		.byte	0x6
 1355 0168 00       		.byte	0
 1356 0169 02       		.uleb128 0x2
 1357 016a 03050000 		.4byte	.LASF25
 1358 016e 04       		.byte	0x4
 1359 016f 30       		.byte	0x30
 1360 0170 34010000 		.4byte	0x134
 1361 0174 05       		.uleb128 0x5
 1362 0175 10       		.byte	0x10
 1363 0176 05       		.byte	0x5
 1364 0177 29       		.byte	0x29
 1365 0178 E3010000 		.4byte	0x1e3
 1366 017c 07       		.uleb128 0x7
 1367 017d 08060000 		.4byte	.LASF26
 1368 0181 05       		.byte	0x5
 1369 0182 2B       		.byte	0x2b
 1370 0183 6B020000 		.4byte	0x26b
 1371 0187 00       		.byte	0
 1372 0188 07       		.uleb128 0x7
 1373 0189 0E000000 		.4byte	.LASF27
 1374 018d 05       		.byte	0x5
 1375 018e 2C       		.byte	0x2c
 1376 018f CE000000 		.4byte	0xce
 1377 0193 04       		.byte	0x4
 1378 0194 07       		.uleb128 0x7
ARM GAS  C:\Users\haske\AppData\Local\Temp\ccmIjDGo.s 			page 56


 1379 0195 520C0000 		.4byte	.LASF28
 1380 0199 05       		.byte	0x5
 1381 019a 2D       		.byte	0x2d
 1382 019b CE000000 		.4byte	0xce
 1383 019f 06       		.byte	0x6
 1384 01a0 07       		.uleb128 0x7
 1385 01a1 0F0C0000 		.4byte	.LASF29
 1386 01a5 05       		.byte	0x5
 1387 01a6 2E       		.byte	0x2e
 1388 01a7 CE000000 		.4byte	0xce
 1389 01ab 08       		.byte	0x8
 1390 01ac 07       		.uleb128 0x7
 1391 01ad 5C030000 		.4byte	.LASF30
 1392 01b1 05       		.byte	0x5
 1393 01b2 2F       		.byte	0x2f
 1394 01b3 C3000000 		.4byte	0xc3
 1395 01b7 0A       		.byte	0xa
 1396 01b8 07       		.uleb128 0x7
 1397 01b9 62030000 		.4byte	.LASF31
 1398 01bd 05       		.byte	0x5
 1399 01be 30       		.byte	0x30
 1400 01bf C3000000 		.4byte	0xc3
 1401 01c3 0C       		.byte	0xc
 1402 01c4 08       		.uleb128 0x8
 1403 01c5 62707000 		.ascii	"bpp\000"
 1404 01c9 05       		.byte	0x5
 1405 01ca 31       		.byte	0x31
 1406 01cb B8000000 		.4byte	0xb8
 1407 01cf 01       		.byte	0x1
 1408 01d0 04       		.byte	0x4
 1409 01d1 04       		.byte	0x4
 1410 01d2 0E       		.byte	0xe
 1411 01d3 09       		.uleb128 0x9
 1412 01d4 330F0000 		.4byte	.LASF32
 1413 01d8 05       		.byte	0x5
 1414 01d9 32       		.byte	0x32
 1415 01da B8000000 		.4byte	0xb8
 1416 01de 01       		.byte	0x1
 1417 01df 01       		.byte	0x1
 1418 01e0 03       		.byte	0x3
 1419 01e1 0E       		.byte	0xe
 1420 01e2 00       		.byte	0
 1421 01e3 0A       		.uleb128 0xa
 1422 01e4 56070000 		.4byte	.LASF159
 1423 01e8 1C       		.byte	0x1c
 1424 01e9 05       		.byte	0x5
 1425 01ea 40       		.byte	0x40
 1426 01eb 6B020000 		.4byte	0x26b
 1427 01ef 07       		.uleb128 0x7
 1428 01f0 810E0000 		.4byte	.LASF33
 1429 01f4 05       		.byte	0x5
 1430 01f5 42       		.byte	0x42
 1431 01f6 AC020000 		.4byte	0x2ac
 1432 01fa 00       		.byte	0
 1433 01fb 07       		.uleb128 0x7
 1434 01fc E8020000 		.4byte	.LASF34
 1435 0200 05       		.byte	0x5
ARM GAS  C:\Users\haske\AppData\Local\Temp\ccmIjDGo.s 			page 57


 1436 0201 45       		.byte	0x45
 1437 0202 D1020000 		.4byte	0x2d1
 1438 0206 04       		.byte	0x4
 1439 0207 07       		.uleb128 0x7
 1440 0208 8D000000 		.4byte	.LASF35
 1441 020c 05       		.byte	0x5
 1442 020d 48       		.byte	0x48
 1443 020e 01010000 		.4byte	0x101
 1444 0212 08       		.byte	0x8
 1445 0213 07       		.uleb128 0x7
 1446 0214 620C0000 		.4byte	.LASF36
 1447 0218 05       		.byte	0x5
 1448 0219 49       		.byte	0x49
 1449 021a 01010000 		.4byte	0x101
 1450 021e 0A       		.byte	0xa
 1451 021f 09       		.uleb128 0x9
 1452 0220 72090000 		.4byte	.LASF37
 1453 0224 05       		.byte	0x5
 1454 0225 4A       		.byte	0x4a
 1455 0226 B8000000 		.4byte	0xb8
 1456 022a 01       		.byte	0x1
 1457 022b 02       		.byte	0x2
 1458 022c 06       		.byte	0x6
 1459 022d 0C       		.byte	0xc
 1460 022e 07       		.uleb128 0x7
 1461 022f BF030000 		.4byte	.LASF38
 1462 0233 05       		.byte	0x5
 1463 0234 4C       		.byte	0x4c
 1464 0235 AD000000 		.4byte	0xad
 1465 0239 0D       		.byte	0xd
 1466 023a 07       		.uleb128 0x7
 1467 023b 33080000 		.4byte	.LASF39
 1468 023f 05       		.byte	0x5
 1469 0240 4D       		.byte	0x4d
 1470 0241 AD000000 		.4byte	0xad
 1471 0245 0E       		.byte	0xe
 1472 0246 06       		.uleb128 0x6
 1473 0247 64736300 		.ascii	"dsc\000"
 1474 024b 05       		.byte	0x5
 1475 024c 4F       		.byte	0x4f
 1476 024d D7020000 		.4byte	0x2d7
 1477 0251 10       		.byte	0x10
 1478 0252 07       		.uleb128 0x7
 1479 0253 D0040000 		.4byte	.LASF40
 1480 0257 05       		.byte	0x5
 1481 0258 50       		.byte	0x50
 1482 0259 6B020000 		.4byte	0x26b
 1483 025d 14       		.byte	0x14
 1484 025e 07       		.uleb128 0x7
 1485 025f 5F0E0000 		.4byte	.LASF41
 1486 0263 05       		.byte	0x5
 1487 0264 52       		.byte	0x52
 1488 0265 DE020000 		.4byte	0x2de
 1489 0269 18       		.byte	0x18
 1490 026a 00       		.byte	0
 1491 026b 0B       		.uleb128 0xb
 1492 026c 04       		.byte	0x4
ARM GAS  C:\Users\haske\AppData\Local\Temp\ccmIjDGo.s 			page 58


 1493 026d 71020000 		.4byte	0x271
 1494 0271 0C       		.uleb128 0xc
 1495 0272 E3010000 		.4byte	0x1e3
 1496 0276 02       		.uleb128 0x2
 1497 0277 DE080000 		.4byte	.LASF42
 1498 027b 05       		.byte	0x5
 1499 027c 33       		.byte	0x33
 1500 027d 74010000 		.4byte	0x174
 1501 0281 0D       		.uleb128 0xd
 1502 0282 9F020000 		.4byte	0x29f
 1503 0286 9F020000 		.4byte	0x29f
 1504 028a 0E       		.uleb128 0xe
 1505 028b 6B020000 		.4byte	0x26b
 1506 028f 0E       		.uleb128 0xe
 1507 0290 A6020000 		.4byte	0x2a6
 1508 0294 0E       		.uleb128 0xe
 1509 0295 E4000000 		.4byte	0xe4
 1510 0299 0E       		.uleb128 0xe
 1511 029a E4000000 		.4byte	0xe4
 1512 029e 00       		.byte	0
 1513 029f 03       		.uleb128 0x3
 1514 02a0 01       		.byte	0x1
 1515 02a1 02       		.byte	0x2
 1516 02a2 76030000 		.4byte	.LASF43
 1517 02a6 0B       		.uleb128 0xb
 1518 02a7 04       		.byte	0x4
 1519 02a8 76020000 		.4byte	0x276
 1520 02ac 0B       		.uleb128 0xb
 1521 02ad 04       		.byte	0x4
 1522 02ae 81020000 		.4byte	0x281
 1523 02b2 0D       		.uleb128 0xd
 1524 02b3 C6020000 		.4byte	0x2c6
 1525 02b7 C6020000 		.4byte	0x2c6
 1526 02bb 0E       		.uleb128 0xe
 1527 02bc 6B020000 		.4byte	0x26b
 1528 02c0 0E       		.uleb128 0xe
 1529 02c1 E4000000 		.4byte	0xe4
 1530 02c5 00       		.byte	0
 1531 02c6 0B       		.uleb128 0xb
 1532 02c7 04       		.byte	0x4
 1533 02c8 CC020000 		.4byte	0x2cc
 1534 02cc 0C       		.uleb128 0xc
 1535 02cd B8000000 		.4byte	0xb8
 1536 02d1 0B       		.uleb128 0xb
 1537 02d2 04       		.byte	0x4
 1538 02d3 B2020000 		.4byte	0x2b2
 1539 02d7 0B       		.uleb128 0xb
 1540 02d8 04       		.byte	0x4
 1541 02d9 DD020000 		.4byte	0x2dd
 1542 02dd 0F       		.uleb128 0xf
 1543 02de 10       		.uleb128 0x10
 1544 02df 04       		.byte	0x4
 1545 02e0 02       		.uleb128 0x2
 1546 02e1 070E0000 		.4byte	.LASF44
 1547 02e5 05       		.byte	0x5
 1548 02e6 54       		.byte	0x54
 1549 02e7 E3010000 		.4byte	0x1e3
ARM GAS  C:\Users\haske\AppData\Local\Temp\ccmIjDGo.s 			page 59


 1550 02eb 02       		.uleb128 0x2
 1551 02ec 3C090000 		.4byte	.LASF45
 1552 02f0 0A       		.byte	0xa
 1553 02f1 2F       		.byte	0x2f
 1554 02f2 B8000000 		.4byte	0xb8
 1555 02f6 03       		.uleb128 0x3
 1556 02f7 04       		.byte	0x4
 1557 02f8 07       		.byte	0x7
 1558 02f9 14000000 		.4byte	.LASF46
 1559 02fd 03       		.uleb128 0x3
 1560 02fe 01       		.byte	0x1
 1561 02ff 08       		.byte	0x8
 1562 0300 A8030000 		.4byte	.LASF47
 1563 0304 0B       		.uleb128 0xb
 1564 0305 04       		.byte	0x4
 1565 0306 0A030000 		.4byte	0x30a
 1566 030a 0C       		.uleb128 0xc
 1567 030b FD020000 		.4byte	0x2fd
 1568 030f 11       		.uleb128 0x11
 1569 0310 01       		.byte	0x1
 1570 0311 42000000 		.4byte	0x42
 1571 0315 02       		.byte	0x2
 1572 0316 29       		.byte	0x29
 1573 0317 6A030000 		.4byte	0x36a
 1574 031b 12       		.uleb128 0x12
 1575 031c 4D080000 		.4byte	.LASF48
 1576 0320 00       		.byte	0
 1577 0321 12       		.uleb128 0x12
 1578 0322 E7060000 		.4byte	.LASF49
 1579 0326 00       		.byte	0
 1580 0327 12       		.uleb128 0x12
 1581 0328 D20A0000 		.4byte	.LASF50
 1582 032c 19       		.byte	0x19
 1583 032d 12       		.uleb128 0x12
 1584 032e 520B0000 		.4byte	.LASF51
 1585 0332 33       		.byte	0x33
 1586 0333 12       		.uleb128 0x12
 1587 0334 DD0B0000 		.4byte	.LASF52
 1588 0338 4C       		.byte	0x4c
 1589 0339 12       		.uleb128 0x12
 1590 033a 8D0C0000 		.4byte	.LASF53
 1591 033e 66       		.byte	0x66
 1592 033f 12       		.uleb128 0x12
 1593 0340 DD0C0000 		.4byte	.LASF54
 1594 0344 7F       		.byte	0x7f
 1595 0345 12       		.uleb128 0x12
 1596 0346 A00D0000 		.4byte	.LASF55
 1597 034a 99       		.byte	0x99
 1598 034b 12       		.uleb128 0x12
 1599 034c 180E0000 		.4byte	.LASF56
 1600 0350 B2       		.byte	0xb2
 1601 0351 12       		.uleb128 0x12
 1602 0352 CB0E0000 		.4byte	.LASF57
 1603 0356 CC       		.byte	0xcc
 1604 0357 12       		.uleb128 0x12
 1605 0358 4C0F0000 		.4byte	.LASF58
 1606 035c E5       		.byte	0xe5
ARM GAS  C:\Users\haske\AppData\Local\Temp\ccmIjDGo.s 			page 60


 1607 035d 12       		.uleb128 0x12
 1608 035e 2B090000 		.4byte	.LASF59
 1609 0362 FF       		.byte	0xff
 1610 0363 12       		.uleb128 0x12
 1611 0364 78090000 		.4byte	.LASF60
 1612 0368 FF       		.byte	0xff
 1613 0369 00       		.byte	0
 1614 036a 05       		.uleb128 0x5
 1615 036b 02       		.byte	0x2
 1616 036c 02       		.byte	0x2
 1617 036d D1       		.byte	0xd1
 1618 036e A0030000 		.4byte	0x3a0
 1619 0372 09       		.uleb128 0x9
 1620 0373 03030000 		.4byte	.LASF61
 1621 0377 02       		.byte	0x2
 1622 0378 D3       		.byte	0xd3
 1623 0379 CE000000 		.4byte	0xce
 1624 037d 02       		.byte	0x2
 1625 037e 05       		.byte	0x5
 1626 037f 0B       		.byte	0xb
 1627 0380 00       		.byte	0
 1628 0381 09       		.uleb128 0x9
 1629 0382 010E0000 		.4byte	.LASF62
 1630 0386 02       		.byte	0x2
 1631 0387 D4       		.byte	0xd4
 1632 0388 CE000000 		.4byte	0xce
 1633 038c 02       		.byte	0x2
 1634 038d 06       		.byte	0x6
 1635 038e 05       		.byte	0x5
 1636 038f 00       		.byte	0
 1637 0390 08       		.uleb128 0x8
 1638 0391 72656400 		.ascii	"red\000"
 1639 0395 02       		.byte	0x2
 1640 0396 D5       		.byte	0xd5
 1641 0397 CE000000 		.4byte	0xce
 1642 039b 02       		.byte	0x2
 1643 039c 05       		.byte	0x5
 1644 039d 00       		.byte	0
 1645 039e 00       		.byte	0
 1646 039f 00       		.byte	0
 1647 03a0 13       		.uleb128 0x13
 1648 03a1 02       		.byte	0x2
 1649 03a2 02       		.byte	0x2
 1650 03a3 D0       		.byte	0xd0
 1651 03a4 BE030000 		.4byte	0x3be
 1652 03a8 14       		.uleb128 0x14
 1653 03a9 636800   		.ascii	"ch\000"
 1654 03ac 02       		.byte	0x2
 1655 03ad DC       		.byte	0xdc
 1656 03ae 6A030000 		.4byte	0x36a
 1657 03b2 15       		.uleb128 0x15
 1658 03b3 390B0000 		.4byte	.LASF63
 1659 03b7 02       		.byte	0x2
 1660 03b8 DD       		.byte	0xdd
 1661 03b9 CE000000 		.4byte	0xce
 1662 03bd 00       		.byte	0
 1663 03be 02       		.uleb128 0x2
ARM GAS  C:\Users\haske\AppData\Local\Temp\ccmIjDGo.s 			page 61


 1664 03bf 450C0000 		.4byte	.LASF64
 1665 03c3 02       		.byte	0x2
 1666 03c4 DE       		.byte	0xde
 1667 03c5 A0030000 		.4byte	0x3a0
 1668 03c9 02       		.uleb128 0x2
 1669 03ca 890A0000 		.4byte	.LASF65
 1670 03ce 02       		.byte	0x2
 1671 03cf EB       		.byte	0xeb
 1672 03d0 BE030000 		.4byte	0x3be
 1673 03d4 02       		.uleb128 0x2
 1674 03d5 59000000 		.4byte	.LASF66
 1675 03d9 02       		.byte	0x2
 1676 03da F5       		.byte	0xf5
 1677 03db B8000000 		.4byte	0xb8
 1678 03df 16       		.uleb128 0x16
 1679 03e0 01       		.byte	0x1
 1680 03e1 42000000 		.4byte	0x42
 1681 03e5 02       		.byte	0x2
 1682 03e6 0201     		.2byte	0x102
 1683 03e8 6B040000 		.4byte	0x46b
 1684 03ec 12       		.uleb128 0x12
 1685 03ed EF050000 		.4byte	.LASF67
 1686 03f1 00       		.byte	0
 1687 03f2 12       		.uleb128 0x12
 1688 03f3 F10D0000 		.4byte	.LASF68
 1689 03f7 01       		.byte	0x1
 1690 03f8 12       		.uleb128 0x12
 1691 03f9 6C070000 		.4byte	.LASF69
 1692 03fd 02       		.byte	0x2
 1693 03fe 12       		.uleb128 0x12
 1694 03ff DF0E0000 		.4byte	.LASF70
 1695 0403 03       		.byte	0x3
 1696 0404 12       		.uleb128 0x12
 1697 0405 F60E0000 		.4byte	.LASF71
 1698 0409 04       		.byte	0x4
 1699 040a 12       		.uleb128 0x12
 1700 040b F8090000 		.4byte	.LASF72
 1701 040f 05       		.byte	0x5
 1702 0410 12       		.uleb128 0x12
 1703 0411 12020000 		.4byte	.LASF73
 1704 0415 06       		.byte	0x6
 1705 0416 12       		.uleb128 0x12
 1706 0417 C7010000 		.4byte	.LASF74
 1707 041b 07       		.byte	0x7
 1708 041c 12       		.uleb128 0x12
 1709 041d 790A0000 		.4byte	.LASF75
 1710 0421 08       		.byte	0x8
 1711 0422 12       		.uleb128 0x12
 1712 0423 940A0000 		.4byte	.LASF76
 1713 0427 09       		.byte	0x9
 1714 0428 12       		.uleb128 0x12
 1715 0429 2E070000 		.4byte	.LASF77
 1716 042d 0A       		.byte	0xa
 1717 042e 12       		.uleb128 0x12
 1718 042f C60C0000 		.4byte	.LASF78
 1719 0433 0B       		.byte	0xb
 1720 0434 12       		.uleb128 0x12
ARM GAS  C:\Users\haske\AppData\Local\Temp\ccmIjDGo.s 			page 62


 1721 0435 270B0000 		.4byte	.LASF79
 1722 0439 0C       		.byte	0xc
 1723 043a 12       		.uleb128 0x12
 1724 043b D6070000 		.4byte	.LASF80
 1725 043f 0D       		.byte	0xd
 1726 0440 12       		.uleb128 0x12
 1727 0441 42020000 		.4byte	.LASF81
 1728 0445 0E       		.byte	0xe
 1729 0446 12       		.uleb128 0x12
 1730 0447 EC040000 		.4byte	.LASF82
 1731 044b 0F       		.byte	0xf
 1732 044c 12       		.uleb128 0x12
 1733 044d 17010000 		.4byte	.LASF83
 1734 0451 10       		.byte	0x10
 1735 0452 12       		.uleb128 0x12
 1736 0453 8C050000 		.4byte	.LASF84
 1737 0457 11       		.byte	0x11
 1738 0458 12       		.uleb128 0x12
 1739 0459 900D0000 		.4byte	.LASF85
 1740 045d 12       		.byte	0x12
 1741 045e 12       		.uleb128 0x12
 1742 045f D2030000 		.4byte	.LASF86
 1743 0463 13       		.byte	0x13
 1744 0464 12       		.uleb128 0x12
 1745 0465 4B010000 		.4byte	.LASF87
 1746 0469 FF       		.byte	0xff
 1747 046a 00       		.byte	0
 1748 046b 11       		.uleb128 0x11
 1749 046c 01       		.byte	0x1
 1750 046d 42000000 		.4byte	0x42
 1751 0471 0B       		.byte	0xb
 1752 0472 2A       		.byte	0x2a
 1753 0473 90040000 		.4byte	0x490
 1754 0477 12       		.uleb128 0x12
 1755 0478 68010000 		.4byte	.LASF88
 1756 047c 00       		.byte	0
 1757 047d 12       		.uleb128 0x12
 1758 047e 0C090000 		.4byte	.LASF89
 1759 0482 01       		.byte	0x1
 1760 0483 12       		.uleb128 0x12
 1761 0484 990E0000 		.4byte	.LASF90
 1762 0488 02       		.byte	0x2
 1763 0489 12       		.uleb128 0x12
 1764 048a 7E020000 		.4byte	.LASF91
 1765 048e 04       		.byte	0x4
 1766 048f 00       		.byte	0
 1767 0490 02       		.uleb128 0x2
 1768 0491 C30A0000 		.4byte	.LASF92
 1769 0495 0B       		.byte	0xb
 1770 0496 30       		.byte	0x30
 1771 0497 B8000000 		.4byte	0xb8
 1772 049b 11       		.uleb128 0x11
 1773 049c 01       		.byte	0x1
 1774 049d 42000000 		.4byte	0x42
 1775 04a1 0B       		.byte	0xb
 1776 04a2 3C       		.byte	0x3c
 1777 04a3 C0040000 		.4byte	0x4c0
ARM GAS  C:\Users\haske\AppData\Local\Temp\ccmIjDGo.s 			page 63


 1778 04a7 12       		.uleb128 0x12
 1779 04a8 4C040000 		.4byte	.LASF93
 1780 04ac 00       		.byte	0
 1781 04ad 12       		.uleb128 0x12
 1782 04ae 2F020000 		.4byte	.LASF94
 1783 04b2 01       		.byte	0x1
 1784 04b3 12       		.uleb128 0x12
 1785 04b4 1F060000 		.4byte	.LASF95
 1786 04b8 02       		.byte	0x2
 1787 04b9 12       		.uleb128 0x12
 1788 04ba 1D000000 		.4byte	.LASF96
 1789 04be 03       		.byte	0x3
 1790 04bf 00       		.byte	0
 1791 04c0 02       		.uleb128 0x2
 1792 04c1 0F080000 		.4byte	.LASF97
 1793 04c5 0B       		.byte	0xb
 1794 04c6 42       		.byte	0x42
 1795 04c7 B8000000 		.4byte	0xb8
 1796 04cb 11       		.uleb128 0x11
 1797 04cc 01       		.byte	0x1
 1798 04cd 42000000 		.4byte	0x42
 1799 04d1 03       		.byte	0x3
 1800 04d2 21       		.byte	0x21
 1801 04d3 F6040000 		.4byte	0x4f6
 1802 04d7 12       		.uleb128 0x12
 1803 04d8 BB0E0000 		.4byte	.LASF98
 1804 04dc 00       		.byte	0
 1805 04dd 12       		.uleb128 0x12
 1806 04de 02020000 		.4byte	.LASF99
 1807 04e2 01       		.byte	0x1
 1808 04e3 12       		.uleb128 0x12
 1809 04e4 220F0000 		.4byte	.LASF100
 1810 04e8 02       		.byte	0x2
 1811 04e9 12       		.uleb128 0x12
 1812 04ea 1F080000 		.4byte	.LASF101
 1813 04ee 20       		.byte	0x20
 1814 04ef 12       		.uleb128 0x12
 1815 04f0 4B030000 		.4byte	.LASF102
 1816 04f4 21       		.byte	0x21
 1817 04f5 00       		.byte	0
 1818 04f6 02       		.uleb128 0x2
 1819 04f7 68030000 		.4byte	.LASF103
 1820 04fb 03       		.byte	0x3
 1821 04fc 2A       		.byte	0x2a
 1822 04fd B8000000 		.4byte	0xb8
 1823 0501 02       		.uleb128 0x2
 1824 0502 99000000 		.4byte	.LASF104
 1825 0506 0C       		.byte	0xc
 1826 0507 5E       		.byte	0x5e
 1827 0508 B8000000 		.4byte	0xb8
 1828 050c 11       		.uleb128 0x11
 1829 050d 01       		.byte	0x1
 1830 050e 42000000 		.4byte	0x42
 1831 0512 0C       		.byte	0xc
 1832 0513 64       		.byte	0x64
 1833 0514 2B050000 		.4byte	0x52b
 1834 0518 12       		.uleb128 0x12
ARM GAS  C:\Users\haske\AppData\Local\Temp\ccmIjDGo.s 			page 64


 1835 0519 E20A0000 		.4byte	.LASF105
 1836 051d 00       		.byte	0
 1837 051e 12       		.uleb128 0x12
 1838 051f 9C070000 		.4byte	.LASF106
 1839 0523 01       		.byte	0x1
 1840 0524 12       		.uleb128 0x12
 1841 0525 620B0000 		.4byte	.LASF107
 1842 0529 02       		.byte	0x2
 1843 052a 00       		.byte	0
 1844 052b 02       		.uleb128 0x2
 1845 052c 7E070000 		.4byte	.LASF108
 1846 0530 0C       		.byte	0xc
 1847 0531 6A       		.byte	0x6a
 1848 0532 B8000000 		.4byte	0xb8
 1849 0536 02       		.uleb128 0x2
 1850 0537 B50B0000 		.4byte	.LASF109
 1851 053b 0C       		.byte	0xc
 1852 053c 79       		.byte	0x79
 1853 053d B8000000 		.4byte	0xb8
 1854 0541 02       		.uleb128 0x2
 1855 0542 AD0E0000 		.4byte	.LASF110
 1856 0546 0C       		.byte	0xc
 1857 0547 84       		.byte	0x84
 1858 0548 B8000000 		.4byte	0xb8
 1859 054c 02       		.uleb128 0x2
 1860 054d 51090000 		.4byte	.LASF111
 1861 0551 0C       		.byte	0xc
 1862 0552 90       		.byte	0x90
 1863 0553 B8000000 		.4byte	0xb8
 1864 0557 05       		.uleb128 0x5
 1865 0558 04       		.byte	0x4
 1866 0559 0C       		.byte	0xc
 1867 055a 95       		.byte	0x95
 1868 055b 78050000 		.4byte	0x578
 1869 055f 07       		.uleb128 0x7
 1870 0560 5C0B0000 		.4byte	.LASF112
 1871 0564 0C       		.byte	0xc
 1872 0565 96       		.byte	0x96
 1873 0566 C9030000 		.4byte	0x3c9
 1874 056a 00       		.byte	0
 1875 056b 07       		.uleb128 0x7
 1876 056c C60B0000 		.4byte	.LASF113
 1877 0570 0C       		.byte	0xc
 1878 0571 97       		.byte	0x97
 1879 0572 B8000000 		.4byte	0xb8
 1880 0576 02       		.byte	0x2
 1881 0577 00       		.byte	0
 1882 0578 02       		.uleb128 0x2
 1883 0579 7D0D0000 		.4byte	.LASF114
 1884 057d 0C       		.byte	0xc
 1885 057e 98       		.byte	0x98
 1886 057f 57050000 		.4byte	0x557
 1887 0583 05       		.uleb128 0x5
 1888 0584 0A       		.byte	0xa
 1889 0585 0C       		.byte	0xc
 1890 0586 9B       		.byte	0x9b
 1891 0587 C2050000 		.4byte	0x5c2
ARM GAS  C:\Users\haske\AppData\Local\Temp\ccmIjDGo.s 			page 65


 1892 058b 07       		.uleb128 0x7
 1893 058c 7E0B0000 		.4byte	.LASF115
 1894 0590 0C       		.byte	0xc
 1895 0591 9C       		.byte	0x9c
 1896 0592 C2050000 		.4byte	0x5c2
 1897 0596 00       		.byte	0
 1898 0597 07       		.uleb128 0x7
 1899 0598 FB030000 		.4byte	.LASF116
 1900 059c 0C       		.byte	0xc
 1901 059d 9D       		.byte	0x9d
 1902 059e B8000000 		.4byte	0xb8
 1903 05a2 08       		.byte	0x8
 1904 05a3 08       		.uleb128 0x8
 1905 05a4 64697200 		.ascii	"dir\000"
 1906 05a8 0C       		.byte	0xc
 1907 05a9 9E       		.byte	0x9e
 1908 05aa 41050000 		.4byte	0x541
 1909 05ae 01       		.byte	0x1
 1910 05af 03       		.byte	0x3
 1911 05b0 05       		.byte	0x5
 1912 05b1 09       		.byte	0x9
 1913 05b2 09       		.uleb128 0x9
 1914 05b3 110E0000 		.4byte	.LASF117
 1915 05b7 0C       		.byte	0xc
 1916 05b8 A0       		.byte	0xa0
 1917 05b9 4C050000 		.4byte	0x54c
 1918 05bd 01       		.byte	0x1
 1919 05be 03       		.byte	0x3
 1920 05bf 02       		.byte	0x2
 1921 05c0 09       		.byte	0x9
 1922 05c1 00       		.byte	0
 1923 05c2 17       		.uleb128 0x17
 1924 05c3 78050000 		.4byte	0x578
 1925 05c7 D2050000 		.4byte	0x5d2
 1926 05cb 18       		.uleb128 0x18
 1927 05cc F6020000 		.4byte	0x2f6
 1928 05d0 01       		.byte	0x1
 1929 05d1 00       		.byte	0
 1930 05d2 02       		.uleb128 0x2
 1931 05d3 3E0A0000 		.4byte	.LASF118
 1932 05d7 0C       		.byte	0xc
 1933 05d8 A2       		.byte	0xa2
 1934 05d9 83050000 		.4byte	0x583
 1935 05dd 0B       		.uleb128 0xb
 1936 05de 04       		.byte	0x4
 1937 05df B8000000 		.4byte	0xb8
 1938 05e3 02       		.uleb128 0x2
 1939 05e4 B3050000 		.4byte	.LASF119
 1940 05e8 0D       		.byte	0xd
 1941 05e9 69       		.byte	0x69
 1942 05ea B8000000 		.4byte	0xb8
 1943 05ee 0B       		.uleb128 0xb
 1944 05ef 04       		.byte	0x4
 1945 05f0 C9030000 		.4byte	0x3c9
 1946 05f4 05       		.uleb128 0x5
 1947 05f5 38       		.byte	0x38
 1948 05f6 0E       		.byte	0xe
ARM GAS  C:\Users\haske\AppData\Local\Temp\ccmIjDGo.s 			page 66


 1949 05f7 20       		.byte	0x20
 1950 05f8 3B070000 		.4byte	0x73b
 1951 05fc 07       		.uleb128 0x7
 1952 05fd 7D000000 		.4byte	.LASF120
 1953 0601 0E       		.byte	0xe
 1954 0602 21       		.byte	0x21
 1955 0603 01010000 		.4byte	0x101
 1956 0607 00       		.byte	0
 1957 0608 07       		.uleb128 0x7
 1958 0609 AC010000 		.4byte	.LASF121
 1959 060d 0E       		.byte	0xe
 1960 060e 22       		.byte	0x22
 1961 060f 01050000 		.4byte	0x501
 1962 0613 02       		.byte	0x2
 1963 0614 07       		.uleb128 0x7
 1964 0615 E7010000 		.4byte	.LASF122
 1965 0619 0E       		.byte	0xe
 1966 061a 25       		.byte	0x25
 1967 061b D4030000 		.4byte	0x3d4
 1968 061f 03       		.byte	0x3
 1969 0620 07       		.uleb128 0x7
 1970 0621 84000000 		.4byte	.LASF123
 1971 0625 0E       		.byte	0xe
 1972 0626 26       		.byte	0x26
 1973 0627 C9030000 		.4byte	0x3c9
 1974 062b 04       		.byte	0x4
 1975 062c 07       		.uleb128 0x7
 1976 062d 4C0D0000 		.4byte	.LASF124
 1977 0631 0E       		.byte	0xe
 1978 0632 27       		.byte	0x27
 1979 0633 D2050000 		.4byte	0x5d2
 1980 0637 06       		.byte	0x6
 1981 0638 07       		.uleb128 0x7
 1982 0639 28010000 		.4byte	.LASF125
 1983 063d 0E       		.byte	0xe
 1984 063e 2A       		.byte	0x2a
 1985 063f D7020000 		.4byte	0x2d7
 1986 0643 10       		.byte	0x10
 1987 0644 07       		.uleb128 0x7
 1988 0645 64050000 		.4byte	.LASF126
 1989 0649 0E       		.byte	0xe
 1990 064a 2B       		.byte	0x2b
 1991 064b D7020000 		.4byte	0x2d7
 1992 064f 14       		.byte	0x14
 1993 0650 07       		.uleb128 0x7
 1994 0651 360C0000 		.4byte	.LASF127
 1995 0655 0E       		.byte	0xe
 1996 0656 2C       		.byte	0x2c
 1997 0657 C9030000 		.4byte	0x3c9
 1998 065b 18       		.byte	0x18
 1999 065c 07       		.uleb128 0x7
 2000 065d 08030000 		.4byte	.LASF128
 2001 0661 0E       		.byte	0xe
 2002 0662 2D       		.byte	0x2d
 2003 0663 D4030000 		.4byte	0x3d4
 2004 0667 1A       		.byte	0x1a
 2005 0668 07       		.uleb128 0x7
ARM GAS  C:\Users\haske\AppData\Local\Temp\ccmIjDGo.s 			page 67


 2006 0669 95090000 		.4byte	.LASF129
 2007 066d 0E       		.byte	0xe
 2008 066e 2E       		.byte	0x2e
 2009 066f D4030000 		.4byte	0x3d4
 2010 0673 1B       		.byte	0x1b
 2011 0674 07       		.uleb128 0x7
 2012 0675 BD020000 		.4byte	.LASF130
 2013 0679 0E       		.byte	0xe
 2014 067a 2F       		.byte	0x2f
 2015 067b B8000000 		.4byte	0xb8
 2016 067f 1C       		.byte	0x1c
 2017 0680 07       		.uleb128 0x7
 2018 0681 5F040000 		.4byte	.LASF131
 2019 0685 0E       		.byte	0xe
 2020 0686 32       		.byte	0x32
 2021 0687 C9030000 		.4byte	0x3c9
 2022 068b 1E       		.byte	0x1e
 2023 068c 07       		.uleb128 0x7
 2024 068d B60A0000 		.4byte	.LASF132
 2025 0691 0E       		.byte	0xe
 2026 0692 33       		.byte	0x33
 2027 0693 01010000 		.4byte	0x101
 2028 0697 20       		.byte	0x20
 2029 0698 07       		.uleb128 0x7
 2030 0699 410D0000 		.4byte	.LASF133
 2031 069d 0E       		.byte	0xe
 2032 069e 34       		.byte	0x34
 2033 069f D4030000 		.4byte	0x3d4
 2034 06a3 22       		.byte	0x22
 2035 06a4 09       		.uleb128 0x9
 2036 06a5 B8040000 		.4byte	.LASF134
 2037 06a9 0E       		.byte	0xe
 2038 06aa 35       		.byte	0x35
 2039 06ab B8000000 		.4byte	0xb8
 2040 06af 01       		.byte	0x1
 2041 06b0 01       		.byte	0x1
 2042 06b1 07       		.byte	0x7
 2043 06b2 23       		.byte	0x23
 2044 06b3 09       		.uleb128 0x9
 2045 06b4 96010000 		.4byte	.LASF135
 2046 06b8 0E       		.byte	0xe
 2047 06b9 36       		.byte	0x36
 2048 06ba 36050000 		.4byte	0x536
 2049 06be 01       		.byte	0x1
 2050 06bf 05       		.byte	0x5
 2051 06c0 02       		.byte	0x2
 2052 06c1 23       		.byte	0x23
 2053 06c2 07       		.uleb128 0x7
 2054 06c3 60020000 		.4byte	.LASF136
 2055 06c7 0E       		.byte	0xe
 2056 06c8 39       		.byte	0x39
 2057 06c9 C9030000 		.4byte	0x3c9
 2058 06cd 24       		.byte	0x24
 2059 06ce 07       		.uleb128 0x7
 2060 06cf F2080000 		.4byte	.LASF137
 2061 06d3 0E       		.byte	0xe
 2062 06d4 3A       		.byte	0x3a
ARM GAS  C:\Users\haske\AppData\Local\Temp\ccmIjDGo.s 			page 68


 2063 06d5 01010000 		.4byte	0x101
 2064 06d9 26       		.byte	0x26
 2065 06da 07       		.uleb128 0x7
 2066 06db 25040000 		.4byte	.LASF138
 2067 06df 0E       		.byte	0xe
 2068 06e0 3B       		.byte	0x3b
 2069 06e1 01010000 		.4byte	0x101
 2070 06e5 28       		.byte	0x28
 2071 06e6 07       		.uleb128 0x7
 2072 06e7 AA080000 		.4byte	.LASF139
 2073 06eb 0E       		.byte	0xe
 2074 06ec 3C       		.byte	0x3c
 2075 06ed D4030000 		.4byte	0x3d4
 2076 06f1 2A       		.byte	0x2a
 2077 06f2 07       		.uleb128 0x7
 2078 06f3 B4070000 		.4byte	.LASF140
 2079 06f7 0E       		.byte	0xe
 2080 06f8 3F       		.byte	0x3f
 2081 06f9 C9030000 		.4byte	0x3c9
 2082 06fd 2C       		.byte	0x2c
 2083 06fe 07       		.uleb128 0x7
 2084 06ff E40D0000 		.4byte	.LASF141
 2085 0703 0E       		.byte	0xe
 2086 0704 40       		.byte	0x40
 2087 0705 01010000 		.4byte	0x101
 2088 0709 2E       		.byte	0x2e
 2089 070a 07       		.uleb128 0x7
 2090 070b 080F0000 		.4byte	.LASF142
 2091 070f 0E       		.byte	0xe
 2092 0710 41       		.byte	0x41
 2093 0711 01010000 		.4byte	0x101
 2094 0715 30       		.byte	0x30
 2095 0716 07       		.uleb128 0x7
 2096 0717 150F0000 		.4byte	.LASF143
 2097 071b 0E       		.byte	0xe
 2098 071c 42       		.byte	0x42
 2099 071d 01010000 		.4byte	0x101
 2100 0721 32       		.byte	0x32
 2101 0722 07       		.uleb128 0x7
 2102 0723 40050000 		.4byte	.LASF144
 2103 0727 0E       		.byte	0xe
 2104 0728 43       		.byte	0x43
 2105 0729 01010000 		.4byte	0x101
 2106 072d 34       		.byte	0x34
 2107 072e 07       		.uleb128 0x7
 2108 072f 820C0000 		.4byte	.LASF145
 2109 0733 0E       		.byte	0xe
 2110 0734 44       		.byte	0x44
 2111 0735 D4030000 		.4byte	0x3d4
 2112 0739 36       		.byte	0x36
 2113 073a 00       		.byte	0
 2114 073b 02       		.uleb128 0x2
 2115 073c 4C0A0000 		.4byte	.LASF146
 2116 0740 0E       		.byte	0xe
 2117 0741 45       		.byte	0x45
 2118 0742 F4050000 		.4byte	0x5f4
 2119 0746 05       		.uleb128 0x5
ARM GAS  C:\Users\haske\AppData\Local\Temp\ccmIjDGo.s 			page 69


 2120 0747 20       		.byte	0x20
 2121 0748 0F       		.byte	0xf
 2122 0749 1E       		.byte	0x1e
 2123 074a 15080000 		.4byte	0x815
 2124 074e 07       		.uleb128 0x7
 2125 074f CB0B0000 		.4byte	.LASF147
 2126 0753 0F       		.byte	0xf
 2127 0754 1F       		.byte	0x1f
 2128 0755 15080000 		.4byte	0x815
 2129 0759 00       		.byte	0
 2130 075a 07       		.uleb128 0x7
 2131 075b CB0D0000 		.4byte	.LASF148
 2132 075f 0F       		.byte	0xf
 2133 0760 20       		.byte	0x20
 2134 0761 E4000000 		.4byte	0xe4
 2135 0765 04       		.byte	0x4
 2136 0766 07       		.uleb128 0x7
 2137 0767 7E080000 		.4byte	.LASF149
 2138 076b 0F       		.byte	0xf
 2139 076c 21       		.byte	0x21
 2140 076d E4000000 		.4byte	0xe4
 2141 0771 08       		.byte	0x8
 2142 0772 07       		.uleb128 0x7
 2143 0773 5C0B0000 		.4byte	.LASF112
 2144 0777 0F       		.byte	0xf
 2145 0778 22       		.byte	0x22
 2146 0779 C9030000 		.4byte	0x3c9
 2147 077d 0C       		.byte	0xc
 2148 077e 07       		.uleb128 0x7
 2149 077f D50E0000 		.4byte	.LASF150
 2150 0783 0F       		.byte	0xf
 2151 0784 23       		.byte	0x23
 2152 0785 C9030000 		.4byte	0x3c9
 2153 0789 0E       		.byte	0xe
 2154 078a 07       		.uleb128 0x7
 2155 078b 3E010000 		.4byte	.LASF151
 2156 078f 0F       		.byte	0xf
 2157 0790 24       		.byte	0x24
 2158 0791 C9030000 		.4byte	0x3c9
 2159 0795 10       		.byte	0x10
 2160 0796 07       		.uleb128 0x7
 2161 0797 840B0000 		.4byte	.LASF152
 2162 079b 0F       		.byte	0xf
 2163 079c 25       		.byte	0x25
 2164 079d 01010000 		.4byte	0x101
 2165 07a1 12       		.byte	0x12
 2166 07a2 07       		.uleb128 0x7
 2167 07a3 D00B0000 		.4byte	.LASF153
 2168 07a7 0F       		.byte	0xf
 2169 07a8 26       		.byte	0x26
 2170 07a9 01010000 		.4byte	0x101
 2171 07ad 14       		.byte	0x14
 2172 07ae 07       		.uleb128 0x7
 2173 07af 5C030000 		.4byte	.LASF30
 2174 07b3 0F       		.byte	0xf
 2175 07b4 27       		.byte	0x27
 2176 07b5 01010000 		.4byte	0x101
ARM GAS  C:\Users\haske\AppData\Local\Temp\ccmIjDGo.s 			page 70


 2177 07b9 16       		.byte	0x16
 2178 07ba 07       		.uleb128 0x7
 2179 07bb 62030000 		.4byte	.LASF31
 2180 07bf 0F       		.byte	0xf
 2181 07c0 28       		.byte	0x28
 2182 07c1 01010000 		.4byte	0x101
 2183 07c5 18       		.byte	0x18
 2184 07c6 06       		.uleb128 0x6
 2185 07c7 6F706100 		.ascii	"opa\000"
 2186 07cb 0F       		.byte	0xf
 2187 07cc 29       		.byte	0x29
 2188 07cd D4030000 		.4byte	0x3d4
 2189 07d1 1A       		.byte	0x1a
 2190 07d2 07       		.uleb128 0x7
 2191 07d3 A9000000 		.4byte	.LASF154
 2192 07d7 0F       		.byte	0xf
 2193 07d8 2A       		.byte	0x2a
 2194 07d9 F6040000 		.4byte	0x4f6
 2195 07dd 1B       		.byte	0x1b
 2196 07de 07       		.uleb128 0x7
 2197 07df 47080000 		.4byte	.LASF155
 2198 07e3 0F       		.byte	0xf
 2199 07e4 2B       		.byte	0x2b
 2200 07e5 C0040000 		.4byte	0x4c0
 2201 07e9 1C       		.byte	0x1c
 2202 07ea 07       		.uleb128 0x7
 2203 07eb 90080000 		.4byte	.LASF156
 2204 07ef 0F       		.byte	0xf
 2205 07f0 2C       		.byte	0x2c
 2206 07f1 90040000 		.4byte	0x490
 2207 07f5 1D       		.byte	0x1d
 2208 07f6 09       		.uleb128 0x9
 2209 07f7 0A0B0000 		.4byte	.LASF157
 2210 07fb 0F       		.byte	0xf
 2211 07fc 2D       		.byte	0x2d
 2212 07fd 2B050000 		.4byte	0x52b
 2213 0801 01       		.byte	0x1
 2214 0802 03       		.byte	0x3
 2215 0803 05       		.byte	0x5
 2216 0804 1E       		.byte	0x1e
 2217 0805 09       		.uleb128 0x9
 2218 0806 AC010000 		.4byte	.LASF121
 2219 080a 0F       		.byte	0xf
 2220 080b 2E       		.byte	0x2e
 2221 080c 01050000 		.4byte	0x501
 2222 0810 01       		.byte	0x1
 2223 0811 03       		.byte	0x3
 2224 0812 02       		.byte	0x2
 2225 0813 1E       		.byte	0x1e
 2226 0814 00       		.byte	0
 2227 0815 0B       		.uleb128 0xb
 2228 0816 04       		.byte	0x4
 2229 0817 1B080000 		.4byte	0x81b
 2230 081b 0C       		.uleb128 0xc
 2231 081c E0020000 		.4byte	0x2e0
 2232 0820 02       		.uleb128 0x2
 2233 0821 EE010000 		.4byte	.LASF158
ARM GAS  C:\Users\haske\AppData\Local\Temp\ccmIjDGo.s 			page 71


 2234 0825 0F       		.byte	0xf
 2235 0826 2F       		.byte	0x2f
 2236 0827 46070000 		.4byte	0x746
 2237 082b 0A       		.uleb128 0xa
 2238 082c 350E0000 		.4byte	.LASF160
 2239 0830 0C       		.byte	0xc
 2240 0831 0F       		.byte	0xf
 2241 0832 36       		.byte	0x36
 2242 0833 5A080000 		.4byte	0x85a
 2243 0837 07       		.uleb128 0x7
 2244 0838 1A040000 		.4byte	.LASF161
 2245 083c 0F       		.byte	0xf
 2246 083d 38       		.byte	0x38
 2247 083e D9000000 		.4byte	0xd9
 2248 0842 00       		.byte	0
 2249 0843 06       		.uleb128 0x6
 2250 0844 7900     		.ascii	"y\000"
 2251 0846 0F       		.byte	0xf
 2252 0847 3B       		.byte	0x3b
 2253 0848 D9000000 		.4byte	0xd9
 2254 084c 04       		.byte	0x4
 2255 084d 07       		.uleb128 0x7
 2256 084e 51000000 		.4byte	.LASF162
 2257 0852 0F       		.byte	0xf
 2258 0853 3F       		.byte	0x3f
 2259 0854 D9000000 		.4byte	0xd9
 2260 0858 08       		.byte	0x8
 2261 0859 00       		.byte	0
 2262 085a 02       		.uleb128 0x2
 2263 085b 77050000 		.4byte	.LASF163
 2264 085f 0F       		.byte	0xf
 2265 0860 40       		.byte	0x40
 2266 0861 2B080000 		.4byte	0x82b
 2267 0865 05       		.uleb128 0x5
 2268 0866 18       		.byte	0x18
 2269 0867 10       		.byte	0x10
 2270 0868 20       		.byte	0x20
 2271 0869 E0080000 		.4byte	0x8e0
 2272 086d 07       		.uleb128 0x7
 2273 086e 0F070000 		.4byte	.LASF164
 2274 0872 10       		.byte	0x10
 2275 0873 22       		.byte	0x22
 2276 0874 C3000000 		.4byte	0xc3
 2277 0878 00       		.byte	0
 2278 0879 07       		.uleb128 0x7
 2279 087a E8000000 		.4byte	.LASF165
 2280 087e 10       		.byte	0x10
 2281 087f 23       		.byte	0x23
 2282 0880 CE000000 		.4byte	0xce
 2283 0884 02       		.byte	0x2
 2284 0885 07       		.uleb128 0x7
 2285 0886 DC0A0000 		.4byte	.LASF166
 2286 088a 10       		.byte	0x10
 2287 088b 24       		.byte	0x24
 2288 088c 29010000 		.4byte	0x129
 2289 0890 04       		.byte	0x4
 2290 0891 07       		.uleb128 0x7
ARM GAS  C:\Users\haske\AppData\Local\Temp\ccmIjDGo.s 			page 72


 2291 0892 F9060000 		.4byte	.LASF167
 2292 0896 10       		.byte	0x10
 2293 0897 26       		.byte	0x26
 2294 0898 C9030000 		.4byte	0x3c9
 2295 089c 08       		.byte	0x8
 2296 089d 07       		.uleb128 0x7
 2297 089e D2080000 		.4byte	.LASF168
 2298 08a2 10       		.byte	0x10
 2299 08a3 27       		.byte	0x27
 2300 08a4 D4030000 		.4byte	0x3d4
 2301 08a8 0A       		.byte	0xa
 2302 08a9 06       		.uleb128 0x6
 2303 08aa 6F706100 		.ascii	"opa\000"
 2304 08ae 10       		.byte	0x10
 2305 08af 29       		.byte	0x29
 2306 08b0 D4030000 		.4byte	0x3d4
 2307 08b4 0B       		.byte	0xb
 2308 08b5 09       		.uleb128 0x9
 2309 08b6 AC010000 		.4byte	.LASF121
 2310 08ba 10       		.byte	0x10
 2311 08bb 2A       		.byte	0x2a
 2312 08bc 01050000 		.4byte	0x501
 2313 08c0 01       		.byte	0x1
 2314 08c1 04       		.byte	0x4
 2315 08c2 04       		.byte	0x4
 2316 08c3 0C       		.byte	0xc
 2317 08c4 07       		.uleb128 0x7
 2318 08c5 C9080000 		.4byte	.LASF169
 2319 08c9 10       		.byte	0x10
 2320 08ca 2C       		.byte	0x2c
 2321 08cb D9000000 		.4byte	0xd9
 2322 08cf 10       		.byte	0x10
 2323 08d0 09       		.uleb128 0x9
 2324 08d1 21090000 		.4byte	.LASF170
 2325 08d5 10       		.byte	0x10
 2326 08d6 2D       		.byte	0x2d
 2327 08d7 B8000000 		.4byte	0xb8
 2328 08db 01       		.byte	0x1
 2329 08dc 01       		.byte	0x1
 2330 08dd 07       		.byte	0x7
 2331 08de 14       		.byte	0x14
 2332 08df 00       		.byte	0
 2333 08e0 02       		.uleb128 0x2
 2334 08e1 AD030000 		.4byte	.LASF171
 2335 08e5 10       		.byte	0x10
 2336 08e6 2E       		.byte	0x2e
 2337 08e7 65080000 		.4byte	0x865
 2338 08eb 05       		.uleb128 0x5
 2339 08ec 0A       		.byte	0xa
 2340 08ed 11       		.byte	0x11
 2341 08ee 1C       		.byte	0x1c
 2342 08ef 6C090000 		.4byte	0x96c
 2343 08f3 07       		.uleb128 0x7
 2344 08f4 5C0B0000 		.4byte	.LASF112
 2345 08f8 11       		.byte	0x11
 2346 08f9 1D       		.byte	0x1d
 2347 08fa C9030000 		.4byte	0x3c9
ARM GAS  C:\Users\haske\AppData\Local\Temp\ccmIjDGo.s 			page 73


 2348 08fe 00       		.byte	0
 2349 08ff 07       		.uleb128 0x7
 2350 0900 C1070000 		.4byte	.LASF172
 2351 0904 11       		.byte	0x11
 2352 0905 1E       		.byte	0x1e
 2353 0906 01010000 		.4byte	0x101
 2354 090a 02       		.byte	0x2
 2355 090b 07       		.uleb128 0x7
 2356 090c E4050000 		.4byte	.LASF173
 2357 0910 11       		.byte	0x11
 2358 0911 1F       		.byte	0x1f
 2359 0912 01010000 		.4byte	0x101
 2360 0916 04       		.byte	0x4
 2361 0917 07       		.uleb128 0x7
 2362 0918 E3030000 		.4byte	.LASF174
 2363 091c 11       		.byte	0x11
 2364 091d 20       		.byte	0x20
 2365 091e 01010000 		.4byte	0x101
 2366 0922 06       		.byte	0x6
 2367 0923 06       		.uleb128 0x6
 2368 0924 6F706100 		.ascii	"opa\000"
 2369 0928 11       		.byte	0x11
 2370 0929 21       		.byte	0x21
 2371 092a D4030000 		.4byte	0x3d4
 2372 092e 08       		.byte	0x8
 2373 092f 09       		.uleb128 0x9
 2374 0930 AC010000 		.4byte	.LASF121
 2375 0934 11       		.byte	0x11
 2376 0935 22       		.byte	0x22
 2377 0936 01050000 		.4byte	0x501
 2378 093a 01       		.byte	0x1
 2379 093b 02       		.byte	0x2
 2380 093c 06       		.byte	0x6
 2381 093d 09       		.byte	0x9
 2382 093e 09       		.uleb128 0x9
 2383 093f C4040000 		.4byte	.LASF175
 2384 0943 11       		.byte	0x11
 2385 0944 23       		.byte	0x23
 2386 0945 B8000000 		.4byte	0xb8
 2387 0949 01       		.byte	0x1
 2388 094a 01       		.byte	0x1
 2389 094b 05       		.byte	0x5
 2390 094c 09       		.byte	0x9
 2391 094d 09       		.uleb128 0x9
 2392 094e 18050000 		.4byte	.LASF176
 2393 0952 11       		.byte	0x11
 2394 0953 24       		.byte	0x24
 2395 0954 B8000000 		.4byte	0xb8
 2396 0958 01       		.byte	0x1
 2397 0959 01       		.byte	0x1
 2398 095a 04       		.byte	0x4
 2399 095b 09       		.byte	0x9
 2400 095c 09       		.uleb128 0x9
 2401 095d 62000000 		.4byte	.LASF177
 2402 0961 11       		.byte	0x11
 2403 0962 25       		.byte	0x25
 2404 0963 B8000000 		.4byte	0xb8
ARM GAS  C:\Users\haske\AppData\Local\Temp\ccmIjDGo.s 			page 74


 2405 0967 01       		.byte	0x1
 2406 0968 01       		.byte	0x1
 2407 0969 03       		.byte	0x3
 2408 096a 09       		.byte	0x9
 2409 096b 00       		.byte	0
 2410 096c 02       		.uleb128 0x2
 2411 096d 2F030000 		.4byte	.LASF178
 2412 0971 11       		.byte	0x11
 2413 0972 26       		.byte	0x26
 2414 0973 EB080000 		.4byte	0x8eb
 2415 0977 05       		.uleb128 0x5
 2416 0978 10       		.byte	0x10
 2417 0979 12       		.byte	0x12
 2418 097a 1C       		.byte	0x1c
 2419 097b E6090000 		.4byte	0x9e6
 2420 097f 07       		.uleb128 0x7
 2421 0980 5C0B0000 		.4byte	.LASF112
 2422 0984 12       		.byte	0x12
 2423 0985 1D       		.byte	0x1d
 2424 0986 C9030000 		.4byte	0x3c9
 2425 098a 00       		.byte	0
 2426 098b 07       		.uleb128 0x7
 2427 098c C1070000 		.4byte	.LASF172
 2428 0990 12       		.byte	0x12
 2429 0991 1E       		.byte	0x1e
 2430 0992 01010000 		.4byte	0x101
 2431 0996 02       		.byte	0x2
 2432 0997 07       		.uleb128 0x7
 2433 0998 BF050000 		.4byte	.LASF179
 2434 099c 12       		.byte	0x12
 2435 099d 1F       		.byte	0x1f
 2436 099e CE000000 		.4byte	0xce
 2437 09a2 04       		.byte	0x4
 2438 09a3 07       		.uleb128 0x7
 2439 09a4 F9020000 		.4byte	.LASF180
 2440 09a8 12       		.byte	0x12
 2441 09a9 20       		.byte	0x20
 2442 09aa CE000000 		.4byte	0xce
 2443 09ae 06       		.byte	0x6
 2444 09af 07       		.uleb128 0x7
 2445 09b0 22050000 		.4byte	.LASF181
 2446 09b4 12       		.byte	0x12
 2447 09b5 21       		.byte	0x21
 2448 09b6 D7020000 		.4byte	0x2d7
 2449 09ba 08       		.byte	0x8
 2450 09bb 06       		.uleb128 0x6
 2451 09bc 6F706100 		.ascii	"opa\000"
 2452 09c0 12       		.byte	0x12
 2453 09c1 22       		.byte	0x22
 2454 09c2 D4030000 		.4byte	0x3d4
 2455 09c6 0C       		.byte	0xc
 2456 09c7 09       		.uleb128 0x9
 2457 09c8 AC010000 		.4byte	.LASF121
 2458 09cc 12       		.byte	0x12
 2459 09cd 23       		.byte	0x23
 2460 09ce 01050000 		.4byte	0x501
 2461 09d2 01       		.byte	0x1
ARM GAS  C:\Users\haske\AppData\Local\Temp\ccmIjDGo.s 			page 75


 2462 09d3 02       		.byte	0x2
 2463 09d4 06       		.byte	0x6
 2464 09d5 0D       		.byte	0xd
 2465 09d6 09       		.uleb128 0x9
 2466 09d7 00010000 		.4byte	.LASF182
 2467 09db 12       		.byte	0x12
 2468 09dc 24       		.byte	0x24
 2469 09dd B8000000 		.4byte	0xb8
 2470 09e1 01       		.byte	0x1
 2471 09e2 01       		.byte	0x1
 2472 09e3 05       		.byte	0x5
 2473 09e4 0D       		.byte	0xd
 2474 09e5 00       		.byte	0
 2475 09e6 02       		.uleb128 0x2
 2476 09e7 E70B0000 		.4byte	.LASF183
 2477 09eb 12       		.byte	0x12
 2478 09ec 25       		.byte	0x25
 2479 09ed 77090000 		.4byte	0x977
 2480 09f1 0B       		.uleb128 0xb
 2481 09f2 04       		.byte	0x4
 2482 09f3 D4030000 		.4byte	0x3d4
 2483 09f7 11       		.uleb128 0x11
 2484 09f8 01       		.byte	0x1
 2485 09f9 42000000 		.4byte	0x42
 2486 09fd 13       		.byte	0x13
 2487 09fe 1C       		.byte	0x1c
 2488 09ff 160A0000 		.4byte	0xa16
 2489 0a03 12       		.uleb128 0x12
 2490 0a04 F7070000 		.4byte	.LASF184
 2491 0a08 00       		.byte	0
 2492 0a09 12       		.uleb128 0x12
 2493 0a0a CB000000 		.4byte	.LASF185
 2494 0a0e 01       		.byte	0x1
 2495 0a0f 12       		.uleb128 0x12
 2496 0a10 BE090000 		.4byte	.LASF186
 2497 0a14 02       		.byte	0x2
 2498 0a15 00       		.byte	0
 2499 0a16 02       		.uleb128 0x2
 2500 0a17 92030000 		.4byte	.LASF187
 2501 0a1b 13       		.byte	0x13
 2502 0a1c 20       		.byte	0x20
 2503 0a1d F7090000 		.4byte	0x9f7
 2504 0a21 05       		.uleb128 0x5
 2505 0a22 10       		.byte	0x10
 2506 0a23 14       		.byte	0x14
 2507 0a24 33       		.byte	0x33
 2508 0a25 5A0A0000 		.4byte	0xa5a
 2509 0a29 07       		.uleb128 0x7
 2510 0a2a 74080000 		.4byte	.LASF188
 2511 0a2e 14       		.byte	0x14
 2512 0a2f 34       		.byte	0x34
 2513 0a30 5A0A0000 		.4byte	0xa5a
 2514 0a34 00       		.byte	0
 2515 0a35 07       		.uleb128 0x7
 2516 0a36 F0060000 		.4byte	.LASF189
 2517 0a3a 14       		.byte	0x14
 2518 0a3b 35       		.byte	0x35
ARM GAS  C:\Users\haske\AppData\Local\Temp\ccmIjDGo.s 			page 76


 2519 0a3c 650A0000 		.4byte	0xa65
 2520 0a40 04       		.byte	0x4
 2521 0a41 06       		.uleb128 0x6
 2522 0a42 62756600 		.ascii	"buf\000"
 2523 0a46 14       		.byte	0x14
 2524 0a47 36       		.byte	0x36
 2525 0a48 DE020000 		.4byte	0x2de
 2526 0a4c 08       		.byte	0x8
 2527 0a4d 07       		.uleb128 0x7
 2528 0a4e A80C0000 		.4byte	.LASF190
 2529 0a52 14       		.byte	0x14
 2530 0a53 37       		.byte	0x37
 2531 0a54 9F020000 		.4byte	0x29f
 2532 0a58 0C       		.byte	0xc
 2533 0a59 00       		.byte	0
 2534 0a5a 0B       		.uleb128 0xb
 2535 0a5b 04       		.byte	0x4
 2536 0a5c 600A0000 		.4byte	0xa60
 2537 0a60 0C       		.uleb128 0xc
 2538 0a61 69010000 		.4byte	0x169
 2539 0a65 0B       		.uleb128 0xb
 2540 0a66 04       		.byte	0x4
 2541 0a67 69010000 		.4byte	0x169
 2542 0a6b 0A       		.uleb128 0xa
 2543 0a6c 95080000 		.4byte	.LASF191
 2544 0a70 28       		.byte	0x28
 2545 0a71 14       		.byte	0x14
 2546 0a72 2D       		.byte	0x2d
 2547 0a73 C00A0000 		.4byte	0xac0
 2548 0a77 07       		.uleb128 0x7
 2549 0a78 86080000 		.4byte	.LASF192
 2550 0a7c 14       		.byte	0x14
 2551 0a7d 2E       		.byte	0x2e
 2552 0a7e 69010000 		.4byte	0x169
 2553 0a82 00       		.byte	0
 2554 0a83 07       		.uleb128 0x7
 2555 0a84 42030000 		.4byte	.LASF193
 2556 0a88 14       		.byte	0x14
 2557 0a89 2F       		.byte	0x2f
 2558 0a8a 69010000 		.4byte	0x169
 2559 0a8e 08       		.byte	0x8
 2560 0a8f 07       		.uleb128 0x7
 2561 0a90 B6080000 		.4byte	.LASF194
 2562 0a94 14       		.byte	0x14
 2563 0a95 30       		.byte	0x30
 2564 0a96 01010000 		.4byte	0x101
 2565 0a9a 10       		.byte	0x10
 2566 0a9b 07       		.uleb128 0x7
 2567 0a9c 110A0000 		.4byte	.LASF195
 2568 0aa0 14       		.byte	0x14
 2569 0aa1 31       		.byte	0x31
 2570 0aa2 01010000 		.4byte	0x101
 2571 0aa6 12       		.byte	0x12
 2572 0aa7 06       		.uleb128 0x6
 2573 0aa8 62756600 		.ascii	"buf\000"
 2574 0aac 14       		.byte	0x14
 2575 0aad 32       		.byte	0x32
ARM GAS  C:\Users\haske\AppData\Local\Temp\ccmIjDGo.s 			page 77


 2576 0aae DE020000 		.4byte	0x2de
 2577 0ab2 14       		.byte	0x14
 2578 0ab3 07       		.uleb128 0x7
 2579 0ab4 7C030000 		.4byte	.LASF196
 2580 0ab8 14       		.byte	0x14
 2581 0ab9 38       		.byte	0x38
 2582 0aba 210A0000 		.4byte	0xa21
 2583 0abe 18       		.byte	0x18
 2584 0abf 00       		.byte	0
 2585 0ac0 02       		.uleb128 0x2
 2586 0ac1 3E0B0000 		.4byte	.LASF197
 2587 0ac5 14       		.byte	0x14
 2588 0ac6 39       		.byte	0x39
 2589 0ac7 6B0A0000 		.4byte	0xa6b
 2590 0acb 0A       		.uleb128 0xa
 2591 0acc 08010000 		.4byte	.LASF198
 2592 0ad0 54       		.byte	0x54
 2593 0ad1 14       		.byte	0x14
 2594 0ad2 3B       		.byte	0x3b
 2595 0ad3 D40B0000 		.4byte	0xbd4
 2596 0ad7 06       		.uleb128 0x6
 2597 0ad8 62756600 		.ascii	"buf\000"
 2598 0adc 14       		.byte	0x14
 2599 0add 3F       		.byte	0x3f
 2600 0ade DE020000 		.4byte	0x2de
 2601 0ae2 00       		.byte	0
 2602 0ae3 07       		.uleb128 0x7
 2603 0ae4 F0060000 		.4byte	.LASF189
 2604 0ae8 14       		.byte	0x14
 2605 0ae9 44       		.byte	0x44
 2606 0aea 650A0000 		.4byte	0xa65
 2607 0aee 04       		.byte	0x4
 2608 0aef 07       		.uleb128 0x7
 2609 0af0 74080000 		.4byte	.LASF188
 2610 0af4 14       		.byte	0x14
 2611 0af5 49       		.byte	0x49
 2612 0af6 5A0A0000 		.4byte	0xa5a
 2613 0afa 08       		.byte	0x8
 2614 0afb 07       		.uleb128 0x7
 2615 0afc F7000000 		.4byte	.LASF199
 2616 0b00 14       		.byte	0x14
 2617 0b01 4B       		.byte	0x4b
 2618 0b02 E50B0000 		.4byte	0xbe5
 2619 0b06 0C       		.byte	0xc
 2620 0b07 07       		.uleb128 0x7
 2621 0b08 ED000000 		.4byte	.LASF200
 2622 0b0c 14       		.byte	0x14
 2623 0b0d 4D       		.byte	0x4d
 2624 0b0e 0B0C0000 		.4byte	0xc0b
 2625 0b12 10       		.byte	0x10
 2626 0b13 07       		.uleb128 0x7
 2627 0b14 16060000 		.4byte	.LASF201
 2628 0b18 14       		.byte	0x14
 2629 0b19 4F       		.byte	0x4f
 2630 0b1a 4B0C0000 		.4byte	0xc4b
 2631 0b1e 14       		.byte	0x14
 2632 0b1f 07       		.uleb128 0x7
ARM GAS  C:\Users\haske\AppData\Local\Temp\ccmIjDGo.s 			page 78


 2633 0b20 1D070000 		.4byte	.LASF202
 2634 0b24 14       		.byte	0x14
 2635 0b25 52       		.byte	0x52
 2636 0b26 7B0C0000 		.4byte	0xc7b
 2637 0b2a 18       		.byte	0x18
 2638 0b2b 07       		.uleb128 0x7
 2639 0b2c 740D0000 		.4byte	.LASF203
 2640 0b30 14       		.byte	0x14
 2641 0b31 55       		.byte	0x55
 2642 0b32 9F0C0000 		.4byte	0xc9f
 2643 0b36 1C       		.byte	0x1c
 2644 0b37 07       		.uleb128 0x7
 2645 0b38 5B080000 		.4byte	.LASF204
 2646 0b3c 14       		.byte	0x14
 2647 0b3d 58       		.byte	0x58
 2648 0b3e CA0C0000 		.4byte	0xcca
 2649 0b42 20       		.byte	0x20
 2650 0b43 07       		.uleb128 0x7
 2651 0b44 B3020000 		.4byte	.LASF205
 2652 0b48 14       		.byte	0x14
 2653 0b49 5C       		.byte	0x5c
 2654 0b4a F50C0000 		.4byte	0xcf5
 2655 0b4e 24       		.byte	0x24
 2656 0b4f 07       		.uleb128 0x7
 2657 0b50 AA0D0000 		.4byte	.LASF206
 2658 0b54 14       		.byte	0x14
 2659 0b55 60       		.byte	0x60
 2660 0b56 150D0000 		.4byte	0xd15
 2661 0b5a 28       		.byte	0x28
 2662 0b5b 07       		.uleb128 0x7
 2663 0b5c EC030000 		.4byte	.LASF207
 2664 0b60 14       		.byte	0x14
 2665 0b61 71       		.byte	0x71
 2666 0b62 530D0000 		.4byte	0xd53
 2667 0b66 2C       		.byte	0x2c
 2668 0b67 07       		.uleb128 0x7
 2669 0b68 49000000 		.4byte	.LASF208
 2670 0b6c 14       		.byte	0x14
 2671 0b6d 78       		.byte	0x78
 2672 0b6e 0B0C0000 		.4byte	0xc0b
 2673 0b72 30       		.byte	0x30
 2674 0b73 07       		.uleb128 0x7
 2675 0b74 E7070000 		.4byte	.LASF209
 2676 0b78 14       		.byte	0x14
 2677 0b79 7D       		.byte	0x7d
 2678 0b7a E50B0000 		.4byte	0xbe5
 2679 0b7e 34       		.byte	0x34
 2680 0b7f 07       		.uleb128 0x7
 2681 0b80 54020000 		.4byte	.LASF210
 2682 0b84 14       		.byte	0x14
 2683 0b85 8D       		.byte	0x8d
 2684 0b86 820D0000 		.4byte	0xd82
 2685 0b8a 38       		.byte	0x38
 2686 0b8b 07       		.uleb128 0x7
 2687 0b8c 0D050000 		.4byte	.LASF211
 2688 0b90 14       		.byte	0x14
 2689 0b91 99       		.byte	0x99
ARM GAS  C:\Users\haske\AppData\Local\Temp\ccmIjDGo.s 			page 79


 2690 0b92 A70D0000 		.4byte	0xda7
 2691 0b96 3C       		.byte	0x3c
 2692 0b97 07       		.uleb128 0x7
 2693 0b98 1A0B0000 		.4byte	.LASF212
 2694 0b9c 14       		.byte	0x14
 2695 0b9d A3       		.byte	0xa3
 2696 0b9e C20D0000 		.4byte	0xdc2
 2697 0ba2 40       		.byte	0x40
 2698 0ba3 07       		.uleb128 0x7
 2699 0ba4 8F0B0000 		.4byte	.LASF213
 2700 0ba8 14       		.byte	0x14
 2701 0ba9 AC       		.byte	0xac
 2702 0baa DD0D0000 		.4byte	0xddd
 2703 0bae 44       		.byte	0x44
 2704 0baf 07       		.uleb128 0x7
 2705 0bb0 D0050000 		.4byte	.LASF214
 2706 0bb4 14       		.byte	0x14
 2707 0bb5 B5       		.byte	0xb5
 2708 0bb6 F90D0000 		.4byte	0xdf9
 2709 0bba 48       		.byte	0x48
 2710 0bbb 07       		.uleb128 0x7
 2711 0bbc B70D0000 		.4byte	.LASF215
 2712 0bc0 14       		.byte	0x14
 2713 0bc1 BA       		.byte	0xba
 2714 0bc2 EF000000 		.4byte	0xef
 2715 0bc6 4C       		.byte	0x4c
 2716 0bc7 07       		.uleb128 0x7
 2717 0bc8 5F0E0000 		.4byte	.LASF41
 2718 0bcc 14       		.byte	0x14
 2719 0bcd BD       		.byte	0xbd
 2720 0bce DE020000 		.4byte	0x2de
 2721 0bd2 50       		.byte	0x50
 2722 0bd3 00       		.byte	0
 2723 0bd4 19       		.uleb128 0x19
 2724 0bd5 DF0B0000 		.4byte	0xbdf
 2725 0bd9 0E       		.uleb128 0xe
 2726 0bda DF0B0000 		.4byte	0xbdf
 2727 0bde 00       		.byte	0
 2728 0bdf 0B       		.uleb128 0xb
 2729 0be0 04       		.byte	0x4
 2730 0be1 CB0A0000 		.4byte	0xacb
 2731 0be5 0B       		.uleb128 0xb
 2732 0be6 04       		.byte	0x4
 2733 0be7 D40B0000 		.4byte	0xbd4
 2734 0beb 19       		.uleb128 0x19
 2735 0bec 000C0000 		.4byte	0xc00
 2736 0bf0 0E       		.uleb128 0xe
 2737 0bf1 DF0B0000 		.4byte	0xbdf
 2738 0bf5 0E       		.uleb128 0xe
 2739 0bf6 000C0000 		.4byte	0xc00
 2740 0bfa 0E       		.uleb128 0xe
 2741 0bfb 5A0A0000 		.4byte	0xa5a
 2742 0bff 00       		.byte	0
 2743 0c00 0B       		.uleb128 0xb
 2744 0c01 04       		.byte	0x4
 2745 0c02 060C0000 		.4byte	0xc06
 2746 0c06 0C       		.uleb128 0xc
ARM GAS  C:\Users\haske\AppData\Local\Temp\ccmIjDGo.s 			page 80


 2747 0c07 3B070000 		.4byte	0x73b
 2748 0c0b 0B       		.uleb128 0xb
 2749 0c0c 04       		.byte	0x4
 2750 0c0d EB0B0000 		.4byte	0xbeb
 2751 0c11 19       		.uleb128 0x19
 2752 0c12 350C0000 		.4byte	0xc35
 2753 0c16 0E       		.uleb128 0xe
 2754 0c17 DF0B0000 		.4byte	0xbdf
 2755 0c1b 0E       		.uleb128 0xe
 2756 0c1c 350C0000 		.4byte	0xc35
 2757 0c20 0E       		.uleb128 0xe
 2758 0c21 400C0000 		.4byte	0xc40
 2759 0c25 0E       		.uleb128 0xe
 2760 0c26 CE000000 		.4byte	0xce
 2761 0c2a 0E       		.uleb128 0xe
 2762 0c2b CE000000 		.4byte	0xce
 2763 0c2f 0E       		.uleb128 0xe
 2764 0c30 CE000000 		.4byte	0xce
 2765 0c34 00       		.byte	0
 2766 0c35 0B       		.uleb128 0xb
 2767 0c36 04       		.byte	0x4
 2768 0c37 3B0C0000 		.4byte	0xc3b
 2769 0c3b 0C       		.uleb128 0xc
 2770 0c3c E6090000 		.4byte	0x9e6
 2771 0c40 0B       		.uleb128 0xb
 2772 0c41 04       		.byte	0x4
 2773 0c42 460C0000 		.4byte	0xc46
 2774 0c46 0C       		.uleb128 0xc
 2775 0c47 29010000 		.4byte	0x129
 2776 0c4b 0B       		.uleb128 0xb
 2777 0c4c 04       		.byte	0x4
 2778 0c4d 110C0000 		.4byte	0xc11
 2779 0c51 19       		.uleb128 0x19
 2780 0c52 700C0000 		.4byte	0xc70
 2781 0c56 0E       		.uleb128 0xe
 2782 0c57 DF0B0000 		.4byte	0xbdf
 2783 0c5b 0E       		.uleb128 0xe
 2784 0c5c 700C0000 		.4byte	0xc70
 2785 0c60 0E       		.uleb128 0xe
 2786 0c61 5A0A0000 		.4byte	0xa5a
 2787 0c65 0E       		.uleb128 0xe
 2788 0c66 C6020000 		.4byte	0x2c6
 2789 0c6a 0E       		.uleb128 0xe
 2790 0c6b E3050000 		.4byte	0x5e3
 2791 0c6f 00       		.byte	0
 2792 0c70 0B       		.uleb128 0xb
 2793 0c71 04       		.byte	0x4
 2794 0c72 760C0000 		.4byte	0xc76
 2795 0c76 0C       		.uleb128 0xc
 2796 0c77 E0080000 		.4byte	0x8e0
 2797 0c7b 0B       		.uleb128 0xb
 2798 0c7c 04       		.byte	0x4
 2799 0c7d 510C0000 		.4byte	0xc51
 2800 0c81 0D       		.uleb128 0xd
 2801 0c82 EB020000 		.4byte	0x2eb
 2802 0c86 9F0C0000 		.4byte	0xc9f
 2803 0c8a 0E       		.uleb128 0xe
ARM GAS  C:\Users\haske\AppData\Local\Temp\ccmIjDGo.s 			page 81


 2804 0c8b DF0B0000 		.4byte	0xbdf
 2805 0c8f 0E       		.uleb128 0xe
 2806 0c90 700C0000 		.4byte	0xc70
 2807 0c94 0E       		.uleb128 0xe
 2808 0c95 5A0A0000 		.4byte	0xa5a
 2809 0c99 0E       		.uleb128 0xe
 2810 0c9a D7020000 		.4byte	0x2d7
 2811 0c9e 00       		.byte	0
 2812 0c9f 0B       		.uleb128 0xb
 2813 0ca0 04       		.byte	0x4
 2814 0ca1 810C0000 		.4byte	0xc81
 2815 0ca5 19       		.uleb128 0x19
 2816 0ca6 BF0C0000 		.4byte	0xcbf
 2817 0caa 0E       		.uleb128 0xe
 2818 0cab DF0B0000 		.4byte	0xbdf
 2819 0caf 0E       		.uleb128 0xe
 2820 0cb0 BF0C0000 		.4byte	0xcbf
 2821 0cb4 0E       		.uleb128 0xe
 2822 0cb5 400C0000 		.4byte	0xc40
 2823 0cb9 0E       		.uleb128 0xe
 2824 0cba E4000000 		.4byte	0xe4
 2825 0cbe 00       		.byte	0
 2826 0cbf 0B       		.uleb128 0xb
 2827 0cc0 04       		.byte	0x4
 2828 0cc1 C50C0000 		.4byte	0xcc5
 2829 0cc5 0C       		.uleb128 0xc
 2830 0cc6 20080000 		.4byte	0x820
 2831 0cca 0B       		.uleb128 0xb
 2832 0ccb 04       		.byte	0x4
 2833 0ccc A50C0000 		.4byte	0xca5
 2834 0cd0 19       		.uleb128 0x19
 2835 0cd1 EA0C0000 		.4byte	0xcea
 2836 0cd5 0E       		.uleb128 0xe
 2837 0cd6 DF0B0000 		.4byte	0xbdf
 2838 0cda 0E       		.uleb128 0xe
 2839 0cdb EA0C0000 		.4byte	0xcea
 2840 0cdf 0E       		.uleb128 0xe
 2841 0ce0 400C0000 		.4byte	0xc40
 2842 0ce4 0E       		.uleb128 0xe
 2843 0ce5 400C0000 		.4byte	0xc40
 2844 0ce9 00       		.byte	0
 2845 0cea 0B       		.uleb128 0xb
 2846 0ceb 04       		.byte	0x4
 2847 0cec F00C0000 		.4byte	0xcf0
 2848 0cf0 0C       		.uleb128 0xc
 2849 0cf1 6C090000 		.4byte	0x96c
 2850 0cf5 0B       		.uleb128 0xb
 2851 0cf6 04       		.byte	0x4
 2852 0cf7 D00C0000 		.4byte	0xcd0
 2853 0cfb 19       		.uleb128 0x19
 2854 0cfc 150D0000 		.4byte	0xd15
 2855 0d00 0E       		.uleb128 0xe
 2856 0d01 DF0B0000 		.4byte	0xbdf
 2857 0d05 0E       		.uleb128 0xe
 2858 0d06 000C0000 		.4byte	0xc00
 2859 0d0a 0E       		.uleb128 0xe
 2860 0d0b 400C0000 		.4byte	0xc40
ARM GAS  C:\Users\haske\AppData\Local\Temp\ccmIjDGo.s 			page 82


 2861 0d0f 0E       		.uleb128 0xe
 2862 0d10 CE000000 		.4byte	0xce
 2863 0d14 00       		.byte	0
 2864 0d15 0B       		.uleb128 0xb
 2865 0d16 04       		.byte	0x4
 2866 0d17 FB0C0000 		.4byte	0xcfb
 2867 0d1b 19       		.uleb128 0x19
 2868 0d1c 530D0000 		.4byte	0xd53
 2869 0d20 0E       		.uleb128 0xe
 2870 0d21 DF0B0000 		.4byte	0xbdf
 2871 0d25 0E       		.uleb128 0xe
 2872 0d26 5A0A0000 		.4byte	0xa5a
 2873 0d2a 0E       		.uleb128 0xe
 2874 0d2b D7020000 		.4byte	0x2d7
 2875 0d2f 0E       		.uleb128 0xe
 2876 0d30 01010000 		.4byte	0x101
 2877 0d34 0E       		.uleb128 0xe
 2878 0d35 01010000 		.4byte	0x101
 2879 0d39 0E       		.uleb128 0xe
 2880 0d3a 01010000 		.4byte	0x101
 2881 0d3e 0E       		.uleb128 0xe
 2882 0d3f 700C0000 		.4byte	0xc70
 2883 0d43 0E       		.uleb128 0xe
 2884 0d44 E3050000 		.4byte	0x5e3
 2885 0d48 0E       		.uleb128 0xe
 2886 0d49 EE050000 		.4byte	0x5ee
 2887 0d4d 0E       		.uleb128 0xe
 2888 0d4e F1090000 		.4byte	0x9f1
 2889 0d52 00       		.byte	0
 2890 0d53 0B       		.uleb128 0xb
 2891 0d54 04       		.byte	0x4
 2892 0d55 1B0D0000 		.4byte	0xd1b
 2893 0d59 19       		.uleb128 0x19
 2894 0d5a 820D0000 		.4byte	0xd82
 2895 0d5e 0E       		.uleb128 0xe
 2896 0d5f DF0B0000 		.4byte	0xbdf
 2897 0d63 0E       		.uleb128 0xe
 2898 0d64 DE020000 		.4byte	0x2de
 2899 0d68 0E       		.uleb128 0xe
 2900 0d69 01010000 		.4byte	0x101
 2901 0d6d 0E       		.uleb128 0xe
 2902 0d6e 5A0A0000 		.4byte	0xa5a
 2903 0d72 0E       		.uleb128 0xe
 2904 0d73 DE020000 		.4byte	0x2de
 2905 0d77 0E       		.uleb128 0xe
 2906 0d78 01010000 		.4byte	0x101
 2907 0d7c 0E       		.uleb128 0xe
 2908 0d7d 5A0A0000 		.4byte	0xa5a
 2909 0d81 00       		.byte	0
 2910 0d82 0B       		.uleb128 0xb
 2911 0d83 04       		.byte	0x4
 2912 0d84 590D0000 		.4byte	0xd59
 2913 0d88 0D       		.uleb128 0xd
 2914 0d89 A10D0000 		.4byte	0xda1
 2915 0d8d A10D0000 		.4byte	0xda1
 2916 0d91 0E       		.uleb128 0xe
 2917 0d92 DF0B0000 		.4byte	0xbdf
ARM GAS  C:\Users\haske\AppData\Local\Temp\ccmIjDGo.s 			page 83


 2918 0d96 0E       		.uleb128 0xe
 2919 0d97 A10D0000 		.4byte	0xda1
 2920 0d9b 0E       		.uleb128 0xe
 2921 0d9c 160A0000 		.4byte	0xa16
 2922 0da0 00       		.byte	0
 2923 0da1 0B       		.uleb128 0xb
 2924 0da2 04       		.byte	0x4
 2925 0da3 6B0A0000 		.4byte	0xa6b
 2926 0da7 0B       		.uleb128 0xb
 2927 0da8 04       		.byte	0x4
 2928 0da9 880D0000 		.4byte	0xd88
 2929 0dad 19       		.uleb128 0x19
 2930 0dae C20D0000 		.4byte	0xdc2
 2931 0db2 0E       		.uleb128 0xe
 2932 0db3 DF0B0000 		.4byte	0xbdf
 2933 0db7 0E       		.uleb128 0xe
 2934 0db8 A10D0000 		.4byte	0xda1
 2935 0dbc 0E       		.uleb128 0xe
 2936 0dbd 160A0000 		.4byte	0xa16
 2937 0dc1 00       		.byte	0
 2938 0dc2 0B       		.uleb128 0xb
 2939 0dc3 04       		.byte	0x4
 2940 0dc4 AD0D0000 		.4byte	0xdad
 2941 0dc8 19       		.uleb128 0x19
 2942 0dc9 DD0D0000 		.4byte	0xddd
 2943 0dcd 0E       		.uleb128 0xe
 2944 0dce DF0B0000 		.4byte	0xbdf
 2945 0dd2 0E       		.uleb128 0xe
 2946 0dd3 A10D0000 		.4byte	0xda1
 2947 0dd7 0E       		.uleb128 0xe
 2948 0dd8 700C0000 		.4byte	0xc70
 2949 0ddc 00       		.byte	0
 2950 0ddd 0B       		.uleb128 0xb
 2951 0dde 04       		.byte	0x4
 2952 0ddf C80D0000 		.4byte	0xdc8
 2953 0de3 19       		.uleb128 0x19
 2954 0de4 F30D0000 		.4byte	0xdf3
 2955 0de8 0E       		.uleb128 0xe
 2956 0de9 DF0B0000 		.4byte	0xbdf
 2957 0ded 0E       		.uleb128 0xe
 2958 0dee F30D0000 		.4byte	0xdf3
 2959 0df2 00       		.byte	0
 2960 0df3 0B       		.uleb128 0xb
 2961 0df4 04       		.byte	0x4
 2962 0df5 C00A0000 		.4byte	0xac0
 2963 0df9 0B       		.uleb128 0xb
 2964 0dfa 04       		.byte	0x4
 2965 0dfb E30D0000 		.4byte	0xde3
 2966 0dff 02       		.uleb128 0x2
 2967 0e00 31040000 		.4byte	.LASF216
 2968 0e04 14       		.byte	0x14
 2969 0e05 C0       		.byte	0xc0
 2970 0e06 CB0A0000 		.4byte	0xacb
 2971 0e0a 0B       		.uleb128 0xb
 2972 0e0b 04       		.byte	0x4
 2973 0e0c FF0D0000 		.4byte	0xdff
 2974 0e10 0B       		.uleb128 0xb
ARM GAS  C:\Users\haske\AppData\Local\Temp\ccmIjDGo.s 			page 84


 2975 0e11 04       		.byte	0x4
 2976 0e12 20080000 		.4byte	0x820
 2977 0e16 11       		.uleb128 0x11
 2978 0e17 01       		.byte	0x1
 2979 0e18 42000000 		.4byte	0x42
 2980 0e1c 01       		.byte	0x1
 2981 0e1d 1A       		.byte	0x1a
 2982 0e1e 350E0000 		.4byte	0xe35
 2983 0e22 12       		.uleb128 0x12
 2984 0e23 A60B0000 		.4byte	.LASF217
 2985 0e27 00       		.byte	0
 2986 0e28 12       		.uleb128 0x12
 2987 0e29 21030000 		.4byte	.LASF218
 2988 0e2d 01       		.byte	0x1
 2989 0e2e 12       		.uleb128 0x12
 2990 0e2f B2000000 		.4byte	.LASF219
 2991 0e33 02       		.byte	0x2
 2992 0e34 00       		.byte	0
 2993 0e35 02       		.uleb128 0x2
 2994 0e36 DF090000 		.4byte	.LASF220
 2995 0e3a 01       		.byte	0x1
 2996 0e3b 1F       		.byte	0x1f
 2997 0e3c B8000000 		.4byte	0xb8
 2998 0e40 1A       		.uleb128 0x1a
 2999 0e41 FC0A0000 		.4byte	.LASF222
 3000 0e45 02       		.byte	0x2
 3001 0e46 4C02     		.2byte	0x24c
 3002 0e48 C9030000 		.4byte	0x3c9
 3003 0e4c 03       		.byte	0x3
 3004 0e4d 700E0000 		.4byte	0xe70
 3005 0e51 1B       		.uleb128 0x1b
 3006 0e52 7200     		.ascii	"r\000"
 3007 0e54 02       		.byte	0x2
 3008 0e55 4C02     		.2byte	0x24c
 3009 0e57 B8000000 		.4byte	0xb8
 3010 0e5b 1B       		.uleb128 0x1b
 3011 0e5c 6700     		.ascii	"g\000"
 3012 0e5e 02       		.byte	0x2
 3013 0e5f 4C02     		.2byte	0x24c
 3014 0e61 B8000000 		.4byte	0xb8
 3015 0e65 1B       		.uleb128 0x1b
 3016 0e66 6200     		.ascii	"b\000"
 3017 0e68 02       		.byte	0x2
 3018 0e69 4C02     		.2byte	0x24c
 3019 0e6b B8000000 		.4byte	0xb8
 3020 0e6f 00       		.byte	0
 3021 0e70 1C       		.uleb128 0x1c
 3022 0e71 C7070000 		.4byte	.LASF273
 3023 0e75 02       		.byte	0x2
 3024 0e76 B502     		.2byte	0x2b5
 3025 0e78 C9030000 		.4byte	0x3c9
 3026 0e7c 03       		.byte	0x3
 3027 0e7d 1D       		.uleb128 0x1d
 3028 0e7e 150C0000 		.4byte	.LASF274
 3029 0e82 03       		.byte	0x3
 3030 0e83 81       		.byte	0x81
 3031 0e84 03       		.byte	0x3
ARM GAS  C:\Users\haske\AppData\Local\Temp\ccmIjDGo.s 			page 85


 3032 0e85 AB0E0000 		.4byte	0xeab
 3033 0e89 1E       		.uleb128 0x1e
 3034 0e8a 47080000 		.4byte	.LASF155
 3035 0e8e 03       		.byte	0x3
 3036 0e8f 81       		.byte	0x81
 3037 0e90 AB0E0000 		.4byte	0xeab
 3038 0e94 1E       		.uleb128 0x1e
 3039 0e95 F90B0000 		.4byte	.LASF221
 3040 0e99 03       		.byte	0x3
 3041 0e9a 81       		.byte	0x81
 3042 0e9b B10E0000 		.4byte	0xeb1
 3043 0e9f 1F       		.uleb128 0x1f
 3044 0ea0 74787400 		.ascii	"txt\000"
 3045 0ea4 03       		.byte	0x3
 3046 0ea5 81       		.byte	0x81
 3047 0ea6 04030000 		.4byte	0x304
 3048 0eaa 00       		.byte	0
 3049 0eab 0B       		.uleb128 0xb
 3050 0eac 04       		.byte	0x4
 3051 0ead C0040000 		.4byte	0x4c0
 3052 0eb1 0B       		.uleb128 0xb
 3053 0eb2 04       		.byte	0x4
 3054 0eb3 F6040000 		.4byte	0x4f6
 3055 0eb7 20       		.uleb128 0x20
 3056 0eb8 E70C0000 		.4byte	.LASF223
 3057 0ebc 04       		.byte	0x4
 3058 0ebd 7B       		.byte	0x7b
 3059 0ebe 01010000 		.4byte	0x101
 3060 0ec2 03       		.byte	0x3
 3061 0ec3 D30E0000 		.4byte	0xed3
 3062 0ec7 1E       		.uleb128 0x1e
 3063 0ec8 28020000 		.4byte	.LASF224
 3064 0ecc 04       		.byte	0x4
 3065 0ecd 7B       		.byte	0x7b
 3066 0ece 5A0A0000 		.4byte	0xa5a
 3067 0ed2 00       		.byte	0
 3068 0ed3 20       		.uleb128 0x20
 3069 0ed4 31000000 		.4byte	.LASF225
 3070 0ed8 05       		.byte	0x5
 3071 0ed9 7C       		.byte	0x7c
 3072 0eda 01010000 		.4byte	0x101
 3073 0ede 03       		.byte	0x3
 3074 0edf EF0E0000 		.4byte	0xeef
 3075 0ee3 1E       		.uleb128 0x1e
 3076 0ee4 F50A0000 		.4byte	.LASF226
 3077 0ee8 05       		.byte	0x5
 3078 0ee9 7C       		.byte	0x7c
 3079 0eea 15080000 		.4byte	0x815
 3080 0eee 00       		.byte	0
 3081 0eef 20       		.uleb128 0x20
 3082 0ef0 85090000 		.4byte	.LASF227
 3083 0ef4 06       		.byte	0x6
 3084 0ef5 C2       		.byte	0xc2
 3085 0ef6 DE020000 		.4byte	0x2de
 3086 0efa 03       		.byte	0x3
 3087 0efb 350F0000 		.4byte	0xf35
 3088 0eff 1F       		.uleb128 0x1f
ARM GAS  C:\Users\haske\AppData\Local\Temp\ccmIjDGo.s 			page 86


 3089 0f00 64737400 		.ascii	"dst\000"
 3090 0f04 06       		.byte	0x6
 3091 0f05 C2       		.byte	0xc2
 3092 0f06 DE020000 		.4byte	0x2de
 3093 0f0a 1F       		.uleb128 0x1f
 3094 0f0b 73726300 		.ascii	"src\000"
 3095 0f0f 06       		.byte	0x6
 3096 0f10 C2       		.byte	0xc2
 3097 0f11 D7020000 		.4byte	0x2d7
 3098 0f15 1F       		.uleb128 0x1f
 3099 0f16 6C656E00 		.ascii	"len\000"
 3100 0f1a 06       		.byte	0x6
 3101 0f1b C2       		.byte	0xc2
 3102 0f1c EF000000 		.4byte	0xef
 3103 0f20 21       		.uleb128 0x21
 3104 0f21 643800   		.ascii	"d8\000"
 3105 0f24 06       		.byte	0x6
 3106 0f25 C4       		.byte	0xc4
 3107 0f26 DD050000 		.4byte	0x5dd
 3108 0f2a 21       		.uleb128 0x21
 3109 0f2b 733800   		.ascii	"s8\000"
 3110 0f2e 06       		.byte	0x6
 3111 0f2f C5       		.byte	0xc5
 3112 0f30 C6020000 		.4byte	0x2c6
 3113 0f34 00       		.byte	0
 3114 0f35 22       		.uleb128 0x22
 3115 0f36 8F020000 		.4byte	.LASF275
 3116 0f3a 01       		.byte	0x1
 3117 0f3b 7C01     		.2byte	0x17c
 3118 0f3d B8000000 		.4byte	0xb8
 3119 0f41 00000000 		.4byte	.LFB162
 3120 0f45 3E000000 		.4byte	.LFE162-.LFB162
 3121 0f49 01       		.uleb128 0x1
 3122 0f4a 9C       		.byte	0x9c
 3123 0f4b 700F0000 		.4byte	0xf70
 3124 0f4f 23       		.uleb128 0x23
 3125 0f50 68657800 		.ascii	"hex\000"
 3126 0f54 01       		.byte	0x1
 3127 0f55 7C01     		.2byte	0x17c
 3128 0f57 FD020000 		.4byte	0x2fd
 3129 0f5b 00000000 		.4byte	.LLST0
 3130 0f5f 24       		.uleb128 0x24
 3131 0f60 B7010000 		.4byte	.LASF236
 3132 0f64 01       		.byte	0x1
 3133 0f65 7E01     		.2byte	0x17e
 3134 0f67 B8000000 		.4byte	0xb8
 3135 0f6b 2C000000 		.4byte	.LLST1
 3136 0f6f 00       		.byte	0
 3137 0f70 25       		.uleb128 0x25
 3138 0f71 540D0000 		.4byte	.LASF228
 3139 0f75 01       		.byte	0x1
 3140 0f76 37       		.byte	0x37
 3141 0f77 00000000 		.4byte	.LFB159
 3142 0f7b 38000000 		.4byte	.LFE159-.LFB159
 3143 0f7f 01       		.uleb128 0x1
 3144 0f80 9C       		.byte	0x9c
 3145 0f81 3E100000 		.4byte	0x103e
ARM GAS  C:\Users\haske\AppData\Local\Temp\ccmIjDGo.s 			page 87


 3146 0f85 26       		.uleb128 0x26
 3147 0f86 64736300 		.ascii	"dsc\000"
 3148 0f8a 01       		.byte	0x1
 3149 0f8b 37       		.byte	0x37
 3150 0f8c 100E0000 		.4byte	0xe10
 3151 0f90 87000000 		.4byte	.LLST2
 3152 0f94 27       		.uleb128 0x27
 3153 0f95 700E0000 		.4byte	0xe70
 3154 0f99 0E000000 		.4byte	.LBB46
 3155 0f9d 04000000 		.4byte	.LBE46-.LBB46
 3156 0fa1 01       		.byte	0x1
 3157 0fa2 3B       		.byte	0x3b
 3158 0fa3 D40F0000 		.4byte	0xfd4
 3159 0fa7 28       		.uleb128 0x28
 3160 0fa8 400E0000 		.4byte	0xe40
 3161 0fac 0E000000 		.4byte	.LBB47
 3162 0fb0 04000000 		.4byte	.LBE47-.LBB47
 3163 0fb4 02       		.byte	0x2
 3164 0fb5 B702     		.2byte	0x2b7
 3165 0fb7 29       		.uleb128 0x29
 3166 0fb8 650E0000 		.4byte	0xe65
 3167 0fbc B3000000 		.4byte	.LLST3
 3168 0fc0 29       		.uleb128 0x29
 3169 0fc1 5B0E0000 		.4byte	0xe5b
 3170 0fc5 B3000000 		.4byte	.LLST3
 3171 0fc9 29       		.uleb128 0x29
 3172 0fca 510E0000 		.4byte	0xe51
 3173 0fce B3000000 		.4byte	.LLST3
 3174 0fd2 00       		.byte	0
 3175 0fd3 00       		.byte	0
 3176 0fd4 27       		.uleb128 0x27
 3177 0fd5 700E0000 		.4byte	0xe70
 3178 0fd9 20000000 		.4byte	.LBB49
 3179 0fdd 04000000 		.4byte	.LBE49-.LBB49
 3180 0fe1 01       		.byte	0x1
 3181 0fe2 3F       		.byte	0x3f
 3182 0fe3 14100000 		.4byte	0x1014
 3183 0fe7 28       		.uleb128 0x28
 3184 0fe8 400E0000 		.4byte	0xe40
 3185 0fec 20000000 		.4byte	.LBB50
 3186 0ff0 04000000 		.4byte	.LBE50-.LBB50
 3187 0ff4 02       		.byte	0x2
 3188 0ff5 B702     		.2byte	0x2b7
 3189 0ff7 29       		.uleb128 0x29
 3190 0ff8 650E0000 		.4byte	0xe65
 3191 0ffc C7000000 		.4byte	.LLST6
 3192 1000 29       		.uleb128 0x29
 3193 1001 5B0E0000 		.4byte	0xe5b
 3194 1005 C7000000 		.4byte	.LLST6
 3195 1009 29       		.uleb128 0x29
 3196 100a 510E0000 		.4byte	0xe51
 3197 100e C7000000 		.4byte	.LLST6
 3198 1012 00       		.byte	0
 3199 1013 00       		.byte	0
 3200 1014 2A       		.uleb128 0x2a
 3201 1015 0A000000 		.4byte	.LVL12
 3202 1019 03180000 		.4byte	0x1803
ARM GAS  C:\Users\haske\AppData\Local\Temp\ccmIjDGo.s 			page 88


 3203 101d 2E100000 		.4byte	0x102e
 3204 1021 2B       		.uleb128 0x2b
 3205 1022 01       		.uleb128 0x1
 3206 1023 50       		.byte	0x50
 3207 1024 02       		.uleb128 0x2
 3208 1025 74       		.byte	0x74
 3209 1026 00       		.sleb128 0
 3210 1027 2B       		.uleb128 0x2b
 3211 1028 01       		.uleb128 0x1
 3212 1029 51       		.byte	0x51
 3213 102a 02       		.uleb128 0x2
 3214 102b 08       		.byte	0x8
 3215 102c 20       		.byte	0x20
 3216 102d 00       		.byte	0
 3217 102e 2C       		.uleb128 0x2c
 3218 102f 2C000000 		.4byte	.LVL17
 3219 1033 0E180000 		.4byte	0x180e
 3220 1037 2B       		.uleb128 0x2b
 3221 1038 01       		.uleb128 0x1
 3222 1039 50       		.byte	0x50
 3223 103a 01       		.uleb128 0x1
 3224 103b 35       		.byte	0x35
 3225 103c 00       		.byte	0
 3226 103d 00       		.byte	0
 3227 103e 2D       		.uleb128 0x2d
 3228 103f 320D0000 		.4byte	.LASF229
 3229 1043 01       		.byte	0x1
 3230 1044 6C01     		.2byte	0x16c
 3231 1046 00000000 		.4byte	.LFB161
 3232 104a 08000000 		.4byte	.LFE161-.LFB161
 3233 104e 01       		.uleb128 0x1
 3234 104f 9C       		.byte	0x9c
 3235 1050 BA100000 		.4byte	0x10ba
 3236 1054 2E       		.uleb128 0x2e
 3237 1055 6B0D0000 		.4byte	.LASF230
 3238 1059 01       		.byte	0x1
 3239 105a 6C01     		.2byte	0x16c
 3240 105c 0A0E0000 		.4byte	0xe0a
 3241 1060 DB000000 		.4byte	.LLST9
 3242 1064 23       		.uleb128 0x23
 3243 1065 64736300 		.ascii	"dsc\000"
 3244 1069 01       		.byte	0x1
 3245 106a 6C01     		.2byte	0x16c
 3246 106c BF0C0000 		.4byte	0xcbf
 3247 1070 FC000000 		.4byte	.LLST10
 3248 1074 2E       		.uleb128 0x2e
 3249 1075 36090000 		.4byte	.LASF231
 3250 1079 01       		.byte	0x1
 3251 107a 6C01     		.2byte	0x16c
 3252 107c 400C0000 		.4byte	0xc40
 3253 1080 1D010000 		.4byte	.LLST11
 3254 1084 2E       		.uleb128 0x2e
 3255 1085 D60C0000 		.4byte	.LASF232
 3256 1089 01       		.byte	0x1
 3257 108a 6D01     		.2byte	0x16d
 3258 108c E4000000 		.4byte	0xe4
 3259 1090 3E010000 		.4byte	.LLST12
ARM GAS  C:\Users\haske\AppData\Local\Temp\ccmIjDGo.s 			page 89


 3260 1094 2F       		.uleb128 0x2f
 3261 1095 06000000 		.4byte	.LVL20
 3262 1099 02       		.uleb128 0x2
 3263 109a 74       		.byte	0x74
 3264 109b 00       		.sleb128 0
 3265 109c 2B       		.uleb128 0x2b
 3266 109d 01       		.uleb128 0x1
 3267 109e 50       		.byte	0x50
 3268 109f 03       		.uleb128 0x3
 3269 10a0 F3       		.byte	0xf3
 3270 10a1 01       		.uleb128 0x1
 3271 10a2 50       		.byte	0x50
 3272 10a3 2B       		.uleb128 0x2b
 3273 10a4 01       		.uleb128 0x1
 3274 10a5 51       		.byte	0x51
 3275 10a6 03       		.uleb128 0x3
 3276 10a7 F3       		.byte	0xf3
 3277 10a8 01       		.uleb128 0x1
 3278 10a9 51       		.byte	0x51
 3279 10aa 2B       		.uleb128 0x2b
 3280 10ab 01       		.uleb128 0x1
 3281 10ac 52       		.byte	0x52
 3282 10ad 03       		.uleb128 0x3
 3283 10ae F3       		.byte	0xf3
 3284 10af 01       		.uleb128 0x1
 3285 10b0 52       		.byte	0x52
 3286 10b1 2B       		.uleb128 0x2b
 3287 10b2 01       		.uleb128 0x1
 3288 10b3 53       		.byte	0x53
 3289 10b4 03       		.uleb128 0x3
 3290 10b5 F3       		.byte	0xf3
 3291 10b6 01       		.uleb128 0x1
 3292 10b7 53       		.byte	0x53
 3293 10b8 00       		.byte	0
 3294 10b9 00       		.byte	0
 3295 10ba 25       		.uleb128 0x25
 3296 10bb 01070000 		.4byte	.LASF233
 3297 10bf 01       		.byte	0x1
 3298 10c0 4D       		.byte	0x4d
 3299 10c1 00000000 		.4byte	.LFB160
 3300 10c5 CC050000 		.4byte	.LFE160-.LFB160
 3301 10c9 01       		.uleb128 0x1
 3302 10ca 9C       		.byte	0x9c
 3303 10cb BD170000 		.4byte	0x17bd
 3304 10cf 30       		.uleb128 0x30
 3305 10d0 6B0D0000 		.4byte	.LASF230
 3306 10d4 01       		.byte	0x1
 3307 10d5 4D       		.byte	0x4d
 3308 10d6 0A0E0000 		.4byte	0xe0a
 3309 10da 5F010000 		.4byte	.LLST13
 3310 10de 26       		.uleb128 0x26
 3311 10df 64736300 		.ascii	"dsc\000"
 3312 10e3 01       		.byte	0x1
 3313 10e4 4D       		.byte	0x4d
 3314 10e5 BF0C0000 		.4byte	0xcbf
 3315 10e9 98010000 		.4byte	.LLST14
 3316 10ed 30       		.uleb128 0x30
ARM GAS  C:\Users\haske\AppData\Local\Temp\ccmIjDGo.s 			page 90


 3317 10ee B60C0000 		.4byte	.LASF234
 3318 10f2 01       		.byte	0x1
 3319 10f3 4E       		.byte	0x4e
 3320 10f4 5A0A0000 		.4byte	0xa5a
 3321 10f8 C4010000 		.4byte	.LLST15
 3322 10fc 26       		.uleb128 0x26
 3323 10fd 74787400 		.ascii	"txt\000"
 3324 1101 01       		.byte	0x1
 3325 1102 4E       		.byte	0x4e
 3326 1103 04030000 		.4byte	0x304
 3327 1107 FD010000 		.4byte	.LLST16
 3328 110b 30       		.uleb128 0x30
 3329 110c CB050000 		.4byte	.LASF235
 3330 1110 01       		.byte	0x1
 3331 1111 4E       		.byte	0x4e
 3332 1112 BD170000 		.4byte	0x17bd
 3333 1116 36020000 		.4byte	.LLST17
 3334 111a 31       		.uleb128 0x31
 3335 111b 15070000 		.4byte	.LASF237
 3336 111f 01       		.byte	0x1
 3337 1120 5B       		.byte	0x5b
 3338 1121 20080000 		.4byte	0x820
 3339 1125 03       		.uleb128 0x3
 3340 1126 91       		.byte	0x91
 3341 1127 B87F     		.sleb128 -72
 3342 1129 32       		.uleb128 0x32
 3343 112a CB0B0000 		.4byte	.LASF147
 3344 112e 01       		.byte	0x1
 3345 112f 5D       		.byte	0x5d
 3346 1130 15080000 		.4byte	0x815
 3347 1134 56020000 		.4byte	.LLST18
 3348 1138 33       		.uleb128 0x33
 3349 1139 7700     		.ascii	"w\000"
 3350 113b 01       		.byte	0x1
 3351 113c 5E       		.byte	0x5e
 3352 113d D9000000 		.4byte	0xd9
 3353 1141 82020000 		.4byte	.LLST19
 3354 1145 31       		.uleb128 0x31
 3355 1146 3F040000 		.4byte	.LASF238
 3356 114a 01       		.byte	0x1
 3357 114b 64       		.byte	0x64
 3358 114c 69010000 		.4byte	0x169
 3359 1150 03       		.uleb128 0x3
 3360 1151 91       		.byte	0x91
 3361 1152 B07F     		.sleb128 -80
 3362 1154 32       		.uleb128 0x32
 3363 1155 12040000 		.4byte	.LASF239
 3364 1159 01       		.byte	0x1
 3365 115a 65       		.byte	0x65
 3366 115b 9F020000 		.4byte	0x29f
 3367 115f A0020000 		.4byte	.LLST20
 3368 1163 32       		.uleb128 0x32
 3369 1164 47080000 		.4byte	.LASF155
 3370 1168 01       		.byte	0x1
 3371 1169 68       		.byte	0x68
 3372 116a C0040000 		.4byte	0x4c0
 3373 116e B3020000 		.4byte	.LLST21
ARM GAS  C:\Users\haske\AppData\Local\Temp\ccmIjDGo.s 			page 91


 3374 1172 32       		.uleb128 0x32
 3375 1173 F90B0000 		.4byte	.LASF221
 3376 1177 01       		.byte	0x1
 3377 1178 69       		.byte	0x69
 3378 1179 F6040000 		.4byte	0x4f6
 3379 117d D3020000 		.4byte	.LLST22
 3380 1181 32       		.uleb128 0x32
 3381 1182 680A0000 		.4byte	.LASF240
 3382 1186 01       		.byte	0x1
 3383 1187 79       		.byte	0x79
 3384 1188 D9000000 		.4byte	0xd9
 3385 118c E7020000 		.4byte	.LLST23
 3386 1190 32       		.uleb128 0x32
 3387 1191 8D000000 		.4byte	.LASF35
 3388 1195 01       		.byte	0x1
 3389 1196 7A       		.byte	0x7a
 3390 1197 D9000000 		.4byte	0xd9
 3391 119b FA020000 		.4byte	.LLST24
 3392 119f 32       		.uleb128 0x32
 3393 11a0 9B0B0000 		.4byte	.LASF241
 3394 11a4 01       		.byte	0x1
 3395 11a5 7D       		.byte	0x7d
 3396 11a6 D9000000 		.4byte	0xd9
 3397 11aa 1A030000 		.4byte	.LLST25
 3398 11ae 34       		.uleb128 0x34
 3399 11af 706F7300 		.ascii	"pos\000"
 3400 11b3 01       		.byte	0x1
 3401 11b4 7E       		.byte	0x7e
 3402 11b5 29010000 		.4byte	0x129
 3403 11b9 03       		.uleb128 0x3
 3404 11ba 91       		.byte	0x91
 3405 11bb AC7F     		.sleb128 -84
 3406 11bd 32       		.uleb128 0x32
 3407 11be DE050000 		.4byte	.LASF242
 3408 11c2 01       		.byte	0x1
 3409 11c3 82       		.byte	0x82
 3410 11c4 D9000000 		.4byte	0xd9
 3411 11c8 66030000 		.4byte	.LLST26
 3412 11cc 32       		.uleb128 0x32
 3413 11cd DE0D0000 		.4byte	.LASF243
 3414 11d1 01       		.byte	0x1
 3415 11d2 83       		.byte	0x83
 3416 11d3 D9000000 		.4byte	0xd9
 3417 11d7 8E030000 		.4byte	.LLST27
 3418 11db 32       		.uleb128 0x32
 3419 11dc 1A040000 		.4byte	.LASF161
 3420 11e0 01       		.byte	0x1
 3421 11e1 88       		.byte	0x88
 3422 11e2 E4000000 		.4byte	0xe4
 3423 11e6 D7030000 		.4byte	.LLST28
 3424 11ea 32       		.uleb128 0x32
 3425 11eb 6E020000 		.4byte	.LASF244
 3426 11ef 01       		.byte	0x1
 3427 11f0 89       		.byte	0x89
 3428 11f1 D9000000 		.4byte	0xd9
 3429 11f5 44040000 		.4byte	.LLST29
 3430 11f9 32       		.uleb128 0x32
ARM GAS  C:\Users\haske\AppData\Local\Temp\ccmIjDGo.s 			page 92


 3431 11fa BD0C0000 		.4byte	.LASF245
 3432 11fe 01       		.byte	0x1
 3433 11ff 9A       		.byte	0x9a
 3434 1200 E4000000 		.4byte	0xe4
 3435 1204 87040000 		.4byte	.LLST30
 3436 1208 32       		.uleb128 0x32
 3437 1209 CB0D0000 		.4byte	.LASF148
 3438 120d 01       		.byte	0x1
 3439 120e B9       		.byte	0xb9
 3440 120f E4000000 		.4byte	0xe4
 3441 1213 C6040000 		.4byte	.LLST31
 3442 1217 32       		.uleb128 0x32
 3443 1218 7E080000 		.4byte	.LASF149
 3444 121c 01       		.byte	0x1
 3445 121d BA       		.byte	0xba
 3446 121e E4000000 		.4byte	0xe4
 3447 1222 E4040000 		.4byte	.LLST32
 3448 1226 31       		.uleb128 0x31
 3449 1227 2D0C0000 		.4byte	.LASF246
 3450 122b 01       		.byte	0x1
 3451 122c C0       		.byte	0xc0
 3452 122d 6C090000 		.4byte	0x96c
 3453 1231 03       		.uleb128 0x3
 3454 1232 91       		.byte	0x91
 3455 1233 A07F     		.sleb128 -96
 3456 1235 32       		.uleb128 0x32
 3457 1236 FE050000 		.4byte	.LASF247
 3458 123a 01       		.byte	0x1
 3459 123b CA       		.byte	0xca
 3460 123c 350E0000 		.4byte	0xe35
 3461 1240 0D050000 		.4byte	.LLST33
 3462 1244 34       		.uleb128 0x34
 3463 1245 6900     		.ascii	"i\000"
 3464 1247 01       		.byte	0x1
 3465 1248 CB       		.byte	0xcb
 3466 1249 E4000000 		.4byte	0xe4
 3467 124d 03       		.uleb128 0x3
 3468 124e 91       		.byte	0x91
 3469 124f 9C7F     		.sleb128 -100
 3470 1251 32       		.uleb128 0x32
 3471 1252 420F0000 		.4byte	.LASF248
 3472 1256 01       		.byte	0x1
 3473 1257 CC       		.byte	0xcc
 3474 1258 E4000000 		.4byte	0xe4
 3475 125c 71050000 		.4byte	.LLST34
 3476 1260 32       		.uleb128 0x32
 3477 1261 F9060000 		.4byte	.LASF167
 3478 1265 01       		.byte	0x1
 3479 1266 CD       		.byte	0xcd
 3480 1267 C9030000 		.4byte	0x3c9
 3481 126b AA050000 		.4byte	.LLST35
 3482 126f 32       		.uleb128 0x32
 3483 1270 5C0B0000 		.4byte	.LASF112
 3484 1274 01       		.byte	0x1
 3485 1275 CE       		.byte	0xce
 3486 1276 C9030000 		.4byte	0x3c9
 3487 127a D3050000 		.4byte	.LLST36
ARM GAS  C:\Users\haske\AppData\Local\Temp\ccmIjDGo.s 			page 93


 3488 127e 32       		.uleb128 0x32
 3489 127f 9F0C0000 		.4byte	.LASF249
 3490 1283 01       		.byte	0x1
 3491 1284 CF       		.byte	0xcf
 3492 1285 D9000000 		.4byte	0xd9
 3493 1289 F1050000 		.4byte	.LLST37
 3494 128d 31       		.uleb128 0x31
 3495 128e 5B010000 		.4byte	.LASF250
 3496 1292 01       		.byte	0x1
 3497 1293 D1       		.byte	0xd1
 3498 1294 3B070000 		.4byte	0x73b
 3499 1298 03       		.uleb128 0x3
 3500 1299 91       		.byte	0x91
 3501 129a E47E     		.sleb128 -156
 3502 129c 32       		.uleb128 0x32
 3503 129d BF000000 		.4byte	.LASF251
 3504 12a1 01       		.byte	0x1
 3505 12a2 D5       		.byte	0xd5
 3506 12a3 D9000000 		.4byte	0xd9
 3507 12a7 0F060000 		.4byte	.LLST38
 3508 12ab 27       		.uleb128 0x27
 3509 12ac 7D0E0000 		.4byte	0xe7d
 3510 12b0 70000000 		.4byte	.LBB52
 3511 12b4 06000000 		.4byte	.LBE52-.LBB52
 3512 12b8 01       		.byte	0x1
 3513 12b9 6B       		.byte	0x6b
 3514 12ba DA120000 		.4byte	0x12da
 3515 12be 29       		.uleb128 0x29
 3516 12bf 9F0E0000 		.4byte	0xe9f
 3517 12c3 2B060000 		.4byte	.LLST39
 3518 12c7 29       		.uleb128 0x29
 3519 12c8 940E0000 		.4byte	0xe94
 3520 12cc 40060000 		.4byte	.LLST40
 3521 12d0 29       		.uleb128 0x29
 3522 12d1 890E0000 		.4byte	0xe89
 3523 12d5 58060000 		.4byte	.LLST41
 3524 12d9 00       		.byte	0
 3525 12da 27       		.uleb128 0x27
 3526 12db B70E0000 		.4byte	0xeb7
 3527 12df 7E000000 		.4byte	.LBB54
 3528 12e3 10000000 		.4byte	.LBE54-.LBB54
 3529 12e7 01       		.byte	0x1
 3530 12e8 6F       		.byte	0x6f
 3531 12e9 F7120000 		.4byte	0x12f7
 3532 12ed 29       		.uleb128 0x29
 3533 12ee C70E0000 		.4byte	0xec7
 3534 12f2 70060000 		.4byte	.LLST42
 3535 12f6 00       		.byte	0
 3536 12f7 35       		.uleb128 0x35
 3537 12f8 90000000 		.4byte	.LBB56
 3538 12fc 20000000 		.4byte	.LBE56-.LBB56
 3539 1300 33130000 		.4byte	0x1333
 3540 1304 34       		.uleb128 0x34
 3541 1305 7000     		.ascii	"p\000"
 3542 1307 01       		.byte	0x1
 3543 1308 73       		.byte	0x73
 3544 1309 29010000 		.4byte	0x129
ARM GAS  C:\Users\haske\AppData\Local\Temp\ccmIjDGo.s 			page 94


 3545 130d 03       		.uleb128 0x3
 3546 130e 91       		.byte	0x91
 3547 130f DC7E     		.sleb128 -164
 3548 1311 2C       		.uleb128 0x2c
 3549 1312 AC000000 		.4byte	.LVL35
 3550 1316 1A180000 		.4byte	0x181a
 3551 131a 2B       		.uleb128 0x2b
 3552 131b 01       		.uleb128 0x1
 3553 131c 50       		.byte	0x50
 3554 131d 03       		.uleb128 0x3
 3555 131e 91       		.byte	0x91
 3556 131f DC7E     		.sleb128 -164
 3557 1321 2B       		.uleb128 0x2b
 3558 1322 01       		.uleb128 0x1
 3559 1323 51       		.byte	0x51
 3560 1324 04       		.uleb128 0x4
 3561 1325 91       		.byte	0x91
 3562 1326 A47E     		.sleb128 -220
 3563 1328 06       		.byte	0x6
 3564 1329 2B       		.uleb128 0x2b
 3565 132a 02       		.uleb128 0x2
 3566 132b 7D       		.byte	0x7d
 3567 132c 04       		.sleb128 4
 3568 132d 03       		.uleb128 0x3
 3569 132e 0A       		.byte	0xa
 3570 132f FF1F     		.2byte	0x1fff
 3571 1331 00       		.byte	0
 3572 1332 00       		.byte	0
 3573 1333 27       		.uleb128 0x27
 3574 1334 D30E0000 		.4byte	0xed3
 3575 1338 B0000000 		.4byte	.LBB57
 3576 133c 06000000 		.4byte	.LBE57-.LBB57
 3577 1340 01       		.byte	0x1
 3578 1341 79       		.byte	0x79
 3579 1342 50130000 		.4byte	0x1350
 3580 1346 29       		.uleb128 0x29
 3581 1347 E30E0000 		.4byte	0xee3
 3582 134b 85060000 		.4byte	.LLST43
 3583 134f 00       		.byte	0
 3584 1350 27       		.uleb128 0x27
 3585 1351 B70E0000 		.4byte	0xeb7
 3586 1355 EC010000 		.4byte	.LBB59
 3587 1359 10000000 		.4byte	.LBE59-.LBB59
 3588 135d 01       		.byte	0x1
 3589 135e B1       		.byte	0xb1
 3590 135f 6D130000 		.4byte	0x136d
 3591 1363 29       		.uleb128 0x29
 3592 1364 C70E0000 		.4byte	0xec7
 3593 1368 9A060000 		.4byte	.LLST44
 3594 136c 00       		.byte	0
 3595 136d 27       		.uleb128 0x27
 3596 136e B70E0000 		.4byte	0xeb7
 3597 1372 2C020000 		.4byte	.LBB61
 3598 1376 10000000 		.4byte	.LBE61-.LBB61
 3599 137a 01       		.byte	0x1
 3600 137b B7       		.byte	0xb7
 3601 137c 8A130000 		.4byte	0x138a
ARM GAS  C:\Users\haske\AppData\Local\Temp\ccmIjDGo.s 			page 95


 3602 1380 29       		.uleb128 0x29
 3603 1381 C70E0000 		.4byte	0xec7
 3604 1385 AF060000 		.4byte	.LLST45
 3605 1389 00       		.byte	0
 3606 138a 35       		.uleb128 0x35
 3607 138b BA020000 		.4byte	.LBB63
 3608 138f F4020000 		.4byte	.LBE63-.LBB63
 3609 1393 CA160000 		.4byte	0x16ca
 3610 1397 32       		.uleb128 0x32
 3611 1398 560E0000 		.4byte	.LASF252
 3612 139c 01       		.byte	0x1
 3613 139d E1       		.byte	0xe1
 3614 139e 04030000 		.4byte	0x304
 3615 13a2 C4060000 		.4byte	.LLST46
 3616 13a6 35       		.uleb128 0x35
 3617 13a7 CC020000 		.4byte	.LBB64
 3618 13ab 82010000 		.4byte	.LBE64-.LBB64
 3619 13af 88150000 		.4byte	0x1588
 3620 13b3 32       		.uleb128 0x32
 3621 13b4 A50A0000 		.4byte	.LASF253
 3622 13b8 01       		.byte	0x1
 3623 13b9 E5       		.byte	0xe5
 3624 13ba E4000000 		.4byte	0xe4
 3625 13be D9060000 		.4byte	.LLST47
 3626 13c2 31       		.uleb128 0x31
 3627 13c3 D60C0000 		.4byte	.LASF232
 3628 13c7 01       		.byte	0x1
 3629 13c8 F0       		.byte	0xf0
 3630 13c9 E4000000 		.4byte	0xe4
 3631 13cd 03       		.uleb128 0x3
 3632 13ce 91       		.byte	0x91
 3633 13cf D47E     		.sleb128 -172
 3634 13d1 31       		.uleb128 0x31
 3635 13d2 00090000 		.4byte	.LASF254
 3636 13d6 01       		.byte	0x1
 3637 13d7 F1       		.byte	0xf1
 3638 13d8 E4000000 		.4byte	0xe4
 3639 13dc 03       		.uleb128 0x3
 3640 13dd 91       		.byte	0x91
 3641 13de D87E     		.sleb128 -168
 3642 13e0 35       		.uleb128 0x35
 3643 13e1 34030000 		.4byte	.LBB65
 3644 13e5 80000000 		.4byte	.LBE65-.LBB65
 3645 13e9 D6140000 		.4byte	0x14d6
 3646 13ed 36       		.uleb128 0x36
 3647 13ee 62756600 		.ascii	"buf\000"
 3648 13f2 01       		.byte	0x1
 3649 13f3 0901     		.2byte	0x109
 3650 13f5 C3170000 		.4byte	0x17c3
 3651 13f9 03       		.uleb128 0x3
 3652 13fa 91       		.byte	0x91
 3653 13fb DC7E     		.sleb128 -164
 3654 13fd 37       		.uleb128 0x37
 3655 13fe 7200     		.ascii	"r\000"
 3656 1400 01       		.byte	0x1
 3657 1401 0C01     		.2byte	0x10c
 3658 1403 9F000000 		.4byte	0x9f
ARM GAS  C:\Users\haske\AppData\Local\Temp\ccmIjDGo.s 			page 96


 3659 1407 1E070000 		.4byte	.LLST48
 3660 140b 37       		.uleb128 0x37
 3661 140c 6700     		.ascii	"g\000"
 3662 140e 01       		.byte	0x1
 3663 140f 0C01     		.2byte	0x10c
 3664 1411 9F000000 		.4byte	0x9f
 3665 1415 3E070000 		.4byte	.LLST49
 3666 1419 37       		.uleb128 0x37
 3667 141a 6200     		.ascii	"b\000"
 3668 141c 01       		.byte	0x1
 3669 141d 0C01     		.2byte	0x10c
 3670 141f 9F000000 		.4byte	0x9f
 3671 1423 51070000 		.4byte	.LLST50
 3672 1427 38       		.uleb128 0x38
 3673 1428 EF0E0000 		.4byte	0xeef
 3674 142c 38030000 		.4byte	.LBB66
 3675 1430 00000000 		.4byte	.Ldebug_ranges0+0
 3676 1434 01       		.byte	0x1
 3677 1435 0A01     		.2byte	0x10a
 3678 1437 6F140000 		.4byte	0x146f
 3679 143b 29       		.uleb128 0x29
 3680 143c 150F0000 		.4byte	0xf15
 3681 1440 64070000 		.4byte	.LLST51
 3682 1444 29       		.uleb128 0x29
 3683 1445 0A0F0000 		.4byte	0xf0a
 3684 1449 83070000 		.4byte	.LLST52
 3685 144d 29       		.uleb128 0x29
 3686 144e FF0E0000 		.4byte	0xeff
 3687 1452 AA070000 		.4byte	.LLST53
 3688 1456 39       		.uleb128 0x39
 3689 1457 00000000 		.4byte	.Ldebug_ranges0+0
 3690 145b 3A       		.uleb128 0x3a
 3691 145c 200F0000 		.4byte	0xf20
 3692 1460 D9070000 		.4byte	.LLST54
 3693 1464 3A       		.uleb128 0x3a
 3694 1465 2A0F0000 		.4byte	0xf2a
 3695 1469 FA070000 		.4byte	.LLST55
 3696 146d 00       		.byte	0
 3697 146e 00       		.byte	0
 3698 146f 3B       		.uleb128 0x3b
 3699 1470 400E0000 		.4byte	0xe40
 3700 1474 8E030000 		.4byte	.LBB70
 3701 1478 26000000 		.4byte	.LBE70-.LBB70
 3702 147c 01       		.byte	0x1
 3703 147d 1001     		.2byte	0x110
 3704 147f 9F140000 		.4byte	0x149f
 3705 1483 29       		.uleb128 0x29
 3706 1484 650E0000 		.4byte	0xe65
 3707 1488 25080000 		.4byte	.LLST56
 3708 148c 29       		.uleb128 0x29
 3709 148d 5B0E0000 		.4byte	0xe5b
 3710 1491 38080000 		.4byte	.LLST57
 3711 1495 29       		.uleb128 0x29
 3712 1496 510E0000 		.4byte	0xe51
 3713 149a 4B080000 		.4byte	.LLST58
 3714 149e 00       		.byte	0
 3715 149f 3C       		.uleb128 0x3c
ARM GAS  C:\Users\haske\AppData\Local\Temp\ccmIjDGo.s 			page 97


 3716 14a0 58030000 		.4byte	.LVL99
 3717 14a4 350F0000 		.4byte	0xf35
 3718 14a8 3C       		.uleb128 0x3c
 3719 14a9 62030000 		.4byte	.LVL100
 3720 14ad 350F0000 		.4byte	0xf35
 3721 14b1 3C       		.uleb128 0x3c
 3722 14b2 6E030000 		.4byte	.LVL102
 3723 14b6 350F0000 		.4byte	0xf35
 3724 14ba 3C       		.uleb128 0x3c
 3725 14bb 78030000 		.4byte	.LVL103
 3726 14bf 350F0000 		.4byte	0xf35
 3727 14c3 3C       		.uleb128 0x3c
 3728 14c4 82030000 		.4byte	.LVL105
 3729 14c8 350F0000 		.4byte	0xf35
 3730 14cc 3C       		.uleb128 0x3c
 3731 14cd 8C030000 		.4byte	.LVL107
 3732 14d1 350F0000 		.4byte	0xf35
 3733 14d5 00       		.byte	0
 3734 14d6 35       		.uleb128 0x35
 3735 14d7 F0030000 		.4byte	.LBB72
 3736 14db 36000000 		.4byte	.LBE72-.LBB72
 3737 14df 14150000 		.4byte	0x1514
 3738 14e3 3D       		.uleb128 0x3d
 3739 14e4 33010000 		.4byte	.LASF255
 3740 14e8 01       		.byte	0x1
 3741 14e9 2301     		.2byte	0x123
 3742 14eb 69010000 		.4byte	0x169
 3743 14ef 03       		.uleb128 0x3
 3744 14f0 91       		.byte	0x91
 3745 14f1 DC7E     		.sleb128 -164
 3746 14f3 2C       		.uleb128 0x2c
 3747 14f4 22040000 		.4byte	.LVL119
 3748 14f8 25180000 		.4byte	0x1825
 3749 14fc 2B       		.uleb128 0x2b
 3750 14fd 01       		.uleb128 0x1
 3751 14fe 50       		.byte	0x50
 3752 14ff 04       		.uleb128 0x4
 3753 1500 91       		.byte	0x91
 3754 1501 A07E     		.sleb128 -224
 3755 1503 06       		.byte	0x6
 3756 1504 2B       		.uleb128 0x2b
 3757 1505 01       		.uleb128 0x1
 3758 1506 51       		.byte	0x51
 3759 1507 03       		.uleb128 0x3
 3760 1508 91       		.byte	0x91
 3761 1509 E47E     		.sleb128 -156
 3762 150b 2B       		.uleb128 0x2b
 3763 150c 01       		.uleb128 0x1
 3764 150d 52       		.byte	0x52
 3765 150e 03       		.uleb128 0x3
 3766 150f 91       		.byte	0x91
 3767 1510 DC7E     		.sleb128 -164
 3768 1512 00       		.byte	0
 3769 1513 00       		.byte	0
 3770 1514 3E       		.uleb128 0x3e
 3771 1515 E2020000 		.4byte	.LVL84
 3772 1519 26150000 		.4byte	0x1526
ARM GAS  C:\Users\haske\AppData\Local\Temp\ccmIjDGo.s 			page 98


 3773 151d 2B       		.uleb128 0x2b
 3774 151e 01       		.uleb128 0x1
 3775 151f 50       		.byte	0x50
 3776 1520 04       		.uleb128 0x4
 3777 1521 91       		.byte	0x91
 3778 1522 A47E     		.sleb128 -220
 3779 1524 06       		.byte	0x6
 3780 1525 00       		.byte	0
 3781 1526 2A       		.uleb128 0x2a
 3782 1527 FC020000 		.4byte	.LVL88
 3783 152b 30180000 		.4byte	0x1830
 3784 152f 51150000 		.4byte	0x1551
 3785 1533 2B       		.uleb128 0x2b
 3786 1534 01       		.uleb128 0x1
 3787 1535 50       		.byte	0x50
 3788 1536 04       		.uleb128 0x4
 3789 1537 91       		.byte	0x91
 3790 1538 9C7E     		.sleb128 -228
 3791 153a 06       		.byte	0x6
 3792 153b 2B       		.uleb128 0x2b
 3793 153c 01       		.uleb128 0x1
 3794 153d 51       		.byte	0x51
 3795 153e 03       		.uleb128 0x3
 3796 153f 91       		.byte	0x91
 3797 1540 D47E     		.sleb128 -172
 3798 1542 2B       		.uleb128 0x2b
 3799 1543 01       		.uleb128 0x1
 3800 1544 52       		.byte	0x52
 3801 1545 03       		.uleb128 0x3
 3802 1546 91       		.byte	0x91
 3803 1547 D87E     		.sleb128 -168
 3804 1549 2B       		.uleb128 0x2b
 3805 154a 01       		.uleb128 0x1
 3806 154b 53       		.byte	0x53
 3807 154c 03       		.uleb128 0x3
 3808 154d 91       		.byte	0x91
 3809 154e 9C7F     		.sleb128 -100
 3810 1550 00       		.byte	0
 3811 1551 2A       		.uleb128 0x2a
 3812 1552 D8030000 		.4byte	.LVL116
 3813 1556 3B180000 		.4byte	0x183b
 3814 155a 67150000 		.4byte	0x1567
 3815 155e 2B       		.uleb128 0x2b
 3816 155f 01       		.uleb128 0x1
 3817 1560 50       		.byte	0x50
 3818 1561 04       		.uleb128 0x4
 3819 1562 91       		.byte	0x91
 3820 1563 987E     		.sleb128 -232
 3821 1565 06       		.byte	0x6
 3822 1566 00       		.byte	0
 3823 1567 2C       		.uleb128 0x2c
 3824 1568 36040000 		.4byte	.LVL121
 3825 156c 3E100000 		.4byte	0x103e
 3826 1570 2B       		.uleb128 0x2b
 3827 1571 01       		.uleb128 0x1
 3828 1572 50       		.byte	0x50
 3829 1573 04       		.uleb128 0x4
ARM GAS  C:\Users\haske\AppData\Local\Temp\ccmIjDGo.s 			page 99


 3830 1574 91       		.byte	0x91
 3831 1575 A07E     		.sleb128 -224
 3832 1577 06       		.byte	0x6
 3833 1578 2B       		.uleb128 0x2b
 3834 1579 01       		.uleb128 0x1
 3835 157a 51       		.byte	0x51
 3836 157b 03       		.uleb128 0x3
 3837 157c 91       		.byte	0x91
 3838 157d B87F     		.sleb128 -72
 3839 157f 2B       		.uleb128 0x2b
 3840 1580 01       		.uleb128 0x1
 3841 1581 52       		.byte	0x52
 3842 1582 03       		.uleb128 0x3
 3843 1583 91       		.byte	0x91
 3844 1584 AC7F     		.sleb128 -84
 3845 1586 00       		.byte	0
 3846 1587 00       		.byte	0
 3847 1588 35       		.uleb128 0x35
 3848 1589 62040000 		.4byte	.LBB73
 3849 158d 48000000 		.4byte	.LBE73-.LBB73
 3850 1591 DB150000 		.4byte	0x15db
 3851 1595 36       		.uleb128 0x36
 3852 1596 703100   		.ascii	"p1\000"
 3853 1599 01       		.byte	0x1
 3854 159a 3601     		.2byte	0x136
 3855 159c 29010000 		.4byte	0x129
 3856 15a0 03       		.uleb128 0x3
 3857 15a1 91       		.byte	0x91
 3858 15a2 D87E     		.sleb128 -168
 3859 15a4 36       		.uleb128 0x36
 3860 15a5 703200   		.ascii	"p2\000"
 3861 15a8 01       		.byte	0x1
 3862 15a9 3701     		.2byte	0x137
 3863 15ab 29010000 		.4byte	0x129
 3864 15af 03       		.uleb128 0x3
 3865 15b0 91       		.byte	0x91
 3866 15b1 DC7E     		.sleb128 -164
 3867 15b3 2C       		.uleb128 0x2c
 3868 15b4 AA040000 		.4byte	.LVL125
 3869 15b8 46180000 		.4byte	0x1846
 3870 15bc 2B       		.uleb128 0x2b
 3871 15bd 01       		.uleb128 0x1
 3872 15be 50       		.byte	0x50
 3873 15bf 04       		.uleb128 0x4
 3874 15c0 91       		.byte	0x91
 3875 15c1 A07E     		.sleb128 -224
 3876 15c3 06       		.byte	0x6
 3877 15c4 2B       		.uleb128 0x2b
 3878 15c5 01       		.uleb128 0x1
 3879 15c6 51       		.byte	0x51
 3880 15c7 03       		.uleb128 0x3
 3881 15c8 91       		.byte	0x91
 3882 15c9 A07F     		.sleb128 -96
 3883 15cb 2B       		.uleb128 0x2b
 3884 15cc 01       		.uleb128 0x1
 3885 15cd 52       		.byte	0x52
 3886 15ce 03       		.uleb128 0x3
ARM GAS  C:\Users\haske\AppData\Local\Temp\ccmIjDGo.s 			page 100


 3887 15cf 91       		.byte	0x91
 3888 15d0 D87E     		.sleb128 -168
 3889 15d2 2B       		.uleb128 0x2b
 3890 15d3 01       		.uleb128 0x1
 3891 15d4 53       		.byte	0x53
 3892 15d5 03       		.uleb128 0x3
 3893 15d6 91       		.byte	0x91
 3894 15d7 DC7E     		.sleb128 -164
 3895 15d9 00       		.byte	0
 3896 15da 00       		.byte	0
 3897 15db 35       		.uleb128 0x35
 3898 15dc B2040000 		.4byte	.LBB74
 3899 15e0 44000000 		.4byte	.LBE74-.LBB74
 3900 15e4 2E160000 		.4byte	0x162e
 3901 15e8 36       		.uleb128 0x36
 3902 15e9 703100   		.ascii	"p1\000"
 3903 15ec 01       		.byte	0x1
 3904 15ed 4101     		.2byte	0x141
 3905 15ef 29010000 		.4byte	0x129
 3906 15f3 03       		.uleb128 0x3
 3907 15f4 91       		.byte	0x91
 3908 15f5 D87E     		.sleb128 -168
 3909 15f7 36       		.uleb128 0x36
 3910 15f8 703200   		.ascii	"p2\000"
 3911 15fb 01       		.byte	0x1
 3912 15fc 4201     		.2byte	0x142
 3913 15fe 29010000 		.4byte	0x129
 3914 1602 03       		.uleb128 0x3
 3915 1603 91       		.byte	0x91
 3916 1604 DC7E     		.sleb128 -164
 3917 1606 2C       		.uleb128 0x2c
 3918 1607 F6040000 		.4byte	.LVL126
 3919 160b 46180000 		.4byte	0x1846
 3920 160f 2B       		.uleb128 0x2b
 3921 1610 01       		.uleb128 0x1
 3922 1611 50       		.byte	0x50
 3923 1612 04       		.uleb128 0x4
 3924 1613 91       		.byte	0x91
 3925 1614 A07E     		.sleb128 -224
 3926 1616 06       		.byte	0x6
 3927 1617 2B       		.uleb128 0x2b
 3928 1618 01       		.uleb128 0x1
 3929 1619 51       		.byte	0x51
 3930 161a 03       		.uleb128 0x3
 3931 161b 91       		.byte	0x91
 3932 161c A07F     		.sleb128 -96
 3933 161e 2B       		.uleb128 0x2b
 3934 161f 01       		.uleb128 0x1
 3935 1620 52       		.byte	0x52
 3936 1621 03       		.uleb128 0x3
 3937 1622 91       		.byte	0x91
 3938 1623 D87E     		.sleb128 -168
 3939 1625 2B       		.uleb128 0x2b
 3940 1626 01       		.uleb128 0x1
 3941 1627 53       		.byte	0x53
 3942 1628 03       		.uleb128 0x3
 3943 1629 91       		.byte	0x91
ARM GAS  C:\Users\haske\AppData\Local\Temp\ccmIjDGo.s 			page 101


 3944 162a DC7E     		.sleb128 -164
 3945 162c 00       		.byte	0
 3946 162d 00       		.byte	0
 3947 162e 3B       		.uleb128 0x3b
 3948 162f B70E0000 		.4byte	0xeb7
 3949 1633 38050000 		.4byte	.LBB75
 3950 1637 10000000 		.4byte	.LBE75-.LBB75
 3951 163b 01       		.byte	0x1
 3952 163c 5901     		.2byte	0x159
 3953 163e 4C160000 		.4byte	0x164c
 3954 1642 29       		.uleb128 0x29
 3955 1643 C70E0000 		.4byte	0xec7
 3956 1647 60080000 		.4byte	.LLST59
 3957 164b 00       		.byte	0
 3958 164c 3B       		.uleb128 0x3b
 3959 164d B70E0000 		.4byte	0xeb7
 3960 1651 74050000 		.4byte	.LBB77
 3961 1655 10000000 		.4byte	.LBE77-.LBB77
 3962 1659 01       		.byte	0x1
 3963 165a 6001     		.2byte	0x160
 3964 165c 6A160000 		.4byte	0x166a
 3965 1660 29       		.uleb128 0x29
 3966 1661 C70E0000 		.4byte	0xec7
 3967 1665 75080000 		.4byte	.LLST60
 3968 1669 00       		.byte	0
 3969 166a 2A       		.uleb128 0x2a
 3970 166b 12050000 		.4byte	.LVL128
 3971 166f 51180000 		.4byte	0x1851
 3972 1673 95160000 		.4byte	0x1695
 3973 1677 2B       		.uleb128 0x2b
 3974 1678 01       		.uleb128 0x1
 3975 1679 50       		.byte	0x50
 3976 167a 02       		.uleb128 0x2
 3977 167b 77       		.byte	0x77
 3978 167c 00       		.sleb128 0
 3979 167d 2B       		.uleb128 0x2b
 3980 167e 01       		.uleb128 0x1
 3981 167f 51       		.byte	0x51
 3982 1680 04       		.uleb128 0x4
 3983 1681 91       		.byte	0x91
 3984 1682 987E     		.sleb128 -232
 3985 1684 06       		.byte	0x6
 3986 1685 2B       		.uleb128 0x2b
 3987 1686 01       		.uleb128 0x1
 3988 1687 53       		.byte	0x53
 3989 1688 05       		.uleb128 0x5
 3990 1689 91       		.byte	0x91
 3991 168a A87E     		.sleb128 -216
 3992 168c 94       		.byte	0x94
 3993 168d 02       		.byte	0x2
 3994 168e 2B       		.uleb128 0x2b
 3995 168f 02       		.uleb128 0x2
 3996 1690 7D       		.byte	0x7d
 3997 1691 00       		.sleb128 0
 3998 1692 01       		.uleb128 0x1
 3999 1693 30       		.byte	0x30
 4000 1694 00       		.byte	0
ARM GAS  C:\Users\haske\AppData\Local\Temp\ccmIjDGo.s 			page 102


 4001 1695 2A       		.uleb128 0x2a
 4002 1696 38050000 		.4byte	.LVL130
 4003 169a 5C180000 		.4byte	0x185c
 4004 169e B1160000 		.4byte	0x16b1
 4005 16a2 2B       		.uleb128 0x2b
 4006 16a3 01       		.uleb128 0x1
 4007 16a4 50       		.byte	0x50
 4008 16a5 02       		.uleb128 0x2
 4009 16a6 77       		.byte	0x77
 4010 16a7 00       		.sleb128 0
 4011 16a8 2B       		.uleb128 0x2b
 4012 16a9 01       		.uleb128 0x1
 4013 16aa 52       		.byte	0x52
 4014 16ab 04       		.uleb128 0x4
 4015 16ac 91       		.byte	0x91
 4016 16ad 987E     		.sleb128 -232
 4017 16af 06       		.byte	0x6
 4018 16b0 00       		.byte	0
 4019 16b1 2C       		.uleb128 0x2c
 4020 16b2 74050000 		.4byte	.LVL133
 4021 16b6 5C180000 		.4byte	0x185c
 4022 16ba 2B       		.uleb128 0x2b
 4023 16bb 01       		.uleb128 0x1
 4024 16bc 50       		.byte	0x50
 4025 16bd 02       		.uleb128 0x2
 4026 16be 77       		.byte	0x77
 4027 16bf 00       		.sleb128 0
 4028 16c0 2B       		.uleb128 0x2b
 4029 16c1 01       		.uleb128 0x1
 4030 16c2 52       		.byte	0x52
 4031 16c3 04       		.uleb128 0x4
 4032 16c4 91       		.byte	0x91
 4033 16c5 987E     		.sleb128 -232
 4034 16c7 06       		.byte	0x6
 4035 16c8 00       		.byte	0
 4036 16c9 00       		.byte	0
 4037 16ca 2A       		.uleb128 0x2a
 4038 16cb 66000000 		.4byte	.LVL26
 4039 16cf 67180000 		.4byte	0x1867
 4040 16d3 E7160000 		.4byte	0x16e7
 4041 16d7 2B       		.uleb128 0x2b
 4042 16d8 01       		.uleb128 0x1
 4043 16d9 50       		.byte	0x50
 4044 16da 03       		.uleb128 0x3
 4045 16db 91       		.byte	0x91
 4046 16dc B07F     		.sleb128 -80
 4047 16de 2B       		.uleb128 0x2b
 4048 16df 01       		.uleb128 0x1
 4049 16e0 51       		.byte	0x51
 4050 16e1 04       		.uleb128 0x4
 4051 16e2 91       		.byte	0x91
 4052 16e3 B47E     		.sleb128 -204
 4053 16e5 06       		.byte	0x6
 4054 16e6 00       		.byte	0
 4055 16e7 2A       		.uleb128 0x2a
 4056 16e8 52010000 		.4byte	.LVL55
 4057 16ec 51180000 		.4byte	0x1851
ARM GAS  C:\Users\haske\AppData\Local\Temp\ccmIjDGo.s 			page 103


 4058 16f0 17170000 		.4byte	0x1717
 4059 16f4 2B       		.uleb128 0x2b
 4060 16f5 01       		.uleb128 0x1
 4061 16f6 50       		.byte	0x50
 4062 16f7 07       		.uleb128 0x7
 4063 16f8 91       		.byte	0x91
 4064 16f9 A47E     		.sleb128 -220
 4065 16fb 06       		.byte	0x6
 4066 16fc 77       		.byte	0x77
 4067 16fd 00       		.sleb128 0
 4068 16fe 22       		.byte	0x22
 4069 16ff 2B       		.uleb128 0x2b
 4070 1700 01       		.uleb128 0x1
 4071 1701 51       		.byte	0x51
 4072 1702 04       		.uleb128 0x4
 4073 1703 91       		.byte	0x91
 4074 1704 987E     		.sleb128 -232
 4075 1706 06       		.byte	0x6
 4076 1707 2B       		.uleb128 0x2b
 4077 1708 01       		.uleb128 0x1
 4078 1709 53       		.byte	0x53
 4079 170a 05       		.uleb128 0x5
 4080 170b 91       		.byte	0x91
 4081 170c A87E     		.sleb128 -216
 4082 170e 94       		.byte	0x94
 4083 170f 02       		.byte	0x2
 4084 1710 2B       		.uleb128 0x2b
 4085 1711 02       		.uleb128 0x2
 4086 1712 7D       		.byte	0x7d
 4087 1713 00       		.sleb128 0
 4088 1714 01       		.uleb128 0x1
 4089 1715 30       		.byte	0x30
 4090 1716 00       		.byte	0
 4091 1717 2A       		.uleb128 0x2a
 4092 1718 7E010000 		.4byte	.LVL59
 4093 171c 51180000 		.4byte	0x1851
 4094 1720 42170000 		.4byte	0x1742
 4095 1724 2B       		.uleb128 0x2b
 4096 1725 01       		.uleb128 0x1
 4097 1726 50       		.byte	0x50
 4098 1727 02       		.uleb128 0x2
 4099 1728 77       		.byte	0x77
 4100 1729 00       		.sleb128 0
 4101 172a 2B       		.uleb128 0x2b
 4102 172b 01       		.uleb128 0x1
 4103 172c 51       		.byte	0x51
 4104 172d 04       		.uleb128 0x4
 4105 172e 91       		.byte	0x91
 4106 172f 987E     		.sleb128 -232
 4107 1731 06       		.byte	0x6
 4108 1732 2B       		.uleb128 0x2b
 4109 1733 01       		.uleb128 0x1
 4110 1734 53       		.byte	0x53
 4111 1735 05       		.uleb128 0x5
 4112 1736 91       		.byte	0x91
 4113 1737 A87E     		.sleb128 -216
 4114 1739 94       		.byte	0x94
ARM GAS  C:\Users\haske\AppData\Local\Temp\ccmIjDGo.s 			page 104


 4115 173a 02       		.byte	0x2
 4116 173b 2B       		.uleb128 0x2b
 4117 173c 02       		.uleb128 0x2
 4118 173d 7D       		.byte	0x7d
 4119 173e 00       		.sleb128 0
 4120 173f 01       		.uleb128 0x1
 4121 1740 30       		.byte	0x30
 4122 1741 00       		.byte	0
 4123 1742 2A       		.uleb128 0x2a
 4124 1743 EC010000 		.4byte	.LVL63
 4125 1747 5C180000 		.4byte	0x185c
 4126 174b 6C170000 		.4byte	0x176c
 4127 174f 2B       		.uleb128 0x2b
 4128 1750 01       		.uleb128 0x1
 4129 1751 50       		.byte	0x50
 4130 1752 07       		.uleb128 0x7
 4131 1753 91       		.byte	0x91
 4132 1754 A47E     		.sleb128 -220
 4133 1756 06       		.byte	0x6
 4134 1757 77       		.byte	0x77
 4135 1758 00       		.sleb128 0
 4136 1759 22       		.byte	0x22
 4137 175a 2B       		.uleb128 0x2b
 4138 175b 01       		.uleb128 0x1
 4139 175c 51       		.byte	0x51
 4140 175d 05       		.uleb128 0x5
 4141 175e 7B       		.byte	0x7b
 4142 175f 00       		.sleb128 0
 4143 1760 77       		.byte	0x77
 4144 1761 00       		.sleb128 0
 4145 1762 1C       		.byte	0x1c
 4146 1763 2B       		.uleb128 0x2b
 4147 1764 01       		.uleb128 0x1
 4148 1765 52       		.byte	0x52
 4149 1766 04       		.uleb128 0x4
 4150 1767 91       		.byte	0x91
 4151 1768 987E     		.sleb128 -232
 4152 176a 06       		.byte	0x6
 4153 176b 00       		.byte	0
 4154 176c 2A       		.uleb128 0x2a
 4155 176d 2C020000 		.4byte	.LVL67
 4156 1771 5C180000 		.4byte	0x185c
 4157 1775 96170000 		.4byte	0x1796
 4158 1779 2B       		.uleb128 0x2b
 4159 177a 01       		.uleb128 0x1
 4160 177b 50       		.byte	0x50
 4161 177c 07       		.uleb128 0x7
 4162 177d 91       		.byte	0x91
 4163 177e A47E     		.sleb128 -220
 4164 1780 06       		.byte	0x6
 4165 1781 77       		.byte	0x77
 4166 1782 00       		.sleb128 0
 4167 1783 22       		.byte	0x22
 4168 1784 2B       		.uleb128 0x2b
 4169 1785 01       		.uleb128 0x1
 4170 1786 51       		.byte	0x51
 4171 1787 05       		.uleb128 0x5
ARM GAS  C:\Users\haske\AppData\Local\Temp\ccmIjDGo.s 			page 105


 4172 1788 7B       		.byte	0x7b
 4173 1789 00       		.sleb128 0
 4174 178a 77       		.byte	0x77
 4175 178b 00       		.sleb128 0
 4176 178c 1C       		.byte	0x1c
 4177 178d 2B       		.uleb128 0x2b
 4178 178e 01       		.uleb128 0x1
 4179 178f 52       		.byte	0x52
 4180 1790 04       		.uleb128 0x4
 4181 1791 91       		.byte	0x91
 4182 1792 987E     		.sleb128 -232
 4183 1794 06       		.byte	0x6
 4184 1795 00       		.byte	0
 4185 1796 2A       		.uleb128 0x2a
 4186 1797 66020000 		.4byte	.LVL74
 4187 179b 72180000 		.4byte	0x1872
 4188 179f AB170000 		.4byte	0x17ab
 4189 17a3 2B       		.uleb128 0x2b
 4190 17a4 01       		.uleb128 0x1
 4191 17a5 50       		.byte	0x50
 4192 17a6 03       		.uleb128 0x3
 4193 17a7 91       		.byte	0x91
 4194 17a8 A07F     		.sleb128 -96
 4195 17aa 00       		.byte	0
 4196 17ab 2C       		.uleb128 0x2c
 4197 17ac A6020000 		.4byte	.LVL78
 4198 17b0 7D180000 		.4byte	0x187d
 4199 17b4 2B       		.uleb128 0x2b
 4200 17b5 01       		.uleb128 0x1
 4201 17b6 50       		.byte	0x50
 4202 17b7 03       		.uleb128 0x3
 4203 17b8 91       		.byte	0x91
 4204 17b9 E47E     		.sleb128 -156
 4205 17bb 00       		.byte	0
 4206 17bc 00       		.byte	0
 4207 17bd 0B       		.uleb128 0xb
 4208 17be 04       		.byte	0x4
 4209 17bf 5A080000 		.4byte	0x85a
 4210 17c3 17       		.uleb128 0x17
 4211 17c4 FD020000 		.4byte	0x2fd
 4212 17c8 D3170000 		.4byte	0x17d3
 4213 17cc 18       		.uleb128 0x18
 4214 17cd F6020000 		.4byte	0x2f6
 4215 17d1 06       		.byte	0x6
 4216 17d2 00       		.byte	0
 4217 17d3 3F       		.uleb128 0x3f
 4218 17d4 6C0C0000 		.4byte	.LASF256
 4219 17d8 05       		.byte	0x5
 4220 17d9 94       		.byte	0x94
 4221 17da 1B080000 		.4byte	0x81b
 4222 17de 0D       		.uleb128 0xd
 4223 17df E4000000 		.4byte	0xe4
 4224 17e3 F2170000 		.4byte	0x17f2
 4225 17e7 0E       		.uleb128 0xe
 4226 17e8 04030000 		.4byte	0x304
 4227 17ec 0E       		.uleb128 0xe
 4228 17ed E4000000 		.4byte	0xe4
ARM GAS  C:\Users\haske\AppData\Local\Temp\ccmIjDGo.s 			page 106


 4229 17f1 00       		.byte	0
 4230 17f2 3F       		.uleb128 0x3f
 4231 17f3 7A010000 		.4byte	.LASF257
 4232 17f7 0B       		.byte	0xb
 4233 17f8 F6       		.byte	0xf6
 4234 17f9 FD170000 		.4byte	0x17fd
 4235 17fd 0B       		.uleb128 0xb
 4236 17fe 04       		.byte	0x4
 4237 17ff DE170000 		.4byte	0x17de
 4238 1803 40       		.uleb128 0x40
 4239 1804 85030000 		.4byte	.LASF258
 4240 1808 85030000 		.4byte	.LASF258
 4241 180c 06       		.byte	0x6
 4242 180d DE       		.byte	0xde
 4243 180e 41       		.uleb128 0x41
 4244 180f 62090000 		.4byte	.LASF259
 4245 1813 62090000 		.4byte	.LASF259
 4246 1817 02       		.byte	0x2
 4247 1818 B002     		.2byte	0x2b0
 4248 181a 40       		.uleb128 0x40
 4249 181b D7010000 		.4byte	.LASF260
 4250 181f D7010000 		.4byte	.LASF260
 4251 1823 0B       		.byte	0xb
 4252 1824 53       		.byte	0x53
 4253 1825 40       		.uleb128 0x40
 4254 1826 EB090000 		.4byte	.LASF261
 4255 182a EB090000 		.4byte	.LASF261
 4256 182e 0E       		.byte	0xe
 4257 182f 56       		.byte	0x56
 4258 1830 40       		.uleb128 0x40
 4259 1831 CA020000 		.4byte	.LASF262
 4260 1835 CA020000 		.4byte	.LASF262
 4261 1839 0B       		.byte	0xb
 4262 183a 9E       		.byte	0x9e
 4263 183b 40       		.uleb128 0x40
 4264 183c 690E0000 		.4byte	.LASF263
 4265 1840 690E0000 		.4byte	.LASF263
 4266 1844 05       		.byte	0x5
 4267 1845 75       		.byte	0x75
 4268 1846 40       		.uleb128 0x40
 4269 1847 020C0000 		.4byte	.LASF264
 4270 184b 020C0000 		.4byte	.LASF264
 4271 184f 11       		.byte	0x11
 4272 1850 37       		.byte	0x37
 4273 1851 40       		.uleb128 0x40
 4274 1852 A8090000 		.4byte	.LASF265
 4275 1856 A8090000 		.4byte	.LASF265
 4276 185a 0B       		.byte	0xb
 4277 185b 63       		.byte	0x63
 4278 185c 40       		.uleb128 0x40
 4279 185d 45070000 		.4byte	.LASF266
 4280 1861 45070000 		.4byte	.LASF266
 4281 1865 0B       		.byte	0xb
 4282 1866 70       		.byte	0x70
 4283 1867 40       		.uleb128 0x40
 4284 1868 D9040000 		.4byte	.LASF267
 4285 186c D9040000 		.4byte	.LASF267
ARM GAS  C:\Users\haske\AppData\Local\Temp\ccmIjDGo.s 			page 107


 4286 1870 04       		.byte	0x4
 4287 1871 B2       		.byte	0xb2
 4288 1872 40       		.uleb128 0x40
 4289 1873 4E050000 		.4byte	.LASF268
 4290 1877 4E050000 		.4byte	.LASF268
 4291 187b 11       		.byte	0x11
 4292 187c 2E       		.byte	0x2e
 4293 187d 40       		.uleb128 0x40
 4294 187e 2A050000 		.4byte	.LASF269
 4295 1882 2A050000 		.4byte	.LASF269
 4296 1886 0E       		.byte	0xe
 4297 1887 4D       		.byte	0x4d
 4298 1888 00       		.byte	0
 4299              		.section	.debug_abbrev,"",%progbits
 4300              	.Ldebug_abbrev0:
 4301 0000 01       		.uleb128 0x1
 4302 0001 11       		.uleb128 0x11
 4303 0002 01       		.byte	0x1
 4304 0003 25       		.uleb128 0x25
 4305 0004 0E       		.uleb128 0xe
 4306 0005 13       		.uleb128 0x13
 4307 0006 0B       		.uleb128 0xb
 4308 0007 03       		.uleb128 0x3
 4309 0008 0E       		.uleb128 0xe
 4310 0009 1B       		.uleb128 0x1b
 4311 000a 0E       		.uleb128 0xe
 4312 000b 55       		.uleb128 0x55
 4313 000c 17       		.uleb128 0x17
 4314 000d 11       		.uleb128 0x11
 4315 000e 01       		.uleb128 0x1
 4316 000f 10       		.uleb128 0x10
 4317 0010 17       		.uleb128 0x17
 4318 0011 00       		.byte	0
 4319 0012 00       		.byte	0
 4320 0013 02       		.uleb128 0x2
 4321 0014 16       		.uleb128 0x16
 4322 0015 00       		.byte	0
 4323 0016 03       		.uleb128 0x3
 4324 0017 0E       		.uleb128 0xe
 4325 0018 3A       		.uleb128 0x3a
 4326 0019 0B       		.uleb128 0xb
 4327 001a 3B       		.uleb128 0x3b
 4328 001b 0B       		.uleb128 0xb
 4329 001c 49       		.uleb128 0x49
 4330 001d 13       		.uleb128 0x13
 4331 001e 00       		.byte	0
 4332 001f 00       		.byte	0
 4333 0020 03       		.uleb128 0x3
 4334 0021 24       		.uleb128 0x24
 4335 0022 00       		.byte	0
 4336 0023 0B       		.uleb128 0xb
 4337 0024 0B       		.uleb128 0xb
 4338 0025 3E       		.uleb128 0x3e
 4339 0026 0B       		.uleb128 0xb
 4340 0027 03       		.uleb128 0x3
 4341 0028 0E       		.uleb128 0xe
 4342 0029 00       		.byte	0
ARM GAS  C:\Users\haske\AppData\Local\Temp\ccmIjDGo.s 			page 108


 4343 002a 00       		.byte	0
 4344 002b 04       		.uleb128 0x4
 4345 002c 24       		.uleb128 0x24
 4346 002d 00       		.byte	0
 4347 002e 0B       		.uleb128 0xb
 4348 002f 0B       		.uleb128 0xb
 4349 0030 3E       		.uleb128 0x3e
 4350 0031 0B       		.uleb128 0xb
 4351 0032 03       		.uleb128 0x3
 4352 0033 08       		.uleb128 0x8
 4353 0034 00       		.byte	0
 4354 0035 00       		.byte	0
 4355 0036 05       		.uleb128 0x5
 4356 0037 13       		.uleb128 0x13
 4357 0038 01       		.byte	0x1
 4358 0039 0B       		.uleb128 0xb
 4359 003a 0B       		.uleb128 0xb
 4360 003b 3A       		.uleb128 0x3a
 4361 003c 0B       		.uleb128 0xb
 4362 003d 3B       		.uleb128 0x3b
 4363 003e 0B       		.uleb128 0xb
 4364 003f 01       		.uleb128 0x1
 4365 0040 13       		.uleb128 0x13
 4366 0041 00       		.byte	0
 4367 0042 00       		.byte	0
 4368 0043 06       		.uleb128 0x6
 4369 0044 0D       		.uleb128 0xd
 4370 0045 00       		.byte	0
 4371 0046 03       		.uleb128 0x3
 4372 0047 08       		.uleb128 0x8
 4373 0048 3A       		.uleb128 0x3a
 4374 0049 0B       		.uleb128 0xb
 4375 004a 3B       		.uleb128 0x3b
 4376 004b 0B       		.uleb128 0xb
 4377 004c 49       		.uleb128 0x49
 4378 004d 13       		.uleb128 0x13
 4379 004e 38       		.uleb128 0x38
 4380 004f 0B       		.uleb128 0xb
 4381 0050 00       		.byte	0
 4382 0051 00       		.byte	0
 4383 0052 07       		.uleb128 0x7
 4384 0053 0D       		.uleb128 0xd
 4385 0054 00       		.byte	0
 4386 0055 03       		.uleb128 0x3
 4387 0056 0E       		.uleb128 0xe
 4388 0057 3A       		.uleb128 0x3a
 4389 0058 0B       		.uleb128 0xb
 4390 0059 3B       		.uleb128 0x3b
 4391 005a 0B       		.uleb128 0xb
 4392 005b 49       		.uleb128 0x49
 4393 005c 13       		.uleb128 0x13
 4394 005d 38       		.uleb128 0x38
 4395 005e 0B       		.uleb128 0xb
 4396 005f 00       		.byte	0
 4397 0060 00       		.byte	0
 4398 0061 08       		.uleb128 0x8
 4399 0062 0D       		.uleb128 0xd
ARM GAS  C:\Users\haske\AppData\Local\Temp\ccmIjDGo.s 			page 109


 4400 0063 00       		.byte	0
 4401 0064 03       		.uleb128 0x3
 4402 0065 08       		.uleb128 0x8
 4403 0066 3A       		.uleb128 0x3a
 4404 0067 0B       		.uleb128 0xb
 4405 0068 3B       		.uleb128 0x3b
 4406 0069 0B       		.uleb128 0xb
 4407 006a 49       		.uleb128 0x49
 4408 006b 13       		.uleb128 0x13
 4409 006c 0B       		.uleb128 0xb
 4410 006d 0B       		.uleb128 0xb
 4411 006e 0D       		.uleb128 0xd
 4412 006f 0B       		.uleb128 0xb
 4413 0070 0C       		.uleb128 0xc
 4414 0071 0B       		.uleb128 0xb
 4415 0072 38       		.uleb128 0x38
 4416 0073 0B       		.uleb128 0xb
 4417 0074 00       		.byte	0
 4418 0075 00       		.byte	0
 4419 0076 09       		.uleb128 0x9
 4420 0077 0D       		.uleb128 0xd
 4421 0078 00       		.byte	0
 4422 0079 03       		.uleb128 0x3
 4423 007a 0E       		.uleb128 0xe
 4424 007b 3A       		.uleb128 0x3a
 4425 007c 0B       		.uleb128 0xb
 4426 007d 3B       		.uleb128 0x3b
 4427 007e 0B       		.uleb128 0xb
 4428 007f 49       		.uleb128 0x49
 4429 0080 13       		.uleb128 0x13
 4430 0081 0B       		.uleb128 0xb
 4431 0082 0B       		.uleb128 0xb
 4432 0083 0D       		.uleb128 0xd
 4433 0084 0B       		.uleb128 0xb
 4434 0085 0C       		.uleb128 0xc
 4435 0086 0B       		.uleb128 0xb
 4436 0087 38       		.uleb128 0x38
 4437 0088 0B       		.uleb128 0xb
 4438 0089 00       		.byte	0
 4439 008a 00       		.byte	0
 4440 008b 0A       		.uleb128 0xa
 4441 008c 13       		.uleb128 0x13
 4442 008d 01       		.byte	0x1
 4443 008e 03       		.uleb128 0x3
 4444 008f 0E       		.uleb128 0xe
 4445 0090 0B       		.uleb128 0xb
 4446 0091 0B       		.uleb128 0xb
 4447 0092 3A       		.uleb128 0x3a
 4448 0093 0B       		.uleb128 0xb
 4449 0094 3B       		.uleb128 0x3b
 4450 0095 0B       		.uleb128 0xb
 4451 0096 01       		.uleb128 0x1
 4452 0097 13       		.uleb128 0x13
 4453 0098 00       		.byte	0
 4454 0099 00       		.byte	0
 4455 009a 0B       		.uleb128 0xb
 4456 009b 0F       		.uleb128 0xf
ARM GAS  C:\Users\haske\AppData\Local\Temp\ccmIjDGo.s 			page 110


 4457 009c 00       		.byte	0
 4458 009d 0B       		.uleb128 0xb
 4459 009e 0B       		.uleb128 0xb
 4460 009f 49       		.uleb128 0x49
 4461 00a0 13       		.uleb128 0x13
 4462 00a1 00       		.byte	0
 4463 00a2 00       		.byte	0
 4464 00a3 0C       		.uleb128 0xc
 4465 00a4 26       		.uleb128 0x26
 4466 00a5 00       		.byte	0
 4467 00a6 49       		.uleb128 0x49
 4468 00a7 13       		.uleb128 0x13
 4469 00a8 00       		.byte	0
 4470 00a9 00       		.byte	0
 4471 00aa 0D       		.uleb128 0xd
 4472 00ab 15       		.uleb128 0x15
 4473 00ac 01       		.byte	0x1
 4474 00ad 27       		.uleb128 0x27
 4475 00ae 19       		.uleb128 0x19
 4476 00af 49       		.uleb128 0x49
 4477 00b0 13       		.uleb128 0x13
 4478 00b1 01       		.uleb128 0x1
 4479 00b2 13       		.uleb128 0x13
 4480 00b3 00       		.byte	0
 4481 00b4 00       		.byte	0
 4482 00b5 0E       		.uleb128 0xe
 4483 00b6 05       		.uleb128 0x5
 4484 00b7 00       		.byte	0
 4485 00b8 49       		.uleb128 0x49
 4486 00b9 13       		.uleb128 0x13
 4487 00ba 00       		.byte	0
 4488 00bb 00       		.byte	0
 4489 00bc 0F       		.uleb128 0xf
 4490 00bd 26       		.uleb128 0x26
 4491 00be 00       		.byte	0
 4492 00bf 00       		.byte	0
 4493 00c0 00       		.byte	0
 4494 00c1 10       		.uleb128 0x10
 4495 00c2 0F       		.uleb128 0xf
 4496 00c3 00       		.byte	0
 4497 00c4 0B       		.uleb128 0xb
 4498 00c5 0B       		.uleb128 0xb
 4499 00c6 00       		.byte	0
 4500 00c7 00       		.byte	0
 4501 00c8 11       		.uleb128 0x11
 4502 00c9 04       		.uleb128 0x4
 4503 00ca 01       		.byte	0x1
 4504 00cb 0B       		.uleb128 0xb
 4505 00cc 0B       		.uleb128 0xb
 4506 00cd 49       		.uleb128 0x49
 4507 00ce 13       		.uleb128 0x13
 4508 00cf 3A       		.uleb128 0x3a
 4509 00d0 0B       		.uleb128 0xb
 4510 00d1 3B       		.uleb128 0x3b
 4511 00d2 0B       		.uleb128 0xb
 4512 00d3 01       		.uleb128 0x1
 4513 00d4 13       		.uleb128 0x13
ARM GAS  C:\Users\haske\AppData\Local\Temp\ccmIjDGo.s 			page 111


 4514 00d5 00       		.byte	0
 4515 00d6 00       		.byte	0
 4516 00d7 12       		.uleb128 0x12
 4517 00d8 28       		.uleb128 0x28
 4518 00d9 00       		.byte	0
 4519 00da 03       		.uleb128 0x3
 4520 00db 0E       		.uleb128 0xe
 4521 00dc 1C       		.uleb128 0x1c
 4522 00dd 0B       		.uleb128 0xb
 4523 00de 00       		.byte	0
 4524 00df 00       		.byte	0
 4525 00e0 13       		.uleb128 0x13
 4526 00e1 17       		.uleb128 0x17
 4527 00e2 01       		.byte	0x1
 4528 00e3 0B       		.uleb128 0xb
 4529 00e4 0B       		.uleb128 0xb
 4530 00e5 3A       		.uleb128 0x3a
 4531 00e6 0B       		.uleb128 0xb
 4532 00e7 3B       		.uleb128 0x3b
 4533 00e8 0B       		.uleb128 0xb
 4534 00e9 01       		.uleb128 0x1
 4535 00ea 13       		.uleb128 0x13
 4536 00eb 00       		.byte	0
 4537 00ec 00       		.byte	0
 4538 00ed 14       		.uleb128 0x14
 4539 00ee 0D       		.uleb128 0xd
 4540 00ef 00       		.byte	0
 4541 00f0 03       		.uleb128 0x3
 4542 00f1 08       		.uleb128 0x8
 4543 00f2 3A       		.uleb128 0x3a
 4544 00f3 0B       		.uleb128 0xb
 4545 00f4 3B       		.uleb128 0x3b
 4546 00f5 0B       		.uleb128 0xb
 4547 00f6 49       		.uleb128 0x49
 4548 00f7 13       		.uleb128 0x13
 4549 00f8 00       		.byte	0
 4550 00f9 00       		.byte	0
 4551 00fa 15       		.uleb128 0x15
 4552 00fb 0D       		.uleb128 0xd
 4553 00fc 00       		.byte	0
 4554 00fd 03       		.uleb128 0x3
 4555 00fe 0E       		.uleb128 0xe
 4556 00ff 3A       		.uleb128 0x3a
 4557 0100 0B       		.uleb128 0xb
 4558 0101 3B       		.uleb128 0x3b
 4559 0102 0B       		.uleb128 0xb
 4560 0103 49       		.uleb128 0x49
 4561 0104 13       		.uleb128 0x13
 4562 0105 00       		.byte	0
 4563 0106 00       		.byte	0
 4564 0107 16       		.uleb128 0x16
 4565 0108 04       		.uleb128 0x4
 4566 0109 01       		.byte	0x1
 4567 010a 0B       		.uleb128 0xb
 4568 010b 0B       		.uleb128 0xb
 4569 010c 49       		.uleb128 0x49
 4570 010d 13       		.uleb128 0x13
ARM GAS  C:\Users\haske\AppData\Local\Temp\ccmIjDGo.s 			page 112


 4571 010e 3A       		.uleb128 0x3a
 4572 010f 0B       		.uleb128 0xb
 4573 0110 3B       		.uleb128 0x3b
 4574 0111 05       		.uleb128 0x5
 4575 0112 01       		.uleb128 0x1
 4576 0113 13       		.uleb128 0x13
 4577 0114 00       		.byte	0
 4578 0115 00       		.byte	0
 4579 0116 17       		.uleb128 0x17
 4580 0117 01       		.uleb128 0x1
 4581 0118 01       		.byte	0x1
 4582 0119 49       		.uleb128 0x49
 4583 011a 13       		.uleb128 0x13
 4584 011b 01       		.uleb128 0x1
 4585 011c 13       		.uleb128 0x13
 4586 011d 00       		.byte	0
 4587 011e 00       		.byte	0
 4588 011f 18       		.uleb128 0x18
 4589 0120 21       		.uleb128 0x21
 4590 0121 00       		.byte	0
 4591 0122 49       		.uleb128 0x49
 4592 0123 13       		.uleb128 0x13
 4593 0124 2F       		.uleb128 0x2f
 4594 0125 0B       		.uleb128 0xb
 4595 0126 00       		.byte	0
 4596 0127 00       		.byte	0
 4597 0128 19       		.uleb128 0x19
 4598 0129 15       		.uleb128 0x15
 4599 012a 01       		.byte	0x1
 4600 012b 27       		.uleb128 0x27
 4601 012c 19       		.uleb128 0x19
 4602 012d 01       		.uleb128 0x1
 4603 012e 13       		.uleb128 0x13
 4604 012f 00       		.byte	0
 4605 0130 00       		.byte	0
 4606 0131 1A       		.uleb128 0x1a
 4607 0132 2E       		.uleb128 0x2e
 4608 0133 01       		.byte	0x1
 4609 0134 03       		.uleb128 0x3
 4610 0135 0E       		.uleb128 0xe
 4611 0136 3A       		.uleb128 0x3a
 4612 0137 0B       		.uleb128 0xb
 4613 0138 3B       		.uleb128 0x3b
 4614 0139 05       		.uleb128 0x5
 4615 013a 27       		.uleb128 0x27
 4616 013b 19       		.uleb128 0x19
 4617 013c 49       		.uleb128 0x49
 4618 013d 13       		.uleb128 0x13
 4619 013e 20       		.uleb128 0x20
 4620 013f 0B       		.uleb128 0xb
 4621 0140 01       		.uleb128 0x1
 4622 0141 13       		.uleb128 0x13
 4623 0142 00       		.byte	0
 4624 0143 00       		.byte	0
 4625 0144 1B       		.uleb128 0x1b
 4626 0145 05       		.uleb128 0x5
 4627 0146 00       		.byte	0
ARM GAS  C:\Users\haske\AppData\Local\Temp\ccmIjDGo.s 			page 113


 4628 0147 03       		.uleb128 0x3
 4629 0148 08       		.uleb128 0x8
 4630 0149 3A       		.uleb128 0x3a
 4631 014a 0B       		.uleb128 0xb
 4632 014b 3B       		.uleb128 0x3b
 4633 014c 05       		.uleb128 0x5
 4634 014d 49       		.uleb128 0x49
 4635 014e 13       		.uleb128 0x13
 4636 014f 00       		.byte	0
 4637 0150 00       		.byte	0
 4638 0151 1C       		.uleb128 0x1c
 4639 0152 2E       		.uleb128 0x2e
 4640 0153 00       		.byte	0
 4641 0154 03       		.uleb128 0x3
 4642 0155 0E       		.uleb128 0xe
 4643 0156 3A       		.uleb128 0x3a
 4644 0157 0B       		.uleb128 0xb
 4645 0158 3B       		.uleb128 0x3b
 4646 0159 05       		.uleb128 0x5
 4647 015a 27       		.uleb128 0x27
 4648 015b 19       		.uleb128 0x19
 4649 015c 49       		.uleb128 0x49
 4650 015d 13       		.uleb128 0x13
 4651 015e 20       		.uleb128 0x20
 4652 015f 0B       		.uleb128 0xb
 4653 0160 00       		.byte	0
 4654 0161 00       		.byte	0
 4655 0162 1D       		.uleb128 0x1d
 4656 0163 2E       		.uleb128 0x2e
 4657 0164 01       		.byte	0x1
 4658 0165 03       		.uleb128 0x3
 4659 0166 0E       		.uleb128 0xe
 4660 0167 3A       		.uleb128 0x3a
 4661 0168 0B       		.uleb128 0xb
 4662 0169 3B       		.uleb128 0x3b
 4663 016a 0B       		.uleb128 0xb
 4664 016b 27       		.uleb128 0x27
 4665 016c 19       		.uleb128 0x19
 4666 016d 20       		.uleb128 0x20
 4667 016e 0B       		.uleb128 0xb
 4668 016f 01       		.uleb128 0x1
 4669 0170 13       		.uleb128 0x13
 4670 0171 00       		.byte	0
 4671 0172 00       		.byte	0
 4672 0173 1E       		.uleb128 0x1e
 4673 0174 05       		.uleb128 0x5
 4674 0175 00       		.byte	0
 4675 0176 03       		.uleb128 0x3
 4676 0177 0E       		.uleb128 0xe
 4677 0178 3A       		.uleb128 0x3a
 4678 0179 0B       		.uleb128 0xb
 4679 017a 3B       		.uleb128 0x3b
 4680 017b 0B       		.uleb128 0xb
 4681 017c 49       		.uleb128 0x49
 4682 017d 13       		.uleb128 0x13
 4683 017e 00       		.byte	0
 4684 017f 00       		.byte	0
ARM GAS  C:\Users\haske\AppData\Local\Temp\ccmIjDGo.s 			page 114


 4685 0180 1F       		.uleb128 0x1f
 4686 0181 05       		.uleb128 0x5
 4687 0182 00       		.byte	0
 4688 0183 03       		.uleb128 0x3
 4689 0184 08       		.uleb128 0x8
 4690 0185 3A       		.uleb128 0x3a
 4691 0186 0B       		.uleb128 0xb
 4692 0187 3B       		.uleb128 0x3b
 4693 0188 0B       		.uleb128 0xb
 4694 0189 49       		.uleb128 0x49
 4695 018a 13       		.uleb128 0x13
 4696 018b 00       		.byte	0
 4697 018c 00       		.byte	0
 4698 018d 20       		.uleb128 0x20
 4699 018e 2E       		.uleb128 0x2e
 4700 018f 01       		.byte	0x1
 4701 0190 03       		.uleb128 0x3
 4702 0191 0E       		.uleb128 0xe
 4703 0192 3A       		.uleb128 0x3a
 4704 0193 0B       		.uleb128 0xb
 4705 0194 3B       		.uleb128 0x3b
 4706 0195 0B       		.uleb128 0xb
 4707 0196 27       		.uleb128 0x27
 4708 0197 19       		.uleb128 0x19
 4709 0198 49       		.uleb128 0x49
 4710 0199 13       		.uleb128 0x13
 4711 019a 20       		.uleb128 0x20
 4712 019b 0B       		.uleb128 0xb
 4713 019c 01       		.uleb128 0x1
 4714 019d 13       		.uleb128 0x13
 4715 019e 00       		.byte	0
 4716 019f 00       		.byte	0
 4717 01a0 21       		.uleb128 0x21
 4718 01a1 34       		.uleb128 0x34
 4719 01a2 00       		.byte	0
 4720 01a3 03       		.uleb128 0x3
 4721 01a4 08       		.uleb128 0x8
 4722 01a5 3A       		.uleb128 0x3a
 4723 01a6 0B       		.uleb128 0xb
 4724 01a7 3B       		.uleb128 0x3b
 4725 01a8 0B       		.uleb128 0xb
 4726 01a9 49       		.uleb128 0x49
 4727 01aa 13       		.uleb128 0x13
 4728 01ab 00       		.byte	0
 4729 01ac 00       		.byte	0
 4730 01ad 22       		.uleb128 0x22
 4731 01ae 2E       		.uleb128 0x2e
 4732 01af 01       		.byte	0x1
 4733 01b0 03       		.uleb128 0x3
 4734 01b1 0E       		.uleb128 0xe
 4735 01b2 3A       		.uleb128 0x3a
 4736 01b3 0B       		.uleb128 0xb
 4737 01b4 3B       		.uleb128 0x3b
 4738 01b5 05       		.uleb128 0x5
 4739 01b6 27       		.uleb128 0x27
 4740 01b7 19       		.uleb128 0x19
 4741 01b8 49       		.uleb128 0x49
ARM GAS  C:\Users\haske\AppData\Local\Temp\ccmIjDGo.s 			page 115


 4742 01b9 13       		.uleb128 0x13
 4743 01ba 11       		.uleb128 0x11
 4744 01bb 01       		.uleb128 0x1
 4745 01bc 12       		.uleb128 0x12
 4746 01bd 06       		.uleb128 0x6
 4747 01be 40       		.uleb128 0x40
 4748 01bf 18       		.uleb128 0x18
 4749 01c0 9742     		.uleb128 0x2117
 4750 01c2 19       		.uleb128 0x19
 4751 01c3 01       		.uleb128 0x1
 4752 01c4 13       		.uleb128 0x13
 4753 01c5 00       		.byte	0
 4754 01c6 00       		.byte	0
 4755 01c7 23       		.uleb128 0x23
 4756 01c8 05       		.uleb128 0x5
 4757 01c9 00       		.byte	0
 4758 01ca 03       		.uleb128 0x3
 4759 01cb 08       		.uleb128 0x8
 4760 01cc 3A       		.uleb128 0x3a
 4761 01cd 0B       		.uleb128 0xb
 4762 01ce 3B       		.uleb128 0x3b
 4763 01cf 05       		.uleb128 0x5
 4764 01d0 49       		.uleb128 0x49
 4765 01d1 13       		.uleb128 0x13
 4766 01d2 02       		.uleb128 0x2
 4767 01d3 17       		.uleb128 0x17
 4768 01d4 00       		.byte	0
 4769 01d5 00       		.byte	0
 4770 01d6 24       		.uleb128 0x24
 4771 01d7 34       		.uleb128 0x34
 4772 01d8 00       		.byte	0
 4773 01d9 03       		.uleb128 0x3
 4774 01da 0E       		.uleb128 0xe
 4775 01db 3A       		.uleb128 0x3a
 4776 01dc 0B       		.uleb128 0xb
 4777 01dd 3B       		.uleb128 0x3b
 4778 01de 05       		.uleb128 0x5
 4779 01df 49       		.uleb128 0x49
 4780 01e0 13       		.uleb128 0x13
 4781 01e1 02       		.uleb128 0x2
 4782 01e2 17       		.uleb128 0x17
 4783 01e3 00       		.byte	0
 4784 01e4 00       		.byte	0
 4785 01e5 25       		.uleb128 0x25
 4786 01e6 2E       		.uleb128 0x2e
 4787 01e7 01       		.byte	0x1
 4788 01e8 3F       		.uleb128 0x3f
 4789 01e9 19       		.uleb128 0x19
 4790 01ea 03       		.uleb128 0x3
 4791 01eb 0E       		.uleb128 0xe
 4792 01ec 3A       		.uleb128 0x3a
 4793 01ed 0B       		.uleb128 0xb
 4794 01ee 3B       		.uleb128 0x3b
 4795 01ef 0B       		.uleb128 0xb
 4796 01f0 27       		.uleb128 0x27
 4797 01f1 19       		.uleb128 0x19
 4798 01f2 11       		.uleb128 0x11
ARM GAS  C:\Users\haske\AppData\Local\Temp\ccmIjDGo.s 			page 116


 4799 01f3 01       		.uleb128 0x1
 4800 01f4 12       		.uleb128 0x12
 4801 01f5 06       		.uleb128 0x6
 4802 01f6 40       		.uleb128 0x40
 4803 01f7 18       		.uleb128 0x18
 4804 01f8 9742     		.uleb128 0x2117
 4805 01fa 19       		.uleb128 0x19
 4806 01fb 01       		.uleb128 0x1
 4807 01fc 13       		.uleb128 0x13
 4808 01fd 00       		.byte	0
 4809 01fe 00       		.byte	0
 4810 01ff 26       		.uleb128 0x26
 4811 0200 05       		.uleb128 0x5
 4812 0201 00       		.byte	0
 4813 0202 03       		.uleb128 0x3
 4814 0203 08       		.uleb128 0x8
 4815 0204 3A       		.uleb128 0x3a
 4816 0205 0B       		.uleb128 0xb
 4817 0206 3B       		.uleb128 0x3b
 4818 0207 0B       		.uleb128 0xb
 4819 0208 49       		.uleb128 0x49
 4820 0209 13       		.uleb128 0x13
 4821 020a 02       		.uleb128 0x2
 4822 020b 17       		.uleb128 0x17
 4823 020c 00       		.byte	0
 4824 020d 00       		.byte	0
 4825 020e 27       		.uleb128 0x27
 4826 020f 1D       		.uleb128 0x1d
 4827 0210 01       		.byte	0x1
 4828 0211 31       		.uleb128 0x31
 4829 0212 13       		.uleb128 0x13
 4830 0213 11       		.uleb128 0x11
 4831 0214 01       		.uleb128 0x1
 4832 0215 12       		.uleb128 0x12
 4833 0216 06       		.uleb128 0x6
 4834 0217 58       		.uleb128 0x58
 4835 0218 0B       		.uleb128 0xb
 4836 0219 59       		.uleb128 0x59
 4837 021a 0B       		.uleb128 0xb
 4838 021b 01       		.uleb128 0x1
 4839 021c 13       		.uleb128 0x13
 4840 021d 00       		.byte	0
 4841 021e 00       		.byte	0
 4842 021f 28       		.uleb128 0x28
 4843 0220 1D       		.uleb128 0x1d
 4844 0221 01       		.byte	0x1
 4845 0222 31       		.uleb128 0x31
 4846 0223 13       		.uleb128 0x13
 4847 0224 11       		.uleb128 0x11
 4848 0225 01       		.uleb128 0x1
 4849 0226 12       		.uleb128 0x12
 4850 0227 06       		.uleb128 0x6
 4851 0228 58       		.uleb128 0x58
 4852 0229 0B       		.uleb128 0xb
 4853 022a 59       		.uleb128 0x59
 4854 022b 05       		.uleb128 0x5
 4855 022c 00       		.byte	0
ARM GAS  C:\Users\haske\AppData\Local\Temp\ccmIjDGo.s 			page 117


 4856 022d 00       		.byte	0
 4857 022e 29       		.uleb128 0x29
 4858 022f 05       		.uleb128 0x5
 4859 0230 00       		.byte	0
 4860 0231 31       		.uleb128 0x31
 4861 0232 13       		.uleb128 0x13
 4862 0233 02       		.uleb128 0x2
 4863 0234 17       		.uleb128 0x17
 4864 0235 00       		.byte	0
 4865 0236 00       		.byte	0
 4866 0237 2A       		.uleb128 0x2a
 4867 0238 898201   		.uleb128 0x4109
 4868 023b 01       		.byte	0x1
 4869 023c 11       		.uleb128 0x11
 4870 023d 01       		.uleb128 0x1
 4871 023e 31       		.uleb128 0x31
 4872 023f 13       		.uleb128 0x13
 4873 0240 01       		.uleb128 0x1
 4874 0241 13       		.uleb128 0x13
 4875 0242 00       		.byte	0
 4876 0243 00       		.byte	0
 4877 0244 2B       		.uleb128 0x2b
 4878 0245 8A8201   		.uleb128 0x410a
 4879 0248 00       		.byte	0
 4880 0249 02       		.uleb128 0x2
 4881 024a 18       		.uleb128 0x18
 4882 024b 9142     		.uleb128 0x2111
 4883 024d 18       		.uleb128 0x18
 4884 024e 00       		.byte	0
 4885 024f 00       		.byte	0
 4886 0250 2C       		.uleb128 0x2c
 4887 0251 898201   		.uleb128 0x4109
 4888 0254 01       		.byte	0x1
 4889 0255 11       		.uleb128 0x11
 4890 0256 01       		.uleb128 0x1
 4891 0257 31       		.uleb128 0x31
 4892 0258 13       		.uleb128 0x13
 4893 0259 00       		.byte	0
 4894 025a 00       		.byte	0
 4895 025b 2D       		.uleb128 0x2d
 4896 025c 2E       		.uleb128 0x2e
 4897 025d 01       		.byte	0x1
 4898 025e 3F       		.uleb128 0x3f
 4899 025f 19       		.uleb128 0x19
 4900 0260 03       		.uleb128 0x3
 4901 0261 0E       		.uleb128 0xe
 4902 0262 3A       		.uleb128 0x3a
 4903 0263 0B       		.uleb128 0xb
 4904 0264 3B       		.uleb128 0x3b
 4905 0265 05       		.uleb128 0x5
 4906 0266 27       		.uleb128 0x27
 4907 0267 19       		.uleb128 0x19
 4908 0268 11       		.uleb128 0x11
 4909 0269 01       		.uleb128 0x1
 4910 026a 12       		.uleb128 0x12
 4911 026b 06       		.uleb128 0x6
 4912 026c 40       		.uleb128 0x40
ARM GAS  C:\Users\haske\AppData\Local\Temp\ccmIjDGo.s 			page 118


 4913 026d 18       		.uleb128 0x18
 4914 026e 9742     		.uleb128 0x2117
 4915 0270 19       		.uleb128 0x19
 4916 0271 01       		.uleb128 0x1
 4917 0272 13       		.uleb128 0x13
 4918 0273 00       		.byte	0
 4919 0274 00       		.byte	0
 4920 0275 2E       		.uleb128 0x2e
 4921 0276 05       		.uleb128 0x5
 4922 0277 00       		.byte	0
 4923 0278 03       		.uleb128 0x3
 4924 0279 0E       		.uleb128 0xe
 4925 027a 3A       		.uleb128 0x3a
 4926 027b 0B       		.uleb128 0xb
 4927 027c 3B       		.uleb128 0x3b
 4928 027d 05       		.uleb128 0x5
 4929 027e 49       		.uleb128 0x49
 4930 027f 13       		.uleb128 0x13
 4931 0280 02       		.uleb128 0x2
 4932 0281 17       		.uleb128 0x17
 4933 0282 00       		.byte	0
 4934 0283 00       		.byte	0
 4935 0284 2F       		.uleb128 0x2f
 4936 0285 898201   		.uleb128 0x4109
 4937 0288 01       		.byte	0x1
 4938 0289 11       		.uleb128 0x11
 4939 028a 01       		.uleb128 0x1
 4940 028b 9342     		.uleb128 0x2113
 4941 028d 18       		.uleb128 0x18
 4942 028e 00       		.byte	0
 4943 028f 00       		.byte	0
 4944 0290 30       		.uleb128 0x30
 4945 0291 05       		.uleb128 0x5
 4946 0292 00       		.byte	0
 4947 0293 03       		.uleb128 0x3
 4948 0294 0E       		.uleb128 0xe
 4949 0295 3A       		.uleb128 0x3a
 4950 0296 0B       		.uleb128 0xb
 4951 0297 3B       		.uleb128 0x3b
 4952 0298 0B       		.uleb128 0xb
 4953 0299 49       		.uleb128 0x49
 4954 029a 13       		.uleb128 0x13
 4955 029b 02       		.uleb128 0x2
 4956 029c 17       		.uleb128 0x17
 4957 029d 00       		.byte	0
 4958 029e 00       		.byte	0
 4959 029f 31       		.uleb128 0x31
 4960 02a0 34       		.uleb128 0x34
 4961 02a1 00       		.byte	0
 4962 02a2 03       		.uleb128 0x3
 4963 02a3 0E       		.uleb128 0xe
 4964 02a4 3A       		.uleb128 0x3a
 4965 02a5 0B       		.uleb128 0xb
 4966 02a6 3B       		.uleb128 0x3b
 4967 02a7 0B       		.uleb128 0xb
 4968 02a8 49       		.uleb128 0x49
 4969 02a9 13       		.uleb128 0x13
ARM GAS  C:\Users\haske\AppData\Local\Temp\ccmIjDGo.s 			page 119


 4970 02aa 02       		.uleb128 0x2
 4971 02ab 18       		.uleb128 0x18
 4972 02ac 00       		.byte	0
 4973 02ad 00       		.byte	0
 4974 02ae 32       		.uleb128 0x32
 4975 02af 34       		.uleb128 0x34
 4976 02b0 00       		.byte	0
 4977 02b1 03       		.uleb128 0x3
 4978 02b2 0E       		.uleb128 0xe
 4979 02b3 3A       		.uleb128 0x3a
 4980 02b4 0B       		.uleb128 0xb
 4981 02b5 3B       		.uleb128 0x3b
 4982 02b6 0B       		.uleb128 0xb
 4983 02b7 49       		.uleb128 0x49
 4984 02b8 13       		.uleb128 0x13
 4985 02b9 02       		.uleb128 0x2
 4986 02ba 17       		.uleb128 0x17
 4987 02bb 00       		.byte	0
 4988 02bc 00       		.byte	0
 4989 02bd 33       		.uleb128 0x33
 4990 02be 34       		.uleb128 0x34
 4991 02bf 00       		.byte	0
 4992 02c0 03       		.uleb128 0x3
 4993 02c1 08       		.uleb128 0x8
 4994 02c2 3A       		.uleb128 0x3a
 4995 02c3 0B       		.uleb128 0xb
 4996 02c4 3B       		.uleb128 0x3b
 4997 02c5 0B       		.uleb128 0xb
 4998 02c6 49       		.uleb128 0x49
 4999 02c7 13       		.uleb128 0x13
 5000 02c8 02       		.uleb128 0x2
 5001 02c9 17       		.uleb128 0x17
 5002 02ca 00       		.byte	0
 5003 02cb 00       		.byte	0
 5004 02cc 34       		.uleb128 0x34
 5005 02cd 34       		.uleb128 0x34
 5006 02ce 00       		.byte	0
 5007 02cf 03       		.uleb128 0x3
 5008 02d0 08       		.uleb128 0x8
 5009 02d1 3A       		.uleb128 0x3a
 5010 02d2 0B       		.uleb128 0xb
 5011 02d3 3B       		.uleb128 0x3b
 5012 02d4 0B       		.uleb128 0xb
 5013 02d5 49       		.uleb128 0x49
 5014 02d6 13       		.uleb128 0x13
 5015 02d7 02       		.uleb128 0x2
 5016 02d8 18       		.uleb128 0x18
 5017 02d9 00       		.byte	0
 5018 02da 00       		.byte	0
 5019 02db 35       		.uleb128 0x35
 5020 02dc 0B       		.uleb128 0xb
 5021 02dd 01       		.byte	0x1
 5022 02de 11       		.uleb128 0x11
 5023 02df 01       		.uleb128 0x1
 5024 02e0 12       		.uleb128 0x12
 5025 02e1 06       		.uleb128 0x6
 5026 02e2 01       		.uleb128 0x1
ARM GAS  C:\Users\haske\AppData\Local\Temp\ccmIjDGo.s 			page 120


 5027 02e3 13       		.uleb128 0x13
 5028 02e4 00       		.byte	0
 5029 02e5 00       		.byte	0
 5030 02e6 36       		.uleb128 0x36
 5031 02e7 34       		.uleb128 0x34
 5032 02e8 00       		.byte	0
 5033 02e9 03       		.uleb128 0x3
 5034 02ea 08       		.uleb128 0x8
 5035 02eb 3A       		.uleb128 0x3a
 5036 02ec 0B       		.uleb128 0xb
 5037 02ed 3B       		.uleb128 0x3b
 5038 02ee 05       		.uleb128 0x5
 5039 02ef 49       		.uleb128 0x49
 5040 02f0 13       		.uleb128 0x13
 5041 02f1 02       		.uleb128 0x2
 5042 02f2 18       		.uleb128 0x18
 5043 02f3 00       		.byte	0
 5044 02f4 00       		.byte	0
 5045 02f5 37       		.uleb128 0x37
 5046 02f6 34       		.uleb128 0x34
 5047 02f7 00       		.byte	0
 5048 02f8 03       		.uleb128 0x3
 5049 02f9 08       		.uleb128 0x8
 5050 02fa 3A       		.uleb128 0x3a
 5051 02fb 0B       		.uleb128 0xb
 5052 02fc 3B       		.uleb128 0x3b
 5053 02fd 05       		.uleb128 0x5
 5054 02fe 49       		.uleb128 0x49
 5055 02ff 13       		.uleb128 0x13
 5056 0300 02       		.uleb128 0x2
 5057 0301 17       		.uleb128 0x17
 5058 0302 00       		.byte	0
 5059 0303 00       		.byte	0
 5060 0304 38       		.uleb128 0x38
 5061 0305 1D       		.uleb128 0x1d
 5062 0306 01       		.byte	0x1
 5063 0307 31       		.uleb128 0x31
 5064 0308 13       		.uleb128 0x13
 5065 0309 52       		.uleb128 0x52
 5066 030a 01       		.uleb128 0x1
 5067 030b 55       		.uleb128 0x55
 5068 030c 17       		.uleb128 0x17
 5069 030d 58       		.uleb128 0x58
 5070 030e 0B       		.uleb128 0xb
 5071 030f 59       		.uleb128 0x59
 5072 0310 05       		.uleb128 0x5
 5073 0311 01       		.uleb128 0x1
 5074 0312 13       		.uleb128 0x13
 5075 0313 00       		.byte	0
 5076 0314 00       		.byte	0
 5077 0315 39       		.uleb128 0x39
 5078 0316 0B       		.uleb128 0xb
 5079 0317 01       		.byte	0x1
 5080 0318 55       		.uleb128 0x55
 5081 0319 17       		.uleb128 0x17
 5082 031a 00       		.byte	0
 5083 031b 00       		.byte	0
ARM GAS  C:\Users\haske\AppData\Local\Temp\ccmIjDGo.s 			page 121


 5084 031c 3A       		.uleb128 0x3a
 5085 031d 34       		.uleb128 0x34
 5086 031e 00       		.byte	0
 5087 031f 31       		.uleb128 0x31
 5088 0320 13       		.uleb128 0x13
 5089 0321 02       		.uleb128 0x2
 5090 0322 17       		.uleb128 0x17
 5091 0323 00       		.byte	0
 5092 0324 00       		.byte	0
 5093 0325 3B       		.uleb128 0x3b
 5094 0326 1D       		.uleb128 0x1d
 5095 0327 01       		.byte	0x1
 5096 0328 31       		.uleb128 0x31
 5097 0329 13       		.uleb128 0x13
 5098 032a 11       		.uleb128 0x11
 5099 032b 01       		.uleb128 0x1
 5100 032c 12       		.uleb128 0x12
 5101 032d 06       		.uleb128 0x6
 5102 032e 58       		.uleb128 0x58
 5103 032f 0B       		.uleb128 0xb
 5104 0330 59       		.uleb128 0x59
 5105 0331 05       		.uleb128 0x5
 5106 0332 01       		.uleb128 0x1
 5107 0333 13       		.uleb128 0x13
 5108 0334 00       		.byte	0
 5109 0335 00       		.byte	0
 5110 0336 3C       		.uleb128 0x3c
 5111 0337 898201   		.uleb128 0x4109
 5112 033a 00       		.byte	0
 5113 033b 11       		.uleb128 0x11
 5114 033c 01       		.uleb128 0x1
 5115 033d 31       		.uleb128 0x31
 5116 033e 13       		.uleb128 0x13
 5117 033f 00       		.byte	0
 5118 0340 00       		.byte	0
 5119 0341 3D       		.uleb128 0x3d
 5120 0342 34       		.uleb128 0x34
 5121 0343 00       		.byte	0
 5122 0344 03       		.uleb128 0x3
 5123 0345 0E       		.uleb128 0xe
 5124 0346 3A       		.uleb128 0x3a
 5125 0347 0B       		.uleb128 0xb
 5126 0348 3B       		.uleb128 0x3b
 5127 0349 05       		.uleb128 0x5
 5128 034a 49       		.uleb128 0x49
 5129 034b 13       		.uleb128 0x13
 5130 034c 02       		.uleb128 0x2
 5131 034d 18       		.uleb128 0x18
 5132 034e 00       		.byte	0
 5133 034f 00       		.byte	0
 5134 0350 3E       		.uleb128 0x3e
 5135 0351 898201   		.uleb128 0x4109
 5136 0354 01       		.byte	0x1
 5137 0355 11       		.uleb128 0x11
 5138 0356 01       		.uleb128 0x1
 5139 0357 01       		.uleb128 0x1
 5140 0358 13       		.uleb128 0x13
ARM GAS  C:\Users\haske\AppData\Local\Temp\ccmIjDGo.s 			page 122


 5141 0359 00       		.byte	0
 5142 035a 00       		.byte	0
 5143 035b 3F       		.uleb128 0x3f
 5144 035c 34       		.uleb128 0x34
 5145 035d 00       		.byte	0
 5146 035e 03       		.uleb128 0x3
 5147 035f 0E       		.uleb128 0xe
 5148 0360 3A       		.uleb128 0x3a
 5149 0361 0B       		.uleb128 0xb
 5150 0362 3B       		.uleb128 0x3b
 5151 0363 0B       		.uleb128 0xb
 5152 0364 49       		.uleb128 0x49
 5153 0365 13       		.uleb128 0x13
 5154 0366 3F       		.uleb128 0x3f
 5155 0367 19       		.uleb128 0x19
 5156 0368 3C       		.uleb128 0x3c
 5157 0369 19       		.uleb128 0x19
 5158 036a 00       		.byte	0
 5159 036b 00       		.byte	0
 5160 036c 40       		.uleb128 0x40
 5161 036d 2E       		.uleb128 0x2e
 5162 036e 00       		.byte	0
 5163 036f 3F       		.uleb128 0x3f
 5164 0370 19       		.uleb128 0x19
 5165 0371 3C       		.uleb128 0x3c
 5166 0372 19       		.uleb128 0x19
 5167 0373 6E       		.uleb128 0x6e
 5168 0374 0E       		.uleb128 0xe
 5169 0375 03       		.uleb128 0x3
 5170 0376 0E       		.uleb128 0xe
 5171 0377 3A       		.uleb128 0x3a
 5172 0378 0B       		.uleb128 0xb
 5173 0379 3B       		.uleb128 0x3b
 5174 037a 0B       		.uleb128 0xb
 5175 037b 00       		.byte	0
 5176 037c 00       		.byte	0
 5177 037d 41       		.uleb128 0x41
 5178 037e 2E       		.uleb128 0x2e
 5179 037f 00       		.byte	0
 5180 0380 3F       		.uleb128 0x3f
 5181 0381 19       		.uleb128 0x19
 5182 0382 3C       		.uleb128 0x3c
 5183 0383 19       		.uleb128 0x19
 5184 0384 6E       		.uleb128 0x6e
 5185 0385 0E       		.uleb128 0xe
 5186 0386 03       		.uleb128 0x3
 5187 0387 0E       		.uleb128 0xe
 5188 0388 3A       		.uleb128 0x3a
 5189 0389 0B       		.uleb128 0xb
 5190 038a 3B       		.uleb128 0x3b
 5191 038b 05       		.uleb128 0x5
 5192 038c 00       		.byte	0
 5193 038d 00       		.byte	0
 5194 038e 00       		.byte	0
 5195              		.section	.debug_loc,"",%progbits
 5196              	.Ldebug_loc0:
 5197              	.LLST0:
ARM GAS  C:\Users\haske\AppData\Local\Temp\ccmIjDGo.s 			page 123


 5198 0000 00000000 		.4byte	.LVL0
 5199 0004 04000000 		.4byte	.LVL2
 5200 0008 0100     		.2byte	0x1
 5201 000a 50       		.byte	0x50
 5202 000b 04000000 		.4byte	.LVL2
 5203 000f 12000000 		.4byte	.LVL3
 5204 0013 0400     		.2byte	0x4
 5205 0015 F3       		.byte	0xf3
 5206 0016 01       		.uleb128 0x1
 5207 0017 50       		.byte	0x50
 5208 0018 9F       		.byte	0x9f
 5209 0019 12000000 		.4byte	.LVL3
 5210 001d 14000000 		.4byte	.LVL4
 5211 0021 0100     		.2byte	0x1
 5212 0023 53       		.byte	0x53
 5213 0024 00000000 		.4byte	0
 5214 0028 00000000 		.4byte	0
 5215              	.LLST1:
 5216 002c 02000000 		.4byte	.LVL1
 5217 0030 26000000 		.4byte	.LVL5
 5218 0034 0200     		.2byte	0x2
 5219 0036 30       		.byte	0x30
 5220 0037 9F       		.byte	0x9f
 5221 0038 26000000 		.4byte	.LVL5
 5222 003c 2A000000 		.4byte	.LVL6
 5223 0040 0200     		.2byte	0x2
 5224 0042 3C       		.byte	0x3c
 5225 0043 9F       		.byte	0x9f
 5226 0044 2A000000 		.4byte	.LVL6
 5227 0048 2E000000 		.4byte	.LVL7
 5228 004c 0200     		.2byte	0x2
 5229 004e 3D       		.byte	0x3d
 5230 004f 9F       		.byte	0x9f
 5231 0050 2E000000 		.4byte	.LVL7
 5232 0054 32000000 		.4byte	.LVL8
 5233 0058 0200     		.2byte	0x2
 5234 005a 3E       		.byte	0x3e
 5235 005b 9F       		.byte	0x9f
 5236 005c 32000000 		.4byte	.LVL8
 5237 0060 36000000 		.4byte	.LVL9
 5238 0064 0200     		.2byte	0x2
 5239 0066 3F       		.byte	0x3f
 5240 0067 9F       		.byte	0x9f
 5241 0068 36000000 		.4byte	.LVL9
 5242 006c 3C000000 		.4byte	.LVL10
 5243 0070 0200     		.2byte	0x2
 5244 0072 30       		.byte	0x30
 5245 0073 9F       		.byte	0x9f
 5246 0074 3C000000 		.4byte	.LVL10
 5247 0078 3E000000 		.4byte	.LFE162
 5248 007c 0100     		.2byte	0x1
 5249 007e 50       		.byte	0x50
 5250 007f 00000000 		.4byte	0
 5251 0083 00000000 		.4byte	0
 5252              	.LLST2:
 5253 0087 00000000 		.4byte	.LVL11
 5254 008b 09000000 		.4byte	.LVL12-1
ARM GAS  C:\Users\haske\AppData\Local\Temp\ccmIjDGo.s 			page 124


 5255 008f 0100     		.2byte	0x1
 5256 0091 50       		.byte	0x50
 5257 0092 09000000 		.4byte	.LVL12-1
 5258 0096 34000000 		.4byte	.LVL18
 5259 009a 0100     		.2byte	0x1
 5260 009c 54       		.byte	0x54
 5261 009d 34000000 		.4byte	.LVL18
 5262 00a1 38000000 		.4byte	.LFE159
 5263 00a5 0400     		.2byte	0x4
 5264 00a7 F3       		.byte	0xf3
 5265 00a8 01       		.uleb128 0x1
 5266 00a9 50       		.byte	0x50
 5267 00aa 9F       		.byte	0x9f
 5268 00ab 00000000 		.4byte	0
 5269 00af 00000000 		.4byte	0
 5270              	.LLST3:
 5271 00b3 0E000000 		.4byte	.LVL13
 5272 00b7 12000000 		.4byte	.LVL14
 5273 00bb 0200     		.2byte	0x2
 5274 00bd 30       		.byte	0x30
 5275 00be 9F       		.byte	0x9f
 5276 00bf 00000000 		.4byte	0
 5277 00c3 00000000 		.4byte	0
 5278              	.LLST6:
 5279 00c7 20000000 		.4byte	.LVL15
 5280 00cb 24000000 		.4byte	.LVL16
 5281 00cf 0200     		.2byte	0x2
 5282 00d1 30       		.byte	0x30
 5283 00d2 9F       		.byte	0x9f
 5284 00d3 00000000 		.4byte	0
 5285 00d7 00000000 		.4byte	0
 5286              	.LLST9:
 5287 00db 00000000 		.4byte	.LVL19
 5288 00df 05000000 		.4byte	.LVL20-1
 5289 00e3 0100     		.2byte	0x1
 5290 00e5 50       		.byte	0x50
 5291 00e6 05000000 		.4byte	.LVL20-1
 5292 00ea 08000000 		.4byte	.LFE161
 5293 00ee 0400     		.2byte	0x4
 5294 00f0 F3       		.byte	0xf3
 5295 00f1 01       		.uleb128 0x1
 5296 00f2 50       		.byte	0x50
 5297 00f3 9F       		.byte	0x9f
 5298 00f4 00000000 		.4byte	0
 5299 00f8 00000000 		.4byte	0
 5300              	.LLST10:
 5301 00fc 00000000 		.4byte	.LVL19
 5302 0100 05000000 		.4byte	.LVL20-1
 5303 0104 0100     		.2byte	0x1
 5304 0106 51       		.byte	0x51
 5305 0107 05000000 		.4byte	.LVL20-1
 5306 010b 08000000 		.4byte	.LFE161
 5307 010f 0400     		.2byte	0x4
 5308 0111 F3       		.byte	0xf3
 5309 0112 01       		.uleb128 0x1
 5310 0113 51       		.byte	0x51
 5311 0114 9F       		.byte	0x9f
ARM GAS  C:\Users\haske\AppData\Local\Temp\ccmIjDGo.s 			page 125


 5312 0115 00000000 		.4byte	0
 5313 0119 00000000 		.4byte	0
 5314              	.LLST11:
 5315 011d 00000000 		.4byte	.LVL19
 5316 0121 05000000 		.4byte	.LVL20-1
 5317 0125 0100     		.2byte	0x1
 5318 0127 52       		.byte	0x52
 5319 0128 05000000 		.4byte	.LVL20-1
 5320 012c 08000000 		.4byte	.LFE161
 5321 0130 0400     		.2byte	0x4
 5322 0132 F3       		.byte	0xf3
 5323 0133 01       		.uleb128 0x1
 5324 0134 52       		.byte	0x52
 5325 0135 9F       		.byte	0x9f
 5326 0136 00000000 		.4byte	0
 5327 013a 00000000 		.4byte	0
 5328              	.LLST12:
 5329 013e 00000000 		.4byte	.LVL19
 5330 0142 05000000 		.4byte	.LVL20-1
 5331 0146 0100     		.2byte	0x1
 5332 0148 53       		.byte	0x53
 5333 0149 05000000 		.4byte	.LVL20-1
 5334 014d 08000000 		.4byte	.LFE161
 5335 0151 0400     		.2byte	0x4
 5336 0153 F3       		.byte	0xf3
 5337 0154 01       		.uleb128 0x1
 5338 0155 53       		.byte	0x53
 5339 0156 9F       		.byte	0x9f
 5340 0157 00000000 		.4byte	0
 5341 015b 00000000 		.4byte	0
 5342              	.LLST13:
 5343 015f 00000000 		.4byte	.LVL21
 5344 0163 2E000000 		.4byte	.LVL23
 5345 0167 0100     		.2byte	0x1
 5346 0169 50       		.byte	0x50
 5347 016a 2E000000 		.4byte	.LVL23
 5348 016e 65000000 		.4byte	.LVL26-1
 5349 0172 0100     		.2byte	0x1
 5350 0174 5E       		.byte	0x5e
 5351 0175 65000000 		.4byte	.LVL26-1
 5352 0179 C0050000 		.4byte	.LVL138
 5353 017d 0300     		.2byte	0x3
 5354 017f 91       		.byte	0x91
 5355 0180 A07E     		.sleb128 -224
 5356 0182 C0050000 		.4byte	.LVL138
 5357 0186 CC050000 		.4byte	.LFE160
 5358 018a 0400     		.2byte	0x4
 5359 018c F3       		.byte	0xf3
 5360 018d 01       		.uleb128 0x1
 5361 018e 50       		.byte	0x50
 5362 018f 9F       		.byte	0x9f
 5363 0190 00000000 		.4byte	0
 5364 0194 00000000 		.4byte	0
 5365              	.LLST14:
 5366 0198 00000000 		.4byte	.LVL21
 5367 019c 2E000000 		.4byte	.LVL23
 5368 01a0 0100     		.2byte	0x1
ARM GAS  C:\Users\haske\AppData\Local\Temp\ccmIjDGo.s 			page 126


 5369 01a2 51       		.byte	0x51
 5370 01a3 2E000000 		.4byte	.LVL23
 5371 01a7 C0050000 		.4byte	.LVL138
 5372 01ab 0100     		.2byte	0x1
 5373 01ad 55       		.byte	0x55
 5374 01ae C0050000 		.4byte	.LVL138
 5375 01b2 CC050000 		.4byte	.LFE160
 5376 01b6 0400     		.2byte	0x4
 5377 01b8 F3       		.byte	0xf3
 5378 01b9 01       		.uleb128 0x1
 5379 01ba 51       		.byte	0x51
 5380 01bb 9F       		.byte	0x9f
 5381 01bc 00000000 		.4byte	0
 5382 01c0 00000000 		.4byte	0
 5383              	.LLST15:
 5384 01c4 00000000 		.4byte	.LVL21
 5385 01c8 2E000000 		.4byte	.LVL23
 5386 01cc 0100     		.2byte	0x1
 5387 01ce 52       		.byte	0x52
 5388 01cf 2E000000 		.4byte	.LVL23
 5389 01d3 65000000 		.4byte	.LVL26-1
 5390 01d7 0100     		.2byte	0x1
 5391 01d9 5C       		.byte	0x5c
 5392 01da 65000000 		.4byte	.LVL26-1
 5393 01de C0050000 		.4byte	.LVL138
 5394 01e2 0300     		.2byte	0x3
 5395 01e4 91       		.byte	0x91
 5396 01e5 B47E     		.sleb128 -204
 5397 01e7 C0050000 		.4byte	.LVL138
 5398 01eb CC050000 		.4byte	.LFE160
 5399 01ef 0400     		.2byte	0x4
 5400 01f1 F3       		.byte	0xf3
 5401 01f2 01       		.uleb128 0x1
 5402 01f3 52       		.byte	0x52
 5403 01f4 9F       		.byte	0x9f
 5404 01f5 00000000 		.4byte	0
 5405 01f9 00000000 		.4byte	0
 5406              	.LLST16:
 5407 01fd 00000000 		.4byte	.LVL21
 5408 0201 0C000000 		.4byte	.LVL22
 5409 0205 0100     		.2byte	0x1
 5410 0207 53       		.byte	0x53
 5411 0208 0C000000 		.4byte	.LVL22
 5412 020c 5E010000 		.4byte	.LVL57
 5413 0210 0100     		.2byte	0x1
 5414 0212 58       		.byte	0x58
 5415 0213 5E010000 		.4byte	.LVL57
 5416 0217 C0050000 		.4byte	.LVL138
 5417 021b 0300     		.2byte	0x3
 5418 021d 91       		.byte	0x91
 5419 021e A47E     		.sleb128 -220
 5420 0220 C0050000 		.4byte	.LVL138
 5421 0224 CC050000 		.4byte	.LFE160
 5422 0228 0400     		.2byte	0x4
 5423 022a F3       		.byte	0xf3
 5424 022b 01       		.uleb128 0x1
 5425 022c 53       		.byte	0x53
ARM GAS  C:\Users\haske\AppData\Local\Temp\ccmIjDGo.s 			page 127


 5426 022d 9F       		.byte	0x9f
 5427 022e 00000000 		.4byte	0
 5428 0232 00000000 		.4byte	0
 5429              	.LLST17:
 5430 0236 00000000 		.4byte	.LVL21
 5431 023a C6050000 		.4byte	.LVL139
 5432 023e 0200     		.2byte	0x2
 5433 0240 91       		.byte	0x91
 5434 0241 00       		.sleb128 0
 5435 0242 C6050000 		.4byte	.LVL139
 5436 0246 CC050000 		.4byte	.LFE160
 5437 024a 0200     		.2byte	0x2
 5438 024c 7D       		.byte	0x7d
 5439 024d 00       		.sleb128 0
 5440 024e 00000000 		.4byte	0
 5441 0252 00000000 		.4byte	0
 5442              	.LLST18:
 5443 0256 3C000000 		.4byte	.LVL24
 5444 025a 48000000 		.4byte	.LVL25
 5445 025e 0100     		.2byte	0x1
 5446 0260 53       		.byte	0x53
 5447 0261 48000000 		.4byte	.LVL25
 5448 0265 65000000 		.4byte	.LVL26-1
 5449 0269 0200     		.2byte	0x2
 5450 026b 75       		.byte	0x75
 5451 026c 00       		.sleb128 0
 5452 026d 65000000 		.4byte	.LVL26-1
 5453 0271 C0050000 		.4byte	.LVL138
 5454 0275 0300     		.2byte	0x3
 5455 0277 91       		.byte	0x91
 5456 0278 987E     		.sleb128 -232
 5457 027a 00000000 		.4byte	0
 5458 027e 00000000 		.4byte	0
 5459              	.LLST19:
 5460 0282 8E000000 		.4byte	.LVL31
 5461 0286 90000000 		.4byte	.LVL32
 5462 028a 0100     		.2byte	0x1
 5463 028c 53       		.byte	0x53
 5464 028d B0000000 		.4byte	.LVL36
 5465 0291 36010000 		.4byte	.LVL54
 5466 0295 0100     		.2byte	0x1
 5467 0297 53       		.byte	0x53
 5468 0298 00000000 		.4byte	0
 5469 029c 00000000 		.4byte	0
 5470              	.LLST20:
 5471 02a0 66000000 		.4byte	.LVL26
 5472 02a4 A8000000 		.4byte	.LVL34
 5473 02a8 0100     		.2byte	0x1
 5474 02aa 50       		.byte	0x50
 5475 02ab 00000000 		.4byte	0
 5476 02af 00000000 		.4byte	0
 5477              	.LLST21:
 5478 02b3 70000000 		.4byte	.LVL27
 5479 02b7 74000000 		.4byte	.LVL28
 5480 02bb 0100     		.2byte	0x1
 5481 02bd 53       		.byte	0x53
 5482 02be 74000000 		.4byte	.LVL28
ARM GAS  C:\Users\haske\AppData\Local\Temp\ccmIjDGo.s 			page 128


 5483 02c2 C0050000 		.4byte	.LVL138
 5484 02c6 0300     		.2byte	0x3
 5485 02c8 91       		.byte	0x91
 5486 02c9 B07E     		.sleb128 -208
 5487 02cb 00000000 		.4byte	0
 5488 02cf 00000000 		.4byte	0
 5489              	.LLST22:
 5490 02d3 70000000 		.4byte	.LVL27
 5491 02d7 96000000 		.4byte	.LVL33
 5492 02db 0200     		.2byte	0x2
 5493 02dd 75       		.byte	0x75
 5494 02de 1B       		.sleb128 27
 5495 02df 00000000 		.4byte	0
 5496 02e3 00000000 		.4byte	0
 5497              	.LLST23:
 5498 02e7 B6000000 		.4byte	.LVL37
 5499 02eb 4E020000 		.4byte	.LVL71
 5500 02ef 0100     		.2byte	0x1
 5501 02f1 56       		.byte	0x56
 5502 02f2 00000000 		.4byte	0
 5503 02f6 00000000 		.4byte	0
 5504              	.LLST24:
 5505 02fa BE000000 		.4byte	.LVL38
 5506 02fe C4000000 		.4byte	.LVL39
 5507 0302 0100     		.2byte	0x1
 5508 0304 52       		.byte	0x52
 5509 0305 C4000000 		.4byte	.LVL39
 5510 0309 C0050000 		.4byte	.LVL138
 5511 030d 0300     		.2byte	0x3
 5512 030f 91       		.byte	0x91
 5513 0310 B87E     		.sleb128 -200
 5514 0312 00000000 		.4byte	0
 5515 0316 00000000 		.4byte	0
 5516              	.LLST25:
 5517 031a BE000000 		.4byte	.LVL38
 5518 031e EC010000 		.4byte	.LVL63
 5519 0322 0200     		.2byte	0x2
 5520 0324 30       		.byte	0x30
 5521 0325 9F       		.byte	0x9f
 5522 0326 EC010000 		.4byte	.LVL63
 5523 032a FE010000 		.4byte	.LVL65
 5524 032e 0100     		.2byte	0x1
 5525 0330 50       		.byte	0x50
 5526 0331 10020000 		.4byte	.LVL66
 5527 0335 2C020000 		.4byte	.LVL67
 5528 0339 0200     		.2byte	0x2
 5529 033b 30       		.byte	0x30
 5530 033c 9F       		.byte	0x9f
 5531 033d 2C020000 		.4byte	.LVL67
 5532 0341 3E020000 		.4byte	.LVL69
 5533 0345 0100     		.2byte	0x1
 5534 0347 50       		.byte	0x50
 5535 0348 38050000 		.4byte	.LVL130
 5536 034c 4A050000 		.4byte	.LVL132
 5537 0350 0100     		.2byte	0x1
 5538 0352 50       		.byte	0x50
 5539 0353 74050000 		.4byte	.LVL133
ARM GAS  C:\Users\haske\AppData\Local\Temp\ccmIjDGo.s 			page 129


 5540 0357 86050000 		.4byte	.LVL135
 5541 035b 0100     		.2byte	0x1
 5542 035d 50       		.byte	0x50
 5543 035e 00000000 		.4byte	0
 5544 0362 00000000 		.4byte	0
 5545              	.LLST26:
 5546 0366 CC000000 		.4byte	.LVL40
 5547 036a D2000000 		.4byte	.LVL41
 5548 036e 0200     		.2byte	0x2
 5549 0370 30       		.byte	0x30
 5550 0371 9F       		.byte	0x9f
 5551 0372 D2000000 		.4byte	.LVL41
 5552 0376 C0050000 		.4byte	.LVL138
 5553 037a 0A00     		.2byte	0xa
 5554 037c 91       		.byte	0x91
 5555 037d C07E     		.sleb128 -192
 5556 037f 94       		.byte	0x94
 5557 0380 02       		.byte	0x2
 5558 0381 40       		.byte	0x40
 5559 0382 24       		.byte	0x24
 5560 0383 40       		.byte	0x40
 5561 0384 26       		.byte	0x26
 5562 0385 9F       		.byte	0x9f
 5563 0386 00000000 		.4byte	0
 5564 038a 00000000 		.4byte	0
 5565              	.LLST27:
 5566 038e CC000000 		.4byte	.LVL40
 5567 0392 D6000000 		.4byte	.LVL42
 5568 0396 0200     		.2byte	0x2
 5569 0398 30       		.byte	0x30
 5570 0399 9F       		.byte	0x9f
 5571 039a D6000000 		.4byte	.LVL42
 5572 039e EA000000 		.4byte	.LVL44
 5573 03a2 0700     		.2byte	0x7
 5574 03a4 71       		.byte	0x71
 5575 03a5 00       		.sleb128 0
 5576 03a6 40       		.byte	0x40
 5577 03a7 24       		.byte	0x24
 5578 03a8 40       		.byte	0x40
 5579 03a9 26       		.byte	0x26
 5580 03aa 9F       		.byte	0x9f
 5581 03ab EA000000 		.4byte	.LVL44
 5582 03af 06010000 		.4byte	.LVL45
 5583 03b3 0900     		.2byte	0x9
 5584 03b5 75       		.byte	0x75
 5585 03b6 18       		.sleb128 24
 5586 03b7 94       		.byte	0x94
 5587 03b8 02       		.byte	0x2
 5588 03b9 40       		.byte	0x40
 5589 03ba 24       		.byte	0x24
 5590 03bb 40       		.byte	0x40
 5591 03bc 26       		.byte	0x26
 5592 03bd 9F       		.byte	0x9f
 5593 03be 0A010000 		.4byte	.LVL47
 5594 03c2 1A010000 		.4byte	.LVL48
 5595 03c6 0700     		.2byte	0x7
 5596 03c8 71       		.byte	0x71
ARM GAS  C:\Users\haske\AppData\Local\Temp\ccmIjDGo.s 			page 130


 5597 03c9 00       		.sleb128 0
 5598 03ca 40       		.byte	0x40
 5599 03cb 24       		.byte	0x24
 5600 03cc 40       		.byte	0x40
 5601 03cd 26       		.byte	0x26
 5602 03ce 9F       		.byte	0x9f
 5603 03cf 00000000 		.4byte	0
 5604 03d3 00000000 		.4byte	0
 5605              	.LLST28:
 5606 03d7 DC000000 		.4byte	.LVL43
 5607 03db 20010000 		.4byte	.LVL49
 5608 03df 0200     		.2byte	0x2
 5609 03e1 30       		.byte	0x30
 5610 03e2 9F       		.byte	0x9f
 5611 03e3 20010000 		.4byte	.LVL49
 5612 03e7 2E010000 		.4byte	.LVL50
 5613 03eb 0100     		.2byte	0x1
 5614 03ed 57       		.byte	0x57
 5615 03ee 2E010000 		.4byte	.LVL50
 5616 03f2 34010000 		.4byte	.LVL53
 5617 03f6 0200     		.2byte	0x2
 5618 03f8 30       		.byte	0x30
 5619 03f9 9F       		.byte	0x9f
 5620 03fa 34010000 		.4byte	.LVL53
 5621 03fe 64010000 		.4byte	.LVL58
 5622 0402 0100     		.2byte	0x1
 5623 0404 57       		.byte	0x57
 5624 0405 64010000 		.4byte	.LVL58
 5625 0409 BC010000 		.4byte	.LVL61
 5626 040d 0100     		.2byte	0x1
 5627 040f 5B       		.byte	0x5b
 5628 0410 BC010000 		.4byte	.LVL61
 5629 0414 BA020000 		.4byte	.LVL80
 5630 0418 0100     		.2byte	0x1
 5631 041a 57       		.byte	0x57
 5632 041b BA020000 		.4byte	.LVL80
 5633 041f F6040000 		.4byte	.LVL126
 5634 0423 0100     		.2byte	0x1
 5635 0425 58       		.byte	0x58
 5636 0426 F6040000 		.4byte	.LVL126
 5637 042a AC050000 		.4byte	.LVL136
 5638 042e 0100     		.2byte	0x1
 5639 0430 5B       		.byte	0x5b
 5640 0431 AC050000 		.4byte	.LVL136
 5641 0435 C0050000 		.4byte	.LVL138
 5642 0439 0100     		.2byte	0x1
 5643 043b 58       		.byte	0x58
 5644 043c 00000000 		.4byte	0
 5645 0440 00000000 		.4byte	0
 5646              	.LLST29:
 5647 0444 DC000000 		.4byte	.LVL43
 5648 0448 08010000 		.4byte	.LVL46
 5649 044c 0300     		.2byte	0x3
 5650 044e 09       		.byte	0x9
 5651 044f FF       		.byte	0xff
 5652 0450 9F       		.byte	0x9f
 5653 0451 08010000 		.4byte	.LVL46
ARM GAS  C:\Users\haske\AppData\Local\Temp\ccmIjDGo.s 			page 131


 5654 0455 0A010000 		.4byte	.LVL47
 5655 0459 0100     		.2byte	0x1
 5656 045b 57       		.byte	0x57
 5657 045c 0A010000 		.4byte	.LVL47
 5658 0460 1A010000 		.4byte	.LVL48
 5659 0464 0300     		.2byte	0x3
 5660 0466 09       		.byte	0x9
 5661 0467 FF       		.byte	0xff
 5662 0468 9F       		.byte	0x9f
 5663 0469 1A010000 		.4byte	.LVL48
 5664 046d 30010000 		.4byte	.LVL51
 5665 0471 0100     		.2byte	0x1
 5666 0473 57       		.byte	0x57
 5667 0474 32010000 		.4byte	.LVL52
 5668 0478 34010000 		.4byte	.LVL53
 5669 047c 0100     		.2byte	0x1
 5670 047e 57       		.byte	0x57
 5671 047f 00000000 		.4byte	0
 5672 0483 00000000 		.4byte	0
 5673              	.LLST30:
 5674 0487 56010000 		.4byte	.LVL56
 5675 048b 80010000 		.4byte	.LVL60
 5676 048f 0100     		.2byte	0x1
 5677 0491 5B       		.byte	0x5b
 5678 0492 80010000 		.4byte	.LVL60
 5679 0496 BE010000 		.4byte	.LVL62
 5680 049a 0100     		.2byte	0x1
 5681 049c 50       		.byte	0x50
 5682 049d BE010000 		.4byte	.LVL62
 5683 04a1 16050000 		.4byte	.LVL129
 5684 04a5 0100     		.2byte	0x1
 5685 04a7 5B       		.byte	0x5b
 5686 04a8 16050000 		.4byte	.LVL129
 5687 04ac AE050000 		.4byte	.LVL137
 5688 04b0 0100     		.2byte	0x1
 5689 04b2 54       		.byte	0x54
 5690 04b3 AE050000 		.4byte	.LVL137
 5691 04b7 C0050000 		.4byte	.LVL138
 5692 04bb 0100     		.2byte	0x1
 5693 04bd 5B       		.byte	0x5b
 5694 04be 00000000 		.4byte	0
 5695 04c2 00000000 		.4byte	0
 5696              	.LLST31:
 5697 04c6 4C020000 		.4byte	.LVL70
 5698 04ca 58020000 		.4byte	.LVL73
 5699 04ce 0100     		.2byte	0x1
 5700 04d0 5A       		.byte	0x5a
 5701 04d1 58020000 		.4byte	.LVL73
 5702 04d5 C0050000 		.4byte	.LVL138
 5703 04d9 0100     		.2byte	0x1
 5704 04db 56       		.byte	0x56
 5705 04dc 00000000 		.4byte	0
 5706 04e0 00000000 		.4byte	0
 5707              	.LLST32:
 5708 04e4 4E020000 		.4byte	.LVL71
 5709 04e8 56020000 		.4byte	.LVL72
 5710 04ec 0100     		.2byte	0x1
ARM GAS  C:\Users\haske\AppData\Local\Temp\ccmIjDGo.s 			page 132


 5711 04ee 56       		.byte	0x56
 5712 04ef 56020000 		.4byte	.LVL72
 5713 04f3 58020000 		.4byte	.LVL73
 5714 04f7 0100     		.2byte	0x1
 5715 04f9 53       		.byte	0x53
 5716 04fa 58020000 		.4byte	.LVL73
 5717 04fe C0050000 		.4byte	.LVL138
 5718 0502 0100     		.2byte	0x1
 5719 0504 5A       		.byte	0x5a
 5720 0505 00000000 		.4byte	0
 5721 0509 00000000 		.4byte	0
 5722              	.LLST33:
 5723 050d 96020000 		.4byte	.LVL75
 5724 0511 BA020000 		.4byte	.LVL80
 5725 0515 0200     		.2byte	0x2
 5726 0517 30       		.byte	0x30
 5727 0518 9F       		.byte	0x9f
 5728 0519 C6020000 		.4byte	.LVL81
 5729 051d CC020000 		.4byte	.LVL83
 5730 0521 0200     		.2byte	0x2
 5731 0523 30       		.byte	0x30
 5732 0524 9F       		.byte	0x9f
 5733 0525 CC020000 		.4byte	.LVL83
 5734 0529 10030000 		.4byte	.LVL89
 5735 052d 0100     		.2byte	0x1
 5736 052f 57       		.byte	0x57
 5737 0530 10030000 		.4byte	.LVL89
 5738 0534 14030000 		.4byte	.LVL90
 5739 0538 0200     		.2byte	0x2
 5740 053a 31       		.byte	0x31
 5741 053b 9F       		.byte	0x9f
 5742 053c 14030000 		.4byte	.LVL90
 5743 0540 84030000 		.4byte	.LVL106
 5744 0544 0100     		.2byte	0x1
 5745 0546 57       		.byte	0x57
 5746 0547 B8030000 		.4byte	.LVL111
 5747 054b C0030000 		.4byte	.LVL113
 5748 054f 0100     		.2byte	0x1
 5749 0551 57       		.byte	0x57
 5750 0552 C0030000 		.4byte	.LVL113
 5751 0556 C2030000 		.4byte	.LVL114
 5752 055a 0200     		.2byte	0x2
 5753 055c 32       		.byte	0x32
 5754 055d 9F       		.byte	0x9f
 5755 055e C2030000 		.4byte	.LVL114
 5756 0562 FC040000 		.4byte	.LVL127
 5757 0566 0100     		.2byte	0x1
 5758 0568 57       		.byte	0x57
 5759 0569 00000000 		.4byte	0
 5760 056d 00000000 		.4byte	0
 5761              	.LLST34:
 5762 0571 96020000 		.4byte	.LVL75
 5763 0575 BA020000 		.4byte	.LVL80
 5764 0579 0200     		.2byte	0x2
 5765 057b 30       		.byte	0x30
 5766 057c 9F       		.byte	0x9f
 5767 057d BA020000 		.4byte	.LVL80
ARM GAS  C:\Users\haske\AppData\Local\Temp\ccmIjDGo.s 			page 133


 5768 0581 10030000 		.4byte	.LVL89
 5769 0585 0300     		.2byte	0x3
 5770 0587 91       		.byte	0x91
 5771 0588 BC7E     		.sleb128 -196
 5772 058a 10030000 		.4byte	.LVL89
 5773 058e 14030000 		.4byte	.LVL90
 5774 0592 0100     		.2byte	0x1
 5775 0594 53       		.byte	0x53
 5776 0595 14030000 		.4byte	.LVL90
 5777 0599 C0050000 		.4byte	.LVL138
 5778 059d 0300     		.2byte	0x3
 5779 059f 91       		.byte	0x91
 5780 05a0 BC7E     		.sleb128 -196
 5781 05a2 00000000 		.4byte	0
 5782 05a6 00000000 		.4byte	0
 5783              	.LLST35:
 5784 05aa 9A020000 		.4byte	.LVL76
 5785 05ae A5020000 		.4byte	.LVL78-1
 5786 05b2 0100     		.2byte	0x1
 5787 05b4 53       		.byte	0x53
 5788 05b5 BA030000 		.4byte	.LVL112
 5789 05b9 C2030000 		.4byte	.LVL114
 5790 05bd 0100     		.2byte	0x1
 5791 05bf 53       		.byte	0x53
 5792 05c0 4E040000 		.4byte	.LVL123
 5793 05c4 52040000 		.4byte	.LVL124
 5794 05c8 0100     		.2byte	0x1
 5795 05ca 53       		.byte	0x53
 5796 05cb 00000000 		.4byte	0
 5797 05cf 00000000 		.4byte	0
 5798              	.LLST36:
 5799 05d3 BA020000 		.4byte	.LVL80
 5800 05d7 C6030000 		.4byte	.LVL115
 5801 05db 0100     		.2byte	0x1
 5802 05dd 59       		.byte	0x59
 5803 05de 26040000 		.4byte	.LVL120
 5804 05e2 C6050000 		.4byte	.LVL139
 5805 05e6 0100     		.2byte	0x1
 5806 05e8 59       		.byte	0x59
 5807 05e9 00000000 		.4byte	0
 5808 05ed 00000000 		.4byte	0
 5809              	.LLST37:
 5810 05f1 DA030000 		.4byte	.LVL117
 5811 05f5 1E040000 		.4byte	.LVL118
 5812 05f9 0100     		.2byte	0x1
 5813 05fb 50       		.byte	0x50
 5814 05fc 1E040000 		.4byte	.LVL118
 5815 0600 40040000 		.4byte	.LVL122
 5816 0604 0100     		.2byte	0x1
 5817 0606 54       		.byte	0x54
 5818 0607 00000000 		.4byte	0
 5819 060b 00000000 		.4byte	0
 5820              	.LLST38:
 5821 060f B2020000 		.4byte	.LVL79
 5822 0613 C0050000 		.4byte	.LVL138
 5823 0617 0A00     		.2byte	0xa
 5824 0619 91       		.byte	0x91
ARM GAS  C:\Users\haske\AppData\Local\Temp\ccmIjDGo.s 			page 134


 5825 061a C47E     		.sleb128 -188
 5826 061c 94       		.byte	0x94
 5827 061d 02       		.byte	0x2
 5828 061e 40       		.byte	0x40
 5829 061f 24       		.byte	0x24
 5830 0620 40       		.byte	0x40
 5831 0621 26       		.byte	0x26
 5832 0622 9F       		.byte	0x9f
 5833 0623 00000000 		.4byte	0
 5834 0627 00000000 		.4byte	0
 5835              	.LLST39:
 5836 062b 70000000 		.4byte	.LVL27
 5837 062f 76000000 		.4byte	.LVL29
 5838 0633 0300     		.2byte	0x3
 5839 0635 91       		.byte	0x91
 5840 0636 A47E     		.sleb128 -220
 5841 0638 00000000 		.4byte	0
 5842 063c 00000000 		.4byte	0
 5843              	.LLST40:
 5844 0640 70000000 		.4byte	.LVL27
 5845 0644 76000000 		.4byte	.LVL29
 5846 0648 0600     		.2byte	0x6
 5847 064a F2       		.byte	0xf2
 5848 064b 72110000 		.4byte	.Ldebug_info0+4466
 5849 064f 00       		.sleb128 0
 5850 0650 00000000 		.4byte	0
 5851 0654 00000000 		.4byte	0
 5852              	.LLST41:
 5853 0658 70000000 		.4byte	.LVL27
 5854 065c 76000000 		.4byte	.LVL29
 5855 0660 0600     		.2byte	0x6
 5856 0662 F2       		.byte	0xf2
 5857 0663 63110000 		.4byte	.Ldebug_info0+4451
 5858 0667 00       		.sleb128 0
 5859 0668 00000000 		.4byte	0
 5860 066c 00000000 		.4byte	0
 5861              	.LLST42:
 5862 0670 7E000000 		.4byte	.LVL30
 5863 0674 8E000000 		.4byte	.LVL31
 5864 0678 0300     		.2byte	0x3
 5865 067a 91       		.byte	0x91
 5866 067b B47E     		.sleb128 -204
 5867 067d 00000000 		.4byte	0
 5868 0681 00000000 		.4byte	0
 5869              	.LLST43:
 5870 0685 B0000000 		.4byte	.LVL36
 5871 0689 B6000000 		.4byte	.LVL37
 5872 068d 0300     		.2byte	0x3
 5873 068f 91       		.byte	0x91
 5874 0690 987E     		.sleb128 -232
 5875 0692 00000000 		.4byte	0
 5876 0696 00000000 		.4byte	0
 5877              	.LLST44:
 5878 069a EC010000 		.4byte	.LVL63
 5879 069e FC010000 		.4byte	.LVL64
 5880 06a2 0300     		.2byte	0x3
 5881 06a4 91       		.byte	0x91
ARM GAS  C:\Users\haske\AppData\Local\Temp\ccmIjDGo.s 			page 135


 5882 06a5 B47E     		.sleb128 -204
 5883 06a7 00000000 		.4byte	0
 5884 06ab 00000000 		.4byte	0
 5885              	.LLST45:
 5886 06af 2C020000 		.4byte	.LVL67
 5887 06b3 3C020000 		.4byte	.LVL68
 5888 06b7 0300     		.2byte	0x3
 5889 06b9 91       		.byte	0x91
 5890 06ba B47E     		.sleb128 -204
 5891 06bc 00000000 		.4byte	0
 5892 06c0 00000000 		.4byte	0
 5893              	.LLST46:
 5894 06c4 CA020000 		.4byte	.LVL82
 5895 06c8 AE050000 		.4byte	.LVL137
 5896 06cc 0300     		.2byte	0x3
 5897 06ce 91       		.byte	0x91
 5898 06cf 9C7E     		.sleb128 -228
 5899 06d1 00000000 		.4byte	0
 5900 06d5 00000000 		.4byte	0
 5901              	.LLST47:
 5902 06d9 CC020000 		.4byte	.LVL83
 5903 06dd E4020000 		.4byte	.LVL85
 5904 06e1 0200     		.2byte	0x2
 5905 06e3 30       		.byte	0x30
 5906 06e4 9F       		.byte	0x9f
 5907 06e5 E4020000 		.4byte	.LVL85
 5908 06e9 E6020000 		.4byte	.LVL86
 5909 06ed 0100     		.2byte	0x1
 5910 06ef 50       		.byte	0x50
 5911 06f0 E6020000 		.4byte	.LVL86
 5912 06f4 F0020000 		.4byte	.LVL87
 5913 06f8 0200     		.2byte	0x2
 5914 06fa 30       		.byte	0x30
 5915 06fb 9F       		.byte	0x9f
 5916 06fc F0020000 		.4byte	.LVL87
 5917 0700 66030000 		.4byte	.LVL101
 5918 0704 0300     		.2byte	0x3
 5919 0706 91       		.byte	0x91
 5920 0707 947E     		.sleb128 -236
 5921 0709 B8030000 		.4byte	.LVL111
 5922 070d 4E040000 		.4byte	.LVL123
 5923 0711 0300     		.2byte	0x3
 5924 0713 91       		.byte	0x91
 5925 0714 947E     		.sleb128 -236
 5926 0716 00000000 		.4byte	0
 5927 071a 00000000 		.4byte	0
 5928              	.LLST48:
 5929 071e 66030000 		.4byte	.LVL101
 5930 0722 6D030000 		.4byte	.LVL102-1
 5931 0726 0100     		.2byte	0x1
 5932 0728 53       		.byte	0x53
 5933 0729 6D030000 		.4byte	.LVL102-1
 5934 072d B8030000 		.4byte	.LVL111
 5935 0731 0300     		.2byte	0x3
 5936 0733 91       		.byte	0x91
 5937 0734 947E     		.sleb128 -236
 5938 0736 00000000 		.4byte	0
ARM GAS  C:\Users\haske\AppData\Local\Temp\ccmIjDGo.s 			page 136


 5939 073a 00000000 		.4byte	0
 5940              	.LLST49:
 5941 073e 7A030000 		.4byte	.LVL104
 5942 0742 96030000 		.4byte	.LVL109
 5943 0746 0100     		.2byte	0x1
 5944 0748 54       		.byte	0x54
 5945 0749 00000000 		.4byte	0
 5946 074d 00000000 		.4byte	0
 5947              	.LLST50:
 5948 0751 8E030000 		.4byte	.LVL108
 5949 0755 B8030000 		.4byte	.LVL111
 5950 0759 0100     		.2byte	0x1
 5951 075b 50       		.byte	0x50
 5952 075c 00000000 		.4byte	0
 5953 0760 00000000 		.4byte	0
 5954              	.LLST51:
 5955 0764 38030000 		.4byte	.LVL92
 5956 0768 3E030000 		.4byte	.LVL94
 5957 076c 0200     		.2byte	0x2
 5958 076e 36       		.byte	0x36
 5959 076f 9F       		.byte	0x9f
 5960 0770 3E030000 		.4byte	.LVL94
 5961 0774 4C030000 		.4byte	.LVL98
 5962 0778 0100     		.2byte	0x1
 5963 077a 53       		.byte	0x53
 5964 077b 00000000 		.4byte	0
 5965 077f 00000000 		.4byte	0
 5966              	.LLST52:
 5967 0783 38030000 		.4byte	.LVL92
 5968 0787 3E030000 		.4byte	.LVL94
 5969 078b 0100     		.2byte	0x1
 5970 078d 51       		.byte	0x51
 5971 078e 3E030000 		.4byte	.LVL94
 5972 0792 4C030000 		.4byte	.LVL98
 5973 0796 0A00     		.2byte	0xa
 5974 0798 91       		.byte	0x91
 5975 0799 9C7E     		.sleb128 -228
 5976 079b 06       		.byte	0x6
 5977 079c 91       		.byte	0x91
 5978 079d BC7E     		.sleb128 -196
 5979 079f 06       		.byte	0x6
 5980 07a0 22       		.byte	0x22
 5981 07a1 9F       		.byte	0x9f
 5982 07a2 00000000 		.4byte	0
 5983 07a6 00000000 		.4byte	0
 5984              	.LLST53:
 5985 07aa 38030000 		.4byte	.LVL92
 5986 07ae 3A030000 		.4byte	.LVL93
 5987 07b2 0400     		.2byte	0x4
 5988 07b4 91       		.byte	0x91
 5989 07b5 DC7E     		.sleb128 -164
 5990 07b7 9F       		.byte	0x9f
 5991 07b8 3A030000 		.4byte	.LVL93
 5992 07bc 3E030000 		.4byte	.LVL94
 5993 07c0 0100     		.2byte	0x1
 5994 07c2 52       		.byte	0x52
 5995 07c3 3E030000 		.4byte	.LVL94
ARM GAS  C:\Users\haske\AppData\Local\Temp\ccmIjDGo.s 			page 137


 5996 07c7 4C030000 		.4byte	.LVL98
 5997 07cb 0400     		.2byte	0x4
 5998 07cd 91       		.byte	0x91
 5999 07ce DC7E     		.sleb128 -164
 6000 07d0 9F       		.byte	0x9f
 6001 07d1 00000000 		.4byte	0
 6002 07d5 00000000 		.4byte	0
 6003              	.LLST54:
 6004 07d9 38030000 		.4byte	.LVL92
 6005 07dd 3A030000 		.4byte	.LVL93
 6006 07e1 0400     		.2byte	0x4
 6007 07e3 91       		.byte	0x91
 6008 07e4 DC7E     		.sleb128 -164
 6009 07e6 9F       		.byte	0x9f
 6010 07e7 3A030000 		.4byte	.LVL93
 6011 07eb 57030000 		.4byte	.LVL99-1
 6012 07ef 0100     		.2byte	0x1
 6013 07f1 52       		.byte	0x52
 6014 07f2 00000000 		.4byte	0
 6015 07f6 00000000 		.4byte	0
 6016              	.LLST55:
 6017 07fa 38030000 		.4byte	.LVL92
 6018 07fe 42030000 		.4byte	.LVL95
 6019 0802 0100     		.2byte	0x1
 6020 0804 51       		.byte	0x51
 6021 0805 42030000 		.4byte	.LVL95
 6022 0809 46030000 		.4byte	.LVL96
 6023 080d 0300     		.2byte	0x3
 6024 080f 71       		.byte	0x71
 6025 0810 7F       		.sleb128 -1
 6026 0811 9F       		.byte	0x9f
 6027 0812 46030000 		.4byte	.LVL96
 6028 0816 57030000 		.4byte	.LVL99-1
 6029 081a 0100     		.2byte	0x1
 6030 081c 51       		.byte	0x51
 6031 081d 00000000 		.4byte	0
 6032 0821 00000000 		.4byte	0
 6033              	.LLST56:
 6034 0825 8E030000 		.4byte	.LVL108
 6035 0829 B4030000 		.4byte	.LVL110
 6036 082d 0100     		.2byte	0x1
 6037 082f 50       		.byte	0x50
 6038 0830 00000000 		.4byte	0
 6039 0834 00000000 		.4byte	0
 6040              	.LLST57:
 6041 0838 8E030000 		.4byte	.LVL108
 6042 083c 96030000 		.4byte	.LVL109
 6043 0840 0100     		.2byte	0x1
 6044 0842 54       		.byte	0x54
 6045 0843 00000000 		.4byte	0
 6046 0847 00000000 		.4byte	0
 6047              	.LLST58:
 6048 084b 8E030000 		.4byte	.LVL108
 6049 084f B4030000 		.4byte	.LVL110
 6050 0853 0300     		.2byte	0x3
 6051 0855 91       		.byte	0x91
 6052 0856 947E     		.sleb128 -236
ARM GAS  C:\Users\haske\AppData\Local\Temp\ccmIjDGo.s 			page 138


 6053 0858 00000000 		.4byte	0
 6054 085c 00000000 		.4byte	0
 6055              	.LLST59:
 6056 0860 38050000 		.4byte	.LVL130
 6057 0864 48050000 		.4byte	.LVL131
 6058 0868 0300     		.2byte	0x3
 6059 086a 91       		.byte	0x91
 6060 086b B47E     		.sleb128 -204
 6061 086d 00000000 		.4byte	0
 6062 0871 00000000 		.4byte	0
 6063              	.LLST60:
 6064 0875 74050000 		.4byte	.LVL133
 6065 0879 84050000 		.4byte	.LVL134
 6066 087d 0300     		.2byte	0x3
 6067 087f 91       		.byte	0x91
 6068 0880 B47E     		.sleb128 -204
 6069 0882 00000000 		.4byte	0
 6070 0886 00000000 		.4byte	0
 6071              		.section	.debug_aranges,"",%progbits
 6072 0000 34000000 		.4byte	0x34
 6073 0004 0200     		.2byte	0x2
 6074 0006 00000000 		.4byte	.Ldebug_info0
 6075 000a 04       		.byte	0x4
 6076 000b 00       		.byte	0
 6077 000c 0000     		.2byte	0
 6078 000e 0000     		.2byte	0
 6079 0010 00000000 		.4byte	.LFB162
 6080 0014 3E000000 		.4byte	.LFE162-.LFB162
 6081 0018 00000000 		.4byte	.LFB159
 6082 001c 38000000 		.4byte	.LFE159-.LFB159
 6083 0020 00000000 		.4byte	.LFB161
 6084 0024 08000000 		.4byte	.LFE161-.LFB161
 6085 0028 00000000 		.4byte	.LFB160
 6086 002c CC050000 		.4byte	.LFE160-.LFB160
 6087 0030 00000000 		.4byte	0
 6088 0034 00000000 		.4byte	0
 6089              		.section	.debug_ranges,"",%progbits
 6090              	.Ldebug_ranges0:
 6091 0000 38030000 		.4byte	.LBB66
 6092 0004 3A030000 		.4byte	.LBE66
 6093 0008 3E030000 		.4byte	.LBB69
 6094 000c 4C030000 		.4byte	.LBE69
 6095 0010 00000000 		.4byte	0
 6096 0014 00000000 		.4byte	0
 6097 0018 00000000 		.4byte	.LFB162
 6098 001c 3E000000 		.4byte	.LFE162
 6099 0020 00000000 		.4byte	.LFB159
 6100 0024 38000000 		.4byte	.LFE159
 6101 0028 00000000 		.4byte	.LFB161
 6102 002c 08000000 		.4byte	.LFE161
 6103 0030 00000000 		.4byte	.LFB160
 6104 0034 CC050000 		.4byte	.LFE160
 6105 0038 00000000 		.4byte	0
 6106 003c 00000000 		.4byte	0
 6107              		.section	.debug_line,"",%progbits
 6108              	.Ldebug_line0:
 6109 0000 9E050000 		.section	.debug_str,"MS",%progbits,1
ARM GAS  C:\Users\haske\AppData\Local\Temp\ccmIjDGo.s 			page 139


 6109      0200A903 
 6109      00000201 
 6109      FB0E0D00 
 6109      01010101 
 6110              	.LASF15:
 6111 0000 696E7438 		.ascii	"int8_t\000"
 6111      5F7400
 6112              	.LASF21:
 6113 0007 73697A65 		.ascii	"size_t\000"
 6113      5F7400
 6114              	.LASF27:
 6115 000e 6164765F 		.ascii	"adv_w\000"
 6115      7700
 6116              	.LASF46:
 6117 0014 73697A65 		.ascii	"sizetype\000"
 6117      74797065 
 6117      00
 6118              	.LASF96:
 6119 001d 4C565F54 		.ascii	"LV_TEXT_ALIGN_RIGHT\000"
 6119      4558545F 
 6119      414C4947 
 6119      4E5F5249 
 6119      47485400 
 6120              	.LASF225:
 6121 0031 6C765F66 		.ascii	"lv_font_get_line_height\000"
 6121      6F6E745F 
 6121      6765745F 
 6121      6C696E65 
 6121      5F686569 
 6122              	.LASF208:
 6123 0049 64726177 		.ascii	"draw_bg\000"
 6123      5F626700 
 6124              	.LASF162:
 6125 0051 636F6F72 		.ascii	"coord_y\000"
 6125      645F7900 
 6126              	.LASF66:
 6127 0059 6C765F6F 		.ascii	"lv_opa_t\000"
 6127      70615F74 
 6127      00
 6128              	.LASF177:
 6129 0062 7261775F 		.ascii	"raw_end\000"
 6129      656E6400 
 6130              	.LASF19:
 6131 006a 696E7433 		.ascii	"int32_t\000"
 6131      325F7400 
 6132              	.LASF24:
 6133 0072 6C765F70 		.ascii	"lv_point_t\000"
 6133      6F696E74 
 6133      5F7400
 6134              	.LASF120:
 6135 007d 72616469 		.ascii	"radius\000"
 6135      757300
 6136              	.LASF123:
 6137 0084 62675F63 		.ascii	"bg_color\000"
 6137      6F6C6F72 
 6137      00
 6138              	.LASF35:
ARM GAS  C:\Users\haske\AppData\Local\Temp\ccmIjDGo.s 			page 140


 6139 008d 6C696E65 		.ascii	"line_height\000"
 6139      5F686569 
 6139      67687400 
 6140              	.LASF104:
 6141 0099 6C765F62 		.ascii	"lv_blend_mode_t\000"
 6141      6C656E64 
 6141      5F6D6F64 
 6141      655F7400 
 6142              	.LASF154:
 6143 00a9 62696469 		.ascii	"bidi_dir\000"
 6143      5F646972 
 6143      00
 6144              	.LASF219:
 6145 00b2 434D445F 		.ascii	"CMD_STATE_IN\000"
 6145      53544154 
 6145      455F494E 
 6145      00
 6146              	.LASF251:
 6147 00bf 706F735F 		.ascii	"pos_x_start\000"
 6147      785F7374 
 6147      61727400 
 6148              	.LASF185:
 6149 00cb 4C565F44 		.ascii	"LV_DRAW_LAYER_FLAG_HAS_ALPHA\000"
 6149      5241575F 
 6149      4C415945 
 6149      525F464C 
 6149      41475F48 
 6150              	.LASF165:
 6151 00e8 7A6F6F6D 		.ascii	"zoom\000"
 6151      00
 6152              	.LASF200:
 6153 00ed 64726177 		.ascii	"draw_rect\000"
 6153      5F726563 
 6153      7400
 6154              	.LASF199:
 6155 00f7 696E6974 		.ascii	"init_buf\000"
 6155      5F627566 
 6155      00
 6156              	.LASF182:
 6157 0100 726F756E 		.ascii	"rounded\000"
 6157      64656400 
 6158              	.LASF198:
 6159 0108 5F6C765F 		.ascii	"_lv_draw_ctx_t\000"
 6159      64726177 
 6159      5F637478 
 6159      5F7400
 6160              	.LASF83:
 6161 0117 4C565F50 		.ascii	"LV_PALETTE_BROWN\000"
 6161      414C4554 
 6161      54455F42 
 6161      524F574E 
 6161      00
 6162              	.LASF125:
 6163 0128 62675F69 		.ascii	"bg_img_src\000"
 6163      6D675F73 
 6163      726300
 6164              	.LASF255:
ARM GAS  C:\Users\haske\AppData\Local\Temp\ccmIjDGo.s 			page 141


 6165 0133 73656C5F 		.ascii	"sel_coords\000"
 6165      636F6F72 
 6165      647300
 6166              	.LASF151:
 6167 013e 73656C5F 		.ascii	"sel_bg_color\000"
 6167      62675F63 
 6167      6F6C6F72 
 6167      00
 6168              	.LASF87:
 6169 014b 4C565F50 		.ascii	"LV_PALETTE_NONE\000"
 6169      414C4554 
 6169      54455F4E 
 6169      4F4E4500 
 6170              	.LASF250:
 6171 015b 64726177 		.ascii	"draw_dsc_sel\000"
 6171      5F647363 
 6171      5F73656C 
 6171      00
 6172              	.LASF88:
 6173 0168 4C565F54 		.ascii	"LV_TEXT_FLAG_NONE\000"
 6173      4558545F 
 6173      464C4147 
 6173      5F4E4F4E 
 6173      4500
 6174              	.LASF257:
 6175 017a 5F6C765F 		.ascii	"_lv_txt_encoded_get_char_id\000"
 6175      7478745F 
 6175      656E636F 
 6175      6465645F 
 6175      6765745F 
 6176              	.LASF135:
 6177 0196 626F7264 		.ascii	"border_side\000"
 6177      65725F73 
 6177      69646500 
 6178              	.LASF1:
 6179 01a2 5F5F7569 		.ascii	"__uint8_t\000"
 6179      6E74385F 
 6179      7400
 6180              	.LASF121:
 6181 01ac 626C656E 		.ascii	"blend_mode\000"
 6181      645F6D6F 
 6181      646500
 6182              	.LASF236:
 6183 01b7 72657375 		.ascii	"result\000"
 6183      6C7400
 6184              	.LASF9:
 6185 01be 6C6F6E67 		.ascii	"long int\000"
 6185      20696E74 
 6185      00
 6186              	.LASF74:
 6187 01c7 4C565F50 		.ascii	"LV_PALETTE_CYAN\000"
 6187      414C4554 
 6187      54455F43 
 6187      59414E00 
 6188              	.LASF260:
 6189 01d7 6C765F74 		.ascii	"lv_txt_get_size\000"
 6189      78745F67 
ARM GAS  C:\Users\haske\AppData\Local\Temp\ccmIjDGo.s 			page 142


 6189      65745F73 
 6189      697A6500 
 6190              	.LASF122:
 6191 01e7 62675F6F 		.ascii	"bg_opa\000"
 6191      706100
 6192              	.LASF158:
 6193 01ee 6C765F64 		.ascii	"lv_draw_label_dsc_t\000"
 6193      7261775F 
 6193      6C616265 
 6193      6C5F6473 
 6193      635F7400 
 6194              	.LASF99:
 6195 0202 4C565F42 		.ascii	"LV_BASE_DIR_RTL\000"
 6195      4153455F 
 6195      4449525F 
 6195      52544C00 
 6196              	.LASF73:
 6197 0212 4C565F50 		.ascii	"LV_PALETTE_LIGHT_BLUE\000"
 6197      414C4554 
 6197      54455F4C 
 6197      49474854 
 6197      5F424C55 
 6198              	.LASF224:
 6199 0228 61726561 		.ascii	"area_p\000"
 6199      5F7000
 6200              	.LASF94:
 6201 022f 4C565F54 		.ascii	"LV_TEXT_ALIGN_LEFT\000"
 6201      4558545F 
 6201      414C4947 
 6201      4E5F4C45 
 6201      465400
 6202              	.LASF81:
 6203 0242 4C565F50 		.ascii	"LV_PALETTE_ORANGE\000"
 6203      414C4554 
 6203      54455F4F 
 6203      52414E47 
 6203      4500
 6204              	.LASF210:
 6205 0254 62756666 		.ascii	"buffer_copy\000"
 6205      65725F63 
 6205      6F707900 
 6206              	.LASF136:
 6207 0260 6F75746C 		.ascii	"outline_color\000"
 6207      696E655F 
 6207      636F6C6F 
 6207      7200
 6208              	.LASF244:
 6209 026e 6C617374 		.ascii	"last_line_start\000"
 6209      5F6C696E 
 6209      655F7374 
 6209      61727400 
 6210              	.LASF91:
 6211 027e 4C565F54 		.ascii	"LV_TEXT_FLAG_FIT\000"
 6211      4558545F 
 6211      464C4147 
 6211      5F464954 
 6211      00
ARM GAS  C:\Users\haske\AppData\Local\Temp\ccmIjDGo.s 			page 143


 6212              	.LASF275:
 6213 028f 6865785F 		.ascii	"hex_char_to_num\000"
 6213      63686172 
 6213      5F746F5F 
 6213      6E756D00 
 6214              	.LASF2:
 6215 029f 7369676E 		.ascii	"signed char\000"
 6215      65642063 
 6215      68617200 
 6216              	.LASF16:
 6217 02ab 75696E74 		.ascii	"uint8_t\000"
 6217      385F7400 
 6218              	.LASF205:
 6219 02b3 64726177 		.ascii	"draw_line\000"
 6219      5F6C696E 
 6219      6500
 6220              	.LASF130:
 6221 02bd 62675F69 		.ascii	"bg_img_tiled\000"
 6221      6D675F74 
 6221      696C6564 
 6221      00
 6222              	.LASF262:
 6223 02ca 5F6C765F 		.ascii	"_lv_txt_encoded_letter_next_2\000"
 6223      7478745F 
 6223      656E636F 
 6223      6465645F 
 6223      6C657474 
 6224              	.LASF34:
 6225 02e8 6765745F 		.ascii	"get_glyph_bitmap\000"
 6225      676C7970 
 6225      685F6269 
 6225      746D6170 
 6225      00
 6226              	.LASF180:
 6227 02f9 656E645F 		.ascii	"end_angle\000"
 6227      616E676C 
 6227      6500
 6228              	.LASF61:
 6229 0303 626C7565 		.ascii	"blue\000"
 6229      00
 6230              	.LASF128:
 6231 0308 62675F69 		.ascii	"bg_img_opa\000"
 6231      6D675F6F 
 6231      706100
 6232              	.LASF3:
 6233 0313 756E7369 		.ascii	"unsigned char\000"
 6233      676E6564 
 6233      20636861 
 6233      7200
 6234              	.LASF218:
 6235 0321 434D445F 		.ascii	"CMD_STATE_PAR\000"
 6235      53544154 
 6235      455F5041 
 6235      5200
 6236              	.LASF178:
 6237 032f 6C765F64 		.ascii	"lv_draw_line_dsc_t\000"
 6237      7261775F 
ARM GAS  C:\Users\haske\AppData\Local\Temp\ccmIjDGo.s 			page 144


 6237      6C696E65 
 6237      5F647363 
 6237      5F7400
 6238              	.LASF193:
 6239 0342 61726561 		.ascii	"area_act\000"
 6239      5F616374 
 6239      00
 6240              	.LASF102:
 6241 034b 4C565F42 		.ascii	"LV_BASE_DIR_WEAK\000"
 6241      4153455F 
 6241      4449525F 
 6241      5745414B 
 6241      00
 6242              	.LASF30:
 6243 035c 6F66735F 		.ascii	"ofs_x\000"
 6243      7800
 6244              	.LASF31:
 6245 0362 6F66735F 		.ascii	"ofs_y\000"
 6245      7900
 6246              	.LASF103:
 6247 0368 6C765F62 		.ascii	"lv_base_dir_t\000"
 6247      6173655F 
 6247      6469725F 
 6247      7400
 6248              	.LASF43:
 6249 0376 5F426F6F 		.ascii	"_Bool\000"
 6249      6C00
 6250              	.LASF196:
 6251 037c 6F726967 		.ascii	"original\000"
 6251      696E616C 
 6251      00
 6252              	.LASF258:
 6253 0385 6C765F6D 		.ascii	"lv_memset_00\000"
 6253      656D7365 
 6253      745F3030 
 6253      00
 6254              	.LASF187:
 6255 0392 6C765F64 		.ascii	"lv_draw_layer_flags_t\000"
 6255      7261775F 
 6255      6C617965 
 6255      725F666C 
 6255      6167735F 
 6256              	.LASF47:
 6257 03a8 63686172 		.ascii	"char\000"
 6257      00
 6258              	.LASF171:
 6259 03ad 6C765F64 		.ascii	"lv_draw_img_dsc_t\000"
 6259      7261775F 
 6259      696D675F 
 6259      6473635F 
 6259      7400
 6260              	.LASF38:
 6261 03bf 756E6465 		.ascii	"underline_position\000"
 6261      726C696E 
 6261      655F706F 
 6261      73697469 
 6261      6F6E00
ARM GAS  C:\Users\haske\AppData\Local\Temp\ccmIjDGo.s 			page 145


 6262              	.LASF86:
 6263 03d2 5F4C565F 		.ascii	"_LV_PALETTE_LAST\000"
 6263      50414C45 
 6263      5454455F 
 6263      4C415354 
 6263      00
 6264              	.LASF174:
 6265 03e3 64617368 		.ascii	"dash_gap\000"
 6265      5F676170 
 6265      00
 6266              	.LASF207:
 6267 03ec 64726177 		.ascii	"draw_transform\000"
 6267      5F747261 
 6267      6E73666F 
 6267      726D00
 6268              	.LASF116:
 6269 03fb 73746F70 		.ascii	"stops_count\000"
 6269      735F636F 
 6269      756E7400 
 6270              	.LASF6:
 6271 0407 5F5F7569 		.ascii	"__uint16_t\000"
 6271      6E743136 
 6271      5F7400
 6272              	.LASF239:
 6273 0412 636C6970 		.ascii	"clip_ok\000"
 6273      5F6F6B00 
 6274              	.LASF161:
 6275 041a 6C696E65 		.ascii	"line_start\000"
 6275      5F737461 
 6275      727400
 6276              	.LASF138:
 6277 0425 6F75746C 		.ascii	"outline_pad\000"
 6277      696E655F 
 6277      70616400 
 6278              	.LASF216:
 6279 0431 6C765F64 		.ascii	"lv_draw_ctx_t\000"
 6279      7261775F 
 6279      6374785F 
 6279      7400
 6280              	.LASF238:
 6281 043f 636C6970 		.ascii	"clipped_area\000"
 6281      7065645F 
 6281      61726561 
 6281      00
 6282              	.LASF93:
 6283 044c 4C565F54 		.ascii	"LV_TEXT_ALIGN_AUTO\000"
 6283      4558545F 
 6283      414C4947 
 6283      4E5F4155 
 6283      544F00
 6284              	.LASF131:
 6285 045f 626F7264 		.ascii	"border_color\000"
 6285      65725F63 
 6285      6F6C6F72 
 6285      00
 6286              	.LASF271:
 6287 046c 2E2E5C2E 		.ascii	"..\\..\\..\\arduinoLCD\\test\\Pain Drain\\libraries"
ARM GAS  C:\Users\haske\AppData\Local\Temp\ccmIjDGo.s 			page 146


 6287      2E5C2E2E 
 6287      5C617264 
 6287      75696E6F 
 6287      4C43445C 
 6288 0499 5C6C7667 		.ascii	"\\lvgl\\src\\draw\\lv_draw_label.c\000"
 6288      6C5C7372 
 6288      635C6472 
 6288      61775C6C 
 6288      765F6472 
 6289              	.LASF134:
 6290 04b8 626F7264 		.ascii	"border_post\000"
 6290      65725F70 
 6290      6F737400 
 6291              	.LASF175:
 6292 04c4 726F756E 		.ascii	"round_start\000"
 6292      645F7374 
 6292      61727400 
 6293              	.LASF40:
 6294 04d0 66616C6C 		.ascii	"fallback\000"
 6294      6261636B 
 6294      00
 6295              	.LASF267:
 6296 04d9 5F6C765F 		.ascii	"_lv_area_intersect\000"
 6296      61726561 
 6296      5F696E74 
 6296      65727365 
 6296      637400
 6297              	.LASF82:
 6298 04ec 4C565F50 		.ascii	"LV_PALETTE_DEEP_ORANGE\000"
 6298      414C4554 
 6298      54455F44 
 6298      4545505F 
 6298      4F52414E 
 6299              	.LASF25:
 6300 0503 6C765F61 		.ascii	"lv_area_t\000"
 6300      7265615F 
 6300      7400
 6301              	.LASF211:
 6302 050d 6C617965 		.ascii	"layer_init\000"
 6302      725F696E 
 6302      697400
 6303              	.LASF176:
 6304 0518 726F756E 		.ascii	"round_end\000"
 6304      645F656E 
 6304      6400
 6305              	.LASF181:
 6306 0522 696D675F 		.ascii	"img_src\000"
 6306      73726300 
 6307              	.LASF269:
 6308 052a 6C765F64 		.ascii	"lv_draw_rect_dsc_init\000"
 6308      7261775F 
 6308      72656374 
 6308      5F647363 
 6308      5F696E69 
 6309              	.LASF144:
 6310 0540 73686164 		.ascii	"shadow_spread\000"
 6310      6F775F73 
ARM GAS  C:\Users\haske\AppData\Local\Temp\ccmIjDGo.s 			page 147


 6310      70726561 
 6310      6400
 6311              	.LASF268:
 6312 054e 6C765F64 		.ascii	"lv_draw_line_dsc_init\000"
 6312      7261775F 
 6312      6C696E65 
 6312      5F647363 
 6312      5F696E69 
 6313              	.LASF126:
 6314 0564 62675F69 		.ascii	"bg_img_symbol_font\000"
 6314      6D675F73 
 6314      796D626F 
 6314      6C5F666F 
 6314      6E7400
 6315              	.LASF163:
 6316 0577 6C765F64 		.ascii	"lv_draw_label_hint_t\000"
 6316      7261775F 
 6316      6C616265 
 6316      6C5F6869 
 6316      6E745F74 
 6317              	.LASF84:
 6318 058c 4C565F50 		.ascii	"LV_PALETTE_BLUE_GREY\000"
 6318      414C4554 
 6318      54455F42 
 6318      4C55455F 
 6318      47524559 
 6319              	.LASF11:
 6320 05a1 6C6F6E67 		.ascii	"long unsigned int\000"
 6320      20756E73 
 6320      69676E65 
 6320      6420696E 
 6320      7400
 6321              	.LASF119:
 6322 05b3 6C765F69 		.ascii	"lv_img_cf_t\000"
 6322      6D675F63 
 6322      665F7400 
 6323              	.LASF179:
 6324 05bf 73746172 		.ascii	"start_angle\000"
 6324      745F616E 
 6324      676C6500 
 6325              	.LASF235:
 6326 05cb 68696E74 		.ascii	"hint\000"
 6326      00
 6327              	.LASF214:
 6328 05d0 6C617965 		.ascii	"layer_destroy\000"
 6328      725F6465 
 6328      7374726F 
 6328      7900
 6329              	.LASF242:
 6330 05de 785F6F66 		.ascii	"x_ofs\000"
 6330      7300
 6331              	.LASF173:
 6332 05e4 64617368 		.ascii	"dash_width\000"
 6332      5F776964 
 6332      746800
 6333              	.LASF67:
 6334 05ef 4C565F50 		.ascii	"LV_PALETTE_RED\000"
ARM GAS  C:\Users\haske\AppData\Local\Temp\ccmIjDGo.s 			page 148


 6334      414C4554 
 6334      54455F52 
 6334      454400
 6335              	.LASF247:
 6336 05fe 636D645F 		.ascii	"cmd_state\000"
 6336      73746174 
 6336      6500
 6337              	.LASF26:
 6338 0608 7265736F 		.ascii	"resolved_font\000"
 6338      6C766564 
 6338      5F666F6E 
 6338      7400
 6339              	.LASF201:
 6340 0616 64726177 		.ascii	"draw_arc\000"
 6340      5F617263 
 6340      00
 6341              	.LASF95:
 6342 061f 4C565F54 		.ascii	"LV_TEXT_ALIGN_CENTER\000"
 6342      4558545F 
 6342      414C4947 
 6342      4E5F4345 
 6342      4E544552 
 6343              	.LASF270:
 6344 0634 474E5520 		.ascii	"GNU C11 5.4.1 20160609 (release) [ARM/embedded-5-br"
 6344      43313120 
 6344      352E342E 
 6344      31203230 
 6344      31363036 
 6345 0667 616E6368 		.ascii	"anch revision 237715] -mcpu=cortex-m4 -mfloat-abi=s"
 6345      20726576 
 6345      6973696F 
 6345      6E203233 
 6345      37373135 
 6346 069a 6F667466 		.ascii	"oftfp -mfpu=fpv4-sp-d16 -mthumb -g -Og -ffunction-s"
 6346      70202D6D 
 6346      6670753D 
 6346      66707634 
 6346      2D73702D 
 6347 06cd 65637469 		.ascii	"ections -ffat-lto-objects\000"
 6347      6F6E7320 
 6347      2D666661 
 6347      742D6C74 
 6347      6F2D6F62 
 6348              	.LASF49:
 6349 06e7 4C565F4F 		.ascii	"LV_OPA_0\000"
 6349      50415F30 
 6349      00
 6350              	.LASF189:
 6351 06f0 6275665F 		.ascii	"buf_area\000"
 6351      61726561 
 6351      00
 6352              	.LASF167:
 6353 06f9 7265636F 		.ascii	"recolor\000"
 6353      6C6F7200 
 6354              	.LASF233:
 6355 0701 6C765F64 		.ascii	"lv_draw_label\000"
 6355      7261775F 
ARM GAS  C:\Users\haske\AppData\Local\Temp\ccmIjDGo.s 			page 149


 6355      6C616265 
 6355      6C00
 6356              	.LASF164:
 6357 070f 616E676C 		.ascii	"angle\000"
 6357      6500
 6358              	.LASF237:
 6359 0715 6473635F 		.ascii	"dsc_mod\000"
 6359      6D6F6400 
 6360              	.LASF202:
 6361 071d 64726177 		.ascii	"draw_img_decoded\000"
 6361      5F696D67 
 6361      5F646563 
 6361      6F646564 
 6361      00
 6362              	.LASF77:
 6363 072e 4C565F50 		.ascii	"LV_PALETTE_LIGHT_GREEN\000"
 6363      414C4554 
 6363      54455F4C 
 6363      49474854 
 6363      5F475245 
 6364              	.LASF266:
 6365 0745 6C765F74 		.ascii	"lv_txt_get_width\000"
 6365      78745F67 
 6365      65745F77 
 6365      69647468 
 6365      00
 6366              	.LASF159:
 6367 0756 5F6C765F 		.ascii	"_lv_font_t\000"
 6367      666F6E74 
 6367      5F7400
 6368              	.LASF10:
 6369 0761 5F5F7569 		.ascii	"__uint32_t\000"
 6369      6E743332 
 6369      5F7400
 6370              	.LASF69:
 6371 076c 4C565F50 		.ascii	"LV_PALETTE_PURPLE\000"
 6371      414C4554 
 6371      54455F50 
 6371      5552504C 
 6371      4500
 6372              	.LASF108:
 6373 077e 6C765F74 		.ascii	"lv_text_decor_t\000"
 6373      6578745F 
 6373      6465636F 
 6373      725F7400 
 6374              	.LASF12:
 6375 078e 6C6F6E67 		.ascii	"long long int\000"
 6375      206C6F6E 
 6375      6720696E 
 6375      7400
 6376              	.LASF106:
 6377 079c 4C565F54 		.ascii	"LV_TEXT_DECOR_UNDERLINE\000"
 6377      4558545F 
 6377      4445434F 
 6377      525F554E 
 6377      4445524C 
 6378              	.LASF140:
ARM GAS  C:\Users\haske\AppData\Local\Temp\ccmIjDGo.s 			page 150


 6379 07b4 73686164 		.ascii	"shadow_color\000"
 6379      6F775F63 
 6379      6F6C6F72 
 6379      00
 6380              	.LASF172:
 6381 07c1 77696474 		.ascii	"width\000"
 6381      6800
 6382              	.LASF273:
 6383 07c7 6C765F63 		.ascii	"lv_color_black\000"
 6383      6F6C6F72 
 6383      5F626C61 
 6383      636B00
 6384              	.LASF80:
 6385 07d6 4C565F50 		.ascii	"LV_PALETTE_AMBER\000"
 6385      414C4554 
 6385      54455F41 
 6385      4D424552 
 6385      00
 6386              	.LASF209:
 6387 07e7 77616974 		.ascii	"wait_for_finish\000"
 6387      5F666F72 
 6387      5F66696E 
 6387      69736800 
 6388              	.LASF184:
 6389 07f7 4C565F44 		.ascii	"LV_DRAW_LAYER_FLAG_NONE\000"
 6389      5241575F 
 6389      4C415945 
 6389      525F464C 
 6389      41475F4E 
 6390              	.LASF97:
 6391 080f 6C765F74 		.ascii	"lv_text_align_t\000"
 6391      6578745F 
 6391      616C6967 
 6391      6E5F7400 
 6392              	.LASF101:
 6393 081f 4C565F42 		.ascii	"LV_BASE_DIR_NEUTRAL\000"
 6393      4153455F 
 6393      4449525F 
 6393      4E455554 
 6393      52414C00 
 6394              	.LASF39:
 6395 0833 756E6465 		.ascii	"underline_thickness\000"
 6395      726C696E 
 6395      655F7468 
 6395      69636B6E 
 6395      65737300 
 6396              	.LASF155:
 6397 0847 616C6967 		.ascii	"align\000"
 6397      6E00
 6398              	.LASF48:
 6399 084d 4C565F4F 		.ascii	"LV_OPA_TRANSP\000"
 6399      50415F54 
 6399      52414E53 
 6399      5000
 6400              	.LASF204:
 6401 085b 64726177 		.ascii	"draw_letter\000"
 6401      5F6C6574 
ARM GAS  C:\Users\haske\AppData\Local\Temp\ccmIjDGo.s 			page 151


 6401      74657200 
 6402              	.LASF14:
 6403 0867 756E7369 		.ascii	"unsigned int\000"
 6403      676E6564 
 6403      20696E74 
 6403      00
 6404              	.LASF188:
 6405 0874 636C6970 		.ascii	"clip_area\000"
 6405      5F617265 
 6405      6100
 6406              	.LASF149:
 6407 087e 73656C5F 		.ascii	"sel_end\000"
 6407      656E6400 
 6408              	.LASF192:
 6409 0886 61726561 		.ascii	"area_full\000"
 6409      5F66756C 
 6409      6C00
 6410              	.LASF156:
 6411 0890 666C6167 		.ascii	"flag\000"
 6411      00
 6412              	.LASF191:
 6413 0895 5F6C765F 		.ascii	"_lv_draw_layer_ctx_t\000"
 6413      64726177 
 6413      5F6C6179 
 6413      65725F63 
 6413      74785F74 
 6414              	.LASF139:
 6415 08aa 6F75746C 		.ascii	"outline_opa\000"
 6415      696E655F 
 6415      6F706100 
 6416              	.LASF194:
 6417 08b6 6D61785F 		.ascii	"max_row_with_alpha\000"
 6417      726F775F 
 6417      77697468 
 6417      5F616C70 
 6417      686100
 6418              	.LASF169:
 6419 08c9 6672616D 		.ascii	"frame_id\000"
 6419      655F6964 
 6419      00
 6420              	.LASF168:
 6421 08d2 7265636F 		.ascii	"recolor_opa\000"
 6421      6C6F725F 
 6421      6F706100 
 6422              	.LASF42:
 6423 08de 6C765F66 		.ascii	"lv_font_glyph_dsc_t\000"
 6423      6F6E745F 
 6423      676C7970 
 6423      685F6473 
 6423      635F7400 
 6424              	.LASF137:
 6425 08f2 6F75746C 		.ascii	"outline_width\000"
 6425      696E655F 
 6425      77696474 
 6425      6800
 6426              	.LASF254:
 6427 0900 6C657474 		.ascii	"letter_next\000"
ARM GAS  C:\Users\haske\AppData\Local\Temp\ccmIjDGo.s 			page 152


 6427      65725F6E 
 6427      65787400 
 6428              	.LASF89:
 6429 090c 4C565F54 		.ascii	"LV_TEXT_FLAG_RECOLOR\000"
 6429      4558545F 
 6429      464C4147 
 6429      5F524543 
 6429      4F4C4F52 
 6430              	.LASF170:
 6431 0921 616E7469 		.ascii	"antialias\000"
 6431      616C6961 
 6431      7300
 6432              	.LASF59:
 6433 092b 4C565F4F 		.ascii	"LV_OPA_100\000"
 6433      50415F31 
 6433      303000
 6434              	.LASF231:
 6435 0936 706F735F 		.ascii	"pos_p\000"
 6435      7000
 6436              	.LASF45:
 6437 093c 6C765F72 		.ascii	"lv_res_t\000"
 6437      65735F74 
 6437      00
 6438              	.LASF22:
 6439 0945 6C6F6E67 		.ascii	"long double\000"
 6439      20646F75 
 6439      626C6500 
 6440              	.LASF111:
 6441 0951 6C765F64 		.ascii	"lv_dither_mode_t\000"
 6441      69746865 
 6441      725F6D6F 
 6441      64655F74 
 6441      00
 6442              	.LASF259:
 6443 0962 6C765F70 		.ascii	"lv_palette_main\000"
 6443      616C6574 
 6443      74655F6D 
 6443      61696E00 
 6444              	.LASF37:
 6445 0972 73756270 		.ascii	"subpx\000"
 6445      7800
 6446              	.LASF60:
 6447 0978 4C565F4F 		.ascii	"LV_OPA_COVER\000"
 6447      50415F43 
 6447      4F564552 
 6447      00
 6448              	.LASF227:
 6449 0985 6C765F6D 		.ascii	"lv_memcpy_small\000"
 6449      656D6370 
 6449      795F736D 
 6449      616C6C00 
 6450              	.LASF129:
 6451 0995 62675F69 		.ascii	"bg_img_recolor_opa\000"
 6451      6D675F72 
 6451      65636F6C 
 6451      6F725F6F 
 6451      706100
ARM GAS  C:\Users\haske\AppData\Local\Temp\ccmIjDGo.s 			page 153


 6452              	.LASF265:
 6453 09a8 5F6C765F 		.ascii	"_lv_txt_get_next_line\000"
 6453      7478745F 
 6453      6765745F 
 6453      6E657874 
 6453      5F6C696E 
 6454              	.LASF186:
 6455 09be 4C565F44 		.ascii	"LV_DRAW_LAYER_FLAG_CAN_SUBDIVIDE\000"
 6455      5241575F 
 6455      4C415945 
 6455      525F464C 
 6455      41475F43 
 6456              	.LASF220:
 6457 09df 636D645F 		.ascii	"cmd_state_t\000"
 6457      73746174 
 6457      655F7400 
 6458              	.LASF261:
 6459 09eb 6C765F64 		.ascii	"lv_draw_rect\000"
 6459      7261775F 
 6459      72656374 
 6459      00
 6460              	.LASF72:
 6461 09f8 4C565F50 		.ascii	"LV_PALETTE_BLUE\000"
 6461      414C4554 
 6461      54455F42 
 6461      4C554500 
 6462              	.LASF0:
 6463 0a08 5F5F696E 		.ascii	"__int8_t\000"
 6463      74385F74 
 6463      00
 6464              	.LASF195:
 6465 0a11 6D61785F 		.ascii	"max_row_with_no_alpha\000"
 6465      726F775F 
 6465      77697468 
 6465      5F6E6F5F 
 6465      616C7068 
 6466              	.LASF13:
 6467 0a27 6C6F6E67 		.ascii	"long long unsigned int\000"
 6467      206C6F6E 
 6467      6720756E 
 6467      7369676E 
 6467      65642069 
 6468              	.LASF118:
 6469 0a3e 6C765F67 		.ascii	"lv_grad_dsc_t\000"
 6469      7261645F 
 6469      6473635F 
 6469      7400
 6470              	.LASF146:
 6471 0a4c 6C765F64 		.ascii	"lv_draw_rect_dsc_t\000"
 6471      7261775F 
 6471      72656374 
 6471      5F647363 
 6471      5F7400
 6472              	.LASF18:
 6473 0a5f 75696E74 		.ascii	"uint16_t\000"
 6473      31365F74 
 6473      00
ARM GAS  C:\Users\haske\AppData\Local\Temp\ccmIjDGo.s 			page 154


 6474              	.LASF240:
 6475 0a68 6C696E65 		.ascii	"line_height_font\000"
 6475      5F686569 
 6475      6768745F 
 6475      666F6E74 
 6475      00
 6476              	.LASF75:
 6477 0a79 4C565F50 		.ascii	"LV_PALETTE_TEAL\000"
 6477      414C4554 
 6477      54455F54 
 6477      45414C00 
 6478              	.LASF65:
 6479 0a89 6C765F63 		.ascii	"lv_color_t\000"
 6479      6F6C6F72 
 6479      5F7400
 6480              	.LASF76:
 6481 0a94 4C565F50 		.ascii	"LV_PALETTE_GREEN\000"
 6481      414C4554 
 6481      54455F47 
 6481      5245454E 
 6481      00
 6482              	.LASF253:
 6483 0aa5 6C6F6769 		.ascii	"logical_char_pos\000"
 6483      63616C5F 
 6483      63686172 
 6483      5F706F73 
 6483      00
 6484              	.LASF132:
 6485 0ab6 626F7264 		.ascii	"border_width\000"
 6485      65725F77 
 6485      69647468 
 6485      00
 6486              	.LASF92:
 6487 0ac3 6C765F74 		.ascii	"lv_text_flag_t\000"
 6487      6578745F 
 6487      666C6167 
 6487      5F7400
 6488              	.LASF50:
 6489 0ad2 4C565F4F 		.ascii	"LV_OPA_10\000"
 6489      50415F31 
 6489      3000
 6490              	.LASF166:
 6491 0adc 7069766F 		.ascii	"pivot\000"
 6491      7400
 6492              	.LASF105:
 6493 0ae2 4C565F54 		.ascii	"LV_TEXT_DECOR_NONE\000"
 6493      4558545F 
 6493      4445434F 
 6493      525F4E4F 
 6493      4E4500
 6494              	.LASF226:
 6495 0af5 666F6E74 		.ascii	"font_p\000"
 6495      5F7000
 6496              	.LASF222:
 6497 0afc 6C765F63 		.ascii	"lv_color_make\000"
 6497      6F6C6F72 
 6497      5F6D616B 
ARM GAS  C:\Users\haske\AppData\Local\Temp\ccmIjDGo.s 			page 155


 6497      6500
 6498              	.LASF157:
 6499 0b0a 6465636F 		.ascii	"decor\000"
 6499      7200
 6500              	.LASF4:
 6501 0b10 5F5F696E 		.ascii	"__int16_t\000"
 6501      7431365F 
 6501      7400
 6502              	.LASF212:
 6503 0b1a 6C617965 		.ascii	"layer_adjust\000"
 6503      725F6164 
 6503      6A757374 
 6503      00
 6504              	.LASF79:
 6505 0b27 4C565F50 		.ascii	"LV_PALETTE_YELLOW\000"
 6505      414C4554 
 6505      54455F59 
 6505      454C4C4F 
 6505      5700
 6506              	.LASF63:
 6507 0b39 66756C6C 		.ascii	"full\000"
 6507      00
 6508              	.LASF197:
 6509 0b3e 6C765F64 		.ascii	"lv_draw_layer_ctx_t\000"
 6509      7261775F 
 6509      6C617965 
 6509      725F6374 
 6509      785F7400 
 6510              	.LASF51:
 6511 0b52 4C565F4F 		.ascii	"LV_OPA_20\000"
 6511      50415F32 
 6511      3000
 6512              	.LASF112:
 6513 0b5c 636F6C6F 		.ascii	"color\000"
 6513      7200
 6514              	.LASF107:
 6515 0b62 4C565F54 		.ascii	"LV_TEXT_DECOR_STRIKETHROUGH\000"
 6515      4558545F 
 6515      4445434F 
 6515      525F5354 
 6515      52494B45 
 6516              	.LASF115:
 6517 0b7e 73746F70 		.ascii	"stops\000"
 6517      7300
 6518              	.LASF152:
 6519 0b84 6C696E65 		.ascii	"line_space\000"
 6519      5F737061 
 6519      636500
 6520              	.LASF213:
 6521 0b8f 6C617965 		.ascii	"layer_blend\000"
 6521      725F626C 
 6521      656E6400 
 6522              	.LASF241:
 6523 0b9b 6C696E65 		.ascii	"line_width\000"
 6523      5F776964 
 6523      746800
 6524              	.LASF217:
ARM GAS  C:\Users\haske\AppData\Local\Temp\ccmIjDGo.s 			page 156


 6525 0ba6 434D445F 		.ascii	"CMD_STATE_WAIT\000"
 6525      53544154 
 6525      455F5741 
 6525      495400
 6526              	.LASF109:
 6527 0bb5 6C765F62 		.ascii	"lv_border_side_t\000"
 6527      6F726465 
 6527      725F7369 
 6527      64655F74 
 6527      00
 6528              	.LASF113:
 6529 0bc6 66726163 		.ascii	"frac\000"
 6529      00
 6530              	.LASF147:
 6531 0bcb 666F6E74 		.ascii	"font\000"
 6531      00
 6532              	.LASF153:
 6533 0bd0 6C657474 		.ascii	"letter_space\000"
 6533      65725F73 
 6533      70616365 
 6533      00
 6534              	.LASF52:
 6535 0bdd 4C565F4F 		.ascii	"LV_OPA_30\000"
 6535      50415F33 
 6535      3000
 6536              	.LASF183:
 6537 0be7 6C765F64 		.ascii	"lv_draw_arc_dsc_t\000"
 6537      7261775F 
 6537      6172635F 
 6537      6473635F 
 6537      7400
 6538              	.LASF221:
 6539 0bf9 62617365 		.ascii	"base_dir\000"
 6539      5F646972 
 6539      00
 6540              	.LASF264:
 6541 0c02 6C765F64 		.ascii	"lv_draw_line\000"
 6541      7261775F 
 6541      6C696E65 
 6541      00
 6542              	.LASF29:
 6543 0c0f 626F785F 		.ascii	"box_h\000"
 6543      6800
 6544              	.LASF274:
 6545 0c15 6C765F62 		.ascii	"lv_bidi_calculate_align\000"
 6545      6964695F 
 6545      63616C63 
 6545      756C6174 
 6545      655F616C 
 6546              	.LASF246:
 6547 0c2d 6C696E65 		.ascii	"line_dsc\000"
 6547      5F647363 
 6547      00
 6548              	.LASF127:
 6549 0c36 62675F69 		.ascii	"bg_img_recolor\000"
 6549      6D675F72 
 6549      65636F6C 
ARM GAS  C:\Users\haske\AppData\Local\Temp\ccmIjDGo.s 			page 157


 6549      6F7200
 6550              	.LASF64:
 6551 0c45 6C765F63 		.ascii	"lv_color16_t\000"
 6551      6F6C6F72 
 6551      31365F74 
 6551      00
 6552              	.LASF28:
 6553 0c52 626F785F 		.ascii	"box_w\000"
 6553      7700
 6554              	.LASF5:
 6555 0c58 73686F72 		.ascii	"short int\000"
 6555      7420696E 
 6555      7400
 6556              	.LASF36:
 6557 0c62 62617365 		.ascii	"base_line\000"
 6557      5F6C696E 
 6557      6500
 6558              	.LASF256:
 6559 0c6c 6C765F66 		.ascii	"lv_font_montserrat_14\000"
 6559      6F6E745F 
 6559      6D6F6E74 
 6559      73657272 
 6559      61745F31 
 6560              	.LASF145:
 6561 0c82 73686164 		.ascii	"shadow_opa\000"
 6561      6F775F6F 
 6561      706100
 6562              	.LASF53:
 6563 0c8d 4C565F4F 		.ascii	"LV_OPA_40\000"
 6563      50415F34 
 6563      3000
 6564              	.LASF17:
 6565 0c97 696E7431 		.ascii	"int16_t\000"
 6565      365F7400 
 6566              	.LASF249:
 6567 0c9f 6C657474 		.ascii	"letter_w\000"
 6567      65725F77 
 6567      00
 6568              	.LASF190:
 6569 0ca8 73637265 		.ascii	"screen_transp\000"
 6569      656E5F74 
 6569      72616E73 
 6569      7000
 6570              	.LASF234:
 6571 0cb6 636F6F72 		.ascii	"coords\000"
 6571      647300
 6572              	.LASF245:
 6573 0cbd 6C696E65 		.ascii	"line_end\000"
 6573      5F656E64 
 6573      00
 6574              	.LASF78:
 6575 0cc6 4C565F50 		.ascii	"LV_PALETTE_LIME\000"
 6575      414C4554 
 6575      54455F4C 
 6575      494D4500 
 6576              	.LASF232:
 6577 0cd6 6C657474 		.ascii	"letter\000"
ARM GAS  C:\Users\haske\AppData\Local\Temp\ccmIjDGo.s 			page 158


 6577      657200
 6578              	.LASF54:
 6579 0cdd 4C565F4F 		.ascii	"LV_OPA_50\000"
 6579      50415F35 
 6579      3000
 6580              	.LASF223:
 6581 0ce7 6C765F61 		.ascii	"lv_area_get_width\000"
 6581      7265615F 
 6581      6765745F 
 6581      77696474 
 6581      6800
 6582              	.LASF272:
 6583 0cf9 433A5C50 		.ascii	"C:\\Projects\\PainDrain\\firmware\\PainDrain\\PainD"
 6583      726F6A65 
 6583      6374735C 
 6583      5061696E 
 6583      44726169 
 6584 0d27 7261696E 		.ascii	"rain.cydsn\000"
 6584      2E637964 
 6584      736E00
 6585              	.LASF229:
 6586 0d32 6C765F64 		.ascii	"lv_draw_letter\000"
 6586      7261775F 
 6586      6C657474 
 6586      657200
 6587              	.LASF133:
 6588 0d41 626F7264 		.ascii	"border_opa\000"
 6588      65725F6F 
 6588      706100
 6589              	.LASF124:
 6590 0d4c 62675F67 		.ascii	"bg_grad\000"
 6590      72616400 
 6591              	.LASF228:
 6592 0d54 6C765F64 		.ascii	"lv_draw_label_dsc_init\000"
 6592      7261775F 
 6592      6C616265 
 6592      6C5F6473 
 6592      635F696E 
 6593              	.LASF230:
 6594 0d6b 64726177 		.ascii	"draw_ctx\000"
 6594      5F637478 
 6594      00
 6595              	.LASF203:
 6596 0d74 64726177 		.ascii	"draw_img\000"
 6596      5F696D67 
 6596      00
 6597              	.LASF114:
 6598 0d7d 6C765F67 		.ascii	"lv_gradient_stop_t\000"
 6598      72616469 
 6598      656E745F 
 6598      73746F70 
 6598      5F7400
 6599              	.LASF85:
 6600 0d90 4C565F50 		.ascii	"LV_PALETTE_GREY\000"
 6600      414C4554 
 6600      54455F47 
 6600      52455900 
ARM GAS  C:\Users\haske\AppData\Local\Temp\ccmIjDGo.s 			page 159


 6601              	.LASF55:
 6602 0da0 4C565F4F 		.ascii	"LV_OPA_60\000"
 6602      50415F36 
 6602      3000
 6603              	.LASF206:
 6604 0daa 64726177 		.ascii	"draw_polygon\000"
 6604      5F706F6C 
 6604      79676F6E 
 6604      00
 6605              	.LASF215:
 6606 0db7 6C617965 		.ascii	"layer_instance_size\000"
 6606      725F696E 
 6606      7374616E 
 6606      63655F73 
 6606      697A6500 
 6607              	.LASF148:
 6608 0dcb 73656C5F 		.ascii	"sel_start\000"
 6608      73746172 
 6608      7400
 6609              	.LASF20:
 6610 0dd5 75696E74 		.ascii	"uint32_t\000"
 6610      33325F74 
 6610      00
 6611              	.LASF243:
 6612 0dde 795F6F66 		.ascii	"y_ofs\000"
 6612      7300
 6613              	.LASF141:
 6614 0de4 73686164 		.ascii	"shadow_width\000"
 6614      6F775F77 
 6614      69647468 
 6614      00
 6615              	.LASF68:
 6616 0df1 4C565F50 		.ascii	"LV_PALETTE_PINK\000"
 6616      414C4554 
 6616      54455F50 
 6616      494E4B00 
 6617              	.LASF62:
 6618 0e01 67726565 		.ascii	"green\000"
 6618      6E00
 6619              	.LASF44:
 6620 0e07 6C765F66 		.ascii	"lv_font_t\000"
 6620      6F6E745F 
 6620      7400
 6621              	.LASF117:
 6622 0e11 64697468 		.ascii	"dither\000"
 6622      657200
 6623              	.LASF56:
 6624 0e18 4C565F4F 		.ascii	"LV_OPA_70\000"
 6624      50415F37 
 6624      3000
 6625              	.LASF7:
 6626 0e22 73686F72 		.ascii	"short unsigned int\000"
 6626      7420756E 
 6626      7369676E 
 6626      65642069 
 6626      6E7400
 6627              	.LASF160:
ARM GAS  C:\Users\haske\AppData\Local\Temp\ccmIjDGo.s 			page 160


 6628 0e35 5F6C765F 		.ascii	"_lv_draw_label_hint_t\000"
 6628      64726177 
 6628      5F6C6162 
 6628      656C5F68 
 6628      696E745F 
 6629              	.LASF23:
 6630 0e4b 6C765F63 		.ascii	"lv_coord_t\000"
 6630      6F6F7264 
 6630      5F7400
 6631              	.LASF252:
 6632 0e56 62696469 		.ascii	"bidi_txt\000"
 6632      5F747874 
 6632      00
 6633              	.LASF41:
 6634 0e5f 75736572 		.ascii	"user_data\000"
 6634      5F646174 
 6634      6100
 6635              	.LASF263:
 6636 0e69 6C765F66 		.ascii	"lv_font_get_glyph_width\000"
 6636      6F6E745F 
 6636      6765745F 
 6636      676C7970 
 6636      685F7769 
 6637              	.LASF33:
 6638 0e81 6765745F 		.ascii	"get_glyph_dsc\000"
 6638      676C7970 
 6638      685F6473 
 6638      6300
 6639              	.LASF8:
 6640 0e8f 5F5F696E 		.ascii	"__int32_t\000"
 6640      7433325F 
 6640      7400
 6641              	.LASF90:
 6642 0e99 4C565F54 		.ascii	"LV_TEXT_FLAG_EXPAND\000"
 6642      4558545F 
 6642      464C4147 
 6642      5F455850 
 6642      414E4400 
 6643              	.LASF110:
 6644 0ead 6C765F67 		.ascii	"lv_grad_dir_t\000"
 6644      7261645F 
 6644      6469725F 
 6644      7400
 6645              	.LASF98:
 6646 0ebb 4C565F42 		.ascii	"LV_BASE_DIR_LTR\000"
 6646      4153455F 
 6646      4449525F 
 6646      4C545200 
 6647              	.LASF57:
 6648 0ecb 4C565F4F 		.ascii	"LV_OPA_80\000"
 6648      50415F38 
 6648      3000
 6649              	.LASF150:
 6650 0ed5 73656C5F 		.ascii	"sel_color\000"
 6650      636F6C6F 
 6650      7200
 6651              	.LASF70:
ARM GAS  C:\Users\haske\AppData\Local\Temp\ccmIjDGo.s 			page 161


 6652 0edf 4C565F50 		.ascii	"LV_PALETTE_DEEP_PURPLE\000"
 6652      414C4554 
 6652      54455F44 
 6652      4545505F 
 6652      50555250 
 6653              	.LASF71:
 6654 0ef6 4C565F50 		.ascii	"LV_PALETTE_INDIGO\000"
 6654      414C4554 
 6654      54455F49 
 6654      4E444947 
 6654      4F00
 6655              	.LASF142:
 6656 0f08 73686164 		.ascii	"shadow_ofs_x\000"
 6656      6F775F6F 
 6656      66735F78 
 6656      00
 6657              	.LASF143:
 6658 0f15 73686164 		.ascii	"shadow_ofs_y\000"
 6658      6F775F6F 
 6658      66735F79 
 6658      00
 6659              	.LASF100:
 6660 0f22 4C565F42 		.ascii	"LV_BASE_DIR_AUTO\000"
 6660      4153455F 
 6660      4449525F 
 6660      4155544F 
 6660      00
 6661              	.LASF32:
 6662 0f33 69735F70 		.ascii	"is_placeholder\000"
 6662      6C616365 
 6662      686F6C64 
 6662      657200
 6663              	.LASF248:
 6664 0f42 7061725F 		.ascii	"par_start\000"
 6664      73746172 
 6664      7400
 6665              	.LASF58:
 6666 0f4c 4C565F4F 		.ascii	"LV_OPA_90\000"
 6666      50415F39 
 6666      3000
 6667              		.ident	"GCC: (GNU Tools for ARM Embedded Processors) 5.4.1 20160609 (release) [ARM/embedded-5-bran
