ARM GAS  C:\Users\haske\AppData\Local\Temp\cc7ZkKza.s 			page 1


   1              		.syntax unified
   2              		.cpu cortex-m4
   3              		.eabi_attribute 27, 1
   4              		.fpu fpv4-sp-d16
   5              		.eabi_attribute 20, 1
   6              		.eabi_attribute 21, 1
   7              		.eabi_attribute 23, 3
   8              		.eabi_attribute 24, 1
   9              		.eabi_attribute 25, 1
  10              		.eabi_attribute 26, 1
  11              		.eabi_attribute 30, 1
  12              		.eabi_attribute 34, 1
  13              		.eabi_attribute 18, 4
  14              		.thumb
  15              		.syntax unified
  16              		.file	"lv_draw_sw_blend.c"
  17              		.text
  18              	.Ltext0:
  19              		.cfi_sections	.debug_frame
  20              		.section	.text.fill_blended,"ax",%progbits
  21              		.align	2
  22              		.thumb
  23              		.thumb_func
  24              		.type	fill_blended, %function
  25              	fill_blended:
  26              	.LFB163:
  27              		.file 1 "..\\..\\..\\arduinoLCD\\test\\Pain Drain\\libraries\\lvgl\\src\\draw\\sw\\lv_draw_sw_blen
   1:..\..\..\arduinoLCD\test\Pain Drain\libraries\lvgl\src\draw\sw/lv_draw_sw_blend.c **** /**
   2:..\..\..\arduinoLCD\test\Pain Drain\libraries\lvgl\src\draw\sw/lv_draw_sw_blend.c ****  * @file lv_draw_sw_blend.c
   3:..\..\..\arduinoLCD\test\Pain Drain\libraries\lvgl\src\draw\sw/lv_draw_sw_blend.c ****  *
   4:..\..\..\arduinoLCD\test\Pain Drain\libraries\lvgl\src\draw\sw/lv_draw_sw_blend.c ****  */
   5:..\..\..\arduinoLCD\test\Pain Drain\libraries\lvgl\src\draw\sw/lv_draw_sw_blend.c **** 
   6:..\..\..\arduinoLCD\test\Pain Drain\libraries\lvgl\src\draw\sw/lv_draw_sw_blend.c **** /*********************
   7:..\..\..\arduinoLCD\test\Pain Drain\libraries\lvgl\src\draw\sw/lv_draw_sw_blend.c ****  *      INCLUDES
   8:..\..\..\arduinoLCD\test\Pain Drain\libraries\lvgl\src\draw\sw/lv_draw_sw_blend.c ****  *********************/
   9:..\..\..\arduinoLCD\test\Pain Drain\libraries\lvgl\src\draw\sw/lv_draw_sw_blend.c **** #include "lv_draw_sw.h"
  10:..\..\..\arduinoLCD\test\Pain Drain\libraries\lvgl\src\draw\sw/lv_draw_sw_blend.c **** #include "../../misc/lv_math.h"
  11:..\..\..\arduinoLCD\test\Pain Drain\libraries\lvgl\src\draw\sw/lv_draw_sw_blend.c **** #include "../../hal/lv_hal_disp.h"
  12:..\..\..\arduinoLCD\test\Pain Drain\libraries\lvgl\src\draw\sw/lv_draw_sw_blend.c **** #include "../../core/lv_refr.h"
  13:..\..\..\arduinoLCD\test\Pain Drain\libraries\lvgl\src\draw\sw/lv_draw_sw_blend.c **** 
  14:..\..\..\arduinoLCD\test\Pain Drain\libraries\lvgl\src\draw\sw/lv_draw_sw_blend.c **** /*********************
  15:..\..\..\arduinoLCD\test\Pain Drain\libraries\lvgl\src\draw\sw/lv_draw_sw_blend.c ****  *      DEFINES
  16:..\..\..\arduinoLCD\test\Pain Drain\libraries\lvgl\src\draw\sw/lv_draw_sw_blend.c ****  *********************/
  17:..\..\..\arduinoLCD\test\Pain Drain\libraries\lvgl\src\draw\sw/lv_draw_sw_blend.c **** 
  18:..\..\..\arduinoLCD\test\Pain Drain\libraries\lvgl\src\draw\sw/lv_draw_sw_blend.c **** /**********************
  19:..\..\..\arduinoLCD\test\Pain Drain\libraries\lvgl\src\draw\sw/lv_draw_sw_blend.c ****  *      TYPEDEFS
  20:..\..\..\arduinoLCD\test\Pain Drain\libraries\lvgl\src\draw\sw/lv_draw_sw_blend.c ****  **********************/
  21:..\..\..\arduinoLCD\test\Pain Drain\libraries\lvgl\src\draw\sw/lv_draw_sw_blend.c **** 
  22:..\..\..\arduinoLCD\test\Pain Drain\libraries\lvgl\src\draw\sw/lv_draw_sw_blend.c **** /**********************
  23:..\..\..\arduinoLCD\test\Pain Drain\libraries\lvgl\src\draw\sw/lv_draw_sw_blend.c ****  *  STATIC PROTOTYPES
  24:..\..\..\arduinoLCD\test\Pain Drain\libraries\lvgl\src\draw\sw/lv_draw_sw_blend.c ****  **********************/
  25:..\..\..\arduinoLCD\test\Pain Drain\libraries\lvgl\src\draw\sw/lv_draw_sw_blend.c **** 
  26:..\..\..\arduinoLCD\test\Pain Drain\libraries\lvgl\src\draw\sw/lv_draw_sw_blend.c **** static void fill_set_px(lv_color_t * dest_buf, const lv_area_t * blend_area, lv_coord_t dest_stride
  27:..\..\..\arduinoLCD\test\Pain Drain\libraries\lvgl\src\draw\sw/lv_draw_sw_blend.c ****                         lv_color_t color, lv_opa_t opa, const lv_opa_t * mask, lv_coord_t mask_stid
  28:..\..\..\arduinoLCD\test\Pain Drain\libraries\lvgl\src\draw\sw/lv_draw_sw_blend.c **** 
  29:..\..\..\arduinoLCD\test\Pain Drain\libraries\lvgl\src\draw\sw/lv_draw_sw_blend.c **** LV_ATTRIBUTE_FAST_MEM static void fill_normal(lv_color_t * dest_buf, const lv_area_t * dest_area,
  30:..\..\..\arduinoLCD\test\Pain Drain\libraries\lvgl\src\draw\sw/lv_draw_sw_blend.c ****                                               lv_coord_t dest_stride, lv_color_t color, lv_opa_t op
ARM GAS  C:\Users\haske\AppData\Local\Temp\cc7ZkKza.s 			page 2


  31:..\..\..\arduinoLCD\test\Pain Drain\libraries\lvgl\src\draw\sw/lv_draw_sw_blend.c **** 
  32:..\..\..\arduinoLCD\test\Pain Drain\libraries\lvgl\src\draw\sw/lv_draw_sw_blend.c **** 
  33:..\..\..\arduinoLCD\test\Pain Drain\libraries\lvgl\src\draw\sw/lv_draw_sw_blend.c **** #if LV_COLOR_SCREEN_TRANSP
  34:..\..\..\arduinoLCD\test\Pain Drain\libraries\lvgl\src\draw\sw/lv_draw_sw_blend.c **** LV_ATTRIBUTE_FAST_MEM static void fill_argb(lv_color_t * dest_buf, const lv_area_t * dest_area,
  35:..\..\..\arduinoLCD\test\Pain Drain\libraries\lvgl\src\draw\sw/lv_draw_sw_blend.c ****                                             lv_coord_t dest_stride, lv_color_t color, lv_opa_t opa,
  36:..\..\..\arduinoLCD\test\Pain Drain\libraries\lvgl\src\draw\sw/lv_draw_sw_blend.c **** #endif /*LV_COLOR_SCREEN_TRANSP*/
  37:..\..\..\arduinoLCD\test\Pain Drain\libraries\lvgl\src\draw\sw/lv_draw_sw_blend.c **** 
  38:..\..\..\arduinoLCD\test\Pain Drain\libraries\lvgl\src\draw\sw/lv_draw_sw_blend.c **** #if LV_DRAW_COMPLEX
  39:..\..\..\arduinoLCD\test\Pain Drain\libraries\lvgl\src\draw\sw/lv_draw_sw_blend.c **** static void fill_blended(lv_color_t * dest_buf, const lv_area_t * dest_area, lv_coord_t dest_stride
  40:..\..\..\arduinoLCD\test\Pain Drain\libraries\lvgl\src\draw\sw/lv_draw_sw_blend.c ****                          lv_opa_t opa, const lv_opa_t * mask, lv_coord_t mask_stride, lv_blend_mode
  41:..\..\..\arduinoLCD\test\Pain Drain\libraries\lvgl\src\draw\sw/lv_draw_sw_blend.c **** #endif  /*LV_DRAW_COMPLEX*/
  42:..\..\..\arduinoLCD\test\Pain Drain\libraries\lvgl\src\draw\sw/lv_draw_sw_blend.c **** 
  43:..\..\..\arduinoLCD\test\Pain Drain\libraries\lvgl\src\draw\sw/lv_draw_sw_blend.c **** static void map_set_px(lv_color_t * dest_buf, const lv_area_t * dest_area, lv_coord_t dest_stride,
  44:..\..\..\arduinoLCD\test\Pain Drain\libraries\lvgl\src\draw\sw/lv_draw_sw_blend.c ****                        const lv_color_t * src_buf, lv_coord_t src_stride, lv_opa_t opa, const lv_op
  45:..\..\..\arduinoLCD\test\Pain Drain\libraries\lvgl\src\draw\sw/lv_draw_sw_blend.c **** 
  46:..\..\..\arduinoLCD\test\Pain Drain\libraries\lvgl\src\draw\sw/lv_draw_sw_blend.c **** LV_ATTRIBUTE_FAST_MEM static void map_normal(lv_color_t * dest_buf, const lv_area_t * dest_area, lv
  47:..\..\..\arduinoLCD\test\Pain Drain\libraries\lvgl\src\draw\sw/lv_draw_sw_blend.c ****                                              const lv_color_t * src_buf, lv_coord_t src_stride, lv_
  48:..\..\..\arduinoLCD\test\Pain Drain\libraries\lvgl\src\draw\sw/lv_draw_sw_blend.c **** 
  49:..\..\..\arduinoLCD\test\Pain Drain\libraries\lvgl\src\draw\sw/lv_draw_sw_blend.c **** #if LV_COLOR_SCREEN_TRANSP
  50:..\..\..\arduinoLCD\test\Pain Drain\libraries\lvgl\src\draw\sw/lv_draw_sw_blend.c **** LV_ATTRIBUTE_FAST_MEM static void map_argb(lv_color_t * dest_buf, const lv_area_t * dest_area, lv_c
  51:..\..\..\arduinoLCD\test\Pain Drain\libraries\lvgl\src\draw\sw/lv_draw_sw_blend.c ****                                            const lv_color_t * src_buf, lv_coord_t src_stride, lv_op
  52:..\..\..\arduinoLCD\test\Pain Drain\libraries\lvgl\src\draw\sw/lv_draw_sw_blend.c ****                                            const lv_opa_t * mask, lv_coord_t mask_stride, lv_blend_
  53:..\..\..\arduinoLCD\test\Pain Drain\libraries\lvgl\src\draw\sw/lv_draw_sw_blend.c **** 
  54:..\..\..\arduinoLCD\test\Pain Drain\libraries\lvgl\src\draw\sw/lv_draw_sw_blend.c **** #endif /*LV_COLOR_SCREEN_TRANSP*/
  55:..\..\..\arduinoLCD\test\Pain Drain\libraries\lvgl\src\draw\sw/lv_draw_sw_blend.c **** 
  56:..\..\..\arduinoLCD\test\Pain Drain\libraries\lvgl\src\draw\sw/lv_draw_sw_blend.c **** #if LV_DRAW_COMPLEX
  57:..\..\..\arduinoLCD\test\Pain Drain\libraries\lvgl\src\draw\sw/lv_draw_sw_blend.c **** static void map_blended(lv_color_t * dest_buf, const lv_area_t * dest_area, lv_coord_t dest_stride,
  58:..\..\..\arduinoLCD\test\Pain Drain\libraries\lvgl\src\draw\sw/lv_draw_sw_blend.c ****                         const lv_color_t * src_buf, lv_coord_t src_stride, lv_opa_t opa,
  59:..\..\..\arduinoLCD\test\Pain Drain\libraries\lvgl\src\draw\sw/lv_draw_sw_blend.c ****                         const lv_opa_t * mask, lv_coord_t mask_stride, lv_blend_mode_t blend_mode);
  60:..\..\..\arduinoLCD\test\Pain Drain\libraries\lvgl\src\draw\sw/lv_draw_sw_blend.c **** 
  61:..\..\..\arduinoLCD\test\Pain Drain\libraries\lvgl\src\draw\sw/lv_draw_sw_blend.c **** static inline lv_color_t color_blend_true_color_additive(lv_color_t fg, lv_color_t bg, lv_opa_t opa
  62:..\..\..\arduinoLCD\test\Pain Drain\libraries\lvgl\src\draw\sw/lv_draw_sw_blend.c **** static inline lv_color_t color_blend_true_color_subtractive(lv_color_t fg, lv_color_t bg, lv_opa_t 
  63:..\..\..\arduinoLCD\test\Pain Drain\libraries\lvgl\src\draw\sw/lv_draw_sw_blend.c **** static inline lv_color_t color_blend_true_color_multiply(lv_color_t fg, lv_color_t bg, lv_opa_t opa
  64:..\..\..\arduinoLCD\test\Pain Drain\libraries\lvgl\src\draw\sw/lv_draw_sw_blend.c **** #endif /*LV_DRAW_COMPLEX*/
  65:..\..\..\arduinoLCD\test\Pain Drain\libraries\lvgl\src\draw\sw/lv_draw_sw_blend.c **** 
  66:..\..\..\arduinoLCD\test\Pain Drain\libraries\lvgl\src\draw\sw/lv_draw_sw_blend.c **** /**********************
  67:..\..\..\arduinoLCD\test\Pain Drain\libraries\lvgl\src\draw\sw/lv_draw_sw_blend.c ****  *  STATIC VARIABLES
  68:..\..\..\arduinoLCD\test\Pain Drain\libraries\lvgl\src\draw\sw/lv_draw_sw_blend.c ****  **********************/
  69:..\..\..\arduinoLCD\test\Pain Drain\libraries\lvgl\src\draw\sw/lv_draw_sw_blend.c **** 
  70:..\..\..\arduinoLCD\test\Pain Drain\libraries\lvgl\src\draw\sw/lv_draw_sw_blend.c **** /**********************
  71:..\..\..\arduinoLCD\test\Pain Drain\libraries\lvgl\src\draw\sw/lv_draw_sw_blend.c ****  *      MACROS
  72:..\..\..\arduinoLCD\test\Pain Drain\libraries\lvgl\src\draw\sw/lv_draw_sw_blend.c ****  **********************/
  73:..\..\..\arduinoLCD\test\Pain Drain\libraries\lvgl\src\draw\sw/lv_draw_sw_blend.c **** #define FILL_NORMAL_MASK_PX(color)                                                          \
  74:..\..\..\arduinoLCD\test\Pain Drain\libraries\lvgl\src\draw\sw/lv_draw_sw_blend.c ****     if(*mask == LV_OPA_COVER) *dest_buf = color;                                 \
  75:..\..\..\arduinoLCD\test\Pain Drain\libraries\lvgl\src\draw\sw/lv_draw_sw_blend.c ****     else *dest_buf = lv_color_mix(color, *dest_buf, *mask);            \
  76:..\..\..\arduinoLCD\test\Pain Drain\libraries\lvgl\src\draw\sw/lv_draw_sw_blend.c ****     mask++;                                                         \
  77:..\..\..\arduinoLCD\test\Pain Drain\libraries\lvgl\src\draw\sw/lv_draw_sw_blend.c ****     dest_buf++;
  78:..\..\..\arduinoLCD\test\Pain Drain\libraries\lvgl\src\draw\sw/lv_draw_sw_blend.c **** 
  79:..\..\..\arduinoLCD\test\Pain Drain\libraries\lvgl\src\draw\sw/lv_draw_sw_blend.c **** #define MAP_NORMAL_MASK_PX(x)                                                          \
  80:..\..\..\arduinoLCD\test\Pain Drain\libraries\lvgl\src\draw\sw/lv_draw_sw_blend.c ****     if(*mask_tmp_x) {          \
  81:..\..\..\arduinoLCD\test\Pain Drain\libraries\lvgl\src\draw\sw/lv_draw_sw_blend.c ****         if(*mask_tmp_x == LV_OPA_COVER) dest_buf[x] = src_buf[x];                                 \
  82:..\..\..\arduinoLCD\test\Pain Drain\libraries\lvgl\src\draw\sw/lv_draw_sw_blend.c ****         else dest_buf[x] = lv_color_mix(src_buf[x], dest_buf[x], *mask_tmp_x);            \
  83:..\..\..\arduinoLCD\test\Pain Drain\libraries\lvgl\src\draw\sw/lv_draw_sw_blend.c ****     }                                                                                              
  84:..\..\..\arduinoLCD\test\Pain Drain\libraries\lvgl\src\draw\sw/lv_draw_sw_blend.c ****     mask_tmp_x++;
  85:..\..\..\arduinoLCD\test\Pain Drain\libraries\lvgl\src\draw\sw/lv_draw_sw_blend.c **** 
  86:..\..\..\arduinoLCD\test\Pain Drain\libraries\lvgl\src\draw\sw/lv_draw_sw_blend.c **** 
  87:..\..\..\arduinoLCD\test\Pain Drain\libraries\lvgl\src\draw\sw/lv_draw_sw_blend.c **** /**********************
ARM GAS  C:\Users\haske\AppData\Local\Temp\cc7ZkKza.s 			page 3


  88:..\..\..\arduinoLCD\test\Pain Drain\libraries\lvgl\src\draw\sw/lv_draw_sw_blend.c ****  *   GLOBAL FUNCTIONS
  89:..\..\..\arduinoLCD\test\Pain Drain\libraries\lvgl\src\draw\sw/lv_draw_sw_blend.c ****  **********************/
  90:..\..\..\arduinoLCD\test\Pain Drain\libraries\lvgl\src\draw\sw/lv_draw_sw_blend.c **** 
  91:..\..\..\arduinoLCD\test\Pain Drain\libraries\lvgl\src\draw\sw/lv_draw_sw_blend.c **** void lv_draw_sw_blend(lv_draw_ctx_t * draw_ctx, const lv_draw_sw_blend_dsc_t * dsc)
  92:..\..\..\arduinoLCD\test\Pain Drain\libraries\lvgl\src\draw\sw/lv_draw_sw_blend.c **** {
  93:..\..\..\arduinoLCD\test\Pain Drain\libraries\lvgl\src\draw\sw/lv_draw_sw_blend.c ****     /*Do not draw transparent things*/
  94:..\..\..\arduinoLCD\test\Pain Drain\libraries\lvgl\src\draw\sw/lv_draw_sw_blend.c ****     if(dsc->opa <= LV_OPA_MIN) return;
  95:..\..\..\arduinoLCD\test\Pain Drain\libraries\lvgl\src\draw\sw/lv_draw_sw_blend.c **** 
  96:..\..\..\arduinoLCD\test\Pain Drain\libraries\lvgl\src\draw\sw/lv_draw_sw_blend.c ****     lv_area_t blend_area;
  97:..\..\..\arduinoLCD\test\Pain Drain\libraries\lvgl\src\draw\sw/lv_draw_sw_blend.c ****     if(!_lv_area_intersect(&blend_area, dsc->blend_area, draw_ctx->clip_area)) return;
  98:..\..\..\arduinoLCD\test\Pain Drain\libraries\lvgl\src\draw\sw/lv_draw_sw_blend.c **** 
  99:..\..\..\arduinoLCD\test\Pain Drain\libraries\lvgl\src\draw\sw/lv_draw_sw_blend.c ****     if(draw_ctx->wait_for_finish) draw_ctx->wait_for_finish(draw_ctx);
 100:..\..\..\arduinoLCD\test\Pain Drain\libraries\lvgl\src\draw\sw/lv_draw_sw_blend.c **** 
 101:..\..\..\arduinoLCD\test\Pain Drain\libraries\lvgl\src\draw\sw/lv_draw_sw_blend.c ****     ((lv_draw_sw_ctx_t *)draw_ctx)->blend(draw_ctx, dsc);
 102:..\..\..\arduinoLCD\test\Pain Drain\libraries\lvgl\src\draw\sw/lv_draw_sw_blend.c **** }
 103:..\..\..\arduinoLCD\test\Pain Drain\libraries\lvgl\src\draw\sw/lv_draw_sw_blend.c **** 
 104:..\..\..\arduinoLCD\test\Pain Drain\libraries\lvgl\src\draw\sw/lv_draw_sw_blend.c **** LV_ATTRIBUTE_FAST_MEM void lv_draw_sw_blend_basic(lv_draw_ctx_t * draw_ctx, const lv_draw_sw_blend_
 105:..\..\..\arduinoLCD\test\Pain Drain\libraries\lvgl\src\draw\sw/lv_draw_sw_blend.c **** {
 106:..\..\..\arduinoLCD\test\Pain Drain\libraries\lvgl\src\draw\sw/lv_draw_sw_blend.c ****     lv_opa_t * mask;
 107:..\..\..\arduinoLCD\test\Pain Drain\libraries\lvgl\src\draw\sw/lv_draw_sw_blend.c ****     if(dsc->mask_buf == NULL) mask = NULL;
 108:..\..\..\arduinoLCD\test\Pain Drain\libraries\lvgl\src\draw\sw/lv_draw_sw_blend.c ****     if(dsc->mask_buf && dsc->mask_res == LV_DRAW_MASK_RES_TRANSP) return;
 109:..\..\..\arduinoLCD\test\Pain Drain\libraries\lvgl\src\draw\sw/lv_draw_sw_blend.c ****     else if(dsc->mask_res == LV_DRAW_MASK_RES_FULL_COVER) mask = NULL;
 110:..\..\..\arduinoLCD\test\Pain Drain\libraries\lvgl\src\draw\sw/lv_draw_sw_blend.c ****     else mask = dsc->mask_buf;
 111:..\..\..\arduinoLCD\test\Pain Drain\libraries\lvgl\src\draw\sw/lv_draw_sw_blend.c **** 
 112:..\..\..\arduinoLCD\test\Pain Drain\libraries\lvgl\src\draw\sw/lv_draw_sw_blend.c ****     lv_coord_t dest_stride = lv_area_get_width(draw_ctx->buf_area);
 113:..\..\..\arduinoLCD\test\Pain Drain\libraries\lvgl\src\draw\sw/lv_draw_sw_blend.c **** 
 114:..\..\..\arduinoLCD\test\Pain Drain\libraries\lvgl\src\draw\sw/lv_draw_sw_blend.c ****     lv_area_t blend_area;
 115:..\..\..\arduinoLCD\test\Pain Drain\libraries\lvgl\src\draw\sw/lv_draw_sw_blend.c ****     if(!_lv_area_intersect(&blend_area, dsc->blend_area, draw_ctx->clip_area)) return;
 116:..\..\..\arduinoLCD\test\Pain Drain\libraries\lvgl\src\draw\sw/lv_draw_sw_blend.c **** 
 117:..\..\..\arduinoLCD\test\Pain Drain\libraries\lvgl\src\draw\sw/lv_draw_sw_blend.c ****     lv_disp_t * disp = _lv_refr_get_disp_refreshing();
 118:..\..\..\arduinoLCD\test\Pain Drain\libraries\lvgl\src\draw\sw/lv_draw_sw_blend.c ****     lv_color_t * dest_buf = draw_ctx->buf;
 119:..\..\..\arduinoLCD\test\Pain Drain\libraries\lvgl\src\draw\sw/lv_draw_sw_blend.c ****     if(disp->driver->set_px_cb == NULL) {
 120:..\..\..\arduinoLCD\test\Pain Drain\libraries\lvgl\src\draw\sw/lv_draw_sw_blend.c ****         if(disp->driver->screen_transp == 0) {
 121:..\..\..\arduinoLCD\test\Pain Drain\libraries\lvgl\src\draw\sw/lv_draw_sw_blend.c ****             dest_buf += dest_stride * (blend_area.y1 - draw_ctx->buf_area->y1) + (blend_area.x1 - d
 122:..\..\..\arduinoLCD\test\Pain Drain\libraries\lvgl\src\draw\sw/lv_draw_sw_blend.c ****         }
 123:..\..\..\arduinoLCD\test\Pain Drain\libraries\lvgl\src\draw\sw/lv_draw_sw_blend.c ****         else {
 124:..\..\..\arduinoLCD\test\Pain Drain\libraries\lvgl\src\draw\sw/lv_draw_sw_blend.c ****             /*With LV_COLOR_DEPTH 16 it means ARGB8565 (3 bytes format)*/
 125:..\..\..\arduinoLCD\test\Pain Drain\libraries\lvgl\src\draw\sw/lv_draw_sw_blend.c ****             uint8_t * dest_buf8 = (uint8_t *) dest_buf;
 126:..\..\..\arduinoLCD\test\Pain Drain\libraries\lvgl\src\draw\sw/lv_draw_sw_blend.c ****             dest_buf8 += dest_stride * (blend_area.y1 - draw_ctx->buf_area->y1) * LV_IMG_PX_SIZE_AL
 127:..\..\..\arduinoLCD\test\Pain Drain\libraries\lvgl\src\draw\sw/lv_draw_sw_blend.c ****             dest_buf8 += (blend_area.x1 - draw_ctx->buf_area->x1) * LV_IMG_PX_SIZE_ALPHA_BYTE;
 128:..\..\..\arduinoLCD\test\Pain Drain\libraries\lvgl\src\draw\sw/lv_draw_sw_blend.c ****             dest_buf = (lv_color_t *)dest_buf8;
 129:..\..\..\arduinoLCD\test\Pain Drain\libraries\lvgl\src\draw\sw/lv_draw_sw_blend.c ****         }
 130:..\..\..\arduinoLCD\test\Pain Drain\libraries\lvgl\src\draw\sw/lv_draw_sw_blend.c ****     }
 131:..\..\..\arduinoLCD\test\Pain Drain\libraries\lvgl\src\draw\sw/lv_draw_sw_blend.c **** 
 132:..\..\..\arduinoLCD\test\Pain Drain\libraries\lvgl\src\draw\sw/lv_draw_sw_blend.c ****     const lv_color_t * src_buf = dsc->src_buf;
 133:..\..\..\arduinoLCD\test\Pain Drain\libraries\lvgl\src\draw\sw/lv_draw_sw_blend.c ****     lv_coord_t src_stride;
 134:..\..\..\arduinoLCD\test\Pain Drain\libraries\lvgl\src\draw\sw/lv_draw_sw_blend.c ****     if(src_buf) {
 135:..\..\..\arduinoLCD\test\Pain Drain\libraries\lvgl\src\draw\sw/lv_draw_sw_blend.c ****         src_stride = lv_area_get_width(dsc->blend_area);
 136:..\..\..\arduinoLCD\test\Pain Drain\libraries\lvgl\src\draw\sw/lv_draw_sw_blend.c ****         src_buf += src_stride * (blend_area.y1 - dsc->blend_area->y1) + (blend_area.x1 - dsc->blend
 137:..\..\..\arduinoLCD\test\Pain Drain\libraries\lvgl\src\draw\sw/lv_draw_sw_blend.c ****     }
 138:..\..\..\arduinoLCD\test\Pain Drain\libraries\lvgl\src\draw\sw/lv_draw_sw_blend.c ****     else {
 139:..\..\..\arduinoLCD\test\Pain Drain\libraries\lvgl\src\draw\sw/lv_draw_sw_blend.c ****         src_stride = 0;
 140:..\..\..\arduinoLCD\test\Pain Drain\libraries\lvgl\src\draw\sw/lv_draw_sw_blend.c ****     }
 141:..\..\..\arduinoLCD\test\Pain Drain\libraries\lvgl\src\draw\sw/lv_draw_sw_blend.c **** 
 142:..\..\..\arduinoLCD\test\Pain Drain\libraries\lvgl\src\draw\sw/lv_draw_sw_blend.c ****     lv_coord_t mask_stride;
 143:..\..\..\arduinoLCD\test\Pain Drain\libraries\lvgl\src\draw\sw/lv_draw_sw_blend.c ****     if(mask) {
 144:..\..\..\arduinoLCD\test\Pain Drain\libraries\lvgl\src\draw\sw/lv_draw_sw_blend.c ****         /*Round the values in the mask if anti-aliasing is disabled*/
ARM GAS  C:\Users\haske\AppData\Local\Temp\cc7ZkKza.s 			page 4


 145:..\..\..\arduinoLCD\test\Pain Drain\libraries\lvgl\src\draw\sw/lv_draw_sw_blend.c ****         if(disp->driver->antialiasing == 0) {
 146:..\..\..\arduinoLCD\test\Pain Drain\libraries\lvgl\src\draw\sw/lv_draw_sw_blend.c ****             int32_t mask_size = lv_area_get_size(dsc->mask_area);
 147:..\..\..\arduinoLCD\test\Pain Drain\libraries\lvgl\src\draw\sw/lv_draw_sw_blend.c ****             int32_t i;
 148:..\..\..\arduinoLCD\test\Pain Drain\libraries\lvgl\src\draw\sw/lv_draw_sw_blend.c ****             for(i = 0; i < mask_size; i++) {
 149:..\..\..\arduinoLCD\test\Pain Drain\libraries\lvgl\src\draw\sw/lv_draw_sw_blend.c ****                 mask[i] = mask[i] > 128 ? LV_OPA_COVER : LV_OPA_TRANSP;
 150:..\..\..\arduinoLCD\test\Pain Drain\libraries\lvgl\src\draw\sw/lv_draw_sw_blend.c ****             }
 151:..\..\..\arduinoLCD\test\Pain Drain\libraries\lvgl\src\draw\sw/lv_draw_sw_blend.c ****         }
 152:..\..\..\arduinoLCD\test\Pain Drain\libraries\lvgl\src\draw\sw/lv_draw_sw_blend.c **** 
 153:..\..\..\arduinoLCD\test\Pain Drain\libraries\lvgl\src\draw\sw/lv_draw_sw_blend.c ****         mask_stride = lv_area_get_width(dsc->mask_area);
 154:..\..\..\arduinoLCD\test\Pain Drain\libraries\lvgl\src\draw\sw/lv_draw_sw_blend.c ****         mask += mask_stride * (blend_area.y1 - dsc->mask_area->y1) + (blend_area.x1 - dsc->mask_are
 155:..\..\..\arduinoLCD\test\Pain Drain\libraries\lvgl\src\draw\sw/lv_draw_sw_blend.c **** 
 156:..\..\..\arduinoLCD\test\Pain Drain\libraries\lvgl\src\draw\sw/lv_draw_sw_blend.c ****     }
 157:..\..\..\arduinoLCD\test\Pain Drain\libraries\lvgl\src\draw\sw/lv_draw_sw_blend.c ****     else {
 158:..\..\..\arduinoLCD\test\Pain Drain\libraries\lvgl\src\draw\sw/lv_draw_sw_blend.c ****         mask_stride = 0;
 159:..\..\..\arduinoLCD\test\Pain Drain\libraries\lvgl\src\draw\sw/lv_draw_sw_blend.c ****     }
 160:..\..\..\arduinoLCD\test\Pain Drain\libraries\lvgl\src\draw\sw/lv_draw_sw_blend.c **** 
 161:..\..\..\arduinoLCD\test\Pain Drain\libraries\lvgl\src\draw\sw/lv_draw_sw_blend.c ****     lv_area_move(&blend_area, -draw_ctx->buf_area->x1, -draw_ctx->buf_area->y1);
 162:..\..\..\arduinoLCD\test\Pain Drain\libraries\lvgl\src\draw\sw/lv_draw_sw_blend.c **** 
 163:..\..\..\arduinoLCD\test\Pain Drain\libraries\lvgl\src\draw\sw/lv_draw_sw_blend.c **** 
 164:..\..\..\arduinoLCD\test\Pain Drain\libraries\lvgl\src\draw\sw/lv_draw_sw_blend.c ****     if(disp->driver->set_px_cb) {
 165:..\..\..\arduinoLCD\test\Pain Drain\libraries\lvgl\src\draw\sw/lv_draw_sw_blend.c ****         if(dsc->src_buf == NULL) {
 166:..\..\..\arduinoLCD\test\Pain Drain\libraries\lvgl\src\draw\sw/lv_draw_sw_blend.c ****             fill_set_px(dest_buf, &blend_area, dest_stride, dsc->color, dsc->opa, mask, mask_stride
 167:..\..\..\arduinoLCD\test\Pain Drain\libraries\lvgl\src\draw\sw/lv_draw_sw_blend.c ****         }
 168:..\..\..\arduinoLCD\test\Pain Drain\libraries\lvgl\src\draw\sw/lv_draw_sw_blend.c ****         else {
 169:..\..\..\arduinoLCD\test\Pain Drain\libraries\lvgl\src\draw\sw/lv_draw_sw_blend.c ****             map_set_px(dest_buf, &blend_area, dest_stride, src_buf, src_stride, dsc->opa, mask, mas
 170:..\..\..\arduinoLCD\test\Pain Drain\libraries\lvgl\src\draw\sw/lv_draw_sw_blend.c ****         }
 171:..\..\..\arduinoLCD\test\Pain Drain\libraries\lvgl\src\draw\sw/lv_draw_sw_blend.c ****     }
 172:..\..\..\arduinoLCD\test\Pain Drain\libraries\lvgl\src\draw\sw/lv_draw_sw_blend.c **** #if LV_COLOR_SCREEN_TRANSP
 173:..\..\..\arduinoLCD\test\Pain Drain\libraries\lvgl\src\draw\sw/lv_draw_sw_blend.c ****     else if(disp->driver->screen_transp) {
 174:..\..\..\arduinoLCD\test\Pain Drain\libraries\lvgl\src\draw\sw/lv_draw_sw_blend.c ****         if(dsc->src_buf == NULL) {
 175:..\..\..\arduinoLCD\test\Pain Drain\libraries\lvgl\src\draw\sw/lv_draw_sw_blend.c ****             fill_argb(dest_buf, &blend_area, dest_stride, dsc->color, dsc->opa, mask, mask_stride);
 176:..\..\..\arduinoLCD\test\Pain Drain\libraries\lvgl\src\draw\sw/lv_draw_sw_blend.c ****         }
 177:..\..\..\arduinoLCD\test\Pain Drain\libraries\lvgl\src\draw\sw/lv_draw_sw_blend.c ****         else {
 178:..\..\..\arduinoLCD\test\Pain Drain\libraries\lvgl\src\draw\sw/lv_draw_sw_blend.c ****             map_argb(dest_buf, &blend_area, dest_stride, src_buf, src_stride, dsc->opa, mask, mask_
 179:..\..\..\arduinoLCD\test\Pain Drain\libraries\lvgl\src\draw\sw/lv_draw_sw_blend.c ****         }
 180:..\..\..\arduinoLCD\test\Pain Drain\libraries\lvgl\src\draw\sw/lv_draw_sw_blend.c ****     }
 181:..\..\..\arduinoLCD\test\Pain Drain\libraries\lvgl\src\draw\sw/lv_draw_sw_blend.c **** #endif
 182:..\..\..\arduinoLCD\test\Pain Drain\libraries\lvgl\src\draw\sw/lv_draw_sw_blend.c ****     else if(dsc->blend_mode == LV_BLEND_MODE_NORMAL) {
 183:..\..\..\arduinoLCD\test\Pain Drain\libraries\lvgl\src\draw\sw/lv_draw_sw_blend.c ****         if(dsc->src_buf == NULL) {
 184:..\..\..\arduinoLCD\test\Pain Drain\libraries\lvgl\src\draw\sw/lv_draw_sw_blend.c ****             fill_normal(dest_buf, &blend_area, dest_stride, dsc->color, dsc->opa, mask, mask_stride
 185:..\..\..\arduinoLCD\test\Pain Drain\libraries\lvgl\src\draw\sw/lv_draw_sw_blend.c ****         }
 186:..\..\..\arduinoLCD\test\Pain Drain\libraries\lvgl\src\draw\sw/lv_draw_sw_blend.c ****         else {
 187:..\..\..\arduinoLCD\test\Pain Drain\libraries\lvgl\src\draw\sw/lv_draw_sw_blend.c ****             map_normal(dest_buf, &blend_area, dest_stride, src_buf, src_stride, dsc->opa, mask, mas
 188:..\..\..\arduinoLCD\test\Pain Drain\libraries\lvgl\src\draw\sw/lv_draw_sw_blend.c ****         }
 189:..\..\..\arduinoLCD\test\Pain Drain\libraries\lvgl\src\draw\sw/lv_draw_sw_blend.c ****     }
 190:..\..\..\arduinoLCD\test\Pain Drain\libraries\lvgl\src\draw\sw/lv_draw_sw_blend.c ****     else {
 191:..\..\..\arduinoLCD\test\Pain Drain\libraries\lvgl\src\draw\sw/lv_draw_sw_blend.c **** #if LV_DRAW_COMPLEX
 192:..\..\..\arduinoLCD\test\Pain Drain\libraries\lvgl\src\draw\sw/lv_draw_sw_blend.c ****         if(dsc->src_buf == NULL) {
 193:..\..\..\arduinoLCD\test\Pain Drain\libraries\lvgl\src\draw\sw/lv_draw_sw_blend.c ****             fill_blended(dest_buf, &blend_area, dest_stride, dsc->color, dsc->opa, mask, mask_strid
 194:..\..\..\arduinoLCD\test\Pain Drain\libraries\lvgl\src\draw\sw/lv_draw_sw_blend.c ****         }
 195:..\..\..\arduinoLCD\test\Pain Drain\libraries\lvgl\src\draw\sw/lv_draw_sw_blend.c ****         else {
 196:..\..\..\arduinoLCD\test\Pain Drain\libraries\lvgl\src\draw\sw/lv_draw_sw_blend.c ****             map_blended(dest_buf, &blend_area, dest_stride, src_buf, src_stride, dsc->opa, mask, ma
 197:..\..\..\arduinoLCD\test\Pain Drain\libraries\lvgl\src\draw\sw/lv_draw_sw_blend.c ****         }
 198:..\..\..\arduinoLCD\test\Pain Drain\libraries\lvgl\src\draw\sw/lv_draw_sw_blend.c **** #endif
 199:..\..\..\arduinoLCD\test\Pain Drain\libraries\lvgl\src\draw\sw/lv_draw_sw_blend.c ****     }
 200:..\..\..\arduinoLCD\test\Pain Drain\libraries\lvgl\src\draw\sw/lv_draw_sw_blend.c **** }
 201:..\..\..\arduinoLCD\test\Pain Drain\libraries\lvgl\src\draw\sw/lv_draw_sw_blend.c **** 
ARM GAS  C:\Users\haske\AppData\Local\Temp\cc7ZkKza.s 			page 5


 202:..\..\..\arduinoLCD\test\Pain Drain\libraries\lvgl\src\draw\sw/lv_draw_sw_blend.c **** 
 203:..\..\..\arduinoLCD\test\Pain Drain\libraries\lvgl\src\draw\sw/lv_draw_sw_blend.c **** /**********************
 204:..\..\..\arduinoLCD\test\Pain Drain\libraries\lvgl\src\draw\sw/lv_draw_sw_blend.c ****  *   STATIC FUNCTIONS
 205:..\..\..\arduinoLCD\test\Pain Drain\libraries\lvgl\src\draw\sw/lv_draw_sw_blend.c ****  **********************/
 206:..\..\..\arduinoLCD\test\Pain Drain\libraries\lvgl\src\draw\sw/lv_draw_sw_blend.c **** 
 207:..\..\..\arduinoLCD\test\Pain Drain\libraries\lvgl\src\draw\sw/lv_draw_sw_blend.c **** static void fill_set_px(lv_color_t * dest_buf, const lv_area_t * blend_area, lv_coord_t dest_stride
 208:..\..\..\arduinoLCD\test\Pain Drain\libraries\lvgl\src\draw\sw/lv_draw_sw_blend.c ****                         lv_color_t color, lv_opa_t opa, const lv_opa_t * mask, lv_coord_t mask_stid
 209:..\..\..\arduinoLCD\test\Pain Drain\libraries\lvgl\src\draw\sw/lv_draw_sw_blend.c **** {
 210:..\..\..\arduinoLCD\test\Pain Drain\libraries\lvgl\src\draw\sw/lv_draw_sw_blend.c ****     lv_disp_t * disp = _lv_refr_get_disp_refreshing();
 211:..\..\..\arduinoLCD\test\Pain Drain\libraries\lvgl\src\draw\sw/lv_draw_sw_blend.c **** 
 212:..\..\..\arduinoLCD\test\Pain Drain\libraries\lvgl\src\draw\sw/lv_draw_sw_blend.c ****     int32_t x;
 213:..\..\..\arduinoLCD\test\Pain Drain\libraries\lvgl\src\draw\sw/lv_draw_sw_blend.c ****     int32_t y;
 214:..\..\..\arduinoLCD\test\Pain Drain\libraries\lvgl\src\draw\sw/lv_draw_sw_blend.c **** 
 215:..\..\..\arduinoLCD\test\Pain Drain\libraries\lvgl\src\draw\sw/lv_draw_sw_blend.c ****     if(mask == NULL) {
 216:..\..\..\arduinoLCD\test\Pain Drain\libraries\lvgl\src\draw\sw/lv_draw_sw_blend.c ****         for(y = blend_area->y1; y <= blend_area->y2; y++) {
 217:..\..\..\arduinoLCD\test\Pain Drain\libraries\lvgl\src\draw\sw/lv_draw_sw_blend.c ****             for(x = blend_area->x1; x <= blend_area->x2; x++) {
 218:..\..\..\arduinoLCD\test\Pain Drain\libraries\lvgl\src\draw\sw/lv_draw_sw_blend.c ****                 disp->driver->set_px_cb(disp->driver, (void *)dest_buf, dest_stride, x, y, color, o
 219:..\..\..\arduinoLCD\test\Pain Drain\libraries\lvgl\src\draw\sw/lv_draw_sw_blend.c ****             }
 220:..\..\..\arduinoLCD\test\Pain Drain\libraries\lvgl\src\draw\sw/lv_draw_sw_blend.c ****         }
 221:..\..\..\arduinoLCD\test\Pain Drain\libraries\lvgl\src\draw\sw/lv_draw_sw_blend.c ****     }
 222:..\..\..\arduinoLCD\test\Pain Drain\libraries\lvgl\src\draw\sw/lv_draw_sw_blend.c ****     else {
 223:..\..\..\arduinoLCD\test\Pain Drain\libraries\lvgl\src\draw\sw/lv_draw_sw_blend.c ****         int32_t w = lv_area_get_width(blend_area);
 224:..\..\..\arduinoLCD\test\Pain Drain\libraries\lvgl\src\draw\sw/lv_draw_sw_blend.c ****         int32_t h = lv_area_get_height(blend_area);
 225:..\..\..\arduinoLCD\test\Pain Drain\libraries\lvgl\src\draw\sw/lv_draw_sw_blend.c **** 
 226:..\..\..\arduinoLCD\test\Pain Drain\libraries\lvgl\src\draw\sw/lv_draw_sw_blend.c ****         for(y = 0; y < h; y++) {
 227:..\..\..\arduinoLCD\test\Pain Drain\libraries\lvgl\src\draw\sw/lv_draw_sw_blend.c ****             for(x = 0; x < w; x++) {
 228:..\..\..\arduinoLCD\test\Pain Drain\libraries\lvgl\src\draw\sw/lv_draw_sw_blend.c ****                 if(mask[x]) {
 229:..\..\..\arduinoLCD\test\Pain Drain\libraries\lvgl\src\draw\sw/lv_draw_sw_blend.c **** 
 230:..\..\..\arduinoLCD\test\Pain Drain\libraries\lvgl\src\draw\sw/lv_draw_sw_blend.c **** 
 231:..\..\..\arduinoLCD\test\Pain Drain\libraries\lvgl\src\draw\sw/lv_draw_sw_blend.c ****                     disp->driver->set_px_cb(disp->driver, (void *)dest_buf, dest_stride, blend_area
 232:..\..\..\arduinoLCD\test\Pain Drain\libraries\lvgl\src\draw\sw/lv_draw_sw_blend.c ****                                             (uint32_t)((uint32_t)opa * mask[x]) >> 8);
 233:..\..\..\arduinoLCD\test\Pain Drain\libraries\lvgl\src\draw\sw/lv_draw_sw_blend.c ****                 }
 234:..\..\..\arduinoLCD\test\Pain Drain\libraries\lvgl\src\draw\sw/lv_draw_sw_blend.c ****             }
 235:..\..\..\arduinoLCD\test\Pain Drain\libraries\lvgl\src\draw\sw/lv_draw_sw_blend.c ****             mask += mask_stide;
 236:..\..\..\arduinoLCD\test\Pain Drain\libraries\lvgl\src\draw\sw/lv_draw_sw_blend.c ****         }
 237:..\..\..\arduinoLCD\test\Pain Drain\libraries\lvgl\src\draw\sw/lv_draw_sw_blend.c ****     }
 238:..\..\..\arduinoLCD\test\Pain Drain\libraries\lvgl\src\draw\sw/lv_draw_sw_blend.c **** }
 239:..\..\..\arduinoLCD\test\Pain Drain\libraries\lvgl\src\draw\sw/lv_draw_sw_blend.c **** 
 240:..\..\..\arduinoLCD\test\Pain Drain\libraries\lvgl\src\draw\sw/lv_draw_sw_blend.c **** LV_ATTRIBUTE_FAST_MEM static void fill_normal(lv_color_t * dest_buf, const lv_area_t * dest_area,
 241:..\..\..\arduinoLCD\test\Pain Drain\libraries\lvgl\src\draw\sw/lv_draw_sw_blend.c ****                                               lv_coord_t dest_stride, lv_color_t color, lv_opa_t op
 242:..\..\..\arduinoLCD\test\Pain Drain\libraries\lvgl\src\draw\sw/lv_draw_sw_blend.c **** {
 243:..\..\..\arduinoLCD\test\Pain Drain\libraries\lvgl\src\draw\sw/lv_draw_sw_blend.c ****     int32_t w = lv_area_get_width(dest_area);
 244:..\..\..\arduinoLCD\test\Pain Drain\libraries\lvgl\src\draw\sw/lv_draw_sw_blend.c ****     int32_t h = lv_area_get_height(dest_area);
 245:..\..\..\arduinoLCD\test\Pain Drain\libraries\lvgl\src\draw\sw/lv_draw_sw_blend.c **** 
 246:..\..\..\arduinoLCD\test\Pain Drain\libraries\lvgl\src\draw\sw/lv_draw_sw_blend.c ****     int32_t x;
 247:..\..\..\arduinoLCD\test\Pain Drain\libraries\lvgl\src\draw\sw/lv_draw_sw_blend.c ****     int32_t y;
 248:..\..\..\arduinoLCD\test\Pain Drain\libraries\lvgl\src\draw\sw/lv_draw_sw_blend.c **** 
 249:..\..\..\arduinoLCD\test\Pain Drain\libraries\lvgl\src\draw\sw/lv_draw_sw_blend.c ****     /*No mask*/
 250:..\..\..\arduinoLCD\test\Pain Drain\libraries\lvgl\src\draw\sw/lv_draw_sw_blend.c ****     if(mask == NULL) {
 251:..\..\..\arduinoLCD\test\Pain Drain\libraries\lvgl\src\draw\sw/lv_draw_sw_blend.c ****         if(opa >= LV_OPA_MAX) {
 252:..\..\..\arduinoLCD\test\Pain Drain\libraries\lvgl\src\draw\sw/lv_draw_sw_blend.c ****             for(y = 0; y < h; y++) {
 253:..\..\..\arduinoLCD\test\Pain Drain\libraries\lvgl\src\draw\sw/lv_draw_sw_blend.c ****                 lv_color_fill(dest_buf, color, w);
 254:..\..\..\arduinoLCD\test\Pain Drain\libraries\lvgl\src\draw\sw/lv_draw_sw_blend.c ****                 dest_buf += dest_stride;
 255:..\..\..\arduinoLCD\test\Pain Drain\libraries\lvgl\src\draw\sw/lv_draw_sw_blend.c ****             }
 256:..\..\..\arduinoLCD\test\Pain Drain\libraries\lvgl\src\draw\sw/lv_draw_sw_blend.c ****         }
 257:..\..\..\arduinoLCD\test\Pain Drain\libraries\lvgl\src\draw\sw/lv_draw_sw_blend.c ****         /*Has opacity*/
 258:..\..\..\arduinoLCD\test\Pain Drain\libraries\lvgl\src\draw\sw/lv_draw_sw_blend.c ****         else {
ARM GAS  C:\Users\haske\AppData\Local\Temp\cc7ZkKza.s 			page 6


 259:..\..\..\arduinoLCD\test\Pain Drain\libraries\lvgl\src\draw\sw/lv_draw_sw_blend.c ****             lv_color_t last_dest_color = lv_color_black();
 260:..\..\..\arduinoLCD\test\Pain Drain\libraries\lvgl\src\draw\sw/lv_draw_sw_blend.c ****             lv_color_t last_res_color = lv_color_mix(color, last_dest_color, opa);
 261:..\..\..\arduinoLCD\test\Pain Drain\libraries\lvgl\src\draw\sw/lv_draw_sw_blend.c **** 
 262:..\..\..\arduinoLCD\test\Pain Drain\libraries\lvgl\src\draw\sw/lv_draw_sw_blend.c **** #if LV_COLOR_MIX_ROUND_OFS == 0 && LV_COLOR_DEPTH == 16
 263:..\..\..\arduinoLCD\test\Pain Drain\libraries\lvgl\src\draw\sw/lv_draw_sw_blend.c ****             /*lv_color_mix work with an optimized algorithm with 16 bit color depth.
 264:..\..\..\arduinoLCD\test\Pain Drain\libraries\lvgl\src\draw\sw/lv_draw_sw_blend.c ****              *However, it introduces some rounded error on opa.
 265:..\..\..\arduinoLCD\test\Pain Drain\libraries\lvgl\src\draw\sw/lv_draw_sw_blend.c ****              *Introduce the same error here too to make lv_color_premult produces the same result *
 266:..\..\..\arduinoLCD\test\Pain Drain\libraries\lvgl\src\draw\sw/lv_draw_sw_blend.c ****             opa = (uint32_t)((uint32_t)opa + 4) >> 3;
 267:..\..\..\arduinoLCD\test\Pain Drain\libraries\lvgl\src\draw\sw/lv_draw_sw_blend.c ****             opa = opa << 3;
 268:..\..\..\arduinoLCD\test\Pain Drain\libraries\lvgl\src\draw\sw/lv_draw_sw_blend.c **** #endif
 269:..\..\..\arduinoLCD\test\Pain Drain\libraries\lvgl\src\draw\sw/lv_draw_sw_blend.c **** 
 270:..\..\..\arduinoLCD\test\Pain Drain\libraries\lvgl\src\draw\sw/lv_draw_sw_blend.c ****             uint16_t color_premult[3];
 271:..\..\..\arduinoLCD\test\Pain Drain\libraries\lvgl\src\draw\sw/lv_draw_sw_blend.c ****             lv_color_premult(color, opa, color_premult);
 272:..\..\..\arduinoLCD\test\Pain Drain\libraries\lvgl\src\draw\sw/lv_draw_sw_blend.c ****             lv_opa_t opa_inv = 255 - opa;
 273:..\..\..\arduinoLCD\test\Pain Drain\libraries\lvgl\src\draw\sw/lv_draw_sw_blend.c **** 
 274:..\..\..\arduinoLCD\test\Pain Drain\libraries\lvgl\src\draw\sw/lv_draw_sw_blend.c ****             for(y = 0; y < h; y++) {
 275:..\..\..\arduinoLCD\test\Pain Drain\libraries\lvgl\src\draw\sw/lv_draw_sw_blend.c ****                 for(x = 0; x < w; x++) {
 276:..\..\..\arduinoLCD\test\Pain Drain\libraries\lvgl\src\draw\sw/lv_draw_sw_blend.c ****                     if(last_dest_color.full != dest_buf[x].full) {
 277:..\..\..\arduinoLCD\test\Pain Drain\libraries\lvgl\src\draw\sw/lv_draw_sw_blend.c ****                         last_dest_color = dest_buf[x];
 278:..\..\..\arduinoLCD\test\Pain Drain\libraries\lvgl\src\draw\sw/lv_draw_sw_blend.c ****                         last_res_color = lv_color_mix_premult(color_premult, dest_buf[x], opa_inv);
 279:..\..\..\arduinoLCD\test\Pain Drain\libraries\lvgl\src\draw\sw/lv_draw_sw_blend.c ****                     }
 280:..\..\..\arduinoLCD\test\Pain Drain\libraries\lvgl\src\draw\sw/lv_draw_sw_blend.c ****                     dest_buf[x] = last_res_color;
 281:..\..\..\arduinoLCD\test\Pain Drain\libraries\lvgl\src\draw\sw/lv_draw_sw_blend.c ****                 }
 282:..\..\..\arduinoLCD\test\Pain Drain\libraries\lvgl\src\draw\sw/lv_draw_sw_blend.c ****                 dest_buf += dest_stride;
 283:..\..\..\arduinoLCD\test\Pain Drain\libraries\lvgl\src\draw\sw/lv_draw_sw_blend.c ****             }
 284:..\..\..\arduinoLCD\test\Pain Drain\libraries\lvgl\src\draw\sw/lv_draw_sw_blend.c ****         }
 285:..\..\..\arduinoLCD\test\Pain Drain\libraries\lvgl\src\draw\sw/lv_draw_sw_blend.c ****     }
 286:..\..\..\arduinoLCD\test\Pain Drain\libraries\lvgl\src\draw\sw/lv_draw_sw_blend.c ****     /*Masked*/
 287:..\..\..\arduinoLCD\test\Pain Drain\libraries\lvgl\src\draw\sw/lv_draw_sw_blend.c ****     else {
 288:..\..\..\arduinoLCD\test\Pain Drain\libraries\lvgl\src\draw\sw/lv_draw_sw_blend.c **** #if LV_COLOR_DEPTH == 16
 289:..\..\..\arduinoLCD\test\Pain Drain\libraries\lvgl\src\draw\sw/lv_draw_sw_blend.c ****         uint32_t c32 = color.full + ((uint32_t)color.full << 16);
 290:..\..\..\arduinoLCD\test\Pain Drain\libraries\lvgl\src\draw\sw/lv_draw_sw_blend.c **** #endif
 291:..\..\..\arduinoLCD\test\Pain Drain\libraries\lvgl\src\draw\sw/lv_draw_sw_blend.c ****         /*Only the mask matters*/
 292:..\..\..\arduinoLCD\test\Pain Drain\libraries\lvgl\src\draw\sw/lv_draw_sw_blend.c ****         if(opa >= LV_OPA_MAX) {
 293:..\..\..\arduinoLCD\test\Pain Drain\libraries\lvgl\src\draw\sw/lv_draw_sw_blend.c ****             int32_t x_end4 = w - 4;
 294:..\..\..\arduinoLCD\test\Pain Drain\libraries\lvgl\src\draw\sw/lv_draw_sw_blend.c ****             for(y = 0; y < h; y++) {
 295:..\..\..\arduinoLCD\test\Pain Drain\libraries\lvgl\src\draw\sw/lv_draw_sw_blend.c ****                 for(x = 0; x < w && ((lv_uintptr_t)(mask) & 0x3); x++) {
 296:..\..\..\arduinoLCD\test\Pain Drain\libraries\lvgl\src\draw\sw/lv_draw_sw_blend.c ****                     FILL_NORMAL_MASK_PX(color)
 297:..\..\..\arduinoLCD\test\Pain Drain\libraries\lvgl\src\draw\sw/lv_draw_sw_blend.c ****                 }
 298:..\..\..\arduinoLCD\test\Pain Drain\libraries\lvgl\src\draw\sw/lv_draw_sw_blend.c **** 
 299:..\..\..\arduinoLCD\test\Pain Drain\libraries\lvgl\src\draw\sw/lv_draw_sw_blend.c ****                 for(; x <= x_end4; x += 4) {
 300:..\..\..\arduinoLCD\test\Pain Drain\libraries\lvgl\src\draw\sw/lv_draw_sw_blend.c ****                     uint32_t mask32 = *((uint32_t *)mask);
 301:..\..\..\arduinoLCD\test\Pain Drain\libraries\lvgl\src\draw\sw/lv_draw_sw_blend.c ****                     if(mask32 == 0xFFFFFFFF) {
 302:..\..\..\arduinoLCD\test\Pain Drain\libraries\lvgl\src\draw\sw/lv_draw_sw_blend.c **** #if LV_COLOR_DEPTH == 16
 303:..\..\..\arduinoLCD\test\Pain Drain\libraries\lvgl\src\draw\sw/lv_draw_sw_blend.c ****                         if((lv_uintptr_t)dest_buf & 0x3) {
 304:..\..\..\arduinoLCD\test\Pain Drain\libraries\lvgl\src\draw\sw/lv_draw_sw_blend.c ****                             *(dest_buf + 0) = color;
 305:..\..\..\arduinoLCD\test\Pain Drain\libraries\lvgl\src\draw\sw/lv_draw_sw_blend.c ****                             uint32_t * d = (uint32_t *)(dest_buf + 1);
 306:..\..\..\arduinoLCD\test\Pain Drain\libraries\lvgl\src\draw\sw/lv_draw_sw_blend.c ****                             *d = c32;
 307:..\..\..\arduinoLCD\test\Pain Drain\libraries\lvgl\src\draw\sw/lv_draw_sw_blend.c ****                             *(dest_buf + 3) = color;
 308:..\..\..\arduinoLCD\test\Pain Drain\libraries\lvgl\src\draw\sw/lv_draw_sw_blend.c ****                         }
 309:..\..\..\arduinoLCD\test\Pain Drain\libraries\lvgl\src\draw\sw/lv_draw_sw_blend.c ****                         else {
 310:..\..\..\arduinoLCD\test\Pain Drain\libraries\lvgl\src\draw\sw/lv_draw_sw_blend.c ****                             uint32_t * d = (uint32_t *)dest_buf;
 311:..\..\..\arduinoLCD\test\Pain Drain\libraries\lvgl\src\draw\sw/lv_draw_sw_blend.c ****                             *d = c32;
 312:..\..\..\arduinoLCD\test\Pain Drain\libraries\lvgl\src\draw\sw/lv_draw_sw_blend.c ****                             *(d + 1) = c32;
 313:..\..\..\arduinoLCD\test\Pain Drain\libraries\lvgl\src\draw\sw/lv_draw_sw_blend.c ****                         }
 314:..\..\..\arduinoLCD\test\Pain Drain\libraries\lvgl\src\draw\sw/lv_draw_sw_blend.c **** #else
 315:..\..\..\arduinoLCD\test\Pain Drain\libraries\lvgl\src\draw\sw/lv_draw_sw_blend.c ****                         dest_buf[0] = color;
ARM GAS  C:\Users\haske\AppData\Local\Temp\cc7ZkKza.s 			page 7


 316:..\..\..\arduinoLCD\test\Pain Drain\libraries\lvgl\src\draw\sw/lv_draw_sw_blend.c ****                         dest_buf[1] = color;
 317:..\..\..\arduinoLCD\test\Pain Drain\libraries\lvgl\src\draw\sw/lv_draw_sw_blend.c ****                         dest_buf[2] = color;
 318:..\..\..\arduinoLCD\test\Pain Drain\libraries\lvgl\src\draw\sw/lv_draw_sw_blend.c ****                         dest_buf[3] = color;
 319:..\..\..\arduinoLCD\test\Pain Drain\libraries\lvgl\src\draw\sw/lv_draw_sw_blend.c **** #endif
 320:..\..\..\arduinoLCD\test\Pain Drain\libraries\lvgl\src\draw\sw/lv_draw_sw_blend.c ****                         dest_buf += 4;
 321:..\..\..\arduinoLCD\test\Pain Drain\libraries\lvgl\src\draw\sw/lv_draw_sw_blend.c ****                         mask += 4;
 322:..\..\..\arduinoLCD\test\Pain Drain\libraries\lvgl\src\draw\sw/lv_draw_sw_blend.c ****                     }
 323:..\..\..\arduinoLCD\test\Pain Drain\libraries\lvgl\src\draw\sw/lv_draw_sw_blend.c ****                     else if(mask32) {
 324:..\..\..\arduinoLCD\test\Pain Drain\libraries\lvgl\src\draw\sw/lv_draw_sw_blend.c ****                         FILL_NORMAL_MASK_PX(color)
 325:..\..\..\arduinoLCD\test\Pain Drain\libraries\lvgl\src\draw\sw/lv_draw_sw_blend.c ****                         FILL_NORMAL_MASK_PX(color)
 326:..\..\..\arduinoLCD\test\Pain Drain\libraries\lvgl\src\draw\sw/lv_draw_sw_blend.c ****                         FILL_NORMAL_MASK_PX(color)
 327:..\..\..\arduinoLCD\test\Pain Drain\libraries\lvgl\src\draw\sw/lv_draw_sw_blend.c ****                         FILL_NORMAL_MASK_PX(color)
 328:..\..\..\arduinoLCD\test\Pain Drain\libraries\lvgl\src\draw\sw/lv_draw_sw_blend.c ****                     }
 329:..\..\..\arduinoLCD\test\Pain Drain\libraries\lvgl\src\draw\sw/lv_draw_sw_blend.c ****                     else {
 330:..\..\..\arduinoLCD\test\Pain Drain\libraries\lvgl\src\draw\sw/lv_draw_sw_blend.c ****                         mask += 4;
 331:..\..\..\arduinoLCD\test\Pain Drain\libraries\lvgl\src\draw\sw/lv_draw_sw_blend.c ****                         dest_buf += 4;
 332:..\..\..\arduinoLCD\test\Pain Drain\libraries\lvgl\src\draw\sw/lv_draw_sw_blend.c ****                     }
 333:..\..\..\arduinoLCD\test\Pain Drain\libraries\lvgl\src\draw\sw/lv_draw_sw_blend.c ****                 }
 334:..\..\..\arduinoLCD\test\Pain Drain\libraries\lvgl\src\draw\sw/lv_draw_sw_blend.c **** 
 335:..\..\..\arduinoLCD\test\Pain Drain\libraries\lvgl\src\draw\sw/lv_draw_sw_blend.c ****                 for(; x < w ; x++) {
 336:..\..\..\arduinoLCD\test\Pain Drain\libraries\lvgl\src\draw\sw/lv_draw_sw_blend.c ****                     FILL_NORMAL_MASK_PX(color)
 337:..\..\..\arduinoLCD\test\Pain Drain\libraries\lvgl\src\draw\sw/lv_draw_sw_blend.c ****                 }
 338:..\..\..\arduinoLCD\test\Pain Drain\libraries\lvgl\src\draw\sw/lv_draw_sw_blend.c ****                 dest_buf += (dest_stride - w);
 339:..\..\..\arduinoLCD\test\Pain Drain\libraries\lvgl\src\draw\sw/lv_draw_sw_blend.c ****                 mask += (mask_stride - w);
 340:..\..\..\arduinoLCD\test\Pain Drain\libraries\lvgl\src\draw\sw/lv_draw_sw_blend.c ****             }
 341:..\..\..\arduinoLCD\test\Pain Drain\libraries\lvgl\src\draw\sw/lv_draw_sw_blend.c ****         }
 342:..\..\..\arduinoLCD\test\Pain Drain\libraries\lvgl\src\draw\sw/lv_draw_sw_blend.c ****         /*With opacity*/
 343:..\..\..\arduinoLCD\test\Pain Drain\libraries\lvgl\src\draw\sw/lv_draw_sw_blend.c ****         else {
 344:..\..\..\arduinoLCD\test\Pain Drain\libraries\lvgl\src\draw\sw/lv_draw_sw_blend.c ****             /*Buffer the result color to avoid recalculating the same color*/
 345:..\..\..\arduinoLCD\test\Pain Drain\libraries\lvgl\src\draw\sw/lv_draw_sw_blend.c ****             lv_color_t last_dest_color;
 346:..\..\..\arduinoLCD\test\Pain Drain\libraries\lvgl\src\draw\sw/lv_draw_sw_blend.c ****             lv_color_t last_res_color;
 347:..\..\..\arduinoLCD\test\Pain Drain\libraries\lvgl\src\draw\sw/lv_draw_sw_blend.c ****             lv_opa_t last_mask = LV_OPA_TRANSP;
 348:..\..\..\arduinoLCD\test\Pain Drain\libraries\lvgl\src\draw\sw/lv_draw_sw_blend.c ****             last_dest_color.full = dest_buf[0].full;
 349:..\..\..\arduinoLCD\test\Pain Drain\libraries\lvgl\src\draw\sw/lv_draw_sw_blend.c ****             last_res_color.full = dest_buf[0].full;
 350:..\..\..\arduinoLCD\test\Pain Drain\libraries\lvgl\src\draw\sw/lv_draw_sw_blend.c ****             lv_opa_t opa_tmp = LV_OPA_TRANSP;
 351:..\..\..\arduinoLCD\test\Pain Drain\libraries\lvgl\src\draw\sw/lv_draw_sw_blend.c **** 
 352:..\..\..\arduinoLCD\test\Pain Drain\libraries\lvgl\src\draw\sw/lv_draw_sw_blend.c ****             for(y = 0; y < h; y++) {
 353:..\..\..\arduinoLCD\test\Pain Drain\libraries\lvgl\src\draw\sw/lv_draw_sw_blend.c ****                 for(x = 0; x < w; x++) {
 354:..\..\..\arduinoLCD\test\Pain Drain\libraries\lvgl\src\draw\sw/lv_draw_sw_blend.c ****                     if(*mask) {
 355:..\..\..\arduinoLCD\test\Pain Drain\libraries\lvgl\src\draw\sw/lv_draw_sw_blend.c ****                         if(*mask != last_mask) opa_tmp = *mask == LV_OPA_COVER ? opa :
 356:..\..\..\arduinoLCD\test\Pain Drain\libraries\lvgl\src\draw\sw/lv_draw_sw_blend.c ****                                                              (uint32_t)((uint32_t)(*mask) * opa) >>
 357:..\..\..\arduinoLCD\test\Pain Drain\libraries\lvgl\src\draw\sw/lv_draw_sw_blend.c ****                         if(*mask != last_mask || last_dest_color.full != dest_buf[x].full) {
 358:..\..\..\arduinoLCD\test\Pain Drain\libraries\lvgl\src\draw\sw/lv_draw_sw_blend.c ****                             if(opa_tmp == LV_OPA_COVER) last_res_color = color;
 359:..\..\..\arduinoLCD\test\Pain Drain\libraries\lvgl\src\draw\sw/lv_draw_sw_blend.c ****                             else last_res_color = lv_color_mix(color, dest_buf[x], opa_tmp);
 360:..\..\..\arduinoLCD\test\Pain Drain\libraries\lvgl\src\draw\sw/lv_draw_sw_blend.c ****                             last_mask = *mask;
 361:..\..\..\arduinoLCD\test\Pain Drain\libraries\lvgl\src\draw\sw/lv_draw_sw_blend.c ****                             last_dest_color.full = dest_buf[x].full;
 362:..\..\..\arduinoLCD\test\Pain Drain\libraries\lvgl\src\draw\sw/lv_draw_sw_blend.c ****                         }
 363:..\..\..\arduinoLCD\test\Pain Drain\libraries\lvgl\src\draw\sw/lv_draw_sw_blend.c ****                         dest_buf[x] = last_res_color;
 364:..\..\..\arduinoLCD\test\Pain Drain\libraries\lvgl\src\draw\sw/lv_draw_sw_blend.c ****                     }
 365:..\..\..\arduinoLCD\test\Pain Drain\libraries\lvgl\src\draw\sw/lv_draw_sw_blend.c ****                     mask++;
 366:..\..\..\arduinoLCD\test\Pain Drain\libraries\lvgl\src\draw\sw/lv_draw_sw_blend.c ****                 }
 367:..\..\..\arduinoLCD\test\Pain Drain\libraries\lvgl\src\draw\sw/lv_draw_sw_blend.c ****                 dest_buf += dest_stride;
 368:..\..\..\arduinoLCD\test\Pain Drain\libraries\lvgl\src\draw\sw/lv_draw_sw_blend.c ****                 mask += (mask_stride - w);
 369:..\..\..\arduinoLCD\test\Pain Drain\libraries\lvgl\src\draw\sw/lv_draw_sw_blend.c ****             }
 370:..\..\..\arduinoLCD\test\Pain Drain\libraries\lvgl\src\draw\sw/lv_draw_sw_blend.c ****         }
 371:..\..\..\arduinoLCD\test\Pain Drain\libraries\lvgl\src\draw\sw/lv_draw_sw_blend.c ****     }
 372:..\..\..\arduinoLCD\test\Pain Drain\libraries\lvgl\src\draw\sw/lv_draw_sw_blend.c **** }
ARM GAS  C:\Users\haske\AppData\Local\Temp\cc7ZkKza.s 			page 8


 373:..\..\..\arduinoLCD\test\Pain Drain\libraries\lvgl\src\draw\sw/lv_draw_sw_blend.c **** 
 374:..\..\..\arduinoLCD\test\Pain Drain\libraries\lvgl\src\draw\sw/lv_draw_sw_blend.c **** #if LV_COLOR_SCREEN_TRANSP
 375:..\..\..\arduinoLCD\test\Pain Drain\libraries\lvgl\src\draw\sw/lv_draw_sw_blend.c **** static inline void set_px_argb(uint8_t * buf, lv_color_t color, lv_opa_t opa)
 376:..\..\..\arduinoLCD\test\Pain Drain\libraries\lvgl\src\draw\sw/lv_draw_sw_blend.c **** {
 377:..\..\..\arduinoLCD\test\Pain Drain\libraries\lvgl\src\draw\sw/lv_draw_sw_blend.c ****     lv_color_t bg_color;
 378:..\..\..\arduinoLCD\test\Pain Drain\libraries\lvgl\src\draw\sw/lv_draw_sw_blend.c ****     lv_color_t res_color;
 379:..\..\..\arduinoLCD\test\Pain Drain\libraries\lvgl\src\draw\sw/lv_draw_sw_blend.c ****     lv_opa_t bg_opa = buf[LV_IMG_PX_SIZE_ALPHA_BYTE - 1];
 380:..\..\..\arduinoLCD\test\Pain Drain\libraries\lvgl\src\draw\sw/lv_draw_sw_blend.c **** #if LV_COLOR_DEPTH == 8
 381:..\..\..\arduinoLCD\test\Pain Drain\libraries\lvgl\src\draw\sw/lv_draw_sw_blend.c ****     bg_color.full = buf[0];
 382:..\..\..\arduinoLCD\test\Pain Drain\libraries\lvgl\src\draw\sw/lv_draw_sw_blend.c ****     lv_color_mix_with_alpha(bg_color, bg_opa, color, opa, &res_color, &buf[1]);
 383:..\..\..\arduinoLCD\test\Pain Drain\libraries\lvgl\src\draw\sw/lv_draw_sw_blend.c ****     if(buf[1] <= LV_OPA_MIN) return;
 384:..\..\..\arduinoLCD\test\Pain Drain\libraries\lvgl\src\draw\sw/lv_draw_sw_blend.c ****     buf[0] = res_color.full;
 385:..\..\..\arduinoLCD\test\Pain Drain\libraries\lvgl\src\draw\sw/lv_draw_sw_blend.c **** #elif LV_COLOR_DEPTH == 16
 386:..\..\..\arduinoLCD\test\Pain Drain\libraries\lvgl\src\draw\sw/lv_draw_sw_blend.c ****     bg_color.full = buf[0] + (buf[1] << 8);
 387:..\..\..\arduinoLCD\test\Pain Drain\libraries\lvgl\src\draw\sw/lv_draw_sw_blend.c ****     lv_color_mix_with_alpha(bg_color, bg_opa, color, opa, &res_color, &buf[2]);
 388:..\..\..\arduinoLCD\test\Pain Drain\libraries\lvgl\src\draw\sw/lv_draw_sw_blend.c ****     if(buf[2] <= LV_OPA_MIN) return;
 389:..\..\..\arduinoLCD\test\Pain Drain\libraries\lvgl\src\draw\sw/lv_draw_sw_blend.c ****     buf[0] = res_color.full & 0xff;
 390:..\..\..\arduinoLCD\test\Pain Drain\libraries\lvgl\src\draw\sw/lv_draw_sw_blend.c ****     buf[1] = res_color.full >> 8;
 391:..\..\..\arduinoLCD\test\Pain Drain\libraries\lvgl\src\draw\sw/lv_draw_sw_blend.c **** #elif LV_COLOR_DEPTH == 32
 392:..\..\..\arduinoLCD\test\Pain Drain\libraries\lvgl\src\draw\sw/lv_draw_sw_blend.c ****     bg_color = *((lv_color_t *)buf);
 393:..\..\..\arduinoLCD\test\Pain Drain\libraries\lvgl\src\draw\sw/lv_draw_sw_blend.c ****     lv_color_mix_with_alpha(bg_color, bg_opa, color, opa, &res_color, &buf[3]);
 394:..\..\..\arduinoLCD\test\Pain Drain\libraries\lvgl\src\draw\sw/lv_draw_sw_blend.c ****     if(buf[3] <= LV_OPA_MIN) return;
 395:..\..\..\arduinoLCD\test\Pain Drain\libraries\lvgl\src\draw\sw/lv_draw_sw_blend.c ****     buf[0] = res_color.ch.blue;
 396:..\..\..\arduinoLCD\test\Pain Drain\libraries\lvgl\src\draw\sw/lv_draw_sw_blend.c ****     buf[1] = res_color.ch.green;
 397:..\..\..\arduinoLCD\test\Pain Drain\libraries\lvgl\src\draw\sw/lv_draw_sw_blend.c ****     buf[2] = res_color.ch.red;
 398:..\..\..\arduinoLCD\test\Pain Drain\libraries\lvgl\src\draw\sw/lv_draw_sw_blend.c **** #endif
 399:..\..\..\arduinoLCD\test\Pain Drain\libraries\lvgl\src\draw\sw/lv_draw_sw_blend.c **** }
 400:..\..\..\arduinoLCD\test\Pain Drain\libraries\lvgl\src\draw\sw/lv_draw_sw_blend.c **** 
 401:..\..\..\arduinoLCD\test\Pain Drain\libraries\lvgl\src\draw\sw/lv_draw_sw_blend.c **** static inline void set_px_argb_blend(uint8_t * buf, lv_color_t color, lv_opa_t opa, lv_color_t (*bl
 402:..\..\..\arduinoLCD\test\Pain Drain\libraries\lvgl\src\draw\sw/lv_draw_sw_blend.c ****                                                                                                    
 403:..\..\..\arduinoLCD\test\Pain Drain\libraries\lvgl\src\draw\sw/lv_draw_sw_blend.c **** {
 404:..\..\..\arduinoLCD\test\Pain Drain\libraries\lvgl\src\draw\sw/lv_draw_sw_blend.c ****     static lv_color_t last_dest_color;
 405:..\..\..\arduinoLCD\test\Pain Drain\libraries\lvgl\src\draw\sw/lv_draw_sw_blend.c ****     static lv_color_t last_src_color;
 406:..\..\..\arduinoLCD\test\Pain Drain\libraries\lvgl\src\draw\sw/lv_draw_sw_blend.c ****     static lv_color_t last_res_color;
 407:..\..\..\arduinoLCD\test\Pain Drain\libraries\lvgl\src\draw\sw/lv_draw_sw_blend.c ****     static uint32_t last_opa = 0xffff; /*Set to an invalid value for first*/
 408:..\..\..\arduinoLCD\test\Pain Drain\libraries\lvgl\src\draw\sw/lv_draw_sw_blend.c **** 
 409:..\..\..\arduinoLCD\test\Pain Drain\libraries\lvgl\src\draw\sw/lv_draw_sw_blend.c ****     lv_color_t bg_color;
 410:..\..\..\arduinoLCD\test\Pain Drain\libraries\lvgl\src\draw\sw/lv_draw_sw_blend.c **** 
 411:..\..\..\arduinoLCD\test\Pain Drain\libraries\lvgl\src\draw\sw/lv_draw_sw_blend.c ****     /*Get the BG color*/
 412:..\..\..\arduinoLCD\test\Pain Drain\libraries\lvgl\src\draw\sw/lv_draw_sw_blend.c **** #if LV_COLOR_DEPTH == 8
 413:..\..\..\arduinoLCD\test\Pain Drain\libraries\lvgl\src\draw\sw/lv_draw_sw_blend.c ****     if(buf[1] <= LV_OPA_MIN) return;
 414:..\..\..\arduinoLCD\test\Pain Drain\libraries\lvgl\src\draw\sw/lv_draw_sw_blend.c ****     bg_color.full = buf[0];
 415:..\..\..\arduinoLCD\test\Pain Drain\libraries\lvgl\src\draw\sw/lv_draw_sw_blend.c **** #elif LV_COLOR_DEPTH == 16
 416:..\..\..\arduinoLCD\test\Pain Drain\libraries\lvgl\src\draw\sw/lv_draw_sw_blend.c ****     if(buf[2] <= LV_OPA_MIN) return;
 417:..\..\..\arduinoLCD\test\Pain Drain\libraries\lvgl\src\draw\sw/lv_draw_sw_blend.c ****     bg_color.full = buf[0] + (buf[1] << 8);
 418:..\..\..\arduinoLCD\test\Pain Drain\libraries\lvgl\src\draw\sw/lv_draw_sw_blend.c **** #elif LV_COLOR_DEPTH == 32
 419:..\..\..\arduinoLCD\test\Pain Drain\libraries\lvgl\src\draw\sw/lv_draw_sw_blend.c ****     if(buf[3] <= LV_OPA_MIN) return;
 420:..\..\..\arduinoLCD\test\Pain Drain\libraries\lvgl\src\draw\sw/lv_draw_sw_blend.c ****     bg_color = *((lv_color_t *)buf);
 421:..\..\..\arduinoLCD\test\Pain Drain\libraries\lvgl\src\draw\sw/lv_draw_sw_blend.c **** #endif
 422:..\..\..\arduinoLCD\test\Pain Drain\libraries\lvgl\src\draw\sw/lv_draw_sw_blend.c **** 
 423:..\..\..\arduinoLCD\test\Pain Drain\libraries\lvgl\src\draw\sw/lv_draw_sw_blend.c ****     /*Get the result color*/
 424:..\..\..\arduinoLCD\test\Pain Drain\libraries\lvgl\src\draw\sw/lv_draw_sw_blend.c ****     if(last_dest_color.full != bg_color.full || last_src_color.full != color.full || last_opa != op
 425:..\..\..\arduinoLCD\test\Pain Drain\libraries\lvgl\src\draw\sw/lv_draw_sw_blend.c ****         last_dest_color = bg_color;
 426:..\..\..\arduinoLCD\test\Pain Drain\libraries\lvgl\src\draw\sw/lv_draw_sw_blend.c ****         last_src_color = color;
 427:..\..\..\arduinoLCD\test\Pain Drain\libraries\lvgl\src\draw\sw/lv_draw_sw_blend.c ****         last_opa = opa;
 428:..\..\..\arduinoLCD\test\Pain Drain\libraries\lvgl\src\draw\sw/lv_draw_sw_blend.c ****         last_res_color = blend_fp(last_src_color, last_dest_color, last_opa);
 429:..\..\..\arduinoLCD\test\Pain Drain\libraries\lvgl\src\draw\sw/lv_draw_sw_blend.c ****     }
ARM GAS  C:\Users\haske\AppData\Local\Temp\cc7ZkKza.s 			page 9


 430:..\..\..\arduinoLCD\test\Pain Drain\libraries\lvgl\src\draw\sw/lv_draw_sw_blend.c **** 
 431:..\..\..\arduinoLCD\test\Pain Drain\libraries\lvgl\src\draw\sw/lv_draw_sw_blend.c ****     /*Set the result color*/
 432:..\..\..\arduinoLCD\test\Pain Drain\libraries\lvgl\src\draw\sw/lv_draw_sw_blend.c **** #if LV_COLOR_DEPTH == 8
 433:..\..\..\arduinoLCD\test\Pain Drain\libraries\lvgl\src\draw\sw/lv_draw_sw_blend.c ****     buf[0] = res_color.full;
 434:..\..\..\arduinoLCD\test\Pain Drain\libraries\lvgl\src\draw\sw/lv_draw_sw_blend.c **** #elif LV_COLOR_DEPTH == 16
 435:..\..\..\arduinoLCD\test\Pain Drain\libraries\lvgl\src\draw\sw/lv_draw_sw_blend.c ****     buf[0] = last_res_color.full & 0xff;
 436:..\..\..\arduinoLCD\test\Pain Drain\libraries\lvgl\src\draw\sw/lv_draw_sw_blend.c ****     buf[1] = last_res_color.full >> 8;
 437:..\..\..\arduinoLCD\test\Pain Drain\libraries\lvgl\src\draw\sw/lv_draw_sw_blend.c **** #elif LV_COLOR_DEPTH == 32
 438:..\..\..\arduinoLCD\test\Pain Drain\libraries\lvgl\src\draw\sw/lv_draw_sw_blend.c ****     buf[0] = last_res_color.ch.blue;
 439:..\..\..\arduinoLCD\test\Pain Drain\libraries\lvgl\src\draw\sw/lv_draw_sw_blend.c ****     buf[1] = last_res_color.ch.green;
 440:..\..\..\arduinoLCD\test\Pain Drain\libraries\lvgl\src\draw\sw/lv_draw_sw_blend.c ****     buf[2] = last_res_color.ch.red;
 441:..\..\..\arduinoLCD\test\Pain Drain\libraries\lvgl\src\draw\sw/lv_draw_sw_blend.c **** #endif
 442:..\..\..\arduinoLCD\test\Pain Drain\libraries\lvgl\src\draw\sw/lv_draw_sw_blend.c **** 
 443:..\..\..\arduinoLCD\test\Pain Drain\libraries\lvgl\src\draw\sw/lv_draw_sw_blend.c **** }
 444:..\..\..\arduinoLCD\test\Pain Drain\libraries\lvgl\src\draw\sw/lv_draw_sw_blend.c **** 
 445:..\..\..\arduinoLCD\test\Pain Drain\libraries\lvgl\src\draw\sw/lv_draw_sw_blend.c **** LV_ATTRIBUTE_FAST_MEM static void fill_argb(lv_color_t * dest_buf, const lv_area_t * dest_area,
 446:..\..\..\arduinoLCD\test\Pain Drain\libraries\lvgl\src\draw\sw/lv_draw_sw_blend.c ****                                             lv_coord_t dest_stride, lv_color_t color, lv_opa_t opa,
 447:..\..\..\arduinoLCD\test\Pain Drain\libraries\lvgl\src\draw\sw/lv_draw_sw_blend.c **** {
 448:..\..\..\arduinoLCD\test\Pain Drain\libraries\lvgl\src\draw\sw/lv_draw_sw_blend.c ****     uint8_t * dest_buf8 = (uint8_t *) dest_buf;
 449:..\..\..\arduinoLCD\test\Pain Drain\libraries\lvgl\src\draw\sw/lv_draw_sw_blend.c ****     int32_t w = lv_area_get_width(dest_area);
 450:..\..\..\arduinoLCD\test\Pain Drain\libraries\lvgl\src\draw\sw/lv_draw_sw_blend.c ****     int32_t h = lv_area_get_height(dest_area);
 451:..\..\..\arduinoLCD\test\Pain Drain\libraries\lvgl\src\draw\sw/lv_draw_sw_blend.c **** 
 452:..\..\..\arduinoLCD\test\Pain Drain\libraries\lvgl\src\draw\sw/lv_draw_sw_blend.c ****     int32_t x;
 453:..\..\..\arduinoLCD\test\Pain Drain\libraries\lvgl\src\draw\sw/lv_draw_sw_blend.c ****     int32_t y;
 454:..\..\..\arduinoLCD\test\Pain Drain\libraries\lvgl\src\draw\sw/lv_draw_sw_blend.c **** 
 455:..\..\..\arduinoLCD\test\Pain Drain\libraries\lvgl\src\draw\sw/lv_draw_sw_blend.c ****     uint8_t ctmp[LV_IMG_PX_SIZE_ALPHA_BYTE];
 456:..\..\..\arduinoLCD\test\Pain Drain\libraries\lvgl\src\draw\sw/lv_draw_sw_blend.c ****     lv_memcpy(ctmp, &color, sizeof(lv_color_t));
 457:..\..\..\arduinoLCD\test\Pain Drain\libraries\lvgl\src\draw\sw/lv_draw_sw_blend.c ****     ctmp[LV_IMG_PX_SIZE_ALPHA_BYTE - 1] = opa;
 458:..\..\..\arduinoLCD\test\Pain Drain\libraries\lvgl\src\draw\sw/lv_draw_sw_blend.c **** 
 459:..\..\..\arduinoLCD\test\Pain Drain\libraries\lvgl\src\draw\sw/lv_draw_sw_blend.c ****     /*No mask*/
 460:..\..\..\arduinoLCD\test\Pain Drain\libraries\lvgl\src\draw\sw/lv_draw_sw_blend.c ****     if(mask == NULL) {
 461:..\..\..\arduinoLCD\test\Pain Drain\libraries\lvgl\src\draw\sw/lv_draw_sw_blend.c ****         if(opa >= LV_OPA_MAX) {
 462:..\..\..\arduinoLCD\test\Pain Drain\libraries\lvgl\src\draw\sw/lv_draw_sw_blend.c ****             for(x = 0; x < w; x++) {
 463:..\..\..\arduinoLCD\test\Pain Drain\libraries\lvgl\src\draw\sw/lv_draw_sw_blend.c ****                 lv_memcpy(dest_buf8, ctmp, LV_IMG_PX_SIZE_ALPHA_BYTE);
 464:..\..\..\arduinoLCD\test\Pain Drain\libraries\lvgl\src\draw\sw/lv_draw_sw_blend.c ****                 dest_buf8 += LV_IMG_PX_SIZE_ALPHA_BYTE;
 465:..\..\..\arduinoLCD\test\Pain Drain\libraries\lvgl\src\draw\sw/lv_draw_sw_blend.c ****             }
 466:..\..\..\arduinoLCD\test\Pain Drain\libraries\lvgl\src\draw\sw/lv_draw_sw_blend.c **** 
 467:..\..\..\arduinoLCD\test\Pain Drain\libraries\lvgl\src\draw\sw/lv_draw_sw_blend.c ****             dest_buf8 += (dest_stride - w) * LV_IMG_PX_SIZE_ALPHA_BYTE;
 468:..\..\..\arduinoLCD\test\Pain Drain\libraries\lvgl\src\draw\sw/lv_draw_sw_blend.c **** 
 469:..\..\..\arduinoLCD\test\Pain Drain\libraries\lvgl\src\draw\sw/lv_draw_sw_blend.c ****             for(y = 1; y < h; y++) {
 470:..\..\..\arduinoLCD\test\Pain Drain\libraries\lvgl\src\draw\sw/lv_draw_sw_blend.c ****                 lv_memcpy(dest_buf8, (uint8_t *) dest_buf, w * LV_IMG_PX_SIZE_ALPHA_BYTE);
 471:..\..\..\arduinoLCD\test\Pain Drain\libraries\lvgl\src\draw\sw/lv_draw_sw_blend.c ****                 dest_buf8 += dest_stride * LV_IMG_PX_SIZE_ALPHA_BYTE;
 472:..\..\..\arduinoLCD\test\Pain Drain\libraries\lvgl\src\draw\sw/lv_draw_sw_blend.c ****             }
 473:..\..\..\arduinoLCD\test\Pain Drain\libraries\lvgl\src\draw\sw/lv_draw_sw_blend.c ****         }
 474:..\..\..\arduinoLCD\test\Pain Drain\libraries\lvgl\src\draw\sw/lv_draw_sw_blend.c ****         /*Has opacity*/
 475:..\..\..\arduinoLCD\test\Pain Drain\libraries\lvgl\src\draw\sw/lv_draw_sw_blend.c ****         else {
 476:..\..\..\arduinoLCD\test\Pain Drain\libraries\lvgl\src\draw\sw/lv_draw_sw_blend.c ****             uint8_t * dest_buf8_row = dest_buf8;
 477:..\..\..\arduinoLCD\test\Pain Drain\libraries\lvgl\src\draw\sw/lv_draw_sw_blend.c ****             for(y = 0; y < h; y++) {
 478:..\..\..\arduinoLCD\test\Pain Drain\libraries\lvgl\src\draw\sw/lv_draw_sw_blend.c ****                 for(x = 0; x < w; x++) {
 479:..\..\..\arduinoLCD\test\Pain Drain\libraries\lvgl\src\draw\sw/lv_draw_sw_blend.c ****                     set_px_argb(dest_buf8, color, opa);
 480:..\..\..\arduinoLCD\test\Pain Drain\libraries\lvgl\src\draw\sw/lv_draw_sw_blend.c ****                     dest_buf8 += LV_IMG_PX_SIZE_ALPHA_BYTE;
 481:..\..\..\arduinoLCD\test\Pain Drain\libraries\lvgl\src\draw\sw/lv_draw_sw_blend.c ****                 }
 482:..\..\..\arduinoLCD\test\Pain Drain\libraries\lvgl\src\draw\sw/lv_draw_sw_blend.c ****                 dest_buf8_row += dest_stride * LV_IMG_PX_SIZE_ALPHA_BYTE;
 483:..\..\..\arduinoLCD\test\Pain Drain\libraries\lvgl\src\draw\sw/lv_draw_sw_blend.c ****                 dest_buf8 = dest_buf8_row;
 484:..\..\..\arduinoLCD\test\Pain Drain\libraries\lvgl\src\draw\sw/lv_draw_sw_blend.c ****             }
 485:..\..\..\arduinoLCD\test\Pain Drain\libraries\lvgl\src\draw\sw/lv_draw_sw_blend.c ****         }
 486:..\..\..\arduinoLCD\test\Pain Drain\libraries\lvgl\src\draw\sw/lv_draw_sw_blend.c ****     }
ARM GAS  C:\Users\haske\AppData\Local\Temp\cc7ZkKza.s 			page 10


 487:..\..\..\arduinoLCD\test\Pain Drain\libraries\lvgl\src\draw\sw/lv_draw_sw_blend.c ****     /*Masked*/
 488:..\..\..\arduinoLCD\test\Pain Drain\libraries\lvgl\src\draw\sw/lv_draw_sw_blend.c ****     else {
 489:..\..\..\arduinoLCD\test\Pain Drain\libraries\lvgl\src\draw\sw/lv_draw_sw_blend.c ****         /*Only the mask matters*/
 490:..\..\..\arduinoLCD\test\Pain Drain\libraries\lvgl\src\draw\sw/lv_draw_sw_blend.c ****         if(opa >= LV_OPA_MAX) {
 491:..\..\..\arduinoLCD\test\Pain Drain\libraries\lvgl\src\draw\sw/lv_draw_sw_blend.c ****             uint8_t * dest_buf8_row = dest_buf8;
 492:..\..\..\arduinoLCD\test\Pain Drain\libraries\lvgl\src\draw\sw/lv_draw_sw_blend.c ****             for(y = 0; y < h; y++) {
 493:..\..\..\arduinoLCD\test\Pain Drain\libraries\lvgl\src\draw\sw/lv_draw_sw_blend.c ****                 for(x = 0; x < w; x++) {
 494:..\..\..\arduinoLCD\test\Pain Drain\libraries\lvgl\src\draw\sw/lv_draw_sw_blend.c ****                     set_px_argb(dest_buf8, color,  *mask);
 495:..\..\..\arduinoLCD\test\Pain Drain\libraries\lvgl\src\draw\sw/lv_draw_sw_blend.c ****                     mask++;
 496:..\..\..\arduinoLCD\test\Pain Drain\libraries\lvgl\src\draw\sw/lv_draw_sw_blend.c ****                     dest_buf8 += LV_IMG_PX_SIZE_ALPHA_BYTE;
 497:..\..\..\arduinoLCD\test\Pain Drain\libraries\lvgl\src\draw\sw/lv_draw_sw_blend.c ****                 }
 498:..\..\..\arduinoLCD\test\Pain Drain\libraries\lvgl\src\draw\sw/lv_draw_sw_blend.c ****                 dest_buf8_row += dest_stride * LV_IMG_PX_SIZE_ALPHA_BYTE;
 499:..\..\..\arduinoLCD\test\Pain Drain\libraries\lvgl\src\draw\sw/lv_draw_sw_blend.c ****                 dest_buf8 = dest_buf8_row;
 500:..\..\..\arduinoLCD\test\Pain Drain\libraries\lvgl\src\draw\sw/lv_draw_sw_blend.c ****             }
 501:..\..\..\arduinoLCD\test\Pain Drain\libraries\lvgl\src\draw\sw/lv_draw_sw_blend.c ****         }
 502:..\..\..\arduinoLCD\test\Pain Drain\libraries\lvgl\src\draw\sw/lv_draw_sw_blend.c ****         /*With opacity*/
 503:..\..\..\arduinoLCD\test\Pain Drain\libraries\lvgl\src\draw\sw/lv_draw_sw_blend.c ****         else {
 504:..\..\..\arduinoLCD\test\Pain Drain\libraries\lvgl\src\draw\sw/lv_draw_sw_blend.c ****             /*Buffer the result color to avoid recalculating the same color*/
 505:..\..\..\arduinoLCD\test\Pain Drain\libraries\lvgl\src\draw\sw/lv_draw_sw_blend.c ****             lv_opa_t last_mask = LV_OPA_TRANSP;
 506:..\..\..\arduinoLCD\test\Pain Drain\libraries\lvgl\src\draw\sw/lv_draw_sw_blend.c ****             lv_opa_t opa_tmp = LV_OPA_TRANSP;
 507:..\..\..\arduinoLCD\test\Pain Drain\libraries\lvgl\src\draw\sw/lv_draw_sw_blend.c **** 
 508:..\..\..\arduinoLCD\test\Pain Drain\libraries\lvgl\src\draw\sw/lv_draw_sw_blend.c ****             uint8_t * dest_buf8_row = dest_buf8;
 509:..\..\..\arduinoLCD\test\Pain Drain\libraries\lvgl\src\draw\sw/lv_draw_sw_blend.c ****             for(y = 0; y < h; y++) {
 510:..\..\..\arduinoLCD\test\Pain Drain\libraries\lvgl\src\draw\sw/lv_draw_sw_blend.c ****                 for(x = 0; x < w; x++) {
 511:..\..\..\arduinoLCD\test\Pain Drain\libraries\lvgl\src\draw\sw/lv_draw_sw_blend.c ****                     if(*mask) {
 512:..\..\..\arduinoLCD\test\Pain Drain\libraries\lvgl\src\draw\sw/lv_draw_sw_blend.c ****                         if(*mask != last_mask) opa_tmp = *mask == LV_OPA_COVER ? opa :
 513:..\..\..\arduinoLCD\test\Pain Drain\libraries\lvgl\src\draw\sw/lv_draw_sw_blend.c ****                                                              (uint32_t)((uint32_t)(*mask) * opa) >>
 514:..\..\..\arduinoLCD\test\Pain Drain\libraries\lvgl\src\draw\sw/lv_draw_sw_blend.c **** 
 515:..\..\..\arduinoLCD\test\Pain Drain\libraries\lvgl\src\draw\sw/lv_draw_sw_blend.c ****                         set_px_argb(dest_buf8, color,  opa_tmp);
 516:..\..\..\arduinoLCD\test\Pain Drain\libraries\lvgl\src\draw\sw/lv_draw_sw_blend.c ****                     }
 517:..\..\..\arduinoLCD\test\Pain Drain\libraries\lvgl\src\draw\sw/lv_draw_sw_blend.c ****                     dest_buf8 += LV_IMG_PX_SIZE_ALPHA_BYTE;
 518:..\..\..\arduinoLCD\test\Pain Drain\libraries\lvgl\src\draw\sw/lv_draw_sw_blend.c ****                     mask++;
 519:..\..\..\arduinoLCD\test\Pain Drain\libraries\lvgl\src\draw\sw/lv_draw_sw_blend.c ****                 }
 520:..\..\..\arduinoLCD\test\Pain Drain\libraries\lvgl\src\draw\sw/lv_draw_sw_blend.c ****                 dest_buf8_row += dest_stride * LV_IMG_PX_SIZE_ALPHA_BYTE;
 521:..\..\..\arduinoLCD\test\Pain Drain\libraries\lvgl\src\draw\sw/lv_draw_sw_blend.c ****                 dest_buf8 = dest_buf8_row;
 522:..\..\..\arduinoLCD\test\Pain Drain\libraries\lvgl\src\draw\sw/lv_draw_sw_blend.c ****                 mask += (mask_stride - w);
 523:..\..\..\arduinoLCD\test\Pain Drain\libraries\lvgl\src\draw\sw/lv_draw_sw_blend.c ****             }
 524:..\..\..\arduinoLCD\test\Pain Drain\libraries\lvgl\src\draw\sw/lv_draw_sw_blend.c ****         }
 525:..\..\..\arduinoLCD\test\Pain Drain\libraries\lvgl\src\draw\sw/lv_draw_sw_blend.c ****     }
 526:..\..\..\arduinoLCD\test\Pain Drain\libraries\lvgl\src\draw\sw/lv_draw_sw_blend.c **** }
 527:..\..\..\arduinoLCD\test\Pain Drain\libraries\lvgl\src\draw\sw/lv_draw_sw_blend.c **** #endif
 528:..\..\..\arduinoLCD\test\Pain Drain\libraries\lvgl\src\draw\sw/lv_draw_sw_blend.c **** 
 529:..\..\..\arduinoLCD\test\Pain Drain\libraries\lvgl\src\draw\sw/lv_draw_sw_blend.c **** #if LV_DRAW_COMPLEX
 530:..\..\..\arduinoLCD\test\Pain Drain\libraries\lvgl\src\draw\sw/lv_draw_sw_blend.c **** static void fill_blended(lv_color_t * dest_buf, const lv_area_t * dest_area,
 531:..\..\..\arduinoLCD\test\Pain Drain\libraries\lvgl\src\draw\sw/lv_draw_sw_blend.c ****                          lv_coord_t dest_stride, lv_color_t color, lv_opa_t opa, const lv_opa_t * m
 532:..\..\..\arduinoLCD\test\Pain Drain\libraries\lvgl\src\draw\sw/lv_draw_sw_blend.c ****                          lv_blend_mode_t blend_mode)
 533:..\..\..\arduinoLCD\test\Pain Drain\libraries\lvgl\src\draw\sw/lv_draw_sw_blend.c **** {
  28              		.loc 1 533 0
  29              		.cfi_startproc
  30              		@ args = 16, pretend = 0, frame = 24
  31              		@ frame_needed = 0, uses_anonymous_args = 0
  32              	.LVL0:
  33 0000 2DE9F04F 		push	{r4, r5, r6, r7, r8, r9, r10, fp, lr}
  34              		.cfi_def_cfa_offset 36
  35              		.cfi_offset 4, -36
  36              		.cfi_offset 5, -32
  37              		.cfi_offset 6, -28
ARM GAS  C:\Users\haske\AppData\Local\Temp\cc7ZkKza.s 			page 11


  38              		.cfi_offset 7, -24
  39              		.cfi_offset 8, -20
  40              		.cfi_offset 9, -16
  41              		.cfi_offset 10, -12
  42              		.cfi_offset 11, -8
  43              		.cfi_offset 14, -4
  44 0004 87B0     		sub	sp, sp, #28
  45              		.cfi_def_cfa_offset 64
  46 0006 0746     		mov	r7, r0
  47 0008 0492     		str	r2, [sp, #16]
  48 000a ADF80630 		strh	r3, [sp, #6]	@ movhi
  49 000e 9DF84030 		ldrb	r3, [sp, #64]	@ zero_extendqisi2
  50              	.LVL1:
  51 0012 0293     		str	r3, [sp, #8]
  52 0014 119E     		ldr	r6, [sp, #68]
  53 0016 BDF94830 		ldrsh	r3, [sp, #72]
  54 001a 0593     		str	r3, [sp, #20]
  55 001c 9DF84C20 		ldrb	r2, [sp, #76]	@ zero_extendqisi2
  56              	.LVL2:
  57              	.LBB98:
  58              	.LBB99:
  59              		.file 2 "c:\\projects\\paindrain\\arduinolcd\\test\\pain drain\\libraries\\lvgl\\src\\misc\\lv_are
   1:c:\projects\paindrain\arduinolcd\test\pain drain\libraries\lvgl\src\misc\lv_area.h **** /**
   2:c:\projects\paindrain\arduinolcd\test\pain drain\libraries\lvgl\src\misc\lv_area.h ****  * @file lv_area.h
   3:c:\projects\paindrain\arduinolcd\test\pain drain\libraries\lvgl\src\misc\lv_area.h ****  *
   4:c:\projects\paindrain\arduinolcd\test\pain drain\libraries\lvgl\src\misc\lv_area.h ****  */
   5:c:\projects\paindrain\arduinolcd\test\pain drain\libraries\lvgl\src\misc\lv_area.h **** 
   6:c:\projects\paindrain\arduinolcd\test\pain drain\libraries\lvgl\src\misc\lv_area.h **** #ifndef LV_AREA_H
   7:c:\projects\paindrain\arduinolcd\test\pain drain\libraries\lvgl\src\misc\lv_area.h **** #define LV_AREA_H
   8:c:\projects\paindrain\arduinolcd\test\pain drain\libraries\lvgl\src\misc\lv_area.h **** 
   9:c:\projects\paindrain\arduinolcd\test\pain drain\libraries\lvgl\src\misc\lv_area.h **** #ifdef __cplusplus
  10:c:\projects\paindrain\arduinolcd\test\pain drain\libraries\lvgl\src\misc\lv_area.h **** extern "C" {
  11:c:\projects\paindrain\arduinolcd\test\pain drain\libraries\lvgl\src\misc\lv_area.h **** #endif
  12:c:\projects\paindrain\arduinolcd\test\pain drain\libraries\lvgl\src\misc\lv_area.h **** 
  13:c:\projects\paindrain\arduinolcd\test\pain drain\libraries\lvgl\src\misc\lv_area.h **** /*********************
  14:c:\projects\paindrain\arduinolcd\test\pain drain\libraries\lvgl\src\misc\lv_area.h ****  *      INCLUDES
  15:c:\projects\paindrain\arduinolcd\test\pain drain\libraries\lvgl\src\misc\lv_area.h ****  *********************/
  16:c:\projects\paindrain\arduinolcd\test\pain drain\libraries\lvgl\src\misc\lv_area.h **** #include "../lv_conf_internal.h"
  17:c:\projects\paindrain\arduinolcd\test\pain drain\libraries\lvgl\src\misc\lv_area.h **** #include <stdbool.h>
  18:c:\projects\paindrain\arduinolcd\test\pain drain\libraries\lvgl\src\misc\lv_area.h **** #include <stdint.h>
  19:c:\projects\paindrain\arduinolcd\test\pain drain\libraries\lvgl\src\misc\lv_area.h **** 
  20:c:\projects\paindrain\arduinolcd\test\pain drain\libraries\lvgl\src\misc\lv_area.h **** /*********************
  21:c:\projects\paindrain\arduinolcd\test\pain drain\libraries\lvgl\src\misc\lv_area.h ****  *      DEFINES
  22:c:\projects\paindrain\arduinolcd\test\pain drain\libraries\lvgl\src\misc\lv_area.h ****  *********************/
  23:c:\projects\paindrain\arduinolcd\test\pain drain\libraries\lvgl\src\misc\lv_area.h **** 
  24:c:\projects\paindrain\arduinolcd\test\pain drain\libraries\lvgl\src\misc\lv_area.h **** #if LV_USE_LARGE_COORD
  25:c:\projects\paindrain\arduinolcd\test\pain drain\libraries\lvgl\src\misc\lv_area.h **** typedef int32_t lv_coord_t;
  26:c:\projects\paindrain\arduinolcd\test\pain drain\libraries\lvgl\src\misc\lv_area.h **** #else
  27:c:\projects\paindrain\arduinolcd\test\pain drain\libraries\lvgl\src\misc\lv_area.h **** typedef int16_t lv_coord_t;
  28:c:\projects\paindrain\arduinolcd\test\pain drain\libraries\lvgl\src\misc\lv_area.h **** #endif
  29:c:\projects\paindrain\arduinolcd\test\pain drain\libraries\lvgl\src\misc\lv_area.h **** 
  30:c:\projects\paindrain\arduinolcd\test\pain drain\libraries\lvgl\src\misc\lv_area.h **** /**********************
  31:c:\projects\paindrain\arduinolcd\test\pain drain\libraries\lvgl\src\misc\lv_area.h ****  *      TYPEDEFS
  32:c:\projects\paindrain\arduinolcd\test\pain drain\libraries\lvgl\src\misc\lv_area.h ****  **********************/
  33:c:\projects\paindrain\arduinolcd\test\pain drain\libraries\lvgl\src\misc\lv_area.h **** 
  34:c:\projects\paindrain\arduinolcd\test\pain drain\libraries\lvgl\src\misc\lv_area.h **** /**
  35:c:\projects\paindrain\arduinolcd\test\pain drain\libraries\lvgl\src\misc\lv_area.h ****  * Represents a point on the screen.
ARM GAS  C:\Users\haske\AppData\Local\Temp\cc7ZkKza.s 			page 12


  36:c:\projects\paindrain\arduinolcd\test\pain drain\libraries\lvgl\src\misc\lv_area.h ****  */
  37:c:\projects\paindrain\arduinolcd\test\pain drain\libraries\lvgl\src\misc\lv_area.h **** typedef struct {
  38:c:\projects\paindrain\arduinolcd\test\pain drain\libraries\lvgl\src\misc\lv_area.h ****     lv_coord_t x;
  39:c:\projects\paindrain\arduinolcd\test\pain drain\libraries\lvgl\src\misc\lv_area.h ****     lv_coord_t y;
  40:c:\projects\paindrain\arduinolcd\test\pain drain\libraries\lvgl\src\misc\lv_area.h **** } lv_point_t;
  41:c:\projects\paindrain\arduinolcd\test\pain drain\libraries\lvgl\src\misc\lv_area.h **** 
  42:c:\projects\paindrain\arduinolcd\test\pain drain\libraries\lvgl\src\misc\lv_area.h **** /** Represents an area of the screen.*/
  43:c:\projects\paindrain\arduinolcd\test\pain drain\libraries\lvgl\src\misc\lv_area.h **** typedef struct {
  44:c:\projects\paindrain\arduinolcd\test\pain drain\libraries\lvgl\src\misc\lv_area.h ****     lv_coord_t x1;
  45:c:\projects\paindrain\arduinolcd\test\pain drain\libraries\lvgl\src\misc\lv_area.h ****     lv_coord_t y1;
  46:c:\projects\paindrain\arduinolcd\test\pain drain\libraries\lvgl\src\misc\lv_area.h ****     lv_coord_t x2;
  47:c:\projects\paindrain\arduinolcd\test\pain drain\libraries\lvgl\src\misc\lv_area.h ****     lv_coord_t y2;
  48:c:\projects\paindrain\arduinolcd\test\pain drain\libraries\lvgl\src\misc\lv_area.h **** } lv_area_t;
  49:c:\projects\paindrain\arduinolcd\test\pain drain\libraries\lvgl\src\misc\lv_area.h **** 
  50:c:\projects\paindrain\arduinolcd\test\pain drain\libraries\lvgl\src\misc\lv_area.h **** /** Alignments*/
  51:c:\projects\paindrain\arduinolcd\test\pain drain\libraries\lvgl\src\misc\lv_area.h **** enum {
  52:c:\projects\paindrain\arduinolcd\test\pain drain\libraries\lvgl\src\misc\lv_area.h ****     LV_ALIGN_DEFAULT = 0,
  53:c:\projects\paindrain\arduinolcd\test\pain drain\libraries\lvgl\src\misc\lv_area.h ****     LV_ALIGN_TOP_LEFT,
  54:c:\projects\paindrain\arduinolcd\test\pain drain\libraries\lvgl\src\misc\lv_area.h ****     LV_ALIGN_TOP_MID,
  55:c:\projects\paindrain\arduinolcd\test\pain drain\libraries\lvgl\src\misc\lv_area.h ****     LV_ALIGN_TOP_RIGHT,
  56:c:\projects\paindrain\arduinolcd\test\pain drain\libraries\lvgl\src\misc\lv_area.h ****     LV_ALIGN_BOTTOM_LEFT,
  57:c:\projects\paindrain\arduinolcd\test\pain drain\libraries\lvgl\src\misc\lv_area.h ****     LV_ALIGN_BOTTOM_MID,
  58:c:\projects\paindrain\arduinolcd\test\pain drain\libraries\lvgl\src\misc\lv_area.h ****     LV_ALIGN_BOTTOM_RIGHT,
  59:c:\projects\paindrain\arduinolcd\test\pain drain\libraries\lvgl\src\misc\lv_area.h ****     LV_ALIGN_LEFT_MID,
  60:c:\projects\paindrain\arduinolcd\test\pain drain\libraries\lvgl\src\misc\lv_area.h ****     LV_ALIGN_RIGHT_MID,
  61:c:\projects\paindrain\arduinolcd\test\pain drain\libraries\lvgl\src\misc\lv_area.h ****     LV_ALIGN_CENTER,
  62:c:\projects\paindrain\arduinolcd\test\pain drain\libraries\lvgl\src\misc\lv_area.h **** 
  63:c:\projects\paindrain\arduinolcd\test\pain drain\libraries\lvgl\src\misc\lv_area.h ****     LV_ALIGN_OUT_TOP_LEFT,
  64:c:\projects\paindrain\arduinolcd\test\pain drain\libraries\lvgl\src\misc\lv_area.h ****     LV_ALIGN_OUT_TOP_MID,
  65:c:\projects\paindrain\arduinolcd\test\pain drain\libraries\lvgl\src\misc\lv_area.h ****     LV_ALIGN_OUT_TOP_RIGHT,
  66:c:\projects\paindrain\arduinolcd\test\pain drain\libraries\lvgl\src\misc\lv_area.h ****     LV_ALIGN_OUT_BOTTOM_LEFT,
  67:c:\projects\paindrain\arduinolcd\test\pain drain\libraries\lvgl\src\misc\lv_area.h ****     LV_ALIGN_OUT_BOTTOM_MID,
  68:c:\projects\paindrain\arduinolcd\test\pain drain\libraries\lvgl\src\misc\lv_area.h ****     LV_ALIGN_OUT_BOTTOM_RIGHT,
  69:c:\projects\paindrain\arduinolcd\test\pain drain\libraries\lvgl\src\misc\lv_area.h ****     LV_ALIGN_OUT_LEFT_TOP,
  70:c:\projects\paindrain\arduinolcd\test\pain drain\libraries\lvgl\src\misc\lv_area.h ****     LV_ALIGN_OUT_LEFT_MID,
  71:c:\projects\paindrain\arduinolcd\test\pain drain\libraries\lvgl\src\misc\lv_area.h ****     LV_ALIGN_OUT_LEFT_BOTTOM,
  72:c:\projects\paindrain\arduinolcd\test\pain drain\libraries\lvgl\src\misc\lv_area.h ****     LV_ALIGN_OUT_RIGHT_TOP,
  73:c:\projects\paindrain\arduinolcd\test\pain drain\libraries\lvgl\src\misc\lv_area.h ****     LV_ALIGN_OUT_RIGHT_MID,
  74:c:\projects\paindrain\arduinolcd\test\pain drain\libraries\lvgl\src\misc\lv_area.h ****     LV_ALIGN_OUT_RIGHT_BOTTOM,
  75:c:\projects\paindrain\arduinolcd\test\pain drain\libraries\lvgl\src\misc\lv_area.h **** };
  76:c:\projects\paindrain\arduinolcd\test\pain drain\libraries\lvgl\src\misc\lv_area.h **** typedef uint8_t lv_align_t;
  77:c:\projects\paindrain\arduinolcd\test\pain drain\libraries\lvgl\src\misc\lv_area.h **** 
  78:c:\projects\paindrain\arduinolcd\test\pain drain\libraries\lvgl\src\misc\lv_area.h **** enum {
  79:c:\projects\paindrain\arduinolcd\test\pain drain\libraries\lvgl\src\misc\lv_area.h ****     LV_DIR_NONE     = 0x00,
  80:c:\projects\paindrain\arduinolcd\test\pain drain\libraries\lvgl\src\misc\lv_area.h ****     LV_DIR_LEFT     = (1 << 0),
  81:c:\projects\paindrain\arduinolcd\test\pain drain\libraries\lvgl\src\misc\lv_area.h ****     LV_DIR_RIGHT    = (1 << 1),
  82:c:\projects\paindrain\arduinolcd\test\pain drain\libraries\lvgl\src\misc\lv_area.h ****     LV_DIR_TOP      = (1 << 2),
  83:c:\projects\paindrain\arduinolcd\test\pain drain\libraries\lvgl\src\misc\lv_area.h ****     LV_DIR_BOTTOM   = (1 << 3),
  84:c:\projects\paindrain\arduinolcd\test\pain drain\libraries\lvgl\src\misc\lv_area.h ****     LV_DIR_HOR      = LV_DIR_LEFT | LV_DIR_RIGHT,
  85:c:\projects\paindrain\arduinolcd\test\pain drain\libraries\lvgl\src\misc\lv_area.h ****     LV_DIR_VER      = LV_DIR_TOP | LV_DIR_BOTTOM,
  86:c:\projects\paindrain\arduinolcd\test\pain drain\libraries\lvgl\src\misc\lv_area.h ****     LV_DIR_ALL      = LV_DIR_HOR | LV_DIR_VER,
  87:c:\projects\paindrain\arduinolcd\test\pain drain\libraries\lvgl\src\misc\lv_area.h **** };
  88:c:\projects\paindrain\arduinolcd\test\pain drain\libraries\lvgl\src\misc\lv_area.h **** 
  89:c:\projects\paindrain\arduinolcd\test\pain drain\libraries\lvgl\src\misc\lv_area.h **** typedef uint8_t lv_dir_t;
  90:c:\projects\paindrain\arduinolcd\test\pain drain\libraries\lvgl\src\misc\lv_area.h **** 
  91:c:\projects\paindrain\arduinolcd\test\pain drain\libraries\lvgl\src\misc\lv_area.h **** /**********************
  92:c:\projects\paindrain\arduinolcd\test\pain drain\libraries\lvgl\src\misc\lv_area.h ****  * GLOBAL PROTOTYPES
ARM GAS  C:\Users\haske\AppData\Local\Temp\cc7ZkKza.s 			page 13


  93:c:\projects\paindrain\arduinolcd\test\pain drain\libraries\lvgl\src\misc\lv_area.h ****  **********************/
  94:c:\projects\paindrain\arduinolcd\test\pain drain\libraries\lvgl\src\misc\lv_area.h **** 
  95:c:\projects\paindrain\arduinolcd\test\pain drain\libraries\lvgl\src\misc\lv_area.h **** /**
  96:c:\projects\paindrain\arduinolcd\test\pain drain\libraries\lvgl\src\misc\lv_area.h ****  * Initialize an area
  97:c:\projects\paindrain\arduinolcd\test\pain drain\libraries\lvgl\src\misc\lv_area.h ****  * @param area_p pointer to an area
  98:c:\projects\paindrain\arduinolcd\test\pain drain\libraries\lvgl\src\misc\lv_area.h ****  * @param x1 left coordinate of the area
  99:c:\projects\paindrain\arduinolcd\test\pain drain\libraries\lvgl\src\misc\lv_area.h ****  * @param y1 top coordinate of the area
 100:c:\projects\paindrain\arduinolcd\test\pain drain\libraries\lvgl\src\misc\lv_area.h ****  * @param x2 right coordinate of the area
 101:c:\projects\paindrain\arduinolcd\test\pain drain\libraries\lvgl\src\misc\lv_area.h ****  * @param y2 bottom coordinate of the area
 102:c:\projects\paindrain\arduinolcd\test\pain drain\libraries\lvgl\src\misc\lv_area.h ****  */
 103:c:\projects\paindrain\arduinolcd\test\pain drain\libraries\lvgl\src\misc\lv_area.h **** void lv_area_set(lv_area_t * area_p, lv_coord_t x1, lv_coord_t y1, lv_coord_t x2, lv_coord_t y2);
 104:c:\projects\paindrain\arduinolcd\test\pain drain\libraries\lvgl\src\misc\lv_area.h **** 
 105:c:\projects\paindrain\arduinolcd\test\pain drain\libraries\lvgl\src\misc\lv_area.h **** /**
 106:c:\projects\paindrain\arduinolcd\test\pain drain\libraries\lvgl\src\misc\lv_area.h ****  * Copy an area
 107:c:\projects\paindrain\arduinolcd\test\pain drain\libraries\lvgl\src\misc\lv_area.h ****  * @param dest pointer to the destination area
 108:c:\projects\paindrain\arduinolcd\test\pain drain\libraries\lvgl\src\misc\lv_area.h ****  * @param src pointer to the source area
 109:c:\projects\paindrain\arduinolcd\test\pain drain\libraries\lvgl\src\misc\lv_area.h ****  */
 110:c:\projects\paindrain\arduinolcd\test\pain drain\libraries\lvgl\src\misc\lv_area.h **** inline static void lv_area_copy(lv_area_t * dest, const lv_area_t * src)
 111:c:\projects\paindrain\arduinolcd\test\pain drain\libraries\lvgl\src\misc\lv_area.h **** {
 112:c:\projects\paindrain\arduinolcd\test\pain drain\libraries\lvgl\src\misc\lv_area.h ****     dest->x1 = src->x1;
 113:c:\projects\paindrain\arduinolcd\test\pain drain\libraries\lvgl\src\misc\lv_area.h ****     dest->y1 = src->y1;
 114:c:\projects\paindrain\arduinolcd\test\pain drain\libraries\lvgl\src\misc\lv_area.h ****     dest->x2 = src->x2;
 115:c:\projects\paindrain\arduinolcd\test\pain drain\libraries\lvgl\src\misc\lv_area.h ****     dest->y2 = src->y2;
 116:c:\projects\paindrain\arduinolcd\test\pain drain\libraries\lvgl\src\misc\lv_area.h **** }
 117:c:\projects\paindrain\arduinolcd\test\pain drain\libraries\lvgl\src\misc\lv_area.h **** 
 118:c:\projects\paindrain\arduinolcd\test\pain drain\libraries\lvgl\src\misc\lv_area.h **** /**
 119:c:\projects\paindrain\arduinolcd\test\pain drain\libraries\lvgl\src\misc\lv_area.h ****  * Get the width of an area
 120:c:\projects\paindrain\arduinolcd\test\pain drain\libraries\lvgl\src\misc\lv_area.h ****  * @param area_p pointer to an area
 121:c:\projects\paindrain\arduinolcd\test\pain drain\libraries\lvgl\src\misc\lv_area.h ****  * @return the width of the area (if x1 == x2 -> width = 1)
 122:c:\projects\paindrain\arduinolcd\test\pain drain\libraries\lvgl\src\misc\lv_area.h ****  */
 123:c:\projects\paindrain\arduinolcd\test\pain drain\libraries\lvgl\src\misc\lv_area.h **** static inline lv_coord_t lv_area_get_width(const lv_area_t * area_p)
 124:c:\projects\paindrain\arduinolcd\test\pain drain\libraries\lvgl\src\misc\lv_area.h **** {
 125:c:\projects\paindrain\arduinolcd\test\pain drain\libraries\lvgl\src\misc\lv_area.h ****     return (lv_coord_t)(area_p->x2 - area_p->x1 + 1);
  60              		.loc 2 125 0
  61 0020 B1F90430 		ldrsh	r3, [r1, #4]
  62 0024 B1F90090 		ldrsh	r9, [r1]
  63 0028 C9EB0309 		rsb	r9, r9, r3
  64 002c 09F10109 		add	r9, r9, #1
  65 0030 0FFA89F9 		sxth	r9, r9
  66              	.LVL3:
  67              	.LBE99:
  68              	.LBE98:
  69              	.LBB100:
  70              	.LBB101:
 126:c:\projects\paindrain\arduinolcd\test\pain drain\libraries\lvgl\src\misc\lv_area.h **** }
 127:c:\projects\paindrain\arduinolcd\test\pain drain\libraries\lvgl\src\misc\lv_area.h **** 
 128:c:\projects\paindrain\arduinolcd\test\pain drain\libraries\lvgl\src\misc\lv_area.h **** /**
 129:c:\projects\paindrain\arduinolcd\test\pain drain\libraries\lvgl\src\misc\lv_area.h ****  * Get the height of an area
 130:c:\projects\paindrain\arduinolcd\test\pain drain\libraries\lvgl\src\misc\lv_area.h ****  * @param area_p pointer to an area
 131:c:\projects\paindrain\arduinolcd\test\pain drain\libraries\lvgl\src\misc\lv_area.h ****  * @return the height of the area (if y1 == y2 -> height = 1)
 132:c:\projects\paindrain\arduinolcd\test\pain drain\libraries\lvgl\src\misc\lv_area.h ****  */
 133:c:\projects\paindrain\arduinolcd\test\pain drain\libraries\lvgl\src\misc\lv_area.h **** static inline lv_coord_t lv_area_get_height(const lv_area_t * area_p)
 134:c:\projects\paindrain\arduinolcd\test\pain drain\libraries\lvgl\src\misc\lv_area.h **** {
 135:c:\projects\paindrain\arduinolcd\test\pain drain\libraries\lvgl\src\misc\lv_area.h ****     return (lv_coord_t)(area_p->y2 - area_p->y1 + 1);
  71              		.loc 2 135 0
  72 0034 B1F90630 		ldrsh	r3, [r1, #6]
  73 0038 B1F90210 		ldrsh	r1, [r1, #2]
ARM GAS  C:\Users\haske\AppData\Local\Temp\cc7ZkKza.s 			page 14


  74              	.LVL4:
  75 003c 5B1A     		subs	r3, r3, r1
  76 003e 0133     		adds	r3, r3, #1
  77 0040 1BB2     		sxth	r3, r3
  78 0042 0393     		str	r3, [sp, #12]
  79              	.LVL5:
  80              	.LBE101:
  81              	.LBE100:
 534:..\..\..\arduinoLCD\test\Pain Drain\libraries\lvgl\src\draw\sw/lv_draw_sw_blend.c **** 
 535:..\..\..\arduinoLCD\test\Pain Drain\libraries\lvgl\src\draw\sw/lv_draw_sw_blend.c ****     int32_t w = lv_area_get_width(dest_area);
 536:..\..\..\arduinoLCD\test\Pain Drain\libraries\lvgl\src\draw\sw/lv_draw_sw_blend.c ****     int32_t h = lv_area_get_height(dest_area);
 537:..\..\..\arduinoLCD\test\Pain Drain\libraries\lvgl\src\draw\sw/lv_draw_sw_blend.c **** 
 538:..\..\..\arduinoLCD\test\Pain Drain\libraries\lvgl\src\draw\sw/lv_draw_sw_blend.c ****     int32_t x;
 539:..\..\..\arduinoLCD\test\Pain Drain\libraries\lvgl\src\draw\sw/lv_draw_sw_blend.c ****     int32_t y;
 540:..\..\..\arduinoLCD\test\Pain Drain\libraries\lvgl\src\draw\sw/lv_draw_sw_blend.c **** 
 541:..\..\..\arduinoLCD\test\Pain Drain\libraries\lvgl\src\draw\sw/lv_draw_sw_blend.c ****     lv_color_t (*blend_fp)(lv_color_t, lv_color_t, lv_opa_t);
 542:..\..\..\arduinoLCD\test\Pain Drain\libraries\lvgl\src\draw\sw/lv_draw_sw_blend.c ****     switch(blend_mode) {
  82              		.loc 1 542 0
  83 0044 022A     		cmp	r2, #2
  84 0046 09D0     		beq	.L19
  85 0048 032A     		cmp	r2, #3
  86 004a 04D0     		beq	.L4
  87 004c 012A     		cmp	r2, #1
  88 004e 73D1     		bne	.L1
 543:..\..\..\arduinoLCD\test\Pain Drain\libraries\lvgl\src\draw\sw/lv_draw_sw_blend.c ****         case LV_BLEND_MODE_ADDITIVE:
 544:..\..\..\arduinoLCD\test\Pain Drain\libraries\lvgl\src\draw\sw/lv_draw_sw_blend.c ****             blend_fp = color_blend_true_color_additive;
  89              		.loc 1 544 0
  90 0050 DFF8ECB0 		ldr	fp, .L25
  91 0054 04E0     		b	.L3
  92              	.L4:
  93              	.LVL6:
 545:..\..\..\arduinoLCD\test\Pain Drain\libraries\lvgl\src\draw\sw/lv_draw_sw_blend.c ****             break;
 546:..\..\..\arduinoLCD\test\Pain Drain\libraries\lvgl\src\draw\sw/lv_draw_sw_blend.c ****         case LV_BLEND_MODE_SUBTRACTIVE:
 547:..\..\..\arduinoLCD\test\Pain Drain\libraries\lvgl\src\draw\sw/lv_draw_sw_blend.c ****             blend_fp = color_blend_true_color_subtractive;
 548:..\..\..\arduinoLCD\test\Pain Drain\libraries\lvgl\src\draw\sw/lv_draw_sw_blend.c ****             break;
 549:..\..\..\arduinoLCD\test\Pain Drain\libraries\lvgl\src\draw\sw/lv_draw_sw_blend.c ****         case LV_BLEND_MODE_MULTIPLY:
 550:..\..\..\arduinoLCD\test\Pain Drain\libraries\lvgl\src\draw\sw/lv_draw_sw_blend.c ****             blend_fp = color_blend_true_color_multiply;
  94              		.loc 1 550 0
  95 0056 DFF8ECB0 		ldr	fp, .L25+4
 551:..\..\..\arduinoLCD\test\Pain Drain\libraries\lvgl\src\draw\sw/lv_draw_sw_blend.c ****             break;
  96              		.loc 1 551 0
  97 005a 01E0     		b	.L3
  98              	.LVL7:
  99              	.L19:
 547:..\..\..\arduinoLCD\test\Pain Drain\libraries\lvgl\src\draw\sw/lv_draw_sw_blend.c ****             break;
 100              		.loc 1 547 0
 101 005c DFF8E8B0 		ldr	fp, .L25+8
 102              	.L3:
 103              	.LVL8:
 552:..\..\..\arduinoLCD\test\Pain Drain\libraries\lvgl\src\draw\sw/lv_draw_sw_blend.c ****         default:
 553:..\..\..\arduinoLCD\test\Pain Drain\libraries\lvgl\src\draw\sw/lv_draw_sw_blend.c ****             LV_LOG_WARN("fill_blended: unsupported blend mode");
 554:..\..\..\arduinoLCD\test\Pain Drain\libraries\lvgl\src\draw\sw/lv_draw_sw_blend.c ****             return;
 555:..\..\..\arduinoLCD\test\Pain Drain\libraries\lvgl\src\draw\sw/lv_draw_sw_blend.c ****     }
 556:..\..\..\arduinoLCD\test\Pain Drain\libraries\lvgl\src\draw\sw/lv_draw_sw_blend.c **** 
 557:..\..\..\arduinoLCD\test\Pain Drain\libraries\lvgl\src\draw\sw/lv_draw_sw_blend.c ****     /*Simple fill (maybe with opacity), no masking*/
 558:..\..\..\arduinoLCD\test\Pain Drain\libraries\lvgl\src\draw\sw/lv_draw_sw_blend.c ****     if(mask == NULL) {
 104              		.loc 1 558 0
ARM GAS  C:\Users\haske\AppData\Local\Temp\cc7ZkKza.s 			page 15


 105 0060 36BB     		cbnz	r6, .L6
 106              	.LBB102:
 559:..\..\..\arduinoLCD\test\Pain Drain\libraries\lvgl\src\draw\sw/lv_draw_sw_blend.c ****         lv_color_t last_dest_color = dest_buf[0];
 107              		.loc 1 559 0
 108 0062 3D88     		ldrh	r5, [r7]
 560:..\..\..\arduinoLCD\test\Pain Drain\libraries\lvgl\src\draw\sw/lv_draw_sw_blend.c ****         lv_color_t last_res_color = blend_fp(color, dest_buf[0], opa);
 109              		.loc 1 560 0
 110 0064 029A     		ldr	r2, [sp, #8]
 111              	.LVL9:
 112 0066 2946     		mov	r1, r5	@ movhi
 113 0068 BDF80600 		ldrh	r0, [sp, #6]
 114              	.LVL10:
 115 006c D847     		blx	fp
 116              	.LVL11:
 561:..\..\..\arduinoLCD\test\Pain Drain\libraries\lvgl\src\draw\sw/lv_draw_sw_blend.c ****         for(y = 0; y < h; y++) {
 117              		.loc 1 561 0
 118 006e 4FF00008 		mov	r8, #0
 119 0072 DDF80CA0 		ldr	r10, [sp, #12]
 120 0076 18E0     		b	.L7
 121              	.LVL12:
 122              	.L9:
 562:..\..\..\arduinoLCD\test\Pain Drain\libraries\lvgl\src\draw\sw/lv_draw_sw_blend.c ****             for(x = 0; x < w; x++) {
 563:..\..\..\arduinoLCD\test\Pain Drain\libraries\lvgl\src\draw\sw/lv_draw_sw_blend.c ****                 if(last_dest_color.full != dest_buf[x].full) {
 123              		.loc 1 563 0
 124 0078 ABB2     		uxth	r3, r5
 125 007a 07EB4406 		add	r6, r7, r4, lsl #1
 126 007e 37F81420 		ldrh	r2, [r7, r4, lsl #1]
 127 0082 9342     		cmp	r3, r2
 128 0084 06D0     		beq	.L8
 564:..\..\..\arduinoLCD\test\Pain Drain\libraries\lvgl\src\draw\sw/lv_draw_sw_blend.c ****                     last_dest_color = dest_buf[x];
 129              		.loc 1 564 0
 130 0086 37F81450 		ldrh	r5, [r7, r4, lsl #1]
 131              	.LVL13:
 565:..\..\..\arduinoLCD\test\Pain Drain\libraries\lvgl\src\draw\sw/lv_draw_sw_blend.c ****                     last_res_color = blend_fp(color, dest_buf[x], opa);
 132              		.loc 1 565 0
 133 008a 029A     		ldr	r2, [sp, #8]
 134              	.LVL14:
 135 008c 2946     		mov	r1, r5	@ movhi
 136 008e BDF80600 		ldrh	r0, [sp, #6]
 137              	.LVL15:
 138 0092 D847     		blx	fp
 139              	.LVL16:
 140              	.L8:
 566:..\..\..\arduinoLCD\test\Pain Drain\libraries\lvgl\src\draw\sw/lv_draw_sw_blend.c ****                 }
 567:..\..\..\arduinoLCD\test\Pain Drain\libraries\lvgl\src\draw\sw/lv_draw_sw_blend.c ****                 dest_buf[x] = last_res_color;
 141              		.loc 1 567 0 discriminator 2
 142 0094 3080     		strh	r0, [r6]	@ movhi
 562:..\..\..\arduinoLCD\test\Pain Drain\libraries\lvgl\src\draw\sw/lv_draw_sw_blend.c ****                 if(last_dest_color.full != dest_buf[x].full) {
 143              		.loc 1 562 0 discriminator 2
 144 0096 0134     		adds	r4, r4, #1
 145              	.LVL17:
 146 0098 00E0     		b	.L10
 147              	.LVL18:
 148              	.L20:
 149 009a 0024     		movs	r4, #0
 150              	.L10:
 151              	.LVL19:
ARM GAS  C:\Users\haske\AppData\Local\Temp\cc7ZkKza.s 			page 16


 562:..\..\..\arduinoLCD\test\Pain Drain\libraries\lvgl\src\draw\sw/lv_draw_sw_blend.c ****                 if(last_dest_color.full != dest_buf[x].full) {
 152              		.loc 1 562 0 is_stmt 0 discriminator 1
 153 009c 4C45     		cmp	r4, r9
 154 009e EBDB     		blt	.L9
 568:..\..\..\arduinoLCD\test\Pain Drain\libraries\lvgl\src\draw\sw/lv_draw_sw_blend.c ****             }
 569:..\..\..\arduinoLCD\test\Pain Drain\libraries\lvgl\src\draw\sw/lv_draw_sw_blend.c ****             dest_buf += dest_stride;
 155              		.loc 1 569 0 is_stmt 1 discriminator 2
 156 00a0 049B     		ldr	r3, [sp, #16]
 157 00a2 07EB4307 		add	r7, r7, r3, lsl #1
 158              	.LVL20:
 561:..\..\..\arduinoLCD\test\Pain Drain\libraries\lvgl\src\draw\sw/lv_draw_sw_blend.c ****             for(x = 0; x < w; x++) {
 159              		.loc 1 561 0 discriminator 2
 160 00a6 08F10108 		add	r8, r8, #1
 161              	.LVL21:
 162              	.L7:
 561:..\..\..\arduinoLCD\test\Pain Drain\libraries\lvgl\src\draw\sw/lv_draw_sw_blend.c ****             for(x = 0; x < w; x++) {
 163              		.loc 1 561 0 is_stmt 0 discriminator 1
 164 00aa D045     		cmp	r8, r10
 165 00ac F5DB     		blt	.L20
 166 00ae 43E0     		b	.L1
 167              	.LVL22:
 168              	.L6:
 169              	.LBE102:
 170              	.LBB103:
 570:..\..\..\arduinoLCD\test\Pain Drain\libraries\lvgl\src\draw\sw/lv_draw_sw_blend.c ****         }
 571:..\..\..\arduinoLCD\test\Pain Drain\libraries\lvgl\src\draw\sw/lv_draw_sw_blend.c ****     }
 572:..\..\..\arduinoLCD\test\Pain Drain\libraries\lvgl\src\draw\sw/lv_draw_sw_blend.c ****     /*Masked*/
 573:..\..\..\arduinoLCD\test\Pain Drain\libraries\lvgl\src\draw\sw/lv_draw_sw_blend.c ****     else {
 574:..\..\..\arduinoLCD\test\Pain Drain\libraries\lvgl\src\draw\sw/lv_draw_sw_blend.c ****         /*Buffer the result color to avoid recalculating the same color*/
 575:..\..\..\arduinoLCD\test\Pain Drain\libraries\lvgl\src\draw\sw/lv_draw_sw_blend.c ****         lv_color_t last_dest_color;
 576:..\..\..\arduinoLCD\test\Pain Drain\libraries\lvgl\src\draw\sw/lv_draw_sw_blend.c ****         lv_color_t last_res_color;
 577:..\..\..\arduinoLCD\test\Pain Drain\libraries\lvgl\src\draw\sw/lv_draw_sw_blend.c ****         lv_opa_t last_mask = LV_OPA_TRANSP;
 578:..\..\..\arduinoLCD\test\Pain Drain\libraries\lvgl\src\draw\sw/lv_draw_sw_blend.c ****         last_dest_color = dest_buf[0];
 171              		.loc 1 578 0 is_stmt 1
 172 00b0 B7F800A0 		ldrh	r10, [r7]
 579:..\..\..\arduinoLCD\test\Pain Drain\libraries\lvgl\src\draw\sw/lv_draw_sw_blend.c ****         lv_opa_t opa_tmp = mask[0] >= LV_OPA_MAX ? opa : (uint32_t)((uint32_t)mask[0] * opa) >> 8;
 173              		.loc 1 579 0
 174 00b4 3378     		ldrb	r3, [r6]	@ zero_extendqisi2
 175              	.LVL23:
 176 00b6 FC2B     		cmp	r3, #252
 177 00b8 05D8     		bhi	.L21
 178              		.loc 1 579 0 is_stmt 0 discriminator 1
 179 00ba 029A     		ldr	r2, [sp, #8]
 180 00bc 03FB02F3 		mul	r3, r3, r2
 181 00c0 C3F30722 		ubfx	r2, r3, #8, #8
 182 00c4 00E0     		b	.L11
 183              	.L21:
 184              		.loc 1 579 0
 185 00c6 029A     		ldr	r2, [sp, #8]
 186              	.L11:
 187              	.LVL24:
 580:..\..\..\arduinoLCD\test\Pain Drain\libraries\lvgl\src\draw\sw/lv_draw_sw_blend.c ****         last_res_color = blend_fp(color, last_dest_color, opa_tmp);
 188              		.loc 1 580 0 is_stmt 1 discriminator 4
 189 00c8 5146     		mov	r1, r10	@ movhi
 190 00ca BDF80600 		ldrh	r0, [sp, #6]
 191              	.LVL25:
 192 00ce D847     		blx	fp
ARM GAS  C:\Users\haske\AppData\Local\Temp\cc7ZkKza.s 			page 17


 193              	.LVL26:
 577:..\..\..\arduinoLCD\test\Pain Drain\libraries\lvgl\src\draw\sw/lv_draw_sw_blend.c ****         last_dest_color = dest_buf[0];
 194              		.loc 1 577 0 discriminator 4
 195 00d0 0023     		movs	r3, #0
 196 00d2 5146     		mov	r1, r10	@ movhi
 197 00d4 9A46     		mov	r10, r3
 198              	.LVL27:
 581:..\..\..\arduinoLCD\test\Pain Drain\libraries\lvgl\src\draw\sw/lv_draw_sw_blend.c **** 
 582:..\..\..\arduinoLCD\test\Pain Drain\libraries\lvgl\src\draw\sw/lv_draw_sw_blend.c ****         for(y = 0; y < h; y++) {
 199              		.loc 1 582 0 discriminator 4
 200 00d6 2CE0     		b	.L12
 201              	.LVL28:
 202              	.L17:
 583:..\..\..\arduinoLCD\test\Pain Drain\libraries\lvgl\src\draw\sw/lv_draw_sw_blend.c ****             for(x = 0; x < w; x++) {
 584:..\..\..\arduinoLCD\test\Pain Drain\libraries\lvgl\src\draw\sw/lv_draw_sw_blend.c ****                 if(mask[x] == 0) continue;
 203              		.loc 1 584 0
 204 00d8 2546     		mov	r5, r4
 205 00da 06EB0408 		add	r8, r6, r4
 206 00de 325D     		ldrb	r2, [r6, r4]	@ zero_extendqisi2
 207 00e0 DAB1     		cbz	r2, .L13
 585:..\..\..\arduinoLCD\test\Pain Drain\libraries\lvgl\src\draw\sw/lv_draw_sw_blend.c ****                 if(mask[x] != last_mask || last_dest_color.full != dest_buf[x].full) {
 208              		.loc 1 585 0
 209 00e2 9342     		cmp	r3, r2
 210 00e4 05D1     		bne	.L14
 211              		.loc 1 585 0 is_stmt 0 discriminator 1
 212 00e6 1FFA81FE 		uxth	lr, r1
 213 00ea 37F814C0 		ldrh	ip, [r7, r4, lsl #1]
 214 00ee E645     		cmp	lr, ip
 215 00f0 11D0     		beq	.L15
 216              	.L14:
 586:..\..\..\arduinoLCD\test\Pain Drain\libraries\lvgl\src\draw\sw/lv_draw_sw_blend.c ****                     opa_tmp = mask[x] >= LV_OPA_MAX ? opa : (uint32_t)((uint32_t)mask[x] * opa) >> 
 217              		.loc 1 586 0 is_stmt 1
 218 00f2 FC2A     		cmp	r2, #252
 219 00f4 05D8     		bhi	.L22
 220              		.loc 1 586 0 is_stmt 0 discriminator 1
 221 00f6 029B     		ldr	r3, [sp, #8]
 222              	.LVL29:
 223 00f8 02FB03F2 		mul	r2, r2, r3
 224 00fc C2F30722 		ubfx	r2, r2, #8, #8
 225 0100 00E0     		b	.L16
 226              	.LVL30:
 227              	.L22:
 228              		.loc 1 586 0
 229 0102 029A     		ldr	r2, [sp, #8]
 230              	.LVL31:
 231              	.L16:
 587:..\..\..\arduinoLCD\test\Pain Drain\libraries\lvgl\src\draw\sw/lv_draw_sw_blend.c **** 
 588:..\..\..\arduinoLCD\test\Pain Drain\libraries\lvgl\src\draw\sw/lv_draw_sw_blend.c ****                     last_res_color = blend_fp(color, dest_buf[x], opa_tmp);
 232              		.loc 1 588 0 is_stmt 1 discriminator 4
 233 0104 37F81510 		ldrh	r1, [r7, r5, lsl #1]
 234              	.LVL32:
 235 0108 BDF80600 		ldrh	r0, [sp, #6]
 236              	.LVL33:
 237 010c D847     		blx	fp
 238              	.LVL34:
 589:..\..\..\arduinoLCD\test\Pain Drain\libraries\lvgl\src\draw\sw/lv_draw_sw_blend.c ****                     last_mask = mask[x];
 239              		.loc 1 589 0 discriminator 4
ARM GAS  C:\Users\haske\AppData\Local\Temp\cc7ZkKza.s 			page 18


 240 010e 98F80030 		ldrb	r3, [r8]	@ zero_extendqisi2
 241              	.LVL35:
 590:..\..\..\arduinoLCD\test\Pain Drain\libraries\lvgl\src\draw\sw/lv_draw_sw_blend.c ****                     last_dest_color.full = dest_buf[x].full;
 242              		.loc 1 590 0 discriminator 4
 243 0112 37F81510 		ldrh	r1, [r7, r5, lsl #1]
 244              	.LVL36:
 245              	.L15:
 591:..\..\..\arduinoLCD\test\Pain Drain\libraries\lvgl\src\draw\sw/lv_draw_sw_blend.c ****                 }
 592:..\..\..\arduinoLCD\test\Pain Drain\libraries\lvgl\src\draw\sw/lv_draw_sw_blend.c ****                 dest_buf[x] = last_res_color;
 246              		.loc 1 592 0
 247 0116 27F81500 		strh	r0, [r7, r5, lsl #1]	@ movhi
 248              	.L13:
 583:..\..\..\arduinoLCD\test\Pain Drain\libraries\lvgl\src\draw\sw/lv_draw_sw_blend.c ****                 if(mask[x] == 0) continue;
 249              		.loc 1 583 0 discriminator 2
 250 011a 0134     		adds	r4, r4, #1
 251              	.LVL37:
 252 011c 00E0     		b	.L18
 253              	.LVL38:
 254              	.L23:
 255 011e 0024     		movs	r4, #0
 256              	.LVL39:
 257              	.L18:
 583:..\..\..\arduinoLCD\test\Pain Drain\libraries\lvgl\src\draw\sw/lv_draw_sw_blend.c ****                 if(mask[x] == 0) continue;
 258              		.loc 1 583 0 is_stmt 0 discriminator 1
 259 0120 4C45     		cmp	r4, r9
 260 0122 D9DB     		blt	.L17
 593:..\..\..\arduinoLCD\test\Pain Drain\libraries\lvgl\src\draw\sw/lv_draw_sw_blend.c ****             }
 594:..\..\..\arduinoLCD\test\Pain Drain\libraries\lvgl\src\draw\sw/lv_draw_sw_blend.c ****             dest_buf += dest_stride;
 261              		.loc 1 594 0 is_stmt 1 discriminator 2
 262 0124 049A     		ldr	r2, [sp, #16]
 263 0126 07EB4207 		add	r7, r7, r2, lsl #1
 264              	.LVL40:
 595:..\..\..\arduinoLCD\test\Pain Drain\libraries\lvgl\src\draw\sw/lv_draw_sw_blend.c ****             mask += mask_stride;
 265              		.loc 1 595 0 discriminator 2
 266 012a 059A     		ldr	r2, [sp, #20]
 267 012c 1644     		add	r6, r6, r2
 268              	.LVL41:
 582:..\..\..\arduinoLCD\test\Pain Drain\libraries\lvgl\src\draw\sw/lv_draw_sw_blend.c ****             for(x = 0; x < w; x++) {
 269              		.loc 1 582 0 discriminator 2
 270 012e 0AF1010A 		add	r10, r10, #1
 271              	.LVL42:
 272              	.L12:
 582:..\..\..\arduinoLCD\test\Pain Drain\libraries\lvgl\src\draw\sw/lv_draw_sw_blend.c ****             for(x = 0; x < w; x++) {
 273              		.loc 1 582 0 is_stmt 0 discriminator 1
 274 0132 039A     		ldr	r2, [sp, #12]
 275 0134 9245     		cmp	r10, r2
 276 0136 F2DB     		blt	.L23
 277              	.LVL43:
 278              	.L1:
 279              	.LBE103:
 596:..\..\..\arduinoLCD\test\Pain Drain\libraries\lvgl\src\draw\sw/lv_draw_sw_blend.c ****         }
 597:..\..\..\arduinoLCD\test\Pain Drain\libraries\lvgl\src\draw\sw/lv_draw_sw_blend.c ****     }
 598:..\..\..\arduinoLCD\test\Pain Drain\libraries\lvgl\src\draw\sw/lv_draw_sw_blend.c **** }
 280              		.loc 1 598 0 is_stmt 1
 281 0138 07B0     		add	sp, sp, #28
 282              		.cfi_def_cfa_offset 36
 283              		@ sp needed
ARM GAS  C:\Users\haske\AppData\Local\Temp\cc7ZkKza.s 			page 19


 284 013a BDE8F08F 		pop	{r4, r5, r6, r7, r8, r9, r10, fp, pc}
 285              	.LVL44:
 286              	.L26:
 287 013e 00BF     		.align	2
 288              	.L25:
 289 0140 00000000 		.word	color_blend_true_color_additive
 290 0144 00000000 		.word	color_blend_true_color_multiply
 291 0148 00000000 		.word	color_blend_true_color_subtractive
 292              		.cfi_endproc
 293              	.LFE163:
 294              		.size	fill_blended, .-fill_blended
 295              		.section	.text.map_blended,"ax",%progbits
 296              		.align	2
 297              		.thumb
 298              		.thumb_func
 299              		.type	map_blended, %function
 300              	map_blended:
 301              	.LFB166:
 599:..\..\..\arduinoLCD\test\Pain Drain\libraries\lvgl\src\draw\sw/lv_draw_sw_blend.c **** #endif
 600:..\..\..\arduinoLCD\test\Pain Drain\libraries\lvgl\src\draw\sw/lv_draw_sw_blend.c **** 
 601:..\..\..\arduinoLCD\test\Pain Drain\libraries\lvgl\src\draw\sw/lv_draw_sw_blend.c **** static void map_set_px(lv_color_t * dest_buf, const lv_area_t * dest_area, lv_coord_t dest_stride,
 602:..\..\..\arduinoLCD\test\Pain Drain\libraries\lvgl\src\draw\sw/lv_draw_sw_blend.c ****                        const lv_color_t * src_buf, lv_coord_t src_stride, lv_opa_t opa, const lv_op
 603:..\..\..\arduinoLCD\test\Pain Drain\libraries\lvgl\src\draw\sw/lv_draw_sw_blend.c **** 
 604:..\..\..\arduinoLCD\test\Pain Drain\libraries\lvgl\src\draw\sw/lv_draw_sw_blend.c **** {
 605:..\..\..\arduinoLCD\test\Pain Drain\libraries\lvgl\src\draw\sw/lv_draw_sw_blend.c ****     lv_disp_t * disp = _lv_refr_get_disp_refreshing();
 606:..\..\..\arduinoLCD\test\Pain Drain\libraries\lvgl\src\draw\sw/lv_draw_sw_blend.c **** 
 607:..\..\..\arduinoLCD\test\Pain Drain\libraries\lvgl\src\draw\sw/lv_draw_sw_blend.c ****     int32_t w = lv_area_get_width(dest_area);
 608:..\..\..\arduinoLCD\test\Pain Drain\libraries\lvgl\src\draw\sw/lv_draw_sw_blend.c ****     int32_t h = lv_area_get_height(dest_area);
 609:..\..\..\arduinoLCD\test\Pain Drain\libraries\lvgl\src\draw\sw/lv_draw_sw_blend.c **** 
 610:..\..\..\arduinoLCD\test\Pain Drain\libraries\lvgl\src\draw\sw/lv_draw_sw_blend.c ****     int32_t x;
 611:..\..\..\arduinoLCD\test\Pain Drain\libraries\lvgl\src\draw\sw/lv_draw_sw_blend.c ****     int32_t y;
 612:..\..\..\arduinoLCD\test\Pain Drain\libraries\lvgl\src\draw\sw/lv_draw_sw_blend.c **** 
 613:..\..\..\arduinoLCD\test\Pain Drain\libraries\lvgl\src\draw\sw/lv_draw_sw_blend.c ****     if(mask == NULL) {
 614:..\..\..\arduinoLCD\test\Pain Drain\libraries\lvgl\src\draw\sw/lv_draw_sw_blend.c ****         for(y = 0; y < h; y++) {
 615:..\..\..\arduinoLCD\test\Pain Drain\libraries\lvgl\src\draw\sw/lv_draw_sw_blend.c ****             for(x = 0; x < w; x++) {
 616:..\..\..\arduinoLCD\test\Pain Drain\libraries\lvgl\src\draw\sw/lv_draw_sw_blend.c ****                 disp->driver->set_px_cb(disp->driver, (void *)dest_buf, dest_stride, dest_area->x1 
 617:..\..\..\arduinoLCD\test\Pain Drain\libraries\lvgl\src\draw\sw/lv_draw_sw_blend.c ****                                         opa);
 618:..\..\..\arduinoLCD\test\Pain Drain\libraries\lvgl\src\draw\sw/lv_draw_sw_blend.c ****             }
 619:..\..\..\arduinoLCD\test\Pain Drain\libraries\lvgl\src\draw\sw/lv_draw_sw_blend.c ****             src_buf += src_stride;
 620:..\..\..\arduinoLCD\test\Pain Drain\libraries\lvgl\src\draw\sw/lv_draw_sw_blend.c ****         }
 621:..\..\..\arduinoLCD\test\Pain Drain\libraries\lvgl\src\draw\sw/lv_draw_sw_blend.c ****     }
 622:..\..\..\arduinoLCD\test\Pain Drain\libraries\lvgl\src\draw\sw/lv_draw_sw_blend.c ****     else {
 623:..\..\..\arduinoLCD\test\Pain Drain\libraries\lvgl\src\draw\sw/lv_draw_sw_blend.c ****         for(y = 0; y < h; y++) {
 624:..\..\..\arduinoLCD\test\Pain Drain\libraries\lvgl\src\draw\sw/lv_draw_sw_blend.c ****             for(x = 0; x < w; x++) {
 625:..\..\..\arduinoLCD\test\Pain Drain\libraries\lvgl\src\draw\sw/lv_draw_sw_blend.c ****                 if(mask[x]) {
 626:..\..\..\arduinoLCD\test\Pain Drain\libraries\lvgl\src\draw\sw/lv_draw_sw_blend.c ****                     disp->driver->set_px_cb(disp->driver, (void *)dest_buf, dest_stride, dest_area-
 627:..\..\..\arduinoLCD\test\Pain Drain\libraries\lvgl\src\draw\sw/lv_draw_sw_blend.c ****                                             (uint32_t)((uint32_t)opa * mask[x]) >> 8);
 628:..\..\..\arduinoLCD\test\Pain Drain\libraries\lvgl\src\draw\sw/lv_draw_sw_blend.c ****                 }
 629:..\..\..\arduinoLCD\test\Pain Drain\libraries\lvgl\src\draw\sw/lv_draw_sw_blend.c ****             }
 630:..\..\..\arduinoLCD\test\Pain Drain\libraries\lvgl\src\draw\sw/lv_draw_sw_blend.c ****             mask += mask_stride;
 631:..\..\..\arduinoLCD\test\Pain Drain\libraries\lvgl\src\draw\sw/lv_draw_sw_blend.c ****             src_buf += src_stride;
 632:..\..\..\arduinoLCD\test\Pain Drain\libraries\lvgl\src\draw\sw/lv_draw_sw_blend.c ****         }
 633:..\..\..\arduinoLCD\test\Pain Drain\libraries\lvgl\src\draw\sw/lv_draw_sw_blend.c ****     }
 634:..\..\..\arduinoLCD\test\Pain Drain\libraries\lvgl\src\draw\sw/lv_draw_sw_blend.c **** }
 635:..\..\..\arduinoLCD\test\Pain Drain\libraries\lvgl\src\draw\sw/lv_draw_sw_blend.c **** 
 636:..\..\..\arduinoLCD\test\Pain Drain\libraries\lvgl\src\draw\sw/lv_draw_sw_blend.c **** LV_ATTRIBUTE_FAST_MEM static void map_normal(lv_color_t * dest_buf, const lv_area_t * dest_area, lv
 637:..\..\..\arduinoLCD\test\Pain Drain\libraries\lvgl\src\draw\sw/lv_draw_sw_blend.c ****                                              const lv_color_t * src_buf, lv_coord_t src_stride, lv_
ARM GAS  C:\Users\haske\AppData\Local\Temp\cc7ZkKza.s 			page 20


 638:..\..\..\arduinoLCD\test\Pain Drain\libraries\lvgl\src\draw\sw/lv_draw_sw_blend.c **** 
 639:..\..\..\arduinoLCD\test\Pain Drain\libraries\lvgl\src\draw\sw/lv_draw_sw_blend.c **** {
 640:..\..\..\arduinoLCD\test\Pain Drain\libraries\lvgl\src\draw\sw/lv_draw_sw_blend.c ****     int32_t w = lv_area_get_width(dest_area);
 641:..\..\..\arduinoLCD\test\Pain Drain\libraries\lvgl\src\draw\sw/lv_draw_sw_blend.c ****     int32_t h = lv_area_get_height(dest_area);
 642:..\..\..\arduinoLCD\test\Pain Drain\libraries\lvgl\src\draw\sw/lv_draw_sw_blend.c **** 
 643:..\..\..\arduinoLCD\test\Pain Drain\libraries\lvgl\src\draw\sw/lv_draw_sw_blend.c ****     int32_t x;
 644:..\..\..\arduinoLCD\test\Pain Drain\libraries\lvgl\src\draw\sw/lv_draw_sw_blend.c ****     int32_t y;
 645:..\..\..\arduinoLCD\test\Pain Drain\libraries\lvgl\src\draw\sw/lv_draw_sw_blend.c **** 
 646:..\..\..\arduinoLCD\test\Pain Drain\libraries\lvgl\src\draw\sw/lv_draw_sw_blend.c ****     /*Simple fill (maybe with opacity), no masking*/
 647:..\..\..\arduinoLCD\test\Pain Drain\libraries\lvgl\src\draw\sw/lv_draw_sw_blend.c ****     if(mask == NULL) {
 648:..\..\..\arduinoLCD\test\Pain Drain\libraries\lvgl\src\draw\sw/lv_draw_sw_blend.c ****         if(opa >= LV_OPA_MAX) {
 649:..\..\..\arduinoLCD\test\Pain Drain\libraries\lvgl\src\draw\sw/lv_draw_sw_blend.c ****             for(y = 0; y < h; y++) {
 650:..\..\..\arduinoLCD\test\Pain Drain\libraries\lvgl\src\draw\sw/lv_draw_sw_blend.c ****                 lv_memcpy(dest_buf, src_buf, w * sizeof(lv_color_t));
 651:..\..\..\arduinoLCD\test\Pain Drain\libraries\lvgl\src\draw\sw/lv_draw_sw_blend.c ****                 dest_buf += dest_stride;
 652:..\..\..\arduinoLCD\test\Pain Drain\libraries\lvgl\src\draw\sw/lv_draw_sw_blend.c ****                 src_buf += src_stride;
 653:..\..\..\arduinoLCD\test\Pain Drain\libraries\lvgl\src\draw\sw/lv_draw_sw_blend.c ****             }
 654:..\..\..\arduinoLCD\test\Pain Drain\libraries\lvgl\src\draw\sw/lv_draw_sw_blend.c ****         }
 655:..\..\..\arduinoLCD\test\Pain Drain\libraries\lvgl\src\draw\sw/lv_draw_sw_blend.c ****         else {
 656:..\..\..\arduinoLCD\test\Pain Drain\libraries\lvgl\src\draw\sw/lv_draw_sw_blend.c ****             for(y = 0; y < h; y++) {
 657:..\..\..\arduinoLCD\test\Pain Drain\libraries\lvgl\src\draw\sw/lv_draw_sw_blend.c ****                 for(x = 0; x < w; x++) {
 658:..\..\..\arduinoLCD\test\Pain Drain\libraries\lvgl\src\draw\sw/lv_draw_sw_blend.c ****                     dest_buf[x] = lv_color_mix(src_buf[x], dest_buf[x], opa);
 659:..\..\..\arduinoLCD\test\Pain Drain\libraries\lvgl\src\draw\sw/lv_draw_sw_blend.c ****                 }
 660:..\..\..\arduinoLCD\test\Pain Drain\libraries\lvgl\src\draw\sw/lv_draw_sw_blend.c ****                 dest_buf += dest_stride;
 661:..\..\..\arduinoLCD\test\Pain Drain\libraries\lvgl\src\draw\sw/lv_draw_sw_blend.c ****                 src_buf += src_stride;
 662:..\..\..\arduinoLCD\test\Pain Drain\libraries\lvgl\src\draw\sw/lv_draw_sw_blend.c ****             }
 663:..\..\..\arduinoLCD\test\Pain Drain\libraries\lvgl\src\draw\sw/lv_draw_sw_blend.c ****         }
 664:..\..\..\arduinoLCD\test\Pain Drain\libraries\lvgl\src\draw\sw/lv_draw_sw_blend.c ****     }
 665:..\..\..\arduinoLCD\test\Pain Drain\libraries\lvgl\src\draw\sw/lv_draw_sw_blend.c ****     /*Masked*/
 666:..\..\..\arduinoLCD\test\Pain Drain\libraries\lvgl\src\draw\sw/lv_draw_sw_blend.c ****     else {
 667:..\..\..\arduinoLCD\test\Pain Drain\libraries\lvgl\src\draw\sw/lv_draw_sw_blend.c ****         /*Only the mask matters*/
 668:..\..\..\arduinoLCD\test\Pain Drain\libraries\lvgl\src\draw\sw/lv_draw_sw_blend.c ****         if(opa > LV_OPA_MAX) {
 669:..\..\..\arduinoLCD\test\Pain Drain\libraries\lvgl\src\draw\sw/lv_draw_sw_blend.c ****             int32_t x_end4 = w - 4;
 670:..\..\..\arduinoLCD\test\Pain Drain\libraries\lvgl\src\draw\sw/lv_draw_sw_blend.c **** 
 671:..\..\..\arduinoLCD\test\Pain Drain\libraries\lvgl\src\draw\sw/lv_draw_sw_blend.c ****             for(y = 0; y < h; y++) {
 672:..\..\..\arduinoLCD\test\Pain Drain\libraries\lvgl\src\draw\sw/lv_draw_sw_blend.c ****                 const lv_opa_t * mask_tmp_x = mask;
 673:..\..\..\arduinoLCD\test\Pain Drain\libraries\lvgl\src\draw\sw/lv_draw_sw_blend.c **** #if 0
 674:..\..\..\arduinoLCD\test\Pain Drain\libraries\lvgl\src\draw\sw/lv_draw_sw_blend.c ****                 for(x = 0; x < w; x++) {
 675:..\..\..\arduinoLCD\test\Pain Drain\libraries\lvgl\src\draw\sw/lv_draw_sw_blend.c ****                     MAP_NORMAL_MASK_PX(x);
 676:..\..\..\arduinoLCD\test\Pain Drain\libraries\lvgl\src\draw\sw/lv_draw_sw_blend.c ****                 }
 677:..\..\..\arduinoLCD\test\Pain Drain\libraries\lvgl\src\draw\sw/lv_draw_sw_blend.c **** #else
 678:..\..\..\arduinoLCD\test\Pain Drain\libraries\lvgl\src\draw\sw/lv_draw_sw_blend.c ****                 for(x = 0; x < w && ((lv_uintptr_t)mask_tmp_x & 0x3); x++) {
 679:..\..\..\arduinoLCD\test\Pain Drain\libraries\lvgl\src\draw\sw/lv_draw_sw_blend.c ****                     MAP_NORMAL_MASK_PX(x)
 680:..\..\..\arduinoLCD\test\Pain Drain\libraries\lvgl\src\draw\sw/lv_draw_sw_blend.c ****                 }
 681:..\..\..\arduinoLCD\test\Pain Drain\libraries\lvgl\src\draw\sw/lv_draw_sw_blend.c **** 
 682:..\..\..\arduinoLCD\test\Pain Drain\libraries\lvgl\src\draw\sw/lv_draw_sw_blend.c ****                 uint32_t * mask32 = (uint32_t *)mask_tmp_x;
 683:..\..\..\arduinoLCD\test\Pain Drain\libraries\lvgl\src\draw\sw/lv_draw_sw_blend.c ****                 for(; x < x_end4; x += 4) {
 684:..\..\..\arduinoLCD\test\Pain Drain\libraries\lvgl\src\draw\sw/lv_draw_sw_blend.c ****                     if(*mask32) {
 685:..\..\..\arduinoLCD\test\Pain Drain\libraries\lvgl\src\draw\sw/lv_draw_sw_blend.c ****                         if((*mask32) == 0xFFFFFFFF) {
 686:..\..\..\arduinoLCD\test\Pain Drain\libraries\lvgl\src\draw\sw/lv_draw_sw_blend.c ****                             dest_buf[x] = src_buf[x];
 687:..\..\..\arduinoLCD\test\Pain Drain\libraries\lvgl\src\draw\sw/lv_draw_sw_blend.c ****                             dest_buf[x + 1] = src_buf[x + 1];
 688:..\..\..\arduinoLCD\test\Pain Drain\libraries\lvgl\src\draw\sw/lv_draw_sw_blend.c ****                             dest_buf[x + 2] = src_buf[x + 2];
 689:..\..\..\arduinoLCD\test\Pain Drain\libraries\lvgl\src\draw\sw/lv_draw_sw_blend.c ****                             dest_buf[x + 3] = src_buf[x + 3];
 690:..\..\..\arduinoLCD\test\Pain Drain\libraries\lvgl\src\draw\sw/lv_draw_sw_blend.c ****                         }
 691:..\..\..\arduinoLCD\test\Pain Drain\libraries\lvgl\src\draw\sw/lv_draw_sw_blend.c ****                         else {
 692:..\..\..\arduinoLCD\test\Pain Drain\libraries\lvgl\src\draw\sw/lv_draw_sw_blend.c ****                             mask_tmp_x = (const lv_opa_t *)mask32;
 693:..\..\..\arduinoLCD\test\Pain Drain\libraries\lvgl\src\draw\sw/lv_draw_sw_blend.c ****                             MAP_NORMAL_MASK_PX(x)
 694:..\..\..\arduinoLCD\test\Pain Drain\libraries\lvgl\src\draw\sw/lv_draw_sw_blend.c ****                             MAP_NORMAL_MASK_PX(x + 1)
ARM GAS  C:\Users\haske\AppData\Local\Temp\cc7ZkKza.s 			page 21


 695:..\..\..\arduinoLCD\test\Pain Drain\libraries\lvgl\src\draw\sw/lv_draw_sw_blend.c ****                             MAP_NORMAL_MASK_PX(x + 2)
 696:..\..\..\arduinoLCD\test\Pain Drain\libraries\lvgl\src\draw\sw/lv_draw_sw_blend.c ****                             MAP_NORMAL_MASK_PX(x + 3)
 697:..\..\..\arduinoLCD\test\Pain Drain\libraries\lvgl\src\draw\sw/lv_draw_sw_blend.c ****                         }
 698:..\..\..\arduinoLCD\test\Pain Drain\libraries\lvgl\src\draw\sw/lv_draw_sw_blend.c ****                     }
 699:..\..\..\arduinoLCD\test\Pain Drain\libraries\lvgl\src\draw\sw/lv_draw_sw_blend.c ****                     mask32++;
 700:..\..\..\arduinoLCD\test\Pain Drain\libraries\lvgl\src\draw\sw/lv_draw_sw_blend.c ****                 }
 701:..\..\..\arduinoLCD\test\Pain Drain\libraries\lvgl\src\draw\sw/lv_draw_sw_blend.c **** 
 702:..\..\..\arduinoLCD\test\Pain Drain\libraries\lvgl\src\draw\sw/lv_draw_sw_blend.c ****                 mask_tmp_x = (const lv_opa_t *)mask32;
 703:..\..\..\arduinoLCD\test\Pain Drain\libraries\lvgl\src\draw\sw/lv_draw_sw_blend.c ****                 for(; x < w ; x++) {
 704:..\..\..\arduinoLCD\test\Pain Drain\libraries\lvgl\src\draw\sw/lv_draw_sw_blend.c ****                     MAP_NORMAL_MASK_PX(x)
 705:..\..\..\arduinoLCD\test\Pain Drain\libraries\lvgl\src\draw\sw/lv_draw_sw_blend.c ****                 }
 706:..\..\..\arduinoLCD\test\Pain Drain\libraries\lvgl\src\draw\sw/lv_draw_sw_blend.c **** #endif
 707:..\..\..\arduinoLCD\test\Pain Drain\libraries\lvgl\src\draw\sw/lv_draw_sw_blend.c ****                 dest_buf += dest_stride;
 708:..\..\..\arduinoLCD\test\Pain Drain\libraries\lvgl\src\draw\sw/lv_draw_sw_blend.c ****                 src_buf += src_stride;
 709:..\..\..\arduinoLCD\test\Pain Drain\libraries\lvgl\src\draw\sw/lv_draw_sw_blend.c ****                 mask += mask_stride;
 710:..\..\..\arduinoLCD\test\Pain Drain\libraries\lvgl\src\draw\sw/lv_draw_sw_blend.c ****             }
 711:..\..\..\arduinoLCD\test\Pain Drain\libraries\lvgl\src\draw\sw/lv_draw_sw_blend.c ****         }
 712:..\..\..\arduinoLCD\test\Pain Drain\libraries\lvgl\src\draw\sw/lv_draw_sw_blend.c ****         /*Handle opa and mask values too*/
 713:..\..\..\arduinoLCD\test\Pain Drain\libraries\lvgl\src\draw\sw/lv_draw_sw_blend.c ****         else {
 714:..\..\..\arduinoLCD\test\Pain Drain\libraries\lvgl\src\draw\sw/lv_draw_sw_blend.c ****             for(y = 0; y < h; y++) {
 715:..\..\..\arduinoLCD\test\Pain Drain\libraries\lvgl\src\draw\sw/lv_draw_sw_blend.c ****                 for(x = 0; x < w; x++) {
 716:..\..\..\arduinoLCD\test\Pain Drain\libraries\lvgl\src\draw\sw/lv_draw_sw_blend.c ****                     if(mask[x]) {
 717:..\..\..\arduinoLCD\test\Pain Drain\libraries\lvgl\src\draw\sw/lv_draw_sw_blend.c ****                         lv_opa_t opa_tmp = mask[x] >= LV_OPA_MAX ? opa : ((opa * mask[x]) >> 8);
 718:..\..\..\arduinoLCD\test\Pain Drain\libraries\lvgl\src\draw\sw/lv_draw_sw_blend.c ****                         dest_buf[x] = lv_color_mix(src_buf[x], dest_buf[x], opa_tmp);
 719:..\..\..\arduinoLCD\test\Pain Drain\libraries\lvgl\src\draw\sw/lv_draw_sw_blend.c ****                     }
 720:..\..\..\arduinoLCD\test\Pain Drain\libraries\lvgl\src\draw\sw/lv_draw_sw_blend.c ****                 }
 721:..\..\..\arduinoLCD\test\Pain Drain\libraries\lvgl\src\draw\sw/lv_draw_sw_blend.c ****                 dest_buf += dest_stride;
 722:..\..\..\arduinoLCD\test\Pain Drain\libraries\lvgl\src\draw\sw/lv_draw_sw_blend.c ****                 src_buf += src_stride;
 723:..\..\..\arduinoLCD\test\Pain Drain\libraries\lvgl\src\draw\sw/lv_draw_sw_blend.c ****                 mask += mask_stride;
 724:..\..\..\arduinoLCD\test\Pain Drain\libraries\lvgl\src\draw\sw/lv_draw_sw_blend.c ****             }
 725:..\..\..\arduinoLCD\test\Pain Drain\libraries\lvgl\src\draw\sw/lv_draw_sw_blend.c ****         }
 726:..\..\..\arduinoLCD\test\Pain Drain\libraries\lvgl\src\draw\sw/lv_draw_sw_blend.c ****     }
 727:..\..\..\arduinoLCD\test\Pain Drain\libraries\lvgl\src\draw\sw/lv_draw_sw_blend.c **** }
 728:..\..\..\arduinoLCD\test\Pain Drain\libraries\lvgl\src\draw\sw/lv_draw_sw_blend.c **** 
 729:..\..\..\arduinoLCD\test\Pain Drain\libraries\lvgl\src\draw\sw/lv_draw_sw_blend.c **** 
 730:..\..\..\arduinoLCD\test\Pain Drain\libraries\lvgl\src\draw\sw/lv_draw_sw_blend.c **** 
 731:..\..\..\arduinoLCD\test\Pain Drain\libraries\lvgl\src\draw\sw/lv_draw_sw_blend.c **** #if LV_COLOR_SCREEN_TRANSP
 732:..\..\..\arduinoLCD\test\Pain Drain\libraries\lvgl\src\draw\sw/lv_draw_sw_blend.c **** LV_ATTRIBUTE_FAST_MEM static void map_argb(lv_color_t * dest_buf, const lv_area_t * dest_area, lv_c
 733:..\..\..\arduinoLCD\test\Pain Drain\libraries\lvgl\src\draw\sw/lv_draw_sw_blend.c ****                                            const lv_color_t * src_buf, lv_coord_t src_stride, lv_op
 734:..\..\..\arduinoLCD\test\Pain Drain\libraries\lvgl\src\draw\sw/lv_draw_sw_blend.c ****                                            const lv_opa_t * mask, lv_coord_t mask_stride, lv_blend_
 735:..\..\..\arduinoLCD\test\Pain Drain\libraries\lvgl\src\draw\sw/lv_draw_sw_blend.c **** 
 736:..\..\..\arduinoLCD\test\Pain Drain\libraries\lvgl\src\draw\sw/lv_draw_sw_blend.c **** {
 737:..\..\..\arduinoLCD\test\Pain Drain\libraries\lvgl\src\draw\sw/lv_draw_sw_blend.c ****     uint8_t * dest_buf8 = (uint8_t *) dest_buf;
 738:..\..\..\arduinoLCD\test\Pain Drain\libraries\lvgl\src\draw\sw/lv_draw_sw_blend.c **** 
 739:..\..\..\arduinoLCD\test\Pain Drain\libraries\lvgl\src\draw\sw/lv_draw_sw_blend.c ****     int32_t w = lv_area_get_width(dest_area);
 740:..\..\..\arduinoLCD\test\Pain Drain\libraries\lvgl\src\draw\sw/lv_draw_sw_blend.c ****     int32_t h = lv_area_get_height(dest_area);
 741:..\..\..\arduinoLCD\test\Pain Drain\libraries\lvgl\src\draw\sw/lv_draw_sw_blend.c **** 
 742:..\..\..\arduinoLCD\test\Pain Drain\libraries\lvgl\src\draw\sw/lv_draw_sw_blend.c ****     int32_t x;
 743:..\..\..\arduinoLCD\test\Pain Drain\libraries\lvgl\src\draw\sw/lv_draw_sw_blend.c ****     int32_t y;
 744:..\..\..\arduinoLCD\test\Pain Drain\libraries\lvgl\src\draw\sw/lv_draw_sw_blend.c **** 
 745:..\..\..\arduinoLCD\test\Pain Drain\libraries\lvgl\src\draw\sw/lv_draw_sw_blend.c ****     lv_color_t (*blend_fp)(lv_color_t, lv_color_t, lv_opa_t);
 746:..\..\..\arduinoLCD\test\Pain Drain\libraries\lvgl\src\draw\sw/lv_draw_sw_blend.c ****     switch(blend_mode) {
 747:..\..\..\arduinoLCD\test\Pain Drain\libraries\lvgl\src\draw\sw/lv_draw_sw_blend.c ****         case LV_BLEND_MODE_ADDITIVE:
 748:..\..\..\arduinoLCD\test\Pain Drain\libraries\lvgl\src\draw\sw/lv_draw_sw_blend.c ****             blend_fp = color_blend_true_color_additive;
 749:..\..\..\arduinoLCD\test\Pain Drain\libraries\lvgl\src\draw\sw/lv_draw_sw_blend.c ****             break;
 750:..\..\..\arduinoLCD\test\Pain Drain\libraries\lvgl\src\draw\sw/lv_draw_sw_blend.c ****         case LV_BLEND_MODE_SUBTRACTIVE:
 751:..\..\..\arduinoLCD\test\Pain Drain\libraries\lvgl\src\draw\sw/lv_draw_sw_blend.c ****             blend_fp = color_blend_true_color_subtractive;
ARM GAS  C:\Users\haske\AppData\Local\Temp\cc7ZkKza.s 			page 22


 752:..\..\..\arduinoLCD\test\Pain Drain\libraries\lvgl\src\draw\sw/lv_draw_sw_blend.c ****             break;
 753:..\..\..\arduinoLCD\test\Pain Drain\libraries\lvgl\src\draw\sw/lv_draw_sw_blend.c ****         case LV_BLEND_MODE_MULTIPLY:
 754:..\..\..\arduinoLCD\test\Pain Drain\libraries\lvgl\src\draw\sw/lv_draw_sw_blend.c ****             blend_fp = color_blend_true_color_multiply;
 755:..\..\..\arduinoLCD\test\Pain Drain\libraries\lvgl\src\draw\sw/lv_draw_sw_blend.c ****             break;
 756:..\..\..\arduinoLCD\test\Pain Drain\libraries\lvgl\src\draw\sw/lv_draw_sw_blend.c ****         default:
 757:..\..\..\arduinoLCD\test\Pain Drain\libraries\lvgl\src\draw\sw/lv_draw_sw_blend.c ****             blend_fp = NULL;
 758:..\..\..\arduinoLCD\test\Pain Drain\libraries\lvgl\src\draw\sw/lv_draw_sw_blend.c ****     }
 759:..\..\..\arduinoLCD\test\Pain Drain\libraries\lvgl\src\draw\sw/lv_draw_sw_blend.c **** 
 760:..\..\..\arduinoLCD\test\Pain Drain\libraries\lvgl\src\draw\sw/lv_draw_sw_blend.c ****     /*Simple fill (maybe with opacity), no masking*/
 761:..\..\..\arduinoLCD\test\Pain Drain\libraries\lvgl\src\draw\sw/lv_draw_sw_blend.c ****     if(mask == NULL) {
 762:..\..\..\arduinoLCD\test\Pain Drain\libraries\lvgl\src\draw\sw/lv_draw_sw_blend.c ****         if(opa >= LV_OPA_MAX) {
 763:..\..\..\arduinoLCD\test\Pain Drain\libraries\lvgl\src\draw\sw/lv_draw_sw_blend.c ****             if(blend_fp == NULL && LV_COLOR_DEPTH == 32) {
 764:..\..\..\arduinoLCD\test\Pain Drain\libraries\lvgl\src\draw\sw/lv_draw_sw_blend.c ****                 for(y = 0; y < h; y++) {
 765:..\..\..\arduinoLCD\test\Pain Drain\libraries\lvgl\src\draw\sw/lv_draw_sw_blend.c ****                     lv_memcpy(dest_buf, src_buf, w * sizeof(lv_color_t));
 766:..\..\..\arduinoLCD\test\Pain Drain\libraries\lvgl\src\draw\sw/lv_draw_sw_blend.c ****                     dest_buf += dest_stride;
 767:..\..\..\arduinoLCD\test\Pain Drain\libraries\lvgl\src\draw\sw/lv_draw_sw_blend.c ****                     src_buf += src_stride;
 768:..\..\..\arduinoLCD\test\Pain Drain\libraries\lvgl\src\draw\sw/lv_draw_sw_blend.c ****                 }
 769:..\..\..\arduinoLCD\test\Pain Drain\libraries\lvgl\src\draw\sw/lv_draw_sw_blend.c ****             }
 770:..\..\..\arduinoLCD\test\Pain Drain\libraries\lvgl\src\draw\sw/lv_draw_sw_blend.c ****             else {
 771:..\..\..\arduinoLCD\test\Pain Drain\libraries\lvgl\src\draw\sw/lv_draw_sw_blend.c ****                 uint8_t * dest_buf8_row = dest_buf8;
 772:..\..\..\arduinoLCD\test\Pain Drain\libraries\lvgl\src\draw\sw/lv_draw_sw_blend.c ****                 for(y = 0; y < h; y++) {
 773:..\..\..\arduinoLCD\test\Pain Drain\libraries\lvgl\src\draw\sw/lv_draw_sw_blend.c ****                     if(blend_fp == NULL) {
 774:..\..\..\arduinoLCD\test\Pain Drain\libraries\lvgl\src\draw\sw/lv_draw_sw_blend.c ****                         for(x = 0; x < w; x++) {
 775:..\..\..\arduinoLCD\test\Pain Drain\libraries\lvgl\src\draw\sw/lv_draw_sw_blend.c ****                             set_px_argb(dest_buf8, src_buf[x], LV_OPA_COVER);
 776:..\..\..\arduinoLCD\test\Pain Drain\libraries\lvgl\src\draw\sw/lv_draw_sw_blend.c ****                             dest_buf8 += LV_IMG_PX_SIZE_ALPHA_BYTE;
 777:..\..\..\arduinoLCD\test\Pain Drain\libraries\lvgl\src\draw\sw/lv_draw_sw_blend.c ****                         }
 778:..\..\..\arduinoLCD\test\Pain Drain\libraries\lvgl\src\draw\sw/lv_draw_sw_blend.c ****                     }
 779:..\..\..\arduinoLCD\test\Pain Drain\libraries\lvgl\src\draw\sw/lv_draw_sw_blend.c ****                     else {
 780:..\..\..\arduinoLCD\test\Pain Drain\libraries\lvgl\src\draw\sw/lv_draw_sw_blend.c ****                         for(x = 0; x < w; x++) {
 781:..\..\..\arduinoLCD\test\Pain Drain\libraries\lvgl\src\draw\sw/lv_draw_sw_blend.c ****                             set_px_argb_blend(dest_buf8, src_buf[x], LV_OPA_COVER, blend_fp);
 782:..\..\..\arduinoLCD\test\Pain Drain\libraries\lvgl\src\draw\sw/lv_draw_sw_blend.c ****                             dest_buf8 += LV_IMG_PX_SIZE_ALPHA_BYTE;
 783:..\..\..\arduinoLCD\test\Pain Drain\libraries\lvgl\src\draw\sw/lv_draw_sw_blend.c ****                         }
 784:..\..\..\arduinoLCD\test\Pain Drain\libraries\lvgl\src\draw\sw/lv_draw_sw_blend.c ****                     }
 785:..\..\..\arduinoLCD\test\Pain Drain\libraries\lvgl\src\draw\sw/lv_draw_sw_blend.c **** 
 786:..\..\..\arduinoLCD\test\Pain Drain\libraries\lvgl\src\draw\sw/lv_draw_sw_blend.c ****                     dest_buf8_row += dest_stride * LV_IMG_PX_SIZE_ALPHA_BYTE;
 787:..\..\..\arduinoLCD\test\Pain Drain\libraries\lvgl\src\draw\sw/lv_draw_sw_blend.c ****                     dest_buf8 = dest_buf8_row;
 788:..\..\..\arduinoLCD\test\Pain Drain\libraries\lvgl\src\draw\sw/lv_draw_sw_blend.c ****                     src_buf += src_stride;
 789:..\..\..\arduinoLCD\test\Pain Drain\libraries\lvgl\src\draw\sw/lv_draw_sw_blend.c ****                 }
 790:..\..\..\arduinoLCD\test\Pain Drain\libraries\lvgl\src\draw\sw/lv_draw_sw_blend.c ****             }
 791:..\..\..\arduinoLCD\test\Pain Drain\libraries\lvgl\src\draw\sw/lv_draw_sw_blend.c ****         }
 792:..\..\..\arduinoLCD\test\Pain Drain\libraries\lvgl\src\draw\sw/lv_draw_sw_blend.c ****         /*No mask but opacity*/
 793:..\..\..\arduinoLCD\test\Pain Drain\libraries\lvgl\src\draw\sw/lv_draw_sw_blend.c ****         else {
 794:..\..\..\arduinoLCD\test\Pain Drain\libraries\lvgl\src\draw\sw/lv_draw_sw_blend.c ****             uint8_t * dest_buf8_row = dest_buf8;
 795:..\..\..\arduinoLCD\test\Pain Drain\libraries\lvgl\src\draw\sw/lv_draw_sw_blend.c ****             for(y = 0; y < h; y++) {
 796:..\..\..\arduinoLCD\test\Pain Drain\libraries\lvgl\src\draw\sw/lv_draw_sw_blend.c ****                 if(blend_fp == NULL) {
 797:..\..\..\arduinoLCD\test\Pain Drain\libraries\lvgl\src\draw\sw/lv_draw_sw_blend.c ****                     for(x = 0; x < w; x++) {
 798:..\..\..\arduinoLCD\test\Pain Drain\libraries\lvgl\src\draw\sw/lv_draw_sw_blend.c ****                         set_px_argb(dest_buf8, src_buf[x], opa);
 799:..\..\..\arduinoLCD\test\Pain Drain\libraries\lvgl\src\draw\sw/lv_draw_sw_blend.c ****                         dest_buf8 += LV_IMG_PX_SIZE_ALPHA_BYTE;
 800:..\..\..\arduinoLCD\test\Pain Drain\libraries\lvgl\src\draw\sw/lv_draw_sw_blend.c ****                     }
 801:..\..\..\arduinoLCD\test\Pain Drain\libraries\lvgl\src\draw\sw/lv_draw_sw_blend.c ****                 }
 802:..\..\..\arduinoLCD\test\Pain Drain\libraries\lvgl\src\draw\sw/lv_draw_sw_blend.c ****                 else {
 803:..\..\..\arduinoLCD\test\Pain Drain\libraries\lvgl\src\draw\sw/lv_draw_sw_blend.c ****                     for(x = 0; x < w; x++) {
 804:..\..\..\arduinoLCD\test\Pain Drain\libraries\lvgl\src\draw\sw/lv_draw_sw_blend.c ****                         set_px_argb_blend(dest_buf8, src_buf[x], opa, blend_fp);
 805:..\..\..\arduinoLCD\test\Pain Drain\libraries\lvgl\src\draw\sw/lv_draw_sw_blend.c ****                         dest_buf8 += LV_IMG_PX_SIZE_ALPHA_BYTE;
 806:..\..\..\arduinoLCD\test\Pain Drain\libraries\lvgl\src\draw\sw/lv_draw_sw_blend.c ****                     }
 807:..\..\..\arduinoLCD\test\Pain Drain\libraries\lvgl\src\draw\sw/lv_draw_sw_blend.c ****                 }
 808:..\..\..\arduinoLCD\test\Pain Drain\libraries\lvgl\src\draw\sw/lv_draw_sw_blend.c **** 
ARM GAS  C:\Users\haske\AppData\Local\Temp\cc7ZkKza.s 			page 23


 809:..\..\..\arduinoLCD\test\Pain Drain\libraries\lvgl\src\draw\sw/lv_draw_sw_blend.c ****                 dest_buf8_row += dest_stride * LV_IMG_PX_SIZE_ALPHA_BYTE;
 810:..\..\..\arduinoLCD\test\Pain Drain\libraries\lvgl\src\draw\sw/lv_draw_sw_blend.c ****                 dest_buf8 = dest_buf8_row;
 811:..\..\..\arduinoLCD\test\Pain Drain\libraries\lvgl\src\draw\sw/lv_draw_sw_blend.c ****                 src_buf += src_stride;
 812:..\..\..\arduinoLCD\test\Pain Drain\libraries\lvgl\src\draw\sw/lv_draw_sw_blend.c ****             }
 813:..\..\..\arduinoLCD\test\Pain Drain\libraries\lvgl\src\draw\sw/lv_draw_sw_blend.c ****         }
 814:..\..\..\arduinoLCD\test\Pain Drain\libraries\lvgl\src\draw\sw/lv_draw_sw_blend.c ****     }
 815:..\..\..\arduinoLCD\test\Pain Drain\libraries\lvgl\src\draw\sw/lv_draw_sw_blend.c ****     /*Masked*/
 816:..\..\..\arduinoLCD\test\Pain Drain\libraries\lvgl\src\draw\sw/lv_draw_sw_blend.c ****     else {
 817:..\..\..\arduinoLCD\test\Pain Drain\libraries\lvgl\src\draw\sw/lv_draw_sw_blend.c ****         /*Only the mask matters*/
 818:..\..\..\arduinoLCD\test\Pain Drain\libraries\lvgl\src\draw\sw/lv_draw_sw_blend.c ****         if(opa > LV_OPA_MAX) {
 819:..\..\..\arduinoLCD\test\Pain Drain\libraries\lvgl\src\draw\sw/lv_draw_sw_blend.c ****             uint8_t * dest_buf8_row = dest_buf8;
 820:..\..\..\arduinoLCD\test\Pain Drain\libraries\lvgl\src\draw\sw/lv_draw_sw_blend.c ****             for(y = 0; y < h; y++) {
 821:..\..\..\arduinoLCD\test\Pain Drain\libraries\lvgl\src\draw\sw/lv_draw_sw_blend.c ****                 if(blend_fp == NULL) {
 822:..\..\..\arduinoLCD\test\Pain Drain\libraries\lvgl\src\draw\sw/lv_draw_sw_blend.c ****                     for(x = 0; x < w; x++) {
 823:..\..\..\arduinoLCD\test\Pain Drain\libraries\lvgl\src\draw\sw/lv_draw_sw_blend.c ****                         set_px_argb(dest_buf8, src_buf[x], mask[x]);
 824:..\..\..\arduinoLCD\test\Pain Drain\libraries\lvgl\src\draw\sw/lv_draw_sw_blend.c ****                         dest_buf8 += LV_IMG_PX_SIZE_ALPHA_BYTE;
 825:..\..\..\arduinoLCD\test\Pain Drain\libraries\lvgl\src\draw\sw/lv_draw_sw_blend.c ****                     }
 826:..\..\..\arduinoLCD\test\Pain Drain\libraries\lvgl\src\draw\sw/lv_draw_sw_blend.c ****                 }
 827:..\..\..\arduinoLCD\test\Pain Drain\libraries\lvgl\src\draw\sw/lv_draw_sw_blend.c ****                 else {
 828:..\..\..\arduinoLCD\test\Pain Drain\libraries\lvgl\src\draw\sw/lv_draw_sw_blend.c ****                     for(x = 0; x < w; x++) {
 829:..\..\..\arduinoLCD\test\Pain Drain\libraries\lvgl\src\draw\sw/lv_draw_sw_blend.c ****                         set_px_argb_blend(dest_buf8, src_buf[x], mask[x], blend_fp);
 830:..\..\..\arduinoLCD\test\Pain Drain\libraries\lvgl\src\draw\sw/lv_draw_sw_blend.c ****                         dest_buf8 += LV_IMG_PX_SIZE_ALPHA_BYTE;
 831:..\..\..\arduinoLCD\test\Pain Drain\libraries\lvgl\src\draw\sw/lv_draw_sw_blend.c ****                     }
 832:..\..\..\arduinoLCD\test\Pain Drain\libraries\lvgl\src\draw\sw/lv_draw_sw_blend.c ****                 }
 833:..\..\..\arduinoLCD\test\Pain Drain\libraries\lvgl\src\draw\sw/lv_draw_sw_blend.c ****                 dest_buf8_row += dest_stride * LV_IMG_PX_SIZE_ALPHA_BYTE;
 834:..\..\..\arduinoLCD\test\Pain Drain\libraries\lvgl\src\draw\sw/lv_draw_sw_blend.c ****                 dest_buf8 = dest_buf8_row;
 835:..\..\..\arduinoLCD\test\Pain Drain\libraries\lvgl\src\draw\sw/lv_draw_sw_blend.c ****                 src_buf += src_stride;
 836:..\..\..\arduinoLCD\test\Pain Drain\libraries\lvgl\src\draw\sw/lv_draw_sw_blend.c ****                 mask += mask_stride;
 837:..\..\..\arduinoLCD\test\Pain Drain\libraries\lvgl\src\draw\sw/lv_draw_sw_blend.c ****             }
 838:..\..\..\arduinoLCD\test\Pain Drain\libraries\lvgl\src\draw\sw/lv_draw_sw_blend.c ****         }
 839:..\..\..\arduinoLCD\test\Pain Drain\libraries\lvgl\src\draw\sw/lv_draw_sw_blend.c ****         /*Handle opa and mask values too*/
 840:..\..\..\arduinoLCD\test\Pain Drain\libraries\lvgl\src\draw\sw/lv_draw_sw_blend.c ****         else {
 841:..\..\..\arduinoLCD\test\Pain Drain\libraries\lvgl\src\draw\sw/lv_draw_sw_blend.c ****             uint8_t * dest_buf8_row = dest_buf8;
 842:..\..\..\arduinoLCD\test\Pain Drain\libraries\lvgl\src\draw\sw/lv_draw_sw_blend.c ****             for(y = 0; y < h; y++) {
 843:..\..\..\arduinoLCD\test\Pain Drain\libraries\lvgl\src\draw\sw/lv_draw_sw_blend.c ****                 if(blend_fp == NULL) {
 844:..\..\..\arduinoLCD\test\Pain Drain\libraries\lvgl\src\draw\sw/lv_draw_sw_blend.c ****                     for(x = 0; x < w; x++) {
 845:..\..\..\arduinoLCD\test\Pain Drain\libraries\lvgl\src\draw\sw/lv_draw_sw_blend.c ****                         if(mask[x]) {
 846:..\..\..\arduinoLCD\test\Pain Drain\libraries\lvgl\src\draw\sw/lv_draw_sw_blend.c ****                             lv_opa_t opa_tmp = mask[x] >= LV_OPA_MAX ? opa : ((opa * mask[x]) >> 8)
 847:..\..\..\arduinoLCD\test\Pain Drain\libraries\lvgl\src\draw\sw/lv_draw_sw_blend.c ****                             set_px_argb(dest_buf8, src_buf[x], opa_tmp);
 848:..\..\..\arduinoLCD\test\Pain Drain\libraries\lvgl\src\draw\sw/lv_draw_sw_blend.c ****                         }
 849:..\..\..\arduinoLCD\test\Pain Drain\libraries\lvgl\src\draw\sw/lv_draw_sw_blend.c ****                         dest_buf8 += LV_IMG_PX_SIZE_ALPHA_BYTE;
 850:..\..\..\arduinoLCD\test\Pain Drain\libraries\lvgl\src\draw\sw/lv_draw_sw_blend.c ****                     }
 851:..\..\..\arduinoLCD\test\Pain Drain\libraries\lvgl\src\draw\sw/lv_draw_sw_blend.c ****                 }
 852:..\..\..\arduinoLCD\test\Pain Drain\libraries\lvgl\src\draw\sw/lv_draw_sw_blend.c ****                 else {
 853:..\..\..\arduinoLCD\test\Pain Drain\libraries\lvgl\src\draw\sw/lv_draw_sw_blend.c ****                     for(x = 0; x < w; x++) {
 854:..\..\..\arduinoLCD\test\Pain Drain\libraries\lvgl\src\draw\sw/lv_draw_sw_blend.c ****                         if(mask[x]) {
 855:..\..\..\arduinoLCD\test\Pain Drain\libraries\lvgl\src\draw\sw/lv_draw_sw_blend.c ****                             lv_opa_t opa_tmp = mask[x] >= LV_OPA_MAX ? opa : ((opa * mask[x]) >> 8)
 856:..\..\..\arduinoLCD\test\Pain Drain\libraries\lvgl\src\draw\sw/lv_draw_sw_blend.c ****                             set_px_argb_blend(dest_buf8, src_buf[x], opa_tmp, blend_fp);
 857:..\..\..\arduinoLCD\test\Pain Drain\libraries\lvgl\src\draw\sw/lv_draw_sw_blend.c ****                         }
 858:..\..\..\arduinoLCD\test\Pain Drain\libraries\lvgl\src\draw\sw/lv_draw_sw_blend.c ****                         dest_buf8 += LV_IMG_PX_SIZE_ALPHA_BYTE;
 859:..\..\..\arduinoLCD\test\Pain Drain\libraries\lvgl\src\draw\sw/lv_draw_sw_blend.c ****                     }
 860:..\..\..\arduinoLCD\test\Pain Drain\libraries\lvgl\src\draw\sw/lv_draw_sw_blend.c ****                 }
 861:..\..\..\arduinoLCD\test\Pain Drain\libraries\lvgl\src\draw\sw/lv_draw_sw_blend.c ****                 dest_buf8_row += dest_stride * LV_IMG_PX_SIZE_ALPHA_BYTE;
 862:..\..\..\arduinoLCD\test\Pain Drain\libraries\lvgl\src\draw\sw/lv_draw_sw_blend.c ****                 dest_buf8 = dest_buf8_row;
 863:..\..\..\arduinoLCD\test\Pain Drain\libraries\lvgl\src\draw\sw/lv_draw_sw_blend.c ****                 src_buf += src_stride;
 864:..\..\..\arduinoLCD\test\Pain Drain\libraries\lvgl\src\draw\sw/lv_draw_sw_blend.c ****                 mask += mask_stride;
 865:..\..\..\arduinoLCD\test\Pain Drain\libraries\lvgl\src\draw\sw/lv_draw_sw_blend.c ****             }
ARM GAS  C:\Users\haske\AppData\Local\Temp\cc7ZkKza.s 			page 24


 866:..\..\..\arduinoLCD\test\Pain Drain\libraries\lvgl\src\draw\sw/lv_draw_sw_blend.c ****         }
 867:..\..\..\arduinoLCD\test\Pain Drain\libraries\lvgl\src\draw\sw/lv_draw_sw_blend.c ****     }
 868:..\..\..\arduinoLCD\test\Pain Drain\libraries\lvgl\src\draw\sw/lv_draw_sw_blend.c **** }
 869:..\..\..\arduinoLCD\test\Pain Drain\libraries\lvgl\src\draw\sw/lv_draw_sw_blend.c **** #endif
 870:..\..\..\arduinoLCD\test\Pain Drain\libraries\lvgl\src\draw\sw/lv_draw_sw_blend.c **** 
 871:..\..\..\arduinoLCD\test\Pain Drain\libraries\lvgl\src\draw\sw/lv_draw_sw_blend.c **** 
 872:..\..\..\arduinoLCD\test\Pain Drain\libraries\lvgl\src\draw\sw/lv_draw_sw_blend.c **** #if LV_DRAW_COMPLEX
 873:..\..\..\arduinoLCD\test\Pain Drain\libraries\lvgl\src\draw\sw/lv_draw_sw_blend.c **** static void map_blended(lv_color_t * dest_buf, const lv_area_t * dest_area, lv_coord_t dest_stride,
 874:..\..\..\arduinoLCD\test\Pain Drain\libraries\lvgl\src\draw\sw/lv_draw_sw_blend.c ****                         const lv_color_t * src_buf, lv_coord_t src_stride, lv_opa_t opa,
 875:..\..\..\arduinoLCD\test\Pain Drain\libraries\lvgl\src\draw\sw/lv_draw_sw_blend.c ****                         const lv_opa_t * mask, lv_coord_t mask_stride, lv_blend_mode_t blend_mode)
 876:..\..\..\arduinoLCD\test\Pain Drain\libraries\lvgl\src\draw\sw/lv_draw_sw_blend.c **** {
 302              		.loc 1 876 0
 303              		.cfi_startproc
 304              		@ args = 20, pretend = 0, frame = 32
 305              		@ frame_needed = 0, uses_anonymous_args = 0
 306              	.LVL45:
 307 0000 2DE9F04F 		push	{r4, r5, r6, r7, r8, r9, r10, fp, lr}
 308              		.cfi_def_cfa_offset 36
 309              		.cfi_offset 4, -36
 310              		.cfi_offset 5, -32
 311              		.cfi_offset 6, -28
 312              		.cfi_offset 7, -24
 313              		.cfi_offset 8, -20
 314              		.cfi_offset 9, -16
 315              		.cfi_offset 10, -12
 316              		.cfi_offset 11, -8
 317              		.cfi_offset 14, -4
 318 0004 89B0     		sub	sp, sp, #36
 319              		.cfi_def_cfa_offset 72
 320 0006 8046     		mov	r8, r0
 321 0008 0592     		str	r2, [sp, #20]
 322 000a 9946     		mov	r9, r3
 323 000c BDF94830 		ldrsh	r3, [sp, #72]
 324              	.LVL46:
 325 0010 0693     		str	r3, [sp, #24]
 326 0012 9DF84C30 		ldrb	r3, [sp, #76]	@ zero_extendqisi2
 327 0016 0193     		str	r3, [sp, #4]
 328 0018 DDF850B0 		ldr	fp, [sp, #80]
 329 001c BDF95430 		ldrsh	r3, [sp, #84]
 330 0020 0793     		str	r3, [sp, #28]
 331 0022 9DF85820 		ldrb	r2, [sp, #88]	@ zero_extendqisi2
 332              	.LVL47:
 333              	.LBB104:
 334              	.LBB105:
 125:c:\projects\paindrain\arduinolcd\test\pain drain\libraries\lvgl\src\misc\lv_area.h **** }
 335              		.loc 2 125 0
 336 0026 B1F90430 		ldrsh	r3, [r1, #4]
 337 002a B1F900A0 		ldrsh	r10, [r1]
 338 002e CAEB030A 		rsb	r10, r10, r3
 339 0032 0AF1010A 		add	r10, r10, #1
 340 0036 0FFA8AFA 		sxth	r10, r10
 341              	.LVL48:
 342              	.LBE105:
 343              	.LBE104:
 344              	.LBB106:
 345              	.LBB107:
 346              		.loc 2 135 0
ARM GAS  C:\Users\haske\AppData\Local\Temp\cc7ZkKza.s 			page 25


 347 003a B1F90630 		ldrsh	r3, [r1, #6]
 348 003e B1F90210 		ldrsh	r1, [r1, #2]
 349              	.LVL49:
 350 0042 5B1A     		subs	r3, r3, r1
 351 0044 0133     		adds	r3, r3, #1
 352 0046 1BB2     		sxth	r3, r3
 353 0048 0493     		str	r3, [sp, #16]
 354              	.LVL50:
 355              	.LBE107:
 356              	.LBE106:
 877:..\..\..\arduinoLCD\test\Pain Drain\libraries\lvgl\src\draw\sw/lv_draw_sw_blend.c **** 
 878:..\..\..\arduinoLCD\test\Pain Drain\libraries\lvgl\src\draw\sw/lv_draw_sw_blend.c ****     int32_t w = lv_area_get_width(dest_area);
 879:..\..\..\arduinoLCD\test\Pain Drain\libraries\lvgl\src\draw\sw/lv_draw_sw_blend.c ****     int32_t h = lv_area_get_height(dest_area);
 880:..\..\..\arduinoLCD\test\Pain Drain\libraries\lvgl\src\draw\sw/lv_draw_sw_blend.c **** 
 881:..\..\..\arduinoLCD\test\Pain Drain\libraries\lvgl\src\draw\sw/lv_draw_sw_blend.c ****     int32_t x;
 882:..\..\..\arduinoLCD\test\Pain Drain\libraries\lvgl\src\draw\sw/lv_draw_sw_blend.c ****     int32_t y;
 883:..\..\..\arduinoLCD\test\Pain Drain\libraries\lvgl\src\draw\sw/lv_draw_sw_blend.c **** 
 884:..\..\..\arduinoLCD\test\Pain Drain\libraries\lvgl\src\draw\sw/lv_draw_sw_blend.c ****     lv_color_t (*blend_fp)(lv_color_t, lv_color_t, lv_opa_t);
 885:..\..\..\arduinoLCD\test\Pain Drain\libraries\lvgl\src\draw\sw/lv_draw_sw_blend.c ****     switch(blend_mode) {
 357              		.loc 1 885 0
 358 004a 022A     		cmp	r2, #2
 359 004c 0AD0     		beq	.L48
 360 004e 032A     		cmp	r2, #3
 361 0050 05D0     		beq	.L30
 362 0052 012A     		cmp	r2, #1
 363 0054 40F09D80 		bne	.L27
 886:..\..\..\arduinoLCD\test\Pain Drain\libraries\lvgl\src\draw\sw/lv_draw_sw_blend.c ****         case LV_BLEND_MODE_ADDITIVE:
 887:..\..\..\arduinoLCD\test\Pain Drain\libraries\lvgl\src\draw\sw/lv_draw_sw_blend.c ****             blend_fp = color_blend_true_color_additive;
 364              		.loc 1 887 0
 365 0058 4F4B     		ldr	r3, .L54
 366              	.LVL51:
 367 005a 0293     		str	r3, [sp, #8]
 368 005c 04E0     		b	.L29
 369              	.LVL52:
 370              	.L30:
 888:..\..\..\arduinoLCD\test\Pain Drain\libraries\lvgl\src\draw\sw/lv_draw_sw_blend.c ****             break;
 889:..\..\..\arduinoLCD\test\Pain Drain\libraries\lvgl\src\draw\sw/lv_draw_sw_blend.c ****         case LV_BLEND_MODE_SUBTRACTIVE:
 890:..\..\..\arduinoLCD\test\Pain Drain\libraries\lvgl\src\draw\sw/lv_draw_sw_blend.c ****             blend_fp = color_blend_true_color_subtractive;
 891:..\..\..\arduinoLCD\test\Pain Drain\libraries\lvgl\src\draw\sw/lv_draw_sw_blend.c ****             break;
 892:..\..\..\arduinoLCD\test\Pain Drain\libraries\lvgl\src\draw\sw/lv_draw_sw_blend.c ****         case LV_BLEND_MODE_MULTIPLY:
 893:..\..\..\arduinoLCD\test\Pain Drain\libraries\lvgl\src\draw\sw/lv_draw_sw_blend.c ****             blend_fp = color_blend_true_color_multiply;
 371              		.loc 1 893 0
 372 005e 4F4B     		ldr	r3, .L54+4
 373              	.LVL53:
 374 0060 0293     		str	r3, [sp, #8]
 894:..\..\..\arduinoLCD\test\Pain Drain\libraries\lvgl\src\draw\sw/lv_draw_sw_blend.c ****             break;
 375              		.loc 1 894 0
 376 0062 01E0     		b	.L29
 377              	.LVL54:
 378              	.L48:
 890:..\..\..\arduinoLCD\test\Pain Drain\libraries\lvgl\src\draw\sw/lv_draw_sw_blend.c ****             break;
 379              		.loc 1 890 0
 380 0064 4E4B     		ldr	r3, .L54+8
 381              	.LVL55:
 382 0066 0293     		str	r3, [sp, #8]
 383              	.L29:
 384              	.LVL56:
ARM GAS  C:\Users\haske\AppData\Local\Temp\cc7ZkKza.s 			page 26


 895:..\..\..\arduinoLCD\test\Pain Drain\libraries\lvgl\src\draw\sw/lv_draw_sw_blend.c ****         default:
 896:..\..\..\arduinoLCD\test\Pain Drain\libraries\lvgl\src\draw\sw/lv_draw_sw_blend.c ****             LV_LOG_WARN("fill_blended: unsupported blend mode");
 897:..\..\..\arduinoLCD\test\Pain Drain\libraries\lvgl\src\draw\sw/lv_draw_sw_blend.c ****             return;
 898:..\..\..\arduinoLCD\test\Pain Drain\libraries\lvgl\src\draw\sw/lv_draw_sw_blend.c ****     }
 899:..\..\..\arduinoLCD\test\Pain Drain\libraries\lvgl\src\draw\sw/lv_draw_sw_blend.c **** 
 900:..\..\..\arduinoLCD\test\Pain Drain\libraries\lvgl\src\draw\sw/lv_draw_sw_blend.c ****     lv_color_t last_dest_color;
 901:..\..\..\arduinoLCD\test\Pain Drain\libraries\lvgl\src\draw\sw/lv_draw_sw_blend.c ****     lv_color_t last_src_color;
 902:..\..\..\arduinoLCD\test\Pain Drain\libraries\lvgl\src\draw\sw/lv_draw_sw_blend.c ****     /*Simple fill (maybe with opacity), no masking*/
 903:..\..\..\arduinoLCD\test\Pain Drain\libraries\lvgl\src\draw\sw/lv_draw_sw_blend.c ****     if(mask == NULL) {
 385              		.loc 1 903 0
 386 0068 BBF1000F 		cmp	fp, #0
 387 006c 37D1     		bne	.L32
 388              	.LBB108:
 904:..\..\..\arduinoLCD\test\Pain Drain\libraries\lvgl\src\draw\sw/lv_draw_sw_blend.c ****         last_dest_color = dest_buf[0];
 389              		.loc 1 904 0
 390 006e B8F80030 		ldrh	r3, [r8]
 391              	.LVL57:
 392 0072 1D46     		mov	r5, r3	@ movhi
 905:..\..\..\arduinoLCD\test\Pain Drain\libraries\lvgl\src\draw\sw/lv_draw_sw_blend.c ****         last_src_color = src_buf[0];
 393              		.loc 1 905 0
 394 0074 B9F80070 		ldrh	r7, [r9]
 906:..\..\..\arduinoLCD\test\Pain Drain\libraries\lvgl\src\draw\sw/lv_draw_sw_blend.c ****         lv_color_t last_res_color = blend_fp(last_src_color, last_dest_color, opa);
 395              		.loc 1 906 0
 396 0078 019A     		ldr	r2, [sp, #4]
 397 007a 1946     		mov	r1, r3	@ movhi
 398              	.LVL58:
 399 007c 3846     		mov	r0, r7	@ movhi
 400              	.LVL59:
 401 007e 029C     		ldr	r4, [sp, #8]
 402 0080 A047     		blx	r4
 403              	.LVL60:
 907:..\..\..\arduinoLCD\test\Pain Drain\libraries\lvgl\src\draw\sw/lv_draw_sw_blend.c ****         for(y = 0; y < h; y++) {
 404              		.loc 1 907 0
 405 0082 0026     		movs	r6, #0
 406 0084 0096     		str	r6, [sp]
 407 0086 A346     		mov	fp, r4
 408              	.LVL61:
 409 0088 2E46     		mov	r6, r5	@ movhi
 410 008a 23E0     		b	.L33
 411              	.LVL62:
 412              	.L36:
 908:..\..\..\arduinoLCD\test\Pain Drain\libraries\lvgl\src\draw\sw/lv_draw_sw_blend.c ****             for(x = 0; x < w; x++) {
 909:..\..\..\arduinoLCD\test\Pain Drain\libraries\lvgl\src\draw\sw/lv_draw_sw_blend.c ****                 if(last_src_color.full != src_buf[x].full || last_dest_color.full != dest_buf[x].fu
 413              		.loc 1 909 0
 414 008c BBB2     		uxth	r3, r7
 415 008e 6500     		lsls	r5, r4, #1
 416 0090 09EB0501 		add	r1, r9, r5
 417 0094 39F81420 		ldrh	r2, [r9, r4, lsl #1]
 418 0098 9342     		cmp	r3, r2
 419 009a 04D1     		bne	.L34
 420              		.loc 1 909 0 is_stmt 0 discriminator 1
 421 009c B3B2     		uxth	r3, r6
 422 009e 38F81420 		ldrh	r2, [r8, r4, lsl #1]
 423 00a2 9342     		cmp	r3, r2
 424 00a4 06D0     		beq	.L35
 425              	.L34:
 910:..\..\..\arduinoLCD\test\Pain Drain\libraries\lvgl\src\draw\sw/lv_draw_sw_blend.c ****                     last_dest_color = dest_buf[x];
ARM GAS  C:\Users\haske\AppData\Local\Temp\cc7ZkKza.s 			page 27


 426              		.loc 1 910 0 is_stmt 1
 427 00a6 38F80560 		ldrh	r6, [r8, r5]
 428              	.LVL63:
 911:..\..\..\arduinoLCD\test\Pain Drain\libraries\lvgl\src\draw\sw/lv_draw_sw_blend.c ****                     last_src_color = src_buf[x];
 429              		.loc 1 911 0
 430 00aa 0F88     		ldrh	r7, [r1]
 431              	.LVL64:
 912:..\..\..\arduinoLCD\test\Pain Drain\libraries\lvgl\src\draw\sw/lv_draw_sw_blend.c ****                     last_res_color = blend_fp(last_src_color, last_dest_color, opa);
 432              		.loc 1 912 0
 433 00ac 019A     		ldr	r2, [sp, #4]
 434              	.LVL65:
 435 00ae 3146     		mov	r1, r6	@ movhi
 436              	.LVL66:
 437 00b0 3846     		mov	r0, r7	@ movhi
 438              	.LVL67:
 439 00b2 D847     		blx	fp
 440              	.LVL68:
 441              	.L35:
 913:..\..\..\arduinoLCD\test\Pain Drain\libraries\lvgl\src\draw\sw/lv_draw_sw_blend.c ****                 }
 914:..\..\..\arduinoLCD\test\Pain Drain\libraries\lvgl\src\draw\sw/lv_draw_sw_blend.c ****                 dest_buf[x] = last_res_color;
 442              		.loc 1 914 0 discriminator 2
 443 00b4 28F80500 		strh	r0, [r8, r5]	@ movhi
 908:..\..\..\arduinoLCD\test\Pain Drain\libraries\lvgl\src\draw\sw/lv_draw_sw_blend.c ****                 if(last_src_color.full != src_buf[x].full || last_dest_color.full != dest_buf[x].fu
 444              		.loc 1 908 0 discriminator 2
 445 00b8 0134     		adds	r4, r4, #1
 446              	.LVL69:
 447 00ba 00E0     		b	.L37
 448              	.LVL70:
 449              	.L49:
 450 00bc 0024     		movs	r4, #0
 451              	.LVL71:
 452              	.L37:
 908:..\..\..\arduinoLCD\test\Pain Drain\libraries\lvgl\src\draw\sw/lv_draw_sw_blend.c ****                 if(last_src_color.full != src_buf[x].full || last_dest_color.full != dest_buf[x].fu
 453              		.loc 1 908 0 is_stmt 0 discriminator 1
 454 00be 5445     		cmp	r4, r10
 455 00c0 E4DB     		blt	.L36
 915:..\..\..\arduinoLCD\test\Pain Drain\libraries\lvgl\src\draw\sw/lv_draw_sw_blend.c ****             }
 916:..\..\..\arduinoLCD\test\Pain Drain\libraries\lvgl\src\draw\sw/lv_draw_sw_blend.c ****             dest_buf += dest_stride;
 456              		.loc 1 916 0 is_stmt 1 discriminator 2
 457 00c2 059B     		ldr	r3, [sp, #20]
 458 00c4 08EB4308 		add	r8, r8, r3, lsl #1
 459              	.LVL72:
 917:..\..\..\arduinoLCD\test\Pain Drain\libraries\lvgl\src\draw\sw/lv_draw_sw_blend.c ****             src_buf += src_stride;
 460              		.loc 1 917 0 discriminator 2
 461 00c8 069B     		ldr	r3, [sp, #24]
 462 00ca 09EB4309 		add	r9, r9, r3, lsl #1
 463              	.LVL73:
 907:..\..\..\arduinoLCD\test\Pain Drain\libraries\lvgl\src\draw\sw/lv_draw_sw_blend.c ****             for(x = 0; x < w; x++) {
 464              		.loc 1 907 0 discriminator 2
 465 00ce 009B     		ldr	r3, [sp]
 466 00d0 0133     		adds	r3, r3, #1
 467 00d2 0093     		str	r3, [sp]
 468              	.LVL74:
 469              	.L33:
 907:..\..\..\arduinoLCD\test\Pain Drain\libraries\lvgl\src\draw\sw/lv_draw_sw_blend.c ****             for(x = 0; x < w; x++) {
 470              		.loc 1 907 0 is_stmt 0 discriminator 1
 471 00d4 009B     		ldr	r3, [sp]
ARM GAS  C:\Users\haske\AppData\Local\Temp\cc7ZkKza.s 			page 28


 472 00d6 049A     		ldr	r2, [sp, #16]
 473 00d8 9342     		cmp	r3, r2
 474 00da EFDB     		blt	.L49
 475 00dc 59E0     		b	.L27
 476              	.LVL75:
 477              	.L32:
 478              	.LBE108:
 479              	.LBB109:
 918:..\..\..\arduinoLCD\test\Pain Drain\libraries\lvgl\src\draw\sw/lv_draw_sw_blend.c ****         }
 919:..\..\..\arduinoLCD\test\Pain Drain\libraries\lvgl\src\draw\sw/lv_draw_sw_blend.c ****     }
 920:..\..\..\arduinoLCD\test\Pain Drain\libraries\lvgl\src\draw\sw/lv_draw_sw_blend.c ****     /*Masked*/
 921:..\..\..\arduinoLCD\test\Pain Drain\libraries\lvgl\src\draw\sw/lv_draw_sw_blend.c ****     else {
 922:..\..\..\arduinoLCD\test\Pain Drain\libraries\lvgl\src\draw\sw/lv_draw_sw_blend.c ****         last_dest_color = dest_buf[0];
 480              		.loc 1 922 0 is_stmt 1
 481 00de B8F80030 		ldrh	r3, [r8]
 482              	.LVL76:
 483 00e2 ADF80030 		strh	r3, [sp]	@ movhi
 923:..\..\..\arduinoLCD\test\Pain Drain\libraries\lvgl\src\draw\sw/lv_draw_sw_blend.c ****         last_src_color = src_buf[0];
 484              		.loc 1 923 0
 485 00e6 B9F80070 		ldrh	r7, [r9]
 924:..\..\..\arduinoLCD\test\Pain Drain\libraries\lvgl\src\draw\sw/lv_draw_sw_blend.c ****         lv_opa_t last_opa = mask[0] >= LV_OPA_MAX ? opa : ((opa * mask[0]) >> 8);
 486              		.loc 1 924 0
 487 00ea 9BF80030 		ldrb	r3, [fp]	@ zero_extendqisi2
 488              	.LVL77:
 489 00ee FC2B     		cmp	r3, #252
 490 00f0 05D8     		bhi	.L50
 491              		.loc 1 924 0 is_stmt 0 discriminator 1
 492 00f2 019A     		ldr	r2, [sp, #4]
 493 00f4 03FB02F3 		mul	r3, r3, r2
 494 00f8 C3F30723 		ubfx	r3, r3, #8, #8
 495 00fc 00E0     		b	.L39
 496              	.L50:
 497              		.loc 1 924 0
 498 00fe 019B     		ldr	r3, [sp, #4]
 499              	.L39:
 500              	.LVL78:
 925:..\..\..\arduinoLCD\test\Pain Drain\libraries\lvgl\src\draw\sw/lv_draw_sw_blend.c ****         lv_color_t last_res_color = blend_fp(last_src_color, last_dest_color, last_opa);
 501              		.loc 1 925 0 is_stmt 1 discriminator 4
 502 0100 1C46     		mov	r4, r3
 503 0102 1A46     		mov	r2, r3
 504 0104 BDF80010 		ldrh	r1, [sp]
 505              	.LVL79:
 506 0108 3846     		mov	r0, r7	@ movhi
 507              	.LVL80:
 508 010a 029B     		ldr	r3, [sp, #8]
 509              	.LVL81:
 510 010c 9847     		blx	r3
 511              	.LVL82:
 926:..\..\..\arduinoLCD\test\Pain Drain\libraries\lvgl\src\draw\sw/lv_draw_sw_blend.c ****         for(y = 0; y < h; y++) {
 512              		.loc 1 926 0 discriminator 4
 513 010e 0023     		movs	r3, #0
 514 0110 0393     		str	r3, [sp, #12]
 515 0112 2246     		mov	r2, r4
 516 0114 39E0     		b	.L40
 517              	.LVL83:
 518              	.L45:
 519              	.LBB110:
ARM GAS  C:\Users\haske\AppData\Local\Temp\cc7ZkKza.s 			page 29


 927:..\..\..\arduinoLCD\test\Pain Drain\libraries\lvgl\src\draw\sw/lv_draw_sw_blend.c ****             for(x = 0; x < w; x++) {
 928:..\..\..\arduinoLCD\test\Pain Drain\libraries\lvgl\src\draw\sw/lv_draw_sw_blend.c ****                 if(mask[x] == 0) continue;
 520              		.loc 1 928 0
 521 0116 2646     		mov	r6, r4
 522 0118 1BF80450 		ldrb	r5, [fp, r4]	@ zero_extendqisi2
 523 011c 2DB3     		cbz	r5, .L41
 929:..\..\..\arduinoLCD\test\Pain Drain\libraries\lvgl\src\draw\sw/lv_draw_sw_blend.c ****                 lv_opa_t opa_tmp = mask[x] >= LV_OPA_MAX ? opa : ((opa * mask[x]) >> 8);
 524              		.loc 1 929 0
 525 011e FC2D     		cmp	r5, #252
 526 0120 05D8     		bhi	.L51
 527              		.loc 1 929 0 is_stmt 0 discriminator 1
 528 0122 019B     		ldr	r3, [sp, #4]
 529 0124 05FB03F5 		mul	r5, r5, r3
 530 0128 C5F30725 		ubfx	r5, r5, #8, #8
 531 012c 00E0     		b	.L42
 532              	.L51:
 533              		.loc 1 929 0
 534 012e 019D     		ldr	r5, [sp, #4]
 535              	.L42:
 536              	.LVL84:
 930:..\..\..\arduinoLCD\test\Pain Drain\libraries\lvgl\src\draw\sw/lv_draw_sw_blend.c ****                 if(last_src_color.full != src_buf[x].full || last_dest_color.full != dest_buf[x].fu
 537              		.loc 1 930 0 is_stmt 1 discriminator 4
 538 0130 BBB2     		uxth	r3, r7
 539 0132 09EB460E 		add	lr, r9, r6, lsl #1
 540 0136 39F81610 		ldrh	r1, [r9, r6, lsl #1]
 541 013a 8B42     		cmp	r3, r1
 542 013c 07D1     		bne	.L43
 543              		.loc 1 930 0 is_stmt 0 discriminator 1
 544 013e BDF80030 		ldrh	r3, [sp]
 545 0142 38F81610 		ldrh	r1, [r8, r6, lsl #1]
 546 0146 8B42     		cmp	r3, r1
 547 0148 01D1     		bne	.L43
 548              		.loc 1 930 0 discriminator 2
 549 014a AA42     		cmp	r2, r5
 550 014c 0BD0     		beq	.L44
 551              	.L43:
 931:..\..\..\arduinoLCD\test\Pain Drain\libraries\lvgl\src\draw\sw/lv_draw_sw_blend.c ****                     last_dest_color = dest_buf[x];
 552              		.loc 1 931 0 is_stmt 1
 553 014e 38F81630 		ldrh	r3, [r8, r6, lsl #1]
 554              	.LVL85:
 555 0152 ADF80030 		strh	r3, [sp]	@ movhi
 932:..\..\..\arduinoLCD\test\Pain Drain\libraries\lvgl\src\draw\sw/lv_draw_sw_blend.c ****                     last_src_color = src_buf[x];
 556              		.loc 1 932 0
 557 0156 BEF80070 		ldrh	r7, [lr]
 558              	.LVL86:
 933:..\..\..\arduinoLCD\test\Pain Drain\libraries\lvgl\src\draw\sw/lv_draw_sw_blend.c ****                     last_opa = opa_tmp;
 934:..\..\..\arduinoLCD\test\Pain Drain\libraries\lvgl\src\draw\sw/lv_draw_sw_blend.c ****                     last_res_color = blend_fp(last_src_color, last_dest_color, last_opa);
 559              		.loc 1 934 0
 560 015a 2A46     		mov	r2, r5
 561 015c 1946     		mov	r1, r3	@ movhi
 562              	.LVL87:
 563 015e 3846     		mov	r0, r7	@ movhi
 564              	.LVL88:
 565 0160 029B     		ldr	r3, [sp, #8]
 566              	.LVL89:
 567 0162 9847     		blx	r3
 568              	.LVL90:
ARM GAS  C:\Users\haske\AppData\Local\Temp\cc7ZkKza.s 			page 30


 933:..\..\..\arduinoLCD\test\Pain Drain\libraries\lvgl\src\draw\sw/lv_draw_sw_blend.c ****                     last_opa = opa_tmp;
 569              		.loc 1 933 0
 570 0164 2A46     		mov	r2, r5
 571              	.LVL91:
 572              	.L44:
 935:..\..\..\arduinoLCD\test\Pain Drain\libraries\lvgl\src\draw\sw/lv_draw_sw_blend.c ****                 }
 936:..\..\..\arduinoLCD\test\Pain Drain\libraries\lvgl\src\draw\sw/lv_draw_sw_blend.c ****                 dest_buf[x] = last_res_color;
 573              		.loc 1 936 0
 574 0166 28F81600 		strh	r0, [r8, r6, lsl #1]	@ movhi
 575              	.LVL92:
 576              	.L41:
 577              	.LBE110:
 927:..\..\..\arduinoLCD\test\Pain Drain\libraries\lvgl\src\draw\sw/lv_draw_sw_blend.c ****                 if(mask[x] == 0) continue;
 578              		.loc 1 927 0 discriminator 2
 579 016a 0134     		adds	r4, r4, #1
 580              	.LVL93:
 581 016c 00E0     		b	.L46
 582              	.LVL94:
 583              	.L52:
 584 016e 0024     		movs	r4, #0
 585              	.LVL95:
 586              	.L46:
 927:..\..\..\arduinoLCD\test\Pain Drain\libraries\lvgl\src\draw\sw/lv_draw_sw_blend.c ****                 if(mask[x] == 0) continue;
 587              		.loc 1 927 0 is_stmt 0 discriminator 1
 588 0170 5445     		cmp	r4, r10
 589 0172 D0DB     		blt	.L45
 937:..\..\..\arduinoLCD\test\Pain Drain\libraries\lvgl\src\draw\sw/lv_draw_sw_blend.c ****             }
 938:..\..\..\arduinoLCD\test\Pain Drain\libraries\lvgl\src\draw\sw/lv_draw_sw_blend.c ****             dest_buf += dest_stride;
 590              		.loc 1 938 0 is_stmt 1 discriminator 2
 591 0174 059B     		ldr	r3, [sp, #20]
 592 0176 08EB4308 		add	r8, r8, r3, lsl #1
 593              	.LVL96:
 939:..\..\..\arduinoLCD\test\Pain Drain\libraries\lvgl\src\draw\sw/lv_draw_sw_blend.c ****             src_buf += src_stride;
 594              		.loc 1 939 0 discriminator 2
 595 017a 069B     		ldr	r3, [sp, #24]
 596 017c 09EB4309 		add	r9, r9, r3, lsl #1
 597              	.LVL97:
 940:..\..\..\arduinoLCD\test\Pain Drain\libraries\lvgl\src\draw\sw/lv_draw_sw_blend.c ****             mask += mask_stride;
 598              		.loc 1 940 0 discriminator 2
 599 0180 079B     		ldr	r3, [sp, #28]
 600 0182 9B44     		add	fp, fp, r3
 601              	.LVL98:
 926:..\..\..\arduinoLCD\test\Pain Drain\libraries\lvgl\src\draw\sw/lv_draw_sw_blend.c ****             for(x = 0; x < w; x++) {
 602              		.loc 1 926 0 discriminator 2
 603 0184 039B     		ldr	r3, [sp, #12]
 604 0186 0133     		adds	r3, r3, #1
 605 0188 0393     		str	r3, [sp, #12]
 606              	.LVL99:
 607              	.L40:
 926:..\..\..\arduinoLCD\test\Pain Drain\libraries\lvgl\src\draw\sw/lv_draw_sw_blend.c ****             for(x = 0; x < w; x++) {
 608              		.loc 1 926 0 is_stmt 0 discriminator 1
 609 018a 039B     		ldr	r3, [sp, #12]
 610 018c 0499     		ldr	r1, [sp, #16]
 611 018e 8B42     		cmp	r3, r1
 612 0190 EDDB     		blt	.L52
 613              	.LVL100:
 614              	.L27:
ARM GAS  C:\Users\haske\AppData\Local\Temp\cc7ZkKza.s 			page 31


 615              	.LBE109:
 941:..\..\..\arduinoLCD\test\Pain Drain\libraries\lvgl\src\draw\sw/lv_draw_sw_blend.c ****         }
 942:..\..\..\arduinoLCD\test\Pain Drain\libraries\lvgl\src\draw\sw/lv_draw_sw_blend.c ****     }
 943:..\..\..\arduinoLCD\test\Pain Drain\libraries\lvgl\src\draw\sw/lv_draw_sw_blend.c **** }
 616              		.loc 1 943 0 is_stmt 1
 617 0192 09B0     		add	sp, sp, #36
 618              		.cfi_def_cfa_offset 36
 619              		@ sp needed
 620 0194 BDE8F08F 		pop	{r4, r5, r6, r7, r8, r9, r10, fp, pc}
 621              	.LVL101:
 622              	.L55:
 623              		.align	2
 624              	.L54:
 625 0198 00000000 		.word	color_blend_true_color_additive
 626 019c 00000000 		.word	color_blend_true_color_multiply
 627 01a0 00000000 		.word	color_blend_true_color_subtractive
 628              		.cfi_endproc
 629              	.LFE166:
 630              		.size	map_blended, .-map_blended
 631              		.section	.text.color_blend_true_color_additive,"ax",%progbits
 632              		.align	2
 633              		.thumb
 634              		.thumb_func
 635              		.type	color_blend_true_color_additive, %function
 636              	color_blend_true_color_additive:
 637              	.LFB167:
 944:..\..\..\arduinoLCD\test\Pain Drain\libraries\lvgl\src\draw\sw/lv_draw_sw_blend.c **** 
 945:..\..\..\arduinoLCD\test\Pain Drain\libraries\lvgl\src\draw\sw/lv_draw_sw_blend.c **** static inline lv_color_t color_blend_true_color_additive(lv_color_t fg, lv_color_t bg, lv_opa_t opa
 946:..\..\..\arduinoLCD\test\Pain Drain\libraries\lvgl\src\draw\sw/lv_draw_sw_blend.c **** {
 638              		.loc 1 946 0
 639              		.cfi_startproc
 640              		@ args = 0, pretend = 0, frame = 0
 641              		@ frame_needed = 0, uses_anonymous_args = 0
 642              		@ link register save eliminated.
 643              	.LVL102:
 947:..\..\..\arduinoLCD\test\Pain Drain\libraries\lvgl\src\draw\sw/lv_draw_sw_blend.c **** 
 948:..\..\..\arduinoLCD\test\Pain Drain\libraries\lvgl\src\draw\sw/lv_draw_sw_blend.c ****     if(opa <= LV_OPA_MIN) return bg;
 644              		.loc 1 948 0
 645 0000 022A     		cmp	r2, #2
 646 0002 01D8     		bhi	.L57
 647              		.loc 1 948 0 is_stmt 0 discriminator 1
 648 0004 0846     		mov	r0, r1	@ movhi
 649              	.LVL103:
 949:..\..\..\arduinoLCD\test\Pain Drain\libraries\lvgl\src\draw\sw/lv_draw_sw_blend.c **** 
 950:..\..\..\arduinoLCD\test\Pain Drain\libraries\lvgl\src\draw\sw/lv_draw_sw_blend.c ****     uint32_t tmp;
 951:..\..\..\arduinoLCD\test\Pain Drain\libraries\lvgl\src\draw\sw/lv_draw_sw_blend.c **** #if LV_COLOR_DEPTH == 1
 952:..\..\..\arduinoLCD\test\Pain Drain\libraries\lvgl\src\draw\sw/lv_draw_sw_blend.c ****     tmp = bg.full + fg.full;
 953:..\..\..\arduinoLCD\test\Pain Drain\libraries\lvgl\src\draw\sw/lv_draw_sw_blend.c ****     fg.full = LV_MIN(tmp, 1);
 954:..\..\..\arduinoLCD\test\Pain Drain\libraries\lvgl\src\draw\sw/lv_draw_sw_blend.c **** #else
 955:..\..\..\arduinoLCD\test\Pain Drain\libraries\lvgl\src\draw\sw/lv_draw_sw_blend.c ****     tmp = bg.ch.red + fg.ch.red;
 956:..\..\..\arduinoLCD\test\Pain Drain\libraries\lvgl\src\draw\sw/lv_draw_sw_blend.c **** #if LV_COLOR_DEPTH == 8
 957:..\..\..\arduinoLCD\test\Pain Drain\libraries\lvgl\src\draw\sw/lv_draw_sw_blend.c ****     fg.ch.red = LV_MIN(tmp, 7);
 958:..\..\..\arduinoLCD\test\Pain Drain\libraries\lvgl\src\draw\sw/lv_draw_sw_blend.c **** #elif LV_COLOR_DEPTH == 16
 959:..\..\..\arduinoLCD\test\Pain Drain\libraries\lvgl\src\draw\sw/lv_draw_sw_blend.c ****     fg.ch.red = LV_MIN(tmp, 31);
 960:..\..\..\arduinoLCD\test\Pain Drain\libraries\lvgl\src\draw\sw/lv_draw_sw_blend.c **** #elif LV_COLOR_DEPTH == 32
 961:..\..\..\arduinoLCD\test\Pain Drain\libraries\lvgl\src\draw\sw/lv_draw_sw_blend.c ****     fg.ch.red = LV_MIN(tmp, 255);
 962:..\..\..\arduinoLCD\test\Pain Drain\libraries\lvgl\src\draw\sw/lv_draw_sw_blend.c **** #endif
ARM GAS  C:\Users\haske\AppData\Local\Temp\cc7ZkKza.s 			page 32


 963:..\..\..\arduinoLCD\test\Pain Drain\libraries\lvgl\src\draw\sw/lv_draw_sw_blend.c **** 
 964:..\..\..\arduinoLCD\test\Pain Drain\libraries\lvgl\src\draw\sw/lv_draw_sw_blend.c **** #if LV_COLOR_DEPTH == 8
 965:..\..\..\arduinoLCD\test\Pain Drain\libraries\lvgl\src\draw\sw/lv_draw_sw_blend.c ****     tmp = bg.ch.green + fg.ch.green;
 966:..\..\..\arduinoLCD\test\Pain Drain\libraries\lvgl\src\draw\sw/lv_draw_sw_blend.c ****     fg.ch.green = LV_MIN(tmp, 7);
 967:..\..\..\arduinoLCD\test\Pain Drain\libraries\lvgl\src\draw\sw/lv_draw_sw_blend.c **** #elif LV_COLOR_DEPTH == 16
 968:..\..\..\arduinoLCD\test\Pain Drain\libraries\lvgl\src\draw\sw/lv_draw_sw_blend.c **** #if LV_COLOR_16_SWAP == 0
 969:..\..\..\arduinoLCD\test\Pain Drain\libraries\lvgl\src\draw\sw/lv_draw_sw_blend.c ****     tmp = bg.ch.green + fg.ch.green;
 970:..\..\..\arduinoLCD\test\Pain Drain\libraries\lvgl\src\draw\sw/lv_draw_sw_blend.c ****     fg.ch.green = LV_MIN(tmp, 63);
 971:..\..\..\arduinoLCD\test\Pain Drain\libraries\lvgl\src\draw\sw/lv_draw_sw_blend.c **** #else
 972:..\..\..\arduinoLCD\test\Pain Drain\libraries\lvgl\src\draw\sw/lv_draw_sw_blend.c ****     tmp = (bg.ch.green_h << 3) + bg.ch.green_l + (fg.ch.green_h << 3) + fg.ch.green_l;
 973:..\..\..\arduinoLCD\test\Pain Drain\libraries\lvgl\src\draw\sw/lv_draw_sw_blend.c ****     tmp = LV_MIN(tmp, 63);
 974:..\..\..\arduinoLCD\test\Pain Drain\libraries\lvgl\src\draw\sw/lv_draw_sw_blend.c ****     fg.ch.green_h = tmp >> 3;
 975:..\..\..\arduinoLCD\test\Pain Drain\libraries\lvgl\src\draw\sw/lv_draw_sw_blend.c ****     fg.ch.green_l = tmp & 0x7;
 976:..\..\..\arduinoLCD\test\Pain Drain\libraries\lvgl\src\draw\sw/lv_draw_sw_blend.c **** #endif
 977:..\..\..\arduinoLCD\test\Pain Drain\libraries\lvgl\src\draw\sw/lv_draw_sw_blend.c **** 
 978:..\..\..\arduinoLCD\test\Pain Drain\libraries\lvgl\src\draw\sw/lv_draw_sw_blend.c **** #elif LV_COLOR_DEPTH == 32
 979:..\..\..\arduinoLCD\test\Pain Drain\libraries\lvgl\src\draw\sw/lv_draw_sw_blend.c ****     tmp = bg.ch.green + fg.ch.green;
 980:..\..\..\arduinoLCD\test\Pain Drain\libraries\lvgl\src\draw\sw/lv_draw_sw_blend.c ****     fg.ch.green = LV_MIN(tmp, 255);
 981:..\..\..\arduinoLCD\test\Pain Drain\libraries\lvgl\src\draw\sw/lv_draw_sw_blend.c **** #endif
 982:..\..\..\arduinoLCD\test\Pain Drain\libraries\lvgl\src\draw\sw/lv_draw_sw_blend.c **** 
 983:..\..\..\arduinoLCD\test\Pain Drain\libraries\lvgl\src\draw\sw/lv_draw_sw_blend.c ****     tmp = bg.ch.blue + fg.ch.blue;
 984:..\..\..\arduinoLCD\test\Pain Drain\libraries\lvgl\src\draw\sw/lv_draw_sw_blend.c **** #if LV_COLOR_DEPTH == 8
 985:..\..\..\arduinoLCD\test\Pain Drain\libraries\lvgl\src\draw\sw/lv_draw_sw_blend.c ****     fg.ch.blue = LV_MIN(tmp, 4);
 986:..\..\..\arduinoLCD\test\Pain Drain\libraries\lvgl\src\draw\sw/lv_draw_sw_blend.c **** #elif LV_COLOR_DEPTH == 16
 987:..\..\..\arduinoLCD\test\Pain Drain\libraries\lvgl\src\draw\sw/lv_draw_sw_blend.c ****     fg.ch.blue = LV_MIN(tmp, 31);
 988:..\..\..\arduinoLCD\test\Pain Drain\libraries\lvgl\src\draw\sw/lv_draw_sw_blend.c **** #elif LV_COLOR_DEPTH == 32
 989:..\..\..\arduinoLCD\test\Pain Drain\libraries\lvgl\src\draw\sw/lv_draw_sw_blend.c ****     fg.ch.blue = LV_MIN(tmp, 255);
 990:..\..\..\arduinoLCD\test\Pain Drain\libraries\lvgl\src\draw\sw/lv_draw_sw_blend.c **** #endif
 991:..\..\..\arduinoLCD\test\Pain Drain\libraries\lvgl\src\draw\sw/lv_draw_sw_blend.c **** #endif
 992:..\..\..\arduinoLCD\test\Pain Drain\libraries\lvgl\src\draw\sw/lv_draw_sw_blend.c **** 
 993:..\..\..\arduinoLCD\test\Pain Drain\libraries\lvgl\src\draw\sw/lv_draw_sw_blend.c ****     if(opa == LV_OPA_COVER) return fg;
 994:..\..\..\arduinoLCD\test\Pain Drain\libraries\lvgl\src\draw\sw/lv_draw_sw_blend.c **** 
 995:..\..\..\arduinoLCD\test\Pain Drain\libraries\lvgl\src\draw\sw/lv_draw_sw_blend.c ****     return lv_color_mix(fg, bg, opa);
 996:..\..\..\arduinoLCD\test\Pain Drain\libraries\lvgl\src\draw\sw/lv_draw_sw_blend.c **** }
 650              		.loc 1 996 0 is_stmt 1 discriminator 1
 651 0006 7047     		bx	lr
 652              	.LVL104:
 653              	.L57:
 946:..\..\..\arduinoLCD\test\Pain Drain\libraries\lvgl\src\draw\sw/lv_draw_sw_blend.c **** 
 654              		.loc 1 946 0
 655 0008 30B4     		push	{r4, r5}
 656              		.cfi_def_cfa_offset 8
 657              		.cfi_offset 4, -8
 658              		.cfi_offset 5, -4
 955:..\..\..\arduinoLCD\test\Pain Drain\libraries\lvgl\src\draw\sw/lv_draw_sw_blend.c **** #if LV_COLOR_DEPTH == 8
 659              		.loc 1 955 0
 660 000a C1F3C423 		ubfx	r3, r1, #11, #5
 661 000e C0F3C424 		ubfx	r4, r0, #11, #5
 662 0012 2344     		add	r3, r3, r4
 663              	.LVL105:
 959:..\..\..\arduinoLCD\test\Pain Drain\libraries\lvgl\src\draw\sw/lv_draw_sw_blend.c **** #elif LV_COLOR_DEPTH == 32
 664              		.loc 1 959 0
 665 0014 1F2B     		cmp	r3, #31
 666 0016 28BF     		it	cs
 667 0018 1F23     		movcs	r3, #31
 668              	.LVL106:
 669 001a 63F3CF20 		bfi	r0, r3, #11, #5
ARM GAS  C:\Users\haske\AppData\Local\Temp\cc7ZkKza.s 			page 33


 969:..\..\..\arduinoLCD\test\Pain Drain\libraries\lvgl\src\draw\sw/lv_draw_sw_blend.c ****     fg.ch.green = LV_MIN(tmp, 63);
 670              		.loc 1 969 0
 671 001e C1F34513 		ubfx	r3, r1, #5, #6
 672 0022 C0F34514 		ubfx	r4, r0, #5, #6
 673              	.LVL107:
 674 0026 2344     		add	r3, r3, r4
 675              	.LVL108:
 970:..\..\..\arduinoLCD\test\Pain Drain\libraries\lvgl\src\draw\sw/lv_draw_sw_blend.c **** #else
 676              		.loc 1 970 0
 677 0028 3F2B     		cmp	r3, #63
 678 002a 28BF     		it	cs
 679 002c 3F23     		movcs	r3, #63
 680              	.LVL109:
 681 002e 63F34A10 		bfi	r0, r3, #5, #6
 983:..\..\..\arduinoLCD\test\Pain Drain\libraries\lvgl\src\draw\sw/lv_draw_sw_blend.c **** #if LV_COLOR_DEPTH == 8
 682              		.loc 1 983 0
 683 0032 01F01F03 		and	r3, r1, #31
 684 0036 00F01F04 		and	r4, r0, #31
 685              	.LVL110:
 686 003a 2344     		add	r3, r3, r4
 687              	.LVL111:
 987:..\..\..\arduinoLCD\test\Pain Drain\libraries\lvgl\src\draw\sw/lv_draw_sw_blend.c **** #elif LV_COLOR_DEPTH == 32
 688              		.loc 1 987 0
 689 003c 1F2B     		cmp	r3, #31
 690 003e 28BF     		it	cs
 691 0040 1F23     		movcs	r3, #31
 692              	.LVL112:
 693 0042 63F30400 		bfi	r0, r3, #0, #5
 993:..\..\..\arduinoLCD\test\Pain Drain\libraries\lvgl\src\draw\sw/lv_draw_sw_blend.c **** 
 694              		.loc 1 993 0
 695 0046 FF2A     		cmp	r2, #255
 696 0048 16D0     		beq	.L58
 697              	.LVL113:
 698              	.LBB111:
 699              	.LBB112:
 700              		.file 3 "c:\\projects\\paindrain\\arduinolcd\\test\\pain drain\\libraries\\lvgl\\src\\misc\\lv_col
   1:c:\projects\paindrain\arduinolcd\test\pain drain\libraries\lvgl\src\misc\lv_color.h **** /**
   2:c:\projects\paindrain\arduinolcd\test\pain drain\libraries\lvgl\src\misc\lv_color.h ****  * @file lv_color.h
   3:c:\projects\paindrain\arduinolcd\test\pain drain\libraries\lvgl\src\misc\lv_color.h ****  *
   4:c:\projects\paindrain\arduinolcd\test\pain drain\libraries\lvgl\src\misc\lv_color.h ****  */
   5:c:\projects\paindrain\arduinolcd\test\pain drain\libraries\lvgl\src\misc\lv_color.h **** 
   6:c:\projects\paindrain\arduinolcd\test\pain drain\libraries\lvgl\src\misc\lv_color.h **** #ifndef LV_COLOR_H
   7:c:\projects\paindrain\arduinolcd\test\pain drain\libraries\lvgl\src\misc\lv_color.h **** #define LV_COLOR_H
   8:c:\projects\paindrain\arduinolcd\test\pain drain\libraries\lvgl\src\misc\lv_color.h **** 
   9:c:\projects\paindrain\arduinolcd\test\pain drain\libraries\lvgl\src\misc\lv_color.h **** #ifdef __cplusplus
  10:c:\projects\paindrain\arduinolcd\test\pain drain\libraries\lvgl\src\misc\lv_color.h **** extern "C" {
  11:c:\projects\paindrain\arduinolcd\test\pain drain\libraries\lvgl\src\misc\lv_color.h **** #endif
  12:c:\projects\paindrain\arduinolcd\test\pain drain\libraries\lvgl\src\misc\lv_color.h **** 
  13:c:\projects\paindrain\arduinolcd\test\pain drain\libraries\lvgl\src\misc\lv_color.h **** /*********************
  14:c:\projects\paindrain\arduinolcd\test\pain drain\libraries\lvgl\src\misc\lv_color.h ****  *      INCLUDES
  15:c:\projects\paindrain\arduinolcd\test\pain drain\libraries\lvgl\src\misc\lv_color.h ****  *********************/
  16:c:\projects\paindrain\arduinolcd\test\pain drain\libraries\lvgl\src\misc\lv_color.h **** #include "../lv_conf_internal.h"
  17:c:\projects\paindrain\arduinolcd\test\pain drain\libraries\lvgl\src\misc\lv_color.h **** #include "lv_assert.h"
  18:c:\projects\paindrain\arduinolcd\test\pain drain\libraries\lvgl\src\misc\lv_color.h **** #include "lv_math.h"
  19:c:\projects\paindrain\arduinolcd\test\pain drain\libraries\lvgl\src\misc\lv_color.h **** #include "lv_types.h"
  20:c:\projects\paindrain\arduinolcd\test\pain drain\libraries\lvgl\src\misc\lv_color.h **** 
  21:c:\projects\paindrain\arduinolcd\test\pain drain\libraries\lvgl\src\misc\lv_color.h **** /*Error checking*/
ARM GAS  C:\Users\haske\AppData\Local\Temp\cc7ZkKza.s 			page 34


  22:c:\projects\paindrain\arduinolcd\test\pain drain\libraries\lvgl\src\misc\lv_color.h **** #if LV_COLOR_DEPTH == 24
  23:c:\projects\paindrain\arduinolcd\test\pain drain\libraries\lvgl\src\misc\lv_color.h **** #error "LV_COLOR_DEPTH 24 is deprecated. Use LV_COLOR_DEPTH 32 instead (lv_conf.h)"
  24:c:\projects\paindrain\arduinolcd\test\pain drain\libraries\lvgl\src\misc\lv_color.h **** #endif
  25:c:\projects\paindrain\arduinolcd\test\pain drain\libraries\lvgl\src\misc\lv_color.h **** 
  26:c:\projects\paindrain\arduinolcd\test\pain drain\libraries\lvgl\src\misc\lv_color.h **** #if LV_COLOR_DEPTH != 16 && LV_COLOR_16_SWAP != 0
  27:c:\projects\paindrain\arduinolcd\test\pain drain\libraries\lvgl\src\misc\lv_color.h **** #error "LV_COLOR_16_SWAP requires LV_COLOR_DEPTH == 16. Set it in lv_conf.h"
  28:c:\projects\paindrain\arduinolcd\test\pain drain\libraries\lvgl\src\misc\lv_color.h **** #endif
  29:c:\projects\paindrain\arduinolcd\test\pain drain\libraries\lvgl\src\misc\lv_color.h **** 
  30:c:\projects\paindrain\arduinolcd\test\pain drain\libraries\lvgl\src\misc\lv_color.h **** #include <stdint.h>
  31:c:\projects\paindrain\arduinolcd\test\pain drain\libraries\lvgl\src\misc\lv_color.h **** 
  32:c:\projects\paindrain\arduinolcd\test\pain drain\libraries\lvgl\src\misc\lv_color.h **** /*********************
  33:c:\projects\paindrain\arduinolcd\test\pain drain\libraries\lvgl\src\misc\lv_color.h ****  *      DEFINES
  34:c:\projects\paindrain\arduinolcd\test\pain drain\libraries\lvgl\src\misc\lv_color.h ****  *********************/
  35:c:\projects\paindrain\arduinolcd\test\pain drain\libraries\lvgl\src\misc\lv_color.h **** LV_EXPORT_CONST_INT(LV_COLOR_DEPTH);
  36:c:\projects\paindrain\arduinolcd\test\pain drain\libraries\lvgl\src\misc\lv_color.h **** LV_EXPORT_CONST_INT(LV_COLOR_16_SWAP);
  37:c:\projects\paindrain\arduinolcd\test\pain drain\libraries\lvgl\src\misc\lv_color.h **** 
  38:c:\projects\paindrain\arduinolcd\test\pain drain\libraries\lvgl\src\misc\lv_color.h **** /**
  39:c:\projects\paindrain\arduinolcd\test\pain drain\libraries\lvgl\src\misc\lv_color.h ****  * Opacity percentages.
  40:c:\projects\paindrain\arduinolcd\test\pain drain\libraries\lvgl\src\misc\lv_color.h ****  */
  41:c:\projects\paindrain\arduinolcd\test\pain drain\libraries\lvgl\src\misc\lv_color.h **** enum {
  42:c:\projects\paindrain\arduinolcd\test\pain drain\libraries\lvgl\src\misc\lv_color.h ****     LV_OPA_TRANSP = 0,
  43:c:\projects\paindrain\arduinolcd\test\pain drain\libraries\lvgl\src\misc\lv_color.h ****     LV_OPA_0      = 0,
  44:c:\projects\paindrain\arduinolcd\test\pain drain\libraries\lvgl\src\misc\lv_color.h ****     LV_OPA_10     = 25,
  45:c:\projects\paindrain\arduinolcd\test\pain drain\libraries\lvgl\src\misc\lv_color.h ****     LV_OPA_20     = 51,
  46:c:\projects\paindrain\arduinolcd\test\pain drain\libraries\lvgl\src\misc\lv_color.h ****     LV_OPA_30     = 76,
  47:c:\projects\paindrain\arduinolcd\test\pain drain\libraries\lvgl\src\misc\lv_color.h ****     LV_OPA_40     = 102,
  48:c:\projects\paindrain\arduinolcd\test\pain drain\libraries\lvgl\src\misc\lv_color.h ****     LV_OPA_50     = 127,
  49:c:\projects\paindrain\arduinolcd\test\pain drain\libraries\lvgl\src\misc\lv_color.h ****     LV_OPA_60     = 153,
  50:c:\projects\paindrain\arduinolcd\test\pain drain\libraries\lvgl\src\misc\lv_color.h ****     LV_OPA_70     = 178,
  51:c:\projects\paindrain\arduinolcd\test\pain drain\libraries\lvgl\src\misc\lv_color.h ****     LV_OPA_80     = 204,
  52:c:\projects\paindrain\arduinolcd\test\pain drain\libraries\lvgl\src\misc\lv_color.h ****     LV_OPA_90     = 229,
  53:c:\projects\paindrain\arduinolcd\test\pain drain\libraries\lvgl\src\misc\lv_color.h ****     LV_OPA_100    = 255,
  54:c:\projects\paindrain\arduinolcd\test\pain drain\libraries\lvgl\src\misc\lv_color.h ****     LV_OPA_COVER  = 255,
  55:c:\projects\paindrain\arduinolcd\test\pain drain\libraries\lvgl\src\misc\lv_color.h **** };
  56:c:\projects\paindrain\arduinolcd\test\pain drain\libraries\lvgl\src\misc\lv_color.h **** 
  57:c:\projects\paindrain\arduinolcd\test\pain drain\libraries\lvgl\src\misc\lv_color.h **** #define LV_OPA_MIN 2    /*Opacities below this will be transparent*/
  58:c:\projects\paindrain\arduinolcd\test\pain drain\libraries\lvgl\src\misc\lv_color.h **** #define LV_OPA_MAX 253  /*Opacities above this will fully cover*/
  59:c:\projects\paindrain\arduinolcd\test\pain drain\libraries\lvgl\src\misc\lv_color.h **** 
  60:c:\projects\paindrain\arduinolcd\test\pain drain\libraries\lvgl\src\misc\lv_color.h **** #if LV_COLOR_DEPTH == 1
  61:c:\projects\paindrain\arduinolcd\test\pain drain\libraries\lvgl\src\misc\lv_color.h **** #define LV_COLOR_SIZE 8
  62:c:\projects\paindrain\arduinolcd\test\pain drain\libraries\lvgl\src\misc\lv_color.h **** #elif LV_COLOR_DEPTH == 8
  63:c:\projects\paindrain\arduinolcd\test\pain drain\libraries\lvgl\src\misc\lv_color.h **** #define LV_COLOR_SIZE 8
  64:c:\projects\paindrain\arduinolcd\test\pain drain\libraries\lvgl\src\misc\lv_color.h **** #elif LV_COLOR_DEPTH == 16
  65:c:\projects\paindrain\arduinolcd\test\pain drain\libraries\lvgl\src\misc\lv_color.h **** #define LV_COLOR_SIZE 16
  66:c:\projects\paindrain\arduinolcd\test\pain drain\libraries\lvgl\src\misc\lv_color.h **** #elif LV_COLOR_DEPTH == 32
  67:c:\projects\paindrain\arduinolcd\test\pain drain\libraries\lvgl\src\misc\lv_color.h **** #define LV_COLOR_SIZE 32
  68:c:\projects\paindrain\arduinolcd\test\pain drain\libraries\lvgl\src\misc\lv_color.h **** #else
  69:c:\projects\paindrain\arduinolcd\test\pain drain\libraries\lvgl\src\misc\lv_color.h **** #error "Invalid LV_COLOR_DEPTH in lv_conf.h! Set it to 1, 8, 16 or 32!"
  70:c:\projects\paindrain\arduinolcd\test\pain drain\libraries\lvgl\src\misc\lv_color.h **** #endif
  71:c:\projects\paindrain\arduinolcd\test\pain drain\libraries\lvgl\src\misc\lv_color.h **** 
  72:c:\projects\paindrain\arduinolcd\test\pain drain\libraries\lvgl\src\misc\lv_color.h **** #if defined(__cplusplus) && !defined(_LV_COLOR_HAS_MODERN_CPP)
  73:c:\projects\paindrain\arduinolcd\test\pain drain\libraries\lvgl\src\misc\lv_color.h **** /**
  74:c:\projects\paindrain\arduinolcd\test\pain drain\libraries\lvgl\src\misc\lv_color.h **** * MSVC compiler's definition of the __cplusplus indicating 199711L regardless to C++ standard versi
  75:c:\projects\paindrain\arduinolcd\test\pain drain\libraries\lvgl\src\misc\lv_color.h **** * see https://devblogs.microsoft.com/cppblog/msvc-now-correctly-reports-cplusplus
  76:c:\projects\paindrain\arduinolcd\test\pain drain\libraries\lvgl\src\misc\lv_color.h **** * so we use _MSC_VER macro instead of __cplusplus
  77:c:\projects\paindrain\arduinolcd\test\pain drain\libraries\lvgl\src\misc\lv_color.h **** */
  78:c:\projects\paindrain\arduinolcd\test\pain drain\libraries\lvgl\src\misc\lv_color.h **** #ifdef _MSC_VER
ARM GAS  C:\Users\haske\AppData\Local\Temp\cc7ZkKza.s 			page 35


  79:c:\projects\paindrain\arduinolcd\test\pain drain\libraries\lvgl\src\misc\lv_color.h **** #if _MSC_VER >= 1900 /*Visual Studio 2015*/
  80:c:\projects\paindrain\arduinolcd\test\pain drain\libraries\lvgl\src\misc\lv_color.h **** #define _LV_COLOR_HAS_MODERN_CPP 1
  81:c:\projects\paindrain\arduinolcd\test\pain drain\libraries\lvgl\src\misc\lv_color.h **** #endif
  82:c:\projects\paindrain\arduinolcd\test\pain drain\libraries\lvgl\src\misc\lv_color.h **** #else
  83:c:\projects\paindrain\arduinolcd\test\pain drain\libraries\lvgl\src\misc\lv_color.h **** #if __cplusplus >= 201103L
  84:c:\projects\paindrain\arduinolcd\test\pain drain\libraries\lvgl\src\misc\lv_color.h **** #define _LV_COLOR_HAS_MODERN_CPP 1
  85:c:\projects\paindrain\arduinolcd\test\pain drain\libraries\lvgl\src\misc\lv_color.h **** #endif
  86:c:\projects\paindrain\arduinolcd\test\pain drain\libraries\lvgl\src\misc\lv_color.h **** #endif
  87:c:\projects\paindrain\arduinolcd\test\pain drain\libraries\lvgl\src\misc\lv_color.h **** #endif /*__cplusplus*/
  88:c:\projects\paindrain\arduinolcd\test\pain drain\libraries\lvgl\src\misc\lv_color.h **** 
  89:c:\projects\paindrain\arduinolcd\test\pain drain\libraries\lvgl\src\misc\lv_color.h **** #ifndef _LV_COLOR_HAS_MODERN_CPP
  90:c:\projects\paindrain\arduinolcd\test\pain drain\libraries\lvgl\src\misc\lv_color.h **** #define _LV_COLOR_HAS_MODERN_CPP 0
  91:c:\projects\paindrain\arduinolcd\test\pain drain\libraries\lvgl\src\misc\lv_color.h **** #endif
  92:c:\projects\paindrain\arduinolcd\test\pain drain\libraries\lvgl\src\misc\lv_color.h **** 
  93:c:\projects\paindrain\arduinolcd\test\pain drain\libraries\lvgl\src\misc\lv_color.h **** #if _LV_COLOR_HAS_MODERN_CPP
  94:c:\projects\paindrain\arduinolcd\test\pain drain\libraries\lvgl\src\misc\lv_color.h **** /*Fix msvc compiler error C4576 inside C++ code*/
  95:c:\projects\paindrain\arduinolcd\test\pain drain\libraries\lvgl\src\misc\lv_color.h **** #define _LV_COLOR_MAKE_TYPE_HELPER lv_color_t
  96:c:\projects\paindrain\arduinolcd\test\pain drain\libraries\lvgl\src\misc\lv_color.h **** #else
  97:c:\projects\paindrain\arduinolcd\test\pain drain\libraries\lvgl\src\misc\lv_color.h **** #define _LV_COLOR_MAKE_TYPE_HELPER (lv_color_t)
  98:c:\projects\paindrain\arduinolcd\test\pain drain\libraries\lvgl\src\misc\lv_color.h **** #endif
  99:c:\projects\paindrain\arduinolcd\test\pain drain\libraries\lvgl\src\misc\lv_color.h **** 
 100:c:\projects\paindrain\arduinolcd\test\pain drain\libraries\lvgl\src\misc\lv_color.h **** /*---------------------------------------
 101:c:\projects\paindrain\arduinolcd\test\pain drain\libraries\lvgl\src\misc\lv_color.h ****  * Macros for all existing color depths
 102:c:\projects\paindrain\arduinolcd\test\pain drain\libraries\lvgl\src\misc\lv_color.h ****  * to set/get values of the color channels
 103:c:\projects\paindrain\arduinolcd\test\pain drain\libraries\lvgl\src\misc\lv_color.h ****  *------------------------------------------*/
 104:c:\projects\paindrain\arduinolcd\test\pain drain\libraries\lvgl\src\misc\lv_color.h **** # define LV_COLOR_SET_R1(c, v) (c).ch.red = (uint8_t)((v) & 0x1)
 105:c:\projects\paindrain\arduinolcd\test\pain drain\libraries\lvgl\src\misc\lv_color.h **** # define LV_COLOR_SET_G1(c, v) (c).ch.green = (uint8_t)((v) & 0x1)
 106:c:\projects\paindrain\arduinolcd\test\pain drain\libraries\lvgl\src\misc\lv_color.h **** # define LV_COLOR_SET_B1(c, v) (c).ch.blue = (uint8_t)((v) & 0x1)
 107:c:\projects\paindrain\arduinolcd\test\pain drain\libraries\lvgl\src\misc\lv_color.h **** # define LV_COLOR_SET_A1(c, v) do {} while(0)
 108:c:\projects\paindrain\arduinolcd\test\pain drain\libraries\lvgl\src\misc\lv_color.h **** 
 109:c:\projects\paindrain\arduinolcd\test\pain drain\libraries\lvgl\src\misc\lv_color.h **** # define LV_COLOR_GET_R1(c) (c).ch.red
 110:c:\projects\paindrain\arduinolcd\test\pain drain\libraries\lvgl\src\misc\lv_color.h **** # define LV_COLOR_GET_G1(c) (c).ch.green
 111:c:\projects\paindrain\arduinolcd\test\pain drain\libraries\lvgl\src\misc\lv_color.h **** # define LV_COLOR_GET_B1(c) (c).ch.blue
 112:c:\projects\paindrain\arduinolcd\test\pain drain\libraries\lvgl\src\misc\lv_color.h **** # define LV_COLOR_GET_A1(c) 0xFF
 113:c:\projects\paindrain\arduinolcd\test\pain drain\libraries\lvgl\src\misc\lv_color.h **** 
 114:c:\projects\paindrain\arduinolcd\test\pain drain\libraries\lvgl\src\misc\lv_color.h **** # define _LV_COLOR_ZERO_INITIALIZER1 {0x00}
 115:c:\projects\paindrain\arduinolcd\test\pain drain\libraries\lvgl\src\misc\lv_color.h **** # define LV_COLOR_MAKE1(r8, g8, b8)  {(uint8_t)((b8 >> 7) | (g8 >> 7) | (r8 >> 7))}
 116:c:\projects\paindrain\arduinolcd\test\pain drain\libraries\lvgl\src\misc\lv_color.h **** 
 117:c:\projects\paindrain\arduinolcd\test\pain drain\libraries\lvgl\src\misc\lv_color.h **** # define LV_COLOR_SET_R8(c, v) (c).ch.red = (uint8_t)((v) & 0x7U)
 118:c:\projects\paindrain\arduinolcd\test\pain drain\libraries\lvgl\src\misc\lv_color.h **** # define LV_COLOR_SET_G8(c, v) (c).ch.green = (uint8_t)((v) & 0x7U)
 119:c:\projects\paindrain\arduinolcd\test\pain drain\libraries\lvgl\src\misc\lv_color.h **** # define LV_COLOR_SET_B8(c, v) (c).ch.blue = (uint8_t)((v) & 0x3U)
 120:c:\projects\paindrain\arduinolcd\test\pain drain\libraries\lvgl\src\misc\lv_color.h **** # define LV_COLOR_SET_A8(c, v) do {} while(0)
 121:c:\projects\paindrain\arduinolcd\test\pain drain\libraries\lvgl\src\misc\lv_color.h **** 
 122:c:\projects\paindrain\arduinolcd\test\pain drain\libraries\lvgl\src\misc\lv_color.h **** # define LV_COLOR_GET_R8(c) (c).ch.red
 123:c:\projects\paindrain\arduinolcd\test\pain drain\libraries\lvgl\src\misc\lv_color.h **** # define LV_COLOR_GET_G8(c) (c).ch.green
 124:c:\projects\paindrain\arduinolcd\test\pain drain\libraries\lvgl\src\misc\lv_color.h **** # define LV_COLOR_GET_B8(c) (c).ch.blue
 125:c:\projects\paindrain\arduinolcd\test\pain drain\libraries\lvgl\src\misc\lv_color.h **** # define LV_COLOR_GET_A8(c) 0xFF
 126:c:\projects\paindrain\arduinolcd\test\pain drain\libraries\lvgl\src\misc\lv_color.h **** 
 127:c:\projects\paindrain\arduinolcd\test\pain drain\libraries\lvgl\src\misc\lv_color.h **** # define _LV_COLOR_ZERO_INITIALIZER8 {{0x00, 0x00, 0x00}}
 128:c:\projects\paindrain\arduinolcd\test\pain drain\libraries\lvgl\src\misc\lv_color.h **** # define LV_COLOR_MAKE8(r8, g8, b8) {{(uint8_t)((b8 >> 6) & 0x3U), (uint8_t)((g8 >> 5) & 0x7U), (ui
 129:c:\projects\paindrain\arduinolcd\test\pain drain\libraries\lvgl\src\misc\lv_color.h **** 
 130:c:\projects\paindrain\arduinolcd\test\pain drain\libraries\lvgl\src\misc\lv_color.h **** # define LV_COLOR_SET_R16(c, v) (c).ch.red = (uint8_t)((v) & 0x1FU)
 131:c:\projects\paindrain\arduinolcd\test\pain drain\libraries\lvgl\src\misc\lv_color.h **** #if LV_COLOR_16_SWAP == 0
 132:c:\projects\paindrain\arduinolcd\test\pain drain\libraries\lvgl\src\misc\lv_color.h **** # define LV_COLOR_SET_G16(c, v) (c).ch.green = (uint8_t)((v) & 0x3FU)
 133:c:\projects\paindrain\arduinolcd\test\pain drain\libraries\lvgl\src\misc\lv_color.h **** #else
 134:c:\projects\paindrain\arduinolcd\test\pain drain\libraries\lvgl\src\misc\lv_color.h **** # define LV_COLOR_SET_G16(c, v) {(c).ch.green_h = (uint8_t)(((v) >> 3) & 0x7); (c).ch.green_l = (ui
 135:c:\projects\paindrain\arduinolcd\test\pain drain\libraries\lvgl\src\misc\lv_color.h **** #endif
ARM GAS  C:\Users\haske\AppData\Local\Temp\cc7ZkKza.s 			page 36


 136:c:\projects\paindrain\arduinolcd\test\pain drain\libraries\lvgl\src\misc\lv_color.h **** # define LV_COLOR_SET_B16(c, v) (c).ch.blue = (uint8_t)((v) & 0x1FU)
 137:c:\projects\paindrain\arduinolcd\test\pain drain\libraries\lvgl\src\misc\lv_color.h **** # define LV_COLOR_SET_A16(c, v) do {} while(0)
 138:c:\projects\paindrain\arduinolcd\test\pain drain\libraries\lvgl\src\misc\lv_color.h **** 
 139:c:\projects\paindrain\arduinolcd\test\pain drain\libraries\lvgl\src\misc\lv_color.h **** # define LV_COLOR_GET_R16(c) (c).ch.red
 140:c:\projects\paindrain\arduinolcd\test\pain drain\libraries\lvgl\src\misc\lv_color.h **** #if LV_COLOR_16_SWAP == 0
 141:c:\projects\paindrain\arduinolcd\test\pain drain\libraries\lvgl\src\misc\lv_color.h **** # define LV_COLOR_GET_G16(c) (c).ch.green
 142:c:\projects\paindrain\arduinolcd\test\pain drain\libraries\lvgl\src\misc\lv_color.h **** #else
 143:c:\projects\paindrain\arduinolcd\test\pain drain\libraries\lvgl\src\misc\lv_color.h **** # define LV_COLOR_GET_G16(c) (((c).ch.green_h << 3) + (c).ch.green_l)
 144:c:\projects\paindrain\arduinolcd\test\pain drain\libraries\lvgl\src\misc\lv_color.h **** #endif
 145:c:\projects\paindrain\arduinolcd\test\pain drain\libraries\lvgl\src\misc\lv_color.h **** # define LV_COLOR_GET_B16(c) (c).ch.blue
 146:c:\projects\paindrain\arduinolcd\test\pain drain\libraries\lvgl\src\misc\lv_color.h **** # define LV_COLOR_GET_A16(c) 0xFF
 147:c:\projects\paindrain\arduinolcd\test\pain drain\libraries\lvgl\src\misc\lv_color.h **** 
 148:c:\projects\paindrain\arduinolcd\test\pain drain\libraries\lvgl\src\misc\lv_color.h **** #if LV_COLOR_16_SWAP == 0
 149:c:\projects\paindrain\arduinolcd\test\pain drain\libraries\lvgl\src\misc\lv_color.h **** # define _LV_COLOR_ZERO_INITIALIZER16  {{0x00, 0x00, 0x00}}
 150:c:\projects\paindrain\arduinolcd\test\pain drain\libraries\lvgl\src\misc\lv_color.h **** # define LV_COLOR_MAKE16(r8, g8, b8) {{(uint8_t)((b8 >> 3) & 0x1FU), (uint8_t)((g8 >> 2) & 0x3FU), 
 151:c:\projects\paindrain\arduinolcd\test\pain drain\libraries\lvgl\src\misc\lv_color.h **** #else
 152:c:\projects\paindrain\arduinolcd\test\pain drain\libraries\lvgl\src\misc\lv_color.h **** # define _LV_COLOR_ZERO_INITIALIZER16 {{0x00, 0x00, 0x00, 0x00}}
 153:c:\projects\paindrain\arduinolcd\test\pain drain\libraries\lvgl\src\misc\lv_color.h **** # define LV_COLOR_MAKE16(r8, g8, b8) {{(uint8_t)((g8 >> 5) & 0x7U), (uint8_t)((r8 >> 3) & 0x1FU), (
 154:c:\projects\paindrain\arduinolcd\test\pain drain\libraries\lvgl\src\misc\lv_color.h **** #endif
 155:c:\projects\paindrain\arduinolcd\test\pain drain\libraries\lvgl\src\misc\lv_color.h **** 
 156:c:\projects\paindrain\arduinolcd\test\pain drain\libraries\lvgl\src\misc\lv_color.h **** # define LV_COLOR_SET_R32(c, v) (c).ch.red = (uint8_t)((v) & 0xFF)
 157:c:\projects\paindrain\arduinolcd\test\pain drain\libraries\lvgl\src\misc\lv_color.h **** # define LV_COLOR_SET_G32(c, v) (c).ch.green = (uint8_t)((v) & 0xFF)
 158:c:\projects\paindrain\arduinolcd\test\pain drain\libraries\lvgl\src\misc\lv_color.h **** # define LV_COLOR_SET_B32(c, v) (c).ch.blue = (uint8_t)((v) & 0xFF)
 159:c:\projects\paindrain\arduinolcd\test\pain drain\libraries\lvgl\src\misc\lv_color.h **** # define LV_COLOR_SET_A32(c, v) (c).ch.alpha = (uint8_t)((v) & 0xFF)
 160:c:\projects\paindrain\arduinolcd\test\pain drain\libraries\lvgl\src\misc\lv_color.h **** 
 161:c:\projects\paindrain\arduinolcd\test\pain drain\libraries\lvgl\src\misc\lv_color.h **** # define LV_COLOR_GET_R32(c) (c).ch.red
 162:c:\projects\paindrain\arduinolcd\test\pain drain\libraries\lvgl\src\misc\lv_color.h **** # define LV_COLOR_GET_G32(c) (c).ch.green
 163:c:\projects\paindrain\arduinolcd\test\pain drain\libraries\lvgl\src\misc\lv_color.h **** # define LV_COLOR_GET_B32(c) (c).ch.blue
 164:c:\projects\paindrain\arduinolcd\test\pain drain\libraries\lvgl\src\misc\lv_color.h **** # define LV_COLOR_GET_A32(c) (c).ch.alpha
 165:c:\projects\paindrain\arduinolcd\test\pain drain\libraries\lvgl\src\misc\lv_color.h **** 
 166:c:\projects\paindrain\arduinolcd\test\pain drain\libraries\lvgl\src\misc\lv_color.h **** # define _LV_COLOR_ZERO_INITIALIZER32  {{0x00, 0x00, 0x00, 0x00}}
 167:c:\projects\paindrain\arduinolcd\test\pain drain\libraries\lvgl\src\misc\lv_color.h **** # define LV_COLOR_MAKE32(r8, g8, b8) {{b8, g8, r8, 0xff}} /*Fix 0xff alpha*/
 168:c:\projects\paindrain\arduinolcd\test\pain drain\libraries\lvgl\src\misc\lv_color.h **** 
 169:c:\projects\paindrain\arduinolcd\test\pain drain\libraries\lvgl\src\misc\lv_color.h **** /*---------------------------------------
 170:c:\projects\paindrain\arduinolcd\test\pain drain\libraries\lvgl\src\misc\lv_color.h ****  * Macros for the current color depth
 171:c:\projects\paindrain\arduinolcd\test\pain drain\libraries\lvgl\src\misc\lv_color.h ****  * to set/get values of the color channels
 172:c:\projects\paindrain\arduinolcd\test\pain drain\libraries\lvgl\src\misc\lv_color.h ****  *------------------------------------------*/
 173:c:\projects\paindrain\arduinolcd\test\pain drain\libraries\lvgl\src\misc\lv_color.h **** #define LV_COLOR_SET_R(c, v) LV_CONCAT(LV_COLOR_SET_R, LV_COLOR_DEPTH)(c, v)
 174:c:\projects\paindrain\arduinolcd\test\pain drain\libraries\lvgl\src\misc\lv_color.h **** #define LV_COLOR_SET_G(c, v) LV_CONCAT(LV_COLOR_SET_G, LV_COLOR_DEPTH)(c, v)
 175:c:\projects\paindrain\arduinolcd\test\pain drain\libraries\lvgl\src\misc\lv_color.h **** #define LV_COLOR_SET_B(c, v) LV_CONCAT(LV_COLOR_SET_B, LV_COLOR_DEPTH)(c, v)
 176:c:\projects\paindrain\arduinolcd\test\pain drain\libraries\lvgl\src\misc\lv_color.h **** #define LV_COLOR_SET_A(c, v) LV_CONCAT(LV_COLOR_SET_A, LV_COLOR_DEPTH)(c, v)
 177:c:\projects\paindrain\arduinolcd\test\pain drain\libraries\lvgl\src\misc\lv_color.h **** 
 178:c:\projects\paindrain\arduinolcd\test\pain drain\libraries\lvgl\src\misc\lv_color.h **** #define LV_COLOR_GET_R(c) LV_CONCAT(LV_COLOR_GET_R, LV_COLOR_DEPTH)(c)
 179:c:\projects\paindrain\arduinolcd\test\pain drain\libraries\lvgl\src\misc\lv_color.h **** #define LV_COLOR_GET_G(c) LV_CONCAT(LV_COLOR_GET_G, LV_COLOR_DEPTH)(c)
 180:c:\projects\paindrain\arduinolcd\test\pain drain\libraries\lvgl\src\misc\lv_color.h **** #define LV_COLOR_GET_B(c) LV_CONCAT(LV_COLOR_GET_B, LV_COLOR_DEPTH)(c)
 181:c:\projects\paindrain\arduinolcd\test\pain drain\libraries\lvgl\src\misc\lv_color.h **** #define LV_COLOR_GET_A(c) LV_CONCAT(LV_COLOR_GET_A, LV_COLOR_DEPTH)(c)
 182:c:\projects\paindrain\arduinolcd\test\pain drain\libraries\lvgl\src\misc\lv_color.h **** 
 183:c:\projects\paindrain\arduinolcd\test\pain drain\libraries\lvgl\src\misc\lv_color.h **** #define _LV_COLOR_ZERO_INITIALIZER LV_CONCAT(_LV_COLOR_ZERO_INITIALIZER, LV_COLOR_DEPTH)
 184:c:\projects\paindrain\arduinolcd\test\pain drain\libraries\lvgl\src\misc\lv_color.h **** #define LV_COLOR_MAKE(r8, g8, b8) LV_CONCAT(LV_COLOR_MAKE, LV_COLOR_DEPTH)(r8, g8, b8)
 185:c:\projects\paindrain\arduinolcd\test\pain drain\libraries\lvgl\src\misc\lv_color.h **** 
 186:c:\projects\paindrain\arduinolcd\test\pain drain\libraries\lvgl\src\misc\lv_color.h **** /**********************
 187:c:\projects\paindrain\arduinolcd\test\pain drain\libraries\lvgl\src\misc\lv_color.h ****  *      TYPEDEFS
 188:c:\projects\paindrain\arduinolcd\test\pain drain\libraries\lvgl\src\misc\lv_color.h ****  **********************/
 189:c:\projects\paindrain\arduinolcd\test\pain drain\libraries\lvgl\src\misc\lv_color.h **** 
 190:c:\projects\paindrain\arduinolcd\test\pain drain\libraries\lvgl\src\misc\lv_color.h **** typedef union {
 191:c:\projects\paindrain\arduinolcd\test\pain drain\libraries\lvgl\src\misc\lv_color.h ****     uint8_t full; /*must be declared first to set all bits of byte via initializer list*/
 192:c:\projects\paindrain\arduinolcd\test\pain drain\libraries\lvgl\src\misc\lv_color.h ****     union {
ARM GAS  C:\Users\haske\AppData\Local\Temp\cc7ZkKza.s 			page 37


 193:c:\projects\paindrain\arduinolcd\test\pain drain\libraries\lvgl\src\misc\lv_color.h ****         uint8_t blue : 1;
 194:c:\projects\paindrain\arduinolcd\test\pain drain\libraries\lvgl\src\misc\lv_color.h ****         uint8_t green : 1;
 195:c:\projects\paindrain\arduinolcd\test\pain drain\libraries\lvgl\src\misc\lv_color.h ****         uint8_t red : 1;
 196:c:\projects\paindrain\arduinolcd\test\pain drain\libraries\lvgl\src\misc\lv_color.h ****     } ch;
 197:c:\projects\paindrain\arduinolcd\test\pain drain\libraries\lvgl\src\misc\lv_color.h **** } lv_color1_t;
 198:c:\projects\paindrain\arduinolcd\test\pain drain\libraries\lvgl\src\misc\lv_color.h **** 
 199:c:\projects\paindrain\arduinolcd\test\pain drain\libraries\lvgl\src\misc\lv_color.h **** typedef union {
 200:c:\projects\paindrain\arduinolcd\test\pain drain\libraries\lvgl\src\misc\lv_color.h ****     struct {
 201:c:\projects\paindrain\arduinolcd\test\pain drain\libraries\lvgl\src\misc\lv_color.h ****         uint8_t blue : 2;
 202:c:\projects\paindrain\arduinolcd\test\pain drain\libraries\lvgl\src\misc\lv_color.h ****         uint8_t green : 3;
 203:c:\projects\paindrain\arduinolcd\test\pain drain\libraries\lvgl\src\misc\lv_color.h ****         uint8_t red : 3;
 204:c:\projects\paindrain\arduinolcd\test\pain drain\libraries\lvgl\src\misc\lv_color.h ****     } ch;
 205:c:\projects\paindrain\arduinolcd\test\pain drain\libraries\lvgl\src\misc\lv_color.h ****     uint8_t full;
 206:c:\projects\paindrain\arduinolcd\test\pain drain\libraries\lvgl\src\misc\lv_color.h **** } lv_color8_t;
 207:c:\projects\paindrain\arduinolcd\test\pain drain\libraries\lvgl\src\misc\lv_color.h **** 
 208:c:\projects\paindrain\arduinolcd\test\pain drain\libraries\lvgl\src\misc\lv_color.h **** typedef union {
 209:c:\projects\paindrain\arduinolcd\test\pain drain\libraries\lvgl\src\misc\lv_color.h ****     struct {
 210:c:\projects\paindrain\arduinolcd\test\pain drain\libraries\lvgl\src\misc\lv_color.h **** #if LV_COLOR_16_SWAP == 0
 211:c:\projects\paindrain\arduinolcd\test\pain drain\libraries\lvgl\src\misc\lv_color.h ****         uint16_t blue : 5;
 212:c:\projects\paindrain\arduinolcd\test\pain drain\libraries\lvgl\src\misc\lv_color.h ****         uint16_t green : 6;
 213:c:\projects\paindrain\arduinolcd\test\pain drain\libraries\lvgl\src\misc\lv_color.h ****         uint16_t red : 5;
 214:c:\projects\paindrain\arduinolcd\test\pain drain\libraries\lvgl\src\misc\lv_color.h **** #else
 215:c:\projects\paindrain\arduinolcd\test\pain drain\libraries\lvgl\src\misc\lv_color.h ****         uint16_t green_h : 3;
 216:c:\projects\paindrain\arduinolcd\test\pain drain\libraries\lvgl\src\misc\lv_color.h ****         uint16_t red : 5;
 217:c:\projects\paindrain\arduinolcd\test\pain drain\libraries\lvgl\src\misc\lv_color.h ****         uint16_t blue : 5;
 218:c:\projects\paindrain\arduinolcd\test\pain drain\libraries\lvgl\src\misc\lv_color.h ****         uint16_t green_l : 3;
 219:c:\projects\paindrain\arduinolcd\test\pain drain\libraries\lvgl\src\misc\lv_color.h **** #endif
 220:c:\projects\paindrain\arduinolcd\test\pain drain\libraries\lvgl\src\misc\lv_color.h ****     } ch;
 221:c:\projects\paindrain\arduinolcd\test\pain drain\libraries\lvgl\src\misc\lv_color.h ****     uint16_t full;
 222:c:\projects\paindrain\arduinolcd\test\pain drain\libraries\lvgl\src\misc\lv_color.h **** } lv_color16_t;
 223:c:\projects\paindrain\arduinolcd\test\pain drain\libraries\lvgl\src\misc\lv_color.h **** 
 224:c:\projects\paindrain\arduinolcd\test\pain drain\libraries\lvgl\src\misc\lv_color.h **** typedef union {
 225:c:\projects\paindrain\arduinolcd\test\pain drain\libraries\lvgl\src\misc\lv_color.h ****     struct {
 226:c:\projects\paindrain\arduinolcd\test\pain drain\libraries\lvgl\src\misc\lv_color.h ****         uint8_t blue;
 227:c:\projects\paindrain\arduinolcd\test\pain drain\libraries\lvgl\src\misc\lv_color.h ****         uint8_t green;
 228:c:\projects\paindrain\arduinolcd\test\pain drain\libraries\lvgl\src\misc\lv_color.h ****         uint8_t red;
 229:c:\projects\paindrain\arduinolcd\test\pain drain\libraries\lvgl\src\misc\lv_color.h ****         uint8_t alpha;
 230:c:\projects\paindrain\arduinolcd\test\pain drain\libraries\lvgl\src\misc\lv_color.h ****     } ch;
 231:c:\projects\paindrain\arduinolcd\test\pain drain\libraries\lvgl\src\misc\lv_color.h ****     uint32_t full;
 232:c:\projects\paindrain\arduinolcd\test\pain drain\libraries\lvgl\src\misc\lv_color.h **** } lv_color32_t;
 233:c:\projects\paindrain\arduinolcd\test\pain drain\libraries\lvgl\src\misc\lv_color.h **** 
 234:c:\projects\paindrain\arduinolcd\test\pain drain\libraries\lvgl\src\misc\lv_color.h **** typedef LV_CONCAT3(uint, LV_COLOR_SIZE, _t) lv_color_int_t;
 235:c:\projects\paindrain\arduinolcd\test\pain drain\libraries\lvgl\src\misc\lv_color.h **** typedef LV_CONCAT3(lv_color, LV_COLOR_DEPTH, _t) lv_color_t;
 236:c:\projects\paindrain\arduinolcd\test\pain drain\libraries\lvgl\src\misc\lv_color.h **** 
 237:c:\projects\paindrain\arduinolcd\test\pain drain\libraries\lvgl\src\misc\lv_color.h **** typedef struct {
 238:c:\projects\paindrain\arduinolcd\test\pain drain\libraries\lvgl\src\misc\lv_color.h ****     uint16_t h;
 239:c:\projects\paindrain\arduinolcd\test\pain drain\libraries\lvgl\src\misc\lv_color.h ****     uint8_t s;
 240:c:\projects\paindrain\arduinolcd\test\pain drain\libraries\lvgl\src\misc\lv_color.h ****     uint8_t v;
 241:c:\projects\paindrain\arduinolcd\test\pain drain\libraries\lvgl\src\misc\lv_color.h **** } lv_color_hsv_t;
 242:c:\projects\paindrain\arduinolcd\test\pain drain\libraries\lvgl\src\misc\lv_color.h **** 
 243:c:\projects\paindrain\arduinolcd\test\pain drain\libraries\lvgl\src\misc\lv_color.h **** //! @cond Doxygen_Suppress
 244:c:\projects\paindrain\arduinolcd\test\pain drain\libraries\lvgl\src\misc\lv_color.h **** /*No idea where the guard is required but else throws warnings in the docs*/
 245:c:\projects\paindrain\arduinolcd\test\pain drain\libraries\lvgl\src\misc\lv_color.h **** typedef uint8_t lv_opa_t;
 246:c:\projects\paindrain\arduinolcd\test\pain drain\libraries\lvgl\src\misc\lv_color.h **** //! @endcond
 247:c:\projects\paindrain\arduinolcd\test\pain drain\libraries\lvgl\src\misc\lv_color.h **** 
 248:c:\projects\paindrain\arduinolcd\test\pain drain\libraries\lvgl\src\misc\lv_color.h **** struct _lv_color_filter_dsc_t;
 249:c:\projects\paindrain\arduinolcd\test\pain drain\libraries\lvgl\src\misc\lv_color.h **** 
ARM GAS  C:\Users\haske\AppData\Local\Temp\cc7ZkKza.s 			page 38


 250:c:\projects\paindrain\arduinolcd\test\pain drain\libraries\lvgl\src\misc\lv_color.h **** typedef lv_color_t (*lv_color_filter_cb_t)(const struct _lv_color_filter_dsc_t *, lv_color_t, lv_op
 251:c:\projects\paindrain\arduinolcd\test\pain drain\libraries\lvgl\src\misc\lv_color.h **** 
 252:c:\projects\paindrain\arduinolcd\test\pain drain\libraries\lvgl\src\misc\lv_color.h **** typedef struct _lv_color_filter_dsc_t {
 253:c:\projects\paindrain\arduinolcd\test\pain drain\libraries\lvgl\src\misc\lv_color.h ****     lv_color_filter_cb_t filter_cb;
 254:c:\projects\paindrain\arduinolcd\test\pain drain\libraries\lvgl\src\misc\lv_color.h ****     void * user_data;
 255:c:\projects\paindrain\arduinolcd\test\pain drain\libraries\lvgl\src\misc\lv_color.h **** } lv_color_filter_dsc_t;
 256:c:\projects\paindrain\arduinolcd\test\pain drain\libraries\lvgl\src\misc\lv_color.h **** 
 257:c:\projects\paindrain\arduinolcd\test\pain drain\libraries\lvgl\src\misc\lv_color.h **** 
 258:c:\projects\paindrain\arduinolcd\test\pain drain\libraries\lvgl\src\misc\lv_color.h **** typedef enum {
 259:c:\projects\paindrain\arduinolcd\test\pain drain\libraries\lvgl\src\misc\lv_color.h ****     LV_PALETTE_RED,
 260:c:\projects\paindrain\arduinolcd\test\pain drain\libraries\lvgl\src\misc\lv_color.h ****     LV_PALETTE_PINK,
 261:c:\projects\paindrain\arduinolcd\test\pain drain\libraries\lvgl\src\misc\lv_color.h ****     LV_PALETTE_PURPLE,
 262:c:\projects\paindrain\arduinolcd\test\pain drain\libraries\lvgl\src\misc\lv_color.h ****     LV_PALETTE_DEEP_PURPLE,
 263:c:\projects\paindrain\arduinolcd\test\pain drain\libraries\lvgl\src\misc\lv_color.h ****     LV_PALETTE_INDIGO,
 264:c:\projects\paindrain\arduinolcd\test\pain drain\libraries\lvgl\src\misc\lv_color.h ****     LV_PALETTE_BLUE,
 265:c:\projects\paindrain\arduinolcd\test\pain drain\libraries\lvgl\src\misc\lv_color.h ****     LV_PALETTE_LIGHT_BLUE,
 266:c:\projects\paindrain\arduinolcd\test\pain drain\libraries\lvgl\src\misc\lv_color.h ****     LV_PALETTE_CYAN,
 267:c:\projects\paindrain\arduinolcd\test\pain drain\libraries\lvgl\src\misc\lv_color.h ****     LV_PALETTE_TEAL,
 268:c:\projects\paindrain\arduinolcd\test\pain drain\libraries\lvgl\src\misc\lv_color.h ****     LV_PALETTE_GREEN,
 269:c:\projects\paindrain\arduinolcd\test\pain drain\libraries\lvgl\src\misc\lv_color.h ****     LV_PALETTE_LIGHT_GREEN,
 270:c:\projects\paindrain\arduinolcd\test\pain drain\libraries\lvgl\src\misc\lv_color.h ****     LV_PALETTE_LIME,
 271:c:\projects\paindrain\arduinolcd\test\pain drain\libraries\lvgl\src\misc\lv_color.h ****     LV_PALETTE_YELLOW,
 272:c:\projects\paindrain\arduinolcd\test\pain drain\libraries\lvgl\src\misc\lv_color.h ****     LV_PALETTE_AMBER,
 273:c:\projects\paindrain\arduinolcd\test\pain drain\libraries\lvgl\src\misc\lv_color.h ****     LV_PALETTE_ORANGE,
 274:c:\projects\paindrain\arduinolcd\test\pain drain\libraries\lvgl\src\misc\lv_color.h ****     LV_PALETTE_DEEP_ORANGE,
 275:c:\projects\paindrain\arduinolcd\test\pain drain\libraries\lvgl\src\misc\lv_color.h ****     LV_PALETTE_BROWN,
 276:c:\projects\paindrain\arduinolcd\test\pain drain\libraries\lvgl\src\misc\lv_color.h ****     LV_PALETTE_BLUE_GREY,
 277:c:\projects\paindrain\arduinolcd\test\pain drain\libraries\lvgl\src\misc\lv_color.h ****     LV_PALETTE_GREY,
 278:c:\projects\paindrain\arduinolcd\test\pain drain\libraries\lvgl\src\misc\lv_color.h ****     _LV_PALETTE_LAST,
 279:c:\projects\paindrain\arduinolcd\test\pain drain\libraries\lvgl\src\misc\lv_color.h ****     LV_PALETTE_NONE = 0xff,
 280:c:\projects\paindrain\arduinolcd\test\pain drain\libraries\lvgl\src\misc\lv_color.h **** } lv_palette_t;
 281:c:\projects\paindrain\arduinolcd\test\pain drain\libraries\lvgl\src\misc\lv_color.h **** 
 282:c:\projects\paindrain\arduinolcd\test\pain drain\libraries\lvgl\src\misc\lv_color.h **** /**********************
 283:c:\projects\paindrain\arduinolcd\test\pain drain\libraries\lvgl\src\misc\lv_color.h ****  * GLOBAL PROTOTYPES
 284:c:\projects\paindrain\arduinolcd\test\pain drain\libraries\lvgl\src\misc\lv_color.h ****  **********************/
 285:c:\projects\paindrain\arduinolcd\test\pain drain\libraries\lvgl\src\misc\lv_color.h **** 
 286:c:\projects\paindrain\arduinolcd\test\pain drain\libraries\lvgl\src\misc\lv_color.h **** /*In color conversations:
 287:c:\projects\paindrain\arduinolcd\test\pain drain\libraries\lvgl\src\misc\lv_color.h ****  * - When converting to bigger color type the LSB weight of 1 LSB is calculated
 288:c:\projects\paindrain\arduinolcd\test\pain drain\libraries\lvgl\src\misc\lv_color.h ****  *   E.g. 16 bit Red has 5 bits
 289:c:\projects\paindrain\arduinolcd\test\pain drain\libraries\lvgl\src\misc\lv_color.h ****  *         8 bit Red has 3 bits
 290:c:\projects\paindrain\arduinolcd\test\pain drain\libraries\lvgl\src\misc\lv_color.h ****  *        ----------------------
 291:c:\projects\paindrain\arduinolcd\test\pain drain\libraries\lvgl\src\misc\lv_color.h ****  *        8 bit red LSB = (2^5 - 1) / (2^3 - 1) = 31 / 7 = 4
 292:c:\projects\paindrain\arduinolcd\test\pain drain\libraries\lvgl\src\misc\lv_color.h ****  *
 293:c:\projects\paindrain\arduinolcd\test\pain drain\libraries\lvgl\src\misc\lv_color.h ****  * - When calculating to smaller color type simply shift out the LSBs
 294:c:\projects\paindrain\arduinolcd\test\pain drain\libraries\lvgl\src\misc\lv_color.h ****  *   E.g.  8 bit Red has 3 bits
 295:c:\projects\paindrain\arduinolcd\test\pain drain\libraries\lvgl\src\misc\lv_color.h ****  *        16 bit Red has 5 bits
 296:c:\projects\paindrain\arduinolcd\test\pain drain\libraries\lvgl\src\misc\lv_color.h ****  *        ----------------------
 297:c:\projects\paindrain\arduinolcd\test\pain drain\libraries\lvgl\src\misc\lv_color.h ****  *         Shift right with 5 - 3 = 2
 298:c:\projects\paindrain\arduinolcd\test\pain drain\libraries\lvgl\src\misc\lv_color.h ****  */
 299:c:\projects\paindrain\arduinolcd\test\pain drain\libraries\lvgl\src\misc\lv_color.h **** static inline uint8_t lv_color_to1(lv_color_t color)
 300:c:\projects\paindrain\arduinolcd\test\pain drain\libraries\lvgl\src\misc\lv_color.h **** {
 301:c:\projects\paindrain\arduinolcd\test\pain drain\libraries\lvgl\src\misc\lv_color.h **** #if LV_COLOR_DEPTH == 1
 302:c:\projects\paindrain\arduinolcd\test\pain drain\libraries\lvgl\src\misc\lv_color.h ****     return color.full;
 303:c:\projects\paindrain\arduinolcd\test\pain drain\libraries\lvgl\src\misc\lv_color.h **** #elif LV_COLOR_DEPTH == 8
 304:c:\projects\paindrain\arduinolcd\test\pain drain\libraries\lvgl\src\misc\lv_color.h ****     if((LV_COLOR_GET_R(color) & 0x4) || (LV_COLOR_GET_G(color) & 0x4) || (LV_COLOR_GET_B(color) & 0
 305:c:\projects\paindrain\arduinolcd\test\pain drain\libraries\lvgl\src\misc\lv_color.h ****         return 1;
 306:c:\projects\paindrain\arduinolcd\test\pain drain\libraries\lvgl\src\misc\lv_color.h ****     }
ARM GAS  C:\Users\haske\AppData\Local\Temp\cc7ZkKza.s 			page 39


 307:c:\projects\paindrain\arduinolcd\test\pain drain\libraries\lvgl\src\misc\lv_color.h ****     else {
 308:c:\projects\paindrain\arduinolcd\test\pain drain\libraries\lvgl\src\misc\lv_color.h ****         return 0;
 309:c:\projects\paindrain\arduinolcd\test\pain drain\libraries\lvgl\src\misc\lv_color.h ****     }
 310:c:\projects\paindrain\arduinolcd\test\pain drain\libraries\lvgl\src\misc\lv_color.h **** #elif LV_COLOR_DEPTH == 16
 311:c:\projects\paindrain\arduinolcd\test\pain drain\libraries\lvgl\src\misc\lv_color.h ****     if((LV_COLOR_GET_R(color) & 0x10) || (LV_COLOR_GET_G(color) & 0x20) || (LV_COLOR_GET_B(color) &
 312:c:\projects\paindrain\arduinolcd\test\pain drain\libraries\lvgl\src\misc\lv_color.h ****         return 1;
 313:c:\projects\paindrain\arduinolcd\test\pain drain\libraries\lvgl\src\misc\lv_color.h ****     }
 314:c:\projects\paindrain\arduinolcd\test\pain drain\libraries\lvgl\src\misc\lv_color.h ****     else {
 315:c:\projects\paindrain\arduinolcd\test\pain drain\libraries\lvgl\src\misc\lv_color.h ****         return 0;
 316:c:\projects\paindrain\arduinolcd\test\pain drain\libraries\lvgl\src\misc\lv_color.h ****     }
 317:c:\projects\paindrain\arduinolcd\test\pain drain\libraries\lvgl\src\misc\lv_color.h **** #elif LV_COLOR_DEPTH == 32
 318:c:\projects\paindrain\arduinolcd\test\pain drain\libraries\lvgl\src\misc\lv_color.h ****     if((LV_COLOR_GET_R(color) & 0x80) || (LV_COLOR_GET_G(color) & 0x80) || (LV_COLOR_GET_B(color) &
 319:c:\projects\paindrain\arduinolcd\test\pain drain\libraries\lvgl\src\misc\lv_color.h ****         return 1;
 320:c:\projects\paindrain\arduinolcd\test\pain drain\libraries\lvgl\src\misc\lv_color.h ****     }
 321:c:\projects\paindrain\arduinolcd\test\pain drain\libraries\lvgl\src\misc\lv_color.h ****     else {
 322:c:\projects\paindrain\arduinolcd\test\pain drain\libraries\lvgl\src\misc\lv_color.h ****         return 0;
 323:c:\projects\paindrain\arduinolcd\test\pain drain\libraries\lvgl\src\misc\lv_color.h ****     }
 324:c:\projects\paindrain\arduinolcd\test\pain drain\libraries\lvgl\src\misc\lv_color.h **** #endif
 325:c:\projects\paindrain\arduinolcd\test\pain drain\libraries\lvgl\src\misc\lv_color.h **** }
 326:c:\projects\paindrain\arduinolcd\test\pain drain\libraries\lvgl\src\misc\lv_color.h **** 
 327:c:\projects\paindrain\arduinolcd\test\pain drain\libraries\lvgl\src\misc\lv_color.h **** static inline uint8_t lv_color_to8(lv_color_t color)
 328:c:\projects\paindrain\arduinolcd\test\pain drain\libraries\lvgl\src\misc\lv_color.h **** {
 329:c:\projects\paindrain\arduinolcd\test\pain drain\libraries\lvgl\src\misc\lv_color.h **** #if LV_COLOR_DEPTH == 1
 330:c:\projects\paindrain\arduinolcd\test\pain drain\libraries\lvgl\src\misc\lv_color.h ****     if(color.full == 0)
 331:c:\projects\paindrain\arduinolcd\test\pain drain\libraries\lvgl\src\misc\lv_color.h ****         return 0;
 332:c:\projects\paindrain\arduinolcd\test\pain drain\libraries\lvgl\src\misc\lv_color.h ****     else
 333:c:\projects\paindrain\arduinolcd\test\pain drain\libraries\lvgl\src\misc\lv_color.h ****         return 0xFF;
 334:c:\projects\paindrain\arduinolcd\test\pain drain\libraries\lvgl\src\misc\lv_color.h **** #elif LV_COLOR_DEPTH == 8
 335:c:\projects\paindrain\arduinolcd\test\pain drain\libraries\lvgl\src\misc\lv_color.h ****     return color.full;
 336:c:\projects\paindrain\arduinolcd\test\pain drain\libraries\lvgl\src\misc\lv_color.h **** #elif LV_COLOR_DEPTH == 16
 337:c:\projects\paindrain\arduinolcd\test\pain drain\libraries\lvgl\src\misc\lv_color.h ****     lv_color8_t ret;
 338:c:\projects\paindrain\arduinolcd\test\pain drain\libraries\lvgl\src\misc\lv_color.h ****     LV_COLOR_SET_R8(ret, LV_COLOR_GET_R(color) >> 2); /*5 - 3  = 2*/
 339:c:\projects\paindrain\arduinolcd\test\pain drain\libraries\lvgl\src\misc\lv_color.h ****     LV_COLOR_SET_G8(ret, LV_COLOR_GET_G(color) >> 3); /*6 - 3  = 3*/
 340:c:\projects\paindrain\arduinolcd\test\pain drain\libraries\lvgl\src\misc\lv_color.h ****     LV_COLOR_SET_B8(ret, LV_COLOR_GET_B(color) >> 3); /*5 - 2  = 3*/
 341:c:\projects\paindrain\arduinolcd\test\pain drain\libraries\lvgl\src\misc\lv_color.h ****     return ret.full;
 342:c:\projects\paindrain\arduinolcd\test\pain drain\libraries\lvgl\src\misc\lv_color.h **** #elif LV_COLOR_DEPTH == 32
 343:c:\projects\paindrain\arduinolcd\test\pain drain\libraries\lvgl\src\misc\lv_color.h ****     lv_color8_t ret;
 344:c:\projects\paindrain\arduinolcd\test\pain drain\libraries\lvgl\src\misc\lv_color.h ****     LV_COLOR_SET_R8(ret, LV_COLOR_GET_R(color) >> 5); /*8 - 3  = 5*/
 345:c:\projects\paindrain\arduinolcd\test\pain drain\libraries\lvgl\src\misc\lv_color.h ****     LV_COLOR_SET_G8(ret, LV_COLOR_GET_G(color) >> 5); /*8 - 3  = 5*/
 346:c:\projects\paindrain\arduinolcd\test\pain drain\libraries\lvgl\src\misc\lv_color.h ****     LV_COLOR_SET_B8(ret, LV_COLOR_GET_B(color) >> 6); /*8 - 2  = 6*/
 347:c:\projects\paindrain\arduinolcd\test\pain drain\libraries\lvgl\src\misc\lv_color.h ****     return ret.full;
 348:c:\projects\paindrain\arduinolcd\test\pain drain\libraries\lvgl\src\misc\lv_color.h **** #endif
 349:c:\projects\paindrain\arduinolcd\test\pain drain\libraries\lvgl\src\misc\lv_color.h **** }
 350:c:\projects\paindrain\arduinolcd\test\pain drain\libraries\lvgl\src\misc\lv_color.h **** 
 351:c:\projects\paindrain\arduinolcd\test\pain drain\libraries\lvgl\src\misc\lv_color.h **** static inline uint16_t lv_color_to16(lv_color_t color)
 352:c:\projects\paindrain\arduinolcd\test\pain drain\libraries\lvgl\src\misc\lv_color.h **** {
 353:c:\projects\paindrain\arduinolcd\test\pain drain\libraries\lvgl\src\misc\lv_color.h **** #if LV_COLOR_DEPTH == 1
 354:c:\projects\paindrain\arduinolcd\test\pain drain\libraries\lvgl\src\misc\lv_color.h ****     if(color.full == 0)
 355:c:\projects\paindrain\arduinolcd\test\pain drain\libraries\lvgl\src\misc\lv_color.h ****         return 0;
 356:c:\projects\paindrain\arduinolcd\test\pain drain\libraries\lvgl\src\misc\lv_color.h ****     else
 357:c:\projects\paindrain\arduinolcd\test\pain drain\libraries\lvgl\src\misc\lv_color.h ****         return 0xFFFF;
 358:c:\projects\paindrain\arduinolcd\test\pain drain\libraries\lvgl\src\misc\lv_color.h **** #elif LV_COLOR_DEPTH == 8
 359:c:\projects\paindrain\arduinolcd\test\pain drain\libraries\lvgl\src\misc\lv_color.h ****     lv_color16_t ret;
 360:c:\projects\paindrain\arduinolcd\test\pain drain\libraries\lvgl\src\misc\lv_color.h ****     LV_COLOR_SET_R16(ret, LV_COLOR_GET_R(color) * 4);  /*(2^5 - 1)/(2^3 - 1) = 31/7 = 4*/
 361:c:\projects\paindrain\arduinolcd\test\pain drain\libraries\lvgl\src\misc\lv_color.h ****     LV_COLOR_SET_G16(ret, LV_COLOR_GET_G(color) * 9);  /*(2^6 - 1)/(2^3 - 1) = 63/7 = 9*/
 362:c:\projects\paindrain\arduinolcd\test\pain drain\libraries\lvgl\src\misc\lv_color.h ****     LV_COLOR_SET_B16(ret, LV_COLOR_GET_B(color) * 10); /*(2^5 - 1)/(2^2 - 1) = 31/3 = 10*/
 363:c:\projects\paindrain\arduinolcd\test\pain drain\libraries\lvgl\src\misc\lv_color.h ****     return ret.full;
ARM GAS  C:\Users\haske\AppData\Local\Temp\cc7ZkKza.s 			page 40


 364:c:\projects\paindrain\arduinolcd\test\pain drain\libraries\lvgl\src\misc\lv_color.h **** #elif LV_COLOR_DEPTH == 16
 365:c:\projects\paindrain\arduinolcd\test\pain drain\libraries\lvgl\src\misc\lv_color.h ****     return color.full;
 366:c:\projects\paindrain\arduinolcd\test\pain drain\libraries\lvgl\src\misc\lv_color.h **** #elif LV_COLOR_DEPTH == 32
 367:c:\projects\paindrain\arduinolcd\test\pain drain\libraries\lvgl\src\misc\lv_color.h ****     lv_color16_t ret;
 368:c:\projects\paindrain\arduinolcd\test\pain drain\libraries\lvgl\src\misc\lv_color.h ****     LV_COLOR_SET_R16(ret, LV_COLOR_GET_R(color) >> 3); /*8 - 5  = 3*/
 369:c:\projects\paindrain\arduinolcd\test\pain drain\libraries\lvgl\src\misc\lv_color.h ****     LV_COLOR_SET_G16(ret, LV_COLOR_GET_G(color) >> 2); /*8 - 6  = 2*/
 370:c:\projects\paindrain\arduinolcd\test\pain drain\libraries\lvgl\src\misc\lv_color.h ****     LV_COLOR_SET_B16(ret, LV_COLOR_GET_B(color) >> 3); /*8 - 5  = 3*/
 371:c:\projects\paindrain\arduinolcd\test\pain drain\libraries\lvgl\src\misc\lv_color.h ****     return ret.full;
 372:c:\projects\paindrain\arduinolcd\test\pain drain\libraries\lvgl\src\misc\lv_color.h **** #endif
 373:c:\projects\paindrain\arduinolcd\test\pain drain\libraries\lvgl\src\misc\lv_color.h **** }
 374:c:\projects\paindrain\arduinolcd\test\pain drain\libraries\lvgl\src\misc\lv_color.h **** 
 375:c:\projects\paindrain\arduinolcd\test\pain drain\libraries\lvgl\src\misc\lv_color.h **** static inline uint32_t lv_color_to32(lv_color_t color)
 376:c:\projects\paindrain\arduinolcd\test\pain drain\libraries\lvgl\src\misc\lv_color.h **** {
 377:c:\projects\paindrain\arduinolcd\test\pain drain\libraries\lvgl\src\misc\lv_color.h **** #if LV_COLOR_DEPTH == 1
 378:c:\projects\paindrain\arduinolcd\test\pain drain\libraries\lvgl\src\misc\lv_color.h ****     if(color.full == 0)
 379:c:\projects\paindrain\arduinolcd\test\pain drain\libraries\lvgl\src\misc\lv_color.h ****         return 0xFF000000;
 380:c:\projects\paindrain\arduinolcd\test\pain drain\libraries\lvgl\src\misc\lv_color.h ****     else
 381:c:\projects\paindrain\arduinolcd\test\pain drain\libraries\lvgl\src\misc\lv_color.h ****         return 0xFFFFFFFF;
 382:c:\projects\paindrain\arduinolcd\test\pain drain\libraries\lvgl\src\misc\lv_color.h **** #elif LV_COLOR_DEPTH == 8
 383:c:\projects\paindrain\arduinolcd\test\pain drain\libraries\lvgl\src\misc\lv_color.h ****     lv_color32_t ret;
 384:c:\projects\paindrain\arduinolcd\test\pain drain\libraries\lvgl\src\misc\lv_color.h ****     LV_COLOR_SET_R32(ret, LV_COLOR_GET_R(color) * 36); /*(2^8 - 1)/(2^3 - 1) = 255/7 = 36*/
 385:c:\projects\paindrain\arduinolcd\test\pain drain\libraries\lvgl\src\misc\lv_color.h ****     LV_COLOR_SET_G32(ret, LV_COLOR_GET_G(color) * 36); /*(2^8 - 1)/(2^3 - 1) = 255/7 = 36*/
 386:c:\projects\paindrain\arduinolcd\test\pain drain\libraries\lvgl\src\misc\lv_color.h ****     LV_COLOR_SET_B32(ret, LV_COLOR_GET_B(color) * 85); /*(2^8 - 1)/(2^2 - 1) = 255/3 = 85*/
 387:c:\projects\paindrain\arduinolcd\test\pain drain\libraries\lvgl\src\misc\lv_color.h ****     LV_COLOR_SET_A32(ret, 0xFF);
 388:c:\projects\paindrain\arduinolcd\test\pain drain\libraries\lvgl\src\misc\lv_color.h ****     return ret.full;
 389:c:\projects\paindrain\arduinolcd\test\pain drain\libraries\lvgl\src\misc\lv_color.h **** #elif LV_COLOR_DEPTH == 16
 390:c:\projects\paindrain\arduinolcd\test\pain drain\libraries\lvgl\src\misc\lv_color.h ****     /**
 391:c:\projects\paindrain\arduinolcd\test\pain drain\libraries\lvgl\src\misc\lv_color.h ****      * The floating point math for conversion is:
 392:c:\projects\paindrain\arduinolcd\test\pain drain\libraries\lvgl\src\misc\lv_color.h ****      *  valueto = valuefrom * ( (2^bitsto - 1) / (float)(2^bitsfrom - 1) )
 393:c:\projects\paindrain\arduinolcd\test\pain drain\libraries\lvgl\src\misc\lv_color.h ****      * The faster integer math for conversion is:
 394:c:\projects\paindrain\arduinolcd\test\pain drain\libraries\lvgl\src\misc\lv_color.h ****      *  valueto = ( valuefrom * multiplier + adder ) >> divisor
 395:c:\projects\paindrain\arduinolcd\test\pain drain\libraries\lvgl\src\misc\lv_color.h ****      *   multiplier = FLOOR( ( (2^bitsto - 1) << divisor ) / (float)(2^bitsfrom - 1) )
 396:c:\projects\paindrain\arduinolcd\test\pain drain\libraries\lvgl\src\misc\lv_color.h ****      *
 397:c:\projects\paindrain\arduinolcd\test\pain drain\libraries\lvgl\src\misc\lv_color.h ****      * Find the first divisor where ( adder >> divisor ) <= 0
 398:c:\projects\paindrain\arduinolcd\test\pain drain\libraries\lvgl\src\misc\lv_color.h ****      *
 399:c:\projects\paindrain\arduinolcd\test\pain drain\libraries\lvgl\src\misc\lv_color.h ****      * 5-bit to 8-bit: ( 31 * multiplier + adder ) >> divisor = 255
 400:c:\projects\paindrain\arduinolcd\test\pain drain\libraries\lvgl\src\misc\lv_color.h ****      * divisor  multiplier  adder  min (0)  max (31)
 401:c:\projects\paindrain\arduinolcd\test\pain drain\libraries\lvgl\src\misc\lv_color.h ****      *       0           8      7        7       255
 402:c:\projects\paindrain\arduinolcd\test\pain drain\libraries\lvgl\src\misc\lv_color.h ****      *       1          16     14        7       255
 403:c:\projects\paindrain\arduinolcd\test\pain drain\libraries\lvgl\src\misc\lv_color.h ****      *       2          32     28        7       255
 404:c:\projects\paindrain\arduinolcd\test\pain drain\libraries\lvgl\src\misc\lv_color.h ****      *       3          65     25        3       255
 405:c:\projects\paindrain\arduinolcd\test\pain drain\libraries\lvgl\src\misc\lv_color.h ****      *       4         131     19        1       255
 406:c:\projects\paindrain\arduinolcd\test\pain drain\libraries\lvgl\src\misc\lv_color.h ****      *       5         263      7        0       255
 407:c:\projects\paindrain\arduinolcd\test\pain drain\libraries\lvgl\src\misc\lv_color.h ****      *
 408:c:\projects\paindrain\arduinolcd\test\pain drain\libraries\lvgl\src\misc\lv_color.h ****      * 6-bit to 8-bit: 255 = ( 63 * multiplier + adder ) >> divisor
 409:c:\projects\paindrain\arduinolcd\test\pain drain\libraries\lvgl\src\misc\lv_color.h ****      * divisor  multiplier  adder  min (0)  max (63)
 410:c:\projects\paindrain\arduinolcd\test\pain drain\libraries\lvgl\src\misc\lv_color.h ****      *       0           4      3        3       255
 411:c:\projects\paindrain\arduinolcd\test\pain drain\libraries\lvgl\src\misc\lv_color.h ****      *       1           8      6        3       255
 412:c:\projects\paindrain\arduinolcd\test\pain drain\libraries\lvgl\src\misc\lv_color.h ****      *       2          16     12        3       255
 413:c:\projects\paindrain\arduinolcd\test\pain drain\libraries\lvgl\src\misc\lv_color.h ****      *       3          32     24        3       255
 414:c:\projects\paindrain\arduinolcd\test\pain drain\libraries\lvgl\src\misc\lv_color.h ****      *       4          64     48        3       255
 415:c:\projects\paindrain\arduinolcd\test\pain drain\libraries\lvgl\src\misc\lv_color.h ****      *       5         129     33        1       255
 416:c:\projects\paindrain\arduinolcd\test\pain drain\libraries\lvgl\src\misc\lv_color.h ****      *       6         259      3        0       255
 417:c:\projects\paindrain\arduinolcd\test\pain drain\libraries\lvgl\src\misc\lv_color.h ****      */
 418:c:\projects\paindrain\arduinolcd\test\pain drain\libraries\lvgl\src\misc\lv_color.h **** 
 419:c:\projects\paindrain\arduinolcd\test\pain drain\libraries\lvgl\src\misc\lv_color.h ****     lv_color32_t ret;
 420:c:\projects\paindrain\arduinolcd\test\pain drain\libraries\lvgl\src\misc\lv_color.h ****     LV_COLOR_SET_R32(ret, (LV_COLOR_GET_R(color) * 263 + 7) >> 5);
ARM GAS  C:\Users\haske\AppData\Local\Temp\cc7ZkKza.s 			page 41


 421:c:\projects\paindrain\arduinolcd\test\pain drain\libraries\lvgl\src\misc\lv_color.h ****     LV_COLOR_SET_G32(ret, (LV_COLOR_GET_G(color) * 259 + 3) >> 6);
 422:c:\projects\paindrain\arduinolcd\test\pain drain\libraries\lvgl\src\misc\lv_color.h ****     LV_COLOR_SET_B32(ret, (LV_COLOR_GET_B(color) * 263 + 7) >> 5);
 423:c:\projects\paindrain\arduinolcd\test\pain drain\libraries\lvgl\src\misc\lv_color.h ****     LV_COLOR_SET_A32(ret, 0xFF);
 424:c:\projects\paindrain\arduinolcd\test\pain drain\libraries\lvgl\src\misc\lv_color.h ****     return ret.full;
 425:c:\projects\paindrain\arduinolcd\test\pain drain\libraries\lvgl\src\misc\lv_color.h **** #elif LV_COLOR_DEPTH == 32
 426:c:\projects\paindrain\arduinolcd\test\pain drain\libraries\lvgl\src\misc\lv_color.h ****     return color.full;
 427:c:\projects\paindrain\arduinolcd\test\pain drain\libraries\lvgl\src\misc\lv_color.h **** #endif
 428:c:\projects\paindrain\arduinolcd\test\pain drain\libraries\lvgl\src\misc\lv_color.h **** }
 429:c:\projects\paindrain\arduinolcd\test\pain drain\libraries\lvgl\src\misc\lv_color.h **** 
 430:c:\projects\paindrain\arduinolcd\test\pain drain\libraries\lvgl\src\misc\lv_color.h **** //! @cond Doxygen_Suppress
 431:c:\projects\paindrain\arduinolcd\test\pain drain\libraries\lvgl\src\misc\lv_color.h **** 
 432:c:\projects\paindrain\arduinolcd\test\pain drain\libraries\lvgl\src\misc\lv_color.h **** /**
 433:c:\projects\paindrain\arduinolcd\test\pain drain\libraries\lvgl\src\misc\lv_color.h ****  * Mix two colors with a given ratio.
 434:c:\projects\paindrain\arduinolcd\test\pain drain\libraries\lvgl\src\misc\lv_color.h ****  * @param c1 the first color to mix (usually the foreground)
 435:c:\projects\paindrain\arduinolcd\test\pain drain\libraries\lvgl\src\misc\lv_color.h ****  * @param c2 the second color to mix (usually the background)
 436:c:\projects\paindrain\arduinolcd\test\pain drain\libraries\lvgl\src\misc\lv_color.h ****  * @param mix The ratio of the colors. 0: full `c2`, 255: full `c1`, 127: half `c1` and half`c2`
 437:c:\projects\paindrain\arduinolcd\test\pain drain\libraries\lvgl\src\misc\lv_color.h ****  * @return the mixed color
 438:c:\projects\paindrain\arduinolcd\test\pain drain\libraries\lvgl\src\misc\lv_color.h ****  */
 439:c:\projects\paindrain\arduinolcd\test\pain drain\libraries\lvgl\src\misc\lv_color.h **** LV_ATTRIBUTE_FAST_MEM static inline lv_color_t lv_color_mix(lv_color_t c1, lv_color_t c2, uint8_t m
 440:c:\projects\paindrain\arduinolcd\test\pain drain\libraries\lvgl\src\misc\lv_color.h **** {
 441:c:\projects\paindrain\arduinolcd\test\pain drain\libraries\lvgl\src\misc\lv_color.h ****     lv_color_t ret;
 442:c:\projects\paindrain\arduinolcd\test\pain drain\libraries\lvgl\src\misc\lv_color.h **** 
 443:c:\projects\paindrain\arduinolcd\test\pain drain\libraries\lvgl\src\misc\lv_color.h **** #if LV_COLOR_DEPTH == 16 && LV_COLOR_16_SWAP == 0 && LV_COLOR_MIX_ROUND_OFS == 0
 444:c:\projects\paindrain\arduinolcd\test\pain drain\libraries\lvgl\src\misc\lv_color.h ****     /*Source: https://stackoverflow.com/a/50012418/1999969*/
 445:c:\projects\paindrain\arduinolcd\test\pain drain\libraries\lvgl\src\misc\lv_color.h ****     mix = (uint32_t)((uint32_t)mix + 4) >> 3;
 701              		.loc 3 445 0
 702 004a 0432     		adds	r2, r2, #4
 703              	.LVL114:
 446:c:\projects\paindrain\arduinolcd\test\pain drain\libraries\lvgl\src\misc\lv_color.h ****     uint32_t bg = (uint32_t)((uint32_t)c2.full | ((uint32_t)c2.full << 16)) &
 704              		.loc 3 446 0
 705 004c 89B2     		uxth	r1, r1
 706              	.LVL115:
 707 004e 41EA0141 		orr	r1, r1, r1, lsl #16
 708 0052 0A4D     		ldr	r5, .L61
 709 0054 01EA0503 		and	r3, r1, r5
 710              	.LVL116:
 447:c:\projects\paindrain\arduinolcd\test\pain drain\libraries\lvgl\src\misc\lv_color.h ****                   0x7E0F81F; /*0b00000111111000001111100000011111*/
 448:c:\projects\paindrain\arduinolcd\test\pain drain\libraries\lvgl\src\misc\lv_color.h ****     uint32_t fg = (uint32_t)((uint32_t)c1.full | ((uint32_t)c1.full << 16)) & 0x7E0F81F;
 711              		.loc 3 448 0
 712 0058 80B2     		uxth	r0, r0
 713              	.LVL117:
 714 005a 40EA0040 		orr	r0, r0, r0, lsl #16
 715 005e 00EA0504 		and	r4, r0, r5
 716              	.LVL118:
 449:c:\projects\paindrain\arduinolcd\test\pain drain\libraries\lvgl\src\misc\lv_color.h ****     uint32_t result = ((((fg - bg) * mix) >> 5) + bg) & 0x7E0F81F;
 717              		.loc 3 449 0
 718 0062 E41A     		subs	r4, r4, r3
 719              	.LVL119:
 720 0064 C2F3C702 		ubfx	r2, r2, #3, #8
 721              	.LVL120:
 722 0068 04FB02F2 		mul	r2, r4, r2
 723 006c 03EB5213 		add	r3, r3, r2, lsr #5
 724              	.LVL121:
 725 0070 03EA0500 		and	r0, r3, r5
 726              	.LVL122:
 727 0074 40EA1040 		orr	r0, r0, r0, lsr #16
 728              	.LVL123:
ARM GAS  C:\Users\haske\AppData\Local\Temp\cc7ZkKza.s 			page 42


 729              	.L58:
 730              	.LVL124:
 731              	.LBE112:
 732              	.LBE111:
 733              		.loc 1 996 0
 734 0078 30BC     		pop	{r4, r5}
 735              		.cfi_restore 5
 736              		.cfi_restore 4
 737              		.cfi_def_cfa_offset 0
 738 007a 7047     		bx	lr
 739              	.L62:
 740              		.align	2
 741              	.L61:
 742 007c 1FF8E007 		.word	132184095
 743              		.cfi_endproc
 744              	.LFE167:
 745              		.size	color_blend_true_color_additive, .-color_blend_true_color_additive
 746              		.section	.text.color_blend_true_color_subtractive,"ax",%progbits
 747              		.align	2
 748              		.thumb
 749              		.thumb_func
 750              		.type	color_blend_true_color_subtractive, %function
 751              	color_blend_true_color_subtractive:
 752              	.LFB168:
 997:..\..\..\arduinoLCD\test\Pain Drain\libraries\lvgl\src\draw\sw/lv_draw_sw_blend.c **** 
 998:..\..\..\arduinoLCD\test\Pain Drain\libraries\lvgl\src\draw\sw/lv_draw_sw_blend.c **** static inline lv_color_t color_blend_true_color_subtractive(lv_color_t fg, lv_color_t bg, lv_opa_t 
 999:..\..\..\arduinoLCD\test\Pain Drain\libraries\lvgl\src\draw\sw/lv_draw_sw_blend.c **** {
 753              		.loc 1 999 0
 754              		.cfi_startproc
 755              		@ args = 0, pretend = 0, frame = 0
 756              		@ frame_needed = 0, uses_anonymous_args = 0
 757              		@ link register save eliminated.
 758              	.LVL125:
1000:..\..\..\arduinoLCD\test\Pain Drain\libraries\lvgl\src\draw\sw/lv_draw_sw_blend.c ****     if(opa <= LV_OPA_MIN) return bg;
 759              		.loc 1 1000 0
 760 0000 022A     		cmp	r2, #2
 761 0002 01D8     		bhi	.L64
 762              		.loc 1 1000 0 is_stmt 0 discriminator 1
 763 0004 0846     		mov	r0, r1	@ movhi
 764              	.LVL126:
1001:..\..\..\arduinoLCD\test\Pain Drain\libraries\lvgl\src\draw\sw/lv_draw_sw_blend.c **** 
1002:..\..\..\arduinoLCD\test\Pain Drain\libraries\lvgl\src\draw\sw/lv_draw_sw_blend.c ****     int32_t tmp;
1003:..\..\..\arduinoLCD\test\Pain Drain\libraries\lvgl\src\draw\sw/lv_draw_sw_blend.c ****     tmp = bg.ch.red - fg.ch.red;
1004:..\..\..\arduinoLCD\test\Pain Drain\libraries\lvgl\src\draw\sw/lv_draw_sw_blend.c ****     fg.ch.red = LV_MAX(tmp, 0);
1005:..\..\..\arduinoLCD\test\Pain Drain\libraries\lvgl\src\draw\sw/lv_draw_sw_blend.c **** 
1006:..\..\..\arduinoLCD\test\Pain Drain\libraries\lvgl\src\draw\sw/lv_draw_sw_blend.c **** #if LV_COLOR_16_SWAP == 0
1007:..\..\..\arduinoLCD\test\Pain Drain\libraries\lvgl\src\draw\sw/lv_draw_sw_blend.c ****     tmp = bg.ch.green - fg.ch.green;
1008:..\..\..\arduinoLCD\test\Pain Drain\libraries\lvgl\src\draw\sw/lv_draw_sw_blend.c ****     fg.ch.green = LV_MAX(tmp, 0);
1009:..\..\..\arduinoLCD\test\Pain Drain\libraries\lvgl\src\draw\sw/lv_draw_sw_blend.c **** #else
1010:..\..\..\arduinoLCD\test\Pain Drain\libraries\lvgl\src\draw\sw/lv_draw_sw_blend.c ****     tmp = (bg.ch.green_h << 3) + bg.ch.green_l + (fg.ch.green_h << 3) + fg.ch.green_l;
1011:..\..\..\arduinoLCD\test\Pain Drain\libraries\lvgl\src\draw\sw/lv_draw_sw_blend.c ****     tmp = LV_MAX(tmp, 0);
1012:..\..\..\arduinoLCD\test\Pain Drain\libraries\lvgl\src\draw\sw/lv_draw_sw_blend.c ****     fg.ch.green_h = tmp >> 3;
1013:..\..\..\arduinoLCD\test\Pain Drain\libraries\lvgl\src\draw\sw/lv_draw_sw_blend.c ****     fg.ch.green_l = tmp & 0x7;
1014:..\..\..\arduinoLCD\test\Pain Drain\libraries\lvgl\src\draw\sw/lv_draw_sw_blend.c **** #endif
1015:..\..\..\arduinoLCD\test\Pain Drain\libraries\lvgl\src\draw\sw/lv_draw_sw_blend.c **** 
1016:..\..\..\arduinoLCD\test\Pain Drain\libraries\lvgl\src\draw\sw/lv_draw_sw_blend.c ****     tmp = bg.ch.blue - fg.ch.blue;
1017:..\..\..\arduinoLCD\test\Pain Drain\libraries\lvgl\src\draw\sw/lv_draw_sw_blend.c ****     fg.ch.blue = LV_MAX(tmp, 0);
ARM GAS  C:\Users\haske\AppData\Local\Temp\cc7ZkKza.s 			page 43


1018:..\..\..\arduinoLCD\test\Pain Drain\libraries\lvgl\src\draw\sw/lv_draw_sw_blend.c **** 
1019:..\..\..\arduinoLCD\test\Pain Drain\libraries\lvgl\src\draw\sw/lv_draw_sw_blend.c ****     if(opa == LV_OPA_COVER) return fg;
1020:..\..\..\arduinoLCD\test\Pain Drain\libraries\lvgl\src\draw\sw/lv_draw_sw_blend.c **** 
1021:..\..\..\arduinoLCD\test\Pain Drain\libraries\lvgl\src\draw\sw/lv_draw_sw_blend.c ****     return lv_color_mix(fg, bg, opa);
1022:..\..\..\arduinoLCD\test\Pain Drain\libraries\lvgl\src\draw\sw/lv_draw_sw_blend.c **** }
 765              		.loc 1 1022 0 is_stmt 1 discriminator 1
 766 0006 7047     		bx	lr
 767              	.LVL127:
 768              	.L64:
 999:..\..\..\arduinoLCD\test\Pain Drain\libraries\lvgl\src\draw\sw/lv_draw_sw_blend.c ****     if(opa <= LV_OPA_MIN) return bg;
 769              		.loc 1 999 0
 770 0008 30B4     		push	{r4, r5}
 771              		.cfi_def_cfa_offset 8
 772              		.cfi_offset 4, -8
 773              		.cfi_offset 5, -4
1003:..\..\..\arduinoLCD\test\Pain Drain\libraries\lvgl\src\draw\sw/lv_draw_sw_blend.c ****     fg.ch.red = LV_MAX(tmp, 0);
 774              		.loc 1 1003 0
 775 000a C1F3C423 		ubfx	r3, r1, #11, #5
 776 000e C0F3C424 		ubfx	r4, r0, #11, #5
 777 0012 1B1B     		subs	r3, r3, r4
 778              	.LVL128:
1004:..\..\..\arduinoLCD\test\Pain Drain\libraries\lvgl\src\draw\sw/lv_draw_sw_blend.c **** 
 779              		.loc 1 1004 0
 780 0014 23EAE373 		bic	r3, r3, r3, asr #31
 781              	.LVL129:
 782 0018 63F3CF20 		bfi	r0, r3, #11, #5
1007:..\..\..\arduinoLCD\test\Pain Drain\libraries\lvgl\src\draw\sw/lv_draw_sw_blend.c ****     fg.ch.green = LV_MAX(tmp, 0);
 783              		.loc 1 1007 0
 784 001c C1F34513 		ubfx	r3, r1, #5, #6
 785 0020 C0F34514 		ubfx	r4, r0, #5, #6
 786              	.LVL130:
 787 0024 1B1B     		subs	r3, r3, r4
 788              	.LVL131:
1008:..\..\..\arduinoLCD\test\Pain Drain\libraries\lvgl\src\draw\sw/lv_draw_sw_blend.c **** #else
 789              		.loc 1 1008 0
 790 0026 23EAE373 		bic	r3, r3, r3, asr #31
 791              	.LVL132:
 792 002a 63F34A10 		bfi	r0, r3, #5, #6
1016:..\..\..\arduinoLCD\test\Pain Drain\libraries\lvgl\src\draw\sw/lv_draw_sw_blend.c ****     fg.ch.blue = LV_MAX(tmp, 0);
 793              		.loc 1 1016 0
 794 002e 01F01F03 		and	r3, r1, #31
 795 0032 00F01F04 		and	r4, r0, #31
 796              	.LVL133:
 797 0036 1B1B     		subs	r3, r3, r4
 798              	.LVL134:
1017:..\..\..\arduinoLCD\test\Pain Drain\libraries\lvgl\src\draw\sw/lv_draw_sw_blend.c **** 
 799              		.loc 1 1017 0
 800 0038 23EAE373 		bic	r3, r3, r3, asr #31
 801              	.LVL135:
 802 003c 63F30400 		bfi	r0, r3, #0, #5
1019:..\..\..\arduinoLCD\test\Pain Drain\libraries\lvgl\src\draw\sw/lv_draw_sw_blend.c **** 
 803              		.loc 1 1019 0
 804 0040 FF2A     		cmp	r2, #255
 805 0042 16D0     		beq	.L65
 806              	.LVL136:
 807              	.LBB113:
 808              	.LBB114:
ARM GAS  C:\Users\haske\AppData\Local\Temp\cc7ZkKza.s 			page 44


 445:c:\projects\paindrain\arduinolcd\test\pain drain\libraries\lvgl\src\misc\lv_color.h ****     uint32_t bg = (uint32_t)((uint32_t)c2.full | ((uint32_t)c2.full << 16)) &
 809              		.loc 3 445 0
 810 0044 0432     		adds	r2, r2, #4
 811              	.LVL137:
 446:c:\projects\paindrain\arduinolcd\test\pain drain\libraries\lvgl\src\misc\lv_color.h ****                   0x7E0F81F; /*0b00000111111000001111100000011111*/
 812              		.loc 3 446 0
 813 0046 89B2     		uxth	r1, r1
 814              	.LVL138:
 815 0048 41EA0141 		orr	r1, r1, r1, lsl #16
 816 004c 0A4D     		ldr	r5, .L68
 817 004e 01EA0503 		and	r3, r1, r5
 818              	.LVL139:
 448:c:\projects\paindrain\arduinolcd\test\pain drain\libraries\lvgl\src\misc\lv_color.h ****     uint32_t result = ((((fg - bg) * mix) >> 5) + bg) & 0x7E0F81F;
 819              		.loc 3 448 0
 820 0052 80B2     		uxth	r0, r0
 821              	.LVL140:
 822 0054 40EA0040 		orr	r0, r0, r0, lsl #16
 823 0058 00EA0504 		and	r4, r0, r5
 824              	.LVL141:
 825              		.loc 3 449 0
 826 005c E41A     		subs	r4, r4, r3
 827              	.LVL142:
 828 005e C2F3C702 		ubfx	r2, r2, #3, #8
 829              	.LVL143:
 830 0062 04FB02F2 		mul	r2, r4, r2
 831 0066 03EB5213 		add	r3, r3, r2, lsr #5
 832              	.LVL144:
 833 006a 03EA0500 		and	r0, r3, r5
 834              	.LVL145:
 835 006e 40EA1040 		orr	r0, r0, r0, lsr #16
 836              	.LVL146:
 837              	.L65:
 838              	.LVL147:
 839              	.LBE114:
 840              	.LBE113:
 841              		.loc 1 1022 0
 842 0072 30BC     		pop	{r4, r5}
 843              		.cfi_restore 5
 844              		.cfi_restore 4
 845              		.cfi_def_cfa_offset 0
 846 0074 7047     		bx	lr
 847              	.L69:
 848 0076 00BF     		.align	2
 849              	.L68:
 850 0078 1FF8E007 		.word	132184095
 851              		.cfi_endproc
 852              	.LFE168:
 853              		.size	color_blend_true_color_subtractive, .-color_blend_true_color_subtractive
 854              		.section	.text.color_blend_true_color_multiply,"ax",%progbits
 855              		.align	2
 856              		.thumb
 857              		.thumb_func
 858              		.type	color_blend_true_color_multiply, %function
 859              	color_blend_true_color_multiply:
 860              	.LFB169:
1023:..\..\..\arduinoLCD\test\Pain Drain\libraries\lvgl\src\draw\sw/lv_draw_sw_blend.c **** 
1024:..\..\..\arduinoLCD\test\Pain Drain\libraries\lvgl\src\draw\sw/lv_draw_sw_blend.c **** static inline lv_color_t color_blend_true_color_multiply(lv_color_t fg, lv_color_t bg, lv_opa_t opa
ARM GAS  C:\Users\haske\AppData\Local\Temp\cc7ZkKza.s 			page 45


1025:..\..\..\arduinoLCD\test\Pain Drain\libraries\lvgl\src\draw\sw/lv_draw_sw_blend.c **** {
 861              		.loc 1 1025 0
 862              		.cfi_startproc
 863              		@ args = 0, pretend = 0, frame = 0
 864              		@ frame_needed = 0, uses_anonymous_args = 0
 865              		@ link register save eliminated.
 866              	.LVL148:
1026:..\..\..\arduinoLCD\test\Pain Drain\libraries\lvgl\src\draw\sw/lv_draw_sw_blend.c ****     if(opa <= LV_OPA_MIN) return bg;
 867              		.loc 1 1026 0
 868 0000 022A     		cmp	r2, #2
 869 0002 01D8     		bhi	.L71
 870              		.loc 1 1026 0 is_stmt 0 discriminator 1
 871 0004 0846     		mov	r0, r1	@ movhi
 872              	.LVL149:
1027:..\..\..\arduinoLCD\test\Pain Drain\libraries\lvgl\src\draw\sw/lv_draw_sw_blend.c **** 
1028:..\..\..\arduinoLCD\test\Pain Drain\libraries\lvgl\src\draw\sw/lv_draw_sw_blend.c **** #if LV_COLOR_DEPTH == 32
1029:..\..\..\arduinoLCD\test\Pain Drain\libraries\lvgl\src\draw\sw/lv_draw_sw_blend.c ****     fg.ch.red = (fg.ch.red * bg.ch.red) >> 8;
1030:..\..\..\arduinoLCD\test\Pain Drain\libraries\lvgl\src\draw\sw/lv_draw_sw_blend.c ****     fg.ch.green = (fg.ch.green * bg.ch.green) >> 8;
1031:..\..\..\arduinoLCD\test\Pain Drain\libraries\lvgl\src\draw\sw/lv_draw_sw_blend.c ****     fg.ch.blue = (fg.ch.blue * bg.ch.blue) >> 8;
1032:..\..\..\arduinoLCD\test\Pain Drain\libraries\lvgl\src\draw\sw/lv_draw_sw_blend.c **** #elif LV_COLOR_DEPTH == 16
1033:..\..\..\arduinoLCD\test\Pain Drain\libraries\lvgl\src\draw\sw/lv_draw_sw_blend.c ****     fg.ch.red = (fg.ch.red * bg.ch.red) >> 5;
1034:..\..\..\arduinoLCD\test\Pain Drain\libraries\lvgl\src\draw\sw/lv_draw_sw_blend.c ****     fg.ch.blue = (fg.ch.blue * bg.ch.blue) >> 5;
1035:..\..\..\arduinoLCD\test\Pain Drain\libraries\lvgl\src\draw\sw/lv_draw_sw_blend.c ****     LV_COLOR_SET_G(fg, (LV_COLOR_GET_G(fg) * LV_COLOR_GET_G(bg)) >> 6);
1036:..\..\..\arduinoLCD\test\Pain Drain\libraries\lvgl\src\draw\sw/lv_draw_sw_blend.c **** #elif LV_COLOR_DEPTH == 8
1037:..\..\..\arduinoLCD\test\Pain Drain\libraries\lvgl\src\draw\sw/lv_draw_sw_blend.c ****     fg.ch.red = (fg.ch.red * bg.ch.red) >> 3;
1038:..\..\..\arduinoLCD\test\Pain Drain\libraries\lvgl\src\draw\sw/lv_draw_sw_blend.c ****     fg.ch.green = (fg.ch.green * bg.ch.green) >> 3;
1039:..\..\..\arduinoLCD\test\Pain Drain\libraries\lvgl\src\draw\sw/lv_draw_sw_blend.c ****     fg.ch.blue = (fg.ch.blue * bg.ch.blue) >> 2;
1040:..\..\..\arduinoLCD\test\Pain Drain\libraries\lvgl\src\draw\sw/lv_draw_sw_blend.c **** #endif
1041:..\..\..\arduinoLCD\test\Pain Drain\libraries\lvgl\src\draw\sw/lv_draw_sw_blend.c **** 
1042:..\..\..\arduinoLCD\test\Pain Drain\libraries\lvgl\src\draw\sw/lv_draw_sw_blend.c ****     if(opa == LV_OPA_COVER) return fg;
1043:..\..\..\arduinoLCD\test\Pain Drain\libraries\lvgl\src\draw\sw/lv_draw_sw_blend.c **** 
1044:..\..\..\arduinoLCD\test\Pain Drain\libraries\lvgl\src\draw\sw/lv_draw_sw_blend.c ****     return lv_color_mix(fg, bg, opa);
1045:..\..\..\arduinoLCD\test\Pain Drain\libraries\lvgl\src\draw\sw/lv_draw_sw_blend.c **** }
 873              		.loc 1 1045 0 is_stmt 1 discriminator 1
 874 0006 7047     		bx	lr
 875              	.LVL150:
 876              	.L71:
1025:..\..\..\arduinoLCD\test\Pain Drain\libraries\lvgl\src\draw\sw/lv_draw_sw_blend.c ****     if(opa <= LV_OPA_MIN) return bg;
 877              		.loc 1 1025 0
 878 0008 30B4     		push	{r4, r5}
 879              		.cfi_def_cfa_offset 8
 880              		.cfi_offset 4, -8
 881              		.cfi_offset 5, -4
1033:..\..\..\arduinoLCD\test\Pain Drain\libraries\lvgl\src\draw\sw/lv_draw_sw_blend.c ****     fg.ch.blue = (fg.ch.blue * bg.ch.blue) >> 5;
 882              		.loc 1 1033 0
 883 000a C0F3C424 		ubfx	r4, r0, #11, #5
 884 000e C1F3C423 		ubfx	r3, r1, #11, #5
 885 0012 03FB04F3 		mul	r3, r3, r4
 886 0016 5B11     		asrs	r3, r3, #5
 887 0018 63F3CF20 		bfi	r0, r3, #11, #5
1034:..\..\..\arduinoLCD\test\Pain Drain\libraries\lvgl\src\draw\sw/lv_draw_sw_blend.c ****     LV_COLOR_SET_G(fg, (LV_COLOR_GET_G(fg) * LV_COLOR_GET_G(bg)) >> 6);
 888              		.loc 1 1034 0
 889 001c 00F01F04 		and	r4, r0, #31
 890 0020 01F01F03 		and	r3, r1, #31
 891 0024 03FB04F3 		mul	r3, r3, r4
 892 0028 5B11     		asrs	r3, r3, #5
 893 002a 63F30400 		bfi	r0, r3, #0, #5
ARM GAS  C:\Users\haske\AppData\Local\Temp\cc7ZkKza.s 			page 46


1035:..\..\..\arduinoLCD\test\Pain Drain\libraries\lvgl\src\draw\sw/lv_draw_sw_blend.c **** #elif LV_COLOR_DEPTH == 8
 894              		.loc 1 1035 0
 895 002e C0F34514 		ubfx	r4, r0, #5, #6
 896 0032 C1F34513 		ubfx	r3, r1, #5, #6
 897 0036 03FB04F3 		mul	r3, r3, r4
 898 003a 9B11     		asrs	r3, r3, #6
 899 003c 63F34A10 		bfi	r0, r3, #5, #6
1042:..\..\..\arduinoLCD\test\Pain Drain\libraries\lvgl\src\draw\sw/lv_draw_sw_blend.c **** 
 900              		.loc 1 1042 0
 901 0040 FF2A     		cmp	r2, #255
 902 0042 16D0     		beq	.L72
 903              	.LVL151:
 904              	.LBB115:
 905              	.LBB116:
 445:c:\projects\paindrain\arduinolcd\test\pain drain\libraries\lvgl\src\misc\lv_color.h ****     uint32_t bg = (uint32_t)((uint32_t)c2.full | ((uint32_t)c2.full << 16)) &
 906              		.loc 3 445 0
 907 0044 0432     		adds	r2, r2, #4
 908              	.LVL152:
 446:c:\projects\paindrain\arduinolcd\test\pain drain\libraries\lvgl\src\misc\lv_color.h ****                   0x7E0F81F; /*0b00000111111000001111100000011111*/
 909              		.loc 3 446 0
 910 0046 89B2     		uxth	r1, r1
 911              	.LVL153:
 912 0048 41EA0141 		orr	r1, r1, r1, lsl #16
 913 004c 0A4D     		ldr	r5, .L75
 914 004e 01EA0503 		and	r3, r1, r5
 915              	.LVL154:
 448:c:\projects\paindrain\arduinolcd\test\pain drain\libraries\lvgl\src\misc\lv_color.h ****     uint32_t result = ((((fg - bg) * mix) >> 5) + bg) & 0x7E0F81F;
 916              		.loc 3 448 0
 917 0052 80B2     		uxth	r0, r0
 918              	.LVL155:
 919 0054 40EA0040 		orr	r0, r0, r0, lsl #16
 920 0058 00EA0504 		and	r4, r0, r5
 921              	.LVL156:
 922              		.loc 3 449 0
 923 005c E41A     		subs	r4, r4, r3
 924              	.LVL157:
 925 005e C2F3C702 		ubfx	r2, r2, #3, #8
 926              	.LVL158:
 927 0062 04FB02F2 		mul	r2, r4, r2
 928 0066 03EB5213 		add	r3, r3, r2, lsr #5
 929              	.LVL159:
 930 006a 03EA0500 		and	r0, r3, r5
 931              	.LVL160:
 932 006e 40EA1040 		orr	r0, r0, r0, lsr #16
 933              	.LVL161:
 934              	.L72:
 935              	.LVL162:
 936              	.LBE116:
 937              	.LBE115:
 938              		.loc 1 1045 0
 939 0072 30BC     		pop	{r4, r5}
 940              		.cfi_restore 5
 941              		.cfi_restore 4
 942              		.cfi_def_cfa_offset 0
 943 0074 7047     		bx	lr
 944              	.L76:
 945 0076 00BF     		.align	2
ARM GAS  C:\Users\haske\AppData\Local\Temp\cc7ZkKza.s 			page 47


 946              	.L75:
 947 0078 1FF8E007 		.word	132184095
 948              		.cfi_endproc
 949              	.LFE169:
 950              		.size	color_blend_true_color_multiply, .-color_blend_true_color_multiply
 951              		.section	.text.fill_set_px,"ax",%progbits
 952              		.align	2
 953              		.thumb
 954              		.thumb_func
 955              		.type	fill_set_px, %function
 956              	fill_set_px:
 957              	.LFB161:
 209:..\..\..\arduinoLCD\test\Pain Drain\libraries\lvgl\src\draw\sw/lv_draw_sw_blend.c ****     lv_disp_t * disp = _lv_refr_get_disp_refreshing();
 958              		.loc 1 209 0
 959              		.cfi_startproc
 960              		@ args = 12, pretend = 0, frame = 24
 961              		@ frame_needed = 0, uses_anonymous_args = 0
 962              	.LVL163:
 963 0000 2DE9F04F 		push	{r4, r5, r6, r7, r8, r9, r10, fp, lr}
 964              		.cfi_def_cfa_offset 36
 965              		.cfi_offset 4, -36
 966              		.cfi_offset 5, -32
 967              		.cfi_offset 6, -28
 968              		.cfi_offset 7, -24
 969              		.cfi_offset 8, -20
 970              		.cfi_offset 9, -16
 971              		.cfi_offset 10, -12
 972              		.cfi_offset 11, -8
 973              		.cfi_offset 14, -4
 974 0004 8BB0     		sub	sp, sp, #44
 975              		.cfi_def_cfa_offset 80
 976 0006 0590     		str	r0, [sp, #20]
 977 0008 0F46     		mov	r7, r1
 978 000a 0692     		str	r2, [sp, #24]
 979 000c 9A46     		mov	r10, r3	@ movhi
 980 000e 9DF85030 		ldrb	r3, [sp, #80]	@ zero_extendqisi2
 981              	.LVL164:
 982 0012 0793     		str	r3, [sp, #28]
 983 0014 159D     		ldr	r5, [sp, #84]
 984 0016 BDF95830 		ldrsh	r3, [sp, #88]
 985 001a 0993     		str	r3, [sp, #36]
 210:..\..\..\arduinoLCD\test\Pain Drain\libraries\lvgl\src\draw\sw/lv_draw_sw_blend.c **** 
 986              		.loc 1 210 0
 987 001c FFF7FEFF 		bl	_lv_refr_get_disp_refreshing
 988              	.LVL165:
 989 0020 8346     		mov	fp, r0
 990              	.LVL166:
 215:..\..\..\arduinoLCD\test\Pain Drain\libraries\lvgl\src\draw\sw/lv_draw_sw_blend.c ****         for(y = blend_area->y1; y <= blend_area->y2; y++) {
 991              		.loc 1 215 0
 992 0022 0DBB     		cbnz	r5, .L78
 216:..\..\..\arduinoLCD\test\Pain Drain\libraries\lvgl\src\draw\sw/lv_draw_sw_blend.c ****             for(x = blend_area->x1; x <= blend_area->x2; x++) {
 993              		.loc 1 216 0
 994 0024 B7F90260 		ldrsh	r6, [r7, #2]
 995              	.LVL167:
 996 0028 DDF81880 		ldr	r8, [sp, #24]
 997 002c DDF81C90 		ldr	r9, [sp, #28]
 998 0030 15E0     		b	.L79
ARM GAS  C:\Users\haske\AppData\Local\Temp\cc7ZkKza.s 			page 48


 999              	.LVL168:
 1000              	.L82:
 217:..\..\..\arduinoLCD\test\Pain Drain\libraries\lvgl\src\draw\sw/lv_draw_sw_blend.c ****                 disp->driver->set_px_cb(disp->driver, (void *)dest_buf, dest_stride, x, y, color, o
 1001              		.loc 1 217 0
 1002 0032 B7F90040 		ldrsh	r4, [r7]
 1003              	.LVL169:
 1004 0036 0DE0     		b	.L80
 1005              	.L81:
 218:..\..\..\arduinoLCD\test\Pain Drain\libraries\lvgl\src\draw\sw/lv_draw_sw_blend.c ****             }
 1006              		.loc 1 218 0 discriminator 3
 1007 0038 DBF80000 		ldr	r0, [fp]
 1008 003c C569     		ldr	r5, [r0, #28]
 1009 003e CDF80890 		str	r9, [sp, #8]
 1010 0042 ADF804A0 		strh	r10, [sp, #4]	@ movhi
 1011 0046 33B2     		sxth	r3, r6
 1012 0048 0093     		str	r3, [sp]
 1013 004a 23B2     		sxth	r3, r4
 1014 004c 4246     		mov	r2, r8
 1015 004e 0599     		ldr	r1, [sp, #20]
 1016 0050 A847     		blx	r5
 1017              	.LVL170:
 217:..\..\..\arduinoLCD\test\Pain Drain\libraries\lvgl\src\draw\sw/lv_draw_sw_blend.c ****                 disp->driver->set_px_cb(disp->driver, (void *)dest_buf, dest_stride, x, y, color, o
 1018              		.loc 1 217 0 discriminator 3
 1019 0052 0134     		adds	r4, r4, #1
 1020              	.LVL171:
 1021              	.L80:
 217:..\..\..\arduinoLCD\test\Pain Drain\libraries\lvgl\src\draw\sw/lv_draw_sw_blend.c ****                 disp->driver->set_px_cb(disp->driver, (void *)dest_buf, dest_stride, x, y, color, o
 1022              		.loc 1 217 0 is_stmt 0 discriminator 1
 1023 0054 B7F90430 		ldrsh	r3, [r7, #4]
 1024 0058 9C42     		cmp	r4, r3
 1025 005a EDDD     		ble	.L81
 216:..\..\..\arduinoLCD\test\Pain Drain\libraries\lvgl\src\draw\sw/lv_draw_sw_blend.c ****             for(x = blend_area->x1; x <= blend_area->x2; x++) {
 1026              		.loc 1 216 0 is_stmt 1 discriminator 2
 1027 005c 0136     		adds	r6, r6, #1
 1028              	.LVL172:
 1029              	.L79:
 216:..\..\..\arduinoLCD\test\Pain Drain\libraries\lvgl\src\draw\sw/lv_draw_sw_blend.c ****             for(x = blend_area->x1; x <= blend_area->x2; x++) {
 1030              		.loc 1 216 0 is_stmt 0 discriminator 1
 1031 005e B7F90630 		ldrsh	r3, [r7, #6]
 1032 0062 9E42     		cmp	r6, r3
 1033 0064 E5DD     		ble	.L82
 1034 0066 39E0     		b	.L77
 1035              	.LVL173:
 1036              	.L78:
 1037              	.LBB117:
 1038              	.LBB118:
 1039              	.LBB119:
 125:c:\projects\paindrain\arduinolcd\test\pain drain\libraries\lvgl\src\misc\lv_area.h **** }
 1040              		.loc 2 125 0 is_stmt 1
 1041 0068 B7F90430 		ldrsh	r3, [r7, #4]
 1042 006c B7F90060 		ldrsh	r6, [r7]
 1043 0070 9E1B     		subs	r6, r3, r6
 1044 0072 0136     		adds	r6, r6, #1
 1045 0074 36B2     		sxth	r6, r6
 1046              	.LVL174:
 1047              	.LBE119:
 1048              	.LBE118:
ARM GAS  C:\Users\haske\AppData\Local\Temp\cc7ZkKza.s 			page 49


 1049              	.LBB120:
 1050              	.LBB121:
 1051              		.loc 2 135 0
 1052 0076 B7F90630 		ldrsh	r3, [r7, #6]
 1053 007a B7F90220 		ldrsh	r2, [r7, #2]
 1054 007e 9B1A     		subs	r3, r3, r2
 1055 0080 0133     		adds	r3, r3, #1
 1056 0082 1BB2     		sxth	r3, r3
 1057 0084 0893     		str	r3, [sp, #32]
 1058              	.LVL175:
 1059              	.LBE121:
 1060              	.LBE120:
 226:..\..\..\arduinoLCD\test\Pain Drain\libraries\lvgl\src\draw\sw/lv_draw_sw_blend.c ****             for(x = 0; x < w; x++) {
 1061              		.loc 1 226 0
 1062 0086 4FF00008 		mov	r8, #0
 1063 008a 24E0     		b	.L84
 1064              	.LVL176:
 1065              	.L86:
 228:..\..\..\arduinoLCD\test\Pain Drain\libraries\lvgl\src\draw\sw/lv_draw_sw_blend.c **** 
 1066              		.loc 1 228 0
 1067 008c 2A5D     		ldrb	r2, [r5, r4]	@ zero_extendqisi2
 1068 008e CAB1     		cbz	r2, .L85
 231:..\..\..\arduinoLCD\test\Pain Drain\libraries\lvgl\src\draw\sw/lv_draw_sw_blend.c ****                                             (uint32_t)((uint32_t)opa * mask[x]) >> 8);
 1069              		.loc 1 231 0
 1070 0090 DBF80000 		ldr	r0, [fp]
 1071 0094 D0F81C90 		ldr	r9, [r0, #28]
 1072 0098 B7F900E0 		ldrsh	lr, [r7]
 1073 009c B7F90210 		ldrsh	r1, [r7, #2]
 232:..\..\..\arduinoLCD\test\Pain Drain\libraries\lvgl\src\draw\sw/lv_draw_sw_blend.c ****                 }
 1074              		.loc 1 232 0
 1075 00a0 079B     		ldr	r3, [sp, #28]
 1076 00a2 03FB02F2 		mul	r2, r3, r2
 231:..\..\..\arduinoLCD\test\Pain Drain\libraries\lvgl\src\draw\sw/lv_draw_sw_blend.c ****                                             (uint32_t)((uint32_t)opa * mask[x]) >> 8);
 1077              		.loc 1 231 0
 1078 00a6 0EEB0403 		add	r3, lr, r4
 1079 00aa C2F30722 		ubfx	r2, r2, #8, #8
 1080 00ae 0292     		str	r2, [sp, #8]
 1081 00b0 ADF804A0 		strh	r10, [sp, #4]	@ movhi
 1082 00b4 01EB0802 		add	r2, r1, r8
 1083 00b8 12B2     		sxth	r2, r2
 1084 00ba 0092     		str	r2, [sp]
 1085 00bc 1BB2     		sxth	r3, r3
 1086 00be 069A     		ldr	r2, [sp, #24]
 1087 00c0 0599     		ldr	r1, [sp, #20]
 1088 00c2 C847     		blx	r9
 1089              	.LVL177:
 1090              	.L85:
 227:..\..\..\arduinoLCD\test\Pain Drain\libraries\lvgl\src\draw\sw/lv_draw_sw_blend.c ****                 if(mask[x]) {
 1091              		.loc 1 227 0 discriminator 2
 1092 00c4 0134     		adds	r4, r4, #1
 1093              	.LVL178:
 1094 00c6 00E0     		b	.L87
 1095              	.LVL179:
 1096              	.L88:
 1097 00c8 0024     		movs	r4, #0
 1098              	.LVL180:
 1099              	.L87:
ARM GAS  C:\Users\haske\AppData\Local\Temp\cc7ZkKza.s 			page 50


 227:..\..\..\arduinoLCD\test\Pain Drain\libraries\lvgl\src\draw\sw/lv_draw_sw_blend.c ****                 if(mask[x]) {
 1100              		.loc 1 227 0 is_stmt 0 discriminator 1
 1101 00ca B442     		cmp	r4, r6
 1102 00cc DEDB     		blt	.L86
 235:..\..\..\arduinoLCD\test\Pain Drain\libraries\lvgl\src\draw\sw/lv_draw_sw_blend.c ****         }
 1103              		.loc 1 235 0 is_stmt 1 discriminator 2
 1104 00ce 099B     		ldr	r3, [sp, #36]
 1105 00d0 1D44     		add	r5, r5, r3
 1106              	.LVL181:
 226:..\..\..\arduinoLCD\test\Pain Drain\libraries\lvgl\src\draw\sw/lv_draw_sw_blend.c ****             for(x = 0; x < w; x++) {
 1107              		.loc 1 226 0 discriminator 2
 1108 00d2 08F10108 		add	r8, r8, #1
 1109              	.LVL182:
 1110              	.L84:
 226:..\..\..\arduinoLCD\test\Pain Drain\libraries\lvgl\src\draw\sw/lv_draw_sw_blend.c ****             for(x = 0; x < w; x++) {
 1111              		.loc 1 226 0 is_stmt 0 discriminator 1
 1112 00d6 089B     		ldr	r3, [sp, #32]
 1113 00d8 9845     		cmp	r8, r3
 1114 00da F5DB     		blt	.L88
 1115              	.LVL183:
 1116              	.L77:
 1117              	.LBE117:
 238:..\..\..\arduinoLCD\test\Pain Drain\libraries\lvgl\src\draw\sw/lv_draw_sw_blend.c **** 
 1118              		.loc 1 238 0 is_stmt 1
 1119 00dc 0BB0     		add	sp, sp, #44
 1120              		.cfi_def_cfa_offset 36
 1121              		@ sp needed
 1122 00de BDE8F08F 		pop	{r4, r5, r6, r7, r8, r9, r10, fp, pc}
 1123              		.cfi_endproc
 1124              	.LFE161:
 1125              		.size	fill_set_px, .-fill_set_px
 1126 00e2 00BF     		.section	.text.map_set_px,"ax",%progbits
 1127              		.align	2
 1128              		.thumb
 1129              		.thumb_func
 1130              		.type	map_set_px, %function
 1131              	map_set_px:
 1132              	.LFB164:
 604:..\..\..\arduinoLCD\test\Pain Drain\libraries\lvgl\src\draw\sw/lv_draw_sw_blend.c ****     lv_disp_t * disp = _lv_refr_get_disp_refreshing();
 1133              		.loc 1 604 0
 1134              		.cfi_startproc
 1135              		@ args = 16, pretend = 0, frame = 24
 1136              		@ frame_needed = 0, uses_anonymous_args = 0
 1137              	.LVL184:
 1138 0000 2DE9F04F 		push	{r4, r5, r6, r7, r8, r9, r10, fp, lr}
 1139              		.cfi_def_cfa_offset 36
 1140              		.cfi_offset 4, -36
 1141              		.cfi_offset 5, -32
 1142              		.cfi_offset 6, -28
 1143              		.cfi_offset 7, -24
 1144              		.cfi_offset 8, -20
 1145              		.cfi_offset 9, -16
 1146              		.cfi_offset 10, -12
 1147              		.cfi_offset 11, -8
 1148              		.cfi_offset 14, -4
 1149 0004 8BB0     		sub	sp, sp, #44
 1150              		.cfi_def_cfa_offset 80
ARM GAS  C:\Users\haske\AppData\Local\Temp\cc7ZkKza.s 			page 51


 1151 0006 0490     		str	r0, [sp, #16]
 1152 0008 0F46     		mov	r7, r1
 1153 000a 0592     		str	r2, [sp, #20]
 1154 000c 9846     		mov	r8, r3
 1155 000e BDF95030 		ldrsh	r3, [sp, #80]
 1156              	.LVL185:
 1157 0012 0893     		str	r3, [sp, #32]
 1158 0014 9DF85430 		ldrb	r3, [sp, #84]	@ zero_extendqisi2
 1159 0018 0693     		str	r3, [sp, #24]
 1160 001a 169E     		ldr	r6, [sp, #88]
 1161 001c BDF95C30 		ldrsh	r3, [sp, #92]
 1162 0020 0993     		str	r3, [sp, #36]
 605:..\..\..\arduinoLCD\test\Pain Drain\libraries\lvgl\src\draw\sw/lv_draw_sw_blend.c **** 
 1163              		.loc 1 605 0
 1164 0022 FFF7FEFF 		bl	_lv_refr_get_disp_refreshing
 1165              	.LVL186:
 1166 0026 8346     		mov	fp, r0
 1167              	.LVL187:
 1168              	.LBB122:
 1169              	.LBB123:
 125:c:\projects\paindrain\arduinolcd\test\pain drain\libraries\lvgl\src\misc\lv_area.h **** }
 1170              		.loc 2 125 0
 1171 0028 B7F90430 		ldrsh	r3, [r7, #4]
 1172 002c B7F90050 		ldrsh	r5, [r7]
 1173 0030 5D1B     		subs	r5, r3, r5
 1174 0032 0135     		adds	r5, r5, #1
 1175 0034 2DB2     		sxth	r5, r5
 1176              	.LVL188:
 1177              	.LBE123:
 1178              	.LBE122:
 1179              	.LBB124:
 1180              	.LBB125:
 1181              		.loc 2 135 0
 1182 0036 B7F90630 		ldrsh	r3, [r7, #6]
 1183 003a B7F90220 		ldrsh	r2, [r7, #2]
 1184 003e 9B1A     		subs	r3, r3, r2
 1185 0040 0133     		adds	r3, r3, #1
 1186 0042 1BB2     		sxth	r3, r3
 1187 0044 0793     		str	r3, [sp, #28]
 1188              	.LVL189:
 1189              	.LBE125:
 1190              	.LBE124:
 613:..\..\..\arduinoLCD\test\Pain Drain\libraries\lvgl\src\draw\sw/lv_draw_sw_blend.c ****         for(y = 0; y < h; y++) {
 1191              		.loc 1 613 0
 1192 0046 16B3     		cbz	r6, .L99
 1193 0048 4FF00009 		mov	r9, #0
 1194 004c 51E0     		b	.L92
 1195              	.LVL190:
 1196              	.L93:
 616:..\..\..\arduinoLCD\test\Pain Drain\libraries\lvgl\src\draw\sw/lv_draw_sw_blend.c ****                                         opa);
 1197              		.loc 1 616 0 discriminator 3
 1198 004e DBF80000 		ldr	r0, [fp]
 1199 0052 C669     		ldr	r6, [r0, #28]
 1200 0054 B7F90030 		ldrsh	r3, [r7]
 1201 0058 B7F90220 		ldrsh	r2, [r7, #2]
 1202 005c 2344     		add	r3, r3, r4
 1203 005e CDF808A0 		str	r10, [sp, #8]
ARM GAS  C:\Users\haske\AppData\Local\Temp\cc7ZkKza.s 			page 52


 1204 0062 38F81410 		ldrh	r1, [r8, r4, lsl #1]
 1205 0066 ADF80410 		strh	r1, [sp, #4]	@ movhi
 1206 006a 4A44     		add	r2, r2, r9
 1207 006c 12B2     		sxth	r2, r2
 1208 006e 0092     		str	r2, [sp]
 1209 0070 1BB2     		sxth	r3, r3
 1210 0072 059A     		ldr	r2, [sp, #20]
 1211 0074 0499     		ldr	r1, [sp, #16]
 1212 0076 B047     		blx	r6
 1213              	.LVL191:
 615:..\..\..\arduinoLCD\test\Pain Drain\libraries\lvgl\src\draw\sw/lv_draw_sw_blend.c ****                 disp->driver->set_px_cb(disp->driver, (void *)dest_buf, dest_stride, dest_area->x1 
 1214              		.loc 1 615 0 discriminator 3
 1215 0078 0134     		adds	r4, r4, #1
 1216              	.LVL192:
 1217 007a 00E0     		b	.L94
 1218              	.LVL193:
 1219              	.L100:
 1220 007c 0024     		movs	r4, #0
 1221              	.L94:
 1222              	.LVL194:
 615:..\..\..\arduinoLCD\test\Pain Drain\libraries\lvgl\src\draw\sw/lv_draw_sw_blend.c ****                 disp->driver->set_px_cb(disp->driver, (void *)dest_buf, dest_stride, dest_area->x1 
 1223              		.loc 1 615 0 is_stmt 0 discriminator 1
 1224 007e AC42     		cmp	r4, r5
 1225 0080 E5DB     		blt	.L93
 619:..\..\..\arduinoLCD\test\Pain Drain\libraries\lvgl\src\draw\sw/lv_draw_sw_blend.c ****         }
 1226              		.loc 1 619 0 is_stmt 1 discriminator 2
 1227 0082 089B     		ldr	r3, [sp, #32]
 1228 0084 08EB4308 		add	r8, r8, r3, lsl #1
 1229              	.LVL195:
 614:..\..\..\arduinoLCD\test\Pain Drain\libraries\lvgl\src\draw\sw/lv_draw_sw_blend.c ****             for(x = 0; x < w; x++) {
 1230              		.loc 1 614 0 discriminator 2
 1231 0088 09F10109 		add	r9, r9, #1
 1232              	.LVL196:
 1233 008c 03E0     		b	.L91
 1234              	.LVL197:
 1235              	.L99:
 1236 008e 4FF00009 		mov	r9, #0
 1237 0092 DDF818A0 		ldr	r10, [sp, #24]
 1238              	.LVL198:
 1239              	.L91:
 614:..\..\..\arduinoLCD\test\Pain Drain\libraries\lvgl\src\draw\sw/lv_draw_sw_blend.c ****             for(x = 0; x < w; x++) {
 1240              		.loc 1 614 0 is_stmt 0 discriminator 1
 1241 0096 079B     		ldr	r3, [sp, #28]
 1242 0098 9945     		cmp	r9, r3
 1243 009a EFDB     		blt	.L100
 1244 009c 2CE0     		b	.L90
 1245              	.LVL199:
 1246              	.L97:
 625:..\..\..\arduinoLCD\test\Pain Drain\libraries\lvgl\src\draw\sw/lv_draw_sw_blend.c ****                     disp->driver->set_px_cb(disp->driver, (void *)dest_buf, dest_stride, dest_area-
 1247              		.loc 1 625 0 is_stmt 1
 1248 009e 325D     		ldrb	r2, [r6, r4]	@ zero_extendqisi2
 1249 00a0 DAB1     		cbz	r2, .L96
 626:..\..\..\arduinoLCD\test\Pain Drain\libraries\lvgl\src\draw\sw/lv_draw_sw_blend.c ****                                             (uint32_t)((uint32_t)opa * mask[x]) >> 8);
 1250              		.loc 1 626 0
 1251 00a2 DBF80000 		ldr	r0, [fp]
 1252 00a6 D0F81CA0 		ldr	r10, [r0, #28]
 1253 00aa B7F900E0 		ldrsh	lr, [r7]
ARM GAS  C:\Users\haske\AppData\Local\Temp\cc7ZkKza.s 			page 53


 1254 00ae B7F90210 		ldrsh	r1, [r7, #2]
 627:..\..\..\arduinoLCD\test\Pain Drain\libraries\lvgl\src\draw\sw/lv_draw_sw_blend.c ****                 }
 1255              		.loc 1 627 0
 1256 00b2 069B     		ldr	r3, [sp, #24]
 1257 00b4 03FB02F2 		mul	r2, r3, r2
 626:..\..\..\arduinoLCD\test\Pain Drain\libraries\lvgl\src\draw\sw/lv_draw_sw_blend.c ****                                             (uint32_t)((uint32_t)opa * mask[x]) >> 8);
 1258              		.loc 1 626 0
 1259 00b8 0EEB0403 		add	r3, lr, r4
 1260 00bc C2F30722 		ubfx	r2, r2, #8, #8
 1261 00c0 0292     		str	r2, [sp, #8]
 1262 00c2 38F81420 		ldrh	r2, [r8, r4, lsl #1]
 1263 00c6 ADF80420 		strh	r2, [sp, #4]	@ movhi
 1264 00ca 01EB0902 		add	r2, r1, r9
 1265 00ce 12B2     		sxth	r2, r2
 1266 00d0 0092     		str	r2, [sp]
 1267 00d2 1BB2     		sxth	r3, r3
 1268 00d4 059A     		ldr	r2, [sp, #20]
 1269 00d6 0499     		ldr	r1, [sp, #16]
 1270 00d8 D047     		blx	r10
 1271              	.LVL200:
 1272              	.L96:
 624:..\..\..\arduinoLCD\test\Pain Drain\libraries\lvgl\src\draw\sw/lv_draw_sw_blend.c ****                 if(mask[x]) {
 1273              		.loc 1 624 0 discriminator 2
 1274 00da 0134     		adds	r4, r4, #1
 1275              	.LVL201:
 1276 00dc 00E0     		b	.L98
 1277              	.LVL202:
 1278              	.L101:
 1279 00de 0024     		movs	r4, #0
 1280              	.LVL203:
 1281              	.L98:
 624:..\..\..\arduinoLCD\test\Pain Drain\libraries\lvgl\src\draw\sw/lv_draw_sw_blend.c ****                 if(mask[x]) {
 1282              		.loc 1 624 0 is_stmt 0 discriminator 1
 1283 00e0 AC42     		cmp	r4, r5
 1284 00e2 DCDB     		blt	.L97
 630:..\..\..\arduinoLCD\test\Pain Drain\libraries\lvgl\src\draw\sw/lv_draw_sw_blend.c ****             src_buf += src_stride;
 1285              		.loc 1 630 0 is_stmt 1 discriminator 2
 1286 00e4 099B     		ldr	r3, [sp, #36]
 1287 00e6 1E44     		add	r6, r6, r3
 1288              	.LVL204:
 631:..\..\..\arduinoLCD\test\Pain Drain\libraries\lvgl\src\draw\sw/lv_draw_sw_blend.c ****         }
 1289              		.loc 1 631 0 discriminator 2
 1290 00e8 089B     		ldr	r3, [sp, #32]
 1291 00ea 08EB4308 		add	r8, r8, r3, lsl #1
 1292              	.LVL205:
 623:..\..\..\arduinoLCD\test\Pain Drain\libraries\lvgl\src\draw\sw/lv_draw_sw_blend.c ****             for(x = 0; x < w; x++) {
 1293              		.loc 1 623 0 discriminator 2
 1294 00ee 09F10109 		add	r9, r9, #1
 1295              	.LVL206:
 1296              	.L92:
 623:..\..\..\arduinoLCD\test\Pain Drain\libraries\lvgl\src\draw\sw/lv_draw_sw_blend.c ****             for(x = 0; x < w; x++) {
 1297              		.loc 1 623 0 is_stmt 0 discriminator 1
 1298 00f2 079B     		ldr	r3, [sp, #28]
 1299 00f4 9945     		cmp	r9, r3
 1300 00f6 F2DB     		blt	.L101
 1301              	.LVL207:
 1302              	.L90:
ARM GAS  C:\Users\haske\AppData\Local\Temp\cc7ZkKza.s 			page 54


 634:..\..\..\arduinoLCD\test\Pain Drain\libraries\lvgl\src\draw\sw/lv_draw_sw_blend.c **** 
 1303              		.loc 1 634 0 is_stmt 1
 1304 00f8 0BB0     		add	sp, sp, #44
 1305              		.cfi_def_cfa_offset 36
 1306              		@ sp needed
 1307 00fa BDE8F08F 		pop	{r4, r5, r6, r7, r8, r9, r10, fp, pc}
 1308              		.cfi_endproc
 1309              	.LFE164:
 1310              		.size	map_set_px, .-map_set_px
 1311 00fe 00BF     		.section	.text.fill_normal,"ax",%progbits
 1312              		.align	2
 1313              		.thumb
 1314              		.thumb_func
 1315              		.type	fill_normal, %function
 1316              	fill_normal:
 1317              	.LFB162:
 242:..\..\..\arduinoLCD\test\Pain Drain\libraries\lvgl\src\draw\sw/lv_draw_sw_blend.c ****     int32_t w = lv_area_get_width(dest_area);
 1318              		.loc 1 242 0
 1319              		.cfi_startproc
 1320              		@ args = 12, pretend = 0, frame = 8
 1321              		@ frame_needed = 0, uses_anonymous_args = 0
 1322              	.LVL208:
 1323 0000 2DE9F04F 		push	{r4, r5, r6, r7, r8, r9, r10, fp, lr}
 1324              		.cfi_def_cfa_offset 36
 1325              		.cfi_offset 4, -36
 1326              		.cfi_offset 5, -32
 1327              		.cfi_offset 6, -28
 1328              		.cfi_offset 7, -24
 1329              		.cfi_offset 8, -20
 1330              		.cfi_offset 9, -16
 1331              		.cfi_offset 10, -12
 1332              		.cfi_offset 11, -8
 1333              		.cfi_offset 14, -4
 1334 0004 83B0     		sub	sp, sp, #12
 1335              		.cfi_def_cfa_offset 48
 1336 0006 0446     		mov	r4, r0
 1337 0008 0192     		str	r2, [sp, #4]
 1338 000a 1D46     		mov	r5, r3	@ movhi
 1339 000c 9DF830C0 		ldrb	ip, [sp, #48]	@ zero_extendqisi2
 1340 0010 0D9B     		ldr	r3, [sp, #52]
 1341              	.LVL209:
 1342 0012 BDF93820 		ldrsh	r2, [sp, #56]
 1343              	.LVL210:
 1344 0016 9246     		mov	r10, r2
 1345              	.LVL211:
 1346              	.LBB126:
 1347              	.LBB127:
 125:c:\projects\paindrain\arduinolcd\test\pain drain\libraries\lvgl\src\misc\lv_area.h **** }
 1348              		.loc 2 125 0
 1349 0018 B1F90420 		ldrsh	r2, [r1, #4]
 1350 001c B1F90060 		ldrsh	r6, [r1]
 1351 0020 961B     		subs	r6, r2, r6
 1352 0022 0136     		adds	r6, r6, #1
 1353 0024 36B2     		sxth	r6, r6
 1354              	.LVL212:
 1355              	.LBE127:
 1356              	.LBE126:
ARM GAS  C:\Users\haske\AppData\Local\Temp\cc7ZkKza.s 			page 55


 243:..\..\..\arduinoLCD\test\Pain Drain\libraries\lvgl\src\draw\sw/lv_draw_sw_blend.c ****     int32_t h = lv_area_get_height(dest_area);
 1357              		.loc 1 243 0
 1358 0026 3246     		mov	r2, r6
 1359              	.LVL213:
 1360              	.LBB128:
 1361              	.LBB129:
 1362              		.loc 2 135 0
 1363 0028 B1F90600 		ldrsh	r0, [r1, #6]
 1364              	.LVL214:
 1365 002c B1F90210 		ldrsh	r1, [r1, #2]
 1366              	.LVL215:
 1367 0030 411A     		subs	r1, r0, r1
 1368 0032 0131     		adds	r1, r1, #1
 1369 0034 0FFA81FB 		sxth	fp, r1
 1370              	.LVL216:
 1371              	.LBE129:
 1372              	.LBE128:
 250:..\..\..\arduinoLCD\test\Pain Drain\libraries\lvgl\src\draw\sw/lv_draw_sw_blend.c ****         if(opa >= LV_OPA_MAX) {
 1373              		.loc 1 250 0
 1374 0038 002B     		cmp	r3, #0
 1375 003a 74D1     		bne	.L104
 251:..\..\..\arduinoLCD\test\Pain Drain\libraries\lvgl\src\draw\sw/lv_draw_sw_blend.c ****             for(y = 0; y < h; y++) {
 1376              		.loc 1 251 0
 1377 003c BCF1FC0F 		cmp	ip, #252
 1378 0040 09D8     		bhi	.L147
 1379 0042 0EE0     		b	.L152
 1380              	.LVL217:
 1381              	.L107:
 253:..\..\..\arduinoLCD\test\Pain Drain\libraries\lvgl\src\draw\sw/lv_draw_sw_blend.c ****                 dest_buf += dest_stride;
 1382              		.loc 1 253 0 discriminator 3
 1383 0044 3246     		mov	r2, r6
 1384 0046 2946     		mov	r1, r5	@ movhi
 1385 0048 2046     		mov	r0, r4
 1386 004a FFF7FEFF 		bl	lv_color_fill
 1387              	.LVL218:
 254:..\..\..\arduinoLCD\test\Pain Drain\libraries\lvgl\src\draw\sw/lv_draw_sw_blend.c ****             }
 1388              		.loc 1 254 0 discriminator 3
 1389 004e 04EB4804 		add	r4, r4, r8, lsl #1
 1390              	.LVL219:
 252:..\..\..\arduinoLCD\test\Pain Drain\libraries\lvgl\src\draw\sw/lv_draw_sw_blend.c ****                 lv_color_fill(dest_buf, color, w);
 1391              		.loc 1 252 0 discriminator 3
 1392 0052 0137     		adds	r7, r7, #1
 1393              	.LVL220:
 1394 0054 02E0     		b	.L105
 1395              	.LVL221:
 1396              	.L147:
 1397 0056 0027     		movs	r7, #0
 1398 0058 DDF80480 		ldr	r8, [sp, #4]
 1399              	.LVL222:
 1400              	.L105:
 252:..\..\..\arduinoLCD\test\Pain Drain\libraries\lvgl\src\draw\sw/lv_draw_sw_blend.c ****                 lv_color_fill(dest_buf, color, w);
 1401              		.loc 1 252 0 is_stmt 0 discriminator 1
 1402 005c 5F45     		cmp	r7, fp
 1403 005e F1DB     		blt	.L107
 1404 0060 BEE1     		b	.L103
 1405              	.LVL223:
 1406              	.L152:
ARM GAS  C:\Users\haske\AppData\Local\Temp\cc7ZkKza.s 			page 56


 1407 0062 4FF00006 		mov	r6, #0	@ movhi
 1408              	.LVL224:
 1409              	.LBB130:
 1410              	.LBB131:
 1411              	.LBB132:
 445:c:\projects\paindrain\arduinolcd\test\pain drain\libraries\lvgl\src\misc\lv_color.h ****     uint32_t bg = (uint32_t)((uint32_t)c2.full | ((uint32_t)c2.full << 16)) &
 1412              		.loc 3 445 0 is_stmt 1
 1413 0066 0CF10401 		add	r1, ip, #4
 1414              	.LVL225:
 446:c:\projects\paindrain\arduinolcd\test\pain drain\libraries\lvgl\src\misc\lv_color.h ****                   0x7E0F81F; /*0b00000111111000001111100000011111*/
 1415              		.loc 3 446 0
 1416 006a C648     		ldr	r0, .L155
 1417              	.LVL226:
 448:c:\projects\paindrain\arduinolcd\test\pain drain\libraries\lvgl\src\misc\lv_color.h ****     uint32_t result = ((((fg - bg) * mix) >> 5) + bg) & 0x7E0F81F;
 1418              		.loc 3 448 0
 1419 006c ABB2     		uxth	r3, r5
 1420 006e 43EA0343 		orr	r3, r3, r3, lsl #16
 1421              	.LVL227:
 1422              		.loc 3 449 0
 1423 0072 0340     		ands	r3, r3, r0
 1424              	.LVL228:
 1425 0074 C1F3C701 		ubfx	r1, r1, #3, #8
 1426              	.LVL229:
 1427 0078 03FB01F3 		mul	r3, r3, r1
 1428              	.LVL230:
 1429 007c 00EA5318 		and	r8, r0, r3, lsr #5
 1430              	.LVL231:
 1431 0080 48EA1848 		orr	r8, r8, r8, lsr #16
 1432              	.LVL232:
 1433              	.LBE132:
 1434              	.LBE131:
 267:..\..\..\arduinoLCD\test\Pain Drain\libraries\lvgl\src\draw\sw/lv_draw_sw_blend.c **** #endif
 1435              		.loc 1 267 0
 1436 0084 C800     		lsls	r0, r1, #3
 1437 0086 C0B2     		uxtb	r0, r0
 1438              	.LVL233:
 1439              	.LBB133:
 1440              	.LBB134:
 450:c:\projects\paindrain\arduinolcd\test\pain drain\libraries\lvgl\src\misc\lv_color.h ****     ret.full = (uint16_t)((result >> 16) | result);
 451:c:\projects\paindrain\arduinolcd\test\pain drain\libraries\lvgl\src\misc\lv_color.h **** #elif LV_COLOR_DEPTH != 1
 452:c:\projects\paindrain\arduinolcd\test\pain drain\libraries\lvgl\src\misc\lv_color.h ****     /*LV_COLOR_DEPTH == 8, 16 or 32*/
 453:c:\projects\paindrain\arduinolcd\test\pain drain\libraries\lvgl\src\misc\lv_color.h ****     LV_COLOR_SET_R(ret, LV_UDIV255((uint16_t)LV_COLOR_GET_R(c1) * mix + LV_COLOR_GET_R(c2) *
 454:c:\projects\paindrain\arduinolcd\test\pain drain\libraries\lvgl\src\misc\lv_color.h ****                                    (255 - mix) + LV_COLOR_MIX_ROUND_OFS));
 455:c:\projects\paindrain\arduinolcd\test\pain drain\libraries\lvgl\src\misc\lv_color.h ****     LV_COLOR_SET_G(ret, LV_UDIV255((uint16_t)LV_COLOR_GET_G(c1) * mix + LV_COLOR_GET_G(c2) *
 456:c:\projects\paindrain\arduinolcd\test\pain drain\libraries\lvgl\src\misc\lv_color.h ****                                    (255 - mix) + LV_COLOR_MIX_ROUND_OFS));
 457:c:\projects\paindrain\arduinolcd\test\pain drain\libraries\lvgl\src\misc\lv_color.h ****     LV_COLOR_SET_B(ret, LV_UDIV255((uint16_t)LV_COLOR_GET_B(c1) * mix + LV_COLOR_GET_B(c2) *
 458:c:\projects\paindrain\arduinolcd\test\pain drain\libraries\lvgl\src\misc\lv_color.h ****                                    (255 - mix) + LV_COLOR_MIX_ROUND_OFS));
 459:c:\projects\paindrain\arduinolcd\test\pain drain\libraries\lvgl\src\misc\lv_color.h ****     LV_COLOR_SET_A(ret, 0xFF);
 460:c:\projects\paindrain\arduinolcd\test\pain drain\libraries\lvgl\src\misc\lv_color.h **** #else
 461:c:\projects\paindrain\arduinolcd\test\pain drain\libraries\lvgl\src\misc\lv_color.h ****     /*LV_COLOR_DEPTH == 1*/
 462:c:\projects\paindrain\arduinolcd\test\pain drain\libraries\lvgl\src\misc\lv_color.h ****     ret.full = mix > LV_OPA_50 ? c1.full : c2.full;
 463:c:\projects\paindrain\arduinolcd\test\pain drain\libraries\lvgl\src\misc\lv_color.h **** #endif
 464:c:\projects\paindrain\arduinolcd\test\pain drain\libraries\lvgl\src\misc\lv_color.h **** 
 465:c:\projects\paindrain\arduinolcd\test\pain drain\libraries\lvgl\src\misc\lv_color.h ****     return ret;
 466:c:\projects\paindrain\arduinolcd\test\pain drain\libraries\lvgl\src\misc\lv_color.h **** }
 467:c:\projects\paindrain\arduinolcd\test\pain drain\libraries\lvgl\src\misc\lv_color.h **** 
 468:c:\projects\paindrain\arduinolcd\test\pain drain\libraries\lvgl\src\misc\lv_color.h **** LV_ATTRIBUTE_FAST_MEM static inline void lv_color_premult(lv_color_t c, uint8_t mix, uint16_t * out
ARM GAS  C:\Users\haske\AppData\Local\Temp\cc7ZkKza.s 			page 57


 469:c:\projects\paindrain\arduinolcd\test\pain drain\libraries\lvgl\src\misc\lv_color.h **** {
 470:c:\projects\paindrain\arduinolcd\test\pain drain\libraries\lvgl\src\misc\lv_color.h **** #if LV_COLOR_DEPTH != 1
 471:c:\projects\paindrain\arduinolcd\test\pain drain\libraries\lvgl\src\misc\lv_color.h ****     out[0] = (uint16_t)LV_COLOR_GET_R(c) * mix;
 1441              		.loc 3 471 0
 1442 0088 C5F3C42A 		ubfx	r10, r5, #11, #5
 1443 008c 83B2     		uxth	r3, r0
 1444 008e 0AFB03FA 		mul	r10, r10, r3
 472:c:\projects\paindrain\arduinolcd\test\pain drain\libraries\lvgl\src\misc\lv_color.h ****     out[1] = (uint16_t)LV_COLOR_GET_G(c) * mix;
 1445              		.loc 3 472 0
 1446 0092 C5F34519 		ubfx	r9, r5, #5, #6
 1447 0096 09FB03F9 		mul	r9, r9, r3
 473:c:\projects\paindrain\arduinolcd\test\pain drain\libraries\lvgl\src\misc\lv_color.h ****     out[2] = (uint16_t)LV_COLOR_GET_B(c) * mix;
 1448              		.loc 3 473 0
 1449 009a 05F01F05 		and	r5, r5, #31
 1450              	.LVL234:
 1451 009e 05FB03F3 		mul	r3, r5, r3
 1452              	.LVL235:
 1453              	.LBE134:
 1454              	.LBE133:
 272:..\..\..\arduinoLCD\test\Pain Drain\libraries\lvgl\src\draw\sw/lv_draw_sw_blend.c **** 
 1455              		.loc 1 272 0
 1456 00a2 80F0FF00 		eor	r0, r0, #255
 1457              	.LVL236:
 274:..\..\..\arduinoLCD\test\Pain Drain\libraries\lvgl\src\draw\sw/lv_draw_sw_blend.c ****                 for(x = 0; x < w; x++) {
 1458              		.loc 1 274 0
 1459 00a6 0021     		movs	r1, #0
 1460 00a8 CDF800B0 		str	fp, [sp]
 1461 00ac 8B46     		mov	fp, r1
 1462              	.LVL237:
 1463 00ae 36E0     		b	.L109
 1464              	.LVL238:
 1465              	.L111:
 276:..\..\..\arduinoLCD\test\Pain Drain\libraries\lvgl\src\draw\sw/lv_draw_sw_blend.c ****                         last_dest_color = dest_buf[x];
 1466              		.loc 1 276 0
 1467 00b0 B5B2     		uxth	r5, r6
 1468 00b2 04EB410E 		add	lr, r4, r1, lsl #1
 1469 00b6 34F811C0 		ldrh	ip, [r4, r1, lsl #1]
 1470 00ba 6545     		cmp	r5, ip
 1471 00bc 23D0     		beq	.L110
 277:..\..\..\arduinoLCD\test\Pain Drain\libraries\lvgl\src\draw\sw/lv_draw_sw_blend.c ****                         last_res_color = lv_color_mix_premult(color_premult, dest_buf[x], opa_inv);
 1472              		.loc 1 277 0
 1473 00be 34F81160 		ldrh	r6, [r4, r1, lsl #1]
 1474              	.LVL239:
 1475              	.LBB135:
 1476              	.LBB136:
 474:c:\projects\paindrain\arduinolcd\test\pain drain\libraries\lvgl\src\misc\lv_color.h **** #else
 475:c:\projects\paindrain\arduinolcd\test\pain drain\libraries\lvgl\src\misc\lv_color.h ****     (void) mix;
 476:c:\projects\paindrain\arduinolcd\test\pain drain\libraries\lvgl\src\misc\lv_color.h ****     /*Pre-multiplication can't be used with 1 bpp*/
 477:c:\projects\paindrain\arduinolcd\test\pain drain\libraries\lvgl\src\misc\lv_color.h ****     out[0] = LV_COLOR_GET_R(c);
 478:c:\projects\paindrain\arduinolcd\test\pain drain\libraries\lvgl\src\misc\lv_color.h ****     out[1] = LV_COLOR_GET_G(c);
 479:c:\projects\paindrain\arduinolcd\test\pain drain\libraries\lvgl\src\misc\lv_color.h ****     out[2] = LV_COLOR_GET_B(c);
 480:c:\projects\paindrain\arduinolcd\test\pain drain\libraries\lvgl\src\misc\lv_color.h **** #endif
 481:c:\projects\paindrain\arduinolcd\test\pain drain\libraries\lvgl\src\misc\lv_color.h **** 
 482:c:\projects\paindrain\arduinolcd\test\pain drain\libraries\lvgl\src\misc\lv_color.h **** }
 483:c:\projects\paindrain\arduinolcd\test\pain drain\libraries\lvgl\src\misc\lv_color.h **** 
 484:c:\projects\paindrain\arduinolcd\test\pain drain\libraries\lvgl\src\misc\lv_color.h **** /**
 485:c:\projects\paindrain\arduinolcd\test\pain drain\libraries\lvgl\src\misc\lv_color.h ****  * Mix two colors with a given ratio. It runs faster then `lv_color_mix` but requires some pre comp
ARM GAS  C:\Users\haske\AppData\Local\Temp\cc7ZkKza.s 			page 58


 486:c:\projects\paindrain\arduinolcd\test\pain drain\libraries\lvgl\src\misc\lv_color.h ****  * @param premult_c1 The first color. Should be preprocessed with `lv_color_premult(c1)`
 487:c:\projects\paindrain\arduinolcd\test\pain drain\libraries\lvgl\src\misc\lv_color.h ****  * @param c2 The second color. As it is no pre computation required on it
 488:c:\projects\paindrain\arduinolcd\test\pain drain\libraries\lvgl\src\misc\lv_color.h ****  * @param mix The ratio of the colors. 0: full `c1`, 255: full `c2`, 127: half `c1` and half `c2`.
 489:c:\projects\paindrain\arduinolcd\test\pain drain\libraries\lvgl\src\misc\lv_color.h ****  *            Should be modified like mix = `255 - mix`
 490:c:\projects\paindrain\arduinolcd\test\pain drain\libraries\lvgl\src\misc\lv_color.h ****  * @return the mixed color
 491:c:\projects\paindrain\arduinolcd\test\pain drain\libraries\lvgl\src\misc\lv_color.h ****  * @note 255 won't give clearly `c1`.
 492:c:\projects\paindrain\arduinolcd\test\pain drain\libraries\lvgl\src\misc\lv_color.h ****  */
 493:c:\projects\paindrain\arduinolcd\test\pain drain\libraries\lvgl\src\misc\lv_color.h **** LV_ATTRIBUTE_FAST_MEM static inline lv_color_t lv_color_mix_premult(uint16_t * premult_c1, lv_color
 494:c:\projects\paindrain\arduinolcd\test\pain drain\libraries\lvgl\src\misc\lv_color.h **** {
 495:c:\projects\paindrain\arduinolcd\test\pain drain\libraries\lvgl\src\misc\lv_color.h ****     lv_color_t ret;
 496:c:\projects\paindrain\arduinolcd\test\pain drain\libraries\lvgl\src\misc\lv_color.h **** #if LV_COLOR_DEPTH != 1
 497:c:\projects\paindrain\arduinolcd\test\pain drain\libraries\lvgl\src\misc\lv_color.h ****     /*LV_COLOR_DEPTH == 8 or 32*/
 498:c:\projects\paindrain\arduinolcd\test\pain drain\libraries\lvgl\src\misc\lv_color.h ****     LV_COLOR_SET_R(ret, LV_UDIV255(premult_c1[0] + LV_COLOR_GET_R(c2) * mix + LV_COLOR_MIX_ROUND_OF
 1477              		.loc 3 498 0
 1478 00c2 C6F3C425 		ubfx	r5, r6, #11, #5
 1479 00c6 00FB05A5 		mla	r5, r0, r5, r10
 1480 00ca 05EB052C 		add	ip, r5, r5, lsl #8
 1481 00ce 05EBCC15 		add	r5, r5, ip, lsl #7
 1482 00d2 ED0D     		lsrs	r5, r5, #23
 1483 00d4 65F3CF27 		bfi	r7, r5, #11, #5
 499:c:\projects\paindrain\arduinolcd\test\pain drain\libraries\lvgl\src\misc\lv_color.h ****     LV_COLOR_SET_G(ret, LV_UDIV255(premult_c1[1] + LV_COLOR_GET_G(c2) * mix + LV_COLOR_MIX_ROUND_OF
 1484              		.loc 3 499 0
 1485 00d8 C6F34515 		ubfx	r5, r6, #5, #6
 1486 00dc 00FB0595 		mla	r5, r0, r5, r9
 1487 00e0 05EB052C 		add	ip, r5, r5, lsl #8
 1488 00e4 05EBCC15 		add	r5, r5, ip, lsl #7
 1489 00e8 ED0D     		lsrs	r5, r5, #23
 1490 00ea 65F34A17 		bfi	r7, r5, #5, #6
 500:c:\projects\paindrain\arduinolcd\test\pain drain\libraries\lvgl\src\misc\lv_color.h ****     LV_COLOR_SET_B(ret, LV_UDIV255(premult_c1[2] + LV_COLOR_GET_B(c2) * mix + LV_COLOR_MIX_ROUND_OF
 1491              		.loc 3 500 0
 1492 00ee 06F01F05 		and	r5, r6, #31
 1493 00f2 00FB0535 		mla	r5, r0, r5, r3
 1494 00f6 05EB052C 		add	ip, r5, r5, lsl #8
 1495 00fa 05EBCC15 		add	r5, r5, ip, lsl #7
 1496 00fe ED0D     		lsrs	r5, r5, #23
 1497 0100 65F30407 		bfi	r7, r5, #0, #5
 1498 0104 B846     		mov	r8, r7	@ movhi
 1499              	.LVL240:
 1500              	.L110:
 1501              	.LBE136:
 1502              	.LBE135:
 280:..\..\..\arduinoLCD\test\Pain Drain\libraries\lvgl\src\draw\sw/lv_draw_sw_blend.c ****                 }
 1503              		.loc 1 280 0 discriminator 2
 1504 0106 AEF80080 		strh	r8, [lr]	@ movhi
 275:..\..\..\arduinoLCD\test\Pain Drain\libraries\lvgl\src\draw\sw/lv_draw_sw_blend.c ****                     if(last_dest_color.full != dest_buf[x].full) {
 1505              		.loc 1 275 0 discriminator 2
 1506 010a 0131     		adds	r1, r1, #1
 1507              	.LVL241:
 1508 010c 00E0     		b	.L112
 1509              	.LVL242:
 1510              	.L148:
 1511 010e 0021     		movs	r1, #0
 1512              	.L112:
 1513              	.LVL243:
 275:..\..\..\arduinoLCD\test\Pain Drain\libraries\lvgl\src\draw\sw/lv_draw_sw_blend.c ****                     if(last_dest_color.full != dest_buf[x].full) {
 1514              		.loc 1 275 0 is_stmt 0 discriminator 1
 1515 0110 9142     		cmp	r1, r2
ARM GAS  C:\Users\haske\AppData\Local\Temp\cc7ZkKza.s 			page 59


 1516 0112 CDDB     		blt	.L111
 282:..\..\..\arduinoLCD\test\Pain Drain\libraries\lvgl\src\draw\sw/lv_draw_sw_blend.c ****             }
 1517              		.loc 1 282 0 is_stmt 1 discriminator 2
 1518 0114 0199     		ldr	r1, [sp, #4]
 1519              	.LVL244:
 1520 0116 04EB4104 		add	r4, r4, r1, lsl #1
 1521              	.LVL245:
 274:..\..\..\arduinoLCD\test\Pain Drain\libraries\lvgl\src\draw\sw/lv_draw_sw_blend.c ****                 for(x = 0; x < w; x++) {
 1522              		.loc 1 274 0 discriminator 2
 1523 011a 0BF1010B 		add	fp, fp, #1
 1524              	.LVL246:
 1525              	.L109:
 274:..\..\..\arduinoLCD\test\Pain Drain\libraries\lvgl\src\draw\sw/lv_draw_sw_blend.c ****                 for(x = 0; x < w; x++) {
 1526              		.loc 1 274 0 is_stmt 0 discriminator 1
 1527 011e 0099     		ldr	r1, [sp]
 1528 0120 8B45     		cmp	fp, r1
 1529 0122 F4DB     		blt	.L148
 1530 0124 5CE1     		b	.L103
 1531              	.LVL247:
 1532              	.L104:
 1533              	.LBE130:
 1534              	.LBB137:
 289:..\..\..\arduinoLCD\test\Pain Drain\libraries\lvgl\src\draw\sw/lv_draw_sw_blend.c **** #endif
 1535              		.loc 1 289 0 is_stmt 1
 1536 0126 1FFA85F8 		uxth	r8, r5
 1537 012a 08EB0848 		add	r8, r8, r8, lsl #16
 1538              	.LVL248:
 292:..\..\..\arduinoLCD\test\Pain Drain\libraries\lvgl\src\draw\sw/lv_draw_sw_blend.c ****             int32_t x_end4 = w - 4;
 1539              		.loc 1 292 0
 1540 012e BCF1FC0F 		cmp	ip, #252
 1541 0132 40F20681 		bls	.L113
 1542              	.LBB138:
 293:..\..\..\arduinoLCD\test\Pain Drain\libraries\lvgl\src\draw\sw/lv_draw_sw_blend.c ****             for(y = 0; y < h; y++) {
 1543              		.loc 1 293 0
 1544 0136 043E     		subs	r6, r6, #4
 1545              	.LVL249:
 294:..\..\..\arduinoLCD\test\Pain Drain\libraries\lvgl\src\draw\sw/lv_draw_sw_blend.c ****                 for(x = 0; x < w && ((lv_uintptr_t)(mask) & 0x3); x++) {
 1546              		.loc 1 294 0
 1547 0138 4FF00009 		mov	r9, #0
 1548 013c FDE0     		b	.L114
 1549              	.LVL250:
 1550              	.L118:
 296:..\..\..\arduinoLCD\test\Pain Drain\libraries\lvgl\src\draw\sw/lv_draw_sw_blend.c ****                 }
 1551              		.loc 1 296 0
 1552 013e 93F800E0 		ldrb	lr, [r3]	@ zero_extendqisi2
 1553 0142 BEF1FF0F 		cmp	lr, #255
 1554 0146 01D1     		bne	.L115
 296:..\..\..\arduinoLCD\test\Pain Drain\libraries\lvgl\src\draw\sw/lv_draw_sw_blend.c ****                 }
 1555              		.loc 1 296 0 is_stmt 0 discriminator 1
 1556 0148 2580     		strh	r5, [r4]	@ movhi
 1557 014a 15E0     		b	.L116
 1558              	.L115:
 1559              	.LVL251:
 1560              	.LBB139:
 1561              	.LBB140:
 445:c:\projects\paindrain\arduinolcd\test\pain drain\libraries\lvgl\src\misc\lv_color.h ****     uint32_t bg = (uint32_t)((uint32_t)c2.full | ((uint32_t)c2.full << 16)) &
 1562              		.loc 3 445 0 is_stmt 1 discriminator 2
ARM GAS  C:\Users\haske\AppData\Local\Temp\cc7ZkKza.s 			page 60


 1563 014c 0EF1040E 		add	lr, lr, #4
 1564              	.LVL252:
 446:c:\projects\paindrain\arduinolcd\test\pain drain\libraries\lvgl\src\misc\lv_color.h ****                   0x7E0F81F; /*0b00000111111000001111100000011111*/
 1565              		.loc 3 446 0 discriminator 2
 1566 0150 2788     		ldrh	r7, [r4]
 1567 0152 47EA0747 		orr	r7, r7, r7, lsl #16
 1568 0156 8B49     		ldr	r1, .L155
 1569 0158 0F40     		ands	r7, r7, r1
 1570              	.LVL253:
 448:c:\projects\paindrain\arduinolcd\test\pain drain\libraries\lvgl\src\misc\lv_color.h ****     uint32_t result = ((((fg - bg) * mix) >> 5) + bg) & 0x7E0F81F;
 1571              		.loc 3 448 0 discriminator 2
 1572 015a A8B2     		uxth	r0, r5
 1573 015c 40EA0040 		orr	r0, r0, r0, lsl #16
 1574 0160 0840     		ands	r0, r0, r1
 1575              	.LVL254:
 449:c:\projects\paindrain\arduinolcd\test\pain drain\libraries\lvgl\src\misc\lv_color.h ****     ret.full = (uint16_t)((result >> 16) | result);
 1576              		.loc 3 449 0 discriminator 2
 1577 0162 C01B     		subs	r0, r0, r7
 1578              	.LVL255:
 1579 0164 CEF3C70E 		ubfx	lr, lr, #3, #8
 1580              	.LVL256:
 1581 0168 00FB0EF0 		mul	r0, r0, lr
 1582 016c 07EB5017 		add	r7, r7, r0, lsr #5
 1583              	.LVL257:
 1584 0170 3940     		ands	r1, r1, r7
 1585              	.LVL258:
 450:c:\projects\paindrain\arduinolcd\test\pain drain\libraries\lvgl\src\misc\lv_color.h **** #elif LV_COLOR_DEPTH != 1
 1586              		.loc 3 450 0 discriminator 2
 1587 0172 41EA1141 		orr	r1, r1, r1, lsr #16
 1588              	.LVL259:
 1589              	.LBE140:
 1590              	.LBE139:
 296:..\..\..\arduinoLCD\test\Pain Drain\libraries\lvgl\src\draw\sw/lv_draw_sw_blend.c ****                 }
 1591              		.loc 1 296 0 discriminator 2
 1592 0176 2180     		strh	r1, [r4]	@ movhi
 1593              	.L116:
 296:..\..\..\arduinoLCD\test\Pain Drain\libraries\lvgl\src\draw\sw/lv_draw_sw_blend.c ****                 }
 1594              		.loc 1 296 0 is_stmt 0 discriminator 4
 1595 0178 0133     		adds	r3, r3, #1
 1596              	.LVL260:
 1597 017a 0234     		adds	r4, r4, #2
 1598              	.LVL261:
 295:..\..\..\arduinoLCD\test\Pain Drain\libraries\lvgl\src\draw\sw/lv_draw_sw_blend.c ****                     FILL_NORMAL_MASK_PX(color)
 1599              		.loc 1 295 0 is_stmt 1 discriminator 4
 1600 017c 0CF1010C 		add	ip, ip, #1
 1601              	.LVL262:
 1602 0180 01E0     		b	.L137
 1603              	.LVL263:
 1604              	.L149:
 1605 0182 4FF0000C 		mov	ip, #0
 1606              	.L137:
 1607              	.LVL264:
 295:..\..\..\arduinoLCD\test\Pain Drain\libraries\lvgl\src\draw\sw/lv_draw_sw_blend.c ****                     FILL_NORMAL_MASK_PX(color)
 1608              		.loc 1 295 0 is_stmt 0 discriminator 2
 1609 0186 9445     		cmp	ip, r2
 1610 0188 80F2A580 		bge	.L153
 295:..\..\..\arduinoLCD\test\Pain Drain\libraries\lvgl\src\draw\sw/lv_draw_sw_blend.c ****                     FILL_NORMAL_MASK_PX(color)
ARM GAS  C:\Users\haske\AppData\Local\Temp\cc7ZkKza.s 			page 61


 1611              		.loc 1 295 0 discriminator 3
 1612 018c 13F0030F 		tst	r3, #3
 1613 0190 D5D1     		bne	.L118
 1614 0192 4046     		mov	r0, r8
 1615 0194 A0E0     		b	.L117
 1616              	.LVL265:
 1617              	.L132:
 1618              	.LBB141:
 300:..\..\..\arduinoLCD\test\Pain Drain\libraries\lvgl\src\draw\sw/lv_draw_sw_blend.c ****                     if(mask32 == 0xFFFFFFFF) {
 1619              		.loc 1 300 0 is_stmt 1
 1620 0196 1968     		ldr	r1, [r3]
 1621              	.LVL266:
 301:..\..\..\arduinoLCD\test\Pain Drain\libraries\lvgl\src\draw\sw/lv_draw_sw_blend.c **** #if LV_COLOR_DEPTH == 16
 1622              		.loc 1 301 0
 1623 0198 B1F1FF3F 		cmp	r1, #-1
 1624 019c 0CD1     		bne	.L119
 303:..\..\..\arduinoLCD\test\Pain Drain\libraries\lvgl\src\draw\sw/lv_draw_sw_blend.c ****                             *(dest_buf + 0) = color;
 1625              		.loc 1 303 0
 1626 019e 14F0030F 		tst	r4, #3
 1627 01a2 04D0     		beq	.L120
 1628              	.LBB142:
 304:..\..\..\arduinoLCD\test\Pain Drain\libraries\lvgl\src\draw\sw/lv_draw_sw_blend.c ****                             uint32_t * d = (uint32_t *)(dest_buf + 1);
 1629              		.loc 1 304 0
 1630 01a4 2580     		strh	r5, [r4]	@ movhi
 1631              	.LVL267:
 306:..\..\..\arduinoLCD\test\Pain Drain\libraries\lvgl\src\draw\sw/lv_draw_sw_blend.c ****                             *(dest_buf + 3) = color;
 1632              		.loc 1 306 0
 1633 01a6 C4F80200 		str	r0, [r4, #2]
 307:..\..\..\arduinoLCD\test\Pain Drain\libraries\lvgl\src\draw\sw/lv_draw_sw_blend.c ****                         }
 1634              		.loc 1 307 0
 1635 01aa E580     		strh	r5, [r4, #6]	@ movhi
 1636              	.LBE142:
 1637 01ac 01E0     		b	.L121
 1638              	.LVL268:
 1639              	.L120:
 1640              	.LBB143:
 311:..\..\..\arduinoLCD\test\Pain Drain\libraries\lvgl\src\draw\sw/lv_draw_sw_blend.c ****                             *(d + 1) = c32;
 1641              		.loc 1 311 0
 1642 01ae 2060     		str	r0, [r4]
 312:..\..\..\arduinoLCD\test\Pain Drain\libraries\lvgl\src\draw\sw/lv_draw_sw_blend.c ****                         }
 1643              		.loc 1 312 0
 1644 01b0 6060     		str	r0, [r4, #4]
 1645              	.LVL269:
 1646              	.L121:
 1647              	.LBE143:
 320:..\..\..\arduinoLCD\test\Pain Drain\libraries\lvgl\src\draw\sw/lv_draw_sw_blend.c ****                         mask += 4;
 1648              		.loc 1 320 0
 1649 01b2 0834     		adds	r4, r4, #8
 1650              	.LVL270:
 321:..\..\..\arduinoLCD\test\Pain Drain\libraries\lvgl\src\draw\sw/lv_draw_sw_blend.c ****                     }
 1651              		.loc 1 321 0
 1652 01b4 0433     		adds	r3, r3, #4
 1653              	.LVL271:
 1654 01b6 8BE0     		b	.L122
 1655              	.L119:
 323:..\..\..\arduinoLCD\test\Pain Drain\libraries\lvgl\src\draw\sw/lv_draw_sw_blend.c ****                         FILL_NORMAL_MASK_PX(color)
 1656              		.loc 1 323 0
ARM GAS  C:\Users\haske\AppData\Local\Temp\cc7ZkKza.s 			page 62


 1657 01b8 0029     		cmp	r1, #0
 1658 01ba 00F08780 		beq	.L123
 324:..\..\..\arduinoLCD\test\Pain Drain\libraries\lvgl\src\draw\sw/lv_draw_sw_blend.c ****                         FILL_NORMAL_MASK_PX(color)
 1659              		.loc 1 324 0
 1660 01be 93F80080 		ldrb	r8, [r3]	@ zero_extendqisi2
 1661 01c2 B8F1FF0F 		cmp	r8, #255
 1662 01c6 01D1     		bne	.L124
 324:..\..\..\arduinoLCD\test\Pain Drain\libraries\lvgl\src\draw\sw/lv_draw_sw_blend.c ****                         FILL_NORMAL_MASK_PX(color)
 1663              		.loc 1 324 0 is_stmt 0 discriminator 1
 1664 01c8 2580     		strh	r5, [r4]	@ movhi
 1665 01ca 19E0     		b	.L125
 1666              	.L124:
 1667              	.LVL272:
 1668              	.LBB144:
 1669              	.LBB145:
 445:c:\projects\paindrain\arduinolcd\test\pain drain\libraries\lvgl\src\misc\lv_color.h ****     uint32_t bg = (uint32_t)((uint32_t)c2.full | ((uint32_t)c2.full << 16)) &
 1670              		.loc 3 445 0 is_stmt 1 discriminator 2
 1671 01cc 08F10408 		add	r8, r8, #4
 1672              	.LVL273:
 446:c:\projects\paindrain\arduinolcd\test\pain drain\libraries\lvgl\src\misc\lv_color.h ****                   0x7E0F81F; /*0b00000111111000001111100000011111*/
 1673              		.loc 3 446 0 discriminator 2
 1674 01d0 B4F800E0 		ldrh	lr, [r4]
 1675 01d4 4EEA0E4E 		orr	lr, lr, lr, lsl #16
 1676 01d8 6A49     		ldr	r1, .L155
 1677              	.LVL274:
 1678 01da 0EEA010E 		and	lr, lr, r1
 1679              	.LVL275:
 448:c:\projects\paindrain\arduinolcd\test\pain drain\libraries\lvgl\src\misc\lv_color.h ****     uint32_t result = ((((fg - bg) * mix) >> 5) + bg) & 0x7E0F81F;
 1680              		.loc 3 448 0 discriminator 2
 1681 01de AFB2     		uxth	r7, r5
 1682 01e0 47EA0747 		orr	r7, r7, r7, lsl #16
 1683 01e4 0F40     		ands	r7, r7, r1
 1684              	.LVL276:
 449:c:\projects\paindrain\arduinolcd\test\pain drain\libraries\lvgl\src\misc\lv_color.h ****     ret.full = (uint16_t)((result >> 16) | result);
 1685              		.loc 3 449 0 discriminator 2
 1686 01e6 CEEB0707 		rsb	r7, lr, r7
 1687              	.LVL277:
 1688 01ea C8F3C708 		ubfx	r8, r8, #3, #8
 1689              	.LVL278:
 1690 01ee 07FB08F7 		mul	r7, r7, r8
 1691 01f2 0EEB571E 		add	lr, lr, r7, lsr #5
 1692              	.LVL279:
 1693 01f6 0EEA0101 		and	r1, lr, r1
 1694              	.LVL280:
 450:c:\projects\paindrain\arduinolcd\test\pain drain\libraries\lvgl\src\misc\lv_color.h **** #elif LV_COLOR_DEPTH != 1
 1695              		.loc 3 450 0 discriminator 2
 1696 01fa 41EA1141 		orr	r1, r1, r1, lsr #16
 1697              	.LVL281:
 1698              	.LBE145:
 1699              	.LBE144:
 324:..\..\..\arduinoLCD\test\Pain Drain\libraries\lvgl\src\draw\sw/lv_draw_sw_blend.c ****                         FILL_NORMAL_MASK_PX(color)
 1700              		.loc 1 324 0 discriminator 2
 1701 01fe 2180     		strh	r1, [r4]	@ movhi
 1702              	.LVL282:
 1703              	.L125:
 325:..\..\..\arduinoLCD\test\Pain Drain\libraries\lvgl\src\draw\sw/lv_draw_sw_blend.c ****                         FILL_NORMAL_MASK_PX(color)
 1704              		.loc 1 325 0 discriminator 4
ARM GAS  C:\Users\haske\AppData\Local\Temp\cc7ZkKza.s 			page 63


 1705 0200 93F80180 		ldrb	r8, [r3, #1]	@ zero_extendqisi2
 1706 0204 B8F1FF0F 		cmp	r8, #255
 1707 0208 01D1     		bne	.L126
 325:..\..\..\arduinoLCD\test\Pain Drain\libraries\lvgl\src\draw\sw/lv_draw_sw_blend.c ****                         FILL_NORMAL_MASK_PX(color)
 1708              		.loc 1 325 0 is_stmt 0 discriminator 1
 1709 020a 6580     		strh	r5, [r4, #2]	@ movhi
 1710 020c 19E0     		b	.L127
 1711              	.L126:
 1712              	.LVL283:
 1713              	.LBB146:
 1714              	.LBB147:
 445:c:\projects\paindrain\arduinolcd\test\pain drain\libraries\lvgl\src\misc\lv_color.h ****     uint32_t bg = (uint32_t)((uint32_t)c2.full | ((uint32_t)c2.full << 16)) &
 1715              		.loc 3 445 0 is_stmt 1 discriminator 2
 1716 020e 08F10408 		add	r8, r8, #4
 1717              	.LVL284:
 446:c:\projects\paindrain\arduinolcd\test\pain drain\libraries\lvgl\src\misc\lv_color.h ****                   0x7E0F81F; /*0b00000111111000001111100000011111*/
 1718              		.loc 3 446 0 discriminator 2
 1719 0212 B4F802E0 		ldrh	lr, [r4, #2]
 1720 0216 4EEA0E4E 		orr	lr, lr, lr, lsl #16
 1721 021a 5A49     		ldr	r1, .L155
 1722 021c 0EEA010E 		and	lr, lr, r1
 1723              	.LVL285:
 448:c:\projects\paindrain\arduinolcd\test\pain drain\libraries\lvgl\src\misc\lv_color.h ****     uint32_t result = ((((fg - bg) * mix) >> 5) + bg) & 0x7E0F81F;
 1724              		.loc 3 448 0 discriminator 2
 1725 0220 AFB2     		uxth	r7, r5
 1726 0222 47EA0747 		orr	r7, r7, r7, lsl #16
 1727 0226 0F40     		ands	r7, r7, r1
 1728              	.LVL286:
 449:c:\projects\paindrain\arduinolcd\test\pain drain\libraries\lvgl\src\misc\lv_color.h ****     ret.full = (uint16_t)((result >> 16) | result);
 1729              		.loc 3 449 0 discriminator 2
 1730 0228 CEEB0707 		rsb	r7, lr, r7
 1731              	.LVL287:
 1732 022c C8F3C708 		ubfx	r8, r8, #3, #8
 1733              	.LVL288:
 1734 0230 07FB08F7 		mul	r7, r7, r8
 1735 0234 0EEB571E 		add	lr, lr, r7, lsr #5
 1736              	.LVL289:
 1737 0238 0EEA0101 		and	r1, lr, r1
 1738              	.LVL290:
 450:c:\projects\paindrain\arduinolcd\test\pain drain\libraries\lvgl\src\misc\lv_color.h **** #elif LV_COLOR_DEPTH != 1
 1739              		.loc 3 450 0 discriminator 2
 1740 023c 41EA1141 		orr	r1, r1, r1, lsr #16
 1741              	.LVL291:
 1742              	.LBE147:
 1743              	.LBE146:
 325:..\..\..\arduinoLCD\test\Pain Drain\libraries\lvgl\src\draw\sw/lv_draw_sw_blend.c ****                         FILL_NORMAL_MASK_PX(color)
 1744              		.loc 1 325 0 discriminator 2
 1745 0240 6180     		strh	r1, [r4, #2]	@ movhi
 1746              	.L127:
 1747              	.LVL292:
 326:..\..\..\arduinoLCD\test\Pain Drain\libraries\lvgl\src\draw\sw/lv_draw_sw_blend.c ****                         FILL_NORMAL_MASK_PX(color)
 1748              		.loc 1 326 0 discriminator 4
 1749 0242 93F80280 		ldrb	r8, [r3, #2]	@ zero_extendqisi2
 1750 0246 B8F1FF0F 		cmp	r8, #255
 1751 024a 01D1     		bne	.L128
 326:..\..\..\arduinoLCD\test\Pain Drain\libraries\lvgl\src\draw\sw/lv_draw_sw_blend.c ****                         FILL_NORMAL_MASK_PX(color)
 1752              		.loc 1 326 0 is_stmt 0 discriminator 1
ARM GAS  C:\Users\haske\AppData\Local\Temp\cc7ZkKza.s 			page 64


 1753 024c A580     		strh	r5, [r4, #4]	@ movhi
 1754 024e 19E0     		b	.L129
 1755              	.L128:
 1756              	.LVL293:
 1757              	.LBB148:
 1758              	.LBB149:
 445:c:\projects\paindrain\arduinolcd\test\pain drain\libraries\lvgl\src\misc\lv_color.h ****     uint32_t bg = (uint32_t)((uint32_t)c2.full | ((uint32_t)c2.full << 16)) &
 1759              		.loc 3 445 0 is_stmt 1 discriminator 2
 1760 0250 08F10408 		add	r8, r8, #4
 1761              	.LVL294:
 446:c:\projects\paindrain\arduinolcd\test\pain drain\libraries\lvgl\src\misc\lv_color.h ****                   0x7E0F81F; /*0b00000111111000001111100000011111*/
 1762              		.loc 3 446 0 discriminator 2
 1763 0254 B4F804E0 		ldrh	lr, [r4, #4]
 1764 0258 4EEA0E4E 		orr	lr, lr, lr, lsl #16
 1765 025c 4949     		ldr	r1, .L155
 1766 025e 0EEA010E 		and	lr, lr, r1
 1767              	.LVL295:
 448:c:\projects\paindrain\arduinolcd\test\pain drain\libraries\lvgl\src\misc\lv_color.h ****     uint32_t result = ((((fg - bg) * mix) >> 5) + bg) & 0x7E0F81F;
 1768              		.loc 3 448 0 discriminator 2
 1769 0262 AFB2     		uxth	r7, r5
 1770 0264 47EA0747 		orr	r7, r7, r7, lsl #16
 1771 0268 0F40     		ands	r7, r7, r1
 1772              	.LVL296:
 449:c:\projects\paindrain\arduinolcd\test\pain drain\libraries\lvgl\src\misc\lv_color.h ****     ret.full = (uint16_t)((result >> 16) | result);
 1773              		.loc 3 449 0 discriminator 2
 1774 026a CEEB0707 		rsb	r7, lr, r7
 1775              	.LVL297:
 1776 026e C8F3C708 		ubfx	r8, r8, #3, #8
 1777              	.LVL298:
 1778 0272 07FB08F7 		mul	r7, r7, r8
 1779 0276 0EEB571E 		add	lr, lr, r7, lsr #5
 1780              	.LVL299:
 1781 027a 0EEA0101 		and	r1, lr, r1
 1782              	.LVL300:
 450:c:\projects\paindrain\arduinolcd\test\pain drain\libraries\lvgl\src\misc\lv_color.h **** #elif LV_COLOR_DEPTH != 1
 1783              		.loc 3 450 0 discriminator 2
 1784 027e 41EA1141 		orr	r1, r1, r1, lsr #16
 1785              	.LVL301:
 1786              	.LBE149:
 1787              	.LBE148:
 326:..\..\..\arduinoLCD\test\Pain Drain\libraries\lvgl\src\draw\sw/lv_draw_sw_blend.c ****                         FILL_NORMAL_MASK_PX(color)
 1788              		.loc 1 326 0 discriminator 2
 1789 0282 A180     		strh	r1, [r4, #4]	@ movhi
 1790              	.L129:
 1791              	.LVL302:
 327:..\..\..\arduinoLCD\test\Pain Drain\libraries\lvgl\src\draw\sw/lv_draw_sw_blend.c ****                     }
 1792              		.loc 1 327 0 discriminator 4
 1793 0284 93F80380 		ldrb	r8, [r3, #3]	@ zero_extendqisi2
 1794 0288 B8F1FF0F 		cmp	r8, #255
 1795 028c 01D1     		bne	.L130
 327:..\..\..\arduinoLCD\test\Pain Drain\libraries\lvgl\src\draw\sw/lv_draw_sw_blend.c ****                     }
 1796              		.loc 1 327 0 is_stmt 0 discriminator 1
 1797 028e E580     		strh	r5, [r4, #6]	@ movhi
 1798 0290 19E0     		b	.L131
 1799              	.L130:
 1800              	.LVL303:
 1801              	.LBB150:
ARM GAS  C:\Users\haske\AppData\Local\Temp\cc7ZkKza.s 			page 65


 1802              	.LBB151:
 445:c:\projects\paindrain\arduinolcd\test\pain drain\libraries\lvgl\src\misc\lv_color.h ****     uint32_t bg = (uint32_t)((uint32_t)c2.full | ((uint32_t)c2.full << 16)) &
 1803              		.loc 3 445 0 is_stmt 1 discriminator 2
 1804 0292 08F10408 		add	r8, r8, #4
 1805              	.LVL304:
 446:c:\projects\paindrain\arduinolcd\test\pain drain\libraries\lvgl\src\misc\lv_color.h ****                   0x7E0F81F; /*0b00000111111000001111100000011111*/
 1806              		.loc 3 446 0 discriminator 2
 1807 0296 B4F806E0 		ldrh	lr, [r4, #6]
 1808 029a 4EEA0E4E 		orr	lr, lr, lr, lsl #16
 1809 029e 3949     		ldr	r1, .L155
 1810 02a0 0EEA010E 		and	lr, lr, r1
 1811              	.LVL305:
 448:c:\projects\paindrain\arduinolcd\test\pain drain\libraries\lvgl\src\misc\lv_color.h ****     uint32_t result = ((((fg - bg) * mix) >> 5) + bg) & 0x7E0F81F;
 1812              		.loc 3 448 0 discriminator 2
 1813 02a4 AFB2     		uxth	r7, r5
 1814 02a6 47EA0747 		orr	r7, r7, r7, lsl #16
 1815 02aa 0F40     		ands	r7, r7, r1
 1816              	.LVL306:
 449:c:\projects\paindrain\arduinolcd\test\pain drain\libraries\lvgl\src\misc\lv_color.h ****     ret.full = (uint16_t)((result >> 16) | result);
 1817              		.loc 3 449 0 discriminator 2
 1818 02ac CEEB0707 		rsb	r7, lr, r7
 1819              	.LVL307:
 1820 02b0 C8F3C708 		ubfx	r8, r8, #3, #8
 1821              	.LVL308:
 1822 02b4 07FB08F7 		mul	r7, r7, r8
 1823 02b8 0EEB571E 		add	lr, lr, r7, lsr #5
 1824              	.LVL309:
 1825 02bc 0EEA0101 		and	r1, lr, r1
 1826              	.LVL310:
 450:c:\projects\paindrain\arduinolcd\test\pain drain\libraries\lvgl\src\misc\lv_color.h **** #elif LV_COLOR_DEPTH != 1
 1827              		.loc 3 450 0 discriminator 2
 1828 02c0 41EA1141 		orr	r1, r1, r1, lsr #16
 1829              	.LVL311:
 1830              	.LBE151:
 1831              	.LBE150:
 327:..\..\..\arduinoLCD\test\Pain Drain\libraries\lvgl\src\draw\sw/lv_draw_sw_blend.c ****                     }
 1832              		.loc 1 327 0 discriminator 2
 1833 02c4 E180     		strh	r1, [r4, #6]	@ movhi
 1834              	.L131:
 327:..\..\..\arduinoLCD\test\Pain Drain\libraries\lvgl\src\draw\sw/lv_draw_sw_blend.c ****                     }
 1835              		.loc 1 327 0 is_stmt 0 discriminator 4
 1836 02c6 0433     		adds	r3, r3, #4
 1837              	.LVL312:
 1838 02c8 0834     		adds	r4, r4, #8
 1839              	.LVL313:
 1840 02ca 01E0     		b	.L122
 1841              	.LVL314:
 1842              	.L123:
 330:..\..\..\arduinoLCD\test\Pain Drain\libraries\lvgl\src\draw\sw/lv_draw_sw_blend.c ****                         dest_buf += 4;
 1843              		.loc 1 330 0 is_stmt 1
 1844 02cc 0433     		adds	r3, r3, #4
 1845              	.LVL315:
 331:..\..\..\arduinoLCD\test\Pain Drain\libraries\lvgl\src\draw\sw/lv_draw_sw_blend.c ****                     }
 1846              		.loc 1 331 0
 1847 02ce 0834     		adds	r4, r4, #8
 1848              	.LVL316:
 1849              	.L122:
ARM GAS  C:\Users\haske\AppData\Local\Temp\cc7ZkKza.s 			page 66


 1850              	.LBE141:
 299:..\..\..\arduinoLCD\test\Pain Drain\libraries\lvgl\src\draw\sw/lv_draw_sw_blend.c ****                     uint32_t mask32 = *((uint32_t *)mask);
 1851              		.loc 1 299 0
 1852 02d0 0CF1040C 		add	ip, ip, #4
 1853              	.LVL317:
 1854 02d4 00E0     		b	.L117
 1855              	.LVL318:
 1856              	.L153:
 1857 02d6 4046     		mov	r0, r8
 1858              	.LVL319:
 1859              	.L117:
 299:..\..\..\arduinoLCD\test\Pain Drain\libraries\lvgl\src\draw\sw/lv_draw_sw_blend.c ****                     uint32_t mask32 = *((uint32_t *)mask);
 1860              		.loc 1 299 0 is_stmt 0 discriminator 1
 1861 02d8 B445     		cmp	ip, r6
 1862 02da 7FF75CAF 		ble	.L132
 1863 02de 8046     		mov	r8, r0
 1864 02e0 20E0     		b	.L133
 1865              	.LVL320:
 1866              	.L136:
 336:..\..\..\arduinoLCD\test\Pain Drain\libraries\lvgl\src\draw\sw/lv_draw_sw_blend.c ****                 }
 1867              		.loc 1 336 0 is_stmt 1
 1868 02e2 93F800E0 		ldrb	lr, [r3]	@ zero_extendqisi2
 1869 02e6 BEF1FF0F 		cmp	lr, #255
 1870 02ea 01D1     		bne	.L134
 336:..\..\..\arduinoLCD\test\Pain Drain\libraries\lvgl\src\draw\sw/lv_draw_sw_blend.c ****                 }
 1871              		.loc 1 336 0 is_stmt 0 discriminator 1
 1872 02ec 2580     		strh	r5, [r4]	@ movhi
 1873 02ee 15E0     		b	.L135
 1874              	.L134:
 1875              	.LVL321:
 1876              	.LBB152:
 1877              	.LBB153:
 445:c:\projects\paindrain\arduinolcd\test\pain drain\libraries\lvgl\src\misc\lv_color.h ****     uint32_t bg = (uint32_t)((uint32_t)c2.full | ((uint32_t)c2.full << 16)) &
 1878              		.loc 3 445 0 is_stmt 1 discriminator 2
 1879 02f0 0EF1040E 		add	lr, lr, #4
 1880              	.LVL322:
 446:c:\projects\paindrain\arduinolcd\test\pain drain\libraries\lvgl\src\misc\lv_color.h ****                   0x7E0F81F; /*0b00000111111000001111100000011111*/
 1881              		.loc 3 446 0 discriminator 2
 1882 02f4 2788     		ldrh	r7, [r4]
 1883 02f6 47EA0747 		orr	r7, r7, r7, lsl #16
 1884 02fa 2249     		ldr	r1, .L155
 1885 02fc 0F40     		ands	r7, r7, r1
 1886              	.LVL323:
 448:c:\projects\paindrain\arduinolcd\test\pain drain\libraries\lvgl\src\misc\lv_color.h ****     uint32_t result = ((((fg - bg) * mix) >> 5) + bg) & 0x7E0F81F;
 1887              		.loc 3 448 0 discriminator 2
 1888 02fe A8B2     		uxth	r0, r5
 1889 0300 40EA0040 		orr	r0, r0, r0, lsl #16
 1890 0304 0840     		ands	r0, r0, r1
 1891              	.LVL324:
 449:c:\projects\paindrain\arduinolcd\test\pain drain\libraries\lvgl\src\misc\lv_color.h ****     ret.full = (uint16_t)((result >> 16) | result);
 1892              		.loc 3 449 0 discriminator 2
 1893 0306 C01B     		subs	r0, r0, r7
 1894              	.LVL325:
 1895 0308 CEF3C70E 		ubfx	lr, lr, #3, #8
 1896              	.LVL326:
 1897 030c 00FB0EF0 		mul	r0, r0, lr
 1898 0310 07EB5017 		add	r7, r7, r0, lsr #5
ARM GAS  C:\Users\haske\AppData\Local\Temp\cc7ZkKza.s 			page 67


 1899              	.LVL327:
 1900 0314 3940     		ands	r1, r1, r7
 1901              	.LVL328:
 450:c:\projects\paindrain\arduinolcd\test\pain drain\libraries\lvgl\src\misc\lv_color.h **** #elif LV_COLOR_DEPTH != 1
 1902              		.loc 3 450 0 discriminator 2
 1903 0316 41EA1141 		orr	r1, r1, r1, lsr #16
 1904              	.LVL329:
 1905              	.LBE153:
 1906              	.LBE152:
 336:..\..\..\arduinoLCD\test\Pain Drain\libraries\lvgl\src\draw\sw/lv_draw_sw_blend.c ****                 }
 1907              		.loc 1 336 0 discriminator 2
 1908 031a 2180     		strh	r1, [r4]	@ movhi
 1909              	.L135:
 336:..\..\..\arduinoLCD\test\Pain Drain\libraries\lvgl\src\draw\sw/lv_draw_sw_blend.c ****                 }
 1910              		.loc 1 336 0 is_stmt 0 discriminator 4
 1911 031c 0133     		adds	r3, r3, #1
 1912              	.LVL330:
 1913 031e 0234     		adds	r4, r4, #2
 1914              	.LVL331:
 335:..\..\..\arduinoLCD\test\Pain Drain\libraries\lvgl\src\draw\sw/lv_draw_sw_blend.c ****                     FILL_NORMAL_MASK_PX(color)
 1915              		.loc 1 335 0 is_stmt 1 discriminator 4
 1916 0320 0CF1010C 		add	ip, ip, #1
 1917              	.LVL332:
 1918              	.L133:
 335:..\..\..\arduinoLCD\test\Pain Drain\libraries\lvgl\src\draw\sw/lv_draw_sw_blend.c ****                     FILL_NORMAL_MASK_PX(color)
 1919              		.loc 1 335 0 is_stmt 0 discriminator 1
 1920 0324 9445     		cmp	ip, r2
 1921 0326 DCDB     		blt	.L136
 338:..\..\..\arduinoLCD\test\Pain Drain\libraries\lvgl\src\draw\sw/lv_draw_sw_blend.c ****                 mask += (mask_stride - w);
 1922              		.loc 1 338 0 is_stmt 1 discriminator 2
 1923 0328 0199     		ldr	r1, [sp, #4]
 1924 032a 891A     		subs	r1, r1, r2
 1925 032c 04EB4104 		add	r4, r4, r1, lsl #1
 1926              	.LVL333:
 339:..\..\..\arduinoLCD\test\Pain Drain\libraries\lvgl\src\draw\sw/lv_draw_sw_blend.c ****             }
 1927              		.loc 1 339 0 discriminator 2
 1928 0330 C2EB0A01 		rsb	r1, r2, r10
 1929 0334 0B44     		add	r3, r3, r1
 1930              	.LVL334:
 294:..\..\..\arduinoLCD\test\Pain Drain\libraries\lvgl\src\draw\sw/lv_draw_sw_blend.c ****                 for(x = 0; x < w && ((lv_uintptr_t)(mask) & 0x3); x++) {
 1931              		.loc 1 294 0 discriminator 2
 1932 0336 09F10109 		add	r9, r9, #1
 1933              	.LVL335:
 1934              	.L114:
 294:..\..\..\arduinoLCD\test\Pain Drain\libraries\lvgl\src\draw\sw/lv_draw_sw_blend.c ****                 for(x = 0; x < w && ((lv_uintptr_t)(mask) & 0x3); x++) {
 1935              		.loc 1 294 0 is_stmt 0 discriminator 1
 1936 033a D945     		cmp	r9, fp
 1937 033c FFF621AF 		blt	.L149
 1938 0340 4EE0     		b	.L103
 1939              	.LVL336:
 1940              	.L113:
 1941              	.LBE138:
 1942              	.LBB154:
 348:..\..\..\arduinoLCD\test\Pain Drain\libraries\lvgl\src\draw\sw/lv_draw_sw_blend.c ****             last_res_color.full = dest_buf[0].full;
 1943              		.loc 1 348 0 is_stmt 1
 1944 0342 2188     		ldrh	r1, [r4]
 1945 0344 8E46     		mov	lr, r1	@ movhi
ARM GAS  C:\Users\haske\AppData\Local\Temp\cc7ZkKza.s 			page 68


 1946              	.LVL337:
 350:..\..\..\arduinoLCD\test\Pain Drain\libraries\lvgl\src\draw\sw/lv_draw_sw_blend.c **** 
 1947              		.loc 1 350 0
 1948 0346 0026     		movs	r6, #0
 347:..\..\..\arduinoLCD\test\Pain Drain\libraries\lvgl\src\draw\sw/lv_draw_sw_blend.c ****             last_dest_color.full = dest_buf[0].full;
 1949              		.loc 1 347 0
 1950 0348 3746     		mov	r7, r6
 352:..\..\..\arduinoLCD\test\Pain Drain\libraries\lvgl\src\draw\sw/lv_draw_sw_blend.c ****                 for(x = 0; x < w; x++) {
 1951              		.loc 1 352 0
 1952 034a B146     		mov	r9, r6
 1953 034c ADF80050 		strh	r5, [sp]	@ movhi
 1954 0350 44E0     		b	.L138
 1955              	.LVL338:
 1956              	.L145:
 354:..\..\..\arduinoLCD\test\Pain Drain\libraries\lvgl\src\draw\sw/lv_draw_sw_blend.c ****                         if(*mask != last_mask) opa_tmp = *mask == LV_OPA_COVER ? opa :
 1957              		.loc 1 354 0
 1958 0352 1D78     		ldrb	r5, [r3]	@ zero_extendqisi2
 1959              	.LVL339:
 1960 0354 A5B3     		cbz	r5, .L139
 355:..\..\..\arduinoLCD\test\Pain Drain\libraries\lvgl\src\draw\sw/lv_draw_sw_blend.c ****                                                              (uint32_t)((uint32_t)(*mask) * opa) >>
 1961              		.loc 1 355 0
 1962 0356 AF42     		cmp	r7, r5
 1963 0358 07D0     		beq	.L140
 355:..\..\..\arduinoLCD\test\Pain Drain\libraries\lvgl\src\draw\sw/lv_draw_sw_blend.c ****                                                              (uint32_t)((uint32_t)(*mask) * opa) >>
 1964              		.loc 1 355 0 is_stmt 0 discriminator 1
 1965 035a FF2D     		cmp	r5, #255
 1966 035c 04D0     		beq	.L150
 356:..\..\..\arduinoLCD\test\Pain Drain\libraries\lvgl\src\draw\sw/lv_draw_sw_blend.c ****                         if(*mask != last_mask || last_dest_color.full != dest_buf[x].full) {
 1967              		.loc 1 356 0 is_stmt 1 discriminator 2
 1968 035e 05FB0CF6 		mul	r6, r5, ip
 1969              	.LVL340:
 355:..\..\..\arduinoLCD\test\Pain Drain\libraries\lvgl\src\draw\sw/lv_draw_sw_blend.c ****                                                              (uint32_t)((uint32_t)(*mask) * opa) >>
 1970              		.loc 1 355 0 discriminator 2
 1971 0362 C6F30726 		ubfx	r6, r6, #8, #8
 1972 0366 00E0     		b	.L140
 1973              	.LVL341:
 1974              	.L150:
 355:..\..\..\arduinoLCD\test\Pain Drain\libraries\lvgl\src\draw\sw/lv_draw_sw_blend.c ****                                                              (uint32_t)((uint32_t)(*mask) * opa) >>
 1975              		.loc 1 355 0 is_stmt 0
 1976 0368 6646     		mov	r6, ip
 1977              	.LVL342:
 1978              	.L140:
 357:..\..\..\arduinoLCD\test\Pain Drain\libraries\lvgl\src\draw\sw/lv_draw_sw_blend.c ****                             if(opa_tmp == LV_OPA_COVER) last_res_color = color;
 1979              		.loc 1 357 0 is_stmt 1
 1980 036a AF42     		cmp	r7, r5
 1981 036c 05D1     		bne	.L141
 357:..\..\..\arduinoLCD\test\Pain Drain\libraries\lvgl\src\draw\sw/lv_draw_sw_blend.c ****                             if(opa_tmp == LV_OPA_COVER) last_res_color = color;
 1982              		.loc 1 357 0 is_stmt 0 discriminator 1
 1983 036e 1FFA8EF5 		uxth	r5, lr
 1984 0372 34F81080 		ldrh	r8, [r4, r0, lsl #1]
 1985 0376 4545     		cmp	r5, r8
 1986 0378 20D0     		beq	.L142
 1987              	.L141:
 358:..\..\..\arduinoLCD\test\Pain Drain\libraries\lvgl\src\draw\sw/lv_draw_sw_blend.c ****                             else last_res_color = lv_color_mix(color, dest_buf[x], opa_tmp);
 1988              		.loc 1 358 0 is_stmt 1
 1989 037a FF2E     		cmp	r6, #255
 1990 037c 04D1     		bne	.L143
ARM GAS  C:\Users\haske\AppData\Local\Temp\cc7ZkKza.s 			page 69


 358:..\..\..\arduinoLCD\test\Pain Drain\libraries\lvgl\src\draw\sw/lv_draw_sw_blend.c ****                             else last_res_color = lv_color_mix(color, dest_buf[x], opa_tmp);
 1991              		.loc 1 358 0 is_stmt 0 discriminator 1
 1992 037e BDF80010 		ldrh	r1, [sp]
 1993              	.LVL343:
 1994 0382 18E0     		b	.L144
 1995              	.L156:
 1996              		.align	2
 1997              	.L155:
 1998 0384 1FF8E007 		.word	132184095
 1999              	.LVL344:
 2000              	.L143:
 2001              	.LBB155:
 2002              	.LBB156:
 445:c:\projects\paindrain\arduinolcd\test\pain drain\libraries\lvgl\src\misc\lv_color.h ****     uint32_t bg = (uint32_t)((uint32_t)c2.full | ((uint32_t)c2.full << 16)) &
 2003              		.loc 3 445 0 is_stmt 1
 2004 0388 06F1040E 		add	lr, r6, #4
 2005              	.LVL345:
 446:c:\projects\paindrain\arduinolcd\test\pain drain\libraries\lvgl\src\misc\lv_color.h ****                   0x7E0F81F; /*0b00000111111000001111100000011111*/
 2006              		.loc 3 446 0
 2007 038c 34F81070 		ldrh	r7, [r4, r0, lsl #1]
 2008              	.LVL346:
 2009 0390 47EA0747 		orr	r7, r7, r7, lsl #16
 2010 0394 1449     		ldr	r1, .L157
 2011              	.LVL347:
 2012 0396 0F40     		ands	r7, r7, r1
 2013              	.LVL348:
 448:c:\projects\paindrain\arduinolcd\test\pain drain\libraries\lvgl\src\misc\lv_color.h ****     uint32_t result = ((((fg - bg) * mix) >> 5) + bg) & 0x7E0F81F;
 2014              		.loc 3 448 0
 2015 0398 BDF80050 		ldrh	r5, [sp]
 2016 039c 45EA0545 		orr	r5, r5, r5, lsl #16
 2017 03a0 0D40     		ands	r5, r5, r1
 2018              	.LVL349:
 449:c:\projects\paindrain\arduinolcd\test\pain drain\libraries\lvgl\src\misc\lv_color.h ****     ret.full = (uint16_t)((result >> 16) | result);
 2019              		.loc 3 449 0
 2020 03a2 ED1B     		subs	r5, r5, r7
 2021              	.LVL350:
 2022 03a4 CEF3C70E 		ubfx	lr, lr, #3, #8
 2023 03a8 05FB0EF5 		mul	r5, r5, lr
 2024 03ac 07EB5517 		add	r7, r7, r5, lsr #5
 2025              	.LVL351:
 2026 03b0 3940     		ands	r1, r1, r7
 2027              	.LVL352:
 2028 03b2 41EA1141 		orr	r1, r1, r1, lsr #16
 2029              	.LVL353:
 2030              	.L144:
 2031              	.LBE156:
 2032              	.LBE155:
 360:..\..\..\arduinoLCD\test\Pain Drain\libraries\lvgl\src\draw\sw/lv_draw_sw_blend.c ****                             last_dest_color.full = dest_buf[x].full;
 2033              		.loc 1 360 0
 2034 03b6 1F78     		ldrb	r7, [r3]	@ zero_extendqisi2
 2035              	.LVL354:
 361:..\..\..\arduinoLCD\test\Pain Drain\libraries\lvgl\src\draw\sw/lv_draw_sw_blend.c ****                         }
 2036              		.loc 1 361 0
 2037 03b8 34F810E0 		ldrh	lr, [r4, r0, lsl #1]
 2038              	.LVL355:
 2039              	.L142:
 363:..\..\..\arduinoLCD\test\Pain Drain\libraries\lvgl\src\draw\sw/lv_draw_sw_blend.c ****                     }
ARM GAS  C:\Users\haske\AppData\Local\Temp\cc7ZkKza.s 			page 70


 2040              		.loc 1 363 0
 2041 03bc 24F81010 		strh	r1, [r4, r0, lsl #1]	@ movhi
 2042              	.L139:
 365:..\..\..\arduinoLCD\test\Pain Drain\libraries\lvgl\src\draw\sw/lv_draw_sw_blend.c ****                 }
 2043              		.loc 1 365 0 discriminator 2
 2044 03c0 0133     		adds	r3, r3, #1
 2045              	.LVL356:
 353:..\..\..\arduinoLCD\test\Pain Drain\libraries\lvgl\src\draw\sw/lv_draw_sw_blend.c ****                     if(*mask) {
 2046              		.loc 1 353 0 discriminator 2
 2047 03c2 0130     		adds	r0, r0, #1
 2048              	.LVL357:
 2049 03c4 00E0     		b	.L146
 2050              	.LVL358:
 2051              	.L151:
 2052 03c6 0020     		movs	r0, #0
 2053              	.L146:
 2054              	.LVL359:
 353:..\..\..\arduinoLCD\test\Pain Drain\libraries\lvgl\src\draw\sw/lv_draw_sw_blend.c ****                     if(*mask) {
 2055              		.loc 1 353 0 is_stmt 0 discriminator 1
 2056 03c8 9042     		cmp	r0, r2
 2057 03ca C2DB     		blt	.L145
 367:..\..\..\arduinoLCD\test\Pain Drain\libraries\lvgl\src\draw\sw/lv_draw_sw_blend.c ****                 mask += (mask_stride - w);
 2058              		.loc 1 367 0 is_stmt 1 discriminator 2
 2059 03cc 0198     		ldr	r0, [sp, #4]
 2060              	.LVL360:
 2061 03ce 04EB4004 		add	r4, r4, r0, lsl #1
 2062              	.LVL361:
 368:..\..\..\arduinoLCD\test\Pain Drain\libraries\lvgl\src\draw\sw/lv_draw_sw_blend.c ****             }
 2063              		.loc 1 368 0 discriminator 2
 2064 03d2 C2EB0A00 		rsb	r0, r2, r10
 2065 03d6 0344     		add	r3, r3, r0
 2066              	.LVL362:
 352:..\..\..\arduinoLCD\test\Pain Drain\libraries\lvgl\src\draw\sw/lv_draw_sw_blend.c ****                 for(x = 0; x < w; x++) {
 2067              		.loc 1 352 0 discriminator 2
 2068 03d8 09F10109 		add	r9, r9, #1
 2069              	.LVL363:
 2070              	.L138:
 352:..\..\..\arduinoLCD\test\Pain Drain\libraries\lvgl\src\draw\sw/lv_draw_sw_blend.c ****                 for(x = 0; x < w; x++) {
 2071              		.loc 1 352 0 is_stmt 0 discriminator 1
 2072 03dc D945     		cmp	r9, fp
 2073 03de F2DB     		blt	.L151
 2074              	.LVL364:
 2075              	.L103:
 2076              	.LBE154:
 2077              	.LBE137:
 372:..\..\..\arduinoLCD\test\Pain Drain\libraries\lvgl\src\draw\sw/lv_draw_sw_blend.c **** 
 2078              		.loc 1 372 0 is_stmt 1
 2079 03e0 03B0     		add	sp, sp, #12
 2080              		.cfi_def_cfa_offset 36
 2081              		@ sp needed
 2082 03e2 BDE8F08F 		pop	{r4, r5, r6, r7, r8, r9, r10, fp, pc}
 2083              	.LVL365:
 2084              	.L158:
 2085 03e6 00BF     		.align	2
 2086              	.L157:
 2087 03e8 1FF8E007 		.word	132184095
 2088              		.cfi_endproc
ARM GAS  C:\Users\haske\AppData\Local\Temp\cc7ZkKza.s 			page 71


 2089              	.LFE162:
 2090              		.size	fill_normal, .-fill_normal
 2091              		.section	.text.map_normal,"ax",%progbits
 2092              		.align	2
 2093              		.thumb
 2094              		.thumb_func
 2095              		.type	map_normal, %function
 2096              	map_normal:
 2097              	.LFB165:
 639:..\..\..\arduinoLCD\test\Pain Drain\libraries\lvgl\src\draw\sw/lv_draw_sw_blend.c ****     int32_t w = lv_area_get_width(dest_area);
 2098              		.loc 1 639 0
 2099              		.cfi_startproc
 2100              		@ args = 16, pretend = 0, frame = 16
 2101              		@ frame_needed = 0, uses_anonymous_args = 0
 2102              	.LVL366:
 2103 0000 2DE9F04F 		push	{r4, r5, r6, r7, r8, r9, r10, fp, lr}
 2104              		.cfi_def_cfa_offset 36
 2105              		.cfi_offset 4, -36
 2106              		.cfi_offset 5, -32
 2107              		.cfi_offset 6, -28
 2108              		.cfi_offset 7, -24
 2109              		.cfi_offset 8, -20
 2110              		.cfi_offset 9, -16
 2111              		.cfi_offset 10, -12
 2112              		.cfi_offset 11, -8
 2113              		.cfi_offset 14, -4
 2114 0004 85B0     		sub	sp, sp, #20
 2115              		.cfi_def_cfa_offset 56
 2116 0006 0546     		mov	r5, r0
 2117 0008 0192     		str	r2, [sp, #4]
 2118 000a 1E46     		mov	r6, r3
 2119 000c BDF93830 		ldrsh	r3, [sp, #56]
 2120              	.LVL367:
 2121 0010 0293     		str	r3, [sp, #8]
 2122 0012 9DF83CA0 		ldrb	r10, [sp, #60]	@ zero_extendqisi2
 2123 0016 DDF84080 		ldr	r8, [sp, #64]
 2124 001a BDF94430 		ldrsh	r3, [sp, #68]
 2125 001e 0393     		str	r3, [sp, #12]
 2126              	.LVL368:
 2127              	.LBB157:
 2128              	.LBB158:
 125:c:\projects\paindrain\arduinolcd\test\pain drain\libraries\lvgl\src\misc\lv_area.h **** }
 2129              		.loc 2 125 0
 2130 0020 B1F90430 		ldrsh	r3, [r1, #4]
 2131 0024 B1F90090 		ldrsh	r9, [r1]
 2132 0028 C9EB0309 		rsb	r9, r9, r3
 2133 002c 09F10109 		add	r9, r9, #1
 2134 0030 0FFA89F9 		sxth	r9, r9
 2135              	.LVL369:
 2136              	.LBE158:
 2137              	.LBE157:
 640:..\..\..\arduinoLCD\test\Pain Drain\libraries\lvgl\src\draw\sw/lv_draw_sw_blend.c ****     int32_t h = lv_area_get_height(dest_area);
 2138              		.loc 1 640 0
 2139 0034 CC46     		mov	ip, r9
 2140              	.LVL370:
 2141              	.LBB159:
 2142              	.LBB160:
ARM GAS  C:\Users\haske\AppData\Local\Temp\cc7ZkKza.s 			page 72


 2143              		.loc 2 135 0
 2144 0036 B1F90630 		ldrsh	r3, [r1, #6]
 2145 003a B1F90270 		ldrsh	r7, [r1, #2]
 2146 003e DF1B     		subs	r7, r3, r7
 2147 0040 0137     		adds	r7, r7, #1
 2148 0042 3FB2     		sxth	r7, r7
 2149              	.LVL371:
 2150              	.LBE160:
 2151              	.LBE159:
 647:..\..\..\arduinoLCD\test\Pain Drain\libraries\lvgl\src\draw\sw/lv_draw_sw_blend.c ****         if(opa >= LV_OPA_MAX) {
 2152              		.loc 1 647 0
 2153 0044 B8F1000F 		cmp	r8, #0
 2154 0048 41D1     		bne	.L160
 648:..\..\..\arduinoLCD\test\Pain Drain\libraries\lvgl\src\draw\sw/lv_draw_sw_blend.c ****             for(y = 0; y < h; y++) {
 2155              		.loc 1 648 0
 2156 004a BAF1FC0F 		cmp	r10, #252
 2157 004e 10D8     		bhi	.L192
 2158 0050 0020     		movs	r0, #0
 2159              	.LVL372:
 2160 0052 9646     		mov	lr, r2
 2161 0054 DDF80880 		ldr	r8, [sp, #8]
 2162 0058 36E0     		b	.L162
 2163              	.LVL373:
 2164              	.L163:
 650:..\..\..\arduinoLCD\test\Pain Drain\libraries\lvgl\src\draw\sw/lv_draw_sw_blend.c ****                 dest_buf += dest_stride;
 2165              		.loc 1 650 0 discriminator 3
 2166 005a 4FEA4902 		lsl	r2, r9, #1
 2167 005e 3146     		mov	r1, r6
 2168 0060 2846     		mov	r0, r5
 2169 0062 FFF7FEFF 		bl	lv_memcpy
 2170              	.LVL374:
 651:..\..\..\arduinoLCD\test\Pain Drain\libraries\lvgl\src\draw\sw/lv_draw_sw_blend.c ****                 src_buf += src_stride;
 2171              		.loc 1 651 0 discriminator 3
 2172 0066 05EB4805 		add	r5, r5, r8, lsl #1
 2173              	.LVL375:
 652:..\..\..\arduinoLCD\test\Pain Drain\libraries\lvgl\src\draw\sw/lv_draw_sw_blend.c ****             }
 2174              		.loc 1 652 0 discriminator 3
 2175 006a 06EB4A06 		add	r6, r6, r10, lsl #1
 2176              	.LVL376:
 649:..\..\..\arduinoLCD\test\Pain Drain\libraries\lvgl\src\draw\sw/lv_draw_sw_blend.c ****                 lv_memcpy(dest_buf, src_buf, w * sizeof(lv_color_t));
 2177              		.loc 1 649 0 discriminator 3
 2178 006e 0134     		adds	r4, r4, #1
 2179              	.LVL377:
 2180 0070 04E0     		b	.L161
 2181              	.LVL378:
 2182              	.L192:
 2183 0072 0024     		movs	r4, #0
 2184 0074 DDF80480 		ldr	r8, [sp, #4]
 2185 0078 DDF808A0 		ldr	r10, [sp, #8]
 2186              	.LVL379:
 2187              	.L161:
 649:..\..\..\arduinoLCD\test\Pain Drain\libraries\lvgl\src\draw\sw/lv_draw_sw_blend.c ****                 lv_memcpy(dest_buf, src_buf, w * sizeof(lv_color_t));
 2188              		.loc 1 649 0 is_stmt 0 discriminator 1
 2189 007c BC42     		cmp	r4, r7
 2190 007e ECDB     		blt	.L163
 2191 0080 8CE1     		b	.L159
 2192              	.LVL380:
ARM GAS  C:\Users\haske\AppData\Local\Temp\cc7ZkKza.s 			page 73


 2193              	.L165:
 2194              	.LBB161:
 2195              	.LBB162:
 445:c:\projects\paindrain\arduinolcd\test\pain drain\libraries\lvgl\src\misc\lv_color.h ****     uint32_t bg = (uint32_t)((uint32_t)c2.full | ((uint32_t)c2.full << 16)) &
 2196              		.loc 3 445 0 is_stmt 1 discriminator 3
 2197 0082 0AF10409 		add	r9, r10, #4
 2198              	.LVL381:
 446:c:\projects\paindrain\arduinolcd\test\pain drain\libraries\lvgl\src\misc\lv_color.h ****                   0x7E0F81F; /*0b00000111111000001111100000011111*/
 2199              		.loc 3 446 0 discriminator 3
 2200 0086 35F81410 		ldrh	r1, [r5, r4, lsl #1]
 2201 008a 41EA0141 		orr	r1, r1, r1, lsl #16
 2202 008e C54B     		ldr	r3, .L200
 2203 0090 1940     		ands	r1, r1, r3
 2204              	.LVL382:
 448:c:\projects\paindrain\arduinolcd\test\pain drain\libraries\lvgl\src\misc\lv_color.h ****     uint32_t result = ((((fg - bg) * mix) >> 5) + bg) & 0x7E0F81F;
 2205              		.loc 3 448 0 discriminator 3
 2206 0092 36F81420 		ldrh	r2, [r6, r4, lsl #1]
 2207 0096 42EA0242 		orr	r2, r2, r2, lsl #16
 2208 009a 1A40     		ands	r2, r2, r3
 2209              	.LVL383:
 449:c:\projects\paindrain\arduinolcd\test\pain drain\libraries\lvgl\src\misc\lv_color.h ****     ret.full = (uint16_t)((result >> 16) | result);
 2210              		.loc 3 449 0 discriminator 3
 2211 009c 521A     		subs	r2, r2, r1
 2212              	.LVL384:
 2213 009e C9F3C709 		ubfx	r9, r9, #3, #8
 2214 00a2 02FB09F2 		mul	r2, r2, r9
 2215 00a6 01EB5211 		add	r1, r1, r2, lsr #5
 2216              	.LVL385:
 2217 00aa 0B40     		ands	r3, r3, r1
 2218              	.LVL386:
 450:c:\projects\paindrain\arduinolcd\test\pain drain\libraries\lvgl\src\misc\lv_color.h **** #elif LV_COLOR_DEPTH != 1
 2219              		.loc 3 450 0 discriminator 3
 2220 00ac 43EA1343 		orr	r3, r3, r3, lsr #16
 2221              	.LVL387:
 2222              	.LBE162:
 2223              	.LBE161:
 658:..\..\..\arduinoLCD\test\Pain Drain\libraries\lvgl\src\draw\sw/lv_draw_sw_blend.c ****                 }
 2224              		.loc 1 658 0 discriminator 3
 2225 00b0 25F81430 		strh	r3, [r5, r4, lsl #1]	@ movhi
 657:..\..\..\arduinoLCD\test\Pain Drain\libraries\lvgl\src\draw\sw/lv_draw_sw_blend.c ****                     dest_buf[x] = lv_color_mix(src_buf[x], dest_buf[x], opa);
 2226              		.loc 1 657 0 discriminator 3
 2227 00b4 0134     		adds	r4, r4, #1
 2228              	.LVL388:
 2229 00b6 00E0     		b	.L166
 2230              	.LVL389:
 2231              	.L193:
 2232 00b8 0024     		movs	r4, #0
 2233              	.L166:
 2234              	.LVL390:
 657:..\..\..\arduinoLCD\test\Pain Drain\libraries\lvgl\src\draw\sw/lv_draw_sw_blend.c ****                     dest_buf[x] = lv_color_mix(src_buf[x], dest_buf[x], opa);
 2235              		.loc 1 657 0 is_stmt 0 discriminator 1
 2236 00ba 6445     		cmp	r4, ip
 2237 00bc E1DB     		blt	.L165
 660:..\..\..\arduinoLCD\test\Pain Drain\libraries\lvgl\src\draw\sw/lv_draw_sw_blend.c ****                 src_buf += src_stride;
 2238              		.loc 1 660 0 is_stmt 1 discriminator 2
 2239 00be 05EB4E05 		add	r5, r5, lr, lsl #1
 2240              	.LVL391:
ARM GAS  C:\Users\haske\AppData\Local\Temp\cc7ZkKza.s 			page 74


 661:..\..\..\arduinoLCD\test\Pain Drain\libraries\lvgl\src\draw\sw/lv_draw_sw_blend.c ****             }
 2241              		.loc 1 661 0 discriminator 2
 2242 00c2 06EB4806 		add	r6, r6, r8, lsl #1
 2243              	.LVL392:
 656:..\..\..\arduinoLCD\test\Pain Drain\libraries\lvgl\src\draw\sw/lv_draw_sw_blend.c ****                 for(x = 0; x < w; x++) {
 2244              		.loc 1 656 0 discriminator 2
 2245 00c6 0130     		adds	r0, r0, #1
 2246              	.LVL393:
 2247              	.L162:
 656:..\..\..\arduinoLCD\test\Pain Drain\libraries\lvgl\src\draw\sw/lv_draw_sw_blend.c ****                 for(x = 0; x < w; x++) {
 2248              		.loc 1 656 0 is_stmt 0 discriminator 1
 2249 00c8 B842     		cmp	r0, r7
 2250 00ca F5DB     		blt	.L193
 2251 00cc 66E1     		b	.L159
 2252              	.LVL394:
 2253              	.L160:
 668:..\..\..\arduinoLCD\test\Pain Drain\libraries\lvgl\src\draw\sw/lv_draw_sw_blend.c ****             int32_t x_end4 = w - 4;
 2254              		.loc 1 668 0 is_stmt 1
 2255 00ce BAF1FD0F 		cmp	r10, #253
 2256 00d2 40F25D81 		bls	.L194
 2257              	.LBB163:
 669:..\..\..\arduinoLCD\test\Pain Drain\libraries\lvgl\src\draw\sw/lv_draw_sw_blend.c **** 
 2258              		.loc 1 669 0
 2259 00d6 A9F10409 		sub	r9, r9, #4
 2260              	.LVL395:
 671:..\..\..\arduinoLCD\test\Pain Drain\libraries\lvgl\src\draw\sw/lv_draw_sw_blend.c ****                 const lv_opa_t * mask_tmp_x = mask;
 2261              		.loc 1 671 0
 2262 00da 4FF0000B 		mov	fp, #0
 2263 00de 1DE1     		b	.L168
 2264              	.LVL396:
 2265              	.L172:
 2266              	.LBB164:
 679:..\..\..\arduinoLCD\test\Pain Drain\libraries\lvgl\src\draw\sw/lv_draw_sw_blend.c ****                 }
 2267              		.loc 1 679 0
 2268 00e0 1178     		ldrb	r1, [r2]	@ zero_extendqisi2
 2269 00e2 F1B1     		cbz	r1, .L169
 679:..\..\..\arduinoLCD\test\Pain Drain\libraries\lvgl\src\draw\sw/lv_draw_sw_blend.c ****                 }
 2270              		.loc 1 679 0 is_stmt 0 discriminator 1
 2271 00e4 FF29     		cmp	r1, #255
 2272 00e6 04D1     		bne	.L170
 679:..\..\..\arduinoLCD\test\Pain Drain\libraries\lvgl\src\draw\sw/lv_draw_sw_blend.c ****                 }
 2273              		.loc 1 679 0 discriminator 3
 2274 00e8 36F81310 		ldrh	r1, [r6, r3, lsl #1]
 2275 00ec 2EF81310 		strh	r1, [lr, r3, lsl #1]	@ movhi
 2276 00f0 17E0     		b	.L169
 2277              	.L170:
 2278              	.LVL397:
 2279              	.LBB165:
 2280              	.LBB166:
 445:c:\projects\paindrain\arduinolcd\test\pain drain\libraries\lvgl\src\misc\lv_color.h ****     uint32_t bg = (uint32_t)((uint32_t)c2.full | ((uint32_t)c2.full << 16)) &
 2281              		.loc 3 445 0 is_stmt 1 discriminator 4
 2282 00f2 0431     		adds	r1, r1, #4
 2283              	.LVL398:
 446:c:\projects\paindrain\arduinolcd\test\pain drain\libraries\lvgl\src\misc\lv_color.h ****                   0x7E0F81F; /*0b00000111111000001111100000011111*/
 2284              		.loc 3 446 0 discriminator 4
 2285 00f4 3EF81340 		ldrh	r4, [lr, r3, lsl #1]
 2286 00f8 44EA0444 		orr	r4, r4, r4, lsl #16
ARM GAS  C:\Users\haske\AppData\Local\Temp\cc7ZkKza.s 			page 75


 2287 00fc A94D     		ldr	r5, .L200
 2288 00fe 2C40     		ands	r4, r4, r5
 2289              	.LVL399:
 448:c:\projects\paindrain\arduinolcd\test\pain drain\libraries\lvgl\src\misc\lv_color.h ****     uint32_t result = ((((fg - bg) * mix) >> 5) + bg) & 0x7E0F81F;
 2290              		.loc 3 448 0 discriminator 4
 2291 0100 36F81300 		ldrh	r0, [r6, r3, lsl #1]
 2292 0104 40EA0040 		orr	r0, r0, r0, lsl #16
 2293 0108 2840     		ands	r0, r0, r5
 2294              	.LVL400:
 449:c:\projects\paindrain\arduinolcd\test\pain drain\libraries\lvgl\src\misc\lv_color.h ****     ret.full = (uint16_t)((result >> 16) | result);
 2295              		.loc 3 449 0 discriminator 4
 2296 010a 001B     		subs	r0, r0, r4
 2297              	.LVL401:
 2298 010c C1F3C701 		ubfx	r1, r1, #3, #8
 2299              	.LVL402:
 2300 0110 00FB01F1 		mul	r1, r0, r1
 2301 0114 04EB5111 		add	r1, r4, r1, lsr #5
 2302 0118 0D40     		ands	r5, r5, r1
 2303              	.LVL403:
 450:c:\projects\paindrain\arduinolcd\test\pain drain\libraries\lvgl\src\misc\lv_color.h **** #elif LV_COLOR_DEPTH != 1
 2304              		.loc 3 450 0 discriminator 4
 2305 011a 45EA1545 		orr	r5, r5, r5, lsr #16
 2306              	.LVL404:
 2307              	.LBE166:
 2308              	.LBE165:
 679:..\..\..\arduinoLCD\test\Pain Drain\libraries\lvgl\src\draw\sw/lv_draw_sw_blend.c ****                 }
 2309              		.loc 1 679 0 discriminator 4
 2310 011e 2EF81350 		strh	r5, [lr, r3, lsl #1]	@ movhi
 2311              	.L169:
 679:..\..\..\arduinoLCD\test\Pain Drain\libraries\lvgl\src\draw\sw/lv_draw_sw_blend.c ****                 }
 2312              		.loc 1 679 0 is_stmt 0 discriminator 6
 2313 0122 0132     		adds	r2, r2, #1
 2314              	.LVL405:
 678:..\..\..\arduinoLCD\test\Pain Drain\libraries\lvgl\src\draw\sw/lv_draw_sw_blend.c ****                     MAP_NORMAL_MASK_PX(x)
 2315              		.loc 1 678 0 is_stmt 1 discriminator 6
 2316 0124 0133     		adds	r3, r3, #1
 2317              	.LVL406:
 2318 0126 02E0     		b	.L187
 2319              	.LVL407:
 2320              	.L195:
 2321              	.LBE164:
 2322 0128 4246     		mov	r2, r8
 2323 012a 0023     		movs	r3, #0
 2324 012c AE46     		mov	lr, r5
 2325              	.LVL408:
 2326              	.L187:
 2327              	.LBB177:
 678:..\..\..\arduinoLCD\test\Pain Drain\libraries\lvgl\src\draw\sw/lv_draw_sw_blend.c ****                     MAP_NORMAL_MASK_PX(x)
 2328              		.loc 1 678 0 is_stmt 0 discriminator 2
 2329 012e 6345     		cmp	r3, ip
 2330 0130 80F2BD80 		bge	.L198
 678:..\..\..\arduinoLCD\test\Pain Drain\libraries\lvgl\src\draw\sw/lv_draw_sw_blend.c ****                     MAP_NORMAL_MASK_PX(x)
 2331              		.loc 1 678 0 discriminator 3
 2332 0134 12F0030F 		tst	r2, #3
 2333 0138 D2D1     		bne	.L172
 2334 013a 7546     		mov	r5, lr
 2335 013c B8E0     		b	.L171
ARM GAS  C:\Users\haske\AppData\Local\Temp\cc7ZkKza.s 			page 76


 2336              	.LVL409:
 2337              	.L182:
 684:..\..\..\arduinoLCD\test\Pain Drain\libraries\lvgl\src\draw\sw/lv_draw_sw_blend.c ****                         if((*mask32) == 0xFFFFFFFF) {
 2338              		.loc 1 684 0 is_stmt 1
 2339 013e 1168     		ldr	r1, [r2]
 2340 0140 0029     		cmp	r1, #0
 2341 0142 00F0B180 		beq	.L173
 685:..\..\..\arduinoLCD\test\Pain Drain\libraries\lvgl\src\draw\sw/lv_draw_sw_blend.c ****                             dest_buf[x] = src_buf[x];
 2342              		.loc 1 685 0
 2343 0146 B1F1FF3F 		cmp	r1, #-1
 2344 014a 13D1     		bne	.L174
 686:..\..\..\arduinoLCD\test\Pain Drain\libraries\lvgl\src\draw\sw/lv_draw_sw_blend.c ****                             dest_buf[x + 1] = src_buf[x + 1];
 2345              		.loc 1 686 0
 2346 014c 36F81310 		ldrh	r1, [r6, r3, lsl #1]
 2347 0150 25F81310 		strh	r1, [r5, r3, lsl #1]	@ movhi
 687:..\..\..\arduinoLCD\test\Pain Drain\libraries\lvgl\src\draw\sw/lv_draw_sw_blend.c ****                             dest_buf[x + 2] = src_buf[x + 2];
 2348              		.loc 1 687 0
 2349 0154 591C     		adds	r1, r3, #1
 2350 0156 36F81100 		ldrh	r0, [r6, r1, lsl #1]
 2351 015a 25F81100 		strh	r0, [r5, r1, lsl #1]	@ movhi
 688:..\..\..\arduinoLCD\test\Pain Drain\libraries\lvgl\src\draw\sw/lv_draw_sw_blend.c ****                             dest_buf[x + 3] = src_buf[x + 3];
 2352              		.loc 1 688 0
 2353 015e 991C     		adds	r1, r3, #2
 2354 0160 36F81100 		ldrh	r0, [r6, r1, lsl #1]
 2355 0164 25F81100 		strh	r0, [r5, r1, lsl #1]	@ movhi
 689:..\..\..\arduinoLCD\test\Pain Drain\libraries\lvgl\src\draw\sw/lv_draw_sw_blend.c ****                         }
 2356              		.loc 1 689 0
 2357 0168 D91C     		adds	r1, r3, #3
 2358 016a 36F81100 		ldrh	r0, [r6, r1, lsl #1]
 2359 016e 25F81100 		strh	r0, [r5, r1, lsl #1]	@ movhi
 2360 0172 99E0     		b	.L173
 2361              	.L174:
 2362              	.LVL410:
 693:..\..\..\arduinoLCD\test\Pain Drain\libraries\lvgl\src\draw\sw/lv_draw_sw_blend.c ****                             MAP_NORMAL_MASK_PX(x + 1)
 2363              		.loc 1 693 0
 2364 0174 1178     		ldrb	r1, [r2]	@ zero_extendqisi2
 2365 0176 11B3     		cbz	r1, .L175
 693:..\..\..\arduinoLCD\test\Pain Drain\libraries\lvgl\src\draw\sw/lv_draw_sw_blend.c ****                             MAP_NORMAL_MASK_PX(x + 1)
 2366              		.loc 1 693 0 is_stmt 0 discriminator 1
 2367 0178 FF29     		cmp	r1, #255
 2368 017a 04D1     		bne	.L176
 693:..\..\..\arduinoLCD\test\Pain Drain\libraries\lvgl\src\draw\sw/lv_draw_sw_blend.c ****                             MAP_NORMAL_MASK_PX(x + 1)
 2369              		.loc 1 693 0 discriminator 3
 2370 017c 36F81310 		ldrh	r1, [r6, r3, lsl #1]
 2371 0180 25F81310 		strh	r1, [r5, r3, lsl #1]	@ movhi
 2372 0184 1BE0     		b	.L175
 2373              	.L176:
 2374              	.LVL411:
 2375              	.LBB167:
 2376              	.LBB168:
 445:c:\projects\paindrain\arduinolcd\test\pain drain\libraries\lvgl\src\misc\lv_color.h ****     uint32_t bg = (uint32_t)((uint32_t)c2.full | ((uint32_t)c2.full << 16)) &
 2377              		.loc 3 445 0 is_stmt 1 discriminator 4
 2378 0186 0431     		adds	r1, r1, #4
 2379              	.LVL412:
 446:c:\projects\paindrain\arduinolcd\test\pain drain\libraries\lvgl\src\misc\lv_color.h ****                   0x7E0F81F; /*0b00000111111000001111100000011111*/
 2380              		.loc 3 446 0 discriminator 4
 2381 0188 35F81340 		ldrh	r4, [r5, r3, lsl #1]
ARM GAS  C:\Users\haske\AppData\Local\Temp\cc7ZkKza.s 			page 77


 2382 018c 44EA0444 		orr	r4, r4, r4, lsl #16
 2383 0190 DFF810E2 		ldr	lr, .L200
 2384 0194 04EA0E04 		and	r4, r4, lr
 2385              	.LVL413:
 448:c:\projects\paindrain\arduinolcd\test\pain drain\libraries\lvgl\src\misc\lv_color.h ****     uint32_t result = ((((fg - bg) * mix) >> 5) + bg) & 0x7E0F81F;
 2386              		.loc 3 448 0 discriminator 4
 2387 0198 36F81300 		ldrh	r0, [r6, r3, lsl #1]
 2388 019c 40EA0040 		orr	r0, r0, r0, lsl #16
 2389 01a0 00EA0E00 		and	r0, r0, lr
 2390              	.LVL414:
 449:c:\projects\paindrain\arduinolcd\test\pain drain\libraries\lvgl\src\misc\lv_color.h ****     ret.full = (uint16_t)((result >> 16) | result);
 2391              		.loc 3 449 0 discriminator 4
 2392 01a4 001B     		subs	r0, r0, r4
 2393              	.LVL415:
 2394 01a6 C1F3C701 		ubfx	r1, r1, #3, #8
 2395              	.LVL416:
 2396 01aa 00FB01F1 		mul	r1, r0, r1
 2397 01ae 04EB5111 		add	r1, r4, r1, lsr #5
 2398 01b2 01EA0E0E 		and	lr, r1, lr
 2399              	.LVL417:
 450:c:\projects\paindrain\arduinolcd\test\pain drain\libraries\lvgl\src\misc\lv_color.h **** #elif LV_COLOR_DEPTH != 1
 2400              		.loc 3 450 0 discriminator 4
 2401 01b6 4EEA1E4E 		orr	lr, lr, lr, lsr #16
 2402              	.LVL418:
 2403              	.LBE168:
 2404              	.LBE167:
 693:..\..\..\arduinoLCD\test\Pain Drain\libraries\lvgl\src\draw\sw/lv_draw_sw_blend.c ****                             MAP_NORMAL_MASK_PX(x + 1)
 2405              		.loc 1 693 0 discriminator 4
 2406 01ba 25F813E0 		strh	lr, [r5, r3, lsl #1]	@ movhi
 2407              	.L175:
 2408              	.LVL419:
 694:..\..\..\arduinoLCD\test\Pain Drain\libraries\lvgl\src\draw\sw/lv_draw_sw_blend.c ****                             MAP_NORMAL_MASK_PX(x + 2)
 2409              		.loc 1 694 0 discriminator 6
 2410 01be 5178     		ldrb	r1, [r2, #1]	@ zero_extendqisi2
 2411 01c0 21B3     		cbz	r1, .L177
 694:..\..\..\arduinoLCD\test\Pain Drain\libraries\lvgl\src\draw\sw/lv_draw_sw_blend.c ****                             MAP_NORMAL_MASK_PX(x + 2)
 2412              		.loc 1 694 0 is_stmt 0 discriminator 1
 2413 01c2 FF29     		cmp	r1, #255
 2414 01c4 05D1     		bne	.L178
 694:..\..\..\arduinoLCD\test\Pain Drain\libraries\lvgl\src\draw\sw/lv_draw_sw_blend.c ****                             MAP_NORMAL_MASK_PX(x + 2)
 2415              		.loc 1 694 0 discriminator 3
 2416 01c6 591C     		adds	r1, r3, #1
 2417 01c8 36F81100 		ldrh	r0, [r6, r1, lsl #1]
 2418 01cc 25F81100 		strh	r0, [r5, r1, lsl #1]	@ movhi
 2419 01d0 1CE0     		b	.L177
 2420              	.L178:
 694:..\..\..\arduinoLCD\test\Pain Drain\libraries\lvgl\src\draw\sw/lv_draw_sw_blend.c ****                             MAP_NORMAL_MASK_PX(x + 2)
 2421              		.loc 1 694 0 discriminator 4
 2422 01d2 03F1010E 		add	lr, r3, #1
 2423              	.LVL420:
 2424              	.LBB169:
 2425              	.LBB170:
 445:c:\projects\paindrain\arduinolcd\test\pain drain\libraries\lvgl\src\misc\lv_color.h ****     uint32_t bg = (uint32_t)((uint32_t)c2.full | ((uint32_t)c2.full << 16)) &
 2426              		.loc 3 445 0 is_stmt 1 discriminator 4
 2427 01d6 081D     		adds	r0, r1, #4
 2428              	.LVL421:
 446:c:\projects\paindrain\arduinolcd\test\pain drain\libraries\lvgl\src\misc\lv_color.h ****                   0x7E0F81F; /*0b00000111111000001111100000011111*/
ARM GAS  C:\Users\haske\AppData\Local\Temp\cc7ZkKza.s 			page 78


 2429              		.loc 3 446 0 discriminator 4
 2430 01d8 35F81EA0 		ldrh	r10, [r5, lr, lsl #1]
 2431 01dc 4AEA0A4A 		orr	r10, r10, r10, lsl #16
 2432 01e0 7049     		ldr	r1, .L200
 2433 01e2 0AEA010A 		and	r10, r10, r1
 2434              	.LVL422:
 448:c:\projects\paindrain\arduinolcd\test\pain drain\libraries\lvgl\src\misc\lv_color.h ****     uint32_t result = ((((fg - bg) * mix) >> 5) + bg) & 0x7E0F81F;
 2435              		.loc 3 448 0 discriminator 4
 2436 01e6 36F81E40 		ldrh	r4, [r6, lr, lsl #1]
 2437 01ea 44EA0444 		orr	r4, r4, r4, lsl #16
 2438 01ee 0C40     		ands	r4, r4, r1
 2439              	.LVL423:
 449:c:\projects\paindrain\arduinolcd\test\pain drain\libraries\lvgl\src\misc\lv_color.h ****     ret.full = (uint16_t)((result >> 16) | result);
 2440              		.loc 3 449 0 discriminator 4
 2441 01f0 CAEB0404 		rsb	r4, r10, r4
 2442              	.LVL424:
 2443 01f4 C0F3C700 		ubfx	r0, r0, #3, #8
 2444              	.LVL425:
 2445 01f8 04FB00F4 		mul	r4, r4, r0
 2446 01fc 0AEB541A 		add	r10, r10, r4, lsr #5
 2447              	.LVL426:
 2448 0200 0AEA0101 		and	r1, r10, r1
 2449              	.LVL427:
 450:c:\projects\paindrain\arduinolcd\test\pain drain\libraries\lvgl\src\misc\lv_color.h **** #elif LV_COLOR_DEPTH != 1
 2450              		.loc 3 450 0 discriminator 4
 2451 0204 41EA1141 		orr	r1, r1, r1, lsr #16
 2452              	.LVL428:
 2453              	.LBE170:
 2454              	.LBE169:
 694:..\..\..\arduinoLCD\test\Pain Drain\libraries\lvgl\src\draw\sw/lv_draw_sw_blend.c ****                             MAP_NORMAL_MASK_PX(x + 2)
 2455              		.loc 1 694 0 discriminator 4
 2456 0208 25F81E10 		strh	r1, [r5, lr, lsl #1]	@ movhi
 2457              	.L177:
 2458              	.LVL429:
 695:..\..\..\arduinoLCD\test\Pain Drain\libraries\lvgl\src\draw\sw/lv_draw_sw_blend.c ****                             MAP_NORMAL_MASK_PX(x + 3)
 2459              		.loc 1 695 0 discriminator 6
 2460 020c 9178     		ldrb	r1, [r2, #2]	@ zero_extendqisi2
 2461 020e 21B3     		cbz	r1, .L179
 695:..\..\..\arduinoLCD\test\Pain Drain\libraries\lvgl\src\draw\sw/lv_draw_sw_blend.c ****                             MAP_NORMAL_MASK_PX(x + 3)
 2462              		.loc 1 695 0 is_stmt 0 discriminator 1
 2463 0210 FF29     		cmp	r1, #255
 2464 0212 05D1     		bne	.L180
 695:..\..\..\arduinoLCD\test\Pain Drain\libraries\lvgl\src\draw\sw/lv_draw_sw_blend.c ****                             MAP_NORMAL_MASK_PX(x + 3)
 2465              		.loc 1 695 0 discriminator 3
 2466 0214 991C     		adds	r1, r3, #2
 2467 0216 36F81100 		ldrh	r0, [r6, r1, lsl #1]
 2468 021a 25F81100 		strh	r0, [r5, r1, lsl #1]	@ movhi
 2469 021e 1CE0     		b	.L179
 2470              	.L180:
 695:..\..\..\arduinoLCD\test\Pain Drain\libraries\lvgl\src\draw\sw/lv_draw_sw_blend.c ****                             MAP_NORMAL_MASK_PX(x + 3)
 2471              		.loc 1 695 0 discriminator 4
 2472 0220 03F1020E 		add	lr, r3, #2
 2473              	.LVL430:
 2474              	.LBB171:
 2475              	.LBB172:
 445:c:\projects\paindrain\arduinolcd\test\pain drain\libraries\lvgl\src\misc\lv_color.h ****     uint32_t bg = (uint32_t)((uint32_t)c2.full | ((uint32_t)c2.full << 16)) &
 2476              		.loc 3 445 0 is_stmt 1 discriminator 4
ARM GAS  C:\Users\haske\AppData\Local\Temp\cc7ZkKza.s 			page 79


 2477 0224 081D     		adds	r0, r1, #4
 2478              	.LVL431:
 446:c:\projects\paindrain\arduinolcd\test\pain drain\libraries\lvgl\src\misc\lv_color.h ****                   0x7E0F81F; /*0b00000111111000001111100000011111*/
 2479              		.loc 3 446 0 discriminator 4
 2480 0226 35F81EA0 		ldrh	r10, [r5, lr, lsl #1]
 2481 022a 4AEA0A4A 		orr	r10, r10, r10, lsl #16
 2482 022e 5D49     		ldr	r1, .L200
 2483 0230 0AEA010A 		and	r10, r10, r1
 2484              	.LVL432:
 448:c:\projects\paindrain\arduinolcd\test\pain drain\libraries\lvgl\src\misc\lv_color.h ****     uint32_t result = ((((fg - bg) * mix) >> 5) + bg) & 0x7E0F81F;
 2485              		.loc 3 448 0 discriminator 4
 2486 0234 36F81E40 		ldrh	r4, [r6, lr, lsl #1]
 2487 0238 44EA0444 		orr	r4, r4, r4, lsl #16
 2488 023c 0C40     		ands	r4, r4, r1
 2489              	.LVL433:
 449:c:\projects\paindrain\arduinolcd\test\pain drain\libraries\lvgl\src\misc\lv_color.h ****     ret.full = (uint16_t)((result >> 16) | result);
 2490              		.loc 3 449 0 discriminator 4
 2491 023e CAEB0404 		rsb	r4, r10, r4
 2492              	.LVL434:
 2493 0242 C0F3C700 		ubfx	r0, r0, #3, #8
 2494              	.LVL435:
 2495 0246 04FB00F4 		mul	r4, r4, r0
 2496 024a 0AEB541A 		add	r10, r10, r4, lsr #5
 2497              	.LVL436:
 2498 024e 0AEA0101 		and	r1, r10, r1
 2499              	.LVL437:
 450:c:\projects\paindrain\arduinolcd\test\pain drain\libraries\lvgl\src\misc\lv_color.h **** #elif LV_COLOR_DEPTH != 1
 2500              		.loc 3 450 0 discriminator 4
 2501 0252 41EA1141 		orr	r1, r1, r1, lsr #16
 2502              	.LVL438:
 2503              	.LBE172:
 2504              	.LBE171:
 695:..\..\..\arduinoLCD\test\Pain Drain\libraries\lvgl\src\draw\sw/lv_draw_sw_blend.c ****                             MAP_NORMAL_MASK_PX(x + 3)
 2505              		.loc 1 695 0 discriminator 4
 2506 0256 25F81E10 		strh	r1, [r5, lr, lsl #1]	@ movhi
 2507              	.L179:
 2508              	.LVL439:
 696:..\..\..\arduinoLCD\test\Pain Drain\libraries\lvgl\src\draw\sw/lv_draw_sw_blend.c ****                         }
 2509              		.loc 1 696 0 discriminator 6
 2510 025a D178     		ldrb	r1, [r2, #3]	@ zero_extendqisi2
 2511 025c 21B3     		cbz	r1, .L173
 696:..\..\..\arduinoLCD\test\Pain Drain\libraries\lvgl\src\draw\sw/lv_draw_sw_blend.c ****                         }
 2512              		.loc 1 696 0 is_stmt 0 discriminator 1
 2513 025e FF29     		cmp	r1, #255
 2514 0260 05D1     		bne	.L181
 696:..\..\..\arduinoLCD\test\Pain Drain\libraries\lvgl\src\draw\sw/lv_draw_sw_blend.c ****                         }
 2515              		.loc 1 696 0 discriminator 3
 2516 0262 D91C     		adds	r1, r3, #3
 2517 0264 36F81100 		ldrh	r0, [r6, r1, lsl #1]
 2518 0268 25F81100 		strh	r0, [r5, r1, lsl #1]	@ movhi
 2519 026c 1CE0     		b	.L173
 2520              	.L181:
 696:..\..\..\arduinoLCD\test\Pain Drain\libraries\lvgl\src\draw\sw/lv_draw_sw_blend.c ****                         }
 2521              		.loc 1 696 0 discriminator 4
 2522 026e 03F1030E 		add	lr, r3, #3
 2523              	.LVL440:
 2524              	.LBB173:
ARM GAS  C:\Users\haske\AppData\Local\Temp\cc7ZkKza.s 			page 80


 2525              	.LBB174:
 445:c:\projects\paindrain\arduinolcd\test\pain drain\libraries\lvgl\src\misc\lv_color.h ****     uint32_t bg = (uint32_t)((uint32_t)c2.full | ((uint32_t)c2.full << 16)) &
 2526              		.loc 3 445 0 is_stmt 1 discriminator 4
 2527 0272 081D     		adds	r0, r1, #4
 2528              	.LVL441:
 446:c:\projects\paindrain\arduinolcd\test\pain drain\libraries\lvgl\src\misc\lv_color.h ****                   0x7E0F81F; /*0b00000111111000001111100000011111*/
 2529              		.loc 3 446 0 discriminator 4
 2530 0274 35F81EA0 		ldrh	r10, [r5, lr, lsl #1]
 2531 0278 4AEA0A4A 		orr	r10, r10, r10, lsl #16
 2532 027c 4949     		ldr	r1, .L200
 2533 027e 0AEA010A 		and	r10, r10, r1
 2534              	.LVL442:
 448:c:\projects\paindrain\arduinolcd\test\pain drain\libraries\lvgl\src\misc\lv_color.h ****     uint32_t result = ((((fg - bg) * mix) >> 5) + bg) & 0x7E0F81F;
 2535              		.loc 3 448 0 discriminator 4
 2536 0282 36F81E40 		ldrh	r4, [r6, lr, lsl #1]
 2537 0286 44EA0444 		orr	r4, r4, r4, lsl #16
 2538 028a 0C40     		ands	r4, r4, r1
 2539              	.LVL443:
 449:c:\projects\paindrain\arduinolcd\test\pain drain\libraries\lvgl\src\misc\lv_color.h ****     ret.full = (uint16_t)((result >> 16) | result);
 2540              		.loc 3 449 0 discriminator 4
 2541 028c CAEB0404 		rsb	r4, r10, r4
 2542              	.LVL444:
 2543 0290 C0F3C700 		ubfx	r0, r0, #3, #8
 2544              	.LVL445:
 2545 0294 04FB00F4 		mul	r4, r4, r0
 2546 0298 0AEB541A 		add	r10, r10, r4, lsr #5
 2547              	.LVL446:
 2548 029c 0AEA0101 		and	r1, r10, r1
 2549              	.LVL447:
 450:c:\projects\paindrain\arduinolcd\test\pain drain\libraries\lvgl\src\misc\lv_color.h **** #elif LV_COLOR_DEPTH != 1
 2550              		.loc 3 450 0 discriminator 4
 2551 02a0 41EA1141 		orr	r1, r1, r1, lsr #16
 2552              	.LVL448:
 2553              	.LBE174:
 2554              	.LBE173:
 696:..\..\..\arduinoLCD\test\Pain Drain\libraries\lvgl\src\draw\sw/lv_draw_sw_blend.c ****                         }
 2555              		.loc 1 696 0 discriminator 4
 2556 02a4 25F81E10 		strh	r1, [r5, lr, lsl #1]	@ movhi
 2557              	.LVL449:
 2558              	.L173:
 699:..\..\..\arduinoLCD\test\Pain Drain\libraries\lvgl\src\draw\sw/lv_draw_sw_blend.c ****                 }
 2559              		.loc 1 699 0
 2560 02a8 0432     		adds	r2, r2, #4
 2561              	.LVL450:
 683:..\..\..\arduinoLCD\test\Pain Drain\libraries\lvgl\src\draw\sw/lv_draw_sw_blend.c ****                     if(*mask32) {
 2562              		.loc 1 683 0
 2563 02aa 0433     		adds	r3, r3, #4
 2564              	.LVL451:
 2565 02ac 00E0     		b	.L171
 2566              	.LVL452:
 2567              	.L198:
 2568 02ae 7546     		mov	r5, lr
 2569              	.LVL453:
 2570              	.L171:
 683:..\..\..\arduinoLCD\test\Pain Drain\libraries\lvgl\src\draw\sw/lv_draw_sw_blend.c ****                     if(*mask32) {
 2571              		.loc 1 683 0 is_stmt 0 discriminator 1
 2572 02b0 4B45     		cmp	r3, r9
ARM GAS  C:\Users\haske\AppData\Local\Temp\cc7ZkKza.s 			page 81


 2573 02b2 FFF644AF 		blt	.L182
 2574 02b6 9646     		mov	lr, r2
 2575 02b8 24E0     		b	.L183
 2576              	.LVL454:
 2577              	.L186:
 704:..\..\..\arduinoLCD\test\Pain Drain\libraries\lvgl\src\draw\sw/lv_draw_sw_blend.c ****                 }
 2578              		.loc 1 704 0 is_stmt 1
 2579 02ba 9EF80010 		ldrb	r1, [lr]	@ zero_extendqisi2
 2580 02be F1B1     		cbz	r1, .L184
 704:..\..\..\arduinoLCD\test\Pain Drain\libraries\lvgl\src\draw\sw/lv_draw_sw_blend.c ****                 }
 2581              		.loc 1 704 0 is_stmt 0 discriminator 1
 2582 02c0 FF29     		cmp	r1, #255
 2583 02c2 04D1     		bne	.L185
 704:..\..\..\arduinoLCD\test\Pain Drain\libraries\lvgl\src\draw\sw/lv_draw_sw_blend.c ****                 }
 2584              		.loc 1 704 0 discriminator 3
 2585 02c4 36F81320 		ldrh	r2, [r6, r3, lsl #1]
 2586 02c8 25F81320 		strh	r2, [r5, r3, lsl #1]	@ movhi
 2587 02cc 17E0     		b	.L184
 2588              	.L185:
 2589              	.LVL455:
 2590              	.LBB175:
 2591              	.LBB176:
 445:c:\projects\paindrain\arduinolcd\test\pain drain\libraries\lvgl\src\misc\lv_color.h ****     uint32_t bg = (uint32_t)((uint32_t)c2.full | ((uint32_t)c2.full << 16)) &
 2592              		.loc 3 445 0 is_stmt 1 discriminator 4
 2593 02ce 0431     		adds	r1, r1, #4
 2594              	.LVL456:
 446:c:\projects\paindrain\arduinolcd\test\pain drain\libraries\lvgl\src\misc\lv_color.h ****                   0x7E0F81F; /*0b00000111111000001111100000011111*/
 2595              		.loc 3 446 0 discriminator 4
 2596 02d0 35F81340 		ldrh	r4, [r5, r3, lsl #1]
 2597 02d4 44EA0444 		orr	r4, r4, r4, lsl #16
 2598 02d8 324A     		ldr	r2, .L200
 2599 02da 1440     		ands	r4, r4, r2
 2600              	.LVL457:
 448:c:\projects\paindrain\arduinolcd\test\pain drain\libraries\lvgl\src\misc\lv_color.h ****     uint32_t result = ((((fg - bg) * mix) >> 5) + bg) & 0x7E0F81F;
 2601              		.loc 3 448 0 discriminator 4
 2602 02dc 36F81300 		ldrh	r0, [r6, r3, lsl #1]
 2603 02e0 40EA0040 		orr	r0, r0, r0, lsl #16
 2604 02e4 1040     		ands	r0, r0, r2
 2605              	.LVL458:
 449:c:\projects\paindrain\arduinolcd\test\pain drain\libraries\lvgl\src\misc\lv_color.h ****     ret.full = (uint16_t)((result >> 16) | result);
 2606              		.loc 3 449 0 discriminator 4
 2607 02e6 001B     		subs	r0, r0, r4
 2608              	.LVL459:
 2609 02e8 C1F3C701 		ubfx	r1, r1, #3, #8
 2610              	.LVL460:
 2611 02ec 00FB01F1 		mul	r1, r0, r1
 2612 02f0 04EB5111 		add	r1, r4, r1, lsr #5
 2613 02f4 0A40     		ands	r2, r2, r1
 2614              	.LVL461:
 450:c:\projects\paindrain\arduinolcd\test\pain drain\libraries\lvgl\src\misc\lv_color.h **** #elif LV_COLOR_DEPTH != 1
 2615              		.loc 3 450 0 discriminator 4
 2616 02f6 42EA1242 		orr	r2, r2, r2, lsr #16
 2617              	.LVL462:
 2618              	.LBE176:
 2619              	.LBE175:
 704:..\..\..\arduinoLCD\test\Pain Drain\libraries\lvgl\src\draw\sw/lv_draw_sw_blend.c ****                 }
 2620              		.loc 1 704 0 discriminator 4
ARM GAS  C:\Users\haske\AppData\Local\Temp\cc7ZkKza.s 			page 82


 2621 02fa 25F81320 		strh	r2, [r5, r3, lsl #1]	@ movhi
 2622              	.L184:
 704:..\..\..\arduinoLCD\test\Pain Drain\libraries\lvgl\src\draw\sw/lv_draw_sw_blend.c ****                 }
 2623              		.loc 1 704 0 is_stmt 0 discriminator 6
 2624 02fe 0EF1010E 		add	lr, lr, #1
 2625              	.LVL463:
 703:..\..\..\arduinoLCD\test\Pain Drain\libraries\lvgl\src\draw\sw/lv_draw_sw_blend.c ****                     MAP_NORMAL_MASK_PX(x)
 2626              		.loc 1 703 0 is_stmt 1 discriminator 6
 2627 0302 0133     		adds	r3, r3, #1
 2628              	.LVL464:
 2629              	.L183:
 703:..\..\..\arduinoLCD\test\Pain Drain\libraries\lvgl\src\draw\sw/lv_draw_sw_blend.c ****                     MAP_NORMAL_MASK_PX(x)
 2630              		.loc 1 703 0 is_stmt 0 discriminator 1
 2631 0304 6345     		cmp	r3, ip
 2632 0306 D8DB     		blt	.L186
 707:..\..\..\arduinoLCD\test\Pain Drain\libraries\lvgl\src\draw\sw/lv_draw_sw_blend.c ****                 src_buf += src_stride;
 2633              		.loc 1 707 0 is_stmt 1 discriminator 2
 2634 0308 019B     		ldr	r3, [sp, #4]
 2635              	.LVL465:
 2636 030a 05EB4305 		add	r5, r5, r3, lsl #1
 2637              	.LVL466:
 708:..\..\..\arduinoLCD\test\Pain Drain\libraries\lvgl\src\draw\sw/lv_draw_sw_blend.c ****                 mask += mask_stride;
 2638              		.loc 1 708 0 discriminator 2
 2639 030e 029B     		ldr	r3, [sp, #8]
 2640 0310 06EB4306 		add	r6, r6, r3, lsl #1
 2641              	.LVL467:
 709:..\..\..\arduinoLCD\test\Pain Drain\libraries\lvgl\src\draw\sw/lv_draw_sw_blend.c ****             }
 2642              		.loc 1 709 0 discriminator 2
 2643 0314 039B     		ldr	r3, [sp, #12]
 2644 0316 9844     		add	r8, r8, r3
 2645              	.LVL468:
 2646              	.LBE177:
 671:..\..\..\arduinoLCD\test\Pain Drain\libraries\lvgl\src\draw\sw/lv_draw_sw_blend.c ****                 const lv_opa_t * mask_tmp_x = mask;
 2647              		.loc 1 671 0 discriminator 2
 2648 0318 0BF1010B 		add	fp, fp, #1
 2649              	.LVL469:
 2650              	.L168:
 671:..\..\..\arduinoLCD\test\Pain Drain\libraries\lvgl\src\draw\sw/lv_draw_sw_blend.c ****                 const lv_opa_t * mask_tmp_x = mask;
 2651              		.loc 1 671 0 is_stmt 0 discriminator 1
 2652 031c BB45     		cmp	fp, r7
 2653 031e FFF603AF 		blt	.L195
 2654 0322 3BE0     		b	.L159
 2655              	.LVL470:
 2656              	.L190:
 2657              	.LBE163:
 716:..\..\..\arduinoLCD\test\Pain Drain\libraries\lvgl\src\draw\sw/lv_draw_sw_blend.c ****                         lv_opa_t opa_tmp = mask[x] >= LV_OPA_MAX ? opa : ((opa * mask[x]) >> 8);
 2658              		.loc 1 716 0 is_stmt 1
 2659 0324 2146     		mov	r1, r4
 2660 0326 18F80430 		ldrb	r3, [r8, r4]	@ zero_extendqisi2
 2661 032a 13B3     		cbz	r3, .L188
 2662              	.LVL471:
 2663              	.LBB178:
 717:..\..\..\arduinoLCD\test\Pain Drain\libraries\lvgl\src\draw\sw/lv_draw_sw_blend.c ****                         dest_buf[x] = lv_color_mix(src_buf[x], dest_buf[x], opa_tmp);
 2664              		.loc 1 717 0
 2665 032c FC2B     		cmp	r3, #252
 2666 032e 04D8     		bhi	.L196
 717:..\..\..\arduinoLCD\test\Pain Drain\libraries\lvgl\src\draw\sw/lv_draw_sw_blend.c ****                         dest_buf[x] = lv_color_mix(src_buf[x], dest_buf[x], opa_tmp);
ARM GAS  C:\Users\haske\AppData\Local\Temp\cc7ZkKza.s 			page 83


 2667              		.loc 1 717 0 is_stmt 0 discriminator 1
 2668 0330 03FB0AF2 		mul	r2, r3, r10
 2669 0334 C2F30722 		ubfx	r2, r2, #8, #8
 2670 0338 00E0     		b	.L189
 2671              	.L196:
 717:..\..\..\arduinoLCD\test\Pain Drain\libraries\lvgl\src\draw\sw/lv_draw_sw_blend.c ****                         dest_buf[x] = lv_color_mix(src_buf[x], dest_buf[x], opa_tmp);
 2672              		.loc 1 717 0
 2673 033a 5246     		mov	r2, r10
 2674              	.L189:
 2675              	.LVL472:
 2676              	.LBB179:
 2677              	.LBB180:
 445:c:\projects\paindrain\arduinolcd\test\pain drain\libraries\lvgl\src\misc\lv_color.h ****     uint32_t bg = (uint32_t)((uint32_t)c2.full | ((uint32_t)c2.full << 16)) &
 2678              		.loc 3 445 0 is_stmt 1 discriminator 4
 2679 033c 0432     		adds	r2, r2, #4
 2680              	.LVL473:
 446:c:\projects\paindrain\arduinolcd\test\pain drain\libraries\lvgl\src\misc\lv_color.h ****                   0x7E0F81F; /*0b00000111111000001111100000011111*/
 2681              		.loc 3 446 0 discriminator 4
 2682 033e 35F811E0 		ldrh	lr, [r5, r1, lsl #1]
 2683 0342 4EEA0E4E 		orr	lr, lr, lr, lsl #16
 2684 0346 174B     		ldr	r3, .L200
 2685 0348 0EEA030E 		and	lr, lr, r3
 2686              	.LVL474:
 448:c:\projects\paindrain\arduinolcd\test\pain drain\libraries\lvgl\src\misc\lv_color.h ****     uint32_t result = ((((fg - bg) * mix) >> 5) + bg) & 0x7E0F81F;
 2687              		.loc 3 448 0 discriminator 4
 2688 034c 36F81100 		ldrh	r0, [r6, r1, lsl #1]
 2689 0350 40EA0040 		orr	r0, r0, r0, lsl #16
 2690 0354 1840     		ands	r0, r0, r3
 2691              	.LVL475:
 449:c:\projects\paindrain\arduinolcd\test\pain drain\libraries\lvgl\src\misc\lv_color.h ****     ret.full = (uint16_t)((result >> 16) | result);
 2692              		.loc 3 449 0 discriminator 4
 2693 0356 CEEB0000 		rsb	r0, lr, r0
 2694              	.LVL476:
 2695 035a C2F3C702 		ubfx	r2, r2, #3, #8
 2696              	.LVL477:
 2697 035e 00FB02F0 		mul	r0, r0, r2
 2698 0362 0EEB501E 		add	lr, lr, r0, lsr #5
 2699              	.LVL478:
 2700 0366 0EEA0303 		and	r3, lr, r3
 2701              	.LVL479:
 450:c:\projects\paindrain\arduinolcd\test\pain drain\libraries\lvgl\src\misc\lv_color.h **** #elif LV_COLOR_DEPTH != 1
 2702              		.loc 3 450 0 discriminator 4
 2703 036a 43EA1343 		orr	r3, r3, r3, lsr #16
 2704              	.LVL480:
 2705              	.LBE180:
 2706              	.LBE179:
 718:..\..\..\arduinoLCD\test\Pain Drain\libraries\lvgl\src\draw\sw/lv_draw_sw_blend.c ****                     }
 2707              		.loc 1 718 0 discriminator 4
 2708 036e 25F81130 		strh	r3, [r5, r1, lsl #1]	@ movhi
 2709              	.L188:
 2710              	.LBE178:
 715:..\..\..\arduinoLCD\test\Pain Drain\libraries\lvgl\src\draw\sw/lv_draw_sw_blend.c ****                     if(mask[x]) {
 2711              		.loc 1 715 0 discriminator 2
 2712 0372 0134     		adds	r4, r4, #1
 2713              	.LVL481:
 2714 0374 00E0     		b	.L191
 2715              	.LVL482:
ARM GAS  C:\Users\haske\AppData\Local\Temp\cc7ZkKza.s 			page 84


 2716              	.L197:
 2717 0376 0024     		movs	r4, #0
 2718              	.L191:
 2719              	.LVL483:
 715:..\..\..\arduinoLCD\test\Pain Drain\libraries\lvgl\src\draw\sw/lv_draw_sw_blend.c ****                     if(mask[x]) {
 2720              		.loc 1 715 0 is_stmt 0 discriminator 1
 2721 0378 6445     		cmp	r4, ip
 2722 037a D3DB     		blt	.L190
 721:..\..\..\arduinoLCD\test\Pain Drain\libraries\lvgl\src\draw\sw/lv_draw_sw_blend.c ****                 src_buf += src_stride;
 2723              		.loc 1 721 0 is_stmt 1 discriminator 2
 2724 037c 019B     		ldr	r3, [sp, #4]
 2725 037e 05EB4305 		add	r5, r5, r3, lsl #1
 2726              	.LVL484:
 722:..\..\..\arduinoLCD\test\Pain Drain\libraries\lvgl\src\draw\sw/lv_draw_sw_blend.c ****                 mask += mask_stride;
 2727              		.loc 1 722 0 discriminator 2
 2728 0382 029B     		ldr	r3, [sp, #8]
 2729 0384 06EB4306 		add	r6, r6, r3, lsl #1
 2730              	.LVL485:
 723:..\..\..\arduinoLCD\test\Pain Drain\libraries\lvgl\src\draw\sw/lv_draw_sw_blend.c ****             }
 2731              		.loc 1 723 0 discriminator 2
 2732 0388 D844     		add	r8, r8, fp
 2733              	.LVL486:
 714:..\..\..\arduinoLCD\test\Pain Drain\libraries\lvgl\src\draw\sw/lv_draw_sw_blend.c ****                 for(x = 0; x < w; x++) {
 2734              		.loc 1 714 0 discriminator 2
 2735 038a 09F10109 		add	r9, r9, #1
 2736              	.LVL487:
 2737 038e 03E0     		b	.L167
 2738              	.LVL488:
 2739              	.L194:
 2740 0390 4FF00009 		mov	r9, #0
 2741              	.LVL489:
 2742 0394 DDF80CB0 		ldr	fp, [sp, #12]
 2743              	.LVL490:
 2744              	.L167:
 714:..\..\..\arduinoLCD\test\Pain Drain\libraries\lvgl\src\draw\sw/lv_draw_sw_blend.c ****                 for(x = 0; x < w; x++) {
 2745              		.loc 1 714 0 is_stmt 0 discriminator 1
 2746 0398 B945     		cmp	r9, r7
 2747 039a ECDB     		blt	.L197
 2748              	.LVL491:
 2749              	.L159:
 727:..\..\..\arduinoLCD\test\Pain Drain\libraries\lvgl\src\draw\sw/lv_draw_sw_blend.c **** 
 2750              		.loc 1 727 0 is_stmt 1
 2751 039c 05B0     		add	sp, sp, #20
 2752              		.cfi_def_cfa_offset 36
 2753              		@ sp needed
 2754 039e BDE8F08F 		pop	{r4, r5, r6, r7, r8, r9, r10, fp, pc}
 2755              	.LVL492:
 2756              	.L201:
 2757 03a2 00BF     		.align	2
 2758              	.L200:
 2759 03a4 1FF8E007 		.word	132184095
 2760              		.cfi_endproc
 2761              	.LFE165:
 2762              		.size	map_normal, .-map_normal
 2763              		.section	.text.lv_draw_sw_blend,"ax",%progbits
 2764              		.align	2
 2765              		.global	lv_draw_sw_blend
ARM GAS  C:\Users\haske\AppData\Local\Temp\cc7ZkKza.s 			page 85


 2766              		.thumb
 2767              		.thumb_func
 2768              		.type	lv_draw_sw_blend, %function
 2769              	lv_draw_sw_blend:
 2770              	.LFB159:
  92:..\..\..\arduinoLCD\test\Pain Drain\libraries\lvgl\src\draw\sw/lv_draw_sw_blend.c ****     /*Do not draw transparent things*/
 2771              		.loc 1 92 0
 2772              		.cfi_startproc
 2773              		@ args = 0, pretend = 0, frame = 8
 2774              		@ frame_needed = 0, uses_anonymous_args = 0
 2775              	.LVL493:
  94:..\..\..\arduinoLCD\test\Pain Drain\libraries\lvgl\src\draw\sw/lv_draw_sw_blend.c **** 
 2776              		.loc 1 94 0
 2777 0000 0B7E     		ldrb	r3, [r1, #24]	@ zero_extendqisi2
 2778 0002 022B     		cmp	r3, #2
 2779 0004 13D9     		bls	.L207
  92:..\..\..\arduinoLCD\test\Pain Drain\libraries\lvgl\src\draw\sw/lv_draw_sw_blend.c ****     /*Do not draw transparent things*/
 2780              		.loc 1 92 0
 2781 0006 30B5     		push	{r4, r5, lr}
 2782              		.cfi_def_cfa_offset 12
 2783              		.cfi_offset 4, -12
 2784              		.cfi_offset 5, -8
 2785              		.cfi_offset 14, -4
 2786 0008 83B0     		sub	sp, sp, #12
 2787              		.cfi_def_cfa_offset 24
 2788 000a 0C46     		mov	r4, r1
 2789 000c 0546     		mov	r5, r0
  97:..\..\..\arduinoLCD\test\Pain Drain\libraries\lvgl\src\draw\sw/lv_draw_sw_blend.c **** 
 2790              		.loc 1 97 0
 2791 000e 8268     		ldr	r2, [r0, #8]
 2792 0010 0968     		ldr	r1, [r1]
 2793              	.LVL494:
 2794 0012 6846     		mov	r0, sp
 2795              	.LVL495:
 2796 0014 FFF7FEFF 		bl	_lv_area_intersect
 2797              	.LVL496:
 2798 0018 38B1     		cbz	r0, .L202
  99:..\..\..\arduinoLCD\test\Pain Drain\libraries\lvgl\src\draw\sw/lv_draw_sw_blend.c **** 
 2799              		.loc 1 99 0
 2800 001a 6B6B     		ldr	r3, [r5, #52]
 2801 001c 0BB1     		cbz	r3, .L204
  99:..\..\..\arduinoLCD\test\Pain Drain\libraries\lvgl\src\draw\sw/lv_draw_sw_blend.c **** 
 2802              		.loc 1 99 0 is_stmt 0 discriminator 1
 2803 001e 2846     		mov	r0, r5
 2804 0020 9847     		blx	r3
 2805              	.LVL497:
 2806              	.L204:
 101:..\..\..\arduinoLCD\test\Pain Drain\libraries\lvgl\src\draw\sw/lv_draw_sw_blend.c **** }
 2807              		.loc 1 101 0 is_stmt 1
 2808 0022 6B6D     		ldr	r3, [r5, #84]
 2809 0024 2146     		mov	r1, r4
 2810 0026 2846     		mov	r0, r5
 2811 0028 9847     		blx	r3
 2812              	.LVL498:
 2813              	.L202:
 102:..\..\..\arduinoLCD\test\Pain Drain\libraries\lvgl\src\draw\sw/lv_draw_sw_blend.c **** 
 2814              		.loc 1 102 0
ARM GAS  C:\Users\haske\AppData\Local\Temp\cc7ZkKza.s 			page 86


 2815 002a 03B0     		add	sp, sp, #12
 2816              		.cfi_def_cfa_offset 12
 2817              		@ sp needed
 2818 002c 30BD     		pop	{r4, r5, pc}
 2819              	.LVL499:
 2820              	.L207:
 2821              		.cfi_def_cfa_offset 0
 2822              		.cfi_restore 4
 2823              		.cfi_restore 5
 2824              		.cfi_restore 14
 2825 002e 7047     		bx	lr
 2826              		.cfi_endproc
 2827              	.LFE159:
 2828              		.size	lv_draw_sw_blend, .-lv_draw_sw_blend
 2829              		.section	.text.lv_draw_sw_blend_basic,"ax",%progbits
 2830              		.align	2
 2831              		.global	lv_draw_sw_blend_basic
 2832              		.thumb
 2833              		.thumb_func
 2834              		.type	lv_draw_sw_blend_basic, %function
 2835              	lv_draw_sw_blend_basic:
 2836              	.LFB160:
 105:..\..\..\arduinoLCD\test\Pain Drain\libraries\lvgl\src\draw\sw/lv_draw_sw_blend.c ****     lv_opa_t * mask;
 2837              		.loc 1 105 0
 2838              		.cfi_startproc
 2839              		@ args = 0, pretend = 0, frame = 16
 2840              		@ frame_needed = 0, uses_anonymous_args = 0
 2841              	.LVL500:
 2842 0000 2DE9F04F 		push	{r4, r5, r6, r7, r8, r9, r10, fp, lr}
 2843              		.cfi_def_cfa_offset 36
 2844              		.cfi_offset 4, -36
 2845              		.cfi_offset 5, -32
 2846              		.cfi_offset 6, -28
 2847              		.cfi_offset 7, -24
 2848              		.cfi_offset 8, -20
 2849              		.cfi_offset 9, -16
 2850              		.cfi_offset 10, -12
 2851              		.cfi_offset 11, -8
 2852              		.cfi_offset 14, -4
 2853 0004 8BB0     		sub	sp, sp, #44
 2854              		.cfi_def_cfa_offset 80
 108:..\..\..\arduinoLCD\test\Pain Drain\libraries\lvgl\src\draw\sw/lv_draw_sw_blend.c ****     else if(dsc->mask_res == LV_DRAW_MASK_RES_FULL_COVER) mask = NULL;
 2855              		.loc 1 108 0
 2856 0006 CF68     		ldr	r7, [r1, #12]
 2857 0008 1FB1     		cbz	r7, .L209
 108:..\..\..\arduinoLCD\test\Pain Drain\libraries\lvgl\src\draw\sw/lv_draw_sw_blend.c ****     else if(dsc->mask_res == LV_DRAW_MASK_RES_FULL_COVER) mask = NULL;
 2858              		.loc 1 108 0 is_stmt 0 discriminator 1
 2859 000a 0B7C     		ldrb	r3, [r1, #16]	@ zero_extendqisi2
 2860 000c 002B     		cmp	r3, #0
 2861 000e 00F00081 		beq	.L208
 2862              	.L209:
 109:..\..\..\arduinoLCD\test\Pain Drain\libraries\lvgl\src\draw\sw/lv_draw_sw_blend.c ****     else mask = dsc->mask_buf;
 2863              		.loc 1 109 0 is_stmt 1
 2864 0012 0B7C     		ldrb	r3, [r1, #16]	@ zero_extendqisi2
 2865 0014 012B     		cmp	r3, #1
 2866 0016 00D1     		bne	.L211
 2867 0018 0027     		movs	r7, #0
ARM GAS  C:\Users\haske\AppData\Local\Temp\cc7ZkKza.s 			page 87


 2868              	.L211:
 2869 001a 0C46     		mov	r4, r1
 2870 001c 0646     		mov	r6, r0
 2871              	.LVL501:
 112:..\..\..\arduinoLCD\test\Pain Drain\libraries\lvgl\src\draw\sw/lv_draw_sw_blend.c **** 
 2872              		.loc 1 112 0
 2873 001e 4268     		ldr	r2, [r0, #4]
 2874              	.LVL502:
 2875              	.LBB181:
 2876              	.LBB182:
 125:c:\projects\paindrain\arduinolcd\test\pain drain\libraries\lvgl\src\misc\lv_area.h **** }
 2877              		.loc 2 125 0
 2878 0020 B2F90430 		ldrsh	r3, [r2, #4]
 2879 0024 B2F90050 		ldrsh	r5, [r2]
 2880 0028 5D1B     		subs	r5, r3, r5
 2881 002a 0135     		adds	r5, r5, #1
 2882 002c 2DB2     		sxth	r5, r5
 2883              	.LVL503:
 2884              	.LBE182:
 2885              	.LBE181:
 115:..\..\..\arduinoLCD\test\Pain Drain\libraries\lvgl\src\draw\sw/lv_draw_sw_blend.c **** 
 2886              		.loc 1 115 0
 2887 002e 8268     		ldr	r2, [r0, #8]
 2888 0030 0968     		ldr	r1, [r1]
 2889              	.LVL504:
 2890 0032 08A8     		add	r0, sp, #32
 2891              	.LVL505:
 2892 0034 FFF7FEFF 		bl	_lv_area_intersect
 2893              	.LVL506:
 2894 0038 0028     		cmp	r0, #0
 2895 003a 00F0EA80 		beq	.L208
 117:..\..\..\arduinoLCD\test\Pain Drain\libraries\lvgl\src\draw\sw/lv_draw_sw_blend.c ****     lv_color_t * dest_buf = draw_ctx->buf;
 2896              		.loc 1 117 0
 2897 003e FFF7FEFF 		bl	_lv_refr_get_disp_refreshing
 2898              	.LVL507:
 2899 0042 8346     		mov	fp, r0
 2900              	.LVL508:
 118:..\..\..\arduinoLCD\test\Pain Drain\libraries\lvgl\src\draw\sw/lv_draw_sw_blend.c ****     if(disp->driver->set_px_cb == NULL) {
 2901              		.loc 1 118 0
 2902 0044 3368     		ldr	r3, [r6]
 2903 0046 0793     		str	r3, [sp, #28]
 2904              	.LVL509:
 119:..\..\..\arduinoLCD\test\Pain Drain\libraries\lvgl\src\draw\sw/lv_draw_sw_blend.c ****         if(disp->driver->screen_transp == 0) {
 2905              		.loc 1 119 0
 2906 0048 0168     		ldr	r1, [r0]
 2907 004a CB69     		ldr	r3, [r1, #28]
 2908              	.LVL510:
 2909 004c 5BBB     		cbnz	r3, .L212
 120:..\..\..\arduinoLCD\test\Pain Drain\libraries\lvgl\src\draw\sw/lv_draw_sw_blend.c ****             dest_buf += dest_stride * (blend_area.y1 - draw_ctx->buf_area->y1) + (blend_area.x1 - d
 2910              		.loc 1 120 0
 2911 004e 0B7C     		ldrb	r3, [r1, #16]	@ zero_extendqisi2
 2912 0050 13F0400F 		tst	r3, #64
 2913 0054 11D1     		bne	.L213
 121:..\..\..\arduinoLCD\test\Pain Drain\libraries\lvgl\src\draw\sw/lv_draw_sw_blend.c ****         }
 2914              		.loc 1 121 0
 2915 0056 BDF92230 		ldrsh	r3, [sp, #34]
 2916 005a 7068     		ldr	r0, [r6, #4]
ARM GAS  C:\Users\haske\AppData\Local\Temp\cc7ZkKza.s 			page 88


 2917              	.LVL511:
 2918 005c B0F90220 		ldrsh	r2, [r0, #2]
 2919 0060 9B1A     		subs	r3, r3, r2
 2920 0062 BDF92020 		ldrsh	r2, [sp, #32]
 2921 0066 B0F90000 		ldrsh	r0, [r0]
 2922 006a 121A     		subs	r2, r2, r0
 2923 006c 03FB0523 		mla	r3, r3, r5, r2
 2924 0070 079A     		ldr	r2, [sp, #28]
 2925 0072 02EB4303 		add	r3, r2, r3, lsl #1
 2926 0076 0793     		str	r3, [sp, #28]
 2927              	.LVL512:
 2928 0078 15E0     		b	.L212
 2929              	.LVL513:
 2930              	.L213:
 2931              	.LBB183:
 126:..\..\..\arduinoLCD\test\Pain Drain\libraries\lvgl\src\draw\sw/lv_draw_sw_blend.c ****             dest_buf8 += (blend_area.x1 - draw_ctx->buf_area->x1) * LV_IMG_PX_SIZE_ALPHA_BYTE;
 2932              		.loc 1 126 0
 2933 007a BDF92230 		ldrsh	r3, [sp, #34]
 2934 007e D6F804E0 		ldr	lr, [r6, #4]
 2935 0082 BEF90220 		ldrsh	r2, [lr, #2]
 2936 0086 9B1A     		subs	r3, r3, r2
 2937 0088 03FB05F3 		mul	r3, r3, r5
 2938 008c 03EB4300 		add	r0, r3, r3, lsl #1
 2939              	.LVL514:
 127:..\..\..\arduinoLCD\test\Pain Drain\libraries\lvgl\src\draw\sw/lv_draw_sw_blend.c ****             dest_buf = (lv_color_t *)dest_buf8;
 2940              		.loc 1 127 0
 2941 0090 BDF92020 		ldrsh	r2, [sp, #32]
 2942 0094 BEF90030 		ldrsh	r3, [lr]
 2943 0098 D31A     		subs	r3, r2, r3
 2944 009a 03EB4303 		add	r3, r3, r3, lsl #1
 2945 009e 0344     		add	r3, r3, r0
 2946 00a0 079A     		ldr	r2, [sp, #28]
 2947 00a2 1A44     		add	r2, r2, r3
 2948 00a4 0792     		str	r2, [sp, #28]
 2949              	.LVL515:
 2950              	.L212:
 2951              	.LBE183:
 132:..\..\..\arduinoLCD\test\Pain Drain\libraries\lvgl\src\draw\sw/lv_draw_sw_blend.c ****     lv_coord_t src_stride;
 2952              		.loc 1 132 0
 2953 00a6 D4F804A0 		ldr	r10, [r4, #4]
 2954              	.LVL516:
 134:..\..\..\arduinoLCD\test\Pain Drain\libraries\lvgl\src\draw\sw/lv_draw_sw_blend.c ****         src_stride = lv_area_get_width(dsc->blend_area);
 2955              		.loc 1 134 0
 2956 00aa BAF1000F 		cmp	r10, #0
 2957 00ae 17D0     		beq	.L227
 135:..\..\..\arduinoLCD\test\Pain Drain\libraries\lvgl\src\draw\sw/lv_draw_sw_blend.c ****         src_buf += src_stride * (blend_area.y1 - dsc->blend_area->y1) + (blend_area.x1 - dsc->blend
 2958              		.loc 1 135 0
 2959 00b0 2368     		ldr	r3, [r4]
 2960              	.LVL517:
 2961              	.LBB184:
 2962              	.LBB185:
 125:c:\projects\paindrain\arduinolcd\test\pain drain\libraries\lvgl\src\misc\lv_area.h **** }
 2963              		.loc 2 125 0
 2964 00b2 B3F90490 		ldrsh	r9, [r3, #4]
 2965 00b6 B3F90000 		ldrsh	r0, [r3]
 2966 00ba C0EB0909 		rsb	r9, r0, r9
 2967 00be 09F10109 		add	r9, r9, #1
ARM GAS  C:\Users\haske\AppData\Local\Temp\cc7ZkKza.s 			page 89


 2968 00c2 0FFA89F9 		sxth	r9, r9
 2969              	.LVL518:
 2970              	.LBE185:
 2971              	.LBE184:
 136:..\..\..\arduinoLCD\test\Pain Drain\libraries\lvgl\src\draw\sw/lv_draw_sw_blend.c ****     }
 2972              		.loc 1 136 0
 2973 00c6 BDF92220 		ldrsh	r2, [sp, #34]
 2974 00ca B3F90230 		ldrsh	r3, [r3, #2]
 2975 00ce D21A     		subs	r2, r2, r3
 2976 00d0 BDF92030 		ldrsh	r3, [sp, #32]
 2977 00d4 1B1A     		subs	r3, r3, r0
 2978 00d6 02FB0933 		mla	r3, r2, r9, r3
 2979 00da 0AEB430A 		add	r10, r10, r3, lsl #1
 2980              	.LVL519:
 2981 00de 01E0     		b	.L214
 2982              	.L227:
 139:..\..\..\arduinoLCD\test\Pain Drain\libraries\lvgl\src\draw\sw/lv_draw_sw_blend.c ****     }
 2983              		.loc 1 139 0
 2984 00e0 4FF00009 		mov	r9, #0
 2985              	.L214:
 2986              	.LVL520:
 143:..\..\..\arduinoLCD\test\Pain Drain\libraries\lvgl\src\draw\sw/lv_draw_sw_blend.c ****         /*Round the values in the mask if anti-aliasing is disabled*/
 2987              		.loc 1 143 0
 2988 00e4 67B3     		cbz	r7, .L228
 145:..\..\..\arduinoLCD\test\Pain Drain\libraries\lvgl\src\draw\sw/lv_draw_sw_blend.c ****             int32_t mask_size = lv_area_get_size(dsc->mask_area);
 2989              		.loc 1 145 0
 2990 00e6 0B7C     		ldrb	r3, [r1, #16]	@ zero_extendqisi2
 2991 00e8 03F00803 		and	r3, r3, #8
 2992 00ec 03F0FF08 		and	r8, r3, #255
 2993 00f0 7BB9     		cbnz	r3, .L216
 2994              	.LBB186:
 146:..\..\..\arduinoLCD\test\Pain Drain\libraries\lvgl\src\draw\sw/lv_draw_sw_blend.c ****             int32_t i;
 2995              		.loc 1 146 0
 2996 00f2 6069     		ldr	r0, [r4, #20]
 2997 00f4 FFF7FEFF 		bl	lv_area_get_size
 2998              	.LVL521:
 148:..\..\..\arduinoLCD\test\Pain Drain\libraries\lvgl\src\draw\sw/lv_draw_sw_blend.c ****                 mask[i] = mask[i] > 128 ? LV_OPA_COVER : LV_OPA_TRANSP;
 2999              		.loc 1 148 0
 3000 00f8 0023     		movs	r3, #0
 3001 00fa 08E0     		b	.L217
 3002              	.LVL522:
 3003              	.L219:
 149:..\..\..\arduinoLCD\test\Pain Drain\libraries\lvgl\src\draw\sw/lv_draw_sw_blend.c ****             }
 3004              		.loc 1 149 0
 3005 00fc FA18     		adds	r2, r7, r3
 3006 00fe F95C     		ldrb	r1, [r7, r3]	@ zero_extendqisi2
 3007 0100 8029     		cmp	r1, #128
 3008 0102 01D9     		bls	.L229
 3009 0104 FF21     		movs	r1, #255
 3010 0106 00E0     		b	.L218
 3011              	.L229:
 3012 0108 4146     		mov	r1, r8
 3013              	.L218:
 149:..\..\..\arduinoLCD\test\Pain Drain\libraries\lvgl\src\draw\sw/lv_draw_sw_blend.c ****             }
 3014              		.loc 1 149 0 is_stmt 0 discriminator 4
 3015 010a 1170     		strb	r1, [r2]
 148:..\..\..\arduinoLCD\test\Pain Drain\libraries\lvgl\src\draw\sw/lv_draw_sw_blend.c ****                 mask[i] = mask[i] > 128 ? LV_OPA_COVER : LV_OPA_TRANSP;
ARM GAS  C:\Users\haske\AppData\Local\Temp\cc7ZkKza.s 			page 90


 3016              		.loc 1 148 0 is_stmt 1 discriminator 4
 3017 010c 0133     		adds	r3, r3, #1
 3018              	.LVL523:
 3019              	.L217:
 148:..\..\..\arduinoLCD\test\Pain Drain\libraries\lvgl\src\draw\sw/lv_draw_sw_blend.c ****                 mask[i] = mask[i] > 128 ? LV_OPA_COVER : LV_OPA_TRANSP;
 3020              		.loc 1 148 0 is_stmt 0 discriminator 2
 3021 010e 8342     		cmp	r3, r0
 3022 0110 F4DB     		blt	.L219
 3023              	.LVL524:
 3024              	.L216:
 3025              	.LBE186:
 153:..\..\..\arduinoLCD\test\Pain Drain\libraries\lvgl\src\draw\sw/lv_draw_sw_blend.c ****         mask += mask_stride * (blend_area.y1 - dsc->mask_area->y1) + (blend_area.x1 - dsc->mask_are
 3026              		.loc 1 153 0 is_stmt 1
 3027 0112 6369     		ldr	r3, [r4, #20]
 3028              	.LVL525:
 3029              	.LBB187:
 3030              	.LBB188:
 125:c:\projects\paindrain\arduinolcd\test\pain drain\libraries\lvgl\src\misc\lv_area.h **** }
 3031              		.loc 2 125 0
 3032 0114 B3F90480 		ldrsh	r8, [r3, #4]
 3033 0118 B3F90010 		ldrsh	r1, [r3]
 3034 011c C1EB0808 		rsb	r8, r1, r8
 3035 0120 08F10108 		add	r8, r8, #1
 3036 0124 0FFA88F8 		sxth	r8, r8
 3037              	.LVL526:
 3038              	.LBE188:
 3039              	.LBE187:
 154:..\..\..\arduinoLCD\test\Pain Drain\libraries\lvgl\src\draw\sw/lv_draw_sw_blend.c **** 
 3040              		.loc 1 154 0
 3041 0128 BDF92220 		ldrsh	r2, [sp, #34]
 3042 012c B3F90230 		ldrsh	r3, [r3, #2]
 3043 0130 D21A     		subs	r2, r2, r3
 3044 0132 BDF92030 		ldrsh	r3, [sp, #32]
 3045 0136 5B1A     		subs	r3, r3, r1
 3046 0138 02FB0833 		mla	r3, r2, r8, r3
 3047 013c 1F44     		add	r7, r7, r3
 3048              	.LVL527:
 3049 013e 01E0     		b	.L215
 3050              	.L228:
 158:..\..\..\arduinoLCD\test\Pain Drain\libraries\lvgl\src\draw\sw/lv_draw_sw_blend.c ****     }
 3051              		.loc 1 158 0
 3052 0140 4FF00008 		mov	r8, #0
 3053              	.L215:
 3054              	.LVL528:
 161:..\..\..\arduinoLCD\test\Pain Drain\libraries\lvgl\src\draw\sw/lv_draw_sw_blend.c **** 
 3055              		.loc 1 161 0
 3056 0144 7368     		ldr	r3, [r6, #4]
 3057 0146 B3F90010 		ldrsh	r1, [r3]
 3058 014a B3F90220 		ldrsh	r2, [r3, #2]
 3059 014e 5242     		negs	r2, r2
 3060 0150 4942     		negs	r1, r1
 3061 0152 12B2     		sxth	r2, r2
 3062 0154 09B2     		sxth	r1, r1
 3063 0156 08A8     		add	r0, sp, #32
 3064 0158 FFF7FEFF 		bl	lv_area_move
 3065              	.LVL529:
 164:..\..\..\arduinoLCD\test\Pain Drain\libraries\lvgl\src\draw\sw/lv_draw_sw_blend.c ****         if(dsc->src_buf == NULL) {
ARM GAS  C:\Users\haske\AppData\Local\Temp\cc7ZkKza.s 			page 91


 3066              		.loc 1 164 0
 3067 015c DBF80030 		ldr	r3, [fp]
 3068 0160 DB69     		ldr	r3, [r3, #28]
 3069 0162 DBB1     		cbz	r3, .L220
 165:..\..\..\arduinoLCD\test\Pain Drain\libraries\lvgl\src\draw\sw/lv_draw_sw_blend.c ****             fill_set_px(dest_buf, &blend_area, dest_stride, dsc->color, dsc->opa, mask, mask_stride
 3070              		.loc 1 165 0
 3071 0164 6368     		ldr	r3, [r4, #4]
 3072 0166 5BB9     		cbnz	r3, .L221
 166:..\..\..\arduinoLCD\test\Pain Drain\libraries\lvgl\src\draw\sw/lv_draw_sw_blend.c ****         }
 3073              		.loc 1 166 0
 3074 0168 2389     		ldrh	r3, [r4, #8]
 3075 016a CDF80880 		str	r8, [sp, #8]
 3076 016e 0197     		str	r7, [sp, #4]
 3077 0170 227E     		ldrb	r2, [r4, #24]	@ zero_extendqisi2
 3078 0172 0092     		str	r2, [sp]
 3079 0174 2A46     		mov	r2, r5
 3080 0176 08A9     		add	r1, sp, #32
 3081 0178 0798     		ldr	r0, [sp, #28]
 3082 017a FFF7FEFF 		bl	fill_set_px
 3083              	.LVL530:
 3084 017e 48E0     		b	.L208
 3085              	.L221:
 169:..\..\..\arduinoLCD\test\Pain Drain\libraries\lvgl\src\draw\sw/lv_draw_sw_blend.c ****         }
 3086              		.loc 1 169 0
 3087 0180 CDF80C80 		str	r8, [sp, #12]
 3088 0184 0297     		str	r7, [sp, #8]
 3089 0186 237E     		ldrb	r3, [r4, #24]	@ zero_extendqisi2
 3090 0188 0193     		str	r3, [sp, #4]
 3091 018a CDF80090 		str	r9, [sp]
 3092 018e 5346     		mov	r3, r10
 3093 0190 2A46     		mov	r2, r5
 3094 0192 08A9     		add	r1, sp, #32
 3095 0194 0798     		ldr	r0, [sp, #28]
 3096 0196 FFF7FEFF 		bl	map_set_px
 3097              	.LVL531:
 3098 019a 3AE0     		b	.L208
 3099              	.L220:
 182:..\..\..\arduinoLCD\test\Pain Drain\libraries\lvgl\src\draw\sw/lv_draw_sw_blend.c ****         if(dsc->src_buf == NULL) {
 3100              		.loc 1 182 0
 3101 019c 627E     		ldrb	r2, [r4, #25]	@ zero_extendqisi2
 3102 019e DAB9     		cbnz	r2, .L223
 183:..\..\..\arduinoLCD\test\Pain Drain\libraries\lvgl\src\draw\sw/lv_draw_sw_blend.c ****             fill_normal(dest_buf, &blend_area, dest_stride, dsc->color, dsc->opa, mask, mask_stride
 3103              		.loc 1 183 0
 3104 01a0 6368     		ldr	r3, [r4, #4]
 3105 01a2 5BB9     		cbnz	r3, .L224
 184:..\..\..\arduinoLCD\test\Pain Drain\libraries\lvgl\src\draw\sw/lv_draw_sw_blend.c ****         }
 3106              		.loc 1 184 0
 3107 01a4 2389     		ldrh	r3, [r4, #8]
 3108 01a6 CDF80880 		str	r8, [sp, #8]
 3109 01aa 0197     		str	r7, [sp, #4]
 3110 01ac 227E     		ldrb	r2, [r4, #24]	@ zero_extendqisi2
 3111 01ae 0092     		str	r2, [sp]
 3112 01b0 2A46     		mov	r2, r5
 3113 01b2 08A9     		add	r1, sp, #32
 3114 01b4 0798     		ldr	r0, [sp, #28]
 3115 01b6 FFF7FEFF 		bl	fill_normal
 3116              	.LVL532:
ARM GAS  C:\Users\haske\AppData\Local\Temp\cc7ZkKza.s 			page 92


 3117 01ba 2AE0     		b	.L208
 3118              	.L224:
 187:..\..\..\arduinoLCD\test\Pain Drain\libraries\lvgl\src\draw\sw/lv_draw_sw_blend.c ****         }
 3119              		.loc 1 187 0
 3120 01bc CDF80C80 		str	r8, [sp, #12]
 3121 01c0 0297     		str	r7, [sp, #8]
 3122 01c2 237E     		ldrb	r3, [r4, #24]	@ zero_extendqisi2
 3123 01c4 0193     		str	r3, [sp, #4]
 3124 01c6 CDF80090 		str	r9, [sp]
 3125 01ca 5346     		mov	r3, r10
 3126 01cc 2A46     		mov	r2, r5
 3127 01ce 08A9     		add	r1, sp, #32
 3128 01d0 0798     		ldr	r0, [sp, #28]
 3129 01d2 FFF7FEFF 		bl	map_normal
 3130              	.LVL533:
 3131 01d6 1CE0     		b	.L208
 3132              	.L223:
 192:..\..\..\arduinoLCD\test\Pain Drain\libraries\lvgl\src\draw\sw/lv_draw_sw_blend.c ****             fill_blended(dest_buf, &blend_area, dest_stride, dsc->color, dsc->opa, mask, mask_strid
 3133              		.loc 1 192 0
 3134 01d8 6368     		ldr	r3, [r4, #4]
 3135 01da 63B9     		cbnz	r3, .L225
 193:..\..\..\arduinoLCD\test\Pain Drain\libraries\lvgl\src\draw\sw/lv_draw_sw_blend.c ****         }
 3136              		.loc 1 193 0
 3137 01dc 2389     		ldrh	r3, [r4, #8]
 3138 01de 0392     		str	r2, [sp, #12]
 3139 01e0 CDF80880 		str	r8, [sp, #8]
 3140 01e4 0197     		str	r7, [sp, #4]
 3141 01e6 227E     		ldrb	r2, [r4, #24]	@ zero_extendqisi2
 3142 01e8 0092     		str	r2, [sp]
 3143 01ea 2A46     		mov	r2, r5
 3144 01ec 08A9     		add	r1, sp, #32
 3145 01ee 0798     		ldr	r0, [sp, #28]
 3146 01f0 FFF7FEFF 		bl	fill_blended
 3147              	.LVL534:
 3148 01f4 0DE0     		b	.L208
 3149              	.L225:
 196:..\..\..\arduinoLCD\test\Pain Drain\libraries\lvgl\src\draw\sw/lv_draw_sw_blend.c ****         }
 3150              		.loc 1 196 0
 3151 01f6 0492     		str	r2, [sp, #16]
 3152 01f8 CDF80C80 		str	r8, [sp, #12]
 3153 01fc 0297     		str	r7, [sp, #8]
 3154 01fe 237E     		ldrb	r3, [r4, #24]	@ zero_extendqisi2
 3155 0200 0193     		str	r3, [sp, #4]
 3156 0202 CDF80090 		str	r9, [sp]
 3157 0206 5346     		mov	r3, r10
 3158 0208 2A46     		mov	r2, r5
 3159 020a 08A9     		add	r1, sp, #32
 3160 020c 0798     		ldr	r0, [sp, #28]
 3161 020e FFF7FEFF 		bl	map_blended
 3162              	.LVL535:
 3163              	.L208:
 200:..\..\..\arduinoLCD\test\Pain Drain\libraries\lvgl\src\draw\sw/lv_draw_sw_blend.c **** 
 3164              		.loc 1 200 0
 3165 0212 0BB0     		add	sp, sp, #44
 3166              		.cfi_def_cfa_offset 36
 3167              		@ sp needed
 3168 0214 BDE8F08F 		pop	{r4, r5, r6, r7, r8, r9, r10, fp, pc}
ARM GAS  C:\Users\haske\AppData\Local\Temp\cc7ZkKza.s 			page 93


 3169              		.cfi_endproc
 3170              	.LFE160:
 3171              		.size	lv_draw_sw_blend_basic, .-lv_draw_sw_blend_basic
 3172              		.text
 3173              	.Letext0:
 3174              		.file 4 "c:\\program files (x86)\\cypress\\psoc creator\\4.4\\psoc creator\\import\\gnu\\arm\\5.4.
 3175              		.file 5 "c:\\program files (x86)\\cypress\\psoc creator\\4.4\\psoc creator\\import\\gnu\\arm\\5.4.
 3176              		.file 6 "c:\\projects\\paindrain\\arduinolcd\\test\\pain drain\\libraries\\lvgl\\src\\misc\\lv_typ
 3177              		.file 7 "c:\\program files (x86)\\cypress\\psoc creator\\4.4\\psoc creator\\import\\gnu\\arm\\5.4.
 3178              		.file 8 "c:\\projects\\paindrain\\arduinolcd\\test\\pain drain\\libraries\\lvgl\\src\\font\\lv_fon
 3179              		.file 9 "c:\\projects\\paindrain\\arduinolcd\\test\\pain drain\\libraries\\lvgl\\src\\misc\\lv_txt
 3180              		.file 10 "c:\\projects\\paindrain\\arduinolcd\\test\\pain drain\\libraries\\lvgl\\src\\misc\\lv_bi
 3181              		.file 11 "c:\\projects\\paindrain\\arduinolcd\\test\\pain drain\\libraries\\lvgl\\src\\misc\\lv_st
 3182              		.file 12 "..\\..\\..\\arduinoLCD\\test\\Pain Drain\\libraries\\lvgl\\src\\draw\\sw\\../lv_draw_mas
 3183              		.file 13 "..\\..\\..\\arduinoLCD\\test\\Pain Drain\\libraries\\lvgl\\src\\draw\\sw\\lv_draw_sw_ble
 3184              		.file 14 "..\\..\\..\\arduinoLCD\\test\\Pain Drain\\libraries\\lvgl\\src\\draw\\sw\\../lv_img_buf.
 3185              		.file 15 "c:\\projects\\paindrain\\arduinolcd\\test\\pain drain\\libraries\\lvgl\\src\\core\\lv_ob
 3186              		.file 16 "..\\..\\..\\arduinoLCD\\test\\Pain Drain\\libraries\\lvgl\\src\\draw\\sw\\../lv_draw_rec
 3187              		.file 17 "..\\..\\..\\arduinoLCD\\test\\Pain Drain\\libraries\\lvgl\\src\\draw\\sw\\../lv_draw_lab
 3188              		.file 18 "..\\..\\..\\arduinoLCD\\test\\Pain Drain\\libraries\\lvgl\\src\\draw\\sw\\../lv_draw_img
 3189              		.file 19 "..\\..\\..\\arduinoLCD\\test\\Pain Drain\\libraries\\lvgl\\src\\draw\\sw\\../lv_draw_lin
 3190              		.file 20 "..\\..\\..\\arduinoLCD\\test\\Pain Drain\\libraries\\lvgl\\src\\draw\\sw\\../lv_draw_arc
 3191              		.file 21 "..\\..\\..\\arduinoLCD\\test\\Pain Drain\\libraries\\lvgl\\src\\draw\\sw\\../lv_draw_lay
 3192              		.file 22 "..\\..\\..\\arduinoLCD\\test\\Pain Drain\\libraries\\lvgl\\src\\draw\\sw\\../lv_draw.h"
 3193              		.file 23 "c:\\projects\\paindrain\\arduinolcd\\test\\pain drain\\libraries\\lvgl\\src\\misc\\lv_ti
 3194              		.file 24 "c:\\projects\\paindrain\\arduinolcd\\test\\pain drain\\libraries\\lvgl\\src\\hal\\lv_hal
 3195              		.file 25 "c:\\projects\\paindrain\\arduinolcd\\test\\pain drain\\libraries\\lvgl\\src\\core\\lv_gr
 3196              		.file 26 "c:\\projects\\paindrain\\arduinolcd\\test\\pain drain\\libraries\\lvgl\\src\\misc\\lv_ll
 3197              		.file 27 "..\\..\\..\\arduinoLCD\\test\\Pain Drain\\libraries\\lvgl\\src\\draw\\sw\\lv_draw_sw.h"
 3198              		.file 28 "c:\\projects\\paindrain\\arduinolcd\\test\\pain drain\\libraries\\lvgl\\src\\core\\lv_ob
 3199              		.file 29 "c:\\projects\\paindrain\\arduinolcd\\test\\pain drain\\libraries\\lvgl\\src\\core\\lv_ob
 3200              		.file 30 "c:\\projects\\paindrain\\arduinolcd\\test\\pain drain\\libraries\\lvgl\\src\\core\\lv_ob
 3201              		.file 31 "c:\\projects\\paindrain\\arduinolcd\\test\\pain drain\\libraries\\lvgl\\src\\core\\lv_ev
 3202              		.file 32 "c:\\projects\\paindrain\\arduinolcd\\test\\pain drain\\libraries\\lvgl\\src\\core\\lv_re
 3203              		.file 33 "c:\\projects\\paindrain\\arduinolcd\\test\\pain drain\\libraries\\lvgl\\src\\misc\\lv_me
 3204              		.section	.debug_info,"",%progbits
 3205              	.Ldebug_info0:
 3206 0000 9F320000 		.4byte	0x329f
 3207 0004 0400     		.2byte	0x4
 3208 0006 00000000 		.4byte	.Ldebug_abbrev0
 3209 000a 04       		.byte	0x4
 3210 000b 01       		.uleb128 0x1
 3211 000c F40D0000 		.4byte	.LASF537
 3212 0010 0C       		.byte	0xc
 3213 0011 7A180000 		.4byte	.LASF538
 3214 0015 FD1A0000 		.4byte	.LASF539
 3215 0019 18000000 		.4byte	.Ldebug_ranges0+0x18
 3216 001d 00000000 		.4byte	0
 3217 0021 00000000 		.4byte	.Ldebug_line0
 3218 0025 02       		.uleb128 0x2
 3219 0026 F3140000 		.4byte	.LASF0
 3220 002a 04       		.byte	0x4
 3221 002b 1B       		.byte	0x1b
 3222 002c 30000000 		.4byte	0x30
 3223 0030 03       		.uleb128 0x3
 3224 0031 01       		.byte	0x1
 3225 0032 06       		.byte	0x6
ARM GAS  C:\Users\haske\AppData\Local\Temp\cc7ZkKza.s 			page 94


 3226 0033 33060000 		.4byte	.LASF2
 3227 0037 02       		.uleb128 0x2
 3228 0038 99030000 		.4byte	.LASF1
 3229 003c 04       		.byte	0x4
 3230 003d 1D       		.byte	0x1d
 3231 003e 42000000 		.4byte	0x42
 3232 0042 03       		.uleb128 0x3
 3233 0043 01       		.byte	0x1
 3234 0044 08       		.byte	0x8
 3235 0045 BE060000 		.4byte	.LASF3
 3236 0049 02       		.uleb128 0x2
 3237 004a 4E170000 		.4byte	.LASF4
 3238 004e 04       		.byte	0x4
 3239 004f 29       		.byte	0x29
 3240 0050 54000000 		.4byte	0x54
 3241 0054 03       		.uleb128 0x3
 3242 0055 02       		.byte	0x2
 3243 0056 05       		.byte	0x5
 3244 0057 31190000 		.4byte	.LASF5
 3245 005b 02       		.uleb128 0x2
 3246 005c 76090000 		.4byte	.LASF6
 3247 0060 04       		.byte	0x4
 3248 0061 2B       		.byte	0x2b
 3249 0062 66000000 		.4byte	0x66
 3250 0066 03       		.uleb128 0x3
 3251 0067 02       		.byte	0x2
 3252 0068 07       		.byte	0x7
 3253 0069 081D0000 		.4byte	.LASF7
 3254 006d 02       		.uleb128 0x2
 3255 006e C81D0000 		.4byte	.LASF8
 3256 0072 04       		.byte	0x4
 3257 0073 3F       		.byte	0x3f
 3258 0074 78000000 		.4byte	0x78
 3259 0078 03       		.uleb128 0x3
 3260 0079 04       		.byte	0x4
 3261 007a 05       		.byte	0x5
 3262 007b 7E040000 		.4byte	.LASF9
 3263 007f 02       		.uleb128 0x2
 3264 0080 EA0F0000 		.4byte	.LASF10
 3265 0084 04       		.byte	0x4
 3266 0085 41       		.byte	0x41
 3267 0086 8A000000 		.4byte	0x8a
 3268 008a 03       		.uleb128 0x3
 3269 008b 04       		.byte	0x4
 3270 008c 07       		.byte	0x7
 3271 008d FB0C0000 		.4byte	.LASF11
 3272 0091 03       		.uleb128 0x3
 3273 0092 08       		.byte	0x8
 3274 0093 05       		.byte	0x5
 3275 0094 2A100000 		.4byte	.LASF12
 3276 0098 03       		.uleb128 0x3
 3277 0099 08       		.byte	0x8
 3278 009a 07       		.byte	0x7
 3279 009b 4D150000 		.4byte	.LASF13
 3280 009f 04       		.uleb128 0x4
 3281 00a0 04       		.byte	0x4
 3282 00a1 05       		.byte	0x5
ARM GAS  C:\Users\haske\AppData\Local\Temp\cc7ZkKza.s 			page 95


 3283 00a2 696E7400 		.ascii	"int\000"
 3284 00a6 02       		.uleb128 0x2
 3285 00a7 CC170000 		.4byte	.LASF14
 3286 00ab 04       		.byte	0x4
 3287 00ac CA       		.byte	0xca
 3288 00ad B1000000 		.4byte	0xb1
 3289 00b1 03       		.uleb128 0x3
 3290 00b2 04       		.byte	0x4
 3291 00b3 07       		.byte	0x7
 3292 00b4 C0110000 		.4byte	.LASF15
 3293 00b8 02       		.uleb128 0x2
 3294 00b9 09000000 		.4byte	.LASF16
 3295 00bd 05       		.byte	0x5
 3296 00be 14       		.byte	0x14
 3297 00bf 25000000 		.4byte	0x25
 3298 00c3 02       		.uleb128 0x2
 3299 00c4 3F060000 		.4byte	.LASF17
 3300 00c8 05       		.byte	0x5
 3301 00c9 18       		.byte	0x18
 3302 00ca 37000000 		.4byte	0x37
 3303 00ce 02       		.uleb128 0x2
 3304 00cf E9190000 		.4byte	.LASF18
 3305 00d3 05       		.byte	0x5
 3306 00d4 20       		.byte	0x20
 3307 00d5 49000000 		.4byte	0x49
 3308 00d9 02       		.uleb128 0x2
 3309 00da D0150000 		.4byte	.LASF19
 3310 00de 05       		.byte	0x5
 3311 00df 24       		.byte	0x24
 3312 00e0 5B000000 		.4byte	0x5b
 3313 00e4 02       		.uleb128 0x2
 3314 00e5 EF000000 		.4byte	.LASF20
 3315 00e9 05       		.byte	0x5
 3316 00ea 2C       		.byte	0x2c
 3317 00eb 6D000000 		.4byte	0x6d
 3318 00ef 02       		.uleb128 0x2
 3319 00f0 951C0000 		.4byte	.LASF21
 3320 00f4 05       		.byte	0x5
 3321 00f5 30       		.byte	0x30
 3322 00f6 7F000000 		.4byte	0x7f
 3323 00fa 02       		.uleb128 0x2
 3324 00fb DE0E0000 		.4byte	.LASF22
 3325 00ff 05       		.byte	0x5
 3326 0100 48       		.byte	0x48
 3327 0101 A6000000 		.4byte	0xa6
 3328 0105 02       		.uleb128 0x2
 3329 0106 A9130000 		.4byte	.LASF23
 3330 010a 06       		.byte	0x6
 3331 010b 2F       		.byte	0x2f
 3332 010c C3000000 		.4byte	0xc3
 3333 0110 02       		.uleb128 0x2
 3334 0111 B1160000 		.4byte	.LASF24
 3335 0115 06       		.byte	0x6
 3336 0116 33       		.byte	0x33
 3337 0117 FA000000 		.4byte	0xfa
 3338 011b 02       		.uleb128 0x2
 3339 011c 5D000000 		.4byte	.LASF25
ARM GAS  C:\Users\haske\AppData\Local\Temp\cc7ZkKza.s 			page 96


 3340 0120 07       		.byte	0x7
 3341 0121 D8       		.byte	0xd8
 3342 0122 B1000000 		.4byte	0xb1
 3343 0126 03       		.uleb128 0x3
 3344 0127 08       		.byte	0x8
 3345 0128 04       		.byte	0x4
 3346 0129 DC130000 		.4byte	.LASF26
 3347 012d 03       		.uleb128 0x3
 3348 012e 04       		.byte	0x4
 3349 012f 07       		.byte	0x7
 3350 0130 6A000000 		.4byte	.LASF27
 3351 0134 05       		.uleb128 0x5
 3352 0135 04       		.byte	0x4
 3353 0136 03       		.uleb128 0x3
 3354 0137 01       		.byte	0x1
 3355 0138 08       		.byte	0x8
 3356 0139 A1080000 		.4byte	.LASF28
 3357 013d 06       		.uleb128 0x6
 3358 013e 01       		.byte	0x1
 3359 013f 42000000 		.4byte	0x42
 3360 0143 03       		.byte	0x3
 3361 0144 29       		.byte	0x29
 3362 0145 98010000 		.4byte	0x198
 3363 0149 07       		.uleb128 0x7
 3364 014a 30110000 		.4byte	.LASF29
 3365 014e 00       		.byte	0
 3366 014f 07       		.uleb128 0x7
 3367 0150 A70E0000 		.4byte	.LASF30
 3368 0154 00       		.byte	0
 3369 0155 07       		.uleb128 0x7
 3370 0156 BE160000 		.4byte	.LASF31
 3371 015a 19       		.byte	0x19
 3372 015b 07       		.uleb128 0x7
 3373 015c BC170000 		.4byte	.LASF32
 3374 0160 33       		.byte	0x33
 3375 0161 07       		.uleb128 0x7
 3376 0162 52180000 		.4byte	.LASF33
 3377 0166 4C       		.byte	0x4c
 3378 0167 07       		.uleb128 0x7
 3379 0168 DF190000 		.4byte	.LASF34
 3380 016c 66       		.byte	0x66
 3381 016d 07       		.uleb128 0x7
 3382 016e E11A0000 		.4byte	.LASF35
 3383 0172 7F       		.byte	0x7f
 3384 0173 07       		.uleb128 0x7
 3385 0174 1E1C0000 		.4byte	.LASF36
 3386 0178 99       		.byte	0x99
 3387 0179 07       		.uleb128 0x7
 3388 017a FE1C0000 		.4byte	.LASF37
 3389 017e B2       		.byte	0xb2
 3390 017f 07       		.uleb128 0x7
 3391 0180 151E0000 		.4byte	.LASF38
 3392 0184 CC       		.byte	0xcc
 3393 0185 07       		.uleb128 0x7
 3394 0186 FC1E0000 		.4byte	.LASF39
 3395 018a E5       		.byte	0xe5
 3396 018b 07       		.uleb128 0x7
ARM GAS  C:\Users\haske\AppData\Local\Temp\cc7ZkKza.s 			page 97


 3397 018c 60130000 		.4byte	.LASF40
 3398 0190 FF       		.byte	0xff
 3399 0191 07       		.uleb128 0x7
 3400 0192 34140000 		.4byte	.LASF41
 3401 0196 FF       		.byte	0xff
 3402 0197 00       		.byte	0
 3403 0198 08       		.uleb128 0x8
 3404 0199 02       		.byte	0x2
 3405 019a 03       		.byte	0x3
 3406 019b D1       		.byte	0xd1
 3407 019c CE010000 		.4byte	0x1ce
 3408 01a0 09       		.uleb128 0x9
 3409 01a1 9F060000 		.4byte	.LASF42
 3410 01a5 03       		.byte	0x3
 3411 01a6 D3       		.byte	0xd3
 3412 01a7 D9000000 		.4byte	0xd9
 3413 01ab 02       		.byte	0x2
 3414 01ac 05       		.byte	0x5
 3415 01ad 0B       		.byte	0xb
 3416 01ae 00       		.byte	0
 3417 01af 09       		.uleb128 0x9
 3418 01b0 CF1C0000 		.4byte	.LASF43
 3419 01b4 03       		.byte	0x3
 3420 01b5 D4       		.byte	0xd4
 3421 01b6 D9000000 		.4byte	0xd9
 3422 01ba 02       		.byte	0x2
 3423 01bb 06       		.byte	0x6
 3424 01bc 05       		.byte	0x5
 3425 01bd 00       		.byte	0
 3426 01be 0A       		.uleb128 0xa
 3427 01bf 72656400 		.ascii	"red\000"
 3428 01c3 03       		.byte	0x3
 3429 01c4 D5       		.byte	0xd5
 3430 01c5 D9000000 		.4byte	0xd9
 3431 01c9 02       		.byte	0x2
 3432 01ca 05       		.byte	0x5
 3433 01cb 00       		.byte	0
 3434 01cc 00       		.byte	0
 3435 01cd 00       		.byte	0
 3436 01ce 0B       		.uleb128 0xb
 3437 01cf 02       		.byte	0x2
 3438 01d0 03       		.byte	0x3
 3439 01d1 D0       		.byte	0xd0
 3440 01d2 EC010000 		.4byte	0x1ec
 3441 01d6 0C       		.uleb128 0xc
 3442 01d7 636800   		.ascii	"ch\000"
 3443 01da 03       		.byte	0x3
 3444 01db DC       		.byte	0xdc
 3445 01dc 98010000 		.4byte	0x198
 3446 01e0 0D       		.uleb128 0xd
 3447 01e1 A3170000 		.4byte	.LASF44
 3448 01e5 03       		.byte	0x3
 3449 01e6 DD       		.byte	0xdd
 3450 01e7 D9000000 		.4byte	0xd9
 3451 01eb 00       		.byte	0
 3452 01ec 02       		.uleb128 0x2
 3453 01ed 1E190000 		.4byte	.LASF45
ARM GAS  C:\Users\haske\AppData\Local\Temp\cc7ZkKza.s 			page 98


 3454 01f1 03       		.byte	0x3
 3455 01f2 DE       		.byte	0xde
 3456 01f3 CE010000 		.4byte	0x1ce
 3457 01f7 02       		.uleb128 0x2
 3458 01f8 FC150000 		.4byte	.LASF46
 3459 01fc 03       		.byte	0x3
 3460 01fd EB       		.byte	0xeb
 3461 01fe EC010000 		.4byte	0x1ec
 3462 0202 02       		.uleb128 0x2
 3463 0203 CD000000 		.4byte	.LASF47
 3464 0207 03       		.byte	0x3
 3465 0208 F5       		.byte	0xf5
 3466 0209 C3000000 		.4byte	0xc3
 3467 020d 02       		.uleb128 0x2
 3468 020e 281D0000 		.4byte	.LASF48
 3469 0212 02       		.byte	0x2
 3470 0213 1B       		.byte	0x1b
 3471 0214 CE000000 		.4byte	0xce
 3472 0218 08       		.uleb128 0x8
 3473 0219 04       		.byte	0x4
 3474 021a 02       		.byte	0x2
 3475 021b 25       		.byte	0x25
 3476 021c 35020000 		.4byte	0x235
 3477 0220 0E       		.uleb128 0xe
 3478 0221 7800     		.ascii	"x\000"
 3479 0223 02       		.byte	0x2
 3480 0224 26       		.byte	0x26
 3481 0225 0D020000 		.4byte	0x20d
 3482 0229 00       		.byte	0
 3483 022a 0E       		.uleb128 0xe
 3484 022b 7900     		.ascii	"y\000"
 3485 022d 02       		.byte	0x2
 3486 022e 27       		.byte	0x27
 3487 022f 0D020000 		.4byte	0x20d
 3488 0233 02       		.byte	0x2
 3489 0234 00       		.byte	0
 3490 0235 02       		.uleb128 0x2
 3491 0236 25010000 		.4byte	.LASF49
 3492 023a 02       		.byte	0x2
 3493 023b 28       		.byte	0x28
 3494 023c 18020000 		.4byte	0x218
 3495 0240 08       		.uleb128 0x8
 3496 0241 08       		.byte	0x8
 3497 0242 02       		.byte	0x2
 3498 0243 2B       		.byte	0x2b
 3499 0244 75020000 		.4byte	0x275
 3500 0248 0E       		.uleb128 0xe
 3501 0249 783100   		.ascii	"x1\000"
 3502 024c 02       		.byte	0x2
 3503 024d 2C       		.byte	0x2c
 3504 024e 0D020000 		.4byte	0x20d
 3505 0252 00       		.byte	0
 3506 0253 0E       		.uleb128 0xe
 3507 0254 793100   		.ascii	"y1\000"
 3508 0257 02       		.byte	0x2
 3509 0258 2D       		.byte	0x2d
 3510 0259 0D020000 		.4byte	0x20d
ARM GAS  C:\Users\haske\AppData\Local\Temp\cc7ZkKza.s 			page 99


 3511 025d 02       		.byte	0x2
 3512 025e 0E       		.uleb128 0xe
 3513 025f 783200   		.ascii	"x2\000"
 3514 0262 02       		.byte	0x2
 3515 0263 2E       		.byte	0x2e
 3516 0264 0D020000 		.4byte	0x20d
 3517 0268 04       		.byte	0x4
 3518 0269 0E       		.uleb128 0xe
 3519 026a 793200   		.ascii	"y2\000"
 3520 026d 02       		.byte	0x2
 3521 026e 2F       		.byte	0x2f
 3522 026f 0D020000 		.4byte	0x20d
 3523 0273 06       		.byte	0x6
 3524 0274 00       		.byte	0
 3525 0275 02       		.uleb128 0x2
 3526 0276 390B0000 		.4byte	.LASF50
 3527 027a 02       		.byte	0x2
 3528 027b 30       		.byte	0x30
 3529 027c 40020000 		.4byte	0x240
 3530 0280 02       		.uleb128 0x2
 3531 0281 040A0000 		.4byte	.LASF51
 3532 0285 02       		.byte	0x2
 3533 0286 59       		.byte	0x59
 3534 0287 C3000000 		.4byte	0xc3
 3535 028b 08       		.uleb128 0x8
 3536 028c 10       		.byte	0x10
 3537 028d 08       		.byte	0x8
 3538 028e 29       		.byte	0x29
 3539 028f FA020000 		.4byte	0x2fa
 3540 0293 0F       		.uleb128 0xf
 3541 0294 C20D0000 		.4byte	.LASF52
 3542 0298 08       		.byte	0x8
 3543 0299 2B       		.byte	0x2b
 3544 029a 82030000 		.4byte	0x382
 3545 029e 00       		.byte	0
 3546 029f 0F       		.uleb128 0xf
 3547 02a0 64000000 		.4byte	.LASF53
 3548 02a4 08       		.byte	0x8
 3549 02a5 2C       		.byte	0x2c
 3550 02a6 D9000000 		.4byte	0xd9
 3551 02aa 04       		.byte	0x4
 3552 02ab 0F       		.uleb128 0xf
 3553 02ac 2B190000 		.4byte	.LASF54
 3554 02b0 08       		.byte	0x8
 3555 02b1 2D       		.byte	0x2d
 3556 02b2 D9000000 		.4byte	0xd9
 3557 02b6 06       		.byte	0x6
 3558 02b7 0F       		.uleb128 0xf
 3559 02b8 EC180000 		.4byte	.LASF55
 3560 02bc 08       		.byte	0x8
 3561 02bd 2E       		.byte	0x2e
 3562 02be D9000000 		.4byte	0xd9
 3563 02c2 08       		.byte	0x8
 3564 02c3 0F       		.uleb128 0xf
 3565 02c4 99070000 		.4byte	.LASF56
 3566 02c8 08       		.byte	0x8
 3567 02c9 2F       		.byte	0x2f
ARM GAS  C:\Users\haske\AppData\Local\Temp\cc7ZkKza.s 			page 100


 3568 02ca CE000000 		.4byte	0xce
 3569 02ce 0A       		.byte	0xa
 3570 02cf 0F       		.uleb128 0xf
 3571 02d0 9F070000 		.4byte	.LASF57
 3572 02d4 08       		.byte	0x8
 3573 02d5 30       		.byte	0x30
 3574 02d6 CE000000 		.4byte	0xce
 3575 02da 0C       		.byte	0xc
 3576 02db 0A       		.uleb128 0xa
 3577 02dc 62707000 		.ascii	"bpp\000"
 3578 02e0 08       		.byte	0x8
 3579 02e1 31       		.byte	0x31
 3580 02e2 C3000000 		.4byte	0xc3
 3581 02e6 01       		.byte	0x1
 3582 02e7 04       		.byte	0x4
 3583 02e8 04       		.byte	0x4
 3584 02e9 0E       		.byte	0xe
 3585 02ea 09       		.uleb128 0x9
 3586 02eb D81E0000 		.4byte	.LASF58
 3587 02ef 08       		.byte	0x8
 3588 02f0 32       		.byte	0x32
 3589 02f1 C3000000 		.4byte	0xc3
 3590 02f5 01       		.byte	0x1
 3591 02f6 01       		.byte	0x1
 3592 02f7 03       		.byte	0x3
 3593 02f8 0E       		.byte	0xe
 3594 02f9 00       		.byte	0
 3595 02fa 10       		.uleb128 0x10
 3596 02fb D70F0000 		.4byte	.LASF205
 3597 02ff 1C       		.byte	0x1c
 3598 0300 08       		.byte	0x8
 3599 0301 40       		.byte	0x40
 3600 0302 82030000 		.4byte	0x382
 3601 0306 0F       		.uleb128 0xf
 3602 0307 BA1D0000 		.4byte	.LASF59
 3603 030b 08       		.byte	0x8
 3604 030c 42       		.byte	0x42
 3605 030d C3030000 		.4byte	0x3c3
 3606 0311 00       		.byte	0
 3607 0312 0F       		.uleb128 0xf
 3608 0313 84060000 		.4byte	.LASF60
 3609 0317 08       		.byte	0x8
 3610 0318 45       		.byte	0x45
 3611 0319 E8030000 		.4byte	0x3e8
 3612 031d 04       		.byte	0x4
 3613 031e 0F       		.uleb128 0xf
 3614 031f 40010000 		.4byte	.LASF61
 3615 0323 08       		.byte	0x8
 3616 0324 48       		.byte	0x48
 3617 0325 0D020000 		.4byte	0x20d
 3618 0329 08       		.byte	0x8
 3619 032a 0F       		.uleb128 0xf
 3620 032b 5B190000 		.4byte	.LASF62
 3621 032f 08       		.byte	0x8
 3622 0330 49       		.byte	0x49
 3623 0331 0D020000 		.4byte	0x20d
 3624 0335 0A       		.byte	0xa
ARM GAS  C:\Users\haske\AppData\Local\Temp\cc7ZkKza.s 			page 101


 3625 0336 09       		.uleb128 0x9
 3626 0337 2E140000 		.4byte	.LASF63
 3627 033b 08       		.byte	0x8
 3628 033c 4A       		.byte	0x4a
 3629 033d C3000000 		.4byte	0xc3
 3630 0341 01       		.byte	0x1
 3631 0342 02       		.byte	0x2
 3632 0343 06       		.byte	0x6
 3633 0344 0C       		.byte	0xc
 3634 0345 0F       		.uleb128 0xf
 3635 0346 B8080000 		.4byte	.LASF64
 3636 034a 08       		.byte	0x8
 3637 034b 4C       		.byte	0x4c
 3638 034c B8000000 		.4byte	0xb8
 3639 0350 0D       		.byte	0xd
 3640 0351 0F       		.uleb128 0xf
 3641 0352 EC100000 		.4byte	.LASF65
 3642 0356 08       		.byte	0x8
 3643 0357 4D       		.byte	0x4d
 3644 0358 B8000000 		.4byte	0xb8
 3645 035c 0E       		.byte	0xe
 3646 035d 0E       		.uleb128 0xe
 3647 035e 64736300 		.ascii	"dsc\000"
 3648 0362 08       		.byte	0x8
 3649 0363 4F       		.byte	0x4f
 3650 0364 EE030000 		.4byte	0x3ee
 3651 0368 10       		.byte	0x10
 3652 0369 0F       		.uleb128 0xf
 3653 036a EA0A0000 		.4byte	.LASF66
 3654 036e 08       		.byte	0x8
 3655 036f 50       		.byte	0x50
 3656 0370 82030000 		.4byte	0x382
 3657 0374 14       		.byte	0x14
 3658 0375 0F       		.uleb128 0xf
 3659 0376 6B1D0000 		.4byte	.LASF67
 3660 037a 08       		.byte	0x8
 3661 037b 52       		.byte	0x52
 3662 037c 34010000 		.4byte	0x134
 3663 0380 18       		.byte	0x18
 3664 0381 00       		.byte	0
 3665 0382 11       		.uleb128 0x11
 3666 0383 04       		.byte	0x4
 3667 0384 88030000 		.4byte	0x388
 3668 0388 12       		.uleb128 0x12
 3669 0389 FA020000 		.4byte	0x2fa
 3670 038d 02       		.uleb128 0x2
 3671 038e B9120000 		.4byte	.LASF68
 3672 0392 08       		.byte	0x8
 3673 0393 33       		.byte	0x33
 3674 0394 8B020000 		.4byte	0x28b
 3675 0398 13       		.uleb128 0x13
 3676 0399 B6030000 		.4byte	0x3b6
 3677 039d B6030000 		.4byte	0x3b6
 3678 03a1 14       		.uleb128 0x14
 3679 03a2 82030000 		.4byte	0x382
 3680 03a6 14       		.uleb128 0x14
 3681 03a7 BD030000 		.4byte	0x3bd
ARM GAS  C:\Users\haske\AppData\Local\Temp\cc7ZkKza.s 			page 102


 3682 03ab 14       		.uleb128 0x14
 3683 03ac EF000000 		.4byte	0xef
 3684 03b0 14       		.uleb128 0x14
 3685 03b1 EF000000 		.4byte	0xef
 3686 03b5 00       		.byte	0
 3687 03b6 03       		.uleb128 0x3
 3688 03b7 01       		.byte	0x1
 3689 03b8 02       		.byte	0x2
 3690 03b9 E0070000 		.4byte	.LASF69
 3691 03bd 11       		.uleb128 0x11
 3692 03be 04       		.byte	0x4
 3693 03bf 8D030000 		.4byte	0x38d
 3694 03c3 11       		.uleb128 0x11
 3695 03c4 04       		.byte	0x4
 3696 03c5 98030000 		.4byte	0x398
 3697 03c9 13       		.uleb128 0x13
 3698 03ca DD030000 		.4byte	0x3dd
 3699 03ce DD030000 		.4byte	0x3dd
 3700 03d2 14       		.uleb128 0x14
 3701 03d3 82030000 		.4byte	0x382
 3702 03d7 14       		.uleb128 0x14
 3703 03d8 EF000000 		.4byte	0xef
 3704 03dc 00       		.byte	0
 3705 03dd 11       		.uleb128 0x11
 3706 03de 04       		.byte	0x4
 3707 03df E3030000 		.4byte	0x3e3
 3708 03e3 12       		.uleb128 0x12
 3709 03e4 C3000000 		.4byte	0xc3
 3710 03e8 11       		.uleb128 0x11
 3711 03e9 04       		.byte	0x4
 3712 03ea C9030000 		.4byte	0x3c9
 3713 03ee 11       		.uleb128 0x11
 3714 03ef 04       		.byte	0x4
 3715 03f0 F4030000 		.4byte	0x3f4
 3716 03f4 15       		.uleb128 0x15
 3717 03f5 02       		.uleb128 0x2
 3718 03f6 D51C0000 		.4byte	.LASF70
 3719 03fa 08       		.byte	0x8
 3720 03fb 54       		.byte	0x54
 3721 03fc FA020000 		.4byte	0x2fa
 3722 0400 02       		.uleb128 0x2
 3723 0401 76160000 		.4byte	.LASF71
 3724 0405 09       		.byte	0x9
 3725 0406 30       		.byte	0x30
 3726 0407 C3000000 		.4byte	0xc3
 3727 040b 02       		.uleb128 0x2
 3728 040c CD100000 		.4byte	.LASF72
 3729 0410 09       		.byte	0x9
 3730 0411 42       		.byte	0x42
 3731 0412 C3000000 		.4byte	0xc3
 3732 0416 02       		.uleb128 0x2
 3733 0417 A5070000 		.4byte	.LASF73
 3734 041b 0A       		.byte	0xa
 3735 041c 2A       		.byte	0x2a
 3736 041d C3000000 		.4byte	0xc3
 3737 0421 06       		.uleb128 0x6
 3738 0422 01       		.byte	0x1
ARM GAS  C:\Users\haske\AppData\Local\Temp\cc7ZkKza.s 			page 103


 3739 0423 42000000 		.4byte	0x42
 3740 0427 0B       		.byte	0xb
 3741 0428 56       		.byte	0x56
 3742 0429 4C040000 		.4byte	0x44c
 3743 042d 07       		.uleb128 0x7
 3744 042e D9150000 		.4byte	.LASF74
 3745 0432 00       		.byte	0
 3746 0433 07       		.uleb128 0x7
 3747 0434 F0050000 		.4byte	.LASF75
 3748 0438 01       		.byte	0x1
 3749 0439 07       		.uleb128 0x7
 3750 043a AC010000 		.4byte	.LASF76
 3751 043e 02       		.byte	0x2
 3752 043f 07       		.uleb128 0x7
 3753 0440 65010000 		.4byte	.LASF77
 3754 0444 03       		.byte	0x3
 3755 0445 07       		.uleb128 0x7
 3756 0446 0B150000 		.4byte	.LASF78
 3757 044a 04       		.byte	0x4
 3758 044b 00       		.byte	0
 3759 044c 02       		.uleb128 0x2
 3760 044d 4C010000 		.4byte	.LASF79
 3761 0451 0B       		.byte	0xb
 3762 0452 5E       		.byte	0x5e
 3763 0453 C3000000 		.4byte	0xc3
 3764 0457 02       		.uleb128 0x2
 3765 0458 0E100000 		.4byte	.LASF80
 3766 045c 0B       		.byte	0xb
 3767 045d 6A       		.byte	0x6a
 3768 045e C3000000 		.4byte	0xc3
 3769 0462 02       		.uleb128 0x2
 3770 0463 0C180000 		.4byte	.LASF81
 3771 0467 0B       		.byte	0xb
 3772 0468 79       		.byte	0x79
 3773 0469 C3000000 		.4byte	0xc3
 3774 046d 02       		.uleb128 0x2
 3775 046e E91D0000 		.4byte	.LASF82
 3776 0472 0B       		.byte	0xb
 3777 0473 84       		.byte	0x84
 3778 0474 C3000000 		.4byte	0xc3
 3779 0478 02       		.uleb128 0x2
 3780 0479 EE130000 		.4byte	.LASF83
 3781 047d 0B       		.byte	0xb
 3782 047e 90       		.byte	0x90
 3783 047f C3000000 		.4byte	0xc3
 3784 0483 08       		.uleb128 0x8
 3785 0484 04       		.byte	0x4
 3786 0485 0B       		.byte	0xb
 3787 0486 95       		.byte	0x95
 3788 0487 A4040000 		.4byte	0x4a4
 3789 048b 0F       		.uleb128 0xf
 3790 048c C6170000 		.4byte	.LASF84
 3791 0490 0B       		.byte	0xb
 3792 0491 96       		.byte	0x96
 3793 0492 F7010000 		.4byte	0x1f7
 3794 0496 00       		.byte	0
 3795 0497 0F       		.uleb128 0xf
ARM GAS  C:\Users\haske\AppData\Local\Temp\cc7ZkKza.s 			page 104


 3796 0498 1D180000 		.4byte	.LASF85
 3797 049c 0B       		.byte	0xb
 3798 049d 97       		.byte	0x97
 3799 049e C3000000 		.4byte	0xc3
 3800 04a2 02       		.byte	0x2
 3801 04a3 00       		.byte	0
 3802 04a4 02       		.uleb128 0x2
 3803 04a5 EA1B0000 		.4byte	.LASF86
 3804 04a9 0B       		.byte	0xb
 3805 04aa 98       		.byte	0x98
 3806 04ab 83040000 		.4byte	0x483
 3807 04af 08       		.uleb128 0x8
 3808 04b0 0A       		.byte	0xa
 3809 04b1 0B       		.byte	0xb
 3810 04b2 9B       		.byte	0x9b
 3811 04b3 EE040000 		.4byte	0x4ee
 3812 04b7 0F       		.uleb128 0xf
 3813 04b8 D8170000 		.4byte	.LASF87
 3814 04bc 0B       		.byte	0xb
 3815 04bd 9C       		.byte	0x9c
 3816 04be EE040000 		.4byte	0x4ee
 3817 04c2 00       		.byte	0
 3818 04c3 0F       		.uleb128 0xf
 3819 04c4 56090000 		.4byte	.LASF88
 3820 04c8 0B       		.byte	0xb
 3821 04c9 9D       		.byte	0x9d
 3822 04ca C3000000 		.4byte	0xc3
 3823 04ce 08       		.byte	0x8
 3824 04cf 0A       		.uleb128 0xa
 3825 04d0 64697200 		.ascii	"dir\000"
 3826 04d4 0B       		.byte	0xb
 3827 04d5 9E       		.byte	0x9e
 3828 04d6 6D040000 		.4byte	0x46d
 3829 04da 01       		.byte	0x1
 3830 04db 03       		.byte	0x3
 3831 04dc 05       		.byte	0x5
 3832 04dd 09       		.byte	0x9
 3833 04de 09       		.uleb128 0x9
 3834 04df F71C0000 		.4byte	.LASF89
 3835 04e3 0B       		.byte	0xb
 3836 04e4 A0       		.byte	0xa0
 3837 04e5 78040000 		.4byte	0x478
 3838 04e9 01       		.byte	0x1
 3839 04ea 03       		.byte	0x3
 3840 04eb 02       		.byte	0x2
 3841 04ec 09       		.byte	0x9
 3842 04ed 00       		.byte	0
 3843 04ee 16       		.uleb128 0x16
 3844 04ef A4040000 		.4byte	0x4a4
 3845 04f3 FE040000 		.4byte	0x4fe
 3846 04f7 17       		.uleb128 0x17
 3847 04f8 2D010000 		.4byte	0x12d
 3848 04fc 01       		.byte	0x1
 3849 04fd 00       		.byte	0
 3850 04fe 02       		.uleb128 0x2
 3851 04ff 941E0000 		.4byte	.LASF90
 3852 0503 0B       		.byte	0xb
ARM GAS  C:\Users\haske\AppData\Local\Temp\cc7ZkKza.s 			page 105


 3853 0504 A2       		.byte	0xa2
 3854 0505 AF040000 		.4byte	0x4af
 3855 0509 0B       		.uleb128 0xb
 3856 050a 04       		.byte	0x4
 3857 050b 0B       		.byte	0xb
 3858 050c A7       		.byte	0xa7
 3859 050d 33050000 		.4byte	0x533
 3860 0511 0C       		.uleb128 0xc
 3861 0512 6E756D00 		.ascii	"num\000"
 3862 0516 0B       		.byte	0xb
 3863 0517 A8       		.byte	0xa8
 3864 0518 E4000000 		.4byte	0xe4
 3865 051c 0C       		.uleb128 0xc
 3866 051d 70747200 		.ascii	"ptr\000"
 3867 0521 0B       		.byte	0xb
 3868 0522 A9       		.byte	0xa9
 3869 0523 EE030000 		.4byte	0x3ee
 3870 0527 0D       		.uleb128 0xd
 3871 0528 C6170000 		.4byte	.LASF84
 3872 052c 0B       		.byte	0xb
 3873 052d AA       		.byte	0xaa
 3874 052e F7010000 		.4byte	0x1f7
 3875 0532 00       		.byte	0
 3876 0533 02       		.uleb128 0x2
 3877 0534 E3110000 		.4byte	.LASF91
 3878 0538 0B       		.byte	0xb
 3879 0539 AB       		.byte	0xab
 3880 053a 09050000 		.4byte	0x509
 3881 053e 06       		.uleb128 0x6
 3882 053f 02       		.byte	0x2
 3883 0540 66000000 		.4byte	0x66
 3884 0544 0B       		.byte	0xb
 3885 0545 B2       		.byte	0xb2
 3886 0546 63070000 		.4byte	0x763
 3887 054a 07       		.uleb128 0x7
 3888 054b 970B0000 		.4byte	.LASF92
 3889 054f 00       		.byte	0
 3890 0550 07       		.uleb128 0x7
 3891 0551 13160000 		.4byte	.LASF93
 3892 0555 01       		.byte	0x1
 3893 0556 07       		.uleb128 0x7
 3894 0557 59160000 		.4byte	.LASF94
 3895 055b 02       		.byte	0x2
 3896 055c 07       		.uleb128 0x7
 3897 055d DE030000 		.4byte	.LASF95
 3898 0561 03       		.byte	0x3
 3899 0562 07       		.uleb128 0x7
 3900 0563 E3010000 		.4byte	.LASF96
 3901 0567 04       		.byte	0x4
 3902 0568 07       		.uleb128 0x7
 3903 0569 831B0000 		.4byte	.LASF97
 3904 056d 05       		.byte	0x5
 3905 056e 07       		.uleb128 0x7
 3906 056f 3E180000 		.4byte	.LASF98
 3907 0573 06       		.byte	0x6
 3908 0574 07       		.uleb128 0x7
 3909 0575 AB0F0000 		.4byte	.LASF99
ARM GAS  C:\Users\haske\AppData\Local\Temp\cc7ZkKza.s 			page 106


 3910 0579 07       		.byte	0x7
 3911 057a 07       		.uleb128 0x7
 3912 057b FD1B0000 		.4byte	.LASF100
 3913 057f 08       		.byte	0x8
 3914 0580 07       		.uleb128 0x7
 3915 0581 AF060000 		.4byte	.LASF101
 3916 0585 09       		.byte	0x9
 3917 0586 07       		.uleb128 0x7
 3918 0587 A9120000 		.4byte	.LASF102
 3919 058b 0A       		.byte	0xa
 3920 058c 07       		.uleb128 0x7
 3921 058d B7030000 		.4byte	.LASF103
 3922 0591 0B       		.byte	0xb
 3923 0592 07       		.uleb128 0x7
 3924 0593 531A0000 		.4byte	.LASF104
 3925 0597 10       		.byte	0x10
 3926 0598 07       		.uleb128 0x7
 3927 0599 4E0C0000 		.4byte	.LASF105
 3928 059d 11       		.byte	0x11
 3929 059e 07       		.uleb128 0x7
 3930 059f 150F0000 		.4byte	.LASF106
 3931 05a3 12       		.byte	0x12
 3932 05a4 07       		.uleb128 0x7
 3933 05a5 4B040000 		.4byte	.LASF107
 3934 05a9 13       		.byte	0x13
 3935 05aa 07       		.uleb128 0x7
 3936 05ab B00E0000 		.4byte	.LASF108
 3937 05af 14       		.byte	0x14
 3938 05b0 07       		.uleb128 0x7
 3939 05b1 41030000 		.4byte	.LASF109
 3940 05b5 15       		.byte	0x15
 3941 05b6 07       		.uleb128 0x7
 3942 05b7 2F090000 		.4byte	.LASF110
 3943 05bb 16       		.byte	0x16
 3944 05bc 07       		.uleb128 0x7
 3945 05bd 2C130000 		.4byte	.LASF111
 3946 05c1 17       		.byte	0x17
 3947 05c2 07       		.uleb128 0x7
 3948 05c3 B8090000 		.4byte	.LASF112
 3949 05c7 20       		.byte	0x20
 3950 05c8 07       		.uleb128 0x7
 3951 05c9 750C0000 		.4byte	.LASF113
 3952 05cd 21       		.byte	0x21
 3953 05ce 07       		.uleb128 0x7
 3954 05cf CC180000 		.4byte	.LASF114
 3955 05d3 22       		.byte	0x22
 3956 05d4 07       		.uleb128 0x7
 3957 05d5 6F060000 		.4byte	.LASF115
 3958 05d9 23       		.byte	0x23
 3959 05da 07       		.uleb128 0x7
 3960 05db 4E020000 		.4byte	.LASF116
 3961 05df 24       		.byte	0x24
 3962 05e0 07       		.uleb128 0x7
 3963 05e1 6E150000 		.4byte	.LASF117
 3964 05e5 25       		.byte	0x25
 3965 05e6 07       		.uleb128 0x7
 3966 05e7 B51E0000 		.4byte	.LASF118
ARM GAS  C:\Users\haske\AppData\Local\Temp\cc7ZkKza.s 			page 107


 3967 05eb 26       		.byte	0x26
 3968 05ec 07       		.uleb128 0x7
 3969 05ed 75030000 		.4byte	.LASF119
 3970 05f1 27       		.byte	0x27
 3971 05f2 07       		.uleb128 0x7
 3972 05f3 C8160000 		.4byte	.LASF120
 3973 05f7 28       		.byte	0x28
 3974 05f8 07       		.uleb128 0x7
 3975 05f9 961A0000 		.4byte	.LASF121
 3976 05fd 29       		.byte	0x29
 3977 05fe 07       		.uleb128 0x7
 3978 05ff F9030000 		.4byte	.LASF122
 3979 0603 2A       		.byte	0x2a
 3980 0604 07       		.uleb128 0x7
 3981 0605 4A080000 		.4byte	.LASF123
 3982 0609 2B       		.byte	0x2b
 3983 060a 07       		.uleb128 0x7
 3984 060b 2A050000 		.4byte	.LASF124
 3985 060f 2C       		.byte	0x2c
 3986 0610 07       		.uleb128 0x7
 3987 0611 BF140000 		.4byte	.LASF125
 3988 0615 30       		.byte	0x30
 3989 0616 07       		.uleb128 0x7
 3990 0617 6E050000 		.4byte	.LASF126
 3991 061b 31       		.byte	0x31
 3992 061c 07       		.uleb128 0x7
 3993 061d 0D030000 		.4byte	.LASF127
 3994 0621 32       		.byte	0x32
 3995 0622 07       		.uleb128 0x7
 3996 0623 84150000 		.4byte	.LASF128
 3997 0627 33       		.byte	0x33
 3998 0628 07       		.uleb128 0x7
 3999 0629 B21B0000 		.4byte	.LASF129
 4000 062d 34       		.byte	0x34
 4001 062e 07       		.uleb128 0x7
 4002 062f 4E0B0000 		.4byte	.LASF130
 4003 0633 35       		.byte	0x35
 4004 0634 07       		.uleb128 0x7
 4005 0635 541D0000 		.4byte	.LASF131
 4006 0639 36       		.byte	0x36
 4007 063a 07       		.uleb128 0x7
 4008 063b 41090000 		.4byte	.LASF132
 4009 063f 37       		.byte	0x37
 4010 0640 07       		.uleb128 0x7
 4011 0641 E71E0000 		.4byte	.LASF133
 4012 0645 38       		.byte	0x38
 4013 0646 07       		.uleb128 0x7
 4014 0647 04130000 		.4byte	.LASF134
 4015 064b 40       		.byte	0x40
 4016 064c 07       		.uleb128 0x7
 4017 064d 85160000 		.4byte	.LASF135
 4018 0651 41       		.byte	0x41
 4019 0652 07       		.uleb128 0x7
 4020 0653 9B160000 		.4byte	.LASF136
 4021 0657 42       		.byte	0x42
 4022 0658 07       		.uleb128 0x7
 4023 0659 A31D0000 		.4byte	.LASF137
ARM GAS  C:\Users\haske\AppData\Local\Temp\cc7ZkKza.s 			page 108


 4024 065d 43       		.byte	0x43
 4025 065e 07       		.uleb128 0x7
 4026 065f DA050000 		.4byte	.LASF138
 4027 0663 44       		.byte	0x44
 4028 0664 07       		.uleb128 0x7
 4029 0665 11040000 		.4byte	.LASF139
 4030 0669 45       		.byte	0x45
 4031 066a 07       		.uleb128 0x7
 4032 066b C30C0000 		.4byte	.LASF140
 4033 066f 46       		.byte	0x46
 4034 0670 07       		.uleb128 0x7
 4035 0671 68070000 		.4byte	.LASF141
 4036 0675 47       		.byte	0x47
 4037 0676 07       		.uleb128 0x7
 4038 0677 CA090000 		.4byte	.LASF142
 4039 067b 48       		.byte	0x48
 4040 067c 07       		.uleb128 0x7
 4041 067d AA1A0000 		.4byte	.LASF143
 4042 0681 49       		.byte	0x49
 4043 0682 07       		.uleb128 0x7
 4044 0683 750A0000 		.4byte	.LASF144
 4045 0687 4A       		.byte	0x4a
 4046 0688 07       		.uleb128 0x7
 4047 0689 96000000 		.4byte	.LASF145
 4048 068d 4B       		.byte	0x4b
 4049 068e 07       		.uleb128 0x7
 4050 068f 081C0000 		.4byte	.LASF146
 4051 0693 4C       		.byte	0x4c
 4052 0694 07       		.uleb128 0x7
 4053 0695 E00D0000 		.4byte	.LASF147
 4054 0699 4D       		.byte	0x4d
 4055 069a 07       		.uleb128 0x7
 4056 069b 850C0000 		.4byte	.LASF148
 4057 069f 4E       		.byte	0x4e
 4058 06a0 07       		.uleb128 0x7
 4059 06a1 86070000 		.4byte	.LASF149
 4060 06a5 50       		.byte	0x50
 4061 06a6 07       		.uleb128 0x7
 4062 06a7 3E110000 		.4byte	.LASF150
 4063 06ab 51       		.byte	0x51
 4064 06ac 07       		.uleb128 0x7
 4065 06ad CC190000 		.4byte	.LASF151
 4066 06b1 52       		.byte	0x52
 4067 06b2 07       		.uleb128 0x7
 4068 06b3 D6000000 		.4byte	.LASF152
 4069 06b7 53       		.byte	0x53
 4070 06b8 07       		.uleb128 0x7
 4071 06b9 E2160000 		.4byte	.LASF153
 4072 06bd 54       		.byte	0x54
 4073 06be 07       		.uleb128 0x7
 4074 06bf 71110000 		.4byte	.LASF154
 4075 06c3 55       		.byte	0x55
 4076 06c4 07       		.uleb128 0x7
 4077 06c5 270D0000 		.4byte	.LASF155
 4078 06c9 56       		.byte	0x56
 4079 06ca 07       		.uleb128 0x7
 4080 06cb 65170000 		.4byte	.LASF156
ARM GAS  C:\Users\haske\AppData\Local\Temp\cc7ZkKza.s 			page 109


 4081 06cf 57       		.byte	0x57
 4082 06d0 07       		.uleb128 0x7
 4083 06d1 1F1F0000 		.4byte	.LASF157
 4084 06d5 58       		.byte	0x58
 4085 06d6 07       		.uleb128 0x7
 4086 06d7 A90B0000 		.4byte	.LASF158
 4087 06db 59       		.byte	0x59
 4088 06dc 07       		.uleb128 0x7
 4089 06dd 00110000 		.4byte	.LASF159
 4090 06e1 5A       		.byte	0x5a
 4091 06e2 07       		.uleb128 0x7
 4092 06e3 B60F0000 		.4byte	.LASF160
 4093 06e7 5B       		.byte	0x5b
 4094 06e8 07       		.uleb128 0x7
 4095 06e9 10000000 		.4byte	.LASF161
 4096 06ed 60       		.byte	0x60
 4097 06ee 07       		.uleb128 0x7
 4098 06ef B3100000 		.4byte	.LASF162
 4099 06f3 61       		.byte	0x61
 4100 06f4 07       		.uleb128 0x7
 4101 06f5 BA130000 		.4byte	.LASF163
 4102 06f9 62       		.byte	0x62
 4103 06fa 07       		.uleb128 0x7
 4104 06fb 9D0F0000 		.4byte	.LASF164
 4105 06ff 63       		.byte	0x63
 4106 0700 07       		.uleb128 0x7
 4107 0701 3B0C0000 		.4byte	.LASF165
 4108 0705 64       		.byte	0x64
 4109 0706 07       		.uleb128 0x7
 4110 0707 250B0000 		.4byte	.LASF166
 4111 070b 65       		.byte	0x65
 4112 070c 07       		.uleb128 0x7
 4113 070d 87040000 		.4byte	.LASF167
 4114 0711 66       		.byte	0x66
 4115 0712 07       		.uleb128 0x7
 4116 0713 F0090000 		.4byte	.LASF168
 4117 0717 67       		.byte	0x67
 4118 0718 07       		.uleb128 0x7
 4119 0719 9B0A0000 		.4byte	.LASF169
 4120 071d 68       		.byte	0x68
 4121 071e 07       		.uleb128 0x7
 4122 071f 31040000 		.4byte	.LASF170
 4123 0723 69       		.byte	0x69
 4124 0724 07       		.uleb128 0x7
 4125 0725 20080000 		.4byte	.LASF171
 4126 0729 6A       		.byte	0x6a
 4127 072a 07       		.uleb128 0x7
 4128 072b 35080000 		.4byte	.LASF172
 4129 072f 6B       		.byte	0x6b
 4130 0730 07       		.uleb128 0x7
 4131 0731 D40C0000 		.4byte	.LASF173
 4132 0735 6C       		.byte	0x6c
 4133 0736 07       		.uleb128 0x7
 4134 0737 82100000 		.4byte	.LASF174
 4135 073b 6D       		.byte	0x6d
 4136 073c 07       		.uleb128 0x7
 4137 073d 13070000 		.4byte	.LASF175
ARM GAS  C:\Users\haske\AppData\Local\Temp\cc7ZkKza.s 			page 110


 4138 0741 6E       		.byte	0x6e
 4139 0742 07       		.uleb128 0x7
 4140 0743 2E070000 		.4byte	.LASF176
 4141 0747 6F       		.byte	0x6f
 4142 0748 07       		.uleb128 0x7
 4143 0749 95020000 		.4byte	.LASF177
 4144 074d 6F       		.byte	0x6f
 4145 074e 07       		.uleb128 0x7
 4146 074f 1F1A0000 		.4byte	.LASF178
 4147 0753 70       		.byte	0x70
 4148 0754 18       		.uleb128 0x18
 4149 0755 91170000 		.4byte	.LASF179
 4150 0759 FFFF     		.2byte	0xffff
 4151 075b 18       		.uleb128 0x18
 4152 075c FC110000 		.4byte	.LASF180
 4153 0760 FFFF     		.2byte	0xffff
 4154 0762 00       		.byte	0
 4155 0763 19       		.uleb128 0x19
 4156 0764 C70A0000 		.4byte	.LASF181
 4157 0768 0B       		.byte	0xb
 4158 0769 1C01     		.2byte	0x11c
 4159 076b 3E050000 		.4byte	0x53e
 4160 076f 1A       		.uleb128 0x1a
 4161 0770 08       		.byte	0x8
 4162 0771 0B       		.byte	0xb
 4163 0772 3601     		.2byte	0x136
 4164 0774 93070000 		.4byte	0x793
 4165 0778 1B       		.uleb128 0x1b
 4166 0779 240A0000 		.4byte	.LASF182
 4167 077d 0B       		.byte	0xb
 4168 077e 3701     		.2byte	0x137
 4169 0780 63070000 		.4byte	0x763
 4170 0784 00       		.byte	0
 4171 0785 1B       		.uleb128 0x1b
 4172 0786 7F080000 		.4byte	.LASF183
 4173 078a 0B       		.byte	0xb
 4174 078b 3801     		.2byte	0x138
 4175 078d 33050000 		.4byte	0x533
 4176 0791 04       		.byte	0x4
 4177 0792 00       		.byte	0
 4178 0793 19       		.uleb128 0x19
 4179 0794 D10B0000 		.4byte	.LASF184
 4180 0798 0B       		.byte	0xb
 4181 0799 3901     		.2byte	0x139
 4182 079b 6F070000 		.4byte	0x76f
 4183 079f 1C       		.uleb128 0x1c
 4184 07a0 04       		.byte	0x4
 4185 07a1 0B       		.byte	0xb
 4186 07a2 4601     		.2byte	0x146
 4187 07a4 CD070000 		.4byte	0x7cd
 4188 07a8 1D       		.uleb128 0x1d
 4189 07a9 F7160000 		.4byte	.LASF185
 4190 07ad 0B       		.byte	0xb
 4191 07ae 4701     		.2byte	0x147
 4192 07b0 33050000 		.4byte	0x533
 4193 07b4 1D       		.uleb128 0x1d
 4194 07b5 F30A0000 		.4byte	.LASF186
ARM GAS  C:\Users\haske\AppData\Local\Temp\cc7ZkKza.s 			page 111


 4195 07b9 0B       		.byte	0xb
 4196 07ba 4801     		.2byte	0x148
 4197 07bc CD070000 		.4byte	0x7cd
 4198 07c0 1D       		.uleb128 0x1d
 4199 07c1 290A0000 		.4byte	.LASF187
 4200 07c5 0B       		.byte	0xb
 4201 07c6 4901     		.2byte	0x149
 4202 07c8 D3070000 		.4byte	0x7d3
 4203 07cc 00       		.byte	0
 4204 07cd 11       		.uleb128 0x11
 4205 07ce 04       		.byte	0x4
 4206 07cf C3000000 		.4byte	0xc3
 4207 07d3 11       		.uleb128 0x11
 4208 07d4 04       		.byte	0x4
 4209 07d5 D9070000 		.4byte	0x7d9
 4210 07d9 12       		.uleb128 0x12
 4211 07da 93070000 		.4byte	0x793
 4212 07de 1A       		.uleb128 0x1a
 4213 07df 08       		.byte	0x8
 4214 07e0 0B       		.byte	0xb
 4215 07e1 3E01     		.2byte	0x13e
 4216 07e3 1C080000 		.4byte	0x81c
 4217 07e7 1E       		.uleb128 0x1e
 4218 07e8 765F7000 		.ascii	"v_p\000"
 4219 07ec 0B       		.byte	0xb
 4220 07ed 4A01     		.2byte	0x14a
 4221 07ef 9F070000 		.4byte	0x79f
 4222 07f3 00       		.byte	0
 4223 07f4 1B       		.uleb128 0x1b
 4224 07f5 361B0000 		.4byte	.LASF188
 4225 07f9 0B       		.byte	0xb
 4226 07fa 4C01     		.2byte	0x14c
 4227 07fc D9000000 		.4byte	0xd9
 4228 0800 04       		.byte	0x4
 4229 0801 1B       		.uleb128 0x1b
 4230 0802 0B010000 		.4byte	.LASF189
 4231 0806 0B       		.byte	0xb
 4232 0807 4D01     		.2byte	0x14d
 4233 0809 C3000000 		.4byte	0xc3
 4234 080d 06       		.byte	0x6
 4235 080e 1B       		.uleb128 0x1b
 4236 080f 00000000 		.4byte	.LASF190
 4237 0813 0B       		.byte	0xb
 4238 0814 4E01     		.2byte	0x14e
 4239 0816 C3000000 		.4byte	0xc3
 4240 081a 07       		.byte	0x7
 4241 081b 00       		.byte	0
 4242 081c 19       		.uleb128 0x19
 4243 081d 970C0000 		.4byte	.LASF191
 4244 0821 0B       		.byte	0xb
 4245 0822 4F01     		.2byte	0x14f
 4246 0824 DE070000 		.4byte	0x7de
 4247 0828 06       		.uleb128 0x6
 4248 0829 01       		.byte	0x1
 4249 082a 42000000 		.4byte	0x42
 4250 082e 0C       		.byte	0xc
 4251 082f 24       		.byte	0x24
ARM GAS  C:\Users\haske\AppData\Local\Temp\cc7ZkKza.s 			page 112


 4252 0830 4D080000 		.4byte	0x84d
 4253 0834 07       		.uleb128 0x7
 4254 0835 331D0000 		.4byte	.LASF192
 4255 0839 00       		.byte	0
 4256 083a 07       		.uleb128 0x7
 4257 083b 2E000000 		.4byte	.LASF193
 4258 083f 01       		.byte	0x1
 4259 0840 07       		.uleb128 0x7
 4260 0841 910D0000 		.4byte	.LASF194
 4261 0845 02       		.byte	0x2
 4262 0846 07       		.uleb128 0x7
 4263 0847 10140000 		.4byte	.LASF195
 4264 084b 03       		.byte	0x3
 4265 084c 00       		.byte	0
 4266 084d 02       		.uleb128 0x2
 4267 084e 05020000 		.4byte	.LASF196
 4268 0852 0C       		.byte	0xc
 4269 0853 2B       		.byte	0x2b
 4270 0854 C3000000 		.4byte	0xc3
 4271 0858 11       		.uleb128 0x11
 4272 0859 04       		.byte	0x4
 4273 085a 02020000 		.4byte	0x202
 4274 085e 11       		.uleb128 0x11
 4275 085f 04       		.byte	0x4
 4276 0860 D9000000 		.4byte	0xd9
 4277 0864 11       		.uleb128 0x11
 4278 0865 04       		.byte	0x4
 4279 0866 6A080000 		.4byte	0x86a
 4280 086a 12       		.uleb128 0x12
 4281 086b 02020000 		.4byte	0x202
 4282 086f 08       		.uleb128 0x8
 4283 0870 1C       		.byte	0x1c
 4284 0871 0D       		.byte	0xd
 4285 0872 1D       		.byte	0x1d
 4286 0873 D8080000 		.4byte	0x8d8
 4287 0877 0F       		.uleb128 0xf
 4288 0878 FE160000 		.4byte	.LASF197
 4289 087c 0D       		.byte	0xd
 4290 087d 1E       		.byte	0x1e
 4291 087e D8080000 		.4byte	0x8d8
 4292 0882 00       		.byte	0
 4293 0883 0F       		.uleb128 0xf
 4294 0884 27170000 		.4byte	.LASF198
 4295 0888 0D       		.byte	0xd
 4296 0889 20       		.byte	0x20
 4297 088a E3080000 		.4byte	0x8e3
 4298 088e 04       		.byte	0x4
 4299 088f 0F       		.uleb128 0xf
 4300 0890 C6170000 		.4byte	.LASF84
 4301 0894 0D       		.byte	0xd
 4302 0895 21       		.byte	0x21
 4303 0896 F7010000 		.4byte	0x1f7
 4304 089a 08       		.byte	0x8
 4305 089b 0F       		.uleb128 0xf
 4306 089c 62100000 		.4byte	.LASF199
 4307 08a0 0D       		.byte	0xd
 4308 08a1 22       		.byte	0x22
ARM GAS  C:\Users\haske\AppData\Local\Temp\cc7ZkKza.s 			page 113


 4309 08a2 58080000 		.4byte	0x858
 4310 08a6 0C       		.byte	0xc
 4311 08a7 0F       		.uleb128 0xf
 4312 08a8 59060000 		.4byte	.LASF200
 4313 08ac 0D       		.byte	0xd
 4314 08ad 23       		.byte	0x23
 4315 08ae 4D080000 		.4byte	0x84d
 4316 08b2 10       		.byte	0x10
 4317 08b3 0F       		.uleb128 0xf
 4318 08b4 85110000 		.4byte	.LASF201
 4319 08b8 0D       		.byte	0xd
 4320 08b9 24       		.byte	0x24
 4321 08ba D8080000 		.4byte	0x8d8
 4322 08be 14       		.byte	0x14
 4323 08bf 0E       		.uleb128 0xe
 4324 08c0 6F706100 		.ascii	"opa\000"
 4325 08c4 0D       		.byte	0xd
 4326 08c5 25       		.byte	0x25
 4327 08c6 02020000 		.4byte	0x202
 4328 08ca 18       		.byte	0x18
 4329 08cb 0F       		.uleb128 0xf
 4330 08cc AC030000 		.4byte	.LASF202
 4331 08d0 0D       		.byte	0xd
 4332 08d1 26       		.byte	0x26
 4333 08d2 4C040000 		.4byte	0x44c
 4334 08d6 19       		.byte	0x19
 4335 08d7 00       		.byte	0
 4336 08d8 11       		.uleb128 0x11
 4337 08d9 04       		.byte	0x4
 4338 08da DE080000 		.4byte	0x8de
 4339 08de 12       		.uleb128 0x12
 4340 08df 75020000 		.4byte	0x275
 4341 08e3 11       		.uleb128 0x11
 4342 08e4 04       		.byte	0x4
 4343 08e5 E9080000 		.4byte	0x8e9
 4344 08e9 12       		.uleb128 0x12
 4345 08ea F7010000 		.4byte	0x1f7
 4346 08ee 02       		.uleb128 0x2
 4347 08ef 37020000 		.4byte	.LASF203
 4348 08f3 0D       		.byte	0xd
 4349 08f4 27       		.byte	0x27
 4350 08f5 6F080000 		.4byte	0x86f
 4351 08f9 02       		.uleb128 0x2
 4352 08fa 1B0D0000 		.4byte	.LASF204
 4353 08fe 0E       		.byte	0xe
 4354 08ff 69       		.byte	0x69
 4355 0900 C3000000 		.4byte	0xc3
 4356 0904 11       		.uleb128 0x11
 4357 0905 04       		.byte	0x4
 4358 0906 EF000000 		.4byte	0xef
 4359 090a 11       		.uleb128 0x11
 4360 090b 04       		.byte	0x4
 4361 090c 10090000 		.4byte	0x910
 4362 0910 10       		.uleb128 0x10
 4363 0911 22180000 		.4byte	.LASF206
 4364 0915 24       		.byte	0x24
 4365 0916 0F       		.byte	0xf
ARM GAS  C:\Users\haske\AppData\Local\Temp\cc7ZkKza.s 			page 114


 4366 0917 AE       		.byte	0xae
 4367 0918 D7090000 		.4byte	0x9d7
 4368 091c 0F       		.uleb128 0xf
 4369 091d 9F110000 		.4byte	.LASF207
 4370 0921 0F       		.byte	0xf
 4371 0922 AF       		.byte	0xaf
 4372 0923 A01B0000 		.4byte	0x1ba0
 4373 0927 00       		.byte	0
 4374 0928 0F       		.uleb128 0xf
 4375 0929 FE0B0000 		.4byte	.LASF208
 4376 092d 0F       		.byte	0xf
 4377 092e B0       		.byte	0xb0
 4378 092f 0A090000 		.4byte	0x90a
 4379 0933 04       		.byte	0x4
 4380 0934 0F       		.uleb128 0xf
 4381 0935 94010000 		.4byte	.LASF209
 4382 0939 0F       		.byte	0xf
 4383 093a B1       		.byte	0xb1
 4384 093b AB1B0000 		.4byte	0x1bab
 4385 093f 08       		.byte	0x8
 4386 0940 0F       		.uleb128 0xf
 4387 0941 B20C0000 		.4byte	.LASF210
 4388 0945 0F       		.byte	0xf
 4389 0946 B2       		.byte	0xb2
 4390 0947 B11B0000 		.4byte	0x1bb1
 4391 094b 0C       		.byte	0xc
 4392 094c 0F       		.uleb128 0xf
 4393 094d 6B1D0000 		.4byte	.LASF67
 4394 0951 0F       		.byte	0xf
 4395 0952 B4       		.byte	0xb4
 4396 0953 34010000 		.4byte	0x134
 4397 0957 10       		.byte	0x10
 4398 0958 0F       		.uleb128 0xf
 4399 0959 0A1A0000 		.4byte	.LASF211
 4400 095d 0F       		.byte	0xf
 4401 095e B6       		.byte	0xb6
 4402 095f 75020000 		.4byte	0x275
 4403 0963 14       		.byte	0x14
 4404 0964 0F       		.uleb128 0xf
 4405 0965 85080000 		.4byte	.LASF212
 4406 0969 0F       		.byte	0xf
 4407 096a B7       		.byte	0xb7
 4408 096b 87170000 		.4byte	0x1787
 4409 096f 1C       		.byte	0x1c
 4410 0970 0F       		.uleb128 0xf
 4411 0971 DD010000 		.4byte	.LASF213
 4412 0975 0F       		.byte	0xf
 4413 0976 B8       		.byte	0xb8
 4414 0977 7C170000 		.4byte	0x177c
 4415 097b 20       		.byte	0x20
 4416 097c 09       		.uleb128 0x9
 4417 097d 1F060000 		.4byte	.LASF214
 4418 0981 0F       		.byte	0xf
 4419 0982 B9       		.byte	0xb9
 4420 0983 D9000000 		.4byte	0xd9
 4421 0987 02       		.byte	0x2
 4422 0988 01       		.byte	0x1
ARM GAS  C:\Users\haske\AppData\Local\Temp\cc7ZkKza.s 			page 115


 4423 0989 0F       		.byte	0xf
 4424 098a 22       		.byte	0x22
 4425 098b 09       		.uleb128 0x9
 4426 098c CF030000 		.4byte	.LASF215
 4427 0990 0F       		.byte	0xf
 4428 0991 BA       		.byte	0xba
 4429 0992 D9000000 		.4byte	0xd9
 4430 0996 02       		.byte	0x2
 4431 0997 01       		.byte	0x1
 4432 0998 0E       		.byte	0xe
 4433 0999 22       		.byte	0x22
 4434 099a 09       		.uleb128 0x9
 4435 099b 5E110000 		.4byte	.LASF216
 4436 099f 0F       		.byte	0xf
 4437 09a0 BB       		.byte	0xbb
 4438 09a1 D9000000 		.4byte	0xd9
 4439 09a5 02       		.byte	0x2
 4440 09a6 01       		.byte	0x1
 4441 09a7 0D       		.byte	0xd
 4442 09a8 22       		.byte	0x22
 4443 09a9 09       		.uleb128 0x9
 4444 09aa 0E060000 		.4byte	.LASF217
 4445 09ae 0F       		.byte	0xf
 4446 09af BC       		.byte	0xbc
 4447 09b0 D9000000 		.4byte	0xd9
 4448 09b4 02       		.byte	0x2
 4449 09b5 06       		.byte	0x6
 4450 09b6 07       		.byte	0x7
 4451 09b7 22       		.byte	0x22
 4452 09b8 09       		.uleb128 0x9
 4453 09b9 C9070000 		.4byte	.LASF218
 4454 09bd 0F       		.byte	0xf
 4455 09be BD       		.byte	0xbd
 4456 09bf D9000000 		.4byte	0xd9
 4457 09c3 02       		.byte	0x2
 4458 09c4 01       		.byte	0x1
 4459 09c5 06       		.byte	0x6
 4460 09c6 22       		.byte	0x22
 4461 09c7 09       		.uleb128 0x9
 4462 09c8 A3030000 		.4byte	.LASF219
 4463 09cc 0F       		.byte	0xf
 4464 09cd BE       		.byte	0xbe
 4465 09ce D9000000 		.4byte	0xd9
 4466 09d2 02       		.byte	0x2
 4467 09d3 01       		.byte	0x1
 4468 09d4 05       		.byte	0x5
 4469 09d5 22       		.byte	0x22
 4470 09d6 00       		.byte	0
 4471 09d7 11       		.uleb128 0x11
 4472 09d8 04       		.byte	0x4
 4473 09d9 F7010000 		.4byte	0x1f7
 4474 09dd 08       		.uleb128 0x8
 4475 09de 38       		.byte	0x38
 4476 09df 10       		.byte	0x10
 4477 09e0 20       		.byte	0x20
 4478 09e1 240B0000 		.4byte	0xb24
 4479 09e5 0F       		.uleb128 0xf
ARM GAS  C:\Users\haske\AppData\Local\Temp\cc7ZkKza.s 			page 116


 4480 09e6 30010000 		.4byte	.LASF220
 4481 09ea 10       		.byte	0x10
 4482 09eb 21       		.byte	0x21
 4483 09ec 0D020000 		.4byte	0x20d
 4484 09f0 00       		.byte	0
 4485 09f1 0F       		.uleb128 0xf
 4486 09f2 AC030000 		.4byte	.LASF202
 4487 09f6 10       		.byte	0x10
 4488 09f7 22       		.byte	0x22
 4489 09f8 4C040000 		.4byte	0x44c
 4490 09fc 02       		.byte	0x2
 4491 09fd 0F       		.uleb128 0xf
 4492 09fe C8040000 		.4byte	.LASF221
 4493 0a02 10       		.byte	0x10
 4494 0a03 25       		.byte	0x25
 4495 0a04 02020000 		.4byte	0x202
 4496 0a08 03       		.byte	0x3
 4497 0a09 0F       		.uleb128 0xf
 4498 0a0a 37010000 		.4byte	.LASF222
 4499 0a0e 10       		.byte	0x10
 4500 0a0f 26       		.byte	0x26
 4501 0a10 F7010000 		.4byte	0x1f7
 4502 0a14 04       		.byte	0x4
 4503 0a15 0F       		.uleb128 0xf
 4504 0a16 AA1B0000 		.4byte	.LASF223
 4505 0a1a 10       		.byte	0x10
 4506 0a1b 27       		.byte	0x27
 4507 0a1c FE040000 		.4byte	0x4fe
 4508 0a20 06       		.byte	0x6
 4509 0a21 0F       		.uleb128 0xf
 4510 0a22 02030000 		.4byte	.LASF224
 4511 0a26 10       		.byte	0x10
 4512 0a27 2A       		.byte	0x2a
 4513 0a28 EE030000 		.4byte	0x3ee
 4514 0a2c 10       		.byte	0x10
 4515 0a2d 0F       		.uleb128 0xf
 4516 0a2e 6F1E0000 		.4byte	.LASF225
 4517 0a32 10       		.byte	0x10
 4518 0a33 2B       		.byte	0x2b
 4519 0a34 EE030000 		.4byte	0x3ee
 4520 0a38 14       		.byte	0x14
 4521 0a39 0F       		.uleb128 0xf
 4522 0a3a F2180000 		.4byte	.LASF226
 4523 0a3e 10       		.byte	0x10
 4524 0a3f 2C       		.byte	0x2c
 4525 0a40 F7010000 		.4byte	0x1f7
 4526 0a44 18       		.byte	0x18
 4527 0a45 0F       		.uleb128 0xf
 4528 0a46 A4060000 		.4byte	.LASF227
 4529 0a4a 10       		.byte	0x10
 4530 0a4b 2D       		.byte	0x2d
 4531 0a4c 02020000 		.4byte	0x202
 4532 0a50 1A       		.byte	0x1a
 4533 0a51 0F       		.uleb128 0xf
 4534 0a52 51140000 		.4byte	.LASF228
 4535 0a56 10       		.byte	0x10
 4536 0a57 2E       		.byte	0x2e
ARM GAS  C:\Users\haske\AppData\Local\Temp\cc7ZkKza.s 			page 117


 4537 0a58 02020000 		.4byte	0x202
 4538 0a5c 1B       		.byte	0x1b
 4539 0a5d 0F       		.uleb128 0xf
 4540 0a5e 62060000 		.4byte	.LASF229
 4541 0a62 10       		.byte	0x10
 4542 0a63 2F       		.byte	0x2f
 4543 0a64 C3000000 		.4byte	0xc3
 4544 0a68 1C       		.byte	0x1c
 4545 0a69 0F       		.uleb128 0xf
 4546 0a6a E3090000 		.4byte	.LASF230
 4547 0a6e 10       		.byte	0x10
 4548 0a6f 32       		.byte	0x32
 4549 0a70 F7010000 		.4byte	0x1f7
 4550 0a74 1E       		.byte	0x1e
 4551 0a75 0F       		.uleb128 0xf
 4552 0a76 43160000 		.4byte	.LASF231
 4553 0a7a 10       		.byte	0x10
 4554 0a7b 33       		.byte	0x33
 4555 0a7c 0D020000 		.4byte	0x20d
 4556 0a80 20       		.byte	0x20
 4557 0a81 0F       		.uleb128 0xf
 4558 0a82 6D1B0000 		.4byte	.LASF232
 4559 0a86 10       		.byte	0x10
 4560 0a87 34       		.byte	0x34
 4561 0a88 02020000 		.4byte	0x202
 4562 0a8c 22       		.byte	0x22
 4563 0a8d 09       		.uleb128 0x9
 4564 0a8e 560A0000 		.4byte	.LASF233
 4565 0a92 10       		.byte	0x10
 4566 0a93 35       		.byte	0x35
 4567 0a94 C3000000 		.4byte	0xc3
 4568 0a98 01       		.byte	0x1
 4569 0a99 01       		.byte	0x1
 4570 0a9a 07       		.byte	0x7
 4571 0a9b 23       		.byte	0x23
 4572 0a9c 09       		.uleb128 0x9
 4573 0a9d 8D030000 		.4byte	.LASF234
 4574 0aa1 10       		.byte	0x10
 4575 0aa2 36       		.byte	0x36
 4576 0aa3 62040000 		.4byte	0x462
 4577 0aa7 01       		.byte	0x1
 4578 0aa8 05       		.byte	0x5
 4579 0aa9 02       		.byte	0x2
 4580 0aaa 23       		.byte	0x23
 4581 0aab 0F       		.uleb128 0xf
 4582 0aac CC050000 		.4byte	.LASF235
 4583 0ab0 10       		.byte	0x10
 4584 0ab1 39       		.byte	0x39
 4585 0ab2 F7010000 		.4byte	0x1f7
 4586 0ab6 24       		.byte	0x24
 4587 0ab7 0F       		.uleb128 0xf
 4588 0ab8 F6120000 		.4byte	.LASF236
 4589 0abc 10       		.byte	0x10
 4590 0abd 3A       		.byte	0x3a
 4591 0abe 0D020000 		.4byte	0x20d
 4592 0ac2 26       		.byte	0x26
 4593 0ac3 0F       		.uleb128 0xf
ARM GAS  C:\Users\haske\AppData\Local\Temp\cc7ZkKza.s 			page 118


 4594 0ac4 9E090000 		.4byte	.LASF237
 4595 0ac8 10       		.byte	0x10
 4596 0ac9 3B       		.byte	0x3b
 4597 0aca 0D020000 		.4byte	0x20d
 4598 0ace 28       		.byte	0x28
 4599 0acf 0F       		.uleb128 0xf
 4600 0ad0 57120000 		.4byte	.LASF238
 4601 0ad4 10       		.byte	0x10
 4602 0ad5 3C       		.byte	0x3c
 4603 0ad6 02020000 		.4byte	0x202
 4604 0ada 2A       		.byte	0x2a
 4605 0adb 0F       		.uleb128 0xf
 4606 0adc 38100000 		.4byte	.LASF239
 4607 0ae0 10       		.byte	0x10
 4608 0ae1 3F       		.byte	0x3f
 4609 0ae2 F7010000 		.4byte	0x1f7
 4610 0ae6 2C       		.byte	0x2c
 4611 0ae7 0F       		.uleb128 0xf
 4612 0ae8 C21C0000 		.4byte	.LASF240
 4613 0aec 10       		.byte	0x10
 4614 0aed 40       		.byte	0x40
 4615 0aee 0D020000 		.4byte	0x20d
 4616 0af2 2E       		.byte	0x2e
 4617 0af3 0F       		.uleb128 0xf
 4618 0af4 8E0A0000 		.4byte	.LASF241
 4619 0af8 10       		.byte	0x10
 4620 0af9 41       		.byte	0x41
 4621 0afa 0D020000 		.4byte	0x20d
 4622 0afe 30       		.byte	0x30
 4623 0aff 0F       		.uleb128 0xf
 4624 0b00 821E0000 		.4byte	.LASF242
 4625 0b04 10       		.byte	0x10
 4626 0b05 42       		.byte	0x42
 4627 0b06 0D020000 		.4byte	0x20d
 4628 0b0a 32       		.byte	0x32
 4629 0b0b 0F       		.uleb128 0xf
 4630 0b0c 2D0C0000 		.4byte	.LASF243
 4631 0b10 10       		.byte	0x10
 4632 0b11 43       		.byte	0x43
 4633 0b12 0D020000 		.4byte	0x20d
 4634 0b16 34       		.byte	0x34
 4635 0b17 0F       		.uleb128 0xf
 4636 0b18 C1190000 		.4byte	.LASF244
 4637 0b1c 10       		.byte	0x10
 4638 0b1d 44       		.byte	0x44
 4639 0b1e 02020000 		.4byte	0x202
 4640 0b22 36       		.byte	0x36
 4641 0b23 00       		.byte	0
 4642 0b24 02       		.uleb128 0x2
 4643 0b25 BD150000 		.4byte	.LASF245
 4644 0b29 10       		.byte	0x10
 4645 0b2a 45       		.byte	0x45
 4646 0b2b DD090000 		.4byte	0x9dd
 4647 0b2f 08       		.uleb128 0x8
 4648 0b30 20       		.byte	0x20
 4649 0b31 11       		.byte	0x11
 4650 0b32 1E       		.byte	0x1e
ARM GAS  C:\Users\haske\AppData\Local\Temp\cc7ZkKza.s 			page 119


 4651 0b33 FE0B0000 		.4byte	0xbfe
 4652 0b37 0F       		.uleb128 0xf
 4653 0b38 2C180000 		.4byte	.LASF246
 4654 0b3c 11       		.byte	0x11
 4655 0b3d 1F       		.byte	0x1f
 4656 0b3e FE0B0000 		.4byte	0xbfe
 4657 0b42 00       		.byte	0
 4658 0b43 0F       		.uleb128 0xf
 4659 0b44 781C0000 		.4byte	.LASF247
 4660 0b48 11       		.byte	0x11
 4661 0b49 20       		.byte	0x20
 4662 0b4a EF000000 		.4byte	0xef
 4663 0b4e 04       		.byte	0x4
 4664 0b4f 0F       		.uleb128 0xf
 4665 0b50 F4110000 		.4byte	.LASF248
 4666 0b54 11       		.byte	0x11
 4667 0b55 21       		.byte	0x21
 4668 0b56 EF000000 		.4byte	0xef
 4669 0b5a 08       		.byte	0x8
 4670 0b5b 0F       		.uleb128 0xf
 4671 0b5c C6170000 		.4byte	.LASF84
 4672 0b60 11       		.byte	0x11
 4673 0b61 22       		.byte	0x22
 4674 0b62 F7010000 		.4byte	0x1f7
 4675 0b66 0C       		.byte	0xc
 4676 0b67 0F       		.uleb128 0xf
 4677 0b68 571E0000 		.4byte	.LASF249
 4678 0b6c 11       		.byte	0x11
 4679 0b6d 23       		.byte	0x23
 4680 0b6e F7010000 		.4byte	0x1f7
 4681 0b72 0E       		.byte	0xe
 4682 0b73 0F       		.uleb128 0xf
 4683 0b74 F9040000 		.4byte	.LASF250
 4684 0b78 11       		.byte	0x11
 4685 0b79 24       		.byte	0x24
 4686 0b7a F7010000 		.4byte	0x1f7
 4687 0b7e 10       		.byte	0x10
 4688 0b7f 0F       		.uleb128 0xf
 4689 0b80 DE170000 		.4byte	.LASF251
 4690 0b84 11       		.byte	0x11
 4691 0b85 25       		.byte	0x25
 4692 0b86 0D020000 		.4byte	0x20d
 4693 0b8a 12       		.byte	0x12
 4694 0b8b 0F       		.uleb128 0xf
 4695 0b8c 31180000 		.4byte	.LASF252
 4696 0b90 11       		.byte	0x11
 4697 0b91 26       		.byte	0x26
 4698 0b92 0D020000 		.4byte	0x20d
 4699 0b96 14       		.byte	0x14
 4700 0b97 0F       		.uleb128 0xf
 4701 0b98 99070000 		.4byte	.LASF56
 4702 0b9c 11       		.byte	0x11
 4703 0b9d 27       		.byte	0x27
 4704 0b9e 0D020000 		.4byte	0x20d
 4705 0ba2 16       		.byte	0x16
 4706 0ba3 0F       		.uleb128 0xf
 4707 0ba4 9F070000 		.4byte	.LASF57
ARM GAS  C:\Users\haske\AppData\Local\Temp\cc7ZkKza.s 			page 120


 4708 0ba8 11       		.byte	0x11
 4709 0ba9 28       		.byte	0x28
 4710 0baa 0D020000 		.4byte	0x20d
 4711 0bae 18       		.byte	0x18
 4712 0baf 0E       		.uleb128 0xe
 4713 0bb0 6F706100 		.ascii	"opa\000"
 4714 0bb4 11       		.byte	0x11
 4715 0bb5 29       		.byte	0x29
 4716 0bb6 02020000 		.4byte	0x202
 4717 0bba 1A       		.byte	0x1a
 4718 0bbb 0F       		.uleb128 0xf
 4719 0bbc 5C010000 		.4byte	.LASF253
 4720 0bc0 11       		.byte	0x11
 4721 0bc1 2A       		.byte	0x2a
 4722 0bc2 16040000 		.4byte	0x416
 4723 0bc6 1B       		.byte	0x1b
 4724 0bc7 0F       		.uleb128 0xf
 4725 0bc8 2A110000 		.4byte	.LASF254
 4726 0bcc 11       		.byte	0x11
 4727 0bcd 2B       		.byte	0x2b
 4728 0bce 0B040000 		.4byte	0x40b
 4729 0bd2 1C       		.byte	0x1c
 4730 0bd3 0F       		.uleb128 0xf
 4731 0bd4 1B120000 		.4byte	.LASF255
 4732 0bd8 11       		.byte	0x11
 4733 0bd9 2C       		.byte	0x2c
 4734 0bda 00040000 		.4byte	0x400
 4735 0bde 1D       		.byte	0x1d
 4736 0bdf 09       		.uleb128 0x9
 4737 0be0 48170000 		.4byte	.LASF256
 4738 0be4 11       		.byte	0x11
 4739 0be5 2D       		.byte	0x2d
 4740 0be6 57040000 		.4byte	0x457
 4741 0bea 01       		.byte	0x1
 4742 0beb 03       		.byte	0x3
 4743 0bec 05       		.byte	0x5
 4744 0bed 1E       		.byte	0x1e
 4745 0bee 09       		.uleb128 0x9
 4746 0bef AC030000 		.4byte	.LASF202
 4747 0bf3 11       		.byte	0x11
 4748 0bf4 2E       		.byte	0x2e
 4749 0bf5 4C040000 		.4byte	0x44c
 4750 0bf9 01       		.byte	0x1
 4751 0bfa 03       		.byte	0x3
 4752 0bfb 02       		.byte	0x2
 4753 0bfc 1E       		.byte	0x1e
 4754 0bfd 00       		.byte	0
 4755 0bfe 11       		.uleb128 0x11
 4756 0bff 04       		.byte	0x4
 4757 0c00 040C0000 		.4byte	0xc04
 4758 0c04 12       		.uleb128 0x12
 4759 0c05 F5030000 		.4byte	0x3f5
 4760 0c09 02       		.uleb128 0x2
 4761 0c0a DA040000 		.4byte	.LASF257
 4762 0c0e 11       		.byte	0x11
 4763 0c0f 2F       		.byte	0x2f
 4764 0c10 2F0B0000 		.4byte	0xb2f
ARM GAS  C:\Users\haske\AppData\Local\Temp\cc7ZkKza.s 			page 121


 4765 0c14 08       		.uleb128 0x8
 4766 0c15 18       		.byte	0x18
 4767 0c16 12       		.byte	0x12
 4768 0c17 20       		.byte	0x20
 4769 0c18 8F0C0000 		.4byte	0xc8f
 4770 0c1c 0F       		.uleb128 0xf
 4771 0c1d 0F0F0000 		.4byte	.LASF258
 4772 0c21 12       		.byte	0x12
 4773 0c22 22       		.byte	0x22
 4774 0c23 CE000000 		.4byte	0xce
 4775 0c27 00       		.byte	0
 4776 0c28 0F       		.uleb128 0xf
 4777 0c29 00020000 		.4byte	.LASF259
 4778 0c2d 12       		.byte	0x12
 4779 0c2e 23       		.byte	0x23
 4780 0c2f D9000000 		.4byte	0xd9
 4781 0c33 02       		.byte	0x2
 4782 0c34 0F       		.uleb128 0xf
 4783 0c35 DC160000 		.4byte	.LASF260
 4784 0c39 12       		.byte	0x12
 4785 0c3a 24       		.byte	0x24
 4786 0c3b 35020000 		.4byte	0x235
 4787 0c3f 04       		.byte	0x4
 4788 0c40 0F       		.uleb128 0xf
 4789 0c41 E80E0000 		.4byte	.LASF261
 4790 0c45 12       		.byte	0x12
 4791 0c46 26       		.byte	0x26
 4792 0c47 F7010000 		.4byte	0x1f7
 4793 0c4b 08       		.byte	0x8
 4794 0c4c 0F       		.uleb128 0xf
 4795 0c4d 9D120000 		.4byte	.LASF262
 4796 0c51 12       		.byte	0x12
 4797 0c52 27       		.byte	0x27
 4798 0c53 02020000 		.4byte	0x202
 4799 0c57 0A       		.byte	0xa
 4800 0c58 0E       		.uleb128 0xe
 4801 0c59 6F706100 		.ascii	"opa\000"
 4802 0c5d 12       		.byte	0x12
 4803 0c5e 29       		.byte	0x29
 4804 0c5f 02020000 		.4byte	0x202
 4805 0c63 0B       		.byte	0xb
 4806 0c64 09       		.uleb128 0x9
 4807 0c65 AC030000 		.4byte	.LASF202
 4808 0c69 12       		.byte	0x12
 4809 0c6a 2A       		.byte	0x2a
 4810 0c6b 4C040000 		.4byte	0x44c
 4811 0c6f 01       		.byte	0x1
 4812 0c70 04       		.byte	0x4
 4813 0c71 04       		.byte	0x4
 4814 0c72 0C       		.byte	0xc
 4815 0c73 0F       		.uleb128 0xf
 4816 0c74 94120000 		.4byte	.LASF263
 4817 0c78 12       		.byte	0x12
 4818 0c79 2C       		.byte	0x2c
 4819 0c7a E4000000 		.4byte	0xe4
 4820 0c7e 10       		.byte	0x10
 4821 0c7f 09       		.uleb128 0x9
ARM GAS  C:\Users\haske\AppData\Local\Temp\cc7ZkKza.s 			page 122


 4822 0c80 4B130000 		.4byte	.LASF264
 4823 0c84 12       		.byte	0x12
 4824 0c85 2D       		.byte	0x2d
 4825 0c86 C3000000 		.4byte	0xc3
 4826 0c8a 01       		.byte	0x1
 4827 0c8b 01       		.byte	0x1
 4828 0c8c 07       		.byte	0x7
 4829 0c8d 14       		.byte	0x14
 4830 0c8e 00       		.byte	0
 4831 0c8f 02       		.uleb128 0x2
 4832 0c90 A6080000 		.4byte	.LASF265
 4833 0c94 12       		.byte	0x12
 4834 0c95 2E       		.byte	0x2e
 4835 0c96 140C0000 		.4byte	0xc14
 4836 0c9a 08       		.uleb128 0x8
 4837 0c9b 0A       		.byte	0xa
 4838 0c9c 13       		.byte	0x13
 4839 0c9d 1C       		.byte	0x1c
 4840 0c9e 1B0D0000 		.4byte	0xd1b
 4841 0ca2 0F       		.uleb128 0xf
 4842 0ca3 C6170000 		.4byte	.LASF84
 4843 0ca7 13       		.byte	0x13
 4844 0ca8 1D       		.byte	0x1d
 4845 0ca9 F7010000 		.4byte	0x1f7
 4846 0cad 00       		.byte	0
 4847 0cae 0F       		.uleb128 0xf
 4848 0caf 4D100000 		.4byte	.LASF266
 4849 0cb3 13       		.byte	0x13
 4850 0cb4 1E       		.byte	0x1e
 4851 0cb5 0D020000 		.4byte	0x20d
 4852 0cb9 02       		.byte	0x2
 4853 0cba 0F       		.uleb128 0xf
 4854 0cbb 730D0000 		.4byte	.LASF267
 4855 0cbf 13       		.byte	0x13
 4856 0cc0 1F       		.byte	0x1f
 4857 0cc1 0D020000 		.4byte	0x20d
 4858 0cc5 04       		.byte	0x4
 4859 0cc6 0F       		.uleb128 0xf
 4860 0cc7 EB080000 		.4byte	.LASF268
 4861 0ccb 13       		.byte	0x13
 4862 0ccc 20       		.byte	0x20
 4863 0ccd 0D020000 		.4byte	0x20d
 4864 0cd1 06       		.byte	0x6
 4865 0cd2 0E       		.uleb128 0xe
 4866 0cd3 6F706100 		.ascii	"opa\000"
 4867 0cd7 13       		.byte	0x13
 4868 0cd8 21       		.byte	0x21
 4869 0cd9 02020000 		.4byte	0x202
 4870 0cdd 08       		.byte	0x8
 4871 0cde 09       		.uleb128 0x9
 4872 0cdf AC030000 		.4byte	.LASF202
 4873 0ce3 13       		.byte	0x13
 4874 0ce4 22       		.byte	0x22
 4875 0ce5 4C040000 		.4byte	0x44c
 4876 0ce9 01       		.byte	0x1
 4877 0cea 02       		.byte	0x2
 4878 0ceb 06       		.byte	0x6
ARM GAS  C:\Users\haske\AppData\Local\Temp\cc7ZkKza.s 			page 123


 4879 0cec 09       		.byte	0x9
 4880 0ced 09       		.uleb128 0x9
 4881 0cee D70A0000 		.4byte	.LASF269
 4882 0cf2 13       		.byte	0x13
 4883 0cf3 23       		.byte	0x23
 4884 0cf4 C3000000 		.4byte	0xc3
 4885 0cf8 01       		.byte	0x1
 4886 0cf9 01       		.byte	0x1
 4887 0cfa 05       		.byte	0x5
 4888 0cfb 09       		.byte	0x9
 4889 0cfc 09       		.uleb128 0x9
 4890 0cfd 120C0000 		.4byte	.LASF270
 4891 0d01 13       		.byte	0x13
 4892 0d02 24       		.byte	0x24
 4893 0d03 C3000000 		.4byte	0xc3
 4894 0d07 01       		.byte	0x1
 4895 0d08 01       		.byte	0x1
 4896 0d09 04       		.byte	0x4
 4897 0d0a 09       		.byte	0x9
 4898 0d0b 09       		.uleb128 0x9
 4899 0d0c E7000000 		.4byte	.LASF271
 4900 0d10 13       		.byte	0x13
 4901 0d11 25       		.byte	0x25
 4902 0d12 C3000000 		.4byte	0xc3
 4903 0d16 01       		.byte	0x1
 4904 0d17 01       		.byte	0x1
 4905 0d18 03       		.byte	0x3
 4906 0d19 09       		.byte	0x9
 4907 0d1a 00       		.byte	0
 4908 0d1b 02       		.uleb128 0x2
 4909 0d1c 00070000 		.4byte	.LASF272
 4910 0d20 13       		.byte	0x13
 4911 0d21 26       		.byte	0x26
 4912 0d22 9A0C0000 		.4byte	0xc9a
 4913 0d26 08       		.uleb128 0x8
 4914 0d27 10       		.byte	0x10
 4915 0d28 14       		.byte	0x14
 4916 0d29 1C       		.byte	0x1c
 4917 0d2a 950D0000 		.4byte	0xd95
 4918 0d2e 0F       		.uleb128 0xf
 4919 0d2f C6170000 		.4byte	.LASF84
 4920 0d33 14       		.byte	0x14
 4921 0d34 1D       		.byte	0x1d
 4922 0d35 F7010000 		.4byte	0x1f7
 4923 0d39 00       		.byte	0
 4924 0d3a 0F       		.uleb128 0xf
 4925 0d3b 4D100000 		.4byte	.LASF266
 4926 0d3f 14       		.byte	0x14
 4927 0d40 1E       		.byte	0x1e
 4928 0d41 0D020000 		.4byte	0x20d
 4929 0d45 02       		.byte	0x2
 4930 0d46 0F       		.uleb128 0xf
 4931 0d47 390D0000 		.4byte	.LASF273
 4932 0d4b 14       		.byte	0x14
 4933 0d4c 1F       		.byte	0x1f
 4934 0d4d D9000000 		.4byte	0xd9
 4935 0d51 04       		.byte	0x4
ARM GAS  C:\Users\haske\AppData\Local\Temp\cc7ZkKza.s 			page 124


 4936 0d52 0F       		.uleb128 0xf
 4937 0d53 95060000 		.4byte	.LASF274
 4938 0d57 14       		.byte	0x14
 4939 0d58 20       		.byte	0x20
 4940 0d59 D9000000 		.4byte	0xd9
 4941 0d5d 06       		.byte	0x6
 4942 0d5e 0F       		.uleb128 0xf
 4943 0d5f 1C0C0000 		.4byte	.LASF275
 4944 0d63 14       		.byte	0x14
 4945 0d64 21       		.byte	0x21
 4946 0d65 EE030000 		.4byte	0x3ee
 4947 0d69 08       		.byte	0x8
 4948 0d6a 0E       		.uleb128 0xe
 4949 0d6b 6F706100 		.ascii	"opa\000"
 4950 0d6f 14       		.byte	0x14
 4951 0d70 22       		.byte	0x22
 4952 0d71 02020000 		.4byte	0x202
 4953 0d75 0C       		.byte	0xc
 4954 0d76 09       		.uleb128 0x9
 4955 0d77 AC030000 		.4byte	.LASF202
 4956 0d7b 14       		.byte	0x14
 4957 0d7c 23       		.byte	0x23
 4958 0d7d 4C040000 		.4byte	0x44c
 4959 0d81 01       		.byte	0x1
 4960 0d82 02       		.byte	0x2
 4961 0d83 06       		.byte	0x6
 4962 0d84 0D       		.byte	0xd
 4963 0d85 09       		.uleb128 0x9
 4964 0d86 8D020000 		.4byte	.LASF276
 4965 0d8a 14       		.byte	0x14
 4966 0d8b 24       		.byte	0x24
 4967 0d8c C3000000 		.4byte	0xc3
 4968 0d90 01       		.byte	0x1
 4969 0d91 01       		.byte	0x1
 4970 0d92 05       		.byte	0x5
 4971 0d93 0D       		.byte	0xd
 4972 0d94 00       		.byte	0
 4973 0d95 02       		.uleb128 0x2
 4974 0d96 68180000 		.4byte	.LASF277
 4975 0d9a 14       		.byte	0x14
 4976 0d9b 25       		.byte	0x25
 4977 0d9c 260D0000 		.4byte	0xd26
 4978 0da0 06       		.uleb128 0x6
 4979 0da1 01       		.byte	0x1
 4980 0da2 42000000 		.4byte	0x42
 4981 0da6 15       		.byte	0x15
 4982 0da7 1C       		.byte	0x1c
 4983 0da8 BF0D0000 		.4byte	0xdbf
 4984 0dac 07       		.uleb128 0x7
 4985 0dad 9B100000 		.4byte	.LASF278
 4986 0db1 00       		.byte	0
 4987 0db2 07       		.uleb128 0x7
 4988 0db3 01190000 		.4byte	.LASF279
 4989 0db7 01       		.byte	0x1
 4990 0db8 07       		.uleb128 0x7
 4991 0db9 64140000 		.4byte	.LASF280
 4992 0dbd 02       		.byte	0x2
ARM GAS  C:\Users\haske\AppData\Local\Temp\cc7ZkKza.s 			page 125


 4993 0dbe 00       		.byte	0
 4994 0dbf 02       		.uleb128 0x2
 4995 0dc0 8B080000 		.4byte	.LASF281
 4996 0dc4 15       		.byte	0x15
 4997 0dc5 20       		.byte	0x20
 4998 0dc6 A00D0000 		.4byte	0xda0
 4999 0dca 08       		.uleb128 0x8
 5000 0dcb 10       		.byte	0x10
 5001 0dcc 16       		.byte	0x16
 5002 0dcd 33       		.byte	0x33
 5003 0dce 030E0000 		.4byte	0xe03
 5004 0dd2 0F       		.uleb128 0xf
 5005 0dd3 D9110000 		.4byte	.LASF282
 5006 0dd7 16       		.byte	0x16
 5007 0dd8 34       		.byte	0x34
 5008 0dd9 D8080000 		.4byte	0x8d8
 5009 0ddd 00       		.byte	0
 5010 0dde 0F       		.uleb128 0xf
 5011 0ddf D50E0000 		.4byte	.LASF283
 5012 0de3 16       		.byte	0x16
 5013 0de4 35       		.byte	0x35
 5014 0de5 030E0000 		.4byte	0xe03
 5015 0de9 04       		.byte	0x4
 5016 0dea 0E       		.uleb128 0xe
 5017 0deb 62756600 		.ascii	"buf\000"
 5018 0def 16       		.byte	0x16
 5019 0df0 36       		.byte	0x36
 5020 0df1 34010000 		.4byte	0x134
 5021 0df5 08       		.byte	0x8
 5022 0df6 0F       		.uleb128 0xf
 5023 0df7 FC190000 		.4byte	.LASF284
 5024 0dfb 16       		.byte	0x16
 5025 0dfc 37       		.byte	0x37
 5026 0dfd B6030000 		.4byte	0x3b6
 5027 0e01 0C       		.byte	0xc
 5028 0e02 00       		.byte	0
 5029 0e03 11       		.uleb128 0x11
 5030 0e04 04       		.byte	0x4
 5031 0e05 75020000 		.4byte	0x275
 5032 0e09 10       		.uleb128 0x10
 5033 0e0a 42120000 		.4byte	.LASF285
 5034 0e0e 28       		.byte	0x28
 5035 0e0f 16       		.byte	0x16
 5036 0e10 2D       		.byte	0x2d
 5037 0e11 5E0E0000 		.4byte	0xe5e
 5038 0e15 0F       		.uleb128 0xf
 5039 0e16 11120000 		.4byte	.LASF286
 5040 0e1a 16       		.byte	0x16
 5041 0e1b 2E       		.byte	0x2e
 5042 0e1c 75020000 		.4byte	0x275
 5043 0e20 00       		.byte	0
 5044 0e21 0F       		.uleb128 0xf
 5045 0e22 7D070000 		.4byte	.LASF287
 5046 0e26 16       		.byte	0x16
 5047 0e27 2F       		.byte	0x2f
 5048 0e28 75020000 		.4byte	0x275
 5049 0e2c 08       		.byte	0x8
ARM GAS  C:\Users\haske\AppData\Local\Temp\cc7ZkKza.s 			page 126


 5050 0e2d 0F       		.uleb128 0xf
 5051 0e2e 6D120000 		.4byte	.LASF288
 5052 0e32 16       		.byte	0x16
 5053 0e33 30       		.byte	0x30
 5054 0e34 0D020000 		.4byte	0x20d
 5055 0e38 10       		.byte	0x10
 5056 0e39 0F       		.uleb128 0xf
 5057 0e3a 37150000 		.4byte	.LASF289
 5058 0e3e 16       		.byte	0x16
 5059 0e3f 31       		.byte	0x31
 5060 0e40 0D020000 		.4byte	0x20d
 5061 0e44 12       		.byte	0x12
 5062 0e45 0E       		.uleb128 0xe
 5063 0e46 62756600 		.ascii	"buf\000"
 5064 0e4a 16       		.byte	0x16
 5065 0e4b 32       		.byte	0x32
 5066 0e4c 34010000 		.4byte	0x134
 5067 0e50 14       		.byte	0x14
 5068 0e51 0F       		.uleb128 0xf
 5069 0e52 17080000 		.4byte	.LASF290
 5070 0e56 16       		.byte	0x16
 5071 0e57 38       		.byte	0x38
 5072 0e58 CA0D0000 		.4byte	0xdca
 5073 0e5c 18       		.byte	0x18
 5074 0e5d 00       		.byte	0
 5075 0e5e 02       		.uleb128 0x2
 5076 0e5f A8170000 		.4byte	.LASF291
 5077 0e63 16       		.byte	0x16
 5078 0e64 39       		.byte	0x39
 5079 0e65 090E0000 		.4byte	0xe09
 5080 0e69 10       		.uleb128 0x10
 5081 0e6a B2020000 		.4byte	.LASF292
 5082 0e6e 54       		.byte	0x54
 5083 0e6f 16       		.byte	0x16
 5084 0e70 3B       		.byte	0x3b
 5085 0e71 720F0000 		.4byte	0xf72
 5086 0e75 0E       		.uleb128 0xe
 5087 0e76 62756600 		.ascii	"buf\000"
 5088 0e7a 16       		.byte	0x16
 5089 0e7b 3F       		.byte	0x3f
 5090 0e7c 34010000 		.4byte	0x134
 5091 0e80 00       		.byte	0
 5092 0e81 0F       		.uleb128 0xf
 5093 0e82 D50E0000 		.4byte	.LASF283
 5094 0e86 16       		.byte	0x16
 5095 0e87 44       		.byte	0x44
 5096 0e88 030E0000 		.4byte	0xe03
 5097 0e8c 04       		.byte	0x4
 5098 0e8d 0F       		.uleb128 0xf
 5099 0e8e D9110000 		.4byte	.LASF282
 5100 0e92 16       		.byte	0x16
 5101 0e93 49       		.byte	0x49
 5102 0e94 D8080000 		.4byte	0x8d8
 5103 0e98 08       		.byte	0x8
 5104 0e99 0F       		.uleb128 0xf
 5105 0e9a 75020000 		.4byte	.LASF293
 5106 0e9e 16       		.byte	0x16
ARM GAS  C:\Users\haske\AppData\Local\Temp\cc7ZkKza.s 			page 127


 5107 0e9f 4B       		.byte	0x4b
 5108 0ea0 830F0000 		.4byte	0xf83
 5109 0ea4 0C       		.byte	0xc
 5110 0ea5 0F       		.uleb128 0xf
 5111 0ea6 21020000 		.4byte	.LASF294
 5112 0eaa 16       		.byte	0x16
 5113 0eab 4D       		.byte	0x4d
 5114 0eac A90F0000 		.4byte	0xfa9
 5115 0eb0 10       		.byte	0x10
 5116 0eb1 0F       		.uleb128 0xf
 5117 0eb2 D70D0000 		.4byte	.LASF295
 5118 0eb6 16       		.byte	0x16
 5119 0eb7 4F       		.byte	0x4f
 5120 0eb8 E90F0000 		.4byte	0xfe9
 5121 0ebc 14       		.byte	0x14
 5122 0ebd 0F       		.uleb128 0xf
 5123 0ebe 7E0F0000 		.4byte	.LASF296
 5124 0ec2 16       		.byte	0x16
 5125 0ec3 52       		.byte	0x52
 5126 0ec4 19100000 		.4byte	0x1019
 5127 0ec8 18       		.byte	0x18
 5128 0ec9 0F       		.uleb128 0xf
 5129 0eca E11B0000 		.4byte	.LASF297
 5130 0ece 16       		.byte	0x16
 5131 0ecf 55       		.byte	0x55
 5132 0ed0 3D100000 		.4byte	0x103d
 5133 0ed4 1C       		.byte	0x1c
 5134 0ed5 0F       		.uleb128 0xf
 5135 0ed6 07160000 		.4byte	.LASF298
 5136 0eda 16       		.byte	0x16
 5137 0edb 58       		.byte	0x58
 5138 0edc 68100000 		.4byte	0x1068
 5139 0ee0 20       		.byte	0x20
 5140 0ee1 0F       		.uleb128 0xf
 5141 0ee2 47060000 		.4byte	.LASF299
 5142 0ee6 16       		.byte	0x16
 5143 0ee7 5C       		.byte	0x5c
 5144 0ee8 93100000 		.4byte	0x1093
 5145 0eec 24       		.byte	0x24
 5146 0eed 0F       		.uleb128 0xf
 5147 0eee 451C0000 		.4byte	.LASF300
 5148 0ef2 16       		.byte	0x16
 5149 0ef3 60       		.byte	0x60
 5150 0ef4 B3100000 		.4byte	0x10b3
 5151 0ef8 28       		.byte	0x28
 5152 0ef9 0F       		.uleb128 0xf
 5153 0efa FF080000 		.4byte	.LASF301
 5154 0efe 16       		.byte	0x16
 5155 0eff 71       		.byte	0x71
 5156 0f00 F1100000 		.4byte	0x10f1
 5157 0f04 2C       		.byte	0x2c
 5158 0f05 0F       		.uleb128 0xf
 5159 0f06 C5000000 		.4byte	.LASF302
 5160 0f0a 16       		.byte	0x16
 5161 0f0b 78       		.byte	0x78
 5162 0f0c A90F0000 		.4byte	0xfa9
 5163 0f10 30       		.byte	0x30
ARM GAS  C:\Users\haske\AppData\Local\Temp\cc7ZkKza.s 			page 128


 5164 0f11 0F       		.uleb128 0xf
 5165 0f12 41140000 		.4byte	.LASF303
 5166 0f16 16       		.byte	0x16
 5167 0f17 7D       		.byte	0x7d
 5168 0f18 830F0000 		.4byte	0xf83
 5169 0f1c 34       		.byte	0x34
 5170 0f1d 0F       		.uleb128 0xf
 5171 0f1e A0050000 		.4byte	.LASF304
 5172 0f22 16       		.byte	0x16
 5173 0f23 8D       		.byte	0x8d
 5174 0f24 20110000 		.4byte	0x1120
 5175 0f28 38       		.byte	0x38
 5176 0f29 0F       		.uleb128 0xf
 5177 0f2a 430B0000 		.4byte	.LASF305
 5178 0f2e 16       		.byte	0x16
 5179 0f2f 99       		.byte	0x99
 5180 0f30 45110000 		.4byte	0x1145
 5181 0f34 3C       		.byte	0x3c
 5182 0f35 0F       		.uleb128 0xf
 5183 0f36 58170000 		.4byte	.LASF306
 5184 0f3a 16       		.byte	0x16
 5185 0f3b A3       		.byte	0xa3
 5186 0f3c 60110000 		.4byte	0x1160
 5187 0f40 40       		.byte	0x40
 5188 0f41 0F       		.uleb128 0xf
 5189 0f42 E9170000 		.4byte	.LASF307
 5190 0f46 16       		.byte	0x16
 5191 0f47 AC       		.byte	0xac
 5192 0f48 7B110000 		.4byte	0x117b
 5193 0f4c 44       		.byte	0x44
 5194 0f4d 0F       		.uleb128 0xf
 5195 0f4e 650D0000 		.4byte	.LASF308
 5196 0f52 16       		.byte	0x16
 5197 0f53 B5       		.byte	0xb5
 5198 0f54 97110000 		.4byte	0x1197
 5199 0f58 48       		.byte	0x48
 5200 0f59 0F       		.uleb128 0xf
 5201 0f5a CB080000 		.4byte	.LASF309
 5202 0f5e 16       		.byte	0x16
 5203 0f5f BA       		.byte	0xba
 5204 0f60 1B010000 		.4byte	0x11b
 5205 0f64 4C       		.byte	0x4c
 5206 0f65 0F       		.uleb128 0xf
 5207 0f66 6B1D0000 		.4byte	.LASF67
 5208 0f6a 16       		.byte	0x16
 5209 0f6b BD       		.byte	0xbd
 5210 0f6c 34010000 		.4byte	0x134
 5211 0f70 50       		.byte	0x50
 5212 0f71 00       		.byte	0
 5213 0f72 1F       		.uleb128 0x1f
 5214 0f73 7D0F0000 		.4byte	0xf7d
 5215 0f77 14       		.uleb128 0x14
 5216 0f78 7D0F0000 		.4byte	0xf7d
 5217 0f7c 00       		.byte	0
 5218 0f7d 11       		.uleb128 0x11
 5219 0f7e 04       		.byte	0x4
 5220 0f7f 690E0000 		.4byte	0xe69
ARM GAS  C:\Users\haske\AppData\Local\Temp\cc7ZkKza.s 			page 129


 5221 0f83 11       		.uleb128 0x11
 5222 0f84 04       		.byte	0x4
 5223 0f85 720F0000 		.4byte	0xf72
 5224 0f89 1F       		.uleb128 0x1f
 5225 0f8a 9E0F0000 		.4byte	0xf9e
 5226 0f8e 14       		.uleb128 0x14
 5227 0f8f 7D0F0000 		.4byte	0xf7d
 5228 0f93 14       		.uleb128 0x14
 5229 0f94 9E0F0000 		.4byte	0xf9e
 5230 0f98 14       		.uleb128 0x14
 5231 0f99 D8080000 		.4byte	0x8d8
 5232 0f9d 00       		.byte	0
 5233 0f9e 11       		.uleb128 0x11
 5234 0f9f 04       		.byte	0x4
 5235 0fa0 A40F0000 		.4byte	0xfa4
 5236 0fa4 12       		.uleb128 0x12
 5237 0fa5 240B0000 		.4byte	0xb24
 5238 0fa9 11       		.uleb128 0x11
 5239 0faa 04       		.byte	0x4
 5240 0fab 890F0000 		.4byte	0xf89
 5241 0faf 1F       		.uleb128 0x1f
 5242 0fb0 D30F0000 		.4byte	0xfd3
 5243 0fb4 14       		.uleb128 0x14
 5244 0fb5 7D0F0000 		.4byte	0xf7d
 5245 0fb9 14       		.uleb128 0x14
 5246 0fba D30F0000 		.4byte	0xfd3
 5247 0fbe 14       		.uleb128 0x14
 5248 0fbf DE0F0000 		.4byte	0xfde
 5249 0fc3 14       		.uleb128 0x14
 5250 0fc4 D9000000 		.4byte	0xd9
 5251 0fc8 14       		.uleb128 0x14
 5252 0fc9 D9000000 		.4byte	0xd9
 5253 0fcd 14       		.uleb128 0x14
 5254 0fce D9000000 		.4byte	0xd9
 5255 0fd2 00       		.byte	0
 5256 0fd3 11       		.uleb128 0x11
 5257 0fd4 04       		.byte	0x4
 5258 0fd5 D90F0000 		.4byte	0xfd9
 5259 0fd9 12       		.uleb128 0x12
 5260 0fda 950D0000 		.4byte	0xd95
 5261 0fde 11       		.uleb128 0x11
 5262 0fdf 04       		.byte	0x4
 5263 0fe0 E40F0000 		.4byte	0xfe4
 5264 0fe4 12       		.uleb128 0x12
 5265 0fe5 35020000 		.4byte	0x235
 5266 0fe9 11       		.uleb128 0x11
 5267 0fea 04       		.byte	0x4
 5268 0feb AF0F0000 		.4byte	0xfaf
 5269 0fef 1F       		.uleb128 0x1f
 5270 0ff0 0E100000 		.4byte	0x100e
 5271 0ff4 14       		.uleb128 0x14
 5272 0ff5 7D0F0000 		.4byte	0xf7d
 5273 0ff9 14       		.uleb128 0x14
 5274 0ffa 0E100000 		.4byte	0x100e
 5275 0ffe 14       		.uleb128 0x14
 5276 0fff D8080000 		.4byte	0x8d8
 5277 1003 14       		.uleb128 0x14
ARM GAS  C:\Users\haske\AppData\Local\Temp\cc7ZkKza.s 			page 130


 5278 1004 DD030000 		.4byte	0x3dd
 5279 1008 14       		.uleb128 0x14
 5280 1009 F9080000 		.4byte	0x8f9
 5281 100d 00       		.byte	0
 5282 100e 11       		.uleb128 0x11
 5283 100f 04       		.byte	0x4
 5284 1010 14100000 		.4byte	0x1014
 5285 1014 12       		.uleb128 0x12
 5286 1015 8F0C0000 		.4byte	0xc8f
 5287 1019 11       		.uleb128 0x11
 5288 101a 04       		.byte	0x4
 5289 101b EF0F0000 		.4byte	0xfef
 5290 101f 13       		.uleb128 0x13
 5291 1020 05010000 		.4byte	0x105
 5292 1024 3D100000 		.4byte	0x103d
 5293 1028 14       		.uleb128 0x14
 5294 1029 7D0F0000 		.4byte	0xf7d
 5295 102d 14       		.uleb128 0x14
 5296 102e 0E100000 		.4byte	0x100e
 5297 1032 14       		.uleb128 0x14
 5298 1033 D8080000 		.4byte	0x8d8
 5299 1037 14       		.uleb128 0x14
 5300 1038 EE030000 		.4byte	0x3ee
 5301 103c 00       		.byte	0
 5302 103d 11       		.uleb128 0x11
 5303 103e 04       		.byte	0x4
 5304 103f 1F100000 		.4byte	0x101f
 5305 1043 1F       		.uleb128 0x1f
 5306 1044 5D100000 		.4byte	0x105d
 5307 1048 14       		.uleb128 0x14
 5308 1049 7D0F0000 		.4byte	0xf7d
 5309 104d 14       		.uleb128 0x14
 5310 104e 5D100000 		.4byte	0x105d
 5311 1052 14       		.uleb128 0x14
 5312 1053 DE0F0000 		.4byte	0xfde
 5313 1057 14       		.uleb128 0x14
 5314 1058 EF000000 		.4byte	0xef
 5315 105c 00       		.byte	0
 5316 105d 11       		.uleb128 0x11
 5317 105e 04       		.byte	0x4
 5318 105f 63100000 		.4byte	0x1063
 5319 1063 12       		.uleb128 0x12
 5320 1064 090C0000 		.4byte	0xc09
 5321 1068 11       		.uleb128 0x11
 5322 1069 04       		.byte	0x4
 5323 106a 43100000 		.4byte	0x1043
 5324 106e 1F       		.uleb128 0x1f
 5325 106f 88100000 		.4byte	0x1088
 5326 1073 14       		.uleb128 0x14
 5327 1074 7D0F0000 		.4byte	0xf7d
 5328 1078 14       		.uleb128 0x14
 5329 1079 88100000 		.4byte	0x1088
 5330 107d 14       		.uleb128 0x14
 5331 107e DE0F0000 		.4byte	0xfde
 5332 1082 14       		.uleb128 0x14
 5333 1083 DE0F0000 		.4byte	0xfde
 5334 1087 00       		.byte	0
ARM GAS  C:\Users\haske\AppData\Local\Temp\cc7ZkKza.s 			page 131


 5335 1088 11       		.uleb128 0x11
 5336 1089 04       		.byte	0x4
 5337 108a 8E100000 		.4byte	0x108e
 5338 108e 12       		.uleb128 0x12
 5339 108f 1B0D0000 		.4byte	0xd1b
 5340 1093 11       		.uleb128 0x11
 5341 1094 04       		.byte	0x4
 5342 1095 6E100000 		.4byte	0x106e
 5343 1099 1F       		.uleb128 0x1f
 5344 109a B3100000 		.4byte	0x10b3
 5345 109e 14       		.uleb128 0x14
 5346 109f 7D0F0000 		.4byte	0xf7d
 5347 10a3 14       		.uleb128 0x14
 5348 10a4 9E0F0000 		.4byte	0xf9e
 5349 10a8 14       		.uleb128 0x14
 5350 10a9 DE0F0000 		.4byte	0xfde
 5351 10ad 14       		.uleb128 0x14
 5352 10ae D9000000 		.4byte	0xd9
 5353 10b2 00       		.byte	0
 5354 10b3 11       		.uleb128 0x11
 5355 10b4 04       		.byte	0x4
 5356 10b5 99100000 		.4byte	0x1099
 5357 10b9 1F       		.uleb128 0x1f
 5358 10ba F1100000 		.4byte	0x10f1
 5359 10be 14       		.uleb128 0x14
 5360 10bf 7D0F0000 		.4byte	0xf7d
 5361 10c3 14       		.uleb128 0x14
 5362 10c4 D8080000 		.4byte	0x8d8
 5363 10c8 14       		.uleb128 0x14
 5364 10c9 EE030000 		.4byte	0x3ee
 5365 10cd 14       		.uleb128 0x14
 5366 10ce 0D020000 		.4byte	0x20d
 5367 10d2 14       		.uleb128 0x14
 5368 10d3 0D020000 		.4byte	0x20d
 5369 10d7 14       		.uleb128 0x14
 5370 10d8 0D020000 		.4byte	0x20d
 5371 10dc 14       		.uleb128 0x14
 5372 10dd 0E100000 		.4byte	0x100e
 5373 10e1 14       		.uleb128 0x14
 5374 10e2 F9080000 		.4byte	0x8f9
 5375 10e6 14       		.uleb128 0x14
 5376 10e7 D7090000 		.4byte	0x9d7
 5377 10eb 14       		.uleb128 0x14
 5378 10ec 58080000 		.4byte	0x858
 5379 10f0 00       		.byte	0
 5380 10f1 11       		.uleb128 0x11
 5381 10f2 04       		.byte	0x4
 5382 10f3 B9100000 		.4byte	0x10b9
 5383 10f7 1F       		.uleb128 0x1f
 5384 10f8 20110000 		.4byte	0x1120
 5385 10fc 14       		.uleb128 0x14
 5386 10fd 7D0F0000 		.4byte	0xf7d
 5387 1101 14       		.uleb128 0x14
 5388 1102 34010000 		.4byte	0x134
 5389 1106 14       		.uleb128 0x14
 5390 1107 0D020000 		.4byte	0x20d
 5391 110b 14       		.uleb128 0x14
ARM GAS  C:\Users\haske\AppData\Local\Temp\cc7ZkKza.s 			page 132


 5392 110c D8080000 		.4byte	0x8d8
 5393 1110 14       		.uleb128 0x14
 5394 1111 34010000 		.4byte	0x134
 5395 1115 14       		.uleb128 0x14
 5396 1116 0D020000 		.4byte	0x20d
 5397 111a 14       		.uleb128 0x14
 5398 111b D8080000 		.4byte	0x8d8
 5399 111f 00       		.byte	0
 5400 1120 11       		.uleb128 0x11
 5401 1121 04       		.byte	0x4
 5402 1122 F7100000 		.4byte	0x10f7
 5403 1126 13       		.uleb128 0x13
 5404 1127 3F110000 		.4byte	0x113f
 5405 112b 3F110000 		.4byte	0x113f
 5406 112f 14       		.uleb128 0x14
 5407 1130 7D0F0000 		.4byte	0xf7d
 5408 1134 14       		.uleb128 0x14
 5409 1135 3F110000 		.4byte	0x113f
 5410 1139 14       		.uleb128 0x14
 5411 113a BF0D0000 		.4byte	0xdbf
 5412 113e 00       		.byte	0
 5413 113f 11       		.uleb128 0x11
 5414 1140 04       		.byte	0x4
 5415 1141 090E0000 		.4byte	0xe09
 5416 1145 11       		.uleb128 0x11
 5417 1146 04       		.byte	0x4
 5418 1147 26110000 		.4byte	0x1126
 5419 114b 1F       		.uleb128 0x1f
 5420 114c 60110000 		.4byte	0x1160
 5421 1150 14       		.uleb128 0x14
 5422 1151 7D0F0000 		.4byte	0xf7d
 5423 1155 14       		.uleb128 0x14
 5424 1156 3F110000 		.4byte	0x113f
 5425 115a 14       		.uleb128 0x14
 5426 115b BF0D0000 		.4byte	0xdbf
 5427 115f 00       		.byte	0
 5428 1160 11       		.uleb128 0x11
 5429 1161 04       		.byte	0x4
 5430 1162 4B110000 		.4byte	0x114b
 5431 1166 1F       		.uleb128 0x1f
 5432 1167 7B110000 		.4byte	0x117b
 5433 116b 14       		.uleb128 0x14
 5434 116c 7D0F0000 		.4byte	0xf7d
 5435 1170 14       		.uleb128 0x14
 5436 1171 3F110000 		.4byte	0x113f
 5437 1175 14       		.uleb128 0x14
 5438 1176 0E100000 		.4byte	0x100e
 5439 117a 00       		.byte	0
 5440 117b 11       		.uleb128 0x11
 5441 117c 04       		.byte	0x4
 5442 117d 66110000 		.4byte	0x1166
 5443 1181 1F       		.uleb128 0x1f
 5444 1182 91110000 		.4byte	0x1191
 5445 1186 14       		.uleb128 0x14
 5446 1187 7D0F0000 		.4byte	0xf7d
 5447 118b 14       		.uleb128 0x14
 5448 118c 91110000 		.4byte	0x1191
ARM GAS  C:\Users\haske\AppData\Local\Temp\cc7ZkKza.s 			page 133


 5449 1190 00       		.byte	0
 5450 1191 11       		.uleb128 0x11
 5451 1192 04       		.byte	0x4
 5452 1193 5E0E0000 		.4byte	0xe5e
 5453 1197 11       		.uleb128 0x11
 5454 1198 04       		.byte	0x4
 5455 1199 81110000 		.4byte	0x1181
 5456 119d 02       		.uleb128 0x2
 5457 119e AA090000 		.4byte	.LASF310
 5458 11a2 16       		.byte	0x16
 5459 11a3 C0       		.byte	0xc0
 5460 11a4 690E0000 		.4byte	0xe69
 5461 11a8 02       		.uleb128 0x2
 5462 11a9 8F0F0000 		.4byte	.LASF311
 5463 11ad 17       		.byte	0x17
 5464 11ae 27       		.byte	0x27
 5465 11af B3110000 		.4byte	0x11b3
 5466 11b3 11       		.uleb128 0x11
 5467 11b4 04       		.byte	0x4
 5468 11b5 B9110000 		.4byte	0x11b9
 5469 11b9 1F       		.uleb128 0x1f
 5470 11ba C4110000 		.4byte	0x11c4
 5471 11be 14       		.uleb128 0x14
 5472 11bf C4110000 		.4byte	0x11c4
 5473 11c3 00       		.byte	0
 5474 11c4 11       		.uleb128 0x11
 5475 11c5 04       		.byte	0x4
 5476 11c6 CA110000 		.4byte	0x11ca
 5477 11ca 10       		.uleb128 0x10
 5478 11cb 2B020000 		.4byte	.LASF312
 5479 11cf 18       		.byte	0x18
 5480 11d0 17       		.byte	0x17
 5481 11d1 2C       		.byte	0x2c
 5482 11d2 22120000 		.4byte	0x1222
 5483 11d6 0F       		.uleb128 0xf
 5484 11d7 18060000 		.4byte	.LASF313
 5485 11db 17       		.byte	0x17
 5486 11dc 2D       		.byte	0x2d
 5487 11dd EF000000 		.4byte	0xef
 5488 11e1 00       		.byte	0
 5489 11e2 0F       		.uleb128 0xf
 5490 11e3 EE150000 		.4byte	.LASF314
 5491 11e7 17       		.byte	0x17
 5492 11e8 2E       		.byte	0x2e
 5493 11e9 EF000000 		.4byte	0xef
 5494 11ed 04       		.byte	0x4
 5495 11ee 0F       		.uleb128 0xf
 5496 11ef 85140000 		.4byte	.LASF315
 5497 11f3 17       		.byte	0x17
 5498 11f4 2F       		.byte	0x2f
 5499 11f5 A8110000 		.4byte	0x11a8
 5500 11f9 08       		.byte	0x8
 5501 11fa 0F       		.uleb128 0xf
 5502 11fb 6B1D0000 		.4byte	.LASF67
 5503 11ff 17       		.byte	0x17
 5504 1200 30       		.byte	0x30
 5505 1201 34010000 		.4byte	0x134
ARM GAS  C:\Users\haske\AppData\Local\Temp\cc7ZkKza.s 			page 134


 5506 1205 0C       		.byte	0xc
 5507 1206 0F       		.uleb128 0xf
 5508 1207 F3010000 		.4byte	.LASF316
 5509 120b 17       		.byte	0x17
 5510 120c 31       		.byte	0x31
 5511 120d E4000000 		.4byte	0xe4
 5512 1211 10       		.byte	0x10
 5513 1212 09       		.uleb128 0x9
 5514 1213 D2110000 		.4byte	.LASF317
 5515 1217 17       		.byte	0x17
 5516 1218 32       		.byte	0x32
 5517 1219 EF000000 		.4byte	0xef
 5518 121d 04       		.byte	0x4
 5519 121e 01       		.byte	0x1
 5520 121f 1F       		.byte	0x1f
 5521 1220 14       		.byte	0x14
 5522 1221 00       		.byte	0
 5523 1222 02       		.uleb128 0x2
 5524 1223 B40A0000 		.4byte	.LASF318
 5525 1227 17       		.byte	0x17
 5526 1228 33       		.byte	0x33
 5527 1229 CA110000 		.4byte	0x11ca
 5528 122d 20       		.uleb128 0x20
 5529 122e 20120000 		.4byte	.LASF319
 5530 1232 5C01     		.2byte	0x15c
 5531 1234 18       		.byte	0x18
 5532 1235 9E       		.byte	0x9e
 5533 1236 44130000 		.4byte	0x1344
 5534 123a 0F       		.uleb128 0xf
 5535 123b 6F090000 		.4byte	.LASF320
 5536 123f 18       		.byte	0x18
 5537 1240 A0       		.byte	0xa0
 5538 1241 3F160000 		.4byte	0x163f
 5539 1245 00       		.byte	0
 5540 1246 0F       		.uleb128 0xf
 5541 1247 CF040000 		.4byte	.LASF321
 5542 124b 18       		.byte	0x18
 5543 124c A3       		.byte	0xa3
 5544 124d 44130000 		.4byte	0x1344
 5545 1251 04       		.byte	0x4
 5546 1252 0F       		.uleb128 0xf
 5547 1253 AA0D0000 		.4byte	.LASF322
 5548 1257 18       		.byte	0x18
 5549 1258 A6       		.byte	0xa6
 5550 1259 F8160000 		.4byte	0x16f8
 5551 125d 08       		.byte	0x8
 5552 125e 0F       		.uleb128 0xf
 5553 125f F1030000 		.4byte	.LASF323
 5554 1263 18       		.byte	0x18
 5555 1264 A9       		.byte	0xa9
 5556 1265 FE160000 		.4byte	0x16fe
 5557 1269 0C       		.byte	0xc
 5558 126a 0F       		.uleb128 0xf
 5559 126b B2000000 		.4byte	.LASF324
 5560 126f 18       		.byte	0x18
 5561 1270 AA       		.byte	0xaa
 5562 1271 0A090000 		.4byte	0x90a
ARM GAS  C:\Users\haske\AppData\Local\Temp\cc7ZkKza.s 			page 135


 5563 1275 10       		.byte	0x10
 5564 1276 0F       		.uleb128 0xf
 5565 1277 E3180000 		.4byte	.LASF325
 5566 127b 18       		.byte	0x18
 5567 127c AB       		.byte	0xab
 5568 127d 0A090000 		.4byte	0x90a
 5569 1281 14       		.byte	0x14
 5570 1282 0F       		.uleb128 0xf
 5571 1283 56050000 		.4byte	.LASF326
 5572 1287 18       		.byte	0x18
 5573 1288 AC       		.byte	0xac
 5574 1289 0A090000 		.4byte	0x90a
 5575 128d 18       		.byte	0x18
 5576 128e 0F       		.uleb128 0xf
 5577 128f CC060000 		.4byte	.LASF327
 5578 1293 18       		.byte	0x18
 5579 1294 AD       		.byte	0xad
 5580 1295 0A090000 		.4byte	0x90a
 5581 1299 1C       		.byte	0x1c
 5582 129a 0F       		.uleb128 0xf
 5583 129b 64150000 		.4byte	.LASF328
 5584 129f 18       		.byte	0x18
 5585 12a0 AE       		.byte	0xae
 5586 12a1 0A090000 		.4byte	0x90a
 5587 12a5 20       		.byte	0x20
 5588 12a6 0F       		.uleb128 0xf
 5589 12a7 BA000000 		.4byte	.LASF329
 5590 12ab 18       		.byte	0x18
 5591 12ac AF       		.byte	0xaf
 5592 12ad EF000000 		.4byte	0xef
 5593 12b1 24       		.byte	0x24
 5594 12b2 09       		.uleb128 0x9
 5595 12b3 520D0000 		.4byte	.LASF330
 5596 12b7 18       		.byte	0x18
 5597 12b8 B0       		.byte	0xb0
 5598 12b9 C3000000 		.4byte	0xc3
 5599 12bd 01       		.byte	0x1
 5600 12be 01       		.byte	0x1
 5601 12bf 07       		.byte	0x7
 5602 12c0 28       		.byte	0x28
 5603 12c1 09       		.uleb128 0x9
 5604 12c2 7B1A0000 		.4byte	.LASF331
 5605 12c6 18       		.byte	0x18
 5606 12c7 B2       		.byte	0xb2
 5607 12c8 C3000000 		.4byte	0xc3
 5608 12cc 01       		.byte	0x1
 5609 12cd 01       		.byte	0x1
 5610 12ce 06       		.byte	0x6
 5611 12cf 28       		.byte	0x28
 5612 12d0 09       		.uleb128 0x9
 5613 12d1 B3070000 		.4byte	.LASF332
 5614 12d5 18       		.byte	0x18
 5615 12d6 B4       		.byte	0xb4
 5616 12d7 C3000000 		.4byte	0xc3
 5617 12db 01       		.byte	0x1
 5618 12dc 01       		.byte	0x1
 5619 12dd 05       		.byte	0x5
ARM GAS  C:\Users\haske\AppData\Local\Temp\cc7ZkKza.s 			page 136


 5620 12de 28       		.byte	0x28
 5621 12df 0F       		.uleb128 0xf
 5622 12e0 C8040000 		.4byte	.LASF221
 5623 12e4 18       		.byte	0x18
 5624 12e5 B6       		.byte	0xb6
 5625 12e6 02020000 		.4byte	0x202
 5626 12ea 29       		.byte	0x29
 5627 12eb 0F       		.uleb128 0xf
 5628 12ec 37010000 		.4byte	.LASF222
 5629 12f0 18       		.byte	0x18
 5630 12f1 B7       		.byte	0xb7
 5631 12f2 F7010000 		.4byte	0x1f7
 5632 12f6 2A       		.byte	0x2a
 5633 12f7 0F       		.uleb128 0xf
 5634 12f8 841A0000 		.4byte	.LASF333
 5635 12fc 18       		.byte	0x18
 5636 12fd B8       		.byte	0xb8
 5637 12fe EE030000 		.4byte	0x3ee
 5638 1302 2C       		.byte	0x2c
 5639 1303 0F       		.uleb128 0xf
 5640 1304 63120000 		.4byte	.LASF334
 5641 1308 18       		.byte	0x18
 5642 1309 BB       		.byte	0xbb
 5643 130a 04170000 		.4byte	0x1704
 5644 130e 30       		.byte	0x30
 5645 130f 21       		.uleb128 0x21
 5646 1310 1A050000 		.4byte	.LASF335
 5647 1314 18       		.byte	0x18
 5648 1315 BC       		.byte	0xbc
 5649 1316 14170000 		.4byte	0x1714
 5650 131a 3001     		.2byte	0x130
 5651 131c 21       		.uleb128 0x21
 5652 131d 65190000 		.4byte	.LASF336
 5653 1321 18       		.byte	0x18
 5654 1322 BD       		.byte	0xbd
 5655 1323 D9000000 		.4byte	0xd9
 5656 1327 5001     		.2byte	0x150
 5657 1329 21       		.uleb128 0x21
 5658 132a F1190000 		.4byte	.LASF337
 5659 132e 18       		.byte	0x18
 5660 132f BE       		.byte	0xbe
 5661 1330 E4000000 		.4byte	0xe4
 5662 1334 5401     		.2byte	0x154
 5663 1336 21       		.uleb128 0x21
 5664 1337 6B040000 		.4byte	.LASF338
 5665 133b 18       		.byte	0x18
 5666 133c C1       		.byte	0xc1
 5667 133d EF000000 		.4byte	0xef
 5668 1341 5801     		.2byte	0x158
 5669 1343 00       		.byte	0
 5670 1344 11       		.uleb128 0x11
 5671 1345 04       		.byte	0x4
 5672 1346 22120000 		.4byte	0x1222
 5673 134a 10       		.uleb128 0x10
 5674 134b A91E0000 		.4byte	.LASF339
 5675 134f 20       		.byte	0x20
 5676 1350 19       		.byte	0x19
ARM GAS  C:\Users\haske\AppData\Local\Temp\cc7ZkKza.s 			page 137


 5677 1351 3B       		.byte	0x3b
 5678 1352 CF130000 		.4byte	0x13cf
 5679 1356 0F       		.uleb128 0xf
 5680 1357 D00D0000 		.4byte	.LASF340
 5681 135b 19       		.byte	0x19
 5682 135c 3C       		.byte	0x3c
 5683 135d 13140000 		.4byte	0x1413
 5684 1361 00       		.byte	0
 5685 1362 0F       		.uleb128 0xf
 5686 1363 151F0000 		.4byte	.LASF341
 5687 1367 19       		.byte	0x19
 5688 1368 3D       		.byte	0x3d
 5689 1369 FE160000 		.4byte	0x16fe
 5690 136d 0C       		.byte	0xc
 5691 136e 0F       		.uleb128 0xf
 5692 136f 95130000 		.4byte	.LASF342
 5693 1373 19       		.byte	0x19
 5694 1374 3F       		.byte	0x3f
 5695 1375 851A0000 		.4byte	0x1a85
 5696 1379 10       		.byte	0x10
 5697 137a 0F       		.uleb128 0xf
 5698 137b 12050000 		.4byte	.LASF343
 5699 137f 19       		.byte	0x19
 5700 1380 40       		.byte	0x40
 5701 1381 A11A0000 		.4byte	0x1aa1
 5702 1385 14       		.byte	0x14
 5703 1386 0F       		.uleb128 0xf
 5704 1387 6B1D0000 		.4byte	.LASF67
 5705 138b 19       		.byte	0x19
 5706 138c 45       		.byte	0x45
 5707 138d 34010000 		.4byte	0x134
 5708 1391 18       		.byte	0x18
 5709 1392 09       		.uleb128 0x9
 5710 1393 99050000 		.4byte	.LASF344
 5711 1397 19       		.byte	0x19
 5712 1398 48       		.byte	0x48
 5713 1399 C3000000 		.4byte	0xc3
 5714 139d 01       		.byte	0x1
 5715 139e 01       		.byte	0x1
 5716 139f 07       		.byte	0x7
 5717 13a0 1C       		.byte	0x1c
 5718 13a1 09       		.uleb128 0x9
 5719 13a2 69110000 		.4byte	.LASF345
 5720 13a6 19       		.byte	0x19
 5721 13a7 49       		.byte	0x49
 5722 13a8 C3000000 		.4byte	0xc3
 5723 13ac 01       		.byte	0x1
 5724 13ad 01       		.byte	0x1
 5725 13ae 06       		.byte	0x6
 5726 13af 1C       		.byte	0x1c
 5727 13b0 09       		.uleb128 0x9
 5728 13b1 F71D0000 		.4byte	.LASF346
 5729 13b5 19       		.byte	0x19
 5730 13b6 4A       		.byte	0x4a
 5731 13b7 C3000000 		.4byte	0xc3
 5732 13bb 01       		.byte	0x1
 5733 13bc 01       		.byte	0x1
ARM GAS  C:\Users\haske\AppData\Local\Temp\cc7ZkKza.s 			page 138


 5734 13bd 05       		.byte	0x5
 5735 13be 1C       		.byte	0x1c
 5736 13bf 09       		.uleb128 0x9
 5737 13c0 F7150000 		.4byte	.LASF347
 5738 13c4 19       		.byte	0x19
 5739 13c5 4C       		.byte	0x4c
 5740 13c6 C3000000 		.4byte	0xc3
 5741 13ca 01       		.byte	0x1
 5742 13cb 01       		.byte	0x1
 5743 13cc 04       		.byte	0x4
 5744 13cd 1C       		.byte	0x1c
 5745 13ce 00       		.byte	0
 5746 13cf 11       		.uleb128 0x11
 5747 13d0 04       		.byte	0x4
 5748 13d1 4A130000 		.4byte	0x134a
 5749 13d5 02       		.uleb128 0x2
 5750 13d6 6E1A0000 		.4byte	.LASF348
 5751 13da 1A       		.byte	0x1a
 5752 13db 1D       		.byte	0x1d
 5753 13dc C3000000 		.4byte	0xc3
 5754 13e0 08       		.uleb128 0x8
 5755 13e1 0C       		.byte	0xc
 5756 13e2 1A       		.byte	0x1a
 5757 13e3 20       		.byte	0x20
 5758 13e4 0D140000 		.4byte	0x140d
 5759 13e8 0F       		.uleb128 0xf
 5760 13e9 A21E0000 		.4byte	.LASF349
 5761 13ed 1A       		.byte	0x1a
 5762 13ee 21       		.byte	0x21
 5763 13ef EF000000 		.4byte	0xef
 5764 13f3 00       		.byte	0
 5765 13f4 0F       		.uleb128 0xf
 5766 13f5 69050000 		.4byte	.LASF350
 5767 13f9 1A       		.byte	0x1a
 5768 13fa 22       		.byte	0x22
 5769 13fb 0D140000 		.4byte	0x140d
 5770 13ff 04       		.byte	0x4
 5771 1400 0F       		.uleb128 0xf
 5772 1401 AD000000 		.4byte	.LASF351
 5773 1405 1A       		.byte	0x1a
 5774 1406 23       		.byte	0x23
 5775 1407 0D140000 		.4byte	0x140d
 5776 140b 08       		.byte	0x8
 5777 140c 00       		.byte	0
 5778 140d 11       		.uleb128 0x11
 5779 140e 04       		.byte	0x4
 5780 140f D5130000 		.4byte	0x13d5
 5781 1413 02       		.uleb128 0x2
 5782 1414 6B190000 		.4byte	.LASF352
 5783 1418 1A       		.byte	0x1a
 5784 1419 24       		.byte	0x24
 5785 141a E0130000 		.4byte	0x13e0
 5786 141e 10       		.uleb128 0x10
 5787 141f C10E0000 		.4byte	.LASF353
 5788 1423 1C       		.byte	0x1c
 5789 1424 18       		.byte	0x18
 5790 1425 32       		.byte	0x32
ARM GAS  C:\Users\haske\AppData\Local\Temp\cc7ZkKza.s 			page 139


 5791 1426 91140000 		.4byte	0x1491
 5792 142a 0F       		.uleb128 0xf
 5793 142b 78100000 		.4byte	.LASF354
 5794 142f 18       		.byte	0x18
 5795 1430 33       		.byte	0x33
 5796 1431 34010000 		.4byte	0x134
 5797 1435 00       		.byte	0
 5798 1436 0F       		.uleb128 0xf
 5799 1437 7D100000 		.4byte	.LASF355
 5800 143b 18       		.byte	0x18
 5801 143c 34       		.byte	0x34
 5802 143d 34010000 		.4byte	0x134
 5803 1441 04       		.byte	0x4
 5804 1442 0F       		.uleb128 0xf
 5805 1443 D4130000 		.4byte	.LASF356
 5806 1447 18       		.byte	0x18
 5807 1448 37       		.byte	0x37
 5808 1449 34010000 		.4byte	0x134
 5809 144d 08       		.byte	0x8
 5810 144e 0F       		.uleb128 0xf
 5811 144f 32150000 		.4byte	.LASF357
 5812 1453 18       		.byte	0x18
 5813 1454 38       		.byte	0x38
 5814 1455 EF000000 		.4byte	0xef
 5815 1459 0C       		.byte	0xc
 5816 145a 0F       		.uleb128 0xf
 5817 145b 6C0A0000 		.4byte	.LASF358
 5818 145f 18       		.byte	0x18
 5819 1460 3A       		.byte	0x3a
 5820 1461 91140000 		.4byte	0x1491
 5821 1465 10       		.byte	0x10
 5822 1466 0F       		.uleb128 0xf
 5823 1467 D2070000 		.4byte	.LASF359
 5824 146b 18       		.byte	0x18
 5825 146c 3C       		.byte	0x3c
 5826 146d 91140000 		.4byte	0x1491
 5827 1471 14       		.byte	0x14
 5828 1472 09       		.uleb128 0x9
 5829 1473 E2100000 		.4byte	.LASF360
 5830 1477 18       		.byte	0x18
 5831 1478 3D       		.byte	0x3d
 5832 1479 96140000 		.4byte	0x1496
 5833 147d 04       		.byte	0x4
 5834 147e 01       		.byte	0x1
 5835 147f 1F       		.byte	0x1f
 5836 1480 18       		.byte	0x18
 5837 1481 09       		.uleb128 0x9
 5838 1482 7E0D0000 		.4byte	.LASF361
 5839 1486 18       		.byte	0x18
 5840 1487 3E       		.byte	0x3e
 5841 1488 96140000 		.4byte	0x1496
 5842 148c 04       		.byte	0x4
 5843 148d 01       		.byte	0x1
 5844 148e 1E       		.byte	0x1e
 5845 148f 18       		.byte	0x18
 5846 1490 00       		.byte	0
 5847 1491 22       		.uleb128 0x22
ARM GAS  C:\Users\haske\AppData\Local\Temp\cc7ZkKza.s 			page 140


 5848 1492 9F000000 		.4byte	0x9f
 5849 1496 22       		.uleb128 0x22
 5850 1497 EF000000 		.4byte	0xef
 5851 149b 02       		.uleb128 0x2
 5852 149c 4A000000 		.4byte	.LASF362
 5853 14a0 18       		.byte	0x18
 5854 14a1 3F       		.byte	0x3f
 5855 14a2 1E140000 		.4byte	0x141e
 5856 14a6 10       		.uleb128 0x10
 5857 14a7 061E0000 		.4byte	.LASF363
 5858 14ab 50       		.byte	0x50
 5859 14ac 18       		.byte	0x18
 5860 14ad 4D       		.byte	0x4d
 5861 14ae 24160000 		.4byte	0x1624
 5862 14b2 0F       		.uleb128 0xf
 5863 14b3 51060000 		.4byte	.LASF364
 5864 14b7 18       		.byte	0x18
 5865 14b8 4F       		.byte	0x4f
 5866 14b9 0D020000 		.4byte	0x20d
 5867 14bd 00       		.byte	0
 5868 14be 0F       		.uleb128 0xf
 5869 14bf C7030000 		.4byte	.LASF365
 5870 14c3 18       		.byte	0x18
 5871 14c4 50       		.byte	0x50
 5872 14c5 0D020000 		.4byte	0x20d
 5873 14c9 02       		.byte	0x2
 5874 14ca 0F       		.uleb128 0xf
 5875 14cb 21150000 		.4byte	.LASF366
 5876 14cf 18       		.byte	0x18
 5877 14d0 53       		.byte	0x53
 5878 14d1 0D020000 		.4byte	0x20d
 5879 14d5 04       		.byte	0x4
 5880 14d6 0F       		.uleb128 0xf
 5881 14d7 F5070000 		.4byte	.LASF367
 5882 14db 18       		.byte	0x18
 5883 14dc 55       		.byte	0x55
 5884 14dd 0D020000 		.4byte	0x20d
 5885 14e1 06       		.byte	0x6
 5886 14e2 0F       		.uleb128 0xf
 5887 14e3 B00D0000 		.4byte	.LASF368
 5888 14e7 18       		.byte	0x18
 5889 14e8 57       		.byte	0x57
 5890 14e9 0D020000 		.4byte	0x20d
 5891 14ed 08       		.byte	0x8
 5892 14ee 0F       		.uleb128 0xf
 5893 14ef B90D0000 		.4byte	.LASF369
 5894 14f3 18       		.byte	0x18
 5895 14f4 58       		.byte	0x58
 5896 14f5 0D020000 		.4byte	0x20d
 5897 14f9 0A       		.byte	0xa
 5898 14fa 0F       		.uleb128 0xf
 5899 14fb 1E170000 		.4byte	.LASF370
 5900 14ff 18       		.byte	0x18
 5901 1500 5C       		.byte	0x5c
 5902 1501 24160000 		.4byte	0x1624
 5903 1505 0C       		.byte	0xc
 5904 1506 09       		.uleb128 0x9
ARM GAS  C:\Users\haske\AppData\Local\Temp\cc7ZkKza.s 			page 141


 5905 1507 0E090000 		.4byte	.LASF371
 5906 150b 18       		.byte	0x18
 5907 150c 5E       		.byte	0x5e
 5908 150d EF000000 		.4byte	0xef
 5909 1511 04       		.byte	0x4
 5910 1512 01       		.byte	0x1
 5911 1513 1F       		.byte	0x1f
 5912 1514 10       		.byte	0x10
 5913 1515 09       		.uleb128 0x9
 5914 1516 050C0000 		.4byte	.LASF372
 5915 151a 18       		.byte	0x18
 5916 151b 5F       		.byte	0x5f
 5917 151c EF000000 		.4byte	0xef
 5918 1520 04       		.byte	0x4
 5919 1521 01       		.byte	0x1
 5920 1522 1E       		.byte	0x1e
 5921 1523 10       		.byte	0x10
 5922 1524 09       		.uleb128 0x9
 5923 1525 100B0000 		.4byte	.LASF373
 5924 1529 18       		.byte	0x18
 5925 152a 60       		.byte	0x60
 5926 152b EF000000 		.4byte	0xef
 5927 152f 04       		.byte	0x4
 5928 1530 01       		.byte	0x1
 5929 1531 1D       		.byte	0x1d
 5930 1532 10       		.byte	0x10
 5931 1533 09       		.uleb128 0x9
 5932 1534 62090000 		.4byte	.LASF374
 5933 1538 18       		.byte	0x18
 5934 1539 61       		.byte	0x61
 5935 153a EF000000 		.4byte	0xef
 5936 153e 04       		.byte	0x4
 5937 153f 01       		.byte	0x1
 5938 1540 1C       		.byte	0x1c
 5939 1541 10       		.byte	0x10
 5940 1542 09       		.uleb128 0x9
 5941 1543 9B040000 		.4byte	.LASF375
 5942 1547 18       		.byte	0x18
 5943 1548 62       		.byte	0x62
 5944 1549 EF000000 		.4byte	0xef
 5945 154d 04       		.byte	0x4
 5946 154e 02       		.byte	0x2
 5947 154f 1A       		.byte	0x1a
 5948 1550 10       		.byte	0x10
 5949 1551 09       		.uleb128 0x9
 5950 1552 FC190000 		.4byte	.LASF284
 5951 1556 18       		.byte	0x18
 5952 1557 63       		.byte	0x63
 5953 1558 EF000000 		.4byte	0xef
 5954 155c 04       		.byte	0x4
 5955 155d 01       		.byte	0x1
 5956 155e 19       		.byte	0x19
 5957 155f 10       		.byte	0x10
 5958 1560 0A       		.uleb128 0xa
 5959 1561 64706900 		.ascii	"dpi\000"
 5960 1565 18       		.byte	0x18
 5961 1566 66       		.byte	0x66
ARM GAS  C:\Users\haske\AppData\Local\Temp\cc7ZkKza.s 			page 142


 5962 1567 EF000000 		.4byte	0xef
 5963 156b 04       		.byte	0x4
 5964 156c 0A       		.byte	0xa
 5965 156d 0F       		.byte	0xf
 5966 156e 10       		.byte	0x10
 5967 156f 0F       		.uleb128 0xf
 5968 1570 4B1D0000 		.4byte	.LASF376
 5969 1574 18       		.byte	0x18
 5970 1575 6A       		.byte	0x6a
 5971 1576 45160000 		.4byte	0x1645
 5972 157a 14       		.byte	0x14
 5973 157b 0F       		.uleb128 0xf
 5974 157c 3D170000 		.4byte	.LASF377
 5975 1580 18       		.byte	0x18
 5976 1581 6E       		.byte	0x6e
 5977 1582 5B160000 		.4byte	0x165b
 5978 1586 18       		.byte	0x18
 5979 1587 0F       		.uleb128 0xf
 5980 1588 4F1B0000 		.4byte	.LASF378
 5981 158c 18       		.byte	0x18
 5982 158d 73       		.byte	0x73
 5983 158e 8A160000 		.4byte	0x168a
 5984 1592 1C       		.byte	0x1c
 5985 1593 0F       		.uleb128 0xf
 5986 1594 6C0C0000 		.4byte	.LASF379
 5987 1598 18       		.byte	0x18
 5988 1599 76       		.byte	0x76
 5989 159a A5160000 		.4byte	0x16a5
 5990 159e 20       		.byte	0x20
 5991 159f 0F       		.uleb128 0xf
 5992 15a0 53110000 		.4byte	.LASF380
 5993 15a4 18       		.byte	0x18
 5994 15a5 7B       		.byte	0x7b
 5995 15a6 C0160000 		.4byte	0x16c0
 5996 15aa 24       		.byte	0x24
 5997 15ab 0F       		.uleb128 0xf
 5998 15ac E20F0000 		.4byte	.LASF381
 5999 15b0 18       		.byte	0x18
 6000 15b1 80       		.byte	0x80
 6001 15b2 D1160000 		.4byte	0x16d1
 6002 15b6 28       		.byte	0x28
 6003 15b7 0F       		.uleb128 0xf
 6004 15b8 471E0000 		.4byte	.LASF382
 6005 15bc 18       		.byte	0x18
 6006 15bd 83       		.byte	0x83
 6007 15be D1160000 		.4byte	0x16d1
 6008 15c2 2C       		.byte	0x2c
 6009 15c3 0F       		.uleb128 0xf
 6010 15c4 E5140000 		.4byte	.LASF383
 6011 15c8 18       		.byte	0x18
 6012 15c9 86       		.byte	0x86
 6013 15ca D1160000 		.4byte	0x16d1
 6014 15ce 30       		.byte	0x30
 6015 15cf 0F       		.uleb128 0xf
 6016 15d0 D5140000 		.4byte	.LASF384
 6017 15d4 18       		.byte	0x18
 6018 15d5 89       		.byte	0x89
ARM GAS  C:\Users\haske\AppData\Local\Temp\cc7ZkKza.s 			page 143


 6019 15d6 D1160000 		.4byte	0x16d1
 6020 15da 34       		.byte	0x34
 6021 15db 0F       		.uleb128 0xf
 6022 15dc 1D000000 		.4byte	.LASF385
 6023 15e0 18       		.byte	0x18
 6024 15e1 8D       		.byte	0x8d
 6025 15e2 F7010000 		.4byte	0x1f7
 6026 15e6 38       		.byte	0x38
 6027 15e7 0F       		.uleb128 0xf
 6028 15e8 D81B0000 		.4byte	.LASF386
 6029 15ec 18       		.byte	0x18
 6030 15ed 8F       		.byte	0x8f
 6031 15ee D7160000 		.4byte	0x16d7
 6032 15f2 3C       		.byte	0x3c
 6033 15f3 0F       		.uleb128 0xf
 6034 15f4 270F0000 		.4byte	.LASF387
 6035 15f8 18       		.byte	0x18
 6036 15f9 90       		.byte	0x90
 6037 15fa ED160000 		.4byte	0x16ed
 6038 15fe 40       		.byte	0x40
 6039 15ff 0F       		.uleb128 0xf
 6040 1600 B8040000 		.4byte	.LASF388
 6041 1604 18       		.byte	0x18
 6042 1605 91       		.byte	0x91
 6043 1606 ED160000 		.4byte	0x16ed
 6044 160a 44       		.byte	0x44
 6045 160b 0F       		.uleb128 0xf
 6046 160c 7C010000 		.4byte	.LASF389
 6047 1610 18       		.byte	0x18
 6048 1611 92       		.byte	0x92
 6049 1612 1B010000 		.4byte	0x11b
 6050 1616 48       		.byte	0x48
 6051 1617 0F       		.uleb128 0xf
 6052 1618 6B1D0000 		.4byte	.LASF67
 6053 161c 18       		.byte	0x18
 6054 161d 95       		.byte	0x95
 6055 161e 34010000 		.4byte	0x134
 6056 1622 4C       		.byte	0x4c
 6057 1623 00       		.byte	0
 6058 1624 11       		.uleb128 0x11
 6059 1625 04       		.byte	0x4
 6060 1626 9B140000 		.4byte	0x149b
 6061 162a 1F       		.uleb128 0x1f
 6062 162b 3F160000 		.4byte	0x163f
 6063 162f 14       		.uleb128 0x14
 6064 1630 3F160000 		.4byte	0x163f
 6065 1634 14       		.uleb128 0x14
 6066 1635 D8080000 		.4byte	0x8d8
 6067 1639 14       		.uleb128 0x14
 6068 163a D7090000 		.4byte	0x9d7
 6069 163e 00       		.byte	0
 6070 163f 11       		.uleb128 0x11
 6071 1640 04       		.byte	0x4
 6072 1641 A6140000 		.4byte	0x14a6
 6073 1645 11       		.uleb128 0x11
 6074 1646 04       		.byte	0x4
 6075 1647 2A160000 		.4byte	0x162a
ARM GAS  C:\Users\haske\AppData\Local\Temp\cc7ZkKza.s 			page 144


 6076 164b 1F       		.uleb128 0x1f
 6077 164c 5B160000 		.4byte	0x165b
 6078 1650 14       		.uleb128 0x14
 6079 1651 3F160000 		.4byte	0x163f
 6080 1655 14       		.uleb128 0x14
 6081 1656 030E0000 		.4byte	0xe03
 6082 165a 00       		.byte	0
 6083 165b 11       		.uleb128 0x11
 6084 165c 04       		.byte	0x4
 6085 165d 4B160000 		.4byte	0x164b
 6086 1661 1F       		.uleb128 0x1f
 6087 1662 8A160000 		.4byte	0x168a
 6088 1666 14       		.uleb128 0x14
 6089 1667 3F160000 		.4byte	0x163f
 6090 166b 14       		.uleb128 0x14
 6091 166c CD070000 		.4byte	0x7cd
 6092 1670 14       		.uleb128 0x14
 6093 1671 0D020000 		.4byte	0x20d
 6094 1675 14       		.uleb128 0x14
 6095 1676 0D020000 		.4byte	0x20d
 6096 167a 14       		.uleb128 0x14
 6097 167b 0D020000 		.4byte	0x20d
 6098 167f 14       		.uleb128 0x14
 6099 1680 F7010000 		.4byte	0x1f7
 6100 1684 14       		.uleb128 0x14
 6101 1685 02020000 		.4byte	0x202
 6102 1689 00       		.byte	0
 6103 168a 11       		.uleb128 0x11
 6104 168b 04       		.byte	0x4
 6105 168c 61160000 		.4byte	0x1661
 6106 1690 1F       		.uleb128 0x1f
 6107 1691 A5160000 		.4byte	0x16a5
 6108 1695 14       		.uleb128 0x14
 6109 1696 3F160000 		.4byte	0x163f
 6110 169a 14       		.uleb128 0x14
 6111 169b CD070000 		.4byte	0x7cd
 6112 169f 14       		.uleb128 0x14
 6113 16a0 EF000000 		.4byte	0xef
 6114 16a4 00       		.byte	0
 6115 16a5 11       		.uleb128 0x11
 6116 16a6 04       		.byte	0x4
 6117 16a7 90160000 		.4byte	0x1690
 6118 16ab 1F       		.uleb128 0x1f
 6119 16ac C0160000 		.4byte	0x16c0
 6120 16b0 14       		.uleb128 0x14
 6121 16b1 3F160000 		.4byte	0x163f
 6122 16b5 14       		.uleb128 0x14
 6123 16b6 EF000000 		.4byte	0xef
 6124 16ba 14       		.uleb128 0x14
 6125 16bb EF000000 		.4byte	0xef
 6126 16bf 00       		.byte	0
 6127 16c0 11       		.uleb128 0x11
 6128 16c1 04       		.byte	0x4
 6129 16c2 AB160000 		.4byte	0x16ab
 6130 16c6 1F       		.uleb128 0x1f
 6131 16c7 D1160000 		.4byte	0x16d1
 6132 16cb 14       		.uleb128 0x14
ARM GAS  C:\Users\haske\AppData\Local\Temp\cc7ZkKza.s 			page 145


 6133 16cc 3F160000 		.4byte	0x163f
 6134 16d0 00       		.byte	0
 6135 16d1 11       		.uleb128 0x11
 6136 16d2 04       		.byte	0x4
 6137 16d3 C6160000 		.4byte	0x16c6
 6138 16d7 11       		.uleb128 0x11
 6139 16d8 04       		.byte	0x4
 6140 16d9 9D110000 		.4byte	0x119d
 6141 16dd 1F       		.uleb128 0x1f
 6142 16de ED160000 		.4byte	0x16ed
 6143 16e2 14       		.uleb128 0x14
 6144 16e3 3F160000 		.4byte	0x163f
 6145 16e7 14       		.uleb128 0x14
 6146 16e8 D7160000 		.4byte	0x16d7
 6147 16ec 00       		.byte	0
 6148 16ed 11       		.uleb128 0x11
 6149 16ee 04       		.byte	0x4
 6150 16ef DD160000 		.4byte	0x16dd
 6151 16f3 23       		.uleb128 0x23
 6152 16f4 5C180000 		.4byte	.LASF487
 6153 16f8 11       		.uleb128 0x11
 6154 16f9 04       		.byte	0x4
 6155 16fa F3160000 		.4byte	0x16f3
 6156 16fe 11       		.uleb128 0x11
 6157 16ff 04       		.byte	0x4
 6158 1700 0A090000 		.4byte	0x90a
 6159 1704 16       		.uleb128 0x16
 6160 1705 75020000 		.4byte	0x275
 6161 1709 14170000 		.4byte	0x1714
 6162 170d 17       		.uleb128 0x17
 6163 170e 2D010000 		.4byte	0x12d
 6164 1712 1F       		.byte	0x1f
 6165 1713 00       		.byte	0
 6166 1714 16       		.uleb128 0x16
 6167 1715 C3000000 		.4byte	0xc3
 6168 1719 24170000 		.4byte	0x1724
 6169 171d 17       		.uleb128 0x17
 6170 171e 2D010000 		.4byte	0x12d
 6171 1722 1F       		.byte	0x1f
 6172 1723 00       		.byte	0
 6173 1724 02       		.uleb128 0x2
 6174 1725 73000000 		.4byte	.LASF390
 6175 1729 18       		.byte	0x18
 6176 172a C2       		.byte	0xc2
 6177 172b 2D120000 		.4byte	0x122d
 6178 172f 08       		.uleb128 0x8
 6179 1730 58       		.byte	0x58
 6180 1731 1B       		.byte	0x1b
 6181 1732 20       		.byte	0x20
 6182 1733 50170000 		.4byte	0x1750
 6183 1737 0F       		.uleb128 0xf
 6184 1738 40050000 		.4byte	.LASF391
 6185 173c 1B       		.byte	0x1b
 6186 173d 21       		.byte	0x21
 6187 173e 9D110000 		.4byte	0x119d
 6188 1742 00       		.byte	0
 6189 1743 0F       		.uleb128 0xf
ARM GAS  C:\Users\haske\AppData\Local\Temp\cc7ZkKza.s 			page 146


 6190 1744 D21D0000 		.4byte	.LASF392
 6191 1748 1B       		.byte	0x1b
 6192 1749 24       		.byte	0x24
 6193 174a 6B170000 		.4byte	0x176b
 6194 174e 54       		.byte	0x54
 6195 174f 00       		.byte	0
 6196 1750 1F       		.uleb128 0x1f
 6197 1751 60170000 		.4byte	0x1760
 6198 1755 14       		.uleb128 0x14
 6199 1756 D7160000 		.4byte	0x16d7
 6200 175a 14       		.uleb128 0x14
 6201 175b 60170000 		.4byte	0x1760
 6202 175f 00       		.byte	0
 6203 1760 11       		.uleb128 0x11
 6204 1761 04       		.byte	0x4
 6205 1762 66170000 		.4byte	0x1766
 6206 1766 12       		.uleb128 0x12
 6207 1767 EE080000 		.4byte	0x8ee
 6208 176b 11       		.uleb128 0x11
 6209 176c 04       		.byte	0x4
 6210 176d 50170000 		.4byte	0x1750
 6211 1771 02       		.uleb128 0x2
 6212 1772 450A0000 		.4byte	.LASF393
 6213 1776 1B       		.byte	0x1b
 6214 1777 25       		.byte	0x25
 6215 1778 2F170000 		.4byte	0x172f
 6216 177c 02       		.uleb128 0x2
 6217 177d EE040000 		.4byte	.LASF394
 6218 1781 0F       		.byte	0xf
 6219 1782 3C       		.byte	0x3c
 6220 1783 D9000000 		.4byte	0xd9
 6221 1787 02       		.uleb128 0x2
 6222 1788 9E1C0000 		.4byte	.LASF395
 6223 178c 0F       		.byte	0xf
 6224 178d 7D       		.byte	0x7d
 6225 178e EF000000 		.4byte	0xef
 6226 1792 02       		.uleb128 0x2
 6227 1793 F7000000 		.4byte	.LASF396
 6228 1797 1C       		.byte	0x1c
 6229 1798 26       		.byte	0x26
 6230 1799 C3000000 		.4byte	0xc3
 6231 179d 02       		.uleb128 0x2
 6232 179e FF130000 		.4byte	.LASF397
 6233 17a2 1C       		.byte	0x1c
 6234 17a3 30       		.byte	0x30
 6235 17a4 C3000000 		.4byte	0xc3
 6236 17a8 08       		.uleb128 0x8
 6237 17a9 08       		.byte	0x8
 6238 17aa 1D       		.byte	0x1d
 6239 17ab 27       		.byte	0x27
 6240 17ac EA170000 		.4byte	0x17ea
 6241 17b0 0F       		.uleb128 0xf
 6242 17b1 E8130000 		.4byte	.LASF398
 6243 17b5 1D       		.byte	0x1d
 6244 17b6 28       		.byte	0x28
 6245 17b7 EA170000 		.4byte	0x17ea
 6246 17bb 00       		.byte	0
ARM GAS  C:\Users\haske\AppData\Local\Temp\cc7ZkKza.s 			page 147


 6247 17bc 09       		.uleb128 0x9
 6248 17bd 2A060000 		.4byte	.LASF399
 6249 17c1 1D       		.byte	0x1d
 6250 17c2 29       		.byte	0x29
 6251 17c3 EF000000 		.4byte	0xef
 6252 17c7 04       		.byte	0x4
 6253 17c8 18       		.byte	0x18
 6254 17c9 08       		.byte	0x8
 6255 17ca 04       		.byte	0x4
 6256 17cb 09       		.uleb128 0x9
 6257 17cc 18020000 		.4byte	.LASF400
 6258 17d0 1D       		.byte	0x1d
 6259 17d1 2A       		.byte	0x2a
 6260 17d2 EF000000 		.4byte	0xef
 6261 17d6 04       		.byte	0x4
 6262 17d7 01       		.byte	0x1
 6263 17d8 07       		.byte	0x7
 6264 17d9 04       		.byte	0x4
 6265 17da 09       		.uleb128 0x9
 6266 17db 240C0000 		.4byte	.LASF401
 6267 17df 1D       		.byte	0x1d
 6268 17e0 2B       		.byte	0x2b
 6269 17e1 EF000000 		.4byte	0xef
 6270 17e5 04       		.byte	0x4
 6271 17e6 01       		.byte	0x1
 6272 17e7 06       		.byte	0x6
 6273 17e8 04       		.byte	0x4
 6274 17e9 00       		.byte	0
 6275 17ea 11       		.uleb128 0x11
 6276 17eb 04       		.byte	0x4
 6277 17ec 1C080000 		.4byte	0x81c
 6278 17f0 02       		.uleb128 0x2
 6279 17f1 350A0000 		.4byte	.LASF402
 6280 17f5 1D       		.byte	0x1d
 6281 17f6 2C       		.byte	0x2c
 6282 17f7 A8170000 		.4byte	0x17a8
 6283 17fb 10       		.uleb128 0x10
 6284 17fc AD150000 		.4byte	.LASF403
 6285 1800 1C       		.byte	0x1c
 6286 1801 1E       		.byte	0x1e
 6287 1802 31       		.byte	0x31
 6288 1803 89180000 		.4byte	0x1889
 6289 1807 0F       		.uleb128 0xf
 6290 1808 55130000 		.4byte	.LASF404
 6291 180c 1E       		.byte	0x1e
 6292 180d 32       		.byte	0x32
 6293 180e 89180000 		.4byte	0x1889
 6294 1812 00       		.byte	0
 6295 1813 0F       		.uleb128 0xf
 6296 1814 7E020000 		.4byte	.LASF405
 6297 1818 1E       		.byte	0x1e
 6298 1819 33       		.byte	0x33
 6299 181a 2C190000 		.4byte	0x192c
 6300 181e 04       		.byte	0x4
 6301 181f 0F       		.uleb128 0xf
 6302 1820 FE170000 		.4byte	.LASF406
 6303 1824 1E       		.byte	0x1e
ARM GAS  C:\Users\haske\AppData\Local\Temp\cc7ZkKza.s 			page 148


 6304 1825 34       		.byte	0x34
 6305 1826 2C190000 		.4byte	0x192c
 6306 182a 08       		.byte	0x8
 6307 182b 0F       		.uleb128 0xf
 6308 182c 6B1D0000 		.4byte	.LASF67
 6309 1830 1E       		.byte	0x1e
 6310 1831 36       		.byte	0x36
 6311 1832 34010000 		.4byte	0x134
 6312 1836 0C       		.byte	0xc
 6313 1837 0F       		.uleb128 0xf
 6314 1838 F50F0000 		.4byte	.LASF407
 6315 183c 1E       		.byte	0x1e
 6316 183d 38       		.byte	0x38
 6317 183e 42190000 		.4byte	0x1942
 6318 1842 10       		.byte	0x10
 6319 1843 0F       		.uleb128 0xf
 6320 1844 620C0000 		.4byte	.LASF408
 6321 1848 1E       		.byte	0x1e
 6322 1849 3A       		.byte	0x3a
 6323 184a 0D020000 		.4byte	0x20d
 6324 184e 14       		.byte	0x14
 6325 184f 0F       		.uleb128 0xf
 6326 1850 1F1E0000 		.4byte	.LASF409
 6327 1854 1E       		.byte	0x1e
 6328 1855 3B       		.byte	0x3b
 6329 1856 0D020000 		.4byte	0x20d
 6330 185a 16       		.byte	0x16
 6331 185b 09       		.uleb128 0x9
 6332 185c 880D0000 		.4byte	.LASF410
 6333 1860 1E       		.byte	0x1e
 6334 1861 3C       		.byte	0x3c
 6335 1862 EF000000 		.4byte	0xef
 6336 1866 04       		.byte	0x4
 6337 1867 02       		.byte	0x2
 6338 1868 1E       		.byte	0x1e
 6339 1869 18       		.byte	0x18
 6340 186a 09       		.uleb128 0x9
 6341 186b AE040000 		.4byte	.LASF411
 6342 186f 1E       		.byte	0x1e
 6343 1870 3D       		.byte	0x3d
 6344 1871 EF000000 		.4byte	0xef
 6345 1875 04       		.byte	0x4
 6346 1876 02       		.byte	0x2
 6347 1877 1C       		.byte	0x1c
 6348 1878 18       		.byte	0x18
 6349 1879 09       		.uleb128 0x9
 6350 187a 010F0000 		.4byte	.LASF412
 6351 187e 1E       		.byte	0x1e
 6352 187f 3E       		.byte	0x3e
 6353 1880 EF000000 		.4byte	0xef
 6354 1884 04       		.byte	0x4
 6355 1885 10       		.byte	0x10
 6356 1886 0C       		.byte	0xc
 6357 1887 18       		.byte	0x18
 6358 1888 00       		.byte	0
 6359 1889 11       		.uleb128 0x11
 6360 188a 04       		.byte	0x4
ARM GAS  C:\Users\haske\AppData\Local\Temp\cc7ZkKza.s 			page 149


 6361 188b 8F180000 		.4byte	0x188f
 6362 188f 12       		.uleb128 0x12
 6363 1890 FB170000 		.4byte	0x17fb
 6364 1894 11       		.uleb128 0x11
 6365 1895 04       		.byte	0x4
 6366 1896 9A180000 		.4byte	0x189a
 6367 189a 10       		.uleb128 0x10
 6368 189b 1E100000 		.4byte	.LASF413
 6369 189f 1C       		.byte	0x1c
 6370 18a0 1F       		.byte	0x1f
 6371 18a1 5E       		.byte	0x5e
 6372 18a2 1C190000 		.4byte	0x191c
 6373 18a6 0F       		.uleb128 0xf
 6374 18a7 4B0D0000 		.4byte	.LASF414
 6375 18ab 1F       		.byte	0x1f
 6376 18ac 5F       		.byte	0x5f
 6377 18ad 0A090000 		.4byte	0x90a
 6378 18b1 00       		.byte	0
 6379 18b2 0F       		.uleb128 0xf
 6380 18b3 350F0000 		.4byte	.LASF415
 6381 18b7 1F       		.byte	0x1f
 6382 18b8 60       		.byte	0x60
 6383 18b9 0A090000 		.4byte	0x90a
 6384 18bd 04       		.byte	0x4
 6385 18be 0F       		.uleb128 0xf
 6386 18bf 29140000 		.4byte	.LASF416
 6387 18c3 1F       		.byte	0x1f
 6388 18c4 61       		.byte	0x61
 6389 18c5 7A1A0000 		.4byte	0x1a7a
 6390 18c9 08       		.byte	0x8
 6391 18ca 0F       		.uleb128 0xf
 6392 18cb 6B1D0000 		.4byte	.LASF67
 6393 18cf 1F       		.byte	0x1f
 6394 18d0 62       		.byte	0x62
 6395 18d1 34010000 		.4byte	0x134
 6396 18d5 0C       		.byte	0xc
 6397 18d6 0F       		.uleb128 0xf
 6398 18d7 450D0000 		.4byte	.LASF417
 6399 18db 1F       		.byte	0x1f
 6400 18dc 63       		.byte	0x63
 6401 18dd 34010000 		.4byte	0x134
 6402 18e1 10       		.byte	0x10
 6403 18e2 0F       		.uleb128 0xf
 6404 18e3 8F1E0000 		.4byte	.LASF418
 6405 18e7 1F       		.byte	0x1f
 6406 18e8 64       		.byte	0x64
 6407 18e9 94180000 		.4byte	0x1894
 6408 18ed 14       		.byte	0x14
 6409 18ee 09       		.uleb128 0x9
 6410 18ef 45100000 		.4byte	.LASF419
 6411 18f3 1F       		.byte	0x1f
 6412 18f4 65       		.byte	0x65
 6413 18f5 C3000000 		.4byte	0xc3
 6414 18f9 01       		.byte	0x1
 6415 18fa 01       		.byte	0x1
 6416 18fb 07       		.byte	0x7
 6417 18fc 18       		.byte	0x18
ARM GAS  C:\Users\haske\AppData\Local\Temp\cc7ZkKza.s 			page 150


 6418 18fd 09       		.uleb128 0x9
 6419 18fe 6F080000 		.4byte	.LASF420
 6420 1902 1F       		.byte	0x1f
 6421 1903 66       		.byte	0x66
 6422 1904 C3000000 		.4byte	0xc3
 6423 1908 01       		.byte	0x1
 6424 1909 01       		.byte	0x1
 6425 190a 06       		.byte	0x6
 6426 190b 18       		.byte	0x18
 6427 190c 09       		.uleb128 0x9
 6428 190d E8120000 		.4byte	.LASF421
 6429 1911 1F       		.byte	0x1f
 6430 1912 67       		.byte	0x67
 6431 1913 C3000000 		.4byte	0xc3
 6432 1917 01       		.byte	0x1
 6433 1918 01       		.byte	0x1
 6434 1919 05       		.byte	0x5
 6435 191a 18       		.byte	0x18
 6436 191b 00       		.byte	0
 6437 191c 1F       		.uleb128 0x1f
 6438 191d 2C190000 		.4byte	0x192c
 6439 1921 14       		.uleb128 0x14
 6440 1922 89180000 		.4byte	0x1889
 6441 1926 14       		.uleb128 0x14
 6442 1927 0A090000 		.4byte	0x90a
 6443 192b 00       		.byte	0
 6444 192c 11       		.uleb128 0x11
 6445 192d 04       		.byte	0x4
 6446 192e 1C190000 		.4byte	0x191c
 6447 1932 1F       		.uleb128 0x1f
 6448 1933 42190000 		.4byte	0x1942
 6449 1937 14       		.uleb128 0x14
 6450 1938 89180000 		.4byte	0x1889
 6451 193c 14       		.uleb128 0x14
 6452 193d 94180000 		.4byte	0x1894
 6453 1941 00       		.byte	0
 6454 1942 11       		.uleb128 0x11
 6455 1943 04       		.byte	0x4
 6456 1944 32190000 		.4byte	0x1932
 6457 1948 02       		.uleb128 0x2
 6458 1949 C20B0000 		.4byte	.LASF422
 6459 194d 1E       		.byte	0x1e
 6460 194e 3F       		.byte	0x3f
 6461 194f FB170000 		.4byte	0x17fb
 6462 1953 06       		.uleb128 0x6
 6463 1954 01       		.byte	0x1
 6464 1955 42000000 		.4byte	0x42
 6465 1959 1F       		.byte	0x1f
 6466 195a 20       		.byte	0x20
 6467 195b 7A1A0000 		.4byte	0x1a7a
 6468 195f 07       		.uleb128 0x7
 6469 1960 5E040000 		.4byte	.LASF423
 6470 1964 00       		.byte	0
 6471 1965 07       		.uleb128 0x7
 6472 1966 8E140000 		.4byte	.LASF424
 6473 196a 01       		.byte	0x1
 6474 196b 07       		.uleb128 0x7
ARM GAS  C:\Users\haske\AppData\Local\Temp\cc7ZkKza.s 			page 151


 6475 196c 1A130000 		.4byte	.LASF425
 6476 1970 02       		.byte	0x2
 6477 1971 07       		.uleb128 0x7
 6478 1972 751D0000 		.4byte	.LASF426
 6479 1976 03       		.byte	0x3
 6480 1977 07       		.uleb128 0x7
 6481 1978 5E030000 		.4byte	.LASF427
 6482 197c 04       		.byte	0x4
 6483 197d 07       		.uleb128 0x7
 6484 197e D2020000 		.4byte	.LASF428
 6485 1982 05       		.byte	0x5
 6486 1983 07       		.uleb128 0x7
 6487 1984 6B130000 		.4byte	.LASF429
 6488 1988 06       		.byte	0x6
 6489 1989 07       		.uleb128 0x7
 6490 198a 860B0000 		.4byte	.LASF430
 6491 198e 07       		.byte	0x7
 6492 198f 07       		.uleb128 0x7
 6493 1990 C61E0000 		.4byte	.LASF431
 6494 1994 08       		.byte	0x8
 6495 1995 07       		.uleb128 0x7
 6496 1996 14110000 		.4byte	.LASF432
 6497 199a 09       		.byte	0x9
 6498 199b 07       		.uleb128 0x7
 6499 199c 591B0000 		.4byte	.LASF433
 6500 19a0 0A       		.byte	0xa
 6501 19a1 07       		.uleb128 0x7
 6502 19a2 9F140000 		.4byte	.LASF434
 6503 19a6 0B       		.byte	0xb
 6504 19a7 07       		.uleb128 0x7
 6505 19a8 C1020000 		.4byte	.LASF435
 6506 19ac 0C       		.byte	0xc
 6507 19ad 07       		.uleb128 0x7
 6508 19ae 1B1D0000 		.4byte	.LASF436
 6509 19b2 0D       		.byte	0xd
 6510 19b3 07       		.uleb128 0x7
 6511 19b4 D81D0000 		.4byte	.LASF437
 6512 19b8 0E       		.byte	0xe
 6513 19b9 07       		.uleb128 0x7
 6514 19ba 971B0000 		.4byte	.LASF438
 6515 19be 0F       		.byte	0xf
 6516 19bf 07       		.uleb128 0x7
 6517 19c0 EC0C0000 		.4byte	.LASF439
 6518 19c4 10       		.byte	0x10
 6519 19c5 07       		.uleb128 0x7
 6520 19c6 81090000 		.4byte	.LASF440
 6521 19ca 11       		.byte	0x11
 6522 19cb 07       		.uleb128 0x7
 6523 19cc 1A090000 		.4byte	.LASF441
 6524 19d0 12       		.byte	0x12
 6525 19d1 07       		.uleb128 0x7
 6526 19d2 5B0F0000 		.4byte	.LASF442
 6527 19d6 13       		.byte	0x13
 6528 19d7 07       		.uleb128 0x7
 6529 19d8 7D000000 		.4byte	.LASF443
 6530 19dc 14       		.byte	0x14
 6531 19dd 07       		.uleb128 0x7
ARM GAS  C:\Users\haske\AppData\Local\Temp\cc7ZkKza.s 			page 152


 6532 19de ED060000 		.4byte	.LASF444
 6533 19e2 15       		.byte	0x15
 6534 19e3 07       		.uleb128 0x7
 6535 19e4 E70B0000 		.4byte	.LASF445
 6536 19e8 16       		.byte	0x16
 6537 19e9 07       		.uleb128 0x7
 6538 19ea A7110000 		.4byte	.LASF446
 6539 19ee 17       		.byte	0x17
 6540 19ef 07       		.uleb128 0x7
 6541 19f0 821C0000 		.4byte	.LASF447
 6542 19f4 18       		.byte	0x18
 6543 19f5 07       		.uleb128 0x7
 6544 19f6 91190000 		.4byte	.LASF448
 6545 19fa 19       		.byte	0x19
 6546 19fb 07       		.uleb128 0x7
 6547 19fc A8190000 		.4byte	.LASF449
 6548 1a00 1A       		.byte	0x1a
 6549 1a01 07       		.uleb128 0x7
 6550 1a02 82050000 		.4byte	.LASF450
 6551 1a06 1B       		.byte	0x1b
 6552 1a07 07       		.uleb128 0x7
 6553 1a08 2B120000 		.4byte	.LASF451
 6554 1a0c 1C       		.byte	0x1c
 6555 1a0d 07       		.uleb128 0x7
 6556 1a0e 15010000 		.4byte	.LASF452
 6557 1a12 1D       		.byte	0x1d
 6558 1a13 07       		.uleb128 0x7
 6559 1a14 F00E0000 		.4byte	.LASF453
 6560 1a18 1E       		.byte	0x1e
 6561 1a19 07       		.uleb128 0x7
 6562 1a1a 691C0000 		.4byte	.LASF454
 6563 1a1e 1F       		.byte	0x1f
 6564 1a1f 07       		.uleb128 0x7
 6565 1a20 AF140000 		.4byte	.LASF455
 6566 1a24 20       		.byte	0x20
 6567 1a25 07       		.uleb128 0x7
 6568 1a26 8F110000 		.4byte	.LASF456
 6569 1a2a 21       		.byte	0x21
 6570 1a2b 07       		.uleb128 0x7
 6571 1a2c C6010000 		.4byte	.LASF457
 6572 1a30 22       		.byte	0x22
 6573 1a31 07       		.uleb128 0x7
 6574 1a32 23030000 		.4byte	.LASF458
 6575 1a36 23       		.byte	0x23
 6576 1a37 07       		.uleb128 0x7
 6577 1a38 440F0000 		.4byte	.LASF459
 6578 1a3c 24       		.byte	0x24
 6579 1a3d 07       		.uleb128 0x7
 6580 1a3e 2A1E0000 		.4byte	.LASF460
 6581 1a42 25       		.byte	0x25
 6582 1a43 07       		.uleb128 0x7
 6583 1a44 CD120000 		.4byte	.LASF461
 6584 1a48 26       		.byte	0x26
 6585 1a49 07       		.uleb128 0x7
 6586 1a4a 0D0A0000 		.4byte	.LASF462
 6587 1a4e 27       		.byte	0x27
 6588 1a4f 07       		.uleb128 0x7
ARM GAS  C:\Users\haske\AppData\Local\Temp\cc7ZkKza.s 			page 153


 6589 1a50 78170000 		.4byte	.LASF463
 6590 1a54 28       		.byte	0x28
 6591 1a55 07       		.uleb128 0x7
 6592 1a56 AC1C0000 		.4byte	.LASF464
 6593 1a5a 29       		.byte	0x29
 6594 1a5b 07       		.uleb128 0x7
 6595 1a5c 521C0000 		.4byte	.LASF465
 6596 1a60 2A       		.byte	0x2a
 6597 1a61 07       		.uleb128 0x7
 6598 1a62 DF1C0000 		.4byte	.LASF466
 6599 1a66 2B       		.byte	0x2b
 6600 1a67 07       		.uleb128 0x7
 6601 1a68 D6060000 		.4byte	.LASF467
 6602 1a6c 2C       		.byte	0x2c
 6603 1a6d 07       		.uleb128 0x7
 6604 1a6e FC140000 		.4byte	.LASF468
 6605 1a72 2D       		.byte	0x2d
 6606 1a73 07       		.uleb128 0x7
 6607 1a74 80120000 		.4byte	.LASF469
 6608 1a78 80       		.byte	0x80
 6609 1a79 00       		.byte	0
 6610 1a7a 02       		.uleb128 0x2
 6611 1a7b FE0F0000 		.4byte	.LASF470
 6612 1a7f 1F       		.byte	0x1f
 6613 1a80 5C       		.byte	0x5c
 6614 1a81 53190000 		.4byte	0x1953
 6615 1a85 02       		.uleb128 0x2
 6616 1a86 99150000 		.4byte	.LASF471
 6617 1a8a 19       		.byte	0x19
 6618 1a8b 34       		.byte	0x34
 6619 1a8c 901A0000 		.4byte	0x1a90
 6620 1a90 11       		.uleb128 0x11
 6621 1a91 04       		.byte	0x4
 6622 1a92 961A0000 		.4byte	0x1a96
 6623 1a96 1F       		.uleb128 0x1f
 6624 1a97 A11A0000 		.4byte	0x1aa1
 6625 1a9b 14       		.uleb128 0x14
 6626 1a9c CF130000 		.4byte	0x13cf
 6627 1aa0 00       		.byte	0
 6628 1aa1 02       		.uleb128 0x2
 6629 1aa2 730B0000 		.4byte	.LASF472
 6630 1aa6 19       		.byte	0x19
 6631 1aa7 35       		.byte	0x35
 6632 1aa8 AC1A0000 		.4byte	0x1aac
 6633 1aac 11       		.uleb128 0x11
 6634 1aad 04       		.byte	0x4
 6635 1aae B21A0000 		.4byte	0x1ab2
 6636 1ab2 1F       		.uleb128 0x1f
 6637 1ab3 C21A0000 		.4byte	0x1ac2
 6638 1ab7 14       		.uleb128 0x14
 6639 1ab8 CF130000 		.4byte	0x13cf
 6640 1abc 14       		.uleb128 0x14
 6641 1abd B6030000 		.4byte	0x3b6
 6642 1ac1 00       		.byte	0
 6643 1ac2 02       		.uleb128 0x2
 6644 1ac3 49070000 		.4byte	.LASF473
 6645 1ac7 19       		.byte	0x19
ARM GAS  C:\Users\haske\AppData\Local\Temp\cc7ZkKza.s 			page 154


 6646 1ac8 4E       		.byte	0x4e
 6647 1ac9 4A130000 		.4byte	0x134a
 6648 1acd 08       		.uleb128 0x8
 6649 1ace 1C       		.byte	0x1c
 6650 1acf 0F       		.byte	0xf
 6651 1ad0 9B       		.byte	0x9b
 6652 1ad1 841B0000 		.4byte	0x1b84
 6653 1ad5 0F       		.uleb128 0xf
 6654 1ad6 55030000 		.4byte	.LASF474
 6655 1ada 0F       		.byte	0xf
 6656 1adb 9C       		.byte	0x9c
 6657 1adc FE160000 		.4byte	0x16fe
 6658 1ae0 00       		.byte	0
 6659 1ae1 0F       		.uleb128 0xf
 6660 1ae2 B90C0000 		.4byte	.LASF475
 6661 1ae6 0F       		.byte	0xf
 6662 1ae7 9D       		.byte	0x9d
 6663 1ae8 EF000000 		.4byte	0xef
 6664 1aec 04       		.byte	0x4
 6665 1aed 0F       		.uleb128 0xf
 6666 1aee BF0A0000 		.4byte	.LASF476
 6667 1af2 0F       		.byte	0xf
 6668 1af3 9E       		.byte	0x9e
 6669 1af4 841B0000 		.4byte	0x1b84
 6670 1af8 08       		.byte	0x8
 6671 1af9 0F       		.uleb128 0xf
 6672 1afa 620A0000 		.4byte	.LASF477
 6673 1afe 0F       		.byte	0xf
 6674 1aff A0       		.byte	0xa0
 6675 1b00 8F1B0000 		.4byte	0x1b8f
 6676 1b04 0C       		.byte	0xc
 6677 1b05 0F       		.uleb128 0xf
 6678 1b06 E30A0000 		.4byte	.LASF478
 6679 1b0a 0F       		.byte	0xf
 6680 1b0b A1       		.byte	0xa1
 6681 1b0c 35020000 		.4byte	0x235
 6682 1b10 10       		.byte	0x10
 6683 1b11 0F       		.uleb128 0xf
 6684 1b12 111A0000 		.4byte	.LASF479
 6685 1b16 0F       		.byte	0xf
 6686 1b17 A3       		.byte	0xa3
 6687 1b18 0D020000 		.4byte	0x20d
 6688 1b1c 14       		.byte	0x14
 6689 1b1d 0F       		.uleb128 0xf
 6690 1b1e 650B0000 		.4byte	.LASF480
 6691 1b22 0F       		.byte	0xf
 6692 1b23 A4       		.byte	0xa4
 6693 1b24 0D020000 		.4byte	0x20d
 6694 1b28 16       		.byte	0x16
 6695 1b29 09       		.uleb128 0x9
 6696 1b2a E6070000 		.4byte	.LASF481
 6697 1b2e 0F       		.byte	0xf
 6698 1b2f A6       		.byte	0xa6
 6699 1b30 92170000 		.4byte	0x1792
 6700 1b34 01       		.byte	0x1
 6701 1b35 02       		.byte	0x2
 6702 1b36 06       		.byte	0x6
ARM GAS  C:\Users\haske\AppData\Local\Temp\cc7ZkKza.s 			page 155


 6703 1b37 18       		.byte	0x18
 6704 1b38 09       		.uleb128 0x9
 6705 1b39 9E010000 		.4byte	.LASF482
 6706 1b3d 0F       		.byte	0xf
 6707 1b3e A7       		.byte	0xa7
 6708 1b3f 9D170000 		.4byte	0x179d
 6709 1b43 01       		.byte	0x1
 6710 1b44 02       		.byte	0x2
 6711 1b45 04       		.byte	0x4
 6712 1b46 18       		.byte	0x18
 6713 1b47 09       		.uleb128 0x9
 6714 1b48 0D0D0000 		.4byte	.LASF483
 6715 1b4c 0F       		.byte	0xf
 6716 1b4d A8       		.byte	0xa8
 6717 1b4e 9D170000 		.4byte	0x179d
 6718 1b52 01       		.byte	0x1
 6719 1b53 02       		.byte	0x2
 6720 1b54 02       		.byte	0x2
 6721 1b55 18       		.byte	0x18
 6722 1b56 09       		.uleb128 0x9
 6723 1b57 A3040000 		.4byte	.LASF484
 6724 1b5b 0F       		.byte	0xf
 6725 1b5c A9       		.byte	0xa9
 6726 1b5d 80020000 		.4byte	0x280
 6727 1b61 01       		.byte	0x1
 6728 1b62 04       		.byte	0x4
 6729 1b63 04       		.byte	0x4
 6730 1b64 19       		.byte	0x19
 6731 1b65 09       		.uleb128 0x9
 6732 1b66 3A1F0000 		.4byte	.LASF485
 6733 1b6a 0F       		.byte	0xf
 6734 1b6b AA       		.byte	0xaa
 6735 1b6c C3000000 		.4byte	0xc3
 6736 1b70 01       		.byte	0x1
 6737 1b71 06       		.byte	0x6
 6738 1b72 02       		.byte	0x2
 6739 1b73 1A       		.byte	0x1a
 6740 1b74 09       		.uleb128 0x9
 6741 1b75 1A0B0000 		.4byte	.LASF486
 6742 1b79 0F       		.byte	0xf
 6743 1b7a AB       		.byte	0xab
 6744 1b7b C3000000 		.4byte	0xc3
 6745 1b7f 01       		.byte	0x1
 6746 1b80 02       		.byte	0x2
 6747 1b81 00       		.byte	0
 6748 1b82 1A       		.byte	0x1a
 6749 1b83 00       		.byte	0
 6750 1b84 11       		.uleb128 0x11
 6751 1b85 04       		.byte	0x4
 6752 1b86 C21A0000 		.4byte	0x1ac2
 6753 1b8a 23       		.uleb128 0x23
 6754 1b8b 931D0000 		.4byte	.LASF488
 6755 1b8f 11       		.uleb128 0x11
 6756 1b90 04       		.byte	0x4
 6757 1b91 8A1B0000 		.4byte	0x1b8a
 6758 1b95 02       		.uleb128 0x2
 6759 1b96 54070000 		.4byte	.LASF489
ARM GAS  C:\Users\haske\AppData\Local\Temp\cc7ZkKza.s 			page 156


 6760 1b9a 0F       		.byte	0xf
 6761 1b9b AC       		.byte	0xac
 6762 1b9c CD1A0000 		.4byte	0x1acd
 6763 1ba0 11       		.uleb128 0x11
 6764 1ba1 04       		.byte	0x4
 6765 1ba2 A61B0000 		.4byte	0x1ba6
 6766 1ba6 12       		.uleb128 0x12
 6767 1ba7 48190000 		.4byte	0x1948
 6768 1bab 11       		.uleb128 0x11
 6769 1bac 04       		.byte	0x4
 6770 1bad 951B0000 		.4byte	0x1b95
 6771 1bb1 11       		.uleb128 0x11
 6772 1bb2 04       		.byte	0x4
 6773 1bb3 F0170000 		.4byte	0x17f0
 6774 1bb7 24       		.uleb128 0x24
 6775 1bb8 2F170000 		.4byte	.LASF490
 6776 1bbc 03       		.byte	0x3
 6777 1bbd 4C02     		.2byte	0x24c
 6778 1bbf F7010000 		.4byte	0x1f7
 6779 1bc3 03       		.byte	0x3
 6780 1bc4 E71B0000 		.4byte	0x1be7
 6781 1bc8 25       		.uleb128 0x25
 6782 1bc9 7200     		.ascii	"r\000"
 6783 1bcb 03       		.byte	0x3
 6784 1bcc 4C02     		.2byte	0x24c
 6785 1bce C3000000 		.4byte	0xc3
 6786 1bd2 25       		.uleb128 0x25
 6787 1bd3 6700     		.ascii	"g\000"
 6788 1bd5 03       		.byte	0x3
 6789 1bd6 4C02     		.2byte	0x24c
 6790 1bd8 C3000000 		.4byte	0xc3
 6791 1bdc 25       		.uleb128 0x25
 6792 1bdd 6200     		.ascii	"b\000"
 6793 1bdf 03       		.byte	0x3
 6794 1be0 4C02     		.2byte	0x24c
 6795 1be2 C3000000 		.4byte	0xc3
 6796 1be6 00       		.byte	0
 6797 1be7 26       		.uleb128 0x26
 6798 1be8 30160000 		.4byte	.LASF491
 6799 1bec 02       		.byte	0x2
 6800 1bed 85       		.byte	0x85
 6801 1bee 0D020000 		.4byte	0x20d
 6802 1bf2 03       		.byte	0x3
 6803 1bf3 031C0000 		.4byte	0x1c03
 6804 1bf7 27       		.uleb128 0x27
 6805 1bf8 62050000 		.4byte	.LASF492
 6806 1bfc 02       		.byte	0x2
 6807 1bfd 85       		.byte	0x85
 6808 1bfe D8080000 		.4byte	0x8d8
 6809 1c02 00       		.byte	0
 6810 1c03 26       		.uleb128 0x26
 6811 1c04 EB1A0000 		.4byte	.LASF493
 6812 1c08 02       		.byte	0x2
 6813 1c09 7B       		.byte	0x7b
 6814 1c0a 0D020000 		.4byte	0x20d
 6815 1c0e 03       		.byte	0x3
 6816 1c0f 1F1C0000 		.4byte	0x1c1f
ARM GAS  C:\Users\haske\AppData\Local\Temp\cc7ZkKza.s 			page 157


 6817 1c13 27       		.uleb128 0x27
 6818 1c14 62050000 		.4byte	.LASF492
 6819 1c18 02       		.byte	0x2
 6820 1c19 7B       		.byte	0x7b
 6821 1c1a D8080000 		.4byte	0x8d8
 6822 1c1e 00       		.byte	0
 6823 1c1f 24       		.uleb128 0x24
 6824 1c20 CA0F0000 		.4byte	.LASF494
 6825 1c24 03       		.byte	0x3
 6826 1c25 B701     		.2byte	0x1b7
 6827 1c27 F7010000 		.4byte	0x1f7
 6828 1c2b 03       		.byte	0x3
 6829 1c2c 811C0000 		.4byte	0x1c81
 6830 1c30 25       		.uleb128 0x25
 6831 1c31 633100   		.ascii	"c1\000"
 6832 1c34 03       		.byte	0x3
 6833 1c35 B701     		.2byte	0x1b7
 6834 1c37 F7010000 		.4byte	0x1f7
 6835 1c3b 25       		.uleb128 0x25
 6836 1c3c 633200   		.ascii	"c2\000"
 6837 1c3f 03       		.byte	0x3
 6838 1c40 B701     		.2byte	0x1b7
 6839 1c42 F7010000 		.4byte	0x1f7
 6840 1c46 25       		.uleb128 0x25
 6841 1c47 6D697800 		.ascii	"mix\000"
 6842 1c4b 03       		.byte	0x3
 6843 1c4c B701     		.2byte	0x1b7
 6844 1c4e C3000000 		.4byte	0xc3
 6845 1c52 28       		.uleb128 0x28
 6846 1c53 72657400 		.ascii	"ret\000"
 6847 1c57 03       		.byte	0x3
 6848 1c58 B901     		.2byte	0x1b9
 6849 1c5a F7010000 		.4byte	0x1f7
 6850 1c5e 28       		.uleb128 0x28
 6851 1c5f 626700   		.ascii	"bg\000"
 6852 1c62 03       		.byte	0x3
 6853 1c63 BE01     		.2byte	0x1be
 6854 1c65 EF000000 		.4byte	0xef
 6855 1c69 28       		.uleb128 0x28
 6856 1c6a 666700   		.ascii	"fg\000"
 6857 1c6d 03       		.byte	0x3
 6858 1c6e C001     		.2byte	0x1c0
 6859 1c70 EF000000 		.4byte	0xef
 6860 1c74 29       		.uleb128 0x29
 6861 1c75 770F0000 		.4byte	.LASF495
 6862 1c79 03       		.byte	0x3
 6863 1c7a C101     		.2byte	0x1c1
 6864 1c7c EF000000 		.4byte	0xef
 6865 1c80 00       		.byte	0
 6866 1c81 2A       		.uleb128 0x2a
 6867 1c82 C71B0000 		.4byte	.LASF540
 6868 1c86 03       		.byte	0x3
 6869 1c87 D401     		.2byte	0x1d4
 6870 1c89 03       		.byte	0x3
 6871 1c8a B11C0000 		.4byte	0x1cb1
 6872 1c8e 25       		.uleb128 0x25
 6873 1c8f 6300     		.ascii	"c\000"
ARM GAS  C:\Users\haske\AppData\Local\Temp\cc7ZkKza.s 			page 158


 6874 1c91 03       		.byte	0x3
 6875 1c92 D401     		.2byte	0x1d4
 6876 1c94 F7010000 		.4byte	0x1f7
 6877 1c98 25       		.uleb128 0x25
 6878 1c99 6D697800 		.ascii	"mix\000"
 6879 1c9d 03       		.byte	0x3
 6880 1c9e D401     		.2byte	0x1d4
 6881 1ca0 C3000000 		.4byte	0xc3
 6882 1ca4 25       		.uleb128 0x25
 6883 1ca5 6F757400 		.ascii	"out\000"
 6884 1ca9 03       		.byte	0x3
 6885 1caa D401     		.2byte	0x1d4
 6886 1cac 5E080000 		.4byte	0x85e
 6887 1cb0 00       		.byte	0
 6888 1cb1 2B       		.uleb128 0x2b
 6889 1cb2 53100000 		.4byte	.LASF541
 6890 1cb6 03       		.byte	0x3
 6891 1cb7 B502     		.2byte	0x2b5
 6892 1cb9 F7010000 		.4byte	0x1f7
 6893 1cbd 03       		.byte	0x3
 6894 1cbe 24       		.uleb128 0x24
 6895 1cbf 09170000 		.4byte	.LASF496
 6896 1cc3 03       		.byte	0x3
 6897 1cc4 ED01     		.2byte	0x1ed
 6898 1cc6 F7010000 		.4byte	0x1f7
 6899 1cca 03       		.byte	0x3
 6900 1ccb FF1C0000 		.4byte	0x1cff
 6901 1ccf 2C       		.uleb128 0x2c
 6902 1cd0 781B0000 		.4byte	.LASF497
 6903 1cd4 03       		.byte	0x3
 6904 1cd5 ED01     		.2byte	0x1ed
 6905 1cd7 5E080000 		.4byte	0x85e
 6906 1cdb 25       		.uleb128 0x25
 6907 1cdc 633200   		.ascii	"c2\000"
 6908 1cdf 03       		.byte	0x3
 6909 1ce0 ED01     		.2byte	0x1ed
 6910 1ce2 F7010000 		.4byte	0x1f7
 6911 1ce6 25       		.uleb128 0x25
 6912 1ce7 6D697800 		.ascii	"mix\000"
 6913 1ceb 03       		.byte	0x3
 6914 1cec ED01     		.2byte	0x1ed
 6915 1cee C3000000 		.4byte	0xc3
 6916 1cf2 28       		.uleb128 0x28
 6917 1cf3 72657400 		.ascii	"ret\000"
 6918 1cf7 03       		.byte	0x3
 6919 1cf8 EF01     		.2byte	0x1ef
 6920 1cfa F7010000 		.4byte	0x1f7
 6921 1cfe 00       		.byte	0
 6922 1cff 2D       		.uleb128 0x2d
 6923 1d00 88130000 		.4byte	.LASF508
 6924 1d04 01       		.byte	0x1
 6925 1d05 1202     		.2byte	0x212
 6926 1d07 00000000 		.4byte	.LFB163
 6927 1d0b 4C010000 		.4byte	.LFE163-.LFB163
 6928 1d0f 01       		.uleb128 0x1
 6929 1d10 9C       		.byte	0x9c
 6930 1d11 F71E0000 		.4byte	0x1ef7
ARM GAS  C:\Users\haske\AppData\Local\Temp\cc7ZkKza.s 			page 159


 6931 1d15 2E       		.uleb128 0x2e
 6932 1d16 66080000 		.4byte	.LASF498
 6933 1d1a 01       		.byte	0x1
 6934 1d1b 1202     		.2byte	0x212
 6935 1d1d D7090000 		.4byte	0x9d7
 6936 1d21 00000000 		.4byte	.LLST0
 6937 1d25 2E       		.uleb128 0x2e
 6938 1d26 41130000 		.4byte	.LASF499
 6939 1d2a 01       		.byte	0x1
 6940 1d2b 1202     		.2byte	0x212
 6941 1d2d D8080000 		.4byte	0x8d8
 6942 1d31 34000000 		.4byte	.LLST1
 6943 1d35 2E       		.uleb128 0x2e
 6944 1d36 040B0000 		.4byte	.LASF500
 6945 1d3a 01       		.byte	0x1
 6946 1d3b 1302     		.2byte	0x213
 6947 1d3d 0D020000 		.4byte	0x20d
 6948 1d41 55000000 		.4byte	.LLST2
 6949 1d45 2E       		.uleb128 0x2e
 6950 1d46 C6170000 		.4byte	.LASF84
 6951 1d4a 01       		.byte	0x1
 6952 1d4b 1302     		.2byte	0x213
 6953 1d4d F7010000 		.4byte	0x1f7
 6954 1d51 76000000 		.4byte	.LLST3
 6955 1d55 2F       		.uleb128 0x2f
 6956 1d56 6F706100 		.ascii	"opa\000"
 6957 1d5a 01       		.byte	0x1
 6958 1d5b 1302     		.2byte	0x213
 6959 1d5d 02020000 		.4byte	0x202
 6960 1d61 89000000 		.4byte	.LLST4
 6961 1d65 2E       		.uleb128 0x2e
 6962 1d66 DD100000 		.4byte	.LASF501
 6963 1d6a 01       		.byte	0x1
 6964 1d6b 1302     		.2byte	0x213
 6965 1d6d 64080000 		.4byte	0x864
 6966 1d71 A9000000 		.4byte	.LLST5
 6967 1d75 2E       		.uleb128 0x2e
 6968 1d76 DF080000 		.4byte	.LASF502
 6969 1d7a 01       		.byte	0x1
 6970 1d7b 1302     		.2byte	0x213
 6971 1d7d 0D020000 		.4byte	0x20d
 6972 1d81 D3000000 		.4byte	.LLST6
 6973 1d85 2E       		.uleb128 0x2e
 6974 1d86 AC030000 		.4byte	.LASF202
 6975 1d8a 01       		.byte	0x1
 6976 1d8b 1402     		.2byte	0x214
 6977 1d8d 4C040000 		.4byte	0x44c
 6978 1d91 F3000000 		.4byte	.LLST7
 6979 1d95 30       		.uleb128 0x30
 6980 1d96 7700     		.ascii	"w\000"
 6981 1d98 01       		.byte	0x1
 6982 1d99 1702     		.2byte	0x217
 6983 1d9b E4000000 		.4byte	0xe4
 6984 1d9f 13010000 		.4byte	.LLST8
 6985 1da3 30       		.uleb128 0x30
 6986 1da4 6800     		.ascii	"h\000"
 6987 1da6 01       		.byte	0x1
ARM GAS  C:\Users\haske\AppData\Local\Temp\cc7ZkKza.s 			page 160


 6988 1da7 1802     		.2byte	0x218
 6989 1da9 E4000000 		.4byte	0xe4
 6990 1dad 26010000 		.4byte	.LLST9
 6991 1db1 30       		.uleb128 0x30
 6992 1db2 7800     		.ascii	"x\000"
 6993 1db4 01       		.byte	0x1
 6994 1db5 1A02     		.2byte	0x21a
 6995 1db7 E4000000 		.4byte	0xe4
 6996 1dbb 68010000 		.4byte	.LLST10
 6997 1dbf 30       		.uleb128 0x30
 6998 1dc0 7900     		.ascii	"y\000"
 6999 1dc2 01       		.byte	0x1
 7000 1dc3 1B02     		.2byte	0x21b
 7001 1dc5 E4000000 		.4byte	0xe4
 7002 1dc9 9C010000 		.4byte	.LLST11
 7003 1dcd 31       		.uleb128 0x31
 7004 1dce F5170000 		.4byte	.LASF503
 7005 1dd2 01       		.byte	0x1
 7006 1dd3 1D02     		.2byte	0x21d
 7007 1dd5 101F0000 		.4byte	0x1f10
 7008 1dd9 D2010000 		.4byte	.LLST12
 7009 1ddd 32       		.uleb128 0x32
 7010 1dde 031C0000 		.4byte	0x1c03
 7011 1de2 20000000 		.4byte	.LBB98
 7012 1de6 14000000 		.4byte	.LBE98-.LBB98
 7013 1dea 01       		.byte	0x1
 7014 1deb 1702     		.2byte	0x217
 7015 1ded FB1D0000 		.4byte	0x1dfb
 7016 1df1 33       		.uleb128 0x33
 7017 1df2 131C0000 		.4byte	0x1c13
 7018 1df6 F5010000 		.4byte	.LLST13
 7019 1dfa 00       		.byte	0
 7020 1dfb 32       		.uleb128 0x32
 7021 1dfc E71B0000 		.4byte	0x1be7
 7022 1e00 34000000 		.4byte	.LBB100
 7023 1e04 10000000 		.4byte	.LBE100-.LBB100
 7024 1e08 01       		.byte	0x1
 7025 1e09 1802     		.2byte	0x218
 7026 1e0b 191E0000 		.4byte	0x1e19
 7027 1e0f 33       		.uleb128 0x33
 7028 1e10 F71B0000 		.4byte	0x1bf7
 7029 1e14 08020000 		.4byte	.LLST14
 7030 1e18 00       		.byte	0
 7031 1e19 34       		.uleb128 0x34
 7032 1e1a 62000000 		.4byte	.LBB102
 7033 1e1e 4E000000 		.4byte	.LBE102-.LBB102
 7034 1e22 861E0000 		.4byte	0x1e86
 7035 1e26 31       		.uleb128 0x31
 7036 1e27 A20C0000 		.4byte	.LASF504
 7037 1e2b 01       		.byte	0x1
 7038 1e2c 2F02     		.2byte	0x22f
 7039 1e2e F7010000 		.4byte	0x1f7
 7040 1e32 29020000 		.4byte	.LLST15
 7041 1e36 31       		.uleb128 0x31
 7042 1e37 061F0000 		.4byte	.LASF505
 7043 1e3b 01       		.byte	0x1
 7044 1e3c 3002     		.2byte	0x230
ARM GAS  C:\Users\haske\AppData\Local\Temp\cc7ZkKza.s 			page 161


 7045 1e3e F7010000 		.4byte	0x1f7
 7046 1e42 52020000 		.4byte	.LLST16
 7047 1e46 35       		.uleb128 0x35
 7048 1e47 6E000000 		.4byte	.LVL11
 7049 1e4b 02       		.uleb128 0x2
 7050 1e4c 7B       		.byte	0x7b
 7051 1e4d 00       		.sleb128 0
 7052 1e4e 691E0000 		.4byte	0x1e69
 7053 1e52 36       		.uleb128 0x36
 7054 1e53 01       		.uleb128 0x1
 7055 1e54 50       		.byte	0x50
 7056 1e55 04       		.uleb128 0x4
 7057 1e56 91       		.byte	0x91
 7058 1e57 46       		.sleb128 -58
 7059 1e58 94       		.byte	0x94
 7060 1e59 02       		.byte	0x2
 7061 1e5a 36       		.uleb128 0x36
 7062 1e5b 01       		.uleb128 0x1
 7063 1e5c 51       		.byte	0x51
 7064 1e5d 02       		.uleb128 0x2
 7065 1e5e 75       		.byte	0x75
 7066 1e5f 00       		.sleb128 0
 7067 1e60 36       		.uleb128 0x36
 7068 1e61 01       		.uleb128 0x1
 7069 1e62 52       		.byte	0x52
 7070 1e63 04       		.uleb128 0x4
 7071 1e64 91       		.byte	0x91
 7072 1e65 48       		.sleb128 -56
 7073 1e66 94       		.byte	0x94
 7074 1e67 01       		.byte	0x1
 7075 1e68 00       		.byte	0
 7076 1e69 37       		.uleb128 0x37
 7077 1e6a 94000000 		.4byte	.LVL16
 7078 1e6e 36       		.uleb128 0x36
 7079 1e6f 01       		.uleb128 0x1
 7080 1e70 50       		.byte	0x50
 7081 1e71 04       		.uleb128 0x4
 7082 1e72 91       		.byte	0x91
 7083 1e73 46       		.sleb128 -58
 7084 1e74 94       		.byte	0x94
 7085 1e75 02       		.byte	0x2
 7086 1e76 36       		.uleb128 0x36
 7087 1e77 01       		.uleb128 0x1
 7088 1e78 51       		.byte	0x51
 7089 1e79 02       		.uleb128 0x2
 7090 1e7a 75       		.byte	0x75
 7091 1e7b 00       		.sleb128 0
 7092 1e7c 36       		.uleb128 0x36
 7093 1e7d 01       		.uleb128 0x1
 7094 1e7e 52       		.byte	0x52
 7095 1e7f 04       		.uleb128 0x4
 7096 1e80 91       		.byte	0x91
 7097 1e81 48       		.sleb128 -56
 7098 1e82 94       		.byte	0x94
 7099 1e83 01       		.byte	0x1
 7100 1e84 00       		.byte	0
 7101 1e85 00       		.byte	0
ARM GAS  C:\Users\haske\AppData\Local\Temp\cc7ZkKza.s 			page 162


 7102 1e86 38       		.uleb128 0x38
 7103 1e87 B0000000 		.4byte	.LBB103
 7104 1e8b 88000000 		.4byte	.LBE103-.LBB103
 7105 1e8f 31       		.uleb128 0x31
 7106 1e90 A20C0000 		.4byte	.LASF504
 7107 1e94 01       		.byte	0x1
 7108 1e95 3F02     		.2byte	0x23f
 7109 1e97 F7010000 		.4byte	0x1f7
 7110 1e9b 7B020000 		.4byte	.LLST17
 7111 1e9f 31       		.uleb128 0x31
 7112 1ea0 061F0000 		.4byte	.LASF505
 7113 1ea4 01       		.byte	0x1
 7114 1ea5 4002     		.2byte	0x240
 7115 1ea7 F7010000 		.4byte	0x1f7
 7116 1eab A4020000 		.4byte	.LLST18
 7117 1eaf 31       		.uleb128 0x31
 7118 1eb0 891D0000 		.4byte	.LASF506
 7119 1eb4 01       		.byte	0x1
 7120 1eb5 4102     		.2byte	0x241
 7121 1eb7 02020000 		.4byte	0x202
 7122 1ebb C2020000 		.4byte	.LLST19
 7123 1ebf 31       		.uleb128 0x31
 7124 1ec0 89190000 		.4byte	.LASF507
 7125 1ec4 01       		.byte	0x1
 7126 1ec5 4302     		.2byte	0x243
 7127 1ec7 02020000 		.4byte	0x202
 7128 1ecb F7020000 		.4byte	.LLST20
 7129 1ecf 39       		.uleb128 0x39
 7130 1ed0 D0000000 		.4byte	.LVL26
 7131 1ed4 E71E0000 		.4byte	0x1ee7
 7132 1ed8 36       		.uleb128 0x36
 7133 1ed9 01       		.uleb128 0x1
 7134 1eda 50       		.byte	0x50
 7135 1edb 04       		.uleb128 0x4
 7136 1edc 91       		.byte	0x91
 7137 1edd 46       		.sleb128 -58
 7138 1ede 94       		.byte	0x94
 7139 1edf 02       		.byte	0x2
 7140 1ee0 36       		.uleb128 0x36
 7141 1ee1 01       		.uleb128 0x1
 7142 1ee2 51       		.byte	0x51
 7143 1ee3 02       		.uleb128 0x2
 7144 1ee4 7A       		.byte	0x7a
 7145 1ee5 00       		.sleb128 0
 7146 1ee6 00       		.byte	0
 7147 1ee7 37       		.uleb128 0x37
 7148 1ee8 0E010000 		.4byte	.LVL34
 7149 1eec 36       		.uleb128 0x36
 7150 1eed 01       		.uleb128 0x1
 7151 1eee 50       		.byte	0x50
 7152 1eef 04       		.uleb128 0x4
 7153 1ef0 91       		.byte	0x91
 7154 1ef1 46       		.sleb128 -58
 7155 1ef2 94       		.byte	0x94
 7156 1ef3 02       		.byte	0x2
 7157 1ef4 00       		.byte	0
 7158 1ef5 00       		.byte	0
ARM GAS  C:\Users\haske\AppData\Local\Temp\cc7ZkKza.s 			page 163


 7159 1ef6 00       		.byte	0
 7160 1ef7 13       		.uleb128 0x13
 7161 1ef8 F7010000 		.4byte	0x1f7
 7162 1efc 101F0000 		.4byte	0x1f10
 7163 1f00 14       		.uleb128 0x14
 7164 1f01 F7010000 		.4byte	0x1f7
 7165 1f05 14       		.uleb128 0x14
 7166 1f06 F7010000 		.4byte	0x1f7
 7167 1f0a 14       		.uleb128 0x14
 7168 1f0b 02020000 		.4byte	0x202
 7169 1f0f 00       		.byte	0
 7170 1f10 11       		.uleb128 0x11
 7171 1f11 04       		.byte	0x4
 7172 1f12 F71E0000 		.4byte	0x1ef7
 7173 1f16 2D       		.uleb128 0x2d
 7174 1f17 06050000 		.4byte	.LASF509
 7175 1f1b 01       		.byte	0x1
 7176 1f1c 6903     		.2byte	0x369
 7177 1f1e 00000000 		.4byte	.LFB166
 7178 1f22 A4010000 		.4byte	.LFE166-.LFB166
 7179 1f26 01       		.uleb128 0x1
 7180 1f27 9C       		.byte	0x9c
 7181 1f28 41210000 		.4byte	0x2141
 7182 1f2c 2E       		.uleb128 0x2e
 7183 1f2d 66080000 		.4byte	.LASF498
 7184 1f31 01       		.byte	0x1
 7185 1f32 6903     		.2byte	0x369
 7186 1f34 D7090000 		.4byte	0x9d7
 7187 1f38 15030000 		.4byte	.LLST21
 7188 1f3c 2E       		.uleb128 0x2e
 7189 1f3d 41130000 		.4byte	.LASF499
 7190 1f41 01       		.byte	0x1
 7191 1f42 6903     		.2byte	0x369
 7192 1f44 D8080000 		.4byte	0x8d8
 7193 1f48 49030000 		.4byte	.LLST22
 7194 1f4c 2E       		.uleb128 0x2e
 7195 1f4d 040B0000 		.4byte	.LASF500
 7196 1f51 01       		.byte	0x1
 7197 1f52 6903     		.2byte	0x369
 7198 1f54 0D020000 		.4byte	0x20d
 7199 1f58 6A030000 		.4byte	.LLST23
 7200 1f5c 2E       		.uleb128 0x2e
 7201 1f5d 27170000 		.4byte	.LASF198
 7202 1f61 01       		.byte	0x1
 7203 1f62 6A03     		.2byte	0x36a
 7204 1f64 E3080000 		.4byte	0x8e3
 7205 1f68 8B030000 		.4byte	.LLST24
 7206 1f6c 2E       		.uleb128 0x2e
 7207 1f6d F7020000 		.4byte	.LASF510
 7208 1f71 01       		.byte	0x1
 7209 1f72 6A03     		.2byte	0x36a
 7210 1f74 0D020000 		.4byte	0x20d
 7211 1f78 A9030000 		.4byte	.LLST25
 7212 1f7c 2F       		.uleb128 0x2f
 7213 1f7d 6F706100 		.ascii	"opa\000"
 7214 1f81 01       		.byte	0x1
 7215 1f82 6A03     		.2byte	0x36a
ARM GAS  C:\Users\haske\AppData\Local\Temp\cc7ZkKza.s 			page 164


 7216 1f84 02020000 		.4byte	0x202
 7217 1f88 C9030000 		.4byte	.LLST26
 7218 1f8c 2E       		.uleb128 0x2e
 7219 1f8d DD100000 		.4byte	.LASF501
 7220 1f91 01       		.byte	0x1
 7221 1f92 6B03     		.2byte	0x36b
 7222 1f94 64080000 		.4byte	0x864
 7223 1f98 E9030000 		.4byte	.LLST27
 7224 1f9c 2E       		.uleb128 0x2e
 7225 1f9d DF080000 		.4byte	.LASF502
 7226 1fa1 01       		.byte	0x1
 7227 1fa2 6B03     		.2byte	0x36b
 7228 1fa4 0D020000 		.4byte	0x20d
 7229 1fa8 13040000 		.4byte	.LLST28
 7230 1fac 2E       		.uleb128 0x2e
 7231 1fad AC030000 		.4byte	.LASF202
 7232 1fb1 01       		.byte	0x1
 7233 1fb2 6B03     		.2byte	0x36b
 7234 1fb4 4C040000 		.4byte	0x44c
 7235 1fb8 33040000 		.4byte	.LLST29
 7236 1fbc 30       		.uleb128 0x30
 7237 1fbd 7700     		.ascii	"w\000"
 7238 1fbf 01       		.byte	0x1
 7239 1fc0 6E03     		.2byte	0x36e
 7240 1fc2 E4000000 		.4byte	0xe4
 7241 1fc6 53040000 		.4byte	.LLST30
 7242 1fca 30       		.uleb128 0x30
 7243 1fcb 6800     		.ascii	"h\000"
 7244 1fcd 01       		.byte	0x1
 7245 1fce 6F03     		.2byte	0x36f
 7246 1fd0 E4000000 		.4byte	0xe4
 7247 1fd4 66040000 		.4byte	.LLST31
 7248 1fd8 30       		.uleb128 0x30
 7249 1fd9 7800     		.ascii	"x\000"
 7250 1fdb 01       		.byte	0x1
 7251 1fdc 7103     		.2byte	0x371
 7252 1fde E4000000 		.4byte	0xe4
 7253 1fe2 BF040000 		.4byte	.LLST32
 7254 1fe6 30       		.uleb128 0x30
 7255 1fe7 7900     		.ascii	"y\000"
 7256 1fe9 01       		.byte	0x1
 7257 1fea 7203     		.2byte	0x372
 7258 1fec E4000000 		.4byte	0xe4
 7259 1ff0 F3040000 		.4byte	.LLST33
 7260 1ff4 31       		.uleb128 0x31
 7261 1ff5 F5170000 		.4byte	.LASF503
 7262 1ff9 01       		.byte	0x1
 7263 1ffa 7403     		.2byte	0x374
 7264 1ffc 101F0000 		.4byte	0x1f10
 7265 2000 59050000 		.4byte	.LLST34
 7266 2004 31       		.uleb128 0x31
 7267 2005 A20C0000 		.4byte	.LASF504
 7268 2009 01       		.byte	0x1
 7269 200a 8403     		.2byte	0x384
 7270 200c F7010000 		.4byte	0x1f7
 7271 2010 94050000 		.4byte	.LLST35
 7272 2014 31       		.uleb128 0x31
ARM GAS  C:\Users\haske\AppData\Local\Temp\cc7ZkKza.s 			page 165


 7273 2015 E8020000 		.4byte	.LASF511
 7274 2019 01       		.byte	0x1
 7275 201a 8503     		.2byte	0x385
 7276 201c F7010000 		.4byte	0x1f7
 7277 2020 F4050000 		.4byte	.LLST36
 7278 2024 32       		.uleb128 0x32
 7279 2025 031C0000 		.4byte	0x1c03
 7280 2029 26000000 		.4byte	.LBB104
 7281 202d 14000000 		.4byte	.LBE104-.LBB104
 7282 2031 01       		.byte	0x1
 7283 2032 6E03     		.2byte	0x36e
 7284 2034 42200000 		.4byte	0x2042
 7285 2038 33       		.uleb128 0x33
 7286 2039 131C0000 		.4byte	0x1c13
 7287 203d 28060000 		.4byte	.LLST37
 7288 2041 00       		.byte	0
 7289 2042 32       		.uleb128 0x32
 7290 2043 E71B0000 		.4byte	0x1be7
 7291 2047 3A000000 		.4byte	.LBB106
 7292 204b 10000000 		.4byte	.LBE106-.LBB106
 7293 204f 01       		.byte	0x1
 7294 2050 6F03     		.2byte	0x36f
 7295 2052 60200000 		.4byte	0x2060
 7296 2056 33       		.uleb128 0x33
 7297 2057 F71B0000 		.4byte	0x1bf7
 7298 205b 3B060000 		.4byte	.LLST38
 7299 205f 00       		.byte	0
 7300 2060 34       		.uleb128 0x34
 7301 2061 6E000000 		.4byte	.LBB108
 7302 2065 70000000 		.4byte	.LBE108-.LBB108
 7303 2069 BC200000 		.4byte	0x20bc
 7304 206d 31       		.uleb128 0x31
 7305 206e 061F0000 		.4byte	.LASF505
 7306 2072 01       		.byte	0x1
 7307 2073 8A03     		.2byte	0x38a
 7308 2075 F7010000 		.4byte	0x1f7
 7309 2079 5C060000 		.4byte	.LLST39
 7310 207d 35       		.uleb128 0x35
 7311 207e 82000000 		.4byte	.LVL60
 7312 2082 03       		.uleb128 0x3
 7313 2083 91       		.byte	0x91
 7314 2084 40       		.sleb128 -64
 7315 2085 06       		.byte	0x6
 7316 2086 A0200000 		.4byte	0x20a0
 7317 208a 36       		.uleb128 0x36
 7318 208b 01       		.uleb128 0x1
 7319 208c 50       		.byte	0x50
 7320 208d 02       		.uleb128 0x2
 7321 208e 77       		.byte	0x77
 7322 208f 00       		.sleb128 0
 7323 2090 36       		.uleb128 0x36
 7324 2091 01       		.uleb128 0x1
 7325 2092 51       		.byte	0x51
 7326 2093 02       		.uleb128 0x2
 7327 2094 75       		.byte	0x75
 7328 2095 00       		.sleb128 0
 7329 2096 36       		.uleb128 0x36
ARM GAS  C:\Users\haske\AppData\Local\Temp\cc7ZkKza.s 			page 166


 7330 2097 01       		.uleb128 0x1
 7331 2098 52       		.byte	0x52
 7332 2099 05       		.uleb128 0x5
 7333 209a 91       		.byte	0x91
 7334 209b BC7F     		.sleb128 -68
 7335 209d 94       		.byte	0x94
 7336 209e 01       		.byte	0x1
 7337 209f 00       		.byte	0
 7338 20a0 37       		.uleb128 0x37
 7339 20a1 B4000000 		.4byte	.LVL68
 7340 20a5 36       		.uleb128 0x36
 7341 20a6 01       		.uleb128 0x1
 7342 20a7 50       		.byte	0x50
 7343 20a8 02       		.uleb128 0x2
 7344 20a9 77       		.byte	0x77
 7345 20aa 00       		.sleb128 0
 7346 20ab 36       		.uleb128 0x36
 7347 20ac 01       		.uleb128 0x1
 7348 20ad 51       		.byte	0x51
 7349 20ae 02       		.uleb128 0x2
 7350 20af 76       		.byte	0x76
 7351 20b0 00       		.sleb128 0
 7352 20b1 36       		.uleb128 0x36
 7353 20b2 01       		.uleb128 0x1
 7354 20b3 52       		.byte	0x52
 7355 20b4 05       		.uleb128 0x5
 7356 20b5 91       		.byte	0x91
 7357 20b6 BC7F     		.sleb128 -68
 7358 20b8 94       		.byte	0x94
 7359 20b9 01       		.byte	0x1
 7360 20ba 00       		.byte	0
 7361 20bb 00       		.byte	0
 7362 20bc 38       		.uleb128 0x38
 7363 20bd DE000000 		.4byte	.LBB109
 7364 20c1 B4000000 		.4byte	.LBE109-.LBB109
 7365 20c5 31       		.uleb128 0x31
 7366 20c6 50160000 		.4byte	.LASF512
 7367 20ca 01       		.byte	0x1
 7368 20cb 9C03     		.2byte	0x39c
 7369 20cd 02020000 		.4byte	0x202
 7370 20d1 85060000 		.4byte	.LLST40
 7371 20d5 31       		.uleb128 0x31
 7372 20d6 061F0000 		.4byte	.LASF505
 7373 20da 01       		.byte	0x1
 7374 20db 9D03     		.2byte	0x39d
 7375 20dd F7010000 		.4byte	0x1f7
 7376 20e1 B9060000 		.4byte	.LLST41
 7377 20e5 34       		.uleb128 0x34
 7378 20e6 16010000 		.4byte	.LBB110
 7379 20ea 54000000 		.4byte	.LBE110-.LBB110
 7380 20ee 21210000 		.4byte	0x2121
 7381 20f2 31       		.uleb128 0x31
 7382 20f3 89190000 		.4byte	.LASF507
 7383 20f7 01       		.byte	0x1
 7384 20f8 A103     		.2byte	0x3a1
 7385 20fa 02020000 		.4byte	0x202
 7386 20fe D7060000 		.4byte	.LLST42
ARM GAS  C:\Users\haske\AppData\Local\Temp\cc7ZkKza.s 			page 167


 7387 2102 3A       		.uleb128 0x3a
 7388 2103 64010000 		.4byte	.LVL90
 7389 2107 03       		.uleb128 0x3
 7390 2108 91       		.byte	0x91
 7391 2109 40       		.sleb128 -64
 7392 210a 06       		.byte	0x6
 7393 210b 36       		.uleb128 0x36
 7394 210c 01       		.uleb128 0x1
 7395 210d 50       		.byte	0x50
 7396 210e 02       		.uleb128 0x2
 7397 210f 77       		.byte	0x77
 7398 2110 00       		.sleb128 0
 7399 2111 36       		.uleb128 0x36
 7400 2112 01       		.uleb128 0x1
 7401 2113 51       		.byte	0x51
 7402 2114 04       		.uleb128 0x4
 7403 2115 7D       		.byte	0x7d
 7404 2116 00       		.sleb128 0
 7405 2117 94       		.byte	0x94
 7406 2118 02       		.byte	0x2
 7407 2119 36       		.uleb128 0x36
 7408 211a 01       		.uleb128 0x1
 7409 211b 52       		.byte	0x52
 7410 211c 02       		.uleb128 0x2
 7411 211d 75       		.byte	0x75
 7412 211e 00       		.sleb128 0
 7413 211f 00       		.byte	0
 7414 2120 00       		.byte	0
 7415 2121 3A       		.uleb128 0x3a
 7416 2122 0E010000 		.4byte	.LVL82
 7417 2126 03       		.uleb128 0x3
 7418 2127 91       		.byte	0x91
 7419 2128 40       		.sleb128 -64
 7420 2129 06       		.byte	0x6
 7421 212a 36       		.uleb128 0x36
 7422 212b 01       		.uleb128 0x1
 7423 212c 50       		.byte	0x50
 7424 212d 02       		.uleb128 0x2
 7425 212e 77       		.byte	0x77
 7426 212f 00       		.sleb128 0
 7427 2130 36       		.uleb128 0x36
 7428 2131 01       		.uleb128 0x1
 7429 2132 51       		.byte	0x51
 7430 2133 04       		.uleb128 0x4
 7431 2134 7D       		.byte	0x7d
 7432 2135 00       		.sleb128 0
 7433 2136 94       		.byte	0x94
 7434 2137 02       		.byte	0x2
 7435 2138 36       		.uleb128 0x36
 7436 2139 01       		.uleb128 0x1
 7437 213a 52       		.byte	0x52
 7438 213b 02       		.uleb128 0x2
 7439 213c 74       		.byte	0x74
 7440 213d 00       		.sleb128 0
 7441 213e 00       		.byte	0
 7442 213f 00       		.byte	0
 7443 2140 00       		.byte	0
ARM GAS  C:\Users\haske\AppData\Local\Temp\cc7ZkKza.s 			page 168


 7444 2141 3B       		.uleb128 0x3b
 7445 2142 3B190000 		.4byte	.LASF513
 7446 2146 01       		.byte	0x1
 7447 2147 B103     		.2byte	0x3b1
 7448 2149 F7010000 		.4byte	0x1f7
 7449 214d 00000000 		.4byte	.LFB167
 7450 2151 80000000 		.4byte	.LFE167-.LFB167
 7451 2155 01       		.uleb128 0x1
 7452 2156 9C       		.byte	0x9c
 7453 2157 E8210000 		.4byte	0x21e8
 7454 215b 2F       		.uleb128 0x2f
 7455 215c 666700   		.ascii	"fg\000"
 7456 215f 01       		.byte	0x1
 7457 2160 B103     		.2byte	0x3b1
 7458 2162 F7010000 		.4byte	0x1f7
 7459 2166 EA060000 		.4byte	.LLST43
 7460 216a 2F       		.uleb128 0x2f
 7461 216b 626700   		.ascii	"bg\000"
 7462 216e 01       		.byte	0x1
 7463 216f B103     		.2byte	0x3b1
 7464 2171 F7010000 		.4byte	0x1f7
 7465 2175 13070000 		.4byte	.LLST44
 7466 2179 2F       		.uleb128 0x2f
 7467 217a 6F706100 		.ascii	"opa\000"
 7468 217e 01       		.byte	0x1
 7469 217f B103     		.2byte	0x3b1
 7470 2181 02020000 		.4byte	0x202
 7471 2185 31070000 		.4byte	.LLST45
 7472 2189 30       		.uleb128 0x30
 7473 218a 746D7000 		.ascii	"tmp\000"
 7474 218e 01       		.byte	0x1
 7475 218f B603     		.2byte	0x3b6
 7476 2191 EF000000 		.4byte	0xef
 7477 2195 52070000 		.4byte	.LLST46
 7478 2199 3C       		.uleb128 0x3c
 7479 219a 1F1C0000 		.4byte	0x1c1f
 7480 219e 4A000000 		.4byte	.LBB111
 7481 21a2 2E000000 		.4byte	.LBE111-.LBB111
 7482 21a6 01       		.byte	0x1
 7483 21a7 E303     		.2byte	0x3e3
 7484 21a9 33       		.uleb128 0x33
 7485 21aa 461C0000 		.4byte	0x1c46
 7486 21ae B9070000 		.4byte	.LLST47
 7487 21b2 3D       		.uleb128 0x3d
 7488 21b3 3B1C0000 		.4byte	0x1c3b
 7489 21b7 3D       		.uleb128 0x3d
 7490 21b8 301C0000 		.4byte	0x1c30
 7491 21bc 38       		.uleb128 0x38
 7492 21bd 4A000000 		.4byte	.LBB112
 7493 21c1 2E000000 		.4byte	.LBE112-.LBB112
 7494 21c5 3E       		.uleb128 0x3e
 7495 21c6 521C0000 		.4byte	0x1c52
 7496 21ca 3F       		.uleb128 0x3f
 7497 21cb 5E1C0000 		.4byte	0x1c5e
 7498 21cf DB070000 		.4byte	.LLST48
 7499 21d3 3F       		.uleb128 0x3f
 7500 21d4 691C0000 		.4byte	0x1c69
ARM GAS  C:\Users\haske\AppData\Local\Temp\cc7ZkKza.s 			page 169


 7501 21d8 FE070000 		.4byte	.LLST49
 7502 21dc 3F       		.uleb128 0x3f
 7503 21dd 741C0000 		.4byte	0x1c74
 7504 21e1 21080000 		.4byte	.LLST50
 7505 21e5 00       		.byte	0
 7506 21e6 00       		.byte	0
 7507 21e7 00       		.byte	0
 7508 21e8 3B       		.uleb128 0x3b
 7509 21e9 BE1A0000 		.4byte	.LASF514
 7510 21ed 01       		.byte	0x1
 7511 21ee E603     		.2byte	0x3e6
 7512 21f0 F7010000 		.4byte	0x1f7
 7513 21f4 00000000 		.4byte	.LFB168
 7514 21f8 7C000000 		.4byte	.LFE168-.LFB168
 7515 21fc 01       		.uleb128 0x1
 7516 21fd 9C       		.byte	0x9c
 7517 21fe 8F220000 		.4byte	0x228f
 7518 2202 2F       		.uleb128 0x2f
 7519 2203 666700   		.ascii	"fg\000"
 7520 2206 01       		.byte	0x1
 7521 2207 E603     		.2byte	0x3e6
 7522 2209 F7010000 		.4byte	0x1f7
 7523 220d 34080000 		.4byte	.LLST51
 7524 2211 2F       		.uleb128 0x2f
 7525 2212 626700   		.ascii	"bg\000"
 7526 2215 01       		.byte	0x1
 7527 2216 E603     		.2byte	0x3e6
 7528 2218 F7010000 		.4byte	0x1f7
 7529 221c 5D080000 		.4byte	.LLST52
 7530 2220 2F       		.uleb128 0x2f
 7531 2221 6F706100 		.ascii	"opa\000"
 7532 2225 01       		.byte	0x1
 7533 2226 E603     		.2byte	0x3e6
 7534 2228 02020000 		.4byte	0x202
 7535 222c 7B080000 		.4byte	.LLST53
 7536 2230 30       		.uleb128 0x30
 7537 2231 746D7000 		.ascii	"tmp\000"
 7538 2235 01       		.byte	0x1
 7539 2236 EA03     		.2byte	0x3ea
 7540 2238 E4000000 		.4byte	0xe4
 7541 223c 9C080000 		.4byte	.LLST54
 7542 2240 3C       		.uleb128 0x3c
 7543 2241 1F1C0000 		.4byte	0x1c1f
 7544 2245 44000000 		.4byte	.LBB113
 7545 2249 2E000000 		.4byte	.LBE113-.LBB113
 7546 224d 01       		.byte	0x1
 7547 224e FD03     		.2byte	0x3fd
 7548 2250 33       		.uleb128 0x33
 7549 2251 461C0000 		.4byte	0x1c46
 7550 2255 03090000 		.4byte	.LLST55
 7551 2259 3D       		.uleb128 0x3d
 7552 225a 3B1C0000 		.4byte	0x1c3b
 7553 225e 3D       		.uleb128 0x3d
 7554 225f 301C0000 		.4byte	0x1c30
 7555 2263 38       		.uleb128 0x38
 7556 2264 44000000 		.4byte	.LBB114
 7557 2268 2E000000 		.4byte	.LBE114-.LBB114
ARM GAS  C:\Users\haske\AppData\Local\Temp\cc7ZkKza.s 			page 170


 7558 226c 3E       		.uleb128 0x3e
 7559 226d 521C0000 		.4byte	0x1c52
 7560 2271 3F       		.uleb128 0x3f
 7561 2272 5E1C0000 		.4byte	0x1c5e
 7562 2276 25090000 		.4byte	.LLST56
 7563 227a 3F       		.uleb128 0x3f
 7564 227b 691C0000 		.4byte	0x1c69
 7565 227f 48090000 		.4byte	.LLST57
 7566 2283 3F       		.uleb128 0x3f
 7567 2284 741C0000 		.4byte	0x1c74
 7568 2288 6B090000 		.4byte	.LLST58
 7569 228c 00       		.byte	0
 7570 228d 00       		.byte	0
 7571 228e 00       		.byte	0
 7572 228f 3B       		.uleb128 0x3b
 7573 2290 AC050000 		.4byte	.LASF515
 7574 2294 01       		.byte	0x1
 7575 2295 0004     		.2byte	0x400
 7576 2297 F7010000 		.4byte	0x1f7
 7577 229b 00000000 		.4byte	.LFB169
 7578 229f 7C000000 		.4byte	.LFE169-.LFB169
 7579 22a3 01       		.uleb128 0x1
 7580 22a4 9C       		.byte	0x9c
 7581 22a5 26230000 		.4byte	0x2326
 7582 22a9 2F       		.uleb128 0x2f
 7583 22aa 666700   		.ascii	"fg\000"
 7584 22ad 01       		.byte	0x1
 7585 22ae 0004     		.2byte	0x400
 7586 22b0 F7010000 		.4byte	0x1f7
 7587 22b4 7E090000 		.4byte	.LLST59
 7588 22b8 2F       		.uleb128 0x2f
 7589 22b9 626700   		.ascii	"bg\000"
 7590 22bc 01       		.byte	0x1
 7591 22bd 0004     		.2byte	0x400
 7592 22bf F7010000 		.4byte	0x1f7
 7593 22c3 A7090000 		.4byte	.LLST60
 7594 22c7 2F       		.uleb128 0x2f
 7595 22c8 6F706100 		.ascii	"opa\000"
 7596 22cc 01       		.byte	0x1
 7597 22cd 0004     		.2byte	0x400
 7598 22cf 02020000 		.4byte	0x202
 7599 22d3 C5090000 		.4byte	.LLST61
 7600 22d7 3C       		.uleb128 0x3c
 7601 22d8 1F1C0000 		.4byte	0x1c1f
 7602 22dc 44000000 		.4byte	.LBB115
 7603 22e0 2E000000 		.4byte	.LBE115-.LBB115
 7604 22e4 01       		.byte	0x1
 7605 22e5 1404     		.2byte	0x414
 7606 22e7 33       		.uleb128 0x33
 7607 22e8 461C0000 		.4byte	0x1c46
 7608 22ec E6090000 		.4byte	.LLST62
 7609 22f0 3D       		.uleb128 0x3d
 7610 22f1 3B1C0000 		.4byte	0x1c3b
 7611 22f5 3D       		.uleb128 0x3d
 7612 22f6 301C0000 		.4byte	0x1c30
 7613 22fa 38       		.uleb128 0x38
 7614 22fb 44000000 		.4byte	.LBB116
ARM GAS  C:\Users\haske\AppData\Local\Temp\cc7ZkKza.s 			page 171


 7615 22ff 2E000000 		.4byte	.LBE116-.LBB116
 7616 2303 3E       		.uleb128 0x3e
 7617 2304 521C0000 		.4byte	0x1c52
 7618 2308 3F       		.uleb128 0x3f
 7619 2309 5E1C0000 		.4byte	0x1c5e
 7620 230d 080A0000 		.4byte	.LLST63
 7621 2311 3F       		.uleb128 0x3f
 7622 2312 691C0000 		.4byte	0x1c69
 7623 2316 2B0A0000 		.4byte	.LLST64
 7624 231a 3F       		.uleb128 0x3f
 7625 231b 741C0000 		.4byte	0x1c74
 7626 231f 4E0A0000 		.4byte	.LLST65
 7627 2323 00       		.byte	0
 7628 2324 00       		.byte	0
 7629 2325 00       		.byte	0
 7630 2326 40       		.uleb128 0x40
 7631 2327 25040000 		.4byte	.LASF516
 7632 232b 01       		.byte	0x1
 7633 232c CF       		.byte	0xcf
 7634 232d 00000000 		.4byte	.LFB161
 7635 2331 E2000000 		.4byte	.LFE161-.LFB161
 7636 2335 01       		.uleb128 0x1
 7637 2336 9C       		.byte	0x9c
 7638 2337 87240000 		.4byte	0x2487
 7639 233b 41       		.uleb128 0x41
 7640 233c 66080000 		.4byte	.LASF498
 7641 2340 01       		.byte	0x1
 7642 2341 CF       		.byte	0xcf
 7643 2342 D7090000 		.4byte	0x9d7
 7644 2346 610A0000 		.4byte	.LLST66
 7645 234a 41       		.uleb128 0x41
 7646 234b FE160000 		.4byte	.LASF197
 7647 234f 01       		.byte	0x1
 7648 2350 CF       		.byte	0xcf
 7649 2351 D8080000 		.4byte	0x8d8
 7650 2355 800A0000 		.4byte	.LLST67
 7651 2359 41       		.uleb128 0x41
 7652 235a 040B0000 		.4byte	.LASF500
 7653 235e 01       		.byte	0x1
 7654 235f CF       		.byte	0xcf
 7655 2360 0D020000 		.4byte	0x20d
 7656 2364 9E0A0000 		.4byte	.LLST68
 7657 2368 41       		.uleb128 0x41
 7658 2369 C6170000 		.4byte	.LASF84
 7659 236d 01       		.byte	0x1
 7660 236e D0       		.byte	0xd0
 7661 236f F7010000 		.4byte	0x1f7
 7662 2373 BF0A0000 		.4byte	.LLST69
 7663 2377 42       		.uleb128 0x42
 7664 2378 6F706100 		.ascii	"opa\000"
 7665 237c 01       		.byte	0x1
 7666 237d D0       		.byte	0xd0
 7667 237e 02020000 		.4byte	0x202
 7668 2382 02       		.uleb128 0x2
 7669 2383 91       		.byte	0x91
 7670 2384 00       		.sleb128 0
 7671 2385 41       		.uleb128 0x41
ARM GAS  C:\Users\haske\AppData\Local\Temp\cc7ZkKza.s 			page 172


 7672 2386 DD100000 		.4byte	.LASF501
 7673 238a 01       		.byte	0x1
 7674 238b D0       		.byte	0xd0
 7675 238c 64080000 		.4byte	0x864
 7676 2390 E80A0000 		.4byte	.LLST70
 7677 2394 43       		.uleb128 0x43
 7678 2395 93090000 		.4byte	.LASF517
 7679 2399 01       		.byte	0x1
 7680 239a D0       		.byte	0xd0
 7681 239b 0D020000 		.4byte	0x20d
 7682 239f 02       		.uleb128 0x2
 7683 23a0 91       		.byte	0x91
 7684 23a1 08       		.sleb128 8
 7685 23a2 44       		.uleb128 0x44
 7686 23a3 CD110000 		.4byte	.LASF518
 7687 23a7 01       		.byte	0x1
 7688 23a8 D2       		.byte	0xd2
 7689 23a9 87240000 		.4byte	0x2487
 7690 23ad 120B0000 		.4byte	.LLST71
 7691 23b1 45       		.uleb128 0x45
 7692 23b2 7800     		.ascii	"x\000"
 7693 23b4 01       		.byte	0x1
 7694 23b5 D4       		.byte	0xd4
 7695 23b6 E4000000 		.4byte	0xe4
 7696 23ba 460B0000 		.4byte	.LLST72
 7697 23be 45       		.uleb128 0x45
 7698 23bf 7900     		.ascii	"y\000"
 7699 23c1 01       		.byte	0x1
 7700 23c2 D5       		.byte	0xd5
 7701 23c3 E4000000 		.4byte	0xe4
 7702 23c7 6F0B0000 		.4byte	.LLST73
 7703 23cb 34       		.uleb128 0x34
 7704 23cc 68000000 		.4byte	.LBB117
 7705 23d0 74000000 		.4byte	.LBE117-.LBB117
 7706 23d4 4C240000 		.4byte	0x244c
 7707 23d8 45       		.uleb128 0x45
 7708 23d9 7700     		.ascii	"w\000"
 7709 23db 01       		.byte	0x1
 7710 23dc DF       		.byte	0xdf
 7711 23dd E4000000 		.4byte	0xe4
 7712 23e1 990B0000 		.4byte	.LLST74
 7713 23e5 45       		.uleb128 0x45
 7714 23e6 6800     		.ascii	"h\000"
 7715 23e8 01       		.byte	0x1
 7716 23e9 E0       		.byte	0xe0
 7717 23ea E4000000 		.4byte	0xe4
 7718 23ee AC0B0000 		.4byte	.LLST75
 7719 23f2 46       		.uleb128 0x46
 7720 23f3 031C0000 		.4byte	0x1c03
 7721 23f7 68000000 		.4byte	.LBB118
 7722 23fb 0E000000 		.4byte	.LBE118-.LBB118
 7723 23ff 01       		.byte	0x1
 7724 2400 DF       		.byte	0xdf
 7725 2401 0F240000 		.4byte	0x240f
 7726 2405 33       		.uleb128 0x33
 7727 2406 131C0000 		.4byte	0x1c13
 7728 240a CB0B0000 		.4byte	.LLST76
ARM GAS  C:\Users\haske\AppData\Local\Temp\cc7ZkKza.s 			page 173


 7729 240e 00       		.byte	0
 7730 240f 46       		.uleb128 0x46
 7731 2410 E71B0000 		.4byte	0x1be7
 7732 2414 76000000 		.4byte	.LBB120
 7733 2418 10000000 		.4byte	.LBE120-.LBB120
 7734 241c 01       		.byte	0x1
 7735 241d E0       		.byte	0xe0
 7736 241e 2C240000 		.4byte	0x242c
 7737 2422 33       		.uleb128 0x33
 7738 2423 F71B0000 		.4byte	0x1bf7
 7739 2427 DE0B0000 		.4byte	.LLST77
 7740 242b 00       		.byte	0
 7741 242c 3A       		.uleb128 0x3a
 7742 242d C4000000 		.4byte	.LVL177
 7743 2431 02       		.uleb128 0x2
 7744 2432 79       		.byte	0x79
 7745 2433 00       		.sleb128 0
 7746 2434 36       		.uleb128 0x36
 7747 2435 01       		.uleb128 0x1
 7748 2436 51       		.byte	0x51
 7749 2437 03       		.uleb128 0x3
 7750 2438 91       		.byte	0x91
 7751 2439 44       		.sleb128 -60
 7752 243a 06       		.byte	0x6
 7753 243b 36       		.uleb128 0x36
 7754 243c 01       		.uleb128 0x1
 7755 243d 52       		.byte	0x52
 7756 243e 04       		.uleb128 0x4
 7757 243f 91       		.byte	0x91
 7758 2440 48       		.sleb128 -56
 7759 2441 94       		.byte	0x94
 7760 2442 02       		.byte	0x2
 7761 2443 36       		.uleb128 0x36
 7762 2444 02       		.uleb128 0x2
 7763 2445 7D       		.byte	0x7d
 7764 2446 04       		.sleb128 4
 7765 2447 02       		.uleb128 0x2
 7766 2448 7A       		.byte	0x7a
 7767 2449 00       		.sleb128 0
 7768 244a 00       		.byte	0
 7769 244b 00       		.byte	0
 7770 244c 47       		.uleb128 0x47
 7771 244d 20000000 		.4byte	.LVL165
 7772 2451 5F320000 		.4byte	0x325f
 7773 2455 3A       		.uleb128 0x3a
 7774 2456 52000000 		.4byte	.LVL170
 7775 245a 02       		.uleb128 0x2
 7776 245b 75       		.byte	0x75
 7777 245c 00       		.sleb128 0
 7778 245d 36       		.uleb128 0x36
 7779 245e 01       		.uleb128 0x1
 7780 245f 51       		.byte	0x51
 7781 2460 03       		.uleb128 0x3
 7782 2461 91       		.byte	0x91
 7783 2462 44       		.sleb128 -60
 7784 2463 06       		.byte	0x6
 7785 2464 36       		.uleb128 0x36
ARM GAS  C:\Users\haske\AppData\Local\Temp\cc7ZkKza.s 			page 174


 7786 2465 01       		.uleb128 0x1
 7787 2466 52       		.byte	0x52
 7788 2467 02       		.uleb128 0x2
 7789 2468 78       		.byte	0x78
 7790 2469 00       		.sleb128 0
 7791 246a 36       		.uleb128 0x36
 7792 246b 01       		.uleb128 0x1
 7793 246c 53       		.byte	0x53
 7794 246d 02       		.uleb128 0x2
 7795 246e 74       		.byte	0x74
 7796 246f 00       		.sleb128 0
 7797 2470 36       		.uleb128 0x36
 7798 2471 02       		.uleb128 0x2
 7799 2472 7D       		.byte	0x7d
 7800 2473 00       		.sleb128 0
 7801 2474 02       		.uleb128 0x2
 7802 2475 76       		.byte	0x76
 7803 2476 00       		.sleb128 0
 7804 2477 36       		.uleb128 0x36
 7805 2478 02       		.uleb128 0x2
 7806 2479 7D       		.byte	0x7d
 7807 247a 04       		.sleb128 4
 7808 247b 02       		.uleb128 0x2
 7809 247c 7A       		.byte	0x7a
 7810 247d 00       		.sleb128 0
 7811 247e 36       		.uleb128 0x36
 7812 247f 02       		.uleb128 0x2
 7813 2480 7D       		.byte	0x7d
 7814 2481 08       		.sleb128 8
 7815 2482 02       		.uleb128 0x2
 7816 2483 79       		.byte	0x79
 7817 2484 00       		.sleb128 0
 7818 2485 00       		.byte	0
 7819 2486 00       		.byte	0
 7820 2487 11       		.uleb128 0x11
 7821 2488 04       		.byte	0x4
 7822 2489 24170000 		.4byte	0x1724
 7823 248d 2D       		.uleb128 0x2d
 7824 248e F4080000 		.4byte	.LASF519
 7825 2492 01       		.byte	0x1
 7826 2493 5902     		.2byte	0x259
 7827 2495 00000000 		.4byte	.LFB164
 7828 2499 FE000000 		.4byte	.LFE164-.LFB164
 7829 249d 01       		.uleb128 0x1
 7830 249e 9C       		.byte	0x9c
 7831 249f E7250000 		.4byte	0x25e7
 7832 24a3 2E       		.uleb128 0x2e
 7833 24a4 66080000 		.4byte	.LASF498
 7834 24a8 01       		.byte	0x1
 7835 24a9 5902     		.2byte	0x259
 7836 24ab D7090000 		.4byte	0x9d7
 7837 24af F10B0000 		.4byte	.LLST78
 7838 24b3 2E       		.uleb128 0x2e
 7839 24b4 41130000 		.4byte	.LASF499
 7840 24b8 01       		.byte	0x1
 7841 24b9 5902     		.2byte	0x259
 7842 24bb D8080000 		.4byte	0x8d8
ARM GAS  C:\Users\haske\AppData\Local\Temp\cc7ZkKza.s 			page 175


 7843 24bf 100C0000 		.4byte	.LLST79
 7844 24c3 2E       		.uleb128 0x2e
 7845 24c4 040B0000 		.4byte	.LASF500
 7846 24c8 01       		.byte	0x1
 7847 24c9 5902     		.2byte	0x259
 7848 24cb 0D020000 		.4byte	0x20d
 7849 24cf 2E0C0000 		.4byte	.LLST80
 7850 24d3 2E       		.uleb128 0x2e
 7851 24d4 27170000 		.4byte	.LASF198
 7852 24d8 01       		.byte	0x1
 7853 24d9 5A02     		.2byte	0x25a
 7854 24db E3080000 		.4byte	0x8e3
 7855 24df 4F0C0000 		.4byte	.LLST81
 7856 24e3 48       		.uleb128 0x48
 7857 24e4 F7020000 		.4byte	.LASF510
 7858 24e8 01       		.byte	0x1
 7859 24e9 5A02     		.2byte	0x25a
 7860 24eb 0D020000 		.4byte	0x20d
 7861 24ef 02       		.uleb128 0x2
 7862 24f0 91       		.byte	0x91
 7863 24f1 00       		.sleb128 0
 7864 24f2 49       		.uleb128 0x49
 7865 24f3 6F706100 		.ascii	"opa\000"
 7866 24f7 01       		.byte	0x1
 7867 24f8 5A02     		.2byte	0x25a
 7868 24fa 02020000 		.4byte	0x202
 7869 24fe 02       		.uleb128 0x2
 7870 24ff 91       		.byte	0x91
 7871 2500 04       		.sleb128 4
 7872 2501 2E       		.uleb128 0x2e
 7873 2502 DD100000 		.4byte	.LASF501
 7874 2506 01       		.byte	0x1
 7875 2507 5A02     		.2byte	0x25a
 7876 2509 64080000 		.4byte	0x864
 7877 250d 6D0C0000 		.4byte	.LLST82
 7878 2511 48       		.uleb128 0x48
 7879 2512 DF080000 		.4byte	.LASF502
 7880 2516 01       		.byte	0x1
 7881 2517 5A02     		.2byte	0x25a
 7882 2519 0D020000 		.4byte	0x20d
 7883 251d 02       		.uleb128 0x2
 7884 251e 91       		.byte	0x91
 7885 251f 0C       		.sleb128 12
 7886 2520 31       		.uleb128 0x31
 7887 2521 CD110000 		.4byte	.LASF518
 7888 2525 01       		.byte	0x1
 7889 2526 5D02     		.2byte	0x25d
 7890 2528 87240000 		.4byte	0x2487
 7891 252c 970C0000 		.4byte	.LLST83
 7892 2530 4A       		.uleb128 0x4a
 7893 2531 7700     		.ascii	"w\000"
 7894 2533 01       		.byte	0x1
 7895 2534 5F02     		.2byte	0x25f
 7896 2536 E4000000 		.4byte	0xe4
 7897 253a 01       		.uleb128 0x1
 7898 253b 55       		.byte	0x55
 7899 253c 30       		.uleb128 0x30
ARM GAS  C:\Users\haske\AppData\Local\Temp\cc7ZkKza.s 			page 176


 7900 253d 6800     		.ascii	"h\000"
 7901 253f 01       		.byte	0x1
 7902 2540 6002     		.2byte	0x260
 7903 2542 E4000000 		.4byte	0xe4
 7904 2546 CB0C0000 		.4byte	.LLST84
 7905 254a 30       		.uleb128 0x30
 7906 254b 7800     		.ascii	"x\000"
 7907 254d 01       		.byte	0x1
 7908 254e 6202     		.2byte	0x262
 7909 2550 E4000000 		.4byte	0xe4
 7910 2554 010D0000 		.4byte	.LLST85
 7911 2558 30       		.uleb128 0x30
 7912 2559 7900     		.ascii	"y\000"
 7913 255b 01       		.byte	0x1
 7914 255c 6302     		.2byte	0x263
 7915 255e E4000000 		.4byte	0xe4
 7916 2562 350D0000 		.4byte	.LLST86
 7917 2566 32       		.uleb128 0x32
 7918 2567 031C0000 		.4byte	0x1c03
 7919 256b 28000000 		.4byte	.LBB122
 7920 256f 0E000000 		.4byte	.LBE122-.LBB122
 7921 2573 01       		.byte	0x1
 7922 2574 5F02     		.2byte	0x25f
 7923 2576 84250000 		.4byte	0x2584
 7924 257a 33       		.uleb128 0x33
 7925 257b 131C0000 		.4byte	0x1c13
 7926 257f 530D0000 		.4byte	.LLST87
 7927 2583 00       		.byte	0
 7928 2584 32       		.uleb128 0x32
 7929 2585 E71B0000 		.4byte	0x1be7
 7930 2589 36000000 		.4byte	.LBB124
 7931 258d 10000000 		.4byte	.LBE124-.LBB124
 7932 2591 01       		.byte	0x1
 7933 2592 6002     		.2byte	0x260
 7934 2594 A2250000 		.4byte	0x25a2
 7935 2598 33       		.uleb128 0x33
 7936 2599 F71B0000 		.4byte	0x1bf7
 7937 259d 660D0000 		.4byte	.LLST88
 7938 25a1 00       		.byte	0
 7939 25a2 47       		.uleb128 0x47
 7940 25a3 26000000 		.4byte	.LVL186
 7941 25a7 5F320000 		.4byte	0x325f
 7942 25ab 35       		.uleb128 0x35
 7943 25ac 78000000 		.4byte	.LVL191
 7944 25b0 02       		.uleb128 0x2
 7945 25b1 76       		.byte	0x76
 7946 25b2 00       		.sleb128 0
 7947 25b3 CE250000 		.4byte	0x25ce
 7948 25b7 36       		.uleb128 0x36
 7949 25b8 01       		.uleb128 0x1
 7950 25b9 51       		.byte	0x51
 7951 25ba 03       		.uleb128 0x3
 7952 25bb 91       		.byte	0x91
 7953 25bc 40       		.sleb128 -64
 7954 25bd 06       		.byte	0x6
 7955 25be 36       		.uleb128 0x36
 7956 25bf 01       		.uleb128 0x1
ARM GAS  C:\Users\haske\AppData\Local\Temp\cc7ZkKza.s 			page 177


 7957 25c0 52       		.byte	0x52
 7958 25c1 04       		.uleb128 0x4
 7959 25c2 91       		.byte	0x91
 7960 25c3 44       		.sleb128 -60
 7961 25c4 94       		.byte	0x94
 7962 25c5 02       		.byte	0x2
 7963 25c6 36       		.uleb128 0x36
 7964 25c7 02       		.uleb128 0x2
 7965 25c8 7D       		.byte	0x7d
 7966 25c9 08       		.sleb128 8
 7967 25ca 02       		.uleb128 0x2
 7968 25cb 7A       		.byte	0x7a
 7969 25cc 00       		.sleb128 0
 7970 25cd 00       		.byte	0
 7971 25ce 3A       		.uleb128 0x3a
 7972 25cf DA000000 		.4byte	.LVL200
 7973 25d3 02       		.uleb128 0x2
 7974 25d4 7A       		.byte	0x7a
 7975 25d5 00       		.sleb128 0
 7976 25d6 36       		.uleb128 0x36
 7977 25d7 01       		.uleb128 0x1
 7978 25d8 51       		.byte	0x51
 7979 25d9 03       		.uleb128 0x3
 7980 25da 91       		.byte	0x91
 7981 25db 40       		.sleb128 -64
 7982 25dc 06       		.byte	0x6
 7983 25dd 36       		.uleb128 0x36
 7984 25de 01       		.uleb128 0x1
 7985 25df 52       		.byte	0x52
 7986 25e0 04       		.uleb128 0x4
 7987 25e1 91       		.byte	0x91
 7988 25e2 44       		.sleb128 -60
 7989 25e3 94       		.byte	0x94
 7990 25e4 02       		.byte	0x2
 7991 25e5 00       		.byte	0
 7992 25e6 00       		.byte	0
 7993 25e7 40       		.uleb128 0x40
 7994 25e8 4A050000 		.4byte	.LASF520
 7995 25ec 01       		.byte	0x1
 7996 25ed F0       		.byte	0xf0
 7997 25ee 00000000 		.4byte	.LFB162
 7998 25f2 EC030000 		.4byte	.LFE162-.LFB162
 7999 25f6 01       		.uleb128 0x1
 8000 25f7 9C       		.byte	0x9c
 8001 25f8 FD2A0000 		.4byte	0x2afd
 8002 25fc 41       		.uleb128 0x41
 8003 25fd 66080000 		.4byte	.LASF498
 8004 2601 01       		.byte	0x1
 8005 2602 F0       		.byte	0xf0
 8006 2603 D7090000 		.4byte	0x9d7
 8007 2607 790D0000 		.4byte	.LLST89
 8008 260b 41       		.uleb128 0x41
 8009 260c 41130000 		.4byte	.LASF499
 8010 2610 01       		.byte	0x1
 8011 2611 F0       		.byte	0xf0
 8012 2612 D8080000 		.4byte	0x8d8
 8013 2616 C90D0000 		.4byte	.LLST90
ARM GAS  C:\Users\haske\AppData\Local\Temp\cc7ZkKza.s 			page 178


 8014 261a 41       		.uleb128 0x41
 8015 261b 040B0000 		.4byte	.LASF500
 8016 261f 01       		.byte	0x1
 8017 2620 F1       		.byte	0xf1
 8018 2621 0D020000 		.4byte	0x20d
 8019 2625 EA0D0000 		.4byte	.LLST91
 8020 2629 41       		.uleb128 0x41
 8021 262a C6170000 		.4byte	.LASF84
 8022 262e 01       		.byte	0x1
 8023 262f F1       		.byte	0xf1
 8024 2630 F7010000 		.4byte	0x1f7
 8025 2634 0B0E0000 		.4byte	.LLST92
 8026 2638 4B       		.uleb128 0x4b
 8027 2639 6F706100 		.ascii	"opa\000"
 8028 263d 01       		.byte	0x1
 8029 263e F1       		.byte	0xf1
 8030 263f 02020000 		.4byte	0x202
 8031 2643 550E0000 		.4byte	.LLST93
 8032 2647 41       		.uleb128 0x41
 8033 2648 DD100000 		.4byte	.LASF501
 8034 264c 01       		.byte	0x1
 8035 264d F1       		.byte	0xf1
 8036 264e 64080000 		.4byte	0x864
 8037 2652 9B0E0000 		.4byte	.LLST94
 8038 2656 41       		.uleb128 0x41
 8039 2657 DF080000 		.4byte	.LASF502
 8040 265b 01       		.byte	0x1
 8041 265c F1       		.byte	0xf1
 8042 265d 0D020000 		.4byte	0x20d
 8043 2661 030F0000 		.4byte	.LLST95
 8044 2665 45       		.uleb128 0x45
 8045 2666 7700     		.ascii	"w\000"
 8046 2668 01       		.byte	0x1
 8047 2669 F3       		.byte	0xf3
 8048 266a E4000000 		.4byte	0xe4
 8049 266e 230F0000 		.4byte	.LLST96
 8050 2672 45       		.uleb128 0x45
 8051 2673 6800     		.ascii	"h\000"
 8052 2675 01       		.byte	0x1
 8053 2676 F4       		.byte	0xf4
 8054 2677 E4000000 		.4byte	0xe4
 8055 267b 620F0000 		.4byte	.LLST97
 8056 267f 45       		.uleb128 0x45
 8057 2680 7800     		.ascii	"x\000"
 8058 2682 01       		.byte	0x1
 8059 2683 F6       		.byte	0xf6
 8060 2684 E4000000 		.4byte	0xe4
 8061 2688 8C0F0000 		.4byte	.LLST98
 8062 268c 45       		.uleb128 0x45
 8063 268d 7900     		.ascii	"y\000"
 8064 268f 01       		.byte	0x1
 8065 2690 F7       		.byte	0xf7
 8066 2691 E4000000 		.4byte	0xe4
 8067 2695 D60F0000 		.4byte	.LLST99
 8068 2699 46       		.uleb128 0x46
 8069 269a 031C0000 		.4byte	0x1c03
 8070 269e 18000000 		.4byte	.LBB126
ARM GAS  C:\Users\haske\AppData\Local\Temp\cc7ZkKza.s 			page 179


 8071 26a2 0E000000 		.4byte	.LBE126-.LBB126
 8072 26a6 01       		.byte	0x1
 8073 26a7 F3       		.byte	0xf3
 8074 26a8 B6260000 		.4byte	0x26b6
 8075 26ac 33       		.uleb128 0x33
 8076 26ad 131C0000 		.4byte	0x1c13
 8077 26b1 39100000 		.4byte	.LLST100
 8078 26b5 00       		.byte	0
 8079 26b6 46       		.uleb128 0x46
 8080 26b7 E71B0000 		.4byte	0x1be7
 8081 26bb 28000000 		.4byte	.LBB128
 8082 26bf 10000000 		.4byte	.LBE128-.LBB128
 8083 26c3 01       		.byte	0x1
 8084 26c4 F4       		.byte	0xf4
 8085 26c5 D3260000 		.4byte	0x26d3
 8086 26c9 33       		.uleb128 0x33
 8087 26ca F71B0000 		.4byte	0x1bf7
 8088 26ce 4C100000 		.4byte	.LLST101
 8089 26d2 00       		.byte	0
 8090 26d3 34       		.uleb128 0x34
 8091 26d4 66000000 		.4byte	.LBB130
 8092 26d8 C0000000 		.4byte	.LBE130-.LBB130
 8093 26dc D2270000 		.4byte	0x27d2
 8094 26e0 31       		.uleb128 0x31
 8095 26e1 A20C0000 		.4byte	.LASF504
 8096 26e5 01       		.byte	0x1
 8097 26e6 0301     		.2byte	0x103
 8098 26e8 F7010000 		.4byte	0x1f7
 8099 26ec 6D100000 		.4byte	.LLST102
 8100 26f0 31       		.uleb128 0x31
 8101 26f1 061F0000 		.4byte	.LASF505
 8102 26f5 01       		.byte	0x1
 8103 26f6 0401     		.2byte	0x104
 8104 26f8 F7010000 		.4byte	0x1f7
 8105 26fc 8B100000 		.4byte	.LLST103
 8106 2700 29       		.uleb128 0x29
 8107 2701 611E0000 		.4byte	.LASF521
 8108 2705 01       		.byte	0x1
 8109 2706 0E01     		.2byte	0x10e
 8110 2708 FD2A0000 		.4byte	0x2afd
 8111 270c 31       		.uleb128 0x31
 8112 270d B2130000 		.4byte	.LASF522
 8113 2711 01       		.byte	0x1
 8114 2712 1001     		.2byte	0x110
 8115 2714 02020000 		.4byte	0x202
 8116 2718 A9100000 		.4byte	.LLST104
 8117 271c 32       		.uleb128 0x32
 8118 271d 1F1C0000 		.4byte	0x1c1f
 8119 2721 66000000 		.4byte	.LBB131
 8120 2725 1E000000 		.4byte	.LBE131-.LBB131
 8121 2729 01       		.byte	0x1
 8122 272a 0401     		.2byte	0x104
 8123 272c 6A270000 		.4byte	0x276a
 8124 2730 33       		.uleb128 0x33
 8125 2731 461C0000 		.4byte	0x1c46
 8126 2735 BC100000 		.4byte	.LLST105
 8127 2739 3D       		.uleb128 0x3d
ARM GAS  C:\Users\haske\AppData\Local\Temp\cc7ZkKza.s 			page 180


 8128 273a 3B1C0000 		.4byte	0x1c3b
 8129 273e 3D       		.uleb128 0x3d
 8130 273f 301C0000 		.4byte	0x1c30
 8131 2743 38       		.uleb128 0x38
 8132 2744 66000000 		.4byte	.LBB132
 8133 2748 1E000000 		.4byte	.LBE132-.LBB132
 8134 274c 3E       		.uleb128 0x3e
 8135 274d 521C0000 		.4byte	0x1c52
 8136 2751 3E       		.uleb128 0x3e
 8137 2752 5E1C0000 		.4byte	0x1c5e
 8138 2756 3F       		.uleb128 0x3f
 8139 2757 691C0000 		.4byte	0x1c69
 8140 275b ED100000 		.4byte	.LLST106
 8141 275f 3F       		.uleb128 0x3f
 8142 2760 741C0000 		.4byte	0x1c74
 8143 2764 2D110000 		.4byte	.LLST107
 8144 2768 00       		.byte	0
 8145 2769 00       		.byte	0
 8146 276a 32       		.uleb128 0x32
 8147 276b 811C0000 		.4byte	0x1c81
 8148 276f 88000000 		.4byte	.LBB133
 8149 2773 1A000000 		.4byte	.LBE133-.LBB133
 8150 2777 01       		.byte	0x1
 8151 2778 0F01     		.2byte	0x10f
 8152 277a 96270000 		.4byte	0x2796
 8153 277e 33       		.uleb128 0x33
 8154 277f A41C0000 		.4byte	0x1ca4
 8155 2783 40110000 		.4byte	.LLST108
 8156 2787 33       		.uleb128 0x33
 8157 2788 981C0000 		.4byte	0x1c98
 8158 278c 58110000 		.4byte	.LLST109
 8159 2790 3D       		.uleb128 0x3d
 8160 2791 8E1C0000 		.4byte	0x1c8e
 8161 2795 00       		.byte	0
 8162 2796 3C       		.uleb128 0x3c
 8163 2797 BE1C0000 		.4byte	0x1cbe
 8164 279b C2000000 		.4byte	.LBB135
 8165 279f 44000000 		.4byte	.LBE135-.LBB135
 8166 27a3 01       		.byte	0x1
 8167 27a4 1601     		.2byte	0x116
 8168 27a6 33       		.uleb128 0x33
 8169 27a7 E61C0000 		.4byte	0x1ce6
 8170 27ab 6B110000 		.4byte	.LLST110
 8171 27af 3D       		.uleb128 0x3d
 8172 27b0 DB1C0000 		.4byte	0x1cdb
 8173 27b4 33       		.uleb128 0x33
 8174 27b5 CF1C0000 		.4byte	0x1ccf
 8175 27b9 7E110000 		.4byte	.LLST111
 8176 27bd 38       		.uleb128 0x38
 8177 27be C2000000 		.4byte	.LBB136
 8178 27c2 44000000 		.4byte	.LBE136-.LBB136
 8179 27c6 3F       		.uleb128 0x3f
 8180 27c7 F21C0000 		.4byte	0x1cf2
 8181 27cb 96110000 		.4byte	.LLST112
 8182 27cf 00       		.byte	0
 8183 27d0 00       		.byte	0
 8184 27d1 00       		.byte	0
ARM GAS  C:\Users\haske\AppData\Local\Temp\cc7ZkKza.s 			page 181


 8185 27d2 34       		.uleb128 0x34
 8186 27d3 26010000 		.4byte	.LBB137
 8187 27d7 BA020000 		.4byte	.LBE137-.LBB137
 8188 27db E02A0000 		.4byte	0x2ae0
 8189 27df 30       		.uleb128 0x30
 8190 27e0 63333200 		.ascii	"c32\000"
 8191 27e4 01       		.byte	0x1
 8192 27e5 2101     		.2byte	0x121
 8193 27e7 EF000000 		.4byte	0xef
 8194 27eb B4110000 		.4byte	.LLST113
 8195 27ef 34       		.uleb128 0x34
 8196 27f0 36010000 		.4byte	.LBB138
 8197 27f4 0C020000 		.4byte	.LBE138-.LBB138
 8198 27f8 472A0000 		.4byte	0x2a47
 8199 27fc 31       		.uleb128 0x31
 8200 27fd 07060000 		.4byte	.LASF523
 8201 2801 01       		.byte	0x1
 8202 2802 2501     		.2byte	0x125
 8203 2804 E4000000 		.4byte	0xe4
 8204 2808 0C120000 		.4byte	.LLST114
 8205 280c 32       		.uleb128 0x32
 8206 280d 1F1C0000 		.4byte	0x1c1f
 8207 2811 4C010000 		.4byte	.LBB139
 8208 2815 2A000000 		.4byte	.LBE139-.LBB139
 8209 2819 01       		.byte	0x1
 8210 281a 2801     		.2byte	0x128
 8211 281c 5E280000 		.4byte	0x285e
 8212 2820 33       		.uleb128 0x33
 8213 2821 461C0000 		.4byte	0x1c46
 8214 2825 1F120000 		.4byte	.LLST115
 8215 2829 3D       		.uleb128 0x3d
 8216 282a 3B1C0000 		.4byte	0x1c3b
 8217 282e 3D       		.uleb128 0x3d
 8218 282f 301C0000 		.4byte	0x1c30
 8219 2833 38       		.uleb128 0x38
 8220 2834 4C010000 		.4byte	.LBB140
 8221 2838 2A000000 		.4byte	.LBE140-.LBB140
 8222 283c 3E       		.uleb128 0x3e
 8223 283d 521C0000 		.4byte	0x1c52
 8224 2841 3F       		.uleb128 0x3f
 8225 2842 5E1C0000 		.4byte	0x1c5e
 8226 2846 57120000 		.4byte	.LLST116
 8227 284a 3F       		.uleb128 0x3f
 8228 284b 691C0000 		.4byte	0x1c69
 8229 284f AF120000 		.4byte	.LLST117
 8230 2853 3F       		.uleb128 0x3f
 8231 2854 741C0000 		.4byte	0x1c74
 8232 2858 FF120000 		.4byte	.LLST118
 8233 285c 00       		.byte	0
 8234 285d 00       		.byte	0
 8235 285e 34       		.uleb128 0x34
 8236 285f 96010000 		.4byte	.LBB141
 8237 2863 3A010000 		.4byte	.LBE141-.LBB141
 8238 2867 F8290000 		.4byte	0x29f8
 8239 286b 31       		.uleb128 0x31
 8240 286c 3A030000 		.4byte	.LASF524
 8241 2870 01       		.byte	0x1
ARM GAS  C:\Users\haske\AppData\Local\Temp\cc7ZkKza.s 			page 182


 8242 2871 2C01     		.2byte	0x12c
 8243 2873 EF000000 		.4byte	0xef
 8244 2877 12130000 		.4byte	.LLST119
 8245 287b 34       		.uleb128 0x34
 8246 287c A4010000 		.4byte	.LBB142
 8247 2880 08000000 		.4byte	.LBE142-.LBB142
 8248 2884 97280000 		.4byte	0x2897
 8249 2888 30       		.uleb128 0x30
 8250 2889 6400     		.ascii	"d\000"
 8251 288b 01       		.byte	0x1
 8252 288c 3101     		.2byte	0x131
 8253 288e 04090000 		.4byte	0x904
 8254 2892 3C130000 		.4byte	.LLST120
 8255 2896 00       		.byte	0
 8256 2897 34       		.uleb128 0x34
 8257 2898 AE010000 		.4byte	.LBB143
 8258 289c 04000000 		.4byte	.LBE143-.LBB143
 8259 28a0 B3280000 		.4byte	0x28b3
 8260 28a4 30       		.uleb128 0x30
 8261 28a5 6400     		.ascii	"d\000"
 8262 28a7 01       		.byte	0x1
 8263 28a8 3601     		.2byte	0x136
 8264 28aa 04090000 		.4byte	0x904
 8265 28ae 51130000 		.4byte	.LLST121
 8266 28b2 00       		.byte	0
 8267 28b3 32       		.uleb128 0x32
 8268 28b4 1F1C0000 		.4byte	0x1c1f
 8269 28b8 CC010000 		.4byte	.LBB144
 8270 28bc 32000000 		.4byte	.LBE144-.LBB144
 8271 28c0 01       		.byte	0x1
 8272 28c1 4401     		.2byte	0x144
 8273 28c3 05290000 		.4byte	0x2905
 8274 28c7 33       		.uleb128 0x33
 8275 28c8 461C0000 		.4byte	0x1c46
 8276 28cc 64130000 		.4byte	.LLST122
 8277 28d0 3D       		.uleb128 0x3d
 8278 28d1 3B1C0000 		.4byte	0x1c3b
 8279 28d5 3D       		.uleb128 0x3d
 8280 28d6 301C0000 		.4byte	0x1c30
 8281 28da 38       		.uleb128 0x38
 8282 28db CC010000 		.4byte	.LBB145
 8283 28df 32000000 		.4byte	.LBE145-.LBB145
 8284 28e3 3E       		.uleb128 0x3e
 8285 28e4 521C0000 		.4byte	0x1c52
 8286 28e8 3F       		.uleb128 0x3f
 8287 28e9 5E1C0000 		.4byte	0x1c5e
 8288 28ed 9C130000 		.4byte	.LLST123
 8289 28f1 3F       		.uleb128 0x3f
 8290 28f2 691C0000 		.4byte	0x1c69
 8291 28f6 F4130000 		.4byte	.LLST124
 8292 28fa 3F       		.uleb128 0x3f
 8293 28fb 741C0000 		.4byte	0x1c74
 8294 28ff 44140000 		.4byte	.LLST125
 8295 2903 00       		.byte	0
 8296 2904 00       		.byte	0
 8297 2905 32       		.uleb128 0x32
 8298 2906 1F1C0000 		.4byte	0x1c1f
ARM GAS  C:\Users\haske\AppData\Local\Temp\cc7ZkKza.s 			page 183


 8299 290a 0E020000 		.4byte	.LBB146
 8300 290e 32000000 		.4byte	.LBE146-.LBB146
 8301 2912 01       		.byte	0x1
 8302 2913 4501     		.2byte	0x145
 8303 2915 57290000 		.4byte	0x2957
 8304 2919 33       		.uleb128 0x33
 8305 291a 461C0000 		.4byte	0x1c46
 8306 291e 57140000 		.4byte	.LLST126
 8307 2922 3D       		.uleb128 0x3d
 8308 2923 3B1C0000 		.4byte	0x1c3b
 8309 2927 3D       		.uleb128 0x3d
 8310 2928 301C0000 		.4byte	0x1c30
 8311 292c 38       		.uleb128 0x38
 8312 292d 0E020000 		.4byte	.LBB147
 8313 2931 32000000 		.4byte	.LBE147-.LBB147
 8314 2935 3E       		.uleb128 0x3e
 8315 2936 521C0000 		.4byte	0x1c52
 8316 293a 3F       		.uleb128 0x3f
 8317 293b 5E1C0000 		.4byte	0x1c5e
 8318 293f 8F140000 		.4byte	.LLST127
 8319 2943 3F       		.uleb128 0x3f
 8320 2944 691C0000 		.4byte	0x1c69
 8321 2948 E7140000 		.4byte	.LLST128
 8322 294c 3F       		.uleb128 0x3f
 8323 294d 741C0000 		.4byte	0x1c74
 8324 2951 37150000 		.4byte	.LLST129
 8325 2955 00       		.byte	0
 8326 2956 00       		.byte	0
 8327 2957 32       		.uleb128 0x32
 8328 2958 1F1C0000 		.4byte	0x1c1f
 8329 295c 50020000 		.4byte	.LBB148
 8330 2960 32000000 		.4byte	.LBE148-.LBB148
 8331 2964 01       		.byte	0x1
 8332 2965 4601     		.2byte	0x146
 8333 2967 A9290000 		.4byte	0x29a9
 8334 296b 33       		.uleb128 0x33
 8335 296c 461C0000 		.4byte	0x1c46
 8336 2970 4A150000 		.4byte	.LLST130
 8337 2974 3D       		.uleb128 0x3d
 8338 2975 3B1C0000 		.4byte	0x1c3b
 8339 2979 3D       		.uleb128 0x3d
 8340 297a 301C0000 		.4byte	0x1c30
 8341 297e 38       		.uleb128 0x38
 8342 297f 50020000 		.4byte	.LBB149
 8343 2983 32000000 		.4byte	.LBE149-.LBB149
 8344 2987 3E       		.uleb128 0x3e
 8345 2988 521C0000 		.4byte	0x1c52
 8346 298c 3F       		.uleb128 0x3f
 8347 298d 5E1C0000 		.4byte	0x1c5e
 8348 2991 82150000 		.4byte	.LLST131
 8349 2995 3F       		.uleb128 0x3f
 8350 2996 691C0000 		.4byte	0x1c69
 8351 299a DA150000 		.4byte	.LLST132
 8352 299e 3F       		.uleb128 0x3f
 8353 299f 741C0000 		.4byte	0x1c74
 8354 29a3 2A160000 		.4byte	.LLST133
 8355 29a7 00       		.byte	0
ARM GAS  C:\Users\haske\AppData\Local\Temp\cc7ZkKza.s 			page 184


 8356 29a8 00       		.byte	0
 8357 29a9 3C       		.uleb128 0x3c
 8358 29aa 1F1C0000 		.4byte	0x1c1f
 8359 29ae 92020000 		.4byte	.LBB150
 8360 29b2 32000000 		.4byte	.LBE150-.LBB150
 8361 29b6 01       		.byte	0x1
 8362 29b7 4701     		.2byte	0x147
 8363 29b9 33       		.uleb128 0x33
 8364 29ba 461C0000 		.4byte	0x1c46
 8365 29be 3D160000 		.4byte	.LLST134
 8366 29c2 3D       		.uleb128 0x3d
 8367 29c3 3B1C0000 		.4byte	0x1c3b
 8368 29c7 3D       		.uleb128 0x3d
 8369 29c8 301C0000 		.4byte	0x1c30
 8370 29cc 38       		.uleb128 0x38
 8371 29cd 92020000 		.4byte	.LBB151
 8372 29d1 32000000 		.4byte	.LBE151-.LBB151
 8373 29d5 3E       		.uleb128 0x3e
 8374 29d6 521C0000 		.4byte	0x1c52
 8375 29da 3F       		.uleb128 0x3f
 8376 29db 5E1C0000 		.4byte	0x1c5e
 8377 29df 75160000 		.4byte	.LLST135
 8378 29e3 3F       		.uleb128 0x3f
 8379 29e4 691C0000 		.4byte	0x1c69
 8380 29e8 CD160000 		.4byte	.LLST136
 8381 29ec 3F       		.uleb128 0x3f
 8382 29ed 741C0000 		.4byte	0x1c74
 8383 29f1 1D170000 		.4byte	.LLST137
 8384 29f5 00       		.byte	0
 8385 29f6 00       		.byte	0
 8386 29f7 00       		.byte	0
 8387 29f8 3C       		.uleb128 0x3c
 8388 29f9 1F1C0000 		.4byte	0x1c1f
 8389 29fd F0020000 		.4byte	.LBB152
 8390 2a01 2A000000 		.4byte	.LBE152-.LBB152
 8391 2a05 01       		.byte	0x1
 8392 2a06 5001     		.2byte	0x150
 8393 2a08 33       		.uleb128 0x33
 8394 2a09 461C0000 		.4byte	0x1c46
 8395 2a0d 30170000 		.4byte	.LLST138
 8396 2a11 3D       		.uleb128 0x3d
 8397 2a12 3B1C0000 		.4byte	0x1c3b
 8398 2a16 3D       		.uleb128 0x3d
 8399 2a17 301C0000 		.4byte	0x1c30
 8400 2a1b 38       		.uleb128 0x38
 8401 2a1c F0020000 		.4byte	.LBB153
 8402 2a20 2A000000 		.4byte	.LBE153-.LBB153
 8403 2a24 3E       		.uleb128 0x3e
 8404 2a25 521C0000 		.4byte	0x1c52
 8405 2a29 3F       		.uleb128 0x3f
 8406 2a2a 5E1C0000 		.4byte	0x1c5e
 8407 2a2e 68170000 		.4byte	.LLST139
 8408 2a32 3F       		.uleb128 0x3f
 8409 2a33 691C0000 		.4byte	0x1c69
 8410 2a37 C0170000 		.4byte	.LLST140
 8411 2a3b 3F       		.uleb128 0x3f
 8412 2a3c 741C0000 		.4byte	0x1c74
ARM GAS  C:\Users\haske\AppData\Local\Temp\cc7ZkKza.s 			page 185


 8413 2a40 10180000 		.4byte	.LLST141
 8414 2a44 00       		.byte	0
 8415 2a45 00       		.byte	0
 8416 2a46 00       		.byte	0
 8417 2a47 38       		.uleb128 0x38
 8418 2a48 42030000 		.4byte	.LBB154
 8419 2a4c 9E000000 		.4byte	.LBE154-.LBB154
 8420 2a50 31       		.uleb128 0x31
 8421 2a51 A20C0000 		.4byte	.LASF504
 8422 2a55 01       		.byte	0x1
 8423 2a56 5901     		.2byte	0x159
 8424 2a58 F7010000 		.4byte	0x1f7
 8425 2a5c 23180000 		.4byte	.LLST142
 8426 2a60 31       		.uleb128 0x31
 8427 2a61 061F0000 		.4byte	.LASF505
 8428 2a65 01       		.byte	0x1
 8429 2a66 5A01     		.2byte	0x15a
 8430 2a68 F7010000 		.4byte	0x1f7
 8431 2a6c 41180000 		.4byte	.LLST143
 8432 2a70 31       		.uleb128 0x31
 8433 2a71 891D0000 		.4byte	.LASF506
 8434 2a75 01       		.byte	0x1
 8435 2a76 5B01     		.2byte	0x15b
 8436 2a78 02020000 		.4byte	0x202
 8437 2a7c 6A180000 		.4byte	.LLST144
 8438 2a80 31       		.uleb128 0x31
 8439 2a81 89190000 		.4byte	.LASF507
 8440 2a85 01       		.byte	0x1
 8441 2a86 5E01     		.2byte	0x15e
 8442 2a88 02020000 		.4byte	0x202
 8443 2a8c 94180000 		.4byte	.LLST145
 8444 2a90 3C       		.uleb128 0x3c
 8445 2a91 1F1C0000 		.4byte	0x1c1f
 8446 2a95 88030000 		.4byte	.LBB155
 8447 2a99 2E000000 		.4byte	.LBE155-.LBB155
 8448 2a9d 01       		.byte	0x1
 8449 2a9e 6701     		.2byte	0x167
 8450 2aa0 33       		.uleb128 0x33
 8451 2aa1 461C0000 		.4byte	0x1c46
 8452 2aa5 BE180000 		.4byte	.LLST146
 8453 2aa9 3D       		.uleb128 0x3d
 8454 2aaa 3B1C0000 		.4byte	0x1c3b
 8455 2aae 3D       		.uleb128 0x3d
 8456 2aaf 301C0000 		.4byte	0x1c30
 8457 2ab3 38       		.uleb128 0x38
 8458 2ab4 88030000 		.4byte	.LBB156
 8459 2ab8 2E000000 		.4byte	.LBE156-.LBB156
 8460 2abc 3E       		.uleb128 0x3e
 8461 2abd 521C0000 		.4byte	0x1c52
 8462 2ac1 3F       		.uleb128 0x3f
 8463 2ac2 5E1C0000 		.4byte	0x1c5e
 8464 2ac6 D1180000 		.4byte	.LLST147
 8465 2aca 3F       		.uleb128 0x3f
 8466 2acb 691C0000 		.4byte	0x1c69
 8467 2acf 3D190000 		.4byte	.LLST148
 8468 2ad3 3F       		.uleb128 0x3f
 8469 2ad4 741C0000 		.4byte	0x1c74
ARM GAS  C:\Users\haske\AppData\Local\Temp\cc7ZkKza.s 			page 186


 8470 2ad8 95190000 		.4byte	.LLST149
 8471 2adc 00       		.byte	0
 8472 2add 00       		.byte	0
 8473 2ade 00       		.byte	0
 8474 2adf 00       		.byte	0
 8475 2ae0 4C       		.uleb128 0x4c
 8476 2ae1 4E000000 		.4byte	.LVL218
 8477 2ae5 6A320000 		.4byte	0x326a
 8478 2ae9 36       		.uleb128 0x36
 8479 2aea 01       		.uleb128 0x1
 8480 2aeb 50       		.byte	0x50
 8481 2aec 02       		.uleb128 0x2
 8482 2aed 74       		.byte	0x74
 8483 2aee 00       		.sleb128 0
 8484 2aef 36       		.uleb128 0x36
 8485 2af0 01       		.uleb128 0x1
 8486 2af1 51       		.byte	0x51
 8487 2af2 02       		.uleb128 0x2
 8488 2af3 75       		.byte	0x75
 8489 2af4 00       		.sleb128 0
 8490 2af5 36       		.uleb128 0x36
 8491 2af6 01       		.uleb128 0x1
 8492 2af7 52       		.byte	0x52
 8493 2af8 02       		.uleb128 0x2
 8494 2af9 76       		.byte	0x76
 8495 2afa 00       		.sleb128 0
 8496 2afb 00       		.byte	0
 8497 2afc 00       		.byte	0
 8498 2afd 16       		.uleb128 0x16
 8499 2afe D9000000 		.4byte	0xd9
 8500 2b02 0D2B0000 		.4byte	0x2b0d
 8501 2b06 17       		.uleb128 0x17
 8502 2b07 2D010000 		.4byte	0x12d
 8503 2b0b 02       		.byte	0x2
 8504 2b0c 00       		.byte	0
 8505 2b0d 2D       		.uleb128 0x2d
 8506 2b0e 9E130000 		.4byte	.LASF525
 8507 2b12 01       		.byte	0x1
 8508 2b13 7C02     		.2byte	0x27c
 8509 2b15 00000000 		.4byte	.LFB165
 8510 2b19 A8030000 		.4byte	.LFE165-.LFB165
 8511 2b1d 01       		.uleb128 0x1
 8512 2b1e 9C       		.byte	0x9c
 8513 2b1f 202F0000 		.4byte	0x2f20
 8514 2b23 2E       		.uleb128 0x2e
 8515 2b24 66080000 		.4byte	.LASF498
 8516 2b28 01       		.byte	0x1
 8517 2b29 7C02     		.2byte	0x27c
 8518 2b2b D7090000 		.4byte	0x9d7
 8519 2b2f A8190000 		.4byte	.LLST150
 8520 2b33 2E       		.uleb128 0x2e
 8521 2b34 41130000 		.4byte	.LASF499
 8522 2b38 01       		.byte	0x1
 8523 2b39 7C02     		.2byte	0x27c
 8524 2b3b D8080000 		.4byte	0x8d8
 8525 2b3f 3F1A0000 		.4byte	.LLST151
 8526 2b43 2E       		.uleb128 0x2e
ARM GAS  C:\Users\haske\AppData\Local\Temp\cc7ZkKza.s 			page 187


 8527 2b44 040B0000 		.4byte	.LASF500
 8528 2b48 01       		.byte	0x1
 8529 2b49 7C02     		.2byte	0x27c
 8530 2b4b 0D020000 		.4byte	0x20d
 8531 2b4f AB1A0000 		.4byte	.LLST152
 8532 2b53 2E       		.uleb128 0x2e
 8533 2b54 27170000 		.4byte	.LASF198
 8534 2b58 01       		.byte	0x1
 8535 2b59 7D02     		.2byte	0x27d
 8536 2b5b E3080000 		.4byte	0x8e3
 8537 2b5f 171B0000 		.4byte	.LLST153
 8538 2b63 2E       		.uleb128 0x2e
 8539 2b64 F7020000 		.4byte	.LASF510
 8540 2b68 01       		.byte	0x1
 8541 2b69 7D02     		.2byte	0x27d
 8542 2b6b 0D020000 		.4byte	0x20d
 8543 2b6f 351B0000 		.4byte	.LLST154
 8544 2b73 2F       		.uleb128 0x2f
 8545 2b74 6F706100 		.ascii	"opa\000"
 8546 2b78 01       		.byte	0x1
 8547 2b79 7D02     		.2byte	0x27d
 8548 2b7b 02020000 		.4byte	0x202
 8549 2b7f 551B0000 		.4byte	.LLST155
 8550 2b83 2E       		.uleb128 0x2e
 8551 2b84 DD100000 		.4byte	.LASF501
 8552 2b88 01       		.byte	0x1
 8553 2b89 7D02     		.2byte	0x27d
 8554 2b8b 64080000 		.4byte	0x864
 8555 2b8f 751B0000 		.4byte	.LLST156
 8556 2b93 2E       		.uleb128 0x2e
 8557 2b94 DF080000 		.4byte	.LASF502
 8558 2b98 01       		.byte	0x1
 8559 2b99 7D02     		.2byte	0x27d
 8560 2b9b 0D020000 		.4byte	0x20d
 8561 2b9f AB1B0000 		.4byte	.LLST157
 8562 2ba3 30       		.uleb128 0x30
 8563 2ba4 7700     		.ascii	"w\000"
 8564 2ba6 01       		.byte	0x1
 8565 2ba7 8002     		.2byte	0x280
 8566 2ba9 E4000000 		.4byte	0xe4
 8567 2bad CB1B0000 		.4byte	.LLST158
 8568 2bb1 30       		.uleb128 0x30
 8569 2bb2 6800     		.ascii	"h\000"
 8570 2bb4 01       		.byte	0x1
 8571 2bb5 8102     		.2byte	0x281
 8572 2bb7 E4000000 		.4byte	0xe4
 8573 2bbb 151C0000 		.4byte	.LLST159
 8574 2bbf 30       		.uleb128 0x30
 8575 2bc0 7800     		.ascii	"x\000"
 8576 2bc2 01       		.byte	0x1
 8577 2bc3 8302     		.2byte	0x283
 8578 2bc5 E4000000 		.4byte	0xe4
 8579 2bc9 281C0000 		.4byte	.LLST160
 8580 2bcd 30       		.uleb128 0x30
 8581 2bce 7900     		.ascii	"y\000"
 8582 2bd0 01       		.byte	0x1
 8583 2bd1 8402     		.2byte	0x284
ARM GAS  C:\Users\haske\AppData\Local\Temp\cc7ZkKza.s 			page 188


 8584 2bd3 E4000000 		.4byte	0xe4
 8585 2bd7 881C0000 		.4byte	.LLST161
 8586 2bdb 32       		.uleb128 0x32
 8587 2bdc 031C0000 		.4byte	0x1c03
 8588 2be0 20000000 		.4byte	.LBB157
 8589 2be4 14000000 		.4byte	.LBE157-.LBB157
 8590 2be8 01       		.byte	0x1
 8591 2be9 8002     		.2byte	0x280
 8592 2beb F92B0000 		.4byte	0x2bf9
 8593 2bef 33       		.uleb128 0x33
 8594 2bf0 131C0000 		.4byte	0x1c13
 8595 2bf4 DE1C0000 		.4byte	.LLST162
 8596 2bf8 00       		.byte	0
 8597 2bf9 32       		.uleb128 0x32
 8598 2bfa E71B0000 		.4byte	0x1be7
 8599 2bfe 36000000 		.4byte	.LBB159
 8600 2c02 0E000000 		.4byte	.LBE159-.LBB159
 8601 2c06 01       		.byte	0x1
 8602 2c07 8102     		.2byte	0x281
 8603 2c09 172C0000 		.4byte	0x2c17
 8604 2c0d 33       		.uleb128 0x33
 8605 2c0e F71B0000 		.4byte	0x1bf7
 8606 2c12 F11C0000 		.4byte	.LLST163
 8607 2c16 00       		.byte	0
 8608 2c17 32       		.uleb128 0x32
 8609 2c18 1F1C0000 		.4byte	0x1c1f
 8610 2c1c 82000000 		.4byte	.LBB161
 8611 2c20 2E000000 		.4byte	.LBE161-.LBB161
 8612 2c24 01       		.byte	0x1
 8613 2c25 9202     		.2byte	0x292
 8614 2c27 692C0000 		.4byte	0x2c69
 8615 2c2b 33       		.uleb128 0x33
 8616 2c2c 461C0000 		.4byte	0x1c46
 8617 2c30 041D0000 		.4byte	.LLST164
 8618 2c34 3D       		.uleb128 0x3d
 8619 2c35 3B1C0000 		.4byte	0x1c3b
 8620 2c39 3D       		.uleb128 0x3d
 8621 2c3a 301C0000 		.4byte	0x1c30
 8622 2c3e 38       		.uleb128 0x38
 8623 2c3f 82000000 		.4byte	.LBB162
 8624 2c43 2E000000 		.4byte	.LBE162-.LBB162
 8625 2c47 3E       		.uleb128 0x3e
 8626 2c48 521C0000 		.4byte	0x1c52
 8627 2c4c 3F       		.uleb128 0x3f
 8628 2c4d 5E1C0000 		.4byte	0x1c5e
 8629 2c51 171D0000 		.4byte	.LLST165
 8630 2c55 3F       		.uleb128 0x3f
 8631 2c56 691C0000 		.4byte	0x1c69
 8632 2c5a 831D0000 		.4byte	.LLST166
 8633 2c5e 3F       		.uleb128 0x3f
 8634 2c5f 741C0000 		.4byte	0x1c74
 8635 2c63 EF1D0000 		.4byte	.LLST167
 8636 2c67 00       		.byte	0
 8637 2c68 00       		.byte	0
 8638 2c69 34       		.uleb128 0x34
 8639 2c6a D6000000 		.4byte	.LBB163
 8640 2c6e 4E020000 		.4byte	.LBE163-.LBB163
ARM GAS  C:\Users\haske\AppData\Local\Temp\cc7ZkKza.s 			page 189


 8641 2c72 952E0000 		.4byte	0x2e95
 8642 2c76 31       		.uleb128 0x31
 8643 2c77 07060000 		.4byte	.LASF523
 8644 2c7b 01       		.byte	0x1
 8645 2c7c 9D02     		.2byte	0x29d
 8646 2c7e E4000000 		.4byte	0xe4
 8647 2c82 021E0000 		.4byte	.LLST168
 8648 2c86 4D       		.uleb128 0x4d
 8649 2c87 00000000 		.4byte	.Ldebug_ranges0+0
 8650 2c8b 31       		.uleb128 0x31
 8651 2c8c 8B1A0000 		.4byte	.LASF526
 8652 2c90 01       		.byte	0x1
 8653 2c91 A002     		.2byte	0x2a0
 8654 2c93 64080000 		.4byte	0x864
 8655 2c97 151E0000 		.4byte	.LLST169
 8656 2c9b 31       		.uleb128 0x31
 8657 2c9c 3A030000 		.4byte	.LASF524
 8658 2ca0 01       		.byte	0x1
 8659 2ca1 AA02     		.2byte	0x2aa
 8660 2ca3 04090000 		.4byte	0x904
 8661 2ca7 7B1E0000 		.4byte	.LLST170
 8662 2cab 32       		.uleb128 0x32
 8663 2cac 1F1C0000 		.4byte	0x1c1f
 8664 2cb0 F2000000 		.4byte	.LBB165
 8665 2cb4 2C000000 		.4byte	.LBE165-.LBB165
 8666 2cb8 01       		.byte	0x1
 8667 2cb9 A702     		.2byte	0x2a7
 8668 2cbb FD2C0000 		.4byte	0x2cfd
 8669 2cbf 33       		.uleb128 0x33
 8670 2cc0 461C0000 		.4byte	0x1c46
 8671 2cc4 991E0000 		.4byte	.LLST171
 8672 2cc8 3D       		.uleb128 0x3d
 8673 2cc9 3B1C0000 		.4byte	0x1c3b
 8674 2ccd 3D       		.uleb128 0x3d
 8675 2cce 301C0000 		.4byte	0x1c30
 8676 2cd2 38       		.uleb128 0x38
 8677 2cd3 F2000000 		.4byte	.LBB166
 8678 2cd7 2C000000 		.4byte	.LBE166-.LBB166
 8679 2cdb 3E       		.uleb128 0x3e
 8680 2cdc 521C0000 		.4byte	0x1c52
 8681 2ce0 3F       		.uleb128 0x3f
 8682 2ce1 5E1C0000 		.4byte	0x1c5e
 8683 2ce5 D11E0000 		.4byte	.LLST172
 8684 2ce9 3F       		.uleb128 0x3f
 8685 2cea 691C0000 		.4byte	0x1c69
 8686 2cee E41E0000 		.4byte	.LLST173
 8687 2cf2 3F       		.uleb128 0x3f
 8688 2cf3 741C0000 		.4byte	0x1c74
 8689 2cf7 501F0000 		.4byte	.LLST174
 8690 2cfb 00       		.byte	0
 8691 2cfc 00       		.byte	0
 8692 2cfd 32       		.uleb128 0x32
 8693 2cfe 1F1C0000 		.4byte	0x1c1f
 8694 2d02 86010000 		.4byte	.LBB167
 8695 2d06 34000000 		.4byte	.LBE167-.LBB167
 8696 2d0a 01       		.byte	0x1
 8697 2d0b B502     		.2byte	0x2b5
ARM GAS  C:\Users\haske\AppData\Local\Temp\cc7ZkKza.s 			page 190


 8698 2d0d 4F2D0000 		.4byte	0x2d4f
 8699 2d11 33       		.uleb128 0x33
 8700 2d12 461C0000 		.4byte	0x1c46
 8701 2d16 631F0000 		.4byte	.LLST175
 8702 2d1a 3D       		.uleb128 0x3d
 8703 2d1b 3B1C0000 		.4byte	0x1c3b
 8704 2d1f 3D       		.uleb128 0x3d
 8705 2d20 301C0000 		.4byte	0x1c30
 8706 2d24 38       		.uleb128 0x38
 8707 2d25 86010000 		.4byte	.LBB168
 8708 2d29 34000000 		.4byte	.LBE168-.LBB168
 8709 2d2d 3E       		.uleb128 0x3e
 8710 2d2e 521C0000 		.4byte	0x1c52
 8711 2d32 3F       		.uleb128 0x3f
 8712 2d33 5E1C0000 		.4byte	0x1c5e
 8713 2d37 9B1F0000 		.4byte	.LLST176
 8714 2d3b 3F       		.uleb128 0x3f
 8715 2d3c 691C0000 		.4byte	0x1c69
 8716 2d40 AE1F0000 		.4byte	.LLST177
 8717 2d44 3F       		.uleb128 0x3f
 8718 2d45 741C0000 		.4byte	0x1c74
 8719 2d49 1A200000 		.4byte	.LLST178
 8720 2d4d 00       		.byte	0
 8721 2d4e 00       		.byte	0
 8722 2d4f 32       		.uleb128 0x32
 8723 2d50 1F1C0000 		.4byte	0x1c1f
 8724 2d54 D6010000 		.4byte	.LBB169
 8725 2d58 32000000 		.4byte	.LBE169-.LBB169
 8726 2d5c 01       		.byte	0x1
 8727 2d5d B602     		.2byte	0x2b6
 8728 2d5f A12D0000 		.4byte	0x2da1
 8729 2d63 33       		.uleb128 0x33
 8730 2d64 461C0000 		.4byte	0x1c46
 8731 2d68 2D200000 		.4byte	.LLST179
 8732 2d6c 3D       		.uleb128 0x3d
 8733 2d6d 3B1C0000 		.4byte	0x1c3b
 8734 2d71 3D       		.uleb128 0x3d
 8735 2d72 301C0000 		.4byte	0x1c30
 8736 2d76 38       		.uleb128 0x38
 8737 2d77 D6010000 		.4byte	.LBB170
 8738 2d7b 32000000 		.4byte	.LBE170-.LBB170
 8739 2d7f 3E       		.uleb128 0x3e
 8740 2d80 521C0000 		.4byte	0x1c52
 8741 2d84 3F       		.uleb128 0x3f
 8742 2d85 5E1C0000 		.4byte	0x1c5e
 8743 2d89 65200000 		.4byte	.LLST180
 8744 2d8d 3F       		.uleb128 0x3f
 8745 2d8e 691C0000 		.4byte	0x1c69
 8746 2d92 D1200000 		.4byte	.LLST181
 8747 2d96 3F       		.uleb128 0x3f
 8748 2d97 741C0000 		.4byte	0x1c74
 8749 2d9b 3D210000 		.4byte	.LLST182
 8750 2d9f 00       		.byte	0
 8751 2da0 00       		.byte	0
 8752 2da1 32       		.uleb128 0x32
 8753 2da2 1F1C0000 		.4byte	0x1c1f
 8754 2da6 24020000 		.4byte	.LBB171
ARM GAS  C:\Users\haske\AppData\Local\Temp\cc7ZkKza.s 			page 191


 8755 2daa 32000000 		.4byte	.LBE171-.LBB171
 8756 2dae 01       		.byte	0x1
 8757 2daf B702     		.2byte	0x2b7
 8758 2db1 F32D0000 		.4byte	0x2df3
 8759 2db5 33       		.uleb128 0x33
 8760 2db6 461C0000 		.4byte	0x1c46
 8761 2dba 50210000 		.4byte	.LLST183
 8762 2dbe 3D       		.uleb128 0x3d
 8763 2dbf 3B1C0000 		.4byte	0x1c3b
 8764 2dc3 3D       		.uleb128 0x3d
 8765 2dc4 301C0000 		.4byte	0x1c30
 8766 2dc8 38       		.uleb128 0x38
 8767 2dc9 24020000 		.4byte	.LBB172
 8768 2dcd 32000000 		.4byte	.LBE172-.LBB172
 8769 2dd1 3E       		.uleb128 0x3e
 8770 2dd2 521C0000 		.4byte	0x1c52
 8771 2dd6 3F       		.uleb128 0x3f
 8772 2dd7 5E1C0000 		.4byte	0x1c5e
 8773 2ddb 88210000 		.4byte	.LLST184
 8774 2ddf 3F       		.uleb128 0x3f
 8775 2de0 691C0000 		.4byte	0x1c69
 8776 2de4 F4210000 		.4byte	.LLST185
 8777 2de8 3F       		.uleb128 0x3f
 8778 2de9 741C0000 		.4byte	0x1c74
 8779 2ded 60220000 		.4byte	.LLST186
 8780 2df1 00       		.byte	0
 8781 2df2 00       		.byte	0
 8782 2df3 32       		.uleb128 0x32
 8783 2df4 1F1C0000 		.4byte	0x1c1f
 8784 2df8 72020000 		.4byte	.LBB173
 8785 2dfc 32000000 		.4byte	.LBE173-.LBB173
 8786 2e00 01       		.byte	0x1
 8787 2e01 B802     		.2byte	0x2b8
 8788 2e03 452E0000 		.4byte	0x2e45
 8789 2e07 33       		.uleb128 0x33
 8790 2e08 461C0000 		.4byte	0x1c46
 8791 2e0c 73220000 		.4byte	.LLST187
 8792 2e10 3D       		.uleb128 0x3d
 8793 2e11 3B1C0000 		.4byte	0x1c3b
 8794 2e15 3D       		.uleb128 0x3d
 8795 2e16 301C0000 		.4byte	0x1c30
 8796 2e1a 38       		.uleb128 0x38
 8797 2e1b 72020000 		.4byte	.LBB174
 8798 2e1f 32000000 		.4byte	.LBE174-.LBB174
 8799 2e23 3E       		.uleb128 0x3e
 8800 2e24 521C0000 		.4byte	0x1c52
 8801 2e28 3F       		.uleb128 0x3f
 8802 2e29 5E1C0000 		.4byte	0x1c5e
 8803 2e2d AB220000 		.4byte	.LLST188
 8804 2e31 3F       		.uleb128 0x3f
 8805 2e32 691C0000 		.4byte	0x1c69
 8806 2e36 17230000 		.4byte	.LLST189
 8807 2e3a 3F       		.uleb128 0x3f
 8808 2e3b 741C0000 		.4byte	0x1c74
 8809 2e3f 83230000 		.4byte	.LLST190
 8810 2e43 00       		.byte	0
 8811 2e44 00       		.byte	0
ARM GAS  C:\Users\haske\AppData\Local\Temp\cc7ZkKza.s 			page 192


 8812 2e45 3C       		.uleb128 0x3c
 8813 2e46 1F1C0000 		.4byte	0x1c1f
 8814 2e4a CE020000 		.4byte	.LBB175
 8815 2e4e 2C000000 		.4byte	.LBE175-.LBB175
 8816 2e52 01       		.byte	0x1
 8817 2e53 C002     		.2byte	0x2c0
 8818 2e55 33       		.uleb128 0x33
 8819 2e56 461C0000 		.4byte	0x1c46
 8820 2e5a 96230000 		.4byte	.LLST191
 8821 2e5e 3D       		.uleb128 0x3d
 8822 2e5f 3B1C0000 		.4byte	0x1c3b
 8823 2e63 3D       		.uleb128 0x3d
 8824 2e64 301C0000 		.4byte	0x1c30
 8825 2e68 38       		.uleb128 0x38
 8826 2e69 CE020000 		.4byte	.LBB176
 8827 2e6d 2C000000 		.4byte	.LBE176-.LBB176
 8828 2e71 3E       		.uleb128 0x3e
 8829 2e72 521C0000 		.4byte	0x1c52
 8830 2e76 3F       		.uleb128 0x3f
 8831 2e77 5E1C0000 		.4byte	0x1c5e
 8832 2e7b CE230000 		.4byte	.LLST192
 8833 2e7f 3F       		.uleb128 0x3f
 8834 2e80 691C0000 		.4byte	0x1c69
 8835 2e84 E1230000 		.4byte	.LLST193
 8836 2e88 3F       		.uleb128 0x3f
 8837 2e89 741C0000 		.4byte	0x1c74
 8838 2e8d 4D240000 		.4byte	.LLST194
 8839 2e91 00       		.byte	0
 8840 2e92 00       		.byte	0
 8841 2e93 00       		.byte	0
 8842 2e94 00       		.byte	0
 8843 2e95 34       		.uleb128 0x34
 8844 2e96 2C030000 		.4byte	.LBB178
 8845 2e9a 46000000 		.4byte	.LBE178-.LBB178
 8846 2e9e 012F0000 		.4byte	0x2f01
 8847 2ea2 31       		.uleb128 0x31
 8848 2ea3 89190000 		.4byte	.LASF507
 8849 2ea7 01       		.byte	0x1
 8850 2ea8 CD02     		.2byte	0x2cd
 8851 2eaa 02020000 		.4byte	0x202
 8852 2eae 60240000 		.4byte	.LLST195
 8853 2eb2 3C       		.uleb128 0x3c
 8854 2eb3 1F1C0000 		.4byte	0x1c1f
 8855 2eb7 3C030000 		.4byte	.LBB179
 8856 2ebb 32000000 		.4byte	.LBE179-.LBB179
 8857 2ebf 01       		.byte	0x1
 8858 2ec0 CE02     		.2byte	0x2ce
 8859 2ec2 33       		.uleb128 0x33
 8860 2ec3 461C0000 		.4byte	0x1c46
 8861 2ec7 73240000 		.4byte	.LLST196
 8862 2ecb 3D       		.uleb128 0x3d
 8863 2ecc 3B1C0000 		.4byte	0x1c3b
 8864 2ed0 3D       		.uleb128 0x3d
 8865 2ed1 301C0000 		.4byte	0x1c30
 8866 2ed5 38       		.uleb128 0x38
 8867 2ed6 3C030000 		.4byte	.LBB180
 8868 2eda 32000000 		.4byte	.LBE180-.LBB180
ARM GAS  C:\Users\haske\AppData\Local\Temp\cc7ZkKza.s 			page 193


 8869 2ede 3E       		.uleb128 0x3e
 8870 2edf 521C0000 		.4byte	0x1c52
 8871 2ee3 3F       		.uleb128 0x3f
 8872 2ee4 5E1C0000 		.4byte	0x1c5e
 8873 2ee8 95240000 		.4byte	.LLST197
 8874 2eec 3F       		.uleb128 0x3f
 8875 2eed 691C0000 		.4byte	0x1c69
 8876 2ef1 01250000 		.4byte	.LLST198
 8877 2ef5 3F       		.uleb128 0x3f
 8878 2ef6 741C0000 		.4byte	0x1c74
 8879 2efa 6D250000 		.4byte	.LLST199
 8880 2efe 00       		.byte	0
 8881 2eff 00       		.byte	0
 8882 2f00 00       		.byte	0
 8883 2f01 4C       		.uleb128 0x4c
 8884 2f02 66000000 		.4byte	.LVL374
 8885 2f06 76320000 		.4byte	0x3276
 8886 2f0a 36       		.uleb128 0x36
 8887 2f0b 01       		.uleb128 0x1
 8888 2f0c 50       		.byte	0x50
 8889 2f0d 02       		.uleb128 0x2
 8890 2f0e 75       		.byte	0x75
 8891 2f0f 00       		.sleb128 0
 8892 2f10 36       		.uleb128 0x36
 8893 2f11 01       		.uleb128 0x1
 8894 2f12 51       		.byte	0x51
 8895 2f13 02       		.uleb128 0x2
 8896 2f14 76       		.byte	0x76
 8897 2f15 00       		.sleb128 0
 8898 2f16 36       		.uleb128 0x36
 8899 2f17 01       		.uleb128 0x1
 8900 2f18 52       		.byte	0x52
 8901 2f19 04       		.uleb128 0x4
 8902 2f1a 79       		.byte	0x79
 8903 2f1b 00       		.sleb128 0
 8904 2f1c 31       		.byte	0x31
 8905 2f1d 24       		.byte	0x24
 8906 2f1e 00       		.byte	0
 8907 2f1f 00       		.byte	0
 8908 2f20 4E       		.uleb128 0x4e
 8909 2f21 64020000 		.4byte	.LASF527
 8910 2f25 01       		.byte	0x1
 8911 2f26 5B       		.byte	0x5b
 8912 2f27 00000000 		.4byte	.LFB159
 8913 2f2b 30000000 		.4byte	.LFE159-.LFB159
 8914 2f2f 01       		.uleb128 0x1
 8915 2f30 9C       		.byte	0x9c
 8916 2f31 982F0000 		.4byte	0x2f98
 8917 2f35 41       		.uleb128 0x41
 8918 2f36 D81B0000 		.4byte	.LASF386
 8919 2f3a 01       		.byte	0x1
 8920 2f3b 5B       		.byte	0x5b
 8921 2f3c D7160000 		.4byte	0x16d7
 8922 2f40 80250000 		.4byte	.LLST200
 8923 2f44 4B       		.uleb128 0x4b
 8924 2f45 64736300 		.ascii	"dsc\000"
 8925 2f49 01       		.byte	0x1
ARM GAS  C:\Users\haske\AppData\Local\Temp\cc7ZkKza.s 			page 194


 8926 2f4a 5B       		.byte	0x5b
 8927 2f4b 60170000 		.4byte	0x1760
 8928 2f4f A9250000 		.4byte	.LLST201
 8929 2f53 4F       		.uleb128 0x4f
 8930 2f54 FE160000 		.4byte	.LASF197
 8931 2f58 01       		.byte	0x1
 8932 2f59 60       		.byte	0x60
 8933 2f5a 75020000 		.4byte	0x275
 8934 2f5e 02       		.uleb128 0x2
 8935 2f5f 91       		.byte	0x91
 8936 2f60 68       		.sleb128 -24
 8937 2f61 50       		.uleb128 0x50
 8938 2f62 18000000 		.4byte	.LVL496
 8939 2f66 81320000 		.4byte	0x3281
 8940 2f6a 752F0000 		.4byte	0x2f75
 8941 2f6e 36       		.uleb128 0x36
 8942 2f6f 01       		.uleb128 0x1
 8943 2f70 50       		.byte	0x50
 8944 2f71 02       		.uleb128 0x2
 8945 2f72 7D       		.byte	0x7d
 8946 2f73 00       		.sleb128 0
 8947 2f74 00       		.byte	0
 8948 2f75 39       		.uleb128 0x39
 8949 2f76 22000000 		.4byte	.LVL497
 8950 2f7a 852F0000 		.4byte	0x2f85
 8951 2f7e 36       		.uleb128 0x36
 8952 2f7f 01       		.uleb128 0x1
 8953 2f80 50       		.byte	0x50
 8954 2f81 02       		.uleb128 0x2
 8955 2f82 75       		.byte	0x75
 8956 2f83 00       		.sleb128 0
 8957 2f84 00       		.byte	0
 8958 2f85 37       		.uleb128 0x37
 8959 2f86 2A000000 		.4byte	.LVL498
 8960 2f8a 36       		.uleb128 0x36
 8961 2f8b 01       		.uleb128 0x1
 8962 2f8c 50       		.byte	0x50
 8963 2f8d 02       		.uleb128 0x2
 8964 2f8e 75       		.byte	0x75
 8965 2f8f 00       		.sleb128 0
 8966 2f90 36       		.uleb128 0x36
 8967 2f91 01       		.uleb128 0x1
 8968 2f92 51       		.byte	0x51
 8969 2f93 02       		.uleb128 0x2
 8970 2f94 74       		.byte	0x74
 8971 2f95 00       		.sleb128 0
 8972 2f96 00       		.byte	0
 8973 2f97 00       		.byte	0
 8974 2f98 4E       		.uleb128 0x4e
 8975 2f99 3C1A0000 		.4byte	.LASF528
 8976 2f9d 01       		.byte	0x1
 8977 2f9e 68       		.byte	0x68
 8978 2f9f 00000000 		.4byte	.LFB160
 8979 2fa3 18020000 		.4byte	.LFE160-.LFB160
 8980 2fa7 01       		.uleb128 0x1
 8981 2fa8 9C       		.byte	0x9c
 8982 2fa9 54320000 		.4byte	0x3254
ARM GAS  C:\Users\haske\AppData\Local\Temp\cc7ZkKza.s 			page 195


 8983 2fad 41       		.uleb128 0x41
 8984 2fae D81B0000 		.4byte	.LASF386
 8985 2fb2 01       		.byte	0x1
 8986 2fb3 68       		.byte	0x68
 8987 2fb4 D7160000 		.4byte	0x16d7
 8988 2fb8 D2250000 		.4byte	.LLST202
 8989 2fbc 4B       		.uleb128 0x4b
 8990 2fbd 64736300 		.ascii	"dsc\000"
 8991 2fc1 01       		.byte	0x1
 8992 2fc2 68       		.byte	0x68
 8993 2fc3 60170000 		.4byte	0x1760
 8994 2fc7 FE250000 		.4byte	.LLST203
 8995 2fcb 44       		.uleb128 0x44
 8996 2fcc DD100000 		.4byte	.LASF501
 8997 2fd0 01       		.byte	0x1
 8998 2fd1 6A       		.byte	0x6a
 8999 2fd2 58080000 		.4byte	0x858
 9000 2fd6 2A260000 		.4byte	.LLST204
 9001 2fda 51       		.uleb128 0x51
 9002 2fdb 040B0000 		.4byte	.LASF500
 9003 2fdf 01       		.byte	0x1
 9004 2fe0 70       		.byte	0x70
 9005 2fe1 0D020000 		.4byte	0x20d
 9006 2fe5 4F       		.uleb128 0x4f
 9007 2fe6 FE160000 		.4byte	.LASF197
 9008 2fea 01       		.byte	0x1
 9009 2feb 72       		.byte	0x72
 9010 2fec 75020000 		.4byte	0x275
 9011 2ff0 02       		.uleb128 0x2
 9012 2ff1 91       		.byte	0x91
 9013 2ff2 50       		.sleb128 -48
 9014 2ff3 44       		.uleb128 0x44
 9015 2ff4 CD110000 		.4byte	.LASF518
 9016 2ff8 01       		.byte	0x1
 9017 2ff9 75       		.byte	0x75
 9018 2ffa 87240000 		.4byte	0x2487
 9019 2ffe 3D260000 		.4byte	.LLST205
 9020 3002 44       		.uleb128 0x44
 9021 3003 66080000 		.4byte	.LASF498
 9022 3007 01       		.byte	0x1
 9023 3008 76       		.byte	0x76
 9024 3009 D7090000 		.4byte	0x9d7
 9025 300d 71260000 		.4byte	.LLST206
 9026 3011 44       		.uleb128 0x44
 9027 3012 27170000 		.4byte	.LASF198
 9028 3016 01       		.byte	0x1
 9029 3017 84       		.byte	0x84
 9030 3018 E3080000 		.4byte	0x8e3
 9031 301c B3260000 		.4byte	.LLST207
 9032 3020 44       		.uleb128 0x44
 9033 3021 F7020000 		.4byte	.LASF510
 9034 3025 01       		.byte	0x1
 9035 3026 85       		.byte	0x85
 9036 3027 0D020000 		.4byte	0x20d
 9037 302b C6260000 		.4byte	.LLST208
 9038 302f 44       		.uleb128 0x44
 9039 3030 DF080000 		.4byte	.LASF502
ARM GAS  C:\Users\haske\AppData\Local\Temp\cc7ZkKza.s 			page 196


 9040 3034 01       		.byte	0x1
 9041 3035 8E       		.byte	0x8e
 9042 3036 0D020000 		.4byte	0x20d
 9043 303a D9260000 		.4byte	.LLST209
 9044 303e 46       		.uleb128 0x46
 9045 303f 031C0000 		.4byte	0x1c03
 9046 3043 20000000 		.4byte	.LBB181
 9047 3047 0E000000 		.4byte	.LBE181-.LBB181
 9048 304b 01       		.byte	0x1
 9049 304c 70       		.byte	0x70
 9050 304d 5B300000 		.4byte	0x305b
 9051 3051 33       		.uleb128 0x33
 9052 3052 131C0000 		.4byte	0x1c13
 9053 3056 EC260000 		.4byte	.LLST210
 9054 305a 00       		.byte	0
 9055 305b 34       		.uleb128 0x34
 9056 305c 7A000000 		.4byte	.LBB183
 9057 3060 2C000000 		.4byte	.LBE183-.LBB183
 9058 3064 78300000 		.4byte	0x3078
 9059 3068 44       		.uleb128 0x44
 9060 3069 6C160000 		.4byte	.LASF529
 9061 306d 01       		.byte	0x1
 9062 306e 7D       		.byte	0x7d
 9063 306f CD070000 		.4byte	0x7cd
 9064 3073 FF260000 		.4byte	.LLST211
 9065 3077 00       		.byte	0
 9066 3078 46       		.uleb128 0x46
 9067 3079 031C0000 		.4byte	0x1c03
 9068 307d B2000000 		.4byte	.LBB184
 9069 3081 14000000 		.4byte	.LBE184-.LBB184
 9070 3085 01       		.byte	0x1
 9071 3086 87       		.byte	0x87
 9072 3087 95300000 		.4byte	0x3095
 9073 308b 33       		.uleb128 0x33
 9074 308c 131C0000 		.4byte	0x1c13
 9075 3090 24270000 		.4byte	.LLST212
 9076 3094 00       		.byte	0
 9077 3095 34       		.uleb128 0x34
 9078 3096 F2000000 		.4byte	.LBB186
 9079 309a 20000000 		.4byte	.LBE186-.LBB186
 9080 309e C8300000 		.4byte	0x30c8
 9081 30a2 44       		.uleb128 0x44
 9082 30a3 641A0000 		.4byte	.LASF530
 9083 30a7 01       		.byte	0x1
 9084 30a8 92       		.byte	0x92
 9085 30a9 E4000000 		.4byte	0xe4
 9086 30ad 37270000 		.4byte	.LLST213
 9087 30b1 45       		.uleb128 0x45
 9088 30b2 6900     		.ascii	"i\000"
 9089 30b4 01       		.byte	0x1
 9090 30b5 93       		.byte	0x93
 9091 30b6 E4000000 		.4byte	0xe4
 9092 30ba 4A270000 		.4byte	.LLST214
 9093 30be 47       		.uleb128 0x47
 9094 30bf F8000000 		.4byte	.LVL521
 9095 30c3 8C320000 		.4byte	0x328c
 9096 30c7 00       		.byte	0
ARM GAS  C:\Users\haske\AppData\Local\Temp\cc7ZkKza.s 			page 197


 9097 30c8 46       		.uleb128 0x46
 9098 30c9 031C0000 		.4byte	0x1c03
 9099 30cd 14010000 		.4byte	.LBB187
 9100 30d1 14000000 		.4byte	.LBE187-.LBB187
 9101 30d5 01       		.byte	0x1
 9102 30d6 99       		.byte	0x99
 9103 30d7 E5300000 		.4byte	0x30e5
 9104 30db 33       		.uleb128 0x33
 9105 30dc 131C0000 		.4byte	0x1c13
 9106 30e0 69270000 		.4byte	.LLST215
 9107 30e4 00       		.byte	0
 9108 30e5 50       		.uleb128 0x50
 9109 30e6 38000000 		.4byte	.LVL506
 9110 30ea 81320000 		.4byte	0x3281
 9111 30ee F9300000 		.4byte	0x30f9
 9112 30f2 36       		.uleb128 0x36
 9113 30f3 01       		.uleb128 0x1
 9114 30f4 50       		.byte	0x50
 9115 30f5 02       		.uleb128 0x2
 9116 30f6 91       		.byte	0x91
 9117 30f7 50       		.sleb128 -48
 9118 30f8 00       		.byte	0
 9119 30f9 47       		.uleb128 0x47
 9120 30fa 42000000 		.4byte	.LVL507
 9121 30fe 5F320000 		.4byte	0x325f
 9122 3102 50       		.uleb128 0x50
 9123 3103 5C010000 		.4byte	.LVL529
 9124 3107 97320000 		.4byte	0x3297
 9125 310b 16310000 		.4byte	0x3116
 9126 310f 36       		.uleb128 0x36
 9127 3110 01       		.uleb128 0x1
 9128 3111 50       		.byte	0x50
 9129 3112 02       		.uleb128 0x2
 9130 3113 91       		.byte	0x91
 9131 3114 50       		.sleb128 -48
 9132 3115 00       		.byte	0
 9133 3116 50       		.uleb128 0x50
 9134 3117 7E010000 		.4byte	.LVL530
 9135 311b 26230000 		.4byte	0x2326
 9136 311f 45310000 		.4byte	0x3145
 9137 3123 36       		.uleb128 0x36
 9138 3124 01       		.uleb128 0x1
 9139 3125 50       		.byte	0x50
 9140 3126 03       		.uleb128 0x3
 9141 3127 91       		.byte	0x91
 9142 3128 4C       		.sleb128 -52
 9143 3129 06       		.byte	0x6
 9144 312a 36       		.uleb128 0x36
 9145 312b 01       		.uleb128 0x1
 9146 312c 51       		.byte	0x51
 9147 312d 02       		.uleb128 0x2
 9148 312e 91       		.byte	0x91
 9149 312f 50       		.sleb128 -48
 9150 3130 36       		.uleb128 0x36
 9151 3131 01       		.uleb128 0x1
 9152 3132 52       		.byte	0x52
 9153 3133 02       		.uleb128 0x2
ARM GAS  C:\Users\haske\AppData\Local\Temp\cc7ZkKza.s 			page 198


 9154 3134 75       		.byte	0x75
 9155 3135 00       		.sleb128 0
 9156 3136 36       		.uleb128 0x36
 9157 3137 02       		.uleb128 0x2
 9158 3138 7D       		.byte	0x7d
 9159 3139 04       		.sleb128 4
 9160 313a 02       		.uleb128 0x2
 9161 313b 77       		.byte	0x77
 9162 313c 00       		.sleb128 0
 9163 313d 36       		.uleb128 0x36
 9164 313e 02       		.uleb128 0x2
 9165 313f 7D       		.byte	0x7d
 9166 3140 08       		.sleb128 8
 9167 3141 02       		.uleb128 0x2
 9168 3142 78       		.byte	0x78
 9169 3143 00       		.sleb128 0
 9170 3144 00       		.byte	0
 9171 3145 50       		.uleb128 0x50
 9172 3146 9A010000 		.4byte	.LVL531
 9173 314a 8D240000 		.4byte	0x248d
 9174 314e 81310000 		.4byte	0x3181
 9175 3152 36       		.uleb128 0x36
 9176 3153 01       		.uleb128 0x1
 9177 3154 50       		.byte	0x50
 9178 3155 03       		.uleb128 0x3
 9179 3156 91       		.byte	0x91
 9180 3157 4C       		.sleb128 -52
 9181 3158 06       		.byte	0x6
 9182 3159 36       		.uleb128 0x36
 9183 315a 01       		.uleb128 0x1
 9184 315b 51       		.byte	0x51
 9185 315c 02       		.uleb128 0x2
 9186 315d 91       		.byte	0x91
 9187 315e 50       		.sleb128 -48
 9188 315f 36       		.uleb128 0x36
 9189 3160 01       		.uleb128 0x1
 9190 3161 52       		.byte	0x52
 9191 3162 02       		.uleb128 0x2
 9192 3163 75       		.byte	0x75
 9193 3164 00       		.sleb128 0
 9194 3165 36       		.uleb128 0x36
 9195 3166 01       		.uleb128 0x1
 9196 3167 53       		.byte	0x53
 9197 3168 02       		.uleb128 0x2
 9198 3169 7A       		.byte	0x7a
 9199 316a 00       		.sleb128 0
 9200 316b 36       		.uleb128 0x36
 9201 316c 02       		.uleb128 0x2
 9202 316d 7D       		.byte	0x7d
 9203 316e 00       		.sleb128 0
 9204 316f 02       		.uleb128 0x2
 9205 3170 79       		.byte	0x79
 9206 3171 00       		.sleb128 0
 9207 3172 36       		.uleb128 0x36
 9208 3173 02       		.uleb128 0x2
 9209 3174 7D       		.byte	0x7d
 9210 3175 08       		.sleb128 8
ARM GAS  C:\Users\haske\AppData\Local\Temp\cc7ZkKza.s 			page 199


 9211 3176 02       		.uleb128 0x2
 9212 3177 77       		.byte	0x77
 9213 3178 00       		.sleb128 0
 9214 3179 36       		.uleb128 0x36
 9215 317a 02       		.uleb128 0x2
 9216 317b 7D       		.byte	0x7d
 9217 317c 0C       		.sleb128 12
 9218 317d 02       		.uleb128 0x2
 9219 317e 78       		.byte	0x78
 9220 317f 00       		.sleb128 0
 9221 3180 00       		.byte	0
 9222 3181 50       		.uleb128 0x50
 9223 3182 BA010000 		.4byte	.LVL532
 9224 3186 E7250000 		.4byte	0x25e7
 9225 318a B0310000 		.4byte	0x31b0
 9226 318e 36       		.uleb128 0x36
 9227 318f 01       		.uleb128 0x1
 9228 3190 50       		.byte	0x50
 9229 3191 03       		.uleb128 0x3
 9230 3192 91       		.byte	0x91
 9231 3193 4C       		.sleb128 -52
 9232 3194 06       		.byte	0x6
 9233 3195 36       		.uleb128 0x36
 9234 3196 01       		.uleb128 0x1
 9235 3197 51       		.byte	0x51
 9236 3198 02       		.uleb128 0x2
 9237 3199 91       		.byte	0x91
 9238 319a 50       		.sleb128 -48
 9239 319b 36       		.uleb128 0x36
 9240 319c 01       		.uleb128 0x1
 9241 319d 52       		.byte	0x52
 9242 319e 02       		.uleb128 0x2
 9243 319f 75       		.byte	0x75
 9244 31a0 00       		.sleb128 0
 9245 31a1 36       		.uleb128 0x36
 9246 31a2 02       		.uleb128 0x2
 9247 31a3 7D       		.byte	0x7d
 9248 31a4 04       		.sleb128 4
 9249 31a5 02       		.uleb128 0x2
 9250 31a6 77       		.byte	0x77
 9251 31a7 00       		.sleb128 0
 9252 31a8 36       		.uleb128 0x36
 9253 31a9 02       		.uleb128 0x2
 9254 31aa 7D       		.byte	0x7d
 9255 31ab 08       		.sleb128 8
 9256 31ac 02       		.uleb128 0x2
 9257 31ad 78       		.byte	0x78
 9258 31ae 00       		.sleb128 0
 9259 31af 00       		.byte	0
 9260 31b0 50       		.uleb128 0x50
 9261 31b1 D6010000 		.4byte	.LVL533
 9262 31b5 0D2B0000 		.4byte	0x2b0d
 9263 31b9 EC310000 		.4byte	0x31ec
 9264 31bd 36       		.uleb128 0x36
 9265 31be 01       		.uleb128 0x1
 9266 31bf 50       		.byte	0x50
 9267 31c0 03       		.uleb128 0x3
ARM GAS  C:\Users\haske\AppData\Local\Temp\cc7ZkKza.s 			page 200


 9268 31c1 91       		.byte	0x91
 9269 31c2 4C       		.sleb128 -52
 9270 31c3 06       		.byte	0x6
 9271 31c4 36       		.uleb128 0x36
 9272 31c5 01       		.uleb128 0x1
 9273 31c6 51       		.byte	0x51
 9274 31c7 02       		.uleb128 0x2
 9275 31c8 91       		.byte	0x91
 9276 31c9 50       		.sleb128 -48
 9277 31ca 36       		.uleb128 0x36
 9278 31cb 01       		.uleb128 0x1
 9279 31cc 52       		.byte	0x52
 9280 31cd 02       		.uleb128 0x2
 9281 31ce 75       		.byte	0x75
 9282 31cf 00       		.sleb128 0
 9283 31d0 36       		.uleb128 0x36
 9284 31d1 01       		.uleb128 0x1
 9285 31d2 53       		.byte	0x53
 9286 31d3 02       		.uleb128 0x2
 9287 31d4 7A       		.byte	0x7a
 9288 31d5 00       		.sleb128 0
 9289 31d6 36       		.uleb128 0x36
 9290 31d7 02       		.uleb128 0x2
 9291 31d8 7D       		.byte	0x7d
 9292 31d9 00       		.sleb128 0
 9293 31da 02       		.uleb128 0x2
 9294 31db 79       		.byte	0x79
 9295 31dc 00       		.sleb128 0
 9296 31dd 36       		.uleb128 0x36
 9297 31de 02       		.uleb128 0x2
 9298 31df 7D       		.byte	0x7d
 9299 31e0 08       		.sleb128 8
 9300 31e1 02       		.uleb128 0x2
 9301 31e2 77       		.byte	0x77
 9302 31e3 00       		.sleb128 0
 9303 31e4 36       		.uleb128 0x36
 9304 31e5 02       		.uleb128 0x2
 9305 31e6 7D       		.byte	0x7d
 9306 31e7 0C       		.sleb128 12
 9307 31e8 02       		.uleb128 0x2
 9308 31e9 78       		.byte	0x78
 9309 31ea 00       		.sleb128 0
 9310 31eb 00       		.byte	0
 9311 31ec 50       		.uleb128 0x50
 9312 31ed F4010000 		.4byte	.LVL534
 9313 31f1 FF1C0000 		.4byte	0x1cff
 9314 31f5 1B320000 		.4byte	0x321b
 9315 31f9 36       		.uleb128 0x36
 9316 31fa 01       		.uleb128 0x1
 9317 31fb 50       		.byte	0x50
 9318 31fc 03       		.uleb128 0x3
 9319 31fd 91       		.byte	0x91
 9320 31fe 4C       		.sleb128 -52
 9321 31ff 06       		.byte	0x6
 9322 3200 36       		.uleb128 0x36
 9323 3201 01       		.uleb128 0x1
 9324 3202 51       		.byte	0x51
ARM GAS  C:\Users\haske\AppData\Local\Temp\cc7ZkKza.s 			page 201


 9325 3203 02       		.uleb128 0x2
 9326 3204 91       		.byte	0x91
 9327 3205 50       		.sleb128 -48
 9328 3206 36       		.uleb128 0x36
 9329 3207 01       		.uleb128 0x1
 9330 3208 52       		.byte	0x52
 9331 3209 02       		.uleb128 0x2
 9332 320a 75       		.byte	0x75
 9333 320b 00       		.sleb128 0
 9334 320c 36       		.uleb128 0x36
 9335 320d 02       		.uleb128 0x2
 9336 320e 7D       		.byte	0x7d
 9337 320f 04       		.sleb128 4
 9338 3210 02       		.uleb128 0x2
 9339 3211 77       		.byte	0x77
 9340 3212 00       		.sleb128 0
 9341 3213 36       		.uleb128 0x36
 9342 3214 02       		.uleb128 0x2
 9343 3215 7D       		.byte	0x7d
 9344 3216 08       		.sleb128 8
 9345 3217 02       		.uleb128 0x2
 9346 3218 78       		.byte	0x78
 9347 3219 00       		.sleb128 0
 9348 321a 00       		.byte	0
 9349 321b 4C       		.uleb128 0x4c
 9350 321c 12020000 		.4byte	.LVL535
 9351 3220 161F0000 		.4byte	0x1f16
 9352 3224 36       		.uleb128 0x36
 9353 3225 01       		.uleb128 0x1
 9354 3226 50       		.byte	0x50
 9355 3227 03       		.uleb128 0x3
 9356 3228 91       		.byte	0x91
 9357 3229 4C       		.sleb128 -52
 9358 322a 06       		.byte	0x6
 9359 322b 36       		.uleb128 0x36
 9360 322c 01       		.uleb128 0x1
 9361 322d 51       		.byte	0x51
 9362 322e 02       		.uleb128 0x2
 9363 322f 91       		.byte	0x91
 9364 3230 50       		.sleb128 -48
 9365 3231 36       		.uleb128 0x36
 9366 3232 01       		.uleb128 0x1
 9367 3233 52       		.byte	0x52
 9368 3234 02       		.uleb128 0x2
 9369 3235 75       		.byte	0x75
 9370 3236 00       		.sleb128 0
 9371 3237 36       		.uleb128 0x36
 9372 3238 01       		.uleb128 0x1
 9373 3239 53       		.byte	0x53
 9374 323a 02       		.uleb128 0x2
 9375 323b 7A       		.byte	0x7a
 9376 323c 00       		.sleb128 0
 9377 323d 36       		.uleb128 0x36
 9378 323e 02       		.uleb128 0x2
 9379 323f 7D       		.byte	0x7d
 9380 3240 00       		.sleb128 0
 9381 3241 02       		.uleb128 0x2
ARM GAS  C:\Users\haske\AppData\Local\Temp\cc7ZkKza.s 			page 202


 9382 3242 79       		.byte	0x79
 9383 3243 00       		.sleb128 0
 9384 3244 36       		.uleb128 0x36
 9385 3245 02       		.uleb128 0x2
 9386 3246 7D       		.byte	0x7d
 9387 3247 08       		.sleb128 8
 9388 3248 02       		.uleb128 0x2
 9389 3249 77       		.byte	0x77
 9390 324a 00       		.sleb128 0
 9391 324b 36       		.uleb128 0x36
 9392 324c 02       		.uleb128 0x2
 9393 324d 7D       		.byte	0x7d
 9394 324e 0C       		.sleb128 12
 9395 324f 02       		.uleb128 0x2
 9396 3250 78       		.byte	0x78
 9397 3251 00       		.sleb128 0
 9398 3252 00       		.byte	0
 9399 3253 00       		.byte	0
 9400 3254 52       		.uleb128 0x52
 9401 3255 73190000 		.4byte	.LASF542
 9402 3259 08       		.byte	0x8
 9403 325a 94       		.byte	0x94
 9404 325b 040C0000 		.4byte	0xc04
 9405 325f 53       		.uleb128 0x53
 9406 3260 281C0000 		.4byte	.LASF531
 9407 3264 281C0000 		.4byte	.LASF531
 9408 3268 20       		.byte	0x20
 9409 3269 4E       		.byte	0x4e
 9410 326a 54       		.uleb128 0x54
 9411 326b 22160000 		.4byte	.LASF532
 9412 326f 22160000 		.4byte	.LASF532
 9413 3273 03       		.byte	0x3
 9414 3274 8002     		.2byte	0x280
 9415 3276 53       		.uleb128 0x53
 9416 3277 8A010000 		.4byte	.LASF533
 9417 327b 8A010000 		.4byte	.LASF533
 9418 327f 21       		.byte	0x21
 9419 3280 BA       		.byte	0xba
 9420 3281 53       		.uleb128 0x53
 9421 3282 3C1B0000 		.4byte	.LASF534
 9422 3286 3C1B0000 		.4byte	.LASF534
 9423 328a 02       		.byte	0x2
 9424 328b B2       		.byte	0xb2
 9425 328c 53       		.uleb128 0x53
 9426 328d 06080000 		.4byte	.LASF535
 9427 3291 06080000 		.4byte	.LASF535
 9428 3295 02       		.byte	0x2
 9429 3296 A5       		.byte	0xa5
 9430 3297 53       		.uleb128 0x53
 9431 3298 6B100000 		.4byte	.LASF536
 9432 329c 6B100000 		.4byte	.LASF536
 9433 32a0 02       		.byte	0x2
 9434 32a1 A9       		.byte	0xa9
 9435 32a2 00       		.byte	0
 9436              		.section	.debug_abbrev,"",%progbits
 9437              	.Ldebug_abbrev0:
 9438 0000 01       		.uleb128 0x1
ARM GAS  C:\Users\haske\AppData\Local\Temp\cc7ZkKza.s 			page 203


 9439 0001 11       		.uleb128 0x11
 9440 0002 01       		.byte	0x1
 9441 0003 25       		.uleb128 0x25
 9442 0004 0E       		.uleb128 0xe
 9443 0005 13       		.uleb128 0x13
 9444 0006 0B       		.uleb128 0xb
 9445 0007 03       		.uleb128 0x3
 9446 0008 0E       		.uleb128 0xe
 9447 0009 1B       		.uleb128 0x1b
 9448 000a 0E       		.uleb128 0xe
 9449 000b 55       		.uleb128 0x55
 9450 000c 17       		.uleb128 0x17
 9451 000d 11       		.uleb128 0x11
 9452 000e 01       		.uleb128 0x1
 9453 000f 10       		.uleb128 0x10
 9454 0010 17       		.uleb128 0x17
 9455 0011 00       		.byte	0
 9456 0012 00       		.byte	0
 9457 0013 02       		.uleb128 0x2
 9458 0014 16       		.uleb128 0x16
 9459 0015 00       		.byte	0
 9460 0016 03       		.uleb128 0x3
 9461 0017 0E       		.uleb128 0xe
 9462 0018 3A       		.uleb128 0x3a
 9463 0019 0B       		.uleb128 0xb
 9464 001a 3B       		.uleb128 0x3b
 9465 001b 0B       		.uleb128 0xb
 9466 001c 49       		.uleb128 0x49
 9467 001d 13       		.uleb128 0x13
 9468 001e 00       		.byte	0
 9469 001f 00       		.byte	0
 9470 0020 03       		.uleb128 0x3
 9471 0021 24       		.uleb128 0x24
 9472 0022 00       		.byte	0
 9473 0023 0B       		.uleb128 0xb
 9474 0024 0B       		.uleb128 0xb
 9475 0025 3E       		.uleb128 0x3e
 9476 0026 0B       		.uleb128 0xb
 9477 0027 03       		.uleb128 0x3
 9478 0028 0E       		.uleb128 0xe
 9479 0029 00       		.byte	0
 9480 002a 00       		.byte	0
 9481 002b 04       		.uleb128 0x4
 9482 002c 24       		.uleb128 0x24
 9483 002d 00       		.byte	0
 9484 002e 0B       		.uleb128 0xb
 9485 002f 0B       		.uleb128 0xb
 9486 0030 3E       		.uleb128 0x3e
 9487 0031 0B       		.uleb128 0xb
 9488 0032 03       		.uleb128 0x3
 9489 0033 08       		.uleb128 0x8
 9490 0034 00       		.byte	0
 9491 0035 00       		.byte	0
 9492 0036 05       		.uleb128 0x5
 9493 0037 0F       		.uleb128 0xf
 9494 0038 00       		.byte	0
 9495 0039 0B       		.uleb128 0xb
ARM GAS  C:\Users\haske\AppData\Local\Temp\cc7ZkKza.s 			page 204


 9496 003a 0B       		.uleb128 0xb
 9497 003b 00       		.byte	0
 9498 003c 00       		.byte	0
 9499 003d 06       		.uleb128 0x6
 9500 003e 04       		.uleb128 0x4
 9501 003f 01       		.byte	0x1
 9502 0040 0B       		.uleb128 0xb
 9503 0041 0B       		.uleb128 0xb
 9504 0042 49       		.uleb128 0x49
 9505 0043 13       		.uleb128 0x13
 9506 0044 3A       		.uleb128 0x3a
 9507 0045 0B       		.uleb128 0xb
 9508 0046 3B       		.uleb128 0x3b
 9509 0047 0B       		.uleb128 0xb
 9510 0048 01       		.uleb128 0x1
 9511 0049 13       		.uleb128 0x13
 9512 004a 00       		.byte	0
 9513 004b 00       		.byte	0
 9514 004c 07       		.uleb128 0x7
 9515 004d 28       		.uleb128 0x28
 9516 004e 00       		.byte	0
 9517 004f 03       		.uleb128 0x3
 9518 0050 0E       		.uleb128 0xe
 9519 0051 1C       		.uleb128 0x1c
 9520 0052 0B       		.uleb128 0xb
 9521 0053 00       		.byte	0
 9522 0054 00       		.byte	0
 9523 0055 08       		.uleb128 0x8
 9524 0056 13       		.uleb128 0x13
 9525 0057 01       		.byte	0x1
 9526 0058 0B       		.uleb128 0xb
 9527 0059 0B       		.uleb128 0xb
 9528 005a 3A       		.uleb128 0x3a
 9529 005b 0B       		.uleb128 0xb
 9530 005c 3B       		.uleb128 0x3b
 9531 005d 0B       		.uleb128 0xb
 9532 005e 01       		.uleb128 0x1
 9533 005f 13       		.uleb128 0x13
 9534 0060 00       		.byte	0
 9535 0061 00       		.byte	0
 9536 0062 09       		.uleb128 0x9
 9537 0063 0D       		.uleb128 0xd
 9538 0064 00       		.byte	0
 9539 0065 03       		.uleb128 0x3
 9540 0066 0E       		.uleb128 0xe
 9541 0067 3A       		.uleb128 0x3a
 9542 0068 0B       		.uleb128 0xb
 9543 0069 3B       		.uleb128 0x3b
 9544 006a 0B       		.uleb128 0xb
 9545 006b 49       		.uleb128 0x49
 9546 006c 13       		.uleb128 0x13
 9547 006d 0B       		.uleb128 0xb
 9548 006e 0B       		.uleb128 0xb
 9549 006f 0D       		.uleb128 0xd
 9550 0070 0B       		.uleb128 0xb
 9551 0071 0C       		.uleb128 0xc
 9552 0072 0B       		.uleb128 0xb
ARM GAS  C:\Users\haske\AppData\Local\Temp\cc7ZkKza.s 			page 205


 9553 0073 38       		.uleb128 0x38
 9554 0074 0B       		.uleb128 0xb
 9555 0075 00       		.byte	0
 9556 0076 00       		.byte	0
 9557 0077 0A       		.uleb128 0xa
 9558 0078 0D       		.uleb128 0xd
 9559 0079 00       		.byte	0
 9560 007a 03       		.uleb128 0x3
 9561 007b 08       		.uleb128 0x8
 9562 007c 3A       		.uleb128 0x3a
 9563 007d 0B       		.uleb128 0xb
 9564 007e 3B       		.uleb128 0x3b
 9565 007f 0B       		.uleb128 0xb
 9566 0080 49       		.uleb128 0x49
 9567 0081 13       		.uleb128 0x13
 9568 0082 0B       		.uleb128 0xb
 9569 0083 0B       		.uleb128 0xb
 9570 0084 0D       		.uleb128 0xd
 9571 0085 0B       		.uleb128 0xb
 9572 0086 0C       		.uleb128 0xc
 9573 0087 0B       		.uleb128 0xb
 9574 0088 38       		.uleb128 0x38
 9575 0089 0B       		.uleb128 0xb
 9576 008a 00       		.byte	0
 9577 008b 00       		.byte	0
 9578 008c 0B       		.uleb128 0xb
 9579 008d 17       		.uleb128 0x17
 9580 008e 01       		.byte	0x1
 9581 008f 0B       		.uleb128 0xb
 9582 0090 0B       		.uleb128 0xb
 9583 0091 3A       		.uleb128 0x3a
 9584 0092 0B       		.uleb128 0xb
 9585 0093 3B       		.uleb128 0x3b
 9586 0094 0B       		.uleb128 0xb
 9587 0095 01       		.uleb128 0x1
 9588 0096 13       		.uleb128 0x13
 9589 0097 00       		.byte	0
 9590 0098 00       		.byte	0
 9591 0099 0C       		.uleb128 0xc
 9592 009a 0D       		.uleb128 0xd
 9593 009b 00       		.byte	0
 9594 009c 03       		.uleb128 0x3
 9595 009d 08       		.uleb128 0x8
 9596 009e 3A       		.uleb128 0x3a
 9597 009f 0B       		.uleb128 0xb
 9598 00a0 3B       		.uleb128 0x3b
 9599 00a1 0B       		.uleb128 0xb
 9600 00a2 49       		.uleb128 0x49
 9601 00a3 13       		.uleb128 0x13
 9602 00a4 00       		.byte	0
 9603 00a5 00       		.byte	0
 9604 00a6 0D       		.uleb128 0xd
 9605 00a7 0D       		.uleb128 0xd
 9606 00a8 00       		.byte	0
 9607 00a9 03       		.uleb128 0x3
 9608 00aa 0E       		.uleb128 0xe
 9609 00ab 3A       		.uleb128 0x3a
ARM GAS  C:\Users\haske\AppData\Local\Temp\cc7ZkKza.s 			page 206


 9610 00ac 0B       		.uleb128 0xb
 9611 00ad 3B       		.uleb128 0x3b
 9612 00ae 0B       		.uleb128 0xb
 9613 00af 49       		.uleb128 0x49
 9614 00b0 13       		.uleb128 0x13
 9615 00b1 00       		.byte	0
 9616 00b2 00       		.byte	0
 9617 00b3 0E       		.uleb128 0xe
 9618 00b4 0D       		.uleb128 0xd
 9619 00b5 00       		.byte	0
 9620 00b6 03       		.uleb128 0x3
 9621 00b7 08       		.uleb128 0x8
 9622 00b8 3A       		.uleb128 0x3a
 9623 00b9 0B       		.uleb128 0xb
 9624 00ba 3B       		.uleb128 0x3b
 9625 00bb 0B       		.uleb128 0xb
 9626 00bc 49       		.uleb128 0x49
 9627 00bd 13       		.uleb128 0x13
 9628 00be 38       		.uleb128 0x38
 9629 00bf 0B       		.uleb128 0xb
 9630 00c0 00       		.byte	0
 9631 00c1 00       		.byte	0
 9632 00c2 0F       		.uleb128 0xf
 9633 00c3 0D       		.uleb128 0xd
 9634 00c4 00       		.byte	0
 9635 00c5 03       		.uleb128 0x3
 9636 00c6 0E       		.uleb128 0xe
 9637 00c7 3A       		.uleb128 0x3a
 9638 00c8 0B       		.uleb128 0xb
 9639 00c9 3B       		.uleb128 0x3b
 9640 00ca 0B       		.uleb128 0xb
 9641 00cb 49       		.uleb128 0x49
 9642 00cc 13       		.uleb128 0x13
 9643 00cd 38       		.uleb128 0x38
 9644 00ce 0B       		.uleb128 0xb
 9645 00cf 00       		.byte	0
 9646 00d0 00       		.byte	0
 9647 00d1 10       		.uleb128 0x10
 9648 00d2 13       		.uleb128 0x13
 9649 00d3 01       		.byte	0x1
 9650 00d4 03       		.uleb128 0x3
 9651 00d5 0E       		.uleb128 0xe
 9652 00d6 0B       		.uleb128 0xb
 9653 00d7 0B       		.uleb128 0xb
 9654 00d8 3A       		.uleb128 0x3a
 9655 00d9 0B       		.uleb128 0xb
 9656 00da 3B       		.uleb128 0x3b
 9657 00db 0B       		.uleb128 0xb
 9658 00dc 01       		.uleb128 0x1
 9659 00dd 13       		.uleb128 0x13
 9660 00de 00       		.byte	0
 9661 00df 00       		.byte	0
 9662 00e0 11       		.uleb128 0x11
 9663 00e1 0F       		.uleb128 0xf
 9664 00e2 00       		.byte	0
 9665 00e3 0B       		.uleb128 0xb
 9666 00e4 0B       		.uleb128 0xb
ARM GAS  C:\Users\haske\AppData\Local\Temp\cc7ZkKza.s 			page 207


 9667 00e5 49       		.uleb128 0x49
 9668 00e6 13       		.uleb128 0x13
 9669 00e7 00       		.byte	0
 9670 00e8 00       		.byte	0
 9671 00e9 12       		.uleb128 0x12
 9672 00ea 26       		.uleb128 0x26
 9673 00eb 00       		.byte	0
 9674 00ec 49       		.uleb128 0x49
 9675 00ed 13       		.uleb128 0x13
 9676 00ee 00       		.byte	0
 9677 00ef 00       		.byte	0
 9678 00f0 13       		.uleb128 0x13
 9679 00f1 15       		.uleb128 0x15
 9680 00f2 01       		.byte	0x1
 9681 00f3 27       		.uleb128 0x27
 9682 00f4 19       		.uleb128 0x19
 9683 00f5 49       		.uleb128 0x49
 9684 00f6 13       		.uleb128 0x13
 9685 00f7 01       		.uleb128 0x1
 9686 00f8 13       		.uleb128 0x13
 9687 00f9 00       		.byte	0
 9688 00fa 00       		.byte	0
 9689 00fb 14       		.uleb128 0x14
 9690 00fc 05       		.uleb128 0x5
 9691 00fd 00       		.byte	0
 9692 00fe 49       		.uleb128 0x49
 9693 00ff 13       		.uleb128 0x13
 9694 0100 00       		.byte	0
 9695 0101 00       		.byte	0
 9696 0102 15       		.uleb128 0x15
 9697 0103 26       		.uleb128 0x26
 9698 0104 00       		.byte	0
 9699 0105 00       		.byte	0
 9700 0106 00       		.byte	0
 9701 0107 16       		.uleb128 0x16
 9702 0108 01       		.uleb128 0x1
 9703 0109 01       		.byte	0x1
 9704 010a 49       		.uleb128 0x49
 9705 010b 13       		.uleb128 0x13
 9706 010c 01       		.uleb128 0x1
 9707 010d 13       		.uleb128 0x13
 9708 010e 00       		.byte	0
 9709 010f 00       		.byte	0
 9710 0110 17       		.uleb128 0x17
 9711 0111 21       		.uleb128 0x21
 9712 0112 00       		.byte	0
 9713 0113 49       		.uleb128 0x49
 9714 0114 13       		.uleb128 0x13
 9715 0115 2F       		.uleb128 0x2f
 9716 0116 0B       		.uleb128 0xb
 9717 0117 00       		.byte	0
 9718 0118 00       		.byte	0
 9719 0119 18       		.uleb128 0x18
 9720 011a 28       		.uleb128 0x28
 9721 011b 00       		.byte	0
 9722 011c 03       		.uleb128 0x3
 9723 011d 0E       		.uleb128 0xe
ARM GAS  C:\Users\haske\AppData\Local\Temp\cc7ZkKza.s 			page 208


 9724 011e 1C       		.uleb128 0x1c
 9725 011f 05       		.uleb128 0x5
 9726 0120 00       		.byte	0
 9727 0121 00       		.byte	0
 9728 0122 19       		.uleb128 0x19
 9729 0123 16       		.uleb128 0x16
 9730 0124 00       		.byte	0
 9731 0125 03       		.uleb128 0x3
 9732 0126 0E       		.uleb128 0xe
 9733 0127 3A       		.uleb128 0x3a
 9734 0128 0B       		.uleb128 0xb
 9735 0129 3B       		.uleb128 0x3b
 9736 012a 05       		.uleb128 0x5
 9737 012b 49       		.uleb128 0x49
 9738 012c 13       		.uleb128 0x13
 9739 012d 00       		.byte	0
 9740 012e 00       		.byte	0
 9741 012f 1A       		.uleb128 0x1a
 9742 0130 13       		.uleb128 0x13
 9743 0131 01       		.byte	0x1
 9744 0132 0B       		.uleb128 0xb
 9745 0133 0B       		.uleb128 0xb
 9746 0134 3A       		.uleb128 0x3a
 9747 0135 0B       		.uleb128 0xb
 9748 0136 3B       		.uleb128 0x3b
 9749 0137 05       		.uleb128 0x5
 9750 0138 01       		.uleb128 0x1
 9751 0139 13       		.uleb128 0x13
 9752 013a 00       		.byte	0
 9753 013b 00       		.byte	0
 9754 013c 1B       		.uleb128 0x1b
 9755 013d 0D       		.uleb128 0xd
 9756 013e 00       		.byte	0
 9757 013f 03       		.uleb128 0x3
 9758 0140 0E       		.uleb128 0xe
 9759 0141 3A       		.uleb128 0x3a
 9760 0142 0B       		.uleb128 0xb
 9761 0143 3B       		.uleb128 0x3b
 9762 0144 05       		.uleb128 0x5
 9763 0145 49       		.uleb128 0x49
 9764 0146 13       		.uleb128 0x13
 9765 0147 38       		.uleb128 0x38
 9766 0148 0B       		.uleb128 0xb
 9767 0149 00       		.byte	0
 9768 014a 00       		.byte	0
 9769 014b 1C       		.uleb128 0x1c
 9770 014c 17       		.uleb128 0x17
 9771 014d 01       		.byte	0x1
 9772 014e 0B       		.uleb128 0xb
 9773 014f 0B       		.uleb128 0xb
 9774 0150 3A       		.uleb128 0x3a
 9775 0151 0B       		.uleb128 0xb
 9776 0152 3B       		.uleb128 0x3b
 9777 0153 05       		.uleb128 0x5
 9778 0154 01       		.uleb128 0x1
 9779 0155 13       		.uleb128 0x13
 9780 0156 00       		.byte	0
ARM GAS  C:\Users\haske\AppData\Local\Temp\cc7ZkKza.s 			page 209


 9781 0157 00       		.byte	0
 9782 0158 1D       		.uleb128 0x1d
 9783 0159 0D       		.uleb128 0xd
 9784 015a 00       		.byte	0
 9785 015b 03       		.uleb128 0x3
 9786 015c 0E       		.uleb128 0xe
 9787 015d 3A       		.uleb128 0x3a
 9788 015e 0B       		.uleb128 0xb
 9789 015f 3B       		.uleb128 0x3b
 9790 0160 05       		.uleb128 0x5
 9791 0161 49       		.uleb128 0x49
 9792 0162 13       		.uleb128 0x13
 9793 0163 00       		.byte	0
 9794 0164 00       		.byte	0
 9795 0165 1E       		.uleb128 0x1e
 9796 0166 0D       		.uleb128 0xd
 9797 0167 00       		.byte	0
 9798 0168 03       		.uleb128 0x3
 9799 0169 08       		.uleb128 0x8
 9800 016a 3A       		.uleb128 0x3a
 9801 016b 0B       		.uleb128 0xb
 9802 016c 3B       		.uleb128 0x3b
 9803 016d 05       		.uleb128 0x5
 9804 016e 49       		.uleb128 0x49
 9805 016f 13       		.uleb128 0x13
 9806 0170 38       		.uleb128 0x38
 9807 0171 0B       		.uleb128 0xb
 9808 0172 00       		.byte	0
 9809 0173 00       		.byte	0
 9810 0174 1F       		.uleb128 0x1f
 9811 0175 15       		.uleb128 0x15
 9812 0176 01       		.byte	0x1
 9813 0177 27       		.uleb128 0x27
 9814 0178 19       		.uleb128 0x19
 9815 0179 01       		.uleb128 0x1
 9816 017a 13       		.uleb128 0x13
 9817 017b 00       		.byte	0
 9818 017c 00       		.byte	0
 9819 017d 20       		.uleb128 0x20
 9820 017e 13       		.uleb128 0x13
 9821 017f 01       		.byte	0x1
 9822 0180 03       		.uleb128 0x3
 9823 0181 0E       		.uleb128 0xe
 9824 0182 0B       		.uleb128 0xb
 9825 0183 05       		.uleb128 0x5
 9826 0184 3A       		.uleb128 0x3a
 9827 0185 0B       		.uleb128 0xb
 9828 0186 3B       		.uleb128 0x3b
 9829 0187 0B       		.uleb128 0xb
 9830 0188 01       		.uleb128 0x1
 9831 0189 13       		.uleb128 0x13
 9832 018a 00       		.byte	0
 9833 018b 00       		.byte	0
 9834 018c 21       		.uleb128 0x21
 9835 018d 0D       		.uleb128 0xd
 9836 018e 00       		.byte	0
 9837 018f 03       		.uleb128 0x3
ARM GAS  C:\Users\haske\AppData\Local\Temp\cc7ZkKza.s 			page 210


 9838 0190 0E       		.uleb128 0xe
 9839 0191 3A       		.uleb128 0x3a
 9840 0192 0B       		.uleb128 0xb
 9841 0193 3B       		.uleb128 0x3b
 9842 0194 0B       		.uleb128 0xb
 9843 0195 49       		.uleb128 0x49
 9844 0196 13       		.uleb128 0x13
 9845 0197 38       		.uleb128 0x38
 9846 0198 05       		.uleb128 0x5
 9847 0199 00       		.byte	0
 9848 019a 00       		.byte	0
 9849 019b 22       		.uleb128 0x22
 9850 019c 35       		.uleb128 0x35
 9851 019d 00       		.byte	0
 9852 019e 49       		.uleb128 0x49
 9853 019f 13       		.uleb128 0x13
 9854 01a0 00       		.byte	0
 9855 01a1 00       		.byte	0
 9856 01a2 23       		.uleb128 0x23
 9857 01a3 13       		.uleb128 0x13
 9858 01a4 00       		.byte	0
 9859 01a5 03       		.uleb128 0x3
 9860 01a6 0E       		.uleb128 0xe
 9861 01a7 3C       		.uleb128 0x3c
 9862 01a8 19       		.uleb128 0x19
 9863 01a9 00       		.byte	0
 9864 01aa 00       		.byte	0
 9865 01ab 24       		.uleb128 0x24
 9866 01ac 2E       		.uleb128 0x2e
 9867 01ad 01       		.byte	0x1
 9868 01ae 03       		.uleb128 0x3
 9869 01af 0E       		.uleb128 0xe
 9870 01b0 3A       		.uleb128 0x3a
 9871 01b1 0B       		.uleb128 0xb
 9872 01b2 3B       		.uleb128 0x3b
 9873 01b3 05       		.uleb128 0x5
 9874 01b4 27       		.uleb128 0x27
 9875 01b5 19       		.uleb128 0x19
 9876 01b6 49       		.uleb128 0x49
 9877 01b7 13       		.uleb128 0x13
 9878 01b8 20       		.uleb128 0x20
 9879 01b9 0B       		.uleb128 0xb
 9880 01ba 01       		.uleb128 0x1
 9881 01bb 13       		.uleb128 0x13
 9882 01bc 00       		.byte	0
 9883 01bd 00       		.byte	0
 9884 01be 25       		.uleb128 0x25
 9885 01bf 05       		.uleb128 0x5
 9886 01c0 00       		.byte	0
 9887 01c1 03       		.uleb128 0x3
 9888 01c2 08       		.uleb128 0x8
 9889 01c3 3A       		.uleb128 0x3a
 9890 01c4 0B       		.uleb128 0xb
 9891 01c5 3B       		.uleb128 0x3b
 9892 01c6 05       		.uleb128 0x5
 9893 01c7 49       		.uleb128 0x49
 9894 01c8 13       		.uleb128 0x13
ARM GAS  C:\Users\haske\AppData\Local\Temp\cc7ZkKza.s 			page 211


 9895 01c9 00       		.byte	0
 9896 01ca 00       		.byte	0
 9897 01cb 26       		.uleb128 0x26
 9898 01cc 2E       		.uleb128 0x2e
 9899 01cd 01       		.byte	0x1
 9900 01ce 03       		.uleb128 0x3
 9901 01cf 0E       		.uleb128 0xe
 9902 01d0 3A       		.uleb128 0x3a
 9903 01d1 0B       		.uleb128 0xb
 9904 01d2 3B       		.uleb128 0x3b
 9905 01d3 0B       		.uleb128 0xb
 9906 01d4 27       		.uleb128 0x27
 9907 01d5 19       		.uleb128 0x19
 9908 01d6 49       		.uleb128 0x49
 9909 01d7 13       		.uleb128 0x13
 9910 01d8 20       		.uleb128 0x20
 9911 01d9 0B       		.uleb128 0xb
 9912 01da 01       		.uleb128 0x1
 9913 01db 13       		.uleb128 0x13
 9914 01dc 00       		.byte	0
 9915 01dd 00       		.byte	0
 9916 01de 27       		.uleb128 0x27
 9917 01df 05       		.uleb128 0x5
 9918 01e0 00       		.byte	0
 9919 01e1 03       		.uleb128 0x3
 9920 01e2 0E       		.uleb128 0xe
 9921 01e3 3A       		.uleb128 0x3a
 9922 01e4 0B       		.uleb128 0xb
 9923 01e5 3B       		.uleb128 0x3b
 9924 01e6 0B       		.uleb128 0xb
 9925 01e7 49       		.uleb128 0x49
 9926 01e8 13       		.uleb128 0x13
 9927 01e9 00       		.byte	0
 9928 01ea 00       		.byte	0
 9929 01eb 28       		.uleb128 0x28
 9930 01ec 34       		.uleb128 0x34
 9931 01ed 00       		.byte	0
 9932 01ee 03       		.uleb128 0x3
 9933 01ef 08       		.uleb128 0x8
 9934 01f0 3A       		.uleb128 0x3a
 9935 01f1 0B       		.uleb128 0xb
 9936 01f2 3B       		.uleb128 0x3b
 9937 01f3 05       		.uleb128 0x5
 9938 01f4 49       		.uleb128 0x49
 9939 01f5 13       		.uleb128 0x13
 9940 01f6 00       		.byte	0
 9941 01f7 00       		.byte	0
 9942 01f8 29       		.uleb128 0x29
 9943 01f9 34       		.uleb128 0x34
 9944 01fa 00       		.byte	0
 9945 01fb 03       		.uleb128 0x3
 9946 01fc 0E       		.uleb128 0xe
 9947 01fd 3A       		.uleb128 0x3a
 9948 01fe 0B       		.uleb128 0xb
 9949 01ff 3B       		.uleb128 0x3b
 9950 0200 05       		.uleb128 0x5
 9951 0201 49       		.uleb128 0x49
ARM GAS  C:\Users\haske\AppData\Local\Temp\cc7ZkKza.s 			page 212


 9952 0202 13       		.uleb128 0x13
 9953 0203 00       		.byte	0
 9954 0204 00       		.byte	0
 9955 0205 2A       		.uleb128 0x2a
 9956 0206 2E       		.uleb128 0x2e
 9957 0207 01       		.byte	0x1
 9958 0208 03       		.uleb128 0x3
 9959 0209 0E       		.uleb128 0xe
 9960 020a 3A       		.uleb128 0x3a
 9961 020b 0B       		.uleb128 0xb
 9962 020c 3B       		.uleb128 0x3b
 9963 020d 05       		.uleb128 0x5
 9964 020e 27       		.uleb128 0x27
 9965 020f 19       		.uleb128 0x19
 9966 0210 20       		.uleb128 0x20
 9967 0211 0B       		.uleb128 0xb
 9968 0212 01       		.uleb128 0x1
 9969 0213 13       		.uleb128 0x13
 9970 0214 00       		.byte	0
 9971 0215 00       		.byte	0
 9972 0216 2B       		.uleb128 0x2b
 9973 0217 2E       		.uleb128 0x2e
 9974 0218 00       		.byte	0
 9975 0219 03       		.uleb128 0x3
 9976 021a 0E       		.uleb128 0xe
 9977 021b 3A       		.uleb128 0x3a
 9978 021c 0B       		.uleb128 0xb
 9979 021d 3B       		.uleb128 0x3b
 9980 021e 05       		.uleb128 0x5
 9981 021f 27       		.uleb128 0x27
 9982 0220 19       		.uleb128 0x19
 9983 0221 49       		.uleb128 0x49
 9984 0222 13       		.uleb128 0x13
 9985 0223 20       		.uleb128 0x20
 9986 0224 0B       		.uleb128 0xb
 9987 0225 00       		.byte	0
 9988 0226 00       		.byte	0
 9989 0227 2C       		.uleb128 0x2c
 9990 0228 05       		.uleb128 0x5
 9991 0229 00       		.byte	0
 9992 022a 03       		.uleb128 0x3
 9993 022b 0E       		.uleb128 0xe
 9994 022c 3A       		.uleb128 0x3a
 9995 022d 0B       		.uleb128 0xb
 9996 022e 3B       		.uleb128 0x3b
 9997 022f 05       		.uleb128 0x5
 9998 0230 49       		.uleb128 0x49
 9999 0231 13       		.uleb128 0x13
 10000 0232 00       		.byte	0
 10001 0233 00       		.byte	0
 10002 0234 2D       		.uleb128 0x2d
 10003 0235 2E       		.uleb128 0x2e
 10004 0236 01       		.byte	0x1
 10005 0237 03       		.uleb128 0x3
 10006 0238 0E       		.uleb128 0xe
 10007 0239 3A       		.uleb128 0x3a
 10008 023a 0B       		.uleb128 0xb
ARM GAS  C:\Users\haske\AppData\Local\Temp\cc7ZkKza.s 			page 213


 10009 023b 3B       		.uleb128 0x3b
 10010 023c 05       		.uleb128 0x5
 10011 023d 27       		.uleb128 0x27
 10012 023e 19       		.uleb128 0x19
 10013 023f 11       		.uleb128 0x11
 10014 0240 01       		.uleb128 0x1
 10015 0241 12       		.uleb128 0x12
 10016 0242 06       		.uleb128 0x6
 10017 0243 40       		.uleb128 0x40
 10018 0244 18       		.uleb128 0x18
 10019 0245 9742     		.uleb128 0x2117
 10020 0247 19       		.uleb128 0x19
 10021 0248 01       		.uleb128 0x1
 10022 0249 13       		.uleb128 0x13
 10023 024a 00       		.byte	0
 10024 024b 00       		.byte	0
 10025 024c 2E       		.uleb128 0x2e
 10026 024d 05       		.uleb128 0x5
 10027 024e 00       		.byte	0
 10028 024f 03       		.uleb128 0x3
 10029 0250 0E       		.uleb128 0xe
 10030 0251 3A       		.uleb128 0x3a
 10031 0252 0B       		.uleb128 0xb
 10032 0253 3B       		.uleb128 0x3b
 10033 0254 05       		.uleb128 0x5
 10034 0255 49       		.uleb128 0x49
 10035 0256 13       		.uleb128 0x13
 10036 0257 02       		.uleb128 0x2
 10037 0258 17       		.uleb128 0x17
 10038 0259 00       		.byte	0
 10039 025a 00       		.byte	0
 10040 025b 2F       		.uleb128 0x2f
 10041 025c 05       		.uleb128 0x5
 10042 025d 00       		.byte	0
 10043 025e 03       		.uleb128 0x3
 10044 025f 08       		.uleb128 0x8
 10045 0260 3A       		.uleb128 0x3a
 10046 0261 0B       		.uleb128 0xb
 10047 0262 3B       		.uleb128 0x3b
 10048 0263 05       		.uleb128 0x5
 10049 0264 49       		.uleb128 0x49
 10050 0265 13       		.uleb128 0x13
 10051 0266 02       		.uleb128 0x2
 10052 0267 17       		.uleb128 0x17
 10053 0268 00       		.byte	0
 10054 0269 00       		.byte	0
 10055 026a 30       		.uleb128 0x30
 10056 026b 34       		.uleb128 0x34
 10057 026c 00       		.byte	0
 10058 026d 03       		.uleb128 0x3
 10059 026e 08       		.uleb128 0x8
 10060 026f 3A       		.uleb128 0x3a
 10061 0270 0B       		.uleb128 0xb
 10062 0271 3B       		.uleb128 0x3b
 10063 0272 05       		.uleb128 0x5
 10064 0273 49       		.uleb128 0x49
 10065 0274 13       		.uleb128 0x13
ARM GAS  C:\Users\haske\AppData\Local\Temp\cc7ZkKza.s 			page 214


 10066 0275 02       		.uleb128 0x2
 10067 0276 17       		.uleb128 0x17
 10068 0277 00       		.byte	0
 10069 0278 00       		.byte	0
 10070 0279 31       		.uleb128 0x31
 10071 027a 34       		.uleb128 0x34
 10072 027b 00       		.byte	0
 10073 027c 03       		.uleb128 0x3
 10074 027d 0E       		.uleb128 0xe
 10075 027e 3A       		.uleb128 0x3a
 10076 027f 0B       		.uleb128 0xb
 10077 0280 3B       		.uleb128 0x3b
 10078 0281 05       		.uleb128 0x5
 10079 0282 49       		.uleb128 0x49
 10080 0283 13       		.uleb128 0x13
 10081 0284 02       		.uleb128 0x2
 10082 0285 17       		.uleb128 0x17
 10083 0286 00       		.byte	0
 10084 0287 00       		.byte	0
 10085 0288 32       		.uleb128 0x32
 10086 0289 1D       		.uleb128 0x1d
 10087 028a 01       		.byte	0x1
 10088 028b 31       		.uleb128 0x31
 10089 028c 13       		.uleb128 0x13
 10090 028d 11       		.uleb128 0x11
 10091 028e 01       		.uleb128 0x1
 10092 028f 12       		.uleb128 0x12
 10093 0290 06       		.uleb128 0x6
 10094 0291 58       		.uleb128 0x58
 10095 0292 0B       		.uleb128 0xb
 10096 0293 59       		.uleb128 0x59
 10097 0294 05       		.uleb128 0x5
 10098 0295 01       		.uleb128 0x1
 10099 0296 13       		.uleb128 0x13
 10100 0297 00       		.byte	0
 10101 0298 00       		.byte	0
 10102 0299 33       		.uleb128 0x33
 10103 029a 05       		.uleb128 0x5
 10104 029b 00       		.byte	0
 10105 029c 31       		.uleb128 0x31
 10106 029d 13       		.uleb128 0x13
 10107 029e 02       		.uleb128 0x2
 10108 029f 17       		.uleb128 0x17
 10109 02a0 00       		.byte	0
 10110 02a1 00       		.byte	0
 10111 02a2 34       		.uleb128 0x34
 10112 02a3 0B       		.uleb128 0xb
 10113 02a4 01       		.byte	0x1
 10114 02a5 11       		.uleb128 0x11
 10115 02a6 01       		.uleb128 0x1
 10116 02a7 12       		.uleb128 0x12
 10117 02a8 06       		.uleb128 0x6
 10118 02a9 01       		.uleb128 0x1
 10119 02aa 13       		.uleb128 0x13
 10120 02ab 00       		.byte	0
 10121 02ac 00       		.byte	0
 10122 02ad 35       		.uleb128 0x35
ARM GAS  C:\Users\haske\AppData\Local\Temp\cc7ZkKza.s 			page 215


 10123 02ae 898201   		.uleb128 0x4109
 10124 02b1 01       		.byte	0x1
 10125 02b2 11       		.uleb128 0x11
 10126 02b3 01       		.uleb128 0x1
 10127 02b4 9342     		.uleb128 0x2113
 10128 02b6 18       		.uleb128 0x18
 10129 02b7 01       		.uleb128 0x1
 10130 02b8 13       		.uleb128 0x13
 10131 02b9 00       		.byte	0
 10132 02ba 00       		.byte	0
 10133 02bb 36       		.uleb128 0x36
 10134 02bc 8A8201   		.uleb128 0x410a
 10135 02bf 00       		.byte	0
 10136 02c0 02       		.uleb128 0x2
 10137 02c1 18       		.uleb128 0x18
 10138 02c2 9142     		.uleb128 0x2111
 10139 02c4 18       		.uleb128 0x18
 10140 02c5 00       		.byte	0
 10141 02c6 00       		.byte	0
 10142 02c7 37       		.uleb128 0x37
 10143 02c8 898201   		.uleb128 0x4109
 10144 02cb 01       		.byte	0x1
 10145 02cc 11       		.uleb128 0x11
 10146 02cd 01       		.uleb128 0x1
 10147 02ce 00       		.byte	0
 10148 02cf 00       		.byte	0
 10149 02d0 38       		.uleb128 0x38
 10150 02d1 0B       		.uleb128 0xb
 10151 02d2 01       		.byte	0x1
 10152 02d3 11       		.uleb128 0x11
 10153 02d4 01       		.uleb128 0x1
 10154 02d5 12       		.uleb128 0x12
 10155 02d6 06       		.uleb128 0x6
 10156 02d7 00       		.byte	0
 10157 02d8 00       		.byte	0
 10158 02d9 39       		.uleb128 0x39
 10159 02da 898201   		.uleb128 0x4109
 10160 02dd 01       		.byte	0x1
 10161 02de 11       		.uleb128 0x11
 10162 02df 01       		.uleb128 0x1
 10163 02e0 01       		.uleb128 0x1
 10164 02e1 13       		.uleb128 0x13
 10165 02e2 00       		.byte	0
 10166 02e3 00       		.byte	0
 10167 02e4 3A       		.uleb128 0x3a
 10168 02e5 898201   		.uleb128 0x4109
 10169 02e8 01       		.byte	0x1
 10170 02e9 11       		.uleb128 0x11
 10171 02ea 01       		.uleb128 0x1
 10172 02eb 9342     		.uleb128 0x2113
 10173 02ed 18       		.uleb128 0x18
 10174 02ee 00       		.byte	0
 10175 02ef 00       		.byte	0
 10176 02f0 3B       		.uleb128 0x3b
 10177 02f1 2E       		.uleb128 0x2e
 10178 02f2 01       		.byte	0x1
 10179 02f3 03       		.uleb128 0x3
ARM GAS  C:\Users\haske\AppData\Local\Temp\cc7ZkKza.s 			page 216


 10180 02f4 0E       		.uleb128 0xe
 10181 02f5 3A       		.uleb128 0x3a
 10182 02f6 0B       		.uleb128 0xb
 10183 02f7 3B       		.uleb128 0x3b
 10184 02f8 05       		.uleb128 0x5
 10185 02f9 27       		.uleb128 0x27
 10186 02fa 19       		.uleb128 0x19
 10187 02fb 49       		.uleb128 0x49
 10188 02fc 13       		.uleb128 0x13
 10189 02fd 11       		.uleb128 0x11
 10190 02fe 01       		.uleb128 0x1
 10191 02ff 12       		.uleb128 0x12
 10192 0300 06       		.uleb128 0x6
 10193 0301 40       		.uleb128 0x40
 10194 0302 18       		.uleb128 0x18
 10195 0303 9742     		.uleb128 0x2117
 10196 0305 19       		.uleb128 0x19
 10197 0306 01       		.uleb128 0x1
 10198 0307 13       		.uleb128 0x13
 10199 0308 00       		.byte	0
 10200 0309 00       		.byte	0
 10201 030a 3C       		.uleb128 0x3c
 10202 030b 1D       		.uleb128 0x1d
 10203 030c 01       		.byte	0x1
 10204 030d 31       		.uleb128 0x31
 10205 030e 13       		.uleb128 0x13
 10206 030f 11       		.uleb128 0x11
 10207 0310 01       		.uleb128 0x1
 10208 0311 12       		.uleb128 0x12
 10209 0312 06       		.uleb128 0x6
 10210 0313 58       		.uleb128 0x58
 10211 0314 0B       		.uleb128 0xb
 10212 0315 59       		.uleb128 0x59
 10213 0316 05       		.uleb128 0x5
 10214 0317 00       		.byte	0
 10215 0318 00       		.byte	0
 10216 0319 3D       		.uleb128 0x3d
 10217 031a 05       		.uleb128 0x5
 10218 031b 00       		.byte	0
 10219 031c 31       		.uleb128 0x31
 10220 031d 13       		.uleb128 0x13
 10221 031e 00       		.byte	0
 10222 031f 00       		.byte	0
 10223 0320 3E       		.uleb128 0x3e
 10224 0321 34       		.uleb128 0x34
 10225 0322 00       		.byte	0
 10226 0323 31       		.uleb128 0x31
 10227 0324 13       		.uleb128 0x13
 10228 0325 00       		.byte	0
 10229 0326 00       		.byte	0
 10230 0327 3F       		.uleb128 0x3f
 10231 0328 34       		.uleb128 0x34
 10232 0329 00       		.byte	0
 10233 032a 31       		.uleb128 0x31
 10234 032b 13       		.uleb128 0x13
 10235 032c 02       		.uleb128 0x2
 10236 032d 17       		.uleb128 0x17
ARM GAS  C:\Users\haske\AppData\Local\Temp\cc7ZkKza.s 			page 217


 10237 032e 00       		.byte	0
 10238 032f 00       		.byte	0
 10239 0330 40       		.uleb128 0x40
 10240 0331 2E       		.uleb128 0x2e
 10241 0332 01       		.byte	0x1
 10242 0333 03       		.uleb128 0x3
 10243 0334 0E       		.uleb128 0xe
 10244 0335 3A       		.uleb128 0x3a
 10245 0336 0B       		.uleb128 0xb
 10246 0337 3B       		.uleb128 0x3b
 10247 0338 0B       		.uleb128 0xb
 10248 0339 27       		.uleb128 0x27
 10249 033a 19       		.uleb128 0x19
 10250 033b 11       		.uleb128 0x11
 10251 033c 01       		.uleb128 0x1
 10252 033d 12       		.uleb128 0x12
 10253 033e 06       		.uleb128 0x6
 10254 033f 40       		.uleb128 0x40
 10255 0340 18       		.uleb128 0x18
 10256 0341 9742     		.uleb128 0x2117
 10257 0343 19       		.uleb128 0x19
 10258 0344 01       		.uleb128 0x1
 10259 0345 13       		.uleb128 0x13
 10260 0346 00       		.byte	0
 10261 0347 00       		.byte	0
 10262 0348 41       		.uleb128 0x41
 10263 0349 05       		.uleb128 0x5
 10264 034a 00       		.byte	0
 10265 034b 03       		.uleb128 0x3
 10266 034c 0E       		.uleb128 0xe
 10267 034d 3A       		.uleb128 0x3a
 10268 034e 0B       		.uleb128 0xb
 10269 034f 3B       		.uleb128 0x3b
 10270 0350 0B       		.uleb128 0xb
 10271 0351 49       		.uleb128 0x49
 10272 0352 13       		.uleb128 0x13
 10273 0353 02       		.uleb128 0x2
 10274 0354 17       		.uleb128 0x17
 10275 0355 00       		.byte	0
 10276 0356 00       		.byte	0
 10277 0357 42       		.uleb128 0x42
 10278 0358 05       		.uleb128 0x5
 10279 0359 00       		.byte	0
 10280 035a 03       		.uleb128 0x3
 10281 035b 08       		.uleb128 0x8
 10282 035c 3A       		.uleb128 0x3a
 10283 035d 0B       		.uleb128 0xb
 10284 035e 3B       		.uleb128 0x3b
 10285 035f 0B       		.uleb128 0xb
 10286 0360 49       		.uleb128 0x49
 10287 0361 13       		.uleb128 0x13
 10288 0362 02       		.uleb128 0x2
 10289 0363 18       		.uleb128 0x18
 10290 0364 00       		.byte	0
 10291 0365 00       		.byte	0
 10292 0366 43       		.uleb128 0x43
 10293 0367 05       		.uleb128 0x5
ARM GAS  C:\Users\haske\AppData\Local\Temp\cc7ZkKza.s 			page 218


 10294 0368 00       		.byte	0
 10295 0369 03       		.uleb128 0x3
 10296 036a 0E       		.uleb128 0xe
 10297 036b 3A       		.uleb128 0x3a
 10298 036c 0B       		.uleb128 0xb
 10299 036d 3B       		.uleb128 0x3b
 10300 036e 0B       		.uleb128 0xb
 10301 036f 49       		.uleb128 0x49
 10302 0370 13       		.uleb128 0x13
 10303 0371 02       		.uleb128 0x2
 10304 0372 18       		.uleb128 0x18
 10305 0373 00       		.byte	0
 10306 0374 00       		.byte	0
 10307 0375 44       		.uleb128 0x44
 10308 0376 34       		.uleb128 0x34
 10309 0377 00       		.byte	0
 10310 0378 03       		.uleb128 0x3
 10311 0379 0E       		.uleb128 0xe
 10312 037a 3A       		.uleb128 0x3a
 10313 037b 0B       		.uleb128 0xb
 10314 037c 3B       		.uleb128 0x3b
 10315 037d 0B       		.uleb128 0xb
 10316 037e 49       		.uleb128 0x49
 10317 037f 13       		.uleb128 0x13
 10318 0380 02       		.uleb128 0x2
 10319 0381 17       		.uleb128 0x17
 10320 0382 00       		.byte	0
 10321 0383 00       		.byte	0
 10322 0384 45       		.uleb128 0x45
 10323 0385 34       		.uleb128 0x34
 10324 0386 00       		.byte	0
 10325 0387 03       		.uleb128 0x3
 10326 0388 08       		.uleb128 0x8
 10327 0389 3A       		.uleb128 0x3a
 10328 038a 0B       		.uleb128 0xb
 10329 038b 3B       		.uleb128 0x3b
 10330 038c 0B       		.uleb128 0xb
 10331 038d 49       		.uleb128 0x49
 10332 038e 13       		.uleb128 0x13
 10333 038f 02       		.uleb128 0x2
 10334 0390 17       		.uleb128 0x17
 10335 0391 00       		.byte	0
 10336 0392 00       		.byte	0
 10337 0393 46       		.uleb128 0x46
 10338 0394 1D       		.uleb128 0x1d
 10339 0395 01       		.byte	0x1
 10340 0396 31       		.uleb128 0x31
 10341 0397 13       		.uleb128 0x13
 10342 0398 11       		.uleb128 0x11
 10343 0399 01       		.uleb128 0x1
 10344 039a 12       		.uleb128 0x12
 10345 039b 06       		.uleb128 0x6
 10346 039c 58       		.uleb128 0x58
 10347 039d 0B       		.uleb128 0xb
 10348 039e 59       		.uleb128 0x59
 10349 039f 0B       		.uleb128 0xb
 10350 03a0 01       		.uleb128 0x1
ARM GAS  C:\Users\haske\AppData\Local\Temp\cc7ZkKza.s 			page 219


 10351 03a1 13       		.uleb128 0x13
 10352 03a2 00       		.byte	0
 10353 03a3 00       		.byte	0
 10354 03a4 47       		.uleb128 0x47
 10355 03a5 898201   		.uleb128 0x4109
 10356 03a8 00       		.byte	0
 10357 03a9 11       		.uleb128 0x11
 10358 03aa 01       		.uleb128 0x1
 10359 03ab 31       		.uleb128 0x31
 10360 03ac 13       		.uleb128 0x13
 10361 03ad 00       		.byte	0
 10362 03ae 00       		.byte	0
 10363 03af 48       		.uleb128 0x48
 10364 03b0 05       		.uleb128 0x5
 10365 03b1 00       		.byte	0
 10366 03b2 03       		.uleb128 0x3
 10367 03b3 0E       		.uleb128 0xe
 10368 03b4 3A       		.uleb128 0x3a
 10369 03b5 0B       		.uleb128 0xb
 10370 03b6 3B       		.uleb128 0x3b
 10371 03b7 05       		.uleb128 0x5
 10372 03b8 49       		.uleb128 0x49
 10373 03b9 13       		.uleb128 0x13
 10374 03ba 02       		.uleb128 0x2
 10375 03bb 18       		.uleb128 0x18
 10376 03bc 00       		.byte	0
 10377 03bd 00       		.byte	0
 10378 03be 49       		.uleb128 0x49
 10379 03bf 05       		.uleb128 0x5
 10380 03c0 00       		.byte	0
 10381 03c1 03       		.uleb128 0x3
 10382 03c2 08       		.uleb128 0x8
 10383 03c3 3A       		.uleb128 0x3a
 10384 03c4 0B       		.uleb128 0xb
 10385 03c5 3B       		.uleb128 0x3b
 10386 03c6 05       		.uleb128 0x5
 10387 03c7 49       		.uleb128 0x49
 10388 03c8 13       		.uleb128 0x13
 10389 03c9 02       		.uleb128 0x2
 10390 03ca 18       		.uleb128 0x18
 10391 03cb 00       		.byte	0
 10392 03cc 00       		.byte	0
 10393 03cd 4A       		.uleb128 0x4a
 10394 03ce 34       		.uleb128 0x34
 10395 03cf 00       		.byte	0
 10396 03d0 03       		.uleb128 0x3
 10397 03d1 08       		.uleb128 0x8
 10398 03d2 3A       		.uleb128 0x3a
 10399 03d3 0B       		.uleb128 0xb
 10400 03d4 3B       		.uleb128 0x3b
 10401 03d5 05       		.uleb128 0x5
 10402 03d6 49       		.uleb128 0x49
 10403 03d7 13       		.uleb128 0x13
 10404 03d8 02       		.uleb128 0x2
 10405 03d9 18       		.uleb128 0x18
 10406 03da 00       		.byte	0
 10407 03db 00       		.byte	0
ARM GAS  C:\Users\haske\AppData\Local\Temp\cc7ZkKza.s 			page 220


 10408 03dc 4B       		.uleb128 0x4b
 10409 03dd 05       		.uleb128 0x5
 10410 03de 00       		.byte	0
 10411 03df 03       		.uleb128 0x3
 10412 03e0 08       		.uleb128 0x8
 10413 03e1 3A       		.uleb128 0x3a
 10414 03e2 0B       		.uleb128 0xb
 10415 03e3 3B       		.uleb128 0x3b
 10416 03e4 0B       		.uleb128 0xb
 10417 03e5 49       		.uleb128 0x49
 10418 03e6 13       		.uleb128 0x13
 10419 03e7 02       		.uleb128 0x2
 10420 03e8 17       		.uleb128 0x17
 10421 03e9 00       		.byte	0
 10422 03ea 00       		.byte	0
 10423 03eb 4C       		.uleb128 0x4c
 10424 03ec 898201   		.uleb128 0x4109
 10425 03ef 01       		.byte	0x1
 10426 03f0 11       		.uleb128 0x11
 10427 03f1 01       		.uleb128 0x1
 10428 03f2 31       		.uleb128 0x31
 10429 03f3 13       		.uleb128 0x13
 10430 03f4 00       		.byte	0
 10431 03f5 00       		.byte	0
 10432 03f6 4D       		.uleb128 0x4d
 10433 03f7 0B       		.uleb128 0xb
 10434 03f8 01       		.byte	0x1
 10435 03f9 55       		.uleb128 0x55
 10436 03fa 17       		.uleb128 0x17
 10437 03fb 00       		.byte	0
 10438 03fc 00       		.byte	0
 10439 03fd 4E       		.uleb128 0x4e
 10440 03fe 2E       		.uleb128 0x2e
 10441 03ff 01       		.byte	0x1
 10442 0400 3F       		.uleb128 0x3f
 10443 0401 19       		.uleb128 0x19
 10444 0402 03       		.uleb128 0x3
 10445 0403 0E       		.uleb128 0xe
 10446 0404 3A       		.uleb128 0x3a
 10447 0405 0B       		.uleb128 0xb
 10448 0406 3B       		.uleb128 0x3b
 10449 0407 0B       		.uleb128 0xb
 10450 0408 27       		.uleb128 0x27
 10451 0409 19       		.uleb128 0x19
 10452 040a 11       		.uleb128 0x11
 10453 040b 01       		.uleb128 0x1
 10454 040c 12       		.uleb128 0x12
 10455 040d 06       		.uleb128 0x6
 10456 040e 40       		.uleb128 0x40
 10457 040f 18       		.uleb128 0x18
 10458 0410 9742     		.uleb128 0x2117
 10459 0412 19       		.uleb128 0x19
 10460 0413 01       		.uleb128 0x1
 10461 0414 13       		.uleb128 0x13
 10462 0415 00       		.byte	0
 10463 0416 00       		.byte	0
 10464 0417 4F       		.uleb128 0x4f
ARM GAS  C:\Users\haske\AppData\Local\Temp\cc7ZkKza.s 			page 221


 10465 0418 34       		.uleb128 0x34
 10466 0419 00       		.byte	0
 10467 041a 03       		.uleb128 0x3
 10468 041b 0E       		.uleb128 0xe
 10469 041c 3A       		.uleb128 0x3a
 10470 041d 0B       		.uleb128 0xb
 10471 041e 3B       		.uleb128 0x3b
 10472 041f 0B       		.uleb128 0xb
 10473 0420 49       		.uleb128 0x49
 10474 0421 13       		.uleb128 0x13
 10475 0422 02       		.uleb128 0x2
 10476 0423 18       		.uleb128 0x18
 10477 0424 00       		.byte	0
 10478 0425 00       		.byte	0
 10479 0426 50       		.uleb128 0x50
 10480 0427 898201   		.uleb128 0x4109
 10481 042a 01       		.byte	0x1
 10482 042b 11       		.uleb128 0x11
 10483 042c 01       		.uleb128 0x1
 10484 042d 31       		.uleb128 0x31
 10485 042e 13       		.uleb128 0x13
 10486 042f 01       		.uleb128 0x1
 10487 0430 13       		.uleb128 0x13
 10488 0431 00       		.byte	0
 10489 0432 00       		.byte	0
 10490 0433 51       		.uleb128 0x51
 10491 0434 34       		.uleb128 0x34
 10492 0435 00       		.byte	0
 10493 0436 03       		.uleb128 0x3
 10494 0437 0E       		.uleb128 0xe
 10495 0438 3A       		.uleb128 0x3a
 10496 0439 0B       		.uleb128 0xb
 10497 043a 3B       		.uleb128 0x3b
 10498 043b 0B       		.uleb128 0xb
 10499 043c 49       		.uleb128 0x49
 10500 043d 13       		.uleb128 0x13
 10501 043e 00       		.byte	0
 10502 043f 00       		.byte	0
 10503 0440 52       		.uleb128 0x52
 10504 0441 34       		.uleb128 0x34
 10505 0442 00       		.byte	0
 10506 0443 03       		.uleb128 0x3
 10507 0444 0E       		.uleb128 0xe
 10508 0445 3A       		.uleb128 0x3a
 10509 0446 0B       		.uleb128 0xb
 10510 0447 3B       		.uleb128 0x3b
 10511 0448 0B       		.uleb128 0xb
 10512 0449 49       		.uleb128 0x49
 10513 044a 13       		.uleb128 0x13
 10514 044b 3F       		.uleb128 0x3f
 10515 044c 19       		.uleb128 0x19
 10516 044d 3C       		.uleb128 0x3c
 10517 044e 19       		.uleb128 0x19
 10518 044f 00       		.byte	0
 10519 0450 00       		.byte	0
 10520 0451 53       		.uleb128 0x53
 10521 0452 2E       		.uleb128 0x2e
ARM GAS  C:\Users\haske\AppData\Local\Temp\cc7ZkKza.s 			page 222


 10522 0453 00       		.byte	0
 10523 0454 3F       		.uleb128 0x3f
 10524 0455 19       		.uleb128 0x19
 10525 0456 3C       		.uleb128 0x3c
 10526 0457 19       		.uleb128 0x19
 10527 0458 6E       		.uleb128 0x6e
 10528 0459 0E       		.uleb128 0xe
 10529 045a 03       		.uleb128 0x3
 10530 045b 0E       		.uleb128 0xe
 10531 045c 3A       		.uleb128 0x3a
 10532 045d 0B       		.uleb128 0xb
 10533 045e 3B       		.uleb128 0x3b
 10534 045f 0B       		.uleb128 0xb
 10535 0460 00       		.byte	0
 10536 0461 00       		.byte	0
 10537 0462 54       		.uleb128 0x54
 10538 0463 2E       		.uleb128 0x2e
 10539 0464 00       		.byte	0
 10540 0465 3F       		.uleb128 0x3f
 10541 0466 19       		.uleb128 0x19
 10542 0467 3C       		.uleb128 0x3c
 10543 0468 19       		.uleb128 0x19
 10544 0469 6E       		.uleb128 0x6e
 10545 046a 0E       		.uleb128 0xe
 10546 046b 03       		.uleb128 0x3
 10547 046c 0E       		.uleb128 0xe
 10548 046d 3A       		.uleb128 0x3a
 10549 046e 0B       		.uleb128 0xb
 10550 046f 3B       		.uleb128 0x3b
 10551 0470 05       		.uleb128 0x5
 10552 0471 00       		.byte	0
 10553 0472 00       		.byte	0
 10554 0473 00       		.byte	0
 10555              		.section	.debug_loc,"",%progbits
 10556              	.Ldebug_loc0:
 10557              	.LLST0:
 10558 0000 00000000 		.4byte	.LVL0
 10559 0004 6C000000 		.4byte	.LVL10
 10560 0008 0100     		.2byte	0x1
 10561 000a 50       		.byte	0x50
 10562 000b 6C000000 		.4byte	.LVL10
 10563 000f B0000000 		.4byte	.LVL22
 10564 0013 0100     		.2byte	0x1
 10565 0015 57       		.byte	0x57
 10566 0016 B0000000 		.4byte	.LVL22
 10567 001a CE000000 		.4byte	.LVL25
 10568 001e 0100     		.2byte	0x1
 10569 0020 50       		.byte	0x50
 10570 0021 CE000000 		.4byte	.LVL25
 10571 0025 3E010000 		.4byte	.LVL44
 10572 0029 0100     		.2byte	0x1
 10573 002b 57       		.byte	0x57
 10574 002c 00000000 		.4byte	0
 10575 0030 00000000 		.4byte	0
 10576              	.LLST1:
 10577 0034 00000000 		.4byte	.LVL0
 10578 0038 3C000000 		.4byte	.LVL4
ARM GAS  C:\Users\haske\AppData\Local\Temp\cc7ZkKza.s 			page 223


 10579 003c 0100     		.2byte	0x1
 10580 003e 51       		.byte	0x51
 10581 003f 3C000000 		.4byte	.LVL4
 10582 0043 4C010000 		.4byte	.LFE163
 10583 0047 0400     		.2byte	0x4
 10584 0049 F3       		.byte	0xf3
 10585 004a 01       		.uleb128 0x1
 10586 004b 51       		.byte	0x51
 10587 004c 9F       		.byte	0x9f
 10588 004d 00000000 		.4byte	0
 10589 0051 00000000 		.4byte	0
 10590              	.LLST2:
 10591 0055 00000000 		.4byte	.LVL0
 10592 0059 20000000 		.4byte	.LVL2
 10593 005d 0100     		.2byte	0x1
 10594 005f 52       		.byte	0x52
 10595 0060 20000000 		.4byte	.LVL2
 10596 0064 4C010000 		.4byte	.LFE163
 10597 0068 0400     		.2byte	0x4
 10598 006a F3       		.byte	0xf3
 10599 006b 01       		.uleb128 0x1
 10600 006c 52       		.byte	0x52
 10601 006d 9F       		.byte	0x9f
 10602 006e 00000000 		.4byte	0
 10603 0072 00000000 		.4byte	0
 10604              	.LLST3:
 10605 0076 00000000 		.4byte	.LVL0
 10606 007a 12000000 		.4byte	.LVL1
 10607 007e 0100     		.2byte	0x1
 10608 0080 53       		.byte	0x53
 10609 0081 00000000 		.4byte	0
 10610 0085 00000000 		.4byte	0
 10611              	.LLST4:
 10612 0089 00000000 		.4byte	.LVL0
 10613 008d 3E010000 		.4byte	.LVL44
 10614 0091 0200     		.2byte	0x2
 10615 0093 91       		.byte	0x91
 10616 0094 00       		.sleb128 0
 10617 0095 3E010000 		.4byte	.LVL44
 10618 0099 4C010000 		.4byte	.LFE163
 10619 009d 0200     		.2byte	0x2
 10620 009f 7D       		.byte	0x7d
 10621 00a0 00       		.sleb128 0
 10622 00a1 00000000 		.4byte	0
 10623 00a5 00000000 		.4byte	0
 10624              	.LLST5:
 10625 00a9 00000000 		.4byte	.LVL0
 10626 00ad D8000000 		.4byte	.LVL28
 10627 00b1 0200     		.2byte	0x2
 10628 00b3 91       		.byte	0x91
 10629 00b4 04       		.sleb128 4
 10630 00b5 1E010000 		.4byte	.LVL38
 10631 00b9 20010000 		.4byte	.LVL39
 10632 00bd 0100     		.2byte	0x1
 10633 00bf 56       		.byte	0x56
 10634 00c0 2E010000 		.4byte	.LVL41
 10635 00c4 38010000 		.4byte	.LVL43
ARM GAS  C:\Users\haske\AppData\Local\Temp\cc7ZkKza.s 			page 224


 10636 00c8 0100     		.2byte	0x1
 10637 00ca 56       		.byte	0x56
 10638 00cb 00000000 		.4byte	0
 10639 00cf 00000000 		.4byte	0
 10640              	.LLST6:
 10641 00d3 00000000 		.4byte	.LVL0
 10642 00d7 3E010000 		.4byte	.LVL44
 10643 00db 0200     		.2byte	0x2
 10644 00dd 91       		.byte	0x91
 10645 00de 08       		.sleb128 8
 10646 00df 3E010000 		.4byte	.LVL44
 10647 00e3 4C010000 		.4byte	.LFE163
 10648 00e7 0200     		.2byte	0x2
 10649 00e9 7D       		.byte	0x7d
 10650 00ea 08       		.sleb128 8
 10651 00eb 00000000 		.4byte	0
 10652 00ef 00000000 		.4byte	0
 10653              	.LLST7:
 10654 00f3 00000000 		.4byte	.LVL0
 10655 00f7 3E010000 		.4byte	.LVL44
 10656 00fb 0200     		.2byte	0x2
 10657 00fd 91       		.byte	0x91
 10658 00fe 0C       		.sleb128 12
 10659 00ff 3E010000 		.4byte	.LVL44
 10660 0103 4C010000 		.4byte	.LFE163
 10661 0107 0200     		.2byte	0x2
 10662 0109 7D       		.byte	0x7d
 10663 010a 0C       		.sleb128 12
 10664 010b 00000000 		.4byte	0
 10665 010f 00000000 		.4byte	0
 10666              	.LLST8:
 10667 0113 34000000 		.4byte	.LVL3
 10668 0117 3E010000 		.4byte	.LVL44
 10669 011b 0100     		.2byte	0x1
 10670 011d 59       		.byte	0x59
 10671 011e 00000000 		.4byte	0
 10672 0122 00000000 		.4byte	0
 10673              	.LLST9:
 10674 0126 44000000 		.4byte	.LVL5
 10675 012a 6D000000 		.4byte	.LVL11-1
 10676 012e 0100     		.2byte	0x1
 10677 0130 53       		.byte	0x53
 10678 0131 6D000000 		.4byte	.LVL11-1
 10679 0135 B0000000 		.4byte	.LVL22
 10680 0139 0200     		.2byte	0x2
 10681 013b 91       		.byte	0x91
 10682 013c 4C       		.sleb128 -52
 10683 013d B0000000 		.4byte	.LVL22
 10684 0141 B6000000 		.4byte	.LVL23
 10685 0145 0100     		.2byte	0x1
 10686 0147 53       		.byte	0x53
 10687 0148 B6000000 		.4byte	.LVL23
 10688 014c 3E010000 		.4byte	.LVL44
 10689 0150 0200     		.2byte	0x2
 10690 0152 91       		.byte	0x91
 10691 0153 4C       		.sleb128 -52
 10692 0154 3E010000 		.4byte	.LVL44
ARM GAS  C:\Users\haske\AppData\Local\Temp\cc7ZkKza.s 			page 225


 10693 0158 4C010000 		.4byte	.LFE163
 10694 015c 0200     		.2byte	0x2
 10695 015e 7D       		.byte	0x7d
 10696 015f 4C       		.sleb128 -52
 10697 0160 00000000 		.4byte	0
 10698 0164 00000000 		.4byte	0
 10699              	.LLST10:
 10700 0168 78000000 		.4byte	.LVL12
 10701 016c 9A000000 		.4byte	.LVL18
 10702 0170 0100     		.2byte	0x1
 10703 0172 54       		.byte	0x54
 10704 0173 9C000000 		.4byte	.LVL19
 10705 0177 AA000000 		.4byte	.LVL21
 10706 017b 0100     		.2byte	0x1
 10707 017d 54       		.byte	0x54
 10708 017e D8000000 		.4byte	.LVL28
 10709 0182 1E010000 		.4byte	.LVL38
 10710 0186 0100     		.2byte	0x1
 10711 0188 54       		.byte	0x54
 10712 0189 20010000 		.4byte	.LVL39
 10713 018d 32010000 		.4byte	.LVL42
 10714 0191 0100     		.2byte	0x1
 10715 0193 54       		.byte	0x54
 10716 0194 00000000 		.4byte	0
 10717 0198 00000000 		.4byte	0
 10718              	.LLST11:
 10719 019c 6E000000 		.4byte	.LVL11
 10720 01a0 78000000 		.4byte	.LVL12
 10721 01a4 0200     		.2byte	0x2
 10722 01a6 30       		.byte	0x30
 10723 01a7 9F       		.byte	0x9f
 10724 01a8 78000000 		.4byte	.LVL12
 10725 01ac B0000000 		.4byte	.LVL22
 10726 01b0 0100     		.2byte	0x1
 10727 01b2 58       		.byte	0x58
 10728 01b3 D0000000 		.4byte	.LVL26
 10729 01b7 D8000000 		.4byte	.LVL28
 10730 01bb 0200     		.2byte	0x2
 10731 01bd 30       		.byte	0x30
 10732 01be 9F       		.byte	0x9f
 10733 01bf D8000000 		.4byte	.LVL28
 10734 01c3 38010000 		.4byte	.LVL43
 10735 01c7 0100     		.2byte	0x1
 10736 01c9 5A       		.byte	0x5a
 10737 01ca 00000000 		.4byte	0
 10738 01ce 00000000 		.4byte	0
 10739              	.LLST12:
 10740 01d2 56000000 		.4byte	.LVL6
 10741 01d6 5C000000 		.4byte	.LVL7
 10742 01da 0600     		.2byte	0x6
 10743 01dc 03       		.byte	0x3
 10744 01dd 00000000 		.4byte	color_blend_true_color_multiply
 10745 01e1 9F       		.byte	0x9f
 10746 01e2 60000000 		.4byte	.LVL8
 10747 01e6 38010000 		.4byte	.LVL43
 10748 01ea 0100     		.2byte	0x1
 10749 01ec 5B       		.byte	0x5b
ARM GAS  C:\Users\haske\AppData\Local\Temp\cc7ZkKza.s 			page 226


 10750 01ed 00000000 		.4byte	0
 10751 01f1 00000000 		.4byte	0
 10752              	.LLST13:
 10753 01f5 20000000 		.4byte	.LVL2
 10754 01f9 34000000 		.4byte	.LVL3
 10755 01fd 0100     		.2byte	0x1
 10756 01ff 51       		.byte	0x51
 10757 0200 00000000 		.4byte	0
 10758 0204 00000000 		.4byte	0
 10759              	.LLST14:
 10760 0208 34000000 		.4byte	.LVL3
 10761 020c 3C000000 		.4byte	.LVL4
 10762 0210 0100     		.2byte	0x1
 10763 0212 51       		.byte	0x51
 10764 0213 3C000000 		.4byte	.LVL4
 10765 0217 44000000 		.4byte	.LVL5
 10766 021b 0400     		.2byte	0x4
 10767 021d F3       		.byte	0xf3
 10768 021e 01       		.uleb128 0x1
 10769 021f 51       		.byte	0x51
 10770 0220 9F       		.byte	0x9f
 10771 0221 00000000 		.4byte	0
 10772 0225 00000000 		.4byte	0
 10773              	.LLST15:
 10774 0229 66000000 		.4byte	.LVL9
 10775 022d 8A000000 		.4byte	.LVL13
 10776 0231 0100     		.2byte	0x1
 10777 0233 55       		.byte	0x55
 10778 0234 8C000000 		.4byte	.LVL14
 10779 0238 B0000000 		.4byte	.LVL22
 10780 023c 0100     		.2byte	0x1
 10781 023e 55       		.byte	0x55
 10782 023f 38010000 		.4byte	.LVL43
 10783 0243 3E010000 		.4byte	.LVL44
 10784 0247 0100     		.2byte	0x1
 10785 0249 55       		.byte	0x55
 10786 024a 00000000 		.4byte	0
 10787 024e 00000000 		.4byte	0
 10788              	.LLST16:
 10789 0252 78000000 		.4byte	.LVL12
 10790 0256 92000000 		.4byte	.LVL15
 10791 025a 0100     		.2byte	0x1
 10792 025c 50       		.byte	0x50
 10793 025d 94000000 		.4byte	.LVL16
 10794 0261 B0000000 		.4byte	.LVL22
 10795 0265 0100     		.2byte	0x1
 10796 0267 50       		.byte	0x50
 10797 0268 38010000 		.4byte	.LVL43
 10798 026c 4C010000 		.4byte	.LFE163
 10799 0270 0100     		.2byte	0x1
 10800 0272 50       		.byte	0x50
 10801 0273 00000000 		.4byte	0
 10802 0277 00000000 		.4byte	0
 10803              	.LLST17:
 10804 027b C8000000 		.4byte	.LVL24
 10805 027f D6000000 		.4byte	.LVL27
 10806 0283 0100     		.2byte	0x1
ARM GAS  C:\Users\haske\AppData\Local\Temp\cc7ZkKza.s 			page 227


 10807 0285 5A       		.byte	0x5a
 10808 0286 D8000000 		.4byte	.LVL28
 10809 028a 08010000 		.4byte	.LVL32
 10810 028e 0100     		.2byte	0x1
 10811 0290 51       		.byte	0x51
 10812 0291 16010000 		.4byte	.LVL36
 10813 0295 4C010000 		.4byte	.LFE163
 10814 0299 0100     		.2byte	0x1
 10815 029b 51       		.byte	0x51
 10816 029c 00000000 		.4byte	0
 10817 02a0 00000000 		.4byte	0
 10818              	.LLST18:
 10819 02a4 D8000000 		.4byte	.LVL28
 10820 02a8 0C010000 		.4byte	.LVL33
 10821 02ac 0100     		.2byte	0x1
 10822 02ae 50       		.byte	0x50
 10823 02af 16010000 		.4byte	.LVL36
 10824 02b3 4C010000 		.4byte	.LFE163
 10825 02b7 0100     		.2byte	0x1
 10826 02b9 50       		.byte	0x50
 10827 02ba 00000000 		.4byte	0
 10828 02be 00000000 		.4byte	0
 10829              	.LLST19:
 10830 02c2 B0000000 		.4byte	.LVL22
 10831 02c6 D8000000 		.4byte	.LVL28
 10832 02ca 0200     		.2byte	0x2
 10833 02cc 30       		.byte	0x30
 10834 02cd 9F       		.byte	0x9f
 10835 02ce D8000000 		.4byte	.LVL28
 10836 02d2 F8000000 		.4byte	.LVL29
 10837 02d6 0100     		.2byte	0x1
 10838 02d8 53       		.byte	0x53
 10839 02d9 02010000 		.4byte	.LVL30
 10840 02dd 04010000 		.4byte	.LVL31
 10841 02e1 0100     		.2byte	0x1
 10842 02e3 53       		.byte	0x53
 10843 02e4 12010000 		.4byte	.LVL35
 10844 02e8 38010000 		.4byte	.LVL43
 10845 02ec 0100     		.2byte	0x1
 10846 02ee 53       		.byte	0x53
 10847 02ef 00000000 		.4byte	0
 10848 02f3 00000000 		.4byte	0
 10849              	.LLST20:
 10850 02f7 C8000000 		.4byte	.LVL24
 10851 02fb CF000000 		.4byte	.LVL26-1
 10852 02ff 0100     		.2byte	0x1
 10853 0301 52       		.byte	0x52
 10854 0302 04010000 		.4byte	.LVL31
 10855 0306 0D010000 		.4byte	.LVL34-1
 10856 030a 0100     		.2byte	0x1
 10857 030c 52       		.byte	0x52
 10858 030d 00000000 		.4byte	0
 10859 0311 00000000 		.4byte	0
 10860              	.LLST21:
 10861 0315 00000000 		.4byte	.LVL45
 10862 0319 7E000000 		.4byte	.LVL59
 10863 031d 0100     		.2byte	0x1
ARM GAS  C:\Users\haske\AppData\Local\Temp\cc7ZkKza.s 			page 228


 10864 031f 50       		.byte	0x50
 10865 0320 7E000000 		.4byte	.LVL59
 10866 0324 DE000000 		.4byte	.LVL75
 10867 0328 0100     		.2byte	0x1
 10868 032a 58       		.byte	0x58
 10869 032b DE000000 		.4byte	.LVL75
 10870 032f 0A010000 		.4byte	.LVL80
 10871 0333 0100     		.2byte	0x1
 10872 0335 50       		.byte	0x50
 10873 0336 0A010000 		.4byte	.LVL80
 10874 033a 98010000 		.4byte	.LVL101
 10875 033e 0100     		.2byte	0x1
 10876 0340 58       		.byte	0x58
 10877 0341 00000000 		.4byte	0
 10878 0345 00000000 		.4byte	0
 10879              	.LLST22:
 10880 0349 00000000 		.4byte	.LVL45
 10881 034d 42000000 		.4byte	.LVL49
 10882 0351 0100     		.2byte	0x1
 10883 0353 51       		.byte	0x51
 10884 0354 42000000 		.4byte	.LVL49
 10885 0358 A4010000 		.4byte	.LFE166
 10886 035c 0400     		.2byte	0x4
 10887 035e F3       		.byte	0xf3
 10888 035f 01       		.uleb128 0x1
 10889 0360 51       		.byte	0x51
 10890 0361 9F       		.byte	0x9f
 10891 0362 00000000 		.4byte	0
 10892 0366 00000000 		.4byte	0
 10893              	.LLST23:
 10894 036a 00000000 		.4byte	.LVL45
 10895 036e 26000000 		.4byte	.LVL47
 10896 0372 0100     		.2byte	0x1
 10897 0374 52       		.byte	0x52
 10898 0375 26000000 		.4byte	.LVL47
 10899 0379 A4010000 		.4byte	.LFE166
 10900 037d 0400     		.2byte	0x4
 10901 037f F3       		.byte	0xf3
 10902 0380 01       		.uleb128 0x1
 10903 0381 52       		.byte	0x52
 10904 0382 9F       		.byte	0x9f
 10905 0383 00000000 		.4byte	0
 10906 0387 00000000 		.4byte	0
 10907              	.LLST24:
 10908 038b 00000000 		.4byte	.LVL45
 10909 038f 10000000 		.4byte	.LVL46
 10910 0393 0100     		.2byte	0x1
 10911 0395 53       		.byte	0x53
 10912 0396 10000000 		.4byte	.LVL46
 10913 039a 98010000 		.4byte	.LVL101
 10914 039e 0100     		.2byte	0x1
 10915 03a0 59       		.byte	0x59
 10916 03a1 00000000 		.4byte	0
 10917 03a5 00000000 		.4byte	0
 10918              	.LLST25:
 10919 03a9 00000000 		.4byte	.LVL45
 10920 03ad 98010000 		.4byte	.LVL101
ARM GAS  C:\Users\haske\AppData\Local\Temp\cc7ZkKza.s 			page 229


 10921 03b1 0200     		.2byte	0x2
 10922 03b3 91       		.byte	0x91
 10923 03b4 00       		.sleb128 0
 10924 03b5 98010000 		.4byte	.LVL101
 10925 03b9 A4010000 		.4byte	.LFE166
 10926 03bd 0200     		.2byte	0x2
 10927 03bf 7D       		.byte	0x7d
 10928 03c0 00       		.sleb128 0
 10929 03c1 00000000 		.4byte	0
 10930 03c5 00000000 		.4byte	0
 10931              	.LLST26:
 10932 03c9 00000000 		.4byte	.LVL45
 10933 03cd 98010000 		.4byte	.LVL101
 10934 03d1 0200     		.2byte	0x2
 10935 03d3 91       		.byte	0x91
 10936 03d4 04       		.sleb128 4
 10937 03d5 98010000 		.4byte	.LVL101
 10938 03d9 A4010000 		.4byte	.LFE166
 10939 03dd 0200     		.2byte	0x2
 10940 03df 7D       		.byte	0x7d
 10941 03e0 04       		.sleb128 4
 10942 03e1 00000000 		.4byte	0
 10943 03e5 00000000 		.4byte	0
 10944              	.LLST27:
 10945 03e9 00000000 		.4byte	.LVL45
 10946 03ed 16010000 		.4byte	.LVL83
 10947 03f1 0200     		.2byte	0x2
 10948 03f3 91       		.byte	0x91
 10949 03f4 08       		.sleb128 8
 10950 03f5 6E010000 		.4byte	.LVL94
 10951 03f9 70010000 		.4byte	.LVL95
 10952 03fd 0100     		.2byte	0x1
 10953 03ff 5B       		.byte	0x5b
 10954 0400 84010000 		.4byte	.LVL98
 10955 0404 92010000 		.4byte	.LVL100
 10956 0408 0100     		.2byte	0x1
 10957 040a 5B       		.byte	0x5b
 10958 040b 00000000 		.4byte	0
 10959 040f 00000000 		.4byte	0
 10960              	.LLST28:
 10961 0413 00000000 		.4byte	.LVL45
 10962 0417 98010000 		.4byte	.LVL101
 10963 041b 0200     		.2byte	0x2
 10964 041d 91       		.byte	0x91
 10965 041e 0C       		.sleb128 12
 10966 041f 98010000 		.4byte	.LVL101
 10967 0423 A4010000 		.4byte	.LFE166
 10968 0427 0200     		.2byte	0x2
 10969 0429 7D       		.byte	0x7d
 10970 042a 0C       		.sleb128 12
 10971 042b 00000000 		.4byte	0
 10972 042f 00000000 		.4byte	0
 10973              	.LLST29:
 10974 0433 00000000 		.4byte	.LVL45
 10975 0437 98010000 		.4byte	.LVL101
 10976 043b 0200     		.2byte	0x2
 10977 043d 91       		.byte	0x91
ARM GAS  C:\Users\haske\AppData\Local\Temp\cc7ZkKza.s 			page 230


 10978 043e 10       		.sleb128 16
 10979 043f 98010000 		.4byte	.LVL101
 10980 0443 A4010000 		.4byte	.LFE166
 10981 0447 0200     		.2byte	0x2
 10982 0449 7D       		.byte	0x7d
 10983 044a 10       		.sleb128 16
 10984 044b 00000000 		.4byte	0
 10985 044f 00000000 		.4byte	0
 10986              	.LLST30:
 10987 0453 3A000000 		.4byte	.LVL48
 10988 0457 98010000 		.4byte	.LVL101
 10989 045b 0100     		.2byte	0x1
 10990 045d 5A       		.byte	0x5a
 10991 045e 00000000 		.4byte	0
 10992 0462 00000000 		.4byte	0
 10993              	.LLST31:
 10994 0466 4A000000 		.4byte	.LVL50
 10995 046a 5A000000 		.4byte	.LVL51
 10996 046e 0100     		.2byte	0x1
 10997 0470 53       		.byte	0x53
 10998 0471 5A000000 		.4byte	.LVL51
 10999 0475 5E000000 		.4byte	.LVL52
 11000 0479 0200     		.2byte	0x2
 11001 047b 91       		.byte	0x91
 11002 047c 48       		.sleb128 -56
 11003 047d 5E000000 		.4byte	.LVL52
 11004 0481 60000000 		.4byte	.LVL53
 11005 0485 0100     		.2byte	0x1
 11006 0487 53       		.byte	0x53
 11007 0488 60000000 		.4byte	.LVL53
 11008 048c 64000000 		.4byte	.LVL54
 11009 0490 0200     		.2byte	0x2
 11010 0492 91       		.byte	0x91
 11011 0493 48       		.sleb128 -56
 11012 0494 64000000 		.4byte	.LVL54
 11013 0498 66000000 		.4byte	.LVL55
 11014 049c 0100     		.2byte	0x1
 11015 049e 53       		.byte	0x53
 11016 049f 66000000 		.4byte	.LVL55
 11017 04a3 98010000 		.4byte	.LVL101
 11018 04a7 0200     		.2byte	0x2
 11019 04a9 91       		.byte	0x91
 11020 04aa 48       		.sleb128 -56
 11021 04ab 98010000 		.4byte	.LVL101
 11022 04af A4010000 		.4byte	.LFE166
 11023 04b3 0200     		.2byte	0x2
 11024 04b5 7D       		.byte	0x7d
 11025 04b6 48       		.sleb128 -56
 11026 04b7 00000000 		.4byte	0
 11027 04bb 00000000 		.4byte	0
 11028              	.LLST32:
 11029 04bf 8C000000 		.4byte	.LVL62
 11030 04c3 BC000000 		.4byte	.LVL70
 11031 04c7 0100     		.2byte	0x1
 11032 04c9 54       		.byte	0x54
 11033 04ca BE000000 		.4byte	.LVL71
 11034 04ce D4000000 		.4byte	.LVL74
ARM GAS  C:\Users\haske\AppData\Local\Temp\cc7ZkKza.s 			page 231


 11035 04d2 0100     		.2byte	0x1
 11036 04d4 54       		.byte	0x54
 11037 04d5 16010000 		.4byte	.LVL83
 11038 04d9 6E010000 		.4byte	.LVL94
 11039 04dd 0100     		.2byte	0x1
 11040 04df 54       		.byte	0x54
 11041 04e0 70010000 		.4byte	.LVL95
 11042 04e4 8A010000 		.4byte	.LVL99
 11043 04e8 0100     		.2byte	0x1
 11044 04ea 54       		.byte	0x54
 11045 04eb 00000000 		.4byte	0
 11046 04ef 00000000 		.4byte	0
 11047              	.LLST33:
 11048 04f3 82000000 		.4byte	.LVL60
 11049 04f7 8C000000 		.4byte	.LVL62
 11050 04fb 0200     		.2byte	0x2
 11051 04fd 30       		.byte	0x30
 11052 04fe 9F       		.byte	0x9f
 11053 04ff 8C000000 		.4byte	.LVL62
 11054 0503 BC000000 		.4byte	.LVL70
 11055 0507 0200     		.2byte	0x2
 11056 0509 7D       		.byte	0x7d
 11057 050a 00       		.sleb128 0
 11058 050b BC000000 		.4byte	.LVL70
 11059 050f BE000000 		.4byte	.LVL71
 11060 0513 0100     		.2byte	0x1
 11061 0515 53       		.byte	0x53
 11062 0516 BE000000 		.4byte	.LVL71
 11063 051a DE000000 		.4byte	.LVL75
 11064 051e 0200     		.2byte	0x2
 11065 0520 7D       		.byte	0x7d
 11066 0521 00       		.sleb128 0
 11067 0522 0E010000 		.4byte	.LVL82
 11068 0526 16010000 		.4byte	.LVL83
 11069 052a 0200     		.2byte	0x2
 11070 052c 30       		.byte	0x30
 11071 052d 9F       		.byte	0x9f
 11072 052e 16010000 		.4byte	.LVL83
 11073 0532 6E010000 		.4byte	.LVL94
 11074 0536 0200     		.2byte	0x2
 11075 0538 91       		.byte	0x91
 11076 0539 44       		.sleb128 -60
 11077 053a 6E010000 		.4byte	.LVL94
 11078 053e 70010000 		.4byte	.LVL95
 11079 0542 0100     		.2byte	0x1
 11080 0544 53       		.byte	0x53
 11081 0545 70010000 		.4byte	.LVL95
 11082 0549 92010000 		.4byte	.LVL100
 11083 054d 0200     		.2byte	0x2
 11084 054f 91       		.byte	0x91
 11085 0550 44       		.sleb128 -60
 11086 0551 00000000 		.4byte	0
 11087 0555 00000000 		.4byte	0
 11088              	.LLST34:
 11089 0559 5E000000 		.4byte	.LVL52
 11090 055d 64000000 		.4byte	.LVL54
 11091 0561 0600     		.2byte	0x6
ARM GAS  C:\Users\haske\AppData\Local\Temp\cc7ZkKza.s 			page 232


 11092 0563 03       		.byte	0x3
 11093 0564 00000000 		.4byte	color_blend_true_color_multiply
 11094 0568 9F       		.byte	0x9f
 11095 0569 68000000 		.4byte	.LVL56
 11096 056d 8C000000 		.4byte	.LVL62
 11097 0571 0200     		.2byte	0x2
 11098 0573 91       		.byte	0x91
 11099 0574 40       		.sleb128 -64
 11100 0575 8C000000 		.4byte	.LVL62
 11101 0579 DE000000 		.4byte	.LVL75
 11102 057d 0100     		.2byte	0x1
 11103 057f 5B       		.byte	0x5b
 11104 0580 DE000000 		.4byte	.LVL75
 11105 0584 92010000 		.4byte	.LVL100
 11106 0588 0200     		.2byte	0x2
 11107 058a 91       		.byte	0x91
 11108 058b 40       		.sleb128 -64
 11109 058c 00000000 		.4byte	0
 11110 0590 00000000 		.4byte	0
 11111              	.LLST35:
 11112 0594 72000000 		.4byte	.LVL57
 11113 0598 81000000 		.4byte	.LVL60-1
 11114 059c 0100     		.2byte	0x1
 11115 059e 53       		.byte	0x53
 11116 059f 88000000 		.4byte	.LVL61
 11117 05a3 8C000000 		.4byte	.LVL62
 11118 05a7 0100     		.2byte	0x1
 11119 05a9 55       		.byte	0x55
 11120 05aa 8C000000 		.4byte	.LVL62
 11121 05ae AA000000 		.4byte	.LVL63
 11122 05b2 0100     		.2byte	0x1
 11123 05b4 56       		.byte	0x56
 11124 05b5 AE000000 		.4byte	.LVL65
 11125 05b9 BC000000 		.4byte	.LVL70
 11126 05bd 0100     		.2byte	0x1
 11127 05bf 56       		.byte	0x56
 11128 05c0 BC000000 		.4byte	.LVL70
 11129 05c4 DE000000 		.4byte	.LVL75
 11130 05c8 0100     		.2byte	0x1
 11131 05ca 55       		.byte	0x55
 11132 05cb E2000000 		.4byte	.LVL76
 11133 05cf EE000000 		.4byte	.LVL77
 11134 05d3 0100     		.2byte	0x1
 11135 05d5 53       		.byte	0x53
 11136 05d6 52010000 		.4byte	.LVL85
 11137 05da 62010000 		.4byte	.LVL89
 11138 05de 0100     		.2byte	0x1
 11139 05e0 53       		.byte	0x53
 11140 05e1 92010000 		.4byte	.LVL100
 11141 05e5 98010000 		.4byte	.LVL101
 11142 05e9 0100     		.2byte	0x1
 11143 05eb 55       		.byte	0x55
 11144 05ec 00000000 		.4byte	0
 11145 05f0 00000000 		.4byte	0
 11146              	.LLST36:
 11147 05f4 7C000000 		.4byte	.LVL58
 11148 05f8 AC000000 		.4byte	.LVL64
ARM GAS  C:\Users\haske\AppData\Local\Temp\cc7ZkKza.s 			page 233


 11149 05fc 0100     		.2byte	0x1
 11150 05fe 57       		.byte	0x57
 11151 05ff B0000000 		.4byte	.LVL66
 11152 0603 DE000000 		.4byte	.LVL75
 11153 0607 0100     		.2byte	0x1
 11154 0609 57       		.byte	0x57
 11155 060a 08010000 		.4byte	.LVL79
 11156 060e 5A010000 		.4byte	.LVL86
 11157 0612 0100     		.2byte	0x1
 11158 0614 57       		.byte	0x57
 11159 0615 5E010000 		.4byte	.LVL87
 11160 0619 98010000 		.4byte	.LVL101
 11161 061d 0100     		.2byte	0x1
 11162 061f 57       		.byte	0x57
 11163 0620 00000000 		.4byte	0
 11164 0624 00000000 		.4byte	0
 11165              	.LLST37:
 11166 0628 26000000 		.4byte	.LVL47
 11167 062c 3A000000 		.4byte	.LVL48
 11168 0630 0100     		.2byte	0x1
 11169 0632 51       		.byte	0x51
 11170 0633 00000000 		.4byte	0
 11171 0637 00000000 		.4byte	0
 11172              	.LLST38:
 11173 063b 3A000000 		.4byte	.LVL48
 11174 063f 42000000 		.4byte	.LVL49
 11175 0643 0100     		.2byte	0x1
 11176 0645 51       		.byte	0x51
 11177 0646 42000000 		.4byte	.LVL49
 11178 064a 4A000000 		.4byte	.LVL50
 11179 064e 0400     		.2byte	0x4
 11180 0650 F3       		.byte	0xf3
 11181 0651 01       		.uleb128 0x1
 11182 0652 51       		.byte	0x51
 11183 0653 9F       		.byte	0x9f
 11184 0654 00000000 		.4byte	0
 11185 0658 00000000 		.4byte	0
 11186              	.LLST39:
 11187 065c 8C000000 		.4byte	.LVL62
 11188 0660 B2000000 		.4byte	.LVL67
 11189 0664 0100     		.2byte	0x1
 11190 0666 50       		.byte	0x50
 11191 0667 B4000000 		.4byte	.LVL68
 11192 066b DE000000 		.4byte	.LVL75
 11193 066f 0100     		.2byte	0x1
 11194 0671 50       		.byte	0x50
 11195 0672 92010000 		.4byte	.LVL100
 11196 0676 A4010000 		.4byte	.LFE166
 11197 067a 0100     		.2byte	0x1
 11198 067c 50       		.byte	0x50
 11199 067d 00000000 		.4byte	0
 11200 0681 00000000 		.4byte	0
 11201              	.LLST40:
 11202 0685 00010000 		.4byte	.LVL78
 11203 0689 0C010000 		.4byte	.LVL81
 11204 068d 0100     		.2byte	0x1
 11205 068f 53       		.byte	0x53
ARM GAS  C:\Users\haske\AppData\Local\Temp\cc7ZkKza.s 			page 234


 11206 0690 16010000 		.4byte	.LVL83
 11207 0694 5A010000 		.4byte	.LVL86
 11208 0698 0100     		.2byte	0x1
 11209 069a 52       		.byte	0x52
 11210 069b 5A010000 		.4byte	.LVL86
 11211 069f 66010000 		.4byte	.LVL91
 11212 06a3 0100     		.2byte	0x1
 11213 06a5 55       		.byte	0x55
 11214 06a6 66010000 		.4byte	.LVL91
 11215 06aa 92010000 		.4byte	.LVL100
 11216 06ae 0100     		.2byte	0x1
 11217 06b0 52       		.byte	0x52
 11218 06b1 00000000 		.4byte	0
 11219 06b5 00000000 		.4byte	0
 11220              	.LLST41:
 11221 06b9 16010000 		.4byte	.LVL83
 11222 06bd 60010000 		.4byte	.LVL88
 11223 06c1 0100     		.2byte	0x1
 11224 06c3 50       		.byte	0x50
 11225 06c4 66010000 		.4byte	.LVL91
 11226 06c8 A4010000 		.4byte	.LFE166
 11227 06cc 0100     		.2byte	0x1
 11228 06ce 50       		.byte	0x50
 11229 06cf 00000000 		.4byte	0
 11230 06d3 00000000 		.4byte	0
 11231              	.LLST42:
 11232 06d7 30010000 		.4byte	.LVL84
 11233 06db 6A010000 		.4byte	.LVL92
 11234 06df 0100     		.2byte	0x1
 11235 06e1 55       		.byte	0x55
 11236 06e2 00000000 		.4byte	0
 11237 06e6 00000000 		.4byte	0
 11238              	.LLST43:
 11239 06ea 00000000 		.4byte	.LVL102
 11240 06ee 06000000 		.4byte	.LVL103
 11241 06f2 0100     		.2byte	0x1
 11242 06f4 50       		.byte	0x50
 11243 06f5 08000000 		.4byte	.LVL104
 11244 06f9 5A000000 		.4byte	.LVL117
 11245 06fd 0100     		.2byte	0x1
 11246 06ff 50       		.byte	0x50
 11247 0700 78000000 		.4byte	.LVL123
 11248 0704 78000000 		.4byte	.LVL124
 11249 0708 0100     		.2byte	0x1
 11250 070a 50       		.byte	0x50
 11251 070b 00000000 		.4byte	0
 11252 070f 00000000 		.4byte	0
 11253              	.LLST44:
 11254 0713 00000000 		.4byte	.LVL102
 11255 0717 4E000000 		.4byte	.LVL115
 11256 071b 0100     		.2byte	0x1
 11257 071d 51       		.byte	0x51
 11258 071e 78000000 		.4byte	.LVL123
 11259 0722 80000000 		.4byte	.LFE167
 11260 0726 0100     		.2byte	0x1
 11261 0728 51       		.byte	0x51
 11262 0729 00000000 		.4byte	0
ARM GAS  C:\Users\haske\AppData\Local\Temp\cc7ZkKza.s 			page 235


 11263 072d 00000000 		.4byte	0
 11264              	.LLST45:
 11265 0731 00000000 		.4byte	.LVL102
 11266 0735 4C000000 		.4byte	.LVL114
 11267 0739 0100     		.2byte	0x1
 11268 073b 52       		.byte	0x52
 11269 073c 4C000000 		.4byte	.LVL114
 11270 0740 80000000 		.4byte	.LFE167
 11271 0744 0400     		.2byte	0x4
 11272 0746 F3       		.byte	0xf3
 11273 0747 01       		.uleb128 0x1
 11274 0748 52       		.byte	0x52
 11275 0749 9F       		.byte	0x9f
 11276 074a 00000000 		.4byte	0
 11277 074e 00000000 		.4byte	0
 11278              	.LLST46:
 11279 0752 14000000 		.4byte	.LVL105
 11280 0756 1A000000 		.4byte	.LVL106
 11281 075a 0100     		.2byte	0x1
 11282 075c 53       		.byte	0x53
 11283 075d 1A000000 		.4byte	.LVL106
 11284 0761 26000000 		.4byte	.LVL107
 11285 0765 0C00     		.2byte	0xc
 11286 0767 71       		.byte	0x71
 11287 0768 00       		.sleb128 0
 11288 0769 09       		.byte	0x9
 11289 076a F4       		.byte	0xf4
 11290 076b 24       		.byte	0x24
 11291 076c 09       		.byte	0x9
 11292 076d FF       		.byte	0xff
 11293 076e 25       		.byte	0x25
 11294 076f 74       		.byte	0x74
 11295 0770 00       		.sleb128 0
 11296 0771 22       		.byte	0x22
 11297 0772 9F       		.byte	0x9f
 11298 0773 28000000 		.4byte	.LVL108
 11299 0777 2E000000 		.4byte	.LVL109
 11300 077b 0100     		.2byte	0x1
 11301 077d 53       		.byte	0x53
 11302 077e 2E000000 		.4byte	.LVL109
 11303 0782 3A000000 		.4byte	.LVL110
 11304 0786 0C00     		.2byte	0xc
 11305 0788 71       		.byte	0x71
 11306 0789 00       		.sleb128 0
 11307 078a 09       		.byte	0x9
 11308 078b F9       		.byte	0xf9
 11309 078c 24       		.byte	0x24
 11310 078d 09       		.byte	0x9
 11311 078e FE       		.byte	0xfe
 11312 078f 25       		.byte	0x25
 11313 0790 74       		.byte	0x74
 11314 0791 00       		.sleb128 0
 11315 0792 22       		.byte	0x22
 11316 0793 9F       		.byte	0x9f
 11317 0794 3C000000 		.4byte	.LVL111
 11318 0798 42000000 		.4byte	.LVL112
 11319 079c 0100     		.2byte	0x1
ARM GAS  C:\Users\haske\AppData\Local\Temp\cc7ZkKza.s 			page 236


 11320 079e 53       		.byte	0x53
 11321 079f 42000000 		.4byte	.LVL112
 11322 07a3 4E000000 		.4byte	.LVL115
 11323 07a7 0800     		.2byte	0x8
 11324 07a9 71       		.byte	0x71
 11325 07aa 00       		.sleb128 0
 11326 07ab 4F       		.byte	0x4f
 11327 07ac 1A       		.byte	0x1a
 11328 07ad 74       		.byte	0x74
 11329 07ae 00       		.sleb128 0
 11330 07af 22       		.byte	0x22
 11331 07b0 9F       		.byte	0x9f
 11332 07b1 00000000 		.4byte	0
 11333 07b5 00000000 		.4byte	0
 11334              	.LLST47:
 11335 07b9 4A000000 		.4byte	.LVL113
 11336 07bd 4C000000 		.4byte	.LVL114
 11337 07c1 0100     		.2byte	0x1
 11338 07c3 52       		.byte	0x52
 11339 07c4 4C000000 		.4byte	.LVL114
 11340 07c8 68000000 		.4byte	.LVL120
 11341 07cc 0500     		.2byte	0x5
 11342 07ce 72       		.byte	0x72
 11343 07cf 00       		.sleb128 0
 11344 07d0 33       		.byte	0x33
 11345 07d1 25       		.byte	0x25
 11346 07d2 9F       		.byte	0x9f
 11347 07d3 00000000 		.4byte	0
 11348 07d7 00000000 		.4byte	0
 11349              	.LLST48:
 11350 07db 58000000 		.4byte	.LVL116
 11351 07df 70000000 		.4byte	.LVL121
 11352 07e3 0100     		.2byte	0x1
 11353 07e5 53       		.byte	0x53
 11354 07e6 70000000 		.4byte	.LVL121
 11355 07ea 78000000 		.4byte	.LVL123
 11356 07ee 0600     		.2byte	0x6
 11357 07f0 71       		.byte	0x71
 11358 07f1 00       		.sleb128 0
 11359 07f2 75       		.byte	0x75
 11360 07f3 00       		.sleb128 0
 11361 07f4 1A       		.byte	0x1a
 11362 07f5 9F       		.byte	0x9f
 11363 07f6 00000000 		.4byte	0
 11364 07fa 00000000 		.4byte	0
 11365              	.LLST49:
 11366 07fe 62000000 		.4byte	.LVL118
 11367 0802 64000000 		.4byte	.LVL119
 11368 0806 0100     		.2byte	0x1
 11369 0808 54       		.byte	0x54
 11370 0809 64000000 		.4byte	.LVL119
 11371 080d 74000000 		.4byte	.LVL122
 11372 0811 0600     		.2byte	0x6
 11373 0813 70       		.byte	0x70
 11374 0814 00       		.sleb128 0
 11375 0815 75       		.byte	0x75
 11376 0816 00       		.sleb128 0
ARM GAS  C:\Users\haske\AppData\Local\Temp\cc7ZkKza.s 			page 237


 11377 0817 1A       		.byte	0x1a
 11378 0818 9F       		.byte	0x9f
 11379 0819 00000000 		.4byte	0
 11380 081d 00000000 		.4byte	0
 11381              	.LLST50:
 11382 0821 74000000 		.4byte	.LVL122
 11383 0825 78000000 		.4byte	.LVL123
 11384 0829 0100     		.2byte	0x1
 11385 082b 50       		.byte	0x50
 11386 082c 00000000 		.4byte	0
 11387 0830 00000000 		.4byte	0
 11388              	.LLST51:
 11389 0834 00000000 		.4byte	.LVL125
 11390 0838 06000000 		.4byte	.LVL126
 11391 083c 0100     		.2byte	0x1
 11392 083e 50       		.byte	0x50
 11393 083f 08000000 		.4byte	.LVL127
 11394 0843 54000000 		.4byte	.LVL140
 11395 0847 0100     		.2byte	0x1
 11396 0849 50       		.byte	0x50
 11397 084a 72000000 		.4byte	.LVL146
 11398 084e 72000000 		.4byte	.LVL147
 11399 0852 0100     		.2byte	0x1
 11400 0854 50       		.byte	0x50
 11401 0855 00000000 		.4byte	0
 11402 0859 00000000 		.4byte	0
 11403              	.LLST52:
 11404 085d 00000000 		.4byte	.LVL125
 11405 0861 48000000 		.4byte	.LVL138
 11406 0865 0100     		.2byte	0x1
 11407 0867 51       		.byte	0x51
 11408 0868 72000000 		.4byte	.LVL146
 11409 086c 7C000000 		.4byte	.LFE168
 11410 0870 0100     		.2byte	0x1
 11411 0872 51       		.byte	0x51
 11412 0873 00000000 		.4byte	0
 11413 0877 00000000 		.4byte	0
 11414              	.LLST53:
 11415 087b 00000000 		.4byte	.LVL125
 11416 087f 46000000 		.4byte	.LVL137
 11417 0883 0100     		.2byte	0x1
 11418 0885 52       		.byte	0x52
 11419 0886 46000000 		.4byte	.LVL137
 11420 088a 7C000000 		.4byte	.LFE168
 11421 088e 0400     		.2byte	0x4
 11422 0890 F3       		.byte	0xf3
 11423 0891 01       		.uleb128 0x1
 11424 0892 52       		.byte	0x52
 11425 0893 9F       		.byte	0x9f
 11426 0894 00000000 		.4byte	0
 11427 0898 00000000 		.4byte	0
 11428              	.LLST54:
 11429 089c 14000000 		.4byte	.LVL128
 11430 08a0 18000000 		.4byte	.LVL129
 11431 08a4 0100     		.2byte	0x1
 11432 08a6 53       		.byte	0x53
 11433 08a7 18000000 		.4byte	.LVL129
ARM GAS  C:\Users\haske\AppData\Local\Temp\cc7ZkKza.s 			page 238


 11434 08ab 24000000 		.4byte	.LVL130
 11435 08af 0C00     		.2byte	0xc
 11436 08b1 71       		.byte	0x71
 11437 08b2 00       		.sleb128 0
 11438 08b3 09       		.byte	0x9
 11439 08b4 F4       		.byte	0xf4
 11440 08b5 24       		.byte	0x24
 11441 08b6 09       		.byte	0x9
 11442 08b7 FF       		.byte	0xff
 11443 08b8 25       		.byte	0x25
 11444 08b9 74       		.byte	0x74
 11445 08ba 00       		.sleb128 0
 11446 08bb 1C       		.byte	0x1c
 11447 08bc 9F       		.byte	0x9f
 11448 08bd 26000000 		.4byte	.LVL131
 11449 08c1 2A000000 		.4byte	.LVL132
 11450 08c5 0100     		.2byte	0x1
 11451 08c7 53       		.byte	0x53
 11452 08c8 2A000000 		.4byte	.LVL132
 11453 08cc 36000000 		.4byte	.LVL133
 11454 08d0 0C00     		.2byte	0xc
 11455 08d2 71       		.byte	0x71
 11456 08d3 00       		.sleb128 0
 11457 08d4 09       		.byte	0x9
 11458 08d5 F9       		.byte	0xf9
 11459 08d6 24       		.byte	0x24
 11460 08d7 09       		.byte	0x9
 11461 08d8 FE       		.byte	0xfe
 11462 08d9 25       		.byte	0x25
 11463 08da 74       		.byte	0x74
 11464 08db 00       		.sleb128 0
 11465 08dc 1C       		.byte	0x1c
 11466 08dd 9F       		.byte	0x9f
 11467 08de 38000000 		.4byte	.LVL134
 11468 08e2 3C000000 		.4byte	.LVL135
 11469 08e6 0100     		.2byte	0x1
 11470 08e8 53       		.byte	0x53
 11471 08e9 3C000000 		.4byte	.LVL135
 11472 08ed 48000000 		.4byte	.LVL138
 11473 08f1 0800     		.2byte	0x8
 11474 08f3 71       		.byte	0x71
 11475 08f4 00       		.sleb128 0
 11476 08f5 4F       		.byte	0x4f
 11477 08f6 1A       		.byte	0x1a
 11478 08f7 74       		.byte	0x74
 11479 08f8 00       		.sleb128 0
 11480 08f9 1C       		.byte	0x1c
 11481 08fa 9F       		.byte	0x9f
 11482 08fb 00000000 		.4byte	0
 11483 08ff 00000000 		.4byte	0
 11484              	.LLST55:
 11485 0903 44000000 		.4byte	.LVL136
 11486 0907 46000000 		.4byte	.LVL137
 11487 090b 0100     		.2byte	0x1
 11488 090d 52       		.byte	0x52
 11489 090e 46000000 		.4byte	.LVL137
 11490 0912 62000000 		.4byte	.LVL143
ARM GAS  C:\Users\haske\AppData\Local\Temp\cc7ZkKza.s 			page 239


 11491 0916 0500     		.2byte	0x5
 11492 0918 72       		.byte	0x72
 11493 0919 00       		.sleb128 0
 11494 091a 33       		.byte	0x33
 11495 091b 25       		.byte	0x25
 11496 091c 9F       		.byte	0x9f
 11497 091d 00000000 		.4byte	0
 11498 0921 00000000 		.4byte	0
 11499              	.LLST56:
 11500 0925 52000000 		.4byte	.LVL139
 11501 0929 6A000000 		.4byte	.LVL144
 11502 092d 0100     		.2byte	0x1
 11503 092f 53       		.byte	0x53
 11504 0930 6A000000 		.4byte	.LVL144
 11505 0934 72000000 		.4byte	.LVL146
 11506 0938 0600     		.2byte	0x6
 11507 093a 71       		.byte	0x71
 11508 093b 00       		.sleb128 0
 11509 093c 75       		.byte	0x75
 11510 093d 00       		.sleb128 0
 11511 093e 1A       		.byte	0x1a
 11512 093f 9F       		.byte	0x9f
 11513 0940 00000000 		.4byte	0
 11514 0944 00000000 		.4byte	0
 11515              	.LLST57:
 11516 0948 5C000000 		.4byte	.LVL141
 11517 094c 5E000000 		.4byte	.LVL142
 11518 0950 0100     		.2byte	0x1
 11519 0952 54       		.byte	0x54
 11520 0953 5E000000 		.4byte	.LVL142
 11521 0957 6E000000 		.4byte	.LVL145
 11522 095b 0600     		.2byte	0x6
 11523 095d 70       		.byte	0x70
 11524 095e 00       		.sleb128 0
 11525 095f 75       		.byte	0x75
 11526 0960 00       		.sleb128 0
 11527 0961 1A       		.byte	0x1a
 11528 0962 9F       		.byte	0x9f
 11529 0963 00000000 		.4byte	0
 11530 0967 00000000 		.4byte	0
 11531              	.LLST58:
 11532 096b 6E000000 		.4byte	.LVL145
 11533 096f 72000000 		.4byte	.LVL146
 11534 0973 0100     		.2byte	0x1
 11535 0975 50       		.byte	0x50
 11536 0976 00000000 		.4byte	0
 11537 097a 00000000 		.4byte	0
 11538              	.LLST59:
 11539 097e 00000000 		.4byte	.LVL148
 11540 0982 06000000 		.4byte	.LVL149
 11541 0986 0100     		.2byte	0x1
 11542 0988 50       		.byte	0x50
 11543 0989 08000000 		.4byte	.LVL150
 11544 098d 54000000 		.4byte	.LVL155
 11545 0991 0100     		.2byte	0x1
 11546 0993 50       		.byte	0x50
 11547 0994 72000000 		.4byte	.LVL161
ARM GAS  C:\Users\haske\AppData\Local\Temp\cc7ZkKza.s 			page 240


 11548 0998 72000000 		.4byte	.LVL162
 11549 099c 0100     		.2byte	0x1
 11550 099e 50       		.byte	0x50
 11551 099f 00000000 		.4byte	0
 11552 09a3 00000000 		.4byte	0
 11553              	.LLST60:
 11554 09a7 00000000 		.4byte	.LVL148
 11555 09ab 48000000 		.4byte	.LVL153
 11556 09af 0100     		.2byte	0x1
 11557 09b1 51       		.byte	0x51
 11558 09b2 72000000 		.4byte	.LVL161
 11559 09b6 7C000000 		.4byte	.LFE169
 11560 09ba 0100     		.2byte	0x1
 11561 09bc 51       		.byte	0x51
 11562 09bd 00000000 		.4byte	0
 11563 09c1 00000000 		.4byte	0
 11564              	.LLST61:
 11565 09c5 00000000 		.4byte	.LVL148
 11566 09c9 46000000 		.4byte	.LVL152
 11567 09cd 0100     		.2byte	0x1
 11568 09cf 52       		.byte	0x52
 11569 09d0 46000000 		.4byte	.LVL152
 11570 09d4 7C000000 		.4byte	.LFE169
 11571 09d8 0400     		.2byte	0x4
 11572 09da F3       		.byte	0xf3
 11573 09db 01       		.uleb128 0x1
 11574 09dc 52       		.byte	0x52
 11575 09dd 9F       		.byte	0x9f
 11576 09de 00000000 		.4byte	0
 11577 09e2 00000000 		.4byte	0
 11578              	.LLST62:
 11579 09e6 44000000 		.4byte	.LVL151
 11580 09ea 46000000 		.4byte	.LVL152
 11581 09ee 0100     		.2byte	0x1
 11582 09f0 52       		.byte	0x52
 11583 09f1 46000000 		.4byte	.LVL152
 11584 09f5 62000000 		.4byte	.LVL158
 11585 09f9 0500     		.2byte	0x5
 11586 09fb 72       		.byte	0x72
 11587 09fc 00       		.sleb128 0
 11588 09fd 33       		.byte	0x33
 11589 09fe 25       		.byte	0x25
 11590 09ff 9F       		.byte	0x9f
 11591 0a00 00000000 		.4byte	0
 11592 0a04 00000000 		.4byte	0
 11593              	.LLST63:
 11594 0a08 52000000 		.4byte	.LVL154
 11595 0a0c 6A000000 		.4byte	.LVL159
 11596 0a10 0100     		.2byte	0x1
 11597 0a12 53       		.byte	0x53
 11598 0a13 6A000000 		.4byte	.LVL159
 11599 0a17 72000000 		.4byte	.LVL161
 11600 0a1b 0600     		.2byte	0x6
 11601 0a1d 71       		.byte	0x71
 11602 0a1e 00       		.sleb128 0
 11603 0a1f 75       		.byte	0x75
 11604 0a20 00       		.sleb128 0
ARM GAS  C:\Users\haske\AppData\Local\Temp\cc7ZkKza.s 			page 241


 11605 0a21 1A       		.byte	0x1a
 11606 0a22 9F       		.byte	0x9f
 11607 0a23 00000000 		.4byte	0
 11608 0a27 00000000 		.4byte	0
 11609              	.LLST64:
 11610 0a2b 5C000000 		.4byte	.LVL156
 11611 0a2f 5E000000 		.4byte	.LVL157
 11612 0a33 0100     		.2byte	0x1
 11613 0a35 54       		.byte	0x54
 11614 0a36 5E000000 		.4byte	.LVL157
 11615 0a3a 6E000000 		.4byte	.LVL160
 11616 0a3e 0600     		.2byte	0x6
 11617 0a40 70       		.byte	0x70
 11618 0a41 00       		.sleb128 0
 11619 0a42 75       		.byte	0x75
 11620 0a43 00       		.sleb128 0
 11621 0a44 1A       		.byte	0x1a
 11622 0a45 9F       		.byte	0x9f
 11623 0a46 00000000 		.4byte	0
 11624 0a4a 00000000 		.4byte	0
 11625              	.LLST65:
 11626 0a4e 6E000000 		.4byte	.LVL160
 11627 0a52 72000000 		.4byte	.LVL161
 11628 0a56 0100     		.2byte	0x1
 11629 0a58 50       		.byte	0x50
 11630 0a59 00000000 		.4byte	0
 11631 0a5d 00000000 		.4byte	0
 11632              	.LLST66:
 11633 0a61 00000000 		.4byte	.LVL163
 11634 0a65 1F000000 		.4byte	.LVL165-1
 11635 0a69 0100     		.2byte	0x1
 11636 0a6b 50       		.byte	0x50
 11637 0a6c 1F000000 		.4byte	.LVL165-1
 11638 0a70 E2000000 		.4byte	.LFE161
 11639 0a74 0200     		.2byte	0x2
 11640 0a76 91       		.byte	0x91
 11641 0a77 44       		.sleb128 -60
 11642 0a78 00000000 		.4byte	0
 11643 0a7c 00000000 		.4byte	0
 11644              	.LLST67:
 11645 0a80 00000000 		.4byte	.LVL163
 11646 0a84 1F000000 		.4byte	.LVL165-1
 11647 0a88 0100     		.2byte	0x1
 11648 0a8a 51       		.byte	0x51
 11649 0a8b 1F000000 		.4byte	.LVL165-1
 11650 0a8f E2000000 		.4byte	.LFE161
 11651 0a93 0100     		.2byte	0x1
 11652 0a95 57       		.byte	0x57
 11653 0a96 00000000 		.4byte	0
 11654 0a9a 00000000 		.4byte	0
 11655              	.LLST68:
 11656 0a9e 00000000 		.4byte	.LVL163
 11657 0aa2 1F000000 		.4byte	.LVL165-1
 11658 0aa6 0100     		.2byte	0x1
 11659 0aa8 52       		.byte	0x52
 11660 0aa9 1F000000 		.4byte	.LVL165-1
 11661 0aad E2000000 		.4byte	.LFE161
ARM GAS  C:\Users\haske\AppData\Local\Temp\cc7ZkKza.s 			page 242


 11662 0ab1 0400     		.2byte	0x4
 11663 0ab3 F3       		.byte	0xf3
 11664 0ab4 01       		.uleb128 0x1
 11665 0ab5 52       		.byte	0x52
 11666 0ab6 9F       		.byte	0x9f
 11667 0ab7 00000000 		.4byte	0
 11668 0abb 00000000 		.4byte	0
 11669              	.LLST69:
 11670 0abf 00000000 		.4byte	.LVL163
 11671 0ac3 12000000 		.4byte	.LVL164
 11672 0ac7 0100     		.2byte	0x1
 11673 0ac9 53       		.byte	0x53
 11674 0aca 32000000 		.4byte	.LVL168
 11675 0ace 68000000 		.4byte	.LVL173
 11676 0ad2 0100     		.2byte	0x1
 11677 0ad4 5A       		.byte	0x5a
 11678 0ad5 8C000000 		.4byte	.LVL176
 11679 0ad9 E2000000 		.4byte	.LFE161
 11680 0add 0100     		.2byte	0x1
 11681 0adf 5A       		.byte	0x5a
 11682 0ae0 00000000 		.4byte	0
 11683 0ae4 00000000 		.4byte	0
 11684              	.LLST70:
 11685 0ae8 00000000 		.4byte	.LVL163
 11686 0aec 8C000000 		.4byte	.LVL176
 11687 0af0 0200     		.2byte	0x2
 11688 0af2 91       		.byte	0x91
 11689 0af3 04       		.sleb128 4
 11690 0af4 C8000000 		.4byte	.LVL179
 11691 0af8 CA000000 		.4byte	.LVL180
 11692 0afc 0100     		.2byte	0x1
 11693 0afe 55       		.byte	0x55
 11694 0aff D2000000 		.4byte	.LVL181
 11695 0b03 DC000000 		.4byte	.LVL183
 11696 0b07 0100     		.2byte	0x1
 11697 0b09 55       		.byte	0x55
 11698 0b0a 00000000 		.4byte	0
 11699 0b0e 00000000 		.4byte	0
 11700              	.LLST71:
 11701 0b12 22000000 		.4byte	.LVL166
 11702 0b16 32000000 		.4byte	.LVL168
 11703 0b1a 0100     		.2byte	0x1
 11704 0b1c 50       		.byte	0x50
 11705 0b1d 32000000 		.4byte	.LVL168
 11706 0b21 68000000 		.4byte	.LVL173
 11707 0b25 0100     		.2byte	0x1
 11708 0b27 5B       		.byte	0x5b
 11709 0b28 68000000 		.4byte	.LVL173
 11710 0b2c 8C000000 		.4byte	.LVL176
 11711 0b30 0100     		.2byte	0x1
 11712 0b32 50       		.byte	0x50
 11713 0b33 8C000000 		.4byte	.LVL176
 11714 0b37 E2000000 		.4byte	.LFE161
 11715 0b3b 0100     		.2byte	0x1
 11716 0b3d 5B       		.byte	0x5b
 11717 0b3e 00000000 		.4byte	0
 11718 0b42 00000000 		.4byte	0
ARM GAS  C:\Users\haske\AppData\Local\Temp\cc7ZkKza.s 			page 243


 11719              	.LLST72:
 11720 0b46 36000000 		.4byte	.LVL169
 11721 0b4a 5E000000 		.4byte	.LVL172
 11722 0b4e 0100     		.2byte	0x1
 11723 0b50 54       		.byte	0x54
 11724 0b51 8C000000 		.4byte	.LVL176
 11725 0b55 C8000000 		.4byte	.LVL179
 11726 0b59 0100     		.2byte	0x1
 11727 0b5b 54       		.byte	0x54
 11728 0b5c CA000000 		.4byte	.LVL180
 11729 0b60 D6000000 		.4byte	.LVL182
 11730 0b64 0100     		.2byte	0x1
 11731 0b66 54       		.byte	0x54
 11732 0b67 00000000 		.4byte	0
 11733 0b6b 00000000 		.4byte	0
 11734              	.LLST73:
 11735 0b6f 28000000 		.4byte	.LVL167
 11736 0b73 68000000 		.4byte	.LVL173
 11737 0b77 0100     		.2byte	0x1
 11738 0b79 56       		.byte	0x56
 11739 0b7a 86000000 		.4byte	.LVL175
 11740 0b7e 8C000000 		.4byte	.LVL176
 11741 0b82 0200     		.2byte	0x2
 11742 0b84 30       		.byte	0x30
 11743 0b85 9F       		.byte	0x9f
 11744 0b86 8C000000 		.4byte	.LVL176
 11745 0b8a DC000000 		.4byte	.LVL183
 11746 0b8e 0100     		.2byte	0x1
 11747 0b90 58       		.byte	0x58
 11748 0b91 00000000 		.4byte	0
 11749 0b95 00000000 		.4byte	0
 11750              	.LLST74:
 11751 0b99 76000000 		.4byte	.LVL174
 11752 0b9d DC000000 		.4byte	.LVL183
 11753 0ba1 0100     		.2byte	0x1
 11754 0ba3 56       		.byte	0x56
 11755 0ba4 00000000 		.4byte	0
 11756 0ba8 00000000 		.4byte	0
 11757              	.LLST75:
 11758 0bac 86000000 		.4byte	.LVL175
 11759 0bb0 8C000000 		.4byte	.LVL176
 11760 0bb4 0100     		.2byte	0x1
 11761 0bb6 53       		.byte	0x53
 11762 0bb7 8C000000 		.4byte	.LVL176
 11763 0bbb DC000000 		.4byte	.LVL183
 11764 0bbf 0200     		.2byte	0x2
 11765 0bc1 91       		.byte	0x91
 11766 0bc2 50       		.sleb128 -48
 11767 0bc3 00000000 		.4byte	0
 11768 0bc7 00000000 		.4byte	0
 11769              	.LLST76:
 11770 0bcb 68000000 		.4byte	.LVL173
 11771 0bcf 76000000 		.4byte	.LVL174
 11772 0bd3 0100     		.2byte	0x1
 11773 0bd5 57       		.byte	0x57
 11774 0bd6 00000000 		.4byte	0
 11775 0bda 00000000 		.4byte	0
ARM GAS  C:\Users\haske\AppData\Local\Temp\cc7ZkKza.s 			page 244


 11776              	.LLST77:
 11777 0bde 76000000 		.4byte	.LVL174
 11778 0be2 86000000 		.4byte	.LVL175
 11779 0be6 0100     		.2byte	0x1
 11780 0be8 57       		.byte	0x57
 11781 0be9 00000000 		.4byte	0
 11782 0bed 00000000 		.4byte	0
 11783              	.LLST78:
 11784 0bf1 00000000 		.4byte	.LVL184
 11785 0bf5 25000000 		.4byte	.LVL186-1
 11786 0bf9 0100     		.2byte	0x1
 11787 0bfb 50       		.byte	0x50
 11788 0bfc 25000000 		.4byte	.LVL186-1
 11789 0c00 FE000000 		.4byte	.LFE164
 11790 0c04 0200     		.2byte	0x2
 11791 0c06 91       		.byte	0x91
 11792 0c07 40       		.sleb128 -64
 11793 0c08 00000000 		.4byte	0
 11794 0c0c 00000000 		.4byte	0
 11795              	.LLST79:
 11796 0c10 00000000 		.4byte	.LVL184
 11797 0c14 25000000 		.4byte	.LVL186-1
 11798 0c18 0100     		.2byte	0x1
 11799 0c1a 51       		.byte	0x51
 11800 0c1b 25000000 		.4byte	.LVL186-1
 11801 0c1f FE000000 		.4byte	.LFE164
 11802 0c23 0100     		.2byte	0x1
 11803 0c25 57       		.byte	0x57
 11804 0c26 00000000 		.4byte	0
 11805 0c2a 00000000 		.4byte	0
 11806              	.LLST80:
 11807 0c2e 00000000 		.4byte	.LVL184
 11808 0c32 25000000 		.4byte	.LVL186-1
 11809 0c36 0100     		.2byte	0x1
 11810 0c38 52       		.byte	0x52
 11811 0c39 25000000 		.4byte	.LVL186-1
 11812 0c3d FE000000 		.4byte	.LFE164
 11813 0c41 0400     		.2byte	0x4
 11814 0c43 F3       		.byte	0xf3
 11815 0c44 01       		.uleb128 0x1
 11816 0c45 52       		.byte	0x52
 11817 0c46 9F       		.byte	0x9f
 11818 0c47 00000000 		.4byte	0
 11819 0c4b 00000000 		.4byte	0
 11820              	.LLST81:
 11821 0c4f 00000000 		.4byte	.LVL184
 11822 0c53 12000000 		.4byte	.LVL185
 11823 0c57 0100     		.2byte	0x1
 11824 0c59 53       		.byte	0x53
 11825 0c5a 12000000 		.4byte	.LVL185
 11826 0c5e FE000000 		.4byte	.LFE164
 11827 0c62 0100     		.2byte	0x1
 11828 0c64 58       		.byte	0x58
 11829 0c65 00000000 		.4byte	0
 11830 0c69 00000000 		.4byte	0
 11831              	.LLST82:
 11832 0c6d 00000000 		.4byte	.LVL184
ARM GAS  C:\Users\haske\AppData\Local\Temp\cc7ZkKza.s 			page 245


 11833 0c71 9E000000 		.4byte	.LVL199
 11834 0c75 0200     		.2byte	0x2
 11835 0c77 91       		.byte	0x91
 11836 0c78 08       		.sleb128 8
 11837 0c79 DE000000 		.4byte	.LVL202
 11838 0c7d E0000000 		.4byte	.LVL203
 11839 0c81 0100     		.2byte	0x1
 11840 0c83 56       		.byte	0x56
 11841 0c84 E8000000 		.4byte	.LVL204
 11842 0c88 F8000000 		.4byte	.LVL207
 11843 0c8c 0100     		.2byte	0x1
 11844 0c8e 56       		.byte	0x56
 11845 0c8f 00000000 		.4byte	0
 11846 0c93 00000000 		.4byte	0
 11847              	.LLST83:
 11848 0c97 28000000 		.4byte	.LVL187
 11849 0c9b 4E000000 		.4byte	.LVL190
 11850 0c9f 0100     		.2byte	0x1
 11851 0ca1 50       		.byte	0x50
 11852 0ca2 4E000000 		.4byte	.LVL190
 11853 0ca6 8E000000 		.4byte	.LVL197
 11854 0caa 0100     		.2byte	0x1
 11855 0cac 5B       		.byte	0x5b
 11856 0cad 8E000000 		.4byte	.LVL197
 11857 0cb1 96000000 		.4byte	.LVL198
 11858 0cb5 0100     		.2byte	0x1
 11859 0cb7 50       		.byte	0x50
 11860 0cb8 96000000 		.4byte	.LVL198
 11861 0cbc FE000000 		.4byte	.LFE164
 11862 0cc0 0100     		.2byte	0x1
 11863 0cc2 5B       		.byte	0x5b
 11864 0cc3 00000000 		.4byte	0
 11865 0cc7 00000000 		.4byte	0
 11866              	.LLST84:
 11867 0ccb 46000000 		.4byte	.LVL189
 11868 0ccf 4E000000 		.4byte	.LVL190
 11869 0cd3 0100     		.2byte	0x1
 11870 0cd5 53       		.byte	0x53
 11871 0cd6 4E000000 		.4byte	.LVL190
 11872 0cda 8E000000 		.4byte	.LVL197
 11873 0cde 0200     		.2byte	0x2
 11874 0ce0 91       		.byte	0x91
 11875 0ce1 4C       		.sleb128 -52
 11876 0ce2 8E000000 		.4byte	.LVL197
 11877 0ce6 96000000 		.4byte	.LVL198
 11878 0cea 0100     		.2byte	0x1
 11879 0cec 53       		.byte	0x53
 11880 0ced 96000000 		.4byte	.LVL198
 11881 0cf1 FE000000 		.4byte	.LFE164
 11882 0cf5 0200     		.2byte	0x2
 11883 0cf7 91       		.byte	0x91
 11884 0cf8 4C       		.sleb128 -52
 11885 0cf9 00000000 		.4byte	0
 11886 0cfd 00000000 		.4byte	0
 11887              	.LLST85:
 11888 0d01 4E000000 		.4byte	.LVL190
 11889 0d05 7C000000 		.4byte	.LVL193
ARM GAS  C:\Users\haske\AppData\Local\Temp\cc7ZkKza.s 			page 246


 11890 0d09 0100     		.2byte	0x1
 11891 0d0b 54       		.byte	0x54
 11892 0d0c 7E000000 		.4byte	.LVL194
 11893 0d10 8E000000 		.4byte	.LVL197
 11894 0d14 0100     		.2byte	0x1
 11895 0d16 54       		.byte	0x54
 11896 0d17 9E000000 		.4byte	.LVL199
 11897 0d1b DE000000 		.4byte	.LVL202
 11898 0d1f 0100     		.2byte	0x1
 11899 0d21 54       		.byte	0x54
 11900 0d22 E0000000 		.4byte	.LVL203
 11901 0d26 F2000000 		.4byte	.LVL206
 11902 0d2a 0100     		.2byte	0x1
 11903 0d2c 54       		.byte	0x54
 11904 0d2d 00000000 		.4byte	0
 11905 0d31 00000000 		.4byte	0
 11906              	.LLST86:
 11907 0d35 4E000000 		.4byte	.LVL190
 11908 0d39 8E000000 		.4byte	.LVL197
 11909 0d3d 0100     		.2byte	0x1
 11910 0d3f 59       		.byte	0x59
 11911 0d40 96000000 		.4byte	.LVL198
 11912 0d44 FE000000 		.4byte	.LFE164
 11913 0d48 0100     		.2byte	0x1
 11914 0d4a 59       		.byte	0x59
 11915 0d4b 00000000 		.4byte	0
 11916 0d4f 00000000 		.4byte	0
 11917              	.LLST87:
 11918 0d53 28000000 		.4byte	.LVL187
 11919 0d57 36000000 		.4byte	.LVL188
 11920 0d5b 0100     		.2byte	0x1
 11921 0d5d 57       		.byte	0x57
 11922 0d5e 00000000 		.4byte	0
 11923 0d62 00000000 		.4byte	0
 11924              	.LLST88:
 11925 0d66 36000000 		.4byte	.LVL188
 11926 0d6a 46000000 		.4byte	.LVL189
 11927 0d6e 0100     		.2byte	0x1
 11928 0d70 57       		.byte	0x57
 11929 0d71 00000000 		.4byte	0
 11930 0d75 00000000 		.4byte	0
 11931              	.LLST89:
 11932 0d79 00000000 		.4byte	.LVL208
 11933 0d7d 2C000000 		.4byte	.LVL214
 11934 0d81 0100     		.2byte	0x1
 11935 0d83 50       		.byte	0x50
 11936 0d84 2C000000 		.4byte	.LVL214
 11937 0d88 00020000 		.4byte	.LVL282
 11938 0d8c 0100     		.2byte	0x1
 11939 0d8e 54       		.byte	0x54
 11940 0d8f 00020000 		.4byte	.LVL282
 11941 0d93 42020000 		.4byte	.LVL292
 11942 0d97 0300     		.2byte	0x3
 11943 0d99 74       		.byte	0x74
 11944 0d9a 02       		.sleb128 2
 11945 0d9b 9F       		.byte	0x9f
 11946 0d9c 42020000 		.4byte	.LVL292
ARM GAS  C:\Users\haske\AppData\Local\Temp\cc7ZkKza.s 			page 247


 11947 0da0 84020000 		.4byte	.LVL302
 11948 0da4 0300     		.2byte	0x3
 11949 0da6 74       		.byte	0x74
 11950 0da7 04       		.sleb128 4
 11951 0da8 9F       		.byte	0x9f
 11952 0da9 84020000 		.4byte	.LVL302
 11953 0dad CA020000 		.4byte	.LVL313
 11954 0db1 0300     		.2byte	0x3
 11955 0db3 74       		.byte	0x74
 11956 0db4 06       		.sleb128 6
 11957 0db5 9F       		.byte	0x9f
 11958 0db6 CA020000 		.4byte	.LVL313
 11959 0dba E6030000 		.4byte	.LVL365
 11960 0dbe 0100     		.2byte	0x1
 11961 0dc0 54       		.byte	0x54
 11962 0dc1 00000000 		.4byte	0
 11963 0dc5 00000000 		.4byte	0
 11964              	.LLST90:
 11965 0dc9 00000000 		.4byte	.LVL208
 11966 0dcd 30000000 		.4byte	.LVL215
 11967 0dd1 0100     		.2byte	0x1
 11968 0dd3 51       		.byte	0x51
 11969 0dd4 30000000 		.4byte	.LVL215
 11970 0dd8 EC030000 		.4byte	.LFE162
 11971 0ddc 0400     		.2byte	0x4
 11972 0dde F3       		.byte	0xf3
 11973 0ddf 01       		.uleb128 0x1
 11974 0de0 51       		.byte	0x51
 11975 0de1 9F       		.byte	0x9f
 11976 0de2 00000000 		.4byte	0
 11977 0de6 00000000 		.4byte	0
 11978              	.LLST91:
 11979 0dea 00000000 		.4byte	.LVL208
 11980 0dee 16000000 		.4byte	.LVL210
 11981 0df2 0100     		.2byte	0x1
 11982 0df4 52       		.byte	0x52
 11983 0df5 16000000 		.4byte	.LVL210
 11984 0df9 EC030000 		.4byte	.LFE162
 11985 0dfd 0400     		.2byte	0x4
 11986 0dff F3       		.byte	0xf3
 11987 0e00 01       		.uleb128 0x1
 11988 0e01 52       		.byte	0x52
 11989 0e02 9F       		.byte	0x9f
 11990 0e03 00000000 		.4byte	0
 11991 0e07 00000000 		.4byte	0
 11992              	.LLST92:
 11993 0e0b 00000000 		.4byte	.LVL208
 11994 0e0f 12000000 		.4byte	.LVL209
 11995 0e13 0100     		.2byte	0x1
 11996 0e15 53       		.byte	0x53
 11997 0e16 44000000 		.4byte	.LVL217
 11998 0e1a 56000000 		.4byte	.LVL221
 11999 0e1e 0100     		.2byte	0x1
 12000 0e20 55       		.byte	0x55
 12001 0e21 5C000000 		.4byte	.LVL222
 12002 0e25 62000000 		.4byte	.LVL223
 12003 0e29 0100     		.2byte	0x1
ARM GAS  C:\Users\haske\AppData\Local\Temp\cc7ZkKza.s 			page 248


 12004 0e2b 55       		.byte	0x55
 12005 0e2c 6C000000 		.4byte	.LVL226
 12006 0e30 9E000000 		.4byte	.LVL234
 12007 0e34 0100     		.2byte	0x1
 12008 0e36 55       		.byte	0x55
 12009 0e37 26010000 		.4byte	.LVL247
 12010 0e3b 54030000 		.4byte	.LVL339
 12011 0e3f 0100     		.2byte	0x1
 12012 0e41 55       		.byte	0x55
 12013 0e42 C6030000 		.4byte	.LVL358
 12014 0e46 E6030000 		.4byte	.LVL365
 12015 0e4a 0100     		.2byte	0x1
 12016 0e4c 55       		.byte	0x55
 12017 0e4d 00000000 		.4byte	0
 12018 0e51 00000000 		.4byte	0
 12019              	.LLST93:
 12020 0e55 00000000 		.4byte	.LVL208
 12021 0e59 84000000 		.4byte	.LVL232
 12022 0e5d 0200     		.2byte	0x2
 12023 0e5f 91       		.byte	0x91
 12024 0e60 00       		.sleb128 0
 12025 0e61 84000000 		.4byte	.LVL232
 12026 0e65 88000000 		.4byte	.LVL233
 12027 0e69 0100     		.2byte	0x1
 12028 0e6b 51       		.byte	0x51
 12029 0e6c 88000000 		.4byte	.LVL233
 12030 0e70 A6000000 		.4byte	.LVL236
 12031 0e74 0100     		.2byte	0x1
 12032 0e76 50       		.byte	0x50
 12033 0e77 A6000000 		.4byte	.LVL236
 12034 0e7b 26010000 		.4byte	.LVL247
 12035 0e7f 0600     		.2byte	0x6
 12036 0e81 70       		.byte	0x70
 12037 0e82 00       		.sleb128 0
 12038 0e83 08       		.byte	0x8
 12039 0e84 FF       		.byte	0xff
 12040 0e85 27       		.byte	0x27
 12041 0e86 9F       		.byte	0x9f
 12042 0e87 26010000 		.4byte	.LVL247
 12043 0e8b E0030000 		.4byte	.LVL364
 12044 0e8f 0200     		.2byte	0x2
 12045 0e91 91       		.byte	0x91
 12046 0e92 00       		.sleb128 0
 12047 0e93 00000000 		.4byte	0
 12048 0e97 00000000 		.4byte	0
 12049              	.LLST94:
 12050 0e9b 00000000 		.4byte	.LVL208
 12051 0e9f 3E010000 		.4byte	.LVL250
 12052 0ea3 0200     		.2byte	0x2
 12053 0ea5 91       		.byte	0x91
 12054 0ea6 04       		.sleb128 4
 12055 0ea7 3E010000 		.4byte	.LVL250
 12056 0eab 00020000 		.4byte	.LVL282
 12057 0eaf 0100     		.2byte	0x1
 12058 0eb1 53       		.byte	0x53
 12059 0eb2 00020000 		.4byte	.LVL282
 12060 0eb6 42020000 		.4byte	.LVL292
ARM GAS  C:\Users\haske\AppData\Local\Temp\cc7ZkKza.s 			page 249


 12061 0eba 0300     		.2byte	0x3
 12062 0ebc 73       		.byte	0x73
 12063 0ebd 01       		.sleb128 1
 12064 0ebe 9F       		.byte	0x9f
 12065 0ebf 42020000 		.4byte	.LVL292
 12066 0ec3 84020000 		.4byte	.LVL302
 12067 0ec7 0300     		.2byte	0x3
 12068 0ec9 73       		.byte	0x73
 12069 0eca 02       		.sleb128 2
 12070 0ecb 9F       		.byte	0x9f
 12071 0ecc 84020000 		.4byte	.LVL302
 12072 0ed0 C8020000 		.4byte	.LVL312
 12073 0ed4 0300     		.2byte	0x3
 12074 0ed6 73       		.byte	0x73
 12075 0ed7 03       		.sleb128 3
 12076 0ed8 9F       		.byte	0x9f
 12077 0ed9 C8020000 		.4byte	.LVL312
 12078 0edd 42030000 		.4byte	.LVL336
 12079 0ee1 0100     		.2byte	0x1
 12080 0ee3 53       		.byte	0x53
 12081 0ee4 42030000 		.4byte	.LVL336
 12082 0ee8 52030000 		.4byte	.LVL338
 12083 0eec 0200     		.2byte	0x2
 12084 0eee 91       		.byte	0x91
 12085 0eef 04       		.sleb128 4
 12086 0ef0 52030000 		.4byte	.LVL338
 12087 0ef4 E0030000 		.4byte	.LVL364
 12088 0ef8 0100     		.2byte	0x1
 12089 0efa 53       		.byte	0x53
 12090 0efb 00000000 		.4byte	0
 12091 0eff 00000000 		.4byte	0
 12092              	.LLST95:
 12093 0f03 00000000 		.4byte	.LVL208
 12094 0f07 E6030000 		.4byte	.LVL365
 12095 0f0b 0200     		.2byte	0x2
 12096 0f0d 91       		.byte	0x91
 12097 0f0e 08       		.sleb128 8
 12098 0f0f E6030000 		.4byte	.LVL365
 12099 0f13 EC030000 		.4byte	.LFE162
 12100 0f17 0200     		.2byte	0x2
 12101 0f19 7D       		.byte	0x7d
 12102 0f1a 08       		.sleb128 8
 12103 0f1b 00000000 		.4byte	0
 12104 0f1f 00000000 		.4byte	0
 12105              	.LLST96:
 12106 0f23 28000000 		.4byte	.LVL213
 12107 0f27 44000000 		.4byte	.LVL217
 12108 0f2b 0100     		.2byte	0x1
 12109 0f2d 52       		.byte	0x52
 12110 0f2e 44000000 		.4byte	.LVL217
 12111 0f32 56000000 		.4byte	.LVL221
 12112 0f36 0100     		.2byte	0x1
 12113 0f38 56       		.byte	0x56
 12114 0f39 56000000 		.4byte	.LVL221
 12115 0f3d 5C000000 		.4byte	.LVL222
 12116 0f41 0100     		.2byte	0x1
 12117 0f43 52       		.byte	0x52
ARM GAS  C:\Users\haske\AppData\Local\Temp\cc7ZkKza.s 			page 250


 12118 0f44 5C000000 		.4byte	.LVL222
 12119 0f48 62000000 		.4byte	.LVL223
 12120 0f4c 0100     		.2byte	0x1
 12121 0f4e 56       		.byte	0x56
 12122 0f4f 62000000 		.4byte	.LVL223
 12123 0f53 E0030000 		.4byte	.LVL364
 12124 0f57 0100     		.2byte	0x1
 12125 0f59 52       		.byte	0x52
 12126 0f5a 00000000 		.4byte	0
 12127 0f5e 00000000 		.4byte	0
 12128              	.LLST97:
 12129 0f62 38000000 		.4byte	.LVL216
 12130 0f66 AE000000 		.4byte	.LVL237
 12131 0f6a 0100     		.2byte	0x1
 12132 0f6c 5B       		.byte	0x5b
 12133 0f6d AE000000 		.4byte	.LVL237
 12134 0f71 26010000 		.4byte	.LVL247
 12135 0f75 0200     		.2byte	0x2
 12136 0f77 7D       		.byte	0x7d
 12137 0f78 00       		.sleb128 0
 12138 0f79 26010000 		.4byte	.LVL247
 12139 0f7d E0030000 		.4byte	.LVL364
 12140 0f81 0100     		.2byte	0x1
 12141 0f83 5B       		.byte	0x5b
 12142 0f84 00000000 		.4byte	0
 12143 0f88 00000000 		.4byte	0
 12144              	.LLST98:
 12145 0f8c B0000000 		.4byte	.LVL238
 12146 0f90 0E010000 		.4byte	.LVL242
 12147 0f94 0100     		.2byte	0x1
 12148 0f96 51       		.byte	0x51
 12149 0f97 10010000 		.4byte	.LVL243
 12150 0f9b 16010000 		.4byte	.LVL244
 12151 0f9f 0100     		.2byte	0x1
 12152 0fa1 51       		.byte	0x51
 12153 0fa2 3E010000 		.4byte	.LVL250
 12154 0fa6 82010000 		.4byte	.LVL263
 12155 0faa 0100     		.2byte	0x1
 12156 0fac 5C       		.byte	0x5c
 12157 0fad 86010000 		.4byte	.LVL264
 12158 0fb1 3A030000 		.4byte	.LVL335
 12159 0fb5 0100     		.2byte	0x1
 12160 0fb7 5C       		.byte	0x5c
 12161 0fb8 52030000 		.4byte	.LVL338
 12162 0fbc C6030000 		.4byte	.LVL358
 12163 0fc0 0100     		.2byte	0x1
 12164 0fc2 50       		.byte	0x50
 12165 0fc3 C8030000 		.4byte	.LVL359
 12166 0fc7 CE030000 		.4byte	.LVL360
 12167 0fcb 0100     		.2byte	0x1
 12168 0fcd 50       		.byte	0x50
 12169 0fce 00000000 		.4byte	0
 12170 0fd2 00000000 		.4byte	0
 12171              	.LLST99:
 12172 0fd6 44000000 		.4byte	.LVL217
 12173 0fda 56000000 		.4byte	.LVL221
 12174 0fde 0100     		.2byte	0x1
ARM GAS  C:\Users\haske\AppData\Local\Temp\cc7ZkKza.s 			page 251


 12175 0fe0 57       		.byte	0x57
 12176 0fe1 5C000000 		.4byte	.LVL222
 12177 0fe5 62000000 		.4byte	.LVL223
 12178 0fe9 0100     		.2byte	0x1
 12179 0feb 57       		.byte	0x57
 12180 0fec A6000000 		.4byte	.LVL236
 12181 0ff0 B0000000 		.4byte	.LVL238
 12182 0ff4 0200     		.2byte	0x2
 12183 0ff6 30       		.byte	0x30
 12184 0ff7 9F       		.byte	0x9f
 12185 0ff8 B0000000 		.4byte	.LVL238
 12186 0ffc 26010000 		.4byte	.LVL247
 12187 1000 0100     		.2byte	0x1
 12188 1002 5B       		.byte	0x5b
 12189 1003 38010000 		.4byte	.LVL249
 12190 1007 3E010000 		.4byte	.LVL250
 12191 100b 0200     		.2byte	0x2
 12192 100d 30       		.byte	0x30
 12193 100e 9F       		.byte	0x9f
 12194 100f 3E010000 		.4byte	.LVL250
 12195 1013 42030000 		.4byte	.LVL336
 12196 1017 0100     		.2byte	0x1
 12197 1019 59       		.byte	0x59
 12198 101a 46030000 		.4byte	.LVL337
 12199 101e 52030000 		.4byte	.LVL338
 12200 1022 0200     		.2byte	0x2
 12201 1024 30       		.byte	0x30
 12202 1025 9F       		.byte	0x9f
 12203 1026 52030000 		.4byte	.LVL338
 12204 102a E0030000 		.4byte	.LVL364
 12205 102e 0100     		.2byte	0x1
 12206 1030 59       		.byte	0x59
 12207 1031 00000000 		.4byte	0
 12208 1035 00000000 		.4byte	0
 12209              	.LLST100:
 12210 1039 18000000 		.4byte	.LVL211
 12211 103d 26000000 		.4byte	.LVL212
 12212 1041 0100     		.2byte	0x1
 12213 1043 51       		.byte	0x51
 12214 1044 00000000 		.4byte	0
 12215 1048 00000000 		.4byte	0
 12216              	.LLST101:
 12217 104c 28000000 		.4byte	.LVL213
 12218 1050 30000000 		.4byte	.LVL215
 12219 1054 0100     		.2byte	0x1
 12220 1056 51       		.byte	0x51
 12221 1057 30000000 		.4byte	.LVL215
 12222 105b 38000000 		.4byte	.LVL216
 12223 105f 0400     		.2byte	0x4
 12224 1061 F3       		.byte	0xf3
 12225 1062 01       		.uleb128 0x1
 12226 1063 51       		.byte	0x51
 12227 1064 9F       		.byte	0x9f
 12228 1065 00000000 		.4byte	0
 12229 1069 00000000 		.4byte	0
 12230              	.LLST102:
 12231 106d B0000000 		.4byte	.LVL238
ARM GAS  C:\Users\haske\AppData\Local\Temp\cc7ZkKza.s 			page 252


 12232 1071 26010000 		.4byte	.LVL247
 12233 1075 0100     		.2byte	0x1
 12234 1077 56       		.byte	0x56
 12235 1078 E0030000 		.4byte	.LVL364
 12236 107c E6030000 		.4byte	.LVL365
 12237 1080 0100     		.2byte	0x1
 12238 1082 56       		.byte	0x56
 12239 1083 00000000 		.4byte	0
 12240 1087 00000000 		.4byte	0
 12241              	.LLST103:
 12242 108b B0000000 		.4byte	.LVL238
 12243 108f 26010000 		.4byte	.LVL247
 12244 1093 0100     		.2byte	0x1
 12245 1095 58       		.byte	0x58
 12246 1096 E0030000 		.4byte	.LVL364
 12247 109a E6030000 		.4byte	.LVL365
 12248 109e 0100     		.2byte	0x1
 12249 10a0 58       		.byte	0x58
 12250 10a1 00000000 		.4byte	0
 12251 10a5 00000000 		.4byte	0
 12252              	.LLST104:
 12253 10a9 A6000000 		.4byte	.LVL236
 12254 10ad 26010000 		.4byte	.LVL247
 12255 10b1 0100     		.2byte	0x1
 12256 10b3 50       		.byte	0x50
 12257 10b4 00000000 		.4byte	0
 12258 10b8 00000000 		.4byte	0
 12259              	.LLST105:
 12260 10bc 66000000 		.4byte	.LVL224
 12261 10c0 6A000000 		.4byte	.LVL225
 12262 10c4 0100     		.2byte	0x1
 12263 10c6 5C       		.byte	0x5c
 12264 10c7 6A000000 		.4byte	.LVL225
 12265 10cb 78000000 		.4byte	.LVL229
 12266 10cf 0500     		.2byte	0x5
 12267 10d1 71       		.byte	0x71
 12268 10d2 00       		.sleb128 0
 12269 10d3 33       		.byte	0x33
 12270 10d4 25       		.byte	0x25
 12271 10d5 9F       		.byte	0x9f
 12272 10d6 78000000 		.4byte	.LVL229
 12273 10da 84000000 		.4byte	.LVL232
 12274 10de 0500     		.2byte	0x5
 12275 10e0 7C       		.byte	0x7c
 12276 10e1 04       		.sleb128 4
 12277 10e2 33       		.byte	0x33
 12278 10e3 25       		.byte	0x25
 12279 10e4 9F       		.byte	0x9f
 12280 10e5 00000000 		.4byte	0
 12281 10e9 00000000 		.4byte	0
 12282              	.LLST106:
 12283 10ed 72000000 		.4byte	.LVL227
 12284 10f1 74000000 		.4byte	.LVL228
 12285 10f5 0600     		.2byte	0x6
 12286 10f7 73       		.byte	0x73
 12287 10f8 00       		.sleb128 0
 12288 10f9 70       		.byte	0x70
ARM GAS  C:\Users\haske\AppData\Local\Temp\cc7ZkKza.s 			page 253


 12289 10fa 00       		.sleb128 0
 12290 10fb 1A       		.byte	0x1a
 12291 10fc 9F       		.byte	0x9f
 12292 10fd 74000000 		.4byte	.LVL228
 12293 1101 7C000000 		.4byte	.LVL230
 12294 1105 0100     		.2byte	0x1
 12295 1107 53       		.byte	0x53
 12296 1108 7C000000 		.4byte	.LVL230
 12297 110c 84000000 		.4byte	.LVL232
 12298 1110 1300     		.2byte	0x13
 12299 1112 75       		.byte	0x75
 12300 1113 00       		.sleb128 0
 12301 1114 0A       		.byte	0xa
 12302 1115 FFFF     		.2byte	0xffff
 12303 1117 1A       		.byte	0x1a
 12304 1118 40       		.byte	0x40
 12305 1119 24       		.byte	0x24
 12306 111a 75       		.byte	0x75
 12307 111b 00       		.sleb128 0
 12308 111c 0A       		.byte	0xa
 12309 111d FFFF     		.2byte	0xffff
 12310 111f 1A       		.byte	0x1a
 12311 1120 21       		.byte	0x21
 12312 1121 70       		.byte	0x70
 12313 1122 00       		.sleb128 0
 12314 1123 1A       		.byte	0x1a
 12315 1124 9F       		.byte	0x9f
 12316 1125 00000000 		.4byte	0
 12317 1129 00000000 		.4byte	0
 12318              	.LLST107:
 12319 112d 80000000 		.4byte	.LVL231
 12320 1131 84000000 		.4byte	.LVL232
 12321 1135 0100     		.2byte	0x1
 12322 1137 58       		.byte	0x58
 12323 1138 00000000 		.4byte	0
 12324 113c 00000000 		.4byte	0
 12325              	.LLST108:
 12326 1140 88000000 		.4byte	.LVL233
 12327 1144 A2000000 		.4byte	.LVL235
 12328 1148 0600     		.2byte	0x6
 12329 114a F2       		.byte	0xf2
 12330 114b 00270000 		.4byte	.Ldebug_info0+9984
 12331 114f 00       		.sleb128 0
 12332 1150 00000000 		.4byte	0
 12333 1154 00000000 		.4byte	0
 12334              	.LLST109:
 12335 1158 88000000 		.4byte	.LVL233
 12336 115c A2000000 		.4byte	.LVL235
 12337 1160 0100     		.2byte	0x1
 12338 1162 50       		.byte	0x50
 12339 1163 00000000 		.4byte	0
 12340 1167 00000000 		.4byte	0
 12341              	.LLST110:
 12342 116b C2000000 		.4byte	.LVL239
 12343 116f 06010000 		.4byte	.LVL240
 12344 1173 0100     		.2byte	0x1
 12345 1175 50       		.byte	0x50
ARM GAS  C:\Users\haske\AppData\Local\Temp\cc7ZkKza.s 			page 254


 12346 1176 00000000 		.4byte	0
 12347 117a 00000000 		.4byte	0
 12348              	.LLST111:
 12349 117e C2000000 		.4byte	.LVL239
 12350 1182 06010000 		.4byte	.LVL240
 12351 1186 0600     		.2byte	0x6
 12352 1188 F2       		.byte	0xf2
 12353 1189 00270000 		.4byte	.Ldebug_info0+9984
 12354 118d 00       		.sleb128 0
 12355 118e 00000000 		.4byte	0
 12356 1192 00000000 		.4byte	0
 12357              	.LLST112:
 12358 1196 B0000000 		.4byte	.LVL238
 12359 119a 26010000 		.4byte	.LVL247
 12360 119e 0100     		.2byte	0x1
 12361 11a0 57       		.byte	0x57
 12362 11a1 E0030000 		.4byte	.LVL364
 12363 11a5 E6030000 		.4byte	.LVL365
 12364 11a9 0100     		.2byte	0x1
 12365 11ab 57       		.byte	0x57
 12366 11ac 00000000 		.4byte	0
 12367 11b0 00000000 		.4byte	0
 12368              	.LLST113:
 12369 11b4 2E010000 		.4byte	.LVL248
 12370 11b8 96010000 		.4byte	.LVL265
 12371 11bc 0100     		.2byte	0x1
 12372 11be 58       		.byte	0x58
 12373 11bf 96010000 		.4byte	.LVL265
 12374 11c3 D6020000 		.4byte	.LVL318
 12375 11c7 0100     		.2byte	0x1
 12376 11c9 50       		.byte	0x50
 12377 11ca D6020000 		.4byte	.LVL318
 12378 11ce D8020000 		.4byte	.LVL319
 12379 11d2 0100     		.2byte	0x1
 12380 11d4 58       		.byte	0x58
 12381 11d5 D8020000 		.4byte	.LVL319
 12382 11d9 E2020000 		.4byte	.LVL320
 12383 11dd 0100     		.2byte	0x1
 12384 11df 50       		.byte	0x50
 12385 11e0 E2020000 		.4byte	.LVL320
 12386 11e4 52030000 		.4byte	.LVL338
 12387 11e8 0100     		.2byte	0x1
 12388 11ea 58       		.byte	0x58
 12389 11eb 52030000 		.4byte	.LVL338
 12390 11ef E0030000 		.4byte	.LVL364
 12391 11f3 0F00     		.2byte	0xf
 12392 11f5 7D       		.byte	0x7d
 12393 11f6 00       		.sleb128 0
 12394 11f7 94       		.byte	0x94
 12395 11f8 02       		.byte	0x2
 12396 11f9 0A       		.byte	0xa
 12397 11fa FFFF     		.2byte	0xffff
 12398 11fc 1A       		.byte	0x1a
 12399 11fd 0C       		.byte	0xc
 12400 11fe 01000100 		.4byte	0x10001
 12401 1202 1E       		.byte	0x1e
 12402 1203 9F       		.byte	0x9f
ARM GAS  C:\Users\haske\AppData\Local\Temp\cc7ZkKza.s 			page 255


 12403 1204 00000000 		.4byte	0
 12404 1208 00000000 		.4byte	0
 12405              	.LLST114:
 12406 120c 38010000 		.4byte	.LVL249
 12407 1210 42030000 		.4byte	.LVL336
 12408 1214 0100     		.2byte	0x1
 12409 1216 56       		.byte	0x56
 12410 1217 00000000 		.4byte	0
 12411 121b 00000000 		.4byte	0
 12412              	.LLST115:
 12413 121f 4C010000 		.4byte	.LVL251
 12414 1223 50010000 		.4byte	.LVL252
 12415 1227 0100     		.2byte	0x1
 12416 1229 5E       		.byte	0x5e
 12417 122a 50010000 		.4byte	.LVL252
 12418 122e 68010000 		.4byte	.LVL256
 12419 1232 0500     		.2byte	0x5
 12420 1234 7E       		.byte	0x7e
 12421 1235 00       		.sleb128 0
 12422 1236 33       		.byte	0x33
 12423 1237 25       		.byte	0x25
 12424 1238 9F       		.byte	0x9f
 12425 1239 68010000 		.4byte	.LVL256
 12426 123d 76010000 		.4byte	.LVL259
 12427 1241 0C00     		.2byte	0xc
 12428 1243 73       		.byte	0x73
 12429 1244 00       		.sleb128 0
 12430 1245 94       		.byte	0x94
 12431 1246 01       		.byte	0x1
 12432 1247 08       		.byte	0x8
 12433 1248 FF       		.byte	0xff
 12434 1249 1A       		.byte	0x1a
 12435 124a 23       		.byte	0x23
 12436 124b 04       		.uleb128 0x4
 12437 124c 33       		.byte	0x33
 12438 124d 25       		.byte	0x25
 12439 124e 9F       		.byte	0x9f
 12440 124f 00000000 		.4byte	0
 12441 1253 00000000 		.4byte	0
 12442              	.LLST116:
 12443 1257 5A010000 		.4byte	.LVL253
 12444 125b 70010000 		.4byte	.LVL257
 12445 125f 0100     		.2byte	0x1
 12446 1261 57       		.byte	0x57
 12447 1262 70010000 		.4byte	.LVL257
 12448 1266 72010000 		.4byte	.LVL258
 12449 126a 1700     		.2byte	0x17
 12450 126c 74       		.byte	0x74
 12451 126d 00       		.sleb128 0
 12452 126e 94       		.byte	0x94
 12453 126f 02       		.byte	0x2
 12454 1270 0A       		.byte	0xa
 12455 1271 FFFF     		.2byte	0xffff
 12456 1273 1A       		.byte	0x1a
 12457 1274 40       		.byte	0x40
 12458 1275 24       		.byte	0x24
 12459 1276 74       		.byte	0x74
ARM GAS  C:\Users\haske\AppData\Local\Temp\cc7ZkKza.s 			page 256


 12460 1277 00       		.sleb128 0
 12461 1278 94       		.byte	0x94
 12462 1279 02       		.byte	0x2
 12463 127a 0A       		.byte	0xa
 12464 127b FFFF     		.2byte	0xffff
 12465 127d 1A       		.byte	0x1a
 12466 127e 21       		.byte	0x21
 12467 127f 71       		.byte	0x71
 12468 1280 00       		.sleb128 0
 12469 1281 1A       		.byte	0x1a
 12470 1282 9F       		.byte	0x9f
 12471 1283 72010000 		.4byte	.LVL258
 12472 1287 76010000 		.4byte	.LVL259
 12473 128b 1A00     		.2byte	0x1a
 12474 128d 74       		.byte	0x74
 12475 128e 00       		.sleb128 0
 12476 128f 94       		.byte	0x94
 12477 1290 02       		.byte	0x2
 12478 1291 0A       		.byte	0xa
 12479 1292 FFFF     		.2byte	0xffff
 12480 1294 1A       		.byte	0x1a
 12481 1295 40       		.byte	0x40
 12482 1296 24       		.byte	0x24
 12483 1297 74       		.byte	0x74
 12484 1298 00       		.sleb128 0
 12485 1299 94       		.byte	0x94
 12486 129a 02       		.byte	0x2
 12487 129b 0A       		.byte	0xa
 12488 129c FFFF     		.2byte	0xffff
 12489 129e 1A       		.byte	0x1a
 12490 129f 21       		.byte	0x21
 12491 12a0 0C       		.byte	0xc
 12492 12a1 1FF8E007 		.4byte	0x7e0f81f
 12493 12a5 1A       		.byte	0x1a
 12494 12a6 9F       		.byte	0x9f
 12495 12a7 00000000 		.4byte	0
 12496 12ab 00000000 		.4byte	0
 12497              	.LLST117:
 12498 12af 62010000 		.4byte	.LVL254
 12499 12b3 64010000 		.4byte	.LVL255
 12500 12b7 0100     		.2byte	0x1
 12501 12b9 50       		.byte	0x50
 12502 12ba 64010000 		.4byte	.LVL255
 12503 12be 72010000 		.4byte	.LVL258
 12504 12c2 1300     		.2byte	0x13
 12505 12c4 75       		.byte	0x75
 12506 12c5 00       		.sleb128 0
 12507 12c6 0A       		.byte	0xa
 12508 12c7 FFFF     		.2byte	0xffff
 12509 12c9 1A       		.byte	0x1a
 12510 12ca 40       		.byte	0x40
 12511 12cb 24       		.byte	0x24
 12512 12cc 75       		.byte	0x75
 12513 12cd 00       		.sleb128 0
 12514 12ce 0A       		.byte	0xa
 12515 12cf FFFF     		.2byte	0xffff
 12516 12d1 1A       		.byte	0x1a
ARM GAS  C:\Users\haske\AppData\Local\Temp\cc7ZkKza.s 			page 257


 12517 12d2 21       		.byte	0x21
 12518 12d3 71       		.byte	0x71
 12519 12d4 00       		.sleb128 0
 12520 12d5 1A       		.byte	0x1a
 12521 12d6 9F       		.byte	0x9f
 12522 12d7 72010000 		.4byte	.LVL258
 12523 12db 76010000 		.4byte	.LVL259
 12524 12df 1600     		.2byte	0x16
 12525 12e1 75       		.byte	0x75
 12526 12e2 00       		.sleb128 0
 12527 12e3 0A       		.byte	0xa
 12528 12e4 FFFF     		.2byte	0xffff
 12529 12e6 1A       		.byte	0x1a
 12530 12e7 40       		.byte	0x40
 12531 12e8 24       		.byte	0x24
 12532 12e9 75       		.byte	0x75
 12533 12ea 00       		.sleb128 0
 12534 12eb 0A       		.byte	0xa
 12535 12ec FFFF     		.2byte	0xffff
 12536 12ee 1A       		.byte	0x1a
 12537 12ef 21       		.byte	0x21
 12538 12f0 0C       		.byte	0xc
 12539 12f1 1FF8E007 		.4byte	0x7e0f81f
 12540 12f5 1A       		.byte	0x1a
 12541 12f6 9F       		.byte	0x9f
 12542 12f7 00000000 		.4byte	0
 12543 12fb 00000000 		.4byte	0
 12544              	.LLST118:
 12545 12ff 72010000 		.4byte	.LVL258
 12546 1303 76010000 		.4byte	.LVL259
 12547 1307 0100     		.2byte	0x1
 12548 1309 51       		.byte	0x51
 12549 130a 00000000 		.4byte	0
 12550 130e 00000000 		.4byte	0
 12551              	.LLST119:
 12552 1312 98010000 		.4byte	.LVL266
 12553 1316 DA010000 		.4byte	.LVL274
 12554 131a 0100     		.2byte	0x1
 12555 131c 51       		.byte	0x51
 12556 131d DA010000 		.4byte	.LVL274
 12557 1321 00020000 		.4byte	.LVL282
 12558 1325 0200     		.2byte	0x2
 12559 1327 73       		.byte	0x73
 12560 1328 00       		.sleb128 0
 12561 1329 CC020000 		.4byte	.LVL314
 12562 132d D0020000 		.4byte	.LVL316
 12563 1331 0100     		.2byte	0x1
 12564 1333 51       		.byte	0x51
 12565 1334 00000000 		.4byte	0
 12566 1338 00000000 		.4byte	0
 12567              	.LLST120:
 12568 133c A6010000 		.4byte	.LVL267
 12569 1340 AE010000 		.4byte	.LVL268
 12570 1344 0300     		.2byte	0x3
 12571 1346 74       		.byte	0x74
 12572 1347 02       		.sleb128 2
 12573 1348 9F       		.byte	0x9f
ARM GAS  C:\Users\haske\AppData\Local\Temp\cc7ZkKza.s 			page 258


 12574 1349 00000000 		.4byte	0
 12575 134d 00000000 		.4byte	0
 12576              	.LLST121:
 12577 1351 AE010000 		.4byte	.LVL268
 12578 1355 B2010000 		.4byte	.LVL269
 12579 1359 0100     		.2byte	0x1
 12580 135b 54       		.byte	0x54
 12581 135c 00000000 		.4byte	0
 12582 1360 00000000 		.4byte	0
 12583              	.LLST122:
 12584 1364 CC010000 		.4byte	.LVL272
 12585 1368 D0010000 		.4byte	.LVL273
 12586 136c 0100     		.2byte	0x1
 12587 136e 58       		.byte	0x58
 12588 136f D0010000 		.4byte	.LVL273
 12589 1373 EE010000 		.4byte	.LVL278
 12590 1377 0500     		.2byte	0x5
 12591 1379 78       		.byte	0x78
 12592 137a 00       		.sleb128 0
 12593 137b 33       		.byte	0x33
 12594 137c 25       		.byte	0x25
 12595 137d 9F       		.byte	0x9f
 12596 137e EE010000 		.4byte	.LVL278
 12597 1382 FE010000 		.4byte	.LVL281
 12598 1386 0C00     		.2byte	0xc
 12599 1388 73       		.byte	0x73
 12600 1389 00       		.sleb128 0
 12601 138a 94       		.byte	0x94
 12602 138b 01       		.byte	0x1
 12603 138c 08       		.byte	0x8
 12604 138d FF       		.byte	0xff
 12605 138e 1A       		.byte	0x1a
 12606 138f 23       		.byte	0x23
 12607 1390 04       		.uleb128 0x4
 12608 1391 33       		.byte	0x33
 12609 1392 25       		.byte	0x25
 12610 1393 9F       		.byte	0x9f
 12611 1394 00000000 		.4byte	0
 12612 1398 00000000 		.4byte	0
 12613              	.LLST123:
 12614 139c DE010000 		.4byte	.LVL275
 12615 13a0 F6010000 		.4byte	.LVL279
 12616 13a4 0100     		.2byte	0x1
 12617 13a6 5E       		.byte	0x5e
 12618 13a7 F6010000 		.4byte	.LVL279
 12619 13ab FA010000 		.4byte	.LVL280
 12620 13af 1700     		.2byte	0x17
 12621 13b1 74       		.byte	0x74
 12622 13b2 00       		.sleb128 0
 12623 13b3 94       		.byte	0x94
 12624 13b4 02       		.byte	0x2
 12625 13b5 0A       		.byte	0xa
 12626 13b6 FFFF     		.2byte	0xffff
 12627 13b8 1A       		.byte	0x1a
 12628 13b9 40       		.byte	0x40
 12629 13ba 24       		.byte	0x24
 12630 13bb 74       		.byte	0x74
ARM GAS  C:\Users\haske\AppData\Local\Temp\cc7ZkKza.s 			page 259


 12631 13bc 00       		.sleb128 0
 12632 13bd 94       		.byte	0x94
 12633 13be 02       		.byte	0x2
 12634 13bf 0A       		.byte	0xa
 12635 13c0 FFFF     		.2byte	0xffff
 12636 13c2 1A       		.byte	0x1a
 12637 13c3 21       		.byte	0x21
 12638 13c4 71       		.byte	0x71
 12639 13c5 00       		.sleb128 0
 12640 13c6 1A       		.byte	0x1a
 12641 13c7 9F       		.byte	0x9f
 12642 13c8 FA010000 		.4byte	.LVL280
 12643 13cc FE010000 		.4byte	.LVL281
 12644 13d0 1A00     		.2byte	0x1a
 12645 13d2 74       		.byte	0x74
 12646 13d3 00       		.sleb128 0
 12647 13d4 94       		.byte	0x94
 12648 13d5 02       		.byte	0x2
 12649 13d6 0A       		.byte	0xa
 12650 13d7 FFFF     		.2byte	0xffff
 12651 13d9 1A       		.byte	0x1a
 12652 13da 40       		.byte	0x40
 12653 13db 24       		.byte	0x24
 12654 13dc 74       		.byte	0x74
 12655 13dd 00       		.sleb128 0
 12656 13de 94       		.byte	0x94
 12657 13df 02       		.byte	0x2
 12658 13e0 0A       		.byte	0xa
 12659 13e1 FFFF     		.2byte	0xffff
 12660 13e3 1A       		.byte	0x1a
 12661 13e4 21       		.byte	0x21
 12662 13e5 0C       		.byte	0xc
 12663 13e6 1FF8E007 		.4byte	0x7e0f81f
 12664 13ea 1A       		.byte	0x1a
 12665 13eb 9F       		.byte	0x9f
 12666 13ec 00000000 		.4byte	0
 12667 13f0 00000000 		.4byte	0
 12668              	.LLST124:
 12669 13f4 E6010000 		.4byte	.LVL276
 12670 13f8 EA010000 		.4byte	.LVL277
 12671 13fc 0100     		.2byte	0x1
 12672 13fe 57       		.byte	0x57
 12673 13ff EA010000 		.4byte	.LVL277
 12674 1403 FA010000 		.4byte	.LVL280
 12675 1407 1300     		.2byte	0x13
 12676 1409 75       		.byte	0x75
 12677 140a 00       		.sleb128 0
 12678 140b 0A       		.byte	0xa
 12679 140c FFFF     		.2byte	0xffff
 12680 140e 1A       		.byte	0x1a
 12681 140f 40       		.byte	0x40
 12682 1410 24       		.byte	0x24
 12683 1411 75       		.byte	0x75
 12684 1412 00       		.sleb128 0
 12685 1413 0A       		.byte	0xa
 12686 1414 FFFF     		.2byte	0xffff
 12687 1416 1A       		.byte	0x1a
ARM GAS  C:\Users\haske\AppData\Local\Temp\cc7ZkKza.s 			page 260


 12688 1417 21       		.byte	0x21
 12689 1418 71       		.byte	0x71
 12690 1419 00       		.sleb128 0
 12691 141a 1A       		.byte	0x1a
 12692 141b 9F       		.byte	0x9f
 12693 141c FA010000 		.4byte	.LVL280
 12694 1420 FE010000 		.4byte	.LVL281
 12695 1424 1600     		.2byte	0x16
 12696 1426 75       		.byte	0x75
 12697 1427 00       		.sleb128 0
 12698 1428 0A       		.byte	0xa
 12699 1429 FFFF     		.2byte	0xffff
 12700 142b 1A       		.byte	0x1a
 12701 142c 40       		.byte	0x40
 12702 142d 24       		.byte	0x24
 12703 142e 75       		.byte	0x75
 12704 142f 00       		.sleb128 0
 12705 1430 0A       		.byte	0xa
 12706 1431 FFFF     		.2byte	0xffff
 12707 1433 1A       		.byte	0x1a
 12708 1434 21       		.byte	0x21
 12709 1435 0C       		.byte	0xc
 12710 1436 1FF8E007 		.4byte	0x7e0f81f
 12711 143a 1A       		.byte	0x1a
 12712 143b 9F       		.byte	0x9f
 12713 143c 00000000 		.4byte	0
 12714 1440 00000000 		.4byte	0
 12715              	.LLST125:
 12716 1444 FA010000 		.4byte	.LVL280
 12717 1448 FE010000 		.4byte	.LVL281
 12718 144c 0100     		.2byte	0x1
 12719 144e 51       		.byte	0x51
 12720 144f 00000000 		.4byte	0
 12721 1453 00000000 		.4byte	0
 12722              	.LLST126:
 12723 1457 0E020000 		.4byte	.LVL283
 12724 145b 12020000 		.4byte	.LVL284
 12725 145f 0100     		.2byte	0x1
 12726 1461 58       		.byte	0x58
 12727 1462 12020000 		.4byte	.LVL284
 12728 1466 30020000 		.4byte	.LVL288
 12729 146a 0500     		.2byte	0x5
 12730 146c 78       		.byte	0x78
 12731 146d 00       		.sleb128 0
 12732 146e 33       		.byte	0x33
 12733 146f 25       		.byte	0x25
 12734 1470 9F       		.byte	0x9f
 12735 1471 30020000 		.4byte	.LVL288
 12736 1475 40020000 		.4byte	.LVL291
 12737 1479 0C00     		.2byte	0xc
 12738 147b 73       		.byte	0x73
 12739 147c 01       		.sleb128 1
 12740 147d 94       		.byte	0x94
 12741 147e 01       		.byte	0x1
 12742 147f 08       		.byte	0x8
 12743 1480 FF       		.byte	0xff
 12744 1481 1A       		.byte	0x1a
ARM GAS  C:\Users\haske\AppData\Local\Temp\cc7ZkKza.s 			page 261


 12745 1482 23       		.byte	0x23
 12746 1483 04       		.uleb128 0x4
 12747 1484 33       		.byte	0x33
 12748 1485 25       		.byte	0x25
 12749 1486 9F       		.byte	0x9f
 12750 1487 00000000 		.4byte	0
 12751 148b 00000000 		.4byte	0
 12752              	.LLST127:
 12753 148f 20020000 		.4byte	.LVL285
 12754 1493 38020000 		.4byte	.LVL289
 12755 1497 0100     		.2byte	0x1
 12756 1499 5E       		.byte	0x5e
 12757 149a 38020000 		.4byte	.LVL289
 12758 149e 3C020000 		.4byte	.LVL290
 12759 14a2 1700     		.2byte	0x17
 12760 14a4 74       		.byte	0x74
 12761 14a5 02       		.sleb128 2
 12762 14a6 94       		.byte	0x94
 12763 14a7 02       		.byte	0x2
 12764 14a8 0A       		.byte	0xa
 12765 14a9 FFFF     		.2byte	0xffff
 12766 14ab 1A       		.byte	0x1a
 12767 14ac 40       		.byte	0x40
 12768 14ad 24       		.byte	0x24
 12769 14ae 74       		.byte	0x74
 12770 14af 02       		.sleb128 2
 12771 14b0 94       		.byte	0x94
 12772 14b1 02       		.byte	0x2
 12773 14b2 0A       		.byte	0xa
 12774 14b3 FFFF     		.2byte	0xffff
 12775 14b5 1A       		.byte	0x1a
 12776 14b6 21       		.byte	0x21
 12777 14b7 71       		.byte	0x71
 12778 14b8 00       		.sleb128 0
 12779 14b9 1A       		.byte	0x1a
 12780 14ba 9F       		.byte	0x9f
 12781 14bb 3C020000 		.4byte	.LVL290
 12782 14bf 40020000 		.4byte	.LVL291
 12783 14c3 1A00     		.2byte	0x1a
 12784 14c5 74       		.byte	0x74
 12785 14c6 02       		.sleb128 2
 12786 14c7 94       		.byte	0x94
 12787 14c8 02       		.byte	0x2
 12788 14c9 0A       		.byte	0xa
 12789 14ca FFFF     		.2byte	0xffff
 12790 14cc 1A       		.byte	0x1a
 12791 14cd 40       		.byte	0x40
 12792 14ce 24       		.byte	0x24
 12793 14cf 74       		.byte	0x74
 12794 14d0 02       		.sleb128 2
 12795 14d1 94       		.byte	0x94
 12796 14d2 02       		.byte	0x2
 12797 14d3 0A       		.byte	0xa
 12798 14d4 FFFF     		.2byte	0xffff
 12799 14d6 1A       		.byte	0x1a
 12800 14d7 21       		.byte	0x21
 12801 14d8 0C       		.byte	0xc
ARM GAS  C:\Users\haske\AppData\Local\Temp\cc7ZkKza.s 			page 262


 12802 14d9 1FF8E007 		.4byte	0x7e0f81f
 12803 14dd 1A       		.byte	0x1a
 12804 14de 9F       		.byte	0x9f
 12805 14df 00000000 		.4byte	0
 12806 14e3 00000000 		.4byte	0
 12807              	.LLST128:
 12808 14e7 28020000 		.4byte	.LVL286
 12809 14eb 2C020000 		.4byte	.LVL287
 12810 14ef 0100     		.2byte	0x1
 12811 14f1 57       		.byte	0x57
 12812 14f2 2C020000 		.4byte	.LVL287
 12813 14f6 3C020000 		.4byte	.LVL290
 12814 14fa 1300     		.2byte	0x13
 12815 14fc 75       		.byte	0x75
 12816 14fd 00       		.sleb128 0
 12817 14fe 0A       		.byte	0xa
 12818 14ff FFFF     		.2byte	0xffff
 12819 1501 1A       		.byte	0x1a
 12820 1502 40       		.byte	0x40
 12821 1503 24       		.byte	0x24
 12822 1504 75       		.byte	0x75
 12823 1505 00       		.sleb128 0
 12824 1506 0A       		.byte	0xa
 12825 1507 FFFF     		.2byte	0xffff
 12826 1509 1A       		.byte	0x1a
 12827 150a 21       		.byte	0x21
 12828 150b 71       		.byte	0x71
 12829 150c 00       		.sleb128 0
 12830 150d 1A       		.byte	0x1a
 12831 150e 9F       		.byte	0x9f
 12832 150f 3C020000 		.4byte	.LVL290
 12833 1513 40020000 		.4byte	.LVL291
 12834 1517 1600     		.2byte	0x16
 12835 1519 75       		.byte	0x75
 12836 151a 00       		.sleb128 0
 12837 151b 0A       		.byte	0xa
 12838 151c FFFF     		.2byte	0xffff
 12839 151e 1A       		.byte	0x1a
 12840 151f 40       		.byte	0x40
 12841 1520 24       		.byte	0x24
 12842 1521 75       		.byte	0x75
 12843 1522 00       		.sleb128 0
 12844 1523 0A       		.byte	0xa
 12845 1524 FFFF     		.2byte	0xffff
 12846 1526 1A       		.byte	0x1a
 12847 1527 21       		.byte	0x21
 12848 1528 0C       		.byte	0xc
 12849 1529 1FF8E007 		.4byte	0x7e0f81f
 12850 152d 1A       		.byte	0x1a
 12851 152e 9F       		.byte	0x9f
 12852 152f 00000000 		.4byte	0
 12853 1533 00000000 		.4byte	0
 12854              	.LLST129:
 12855 1537 3C020000 		.4byte	.LVL290
 12856 153b 40020000 		.4byte	.LVL291
 12857 153f 0100     		.2byte	0x1
 12858 1541 51       		.byte	0x51
ARM GAS  C:\Users\haske\AppData\Local\Temp\cc7ZkKza.s 			page 263


 12859 1542 00000000 		.4byte	0
 12860 1546 00000000 		.4byte	0
 12861              	.LLST130:
 12862 154a 50020000 		.4byte	.LVL293
 12863 154e 54020000 		.4byte	.LVL294
 12864 1552 0100     		.2byte	0x1
 12865 1554 58       		.byte	0x58
 12866 1555 54020000 		.4byte	.LVL294
 12867 1559 72020000 		.4byte	.LVL298
 12868 155d 0500     		.2byte	0x5
 12869 155f 78       		.byte	0x78
 12870 1560 00       		.sleb128 0
 12871 1561 33       		.byte	0x33
 12872 1562 25       		.byte	0x25
 12873 1563 9F       		.byte	0x9f
 12874 1564 72020000 		.4byte	.LVL298
 12875 1568 82020000 		.4byte	.LVL301
 12876 156c 0C00     		.2byte	0xc
 12877 156e 73       		.byte	0x73
 12878 156f 02       		.sleb128 2
 12879 1570 94       		.byte	0x94
 12880 1571 01       		.byte	0x1
 12881 1572 08       		.byte	0x8
 12882 1573 FF       		.byte	0xff
 12883 1574 1A       		.byte	0x1a
 12884 1575 23       		.byte	0x23
 12885 1576 04       		.uleb128 0x4
 12886 1577 33       		.byte	0x33
 12887 1578 25       		.byte	0x25
 12888 1579 9F       		.byte	0x9f
 12889 157a 00000000 		.4byte	0
 12890 157e 00000000 		.4byte	0
 12891              	.LLST131:
 12892 1582 62020000 		.4byte	.LVL295
 12893 1586 7A020000 		.4byte	.LVL299
 12894 158a 0100     		.2byte	0x1
 12895 158c 5E       		.byte	0x5e
 12896 158d 7A020000 		.4byte	.LVL299
 12897 1591 7E020000 		.4byte	.LVL300
 12898 1595 1700     		.2byte	0x17
 12899 1597 74       		.byte	0x74
 12900 1598 04       		.sleb128 4
 12901 1599 94       		.byte	0x94
 12902 159a 02       		.byte	0x2
 12903 159b 0A       		.byte	0xa
 12904 159c FFFF     		.2byte	0xffff
 12905 159e 1A       		.byte	0x1a
 12906 159f 40       		.byte	0x40
 12907 15a0 24       		.byte	0x24
 12908 15a1 74       		.byte	0x74
 12909 15a2 04       		.sleb128 4
 12910 15a3 94       		.byte	0x94
 12911 15a4 02       		.byte	0x2
 12912 15a5 0A       		.byte	0xa
 12913 15a6 FFFF     		.2byte	0xffff
 12914 15a8 1A       		.byte	0x1a
 12915 15a9 21       		.byte	0x21
ARM GAS  C:\Users\haske\AppData\Local\Temp\cc7ZkKza.s 			page 264


 12916 15aa 71       		.byte	0x71
 12917 15ab 00       		.sleb128 0
 12918 15ac 1A       		.byte	0x1a
 12919 15ad 9F       		.byte	0x9f
 12920 15ae 7E020000 		.4byte	.LVL300
 12921 15b2 82020000 		.4byte	.LVL301
 12922 15b6 1A00     		.2byte	0x1a
 12923 15b8 74       		.byte	0x74
 12924 15b9 04       		.sleb128 4
 12925 15ba 94       		.byte	0x94
 12926 15bb 02       		.byte	0x2
 12927 15bc 0A       		.byte	0xa
 12928 15bd FFFF     		.2byte	0xffff
 12929 15bf 1A       		.byte	0x1a
 12930 15c0 40       		.byte	0x40
 12931 15c1 24       		.byte	0x24
 12932 15c2 74       		.byte	0x74
 12933 15c3 04       		.sleb128 4
 12934 15c4 94       		.byte	0x94
 12935 15c5 02       		.byte	0x2
 12936 15c6 0A       		.byte	0xa
 12937 15c7 FFFF     		.2byte	0xffff
 12938 15c9 1A       		.byte	0x1a
 12939 15ca 21       		.byte	0x21
 12940 15cb 0C       		.byte	0xc
 12941 15cc 1FF8E007 		.4byte	0x7e0f81f
 12942 15d0 1A       		.byte	0x1a
 12943 15d1 9F       		.byte	0x9f
 12944 15d2 00000000 		.4byte	0
 12945 15d6 00000000 		.4byte	0
 12946              	.LLST132:
 12947 15da 6A020000 		.4byte	.LVL296
 12948 15de 6E020000 		.4byte	.LVL297
 12949 15e2 0100     		.2byte	0x1
 12950 15e4 57       		.byte	0x57
 12951 15e5 6E020000 		.4byte	.LVL297
 12952 15e9 7E020000 		.4byte	.LVL300
 12953 15ed 1300     		.2byte	0x13
 12954 15ef 75       		.byte	0x75
 12955 15f0 00       		.sleb128 0
 12956 15f1 0A       		.byte	0xa
 12957 15f2 FFFF     		.2byte	0xffff
 12958 15f4 1A       		.byte	0x1a
 12959 15f5 40       		.byte	0x40
 12960 15f6 24       		.byte	0x24
 12961 15f7 75       		.byte	0x75
 12962 15f8 00       		.sleb128 0
 12963 15f9 0A       		.byte	0xa
 12964 15fa FFFF     		.2byte	0xffff
 12965 15fc 1A       		.byte	0x1a
 12966 15fd 21       		.byte	0x21
 12967 15fe 71       		.byte	0x71
 12968 15ff 00       		.sleb128 0
 12969 1600 1A       		.byte	0x1a
 12970 1601 9F       		.byte	0x9f
 12971 1602 7E020000 		.4byte	.LVL300
 12972 1606 82020000 		.4byte	.LVL301
ARM GAS  C:\Users\haske\AppData\Local\Temp\cc7ZkKza.s 			page 265


 12973 160a 1600     		.2byte	0x16
 12974 160c 75       		.byte	0x75
 12975 160d 00       		.sleb128 0
 12976 160e 0A       		.byte	0xa
 12977 160f FFFF     		.2byte	0xffff
 12978 1611 1A       		.byte	0x1a
 12979 1612 40       		.byte	0x40
 12980 1613 24       		.byte	0x24
 12981 1614 75       		.byte	0x75
 12982 1615 00       		.sleb128 0
 12983 1616 0A       		.byte	0xa
 12984 1617 FFFF     		.2byte	0xffff
 12985 1619 1A       		.byte	0x1a
 12986 161a 21       		.byte	0x21
 12987 161b 0C       		.byte	0xc
 12988 161c 1FF8E007 		.4byte	0x7e0f81f
 12989 1620 1A       		.byte	0x1a
 12990 1621 9F       		.byte	0x9f
 12991 1622 00000000 		.4byte	0
 12992 1626 00000000 		.4byte	0
 12993              	.LLST133:
 12994 162a 7E020000 		.4byte	.LVL300
 12995 162e 82020000 		.4byte	.LVL301
 12996 1632 0100     		.2byte	0x1
 12997 1634 51       		.byte	0x51
 12998 1635 00000000 		.4byte	0
 12999 1639 00000000 		.4byte	0
 13000              	.LLST134:
 13001 163d 92020000 		.4byte	.LVL303
 13002 1641 96020000 		.4byte	.LVL304
 13003 1645 0100     		.2byte	0x1
 13004 1647 58       		.byte	0x58
 13005 1648 96020000 		.4byte	.LVL304
 13006 164c B4020000 		.4byte	.LVL308
 13007 1650 0500     		.2byte	0x5
 13008 1652 78       		.byte	0x78
 13009 1653 00       		.sleb128 0
 13010 1654 33       		.byte	0x33
 13011 1655 25       		.byte	0x25
 13012 1656 9F       		.byte	0x9f
 13013 1657 B4020000 		.4byte	.LVL308
 13014 165b C4020000 		.4byte	.LVL311
 13015 165f 0C00     		.2byte	0xc
 13016 1661 73       		.byte	0x73
 13017 1662 03       		.sleb128 3
 13018 1663 94       		.byte	0x94
 13019 1664 01       		.byte	0x1
 13020 1665 08       		.byte	0x8
 13021 1666 FF       		.byte	0xff
 13022 1667 1A       		.byte	0x1a
 13023 1668 23       		.byte	0x23
 13024 1669 04       		.uleb128 0x4
 13025 166a 33       		.byte	0x33
 13026 166b 25       		.byte	0x25
 13027 166c 9F       		.byte	0x9f
 13028 166d 00000000 		.4byte	0
 13029 1671 00000000 		.4byte	0
ARM GAS  C:\Users\haske\AppData\Local\Temp\cc7ZkKza.s 			page 266


 13030              	.LLST135:
 13031 1675 A4020000 		.4byte	.LVL305
 13032 1679 BC020000 		.4byte	.LVL309
 13033 167d 0100     		.2byte	0x1
 13034 167f 5E       		.byte	0x5e
 13035 1680 BC020000 		.4byte	.LVL309
 13036 1684 C0020000 		.4byte	.LVL310
 13037 1688 1700     		.2byte	0x17
 13038 168a 74       		.byte	0x74
 13039 168b 06       		.sleb128 6
 13040 168c 94       		.byte	0x94
 13041 168d 02       		.byte	0x2
 13042 168e 0A       		.byte	0xa
 13043 168f FFFF     		.2byte	0xffff
 13044 1691 1A       		.byte	0x1a
 13045 1692 40       		.byte	0x40
 13046 1693 24       		.byte	0x24
 13047 1694 74       		.byte	0x74
 13048 1695 06       		.sleb128 6
 13049 1696 94       		.byte	0x94
 13050 1697 02       		.byte	0x2
 13051 1698 0A       		.byte	0xa
 13052 1699 FFFF     		.2byte	0xffff
 13053 169b 1A       		.byte	0x1a
 13054 169c 21       		.byte	0x21
 13055 169d 71       		.byte	0x71
 13056 169e 00       		.sleb128 0
 13057 169f 1A       		.byte	0x1a
 13058 16a0 9F       		.byte	0x9f
 13059 16a1 C0020000 		.4byte	.LVL310
 13060 16a5 C4020000 		.4byte	.LVL311
 13061 16a9 1A00     		.2byte	0x1a
 13062 16ab 74       		.byte	0x74
 13063 16ac 06       		.sleb128 6
 13064 16ad 94       		.byte	0x94
 13065 16ae 02       		.byte	0x2
 13066 16af 0A       		.byte	0xa
 13067 16b0 FFFF     		.2byte	0xffff
 13068 16b2 1A       		.byte	0x1a
 13069 16b3 40       		.byte	0x40
 13070 16b4 24       		.byte	0x24
 13071 16b5 74       		.byte	0x74
 13072 16b6 06       		.sleb128 6
 13073 16b7 94       		.byte	0x94
 13074 16b8 02       		.byte	0x2
 13075 16b9 0A       		.byte	0xa
 13076 16ba FFFF     		.2byte	0xffff
 13077 16bc 1A       		.byte	0x1a
 13078 16bd 21       		.byte	0x21
 13079 16be 0C       		.byte	0xc
 13080 16bf 1FF8E007 		.4byte	0x7e0f81f
 13081 16c3 1A       		.byte	0x1a
 13082 16c4 9F       		.byte	0x9f
 13083 16c5 00000000 		.4byte	0
 13084 16c9 00000000 		.4byte	0
 13085              	.LLST136:
 13086 16cd AC020000 		.4byte	.LVL306
ARM GAS  C:\Users\haske\AppData\Local\Temp\cc7ZkKza.s 			page 267


 13087 16d1 B0020000 		.4byte	.LVL307
 13088 16d5 0100     		.2byte	0x1
 13089 16d7 57       		.byte	0x57
 13090 16d8 B0020000 		.4byte	.LVL307
 13091 16dc C0020000 		.4byte	.LVL310
 13092 16e0 1300     		.2byte	0x13
 13093 16e2 75       		.byte	0x75
 13094 16e3 00       		.sleb128 0
 13095 16e4 0A       		.byte	0xa
 13096 16e5 FFFF     		.2byte	0xffff
 13097 16e7 1A       		.byte	0x1a
 13098 16e8 40       		.byte	0x40
 13099 16e9 24       		.byte	0x24
 13100 16ea 75       		.byte	0x75
 13101 16eb 00       		.sleb128 0
 13102 16ec 0A       		.byte	0xa
 13103 16ed FFFF     		.2byte	0xffff
 13104 16ef 1A       		.byte	0x1a
 13105 16f0 21       		.byte	0x21
 13106 16f1 71       		.byte	0x71
 13107 16f2 00       		.sleb128 0
 13108 16f3 1A       		.byte	0x1a
 13109 16f4 9F       		.byte	0x9f
 13110 16f5 C0020000 		.4byte	.LVL310
 13111 16f9 C4020000 		.4byte	.LVL311
 13112 16fd 1600     		.2byte	0x16
 13113 16ff 75       		.byte	0x75
 13114 1700 00       		.sleb128 0
 13115 1701 0A       		.byte	0xa
 13116 1702 FFFF     		.2byte	0xffff
 13117 1704 1A       		.byte	0x1a
 13118 1705 40       		.byte	0x40
 13119 1706 24       		.byte	0x24
 13120 1707 75       		.byte	0x75
 13121 1708 00       		.sleb128 0
 13122 1709 0A       		.byte	0xa
 13123 170a FFFF     		.2byte	0xffff
 13124 170c 1A       		.byte	0x1a
 13125 170d 21       		.byte	0x21
 13126 170e 0C       		.byte	0xc
 13127 170f 1FF8E007 		.4byte	0x7e0f81f
 13128 1713 1A       		.byte	0x1a
 13129 1714 9F       		.byte	0x9f
 13130 1715 00000000 		.4byte	0
 13131 1719 00000000 		.4byte	0
 13132              	.LLST137:
 13133 171d C0020000 		.4byte	.LVL310
 13134 1721 C4020000 		.4byte	.LVL311
 13135 1725 0100     		.2byte	0x1
 13136 1727 51       		.byte	0x51
 13137 1728 00000000 		.4byte	0
 13138 172c 00000000 		.4byte	0
 13139              	.LLST138:
 13140 1730 F0020000 		.4byte	.LVL321
 13141 1734 F4020000 		.4byte	.LVL322
 13142 1738 0100     		.2byte	0x1
 13143 173a 5E       		.byte	0x5e
ARM GAS  C:\Users\haske\AppData\Local\Temp\cc7ZkKza.s 			page 268


 13144 173b F4020000 		.4byte	.LVL322
 13145 173f 0C030000 		.4byte	.LVL326
 13146 1743 0500     		.2byte	0x5
 13147 1745 7E       		.byte	0x7e
 13148 1746 00       		.sleb128 0
 13149 1747 33       		.byte	0x33
 13150 1748 25       		.byte	0x25
 13151 1749 9F       		.byte	0x9f
 13152 174a 0C030000 		.4byte	.LVL326
 13153 174e 1A030000 		.4byte	.LVL329
 13154 1752 0C00     		.2byte	0xc
 13155 1754 73       		.byte	0x73
 13156 1755 00       		.sleb128 0
 13157 1756 94       		.byte	0x94
 13158 1757 01       		.byte	0x1
 13159 1758 08       		.byte	0x8
 13160 1759 FF       		.byte	0xff
 13161 175a 1A       		.byte	0x1a
 13162 175b 23       		.byte	0x23
 13163 175c 04       		.uleb128 0x4
 13164 175d 33       		.byte	0x33
 13165 175e 25       		.byte	0x25
 13166 175f 9F       		.byte	0x9f
 13167 1760 00000000 		.4byte	0
 13168 1764 00000000 		.4byte	0
 13169              	.LLST139:
 13170 1768 FE020000 		.4byte	.LVL323
 13171 176c 14030000 		.4byte	.LVL327
 13172 1770 0100     		.2byte	0x1
 13173 1772 57       		.byte	0x57
 13174 1773 14030000 		.4byte	.LVL327
 13175 1777 16030000 		.4byte	.LVL328
 13176 177b 1700     		.2byte	0x17
 13177 177d 74       		.byte	0x74
 13178 177e 00       		.sleb128 0
 13179 177f 94       		.byte	0x94
 13180 1780 02       		.byte	0x2
 13181 1781 0A       		.byte	0xa
 13182 1782 FFFF     		.2byte	0xffff
 13183 1784 1A       		.byte	0x1a
 13184 1785 40       		.byte	0x40
 13185 1786 24       		.byte	0x24
 13186 1787 74       		.byte	0x74
 13187 1788 00       		.sleb128 0
 13188 1789 94       		.byte	0x94
 13189 178a 02       		.byte	0x2
 13190 178b 0A       		.byte	0xa
 13191 178c FFFF     		.2byte	0xffff
 13192 178e 1A       		.byte	0x1a
 13193 178f 21       		.byte	0x21
 13194 1790 71       		.byte	0x71
 13195 1791 00       		.sleb128 0
 13196 1792 1A       		.byte	0x1a
 13197 1793 9F       		.byte	0x9f
 13198 1794 16030000 		.4byte	.LVL328
 13199 1798 1A030000 		.4byte	.LVL329
 13200 179c 1A00     		.2byte	0x1a
ARM GAS  C:\Users\haske\AppData\Local\Temp\cc7ZkKza.s 			page 269


 13201 179e 74       		.byte	0x74
 13202 179f 00       		.sleb128 0
 13203 17a0 94       		.byte	0x94
 13204 17a1 02       		.byte	0x2
 13205 17a2 0A       		.byte	0xa
 13206 17a3 FFFF     		.2byte	0xffff
 13207 17a5 1A       		.byte	0x1a
 13208 17a6 40       		.byte	0x40
 13209 17a7 24       		.byte	0x24
 13210 17a8 74       		.byte	0x74
 13211 17a9 00       		.sleb128 0
 13212 17aa 94       		.byte	0x94
 13213 17ab 02       		.byte	0x2
 13214 17ac 0A       		.byte	0xa
 13215 17ad FFFF     		.2byte	0xffff
 13216 17af 1A       		.byte	0x1a
 13217 17b0 21       		.byte	0x21
 13218 17b1 0C       		.byte	0xc
 13219 17b2 1FF8E007 		.4byte	0x7e0f81f
 13220 17b6 1A       		.byte	0x1a
 13221 17b7 9F       		.byte	0x9f
 13222 17b8 00000000 		.4byte	0
 13223 17bc 00000000 		.4byte	0
 13224              	.LLST140:
 13225 17c0 06030000 		.4byte	.LVL324
 13226 17c4 08030000 		.4byte	.LVL325
 13227 17c8 0100     		.2byte	0x1
 13228 17ca 50       		.byte	0x50
 13229 17cb 08030000 		.4byte	.LVL325
 13230 17cf 16030000 		.4byte	.LVL328
 13231 17d3 1300     		.2byte	0x13
 13232 17d5 75       		.byte	0x75
 13233 17d6 00       		.sleb128 0
 13234 17d7 0A       		.byte	0xa
 13235 17d8 FFFF     		.2byte	0xffff
 13236 17da 1A       		.byte	0x1a
 13237 17db 40       		.byte	0x40
 13238 17dc 24       		.byte	0x24
 13239 17dd 75       		.byte	0x75
 13240 17de 00       		.sleb128 0
 13241 17df 0A       		.byte	0xa
 13242 17e0 FFFF     		.2byte	0xffff
 13243 17e2 1A       		.byte	0x1a
 13244 17e3 21       		.byte	0x21
 13245 17e4 71       		.byte	0x71
 13246 17e5 00       		.sleb128 0
 13247 17e6 1A       		.byte	0x1a
 13248 17e7 9F       		.byte	0x9f
 13249 17e8 16030000 		.4byte	.LVL328
 13250 17ec 1A030000 		.4byte	.LVL329
 13251 17f0 1600     		.2byte	0x16
 13252 17f2 75       		.byte	0x75
 13253 17f3 00       		.sleb128 0
 13254 17f4 0A       		.byte	0xa
 13255 17f5 FFFF     		.2byte	0xffff
 13256 17f7 1A       		.byte	0x1a
 13257 17f8 40       		.byte	0x40
ARM GAS  C:\Users\haske\AppData\Local\Temp\cc7ZkKza.s 			page 270


 13258 17f9 24       		.byte	0x24
 13259 17fa 75       		.byte	0x75
 13260 17fb 00       		.sleb128 0
 13261 17fc 0A       		.byte	0xa
 13262 17fd FFFF     		.2byte	0xffff
 13263 17ff 1A       		.byte	0x1a
 13264 1800 21       		.byte	0x21
 13265 1801 0C       		.byte	0xc
 13266 1802 1FF8E007 		.4byte	0x7e0f81f
 13267 1806 1A       		.byte	0x1a
 13268 1807 9F       		.byte	0x9f
 13269 1808 00000000 		.4byte	0
 13270 180c 00000000 		.4byte	0
 13271              	.LLST141:
 13272 1810 16030000 		.4byte	.LVL328
 13273 1814 1A030000 		.4byte	.LVL329
 13274 1818 0100     		.2byte	0x1
 13275 181a 51       		.byte	0x51
 13276 181b 00000000 		.4byte	0
 13277 181f 00000000 		.4byte	0
 13278              	.LLST142:
 13279 1823 52030000 		.4byte	.LVL338
 13280 1827 8C030000 		.4byte	.LVL345
 13281 182b 0100     		.2byte	0x1
 13282 182d 5E       		.byte	0x5e
 13283 182e B6030000 		.4byte	.LVL353
 13284 1832 EC030000 		.4byte	.LFE162
 13285 1836 0100     		.2byte	0x1
 13286 1838 5E       		.byte	0x5e
 13287 1839 00000000 		.4byte	0
 13288 183d 00000000 		.4byte	0
 13289              	.LLST143:
 13290 1841 52030000 		.4byte	.LVL338
 13291 1845 82030000 		.4byte	.LVL343
 13292 1849 0100     		.2byte	0x1
 13293 184b 51       		.byte	0x51
 13294 184c 88030000 		.4byte	.LVL344
 13295 1850 96030000 		.4byte	.LVL347
 13296 1854 0100     		.2byte	0x1
 13297 1856 51       		.byte	0x51
 13298 1857 BC030000 		.4byte	.LVL355
 13299 185b EC030000 		.4byte	.LFE162
 13300 185f 0100     		.2byte	0x1
 13301 1861 51       		.byte	0x51
 13302 1862 00000000 		.4byte	0
 13303 1866 00000000 		.4byte	0
 13304              	.LLST144:
 13305 186a 42030000 		.4byte	.LVL336
 13306 186e 52030000 		.4byte	.LVL338
 13307 1872 0200     		.2byte	0x2
 13308 1874 30       		.byte	0x30
 13309 1875 9F       		.byte	0x9f
 13310 1876 52030000 		.4byte	.LVL338
 13311 187a 90030000 		.4byte	.LVL346
 13312 187e 0100     		.2byte	0x1
 13313 1880 57       		.byte	0x57
 13314 1881 B8030000 		.4byte	.LVL354
ARM GAS  C:\Users\haske\AppData\Local\Temp\cc7ZkKza.s 			page 271


 13315 1885 E0030000 		.4byte	.LVL364
 13316 1889 0100     		.2byte	0x1
 13317 188b 57       		.byte	0x57
 13318 188c 00000000 		.4byte	0
 13319 1890 00000000 		.4byte	0
 13320              	.LLST145:
 13321 1894 46030000 		.4byte	.LVL337
 13322 1898 52030000 		.4byte	.LVL338
 13323 189c 0200     		.2byte	0x2
 13324 189e 30       		.byte	0x30
 13325 189f 9F       		.byte	0x9f
 13326 18a0 52030000 		.4byte	.LVL338
 13327 18a4 62030000 		.4byte	.LVL340
 13328 18a8 0100     		.2byte	0x1
 13329 18aa 56       		.byte	0x56
 13330 18ab 68030000 		.4byte	.LVL341
 13331 18af E0030000 		.4byte	.LVL364
 13332 18b3 0100     		.2byte	0x1
 13333 18b5 56       		.byte	0x56
 13334 18b6 00000000 		.4byte	0
 13335 18ba 00000000 		.4byte	0
 13336              	.LLST146:
 13337 18be 88030000 		.4byte	.LVL344
 13338 18c2 8C030000 		.4byte	.LVL345
 13339 18c6 0100     		.2byte	0x1
 13340 18c8 56       		.byte	0x56
 13341 18c9 00000000 		.4byte	0
 13342 18cd 00000000 		.4byte	0
 13343              	.LLST147:
 13344 18d1 98030000 		.4byte	.LVL348
 13345 18d5 B0030000 		.4byte	.LVL351
 13346 18d9 0100     		.2byte	0x1
 13347 18db 57       		.byte	0x57
 13348 18dc B0030000 		.4byte	.LVL351
 13349 18e0 B2030000 		.4byte	.LVL352
 13350 18e4 2100     		.2byte	0x21
 13351 18e6 70       		.byte	0x70
 13352 18e7 00       		.sleb128 0
 13353 18e8 31       		.byte	0x31
 13354 18e9 24       		.byte	0x24
 13355 18ea 74       		.byte	0x74
 13356 18eb 00       		.sleb128 0
 13357 18ec 22       		.byte	0x22
 13358 18ed 94       		.byte	0x94
 13359 18ee 02       		.byte	0x2
 13360 18ef 0A       		.byte	0xa
 13361 18f0 FFFF     		.2byte	0xffff
 13362 18f2 1A       		.byte	0x1a
 13363 18f3 40       		.byte	0x40
 13364 18f4 24       		.byte	0x24
 13365 18f5 70       		.byte	0x70
 13366 18f6 00       		.sleb128 0
 13367 18f7 31       		.byte	0x31
 13368 18f8 24       		.byte	0x24
 13369 18f9 74       		.byte	0x74
 13370 18fa 00       		.sleb128 0
 13371 18fb 22       		.byte	0x22
ARM GAS  C:\Users\haske\AppData\Local\Temp\cc7ZkKza.s 			page 272


 13372 18fc 94       		.byte	0x94
 13373 18fd 02       		.byte	0x2
 13374 18fe 0A       		.byte	0xa
 13375 18ff FFFF     		.2byte	0xffff
 13376 1901 1A       		.byte	0x1a
 13377 1902 21       		.byte	0x21
 13378 1903 71       		.byte	0x71
 13379 1904 00       		.sleb128 0
 13380 1905 1A       		.byte	0x1a
 13381 1906 9F       		.byte	0x9f
 13382 1907 B2030000 		.4byte	.LVL352
 13383 190b B6030000 		.4byte	.LVL353
 13384 190f 2400     		.2byte	0x24
 13385 1911 70       		.byte	0x70
 13386 1912 00       		.sleb128 0
 13387 1913 31       		.byte	0x31
 13388 1914 24       		.byte	0x24
 13389 1915 74       		.byte	0x74
 13390 1916 00       		.sleb128 0
 13391 1917 22       		.byte	0x22
 13392 1918 94       		.byte	0x94
 13393 1919 02       		.byte	0x2
 13394 191a 0A       		.byte	0xa
 13395 191b FFFF     		.2byte	0xffff
 13396 191d 1A       		.byte	0x1a
 13397 191e 40       		.byte	0x40
 13398 191f 24       		.byte	0x24
 13399 1920 70       		.byte	0x70
 13400 1921 00       		.sleb128 0
 13401 1922 31       		.byte	0x31
 13402 1923 24       		.byte	0x24
 13403 1924 74       		.byte	0x74
 13404 1925 00       		.sleb128 0
 13405 1926 22       		.byte	0x22
 13406 1927 94       		.byte	0x94
 13407 1928 02       		.byte	0x2
 13408 1929 0A       		.byte	0xa
 13409 192a FFFF     		.2byte	0xffff
 13410 192c 1A       		.byte	0x1a
 13411 192d 21       		.byte	0x21
 13412 192e 0C       		.byte	0xc
 13413 192f 1FF8E007 		.4byte	0x7e0f81f
 13414 1933 1A       		.byte	0x1a
 13415 1934 9F       		.byte	0x9f
 13416 1935 00000000 		.4byte	0
 13417 1939 00000000 		.4byte	0
 13418              	.LLST148:
 13419 193d A2030000 		.4byte	.LVL349
 13420 1941 A4030000 		.4byte	.LVL350
 13421 1945 0100     		.2byte	0x1
 13422 1947 55       		.byte	0x55
 13423 1948 A4030000 		.4byte	.LVL350
 13424 194c B2030000 		.4byte	.LVL352
 13425 1950 1700     		.2byte	0x17
 13426 1952 7D       		.byte	0x7d
 13427 1953 00       		.sleb128 0
 13428 1954 94       		.byte	0x94
ARM GAS  C:\Users\haske\AppData\Local\Temp\cc7ZkKza.s 			page 273


 13429 1955 02       		.byte	0x2
 13430 1956 0A       		.byte	0xa
 13431 1957 FFFF     		.2byte	0xffff
 13432 1959 1A       		.byte	0x1a
 13433 195a 40       		.byte	0x40
 13434 195b 24       		.byte	0x24
 13435 195c 7D       		.byte	0x7d
 13436 195d 00       		.sleb128 0
 13437 195e 94       		.byte	0x94
 13438 195f 02       		.byte	0x2
 13439 1960 0A       		.byte	0xa
 13440 1961 FFFF     		.2byte	0xffff
 13441 1963 1A       		.byte	0x1a
 13442 1964 21       		.byte	0x21
 13443 1965 71       		.byte	0x71
 13444 1966 00       		.sleb128 0
 13445 1967 1A       		.byte	0x1a
 13446 1968 9F       		.byte	0x9f
 13447 1969 B2030000 		.4byte	.LVL352
 13448 196d B6030000 		.4byte	.LVL353
 13449 1971 1A00     		.2byte	0x1a
 13450 1973 7D       		.byte	0x7d
 13451 1974 00       		.sleb128 0
 13452 1975 94       		.byte	0x94
 13453 1976 02       		.byte	0x2
 13454 1977 0A       		.byte	0xa
 13455 1978 FFFF     		.2byte	0xffff
 13456 197a 1A       		.byte	0x1a
 13457 197b 40       		.byte	0x40
 13458 197c 24       		.byte	0x24
 13459 197d 7D       		.byte	0x7d
 13460 197e 00       		.sleb128 0
 13461 197f 94       		.byte	0x94
 13462 1980 02       		.byte	0x2
 13463 1981 0A       		.byte	0xa
 13464 1982 FFFF     		.2byte	0xffff
 13465 1984 1A       		.byte	0x1a
 13466 1985 21       		.byte	0x21
 13467 1986 0C       		.byte	0xc
 13468 1987 1FF8E007 		.4byte	0x7e0f81f
 13469 198b 1A       		.byte	0x1a
 13470 198c 9F       		.byte	0x9f
 13471 198d 00000000 		.4byte	0
 13472 1991 00000000 		.4byte	0
 13473              	.LLST149:
 13474 1995 B2030000 		.4byte	.LVL352
 13475 1999 B6030000 		.4byte	.LVL353
 13476 199d 0100     		.2byte	0x1
 13477 199f 51       		.byte	0x51
 13478 19a0 00000000 		.4byte	0
 13479 19a4 00000000 		.4byte	0
 13480              	.LLST150:
 13481 19a8 00000000 		.4byte	.LVL366
 13482 19ac 52000000 		.4byte	.LVL372
 13483 19b0 0100     		.2byte	0x1
 13484 19b2 50       		.byte	0x50
 13485 19b3 52000000 		.4byte	.LVL372
ARM GAS  C:\Users\haske\AppData\Local\Temp\cc7ZkKza.s 			page 274


 13486 19b7 72000000 		.4byte	.LVL378
 13487 19bb 0100     		.2byte	0x1
 13488 19bd 55       		.byte	0x55
 13489 19be 72000000 		.4byte	.LVL378
 13490 19c2 7C000000 		.4byte	.LVL379
 13491 19c6 0100     		.2byte	0x1
 13492 19c8 50       		.byte	0x50
 13493 19c9 7C000000 		.4byte	.LVL379
 13494 19cd CE000000 		.4byte	.LVL394
 13495 19d1 0100     		.2byte	0x1
 13496 19d3 55       		.byte	0x55
 13497 19d4 CE000000 		.4byte	.LVL394
 13498 19d8 E0000000 		.4byte	.LVL396
 13499 19dc 0100     		.2byte	0x1
 13500 19de 50       		.byte	0x50
 13501 19df E0000000 		.4byte	.LVL396
 13502 19e3 28010000 		.4byte	.LVL407
 13503 19e7 0100     		.2byte	0x1
 13504 19e9 5E       		.byte	0x5e
 13505 19ea 28010000 		.4byte	.LVL407
 13506 19ee 2E010000 		.4byte	.LVL408
 13507 19f2 0100     		.2byte	0x1
 13508 19f4 55       		.byte	0x55
 13509 19f5 2E010000 		.4byte	.LVL408
 13510 19f9 3E010000 		.4byte	.LVL409
 13511 19fd 0100     		.2byte	0x1
 13512 19ff 5E       		.byte	0x5e
 13513 1a00 3E010000 		.4byte	.LVL409
 13514 1a04 AE020000 		.4byte	.LVL452
 13515 1a08 0100     		.2byte	0x1
 13516 1a0a 55       		.byte	0x55
 13517 1a0b AE020000 		.4byte	.LVL452
 13518 1a0f B0020000 		.4byte	.LVL453
 13519 1a13 0100     		.2byte	0x1
 13520 1a15 5E       		.byte	0x5e
 13521 1a16 B0020000 		.4byte	.LVL453
 13522 1a1a 90030000 		.4byte	.LVL488
 13523 1a1e 0100     		.2byte	0x1
 13524 1a20 55       		.byte	0x55
 13525 1a21 90030000 		.4byte	.LVL488
 13526 1a25 98030000 		.4byte	.LVL490
 13527 1a29 0100     		.2byte	0x1
 13528 1a2b 50       		.byte	0x50
 13529 1a2c 98030000 		.4byte	.LVL490
 13530 1a30 A2030000 		.4byte	.LVL492
 13531 1a34 0100     		.2byte	0x1
 13532 1a36 55       		.byte	0x55
 13533 1a37 00000000 		.4byte	0
 13534 1a3b 00000000 		.4byte	0
 13535              	.LLST151:
 13536 1a3f 00000000 		.4byte	.LVL366
 13537 1a43 5A000000 		.4byte	.LVL373
 13538 1a47 0100     		.2byte	0x1
 13539 1a49 51       		.byte	0x51
 13540 1a4a 5A000000 		.4byte	.LVL373
 13541 1a4e 72000000 		.4byte	.LVL378
 13542 1a52 0400     		.2byte	0x4
ARM GAS  C:\Users\haske\AppData\Local\Temp\cc7ZkKza.s 			page 275


 13543 1a54 F3       		.byte	0xf3
 13544 1a55 01       		.uleb128 0x1
 13545 1a56 51       		.byte	0x51
 13546 1a57 9F       		.byte	0x9f
 13547 1a58 72000000 		.4byte	.LVL378
 13548 1a5c 7C000000 		.4byte	.LVL379
 13549 1a60 0100     		.2byte	0x1
 13550 1a62 51       		.byte	0x51
 13551 1a63 7C000000 		.4byte	.LVL379
 13552 1a67 CE000000 		.4byte	.LVL394
 13553 1a6b 0400     		.2byte	0x4
 13554 1a6d F3       		.byte	0xf3
 13555 1a6e 01       		.uleb128 0x1
 13556 1a6f 51       		.byte	0x51
 13557 1a70 9F       		.byte	0x9f
 13558 1a71 CE000000 		.4byte	.LVL394
 13559 1a75 E0000000 		.4byte	.LVL396
 13560 1a79 0100     		.2byte	0x1
 13561 1a7b 51       		.byte	0x51
 13562 1a7c E0000000 		.4byte	.LVL396
 13563 1a80 90030000 		.4byte	.LVL488
 13564 1a84 0400     		.2byte	0x4
 13565 1a86 F3       		.byte	0xf3
 13566 1a87 01       		.uleb128 0x1
 13567 1a88 51       		.byte	0x51
 13568 1a89 9F       		.byte	0x9f
 13569 1a8a 90030000 		.4byte	.LVL488
 13570 1a8e 98030000 		.4byte	.LVL490
 13571 1a92 0100     		.2byte	0x1
 13572 1a94 51       		.byte	0x51
 13573 1a95 98030000 		.4byte	.LVL490
 13574 1a99 A8030000 		.4byte	.LFE165
 13575 1a9d 0400     		.2byte	0x4
 13576 1a9f F3       		.byte	0xf3
 13577 1aa0 01       		.uleb128 0x1
 13578 1aa1 51       		.byte	0x51
 13579 1aa2 9F       		.byte	0x9f
 13580 1aa3 00000000 		.4byte	0
 13581 1aa7 00000000 		.4byte	0
 13582              	.LLST152:
 13583 1aab 00000000 		.4byte	.LVL366
 13584 1aaf 5A000000 		.4byte	.LVL373
 13585 1ab3 0100     		.2byte	0x1
 13586 1ab5 52       		.byte	0x52
 13587 1ab6 5A000000 		.4byte	.LVL373
 13588 1aba 72000000 		.4byte	.LVL378
 13589 1abe 0400     		.2byte	0x4
 13590 1ac0 F3       		.byte	0xf3
 13591 1ac1 01       		.uleb128 0x1
 13592 1ac2 52       		.byte	0x52
 13593 1ac3 9F       		.byte	0x9f
 13594 1ac4 72000000 		.4byte	.LVL378
 13595 1ac8 7C000000 		.4byte	.LVL379
 13596 1acc 0100     		.2byte	0x1
 13597 1ace 52       		.byte	0x52
 13598 1acf 7C000000 		.4byte	.LVL379
 13599 1ad3 CE000000 		.4byte	.LVL394
ARM GAS  C:\Users\haske\AppData\Local\Temp\cc7ZkKza.s 			page 276


 13600 1ad7 0400     		.2byte	0x4
 13601 1ad9 F3       		.byte	0xf3
 13602 1ada 01       		.uleb128 0x1
 13603 1adb 52       		.byte	0x52
 13604 1adc 9F       		.byte	0x9f
 13605 1add CE000000 		.4byte	.LVL394
 13606 1ae1 E0000000 		.4byte	.LVL396
 13607 1ae5 0100     		.2byte	0x1
 13608 1ae7 52       		.byte	0x52
 13609 1ae8 E0000000 		.4byte	.LVL396
 13610 1aec 90030000 		.4byte	.LVL488
 13611 1af0 0400     		.2byte	0x4
 13612 1af2 F3       		.byte	0xf3
 13613 1af3 01       		.uleb128 0x1
 13614 1af4 52       		.byte	0x52
 13615 1af5 9F       		.byte	0x9f
 13616 1af6 90030000 		.4byte	.LVL488
 13617 1afa 98030000 		.4byte	.LVL490
 13618 1afe 0100     		.2byte	0x1
 13619 1b00 52       		.byte	0x52
 13620 1b01 98030000 		.4byte	.LVL490
 13621 1b05 A8030000 		.4byte	.LFE165
 13622 1b09 0400     		.2byte	0x4
 13623 1b0b F3       		.byte	0xf3
 13624 1b0c 01       		.uleb128 0x1
 13625 1b0d 52       		.byte	0x52
 13626 1b0e 9F       		.byte	0x9f
 13627 1b0f 00000000 		.4byte	0
 13628 1b13 00000000 		.4byte	0
 13629              	.LLST153:
 13630 1b17 00000000 		.4byte	.LVL366
 13631 1b1b 10000000 		.4byte	.LVL367
 13632 1b1f 0100     		.2byte	0x1
 13633 1b21 53       		.byte	0x53
 13634 1b22 10000000 		.4byte	.LVL367
 13635 1b26 A2030000 		.4byte	.LVL492
 13636 1b2a 0100     		.2byte	0x1
 13637 1b2c 56       		.byte	0x56
 13638 1b2d 00000000 		.4byte	0
 13639 1b31 00000000 		.4byte	0
 13640              	.LLST154:
 13641 1b35 00000000 		.4byte	.LVL366
 13642 1b39 A2030000 		.4byte	.LVL492
 13643 1b3d 0200     		.2byte	0x2
 13644 1b3f 91       		.byte	0x91
 13645 1b40 00       		.sleb128 0
 13646 1b41 A2030000 		.4byte	.LVL492
 13647 1b45 A8030000 		.4byte	.LFE165
 13648 1b49 0200     		.2byte	0x2
 13649 1b4b 7D       		.byte	0x7d
 13650 1b4c 00       		.sleb128 0
 13651 1b4d 00000000 		.4byte	0
 13652 1b51 00000000 		.4byte	0
 13653              	.LLST155:
 13654 1b55 00000000 		.4byte	.LVL366
 13655 1b59 A2030000 		.4byte	.LVL492
 13656 1b5d 0200     		.2byte	0x2
ARM GAS  C:\Users\haske\AppData\Local\Temp\cc7ZkKza.s 			page 277


 13657 1b5f 91       		.byte	0x91
 13658 1b60 04       		.sleb128 4
 13659 1b61 A2030000 		.4byte	.LVL492
 13660 1b65 A8030000 		.4byte	.LFE165
 13661 1b69 0200     		.2byte	0x2
 13662 1b6b 7D       		.byte	0x7d
 13663 1b6c 04       		.sleb128 4
 13664 1b6d 00000000 		.4byte	0
 13665 1b71 00000000 		.4byte	0
 13666              	.LLST156:
 13667 1b75 00000000 		.4byte	.LVL366
 13668 1b79 E0000000 		.4byte	.LVL396
 13669 1b7d 0200     		.2byte	0x2
 13670 1b7f 91       		.byte	0x91
 13671 1b80 08       		.sleb128 8
 13672 1b81 E0000000 		.4byte	.LVL396
 13673 1b85 90030000 		.4byte	.LVL488
 13674 1b89 0100     		.2byte	0x1
 13675 1b8b 58       		.byte	0x58
 13676 1b8c 90030000 		.4byte	.LVL488
 13677 1b90 98030000 		.4byte	.LVL490
 13678 1b94 0200     		.2byte	0x2
 13679 1b96 91       		.byte	0x91
 13680 1b97 08       		.sleb128 8
 13681 1b98 98030000 		.4byte	.LVL490
 13682 1b9c 9C030000 		.4byte	.LVL491
 13683 1ba0 0100     		.2byte	0x1
 13684 1ba2 58       		.byte	0x58
 13685 1ba3 00000000 		.4byte	0
 13686 1ba7 00000000 		.4byte	0
 13687              	.LLST157:
 13688 1bab 00000000 		.4byte	.LVL366
 13689 1baf A2030000 		.4byte	.LVL492
 13690 1bb3 0200     		.2byte	0x2
 13691 1bb5 91       		.byte	0x91
 13692 1bb6 0C       		.sleb128 12
 13693 1bb7 A2030000 		.4byte	.LVL492
 13694 1bbb A8030000 		.4byte	.LFE165
 13695 1bbf 0200     		.2byte	0x2
 13696 1bc1 7D       		.byte	0x7d
 13697 1bc2 0C       		.sleb128 12
 13698 1bc3 00000000 		.4byte	0
 13699 1bc7 00000000 		.4byte	0
 13700              	.LLST158:
 13701 1bcb 36000000 		.4byte	.LVL370
 13702 1bcf 82000000 		.4byte	.LVL380
 13703 1bd3 0100     		.2byte	0x1
 13704 1bd5 59       		.byte	0x59
 13705 1bd6 82000000 		.4byte	.LVL380
 13706 1bda CE000000 		.4byte	.LVL394
 13707 1bde 0100     		.2byte	0x1
 13708 1be0 5C       		.byte	0x5c
 13709 1be1 CE000000 		.4byte	.LVL394
 13710 1be5 DA000000 		.4byte	.LVL395
 13711 1be9 0100     		.2byte	0x1
 13712 1beb 59       		.byte	0x59
 13713 1bec DA000000 		.4byte	.LVL395
ARM GAS  C:\Users\haske\AppData\Local\Temp\cc7ZkKza.s 			page 278


 13714 1bf0 90030000 		.4byte	.LVL488
 13715 1bf4 0100     		.2byte	0x1
 13716 1bf6 5C       		.byte	0x5c
 13717 1bf7 90030000 		.4byte	.LVL488
 13718 1bfb 94030000 		.4byte	.LVL489
 13719 1bff 0100     		.2byte	0x1
 13720 1c01 59       		.byte	0x59
 13721 1c02 94030000 		.4byte	.LVL489
 13722 1c06 9C030000 		.4byte	.LVL491
 13723 1c0a 0100     		.2byte	0x1
 13724 1c0c 5C       		.byte	0x5c
 13725 1c0d 00000000 		.4byte	0
 13726 1c11 00000000 		.4byte	0
 13727              	.LLST159:
 13728 1c15 44000000 		.4byte	.LVL371
 13729 1c19 A2030000 		.4byte	.LVL492
 13730 1c1d 0100     		.2byte	0x1
 13731 1c1f 57       		.byte	0x57
 13732 1c20 00000000 		.4byte	0
 13733 1c24 00000000 		.4byte	0
 13734              	.LLST160:
 13735 1c28 82000000 		.4byte	.LVL380
 13736 1c2c B8000000 		.4byte	.LVL389
 13737 1c30 0100     		.2byte	0x1
 13738 1c32 54       		.byte	0x54
 13739 1c33 BA000000 		.4byte	.LVL390
 13740 1c37 C8000000 		.4byte	.LVL393
 13741 1c3b 0100     		.2byte	0x1
 13742 1c3d 54       		.byte	0x54
 13743 1c3e E0000000 		.4byte	.LVL396
 13744 1c42 28010000 		.4byte	.LVL407
 13745 1c46 0100     		.2byte	0x1
 13746 1c48 53       		.byte	0x53
 13747 1c49 2E010000 		.4byte	.LVL408
 13748 1c4d 0A030000 		.4byte	.LVL465
 13749 1c51 0100     		.2byte	0x1
 13750 1c53 53       		.byte	0x53
 13751 1c54 24030000 		.4byte	.LVL470
 13752 1c58 2C030000 		.4byte	.LVL471
 13753 1c5c 0100     		.2byte	0x1
 13754 1c5e 54       		.byte	0x54
 13755 1c5f 2C030000 		.4byte	.LVL471
 13756 1c63 74030000 		.4byte	.LVL481
 13757 1c67 0100     		.2byte	0x1
 13758 1c69 51       		.byte	0x51
 13759 1c6a 74030000 		.4byte	.LVL481
 13760 1c6e 76030000 		.4byte	.LVL482
 13761 1c72 0100     		.2byte	0x1
 13762 1c74 54       		.byte	0x54
 13763 1c75 78030000 		.4byte	.LVL483
 13764 1c79 90030000 		.4byte	.LVL488
 13765 1c7d 0100     		.2byte	0x1
 13766 1c7f 54       		.byte	0x54
 13767 1c80 00000000 		.4byte	0
 13768 1c84 00000000 		.4byte	0
 13769              	.LLST161:
 13770 1c88 5A000000 		.4byte	.LVL373
ARM GAS  C:\Users\haske\AppData\Local\Temp\cc7ZkKza.s 			page 279


 13771 1c8c 72000000 		.4byte	.LVL378
 13772 1c90 0100     		.2byte	0x1
 13773 1c92 54       		.byte	0x54
 13774 1c93 7C000000 		.4byte	.LVL379
 13775 1c97 82000000 		.4byte	.LVL380
 13776 1c9b 0100     		.2byte	0x1
 13777 1c9d 54       		.byte	0x54
 13778 1c9e 82000000 		.4byte	.LVL380
 13779 1ca2 CE000000 		.4byte	.LVL394
 13780 1ca6 0100     		.2byte	0x1
 13781 1ca8 50       		.byte	0x50
 13782 1ca9 DA000000 		.4byte	.LVL395
 13783 1cad E0000000 		.4byte	.LVL396
 13784 1cb1 0200     		.2byte	0x2
 13785 1cb3 30       		.byte	0x30
 13786 1cb4 9F       		.byte	0x9f
 13787 1cb5 E0000000 		.4byte	.LVL396
 13788 1cb9 24030000 		.4byte	.LVL470
 13789 1cbd 0100     		.2byte	0x1
 13790 1cbf 5B       		.byte	0x5b
 13791 1cc0 24030000 		.4byte	.LVL470
 13792 1cc4 90030000 		.4byte	.LVL488
 13793 1cc8 0100     		.2byte	0x1
 13794 1cca 59       		.byte	0x59
 13795 1ccb 98030000 		.4byte	.LVL490
 13796 1ccf 9C030000 		.4byte	.LVL491
 13797 1cd3 0100     		.2byte	0x1
 13798 1cd5 59       		.byte	0x59
 13799 1cd6 00000000 		.4byte	0
 13800 1cda 00000000 		.4byte	0
 13801              	.LLST162:
 13802 1cde 20000000 		.4byte	.LVL368
 13803 1ce2 34000000 		.4byte	.LVL369
 13804 1ce6 0100     		.2byte	0x1
 13805 1ce8 51       		.byte	0x51
 13806 1ce9 00000000 		.4byte	0
 13807 1ced 00000000 		.4byte	0
 13808              	.LLST163:
 13809 1cf1 36000000 		.4byte	.LVL370
 13810 1cf5 44000000 		.4byte	.LVL371
 13811 1cf9 0100     		.2byte	0x1
 13812 1cfb 51       		.byte	0x51
 13813 1cfc 00000000 		.4byte	0
 13814 1d00 00000000 		.4byte	0
 13815              	.LLST164:
 13816 1d04 82000000 		.4byte	.LVL380
 13817 1d08 86000000 		.4byte	.LVL381
 13818 1d0c 0100     		.2byte	0x1
 13819 1d0e 5A       		.byte	0x5a
 13820 1d0f 00000000 		.4byte	0
 13821 1d13 00000000 		.4byte	0
 13822              	.LLST165:
 13823 1d17 92000000 		.4byte	.LVL382
 13824 1d1b AA000000 		.4byte	.LVL385
 13825 1d1f 0100     		.2byte	0x1
 13826 1d21 51       		.byte	0x51
 13827 1d22 AA000000 		.4byte	.LVL385
ARM GAS  C:\Users\haske\AppData\Local\Temp\cc7ZkKza.s 			page 280


 13828 1d26 AC000000 		.4byte	.LVL386
 13829 1d2a 2100     		.2byte	0x21
 13830 1d2c 74       		.byte	0x74
 13831 1d2d 00       		.sleb128 0
 13832 1d2e 31       		.byte	0x31
 13833 1d2f 24       		.byte	0x24
 13834 1d30 75       		.byte	0x75
 13835 1d31 00       		.sleb128 0
 13836 1d32 22       		.byte	0x22
 13837 1d33 94       		.byte	0x94
 13838 1d34 02       		.byte	0x2
 13839 1d35 0A       		.byte	0xa
 13840 1d36 FFFF     		.2byte	0xffff
 13841 1d38 1A       		.byte	0x1a
 13842 1d39 40       		.byte	0x40
 13843 1d3a 24       		.byte	0x24
 13844 1d3b 74       		.byte	0x74
 13845 1d3c 00       		.sleb128 0
 13846 1d3d 31       		.byte	0x31
 13847 1d3e 24       		.byte	0x24
 13848 1d3f 75       		.byte	0x75
 13849 1d40 00       		.sleb128 0
 13850 1d41 22       		.byte	0x22
 13851 1d42 94       		.byte	0x94
 13852 1d43 02       		.byte	0x2
 13853 1d44 0A       		.byte	0xa
 13854 1d45 FFFF     		.2byte	0xffff
 13855 1d47 1A       		.byte	0x1a
 13856 1d48 21       		.byte	0x21
 13857 1d49 73       		.byte	0x73
 13858 1d4a 00       		.sleb128 0
 13859 1d4b 1A       		.byte	0x1a
 13860 1d4c 9F       		.byte	0x9f
 13861 1d4d AC000000 		.4byte	.LVL386
 13862 1d51 B0000000 		.4byte	.LVL387
 13863 1d55 2400     		.2byte	0x24
 13864 1d57 74       		.byte	0x74
 13865 1d58 00       		.sleb128 0
 13866 1d59 31       		.byte	0x31
 13867 1d5a 24       		.byte	0x24
 13868 1d5b 75       		.byte	0x75
 13869 1d5c 00       		.sleb128 0
 13870 1d5d 22       		.byte	0x22
 13871 1d5e 94       		.byte	0x94
 13872 1d5f 02       		.byte	0x2
 13873 1d60 0A       		.byte	0xa
 13874 1d61 FFFF     		.2byte	0xffff
 13875 1d63 1A       		.byte	0x1a
 13876 1d64 40       		.byte	0x40
 13877 1d65 24       		.byte	0x24
 13878 1d66 74       		.byte	0x74
 13879 1d67 00       		.sleb128 0
 13880 1d68 31       		.byte	0x31
 13881 1d69 24       		.byte	0x24
 13882 1d6a 75       		.byte	0x75
 13883 1d6b 00       		.sleb128 0
 13884 1d6c 22       		.byte	0x22
ARM GAS  C:\Users\haske\AppData\Local\Temp\cc7ZkKza.s 			page 281


 13885 1d6d 94       		.byte	0x94
 13886 1d6e 02       		.byte	0x2
 13887 1d6f 0A       		.byte	0xa
 13888 1d70 FFFF     		.2byte	0xffff
 13889 1d72 1A       		.byte	0x1a
 13890 1d73 21       		.byte	0x21
 13891 1d74 0C       		.byte	0xc
 13892 1d75 1FF8E007 		.4byte	0x7e0f81f
 13893 1d79 1A       		.byte	0x1a
 13894 1d7a 9F       		.byte	0x9f
 13895 1d7b 00000000 		.4byte	0
 13896 1d7f 00000000 		.4byte	0
 13897              	.LLST166:
 13898 1d83 9C000000 		.4byte	.LVL383
 13899 1d87 9E000000 		.4byte	.LVL384
 13900 1d8b 0100     		.2byte	0x1
 13901 1d8d 52       		.byte	0x52
 13902 1d8e 9E000000 		.4byte	.LVL384
 13903 1d92 AC000000 		.4byte	.LVL386
 13904 1d96 2100     		.2byte	0x21
 13905 1d98 74       		.byte	0x74
 13906 1d99 00       		.sleb128 0
 13907 1d9a 31       		.byte	0x31
 13908 1d9b 24       		.byte	0x24
 13909 1d9c 76       		.byte	0x76
 13910 1d9d 00       		.sleb128 0
 13911 1d9e 22       		.byte	0x22
 13912 1d9f 94       		.byte	0x94
 13913 1da0 02       		.byte	0x2
 13914 1da1 0A       		.byte	0xa
 13915 1da2 FFFF     		.2byte	0xffff
 13916 1da4 1A       		.byte	0x1a
 13917 1da5 40       		.byte	0x40
 13918 1da6 24       		.byte	0x24
 13919 1da7 74       		.byte	0x74
 13920 1da8 00       		.sleb128 0
 13921 1da9 31       		.byte	0x31
 13922 1daa 24       		.byte	0x24
 13923 1dab 76       		.byte	0x76
 13924 1dac 00       		.sleb128 0
 13925 1dad 22       		.byte	0x22
 13926 1dae 94       		.byte	0x94
 13927 1daf 02       		.byte	0x2
 13928 1db0 0A       		.byte	0xa
 13929 1db1 FFFF     		.2byte	0xffff
 13930 1db3 1A       		.byte	0x1a
 13931 1db4 21       		.byte	0x21
 13932 1db5 73       		.byte	0x73
 13933 1db6 00       		.sleb128 0
 13934 1db7 1A       		.byte	0x1a
 13935 1db8 9F       		.byte	0x9f
 13936 1db9 AC000000 		.4byte	.LVL386
 13937 1dbd B0000000 		.4byte	.LVL387
 13938 1dc1 2400     		.2byte	0x24
 13939 1dc3 74       		.byte	0x74
 13940 1dc4 00       		.sleb128 0
 13941 1dc5 31       		.byte	0x31
ARM GAS  C:\Users\haske\AppData\Local\Temp\cc7ZkKza.s 			page 282


 13942 1dc6 24       		.byte	0x24
 13943 1dc7 76       		.byte	0x76
 13944 1dc8 00       		.sleb128 0
 13945 1dc9 22       		.byte	0x22
 13946 1dca 94       		.byte	0x94
 13947 1dcb 02       		.byte	0x2
 13948 1dcc 0A       		.byte	0xa
 13949 1dcd FFFF     		.2byte	0xffff
 13950 1dcf 1A       		.byte	0x1a
 13951 1dd0 40       		.byte	0x40
 13952 1dd1 24       		.byte	0x24
 13953 1dd2 74       		.byte	0x74
 13954 1dd3 00       		.sleb128 0
 13955 1dd4 31       		.byte	0x31
 13956 1dd5 24       		.byte	0x24
 13957 1dd6 76       		.byte	0x76
 13958 1dd7 00       		.sleb128 0
 13959 1dd8 22       		.byte	0x22
 13960 1dd9 94       		.byte	0x94
 13961 1dda 02       		.byte	0x2
 13962 1ddb 0A       		.byte	0xa
 13963 1ddc FFFF     		.2byte	0xffff
 13964 1dde 1A       		.byte	0x1a
 13965 1ddf 21       		.byte	0x21
 13966 1de0 0C       		.byte	0xc
 13967 1de1 1FF8E007 		.4byte	0x7e0f81f
 13968 1de5 1A       		.byte	0x1a
 13969 1de6 9F       		.byte	0x9f
 13970 1de7 00000000 		.4byte	0
 13971 1deb 00000000 		.4byte	0
 13972              	.LLST167:
 13973 1def AC000000 		.4byte	.LVL386
 13974 1df3 B0000000 		.4byte	.LVL387
 13975 1df7 0100     		.2byte	0x1
 13976 1df9 53       		.byte	0x53
 13977 1dfa 00000000 		.4byte	0
 13978 1dfe 00000000 		.4byte	0
 13979              	.LLST168:
 13980 1e02 DA000000 		.4byte	.LVL395
 13981 1e06 24030000 		.4byte	.LVL470
 13982 1e0a 0100     		.2byte	0x1
 13983 1e0c 59       		.byte	0x59
 13984 1e0d 00000000 		.4byte	0
 13985 1e11 00000000 		.4byte	0
 13986              	.LLST169:
 13987 1e15 E0000000 		.4byte	.LVL396
 13988 1e19 28010000 		.4byte	.LVL407
 13989 1e1d 0100     		.2byte	0x1
 13990 1e1f 52       		.byte	0x52
 13991 1e20 2E010000 		.4byte	.LVL408
 13992 1e24 3E010000 		.4byte	.LVL409
 13993 1e28 0100     		.2byte	0x1
 13994 1e2a 52       		.byte	0x52
 13995 1e2b 74010000 		.4byte	.LVL410
 13996 1e2f BE010000 		.4byte	.LVL419
 13997 1e33 0100     		.2byte	0x1
 13998 1e35 52       		.byte	0x52
ARM GAS  C:\Users\haske\AppData\Local\Temp\cc7ZkKza.s 			page 283


 13999 1e36 BE010000 		.4byte	.LVL419
 14000 1e3a 0C020000 		.4byte	.LVL429
 14001 1e3e 0300     		.2byte	0x3
 14002 1e40 72       		.byte	0x72
 14003 1e41 01       		.sleb128 1
 14004 1e42 9F       		.byte	0x9f
 14005 1e43 0C020000 		.4byte	.LVL429
 14006 1e47 5A020000 		.4byte	.LVL439
 14007 1e4b 0300     		.2byte	0x3
 14008 1e4d 72       		.byte	0x72
 14009 1e4e 02       		.sleb128 2
 14010 1e4f 9F       		.byte	0x9f
 14011 1e50 5A020000 		.4byte	.LVL439
 14012 1e54 A8020000 		.4byte	.LVL449
 14013 1e58 0300     		.2byte	0x3
 14014 1e5a 72       		.byte	0x72
 14015 1e5b 03       		.sleb128 3
 14016 1e5c 9F       		.byte	0x9f
 14017 1e5d AE020000 		.4byte	.LVL452
 14018 1e61 B0020000 		.4byte	.LVL453
 14019 1e65 0100     		.2byte	0x1
 14020 1e67 52       		.byte	0x52
 14021 1e68 BA020000 		.4byte	.LVL454
 14022 1e6c 1C030000 		.4byte	.LVL469
 14023 1e70 0100     		.2byte	0x1
 14024 1e72 5E       		.byte	0x5e
 14025 1e73 00000000 		.4byte	0
 14026 1e77 00000000 		.4byte	0
 14027              	.LLST170:
 14028 1e7b 3E010000 		.4byte	.LVL409
 14029 1e7f AE020000 		.4byte	.LVL452
 14030 1e83 0100     		.2byte	0x1
 14031 1e85 52       		.byte	0x52
 14032 1e86 B0020000 		.4byte	.LVL453
 14033 1e8a BA020000 		.4byte	.LVL454
 14034 1e8e 0100     		.2byte	0x1
 14035 1e90 52       		.byte	0x52
 14036 1e91 00000000 		.4byte	0
 14037 1e95 00000000 		.4byte	0
 14038              	.LLST171:
 14039 1e99 F2000000 		.4byte	.LVL397
 14040 1e9d F4000000 		.4byte	.LVL398
 14041 1ea1 0100     		.2byte	0x1
 14042 1ea3 51       		.byte	0x51
 14043 1ea4 F4000000 		.4byte	.LVL398
 14044 1ea8 10010000 		.4byte	.LVL402
 14045 1eac 0500     		.2byte	0x5
 14046 1eae 71       		.byte	0x71
 14047 1eaf 00       		.sleb128 0
 14048 1eb0 33       		.byte	0x33
 14049 1eb1 25       		.byte	0x25
 14050 1eb2 9F       		.byte	0x9f
 14051 1eb3 10010000 		.4byte	.LVL402
 14052 1eb7 1E010000 		.4byte	.LVL404
 14053 1ebb 0C00     		.2byte	0xc
 14054 1ebd 72       		.byte	0x72
 14055 1ebe 00       		.sleb128 0
ARM GAS  C:\Users\haske\AppData\Local\Temp\cc7ZkKza.s 			page 284


 14056 1ebf 94       		.byte	0x94
 14057 1ec0 01       		.byte	0x1
 14058 1ec1 08       		.byte	0x8
 14059 1ec2 FF       		.byte	0xff
 14060 1ec3 1A       		.byte	0x1a
 14061 1ec4 23       		.byte	0x23
 14062 1ec5 04       		.uleb128 0x4
 14063 1ec6 33       		.byte	0x33
 14064 1ec7 25       		.byte	0x25
 14065 1ec8 9F       		.byte	0x9f
 14066 1ec9 00000000 		.4byte	0
 14067 1ecd 00000000 		.4byte	0
 14068              	.LLST172:
 14069 1ed1 00010000 		.4byte	.LVL399
 14070 1ed5 1E010000 		.4byte	.LVL404
 14071 1ed9 0100     		.2byte	0x1
 14072 1edb 54       		.byte	0x54
 14073 1edc 00000000 		.4byte	0
 14074 1ee0 00000000 		.4byte	0
 14075              	.LLST173:
 14076 1ee4 0A010000 		.4byte	.LVL400
 14077 1ee8 0C010000 		.4byte	.LVL401
 14078 1eec 0100     		.2byte	0x1
 14079 1eee 50       		.byte	0x50
 14080 1eef 0C010000 		.4byte	.LVL401
 14081 1ef3 1A010000 		.4byte	.LVL403
 14082 1ef7 2100     		.2byte	0x21
 14083 1ef9 73       		.byte	0x73
 14084 1efa 00       		.sleb128 0
 14085 1efb 31       		.byte	0x31
 14086 1efc 24       		.byte	0x24
 14087 1efd 76       		.byte	0x76
 14088 1efe 00       		.sleb128 0
 14089 1eff 22       		.byte	0x22
 14090 1f00 94       		.byte	0x94
 14091 1f01 02       		.byte	0x2
 14092 1f02 0A       		.byte	0xa
 14093 1f03 FFFF     		.2byte	0xffff
 14094 1f05 1A       		.byte	0x1a
 14095 1f06 40       		.byte	0x40
 14096 1f07 24       		.byte	0x24
 14097 1f08 73       		.byte	0x73
 14098 1f09 00       		.sleb128 0
 14099 1f0a 31       		.byte	0x31
 14100 1f0b 24       		.byte	0x24
 14101 1f0c 76       		.byte	0x76
 14102 1f0d 00       		.sleb128 0
 14103 1f0e 22       		.byte	0x22
 14104 1f0f 94       		.byte	0x94
 14105 1f10 02       		.byte	0x2
 14106 1f11 0A       		.byte	0xa
 14107 1f12 FFFF     		.2byte	0xffff
 14108 1f14 1A       		.byte	0x1a
 14109 1f15 21       		.byte	0x21
 14110 1f16 75       		.byte	0x75
 14111 1f17 00       		.sleb128 0
 14112 1f18 1A       		.byte	0x1a
ARM GAS  C:\Users\haske\AppData\Local\Temp\cc7ZkKza.s 			page 285


 14113 1f19 9F       		.byte	0x9f
 14114 1f1a 1A010000 		.4byte	.LVL403
 14115 1f1e 1E010000 		.4byte	.LVL404
 14116 1f22 2400     		.2byte	0x24
 14117 1f24 73       		.byte	0x73
 14118 1f25 00       		.sleb128 0
 14119 1f26 31       		.byte	0x31
 14120 1f27 24       		.byte	0x24
 14121 1f28 76       		.byte	0x76
 14122 1f29 00       		.sleb128 0
 14123 1f2a 22       		.byte	0x22
 14124 1f2b 94       		.byte	0x94
 14125 1f2c 02       		.byte	0x2
 14126 1f2d 0A       		.byte	0xa
 14127 1f2e FFFF     		.2byte	0xffff
 14128 1f30 1A       		.byte	0x1a
 14129 1f31 40       		.byte	0x40
 14130 1f32 24       		.byte	0x24
 14131 1f33 73       		.byte	0x73
 14132 1f34 00       		.sleb128 0
 14133 1f35 31       		.byte	0x31
 14134 1f36 24       		.byte	0x24
 14135 1f37 76       		.byte	0x76
 14136 1f38 00       		.sleb128 0
 14137 1f39 22       		.byte	0x22
 14138 1f3a 94       		.byte	0x94
 14139 1f3b 02       		.byte	0x2
 14140 1f3c 0A       		.byte	0xa
 14141 1f3d FFFF     		.2byte	0xffff
 14142 1f3f 1A       		.byte	0x1a
 14143 1f40 21       		.byte	0x21
 14144 1f41 0C       		.byte	0xc
 14145 1f42 1FF8E007 		.4byte	0x7e0f81f
 14146 1f46 1A       		.byte	0x1a
 14147 1f47 9F       		.byte	0x9f
 14148 1f48 00000000 		.4byte	0
 14149 1f4c 00000000 		.4byte	0
 14150              	.LLST174:
 14151 1f50 1A010000 		.4byte	.LVL403
 14152 1f54 1E010000 		.4byte	.LVL404
 14153 1f58 0100     		.2byte	0x1
 14154 1f5a 55       		.byte	0x55
 14155 1f5b 00000000 		.4byte	0
 14156 1f5f 00000000 		.4byte	0
 14157              	.LLST175:
 14158 1f63 86010000 		.4byte	.LVL411
 14159 1f67 88010000 		.4byte	.LVL412
 14160 1f6b 0100     		.2byte	0x1
 14161 1f6d 51       		.byte	0x51
 14162 1f6e 88010000 		.4byte	.LVL412
 14163 1f72 AA010000 		.4byte	.LVL416
 14164 1f76 0500     		.2byte	0x5
 14165 1f78 71       		.byte	0x71
 14166 1f79 00       		.sleb128 0
 14167 1f7a 33       		.byte	0x33
 14168 1f7b 25       		.byte	0x25
 14169 1f7c 9F       		.byte	0x9f
ARM GAS  C:\Users\haske\AppData\Local\Temp\cc7ZkKza.s 			page 286


 14170 1f7d AA010000 		.4byte	.LVL416
 14171 1f81 BA010000 		.4byte	.LVL418
 14172 1f85 0C00     		.2byte	0xc
 14173 1f87 72       		.byte	0x72
 14174 1f88 00       		.sleb128 0
 14175 1f89 94       		.byte	0x94
 14176 1f8a 01       		.byte	0x1
 14177 1f8b 08       		.byte	0x8
 14178 1f8c FF       		.byte	0xff
 14179 1f8d 1A       		.byte	0x1a
 14180 1f8e 23       		.byte	0x23
 14181 1f8f 04       		.uleb128 0x4
 14182 1f90 33       		.byte	0x33
 14183 1f91 25       		.byte	0x25
 14184 1f92 9F       		.byte	0x9f
 14185 1f93 00000000 		.4byte	0
 14186 1f97 00000000 		.4byte	0
 14187              	.LLST176:
 14188 1f9b 98010000 		.4byte	.LVL413
 14189 1f9f BA010000 		.4byte	.LVL418
 14190 1fa3 0100     		.2byte	0x1
 14191 1fa5 54       		.byte	0x54
 14192 1fa6 00000000 		.4byte	0
 14193 1faa 00000000 		.4byte	0
 14194              	.LLST177:
 14195 1fae A4010000 		.4byte	.LVL414
 14196 1fb2 A6010000 		.4byte	.LVL415
 14197 1fb6 0100     		.2byte	0x1
 14198 1fb8 50       		.byte	0x50
 14199 1fb9 A6010000 		.4byte	.LVL415
 14200 1fbd B6010000 		.4byte	.LVL417
 14201 1fc1 2100     		.2byte	0x21
 14202 1fc3 73       		.byte	0x73
 14203 1fc4 00       		.sleb128 0
 14204 1fc5 31       		.byte	0x31
 14205 1fc6 24       		.byte	0x24
 14206 1fc7 76       		.byte	0x76
 14207 1fc8 00       		.sleb128 0
 14208 1fc9 22       		.byte	0x22
 14209 1fca 94       		.byte	0x94
 14210 1fcb 02       		.byte	0x2
 14211 1fcc 0A       		.byte	0xa
 14212 1fcd FFFF     		.2byte	0xffff
 14213 1fcf 1A       		.byte	0x1a
 14214 1fd0 40       		.byte	0x40
 14215 1fd1 24       		.byte	0x24
 14216 1fd2 73       		.byte	0x73
 14217 1fd3 00       		.sleb128 0
 14218 1fd4 31       		.byte	0x31
 14219 1fd5 24       		.byte	0x24
 14220 1fd6 76       		.byte	0x76
 14221 1fd7 00       		.sleb128 0
 14222 1fd8 22       		.byte	0x22
 14223 1fd9 94       		.byte	0x94
 14224 1fda 02       		.byte	0x2
 14225 1fdb 0A       		.byte	0xa
 14226 1fdc FFFF     		.2byte	0xffff
ARM GAS  C:\Users\haske\AppData\Local\Temp\cc7ZkKza.s 			page 287


 14227 1fde 1A       		.byte	0x1a
 14228 1fdf 21       		.byte	0x21
 14229 1fe0 7E       		.byte	0x7e
 14230 1fe1 00       		.sleb128 0
 14231 1fe2 1A       		.byte	0x1a
 14232 1fe3 9F       		.byte	0x9f
 14233 1fe4 B6010000 		.4byte	.LVL417
 14234 1fe8 BA010000 		.4byte	.LVL418
 14235 1fec 2400     		.2byte	0x24
 14236 1fee 73       		.byte	0x73
 14237 1fef 00       		.sleb128 0
 14238 1ff0 31       		.byte	0x31
 14239 1ff1 24       		.byte	0x24
 14240 1ff2 76       		.byte	0x76
 14241 1ff3 00       		.sleb128 0
 14242 1ff4 22       		.byte	0x22
 14243 1ff5 94       		.byte	0x94
 14244 1ff6 02       		.byte	0x2
 14245 1ff7 0A       		.byte	0xa
 14246 1ff8 FFFF     		.2byte	0xffff
 14247 1ffa 1A       		.byte	0x1a
 14248 1ffb 40       		.byte	0x40
 14249 1ffc 24       		.byte	0x24
 14250 1ffd 73       		.byte	0x73
 14251 1ffe 00       		.sleb128 0
 14252 1fff 31       		.byte	0x31
 14253 2000 24       		.byte	0x24
 14254 2001 76       		.byte	0x76
 14255 2002 00       		.sleb128 0
 14256 2003 22       		.byte	0x22
 14257 2004 94       		.byte	0x94
 14258 2005 02       		.byte	0x2
 14259 2006 0A       		.byte	0xa
 14260 2007 FFFF     		.2byte	0xffff
 14261 2009 1A       		.byte	0x1a
 14262 200a 21       		.byte	0x21
 14263 200b 0C       		.byte	0xc
 14264 200c 1FF8E007 		.4byte	0x7e0f81f
 14265 2010 1A       		.byte	0x1a
 14266 2011 9F       		.byte	0x9f
 14267 2012 00000000 		.4byte	0
 14268 2016 00000000 		.4byte	0
 14269              	.LLST178:
 14270 201a B6010000 		.4byte	.LVL417
 14271 201e BA010000 		.4byte	.LVL418
 14272 2022 0100     		.2byte	0x1
 14273 2024 5E       		.byte	0x5e
 14274 2025 00000000 		.4byte	0
 14275 2029 00000000 		.4byte	0
 14276              	.LLST179:
 14277 202d D6010000 		.4byte	.LVL420
 14278 2031 D8010000 		.4byte	.LVL421
 14279 2035 0100     		.2byte	0x1
 14280 2037 51       		.byte	0x51
 14281 2038 D8010000 		.4byte	.LVL421
 14282 203c F8010000 		.4byte	.LVL425
 14283 2040 0500     		.2byte	0x5
ARM GAS  C:\Users\haske\AppData\Local\Temp\cc7ZkKza.s 			page 288


 14284 2042 70       		.byte	0x70
 14285 2043 00       		.sleb128 0
 14286 2044 33       		.byte	0x33
 14287 2045 25       		.byte	0x25
 14288 2046 9F       		.byte	0x9f
 14289 2047 F8010000 		.4byte	.LVL425
 14290 204b 08020000 		.4byte	.LVL428
 14291 204f 0C00     		.2byte	0xc
 14292 2051 72       		.byte	0x72
 14293 2052 01       		.sleb128 1
 14294 2053 94       		.byte	0x94
 14295 2054 01       		.byte	0x1
 14296 2055 08       		.byte	0x8
 14297 2056 FF       		.byte	0xff
 14298 2057 1A       		.byte	0x1a
 14299 2058 23       		.byte	0x23
 14300 2059 04       		.uleb128 0x4
 14301 205a 33       		.byte	0x33
 14302 205b 25       		.byte	0x25
 14303 205c 9F       		.byte	0x9f
 14304 205d 00000000 		.4byte	0
 14305 2061 00000000 		.4byte	0
 14306              	.LLST180:
 14307 2065 E6010000 		.4byte	.LVL422
 14308 2069 00020000 		.4byte	.LVL426
 14309 206d 0100     		.2byte	0x1
 14310 206f 5A       		.byte	0x5a
 14311 2070 00020000 		.4byte	.LVL426
 14312 2074 04020000 		.4byte	.LVL427
 14313 2078 2100     		.2byte	0x21
 14314 207a 7E       		.byte	0x7e
 14315 207b 00       		.sleb128 0
 14316 207c 31       		.byte	0x31
 14317 207d 24       		.byte	0x24
 14318 207e 75       		.byte	0x75
 14319 207f 00       		.sleb128 0
 14320 2080 22       		.byte	0x22
 14321 2081 94       		.byte	0x94
 14322 2082 02       		.byte	0x2
 14323 2083 0A       		.byte	0xa
 14324 2084 FFFF     		.2byte	0xffff
 14325 2086 1A       		.byte	0x1a
 14326 2087 40       		.byte	0x40
 14327 2088 24       		.byte	0x24
 14328 2089 7E       		.byte	0x7e
 14329 208a 00       		.sleb128 0
 14330 208b 31       		.byte	0x31
 14331 208c 24       		.byte	0x24
 14332 208d 75       		.byte	0x75
 14333 208e 00       		.sleb128 0
 14334 208f 22       		.byte	0x22
 14335 2090 94       		.byte	0x94
 14336 2091 02       		.byte	0x2
 14337 2092 0A       		.byte	0xa
 14338 2093 FFFF     		.2byte	0xffff
 14339 2095 1A       		.byte	0x1a
 14340 2096 21       		.byte	0x21
ARM GAS  C:\Users\haske\AppData\Local\Temp\cc7ZkKza.s 			page 289


 14341 2097 71       		.byte	0x71
 14342 2098 00       		.sleb128 0
 14343 2099 1A       		.byte	0x1a
 14344 209a 9F       		.byte	0x9f
 14345 209b 04020000 		.4byte	.LVL427
 14346 209f 08020000 		.4byte	.LVL428
 14347 20a3 2400     		.2byte	0x24
 14348 20a5 7E       		.byte	0x7e
 14349 20a6 00       		.sleb128 0
 14350 20a7 31       		.byte	0x31
 14351 20a8 24       		.byte	0x24
 14352 20a9 75       		.byte	0x75
 14353 20aa 00       		.sleb128 0
 14354 20ab 22       		.byte	0x22
 14355 20ac 94       		.byte	0x94
 14356 20ad 02       		.byte	0x2
 14357 20ae 0A       		.byte	0xa
 14358 20af FFFF     		.2byte	0xffff
 14359 20b1 1A       		.byte	0x1a
 14360 20b2 40       		.byte	0x40
 14361 20b3 24       		.byte	0x24
 14362 20b4 7E       		.byte	0x7e
 14363 20b5 00       		.sleb128 0
 14364 20b6 31       		.byte	0x31
 14365 20b7 24       		.byte	0x24
 14366 20b8 75       		.byte	0x75
 14367 20b9 00       		.sleb128 0
 14368 20ba 22       		.byte	0x22
 14369 20bb 94       		.byte	0x94
 14370 20bc 02       		.byte	0x2
 14371 20bd 0A       		.byte	0xa
 14372 20be FFFF     		.2byte	0xffff
 14373 20c0 1A       		.byte	0x1a
 14374 20c1 21       		.byte	0x21
 14375 20c2 0C       		.byte	0xc
 14376 20c3 1FF8E007 		.4byte	0x7e0f81f
 14377 20c7 1A       		.byte	0x1a
 14378 20c8 9F       		.byte	0x9f
 14379 20c9 00000000 		.4byte	0
 14380 20cd 00000000 		.4byte	0
 14381              	.LLST181:
 14382 20d1 F0010000 		.4byte	.LVL423
 14383 20d5 F4010000 		.4byte	.LVL424
 14384 20d9 0100     		.2byte	0x1
 14385 20db 54       		.byte	0x54
 14386 20dc F4010000 		.4byte	.LVL424
 14387 20e0 04020000 		.4byte	.LVL427
 14388 20e4 2100     		.2byte	0x21
 14389 20e6 7E       		.byte	0x7e
 14390 20e7 00       		.sleb128 0
 14391 20e8 31       		.byte	0x31
 14392 20e9 24       		.byte	0x24
 14393 20ea 76       		.byte	0x76
 14394 20eb 00       		.sleb128 0
 14395 20ec 22       		.byte	0x22
 14396 20ed 94       		.byte	0x94
 14397 20ee 02       		.byte	0x2
ARM GAS  C:\Users\haske\AppData\Local\Temp\cc7ZkKza.s 			page 290


 14398 20ef 0A       		.byte	0xa
 14399 20f0 FFFF     		.2byte	0xffff
 14400 20f2 1A       		.byte	0x1a
 14401 20f3 40       		.byte	0x40
 14402 20f4 24       		.byte	0x24
 14403 20f5 7E       		.byte	0x7e
 14404 20f6 00       		.sleb128 0
 14405 20f7 31       		.byte	0x31
 14406 20f8 24       		.byte	0x24
 14407 20f9 76       		.byte	0x76
 14408 20fa 00       		.sleb128 0
 14409 20fb 22       		.byte	0x22
 14410 20fc 94       		.byte	0x94
 14411 20fd 02       		.byte	0x2
 14412 20fe 0A       		.byte	0xa
 14413 20ff FFFF     		.2byte	0xffff
 14414 2101 1A       		.byte	0x1a
 14415 2102 21       		.byte	0x21
 14416 2103 71       		.byte	0x71
 14417 2104 00       		.sleb128 0
 14418 2105 1A       		.byte	0x1a
 14419 2106 9F       		.byte	0x9f
 14420 2107 04020000 		.4byte	.LVL427
 14421 210b 08020000 		.4byte	.LVL428
 14422 210f 2400     		.2byte	0x24
 14423 2111 7E       		.byte	0x7e
 14424 2112 00       		.sleb128 0
 14425 2113 31       		.byte	0x31
 14426 2114 24       		.byte	0x24
 14427 2115 76       		.byte	0x76
 14428 2116 00       		.sleb128 0
 14429 2117 22       		.byte	0x22
 14430 2118 94       		.byte	0x94
 14431 2119 02       		.byte	0x2
 14432 211a 0A       		.byte	0xa
 14433 211b FFFF     		.2byte	0xffff
 14434 211d 1A       		.byte	0x1a
 14435 211e 40       		.byte	0x40
 14436 211f 24       		.byte	0x24
 14437 2120 7E       		.byte	0x7e
 14438 2121 00       		.sleb128 0
 14439 2122 31       		.byte	0x31
 14440 2123 24       		.byte	0x24
 14441 2124 76       		.byte	0x76
 14442 2125 00       		.sleb128 0
 14443 2126 22       		.byte	0x22
 14444 2127 94       		.byte	0x94
 14445 2128 02       		.byte	0x2
 14446 2129 0A       		.byte	0xa
 14447 212a FFFF     		.2byte	0xffff
 14448 212c 1A       		.byte	0x1a
 14449 212d 21       		.byte	0x21
 14450 212e 0C       		.byte	0xc
 14451 212f 1FF8E007 		.4byte	0x7e0f81f
 14452 2133 1A       		.byte	0x1a
 14453 2134 9F       		.byte	0x9f
 14454 2135 00000000 		.4byte	0
ARM GAS  C:\Users\haske\AppData\Local\Temp\cc7ZkKza.s 			page 291


 14455 2139 00000000 		.4byte	0
 14456              	.LLST182:
 14457 213d 04020000 		.4byte	.LVL427
 14458 2141 08020000 		.4byte	.LVL428
 14459 2145 0100     		.2byte	0x1
 14460 2147 51       		.byte	0x51
 14461 2148 00000000 		.4byte	0
 14462 214c 00000000 		.4byte	0
 14463              	.LLST183:
 14464 2150 24020000 		.4byte	.LVL430
 14465 2154 26020000 		.4byte	.LVL431
 14466 2158 0100     		.2byte	0x1
 14467 215a 51       		.byte	0x51
 14468 215b 26020000 		.4byte	.LVL431
 14469 215f 46020000 		.4byte	.LVL435
 14470 2163 0500     		.2byte	0x5
 14471 2165 70       		.byte	0x70
 14472 2166 00       		.sleb128 0
 14473 2167 33       		.byte	0x33
 14474 2168 25       		.byte	0x25
 14475 2169 9F       		.byte	0x9f
 14476 216a 46020000 		.4byte	.LVL435
 14477 216e 56020000 		.4byte	.LVL438
 14478 2172 0C00     		.2byte	0xc
 14479 2174 72       		.byte	0x72
 14480 2175 02       		.sleb128 2
 14481 2176 94       		.byte	0x94
 14482 2177 01       		.byte	0x1
 14483 2178 08       		.byte	0x8
 14484 2179 FF       		.byte	0xff
 14485 217a 1A       		.byte	0x1a
 14486 217b 23       		.byte	0x23
 14487 217c 04       		.uleb128 0x4
 14488 217d 33       		.byte	0x33
 14489 217e 25       		.byte	0x25
 14490 217f 9F       		.byte	0x9f
 14491 2180 00000000 		.4byte	0
 14492 2184 00000000 		.4byte	0
 14493              	.LLST184:
 14494 2188 34020000 		.4byte	.LVL432
 14495 218c 4E020000 		.4byte	.LVL436
 14496 2190 0100     		.2byte	0x1
 14497 2192 5A       		.byte	0x5a
 14498 2193 4E020000 		.4byte	.LVL436
 14499 2197 52020000 		.4byte	.LVL437
 14500 219b 2100     		.2byte	0x21
 14501 219d 7E       		.byte	0x7e
 14502 219e 00       		.sleb128 0
 14503 219f 31       		.byte	0x31
 14504 21a0 24       		.byte	0x24
 14505 21a1 75       		.byte	0x75
 14506 21a2 00       		.sleb128 0
 14507 21a3 22       		.byte	0x22
 14508 21a4 94       		.byte	0x94
 14509 21a5 02       		.byte	0x2
 14510 21a6 0A       		.byte	0xa
 14511 21a7 FFFF     		.2byte	0xffff
ARM GAS  C:\Users\haske\AppData\Local\Temp\cc7ZkKza.s 			page 292


 14512 21a9 1A       		.byte	0x1a
 14513 21aa 40       		.byte	0x40
 14514 21ab 24       		.byte	0x24
 14515 21ac 7E       		.byte	0x7e
 14516 21ad 00       		.sleb128 0
 14517 21ae 31       		.byte	0x31
 14518 21af 24       		.byte	0x24
 14519 21b0 75       		.byte	0x75
 14520 21b1 00       		.sleb128 0
 14521 21b2 22       		.byte	0x22
 14522 21b3 94       		.byte	0x94
 14523 21b4 02       		.byte	0x2
 14524 21b5 0A       		.byte	0xa
 14525 21b6 FFFF     		.2byte	0xffff
 14526 21b8 1A       		.byte	0x1a
 14527 21b9 21       		.byte	0x21
 14528 21ba 71       		.byte	0x71
 14529 21bb 00       		.sleb128 0
 14530 21bc 1A       		.byte	0x1a
 14531 21bd 9F       		.byte	0x9f
 14532 21be 52020000 		.4byte	.LVL437
 14533 21c2 56020000 		.4byte	.LVL438
 14534 21c6 2400     		.2byte	0x24
 14535 21c8 7E       		.byte	0x7e
 14536 21c9 00       		.sleb128 0
 14537 21ca 31       		.byte	0x31
 14538 21cb 24       		.byte	0x24
 14539 21cc 75       		.byte	0x75
 14540 21cd 00       		.sleb128 0
 14541 21ce 22       		.byte	0x22
 14542 21cf 94       		.byte	0x94
 14543 21d0 02       		.byte	0x2
 14544 21d1 0A       		.byte	0xa
 14545 21d2 FFFF     		.2byte	0xffff
 14546 21d4 1A       		.byte	0x1a
 14547 21d5 40       		.byte	0x40
 14548 21d6 24       		.byte	0x24
 14549 21d7 7E       		.byte	0x7e
 14550 21d8 00       		.sleb128 0
 14551 21d9 31       		.byte	0x31
 14552 21da 24       		.byte	0x24
 14553 21db 75       		.byte	0x75
 14554 21dc 00       		.sleb128 0
 14555 21dd 22       		.byte	0x22
 14556 21de 94       		.byte	0x94
 14557 21df 02       		.byte	0x2
 14558 21e0 0A       		.byte	0xa
 14559 21e1 FFFF     		.2byte	0xffff
 14560 21e3 1A       		.byte	0x1a
 14561 21e4 21       		.byte	0x21
 14562 21e5 0C       		.byte	0xc
 14563 21e6 1FF8E007 		.4byte	0x7e0f81f
 14564 21ea 1A       		.byte	0x1a
 14565 21eb 9F       		.byte	0x9f
 14566 21ec 00000000 		.4byte	0
 14567 21f0 00000000 		.4byte	0
 14568              	.LLST185:
ARM GAS  C:\Users\haske\AppData\Local\Temp\cc7ZkKza.s 			page 293


 14569 21f4 3E020000 		.4byte	.LVL433
 14570 21f8 42020000 		.4byte	.LVL434
 14571 21fc 0100     		.2byte	0x1
 14572 21fe 54       		.byte	0x54
 14573 21ff 42020000 		.4byte	.LVL434
 14574 2203 52020000 		.4byte	.LVL437
 14575 2207 2100     		.2byte	0x21
 14576 2209 7E       		.byte	0x7e
 14577 220a 00       		.sleb128 0
 14578 220b 31       		.byte	0x31
 14579 220c 24       		.byte	0x24
 14580 220d 76       		.byte	0x76
 14581 220e 00       		.sleb128 0
 14582 220f 22       		.byte	0x22
 14583 2210 94       		.byte	0x94
 14584 2211 02       		.byte	0x2
 14585 2212 0A       		.byte	0xa
 14586 2213 FFFF     		.2byte	0xffff
 14587 2215 1A       		.byte	0x1a
 14588 2216 40       		.byte	0x40
 14589 2217 24       		.byte	0x24
 14590 2218 7E       		.byte	0x7e
 14591 2219 00       		.sleb128 0
 14592 221a 31       		.byte	0x31
 14593 221b 24       		.byte	0x24
 14594 221c 76       		.byte	0x76
 14595 221d 00       		.sleb128 0
 14596 221e 22       		.byte	0x22
 14597 221f 94       		.byte	0x94
 14598 2220 02       		.byte	0x2
 14599 2221 0A       		.byte	0xa
 14600 2222 FFFF     		.2byte	0xffff
 14601 2224 1A       		.byte	0x1a
 14602 2225 21       		.byte	0x21
 14603 2226 71       		.byte	0x71
 14604 2227 00       		.sleb128 0
 14605 2228 1A       		.byte	0x1a
 14606 2229 9F       		.byte	0x9f
 14607 222a 52020000 		.4byte	.LVL437
 14608 222e 56020000 		.4byte	.LVL438
 14609 2232 2400     		.2byte	0x24
 14610 2234 7E       		.byte	0x7e
 14611 2235 00       		.sleb128 0
 14612 2236 31       		.byte	0x31
 14613 2237 24       		.byte	0x24
 14614 2238 76       		.byte	0x76
 14615 2239 00       		.sleb128 0
 14616 223a 22       		.byte	0x22
 14617 223b 94       		.byte	0x94
 14618 223c 02       		.byte	0x2
 14619 223d 0A       		.byte	0xa
 14620 223e FFFF     		.2byte	0xffff
 14621 2240 1A       		.byte	0x1a
 14622 2241 40       		.byte	0x40
 14623 2242 24       		.byte	0x24
 14624 2243 7E       		.byte	0x7e
 14625 2244 00       		.sleb128 0
ARM GAS  C:\Users\haske\AppData\Local\Temp\cc7ZkKza.s 			page 294


 14626 2245 31       		.byte	0x31
 14627 2246 24       		.byte	0x24
 14628 2247 76       		.byte	0x76
 14629 2248 00       		.sleb128 0
 14630 2249 22       		.byte	0x22
 14631 224a 94       		.byte	0x94
 14632 224b 02       		.byte	0x2
 14633 224c 0A       		.byte	0xa
 14634 224d FFFF     		.2byte	0xffff
 14635 224f 1A       		.byte	0x1a
 14636 2250 21       		.byte	0x21
 14637 2251 0C       		.byte	0xc
 14638 2252 1FF8E007 		.4byte	0x7e0f81f
 14639 2256 1A       		.byte	0x1a
 14640 2257 9F       		.byte	0x9f
 14641 2258 00000000 		.4byte	0
 14642 225c 00000000 		.4byte	0
 14643              	.LLST186:
 14644 2260 52020000 		.4byte	.LVL437
 14645 2264 56020000 		.4byte	.LVL438
 14646 2268 0100     		.2byte	0x1
 14647 226a 51       		.byte	0x51
 14648 226b 00000000 		.4byte	0
 14649 226f 00000000 		.4byte	0
 14650              	.LLST187:
 14651 2273 72020000 		.4byte	.LVL440
 14652 2277 74020000 		.4byte	.LVL441
 14653 227b 0100     		.2byte	0x1
 14654 227d 51       		.byte	0x51
 14655 227e 74020000 		.4byte	.LVL441
 14656 2282 94020000 		.4byte	.LVL445
 14657 2286 0500     		.2byte	0x5
 14658 2288 70       		.byte	0x70
 14659 2289 00       		.sleb128 0
 14660 228a 33       		.byte	0x33
 14661 228b 25       		.byte	0x25
 14662 228c 9F       		.byte	0x9f
 14663 228d 94020000 		.4byte	.LVL445
 14664 2291 A4020000 		.4byte	.LVL448
 14665 2295 0C00     		.2byte	0xc
 14666 2297 72       		.byte	0x72
 14667 2298 03       		.sleb128 3
 14668 2299 94       		.byte	0x94
 14669 229a 01       		.byte	0x1
 14670 229b 08       		.byte	0x8
 14671 229c FF       		.byte	0xff
 14672 229d 1A       		.byte	0x1a
 14673 229e 23       		.byte	0x23
 14674 229f 04       		.uleb128 0x4
 14675 22a0 33       		.byte	0x33
 14676 22a1 25       		.byte	0x25
 14677 22a2 9F       		.byte	0x9f
 14678 22a3 00000000 		.4byte	0
 14679 22a7 00000000 		.4byte	0
 14680              	.LLST188:
 14681 22ab 82020000 		.4byte	.LVL442
 14682 22af 9C020000 		.4byte	.LVL446
ARM GAS  C:\Users\haske\AppData\Local\Temp\cc7ZkKza.s 			page 295


 14683 22b3 0100     		.2byte	0x1
 14684 22b5 5A       		.byte	0x5a
 14685 22b6 9C020000 		.4byte	.LVL446
 14686 22ba A0020000 		.4byte	.LVL447
 14687 22be 2100     		.2byte	0x21
 14688 22c0 7E       		.byte	0x7e
 14689 22c1 00       		.sleb128 0
 14690 22c2 31       		.byte	0x31
 14691 22c3 24       		.byte	0x24
 14692 22c4 75       		.byte	0x75
 14693 22c5 00       		.sleb128 0
 14694 22c6 22       		.byte	0x22
 14695 22c7 94       		.byte	0x94
 14696 22c8 02       		.byte	0x2
 14697 22c9 0A       		.byte	0xa
 14698 22ca FFFF     		.2byte	0xffff
 14699 22cc 1A       		.byte	0x1a
 14700 22cd 40       		.byte	0x40
 14701 22ce 24       		.byte	0x24
 14702 22cf 7E       		.byte	0x7e
 14703 22d0 00       		.sleb128 0
 14704 22d1 31       		.byte	0x31
 14705 22d2 24       		.byte	0x24
 14706 22d3 75       		.byte	0x75
 14707 22d4 00       		.sleb128 0
 14708 22d5 22       		.byte	0x22
 14709 22d6 94       		.byte	0x94
 14710 22d7 02       		.byte	0x2
 14711 22d8 0A       		.byte	0xa
 14712 22d9 FFFF     		.2byte	0xffff
 14713 22db 1A       		.byte	0x1a
 14714 22dc 21       		.byte	0x21
 14715 22dd 71       		.byte	0x71
 14716 22de 00       		.sleb128 0
 14717 22df 1A       		.byte	0x1a
 14718 22e0 9F       		.byte	0x9f
 14719 22e1 A0020000 		.4byte	.LVL447
 14720 22e5 A4020000 		.4byte	.LVL448
 14721 22e9 2400     		.2byte	0x24
 14722 22eb 7E       		.byte	0x7e
 14723 22ec 00       		.sleb128 0
 14724 22ed 31       		.byte	0x31
 14725 22ee 24       		.byte	0x24
 14726 22ef 75       		.byte	0x75
 14727 22f0 00       		.sleb128 0
 14728 22f1 22       		.byte	0x22
 14729 22f2 94       		.byte	0x94
 14730 22f3 02       		.byte	0x2
 14731 22f4 0A       		.byte	0xa
 14732 22f5 FFFF     		.2byte	0xffff
 14733 22f7 1A       		.byte	0x1a
 14734 22f8 40       		.byte	0x40
 14735 22f9 24       		.byte	0x24
 14736 22fa 7E       		.byte	0x7e
 14737 22fb 00       		.sleb128 0
 14738 22fc 31       		.byte	0x31
 14739 22fd 24       		.byte	0x24
ARM GAS  C:\Users\haske\AppData\Local\Temp\cc7ZkKza.s 			page 296


 14740 22fe 75       		.byte	0x75
 14741 22ff 00       		.sleb128 0
 14742 2300 22       		.byte	0x22
 14743 2301 94       		.byte	0x94
 14744 2302 02       		.byte	0x2
 14745 2303 0A       		.byte	0xa
 14746 2304 FFFF     		.2byte	0xffff
 14747 2306 1A       		.byte	0x1a
 14748 2307 21       		.byte	0x21
 14749 2308 0C       		.byte	0xc
 14750 2309 1FF8E007 		.4byte	0x7e0f81f
 14751 230d 1A       		.byte	0x1a
 14752 230e 9F       		.byte	0x9f
 14753 230f 00000000 		.4byte	0
 14754 2313 00000000 		.4byte	0
 14755              	.LLST189:
 14756 2317 8C020000 		.4byte	.LVL443
 14757 231b 90020000 		.4byte	.LVL444
 14758 231f 0100     		.2byte	0x1
 14759 2321 54       		.byte	0x54
 14760 2322 90020000 		.4byte	.LVL444
 14761 2326 A0020000 		.4byte	.LVL447
 14762 232a 2100     		.2byte	0x21
 14763 232c 7E       		.byte	0x7e
 14764 232d 00       		.sleb128 0
 14765 232e 31       		.byte	0x31
 14766 232f 24       		.byte	0x24
 14767 2330 76       		.byte	0x76
 14768 2331 00       		.sleb128 0
 14769 2332 22       		.byte	0x22
 14770 2333 94       		.byte	0x94
 14771 2334 02       		.byte	0x2
 14772 2335 0A       		.byte	0xa
 14773 2336 FFFF     		.2byte	0xffff
 14774 2338 1A       		.byte	0x1a
 14775 2339 40       		.byte	0x40
 14776 233a 24       		.byte	0x24
 14777 233b 7E       		.byte	0x7e
 14778 233c 00       		.sleb128 0
 14779 233d 31       		.byte	0x31
 14780 233e 24       		.byte	0x24
 14781 233f 76       		.byte	0x76
 14782 2340 00       		.sleb128 0
 14783 2341 22       		.byte	0x22
 14784 2342 94       		.byte	0x94
 14785 2343 02       		.byte	0x2
 14786 2344 0A       		.byte	0xa
 14787 2345 FFFF     		.2byte	0xffff
 14788 2347 1A       		.byte	0x1a
 14789 2348 21       		.byte	0x21
 14790 2349 71       		.byte	0x71
 14791 234a 00       		.sleb128 0
 14792 234b 1A       		.byte	0x1a
 14793 234c 9F       		.byte	0x9f
 14794 234d A0020000 		.4byte	.LVL447
 14795 2351 A4020000 		.4byte	.LVL448
 14796 2355 2400     		.2byte	0x24
ARM GAS  C:\Users\haske\AppData\Local\Temp\cc7ZkKza.s 			page 297


 14797 2357 7E       		.byte	0x7e
 14798 2358 00       		.sleb128 0
 14799 2359 31       		.byte	0x31
 14800 235a 24       		.byte	0x24
 14801 235b 76       		.byte	0x76
 14802 235c 00       		.sleb128 0
 14803 235d 22       		.byte	0x22
 14804 235e 94       		.byte	0x94
 14805 235f 02       		.byte	0x2
 14806 2360 0A       		.byte	0xa
 14807 2361 FFFF     		.2byte	0xffff
 14808 2363 1A       		.byte	0x1a
 14809 2364 40       		.byte	0x40
 14810 2365 24       		.byte	0x24
 14811 2366 7E       		.byte	0x7e
 14812 2367 00       		.sleb128 0
 14813 2368 31       		.byte	0x31
 14814 2369 24       		.byte	0x24
 14815 236a 76       		.byte	0x76
 14816 236b 00       		.sleb128 0
 14817 236c 22       		.byte	0x22
 14818 236d 94       		.byte	0x94
 14819 236e 02       		.byte	0x2
 14820 236f 0A       		.byte	0xa
 14821 2370 FFFF     		.2byte	0xffff
 14822 2372 1A       		.byte	0x1a
 14823 2373 21       		.byte	0x21
 14824 2374 0C       		.byte	0xc
 14825 2375 1FF8E007 		.4byte	0x7e0f81f
 14826 2379 1A       		.byte	0x1a
 14827 237a 9F       		.byte	0x9f
 14828 237b 00000000 		.4byte	0
 14829 237f 00000000 		.4byte	0
 14830              	.LLST190:
 14831 2383 A0020000 		.4byte	.LVL447
 14832 2387 A4020000 		.4byte	.LVL448
 14833 238b 0100     		.2byte	0x1
 14834 238d 51       		.byte	0x51
 14835 238e 00000000 		.4byte	0
 14836 2392 00000000 		.4byte	0
 14837              	.LLST191:
 14838 2396 CE020000 		.4byte	.LVL455
 14839 239a D0020000 		.4byte	.LVL456
 14840 239e 0100     		.2byte	0x1
 14841 23a0 51       		.byte	0x51
 14842 23a1 D0020000 		.4byte	.LVL456
 14843 23a5 EC020000 		.4byte	.LVL460
 14844 23a9 0500     		.2byte	0x5
 14845 23ab 71       		.byte	0x71
 14846 23ac 00       		.sleb128 0
 14847 23ad 33       		.byte	0x33
 14848 23ae 25       		.byte	0x25
 14849 23af 9F       		.byte	0x9f
 14850 23b0 EC020000 		.4byte	.LVL460
 14851 23b4 FA020000 		.4byte	.LVL462
 14852 23b8 0C00     		.2byte	0xc
 14853 23ba 7E       		.byte	0x7e
ARM GAS  C:\Users\haske\AppData\Local\Temp\cc7ZkKza.s 			page 298


 14854 23bb 00       		.sleb128 0
 14855 23bc 94       		.byte	0x94
 14856 23bd 01       		.byte	0x1
 14857 23be 08       		.byte	0x8
 14858 23bf FF       		.byte	0xff
 14859 23c0 1A       		.byte	0x1a
 14860 23c1 23       		.byte	0x23
 14861 23c2 04       		.uleb128 0x4
 14862 23c3 33       		.byte	0x33
 14863 23c4 25       		.byte	0x25
 14864 23c5 9F       		.byte	0x9f
 14865 23c6 00000000 		.4byte	0
 14866 23ca 00000000 		.4byte	0
 14867              	.LLST192:
 14868 23ce DC020000 		.4byte	.LVL457
 14869 23d2 FA020000 		.4byte	.LVL462
 14870 23d6 0100     		.2byte	0x1
 14871 23d8 54       		.byte	0x54
 14872 23d9 00000000 		.4byte	0
 14873 23dd 00000000 		.4byte	0
 14874              	.LLST193:
 14875 23e1 E6020000 		.4byte	.LVL458
 14876 23e5 E8020000 		.4byte	.LVL459
 14877 23e9 0100     		.2byte	0x1
 14878 23eb 50       		.byte	0x50
 14879 23ec E8020000 		.4byte	.LVL459
 14880 23f0 F6020000 		.4byte	.LVL461
 14881 23f4 2100     		.2byte	0x21
 14882 23f6 73       		.byte	0x73
 14883 23f7 00       		.sleb128 0
 14884 23f8 31       		.byte	0x31
 14885 23f9 24       		.byte	0x24
 14886 23fa 76       		.byte	0x76
 14887 23fb 00       		.sleb128 0
 14888 23fc 22       		.byte	0x22
 14889 23fd 94       		.byte	0x94
 14890 23fe 02       		.byte	0x2
 14891 23ff 0A       		.byte	0xa
 14892 2400 FFFF     		.2byte	0xffff
 14893 2402 1A       		.byte	0x1a
 14894 2403 40       		.byte	0x40
 14895 2404 24       		.byte	0x24
 14896 2405 73       		.byte	0x73
 14897 2406 00       		.sleb128 0
 14898 2407 31       		.byte	0x31
 14899 2408 24       		.byte	0x24
 14900 2409 76       		.byte	0x76
 14901 240a 00       		.sleb128 0
 14902 240b 22       		.byte	0x22
 14903 240c 94       		.byte	0x94
 14904 240d 02       		.byte	0x2
 14905 240e 0A       		.byte	0xa
 14906 240f FFFF     		.2byte	0xffff
 14907 2411 1A       		.byte	0x1a
 14908 2412 21       		.byte	0x21
 14909 2413 72       		.byte	0x72
 14910 2414 00       		.sleb128 0
ARM GAS  C:\Users\haske\AppData\Local\Temp\cc7ZkKza.s 			page 299


 14911 2415 1A       		.byte	0x1a
 14912 2416 9F       		.byte	0x9f
 14913 2417 F6020000 		.4byte	.LVL461
 14914 241b FA020000 		.4byte	.LVL462
 14915 241f 2400     		.2byte	0x24
 14916 2421 73       		.byte	0x73
 14917 2422 00       		.sleb128 0
 14918 2423 31       		.byte	0x31
 14919 2424 24       		.byte	0x24
 14920 2425 76       		.byte	0x76
 14921 2426 00       		.sleb128 0
 14922 2427 22       		.byte	0x22
 14923 2428 94       		.byte	0x94
 14924 2429 02       		.byte	0x2
 14925 242a 0A       		.byte	0xa
 14926 242b FFFF     		.2byte	0xffff
 14927 242d 1A       		.byte	0x1a
 14928 242e 40       		.byte	0x40
 14929 242f 24       		.byte	0x24
 14930 2430 73       		.byte	0x73
 14931 2431 00       		.sleb128 0
 14932 2432 31       		.byte	0x31
 14933 2433 24       		.byte	0x24
 14934 2434 76       		.byte	0x76
 14935 2435 00       		.sleb128 0
 14936 2436 22       		.byte	0x22
 14937 2437 94       		.byte	0x94
 14938 2438 02       		.byte	0x2
 14939 2439 0A       		.byte	0xa
 14940 243a FFFF     		.2byte	0xffff
 14941 243c 1A       		.byte	0x1a
 14942 243d 21       		.byte	0x21
 14943 243e 0C       		.byte	0xc
 14944 243f 1FF8E007 		.4byte	0x7e0f81f
 14945 2443 1A       		.byte	0x1a
 14946 2444 9F       		.byte	0x9f
 14947 2445 00000000 		.4byte	0
 14948 2449 00000000 		.4byte	0
 14949              	.LLST194:
 14950 244d F6020000 		.4byte	.LVL461
 14951 2451 FA020000 		.4byte	.LVL462
 14952 2455 0100     		.2byte	0x1
 14953 2457 52       		.byte	0x52
 14954 2458 00000000 		.4byte	0
 14955 245c 00000000 		.4byte	0
 14956              	.LLST195:
 14957 2460 3C030000 		.4byte	.LVL472
 14958 2464 3E030000 		.4byte	.LVL473
 14959 2468 0100     		.2byte	0x1
 14960 246a 52       		.byte	0x52
 14961 246b 00000000 		.4byte	0
 14962 246f 00000000 		.4byte	0
 14963              	.LLST196:
 14964 2473 3C030000 		.4byte	.LVL472
 14965 2477 3E030000 		.4byte	.LVL473
 14966 247b 0100     		.2byte	0x1
 14967 247d 52       		.byte	0x52
ARM GAS  C:\Users\haske\AppData\Local\Temp\cc7ZkKza.s 			page 300


 14968 247e 3E030000 		.4byte	.LVL473
 14969 2482 5E030000 		.4byte	.LVL477
 14970 2486 0500     		.2byte	0x5
 14971 2488 72       		.byte	0x72
 14972 2489 00       		.sleb128 0
 14973 248a 33       		.byte	0x33
 14974 248b 25       		.byte	0x25
 14975 248c 9F       		.byte	0x9f
 14976 248d 00000000 		.4byte	0
 14977 2491 00000000 		.4byte	0
 14978              	.LLST197:
 14979 2495 4C030000 		.4byte	.LVL474
 14980 2499 66030000 		.4byte	.LVL478
 14981 249d 0100     		.2byte	0x1
 14982 249f 5E       		.byte	0x5e
 14983 24a0 66030000 		.4byte	.LVL478
 14984 24a4 6A030000 		.4byte	.LVL479
 14985 24a8 2100     		.2byte	0x21
 14986 24aa 71       		.byte	0x71
 14987 24ab 00       		.sleb128 0
 14988 24ac 31       		.byte	0x31
 14989 24ad 24       		.byte	0x24
 14990 24ae 75       		.byte	0x75
 14991 24af 00       		.sleb128 0
 14992 24b0 22       		.byte	0x22
 14993 24b1 94       		.byte	0x94
 14994 24b2 02       		.byte	0x2
 14995 24b3 0A       		.byte	0xa
 14996 24b4 FFFF     		.2byte	0xffff
 14997 24b6 1A       		.byte	0x1a
 14998 24b7 40       		.byte	0x40
 14999 24b8 24       		.byte	0x24
 15000 24b9 71       		.byte	0x71
 15001 24ba 00       		.sleb128 0
 15002 24bb 31       		.byte	0x31
 15003 24bc 24       		.byte	0x24
 15004 24bd 75       		.byte	0x75
 15005 24be 00       		.sleb128 0
 15006 24bf 22       		.byte	0x22
 15007 24c0 94       		.byte	0x94
 15008 24c1 02       		.byte	0x2
 15009 24c2 0A       		.byte	0xa
 15010 24c3 FFFF     		.2byte	0xffff
 15011 24c5 1A       		.byte	0x1a
 15012 24c6 21       		.byte	0x21
 15013 24c7 73       		.byte	0x73
 15014 24c8 00       		.sleb128 0
 15015 24c9 1A       		.byte	0x1a
 15016 24ca 9F       		.byte	0x9f
 15017 24cb 6A030000 		.4byte	.LVL479
 15018 24cf 6E030000 		.4byte	.LVL480
 15019 24d3 2400     		.2byte	0x24
 15020 24d5 71       		.byte	0x71
 15021 24d6 00       		.sleb128 0
 15022 24d7 31       		.byte	0x31
 15023 24d8 24       		.byte	0x24
 15024 24d9 75       		.byte	0x75
ARM GAS  C:\Users\haske\AppData\Local\Temp\cc7ZkKza.s 			page 301


 15025 24da 00       		.sleb128 0
 15026 24db 22       		.byte	0x22
 15027 24dc 94       		.byte	0x94
 15028 24dd 02       		.byte	0x2
 15029 24de 0A       		.byte	0xa
 15030 24df FFFF     		.2byte	0xffff
 15031 24e1 1A       		.byte	0x1a
 15032 24e2 40       		.byte	0x40
 15033 24e3 24       		.byte	0x24
 15034 24e4 71       		.byte	0x71
 15035 24e5 00       		.sleb128 0
 15036 24e6 31       		.byte	0x31
 15037 24e7 24       		.byte	0x24
 15038 24e8 75       		.byte	0x75
 15039 24e9 00       		.sleb128 0
 15040 24ea 22       		.byte	0x22
 15041 24eb 94       		.byte	0x94
 15042 24ec 02       		.byte	0x2
 15043 24ed 0A       		.byte	0xa
 15044 24ee FFFF     		.2byte	0xffff
 15045 24f0 1A       		.byte	0x1a
 15046 24f1 21       		.byte	0x21
 15047 24f2 0C       		.byte	0xc
 15048 24f3 1FF8E007 		.4byte	0x7e0f81f
 15049 24f7 1A       		.byte	0x1a
 15050 24f8 9F       		.byte	0x9f
 15051 24f9 00000000 		.4byte	0
 15052 24fd 00000000 		.4byte	0
 15053              	.LLST198:
 15054 2501 56030000 		.4byte	.LVL475
 15055 2505 5A030000 		.4byte	.LVL476
 15056 2509 0100     		.2byte	0x1
 15057 250b 50       		.byte	0x50
 15058 250c 5A030000 		.4byte	.LVL476
 15059 2510 6A030000 		.4byte	.LVL479
 15060 2514 2100     		.2byte	0x21
 15061 2516 71       		.byte	0x71
 15062 2517 00       		.sleb128 0
 15063 2518 31       		.byte	0x31
 15064 2519 24       		.byte	0x24
 15065 251a 76       		.byte	0x76
 15066 251b 00       		.sleb128 0
 15067 251c 22       		.byte	0x22
 15068 251d 94       		.byte	0x94
 15069 251e 02       		.byte	0x2
 15070 251f 0A       		.byte	0xa
 15071 2520 FFFF     		.2byte	0xffff
 15072 2522 1A       		.byte	0x1a
 15073 2523 40       		.byte	0x40
 15074 2524 24       		.byte	0x24
 15075 2525 71       		.byte	0x71
 15076 2526 00       		.sleb128 0
 15077 2527 31       		.byte	0x31
 15078 2528 24       		.byte	0x24
 15079 2529 76       		.byte	0x76
 15080 252a 00       		.sleb128 0
 15081 252b 22       		.byte	0x22
ARM GAS  C:\Users\haske\AppData\Local\Temp\cc7ZkKza.s 			page 302


 15082 252c 94       		.byte	0x94
 15083 252d 02       		.byte	0x2
 15084 252e 0A       		.byte	0xa
 15085 252f FFFF     		.2byte	0xffff
 15086 2531 1A       		.byte	0x1a
 15087 2532 21       		.byte	0x21
 15088 2533 73       		.byte	0x73
 15089 2534 00       		.sleb128 0
 15090 2535 1A       		.byte	0x1a
 15091 2536 9F       		.byte	0x9f
 15092 2537 6A030000 		.4byte	.LVL479
 15093 253b 6E030000 		.4byte	.LVL480
 15094 253f 2400     		.2byte	0x24
 15095 2541 71       		.byte	0x71
 15096 2542 00       		.sleb128 0
 15097 2543 31       		.byte	0x31
 15098 2544 24       		.byte	0x24
 15099 2545 76       		.byte	0x76
 15100 2546 00       		.sleb128 0
 15101 2547 22       		.byte	0x22
 15102 2548 94       		.byte	0x94
 15103 2549 02       		.byte	0x2
 15104 254a 0A       		.byte	0xa
 15105 254b FFFF     		.2byte	0xffff
 15106 254d 1A       		.byte	0x1a
 15107 254e 40       		.byte	0x40
 15108 254f 24       		.byte	0x24
 15109 2550 71       		.byte	0x71
 15110 2551 00       		.sleb128 0
 15111 2552 31       		.byte	0x31
 15112 2553 24       		.byte	0x24
 15113 2554 76       		.byte	0x76
 15114 2555 00       		.sleb128 0
 15115 2556 22       		.byte	0x22
 15116 2557 94       		.byte	0x94
 15117 2558 02       		.byte	0x2
 15118 2559 0A       		.byte	0xa
 15119 255a FFFF     		.2byte	0xffff
 15120 255c 1A       		.byte	0x1a
 15121 255d 21       		.byte	0x21
 15122 255e 0C       		.byte	0xc
 15123 255f 1FF8E007 		.4byte	0x7e0f81f
 15124 2563 1A       		.byte	0x1a
 15125 2564 9F       		.byte	0x9f
 15126 2565 00000000 		.4byte	0
 15127 2569 00000000 		.4byte	0
 15128              	.LLST199:
 15129 256d 6A030000 		.4byte	.LVL479
 15130 2571 6E030000 		.4byte	.LVL480
 15131 2575 0100     		.2byte	0x1
 15132 2577 53       		.byte	0x53
 15133 2578 00000000 		.4byte	0
 15134 257c 00000000 		.4byte	0
 15135              	.LLST200:
 15136 2580 00000000 		.4byte	.LVL493
 15137 2584 14000000 		.4byte	.LVL495
 15138 2588 0100     		.2byte	0x1
ARM GAS  C:\Users\haske\AppData\Local\Temp\cc7ZkKza.s 			page 303


 15139 258a 50       		.byte	0x50
 15140 258b 14000000 		.4byte	.LVL495
 15141 258f 2E000000 		.4byte	.LVL499
 15142 2593 0100     		.2byte	0x1
 15143 2595 55       		.byte	0x55
 15144 2596 2E000000 		.4byte	.LVL499
 15145 259a 30000000 		.4byte	.LFE159
 15146 259e 0100     		.2byte	0x1
 15147 25a0 50       		.byte	0x50
 15148 25a1 00000000 		.4byte	0
 15149 25a5 00000000 		.4byte	0
 15150              	.LLST201:
 15151 25a9 00000000 		.4byte	.LVL493
 15152 25ad 12000000 		.4byte	.LVL494
 15153 25b1 0100     		.2byte	0x1
 15154 25b3 51       		.byte	0x51
 15155 25b4 12000000 		.4byte	.LVL494
 15156 25b8 2E000000 		.4byte	.LVL499
 15157 25bc 0100     		.2byte	0x1
 15158 25be 54       		.byte	0x54
 15159 25bf 2E000000 		.4byte	.LVL499
 15160 25c3 30000000 		.4byte	.LFE159
 15161 25c7 0100     		.2byte	0x1
 15162 25c9 51       		.byte	0x51
 15163 25ca 00000000 		.4byte	0
 15164 25ce 00000000 		.4byte	0
 15165              	.LLST202:
 15166 25d2 00000000 		.4byte	.LVL500
 15167 25d6 34000000 		.4byte	.LVL505
 15168 25da 0100     		.2byte	0x1
 15169 25dc 50       		.byte	0x50
 15170 25dd 34000000 		.4byte	.LVL505
 15171 25e1 12020000 		.4byte	.LVL535
 15172 25e5 0100     		.2byte	0x1
 15173 25e7 56       		.byte	0x56
 15174 25e8 12020000 		.4byte	.LVL535
 15175 25ec 18020000 		.4byte	.LFE160
 15176 25f0 0400     		.2byte	0x4
 15177 25f2 F3       		.byte	0xf3
 15178 25f3 01       		.uleb128 0x1
 15179 25f4 50       		.byte	0x50
 15180 25f5 9F       		.byte	0x9f
 15181 25f6 00000000 		.4byte	0
 15182 25fa 00000000 		.4byte	0
 15183              	.LLST203:
 15184 25fe 00000000 		.4byte	.LVL500
 15185 2602 32000000 		.4byte	.LVL504
 15186 2606 0100     		.2byte	0x1
 15187 2608 51       		.byte	0x51
 15188 2609 32000000 		.4byte	.LVL504
 15189 260d 12020000 		.4byte	.LVL535
 15190 2611 0100     		.2byte	0x1
 15191 2613 54       		.byte	0x54
 15192 2614 12020000 		.4byte	.LVL535
 15193 2618 18020000 		.4byte	.LFE160
 15194 261c 0400     		.2byte	0x4
 15195 261e F3       		.byte	0xf3
ARM GAS  C:\Users\haske\AppData\Local\Temp\cc7ZkKza.s 			page 304


 15196 261f 01       		.uleb128 0x1
 15197 2620 51       		.byte	0x51
 15198 2621 9F       		.byte	0x9f
 15199 2622 00000000 		.4byte	0
 15200 2626 00000000 		.4byte	0
 15201              	.LLST204:
 15202 262a 1E000000 		.4byte	.LVL501
 15203 262e 12020000 		.4byte	.LVL535
 15204 2632 0100     		.2byte	0x1
 15205 2634 57       		.byte	0x57
 15206 2635 00000000 		.4byte	0
 15207 2639 00000000 		.4byte	0
 15208              	.LLST205:
 15209 263d 44000000 		.4byte	.LVL508
 15210 2641 5C000000 		.4byte	.LVL511
 15211 2645 0100     		.2byte	0x1
 15212 2647 50       		.byte	0x50
 15213 2648 5C000000 		.4byte	.LVL511
 15214 264c 7A000000 		.4byte	.LVL513
 15215 2650 0100     		.2byte	0x1
 15216 2652 5B       		.byte	0x5b
 15217 2653 7A000000 		.4byte	.LVL513
 15218 2657 90000000 		.4byte	.LVL514
 15219 265b 0100     		.2byte	0x1
 15220 265d 50       		.byte	0x50
 15221 265e 90000000 		.4byte	.LVL514
 15222 2662 12020000 		.4byte	.LVL535
 15223 2666 0100     		.2byte	0x1
 15224 2668 5B       		.byte	0x5b
 15225 2669 00000000 		.4byte	0
 15226 266d 00000000 		.4byte	0
 15227              	.LLST206:
 15228 2671 48000000 		.4byte	.LVL509
 15229 2675 4C000000 		.4byte	.LVL510
 15230 2679 0100     		.2byte	0x1
 15231 267b 53       		.byte	0x53
 15232 267c 4C000000 		.4byte	.LVL510
 15233 2680 78000000 		.4byte	.LVL512
 15234 2684 0200     		.2byte	0x2
 15235 2686 76       		.byte	0x76
 15236 2687 00       		.sleb128 0
 15237 2688 78000000 		.4byte	.LVL512
 15238 268c 7A000000 		.4byte	.LVL513
 15239 2690 0100     		.2byte	0x1
 15240 2692 53       		.byte	0x53
 15241 2693 7A000000 		.4byte	.LVL513
 15242 2697 A6000000 		.4byte	.LVL515
 15243 269b 0200     		.2byte	0x2
 15244 269d 76       		.byte	0x76
 15245 269e 00       		.sleb128 0
 15246 269f A6000000 		.4byte	.LVL515
 15247 26a3 12020000 		.4byte	.LVL535
 15248 26a7 0200     		.2byte	0x2
 15249 26a9 91       		.byte	0x91
 15250 26aa 4C       		.sleb128 -52
 15251 26ab 00000000 		.4byte	0
 15252 26af 00000000 		.4byte	0
ARM GAS  C:\Users\haske\AppData\Local\Temp\cc7ZkKza.s 			page 305


 15253              	.LLST207:
 15254 26b3 AA000000 		.4byte	.LVL516
 15255 26b7 12020000 		.4byte	.LVL535
 15256 26bb 0100     		.2byte	0x1
 15257 26bd 5A       		.byte	0x5a
 15258 26be 00000000 		.4byte	0
 15259 26c2 00000000 		.4byte	0
 15260              	.LLST208:
 15261 26c6 E4000000 		.4byte	.LVL520
 15262 26ca 12020000 		.4byte	.LVL535
 15263 26ce 0100     		.2byte	0x1
 15264 26d0 59       		.byte	0x59
 15265 26d1 00000000 		.4byte	0
 15266 26d5 00000000 		.4byte	0
 15267              	.LLST209:
 15268 26d9 44010000 		.4byte	.LVL528
 15269 26dd 12020000 		.4byte	.LVL535
 15270 26e1 0100     		.2byte	0x1
 15271 26e3 58       		.byte	0x58
 15272 26e4 00000000 		.4byte	0
 15273 26e8 00000000 		.4byte	0
 15274              	.LLST210:
 15275 26ec 20000000 		.4byte	.LVL502
 15276 26f0 2E000000 		.4byte	.LVL503
 15277 26f4 0100     		.2byte	0x1
 15278 26f6 52       		.byte	0x52
 15279 26f7 00000000 		.4byte	0
 15280 26fb 00000000 		.4byte	0
 15281              	.LLST211:
 15282 26ff 7A000000 		.4byte	.LVL513
 15283 2703 90000000 		.4byte	.LVL514
 15284 2707 0200     		.2byte	0x2
 15285 2709 91       		.byte	0x91
 15286 270a 4C       		.sleb128 -52
 15287 270b 90000000 		.4byte	.LVL514
 15288 270f A6000000 		.4byte	.LVL515
 15289 2713 0700     		.2byte	0x7
 15290 2715 91       		.byte	0x91
 15291 2716 4C       		.sleb128 -52
 15292 2717 06       		.byte	0x6
 15293 2718 70       		.byte	0x70
 15294 2719 00       		.sleb128 0
 15295 271a 22       		.byte	0x22
 15296 271b 9F       		.byte	0x9f
 15297 271c 00000000 		.4byte	0
 15298 2720 00000000 		.4byte	0
 15299              	.LLST212:
 15300 2724 B2000000 		.4byte	.LVL517
 15301 2728 C6000000 		.4byte	.LVL518
 15302 272c 0100     		.2byte	0x1
 15303 272e 53       		.byte	0x53
 15304 272f 00000000 		.4byte	0
 15305 2733 00000000 		.4byte	0
 15306              	.LLST213:
 15307 2737 F8000000 		.4byte	.LVL521
 15308 273b 12010000 		.4byte	.LVL524
 15309 273f 0100     		.2byte	0x1
ARM GAS  C:\Users\haske\AppData\Local\Temp\cc7ZkKza.s 			page 306


 15310 2741 50       		.byte	0x50
 15311 2742 00000000 		.4byte	0
 15312 2746 00000000 		.4byte	0
 15313              	.LLST214:
 15314 274a F8000000 		.4byte	.LVL521
 15315 274e FC000000 		.4byte	.LVL522
 15316 2752 0200     		.2byte	0x2
 15317 2754 30       		.byte	0x30
 15318 2755 9F       		.byte	0x9f
 15319 2756 FC000000 		.4byte	.LVL522
 15320 275a 12010000 		.4byte	.LVL524
 15321 275e 0100     		.2byte	0x1
 15322 2760 53       		.byte	0x53
 15323 2761 00000000 		.4byte	0
 15324 2765 00000000 		.4byte	0
 15325              	.LLST215:
 15326 2769 14010000 		.4byte	.LVL525
 15327 276d 28010000 		.4byte	.LVL526
 15328 2771 0100     		.2byte	0x1
 15329 2773 53       		.byte	0x53
 15330 2774 00000000 		.4byte	0
 15331 2778 00000000 		.4byte	0
 15332              		.section	.debug_aranges,"",%progbits
 15333 0000 6C000000 		.4byte	0x6c
 15334 0004 0200     		.2byte	0x2
 15335 0006 00000000 		.4byte	.Ldebug_info0
 15336 000a 04       		.byte	0x4
 15337 000b 00       		.byte	0
 15338 000c 0000     		.2byte	0
 15339 000e 0000     		.2byte	0
 15340 0010 00000000 		.4byte	.LFB163
 15341 0014 4C010000 		.4byte	.LFE163-.LFB163
 15342 0018 00000000 		.4byte	.LFB166
 15343 001c A4010000 		.4byte	.LFE166-.LFB166
 15344 0020 00000000 		.4byte	.LFB167
 15345 0024 80000000 		.4byte	.LFE167-.LFB167
 15346 0028 00000000 		.4byte	.LFB168
 15347 002c 7C000000 		.4byte	.LFE168-.LFB168
 15348 0030 00000000 		.4byte	.LFB169
 15349 0034 7C000000 		.4byte	.LFE169-.LFB169
 15350 0038 00000000 		.4byte	.LFB161
 15351 003c E2000000 		.4byte	.LFE161-.LFB161
 15352 0040 00000000 		.4byte	.LFB164
 15353 0044 FE000000 		.4byte	.LFE164-.LFB164
 15354 0048 00000000 		.4byte	.LFB162
 15355 004c EC030000 		.4byte	.LFE162-.LFB162
 15356 0050 00000000 		.4byte	.LFB165
 15357 0054 A8030000 		.4byte	.LFE165-.LFB165
 15358 0058 00000000 		.4byte	.LFB159
 15359 005c 30000000 		.4byte	.LFE159-.LFB159
 15360 0060 00000000 		.4byte	.LFB160
 15361 0064 18020000 		.4byte	.LFE160-.LFB160
 15362 0068 00000000 		.4byte	0
 15363 006c 00000000 		.4byte	0
 15364              		.section	.debug_ranges,"",%progbits
 15365              	.Ldebug_ranges0:
 15366 0000 E0000000 		.4byte	.LBB164
ARM GAS  C:\Users\haske\AppData\Local\Temp\cc7ZkKza.s 			page 307


 15367 0004 28010000 		.4byte	.LBE164
 15368 0008 2E010000 		.4byte	.LBB177
 15369 000c 18030000 		.4byte	.LBE177
 15370 0010 00000000 		.4byte	0
 15371 0014 00000000 		.4byte	0
 15372 0018 00000000 		.4byte	.LFB163
 15373 001c 4C010000 		.4byte	.LFE163
 15374 0020 00000000 		.4byte	.LFB166
 15375 0024 A4010000 		.4byte	.LFE166
 15376 0028 00000000 		.4byte	.LFB167
 15377 002c 80000000 		.4byte	.LFE167
 15378 0030 00000000 		.4byte	.LFB168
 15379 0034 7C000000 		.4byte	.LFE168
 15380 0038 00000000 		.4byte	.LFB169
 15381 003c 7C000000 		.4byte	.LFE169
 15382 0040 00000000 		.4byte	.LFB161
 15383 0044 E2000000 		.4byte	.LFE161
 15384 0048 00000000 		.4byte	.LFB164
 15385 004c FE000000 		.4byte	.LFE164
 15386 0050 00000000 		.4byte	.LFB162
 15387 0054 EC030000 		.4byte	.LFE162
 15388 0058 00000000 		.4byte	.LFB165
 15389 005c A8030000 		.4byte	.LFE165
 15390 0060 00000000 		.4byte	.LFB159
 15391 0064 30000000 		.4byte	.LFE159
 15392 0068 00000000 		.4byte	.LFB160
 15393 006c 18020000 		.4byte	.LFE160
 15394 0070 00000000 		.4byte	0
 15395 0074 00000000 		.4byte	0
 15396              		.section	.debug_line,"",%progbits
 15397              	.Ldebug_line0:
 15398 0000 D70D0000 		.section	.debug_str,"MS",%progbits,1
 15398      02000C05 
 15398      00000201 
 15398      FB0E0D00 
 15398      01010101 
 15399              	.LASF190:
 15400 0000 70726F70 		.ascii	"prop_cnt\000"
 15400      5F636E74 
 15400      00
 15401              	.LASF16:
 15402 0009 696E7438 		.ascii	"int8_t\000"
 15402      5F7400
 15403              	.LASF161:
 15404 0010 4C565F53 		.ascii	"LV_STYLE_OPA\000"
 15404      54594C45 
 15404      5F4F5041 
 15404      00
 15405              	.LASF385:
 15406 001d 636F6C6F 		.ascii	"color_chroma_key\000"
 15406      725F6368 
 15406      726F6D61 
 15406      5F6B6579 
 15406      00
 15407              	.LASF193:
 15408 002e 4C565F44 		.ascii	"LV_DRAW_MASK_RES_FULL_COVER\000"
 15408      5241575F 
ARM GAS  C:\Users\haske\AppData\Local\Temp\cc7ZkKza.s 			page 308


 15408      4D41534B 
 15408      5F524553 
 15408      5F46554C 
 15409              	.LASF362:
 15410 004a 6C765F64 		.ascii	"lv_disp_draw_buf_t\000"
 15410      6973705F 
 15410      64726177 
 15410      5F627566 
 15410      5F7400
 15411              	.LASF25:
 15412 005d 73697A65 		.ascii	"size_t\000"
 15412      5F7400
 15413              	.LASF53:
 15414 0064 6164765F 		.ascii	"adv_w\000"
 15414      7700
 15415              	.LASF27:
 15416 006a 73697A65 		.ascii	"sizetype\000"
 15416      74797065 
 15416      00
 15417              	.LASF390:
 15418 0073 6C765F64 		.ascii	"lv_disp_t\000"
 15418      6973705F 
 15418      7400
 15419              	.LASF443:
 15420 007d 4C565F45 		.ascii	"LV_EVENT_DRAW_MAIN_BEGIN\000"
 15420      56454E54 
 15420      5F445241 
 15420      575F4D41 
 15420      494E5F42 
 15421              	.LASF145:
 15422 0096 4C565F53 		.ascii	"LV_STYLE_LINE_DASH_GAP\000"
 15422      54594C45 
 15422      5F4C494E 
 15422      455F4441 
 15422      53485F47 
 15423              	.LASF351:
 15424 00ad 7461696C 		.ascii	"tail\000"
 15424      00
 15425              	.LASF324:
 15426 00b2 6163745F 		.ascii	"act_scr\000"
 15426      73637200 
 15427              	.LASF329:
 15428 00ba 73637265 		.ascii	"screen_cnt\000"
 15428      656E5F63 
 15428      6E7400
 15429              	.LASF302:
 15430 00c5 64726177 		.ascii	"draw_bg\000"
 15430      5F626700 
 15431              	.LASF47:
 15432 00cd 6C765F6F 		.ascii	"lv_opa_t\000"
 15432      70615F74 
 15432      00
 15433              	.LASF152:
 15434 00d6 4C565F53 		.ascii	"LV_STYLE_ARC_OPA\000"
 15434      54594C45 
 15434      5F415243 
 15434      5F4F5041 
ARM GAS  C:\Users\haske\AppData\Local\Temp\cc7ZkKza.s 			page 309


 15434      00
 15435              	.LASF271:
 15436 00e7 7261775F 		.ascii	"raw_end\000"
 15436      656E6400 
 15437              	.LASF20:
 15438 00ef 696E7433 		.ascii	"int32_t\000"
 15438      325F7400 
 15439              	.LASF396:
 15440 00f7 6C765F73 		.ascii	"lv_scrollbar_mode_t\000"
 15440      63726F6C 
 15440      6C626172 
 15440      5F6D6F64 
 15440      655F7400 
 15441              	.LASF189:
 15442 010b 6861735F 		.ascii	"has_group\000"
 15442      67726F75 
 15442      7000
 15443              	.LASF452:
 15444 0115 4C565F45 		.ascii	"LV_EVENT_INSERT\000"
 15444      56454E54 
 15444      5F494E53 
 15444      45525400 
 15445              	.LASF49:
 15446 0125 6C765F70 		.ascii	"lv_point_t\000"
 15446      6F696E74 
 15446      5F7400
 15447              	.LASF220:
 15448 0130 72616469 		.ascii	"radius\000"
 15448      757300
 15449              	.LASF222:
 15450 0137 62675F63 		.ascii	"bg_color\000"
 15450      6F6C6F72 
 15450      00
 15451              	.LASF61:
 15452 0140 6C696E65 		.ascii	"line_height\000"
 15452      5F686569 
 15452      67687400 
 15453              	.LASF79:
 15454 014c 6C765F62 		.ascii	"lv_blend_mode_t\000"
 15454      6C656E64 
 15454      5F6D6F64 
 15454      655F7400 
 15455              	.LASF253:
 15456 015c 62696469 		.ascii	"bidi_dir\000"
 15456      5F646972 
 15456      00
 15457              	.LASF77:
 15458 0165 4C565F42 		.ascii	"LV_BLEND_MODE_MULTIPLY\000"
 15458      4C454E44 
 15458      5F4D4F44 
 15458      455F4D55 
 15458      4C544950 
 15459              	.LASF389:
 15460 017c 64726177 		.ascii	"draw_ctx_size\000"
 15460      5F637478 
 15460      5F73697A 
 15460      6500
ARM GAS  C:\Users\haske\AppData\Local\Temp\cc7ZkKza.s 			page 310


 15461              	.LASF533:
 15462 018a 6C765F6D 		.ascii	"lv_memcpy\000"
 15462      656D6370 
 15462      7900
 15463              	.LASF209:
 15464 0194 73706563 		.ascii	"spec_attr\000"
 15464      5F617474 
 15464      7200
 15465              	.LASF482:
 15466 019e 7363726F 		.ascii	"scroll_snap_x\000"
 15466      6C6C5F73 
 15466      6E61705F 
 15466      7800
 15467              	.LASF76:
 15468 01ac 4C565F42 		.ascii	"LV_BLEND_MODE_SUBTRACTIVE\000"
 15468      4C454E44 
 15468      5F4D4F44 
 15468      455F5355 
 15468      42545241 
 15469              	.LASF457:
 15470 01c6 4C565F45 		.ascii	"LV_EVENT_CHILD_CHANGED\000"
 15470      56454E54 
 15470      5F434849 
 15470      4C445F43 
 15470      48414E47 
 15471              	.LASF213:
 15472 01dd 73746174 		.ascii	"state\000"
 15472      6500
 15473              	.LASF96:
 15474 01e3 4C565F53 		.ascii	"LV_STYLE_HEIGHT\000"
 15474      54594C45 
 15474      5F484549 
 15474      47485400 
 15475              	.LASF316:
 15476 01f3 72657065 		.ascii	"repeat_count\000"
 15476      61745F63 
 15476      6F756E74 
 15476      00
 15477              	.LASF259:
 15478 0200 7A6F6F6D 		.ascii	"zoom\000"
 15478      00
 15479              	.LASF196:
 15480 0205 6C765F64 		.ascii	"lv_draw_mask_res_t\000"
 15480      7261775F 
 15480      6D61736B 
 15480      5F726573 
 15480      5F7400
 15481              	.LASF400:
 15482 0218 69735F6C 		.ascii	"is_local\000"
 15482      6F63616C 
 15482      00
 15483              	.LASF294:
 15484 0221 64726177 		.ascii	"draw_rect\000"
 15484      5F726563 
 15484      7400
 15485              	.LASF312:
 15486 022b 5F6C765F 		.ascii	"_lv_timer_t\000"
ARM GAS  C:\Users\haske\AppData\Local\Temp\cc7ZkKza.s 			page 311


 15486      74696D65 
 15486      725F7400 
 15487              	.LASF203:
 15488 0237 6C765F64 		.ascii	"lv_draw_sw_blend_dsc_t\000"
 15488      7261775F 
 15488      73775F62 
 15488      6C656E64 
 15488      5F647363 
 15489              	.LASF116:
 15490 024e 4C565F53 		.ascii	"LV_STYLE_BG_MAIN_STOP\000"
 15490      54594C45 
 15490      5F42475F 
 15490      4D41494E 
 15490      5F53544F 
 15491              	.LASF527:
 15492 0264 6C765F64 		.ascii	"lv_draw_sw_blend\000"
 15492      7261775F 
 15492      73775F62 
 15492      6C656E64 
 15492      00
 15493              	.LASF293:
 15494 0275 696E6974 		.ascii	"init_buf\000"
 15494      5F627566 
 15494      00
 15495              	.LASF405:
 15496 027e 636F6E73 		.ascii	"constructor_cb\000"
 15496      74727563 
 15496      746F725F 
 15496      636200
 15497              	.LASF276:
 15498 028d 726F756E 		.ascii	"rounded\000"
 15498      64656400 
 15499              	.LASF177:
 15500 0295 5F4C565F 		.ascii	"_LV_STYLE_LAST_BUILT_IN_PROP\000"
 15500      5354594C 
 15500      455F4C41 
 15500      53545F42 
 15500      55494C54 
 15501              	.LASF292:
 15502 02b2 5F6C765F 		.ascii	"_lv_draw_ctx_t\000"
 15502      64726177 
 15502      5F637478 
 15502      5F7400
 15503              	.LASF435:
 15504 02c1 4C565F45 		.ascii	"LV_EVENT_GESTURE\000"
 15504      56454E54 
 15504      5F474553 
 15504      54555245 
 15504      00
 15505              	.LASF428:
 15506 02d2 4C565F45 		.ascii	"LV_EVENT_LONG_PRESSED\000"
 15506      56454E54 
 15506      5F4C4F4E 
 15506      475F5052 
 15506      45535345 
 15507              	.LASF511:
 15508 02e8 6C617374 		.ascii	"last_src_color\000"
ARM GAS  C:\Users\haske\AppData\Local\Temp\cc7ZkKza.s 			page 312


 15508      5F737263 
 15508      5F636F6C 
 15508      6F7200
 15509              	.LASF510:
 15510 02f7 7372635F 		.ascii	"src_stride\000"
 15510      73747269 
 15510      646500
 15511              	.LASF224:
 15512 0302 62675F69 		.ascii	"bg_img_src\000"
 15512      6D675F73 
 15512      726300
 15513              	.LASF127:
 15514 030d 4C565F53 		.ascii	"LV_STYLE_BORDER_WIDTH\000"
 15514      54594C45 
 15514      5F424F52 
 15514      4445525F 
 15514      57494454 
 15515              	.LASF458:
 15516 0323 4C565F45 		.ascii	"LV_EVENT_CHILD_CREATED\000"
 15516      56454E54 
 15516      5F434849 
 15516      4C445F43 
 15516      52454154 
 15517              	.LASF524:
 15518 033a 6D61736B 		.ascii	"mask32\000"
 15518      333200
 15519              	.LASF109:
 15520 0341 4C565F53 		.ascii	"LV_STYLE_PAD_COLUMN\000"
 15520      54594C45 
 15520      5F504144 
 15520      5F434F4C 
 15520      554D4E00 
 15521              	.LASF474:
 15522 0355 6368696C 		.ascii	"children\000"
 15522      6472656E 
 15522      00
 15523              	.LASF427:
 15524 035e 4C565F45 		.ascii	"LV_EVENT_SHORT_CLICKED\000"
 15524      56454E54 
 15524      5F53484F 
 15524      52545F43 
 15524      4C49434B 
 15525              	.LASF119:
 15526 0375 4C565F53 		.ascii	"LV_STYLE_BG_DITHER_MODE\000"
 15526      54594C45 
 15526      5F42475F 
 15526      44495448 
 15526      45525F4D 
 15527              	.LASF234:
 15528 038d 626F7264 		.ascii	"border_side\000"
 15528      65725F73 
 15528      69646500 
 15529              	.LASF1:
 15530 0399 5F5F7569 		.ascii	"__uint8_t\000"
 15530      6E74385F 
 15530      7400
 15531              	.LASF219:
ARM GAS  C:\Users\haske\AppData\Local\Temp\cc7ZkKza.s 			page 313


 15532 03a3 775F6C61 		.ascii	"w_layout\000"
 15532      796F7574 
 15532      00
 15533              	.LASF202:
 15534 03ac 626C656E 		.ascii	"blend_mode\000"
 15534      645F6D6F 
 15534      646500
 15535              	.LASF103:
 15536 03b7 4C565F53 		.ascii	"LV_STYLE_RADIUS\000"
 15536      54594C45 
 15536      5F524144 
 15536      49555300 
 15537              	.LASF365:
 15538 03c7 7665725F 		.ascii	"ver_res\000"
 15538      72657300 
 15539              	.LASF215:
 15540 03cf 7363725F 		.ascii	"scr_layout_inv\000"
 15540      6C61796F 
 15540      75745F69 
 15540      6E7600
 15541              	.LASF95:
 15542 03de 4C565F53 		.ascii	"LV_STYLE_MAX_WIDTH\000"
 15542      54594C45 
 15542      5F4D4158 
 15542      5F574944 
 15542      544800
 15543              	.LASF323:
 15544 03f1 73637265 		.ascii	"screens\000"
 15544      656E7300 
 15545              	.LASF122:
 15546 03f9 4C565F53 		.ascii	"LV_STYLE_BG_IMG_RECOLOR\000"
 15546      54594C45 
 15546      5F42475F 
 15546      494D475F 
 15546      5245434F 
 15547              	.LASF139:
 15548 0411 4C565F53 		.ascii	"LV_STYLE_SHADOW_OPA\000"
 15548      54594C45 
 15548      5F534841 
 15548      444F575F 
 15548      4F504100 
 15549              	.LASF516:
 15550 0425 66696C6C 		.ascii	"fill_set_px\000"
 15550      5F736574 
 15550      5F707800 
 15551              	.LASF170:
 15552 0431 4C565F53 		.ascii	"LV_STYLE_TRANSFORM_HEIGHT\000"
 15552      54594C45 
 15552      5F545241 
 15552      4E53464F 
 15552      524D5F48 
 15553              	.LASF107:
 15554 044b 4C565F53 		.ascii	"LV_STYLE_PAD_RIGHT\000"
 15554      54594C45 
 15554      5F504144 
 15554      5F524947 
 15554      485400
ARM GAS  C:\Users\haske\AppData\Local\Temp\cc7ZkKza.s 			page 314


 15555              	.LASF423:
 15556 045e 4C565F45 		.ascii	"LV_EVENT_ALL\000"
 15556      56454E54 
 15556      5F414C4C 
 15556      00
 15557              	.LASF338:
 15558 046b 6C617374 		.ascii	"last_activity_time\000"
 15558      5F616374 
 15558      69766974 
 15558      795F7469 
 15558      6D6500
 15559              	.LASF9:
 15560 047e 6C6F6E67 		.ascii	"long int\000"
 15560      20696E74 
 15560      00
 15561              	.LASF167:
 15562 0487 4C565F53 		.ascii	"LV_STYLE_TRANSITION\000"
 15562      54594C45 
 15562      5F545241 
 15562      4E534954 
 15562      494F4E00 
 15563              	.LASF375:
 15564 049b 726F7461 		.ascii	"rotated\000"
 15564      74656400 
 15565              	.LASF484:
 15566 04a3 7363726F 		.ascii	"scroll_dir\000"
 15566      6C6C5F64 
 15566      697200
 15567              	.LASF411:
 15568 04ae 67726F75 		.ascii	"group_def\000"
 15568      705F6465 
 15568      6600
 15569              	.LASF388:
 15570 04b8 64726177 		.ascii	"draw_ctx_deinit\000"
 15570      5F637478 
 15570      5F646569 
 15570      6E697400 
 15571              	.LASF221:
 15572 04c8 62675F6F 		.ascii	"bg_opa\000"
 15572      706100
 15573              	.LASF321:
 15574 04cf 72656672 		.ascii	"refr_timer\000"
 15574      5F74696D 
 15574      657200
 15575              	.LASF257:
 15576 04da 6C765F64 		.ascii	"lv_draw_label_dsc_t\000"
 15576      7261775F 
 15576      6C616265 
 15576      6C5F6473 
 15576      635F7400 
 15577              	.LASF394:
 15578 04ee 6C765F73 		.ascii	"lv_state_t\000"
 15578      74617465 
 15578      5F7400
 15579              	.LASF250:
 15580 04f9 73656C5F 		.ascii	"sel_bg_color\000"
 15580      62675F63 
ARM GAS  C:\Users\haske\AppData\Local\Temp\cc7ZkKza.s 			page 315


 15580      6F6C6F72 
 15580      00
 15581              	.LASF509:
 15582 0506 6D61705F 		.ascii	"map_blended\000"
 15582      626C656E 
 15582      64656400 
 15583              	.LASF343:
 15584 0512 65646765 		.ascii	"edge_cb\000"
 15584      5F636200 
 15585              	.LASF335:
 15586 051a 696E765F 		.ascii	"inv_area_joined\000"
 15586      61726561 
 15586      5F6A6F69 
 15586      6E656400 
 15587              	.LASF124:
 15588 052a 4C565F53 		.ascii	"LV_STYLE_BG_IMG_TILED\000"
 15588      54594C45 
 15588      5F42475F 
 15588      494D475F 
 15588      54494C45 
 15589              	.LASF391:
 15590 0540 62617365 		.ascii	"base_draw\000"
 15590      5F647261 
 15590      7700
 15591              	.LASF520:
 15592 054a 66696C6C 		.ascii	"fill_normal\000"
 15592      5F6E6F72 
 15592      6D616C00 
 15593              	.LASF326:
 15594 0556 7363725F 		.ascii	"scr_to_load\000"
 15594      746F5F6C 
 15594      6F616400 
 15595              	.LASF492:
 15596 0562 61726561 		.ascii	"area_p\000"
 15596      5F7000
 15597              	.LASF350:
 15598 0569 68656164 		.ascii	"head\000"
 15598      00
 15599              	.LASF126:
 15600 056e 4C565F53 		.ascii	"LV_STYLE_BORDER_OPA\000"
 15600      54594C45 
 15600      5F424F52 
 15600      4445525F 
 15600      4F504100 
 15601              	.LASF450:
 15602 0582 4C565F45 		.ascii	"LV_EVENT_DRAW_PART_END\000"
 15602      56454E54 
 15602      5F445241 
 15602      575F5041 
 15602      52545F45 
 15603              	.LASF344:
 15604 0599 66726F7A 		.ascii	"frozen\000"
 15604      656E00
 15605              	.LASF304:
 15606 05a0 62756666 		.ascii	"buffer_copy\000"
 15606      65725F63 
 15606      6F707900 
ARM GAS  C:\Users\haske\AppData\Local\Temp\cc7ZkKza.s 			page 316


 15607              	.LASF515:
 15608 05ac 636F6C6F 		.ascii	"color_blend_true_color_multiply\000"
 15608      725F626C 
 15608      656E645F 
 15608      74727565 
 15608      5F636F6C 
 15609              	.LASF235:
 15610 05cc 6F75746C 		.ascii	"outline_color\000"
 15610      696E655F 
 15610      636F6C6F 
 15610      7200
 15611              	.LASF138:
 15612 05da 4C565F53 		.ascii	"LV_STYLE_SHADOW_COLOR\000"
 15612      54594C45 
 15612      5F534841 
 15612      444F575F 
 15612      434F4C4F 
 15613              	.LASF75:
 15614 05f0 4C565F42 		.ascii	"LV_BLEND_MODE_ADDITIVE\000"
 15614      4C454E44 
 15614      5F4D4F44 
 15614      455F4144 
 15614      44495449 
 15615              	.LASF523:
 15616 0607 785F656E 		.ascii	"x_end4\000"
 15616      643400
 15617              	.LASF217:
 15618 060e 7374796C 		.ascii	"style_cnt\000"
 15618      655F636E 
 15618      7400
 15619              	.LASF313:
 15620 0618 70657269 		.ascii	"period\000"
 15620      6F6400
 15621              	.LASF214:
 15622 061f 6C61796F 		.ascii	"layout_inv\000"
 15622      75745F69 
 15622      6E7600
 15623              	.LASF399:
 15624 062a 73656C65 		.ascii	"selector\000"
 15624      63746F72 
 15624      00
 15625              	.LASF2:
 15626 0633 7369676E 		.ascii	"signed char\000"
 15626      65642063 
 15626      68617200 
 15627              	.LASF17:
 15628 063f 75696E74 		.ascii	"uint8_t\000"
 15628      385F7400 
 15629              	.LASF299:
 15630 0647 64726177 		.ascii	"draw_line\000"
 15630      5F6C696E 
 15630      6500
 15631              	.LASF364:
 15632 0651 686F725F 		.ascii	"hor_res\000"
 15632      72657300 
 15633              	.LASF200:
 15634 0659 6D61736B 		.ascii	"mask_res\000"
ARM GAS  C:\Users\haske\AppData\Local\Temp\cc7ZkKza.s 			page 317


 15634      5F726573 
 15634      00
 15635              	.LASF229:
 15636 0662 62675F69 		.ascii	"bg_img_tiled\000"
 15636      6D675F74 
 15636      696C6564 
 15636      00
 15637              	.LASF115:
 15638 066f 4C565F53 		.ascii	"LV_STYLE_BG_GRAD_DIR\000"
 15638      54594C45 
 15638      5F42475F 
 15638      47524144 
 15638      5F444952 
 15639              	.LASF60:
 15640 0684 6765745F 		.ascii	"get_glyph_bitmap\000"
 15640      676C7970 
 15640      685F6269 
 15640      746D6170 
 15640      00
 15641              	.LASF274:
 15642 0695 656E645F 		.ascii	"end_angle\000"
 15642      616E676C 
 15642      6500
 15643              	.LASF42:
 15644 069f 626C7565 		.ascii	"blue\000"
 15644      00
 15645              	.LASF227:
 15646 06a4 62675F69 		.ascii	"bg_img_opa\000"
 15646      6D675F6F 
 15646      706100
 15647              	.LASF101:
 15648 06af 4C565F53 		.ascii	"LV_STYLE_ALIGN\000"
 15648      54594C45 
 15648      5F414C49 
 15648      474E00
 15649              	.LASF3:
 15650 06be 756E7369 		.ascii	"unsigned char\000"
 15650      676E6564 
 15650      20636861 
 15650      7200
 15651              	.LASF327:
 15652 06cc 746F705F 		.ascii	"top_layer\000"
 15652      6C617965 
 15652      7200
 15653              	.LASF467:
 15654 06d6 4C565F45 		.ascii	"LV_EVENT_GET_SELF_SIZE\000"
 15654      56454E54 
 15654      5F474554 
 15654      5F53454C 
 15654      465F5349 
 15655              	.LASF444:
 15656 06ed 4C565F45 		.ascii	"LV_EVENT_DRAW_MAIN\000"
 15656      56454E54 
 15656      5F445241 
 15656      575F4D41 
 15656      494E00
 15657              	.LASF272:
ARM GAS  C:\Users\haske\AppData\Local\Temp\cc7ZkKza.s 			page 318


 15658 0700 6C765F64 		.ascii	"lv_draw_line_dsc_t\000"
 15658      7261775F 
 15658      6C696E65 
 15658      5F647363 
 15658      5F7400
 15659              	.LASF175:
 15660 0713 4C565F53 		.ascii	"LV_STYLE_TRANSFORM_PIVOT_X\000"
 15660      54594C45 
 15660      5F545241 
 15660      4E53464F 
 15660      524D5F50 
 15661              	.LASF176:
 15662 072e 4C565F53 		.ascii	"LV_STYLE_TRANSFORM_PIVOT_Y\000"
 15662      54594C45 
 15662      5F545241 
 15662      4E53464F 
 15662      524D5F50 
 15663              	.LASF473:
 15664 0749 6C765F67 		.ascii	"lv_group_t\000"
 15664      726F7570 
 15664      5F7400
 15665              	.LASF489:
 15666 0754 5F6C765F 		.ascii	"_lv_obj_spec_attr_t\000"
 15666      6F626A5F 
 15666      73706563 
 15666      5F617474 
 15666      725F7400 
 15667              	.LASF141:
 15668 0768 4C565F53 		.ascii	"LV_STYLE_IMG_RECOLOR\000"
 15668      54594C45 
 15668      5F494D47 
 15668      5F524543 
 15668      4F4C4F52 
 15669              	.LASF287:
 15670 077d 61726561 		.ascii	"area_act\000"
 15670      5F616374 
 15670      00
 15671              	.LASF149:
 15672 0786 4C565F53 		.ascii	"LV_STYLE_ARC_WIDTH\000"
 15672      54594C45 
 15672      5F415243 
 15672      5F574944 
 15672      544800
 15673              	.LASF56:
 15674 0799 6F66735F 		.ascii	"ofs_x\000"
 15674      7800
 15675              	.LASF57:
 15676 079f 6F66735F 		.ascii	"ofs_y\000"
 15676      7900
 15677              	.LASF73:
 15678 07a5 6C765F62 		.ascii	"lv_base_dir_t\000"
 15678      6173655F 
 15678      6469725F 
 15678      7400
 15679              	.LASF332:
 15680 07b3 72656E64 		.ascii	"rendering_in_progress\000"
 15680      6572696E 
ARM GAS  C:\Users\haske\AppData\Local\Temp\cc7ZkKza.s 			page 319


 15680      675F696E 
 15680      5F70726F 
 15680      67726573 
 15681              	.LASF218:
 15682 07c9 685F6C61 		.ascii	"h_layout\000"
 15682      796F7574 
 15682      00
 15683              	.LASF359:
 15684 07d2 666C7573 		.ascii	"flushing_last\000"
 15684      68696E67 
 15684      5F6C6173 
 15684      7400
 15685              	.LASF69:
 15686 07e0 5F426F6F 		.ascii	"_Bool\000"
 15686      6C00
 15687              	.LASF481:
 15688 07e6 7363726F 		.ascii	"scrollbar_mode\000"
 15688      6C6C6261 
 15688      725F6D6F 
 15688      646500
 15689              	.LASF367:
 15690 07f5 70687973 		.ascii	"physical_ver_res\000"
 15690      6963616C 
 15690      5F766572 
 15690      5F726573 
 15690      00
 15691              	.LASF535:
 15692 0806 6C765F61 		.ascii	"lv_area_get_size\000"
 15692      7265615F 
 15692      6765745F 
 15692      73697A65 
 15692      00
 15693              	.LASF290:
 15694 0817 6F726967 		.ascii	"original\000"
 15694      696E616C 
 15694      00
 15695              	.LASF171:
 15696 0820 4C565F53 		.ascii	"LV_STYLE_TRANSLATE_X\000"
 15696      54594C45 
 15696      5F545241 
 15696      4E534C41 
 15696      54455F58 
 15697              	.LASF172:
 15698 0835 4C565F53 		.ascii	"LV_STYLE_TRANSLATE_Y\000"
 15698      54594C45 
 15698      5F545241 
 15698      4E534C41 
 15698      54455F59 
 15699              	.LASF123:
 15700 084a 4C565F53 		.ascii	"LV_STYLE_BG_IMG_RECOLOR_OPA\000"
 15700      54594C45 
 15700      5F42475F 
 15700      494D475F 
 15700      5245434F 
 15701              	.LASF498:
 15702 0866 64657374 		.ascii	"dest_buf\000"
 15702      5F627566 
ARM GAS  C:\Users\haske\AppData\Local\Temp\cc7ZkKza.s 			page 320


 15702      00
 15703              	.LASF420:
 15704 086f 73746F70 		.ascii	"stop_processing\000"
 15704      5F70726F 
 15704      63657373 
 15704      696E6700 
 15705              	.LASF183:
 15706 087f 76616C75 		.ascii	"value\000"
 15706      6500
 15707              	.LASF212:
 15708 0885 666C6167 		.ascii	"flags\000"
 15708      7300
 15709              	.LASF281:
 15710 088b 6C765F64 		.ascii	"lv_draw_layer_flags_t\000"
 15710      7261775F 
 15710      6C617965 
 15710      725F666C 
 15710      6167735F 
 15711              	.LASF28:
 15712 08a1 63686172 		.ascii	"char\000"
 15712      00
 15713              	.LASF265:
 15714 08a6 6C765F64 		.ascii	"lv_draw_img_dsc_t\000"
 15714      7261775F 
 15714      696D675F 
 15714      6473635F 
 15714      7400
 15715              	.LASF64:
 15716 08b8 756E6465 		.ascii	"underline_position\000"
 15716      726C696E 
 15716      655F706F 
 15716      73697469 
 15716      6F6E00
 15717              	.LASF309:
 15718 08cb 6C617965 		.ascii	"layer_instance_size\000"
 15718      725F696E 
 15718      7374616E 
 15718      63655F73 
 15718      697A6500 
 15719              	.LASF502:
 15720 08df 6D61736B 		.ascii	"mask_stride\000"
 15720      5F737472 
 15720      69646500 
 15721              	.LASF268:
 15722 08eb 64617368 		.ascii	"dash_gap\000"
 15722      5F676170 
 15722      00
 15723              	.LASF519:
 15724 08f4 6D61705F 		.ascii	"map_set_px\000"
 15724      7365745F 
 15724      707800
 15725              	.LASF301:
 15726 08ff 64726177 		.ascii	"draw_transform\000"
 15726      5F747261 
 15726      6E73666F 
 15726      726D00
 15727              	.LASF371:
ARM GAS  C:\Users\haske\AppData\Local\Temp\cc7ZkKza.s 			page 321


 15728 090e 64697265 		.ascii	"direct_mode\000"
 15728      63745F6D 
 15728      6F646500 
 15729              	.LASF441:
 15730 091a 4C565F45 		.ascii	"LV_EVENT_COVER_CHECK\000"
 15730      56454E54 
 15730      5F434F56 
 15730      45525F43 
 15730      4845434B 
 15731              	.LASF110:
 15732 092f 4C565F53 		.ascii	"LV_STYLE_BASE_DIR\000"
 15732      54594C45 
 15732      5F424153 
 15732      455F4449 
 15732      5200
 15733              	.LASF132:
 15734 0941 4C565F53 		.ascii	"LV_STYLE_OUTLINE_OPA\000"
 15734      54594C45 
 15734      5F4F5554 
 15734      4C494E45 
 15734      5F4F5041 
 15735              	.LASF88:
 15736 0956 73746F70 		.ascii	"stops_count\000"
 15736      735F636F 
 15736      756E7400 
 15737              	.LASF374:
 15738 0962 616E7469 		.ascii	"antialiasing\000"
 15738      616C6961 
 15738      73696E67 
 15738      00
 15739              	.LASF320:
 15740 096f 64726976 		.ascii	"driver\000"
 15740      657200
 15741              	.LASF6:
 15742 0976 5F5F7569 		.ascii	"__uint16_t\000"
 15742      6E743136 
 15742      5F7400
 15743              	.LASF440:
 15744 0981 4C565F45 		.ascii	"LV_EVENT_HIT_TEST\000"
 15744      56454E54 
 15744      5F484954 
 15744      5F544553 
 15744      5400
 15745              	.LASF517:
 15746 0993 6D61736B 		.ascii	"mask_stide\000"
 15746      5F737469 
 15746      646500
 15747              	.LASF237:
 15748 099e 6F75746C 		.ascii	"outline_pad\000"
 15748      696E655F 
 15748      70616400 
 15749              	.LASF310:
 15750 09aa 6C765F64 		.ascii	"lv_draw_ctx_t\000"
 15750      7261775F 
 15750      6374785F 
 15750      7400
 15751              	.LASF112:
ARM GAS  C:\Users\haske\AppData\Local\Temp\cc7ZkKza.s 			page 322


 15752 09b8 4C565F53 		.ascii	"LV_STYLE_BG_COLOR\000"
 15752      54594C45 
 15752      5F42475F 
 15752      434F4C4F 
 15752      5200
 15753              	.LASF142:
 15754 09ca 4C565F53 		.ascii	"LV_STYLE_IMG_RECOLOR_OPA\000"
 15754      54594C45 
 15754      5F494D47 
 15754      5F524543 
 15754      4F4C4F52 
 15755              	.LASF230:
 15756 09e3 626F7264 		.ascii	"border_color\000"
 15756      65725F63 
 15756      6F6C6F72 
 15756      00
 15757              	.LASF168:
 15758 09f0 4C565F53 		.ascii	"LV_STYLE_BLEND_MODE\000"
 15758      54594C45 
 15758      5F424C45 
 15758      4E445F4D 
 15758      4F444500 
 15759              	.LASF51:
 15760 0a04 6C765F64 		.ascii	"lv_dir_t\000"
 15760      69725F74 
 15760      00
 15761              	.LASF462:
 15762 0a0d 4C565F45 		.ascii	"LV_EVENT_SCREEN_LOADED\000"
 15762      56454E54 
 15762      5F534352 
 15762      45454E5F 
 15762      4C4F4144 
 15763              	.LASF182:
 15764 0a24 70726F70 		.ascii	"prop\000"
 15764      00
 15765              	.LASF187:
 15766 0a29 636F6E73 		.ascii	"const_props\000"
 15766      745F7072 
 15766      6F707300 
 15767              	.LASF402:
 15768 0a35 5F6C765F 		.ascii	"_lv_obj_style_t\000"
 15768      6F626A5F 
 15768      7374796C 
 15768      655F7400 
 15769              	.LASF393:
 15770 0a45 6C765F64 		.ascii	"lv_draw_sw_ctx_t\000"
 15770      7261775F 
 15770      73775F63 
 15770      74785F74 
 15770      00
 15771              	.LASF233:
 15772 0a56 626F7264 		.ascii	"border_post\000"
 15772      65725F70 
 15772      6F737400 
 15773              	.LASF477:
 15774 0a62 6576656E 		.ascii	"event_dsc\000"
 15774      745F6473 
ARM GAS  C:\Users\haske\AppData\Local\Temp\cc7ZkKza.s 			page 323


 15774      6300
 15775              	.LASF358:
 15776 0a6c 666C7573 		.ascii	"flushing\000"
 15776      68696E67 
 15776      00
 15777              	.LASF144:
 15778 0a75 4C565F53 		.ascii	"LV_STYLE_LINE_DASH_WIDTH\000"
 15778      54594C45 
 15778      5F4C494E 
 15778      455F4441 
 15778      53485F57 
 15779              	.LASF241:
 15780 0a8e 73686164 		.ascii	"shadow_ofs_x\000"
 15780      6F775F6F 
 15780      66735F78 
 15780      00
 15781              	.LASF169:
 15782 0a9b 4C565F53 		.ascii	"LV_STYLE_TRANSFORM_WIDTH\000"
 15782      54594C45 
 15782      5F545241 
 15782      4E53464F 
 15782      524D5F57 
 15783              	.LASF318:
 15784 0ab4 6C765F74 		.ascii	"lv_timer_t\000"
 15784      696D6572 
 15784      5F7400
 15785              	.LASF476:
 15786 0abf 67726F75 		.ascii	"group_p\000"
 15786      705F7000 
 15787              	.LASF181:
 15788 0ac7 6C765F73 		.ascii	"lv_style_prop_t\000"
 15788      74796C65 
 15788      5F70726F 
 15788      705F7400 
 15789              	.LASF269:
 15790 0ad7 726F756E 		.ascii	"round_start\000"
 15790      645F7374 
 15790      61727400 
 15791              	.LASF478:
 15792 0ae3 7363726F 		.ascii	"scroll\000"
 15792      6C6C00
 15793              	.LASF66:
 15794 0aea 66616C6C 		.ascii	"fallback\000"
 15794      6261636B 
 15794      00
 15795              	.LASF186:
 15796 0af3 76616C75 		.ascii	"values_and_props\000"
 15796      65735F61 
 15796      6E645F70 
 15796      726F7073 
 15796      00
 15797              	.LASF500:
 15798 0b04 64657374 		.ascii	"dest_stride\000"
 15798      5F737472 
 15798      69646500 
 15799              	.LASF373:
 15800 0b10 73775F72 		.ascii	"sw_rotate\000"
ARM GAS  C:\Users\haske\AppData\Local\Temp\cc7ZkKza.s 			page 324


 15800      6F746174 
 15800      6500
 15801              	.LASF486:
 15802 0b1a 6C617965 		.ascii	"layer_type\000"
 15802      725F7479 
 15802      706500
 15803              	.LASF166:
 15804 0b25 4C565F53 		.ascii	"LV_STYLE_ANIM_SPEED\000"
 15804      54594C45 
 15804      5F414E49 
 15804      4D5F5350 
 15804      45454400 
 15805              	.LASF50:
 15806 0b39 6C765F61 		.ascii	"lv_area_t\000"
 15806      7265615F 
 15806      7400
 15807              	.LASF305:
 15808 0b43 6C617965 		.ascii	"layer_init\000"
 15808      725F696E 
 15808      697400
 15809              	.LASF130:
 15810 0b4e 4C565F53 		.ascii	"LV_STYLE_OUTLINE_WIDTH\000"
 15810      54594C45 
 15810      5F4F5554 
 15810      4C494E45 
 15810      5F574944 
 15811              	.LASF480:
 15812 0b65 6578745F 		.ascii	"ext_draw_size\000"
 15812      64726177 
 15812      5F73697A 
 15812      6500
 15813              	.LASF472:
 15814 0b73 6C765F67 		.ascii	"lv_group_edge_cb_t\000"
 15814      726F7570 
 15814      5F656467 
 15814      655F6362 
 15814      5F7400
 15815              	.LASF430:
 15816 0b86 4C565F45 		.ascii	"LV_EVENT_CLICKED\000"
 15816      56454E54 
 15816      5F434C49 
 15816      434B4544 
 15816      00
 15817              	.LASF92:
 15818 0b97 4C565F53 		.ascii	"LV_STYLE_PROP_INV\000"
 15818      54594C45 
 15818      5F50524F 
 15818      505F494E 
 15818      5600
 15819              	.LASF158:
 15820 0ba9 4C565F53 		.ascii	"LV_STYLE_TEXT_LINE_SPACE\000"
 15820      54594C45 
 15820      5F544558 
 15820      545F4C49 
 15820      4E455F53 
 15821              	.LASF422:
 15822 0bc2 6C765F6F 		.ascii	"lv_obj_class_t\000"
ARM GAS  C:\Users\haske\AppData\Local\Temp\cc7ZkKza.s 			page 325


 15822      626A5F63 
 15822      6C617373 
 15822      5F7400
 15823              	.LASF184:
 15824 0bd1 6C765F73 		.ascii	"lv_style_const_prop_t\000"
 15824      74796C65 
 15824      5F636F6E 
 15824      73745F70 
 15824      726F705F 
 15825              	.LASF445:
 15826 0be7 4C565F45 		.ascii	"LV_EVENT_DRAW_MAIN_END\000"
 15826      56454E54 
 15826      5F445241 
 15826      575F4D41 
 15826      494E5F45 
 15827              	.LASF208:
 15828 0bfe 70617265 		.ascii	"parent\000"
 15828      6E7400
 15829              	.LASF372:
 15830 0c05 66756C6C 		.ascii	"full_refresh\000"
 15830      5F726566 
 15830      72657368 
 15830      00
 15831              	.LASF270:
 15832 0c12 726F756E 		.ascii	"round_end\000"
 15832      645F656E 
 15832      6400
 15833              	.LASF275:
 15834 0c1c 696D675F 		.ascii	"img_src\000"
 15834      73726300 
 15835              	.LASF401:
 15836 0c24 69735F74 		.ascii	"is_trans\000"
 15836      72616E73 
 15836      00
 15837              	.LASF243:
 15838 0c2d 73686164 		.ascii	"shadow_spread\000"
 15838      6F775F73 
 15838      70726561 
 15838      6400
 15839              	.LASF165:
 15840 0c3b 4C565F53 		.ascii	"LV_STYLE_ANIM_TIME\000"
 15840      54594C45 
 15840      5F414E49 
 15840      4D5F5449 
 15840      4D4500
 15841              	.LASF105:
 15842 0c4e 4C565F53 		.ascii	"LV_STYLE_PAD_BOTTOM\000"
 15842      54594C45 
 15842      5F504144 
 15842      5F424F54 
 15842      544F4D00 
 15843              	.LASF408:
 15844 0c62 77696474 		.ascii	"width_def\000"
 15844      685F6465 
 15844      6600
 15845              	.LASF379:
 15846 0c6c 636C6561 		.ascii	"clear_cb\000"
ARM GAS  C:\Users\haske\AppData\Local\Temp\cc7ZkKza.s 			page 326


 15846      725F6362 
 15846      00
 15847              	.LASF113:
 15848 0c75 4C565F53 		.ascii	"LV_STYLE_BG_OPA\000"
 15848      54594C45 
 15848      5F42475F 
 15848      4F504100 
 15849              	.LASF148:
 15850 0c85 4C565F53 		.ascii	"LV_STYLE_LINE_OPA\000"
 15850      54594C45 
 15850      5F4C494E 
 15850      455F4F50 
 15850      4100
 15851              	.LASF191:
 15852 0c97 6C765F73 		.ascii	"lv_style_t\000"
 15852      74796C65 
 15852      5F7400
 15853              	.LASF504:
 15854 0ca2 6C617374 		.ascii	"last_dest_color\000"
 15854      5F646573 
 15854      745F636F 
 15854      6C6F7200 
 15855              	.LASF210:
 15856 0cb2 7374796C 		.ascii	"styles\000"
 15856      657300
 15857              	.LASF475:
 15858 0cb9 6368696C 		.ascii	"child_cnt\000"
 15858      645F636E 
 15858      7400
 15859              	.LASF140:
 15860 0cc3 4C565F53 		.ascii	"LV_STYLE_IMG_OPA\000"
 15860      54594C45 
 15860      5F494D47 
 15860      5F4F5041 
 15860      00
 15861              	.LASF173:
 15862 0cd4 4C565F53 		.ascii	"LV_STYLE_TRANSFORM_ZOOM\000"
 15862      54594C45 
 15862      5F545241 
 15862      4E53464F 
 15862      524D5F5A 
 15863              	.LASF439:
 15864 0cec 4C565F45 		.ascii	"LV_EVENT_LEAVE\000"
 15864      56454E54 
 15864      5F4C4541 
 15864      564500
 15865              	.LASF11:
 15866 0cfb 6C6F6E67 		.ascii	"long unsigned int\000"
 15866      20756E73 
 15866      69676E65 
 15866      6420696E 
 15866      7400
 15867              	.LASF483:
 15868 0d0d 7363726F 		.ascii	"scroll_snap_y\000"
 15868      6C6C5F73 
 15868      6E61705F 
 15868      7900
ARM GAS  C:\Users\haske\AppData\Local\Temp\cc7ZkKza.s 			page 327


 15869              	.LASF204:
 15870 0d1b 6C765F69 		.ascii	"lv_img_cf_t\000"
 15870      6D675F63 
 15870      665F7400 
 15871              	.LASF155:
 15872 0d27 4C565F53 		.ascii	"LV_STYLE_TEXT_OPA\000"
 15872      54594C45 
 15872      5F544558 
 15872      545F4F50 
 15872      4100
 15873              	.LASF273:
 15874 0d39 73746172 		.ascii	"start_angle\000"
 15874      745F616E 
 15874      676C6500 
 15875              	.LASF417:
 15876 0d45 70617261 		.ascii	"param\000"
 15876      6D00
 15877              	.LASF414:
 15878 0d4b 74617267 		.ascii	"target\000"
 15878      657400
 15879              	.LASF330:
 15880 0d52 64726177 		.ascii	"draw_prev_over_act\000"
 15880      5F707265 
 15880      765F6F76 
 15880      65725F61 
 15880      637400
 15881              	.LASF308:
 15882 0d65 6C617965 		.ascii	"layer_destroy\000"
 15882      725F6465 
 15882      7374726F 
 15882      7900
 15883              	.LASF267:
 15884 0d73 64617368 		.ascii	"dash_width\000"
 15884      5F776964 
 15884      746800
 15885              	.LASF361:
 15886 0d7e 6C617374 		.ascii	"last_part\000"
 15886      5F706172 
 15886      7400
 15887              	.LASF410:
 15888 0d88 65646974 		.ascii	"editable\000"
 15888      61626C65 
 15888      00
 15889              	.LASF194:
 15890 0d91 4C565F44 		.ascii	"LV_DRAW_MASK_RES_CHANGED\000"
 15890      5241575F 
 15890      4D41534B 
 15890      5F524553 
 15890      5F434841 
 15891              	.LASF322:
 15892 0daa 7468656D 		.ascii	"theme\000"
 15892      6500
 15893              	.LASF368:
 15894 0db0 6F666673 		.ascii	"offset_x\000"
 15894      65745F78 
 15894      00
 15895              	.LASF369:
ARM GAS  C:\Users\haske\AppData\Local\Temp\cc7ZkKza.s 			page 328


 15896 0db9 6F666673 		.ascii	"offset_y\000"
 15896      65745F79 
 15896      00
 15897              	.LASF52:
 15898 0dc2 7265736F 		.ascii	"resolved_font\000"
 15898      6C766564 
 15898      5F666F6E 
 15898      7400
 15899              	.LASF340:
 15900 0dd0 6F626A5F 		.ascii	"obj_ll\000"
 15900      6C6C00
 15901              	.LASF295:
 15902 0dd7 64726177 		.ascii	"draw_arc\000"
 15902      5F617263 
 15902      00
 15903              	.LASF147:
 15904 0de0 4C565F53 		.ascii	"LV_STYLE_LINE_COLOR\000"
 15904      54594C45 
 15904      5F4C494E 
 15904      455F434F 
 15904      4C4F5200 
 15905              	.LASF537:
 15906 0df4 474E5520 		.ascii	"GNU C11 5.4.1 20160609 (release) [ARM/embedded-5-br"
 15906      43313120 
 15906      352E342E 
 15906      31203230 
 15906      31363036 
 15907 0e27 616E6368 		.ascii	"anch revision 237715] -mcpu=cortex-m4 -mfloat-abi=s"
 15907      20726576 
 15907      6973696F 
 15907      6E203233 
 15907      37373135 
 15908 0e5a 6F667466 		.ascii	"oftfp -mfpu=fpv4-sp-d16 -mthumb -g -Og -ffunction-s"
 15908      70202D6D 
 15908      6670753D 
 15908      66707634 
 15908      2D73702D 
 15909 0e8d 65637469 		.ascii	"ections -ffat-lto-objects\000"
 15909      6F6E7320 
 15909      2D666661 
 15909      742D6C74 
 15909      6F2D6F62 
 15910              	.LASF30:
 15911 0ea7 4C565F4F 		.ascii	"LV_OPA_0\000"
 15911      50415F30 
 15911      00
 15912              	.LASF108:
 15913 0eb0 4C565F53 		.ascii	"LV_STYLE_PAD_ROW\000"
 15913      54594C45 
 15913      5F504144 
 15913      5F524F57 
 15913      00
 15914              	.LASF353:
 15915 0ec1 5F6C765F 		.ascii	"_lv_disp_draw_buf_t\000"
 15915      64697370 
 15915      5F647261 
 15915      775F6275 
ARM GAS  C:\Users\haske\AppData\Local\Temp\cc7ZkKza.s 			page 329


 15915      665F7400 
 15916              	.LASF283:
 15917 0ed5 6275665F 		.ascii	"buf_area\000"
 15917      61726561 
 15917      00
 15918              	.LASF22:
 15919 0ede 75696E74 		.ascii	"uintptr_t\000"
 15919      7074725F 
 15919      7400
 15920              	.LASF261:
 15921 0ee8 7265636F 		.ascii	"recolor\000"
 15921      6C6F7200 
 15922              	.LASF453:
 15923 0ef0 4C565F45 		.ascii	"LV_EVENT_REFRESH\000"
 15923      56454E54 
 15923      5F524546 
 15923      52455348 
 15923      00
 15924              	.LASF412:
 15925 0f01 696E7374 		.ascii	"instance_size\000"
 15925      616E6365 
 15925      5F73697A 
 15925      6500
 15926              	.LASF258:
 15927 0f0f 616E676C 		.ascii	"angle\000"
 15927      6500
 15928              	.LASF106:
 15929 0f15 4C565F53 		.ascii	"LV_STYLE_PAD_LEFT\000"
 15929      54594C45 
 15929      5F504144 
 15929      5F4C4546 
 15929      5400
 15930              	.LASF387:
 15931 0f27 64726177 		.ascii	"draw_ctx_init\000"
 15931      5F637478 
 15931      5F696E69 
 15931      7400
 15932              	.LASF415:
 15933 0f35 63757272 		.ascii	"current_target\000"
 15933      656E745F 
 15933      74617267 
 15933      657400
 15934              	.LASF459:
 15935 0f44 4C565F45 		.ascii	"LV_EVENT_CHILD_DELETED\000"
 15935      56454E54 
 15935      5F434849 
 15935      4C445F44 
 15935      454C4554 
 15936              	.LASF442:
 15937 0f5b 4C565F45 		.ascii	"LV_EVENT_REFR_EXT_DRAW_SIZE\000"
 15937      56454E54 
 15937      5F524546 
 15937      525F4558 
 15937      545F4452 
 15938              	.LASF495:
 15939 0f77 72657375 		.ascii	"result\000"
 15939      6C7400
ARM GAS  C:\Users\haske\AppData\Local\Temp\cc7ZkKza.s 			page 330


 15940              	.LASF296:
 15941 0f7e 64726177 		.ascii	"draw_img_decoded\000"
 15941      5F696D67 
 15941      5F646563 
 15941      6F646564 
 15941      00
 15942              	.LASF311:
 15943 0f8f 6C765F74 		.ascii	"lv_timer_cb_t\000"
 15943      696D6572 
 15943      5F63625F 
 15943      7400
 15944              	.LASF164:
 15945 0f9d 4C565F53 		.ascii	"LV_STYLE_ANIM\000"
 15945      54594C45 
 15945      5F414E49 
 15945      4D00
 15946              	.LASF99:
 15947 0fab 4C565F53 		.ascii	"LV_STYLE_X\000"
 15947      54594C45 
 15947      5F5800
 15948              	.LASF160:
 15949 0fb6 4C565F53 		.ascii	"LV_STYLE_TEXT_ALIGN\000"
 15949      54594C45 
 15949      5F544558 
 15949      545F414C 
 15949      49474E00 
 15950              	.LASF494:
 15951 0fca 6C765F63 		.ascii	"lv_color_mix\000"
 15951      6F6C6F72 
 15951      5F6D6978 
 15951      00
 15952              	.LASF205:
 15953 0fd7 5F6C765F 		.ascii	"_lv_font_t\000"
 15953      666F6E74 
 15953      5F7400
 15954              	.LASF381:
 15955 0fe2 77616974 		.ascii	"wait_cb\000"
 15955      5F636200 
 15956              	.LASF10:
 15957 0fea 5F5F7569 		.ascii	"__uint32_t\000"
 15957      6E743332 
 15957      5F7400
 15958              	.LASF407:
 15959 0ff5 6576656E 		.ascii	"event_cb\000"
 15959      745F6362 
 15959      00
 15960              	.LASF470:
 15961 0ffe 6C765F65 		.ascii	"lv_event_code_t\000"
 15961      76656E74 
 15961      5F636F64 
 15961      655F7400 
 15962              	.LASF80:
 15963 100e 6C765F74 		.ascii	"lv_text_decor_t\000"
 15963      6578745F 
 15963      6465636F 
 15963      725F7400 
 15964              	.LASF413:
ARM GAS  C:\Users\haske\AppData\Local\Temp\cc7ZkKza.s 			page 331


 15965 101e 5F6C765F 		.ascii	"_lv_event_t\000"
 15965      6576656E 
 15965      745F7400 
 15966              	.LASF12:
 15967 102a 6C6F6E67 		.ascii	"long long int\000"
 15967      206C6F6E 
 15967      6720696E 
 15967      7400
 15968              	.LASF239:
 15969 1038 73686164 		.ascii	"shadow_color\000"
 15969      6F775F63 
 15969      6F6C6F72 
 15969      00
 15970              	.LASF419:
 15971 1045 64656C65 		.ascii	"deleted\000"
 15971      74656400 
 15972              	.LASF266:
 15973 104d 77696474 		.ascii	"width\000"
 15973      6800
 15974              	.LASF541:
 15975 1053 6C765F63 		.ascii	"lv_color_black\000"
 15975      6F6C6F72 
 15975      5F626C61 
 15975      636B00
 15976              	.LASF199:
 15977 1062 6D61736B 		.ascii	"mask_buf\000"
 15977      5F627566 
 15977      00
 15978              	.LASF536:
 15979 106b 6C765F61 		.ascii	"lv_area_move\000"
 15979      7265615F 
 15979      6D6F7665 
 15979      00
 15980              	.LASF354:
 15981 1078 62756631 		.ascii	"buf1\000"
 15981      00
 15982              	.LASF355:
 15983 107d 62756632 		.ascii	"buf2\000"
 15983      00
 15984              	.LASF174:
 15985 1082 4C565F53 		.ascii	"LV_STYLE_TRANSFORM_ANGLE\000"
 15985      54594C45 
 15985      5F545241 
 15985      4E53464F 
 15985      524D5F41 
 15986              	.LASF278:
 15987 109b 4C565F44 		.ascii	"LV_DRAW_LAYER_FLAG_NONE\000"
 15987      5241575F 
 15987      4C415945 
 15987      525F464C 
 15987      41475F4E 
 15988              	.LASF162:
 15989 10b3 4C565F53 		.ascii	"LV_STYLE_COLOR_FILTER_DSC\000"
 15989      54594C45 
 15989      5F434F4C 
 15989      4F525F46 
 15989      494C5445 
ARM GAS  C:\Users\haske\AppData\Local\Temp\cc7ZkKza.s 			page 332


 15990              	.LASF72:
 15991 10cd 6C765F74 		.ascii	"lv_text_align_t\000"
 15991      6578745F 
 15991      616C6967 
 15991      6E5F7400 
 15992              	.LASF501:
 15993 10dd 6D61736B 		.ascii	"mask\000"
 15993      00
 15994              	.LASF360:
 15995 10e2 6C617374 		.ascii	"last_area\000"
 15995      5F617265 
 15995      6100
 15996              	.LASF65:
 15997 10ec 756E6465 		.ascii	"underline_thickness\000"
 15997      726C696E 
 15997      655F7468 
 15997      69636B6E 
 15997      65737300 
 15998              	.LASF159:
 15999 1100 4C565F53 		.ascii	"LV_STYLE_TEXT_DECOR\000"
 15999      54594C45 
 15999      5F544558 
 15999      545F4445 
 15999      434F5200 
 16000              	.LASF432:
 16001 1114 4C565F45 		.ascii	"LV_EVENT_SCROLL_BEGIN\000"
 16001      56454E54 
 16001      5F534352 
 16001      4F4C4C5F 
 16001      42454749 
 16002              	.LASF254:
 16003 112a 616C6967 		.ascii	"align\000"
 16003      6E00
 16004              	.LASF29:
 16005 1130 4C565F4F 		.ascii	"LV_OPA_TRANSP\000"
 16005      50415F54 
 16005      52414E53 
 16005      5000
 16006              	.LASF150:
 16007 113e 4C565F53 		.ascii	"LV_STYLE_ARC_ROUNDED\000"
 16007      54594C45 
 16007      5F415243 
 16007      5F524F55 
 16007      4E444544 
 16008              	.LASF380:
 16009 1153 6D6F6E69 		.ascii	"monitor_cb\000"
 16009      746F725F 
 16009      636200
 16010              	.LASF216:
 16011 115e 736B6970 		.ascii	"skip_trans\000"
 16011      5F747261 
 16011      6E7300
 16012              	.LASF345:
 16013 1169 65646974 		.ascii	"editing\000"
 16013      696E6700 
 16014              	.LASF154:
 16015 1171 4C565F53 		.ascii	"LV_STYLE_TEXT_COLOR\000"
ARM GAS  C:\Users\haske\AppData\Local\Temp\cc7ZkKza.s 			page 333


 16015      54594C45 
 16015      5F544558 
 16015      545F434F 
 16015      4C4F5200 
 16016              	.LASF201:
 16017 1185 6D61736B 		.ascii	"mask_area\000"
 16017      5F617265 
 16017      6100
 16018              	.LASF456:
 16019 118f 4C565F45 		.ascii	"LV_EVENT_DELETE\000"
 16019      56454E54 
 16019      5F44454C 
 16019      45544500 
 16020              	.LASF207:
 16021 119f 636C6173 		.ascii	"class_p\000"
 16021      735F7000 
 16022              	.LASF446:
 16023 11a7 4C565F45 		.ascii	"LV_EVENT_DRAW_POST_BEGIN\000"
 16023      56454E54 
 16023      5F445241 
 16023      575F504F 
 16023      53545F42 
 16024              	.LASF15:
 16025 11c0 756E7369 		.ascii	"unsigned int\000"
 16025      676E6564 
 16025      20696E74 
 16025      00
 16026              	.LASF518:
 16027 11cd 64697370 		.ascii	"disp\000"
 16027      00
 16028              	.LASF317:
 16029 11d2 70617573 		.ascii	"paused\000"
 16029      656400
 16030              	.LASF282:
 16031 11d9 636C6970 		.ascii	"clip_area\000"
 16031      5F617265 
 16031      6100
 16032              	.LASF91:
 16033 11e3 6C765F73 		.ascii	"lv_style_value_t\000"
 16033      74796C65 
 16033      5F76616C 
 16033      75655F74 
 16033      00
 16034              	.LASF248:
 16035 11f4 73656C5F 		.ascii	"sel_end\000"
 16035      656E6400 
 16036              	.LASF180:
 16037 11fc 5F4C565F 		.ascii	"_LV_STYLE_PROP_CONST\000"
 16037      5354594C 
 16037      455F5052 
 16037      4F505F43 
 16037      4F4E5354 
 16038              	.LASF286:
 16039 1211 61726561 		.ascii	"area_full\000"
 16039      5F66756C 
 16039      6C00
 16040              	.LASF255:
ARM GAS  C:\Users\haske\AppData\Local\Temp\cc7ZkKza.s 			page 334


 16041 121b 666C6167 		.ascii	"flag\000"
 16041      00
 16042              	.LASF319:
 16043 1220 5F6C765F 		.ascii	"_lv_disp_t\000"
 16043      64697370 
 16043      5F7400
 16044              	.LASF451:
 16045 122b 4C565F45 		.ascii	"LV_EVENT_VALUE_CHANGED\000"
 16045      56454E54 
 16045      5F56414C 
 16045      55455F43 
 16045      48414E47 
 16046              	.LASF285:
 16047 1242 5F6C765F 		.ascii	"_lv_draw_layer_ctx_t\000"
 16047      64726177 
 16047      5F6C6179 
 16047      65725F63 
 16047      74785F74 
 16048              	.LASF238:
 16049 1257 6F75746C 		.ascii	"outline_opa\000"
 16049      696E655F 
 16049      6F706100 
 16050              	.LASF334:
 16051 1263 696E765F 		.ascii	"inv_areas\000"
 16051      61726561 
 16051      7300
 16052              	.LASF288:
 16053 126d 6D61785F 		.ascii	"max_row_with_alpha\000"
 16053      726F775F 
 16053      77697468 
 16053      5F616C70 
 16053      686100
 16054              	.LASF469:
 16055 1280 4C565F45 		.ascii	"LV_EVENT_PREPROCESS\000"
 16055      56454E54 
 16055      5F505245 
 16055      50524F43 
 16055      45535300 
 16056              	.LASF263:
 16057 1294 6672616D 		.ascii	"frame_id\000"
 16057      655F6964 
 16057      00
 16058              	.LASF262:
 16059 129d 7265636F 		.ascii	"recolor_opa\000"
 16059      6C6F725F 
 16059      6F706100 
 16060              	.LASF102:
 16061 12a9 4C565F53 		.ascii	"LV_STYLE_LAYOUT\000"
 16061      54594C45 
 16061      5F4C4159 
 16061      4F555400 
 16062              	.LASF68:
 16063 12b9 6C765F66 		.ascii	"lv_font_glyph_dsc_t\000"
 16063      6F6E745F 
 16063      676C7970 
 16063      685F6473 
 16063      635F7400 
ARM GAS  C:\Users\haske\AppData\Local\Temp\cc7ZkKza.s 			page 335


 16064              	.LASF461:
 16065 12cd 4C565F45 		.ascii	"LV_EVENT_SCREEN_LOAD_START\000"
 16065      56454E54 
 16065      5F534352 
 16065      45454E5F 
 16065      4C4F4144 
 16066              	.LASF421:
 16067 12e8 73746F70 		.ascii	"stop_bubbling\000"
 16067      5F627562 
 16067      626C696E 
 16067      6700
 16068              	.LASF236:
 16069 12f6 6F75746C 		.ascii	"outline_width\000"
 16069      696E655F 
 16069      77696474 
 16069      6800
 16070              	.LASF134:
 16071 1304 4C565F53 		.ascii	"LV_STYLE_SHADOW_WIDTH\000"
 16071      54594C45 
 16071      5F534841 
 16071      444F575F 
 16071      57494454 
 16072              	.LASF425:
 16073 131a 4C565F45 		.ascii	"LV_EVENT_PRESSING\000"
 16073      56454E54 
 16073      5F505245 
 16073      5353494E 
 16073      4700
 16074              	.LASF111:
 16075 132c 4C565F53 		.ascii	"LV_STYLE_CLIP_CORNER\000"
 16075      54594C45 
 16075      5F434C49 
 16075      505F434F 
 16075      524E4552 
 16076              	.LASF499:
 16077 1341 64657374 		.ascii	"dest_area\000"
 16077      5F617265 
 16077      6100
 16078              	.LASF264:
 16079 134b 616E7469 		.ascii	"antialias\000"
 16079      616C6961 
 16079      7300
 16080              	.LASF404:
 16081 1355 62617365 		.ascii	"base_class\000"
 16081      5F636C61 
 16081      737300
 16082              	.LASF40:
 16083 1360 4C565F4F 		.ascii	"LV_OPA_100\000"
 16083      50415F31 
 16083      303000
 16084              	.LASF429:
 16085 136b 4C565F45 		.ascii	"LV_EVENT_LONG_PRESSED_REPEAT\000"
 16085      56454E54 
 16085      5F4C4F4E 
 16085      475F5052 
 16085      45535345 
 16086              	.LASF508:
ARM GAS  C:\Users\haske\AppData\Local\Temp\cc7ZkKza.s 			page 336


 16087 1388 66696C6C 		.ascii	"fill_blended\000"
 16087      5F626C65 
 16087      6E646564 
 16087      00
 16088              	.LASF342:
 16089 1395 666F6375 		.ascii	"focus_cb\000"
 16089      735F6362 
 16089      00
 16090              	.LASF525:
 16091 139e 6D61705F 		.ascii	"map_normal\000"
 16091      6E6F726D 
 16091      616C00
 16092              	.LASF23:
 16093 13a9 6C765F72 		.ascii	"lv_res_t\000"
 16093      65735F74 
 16093      00
 16094              	.LASF522:
 16095 13b2 6F70615F 		.ascii	"opa_inv\000"
 16095      696E7600 
 16096              	.LASF163:
 16097 13ba 4C565F53 		.ascii	"LV_STYLE_COLOR_FILTER_OPA\000"
 16097      54594C45 
 16097      5F434F4C 
 16097      4F525F46 
 16097      494C5445 
 16098              	.LASF356:
 16099 13d4 6275665F 		.ascii	"buf_act\000"
 16099      61637400 
 16100              	.LASF26:
 16101 13dc 6C6F6E67 		.ascii	"long double\000"
 16101      20646F75 
 16101      626C6500 
 16102              	.LASF398:
 16103 13e8 7374796C 		.ascii	"style\000"
 16103      6500
 16104              	.LASF83:
 16105 13ee 6C765F64 		.ascii	"lv_dither_mode_t\000"
 16105      69746865 
 16105      725F6D6F 
 16105      64655F74 
 16105      00
 16106              	.LASF397:
 16107 13ff 6C765F73 		.ascii	"lv_scroll_snap_t\000"
 16107      63726F6C 
 16107      6C5F736E 
 16107      61705F74 
 16107      00
 16108              	.LASF195:
 16109 1410 4C565F44 		.ascii	"LV_DRAW_MASK_RES_UNKNOWN\000"
 16109      5241575F 
 16109      4D41534B 
 16109      5F524553 
 16109      5F554E4B 
 16110              	.LASF416:
 16111 1429 636F6465 		.ascii	"code\000"
 16111      00
 16112              	.LASF63:
ARM GAS  C:\Users\haske\AppData\Local\Temp\cc7ZkKza.s 			page 337


 16113 142e 73756270 		.ascii	"subpx\000"
 16113      7800
 16114              	.LASF41:
 16115 1434 4C565F4F 		.ascii	"LV_OPA_COVER\000"
 16115      50415F43 
 16115      4F564552 
 16115      00
 16116              	.LASF303:
 16117 1441 77616974 		.ascii	"wait_for_finish\000"
 16117      5F666F72 
 16117      5F66696E 
 16117      69736800 
 16118              	.LASF228:
 16119 1451 62675F69 		.ascii	"bg_img_recolor_opa\000"
 16119      6D675F72 
 16119      65636F6C 
 16119      6F725F6F 
 16119      706100
 16120              	.LASF280:
 16121 1464 4C565F44 		.ascii	"LV_DRAW_LAYER_FLAG_CAN_SUBDIVIDE\000"
 16121      5241575F 
 16121      4C415945 
 16121      525F464C 
 16121      41475F43 
 16122              	.LASF315:
 16123 1485 74696D65 		.ascii	"timer_cb\000"
 16123      725F6362 
 16123      00
 16124              	.LASF424:
 16125 148e 4C565F45 		.ascii	"LV_EVENT_PRESSED\000"
 16125      56454E54 
 16125      5F505245 
 16125      53534544 
 16125      00
 16126              	.LASF434:
 16127 149f 4C565F45 		.ascii	"LV_EVENT_SCROLL\000"
 16127      56454E54 
 16127      5F534352 
 16127      4F4C4C00 
 16128              	.LASF455:
 16129 14af 4C565F45 		.ascii	"LV_EVENT_CANCEL\000"
 16129      56454E54 
 16129      5F43414E 
 16129      43454C00 
 16130              	.LASF125:
 16131 14bf 4C565F53 		.ascii	"LV_STYLE_BORDER_COLOR\000"
 16131      54594C45 
 16131      5F424F52 
 16131      4445525F 
 16131      434F4C4F 
 16132              	.LASF384:
 16133 14d5 72656E64 		.ascii	"render_start_cb\000"
 16133      65725F73 
 16133      74617274 
 16133      5F636200 
 16134              	.LASF383:
 16135 14e5 6472765F 		.ascii	"drv_update_cb\000"
ARM GAS  C:\Users\haske\AppData\Local\Temp\cc7ZkKza.s 			page 338


 16135      75706461 
 16135      74655F63 
 16135      6200
 16136              	.LASF0:
 16137 14f3 5F5F696E 		.ascii	"__int8_t\000"
 16137      74385F74 
 16137      00
 16138              	.LASF468:
 16139 14fc 5F4C565F 		.ascii	"_LV_EVENT_LAST\000"
 16139      4556454E 
 16139      545F4C41 
 16139      535400
 16140              	.LASF78:
 16141 150b 4C565F42 		.ascii	"LV_BLEND_MODE_REPLACE\000"
 16141      4C454E44 
 16141      5F4D4F44 
 16141      455F5245 
 16141      504C4143 
 16142              	.LASF366:
 16143 1521 70687973 		.ascii	"physical_hor_res\000"
 16143      6963616C 
 16143      5F686F72 
 16143      5F726573 
 16143      00
 16144              	.LASF357:
 16145 1532 73697A65 		.ascii	"size\000"
 16145      00
 16146              	.LASF289:
 16147 1537 6D61785F 		.ascii	"max_row_with_no_alpha\000"
 16147      726F775F 
 16147      77697468 
 16147      5F6E6F5F 
 16147      616C7068 
 16148              	.LASF13:
 16149 154d 6C6F6E67 		.ascii	"long long unsigned int\000"
 16149      206C6F6E 
 16149      6720756E 
 16149      7369676E 
 16149      65642069 
 16150              	.LASF328:
 16151 1564 7379735F 		.ascii	"sys_layer\000"
 16151      6C617965 
 16151      7200
 16152              	.LASF117:
 16153 156e 4C565F53 		.ascii	"LV_STYLE_BG_GRAD_STOP\000"
 16153      54594C45 
 16153      5F42475F 
 16153      47524144 
 16153      5F53544F 
 16154              	.LASF128:
 16155 1584 4C565F53 		.ascii	"LV_STYLE_BORDER_SIDE\000"
 16155      54594C45 
 16155      5F424F52 
 16155      4445525F 
 16155      53494445 
 16156              	.LASF471:
 16157 1599 6C765F67 		.ascii	"lv_group_focus_cb_t\000"
ARM GAS  C:\Users\haske\AppData\Local\Temp\cc7ZkKza.s 			page 339


 16157      726F7570 
 16157      5F666F63 
 16157      75735F63 
 16157      625F7400 
 16158              	.LASF403:
 16159 15ad 5F6C765F 		.ascii	"_lv_obj_class_t\000"
 16159      6F626A5F 
 16159      636C6173 
 16159      735F7400 
 16160              	.LASF245:
 16161 15bd 6C765F64 		.ascii	"lv_draw_rect_dsc_t\000"
 16161      7261775F 
 16161      72656374 
 16161      5F647363 
 16161      5F7400
 16162              	.LASF19:
 16163 15d0 75696E74 		.ascii	"uint16_t\000"
 16163      31365F74 
 16163      00
 16164              	.LASF74:
 16165 15d9 4C565F42 		.ascii	"LV_BLEND_MODE_NORMAL\000"
 16165      4C454E44 
 16165      5F4D4F44 
 16165      455F4E4F 
 16165      524D414C 
 16166              	.LASF314:
 16167 15ee 6C617374 		.ascii	"last_run\000"
 16167      5F72756E 
 16167      00
 16168              	.LASF347:
 16169 15f7 77726170 		.ascii	"wrap\000"
 16169      00
 16170              	.LASF46:
 16171 15fc 6C765F63 		.ascii	"lv_color_t\000"
 16171      6F6C6F72 
 16171      5F7400
 16172              	.LASF298:
 16173 1607 64726177 		.ascii	"draw_letter\000"
 16173      5F6C6574 
 16173      74657200 
 16174              	.LASF93:
 16175 1613 4C565F53 		.ascii	"LV_STYLE_WIDTH\000"
 16175      54594C45 
 16175      5F574944 
 16175      544800
 16176              	.LASF532:
 16177 1622 6C765F63 		.ascii	"lv_color_fill\000"
 16177      6F6C6F72 
 16177      5F66696C 
 16177      6C00
 16178              	.LASF491:
 16179 1630 6C765F61 		.ascii	"lv_area_get_height\000"
 16179      7265615F 
 16179      6765745F 
 16179      68656967 
 16179      687400
 16180              	.LASF231:
ARM GAS  C:\Users\haske\AppData\Local\Temp\cc7ZkKza.s 			page 340


 16181 1643 626F7264 		.ascii	"border_width\000"
 16181      65725F77 
 16181      69647468 
 16181      00
 16182              	.LASF512:
 16183 1650 6C617374 		.ascii	"last_opa\000"
 16183      5F6F7061 
 16183      00
 16184              	.LASF94:
 16185 1659 4C565F53 		.ascii	"LV_STYLE_MIN_WIDTH\000"
 16185      54594C45 
 16185      5F4D494E 
 16185      5F574944 
 16185      544800
 16186              	.LASF529:
 16187 166c 64657374 		.ascii	"dest_buf8\000"
 16187      5F627566 
 16187      3800
 16188              	.LASF71:
 16189 1676 6C765F74 		.ascii	"lv_text_flag_t\000"
 16189      6578745F 
 16189      666C6167 
 16189      5F7400
 16190              	.LASF135:
 16191 1685 4C565F53 		.ascii	"LV_STYLE_SHADOW_OFS_X\000"
 16191      54594C45 
 16191      5F534841 
 16191      444F575F 
 16191      4F46535F 
 16192              	.LASF136:
 16193 169b 4C565F53 		.ascii	"LV_STYLE_SHADOW_OFS_Y\000"
 16193      54594C45 
 16193      5F534841 
 16193      444F575F 
 16193      4F46535F 
 16194              	.LASF24:
 16195 16b1 6C765F75 		.ascii	"lv_uintptr_t\000"
 16195      696E7470 
 16195      74725F74 
 16195      00
 16196              	.LASF31:
 16197 16be 4C565F4F 		.ascii	"LV_OPA_10\000"
 16197      50415F31 
 16197      3000
 16198              	.LASF120:
 16199 16c8 4C565F53 		.ascii	"LV_STYLE_BG_IMG_SRC\000"
 16199      54594C45 
 16199      5F42475F 
 16199      494D475F 
 16199      53524300 
 16200              	.LASF260:
 16201 16dc 7069766F 		.ascii	"pivot\000"
 16201      7400
 16202              	.LASF153:
 16203 16e2 4C565F53 		.ascii	"LV_STYLE_ARC_IMG_SRC\000"
 16203      54594C45 
 16203      5F415243 
ARM GAS  C:\Users\haske\AppData\Local\Temp\cc7ZkKza.s 			page 341


 16203      5F494D47 
 16203      5F535243 
 16204              	.LASF185:
 16205 16f7 76616C75 		.ascii	"value1\000"
 16205      653100
 16206              	.LASF197:
 16207 16fe 626C656E 		.ascii	"blend_area\000"
 16207      645F6172 
 16207      656100
 16208              	.LASF496:
 16209 1709 6C765F63 		.ascii	"lv_color_mix_premult\000"
 16209      6F6C6F72 
 16209      5F6D6978 
 16209      5F707265 
 16209      6D756C74 
 16210              	.LASF370:
 16211 171e 64726177 		.ascii	"draw_buf\000"
 16211      5F627566 
 16211      00
 16212              	.LASF198:
 16213 1727 7372635F 		.ascii	"src_buf\000"
 16213      62756600 
 16214              	.LASF490:
 16215 172f 6C765F63 		.ascii	"lv_color_make\000"
 16215      6F6C6F72 
 16215      5F6D616B 
 16215      6500
 16216              	.LASF377:
 16217 173d 726F756E 		.ascii	"rounder_cb\000"
 16217      6465725F 
 16217      636200
 16218              	.LASF256:
 16219 1748 6465636F 		.ascii	"decor\000"
 16219      7200
 16220              	.LASF4:
 16221 174e 5F5F696E 		.ascii	"__int16_t\000"
 16221      7431365F 
 16221      7400
 16222              	.LASF306:
 16223 1758 6C617965 		.ascii	"layer_adjust\000"
 16223      725F6164 
 16223      6A757374 
 16223      00
 16224              	.LASF156:
 16225 1765 4C565F53 		.ascii	"LV_STYLE_TEXT_FONT\000"
 16225      54594C45 
 16225      5F544558 
 16225      545F464F 
 16225      4E5400
 16226              	.LASF463:
 16227 1778 4C565F45 		.ascii	"LV_EVENT_SCREEN_UNLOADED\000"
 16227      56454E54 
 16227      5F534352 
 16227      45454E5F 
 16227      554E4C4F 
 16228              	.LASF179:
 16229 1791 4C565F53 		.ascii	"LV_STYLE_PROP_ANY\000"
ARM GAS  C:\Users\haske\AppData\Local\Temp\cc7ZkKza.s 			page 342


 16229      54594C45 
 16229      5F50524F 
 16229      505F414E 
 16229      5900
 16230              	.LASF44:
 16231 17a3 66756C6C 		.ascii	"full\000"
 16231      00
 16232              	.LASF291:
 16233 17a8 6C765F64 		.ascii	"lv_draw_layer_ctx_t\000"
 16233      7261775F 
 16233      6C617965 
 16233      725F6374 
 16233      785F7400 
 16234              	.LASF32:
 16235 17bc 4C565F4F 		.ascii	"LV_OPA_20\000"
 16235      50415F32 
 16235      3000
 16236              	.LASF84:
 16237 17c6 636F6C6F 		.ascii	"color\000"
 16237      7200
 16238              	.LASF14:
 16239 17cc 5F5F7569 		.ascii	"__uintptr_t\000"
 16239      6E747074 
 16239      725F7400 
 16240              	.LASF87:
 16241 17d8 73746F70 		.ascii	"stops\000"
 16241      7300
 16242              	.LASF251:
 16243 17de 6C696E65 		.ascii	"line_space\000"
 16243      5F737061 
 16243      636500
 16244              	.LASF307:
 16245 17e9 6C617965 		.ascii	"layer_blend\000"
 16245      725F626C 
 16245      656E6400 
 16246              	.LASF503:
 16247 17f5 626C656E 		.ascii	"blend_fp\000"
 16247      645F6670 
 16247      00
 16248              	.LASF406:
 16249 17fe 64657374 		.ascii	"destructor_cb\000"
 16249      72756374 
 16249      6F725F63 
 16249      6200
 16250              	.LASF81:
 16251 180c 6C765F62 		.ascii	"lv_border_side_t\000"
 16251      6F726465 
 16251      725F7369 
 16251      64655F74 
 16251      00
 16252              	.LASF85:
 16253 181d 66726163 		.ascii	"frac\000"
 16253      00
 16254              	.LASF206:
 16255 1822 5F6C765F 		.ascii	"_lv_obj_t\000"
 16255      6F626A5F 
 16255      7400
ARM GAS  C:\Users\haske\AppData\Local\Temp\cc7ZkKza.s 			page 343


 16256              	.LASF246:
 16257 182c 666F6E74 		.ascii	"font\000"
 16257      00
 16258              	.LASF252:
 16259 1831 6C657474 		.ascii	"letter_space\000"
 16259      65725F73 
 16259      70616365 
 16259      00
 16260              	.LASF98:
 16261 183e 4C565F53 		.ascii	"LV_STYLE_MAX_HEIGHT\000"
 16261      54594C45 
 16261      5F4D4158 
 16261      5F484549 
 16261      47485400 
 16262              	.LASF33:
 16263 1852 4C565F4F 		.ascii	"LV_OPA_30\000"
 16263      50415F33 
 16263      3000
 16264              	.LASF487:
 16265 185c 5F6C765F 		.ascii	"_lv_theme_t\000"
 16265      7468656D 
 16265      655F7400 
 16266              	.LASF277:
 16267 1868 6C765F64 		.ascii	"lv_draw_arc_dsc_t\000"
 16267      7261775F 
 16267      6172635F 
 16267      6473635F 
 16267      7400
 16268              	.LASF538:
 16269 187a 2E2E5C2E 		.ascii	"..\\..\\..\\arduinoLCD\\test\\Pain Drain\\libraries"
 16269      2E5C2E2E 
 16269      5C617264 
 16269      75696E6F 
 16269      4C43445C 
 16270 18a7 5C6C7667 		.ascii	"\\lvgl\\src\\draw\\sw\\lv_draw_sw_blend.c\000"
 16270      6C5C7372 
 16270      635C6472 
 16270      61775C73 
 16270      775C6C76 
 16271              	.LASF114:
 16272 18cc 4C565F53 		.ascii	"LV_STYLE_BG_GRAD_COLOR\000"
 16272      54594C45 
 16272      5F42475F 
 16272      47524144 
 16272      5F434F4C 
 16273              	.LASF325:
 16274 18e3 70726576 		.ascii	"prev_scr\000"
 16274      5F736372 
 16274      00
 16275              	.LASF55:
 16276 18ec 626F785F 		.ascii	"box_h\000"
 16276      6800
 16277              	.LASF226:
 16278 18f2 62675F69 		.ascii	"bg_img_recolor\000"
 16278      6D675F72 
 16278      65636F6C 
 16278      6F7200
ARM GAS  C:\Users\haske\AppData\Local\Temp\cc7ZkKza.s 			page 344


 16279              	.LASF279:
 16280 1901 4C565F44 		.ascii	"LV_DRAW_LAYER_FLAG_HAS_ALPHA\000"
 16280      5241575F 
 16280      4C415945 
 16280      525F464C 
 16280      41475F48 
 16281              	.LASF45:
 16282 191e 6C765F63 		.ascii	"lv_color16_t\000"
 16282      6F6C6F72 
 16282      31365F74 
 16282      00
 16283              	.LASF54:
 16284 192b 626F785F 		.ascii	"box_w\000"
 16284      7700
 16285              	.LASF5:
 16286 1931 73686F72 		.ascii	"short int\000"
 16286      7420696E 
 16286      7400
 16287              	.LASF513:
 16288 193b 636F6C6F 		.ascii	"color_blend_true_color_additive\000"
 16288      725F626C 
 16288      656E645F 
 16288      74727565 
 16288      5F636F6C 
 16289              	.LASF62:
 16290 195b 62617365 		.ascii	"base_line\000"
 16290      5F6C696E 
 16290      6500
 16291              	.LASF336:
 16292 1965 696E765F 		.ascii	"inv_p\000"
 16292      7000
 16293              	.LASF352:
 16294 196b 6C765F6C 		.ascii	"lv_ll_t\000"
 16294      6C5F7400 
 16295              	.LASF542:
 16296 1973 6C765F66 		.ascii	"lv_font_montserrat_14\000"
 16296      6F6E745F 
 16296      6D6F6E74 
 16296      73657272 
 16296      61745F31 
 16297              	.LASF507:
 16298 1989 6F70615F 		.ascii	"opa_tmp\000"
 16298      746D7000 
 16299              	.LASF448:
 16300 1991 4C565F45 		.ascii	"LV_EVENT_DRAW_POST_END\000"
 16300      56454E54 
 16300      5F445241 
 16300      575F504F 
 16300      53545F45 
 16301              	.LASF449:
 16302 19a8 4C565F45 		.ascii	"LV_EVENT_DRAW_PART_BEGIN\000"
 16302      56454E54 
 16302      5F445241 
 16302      575F5041 
 16302      52545F42 
 16303              	.LASF244:
 16304 19c1 73686164 		.ascii	"shadow_opa\000"
ARM GAS  C:\Users\haske\AppData\Local\Temp\cc7ZkKza.s 			page 345


 16304      6F775F6F 
 16304      706100
 16305              	.LASF151:
 16306 19cc 4C565F53 		.ascii	"LV_STYLE_ARC_COLOR\000"
 16306      54594C45 
 16306      5F415243 
 16306      5F434F4C 
 16306      4F5200
 16307              	.LASF34:
 16308 19df 4C565F4F 		.ascii	"LV_OPA_40\000"
 16308      50415F34 
 16308      3000
 16309              	.LASF18:
 16310 19e9 696E7431 		.ascii	"int16_t\000"
 16310      365F7400 
 16311              	.LASF337:
 16312 19f1 696E765F 		.ascii	"inv_en_cnt\000"
 16312      656E5F63 
 16312      6E7400
 16313              	.LASF284:
 16314 19fc 73637265 		.ascii	"screen_transp\000"
 16314      656E5F74 
 16314      72616E73 
 16314      7000
 16315              	.LASF211:
 16316 1a0a 636F6F72 		.ascii	"coords\000"
 16316      647300
 16317              	.LASF479:
 16318 1a11 6578745F 		.ascii	"ext_click_pad\000"
 16318      636C6963 
 16318      6B5F7061 
 16318      6400
 16319              	.LASF178:
 16320 1a1f 5F4C565F 		.ascii	"_LV_STYLE_NUM_BUILT_IN_PROPS\000"
 16320      5354594C 
 16320      455F4E55 
 16320      4D5F4255 
 16320      494C545F 
 16321              	.LASF528:
 16322 1a3c 6C765F64 		.ascii	"lv_draw_sw_blend_basic\000"
 16322      7261775F 
 16322      73775F62 
 16322      6C656E64 
 16322      5F626173 
 16323              	.LASF104:
 16324 1a53 4C565F53 		.ascii	"LV_STYLE_PAD_TOP\000"
 16324      54594C45 
 16324      5F504144 
 16324      5F544F50 
 16324      00
 16325              	.LASF530:
 16326 1a64 6D61736B 		.ascii	"mask_size\000"
 16326      5F73697A 
 16326      6500
 16327              	.LASF348:
 16328 1a6e 6C765F6C 		.ascii	"lv_ll_node_t\000"
 16328      6C5F6E6F 
ARM GAS  C:\Users\haske\AppData\Local\Temp\cc7ZkKza.s 			page 346


 16328      64655F74 
 16328      00
 16329              	.LASF331:
 16330 1a7b 64656C5F 		.ascii	"del_prev\000"
 16330      70726576 
 16330      00
 16331              	.LASF333:
 16332 1a84 62675F69 		.ascii	"bg_img\000"
 16332      6D6700
 16333              	.LASF526:
 16334 1a8b 6D61736B 		.ascii	"mask_tmp_x\000"
 16334      5F746D70 
 16334      5F7800
 16335              	.LASF121:
 16336 1a96 4C565F53 		.ascii	"LV_STYLE_BG_IMG_OPA\000"
 16336      54594C45 
 16336      5F42475F 
 16336      494D475F 
 16336      4F504100 
 16337              	.LASF143:
 16338 1aaa 4C565F53 		.ascii	"LV_STYLE_LINE_WIDTH\000"
 16338      54594C45 
 16338      5F4C494E 
 16338      455F5749 
 16338      44544800 
 16339              	.LASF514:
 16340 1abe 636F6C6F 		.ascii	"color_blend_true_color_subtractive\000"
 16340      725F626C 
 16340      656E645F 
 16340      74727565 
 16340      5F636F6C 
 16341              	.LASF35:
 16342 1ae1 4C565F4F 		.ascii	"LV_OPA_50\000"
 16342      50415F35 
 16342      3000
 16343              	.LASF493:
 16344 1aeb 6C765F61 		.ascii	"lv_area_get_width\000"
 16344      7265615F 
 16344      6765745F 
 16344      77696474 
 16344      6800
 16345              	.LASF539:
 16346 1afd 433A5C50 		.ascii	"C:\\Projects\\PainDrain\\firmware\\PainDrain\\PainD"
 16346      726F6A65 
 16346      6374735C 
 16346      5061696E 
 16346      44726169 
 16347 1b2b 7261696E 		.ascii	"rain.cydsn\000"
 16347      2E637964 
 16347      736E00
 16348              	.LASF188:
 16349 1b36 70726F70 		.ascii	"prop1\000"
 16349      3100
 16350              	.LASF534:
 16351 1b3c 5F6C765F 		.ascii	"_lv_area_intersect\000"
 16351      61726561 
 16351      5F696E74 
ARM GAS  C:\Users\haske\AppData\Local\Temp\cc7ZkKza.s 			page 347


 16351      65727365 
 16351      637400
 16352              	.LASF378:
 16353 1b4f 7365745F 		.ascii	"set_px_cb\000"
 16353      70785F63 
 16353      6200
 16354              	.LASF433:
 16355 1b59 4C565F45 		.ascii	"LV_EVENT_SCROLL_END\000"
 16355      56454E54 
 16355      5F534352 
 16355      4F4C4C5F 
 16355      454E4400 
 16356              	.LASF232:
 16357 1b6d 626F7264 		.ascii	"border_opa\000"
 16357      65725F6F 
 16357      706100
 16358              	.LASF497:
 16359 1b78 7072656D 		.ascii	"premult_c1\000"
 16359      756C745F 
 16359      633100
 16360              	.LASF97:
 16361 1b83 4C565F53 		.ascii	"LV_STYLE_MIN_HEIGHT\000"
 16361      54594C45 
 16361      5F4D494E 
 16361      5F484549 
 16361      47485400 
 16362              	.LASF438:
 16363 1b97 4C565F45 		.ascii	"LV_EVENT_DEFOCUSED\000"
 16363      56454E54 
 16363      5F444546 
 16363      4F435553 
 16363      454400
 16364              	.LASF223:
 16365 1baa 62675F67 		.ascii	"bg_grad\000"
 16365      72616400 
 16366              	.LASF129:
 16367 1bb2 4C565F53 		.ascii	"LV_STYLE_BORDER_POST\000"
 16367      54594C45 
 16367      5F424F52 
 16367      4445525F 
 16367      504F5354 
 16368              	.LASF540:
 16369 1bc7 6C765F63 		.ascii	"lv_color_premult\000"
 16369      6F6C6F72 
 16369      5F707265 
 16369      6D756C74 
 16369      00
 16370              	.LASF386:
 16371 1bd8 64726177 		.ascii	"draw_ctx\000"
 16371      5F637478 
 16371      00
 16372              	.LASF297:
 16373 1be1 64726177 		.ascii	"draw_img\000"
 16373      5F696D67 
 16373      00
 16374              	.LASF86:
 16375 1bea 6C765F67 		.ascii	"lv_gradient_stop_t\000"
ARM GAS  C:\Users\haske\AppData\Local\Temp\cc7ZkKza.s 			page 348


 16375      72616469 
 16375      656E745F 
 16375      73746F70 
 16375      5F7400
 16376              	.LASF100:
 16377 1bfd 4C565F53 		.ascii	"LV_STYLE_Y\000"
 16377      54594C45 
 16377      5F5900
 16378              	.LASF146:
 16379 1c08 4C565F53 		.ascii	"LV_STYLE_LINE_ROUNDED\000"
 16379      54594C45 
 16379      5F4C494E 
 16379      455F524F 
 16379      554E4445 
 16380              	.LASF36:
 16381 1c1e 4C565F4F 		.ascii	"LV_OPA_60\000"
 16381      50415F36 
 16381      3000
 16382              	.LASF531:
 16383 1c28 5F6C765F 		.ascii	"_lv_refr_get_disp_refreshing\000"
 16383      72656672 
 16383      5F676574 
 16383      5F646973 
 16383      705F7265 
 16384              	.LASF300:
 16385 1c45 64726177 		.ascii	"draw_polygon\000"
 16385      5F706F6C 
 16385      79676F6E 
 16385      00
 16386              	.LASF465:
 16387 1c52 4C565F45 		.ascii	"LV_EVENT_STYLE_CHANGED\000"
 16387      56454E54 
 16387      5F535459 
 16387      4C455F43 
 16387      48414E47 
 16388              	.LASF454:
 16389 1c69 4C565F45 		.ascii	"LV_EVENT_READY\000"
 16389      56454E54 
 16389      5F524541 
 16389      445900
 16390              	.LASF247:
 16391 1c78 73656C5F 		.ascii	"sel_start\000"
 16391      73746172 
 16391      7400
 16392              	.LASF447:
 16393 1c82 4C565F45 		.ascii	"LV_EVENT_DRAW_POST\000"
 16393      56454E54 
 16393      5F445241 
 16393      575F504F 
 16393      535400
 16394              	.LASF21:
 16395 1c95 75696E74 		.ascii	"uint32_t\000"
 16395      33325F74 
 16395      00
 16396              	.LASF395:
 16397 1c9e 6C765F6F 		.ascii	"lv_obj_flag_t\000"
 16397      626A5F66 
ARM GAS  C:\Users\haske\AppData\Local\Temp\cc7ZkKza.s 			page 349


 16397      6C61675F 
 16397      7400
 16398              	.LASF464:
 16399 1cac 4C565F45 		.ascii	"LV_EVENT_SIZE_CHANGED\000"
 16399      56454E54 
 16399      5F53495A 
 16399      455F4348 
 16399      414E4745 
 16400              	.LASF240:
 16401 1cc2 73686164 		.ascii	"shadow_width\000"
 16401      6F775F77 
 16401      69647468 
 16401      00
 16402              	.LASF43:
 16403 1ccf 67726565 		.ascii	"green\000"
 16403      6E00
 16404              	.LASF70:
 16405 1cd5 6C765F66 		.ascii	"lv_font_t\000"
 16405      6F6E745F 
 16405      7400
 16406              	.LASF466:
 16407 1cdf 4C565F45 		.ascii	"LV_EVENT_LAYOUT_CHANGED\000"
 16407      56454E54 
 16407      5F4C4159 
 16407      4F55545F 
 16407      4348414E 
 16408              	.LASF89:
 16409 1cf7 64697468 		.ascii	"dither\000"
 16409      657200
 16410              	.LASF37:
 16411 1cfe 4C565F4F 		.ascii	"LV_OPA_70\000"
 16411      50415F37 
 16411      3000
 16412              	.LASF7:
 16413 1d08 73686F72 		.ascii	"short unsigned int\000"
 16413      7420756E 
 16413      7369676E 
 16413      65642069 
 16413      6E7400
 16414              	.LASF436:
 16415 1d1b 4C565F45 		.ascii	"LV_EVENT_KEY\000"
 16415      56454E54 
 16415      5F4B4559 
 16415      00
 16416              	.LASF48:
 16417 1d28 6C765F63 		.ascii	"lv_coord_t\000"
 16417      6F6F7264 
 16417      5F7400
 16418              	.LASF192:
 16419 1d33 4C565F44 		.ascii	"LV_DRAW_MASK_RES_TRANSP\000"
 16419      5241575F 
 16419      4D41534B 
 16419      5F524553 
 16419      5F545241 
 16420              	.LASF376:
 16421 1d4b 666C7573 		.ascii	"flush_cb\000"
 16421      685F6362 
ARM GAS  C:\Users\haske\AppData\Local\Temp\cc7ZkKza.s 			page 350


 16421      00
 16422              	.LASF131:
 16423 1d54 4C565F53 		.ascii	"LV_STYLE_OUTLINE_COLOR\000"
 16423      54594C45 
 16423      5F4F5554 
 16423      4C494E45 
 16423      5F434F4C 
 16424              	.LASF67:
 16425 1d6b 75736572 		.ascii	"user_data\000"
 16425      5F646174 
 16425      6100
 16426              	.LASF426:
 16427 1d75 4C565F45 		.ascii	"LV_EVENT_PRESS_LOST\000"
 16427      56454E54 
 16427      5F505245 
 16427      53535F4C 
 16427      4F535400 
 16428              	.LASF506:
 16429 1d89 6C617374 		.ascii	"last_mask\000"
 16429      5F6D6173 
 16429      6B00
 16430              	.LASF488:
 16431 1d93 5F6C765F 		.ascii	"_lv_event_dsc_t\000"
 16431      6576656E 
 16431      745F6473 
 16431      635F7400 
 16432              	.LASF137:
 16433 1da3 4C565F53 		.ascii	"LV_STYLE_SHADOW_SPREAD\000"
 16433      54594C45 
 16433      5F534841 
 16433      444F575F 
 16433      53505245 
 16434              	.LASF59:
 16435 1dba 6765745F 		.ascii	"get_glyph_dsc\000"
 16435      676C7970 
 16435      685F6473 
 16435      6300
 16436              	.LASF8:
 16437 1dc8 5F5F696E 		.ascii	"__int32_t\000"
 16437      7433325F 
 16437      7400
 16438              	.LASF392:
 16439 1dd2 626C656E 		.ascii	"blend\000"
 16439      6400
 16440              	.LASF437:
 16441 1dd8 4C565F45 		.ascii	"LV_EVENT_FOCUSED\000"
 16441      56454E54 
 16441      5F464F43 
 16441      55534544 
 16441      00
 16442              	.LASF82:
 16443 1de9 6C765F67 		.ascii	"lv_grad_dir_t\000"
 16443      7261645F 
 16443      6469725F 
 16443      7400
 16444              	.LASF346:
 16445 1df7 7265666F 		.ascii	"refocus_policy\000"
ARM GAS  C:\Users\haske\AppData\Local\Temp\cc7ZkKza.s 			page 351


 16445      6375735F 
 16445      706F6C69 
 16445      637900
 16446              	.LASF363:
 16447 1e06 5F6C765F 		.ascii	"_lv_disp_drv_t\000"
 16447      64697370 
 16447      5F647276 
 16447      5F7400
 16448              	.LASF38:
 16449 1e15 4C565F4F 		.ascii	"LV_OPA_80\000"
 16449      50415F38 
 16449      3000
 16450              	.LASF409:
 16451 1e1f 68656967 		.ascii	"height_def\000"
 16451      68745F64 
 16451      656600
 16452              	.LASF460:
 16453 1e2a 4C565F45 		.ascii	"LV_EVENT_SCREEN_UNLOAD_START\000"
 16453      56454E54 
 16453      5F534352 
 16453      45454E5F 
 16453      554E4C4F 
 16454              	.LASF382:
 16455 1e47 636C6561 		.ascii	"clean_dcache_cb\000"
 16455      6E5F6463 
 16455      61636865 
 16455      5F636200 
 16456              	.LASF249:
 16457 1e57 73656C5F 		.ascii	"sel_color\000"
 16457      636F6C6F 
 16457      7200
 16458              	.LASF521:
 16459 1e61 636F6C6F 		.ascii	"color_premult\000"
 16459      725F7072 
 16459      656D756C 
 16459      7400
 16460              	.LASF225:
 16461 1e6f 62675F69 		.ascii	"bg_img_symbol_font\000"
 16461      6D675F73 
 16461      796D626F 
 16461      6C5F666F 
 16461      6E7400
 16462              	.LASF242:
 16463 1e82 73686164 		.ascii	"shadow_ofs_y\000"
 16463      6F775F6F 
 16463      66735F79 
 16463      00
 16464              	.LASF418:
 16465 1e8f 70726576 		.ascii	"prev\000"
 16465      00
 16466              	.LASF90:
 16467 1e94 6C765F67 		.ascii	"lv_grad_dsc_t\000"
 16467      7261645F 
 16467      6473635F 
 16467      7400
 16468              	.LASF349:
 16469 1ea2 6E5F7369 		.ascii	"n_size\000"
ARM GAS  C:\Users\haske\AppData\Local\Temp\cc7ZkKza.s 			page 352


 16469      7A6500
 16470              	.LASF339:
 16471 1ea9 5F6C765F 		.ascii	"_lv_group_t\000"
 16471      67726F75 
 16471      705F7400 
 16472              	.LASF118:
 16473 1eb5 4C565F53 		.ascii	"LV_STYLE_BG_GRAD\000"
 16473      54594C45 
 16473      5F42475F 
 16473      47524144 
 16473      00
 16474              	.LASF431:
 16475 1ec6 4C565F45 		.ascii	"LV_EVENT_RELEASED\000"
 16475      56454E54 
 16475      5F52454C 
 16475      45415345 
 16475      4400
 16476              	.LASF58:
 16477 1ed8 69735F70 		.ascii	"is_placeholder\000"
 16477      6C616365 
 16477      686F6C64 
 16477      657200
 16478              	.LASF133:
 16479 1ee7 4C565F53 		.ascii	"LV_STYLE_OUTLINE_PAD\000"
 16479      54594C45 
 16479      5F4F5554 
 16479      4C494E45 
 16479      5F504144 
 16480              	.LASF39:
 16481 1efc 4C565F4F 		.ascii	"LV_OPA_90\000"
 16481      50415F39 
 16481      3000
 16482              	.LASF505:
 16483 1f06 6C617374 		.ascii	"last_res_color\000"
 16483      5F726573 
 16483      5F636F6C 
 16483      6F7200
 16484              	.LASF341:
 16485 1f15 6F626A5F 		.ascii	"obj_focus\000"
 16485      666F6375 
 16485      7300
 16486              	.LASF157:
 16487 1f1f 4C565F53 		.ascii	"LV_STYLE_TEXT_LETTER_SPACE\000"
 16487      54594C45 
 16487      5F544558 
 16487      545F4C45 
 16487      54544552 
 16488              	.LASF485:
 16489 1f3a 6576656E 		.ascii	"event_dsc_cnt\000"
 16489      745F6473 
 16489      635F636E 
 16489      7400
 16490              		.ident	"GCC: (GNU Tools for ARM Embedded Processors) 5.4.1 20160609 (release) [ARM/embedded-5-bran
