ARM GAS  C:\Users\haske\AppData\Local\Temp\ccoe6ixJ.s 			page 1


   1              		.syntax unified
   2              		.cpu cortex-m4
   3              		.eabi_attribute 27, 1
   4              		.fpu fpv4-sp-d16
   5              		.eabi_attribute 20, 1
   6              		.eabi_attribute 21, 1
   7              		.eabi_attribute 23, 3
   8              		.eabi_attribute 24, 1
   9              		.eabi_attribute 25, 1
  10              		.eabi_attribute 26, 1
  11              		.eabi_attribute 30, 1
  12              		.eabi_attribute 34, 1
  13              		.eabi_attribute 18, 4
  14              		.thumb
  15              		.syntax unified
  16              		.file	"lv_draw_sw_layer.c"
  17              		.text
  18              	.Ltext0:
  19              		.cfi_sections	.debug_frame
  20              		.section	.text.lv_draw_sw_layer_create,"ax",%progbits
  21              		.align	2
  22              		.global	lv_draw_sw_layer_create
  23              		.thumb
  24              		.thumb_func
  25              		.type	lv_draw_sw_layer_create, %function
  26              	lv_draw_sw_layer_create:
  27              	.LFB159:
  28              		.file 1 "..\\..\\..\\arduinoLCD\\test\\Pain Drain\\libraries\\lvgl\\src\\draw\\sw\\lv_draw_sw_laye
   1:..\..\..\arduinoLCD\test\Pain Drain\libraries\lvgl\src\draw\sw/lv_draw_sw_layer.c **** /**
   2:..\..\..\arduinoLCD\test\Pain Drain\libraries\lvgl\src\draw\sw/lv_draw_sw_layer.c ****  * @file lv_draw_sw_layer.h
   3:..\..\..\arduinoLCD\test\Pain Drain\libraries\lvgl\src\draw\sw/lv_draw_sw_layer.c ****  *
   4:..\..\..\arduinoLCD\test\Pain Drain\libraries\lvgl\src\draw\sw/lv_draw_sw_layer.c ****  */
   5:..\..\..\arduinoLCD\test\Pain Drain\libraries\lvgl\src\draw\sw/lv_draw_sw_layer.c **** 
   6:..\..\..\arduinoLCD\test\Pain Drain\libraries\lvgl\src\draw\sw/lv_draw_sw_layer.c **** /*********************
   7:..\..\..\arduinoLCD\test\Pain Drain\libraries\lvgl\src\draw\sw/lv_draw_sw_layer.c ****  *      INCLUDES
   8:..\..\..\arduinoLCD\test\Pain Drain\libraries\lvgl\src\draw\sw/lv_draw_sw_layer.c ****  *********************/
   9:..\..\..\arduinoLCD\test\Pain Drain\libraries\lvgl\src\draw\sw/lv_draw_sw_layer.c **** #include "lv_draw_sw.h"
  10:..\..\..\arduinoLCD\test\Pain Drain\libraries\lvgl\src\draw\sw/lv_draw_sw_layer.c **** #include "../../hal/lv_hal_disp.h"
  11:..\..\..\arduinoLCD\test\Pain Drain\libraries\lvgl\src\draw\sw/lv_draw_sw_layer.c **** #include "../../misc/lv_area.h"
  12:..\..\..\arduinoLCD\test\Pain Drain\libraries\lvgl\src\draw\sw/lv_draw_sw_layer.c **** #include "../../core/lv_refr.h"
  13:..\..\..\arduinoLCD\test\Pain Drain\libraries\lvgl\src\draw\sw/lv_draw_sw_layer.c **** 
  14:..\..\..\arduinoLCD\test\Pain Drain\libraries\lvgl\src\draw\sw/lv_draw_sw_layer.c **** /*********************
  15:..\..\..\arduinoLCD\test\Pain Drain\libraries\lvgl\src\draw\sw/lv_draw_sw_layer.c ****  *      DEFINES
  16:..\..\..\arduinoLCD\test\Pain Drain\libraries\lvgl\src\draw\sw/lv_draw_sw_layer.c ****  *********************/
  17:..\..\..\arduinoLCD\test\Pain Drain\libraries\lvgl\src\draw\sw/lv_draw_sw_layer.c **** 
  18:..\..\..\arduinoLCD\test\Pain Drain\libraries\lvgl\src\draw\sw/lv_draw_sw_layer.c **** /**********************
  19:..\..\..\arduinoLCD\test\Pain Drain\libraries\lvgl\src\draw\sw/lv_draw_sw_layer.c ****  *      TYPEDEFS
  20:..\..\..\arduinoLCD\test\Pain Drain\libraries\lvgl\src\draw\sw/lv_draw_sw_layer.c ****  **********************/
  21:..\..\..\arduinoLCD\test\Pain Drain\libraries\lvgl\src\draw\sw/lv_draw_sw_layer.c **** 
  22:..\..\..\arduinoLCD\test\Pain Drain\libraries\lvgl\src\draw\sw/lv_draw_sw_layer.c **** /**********************
  23:..\..\..\arduinoLCD\test\Pain Drain\libraries\lvgl\src\draw\sw/lv_draw_sw_layer.c ****  *  STATIC PROTOTYPES
  24:..\..\..\arduinoLCD\test\Pain Drain\libraries\lvgl\src\draw\sw/lv_draw_sw_layer.c ****  **********************/
  25:..\..\..\arduinoLCD\test\Pain Drain\libraries\lvgl\src\draw\sw/lv_draw_sw_layer.c **** 
  26:..\..\..\arduinoLCD\test\Pain Drain\libraries\lvgl\src\draw\sw/lv_draw_sw_layer.c **** /**********************
  27:..\..\..\arduinoLCD\test\Pain Drain\libraries\lvgl\src\draw\sw/lv_draw_sw_layer.c ****  *  STATIC VARIABLES
  28:..\..\..\arduinoLCD\test\Pain Drain\libraries\lvgl\src\draw\sw/lv_draw_sw_layer.c ****  **********************/
  29:..\..\..\arduinoLCD\test\Pain Drain\libraries\lvgl\src\draw\sw/lv_draw_sw_layer.c **** 
ARM GAS  C:\Users\haske\AppData\Local\Temp\ccoe6ixJ.s 			page 2


  30:..\..\..\arduinoLCD\test\Pain Drain\libraries\lvgl\src\draw\sw/lv_draw_sw_layer.c **** /**********************
  31:..\..\..\arduinoLCD\test\Pain Drain\libraries\lvgl\src\draw\sw/lv_draw_sw_layer.c ****  *  GLOBAL VARIABLES
  32:..\..\..\arduinoLCD\test\Pain Drain\libraries\lvgl\src\draw\sw/lv_draw_sw_layer.c ****  **********************/
  33:..\..\..\arduinoLCD\test\Pain Drain\libraries\lvgl\src\draw\sw/lv_draw_sw_layer.c **** 
  34:..\..\..\arduinoLCD\test\Pain Drain\libraries\lvgl\src\draw\sw/lv_draw_sw_layer.c **** /**********************
  35:..\..\..\arduinoLCD\test\Pain Drain\libraries\lvgl\src\draw\sw/lv_draw_sw_layer.c ****  *      MACROS
  36:..\..\..\arduinoLCD\test\Pain Drain\libraries\lvgl\src\draw\sw/lv_draw_sw_layer.c ****  **********************/
  37:..\..\..\arduinoLCD\test\Pain Drain\libraries\lvgl\src\draw\sw/lv_draw_sw_layer.c **** 
  38:..\..\..\arduinoLCD\test\Pain Drain\libraries\lvgl\src\draw\sw/lv_draw_sw_layer.c **** /**********************
  39:..\..\..\arduinoLCD\test\Pain Drain\libraries\lvgl\src\draw\sw/lv_draw_sw_layer.c ****  *   GLOBAL FUNCTIONS
  40:..\..\..\arduinoLCD\test\Pain Drain\libraries\lvgl\src\draw\sw/lv_draw_sw_layer.c ****  **********************/
  41:..\..\..\arduinoLCD\test\Pain Drain\libraries\lvgl\src\draw\sw/lv_draw_sw_layer.c **** 
  42:..\..\..\arduinoLCD\test\Pain Drain\libraries\lvgl\src\draw\sw/lv_draw_sw_layer.c **** 
  43:..\..\..\arduinoLCD\test\Pain Drain\libraries\lvgl\src\draw\sw/lv_draw_sw_layer.c **** struct _lv_draw_layer_ctx_t * lv_draw_sw_layer_create(struct _lv_draw_ctx_t * draw_ctx, lv_draw_lay
  44:..\..\..\arduinoLCD\test\Pain Drain\libraries\lvgl\src\draw\sw/lv_draw_sw_layer.c ****                                                       lv_draw_layer_flags_t flags)
  45:..\..\..\arduinoLCD\test\Pain Drain\libraries\lvgl\src\draw\sw/lv_draw_sw_layer.c **** {
  29              		.loc 1 45 0
  30              		.cfi_startproc
  31              		@ args = 0, pretend = 0, frame = 0
  32              		@ frame_needed = 0, uses_anonymous_args = 0
  33              	.LVL0:
  34 0000 F8B5     		push	{r3, r4, r5, r6, r7, lr}
  35              		.cfi_def_cfa_offset 24
  36              		.cfi_offset 3, -24
  37              		.cfi_offset 4, -20
  38              		.cfi_offset 5, -16
  39              		.cfi_offset 6, -12
  40              		.cfi_offset 7, -8
  41              		.cfi_offset 14, -4
  46:..\..\..\arduinoLCD\test\Pain Drain\libraries\lvgl\src\draw\sw/lv_draw_sw_layer.c ****     if(LV_COLOR_SCREEN_TRANSP == 0 && (flags & LV_DRAW_LAYER_FLAG_HAS_ALPHA)) {
  42              		.loc 1 46 0
  43 0002 12F00107 		ands	r7, r2, #1
  44 0006 7BD1     		bne	.L7
  45              	.LVL1:
  47:..\..\..\arduinoLCD\test\Pain Drain\libraries\lvgl\src\draw\sw/lv_draw_sw_layer.c ****         LV_LOG_WARN("Rendering this widget needs LV_COLOR_SCREEN_TRANSP 1");
  48:..\..\..\arduinoLCD\test\Pain Drain\libraries\lvgl\src\draw\sw/lv_draw_sw_layer.c ****         return NULL;
  49:..\..\..\arduinoLCD\test\Pain Drain\libraries\lvgl\src\draw\sw/lv_draw_sw_layer.c ****     }
  50:..\..\..\arduinoLCD\test\Pain Drain\libraries\lvgl\src\draw\sw/lv_draw_sw_layer.c **** 
  51:..\..\..\arduinoLCD\test\Pain Drain\libraries\lvgl\src\draw\sw/lv_draw_sw_layer.c ****     lv_draw_sw_layer_ctx_t * layer_sw_ctx = (lv_draw_sw_layer_ctx_t *) layer_ctx;
  52:..\..\..\arduinoLCD\test\Pain Drain\libraries\lvgl\src\draw\sw/lv_draw_sw_layer.c ****     uint32_t px_size = flags & LV_DRAW_LAYER_FLAG_HAS_ALPHA ? LV_IMG_PX_SIZE_ALPHA_BYTE : sizeof(lv
  46              		.loc 1 52 0
  47 0008 0FB1     		cbz	r7, .L8
  48 000a 0325     		movs	r5, #3
  49 000c 00E0     		b	.L3
  50              	.L8:
  51 000e 0225     		movs	r5, #2
  52              	.L3:
  53 0010 0C46     		mov	r4, r1
  54 0012 0646     		mov	r6, r0
  55              	.LVL2:
  53:..\..\..\arduinoLCD\test\Pain Drain\libraries\lvgl\src\draw\sw/lv_draw_sw_layer.c ****     if(flags & LV_DRAW_LAYER_FLAG_CAN_SUBDIVIDE) {
  56              		.loc 1 53 0 discriminator 4
  57 0014 12F0020F 		tst	r2, #2
  58 0018 44D0     		beq	.L4
  59              	.LBB10:
  54:..\..\..\arduinoLCD\test\Pain Drain\libraries\lvgl\src\draw\sw/lv_draw_sw_layer.c ****         layer_sw_ctx->buf_size_bytes = LV_LAYER_SIMPLE_BUF_SIZE;
  60              		.loc 1 54 0
ARM GAS  C:\Users\haske\AppData\Local\Temp\ccoe6ixJ.s 			page 3


  61 001a 8B6A     		ldr	r3, [r1, #40]
  62 001c 4FF4C042 		mov	r2, #24576
  63              	.LVL3:
  64 0020 62F31E03 		bfi	r3, r2, #0, #31
  65 0024 8B62     		str	r3, [r1, #40]
  55:..\..\..\arduinoLCD\test\Pain Drain\libraries\lvgl\src\draw\sw/lv_draw_sw_layer.c ****         uint32_t full_size = lv_area_get_size(&layer_sw_ctx->base_draw.area_full) * px_size;
  66              		.loc 1 55 0
  67 0026 0846     		mov	r0, r1
  68              	.LVL4:
  69 0028 FFF7FEFF 		bl	lv_area_get_size
  70              	.LVL5:
  71 002c 00FB05F0 		mul	r0, r0, r5
  72              	.LVL6:
  56:..\..\..\arduinoLCD\test\Pain Drain\libraries\lvgl\src\draw\sw/lv_draw_sw_layer.c ****         if(layer_sw_ctx->buf_size_bytes > full_size) layer_sw_ctx->buf_size_bytes = full_size;
  73              		.loc 1 56 0
  74 0030 A36A     		ldr	r3, [r4, #40]
  75 0032 C3F31E03 		ubfx	r3, r3, #0, #31
  76 0036 9842     		cmp	r0, r3
  77 0038 03D2     		bcs	.L5
  78              		.loc 1 56 0 is_stmt 0 discriminator 1
  79 003a A36A     		ldr	r3, [r4, #40]
  80 003c 60F31E03 		bfi	r3, r0, #0, #31
  81 0040 A362     		str	r3, [r4, #40]
  82              	.L5:
  57:..\..\..\arduinoLCD\test\Pain Drain\libraries\lvgl\src\draw\sw/lv_draw_sw_layer.c ****         layer_sw_ctx->base_draw.buf = lv_mem_alloc(layer_sw_ctx->buf_size_bytes);
  83              		.loc 1 57 0 is_stmt 1
  84 0042 A06A     		ldr	r0, [r4, #40]
  85              	.LVL7:
  86 0044 20F00040 		bic	r0, r0, #-2147483648
  87 0048 FFF7FEFF 		bl	lv_mem_alloc
  88              	.LVL8:
  89 004c 6061     		str	r0, [r4, #20]
  58:..\..\..\arduinoLCD\test\Pain Drain\libraries\lvgl\src\draw\sw/lv_draw_sw_layer.c ****         if(layer_sw_ctx->base_draw.buf == NULL) {
  90              		.loc 1 58 0
  91 004e 50B9     		cbnz	r0, .L6
  59:..\..\..\arduinoLCD\test\Pain Drain\libraries\lvgl\src\draw\sw/lv_draw_sw_layer.c ****             LV_LOG_WARN("Cannot allocate %"LV_PRIu32" bytes for layer buffer. Allocating %"LV_PRIu3
  60:..\..\..\arduinoLCD\test\Pain Drain\libraries\lvgl\src\draw\sw/lv_draw_sw_layer.c ****                         (uint32_t)layer_sw_ctx->buf_size_bytes, (uint32_t)LV_LAYER_SIMPLE_FALLBACK_
  61:..\..\..\arduinoLCD\test\Pain Drain\libraries\lvgl\src\draw\sw/lv_draw_sw_layer.c ****             layer_sw_ctx->buf_size_bytes = LV_LAYER_SIMPLE_FALLBACK_BUF_SIZE;
  92              		.loc 1 61 0
  93 0050 A36A     		ldr	r3, [r4, #40]
  94 0052 4FF44060 		mov	r0, #3072
  95 0056 60F31E03 		bfi	r3, r0, #0, #31
  96 005a A362     		str	r3, [r4, #40]
  62:..\..\..\arduinoLCD\test\Pain Drain\libraries\lvgl\src\draw\sw/lv_draw_sw_layer.c ****             layer_sw_ctx->base_draw.buf = lv_mem_alloc(layer_sw_ctx->buf_size_bytes);
  97              		.loc 1 62 0
  98 005c FFF7FEFF 		bl	lv_mem_alloc
  99              	.LVL9:
 100 0060 6061     		str	r0, [r4, #20]
  63:..\..\..\arduinoLCD\test\Pain Drain\libraries\lvgl\src\draw\sw/lv_draw_sw_layer.c ****             if(layer_sw_ctx->base_draw.buf == NULL) {
 101              		.loc 1 63 0
 102 0062 0028     		cmp	r0, #0
 103 0064 4ED0     		beq	.L9
 104              	.L6:
  64:..\..\..\arduinoLCD\test\Pain Drain\libraries\lvgl\src\draw\sw/lv_draw_sw_layer.c ****                 return NULL;
  65:..\..\..\arduinoLCD\test\Pain Drain\libraries\lvgl\src\draw\sw/lv_draw_sw_layer.c ****             }
  66:..\..\..\arduinoLCD\test\Pain Drain\libraries\lvgl\src\draw\sw/lv_draw_sw_layer.c ****         }
  67:..\..\..\arduinoLCD\test\Pain Drain\libraries\lvgl\src\draw\sw/lv_draw_sw_layer.c ****         layer_sw_ctx->base_draw.area_act = layer_sw_ctx->base_draw.area_full;
ARM GAS  C:\Users\haske\AppData\Local\Temp\ccoe6ixJ.s 			page 4


 105              		.loc 1 67 0
 106 0066 04F10803 		add	r3, r4, #8
 107 006a 94E80300 		ldmia	r4, {r0, r1}
 108 006e 83E80300 		stmia	r3, {r0, r1}
  68:..\..\..\arduinoLCD\test\Pain Drain\libraries\lvgl\src\draw\sw/lv_draw_sw_layer.c ****         layer_sw_ctx->base_draw.area_act.y2 = layer_sw_ctx->base_draw.area_full.y1;
 109              		.loc 1 68 0
 110 0072 B4F90230 		ldrsh	r3, [r4, #2]
 111 0076 E381     		strh	r3, [r4, #14]	@ movhi
 112              	.LVL10:
 113              	.LBB11:
 114              	.LBB12:
 115              		.file 2 "c:\\projects\\paindrain\\arduinolcd\\test\\pain drain\\libraries\\lvgl\\src\\misc\\lv_are
   1:c:\projects\paindrain\arduinolcd\test\pain drain\libraries\lvgl\src\misc\lv_area.h **** /**
   2:c:\projects\paindrain\arduinolcd\test\pain drain\libraries\lvgl\src\misc\lv_area.h ****  * @file lv_area.h
   3:c:\projects\paindrain\arduinolcd\test\pain drain\libraries\lvgl\src\misc\lv_area.h ****  *
   4:c:\projects\paindrain\arduinolcd\test\pain drain\libraries\lvgl\src\misc\lv_area.h ****  */
   5:c:\projects\paindrain\arduinolcd\test\pain drain\libraries\lvgl\src\misc\lv_area.h **** 
   6:c:\projects\paindrain\arduinolcd\test\pain drain\libraries\lvgl\src\misc\lv_area.h **** #ifndef LV_AREA_H
   7:c:\projects\paindrain\arduinolcd\test\pain drain\libraries\lvgl\src\misc\lv_area.h **** #define LV_AREA_H
   8:c:\projects\paindrain\arduinolcd\test\pain drain\libraries\lvgl\src\misc\lv_area.h **** 
   9:c:\projects\paindrain\arduinolcd\test\pain drain\libraries\lvgl\src\misc\lv_area.h **** #ifdef __cplusplus
  10:c:\projects\paindrain\arduinolcd\test\pain drain\libraries\lvgl\src\misc\lv_area.h **** extern "C" {
  11:c:\projects\paindrain\arduinolcd\test\pain drain\libraries\lvgl\src\misc\lv_area.h **** #endif
  12:c:\projects\paindrain\arduinolcd\test\pain drain\libraries\lvgl\src\misc\lv_area.h **** 
  13:c:\projects\paindrain\arduinolcd\test\pain drain\libraries\lvgl\src\misc\lv_area.h **** /*********************
  14:c:\projects\paindrain\arduinolcd\test\pain drain\libraries\lvgl\src\misc\lv_area.h ****  *      INCLUDES
  15:c:\projects\paindrain\arduinolcd\test\pain drain\libraries\lvgl\src\misc\lv_area.h ****  *********************/
  16:c:\projects\paindrain\arduinolcd\test\pain drain\libraries\lvgl\src\misc\lv_area.h **** #include "../lv_conf_internal.h"
  17:c:\projects\paindrain\arduinolcd\test\pain drain\libraries\lvgl\src\misc\lv_area.h **** #include <stdbool.h>
  18:c:\projects\paindrain\arduinolcd\test\pain drain\libraries\lvgl\src\misc\lv_area.h **** #include <stdint.h>
  19:c:\projects\paindrain\arduinolcd\test\pain drain\libraries\lvgl\src\misc\lv_area.h **** 
  20:c:\projects\paindrain\arduinolcd\test\pain drain\libraries\lvgl\src\misc\lv_area.h **** /*********************
  21:c:\projects\paindrain\arduinolcd\test\pain drain\libraries\lvgl\src\misc\lv_area.h ****  *      DEFINES
  22:c:\projects\paindrain\arduinolcd\test\pain drain\libraries\lvgl\src\misc\lv_area.h ****  *********************/
  23:c:\projects\paindrain\arduinolcd\test\pain drain\libraries\lvgl\src\misc\lv_area.h **** 
  24:c:\projects\paindrain\arduinolcd\test\pain drain\libraries\lvgl\src\misc\lv_area.h **** #if LV_USE_LARGE_COORD
  25:c:\projects\paindrain\arduinolcd\test\pain drain\libraries\lvgl\src\misc\lv_area.h **** typedef int32_t lv_coord_t;
  26:c:\projects\paindrain\arduinolcd\test\pain drain\libraries\lvgl\src\misc\lv_area.h **** #else
  27:c:\projects\paindrain\arduinolcd\test\pain drain\libraries\lvgl\src\misc\lv_area.h **** typedef int16_t lv_coord_t;
  28:c:\projects\paindrain\arduinolcd\test\pain drain\libraries\lvgl\src\misc\lv_area.h **** #endif
  29:c:\projects\paindrain\arduinolcd\test\pain drain\libraries\lvgl\src\misc\lv_area.h **** 
  30:c:\projects\paindrain\arduinolcd\test\pain drain\libraries\lvgl\src\misc\lv_area.h **** /**********************
  31:c:\projects\paindrain\arduinolcd\test\pain drain\libraries\lvgl\src\misc\lv_area.h ****  *      TYPEDEFS
  32:c:\projects\paindrain\arduinolcd\test\pain drain\libraries\lvgl\src\misc\lv_area.h ****  **********************/
  33:c:\projects\paindrain\arduinolcd\test\pain drain\libraries\lvgl\src\misc\lv_area.h **** 
  34:c:\projects\paindrain\arduinolcd\test\pain drain\libraries\lvgl\src\misc\lv_area.h **** /**
  35:c:\projects\paindrain\arduinolcd\test\pain drain\libraries\lvgl\src\misc\lv_area.h ****  * Represents a point on the screen.
  36:c:\projects\paindrain\arduinolcd\test\pain drain\libraries\lvgl\src\misc\lv_area.h ****  */
  37:c:\projects\paindrain\arduinolcd\test\pain drain\libraries\lvgl\src\misc\lv_area.h **** typedef struct {
  38:c:\projects\paindrain\arduinolcd\test\pain drain\libraries\lvgl\src\misc\lv_area.h ****     lv_coord_t x;
  39:c:\projects\paindrain\arduinolcd\test\pain drain\libraries\lvgl\src\misc\lv_area.h ****     lv_coord_t y;
  40:c:\projects\paindrain\arduinolcd\test\pain drain\libraries\lvgl\src\misc\lv_area.h **** } lv_point_t;
  41:c:\projects\paindrain\arduinolcd\test\pain drain\libraries\lvgl\src\misc\lv_area.h **** 
  42:c:\projects\paindrain\arduinolcd\test\pain drain\libraries\lvgl\src\misc\lv_area.h **** /** Represents an area of the screen.*/
  43:c:\projects\paindrain\arduinolcd\test\pain drain\libraries\lvgl\src\misc\lv_area.h **** typedef struct {
  44:c:\projects\paindrain\arduinolcd\test\pain drain\libraries\lvgl\src\misc\lv_area.h ****     lv_coord_t x1;
  45:c:\projects\paindrain\arduinolcd\test\pain drain\libraries\lvgl\src\misc\lv_area.h ****     lv_coord_t y1;
ARM GAS  C:\Users\haske\AppData\Local\Temp\ccoe6ixJ.s 			page 5


  46:c:\projects\paindrain\arduinolcd\test\pain drain\libraries\lvgl\src\misc\lv_area.h ****     lv_coord_t x2;
  47:c:\projects\paindrain\arduinolcd\test\pain drain\libraries\lvgl\src\misc\lv_area.h ****     lv_coord_t y2;
  48:c:\projects\paindrain\arduinolcd\test\pain drain\libraries\lvgl\src\misc\lv_area.h **** } lv_area_t;
  49:c:\projects\paindrain\arduinolcd\test\pain drain\libraries\lvgl\src\misc\lv_area.h **** 
  50:c:\projects\paindrain\arduinolcd\test\pain drain\libraries\lvgl\src\misc\lv_area.h **** /** Alignments*/
  51:c:\projects\paindrain\arduinolcd\test\pain drain\libraries\lvgl\src\misc\lv_area.h **** enum {
  52:c:\projects\paindrain\arduinolcd\test\pain drain\libraries\lvgl\src\misc\lv_area.h ****     LV_ALIGN_DEFAULT = 0,
  53:c:\projects\paindrain\arduinolcd\test\pain drain\libraries\lvgl\src\misc\lv_area.h ****     LV_ALIGN_TOP_LEFT,
  54:c:\projects\paindrain\arduinolcd\test\pain drain\libraries\lvgl\src\misc\lv_area.h ****     LV_ALIGN_TOP_MID,
  55:c:\projects\paindrain\arduinolcd\test\pain drain\libraries\lvgl\src\misc\lv_area.h ****     LV_ALIGN_TOP_RIGHT,
  56:c:\projects\paindrain\arduinolcd\test\pain drain\libraries\lvgl\src\misc\lv_area.h ****     LV_ALIGN_BOTTOM_LEFT,
  57:c:\projects\paindrain\arduinolcd\test\pain drain\libraries\lvgl\src\misc\lv_area.h ****     LV_ALIGN_BOTTOM_MID,
  58:c:\projects\paindrain\arduinolcd\test\pain drain\libraries\lvgl\src\misc\lv_area.h ****     LV_ALIGN_BOTTOM_RIGHT,
  59:c:\projects\paindrain\arduinolcd\test\pain drain\libraries\lvgl\src\misc\lv_area.h ****     LV_ALIGN_LEFT_MID,
  60:c:\projects\paindrain\arduinolcd\test\pain drain\libraries\lvgl\src\misc\lv_area.h ****     LV_ALIGN_RIGHT_MID,
  61:c:\projects\paindrain\arduinolcd\test\pain drain\libraries\lvgl\src\misc\lv_area.h ****     LV_ALIGN_CENTER,
  62:c:\projects\paindrain\arduinolcd\test\pain drain\libraries\lvgl\src\misc\lv_area.h **** 
  63:c:\projects\paindrain\arduinolcd\test\pain drain\libraries\lvgl\src\misc\lv_area.h ****     LV_ALIGN_OUT_TOP_LEFT,
  64:c:\projects\paindrain\arduinolcd\test\pain drain\libraries\lvgl\src\misc\lv_area.h ****     LV_ALIGN_OUT_TOP_MID,
  65:c:\projects\paindrain\arduinolcd\test\pain drain\libraries\lvgl\src\misc\lv_area.h ****     LV_ALIGN_OUT_TOP_RIGHT,
  66:c:\projects\paindrain\arduinolcd\test\pain drain\libraries\lvgl\src\misc\lv_area.h ****     LV_ALIGN_OUT_BOTTOM_LEFT,
  67:c:\projects\paindrain\arduinolcd\test\pain drain\libraries\lvgl\src\misc\lv_area.h ****     LV_ALIGN_OUT_BOTTOM_MID,
  68:c:\projects\paindrain\arduinolcd\test\pain drain\libraries\lvgl\src\misc\lv_area.h ****     LV_ALIGN_OUT_BOTTOM_RIGHT,
  69:c:\projects\paindrain\arduinolcd\test\pain drain\libraries\lvgl\src\misc\lv_area.h ****     LV_ALIGN_OUT_LEFT_TOP,
  70:c:\projects\paindrain\arduinolcd\test\pain drain\libraries\lvgl\src\misc\lv_area.h ****     LV_ALIGN_OUT_LEFT_MID,
  71:c:\projects\paindrain\arduinolcd\test\pain drain\libraries\lvgl\src\misc\lv_area.h ****     LV_ALIGN_OUT_LEFT_BOTTOM,
  72:c:\projects\paindrain\arduinolcd\test\pain drain\libraries\lvgl\src\misc\lv_area.h ****     LV_ALIGN_OUT_RIGHT_TOP,
  73:c:\projects\paindrain\arduinolcd\test\pain drain\libraries\lvgl\src\misc\lv_area.h ****     LV_ALIGN_OUT_RIGHT_MID,
  74:c:\projects\paindrain\arduinolcd\test\pain drain\libraries\lvgl\src\misc\lv_area.h ****     LV_ALIGN_OUT_RIGHT_BOTTOM,
  75:c:\projects\paindrain\arduinolcd\test\pain drain\libraries\lvgl\src\misc\lv_area.h **** };
  76:c:\projects\paindrain\arduinolcd\test\pain drain\libraries\lvgl\src\misc\lv_area.h **** typedef uint8_t lv_align_t;
  77:c:\projects\paindrain\arduinolcd\test\pain drain\libraries\lvgl\src\misc\lv_area.h **** 
  78:c:\projects\paindrain\arduinolcd\test\pain drain\libraries\lvgl\src\misc\lv_area.h **** enum {
  79:c:\projects\paindrain\arduinolcd\test\pain drain\libraries\lvgl\src\misc\lv_area.h ****     LV_DIR_NONE     = 0x00,
  80:c:\projects\paindrain\arduinolcd\test\pain drain\libraries\lvgl\src\misc\lv_area.h ****     LV_DIR_LEFT     = (1 << 0),
  81:c:\projects\paindrain\arduinolcd\test\pain drain\libraries\lvgl\src\misc\lv_area.h ****     LV_DIR_RIGHT    = (1 << 1),
  82:c:\projects\paindrain\arduinolcd\test\pain drain\libraries\lvgl\src\misc\lv_area.h ****     LV_DIR_TOP      = (1 << 2),
  83:c:\projects\paindrain\arduinolcd\test\pain drain\libraries\lvgl\src\misc\lv_area.h ****     LV_DIR_BOTTOM   = (1 << 3),
  84:c:\projects\paindrain\arduinolcd\test\pain drain\libraries\lvgl\src\misc\lv_area.h ****     LV_DIR_HOR      = LV_DIR_LEFT | LV_DIR_RIGHT,
  85:c:\projects\paindrain\arduinolcd\test\pain drain\libraries\lvgl\src\misc\lv_area.h ****     LV_DIR_VER      = LV_DIR_TOP | LV_DIR_BOTTOM,
  86:c:\projects\paindrain\arduinolcd\test\pain drain\libraries\lvgl\src\misc\lv_area.h ****     LV_DIR_ALL      = LV_DIR_HOR | LV_DIR_VER,
  87:c:\projects\paindrain\arduinolcd\test\pain drain\libraries\lvgl\src\misc\lv_area.h **** };
  88:c:\projects\paindrain\arduinolcd\test\pain drain\libraries\lvgl\src\misc\lv_area.h **** 
  89:c:\projects\paindrain\arduinolcd\test\pain drain\libraries\lvgl\src\misc\lv_area.h **** typedef uint8_t lv_dir_t;
  90:c:\projects\paindrain\arduinolcd\test\pain drain\libraries\lvgl\src\misc\lv_area.h **** 
  91:c:\projects\paindrain\arduinolcd\test\pain drain\libraries\lvgl\src\misc\lv_area.h **** /**********************
  92:c:\projects\paindrain\arduinolcd\test\pain drain\libraries\lvgl\src\misc\lv_area.h ****  * GLOBAL PROTOTYPES
  93:c:\projects\paindrain\arduinolcd\test\pain drain\libraries\lvgl\src\misc\lv_area.h ****  **********************/
  94:c:\projects\paindrain\arduinolcd\test\pain drain\libraries\lvgl\src\misc\lv_area.h **** 
  95:c:\projects\paindrain\arduinolcd\test\pain drain\libraries\lvgl\src\misc\lv_area.h **** /**
  96:c:\projects\paindrain\arduinolcd\test\pain drain\libraries\lvgl\src\misc\lv_area.h ****  * Initialize an area
  97:c:\projects\paindrain\arduinolcd\test\pain drain\libraries\lvgl\src\misc\lv_area.h ****  * @param area_p pointer to an area
  98:c:\projects\paindrain\arduinolcd\test\pain drain\libraries\lvgl\src\misc\lv_area.h ****  * @param x1 left coordinate of the area
  99:c:\projects\paindrain\arduinolcd\test\pain drain\libraries\lvgl\src\misc\lv_area.h ****  * @param y1 top coordinate of the area
 100:c:\projects\paindrain\arduinolcd\test\pain drain\libraries\lvgl\src\misc\lv_area.h ****  * @param x2 right coordinate of the area
 101:c:\projects\paindrain\arduinolcd\test\pain drain\libraries\lvgl\src\misc\lv_area.h ****  * @param y2 bottom coordinate of the area
 102:c:\projects\paindrain\arduinolcd\test\pain drain\libraries\lvgl\src\misc\lv_area.h ****  */
ARM GAS  C:\Users\haske\AppData\Local\Temp\ccoe6ixJ.s 			page 6


 103:c:\projects\paindrain\arduinolcd\test\pain drain\libraries\lvgl\src\misc\lv_area.h **** void lv_area_set(lv_area_t * area_p, lv_coord_t x1, lv_coord_t y1, lv_coord_t x2, lv_coord_t y2);
 104:c:\projects\paindrain\arduinolcd\test\pain drain\libraries\lvgl\src\misc\lv_area.h **** 
 105:c:\projects\paindrain\arduinolcd\test\pain drain\libraries\lvgl\src\misc\lv_area.h **** /**
 106:c:\projects\paindrain\arduinolcd\test\pain drain\libraries\lvgl\src\misc\lv_area.h ****  * Copy an area
 107:c:\projects\paindrain\arduinolcd\test\pain drain\libraries\lvgl\src\misc\lv_area.h ****  * @param dest pointer to the destination area
 108:c:\projects\paindrain\arduinolcd\test\pain drain\libraries\lvgl\src\misc\lv_area.h ****  * @param src pointer to the source area
 109:c:\projects\paindrain\arduinolcd\test\pain drain\libraries\lvgl\src\misc\lv_area.h ****  */
 110:c:\projects\paindrain\arduinolcd\test\pain drain\libraries\lvgl\src\misc\lv_area.h **** inline static void lv_area_copy(lv_area_t * dest, const lv_area_t * src)
 111:c:\projects\paindrain\arduinolcd\test\pain drain\libraries\lvgl\src\misc\lv_area.h **** {
 112:c:\projects\paindrain\arduinolcd\test\pain drain\libraries\lvgl\src\misc\lv_area.h ****     dest->x1 = src->x1;
 113:c:\projects\paindrain\arduinolcd\test\pain drain\libraries\lvgl\src\misc\lv_area.h ****     dest->y1 = src->y1;
 114:c:\projects\paindrain\arduinolcd\test\pain drain\libraries\lvgl\src\misc\lv_area.h ****     dest->x2 = src->x2;
 115:c:\projects\paindrain\arduinolcd\test\pain drain\libraries\lvgl\src\misc\lv_area.h ****     dest->y2 = src->y2;
 116:c:\projects\paindrain\arduinolcd\test\pain drain\libraries\lvgl\src\misc\lv_area.h **** }
 117:c:\projects\paindrain\arduinolcd\test\pain drain\libraries\lvgl\src\misc\lv_area.h **** 
 118:c:\projects\paindrain\arduinolcd\test\pain drain\libraries\lvgl\src\misc\lv_area.h **** /**
 119:c:\projects\paindrain\arduinolcd\test\pain drain\libraries\lvgl\src\misc\lv_area.h ****  * Get the width of an area
 120:c:\projects\paindrain\arduinolcd\test\pain drain\libraries\lvgl\src\misc\lv_area.h ****  * @param area_p pointer to an area
 121:c:\projects\paindrain\arduinolcd\test\pain drain\libraries\lvgl\src\misc\lv_area.h ****  * @return the width of the area (if x1 == x2 -> width = 1)
 122:c:\projects\paindrain\arduinolcd\test\pain drain\libraries\lvgl\src\misc\lv_area.h ****  */
 123:c:\projects\paindrain\arduinolcd\test\pain drain\libraries\lvgl\src\misc\lv_area.h **** static inline lv_coord_t lv_area_get_width(const lv_area_t * area_p)
 124:c:\projects\paindrain\arduinolcd\test\pain drain\libraries\lvgl\src\misc\lv_area.h **** {
 125:c:\projects\paindrain\arduinolcd\test\pain drain\libraries\lvgl\src\misc\lv_area.h ****     return (lv_coord_t)(area_p->x2 - area_p->x1 + 1);
 116              		.loc 2 125 0
 117 0078 B4F90C30 		ldrsh	r3, [r4, #12]
 118 007c B4F90820 		ldrsh	r2, [r4, #8]
 119 0080 9B1A     		subs	r3, r3, r2
 120 0082 0133     		adds	r3, r3, #1
 121 0084 1BB2     		sxth	r3, r3
 122              	.LVL11:
 123              	.LBE12:
 124              	.LBE11:
  69:..\..\..\arduinoLCD\test\Pain Drain\libraries\lvgl\src\draw\sw/lv_draw_sw_layer.c ****         lv_coord_t w = lv_area_get_width(&layer_sw_ctx->base_draw.area_act);
  70:..\..\..\arduinoLCD\test\Pain Drain\libraries\lvgl\src\draw\sw/lv_draw_sw_layer.c ****         layer_sw_ctx->base_draw.max_row_with_alpha = layer_sw_ctx->buf_size_bytes / w / LV_IMG_PX_S
 125              		.loc 1 70 0
 126 0086 A26A     		ldr	r2, [r4, #40]
 127 0088 C2F31E02 		ubfx	r2, r2, #0, #31
 128 008c 92FBF3F3 		sdiv	r3, r2, r3
 129 0090 1E4A     		ldr	r2, .L12
 130 0092 82FB0312 		smull	r1, r2, r2, r3
 131 0096 A2EBE372 		sub	r2, r2, r3, asr #31
 132 009a 2282     		strh	r2, [r4, #16]	@ movhi
  71:..\..\..\arduinoLCD\test\Pain Drain\libraries\lvgl\src\draw\sw/lv_draw_sw_layer.c ****         layer_sw_ctx->base_draw.max_row_with_no_alpha = layer_sw_ctx->buf_size_bytes / w / sizeof(l
 133              		.loc 1 71 0
 134 009c 5B08     		lsrs	r3, r3, #1
 135 009e 6382     		strh	r3, [r4, #18]	@ movhi
 136              	.LBE10:
  72:..\..\..\arduinoLCD\test\Pain Drain\libraries\lvgl\src\draw\sw/lv_draw_sw_layer.c ****     }
  73:..\..\..\arduinoLCD\test\Pain Drain\libraries\lvgl\src\draw\sw/lv_draw_sw_layer.c ****     else {
  74:..\..\..\arduinoLCD\test\Pain Drain\libraries\lvgl\src\draw\sw/lv_draw_sw_layer.c ****         layer_sw_ctx->base_draw.area_act = layer_sw_ctx->base_draw.area_full;
  75:..\..\..\arduinoLCD\test\Pain Drain\libraries\lvgl\src\draw\sw/lv_draw_sw_layer.c ****         layer_sw_ctx->buf_size_bytes = lv_area_get_size(&layer_sw_ctx->base_draw.area_full) * px_si
  76:..\..\..\arduinoLCD\test\Pain Drain\libraries\lvgl\src\draw\sw/lv_draw_sw_layer.c ****         layer_sw_ctx->base_draw.buf = lv_mem_alloc(layer_sw_ctx->buf_size_bytes);
  77:..\..\..\arduinoLCD\test\Pain Drain\libraries\lvgl\src\draw\sw/lv_draw_sw_layer.c ****         lv_memset_00(layer_sw_ctx->base_draw.buf, layer_sw_ctx->buf_size_bytes);
  78:..\..\..\arduinoLCD\test\Pain Drain\libraries\lvgl\src\draw\sw/lv_draw_sw_layer.c ****         layer_sw_ctx->has_alpha = flags & LV_DRAW_LAYER_FLAG_HAS_ALPHA ? 1 : 0;
  79:..\..\..\arduinoLCD\test\Pain Drain\libraries\lvgl\src\draw\sw/lv_draw_sw_layer.c ****         if(layer_sw_ctx->base_draw.buf == NULL) {
  80:..\..\..\arduinoLCD\test\Pain Drain\libraries\lvgl\src\draw\sw/lv_draw_sw_layer.c ****             return NULL;
  81:..\..\..\arduinoLCD\test\Pain Drain\libraries\lvgl\src\draw\sw/lv_draw_sw_layer.c ****         }
ARM GAS  C:\Users\haske\AppData\Local\Temp\ccoe6ixJ.s 			page 7


  82:..\..\..\arduinoLCD\test\Pain Drain\libraries\lvgl\src\draw\sw/lv_draw_sw_layer.c **** 
  83:..\..\..\arduinoLCD\test\Pain Drain\libraries\lvgl\src\draw\sw/lv_draw_sw_layer.c ****         draw_ctx->buf = layer_sw_ctx->base_draw.buf;
  84:..\..\..\arduinoLCD\test\Pain Drain\libraries\lvgl\src\draw\sw/lv_draw_sw_layer.c ****         draw_ctx->buf_area = &layer_sw_ctx->base_draw.area_act;
  85:..\..\..\arduinoLCD\test\Pain Drain\libraries\lvgl\src\draw\sw/lv_draw_sw_layer.c ****         draw_ctx->clip_area = &layer_sw_ctx->base_draw.area_act;
  86:..\..\..\arduinoLCD\test\Pain Drain\libraries\lvgl\src\draw\sw/lv_draw_sw_layer.c **** 
  87:..\..\..\arduinoLCD\test\Pain Drain\libraries\lvgl\src\draw\sw/lv_draw_sw_layer.c ****         lv_disp_t * disp_refr = _lv_refr_get_disp_refreshing();
  88:..\..\..\arduinoLCD\test\Pain Drain\libraries\lvgl\src\draw\sw/lv_draw_sw_layer.c ****         disp_refr->driver->screen_transp = flags & LV_DRAW_LAYER_FLAG_HAS_ALPHA ? 1 : 0;
  89:..\..\..\arduinoLCD\test\Pain Drain\libraries\lvgl\src\draw\sw/lv_draw_sw_layer.c ****     }
  90:..\..\..\arduinoLCD\test\Pain Drain\libraries\lvgl\src\draw\sw/lv_draw_sw_layer.c **** 
  91:..\..\..\arduinoLCD\test\Pain Drain\libraries\lvgl\src\draw\sw/lv_draw_sw_layer.c ****     return layer_ctx;
 137              		.loc 1 91 0
 138 00a0 2046     		mov	r0, r4
 139 00a2 F8BD     		pop	{r3, r4, r5, r6, r7, pc}
 140              	.LVL12:
 141              	.L4:
 142              	.LBB13:
  74:..\..\..\arduinoLCD\test\Pain Drain\libraries\lvgl\src\draw\sw/lv_draw_sw_layer.c ****         layer_sw_ctx->buf_size_bytes = lv_area_get_size(&layer_sw_ctx->base_draw.area_full) * px_si
 143              		.loc 1 74 0
 144 00a4 01F10803 		add	r3, r1, #8
 145 00a8 03C9     		ldmia	r1, {r0, r1}
 146              	.LVL13:
 147 00aa 83E80300 		stmia	r3, {r0, r1}
  75:..\..\..\arduinoLCD\test\Pain Drain\libraries\lvgl\src\draw\sw/lv_draw_sw_layer.c ****         layer_sw_ctx->base_draw.buf = lv_mem_alloc(layer_sw_ctx->buf_size_bytes);
 148              		.loc 1 75 0
 149 00ae 2046     		mov	r0, r4
 150 00b0 FFF7FEFF 		bl	lv_area_get_size
 151              	.LVL14:
 152 00b4 00FB05F0 		mul	r0, r0, r5
 153 00b8 20F00040 		bic	r0, r0, #-2147483648
 154 00bc A36A     		ldr	r3, [r4, #40]
 155 00be 60F31E03 		bfi	r3, r0, #0, #31
 156 00c2 A362     		str	r3, [r4, #40]
  76:..\..\..\arduinoLCD\test\Pain Drain\libraries\lvgl\src\draw\sw/lv_draw_sw_layer.c ****         lv_memset_00(layer_sw_ctx->base_draw.buf, layer_sw_ctx->buf_size_bytes);
 157              		.loc 1 76 0
 158 00c4 FFF7FEFF 		bl	lv_mem_alloc
 159              	.LVL15:
 160 00c8 6061     		str	r0, [r4, #20]
  77:..\..\..\arduinoLCD\test\Pain Drain\libraries\lvgl\src\draw\sw/lv_draw_sw_layer.c ****         layer_sw_ctx->has_alpha = flags & LV_DRAW_LAYER_FLAG_HAS_ALPHA ? 1 : 0;
 161              		.loc 1 77 0
 162 00ca A16A     		ldr	r1, [r4, #40]
 163 00cc 21F00041 		bic	r1, r1, #-2147483648
 164 00d0 FFF7FEFF 		bl	lv_memset_00
 165              	.LVL16:
  78:..\..\..\arduinoLCD\test\Pain Drain\libraries\lvgl\src\draw\sw/lv_draw_sw_layer.c ****         if(layer_sw_ctx->base_draw.buf == NULL) {
 166              		.loc 1 78 0
 167 00d4 94F82B30 		ldrb	r3, [r4, #43]	@ zero_extendqisi2
 168 00d8 67F3C713 		bfi	r3, r7, #7, #1
 169 00dc 84F82B30 		strb	r3, [r4, #43]
  79:..\..\..\arduinoLCD\test\Pain Drain\libraries\lvgl\src\draw\sw/lv_draw_sw_layer.c ****             return NULL;
 170              		.loc 1 79 0
 171 00e0 6369     		ldr	r3, [r4, #20]
 172 00e2 8BB1     		cbz	r3, .L10
  83:..\..\..\arduinoLCD\test\Pain Drain\libraries\lvgl\src\draw\sw/lv_draw_sw_layer.c ****         draw_ctx->buf_area = &layer_sw_ctx->base_draw.area_act;
 173              		.loc 1 83 0
 174 00e4 3360     		str	r3, [r6]
  84:..\..\..\arduinoLCD\test\Pain Drain\libraries\lvgl\src\draw\sw/lv_draw_sw_layer.c ****         draw_ctx->clip_area = &layer_sw_ctx->base_draw.area_act;
 175              		.loc 1 84 0
ARM GAS  C:\Users\haske\AppData\Local\Temp\ccoe6ixJ.s 			page 8


 176 00e6 04F10803 		add	r3, r4, #8
 177 00ea 7360     		str	r3, [r6, #4]
  85:..\..\..\arduinoLCD\test\Pain Drain\libraries\lvgl\src\draw\sw/lv_draw_sw_layer.c **** 
 178              		.loc 1 85 0
 179 00ec B360     		str	r3, [r6, #8]
  87:..\..\..\arduinoLCD\test\Pain Drain\libraries\lvgl\src\draw\sw/lv_draw_sw_layer.c ****         disp_refr->driver->screen_transp = flags & LV_DRAW_LAYER_FLAG_HAS_ALPHA ? 1 : 0;
 180              		.loc 1 87 0
 181 00ee FFF7FEFF 		bl	_lv_refr_get_disp_refreshing
 182              	.LVL17:
  88:..\..\..\arduinoLCD\test\Pain Drain\libraries\lvgl\src\draw\sw/lv_draw_sw_layer.c ****     }
 183              		.loc 1 88 0
 184 00f2 0368     		ldr	r3, [r0]
 185 00f4 1A7C     		ldrb	r2, [r3, #16]	@ zero_extendqisi2
 186 00f6 67F38612 		bfi	r2, r7, #6, #1
 187 00fa 1A74     		strb	r2, [r3, #16]
 188              	.LBE13:
 189              		.loc 1 91 0
 190 00fc 2046     		mov	r0, r4
 191              	.LVL18:
 192 00fe F8BD     		pop	{r3, r4, r5, r6, r7, pc}
 193              	.LVL19:
 194              	.L7:
  48:..\..\..\arduinoLCD\test\Pain Drain\libraries\lvgl\src\draw\sw/lv_draw_sw_layer.c ****     }
 195              		.loc 1 48 0
 196 0100 0020     		movs	r0, #0
 197              	.LVL20:
 198 0102 F8BD     		pop	{r3, r4, r5, r6, r7, pc}
 199              	.LVL21:
 200              	.L9:
 201              	.LBB14:
  64:..\..\..\arduinoLCD\test\Pain Drain\libraries\lvgl\src\draw\sw/lv_draw_sw_layer.c ****             }
 202              		.loc 1 64 0
 203 0104 0020     		movs	r0, #0
 204 0106 F8BD     		pop	{r3, r4, r5, r6, r7, pc}
 205              	.LVL22:
 206              	.L10:
 207              	.LBE14:
 208              	.LBB15:
  80:..\..\..\arduinoLCD\test\Pain Drain\libraries\lvgl\src\draw\sw/lv_draw_sw_layer.c ****         }
 209              		.loc 1 80 0
 210 0108 0020     		movs	r0, #0
 211              	.LBE15:
  92:..\..\..\arduinoLCD\test\Pain Drain\libraries\lvgl\src\draw\sw/lv_draw_sw_layer.c **** }
 212              		.loc 1 92 0
 213 010a F8BD     		pop	{r3, r4, r5, r6, r7, pc}
 214              	.LVL23:
 215              	.L13:
 216              		.align	2
 217              	.L12:
 218 010c 56555555 		.word	1431655766
 219              		.cfi_endproc
 220              	.LFE159:
 221              		.size	lv_draw_sw_layer_create, .-lv_draw_sw_layer_create
 222              		.section	.text.lv_draw_sw_layer_adjust,"ax",%progbits
 223              		.align	2
 224              		.global	lv_draw_sw_layer_adjust
 225              		.thumb
ARM GAS  C:\Users\haske\AppData\Local\Temp\ccoe6ixJ.s 			page 9


 226              		.thumb_func
 227              		.type	lv_draw_sw_layer_adjust, %function
 228              	lv_draw_sw_layer_adjust:
 229              	.LFB160:
  93:..\..\..\arduinoLCD\test\Pain Drain\libraries\lvgl\src\draw\sw/lv_draw_sw_layer.c **** 
  94:..\..\..\arduinoLCD\test\Pain Drain\libraries\lvgl\src\draw\sw/lv_draw_sw_layer.c **** void lv_draw_sw_layer_adjust(struct _lv_draw_ctx_t * draw_ctx, struct _lv_draw_layer_ctx_t * layer_
  95:..\..\..\arduinoLCD\test\Pain Drain\libraries\lvgl\src\draw\sw/lv_draw_sw_layer.c ****                              lv_draw_layer_flags_t flags)
  96:..\..\..\arduinoLCD\test\Pain Drain\libraries\lvgl\src\draw\sw/lv_draw_sw_layer.c **** {
 230              		.loc 1 96 0
 231              		.cfi_startproc
 232              		@ args = 0, pretend = 0, frame = 0
 233              		@ frame_needed = 0, uses_anonymous_args = 0
 234              	.LVL24:
 235 0000 F8B5     		push	{r3, r4, r5, r6, r7, lr}
 236              		.cfi_def_cfa_offset 24
 237              		.cfi_offset 3, -24
 238              		.cfi_offset 4, -20
 239              		.cfi_offset 5, -16
 240              		.cfi_offset 6, -12
 241              		.cfi_offset 7, -8
 242              		.cfi_offset 14, -4
 243 0002 0546     		mov	r5, r0
 244 0004 0C46     		mov	r4, r1
 245 0006 1646     		mov	r6, r2
 246              	.LVL25:
  97:..\..\..\arduinoLCD\test\Pain Drain\libraries\lvgl\src\draw\sw/lv_draw_sw_layer.c **** 
  98:..\..\..\arduinoLCD\test\Pain Drain\libraries\lvgl\src\draw\sw/lv_draw_sw_layer.c ****     lv_draw_sw_layer_ctx_t * layer_sw_ctx = (lv_draw_sw_layer_ctx_t *) layer_ctx;
  99:..\..\..\arduinoLCD\test\Pain Drain\libraries\lvgl\src\draw\sw/lv_draw_sw_layer.c ****     lv_disp_t * disp_refr = _lv_refr_get_disp_refreshing();
 247              		.loc 1 99 0
 248 0008 FFF7FEFF 		bl	_lv_refr_get_disp_refreshing
 249              	.LVL26:
 250 000c 0746     		mov	r7, r0
 251              	.LVL27:
 100:..\..\..\arduinoLCD\test\Pain Drain\libraries\lvgl\src\draw\sw/lv_draw_sw_layer.c ****     if(flags & LV_DRAW_LAYER_FLAG_HAS_ALPHA) {
 252              		.loc 1 100 0
 253 000e 16F0010F 		tst	r6, #1
 254 0012 11D0     		beq	.L15
 101:..\..\..\arduinoLCD\test\Pain Drain\libraries\lvgl\src\draw\sw/lv_draw_sw_layer.c ****         lv_memset_00(layer_ctx->buf, layer_sw_ctx->buf_size_bytes);
 255              		.loc 1 101 0
 256 0014 A16A     		ldr	r1, [r4, #40]
 257 0016 21F00041 		bic	r1, r1, #-2147483648
 258 001a 6069     		ldr	r0, [r4, #20]
 259              	.LVL28:
 260 001c FFF7FEFF 		bl	lv_memset_00
 261              	.LVL29:
 102:..\..\..\arduinoLCD\test\Pain Drain\libraries\lvgl\src\draw\sw/lv_draw_sw_layer.c ****         layer_sw_ctx->has_alpha = 1;
 262              		.loc 1 102 0
 263 0020 94F82B30 		ldrb	r3, [r4, #43]	@ zero_extendqisi2
 264 0024 43F08003 		orr	r3, r3, #128
 265 0028 84F82B30 		strb	r3, [r4, #43]
 103:..\..\..\arduinoLCD\test\Pain Drain\libraries\lvgl\src\draw\sw/lv_draw_sw_layer.c ****         disp_refr->driver->screen_transp = 1;
 266              		.loc 1 103 0
 267 002c 3A68     		ldr	r2, [r7]
 268 002e 137C     		ldrb	r3, [r2, #16]	@ zero_extendqisi2
 269 0030 43F04003 		orr	r3, r3, #64
 270 0034 1374     		strb	r3, [r2, #16]
 271 0036 0AE0     		b	.L16
ARM GAS  C:\Users\haske\AppData\Local\Temp\ccoe6ixJ.s 			page 10


 272              	.LVL30:
 273              	.L15:
 104:..\..\..\arduinoLCD\test\Pain Drain\libraries\lvgl\src\draw\sw/lv_draw_sw_layer.c ****     }
 105:..\..\..\arduinoLCD\test\Pain Drain\libraries\lvgl\src\draw\sw/lv_draw_sw_layer.c ****     else {
 106:..\..\..\arduinoLCD\test\Pain Drain\libraries\lvgl\src\draw\sw/lv_draw_sw_layer.c ****         layer_sw_ctx->has_alpha = 0;
 274              		.loc 1 106 0
 275 0038 94F82B30 		ldrb	r3, [r4, #43]	@ zero_extendqisi2
 276 003c 6FF3C713 		bfc	r3, #7, #1
 277 0040 84F82B30 		strb	r3, [r4, #43]
 107:..\..\..\arduinoLCD\test\Pain Drain\libraries\lvgl\src\draw\sw/lv_draw_sw_layer.c ****         disp_refr->driver->screen_transp = 0;
 278              		.loc 1 107 0
 279 0044 0368     		ldr	r3, [r0]
 280 0046 1A7C     		ldrb	r2, [r3, #16]	@ zero_extendqisi2
 281 0048 6FF38612 		bfc	r2, #6, #1
 282 004c 1A74     		strb	r2, [r3, #16]
 283              	.LVL31:
 284              	.L16:
 108:..\..\..\arduinoLCD\test\Pain Drain\libraries\lvgl\src\draw\sw/lv_draw_sw_layer.c ****     }
 109:..\..\..\arduinoLCD\test\Pain Drain\libraries\lvgl\src\draw\sw/lv_draw_sw_layer.c **** 
 110:..\..\..\arduinoLCD\test\Pain Drain\libraries\lvgl\src\draw\sw/lv_draw_sw_layer.c ****     draw_ctx->buf = layer_ctx->buf;
 285              		.loc 1 110 0
 286 004e 6369     		ldr	r3, [r4, #20]
 287 0050 2B60     		str	r3, [r5]
 111:..\..\..\arduinoLCD\test\Pain Drain\libraries\lvgl\src\draw\sw/lv_draw_sw_layer.c ****     draw_ctx->buf_area = &layer_ctx->area_act;
 288              		.loc 1 111 0
 289 0052 0834     		adds	r4, r4, #8
 290              	.LVL32:
 291 0054 6C60     		str	r4, [r5, #4]
 112:..\..\..\arduinoLCD\test\Pain Drain\libraries\lvgl\src\draw\sw/lv_draw_sw_layer.c ****     draw_ctx->clip_area = &layer_ctx->area_act;
 292              		.loc 1 112 0
 293 0056 AC60     		str	r4, [r5, #8]
 294 0058 F8BD     		pop	{r3, r4, r5, r6, r7, pc}
 295              		.cfi_endproc
 296              	.LFE160:
 297              		.size	lv_draw_sw_layer_adjust, .-lv_draw_sw_layer_adjust
 298 005a 00BF     		.section	.text.lv_draw_sw_layer_blend,"ax",%progbits
 299              		.align	2
 300              		.global	lv_draw_sw_layer_blend
 301              		.thumb
 302              		.thumb_func
 303              		.type	lv_draw_sw_layer_blend, %function
 304              	lv_draw_sw_layer_blend:
 305              	.LFB161:
 113:..\..\..\arduinoLCD\test\Pain Drain\libraries\lvgl\src\draw\sw/lv_draw_sw_layer.c **** }
 114:..\..\..\arduinoLCD\test\Pain Drain\libraries\lvgl\src\draw\sw/lv_draw_sw_layer.c **** 
 115:..\..\..\arduinoLCD\test\Pain Drain\libraries\lvgl\src\draw\sw/lv_draw_sw_layer.c **** void lv_draw_sw_layer_blend(struct _lv_draw_ctx_t * draw_ctx, struct _lv_draw_layer_ctx_t * layer_c
 116:..\..\..\arduinoLCD\test\Pain Drain\libraries\lvgl\src\draw\sw/lv_draw_sw_layer.c ****                             const lv_draw_img_dsc_t * draw_dsc)
 117:..\..\..\arduinoLCD\test\Pain Drain\libraries\lvgl\src\draw\sw/lv_draw_sw_layer.c **** {
 306              		.loc 1 117 0
 307              		.cfi_startproc
 308              		@ args = 0, pretend = 0, frame = 16
 309              		@ frame_needed = 0, uses_anonymous_args = 0
 310              	.LVL33:
 311 0000 F0B5     		push	{r4, r5, r6, r7, lr}
 312              		.cfi_def_cfa_offset 20
 313              		.cfi_offset 4, -20
 314              		.cfi_offset 5, -16
ARM GAS  C:\Users\haske\AppData\Local\Temp\ccoe6ixJ.s 			page 11


 315              		.cfi_offset 6, -12
 316              		.cfi_offset 7, -8
 317              		.cfi_offset 14, -4
 318 0002 85B0     		sub	sp, sp, #20
 319              		.cfi_def_cfa_offset 40
 320 0004 0446     		mov	r4, r0
 321 0006 0D46     		mov	r5, r1
 322 0008 1646     		mov	r6, r2
 323              	.LVL34:
 118:..\..\..\arduinoLCD\test\Pain Drain\libraries\lvgl\src\draw\sw/lv_draw_sw_layer.c ****     lv_draw_sw_layer_ctx_t * layer_sw_ctx = (lv_draw_sw_layer_ctx_t *) layer_ctx;
 119:..\..\..\arduinoLCD\test\Pain Drain\libraries\lvgl\src\draw\sw/lv_draw_sw_layer.c **** 
 120:..\..\..\arduinoLCD\test\Pain Drain\libraries\lvgl\src\draw\sw/lv_draw_sw_layer.c ****     lv_img_dsc_t img;
 121:..\..\..\arduinoLCD\test\Pain Drain\libraries\lvgl\src\draw\sw/lv_draw_sw_layer.c ****     img.data = draw_ctx->buf;
 324              		.loc 1 121 0
 325 000a 0368     		ldr	r3, [r0]
 326 000c 0393     		str	r3, [sp, #12]
 122:..\..\..\arduinoLCD\test\Pain Drain\libraries\lvgl\src\draw\sw/lv_draw_sw_layer.c ****     img.header.always_zero = 0;
 327              		.loc 1 122 0
 328 000e 9DF80430 		ldrb	r3, [sp, #4]	@ zero_extendqisi2
 329 0012 6FF34713 		bfc	r3, #5, #3
 330 0016 8DF80430 		strb	r3, [sp, #4]
 123:..\..\..\arduinoLCD\test\Pain Drain\libraries\lvgl\src\draw\sw/lv_draw_sw_layer.c ****     img.header.w = lv_area_get_width(draw_ctx->buf_area);
 331              		.loc 1 123 0
 332 001a 4268     		ldr	r2, [r0, #4]
 333              	.LVL35:
 334              	.LBB16:
 335              	.LBB17:
 336              		.loc 2 125 0
 337 001c B2F90430 		ldrsh	r3, [r2, #4]
 338 0020 B2F90010 		ldrsh	r1, [r2]
 339              	.LVL36:
 340 0024 5B1A     		subs	r3, r3, r1
 341 0026 0133     		adds	r3, r3, #1
 342 0028 9BB2     		uxth	r3, r3
 343              	.LVL37:
 344              	.LBE17:
 345              	.LBE16:
 346              		.loc 1 123 0
 347 002a 0199     		ldr	r1, [sp, #4]
 348 002c 63F39421 		bfi	r1, r3, #10, #11
 349 0030 0191     		str	r1, [sp, #4]
 350              	.LVL38:
 351              	.LBB18:
 352              	.LBB19:
 126:c:\projects\paindrain\arduinolcd\test\pain drain\libraries\lvgl\src\misc\lv_area.h **** }
 127:c:\projects\paindrain\arduinolcd\test\pain drain\libraries\lvgl\src\misc\lv_area.h **** 
 128:c:\projects\paindrain\arduinolcd\test\pain drain\libraries\lvgl\src\misc\lv_area.h **** /**
 129:c:\projects\paindrain\arduinolcd\test\pain drain\libraries\lvgl\src\misc\lv_area.h ****  * Get the height of an area
 130:c:\projects\paindrain\arduinolcd\test\pain drain\libraries\lvgl\src\misc\lv_area.h ****  * @param area_p pointer to an area
 131:c:\projects\paindrain\arduinolcd\test\pain drain\libraries\lvgl\src\misc\lv_area.h ****  * @return the height of the area (if y1 == y2 -> height = 1)
 132:c:\projects\paindrain\arduinolcd\test\pain drain\libraries\lvgl\src\misc\lv_area.h ****  */
 133:c:\projects\paindrain\arduinolcd\test\pain drain\libraries\lvgl\src\misc\lv_area.h **** static inline lv_coord_t lv_area_get_height(const lv_area_t * area_p)
 134:c:\projects\paindrain\arduinolcd\test\pain drain\libraries\lvgl\src\misc\lv_area.h **** {
 135:c:\projects\paindrain\arduinolcd\test\pain drain\libraries\lvgl\src\misc\lv_area.h ****     return (lv_coord_t)(area_p->y2 - area_p->y1 + 1);
 353              		.loc 2 135 0
 354 0032 B2F90630 		ldrsh	r3, [r2, #6]
 355 0036 B2F90220 		ldrsh	r2, [r2, #2]
ARM GAS  C:\Users\haske\AppData\Local\Temp\ccoe6ixJ.s 			page 12


 356              	.LVL39:
 357 003a 9B1A     		subs	r3, r3, r2
 358 003c 0133     		adds	r3, r3, #1
 359 003e 9BB2     		uxth	r3, r3
 360              	.LBE19:
 361              	.LBE18:
 124:..\..\..\arduinoLCD\test\Pain Drain\libraries\lvgl\src\draw\sw/lv_draw_sw_layer.c ****     img.header.h = lv_area_get_height(draw_ctx->buf_area);
 362              		.loc 1 124 0
 363 0040 BDF80620 		ldrh	r2, [sp, #6]
 364 0044 63F34F12 		bfi	r2, r3, #5, #11
 365 0048 ADF80620 		strh	r2, [sp, #6]	@ movhi
 125:..\..\..\arduinoLCD\test\Pain Drain\libraries\lvgl\src\draw\sw/lv_draw_sw_layer.c ****     img.header.cf = layer_sw_ctx->has_alpha ? LV_IMG_CF_TRUE_COLOR_ALPHA : LV_IMG_CF_TRUE_COLOR;
 366              		.loc 1 125 0
 367 004c 95F82B30 		ldrb	r3, [r5, #43]	@ zero_extendqisi2
 368 0050 13F0800F 		tst	r3, #128
 369 0054 01D0     		beq	.L20
 370 0056 0522     		movs	r2, #5
 371 0058 00E0     		b	.L19
 372              	.L20:
 373 005a 0422     		movs	r2, #4
 374              	.L19:
 375              		.loc 1 125 0 is_stmt 0 discriminator 4
 376 005c 9DF80430 		ldrb	r3, [sp, #4]	@ zero_extendqisi2
 377 0060 62F30403 		bfi	r3, r2, #0, #5
 378 0064 04AF     		add	r7, sp, #16
 379 0066 07F80C3D 		strb	r3, [r7, #-12]!
 126:..\..\..\arduinoLCD\test\Pain Drain\libraries\lvgl\src\draw\sw/lv_draw_sw_layer.c **** 
 127:..\..\..\arduinoLCD\test\Pain Drain\libraries\lvgl\src\draw\sw/lv_draw_sw_layer.c ****     /*Restore the original draw_ctx*/
 128:..\..\..\arduinoLCD\test\Pain Drain\libraries\lvgl\src\draw\sw/lv_draw_sw_layer.c ****     draw_ctx->buf = layer_ctx->original.buf;
 380              		.loc 1 128 0 is_stmt 1 discriminator 4
 381 006a 2B6A     		ldr	r3, [r5, #32]
 382 006c 2360     		str	r3, [r4]
 129:..\..\..\arduinoLCD\test\Pain Drain\libraries\lvgl\src\draw\sw/lv_draw_sw_layer.c ****     draw_ctx->buf_area = layer_ctx->original.buf_area;
 383              		.loc 1 129 0 discriminator 4
 384 006e EB69     		ldr	r3, [r5, #28]
 385 0070 6360     		str	r3, [r4, #4]
 130:..\..\..\arduinoLCD\test\Pain Drain\libraries\lvgl\src\draw\sw/lv_draw_sw_layer.c ****     draw_ctx->clip_area = layer_ctx->original.clip_area;
 386              		.loc 1 130 0 discriminator 4
 387 0072 AB69     		ldr	r3, [r5, #24]
 388 0074 A360     		str	r3, [r4, #8]
 131:..\..\..\arduinoLCD\test\Pain Drain\libraries\lvgl\src\draw\sw/lv_draw_sw_layer.c ****     lv_disp_t * disp_refr = _lv_refr_get_disp_refreshing();
 389              		.loc 1 131 0 discriminator 4
 390 0076 FFF7FEFF 		bl	_lv_refr_get_disp_refreshing
 391              	.LVL40:
 132:..\..\..\arduinoLCD\test\Pain Drain\libraries\lvgl\src\draw\sw/lv_draw_sw_layer.c ****     disp_refr->driver->screen_transp = layer_ctx->original.screen_transp;
 392              		.loc 1 132 0 discriminator 4
 393 007a 0368     		ldr	r3, [r0]
 394 007c 95F82410 		ldrb	r1, [r5, #36]	@ zero_extendqisi2
 395 0080 1A7C     		ldrb	r2, [r3, #16]	@ zero_extendqisi2
 396 0082 61F38612 		bfi	r2, r1, #6, #1
 397 0086 1A74     		strb	r2, [r3, #16]
 133:..\..\..\arduinoLCD\test\Pain Drain\libraries\lvgl\src\draw\sw/lv_draw_sw_layer.c **** 
 134:..\..\..\arduinoLCD\test\Pain Drain\libraries\lvgl\src\draw\sw/lv_draw_sw_layer.c ****     /*Blend the layer*/
 135:..\..\..\arduinoLCD\test\Pain Drain\libraries\lvgl\src\draw\sw/lv_draw_sw_layer.c ****     lv_draw_img(draw_ctx, draw_dsc, &layer_ctx->area_act, &img);
 398              		.loc 1 135 0 discriminator 4
 399 0088 3B46     		mov	r3, r7
 400 008a 05F10802 		add	r2, r5, #8
ARM GAS  C:\Users\haske\AppData\Local\Temp\ccoe6ixJ.s 			page 13


 401 008e 3146     		mov	r1, r6
 402 0090 2046     		mov	r0, r4
 403              	.LVL41:
 404 0092 FFF7FEFF 		bl	lv_draw_img
 405              	.LVL42:
 136:..\..\..\arduinoLCD\test\Pain Drain\libraries\lvgl\src\draw\sw/lv_draw_sw_layer.c ****     lv_draw_wait_for_finish(draw_ctx);
 406              		.loc 1 136 0 discriminator 4
 407 0096 2046     		mov	r0, r4
 408 0098 FFF7FEFF 		bl	lv_draw_wait_for_finish
 409              	.LVL43:
 137:..\..\..\arduinoLCD\test\Pain Drain\libraries\lvgl\src\draw\sw/lv_draw_sw_layer.c ****     lv_img_cache_invalidate_src(&img);
 410              		.loc 1 137 0 discriminator 4
 411 009c 3846     		mov	r0, r7
 412 009e FFF7FEFF 		bl	lv_img_cache_invalidate_src
 413              	.LVL44:
 138:..\..\..\arduinoLCD\test\Pain Drain\libraries\lvgl\src\draw\sw/lv_draw_sw_layer.c **** }
 414              		.loc 1 138 0 discriminator 4
 415 00a2 05B0     		add	sp, sp, #20
 416              		.cfi_def_cfa_offset 20
 417              		@ sp needed
 418 00a4 F0BD     		pop	{r4, r5, r6, r7, pc}
 419              		.cfi_endproc
 420              	.LFE161:
 421              		.size	lv_draw_sw_layer_blend, .-lv_draw_sw_layer_blend
 422 00a6 00BF     		.section	.text.lv_draw_sw_layer_destroy,"ax",%progbits
 423              		.align	2
 424              		.global	lv_draw_sw_layer_destroy
 425              		.thumb
 426              		.thumb_func
 427              		.type	lv_draw_sw_layer_destroy, %function
 428              	lv_draw_sw_layer_destroy:
 429              	.LFB162:
 139:..\..\..\arduinoLCD\test\Pain Drain\libraries\lvgl\src\draw\sw/lv_draw_sw_layer.c **** 
 140:..\..\..\arduinoLCD\test\Pain Drain\libraries\lvgl\src\draw\sw/lv_draw_sw_layer.c **** void lv_draw_sw_layer_destroy(lv_draw_ctx_t * draw_ctx, lv_draw_layer_ctx_t * layer_ctx)
 141:..\..\..\arduinoLCD\test\Pain Drain\libraries\lvgl\src\draw\sw/lv_draw_sw_layer.c **** {
 430              		.loc 1 141 0
 431              		.cfi_startproc
 432              		@ args = 0, pretend = 0, frame = 0
 433              		@ frame_needed = 0, uses_anonymous_args = 0
 434              	.LVL45:
 435 0000 08B5     		push	{r3, lr}
 436              		.cfi_def_cfa_offset 8
 437              		.cfi_offset 3, -8
 438              		.cfi_offset 14, -4
 142:..\..\..\arduinoLCD\test\Pain Drain\libraries\lvgl\src\draw\sw/lv_draw_sw_layer.c ****     LV_UNUSED(draw_ctx);
 143:..\..\..\arduinoLCD\test\Pain Drain\libraries\lvgl\src\draw\sw/lv_draw_sw_layer.c **** 
 144:..\..\..\arduinoLCD\test\Pain Drain\libraries\lvgl\src\draw\sw/lv_draw_sw_layer.c ****     lv_mem_free(layer_ctx->buf);
 439              		.loc 1 144 0
 440 0002 4869     		ldr	r0, [r1, #20]
 441              	.LVL46:
 442 0004 FFF7FEFF 		bl	lv_mem_free
 443              	.LVL47:
 444 0008 08BD     		pop	{r3, pc}
 445              		.cfi_endproc
 446              	.LFE162:
 447              		.size	lv_draw_sw_layer_destroy, .-lv_draw_sw_layer_destroy
 448 000a 00BF     		.text
ARM GAS  C:\Users\haske\AppData\Local\Temp\ccoe6ixJ.s 			page 14


 449              	.Letext0:
 450              		.file 3 "c:\\program files (x86)\\cypress\\psoc creator\\4.4\\psoc creator\\import\\gnu\\arm\\5.4.
 451              		.file 4 "c:\\program files (x86)\\cypress\\psoc creator\\4.4\\psoc creator\\import\\gnu\\arm\\5.4.
 452              		.file 5 "c:\\projects\\paindrain\\arduinolcd\\test\\pain drain\\libraries\\lvgl\\src\\misc\\lv_typ
 453              		.file 6 "c:\\program files (x86)\\cypress\\psoc creator\\4.4\\psoc creator\\import\\gnu\\arm\\5.4.
 454              		.file 7 "c:\\projects\\paindrain\\arduinolcd\\test\\pain drain\\libraries\\lvgl\\src\\misc\\lv_col
 455              		.file 8 "c:\\projects\\paindrain\\arduinolcd\\test\\pain drain\\libraries\\lvgl\\src\\font\\lv_fon
 456              		.file 9 "c:\\projects\\paindrain\\arduinolcd\\test\\pain drain\\libraries\\lvgl\\src\\misc\\lv_txt
 457              		.file 10 "c:\\projects\\paindrain\\arduinolcd\\test\\pain drain\\libraries\\lvgl\\src\\misc\\lv_bi
 458              		.file 11 "c:\\projects\\paindrain\\arduinolcd\\test\\pain drain\\libraries\\lvgl\\src\\misc\\lv_st
 459              		.file 12 "..\\..\\..\\arduinoLCD\\test\\Pain Drain\\libraries\\lvgl\\src\\draw\\sw\\../lv_img_buf.
 460              		.file 13 "c:\\projects\\paindrain\\arduinolcd\\test\\pain drain\\libraries\\lvgl\\src\\core\\lv_ob
 461              		.file 14 "..\\..\\..\\arduinoLCD\\test\\Pain Drain\\libraries\\lvgl\\src\\draw\\sw\\../lv_draw_rec
 462              		.file 15 "..\\..\\..\\arduinoLCD\\test\\Pain Drain\\libraries\\lvgl\\src\\draw\\sw\\../lv_draw_lab
 463              		.file 16 "..\\..\\..\\arduinoLCD\\test\\Pain Drain\\libraries\\lvgl\\src\\draw\\sw\\../lv_draw_img
 464              		.file 17 "..\\..\\..\\arduinoLCD\\test\\Pain Drain\\libraries\\lvgl\\src\\draw\\sw\\../lv_draw_lin
 465              		.file 18 "..\\..\\..\\arduinoLCD\\test\\Pain Drain\\libraries\\lvgl\\src\\draw\\sw\\../lv_draw_arc
 466              		.file 19 "..\\..\\..\\arduinoLCD\\test\\Pain Drain\\libraries\\lvgl\\src\\draw\\sw\\../lv_draw_lay
 467              		.file 20 "..\\..\\..\\arduinoLCD\\test\\Pain Drain\\libraries\\lvgl\\src\\draw\\sw\\../lv_draw.h"
 468              		.file 21 "c:\\projects\\paindrain\\arduinolcd\\test\\pain drain\\libraries\\lvgl\\src\\misc\\lv_ti
 469              		.file 22 "c:\\projects\\paindrain\\arduinolcd\\test\\pain drain\\libraries\\lvgl\\src\\hal\\lv_hal
 470              		.file 23 "c:\\projects\\paindrain\\arduinolcd\\test\\pain drain\\libraries\\lvgl\\src\\core\\lv_gr
 471              		.file 24 "c:\\projects\\paindrain\\arduinolcd\\test\\pain drain\\libraries\\lvgl\\src\\misc\\lv_ll
 472              		.file 25 "..\\..\\..\\arduinoLCD\\test\\Pain Drain\\libraries\\lvgl\\src\\draw\\sw\\lv_draw_sw.h"
 473              		.file 26 "c:\\projects\\paindrain\\arduinolcd\\test\\pain drain\\libraries\\lvgl\\src\\core\\lv_ob
 474              		.file 27 "c:\\projects\\paindrain\\arduinolcd\\test\\pain drain\\libraries\\lvgl\\src\\core\\lv_ob
 475              		.file 28 "c:\\projects\\paindrain\\arduinolcd\\test\\pain drain\\libraries\\lvgl\\src\\core\\lv_ob
 476              		.file 29 "c:\\projects\\paindrain\\arduinolcd\\test\\pain drain\\libraries\\lvgl\\src\\core\\lv_ev
 477              		.file 30 "c:\\projects\\paindrain\\arduinolcd\\test\\pain drain\\libraries\\lvgl\\src\\misc\\lv_me
 478              		.file 31 "c:\\projects\\paindrain\\arduinolcd\\test\\pain drain\\libraries\\lvgl\\src\\core\\lv_re
 479              		.file 32 "..\\..\\..\\arduinoLCD\\test\\Pain Drain\\libraries\\lvgl\\src\\draw\\sw\\../lv_img_cach