ARM GAS  C:\Users\haske\AppData\Local\Temp\cc9HFfJU.s 			page 1


   1              		.syntax unified
   2              		.cpu cortex-m4
   3              		.eabi_attribute 27, 1
   4              		.fpu fpv4-sp-d16
   5              		.eabi_attribute 20, 1
   6              		.eabi_attribute 21, 1
   7              		.eabi_attribute 23, 3
   8              		.eabi_attribute 24, 1
   9              		.eabi_attribute 25, 1
  10              		.eabi_attribute 26, 1
  11              		.eabi_attribute 30, 1
  12              		.eabi_attribute 34, 1
  13              		.eabi_attribute 18, 4
  14              		.thumb
  15              		.syntax unified
  16              		.file	"lv_draw_sw_transform.c"
  17              		.text
  18              	.Ltext0:
  19              		.cfi_sections	.debug_frame
  20              		.section	.text.argb_no_aa,"ax",%progbits
  21              		.align	2
  22              		.thumb
  23              		.thumb_func
  24              		.type	argb_no_aa, %function
  25              	argb_no_aa:
  26              	.LFB161:
  27              		.file 1 "..\\..\\..\\arduinoLCD\\test\\Pain Drain\\libraries\\lvgl\\src\\draw\\sw\\lv_draw_sw_tran
   1:..\..\..\arduinoLCD\test\Pain Drain\libraries\lvgl\src\draw\sw/lv_draw_sw_transform.c **** /**
   2:..\..\..\arduinoLCD\test\Pain Drain\libraries\lvgl\src\draw\sw/lv_draw_sw_transform.c ****  * @file lv_draw_sw_tranform.c
   3:..\..\..\arduinoLCD\test\Pain Drain\libraries\lvgl\src\draw\sw/lv_draw_sw_transform.c ****  *
   4:..\..\..\arduinoLCD\test\Pain Drain\libraries\lvgl\src\draw\sw/lv_draw_sw_transform.c ****  */
   5:..\..\..\arduinoLCD\test\Pain Drain\libraries\lvgl\src\draw\sw/lv_draw_sw_transform.c **** 
   6:..\..\..\arduinoLCD\test\Pain Drain\libraries\lvgl\src\draw\sw/lv_draw_sw_transform.c **** /*********************
   7:..\..\..\arduinoLCD\test\Pain Drain\libraries\lvgl\src\draw\sw/lv_draw_sw_transform.c ****  *      INCLUDES
   8:..\..\..\arduinoLCD\test\Pain Drain\libraries\lvgl\src\draw\sw/lv_draw_sw_transform.c ****  *********************/
   9:..\..\..\arduinoLCD\test\Pain Drain\libraries\lvgl\src\draw\sw/lv_draw_sw_transform.c **** #include "lv_draw_sw.h"
  10:..\..\..\arduinoLCD\test\Pain Drain\libraries\lvgl\src\draw\sw/lv_draw_sw_transform.c **** #include "../../misc/lv_assert.h"
  11:..\..\..\arduinoLCD\test\Pain Drain\libraries\lvgl\src\draw\sw/lv_draw_sw_transform.c **** #include "../../misc/lv_area.h"
  12:..\..\..\arduinoLCD\test\Pain Drain\libraries\lvgl\src\draw\sw/lv_draw_sw_transform.c **** #include "../../core/lv_refr.h"
  13:..\..\..\arduinoLCD\test\Pain Drain\libraries\lvgl\src\draw\sw/lv_draw_sw_transform.c **** 
  14:..\..\..\arduinoLCD\test\Pain Drain\libraries\lvgl\src\draw\sw/lv_draw_sw_transform.c **** #if LV_DRAW_COMPLEX
  15:..\..\..\arduinoLCD\test\Pain Drain\libraries\lvgl\src\draw\sw/lv_draw_sw_transform.c **** /*********************
  16:..\..\..\arduinoLCD\test\Pain Drain\libraries\lvgl\src\draw\sw/lv_draw_sw_transform.c ****  *      DEFINES
  17:..\..\..\arduinoLCD\test\Pain Drain\libraries\lvgl\src\draw\sw/lv_draw_sw_transform.c ****  *********************/
  18:..\..\..\arduinoLCD\test\Pain Drain\libraries\lvgl\src\draw\sw/lv_draw_sw_transform.c **** 
  19:..\..\..\arduinoLCD\test\Pain Drain\libraries\lvgl\src\draw\sw/lv_draw_sw_transform.c **** /**********************
  20:..\..\..\arduinoLCD\test\Pain Drain\libraries\lvgl\src\draw\sw/lv_draw_sw_transform.c ****  *      TYPEDEFS
  21:..\..\..\arduinoLCD\test\Pain Drain\libraries\lvgl\src\draw\sw/lv_draw_sw_transform.c ****  **********************/
  22:..\..\..\arduinoLCD\test\Pain Drain\libraries\lvgl\src\draw\sw/lv_draw_sw_transform.c **** typedef struct {
  23:..\..\..\arduinoLCD\test\Pain Drain\libraries\lvgl\src\draw\sw/lv_draw_sw_transform.c ****     int32_t x_in;
  24:..\..\..\arduinoLCD\test\Pain Drain\libraries\lvgl\src\draw\sw/lv_draw_sw_transform.c ****     int32_t y_in;
  25:..\..\..\arduinoLCD\test\Pain Drain\libraries\lvgl\src\draw\sw/lv_draw_sw_transform.c ****     int32_t x_out;
  26:..\..\..\arduinoLCD\test\Pain Drain\libraries\lvgl\src\draw\sw/lv_draw_sw_transform.c ****     int32_t y_out;
  27:..\..\..\arduinoLCD\test\Pain Drain\libraries\lvgl\src\draw\sw/lv_draw_sw_transform.c ****     int32_t sinma;
  28:..\..\..\arduinoLCD\test\Pain Drain\libraries\lvgl\src\draw\sw/lv_draw_sw_transform.c ****     int32_t cosma;
  29:..\..\..\arduinoLCD\test\Pain Drain\libraries\lvgl\src\draw\sw/lv_draw_sw_transform.c ****     int32_t zoom;
  30:..\..\..\arduinoLCD\test\Pain Drain\libraries\lvgl\src\draw\sw/lv_draw_sw_transform.c ****     int32_t angle;
ARM GAS  C:\Users\haske\AppData\Local\Temp\cc9HFfJU.s 			page 2


  31:..\..\..\arduinoLCD\test\Pain Drain\libraries\lvgl\src\draw\sw/lv_draw_sw_transform.c ****     int32_t pivot_x_256;
  32:..\..\..\arduinoLCD\test\Pain Drain\libraries\lvgl\src\draw\sw/lv_draw_sw_transform.c ****     int32_t pivot_y_256;
  33:..\..\..\arduinoLCD\test\Pain Drain\libraries\lvgl\src\draw\sw/lv_draw_sw_transform.c ****     lv_point_t pivot;
  34:..\..\..\arduinoLCD\test\Pain Drain\libraries\lvgl\src\draw\sw/lv_draw_sw_transform.c **** } point_transform_dsc_t;
  35:..\..\..\arduinoLCD\test\Pain Drain\libraries\lvgl\src\draw\sw/lv_draw_sw_transform.c **** 
  36:..\..\..\arduinoLCD\test\Pain Drain\libraries\lvgl\src\draw\sw/lv_draw_sw_transform.c **** /**********************
  37:..\..\..\arduinoLCD\test\Pain Drain\libraries\lvgl\src\draw\sw/lv_draw_sw_transform.c ****  *  STATIC PROTOTYPES
  38:..\..\..\arduinoLCD\test\Pain Drain\libraries\lvgl\src\draw\sw/lv_draw_sw_transform.c ****  **********************/
  39:..\..\..\arduinoLCD\test\Pain Drain\libraries\lvgl\src\draw\sw/lv_draw_sw_transform.c **** /**
  40:..\..\..\arduinoLCD\test\Pain Drain\libraries\lvgl\src\draw\sw/lv_draw_sw_transform.c ****  * Transform a point with 1/256 precision (the output coordinates are upscaled by 256)
  41:..\..\..\arduinoLCD\test\Pain Drain\libraries\lvgl\src\draw\sw/lv_draw_sw_transform.c ****  * @param t         pointer to n initialized `point_transform_dsc_t` structure
  42:..\..\..\arduinoLCD\test\Pain Drain\libraries\lvgl\src\draw\sw/lv_draw_sw_transform.c ****  * @param xin       X coordinate to rotate
  43:..\..\..\arduinoLCD\test\Pain Drain\libraries\lvgl\src\draw\sw/lv_draw_sw_transform.c ****  * @param yin       Y coordinate to rotate
  44:..\..\..\arduinoLCD\test\Pain Drain\libraries\lvgl\src\draw\sw/lv_draw_sw_transform.c ****  * @param xout      upscaled, transformed X
  45:..\..\..\arduinoLCD\test\Pain Drain\libraries\lvgl\src\draw\sw/lv_draw_sw_transform.c ****  * @param yout      upscaled, transformed Y
  46:..\..\..\arduinoLCD\test\Pain Drain\libraries\lvgl\src\draw\sw/lv_draw_sw_transform.c ****  */
  47:..\..\..\arduinoLCD\test\Pain Drain\libraries\lvgl\src\draw\sw/lv_draw_sw_transform.c **** static void transform_point_upscaled(point_transform_dsc_t * t, int32_t xin, int32_t yin, int32_t *
  48:..\..\..\arduinoLCD\test\Pain Drain\libraries\lvgl\src\draw\sw/lv_draw_sw_transform.c ****                                      int32_t * yout);
  49:..\..\..\arduinoLCD\test\Pain Drain\libraries\lvgl\src\draw\sw/lv_draw_sw_transform.c **** 
  50:..\..\..\arduinoLCD\test\Pain Drain\libraries\lvgl\src\draw\sw/lv_draw_sw_transform.c **** static void argb_no_aa(const uint8_t * src, lv_coord_t src_w, lv_coord_t src_h, lv_coord_t src_stri
  51:..\..\..\arduinoLCD\test\Pain Drain\libraries\lvgl\src\draw\sw/lv_draw_sw_transform.c ****                        int32_t xs_ups, int32_t ys_ups, int32_t xs_step, int32_t ys_step,
  52:..\..\..\arduinoLCD\test\Pain Drain\libraries\lvgl\src\draw\sw/lv_draw_sw_transform.c ****                        int32_t x_end, lv_color_t * cbuf, uint8_t * abuf);
  53:..\..\..\arduinoLCD\test\Pain Drain\libraries\lvgl\src\draw\sw/lv_draw_sw_transform.c **** 
  54:..\..\..\arduinoLCD\test\Pain Drain\libraries\lvgl\src\draw\sw/lv_draw_sw_transform.c **** static void rgb_no_aa(const uint8_t * src, lv_coord_t src_w, lv_coord_t src_h, lv_coord_t src_strid
  55:..\..\..\arduinoLCD\test\Pain Drain\libraries\lvgl\src\draw\sw/lv_draw_sw_transform.c ****                       int32_t xs_ups, int32_t ys_ups, int32_t xs_step, int32_t ys_step,
  56:..\..\..\arduinoLCD\test\Pain Drain\libraries\lvgl\src\draw\sw/lv_draw_sw_transform.c ****                       int32_t x_end, lv_color_t * cbuf, uint8_t * abuf, lv_img_cf_t cf);
  57:..\..\..\arduinoLCD\test\Pain Drain\libraries\lvgl\src\draw\sw/lv_draw_sw_transform.c **** 
  58:..\..\..\arduinoLCD\test\Pain Drain\libraries\lvgl\src\draw\sw/lv_draw_sw_transform.c **** #if LV_COLOR_DEPTH == 16
  59:..\..\..\arduinoLCD\test\Pain Drain\libraries\lvgl\src\draw\sw/lv_draw_sw_transform.c **** static void rgb565a8_no_aa(const uint8_t * src, lv_coord_t src_w, lv_coord_t src_h, lv_coord_t src_
  60:..\..\..\arduinoLCD\test\Pain Drain\libraries\lvgl\src\draw\sw/lv_draw_sw_transform.c ****                            int32_t xs_ups, int32_t ys_ups, int32_t xs_step, int32_t ys_step,
  61:..\..\..\arduinoLCD\test\Pain Drain\libraries\lvgl\src\draw\sw/lv_draw_sw_transform.c ****                            int32_t x_end, lv_color_t * cbuf, uint8_t * abuf);
  62:..\..\..\arduinoLCD\test\Pain Drain\libraries\lvgl\src\draw\sw/lv_draw_sw_transform.c **** #endif
  63:..\..\..\arduinoLCD\test\Pain Drain\libraries\lvgl\src\draw\sw/lv_draw_sw_transform.c **** 
  64:..\..\..\arduinoLCD\test\Pain Drain\libraries\lvgl\src\draw\sw/lv_draw_sw_transform.c **** static void argb_and_rgb_aa(const uint8_t * src, lv_coord_t src_w, lv_coord_t src_h, lv_coord_t src
  65:..\..\..\arduinoLCD\test\Pain Drain\libraries\lvgl\src\draw\sw/lv_draw_sw_transform.c ****                             int32_t xs_ups, int32_t ys_ups, int32_t xs_step, int32_t ys_step,
  66:..\..\..\arduinoLCD\test\Pain Drain\libraries\lvgl\src\draw\sw/lv_draw_sw_transform.c ****                             int32_t x_end, lv_color_t * cbuf, uint8_t * abuf, lv_img_cf_t cf);
  67:..\..\..\arduinoLCD\test\Pain Drain\libraries\lvgl\src\draw\sw/lv_draw_sw_transform.c **** 
  68:..\..\..\arduinoLCD\test\Pain Drain\libraries\lvgl\src\draw\sw/lv_draw_sw_transform.c **** /**********************
  69:..\..\..\arduinoLCD\test\Pain Drain\libraries\lvgl\src\draw\sw/lv_draw_sw_transform.c ****  *  STATIC VARIABLES
  70:..\..\..\arduinoLCD\test\Pain Drain\libraries\lvgl\src\draw\sw/lv_draw_sw_transform.c ****  **********************/
  71:..\..\..\arduinoLCD\test\Pain Drain\libraries\lvgl\src\draw\sw/lv_draw_sw_transform.c **** 
  72:..\..\..\arduinoLCD\test\Pain Drain\libraries\lvgl\src\draw\sw/lv_draw_sw_transform.c **** /**********************
  73:..\..\..\arduinoLCD\test\Pain Drain\libraries\lvgl\src\draw\sw/lv_draw_sw_transform.c ****  *      MACROS
  74:..\..\..\arduinoLCD\test\Pain Drain\libraries\lvgl\src\draw\sw/lv_draw_sw_transform.c ****  **********************/
  75:..\..\..\arduinoLCD\test\Pain Drain\libraries\lvgl\src\draw\sw/lv_draw_sw_transform.c **** 
  76:..\..\..\arduinoLCD\test\Pain Drain\libraries\lvgl\src\draw\sw/lv_draw_sw_transform.c **** /**********************
  77:..\..\..\arduinoLCD\test\Pain Drain\libraries\lvgl\src\draw\sw/lv_draw_sw_transform.c ****  *   GLOBAL FUNCTIONS
  78:..\..\..\arduinoLCD\test\Pain Drain\libraries\lvgl\src\draw\sw/lv_draw_sw_transform.c ****  **********************/
  79:..\..\..\arduinoLCD\test\Pain Drain\libraries\lvgl\src\draw\sw/lv_draw_sw_transform.c **** 
  80:..\..\..\arduinoLCD\test\Pain Drain\libraries\lvgl\src\draw\sw/lv_draw_sw_transform.c **** void lv_draw_sw_transform(lv_draw_ctx_t * draw_ctx, const lv_area_t * dest_area, const void * src_b
  81:..\..\..\arduinoLCD\test\Pain Drain\libraries\lvgl\src\draw\sw/lv_draw_sw_transform.c ****                           lv_coord_t src_w, lv_coord_t src_h, lv_coord_t src_stride,
  82:..\..\..\arduinoLCD\test\Pain Drain\libraries\lvgl\src\draw\sw/lv_draw_sw_transform.c ****                           const lv_draw_img_dsc_t * draw_dsc, lv_img_cf_t cf, lv_color_t * cbuf, lv
  83:..\..\..\arduinoLCD\test\Pain Drain\libraries\lvgl\src\draw\sw/lv_draw_sw_transform.c **** {
  84:..\..\..\arduinoLCD\test\Pain Drain\libraries\lvgl\src\draw\sw/lv_draw_sw_transform.c ****     LV_UNUSED(draw_ctx);
  85:..\..\..\arduinoLCD\test\Pain Drain\libraries\lvgl\src\draw\sw/lv_draw_sw_transform.c **** 
  86:..\..\..\arduinoLCD\test\Pain Drain\libraries\lvgl\src\draw\sw/lv_draw_sw_transform.c ****     point_transform_dsc_t tr_dsc;
  87:..\..\..\arduinoLCD\test\Pain Drain\libraries\lvgl\src\draw\sw/lv_draw_sw_transform.c ****     tr_dsc.angle = -draw_dsc->angle;
ARM GAS  C:\Users\haske\AppData\Local\Temp\cc9HFfJU.s 			page 3


  88:..\..\..\arduinoLCD\test\Pain Drain\libraries\lvgl\src\draw\sw/lv_draw_sw_transform.c ****     tr_dsc.zoom = (256 * 256) / draw_dsc->zoom;
  89:..\..\..\arduinoLCD\test\Pain Drain\libraries\lvgl\src\draw\sw/lv_draw_sw_transform.c ****     tr_dsc.pivot = draw_dsc->pivot;
  90:..\..\..\arduinoLCD\test\Pain Drain\libraries\lvgl\src\draw\sw/lv_draw_sw_transform.c **** 
  91:..\..\..\arduinoLCD\test\Pain Drain\libraries\lvgl\src\draw\sw/lv_draw_sw_transform.c ****     int32_t angle_low = tr_dsc.angle / 10;
  92:..\..\..\arduinoLCD\test\Pain Drain\libraries\lvgl\src\draw\sw/lv_draw_sw_transform.c ****     int32_t angle_high = angle_low + 1;
  93:..\..\..\arduinoLCD\test\Pain Drain\libraries\lvgl\src\draw\sw/lv_draw_sw_transform.c ****     int32_t angle_rem = tr_dsc.angle  - (angle_low * 10);
  94:..\..\..\arduinoLCD\test\Pain Drain\libraries\lvgl\src\draw\sw/lv_draw_sw_transform.c **** 
  95:..\..\..\arduinoLCD\test\Pain Drain\libraries\lvgl\src\draw\sw/lv_draw_sw_transform.c ****     int32_t s1 = lv_trigo_sin(angle_low);
  96:..\..\..\arduinoLCD\test\Pain Drain\libraries\lvgl\src\draw\sw/lv_draw_sw_transform.c ****     int32_t s2 = lv_trigo_sin(angle_high);
  97:..\..\..\arduinoLCD\test\Pain Drain\libraries\lvgl\src\draw\sw/lv_draw_sw_transform.c **** 
  98:..\..\..\arduinoLCD\test\Pain Drain\libraries\lvgl\src\draw\sw/lv_draw_sw_transform.c ****     int32_t c1 = lv_trigo_sin(angle_low + 90);
  99:..\..\..\arduinoLCD\test\Pain Drain\libraries\lvgl\src\draw\sw/lv_draw_sw_transform.c ****     int32_t c2 = lv_trigo_sin(angle_high + 90);
 100:..\..\..\arduinoLCD\test\Pain Drain\libraries\lvgl\src\draw\sw/lv_draw_sw_transform.c **** 
 101:..\..\..\arduinoLCD\test\Pain Drain\libraries\lvgl\src\draw\sw/lv_draw_sw_transform.c ****     tr_dsc.sinma = (s1 * (10 - angle_rem) + s2 * angle_rem) / 10;
 102:..\..\..\arduinoLCD\test\Pain Drain\libraries\lvgl\src\draw\sw/lv_draw_sw_transform.c ****     tr_dsc.cosma = (c1 * (10 - angle_rem) + c2 * angle_rem) / 10;
 103:..\..\..\arduinoLCD\test\Pain Drain\libraries\lvgl\src\draw\sw/lv_draw_sw_transform.c ****     tr_dsc.sinma = tr_dsc.sinma >> (LV_TRIGO_SHIFT - 10);
 104:..\..\..\arduinoLCD\test\Pain Drain\libraries\lvgl\src\draw\sw/lv_draw_sw_transform.c ****     tr_dsc.cosma = tr_dsc.cosma >> (LV_TRIGO_SHIFT - 10);
 105:..\..\..\arduinoLCD\test\Pain Drain\libraries\lvgl\src\draw\sw/lv_draw_sw_transform.c ****     tr_dsc.pivot_x_256 = tr_dsc.pivot.x * 256;
 106:..\..\..\arduinoLCD\test\Pain Drain\libraries\lvgl\src\draw\sw/lv_draw_sw_transform.c ****     tr_dsc.pivot_y_256 = tr_dsc.pivot.y * 256;
 107:..\..\..\arduinoLCD\test\Pain Drain\libraries\lvgl\src\draw\sw/lv_draw_sw_transform.c **** 
 108:..\..\..\arduinoLCD\test\Pain Drain\libraries\lvgl\src\draw\sw/lv_draw_sw_transform.c ****     lv_coord_t dest_w = lv_area_get_width(dest_area);
 109:..\..\..\arduinoLCD\test\Pain Drain\libraries\lvgl\src\draw\sw/lv_draw_sw_transform.c ****     lv_coord_t dest_h = lv_area_get_height(dest_area);
 110:..\..\..\arduinoLCD\test\Pain Drain\libraries\lvgl\src\draw\sw/lv_draw_sw_transform.c ****     lv_coord_t y;
 111:..\..\..\arduinoLCD\test\Pain Drain\libraries\lvgl\src\draw\sw/lv_draw_sw_transform.c ****     for(y = 0; y < dest_h; y++) {
 112:..\..\..\arduinoLCD\test\Pain Drain\libraries\lvgl\src\draw\sw/lv_draw_sw_transform.c ****         int32_t xs1_ups, ys1_ups, xs2_ups, ys2_ups;
 113:..\..\..\arduinoLCD\test\Pain Drain\libraries\lvgl\src\draw\sw/lv_draw_sw_transform.c **** 
 114:..\..\..\arduinoLCD\test\Pain Drain\libraries\lvgl\src\draw\sw/lv_draw_sw_transform.c ****         transform_point_upscaled(&tr_dsc, dest_area->x1, dest_area->y1 + y, &xs1_ups, &ys1_ups);
 115:..\..\..\arduinoLCD\test\Pain Drain\libraries\lvgl\src\draw\sw/lv_draw_sw_transform.c ****         transform_point_upscaled(&tr_dsc, dest_area->x2, dest_area->y1 + y, &xs2_ups, &ys2_ups);
 116:..\..\..\arduinoLCD\test\Pain Drain\libraries\lvgl\src\draw\sw/lv_draw_sw_transform.c **** 
 117:..\..\..\arduinoLCD\test\Pain Drain\libraries\lvgl\src\draw\sw/lv_draw_sw_transform.c ****         int32_t xs_diff = xs2_ups - xs1_ups;
 118:..\..\..\arduinoLCD\test\Pain Drain\libraries\lvgl\src\draw\sw/lv_draw_sw_transform.c ****         int32_t ys_diff = ys2_ups - ys1_ups;
 119:..\..\..\arduinoLCD\test\Pain Drain\libraries\lvgl\src\draw\sw/lv_draw_sw_transform.c ****         int32_t xs_step_256 = 0;
 120:..\..\..\arduinoLCD\test\Pain Drain\libraries\lvgl\src\draw\sw/lv_draw_sw_transform.c ****         int32_t ys_step_256 = 0;
 121:..\..\..\arduinoLCD\test\Pain Drain\libraries\lvgl\src\draw\sw/lv_draw_sw_transform.c ****         if(dest_w > 1) {
 122:..\..\..\arduinoLCD\test\Pain Drain\libraries\lvgl\src\draw\sw/lv_draw_sw_transform.c ****             xs_step_256 = (256 * xs_diff) / (dest_w - 1);
 123:..\..\..\arduinoLCD\test\Pain Drain\libraries\lvgl\src\draw\sw/lv_draw_sw_transform.c ****             ys_step_256 = (256 * ys_diff) / (dest_w - 1);
 124:..\..\..\arduinoLCD\test\Pain Drain\libraries\lvgl\src\draw\sw/lv_draw_sw_transform.c ****         }
 125:..\..\..\arduinoLCD\test\Pain Drain\libraries\lvgl\src\draw\sw/lv_draw_sw_transform.c ****         int32_t xs_ups = xs1_ups + 0x80;
 126:..\..\..\arduinoLCD\test\Pain Drain\libraries\lvgl\src\draw\sw/lv_draw_sw_transform.c ****         int32_t ys_ups = ys1_ups + 0x80;
 127:..\..\..\arduinoLCD\test\Pain Drain\libraries\lvgl\src\draw\sw/lv_draw_sw_transform.c **** 
 128:..\..\..\arduinoLCD\test\Pain Drain\libraries\lvgl\src\draw\sw/lv_draw_sw_transform.c ****         if(draw_dsc->antialias == 0) {
 129:..\..\..\arduinoLCD\test\Pain Drain\libraries\lvgl\src\draw\sw/lv_draw_sw_transform.c ****             switch(cf) {
 130:..\..\..\arduinoLCD\test\Pain Drain\libraries\lvgl\src\draw\sw/lv_draw_sw_transform.c ****                 case LV_IMG_CF_TRUE_COLOR_ALPHA:
 131:..\..\..\arduinoLCD\test\Pain Drain\libraries\lvgl\src\draw\sw/lv_draw_sw_transform.c ****                     argb_no_aa(src_buf, src_w, src_h, src_stride, xs_ups, ys_ups, xs_step_256, ys_s
 132:..\..\..\arduinoLCD\test\Pain Drain\libraries\lvgl\src\draw\sw/lv_draw_sw_transform.c ****                     break;
 133:..\..\..\arduinoLCD\test\Pain Drain\libraries\lvgl\src\draw\sw/lv_draw_sw_transform.c ****                 case LV_IMG_CF_TRUE_COLOR:
 134:..\..\..\arduinoLCD\test\Pain Drain\libraries\lvgl\src\draw\sw/lv_draw_sw_transform.c ****                 case LV_IMG_CF_TRUE_COLOR_CHROMA_KEYED:
 135:..\..\..\arduinoLCD\test\Pain Drain\libraries\lvgl\src\draw\sw/lv_draw_sw_transform.c ****                     rgb_no_aa(src_buf, src_w, src_h, src_stride, xs_ups, ys_ups, xs_step_256, ys_st
 136:..\..\..\arduinoLCD\test\Pain Drain\libraries\lvgl\src\draw\sw/lv_draw_sw_transform.c ****                     break;
 137:..\..\..\arduinoLCD\test\Pain Drain\libraries\lvgl\src\draw\sw/lv_draw_sw_transform.c **** 
 138:..\..\..\arduinoLCD\test\Pain Drain\libraries\lvgl\src\draw\sw/lv_draw_sw_transform.c **** #if LV_COLOR_DEPTH == 16
 139:..\..\..\arduinoLCD\test\Pain Drain\libraries\lvgl\src\draw\sw/lv_draw_sw_transform.c ****                 case LV_IMG_CF_RGB565A8:
 140:..\..\..\arduinoLCD\test\Pain Drain\libraries\lvgl\src\draw\sw/lv_draw_sw_transform.c ****                     rgb565a8_no_aa(src_buf, src_w, src_h, src_stride, xs_ups, ys_ups, xs_step_256, 
 141:..\..\..\arduinoLCD\test\Pain Drain\libraries\lvgl\src\draw\sw/lv_draw_sw_transform.c ****                     break;
 142:..\..\..\arduinoLCD\test\Pain Drain\libraries\lvgl\src\draw\sw/lv_draw_sw_transform.c **** #endif
 143:..\..\..\arduinoLCD\test\Pain Drain\libraries\lvgl\src\draw\sw/lv_draw_sw_transform.c ****                 default:
 144:..\..\..\arduinoLCD\test\Pain Drain\libraries\lvgl\src\draw\sw/lv_draw_sw_transform.c ****                     break;
ARM GAS  C:\Users\haske\AppData\Local\Temp\cc9HFfJU.s 			page 4


 145:..\..\..\arduinoLCD\test\Pain Drain\libraries\lvgl\src\draw\sw/lv_draw_sw_transform.c ****             }
 146:..\..\..\arduinoLCD\test\Pain Drain\libraries\lvgl\src\draw\sw/lv_draw_sw_transform.c ****         }
 147:..\..\..\arduinoLCD\test\Pain Drain\libraries\lvgl\src\draw\sw/lv_draw_sw_transform.c ****         else {
 148:..\..\..\arduinoLCD\test\Pain Drain\libraries\lvgl\src\draw\sw/lv_draw_sw_transform.c ****             argb_and_rgb_aa(src_buf, src_w, src_h, src_stride, xs_ups, ys_ups, xs_step_256, ys_step
 149:..\..\..\arduinoLCD\test\Pain Drain\libraries\lvgl\src\draw\sw/lv_draw_sw_transform.c ****         }
 150:..\..\..\arduinoLCD\test\Pain Drain\libraries\lvgl\src\draw\sw/lv_draw_sw_transform.c **** 
 151:..\..\..\arduinoLCD\test\Pain Drain\libraries\lvgl\src\draw\sw/lv_draw_sw_transform.c ****         cbuf += dest_w;
 152:..\..\..\arduinoLCD\test\Pain Drain\libraries\lvgl\src\draw\sw/lv_draw_sw_transform.c ****         abuf += dest_w;
 153:..\..\..\arduinoLCD\test\Pain Drain\libraries\lvgl\src\draw\sw/lv_draw_sw_transform.c ****     }
 154:..\..\..\arduinoLCD\test\Pain Drain\libraries\lvgl\src\draw\sw/lv_draw_sw_transform.c **** }
 155:..\..\..\arduinoLCD\test\Pain Drain\libraries\lvgl\src\draw\sw/lv_draw_sw_transform.c **** 
 156:..\..\..\arduinoLCD\test\Pain Drain\libraries\lvgl\src\draw\sw/lv_draw_sw_transform.c **** /**********************
 157:..\..\..\arduinoLCD\test\Pain Drain\libraries\lvgl\src\draw\sw/lv_draw_sw_transform.c ****  *   STATIC FUNCTIONS
 158:..\..\..\arduinoLCD\test\Pain Drain\libraries\lvgl\src\draw\sw/lv_draw_sw_transform.c ****  **********************/
 159:..\..\..\arduinoLCD\test\Pain Drain\libraries\lvgl\src\draw\sw/lv_draw_sw_transform.c **** 
 160:..\..\..\arduinoLCD\test\Pain Drain\libraries\lvgl\src\draw\sw/lv_draw_sw_transform.c **** static void rgb_no_aa(const uint8_t * src, lv_coord_t src_w, lv_coord_t src_h, lv_coord_t src_strid
 161:..\..\..\arduinoLCD\test\Pain Drain\libraries\lvgl\src\draw\sw/lv_draw_sw_transform.c ****                       int32_t xs_ups, int32_t ys_ups, int32_t xs_step, int32_t ys_step,
 162:..\..\..\arduinoLCD\test\Pain Drain\libraries\lvgl\src\draw\sw/lv_draw_sw_transform.c ****                       int32_t x_end, lv_color_t * cbuf, uint8_t * abuf, lv_img_cf_t cf)
 163:..\..\..\arduinoLCD\test\Pain Drain\libraries\lvgl\src\draw\sw/lv_draw_sw_transform.c **** {
 164:..\..\..\arduinoLCD\test\Pain Drain\libraries\lvgl\src\draw\sw/lv_draw_sw_transform.c ****     int32_t xs_ups_start = xs_ups;
 165:..\..\..\arduinoLCD\test\Pain Drain\libraries\lvgl\src\draw\sw/lv_draw_sw_transform.c ****     int32_t ys_ups_start = ys_ups;
 166:..\..\..\arduinoLCD\test\Pain Drain\libraries\lvgl\src\draw\sw/lv_draw_sw_transform.c ****     lv_disp_t * d = _lv_refr_get_disp_refreshing();
 167:..\..\..\arduinoLCD\test\Pain Drain\libraries\lvgl\src\draw\sw/lv_draw_sw_transform.c ****     lv_color_t ck = d->driver->color_chroma_key;
 168:..\..\..\arduinoLCD\test\Pain Drain\libraries\lvgl\src\draw\sw/lv_draw_sw_transform.c **** 
 169:..\..\..\arduinoLCD\test\Pain Drain\libraries\lvgl\src\draw\sw/lv_draw_sw_transform.c ****     lv_memset_ff(abuf, x_end);
 170:..\..\..\arduinoLCD\test\Pain Drain\libraries\lvgl\src\draw\sw/lv_draw_sw_transform.c **** 
 171:..\..\..\arduinoLCD\test\Pain Drain\libraries\lvgl\src\draw\sw/lv_draw_sw_transform.c ****     lv_coord_t x;
 172:..\..\..\arduinoLCD\test\Pain Drain\libraries\lvgl\src\draw\sw/lv_draw_sw_transform.c ****     for(x = 0; x < x_end; x++) {
 173:..\..\..\arduinoLCD\test\Pain Drain\libraries\lvgl\src\draw\sw/lv_draw_sw_transform.c ****         xs_ups = xs_ups_start + ((xs_step * x) >> 8);
 174:..\..\..\arduinoLCD\test\Pain Drain\libraries\lvgl\src\draw\sw/lv_draw_sw_transform.c ****         ys_ups = ys_ups_start + ((ys_step * x) >> 8);
 175:..\..\..\arduinoLCD\test\Pain Drain\libraries\lvgl\src\draw\sw/lv_draw_sw_transform.c **** 
 176:..\..\..\arduinoLCD\test\Pain Drain\libraries\lvgl\src\draw\sw/lv_draw_sw_transform.c ****         int32_t xs_int = xs_ups >> 8;
 177:..\..\..\arduinoLCD\test\Pain Drain\libraries\lvgl\src\draw\sw/lv_draw_sw_transform.c ****         int32_t ys_int = ys_ups >> 8;
 178:..\..\..\arduinoLCD\test\Pain Drain\libraries\lvgl\src\draw\sw/lv_draw_sw_transform.c ****         if(xs_int < 0 || xs_int >= src_w || ys_int < 0 || ys_int >= src_h) {
 179:..\..\..\arduinoLCD\test\Pain Drain\libraries\lvgl\src\draw\sw/lv_draw_sw_transform.c ****             abuf[x] = 0x00;
 180:..\..\..\arduinoLCD\test\Pain Drain\libraries\lvgl\src\draw\sw/lv_draw_sw_transform.c ****         }
 181:..\..\..\arduinoLCD\test\Pain Drain\libraries\lvgl\src\draw\sw/lv_draw_sw_transform.c ****         else {
 182:..\..\..\arduinoLCD\test\Pain Drain\libraries\lvgl\src\draw\sw/lv_draw_sw_transform.c **** 
 183:..\..\..\arduinoLCD\test\Pain Drain\libraries\lvgl\src\draw\sw/lv_draw_sw_transform.c **** #if LV_COLOR_DEPTH == 1 || LV_COLOR_DEPTH == 8
 184:..\..\..\arduinoLCD\test\Pain Drain\libraries\lvgl\src\draw\sw/lv_draw_sw_transform.c ****             const uint8_t * src_tmp = src;
 185:..\..\..\arduinoLCD\test\Pain Drain\libraries\lvgl\src\draw\sw/lv_draw_sw_transform.c ****             src_tmp += ys_int * src_stride + xs_int;
 186:..\..\..\arduinoLCD\test\Pain Drain\libraries\lvgl\src\draw\sw/lv_draw_sw_transform.c ****             cbuf[x].full = src_tmp[0];
 187:..\..\..\arduinoLCD\test\Pain Drain\libraries\lvgl\src\draw\sw/lv_draw_sw_transform.c **** #elif LV_COLOR_DEPTH == 16
 188:..\..\..\arduinoLCD\test\Pain Drain\libraries\lvgl\src\draw\sw/lv_draw_sw_transform.c ****             const lv_color_t * src_tmp = (const lv_color_t *)src;
 189:..\..\..\arduinoLCD\test\Pain Drain\libraries\lvgl\src\draw\sw/lv_draw_sw_transform.c ****             src_tmp += ys_int * src_stride + xs_int;
 190:..\..\..\arduinoLCD\test\Pain Drain\libraries\lvgl\src\draw\sw/lv_draw_sw_transform.c ****             cbuf[x] = *src_tmp;
 191:..\..\..\arduinoLCD\test\Pain Drain\libraries\lvgl\src\draw\sw/lv_draw_sw_transform.c **** #elif LV_COLOR_DEPTH == 32
 192:..\..\..\arduinoLCD\test\Pain Drain\libraries\lvgl\src\draw\sw/lv_draw_sw_transform.c ****             const uint8_t * src_tmp = src;
 193:..\..\..\arduinoLCD\test\Pain Drain\libraries\lvgl\src\draw\sw/lv_draw_sw_transform.c ****             src_tmp += (ys_int * src_stride * sizeof(lv_color_t)) + xs_int * sizeof(lv_color_t);
 194:..\..\..\arduinoLCD\test\Pain Drain\libraries\lvgl\src\draw\sw/lv_draw_sw_transform.c ****             cbuf[x].full = *((uint32_t *)src_tmp);
 195:..\..\..\arduinoLCD\test\Pain Drain\libraries\lvgl\src\draw\sw/lv_draw_sw_transform.c **** #endif
 196:..\..\..\arduinoLCD\test\Pain Drain\libraries\lvgl\src\draw\sw/lv_draw_sw_transform.c ****         }
 197:..\..\..\arduinoLCD\test\Pain Drain\libraries\lvgl\src\draw\sw/lv_draw_sw_transform.c ****         if(cf == LV_IMG_CF_TRUE_COLOR_CHROMA_KEYED && cbuf[x].full == ck.full) {
 198:..\..\..\arduinoLCD\test\Pain Drain\libraries\lvgl\src\draw\sw/lv_draw_sw_transform.c ****             abuf[x] = 0x00;
 199:..\..\..\arduinoLCD\test\Pain Drain\libraries\lvgl\src\draw\sw/lv_draw_sw_transform.c ****         }
 200:..\..\..\arduinoLCD\test\Pain Drain\libraries\lvgl\src\draw\sw/lv_draw_sw_transform.c ****     }
 201:..\..\..\arduinoLCD\test\Pain Drain\libraries\lvgl\src\draw\sw/lv_draw_sw_transform.c **** }
ARM GAS  C:\Users\haske\AppData\Local\Temp\cc9HFfJU.s 			page 5


 202:..\..\..\arduinoLCD\test\Pain Drain\libraries\lvgl\src\draw\sw/lv_draw_sw_transform.c **** 
 203:..\..\..\arduinoLCD\test\Pain Drain\libraries\lvgl\src\draw\sw/lv_draw_sw_transform.c **** static void argb_no_aa(const uint8_t * src, lv_coord_t src_w, lv_coord_t src_h, lv_coord_t src_stri
 204:..\..\..\arduinoLCD\test\Pain Drain\libraries\lvgl\src\draw\sw/lv_draw_sw_transform.c ****                        int32_t xs_ups, int32_t ys_ups, int32_t xs_step, int32_t ys_step,
 205:..\..\..\arduinoLCD\test\Pain Drain\libraries\lvgl\src\draw\sw/lv_draw_sw_transform.c ****                        int32_t x_end, lv_color_t * cbuf, uint8_t * abuf)
 206:..\..\..\arduinoLCD\test\Pain Drain\libraries\lvgl\src\draw\sw/lv_draw_sw_transform.c **** {
  28              		.loc 1 206 0
  29              		.cfi_startproc
  30              		@ args = 28, pretend = 0, frame = 8
  31              		@ frame_needed = 0, uses_anonymous_args = 0
  32              	.LVL0:
  33 0000 2DE9F04F 		push	{r4, r5, r6, r7, r8, r9, r10, fp, lr}
  34              		.cfi_def_cfa_offset 36
  35              		.cfi_offset 4, -36
  36              		.cfi_offset 5, -32
  37              		.cfi_offset 6, -28
  38              		.cfi_offset 7, -24
  39              		.cfi_offset 8, -20
  40              		.cfi_offset 9, -16
  41              		.cfi_offset 10, -12
  42              		.cfi_offset 11, -8
  43              		.cfi_offset 14, -4
  44 0004 83B0     		sub	sp, sp, #12
  45              		.cfi_def_cfa_offset 48
  46 0006 DDF830C0 		ldr	ip, [sp, #48]
  47 000a DDF834E0 		ldr	lr, [sp, #52]
  48 000e 0E9F     		ldr	r7, [sp, #56]
  49 0010 0F9E     		ldr	r6, [sp, #60]
  50 0012 109D     		ldr	r5, [sp, #64]
  51 0014 DDF84880 		ldr	r8, [sp, #72]
  52              	.LVL1:
 207:..\..\..\arduinoLCD\test\Pain Drain\libraries\lvgl\src\draw\sw/lv_draw_sw_transform.c ****     int32_t xs_ups_start = xs_ups;
 208:..\..\..\arduinoLCD\test\Pain Drain\libraries\lvgl\src\draw\sw/lv_draw_sw_transform.c ****     int32_t ys_ups_start = ys_ups;
 209:..\..\..\arduinoLCD\test\Pain Drain\libraries\lvgl\src\draw\sw/lv_draw_sw_transform.c **** 
 210:..\..\..\arduinoLCD\test\Pain Drain\libraries\lvgl\src\draw\sw/lv_draw_sw_transform.c ****     lv_coord_t x;
 211:..\..\..\arduinoLCD\test\Pain Drain\libraries\lvgl\src\draw\sw/lv_draw_sw_transform.c ****     for(x = 0; x < x_end; x++) {
  53              		.loc 1 211 0
  54 0018 0024     		movs	r4, #0
  55 001a 0193     		str	r3, [sp, #4]
  56 001c 2EE0     		b	.L2
  57              	.LVL2:
  58              	.L6:
  59              	.LBB19:
 212:..\..\..\arduinoLCD\test\Pain Drain\libraries\lvgl\src\draw\sw/lv_draw_sw_transform.c ****         xs_ups = xs_ups_start + ((xs_step * x) >> 8);
  60              		.loc 1 212 0
  61 001e 07FB04F9 		mul	r9, r7, r4
  62 0022 0CEB2929 		add	r9, ip, r9, asr #8
  63              	.LVL3:
 213:..\..\..\arduinoLCD\test\Pain Drain\libraries\lvgl\src\draw\sw/lv_draw_sw_transform.c ****         ys_ups = ys_ups_start + ((ys_step * x) >> 8);
  64              		.loc 1 213 0
  65 0026 06FB04FA 		mul	r10, r6, r4
  66 002a 0EEB2A2A 		add	r10, lr, r10, asr #8
  67              	.LVL4:
 214:..\..\..\arduinoLCD\test\Pain Drain\libraries\lvgl\src\draw\sw/lv_draw_sw_transform.c **** 
 215:..\..\..\arduinoLCD\test\Pain Drain\libraries\lvgl\src\draw\sw/lv_draw_sw_transform.c ****         int32_t xs_int = xs_ups >> 8;
 216:..\..\..\arduinoLCD\test\Pain Drain\libraries\lvgl\src\draw\sw/lv_draw_sw_transform.c ****         int32_t ys_int = ys_ups >> 8;
  68              		.loc 1 216 0
  69 002e 4FEA2A2A 		asr	r10, r10, #8
ARM GAS  C:\Users\haske\AppData\Local\Temp\cc9HFfJU.s 			page 6


  70              	.LVL5:
 217:..\..\..\arduinoLCD\test\Pain Drain\libraries\lvgl\src\draw\sw/lv_draw_sw_transform.c ****         if(xs_int < 0 || xs_int >= src_w || ys_int < 0 || ys_int >= src_h) {
  71              		.loc 1 217 0
  72 0032 5FEA2929 		asrs	r9, r9, #8
  73              	.LVL6:
  74 0036 06D4     		bmi	.L3
  75              		.loc 1 217 0 is_stmt 0 discriminator 1
  76 0038 8945     		cmp	r9, r1
  77 003a 04DA     		bge	.L3
  78              		.loc 1 217 0 discriminator 2
  79 003c BAF1000F 		cmp	r10, #0
  80 0040 01DB     		blt	.L3
  81              		.loc 1 217 0 discriminator 3
  82 0042 9245     		cmp	r10, r2
  83 0044 04DB     		blt	.L4
  84              	.L3:
 218:..\..\..\arduinoLCD\test\Pain Drain\libraries\lvgl\src\draw\sw/lv_draw_sw_transform.c ****             abuf[x] = 0;
  85              		.loc 1 218 0 is_stmt 1
  86 0046 4FF00009 		mov	r9, #0
  87              	.LVL7:
  88 004a 08F80490 		strb	r9, [r8, r4]
  89 004e 13E0     		b	.L5
  90              	.LVL8:
  91              	.L4:
  92              	.LBB20:
 219:..\..\..\arduinoLCD\test\Pain Drain\libraries\lvgl\src\draw\sw/lv_draw_sw_transform.c ****         }
 220:..\..\..\arduinoLCD\test\Pain Drain\libraries\lvgl\src\draw\sw/lv_draw_sw_transform.c ****         else {
 221:..\..\..\arduinoLCD\test\Pain Drain\libraries\lvgl\src\draw\sw/lv_draw_sw_transform.c ****             const uint8_t * src_tmp = src;
 222:..\..\..\arduinoLCD\test\Pain Drain\libraries\lvgl\src\draw\sw/lv_draw_sw_transform.c ****             src_tmp += (ys_int * src_stride * LV_IMG_PX_SIZE_ALPHA_BYTE) + xs_int * LV_IMG_PX_SIZE_
  93              		.loc 1 222 0
  94 0050 019B     		ldr	r3, [sp, #4]
  95 0052 0AFB0399 		mla	r9, r10, r3, r9
  96              	.LVL9:
  97 0056 09EB4909 		add	r9, r9, r9, lsl #1
  98 005a 00EB090A 		add	r10, r0, r9
  99              	.LVL10:
 223:..\..\..\arduinoLCD\test\Pain Drain\libraries\lvgl\src\draw\sw/lv_draw_sw_transform.c **** 
 224:..\..\..\arduinoLCD\test\Pain Drain\libraries\lvgl\src\draw\sw/lv_draw_sw_transform.c **** #if LV_COLOR_DEPTH == 1 || LV_COLOR_DEPTH == 8
 225:..\..\..\arduinoLCD\test\Pain Drain\libraries\lvgl\src\draw\sw/lv_draw_sw_transform.c ****             cbuf[x].full = src_tmp[0];
 226:..\..\..\arduinoLCD\test\Pain Drain\libraries\lvgl\src\draw\sw/lv_draw_sw_transform.c **** #elif LV_COLOR_DEPTH == 16
 227:..\..\..\arduinoLCD\test\Pain Drain\libraries\lvgl\src\draw\sw/lv_draw_sw_transform.c ****             cbuf[x].full = src_tmp[0] + (src_tmp[1] << 8);
 100              		.loc 1 227 0
 101 005e 10F80990 		ldrb	r9, [r0, r9]	@ zero_extendqisi2
 102 0062 9AF801B0 		ldrb	fp, [r10, #1]	@ zero_extendqisi2
 103 0066 09EB0B29 		add	r9, r9, fp, lsl #8
 104 006a 119B     		ldr	r3, [sp, #68]
 105 006c 23F81490 		strh	r9, [r3, r4, lsl #1]	@ movhi
 228:..\..\..\arduinoLCD\test\Pain Drain\libraries\lvgl\src\draw\sw/lv_draw_sw_transform.c **** #elif LV_COLOR_DEPTH == 32
 229:..\..\..\arduinoLCD\test\Pain Drain\libraries\lvgl\src\draw\sw/lv_draw_sw_transform.c ****             cbuf[x].full = *((uint32_t *)src_tmp);
 230:..\..\..\arduinoLCD\test\Pain Drain\libraries\lvgl\src\draw\sw/lv_draw_sw_transform.c **** #endif
 231:..\..\..\arduinoLCD\test\Pain Drain\libraries\lvgl\src\draw\sw/lv_draw_sw_transform.c ****             abuf[x] = src_tmp[LV_IMG_PX_SIZE_ALPHA_BYTE - 1];
 106              		.loc 1 231 0
 107 0070 9AF80290 		ldrb	r9, [r10, #2]	@ zero_extendqisi2
 108 0074 08F80490 		strb	r9, [r8, r4]
 109              	.LVL11:
 110              	.L5:
 111              	.LBE20:
ARM GAS  C:\Users\haske\AppData\Local\Temp\cc9HFfJU.s 			page 7


 112              	.LBE19:
 211:..\..\..\arduinoLCD\test\Pain Drain\libraries\lvgl\src\draw\sw/lv_draw_sw_transform.c ****         xs_ups = xs_ups_start + ((xs_step * x) >> 8);
 113              		.loc 1 211 0 discriminator 2
 114 0078 0134     		adds	r4, r4, #1
 115              	.LVL12:
 116 007a 24B2     		sxth	r4, r4
 117              	.LVL13:
 118              	.L2:
 211:..\..\..\arduinoLCD\test\Pain Drain\libraries\lvgl\src\draw\sw/lv_draw_sw_transform.c ****         xs_ups = xs_ups_start + ((xs_step * x) >> 8);
 119              		.loc 1 211 0 is_stmt 0 discriminator 1
 120 007c AC42     		cmp	r4, r5
 121 007e CEDB     		blt	.L6
 232:..\..\..\arduinoLCD\test\Pain Drain\libraries\lvgl\src\draw\sw/lv_draw_sw_transform.c ****         }
 233:..\..\..\arduinoLCD\test\Pain Drain\libraries\lvgl\src\draw\sw/lv_draw_sw_transform.c ****     }
 234:..\..\..\arduinoLCD\test\Pain Drain\libraries\lvgl\src\draw\sw/lv_draw_sw_transform.c **** }
 122              		.loc 1 234 0 is_stmt 1
 123 0080 03B0     		add	sp, sp, #12
 124              		.cfi_def_cfa_offset 36
 125              		@ sp needed
 126 0082 BDE8F08F 		pop	{r4, r5, r6, r7, r8, r9, r10, fp, pc}
 127              		.cfi_endproc
 128              	.LFE161:
 129              		.size	argb_no_aa, .-argb_no_aa
 130 0086 00BF     		.section	.text.rgb565a8_no_aa,"ax",%progbits
 131              		.align	2
 132              		.thumb
 133              		.thumb_func
 134              		.type	rgb565a8_no_aa, %function
 135              	rgb565a8_no_aa:
 136              	.LFB162:
 235:..\..\..\arduinoLCD\test\Pain Drain\libraries\lvgl\src\draw\sw/lv_draw_sw_transform.c **** 
 236:..\..\..\arduinoLCD\test\Pain Drain\libraries\lvgl\src\draw\sw/lv_draw_sw_transform.c **** #if LV_COLOR_DEPTH == 16
 237:..\..\..\arduinoLCD\test\Pain Drain\libraries\lvgl\src\draw\sw/lv_draw_sw_transform.c **** static void rgb565a8_no_aa(const uint8_t * src, lv_coord_t src_w, lv_coord_t src_h, lv_coord_t src_
 238:..\..\..\arduinoLCD\test\Pain Drain\libraries\lvgl\src\draw\sw/lv_draw_sw_transform.c ****                            int32_t xs_ups, int32_t ys_ups, int32_t xs_step, int32_t ys_step,
 239:..\..\..\arduinoLCD\test\Pain Drain\libraries\lvgl\src\draw\sw/lv_draw_sw_transform.c ****                            int32_t x_end, lv_color_t * cbuf, uint8_t * abuf)
 240:..\..\..\arduinoLCD\test\Pain Drain\libraries\lvgl\src\draw\sw/lv_draw_sw_transform.c **** {
 137              		.loc 1 240 0
 138              		.cfi_startproc
 139              		@ args = 28, pretend = 0, frame = 0
 140              		@ frame_needed = 0, uses_anonymous_args = 0
 141              	.LVL14:
 142 0000 2DE9F04F 		push	{r4, r5, r6, r7, r8, r9, r10, fp, lr}
 143              		.cfi_def_cfa_offset 36
 144              		.cfi_offset 4, -36
 145              		.cfi_offset 5, -32
 146              		.cfi_offset 6, -28
 147              		.cfi_offset 7, -24
 148              		.cfi_offset 8, -20
 149              		.cfi_offset 9, -16
 150              		.cfi_offset 10, -12
 151              		.cfi_offset 11, -8
 152              		.cfi_offset 14, -4
 153 0004 DDF82490 		ldr	r9, [sp, #36]
 154 0008 DDF82880 		ldr	r8, [sp, #40]
 155 000c DDF82CC0 		ldr	ip, [sp, #44]
 156 0010 DDF830E0 		ldr	lr, [sp, #48]
 157 0014 0D9F     		ldr	r7, [sp, #52]
ARM GAS  C:\Users\haske\AppData\Local\Temp\cc9HFfJU.s 			page 8


 158 0016 DDF838B0 		ldr	fp, [sp, #56]
 159 001a DDF83CA0 		ldr	r10, [sp, #60]
 160              	.LVL15:
 241:..\..\..\arduinoLCD\test\Pain Drain\libraries\lvgl\src\draw\sw/lv_draw_sw_transform.c ****     int32_t xs_ups_start = xs_ups;
 242:..\..\..\arduinoLCD\test\Pain Drain\libraries\lvgl\src\draw\sw/lv_draw_sw_transform.c ****     int32_t ys_ups_start = ys_ups;
 243:..\..\..\arduinoLCD\test\Pain Drain\libraries\lvgl\src\draw\sw/lv_draw_sw_transform.c **** 
 244:..\..\..\arduinoLCD\test\Pain Drain\libraries\lvgl\src\draw\sw/lv_draw_sw_transform.c ****     lv_coord_t x;
 245:..\..\..\arduinoLCD\test\Pain Drain\libraries\lvgl\src\draw\sw/lv_draw_sw_transform.c ****     for(x = 0; x < x_end; x++) {
 161              		.loc 1 245 0
 162 001e 0024     		movs	r4, #0
 163 0020 23E0     		b	.L9
 164              	.LVL16:
 165              	.L13:
 166              	.LBB21:
 246:..\..\..\arduinoLCD\test\Pain Drain\libraries\lvgl\src\draw\sw/lv_draw_sw_transform.c ****         xs_ups = xs_ups_start + ((xs_step * x) >> 8);
 167              		.loc 1 246 0
 168 0022 0CFB04F5 		mul	r5, ip, r4
 169 0026 09EB2525 		add	r5, r9, r5, asr #8
 170              	.LVL17:
 247:..\..\..\arduinoLCD\test\Pain Drain\libraries\lvgl\src\draw\sw/lv_draw_sw_transform.c ****         ys_ups = ys_ups_start + ((ys_step * x) >> 8);
 171              		.loc 1 247 0
 172 002a 0EFB04F6 		mul	r6, lr, r4
 173 002e 08EB2626 		add	r6, r8, r6, asr #8
 174              	.LVL18:
 248:..\..\..\arduinoLCD\test\Pain Drain\libraries\lvgl\src\draw\sw/lv_draw_sw_transform.c **** 
 249:..\..\..\arduinoLCD\test\Pain Drain\libraries\lvgl\src\draw\sw/lv_draw_sw_transform.c ****         int32_t xs_int = xs_ups >> 8;
 250:..\..\..\arduinoLCD\test\Pain Drain\libraries\lvgl\src\draw\sw/lv_draw_sw_transform.c ****         int32_t ys_int = ys_ups >> 8;
 175              		.loc 1 250 0
 176 0032 3612     		asrs	r6, r6, #8
 177              	.LVL19:
 251:..\..\..\arduinoLCD\test\Pain Drain\libraries\lvgl\src\draw\sw/lv_draw_sw_transform.c ****         if(xs_int < 0 || xs_int >= src_w || ys_int < 0 || ys_int >= src_h) {
 178              		.loc 1 251 0
 179 0034 2D12     		asrs	r5, r5, #8
 180              	.LVL20:
 181 0036 05D4     		bmi	.L10
 182              		.loc 1 251 0 is_stmt 0 discriminator 1
 183 0038 8D42     		cmp	r5, r1
 184 003a 03DA     		bge	.L10
 185              		.loc 1 251 0 discriminator 2
 186 003c 002E     		cmp	r6, #0
 187 003e 01DB     		blt	.L10
 188              		.loc 1 251 0 discriminator 3
 189 0040 9642     		cmp	r6, r2
 190 0042 03DB     		blt	.L11
 191              	.L10:
 252:..\..\..\arduinoLCD\test\Pain Drain\libraries\lvgl\src\draw\sw/lv_draw_sw_transform.c ****             abuf[x] = 0;
 192              		.loc 1 252 0 is_stmt 1
 193 0044 0025     		movs	r5, #0
 194              	.LVL21:
 195 0046 0AF80450 		strb	r5, [r10, r4]
 196 004a 0CE0     		b	.L12
 197              	.LVL22:
 198              	.L11:
 199              	.LBB22:
 253:..\..\..\arduinoLCD\test\Pain Drain\libraries\lvgl\src\draw\sw/lv_draw_sw_transform.c ****         }
 254:..\..\..\arduinoLCD\test\Pain Drain\libraries\lvgl\src\draw\sw/lv_draw_sw_transform.c ****         else {
 255:..\..\..\arduinoLCD\test\Pain Drain\libraries\lvgl\src\draw\sw/lv_draw_sw_transform.c ****             const lv_color_t * src_tmp = (const lv_color_t *)src;
ARM GAS  C:\Users\haske\AppData\Local\Temp\cc9HFfJU.s 			page 9


 256:..\..\..\arduinoLCD\test\Pain Drain\libraries\lvgl\src\draw\sw/lv_draw_sw_transform.c ****             src_tmp += ys_int * src_stride + xs_int;
 200              		.loc 1 256 0
 201 004c 03FB0655 		mla	r5, r3, r6, r5
 202              	.LVL23:
 257:..\..\..\arduinoLCD\test\Pain Drain\libraries\lvgl\src\draw\sw/lv_draw_sw_transform.c ****             cbuf[x] = *src_tmp;
 203              		.loc 1 257 0
 204 0050 30F81560 		ldrh	r6, [r0, r5, lsl #1]
 205              	.LVL24:
 206 0054 2BF81460 		strh	r6, [fp, r4, lsl #1]	@ movhi
 258:..\..\..\arduinoLCD\test\Pain Drain\libraries\lvgl\src\draw\sw/lv_draw_sw_transform.c **** 
 259:..\..\..\arduinoLCD\test\Pain Drain\libraries\lvgl\src\draw\sw/lv_draw_sw_transform.c ****             const lv_opa_t * a_tmp = src + src_stride * src_h * sizeof(lv_color_t);
 207              		.loc 1 259 0
 208 0058 03FB02F6 		mul	r6, r3, r2
 209              	.LVL25:
 260:..\..\..\arduinoLCD\test\Pain Drain\libraries\lvgl\src\draw\sw/lv_draw_sw_transform.c ****             a_tmp += ys_int * src_stride + xs_int;
 210              		.loc 1 260 0
 211 005c 05EB4605 		add	r5, r5, r6, lsl #1
 212              	.LVL26:
 261:..\..\..\arduinoLCD\test\Pain Drain\libraries\lvgl\src\draw\sw/lv_draw_sw_transform.c ****             abuf[x] = *a_tmp;
 213              		.loc 1 261 0
 214 0060 455D     		ldrb	r5, [r0, r5]	@ zero_extendqisi2
 215              	.LVL27:
 216 0062 0AF80450 		strb	r5, [r10, r4]
 217              	.LVL28:
 218              	.L12:
 219              	.LBE22:
 220              	.LBE21:
 245:..\..\..\arduinoLCD\test\Pain Drain\libraries\lvgl\src\draw\sw/lv_draw_sw_transform.c ****         xs_ups = xs_ups_start + ((xs_step * x) >> 8);
 221              		.loc 1 245 0 discriminator 2
 222 0066 0134     		adds	r4, r4, #1
 223              	.LVL29:
 224 0068 24B2     		sxth	r4, r4
 225              	.LVL30:
 226              	.L9:
 245:..\..\..\arduinoLCD\test\Pain Drain\libraries\lvgl\src\draw\sw/lv_draw_sw_transform.c ****         xs_ups = xs_ups_start + ((xs_step * x) >> 8);
 227              		.loc 1 245 0 is_stmt 0 discriminator 1
 228 006a BC42     		cmp	r4, r7
 229 006c D9DB     		blt	.L13
 262:..\..\..\arduinoLCD\test\Pain Drain\libraries\lvgl\src\draw\sw/lv_draw_sw_transform.c ****         }
 263:..\..\..\arduinoLCD\test\Pain Drain\libraries\lvgl\src\draw\sw/lv_draw_sw_transform.c ****     }
 264:..\..\..\arduinoLCD\test\Pain Drain\libraries\lvgl\src\draw\sw/lv_draw_sw_transform.c **** }
 230              		.loc 1 264 0 is_stmt 1
 231 006e BDE8F08F 		pop	{r4, r5, r6, r7, r8, r9, r10, fp, pc}
 232              		.cfi_endproc
 233              	.LFE162:
 234              		.size	rgb565a8_no_aa, .-rgb565a8_no_aa
 235 0072 00BF     		.section	.text.transform_point_upscaled,"ax",%progbits
 236              		.align	2
 237              		.thumb
 238              		.thumb_func
 239              		.type	transform_point_upscaled, %function
 240              	transform_point_upscaled:
 241              	.LFB164:
 265:..\..\..\arduinoLCD\test\Pain Drain\libraries\lvgl\src\draw\sw/lv_draw_sw_transform.c **** #endif
 266:..\..\..\arduinoLCD\test\Pain Drain\libraries\lvgl\src\draw\sw/lv_draw_sw_transform.c **** 
 267:..\..\..\arduinoLCD\test\Pain Drain\libraries\lvgl\src\draw\sw/lv_draw_sw_transform.c **** 
 268:..\..\..\arduinoLCD\test\Pain Drain\libraries\lvgl\src\draw\sw/lv_draw_sw_transform.c **** static void argb_and_rgb_aa(const uint8_t * src, lv_coord_t src_w, lv_coord_t src_h, lv_coord_t src
ARM GAS  C:\Users\haske\AppData\Local\Temp\cc9HFfJU.s 			page 10


 269:..\..\..\arduinoLCD\test\Pain Drain\libraries\lvgl\src\draw\sw/lv_draw_sw_transform.c ****                             int32_t xs_ups, int32_t ys_ups, int32_t xs_step, int32_t ys_step,
 270:..\..\..\arduinoLCD\test\Pain Drain\libraries\lvgl\src\draw\sw/lv_draw_sw_transform.c ****                             int32_t x_end, lv_color_t * cbuf, uint8_t * abuf, lv_img_cf_t cf)
 271:..\..\..\arduinoLCD\test\Pain Drain\libraries\lvgl\src\draw\sw/lv_draw_sw_transform.c **** {
 272:..\..\..\arduinoLCD\test\Pain Drain\libraries\lvgl\src\draw\sw/lv_draw_sw_transform.c ****     int32_t xs_ups_start = xs_ups;
 273:..\..\..\arduinoLCD\test\Pain Drain\libraries\lvgl\src\draw\sw/lv_draw_sw_transform.c ****     int32_t ys_ups_start = ys_ups;
 274:..\..\..\arduinoLCD\test\Pain Drain\libraries\lvgl\src\draw\sw/lv_draw_sw_transform.c ****     bool has_alpha;
 275:..\..\..\arduinoLCD\test\Pain Drain\libraries\lvgl\src\draw\sw/lv_draw_sw_transform.c ****     int32_t px_size;
 276:..\..\..\arduinoLCD\test\Pain Drain\libraries\lvgl\src\draw\sw/lv_draw_sw_transform.c ****     lv_color_t ck = {0};
 277:..\..\..\arduinoLCD\test\Pain Drain\libraries\lvgl\src\draw\sw/lv_draw_sw_transform.c ****     switch(cf) {
 278:..\..\..\arduinoLCD\test\Pain Drain\libraries\lvgl\src\draw\sw/lv_draw_sw_transform.c ****         case LV_IMG_CF_TRUE_COLOR:
 279:..\..\..\arduinoLCD\test\Pain Drain\libraries\lvgl\src\draw\sw/lv_draw_sw_transform.c ****             has_alpha = false;
 280:..\..\..\arduinoLCD\test\Pain Drain\libraries\lvgl\src\draw\sw/lv_draw_sw_transform.c ****             px_size = sizeof(lv_color_t);
 281:..\..\..\arduinoLCD\test\Pain Drain\libraries\lvgl\src\draw\sw/lv_draw_sw_transform.c ****             break;
 282:..\..\..\arduinoLCD\test\Pain Drain\libraries\lvgl\src\draw\sw/lv_draw_sw_transform.c ****         case LV_IMG_CF_TRUE_COLOR_ALPHA:
 283:..\..\..\arduinoLCD\test\Pain Drain\libraries\lvgl\src\draw\sw/lv_draw_sw_transform.c ****             has_alpha = true;
 284:..\..\..\arduinoLCD\test\Pain Drain\libraries\lvgl\src\draw\sw/lv_draw_sw_transform.c ****             px_size = LV_IMG_PX_SIZE_ALPHA_BYTE;
 285:..\..\..\arduinoLCD\test\Pain Drain\libraries\lvgl\src\draw\sw/lv_draw_sw_transform.c ****             break;
 286:..\..\..\arduinoLCD\test\Pain Drain\libraries\lvgl\src\draw\sw/lv_draw_sw_transform.c ****         case LV_IMG_CF_TRUE_COLOR_CHROMA_KEYED: {
 287:..\..\..\arduinoLCD\test\Pain Drain\libraries\lvgl\src\draw\sw/lv_draw_sw_transform.c ****                 has_alpha = true;
 288:..\..\..\arduinoLCD\test\Pain Drain\libraries\lvgl\src\draw\sw/lv_draw_sw_transform.c ****                 px_size = sizeof(lv_color_t);
 289:..\..\..\arduinoLCD\test\Pain Drain\libraries\lvgl\src\draw\sw/lv_draw_sw_transform.c ****                 lv_disp_t * d = _lv_refr_get_disp_refreshing();
 290:..\..\..\arduinoLCD\test\Pain Drain\libraries\lvgl\src\draw\sw/lv_draw_sw_transform.c ****                 ck = d->driver->color_chroma_key;
 291:..\..\..\arduinoLCD\test\Pain Drain\libraries\lvgl\src\draw\sw/lv_draw_sw_transform.c ****                 break;
 292:..\..\..\arduinoLCD\test\Pain Drain\libraries\lvgl\src\draw\sw/lv_draw_sw_transform.c ****             }
 293:..\..\..\arduinoLCD\test\Pain Drain\libraries\lvgl\src\draw\sw/lv_draw_sw_transform.c **** #if LV_COLOR_DEPTH == 16
 294:..\..\..\arduinoLCD\test\Pain Drain\libraries\lvgl\src\draw\sw/lv_draw_sw_transform.c ****         case LV_IMG_CF_RGB565A8:
 295:..\..\..\arduinoLCD\test\Pain Drain\libraries\lvgl\src\draw\sw/lv_draw_sw_transform.c ****             has_alpha = true;
 296:..\..\..\arduinoLCD\test\Pain Drain\libraries\lvgl\src\draw\sw/lv_draw_sw_transform.c ****             px_size = sizeof(lv_color_t);
 297:..\..\..\arduinoLCD\test\Pain Drain\libraries\lvgl\src\draw\sw/lv_draw_sw_transform.c ****             break;
 298:..\..\..\arduinoLCD\test\Pain Drain\libraries\lvgl\src\draw\sw/lv_draw_sw_transform.c **** #endif
 299:..\..\..\arduinoLCD\test\Pain Drain\libraries\lvgl\src\draw\sw/lv_draw_sw_transform.c ****         default:
 300:..\..\..\arduinoLCD\test\Pain Drain\libraries\lvgl\src\draw\sw/lv_draw_sw_transform.c ****             return;
 301:..\..\..\arduinoLCD\test\Pain Drain\libraries\lvgl\src\draw\sw/lv_draw_sw_transform.c ****     }
 302:..\..\..\arduinoLCD\test\Pain Drain\libraries\lvgl\src\draw\sw/lv_draw_sw_transform.c **** 
 303:..\..\..\arduinoLCD\test\Pain Drain\libraries\lvgl\src\draw\sw/lv_draw_sw_transform.c ****     lv_coord_t x;
 304:..\..\..\arduinoLCD\test\Pain Drain\libraries\lvgl\src\draw\sw/lv_draw_sw_transform.c ****     for(x = 0; x < x_end; x++) {
 305:..\..\..\arduinoLCD\test\Pain Drain\libraries\lvgl\src\draw\sw/lv_draw_sw_transform.c ****         xs_ups = xs_ups_start + ((xs_step * x) >> 8);
 306:..\..\..\arduinoLCD\test\Pain Drain\libraries\lvgl\src\draw\sw/lv_draw_sw_transform.c ****         ys_ups = ys_ups_start + ((ys_step * x) >> 8);
 307:..\..\..\arduinoLCD\test\Pain Drain\libraries\lvgl\src\draw\sw/lv_draw_sw_transform.c **** 
 308:..\..\..\arduinoLCD\test\Pain Drain\libraries\lvgl\src\draw\sw/lv_draw_sw_transform.c ****         int32_t xs_int = xs_ups >> 8;
 309:..\..\..\arduinoLCD\test\Pain Drain\libraries\lvgl\src\draw\sw/lv_draw_sw_transform.c ****         int32_t ys_int = ys_ups >> 8;
 310:..\..\..\arduinoLCD\test\Pain Drain\libraries\lvgl\src\draw\sw/lv_draw_sw_transform.c **** 
 311:..\..\..\arduinoLCD\test\Pain Drain\libraries\lvgl\src\draw\sw/lv_draw_sw_transform.c ****         /*Fully out of the image*/
 312:..\..\..\arduinoLCD\test\Pain Drain\libraries\lvgl\src\draw\sw/lv_draw_sw_transform.c ****         if(xs_int < 0 || xs_int >= src_w || ys_int < 0 || ys_int >= src_h) {
 313:..\..\..\arduinoLCD\test\Pain Drain\libraries\lvgl\src\draw\sw/lv_draw_sw_transform.c ****             abuf[x] = 0x00;
 314:..\..\..\arduinoLCD\test\Pain Drain\libraries\lvgl\src\draw\sw/lv_draw_sw_transform.c ****             continue;
 315:..\..\..\arduinoLCD\test\Pain Drain\libraries\lvgl\src\draw\sw/lv_draw_sw_transform.c ****         }
 316:..\..\..\arduinoLCD\test\Pain Drain\libraries\lvgl\src\draw\sw/lv_draw_sw_transform.c **** 
 317:..\..\..\arduinoLCD\test\Pain Drain\libraries\lvgl\src\draw\sw/lv_draw_sw_transform.c ****         /*Get the direction the hor and ver neighbor
 318:..\..\..\arduinoLCD\test\Pain Drain\libraries\lvgl\src\draw\sw/lv_draw_sw_transform.c ****          *`fract` will be in range of 0x00..0xFF and `next` (+/-1) indicates the direction*/
 319:..\..\..\arduinoLCD\test\Pain Drain\libraries\lvgl\src\draw\sw/lv_draw_sw_transform.c ****         int32_t xs_fract = xs_ups & 0xFF;
 320:..\..\..\arduinoLCD\test\Pain Drain\libraries\lvgl\src\draw\sw/lv_draw_sw_transform.c ****         int32_t ys_fract = ys_ups & 0xFF;
 321:..\..\..\arduinoLCD\test\Pain Drain\libraries\lvgl\src\draw\sw/lv_draw_sw_transform.c **** 
 322:..\..\..\arduinoLCD\test\Pain Drain\libraries\lvgl\src\draw\sw/lv_draw_sw_transform.c ****         int32_t x_next;
 323:..\..\..\arduinoLCD\test\Pain Drain\libraries\lvgl\src\draw\sw/lv_draw_sw_transform.c ****         int32_t y_next;
 324:..\..\..\arduinoLCD\test\Pain Drain\libraries\lvgl\src\draw\sw/lv_draw_sw_transform.c ****         if(xs_fract < 0x80) {
 325:..\..\..\arduinoLCD\test\Pain Drain\libraries\lvgl\src\draw\sw/lv_draw_sw_transform.c ****             x_next = -1;
ARM GAS  C:\Users\haske\AppData\Local\Temp\cc9HFfJU.s 			page 11


 326:..\..\..\arduinoLCD\test\Pain Drain\libraries\lvgl\src\draw\sw/lv_draw_sw_transform.c ****             xs_fract = (0x7F - xs_fract) * 2;
 327:..\..\..\arduinoLCD\test\Pain Drain\libraries\lvgl\src\draw\sw/lv_draw_sw_transform.c ****         }
 328:..\..\..\arduinoLCD\test\Pain Drain\libraries\lvgl\src\draw\sw/lv_draw_sw_transform.c ****         else {
 329:..\..\..\arduinoLCD\test\Pain Drain\libraries\lvgl\src\draw\sw/lv_draw_sw_transform.c ****             x_next = 1;
 330:..\..\..\arduinoLCD\test\Pain Drain\libraries\lvgl\src\draw\sw/lv_draw_sw_transform.c ****             xs_fract = (xs_fract - 0x80) * 2;
 331:..\..\..\arduinoLCD\test\Pain Drain\libraries\lvgl\src\draw\sw/lv_draw_sw_transform.c ****         }
 332:..\..\..\arduinoLCD\test\Pain Drain\libraries\lvgl\src\draw\sw/lv_draw_sw_transform.c ****         if(ys_fract < 0x80) {
 333:..\..\..\arduinoLCD\test\Pain Drain\libraries\lvgl\src\draw\sw/lv_draw_sw_transform.c ****             y_next = -1;
 334:..\..\..\arduinoLCD\test\Pain Drain\libraries\lvgl\src\draw\sw/lv_draw_sw_transform.c ****             ys_fract = (0x7F - ys_fract) * 2;
 335:..\..\..\arduinoLCD\test\Pain Drain\libraries\lvgl\src\draw\sw/lv_draw_sw_transform.c ****         }
 336:..\..\..\arduinoLCD\test\Pain Drain\libraries\lvgl\src\draw\sw/lv_draw_sw_transform.c ****         else {
 337:..\..\..\arduinoLCD\test\Pain Drain\libraries\lvgl\src\draw\sw/lv_draw_sw_transform.c ****             y_next = 1;
 338:..\..\..\arduinoLCD\test\Pain Drain\libraries\lvgl\src\draw\sw/lv_draw_sw_transform.c ****             ys_fract = (ys_fract - 0x80) * 2;
 339:..\..\..\arduinoLCD\test\Pain Drain\libraries\lvgl\src\draw\sw/lv_draw_sw_transform.c ****         }
 340:..\..\..\arduinoLCD\test\Pain Drain\libraries\lvgl\src\draw\sw/lv_draw_sw_transform.c **** 
 341:..\..\..\arduinoLCD\test\Pain Drain\libraries\lvgl\src\draw\sw/lv_draw_sw_transform.c ****         const uint8_t * src_tmp = src;
 342:..\..\..\arduinoLCD\test\Pain Drain\libraries\lvgl\src\draw\sw/lv_draw_sw_transform.c ****         src_tmp += (ys_int * src_stride * px_size) + xs_int * px_size;
 343:..\..\..\arduinoLCD\test\Pain Drain\libraries\lvgl\src\draw\sw/lv_draw_sw_transform.c **** 
 344:..\..\..\arduinoLCD\test\Pain Drain\libraries\lvgl\src\draw\sw/lv_draw_sw_transform.c **** 
 345:..\..\..\arduinoLCD\test\Pain Drain\libraries\lvgl\src\draw\sw/lv_draw_sw_transform.c ****         if(xs_int + x_next >= 0 &&
 346:..\..\..\arduinoLCD\test\Pain Drain\libraries\lvgl\src\draw\sw/lv_draw_sw_transform.c ****            xs_int + x_next <= src_w - 1 &&
 347:..\..\..\arduinoLCD\test\Pain Drain\libraries\lvgl\src\draw\sw/lv_draw_sw_transform.c ****            ys_int + y_next >= 0 &&
 348:..\..\..\arduinoLCD\test\Pain Drain\libraries\lvgl\src\draw\sw/lv_draw_sw_transform.c ****            ys_int + y_next <= src_h - 1) {
 349:..\..\..\arduinoLCD\test\Pain Drain\libraries\lvgl\src\draw\sw/lv_draw_sw_transform.c **** 
 350:..\..\..\arduinoLCD\test\Pain Drain\libraries\lvgl\src\draw\sw/lv_draw_sw_transform.c ****             const uint8_t * px_base = src_tmp;
 351:..\..\..\arduinoLCD\test\Pain Drain\libraries\lvgl\src\draw\sw/lv_draw_sw_transform.c ****             const uint8_t * px_hor = src_tmp + x_next * px_size;
 352:..\..\..\arduinoLCD\test\Pain Drain\libraries\lvgl\src\draw\sw/lv_draw_sw_transform.c ****             const uint8_t * px_ver = src_tmp + y_next * src_stride * px_size;
 353:..\..\..\arduinoLCD\test\Pain Drain\libraries\lvgl\src\draw\sw/lv_draw_sw_transform.c ****             lv_color_t c_base;
 354:..\..\..\arduinoLCD\test\Pain Drain\libraries\lvgl\src\draw\sw/lv_draw_sw_transform.c ****             lv_color_t c_ver;
 355:..\..\..\arduinoLCD\test\Pain Drain\libraries\lvgl\src\draw\sw/lv_draw_sw_transform.c ****             lv_color_t c_hor;
 356:..\..\..\arduinoLCD\test\Pain Drain\libraries\lvgl\src\draw\sw/lv_draw_sw_transform.c **** 
 357:..\..\..\arduinoLCD\test\Pain Drain\libraries\lvgl\src\draw\sw/lv_draw_sw_transform.c ****             if(has_alpha) {
 358:..\..\..\arduinoLCD\test\Pain Drain\libraries\lvgl\src\draw\sw/lv_draw_sw_transform.c ****                 lv_opa_t a_base;
 359:..\..\..\arduinoLCD\test\Pain Drain\libraries\lvgl\src\draw\sw/lv_draw_sw_transform.c ****                 lv_opa_t a_ver;
 360:..\..\..\arduinoLCD\test\Pain Drain\libraries\lvgl\src\draw\sw/lv_draw_sw_transform.c ****                 lv_opa_t a_hor;
 361:..\..\..\arduinoLCD\test\Pain Drain\libraries\lvgl\src\draw\sw/lv_draw_sw_transform.c ****                 if(cf == LV_IMG_CF_TRUE_COLOR_ALPHA) {
 362:..\..\..\arduinoLCD\test\Pain Drain\libraries\lvgl\src\draw\sw/lv_draw_sw_transform.c ****                     a_base = px_base[LV_IMG_PX_SIZE_ALPHA_BYTE - 1];
 363:..\..\..\arduinoLCD\test\Pain Drain\libraries\lvgl\src\draw\sw/lv_draw_sw_transform.c ****                     a_ver = px_ver[LV_IMG_PX_SIZE_ALPHA_BYTE - 1];
 364:..\..\..\arduinoLCD\test\Pain Drain\libraries\lvgl\src\draw\sw/lv_draw_sw_transform.c ****                     a_hor = px_hor[LV_IMG_PX_SIZE_ALPHA_BYTE - 1];
 365:..\..\..\arduinoLCD\test\Pain Drain\libraries\lvgl\src\draw\sw/lv_draw_sw_transform.c ****                 }
 366:..\..\..\arduinoLCD\test\Pain Drain\libraries\lvgl\src\draw\sw/lv_draw_sw_transform.c **** #if LV_COLOR_DEPTH == 16
 367:..\..\..\arduinoLCD\test\Pain Drain\libraries\lvgl\src\draw\sw/lv_draw_sw_transform.c ****                 else if(cf == LV_IMG_CF_RGB565A8) {
 368:..\..\..\arduinoLCD\test\Pain Drain\libraries\lvgl\src\draw\sw/lv_draw_sw_transform.c ****                     const lv_opa_t * a_tmp = src + src_stride * src_h * sizeof(lv_color_t);
 369:..\..\..\arduinoLCD\test\Pain Drain\libraries\lvgl\src\draw\sw/lv_draw_sw_transform.c ****                     a_base = *(a_tmp + (ys_int * src_stride) + xs_int);
 370:..\..\..\arduinoLCD\test\Pain Drain\libraries\lvgl\src\draw\sw/lv_draw_sw_transform.c ****                     a_hor = *(a_tmp + (ys_int * src_stride) + xs_int + x_next);
 371:..\..\..\arduinoLCD\test\Pain Drain\libraries\lvgl\src\draw\sw/lv_draw_sw_transform.c ****                     a_ver = *(a_tmp + ((ys_int + y_next) * src_stride) + xs_int);
 372:..\..\..\arduinoLCD\test\Pain Drain\libraries\lvgl\src\draw\sw/lv_draw_sw_transform.c ****                 }
 373:..\..\..\arduinoLCD\test\Pain Drain\libraries\lvgl\src\draw\sw/lv_draw_sw_transform.c **** #endif
 374:..\..\..\arduinoLCD\test\Pain Drain\libraries\lvgl\src\draw\sw/lv_draw_sw_transform.c ****                 else if(cf == LV_IMG_CF_TRUE_COLOR_CHROMA_KEYED) {
 375:..\..\..\arduinoLCD\test\Pain Drain\libraries\lvgl\src\draw\sw/lv_draw_sw_transform.c ****                     if(((lv_color_t *)px_base)->full == ck.full ||
 376:..\..\..\arduinoLCD\test\Pain Drain\libraries\lvgl\src\draw\sw/lv_draw_sw_transform.c ****                        ((lv_color_t *)px_ver)->full == ck.full ||
 377:..\..\..\arduinoLCD\test\Pain Drain\libraries\lvgl\src\draw\sw/lv_draw_sw_transform.c ****                        ((lv_color_t *)px_hor)->full == ck.full) {
 378:..\..\..\arduinoLCD\test\Pain Drain\libraries\lvgl\src\draw\sw/lv_draw_sw_transform.c ****                         abuf[x] = 0x00;
 379:..\..\..\arduinoLCD\test\Pain Drain\libraries\lvgl\src\draw\sw/lv_draw_sw_transform.c ****                         continue;
 380:..\..\..\arduinoLCD\test\Pain Drain\libraries\lvgl\src\draw\sw/lv_draw_sw_transform.c ****                     }
 381:..\..\..\arduinoLCD\test\Pain Drain\libraries\lvgl\src\draw\sw/lv_draw_sw_transform.c ****                     else {
 382:..\..\..\arduinoLCD\test\Pain Drain\libraries\lvgl\src\draw\sw/lv_draw_sw_transform.c ****                         a_base = 0xff;
ARM GAS  C:\Users\haske\AppData\Local\Temp\cc9HFfJU.s 			page 12


 383:..\..\..\arduinoLCD\test\Pain Drain\libraries\lvgl\src\draw\sw/lv_draw_sw_transform.c ****                         a_ver = 0xff;
 384:..\..\..\arduinoLCD\test\Pain Drain\libraries\lvgl\src\draw\sw/lv_draw_sw_transform.c ****                         a_hor = 0xff;
 385:..\..\..\arduinoLCD\test\Pain Drain\libraries\lvgl\src\draw\sw/lv_draw_sw_transform.c ****                     }
 386:..\..\..\arduinoLCD\test\Pain Drain\libraries\lvgl\src\draw\sw/lv_draw_sw_transform.c ****                 }
 387:..\..\..\arduinoLCD\test\Pain Drain\libraries\lvgl\src\draw\sw/lv_draw_sw_transform.c ****                 else {
 388:..\..\..\arduinoLCD\test\Pain Drain\libraries\lvgl\src\draw\sw/lv_draw_sw_transform.c ****                     a_base = 0xff;
 389:..\..\..\arduinoLCD\test\Pain Drain\libraries\lvgl\src\draw\sw/lv_draw_sw_transform.c ****                     a_ver = 0xff;
 390:..\..\..\arduinoLCD\test\Pain Drain\libraries\lvgl\src\draw\sw/lv_draw_sw_transform.c ****                     a_hor = 0xff;
 391:..\..\..\arduinoLCD\test\Pain Drain\libraries\lvgl\src\draw\sw/lv_draw_sw_transform.c ****                 }
 392:..\..\..\arduinoLCD\test\Pain Drain\libraries\lvgl\src\draw\sw/lv_draw_sw_transform.c **** 
 393:..\..\..\arduinoLCD\test\Pain Drain\libraries\lvgl\src\draw\sw/lv_draw_sw_transform.c ****                 if(a_ver != a_base) a_ver = ((a_ver * ys_fract) + (a_base * (0x100 - ys_fract))) >>
 394:..\..\..\arduinoLCD\test\Pain Drain\libraries\lvgl\src\draw\sw/lv_draw_sw_transform.c ****                 if(a_hor != a_base) a_hor = ((a_hor * xs_fract) + (a_base * (0x100 - xs_fract))) >>
 395:..\..\..\arduinoLCD\test\Pain Drain\libraries\lvgl\src\draw\sw/lv_draw_sw_transform.c ****                 abuf[x] = (a_ver + a_hor) >> 1;
 396:..\..\..\arduinoLCD\test\Pain Drain\libraries\lvgl\src\draw\sw/lv_draw_sw_transform.c **** 
 397:..\..\..\arduinoLCD\test\Pain Drain\libraries\lvgl\src\draw\sw/lv_draw_sw_transform.c ****                 if(abuf[x] == 0x00) continue;
 398:..\..\..\arduinoLCD\test\Pain Drain\libraries\lvgl\src\draw\sw/lv_draw_sw_transform.c **** 
 399:..\..\..\arduinoLCD\test\Pain Drain\libraries\lvgl\src\draw\sw/lv_draw_sw_transform.c **** #if LV_COLOR_DEPTH == 1 || LV_COLOR_DEPTH == 8
 400:..\..\..\arduinoLCD\test\Pain Drain\libraries\lvgl\src\draw\sw/lv_draw_sw_transform.c ****                 c_base.full = px_base[0];
 401:..\..\..\arduinoLCD\test\Pain Drain\libraries\lvgl\src\draw\sw/lv_draw_sw_transform.c ****                 c_ver.full = px_ver[0];
 402:..\..\..\arduinoLCD\test\Pain Drain\libraries\lvgl\src\draw\sw/lv_draw_sw_transform.c ****                 c_hor.full = px_hor[0];
 403:..\..\..\arduinoLCD\test\Pain Drain\libraries\lvgl\src\draw\sw/lv_draw_sw_transform.c **** #elif LV_COLOR_DEPTH == 16
 404:..\..\..\arduinoLCD\test\Pain Drain\libraries\lvgl\src\draw\sw/lv_draw_sw_transform.c ****                 c_base.full = px_base[0] + (px_base[1] << 8);
 405:..\..\..\arduinoLCD\test\Pain Drain\libraries\lvgl\src\draw\sw/lv_draw_sw_transform.c ****                 c_ver.full = px_ver[0] + (px_ver[1] << 8);
 406:..\..\..\arduinoLCD\test\Pain Drain\libraries\lvgl\src\draw\sw/lv_draw_sw_transform.c ****                 c_hor.full = px_hor[0] + (px_hor[1] << 8);
 407:..\..\..\arduinoLCD\test\Pain Drain\libraries\lvgl\src\draw\sw/lv_draw_sw_transform.c **** #elif LV_COLOR_DEPTH == 32
 408:..\..\..\arduinoLCD\test\Pain Drain\libraries\lvgl\src\draw\sw/lv_draw_sw_transform.c ****                 c_base.full = *((uint32_t *)px_base);
 409:..\..\..\arduinoLCD\test\Pain Drain\libraries\lvgl\src\draw\sw/lv_draw_sw_transform.c ****                 c_ver.full = *((uint32_t *)px_ver);
 410:..\..\..\arduinoLCD\test\Pain Drain\libraries\lvgl\src\draw\sw/lv_draw_sw_transform.c ****                 c_hor.full = *((uint32_t *)px_hor);
 411:..\..\..\arduinoLCD\test\Pain Drain\libraries\lvgl\src\draw\sw/lv_draw_sw_transform.c **** #endif
 412:..\..\..\arduinoLCD\test\Pain Drain\libraries\lvgl\src\draw\sw/lv_draw_sw_transform.c ****             }
 413:..\..\..\arduinoLCD\test\Pain Drain\libraries\lvgl\src\draw\sw/lv_draw_sw_transform.c ****             /*No alpha channel -> RGB*/
 414:..\..\..\arduinoLCD\test\Pain Drain\libraries\lvgl\src\draw\sw/lv_draw_sw_transform.c ****             else {
 415:..\..\..\arduinoLCD\test\Pain Drain\libraries\lvgl\src\draw\sw/lv_draw_sw_transform.c ****                 c_base = *((const lv_color_t *) px_base);
 416:..\..\..\arduinoLCD\test\Pain Drain\libraries\lvgl\src\draw\sw/lv_draw_sw_transform.c ****                 c_hor = *((const lv_color_t *) px_hor);
 417:..\..\..\arduinoLCD\test\Pain Drain\libraries\lvgl\src\draw\sw/lv_draw_sw_transform.c ****                 c_ver = *((const lv_color_t *) px_ver);
 418:..\..\..\arduinoLCD\test\Pain Drain\libraries\lvgl\src\draw\sw/lv_draw_sw_transform.c ****                 abuf[x] = 0xff;
 419:..\..\..\arduinoLCD\test\Pain Drain\libraries\lvgl\src\draw\sw/lv_draw_sw_transform.c ****             }
 420:..\..\..\arduinoLCD\test\Pain Drain\libraries\lvgl\src\draw\sw/lv_draw_sw_transform.c **** 
 421:..\..\..\arduinoLCD\test\Pain Drain\libraries\lvgl\src\draw\sw/lv_draw_sw_transform.c ****             if(c_base.full == c_ver.full && c_base.full == c_hor.full) {
 422:..\..\..\arduinoLCD\test\Pain Drain\libraries\lvgl\src\draw\sw/lv_draw_sw_transform.c ****                 cbuf[x] = c_base;
 423:..\..\..\arduinoLCD\test\Pain Drain\libraries\lvgl\src\draw\sw/lv_draw_sw_transform.c ****             }
 424:..\..\..\arduinoLCD\test\Pain Drain\libraries\lvgl\src\draw\sw/lv_draw_sw_transform.c ****             else {
 425:..\..\..\arduinoLCD\test\Pain Drain\libraries\lvgl\src\draw\sw/lv_draw_sw_transform.c ****                 c_ver = lv_color_mix(c_ver, c_base, ys_fract);
 426:..\..\..\arduinoLCD\test\Pain Drain\libraries\lvgl\src\draw\sw/lv_draw_sw_transform.c ****                 c_hor = lv_color_mix(c_hor, c_base, xs_fract);
 427:..\..\..\arduinoLCD\test\Pain Drain\libraries\lvgl\src\draw\sw/lv_draw_sw_transform.c ****                 cbuf[x] = lv_color_mix(c_hor, c_ver, LV_OPA_50);
 428:..\..\..\arduinoLCD\test\Pain Drain\libraries\lvgl\src\draw\sw/lv_draw_sw_transform.c ****             }
 429:..\..\..\arduinoLCD\test\Pain Drain\libraries\lvgl\src\draw\sw/lv_draw_sw_transform.c ****         }
 430:..\..\..\arduinoLCD\test\Pain Drain\libraries\lvgl\src\draw\sw/lv_draw_sw_transform.c ****         /*Partially out of the image*/
 431:..\..\..\arduinoLCD\test\Pain Drain\libraries\lvgl\src\draw\sw/lv_draw_sw_transform.c ****         else {
 432:..\..\..\arduinoLCD\test\Pain Drain\libraries\lvgl\src\draw\sw/lv_draw_sw_transform.c **** #if LV_COLOR_DEPTH == 1 || LV_COLOR_DEPTH == 8
 433:..\..\..\arduinoLCD\test\Pain Drain\libraries\lvgl\src\draw\sw/lv_draw_sw_transform.c ****             cbuf[x].full = src_tmp[0];
 434:..\..\..\arduinoLCD\test\Pain Drain\libraries\lvgl\src\draw\sw/lv_draw_sw_transform.c **** #elif LV_COLOR_DEPTH == 16
 435:..\..\..\arduinoLCD\test\Pain Drain\libraries\lvgl\src\draw\sw/lv_draw_sw_transform.c ****             cbuf[x].full = src_tmp[0] + (src_tmp[1] << 8);
 436:..\..\..\arduinoLCD\test\Pain Drain\libraries\lvgl\src\draw\sw/lv_draw_sw_transform.c **** #elif LV_COLOR_DEPTH == 32
 437:..\..\..\arduinoLCD\test\Pain Drain\libraries\lvgl\src\draw\sw/lv_draw_sw_transform.c ****             cbuf[x].full = *((uint32_t *)src_tmp);
 438:..\..\..\arduinoLCD\test\Pain Drain\libraries\lvgl\src\draw\sw/lv_draw_sw_transform.c **** #endif
 439:..\..\..\arduinoLCD\test\Pain Drain\libraries\lvgl\src\draw\sw/lv_draw_sw_transform.c ****             lv_opa_t a;
ARM GAS  C:\Users\haske\AppData\Local\Temp\cc9HFfJU.s 			page 13


 440:..\..\..\arduinoLCD\test\Pain Drain\libraries\lvgl\src\draw\sw/lv_draw_sw_transform.c ****             switch(cf) {
 441:..\..\..\arduinoLCD\test\Pain Drain\libraries\lvgl\src\draw\sw/lv_draw_sw_transform.c ****                 case LV_IMG_CF_TRUE_COLOR_ALPHA:
 442:..\..\..\arduinoLCD\test\Pain Drain\libraries\lvgl\src\draw\sw/lv_draw_sw_transform.c ****                     a = src_tmp[LV_IMG_PX_SIZE_ALPHA_BYTE - 1];
 443:..\..\..\arduinoLCD\test\Pain Drain\libraries\lvgl\src\draw\sw/lv_draw_sw_transform.c ****                     break;
 444:..\..\..\arduinoLCD\test\Pain Drain\libraries\lvgl\src\draw\sw/lv_draw_sw_transform.c ****                 case LV_IMG_CF_TRUE_COLOR_CHROMA_KEYED:
 445:..\..\..\arduinoLCD\test\Pain Drain\libraries\lvgl\src\draw\sw/lv_draw_sw_transform.c ****                     a = cbuf[x].full == ck.full ? 0x00 : 0xff;
 446:..\..\..\arduinoLCD\test\Pain Drain\libraries\lvgl\src\draw\sw/lv_draw_sw_transform.c ****                     break;
 447:..\..\..\arduinoLCD\test\Pain Drain\libraries\lvgl\src\draw\sw/lv_draw_sw_transform.c **** #if LV_COLOR_DEPTH == 16
 448:..\..\..\arduinoLCD\test\Pain Drain\libraries\lvgl\src\draw\sw/lv_draw_sw_transform.c ****                 case LV_IMG_CF_RGB565A8:
 449:..\..\..\arduinoLCD\test\Pain Drain\libraries\lvgl\src\draw\sw/lv_draw_sw_transform.c ****                     a = *(src + src_stride * src_h * sizeof(lv_color_t) + (ys_int * src_stride) + x
 450:..\..\..\arduinoLCD\test\Pain Drain\libraries\lvgl\src\draw\sw/lv_draw_sw_transform.c ****                     break;
 451:..\..\..\arduinoLCD\test\Pain Drain\libraries\lvgl\src\draw\sw/lv_draw_sw_transform.c **** #endif
 452:..\..\..\arduinoLCD\test\Pain Drain\libraries\lvgl\src\draw\sw/lv_draw_sw_transform.c ****                 default:
 453:..\..\..\arduinoLCD\test\Pain Drain\libraries\lvgl\src\draw\sw/lv_draw_sw_transform.c ****                     a = 0xff;
 454:..\..\..\arduinoLCD\test\Pain Drain\libraries\lvgl\src\draw\sw/lv_draw_sw_transform.c ****             }
 455:..\..\..\arduinoLCD\test\Pain Drain\libraries\lvgl\src\draw\sw/lv_draw_sw_transform.c **** 
 456:..\..\..\arduinoLCD\test\Pain Drain\libraries\lvgl\src\draw\sw/lv_draw_sw_transform.c ****             if((xs_int == 0 && x_next < 0) || (xs_int == src_w - 1 && x_next > 0))  {
 457:..\..\..\arduinoLCD\test\Pain Drain\libraries\lvgl\src\draw\sw/lv_draw_sw_transform.c ****                 abuf[x] = (a * (0xFF - xs_fract)) >> 8;
 458:..\..\..\arduinoLCD\test\Pain Drain\libraries\lvgl\src\draw\sw/lv_draw_sw_transform.c ****             }
 459:..\..\..\arduinoLCD\test\Pain Drain\libraries\lvgl\src\draw\sw/lv_draw_sw_transform.c ****             else if((ys_int == 0 && y_next < 0) || (ys_int == src_h - 1 && y_next > 0))  {
 460:..\..\..\arduinoLCD\test\Pain Drain\libraries\lvgl\src\draw\sw/lv_draw_sw_transform.c ****                 abuf[x] = (a * (0xFF - ys_fract)) >> 8;
 461:..\..\..\arduinoLCD\test\Pain Drain\libraries\lvgl\src\draw\sw/lv_draw_sw_transform.c ****             }
 462:..\..\..\arduinoLCD\test\Pain Drain\libraries\lvgl\src\draw\sw/lv_draw_sw_transform.c ****             else {
 463:..\..\..\arduinoLCD\test\Pain Drain\libraries\lvgl\src\draw\sw/lv_draw_sw_transform.c ****                 abuf[x] = 0x00;
 464:..\..\..\arduinoLCD\test\Pain Drain\libraries\lvgl\src\draw\sw/lv_draw_sw_transform.c ****             }
 465:..\..\..\arduinoLCD\test\Pain Drain\libraries\lvgl\src\draw\sw/lv_draw_sw_transform.c ****         }
 466:..\..\..\arduinoLCD\test\Pain Drain\libraries\lvgl\src\draw\sw/lv_draw_sw_transform.c ****     }
 467:..\..\..\arduinoLCD\test\Pain Drain\libraries\lvgl\src\draw\sw/lv_draw_sw_transform.c **** }
 468:..\..\..\arduinoLCD\test\Pain Drain\libraries\lvgl\src\draw\sw/lv_draw_sw_transform.c **** 
 469:..\..\..\arduinoLCD\test\Pain Drain\libraries\lvgl\src\draw\sw/lv_draw_sw_transform.c **** static void transform_point_upscaled(point_transform_dsc_t * t, int32_t xin, int32_t yin, int32_t *
 470:..\..\..\arduinoLCD\test\Pain Drain\libraries\lvgl\src\draw\sw/lv_draw_sw_transform.c ****                                      int32_t * yout)
 471:..\..\..\arduinoLCD\test\Pain Drain\libraries\lvgl\src\draw\sw/lv_draw_sw_transform.c **** {
 242              		.loc 1 471 0
 243              		.cfi_startproc
 244              		@ args = 4, pretend = 0, frame = 0
 245              		@ frame_needed = 0, uses_anonymous_args = 0
 246              		@ link register save eliminated.
 247              	.LVL31:
 248 0000 70B4     		push	{r4, r5, r6}
 249              		.cfi_def_cfa_offset 12
 250              		.cfi_offset 4, -12
 251              		.cfi_offset 5, -8
 252              		.cfi_offset 6, -4
 472:..\..\..\arduinoLCD\test\Pain Drain\libraries\lvgl\src\draw\sw/lv_draw_sw_transform.c ****     if(t->angle == 0 && t->zoom == LV_IMG_ZOOM_NONE) {
 253              		.loc 1 472 0
 254 0002 C469     		ldr	r4, [r0, #28]
 255 0004 4CB9     		cbnz	r4, .L16
 256              		.loc 1 472 0 is_stmt 0 discriminator 1
 257 0006 8569     		ldr	r5, [r0, #24]
 258 0008 B5F5807F 		cmp	r5, #256
 259 000c 05D1     		bne	.L16
 473:..\..\..\arduinoLCD\test\Pain Drain\libraries\lvgl\src\draw\sw/lv_draw_sw_transform.c ****         *xout = xin * 256;
 260              		.loc 1 473 0 is_stmt 1
 261 000e 0902     		lsls	r1, r1, #8
 262              	.LVL32:
 263 0010 1960     		str	r1, [r3]
 474:..\..\..\arduinoLCD\test\Pain Drain\libraries\lvgl\src\draw\sw/lv_draw_sw_transform.c ****         *yout = yin * 256;
ARM GAS  C:\Users\haske\AppData\Local\Temp\cc9HFfJU.s 			page 14


 264              		.loc 1 474 0
 265 0012 1202     		lsls	r2, r2, #8
 266              	.LVL33:
 267 0014 039B     		ldr	r3, [sp, #12]
 268              	.LVL34:
 269 0016 1A60     		str	r2, [r3]
 475:..\..\..\arduinoLCD\test\Pain Drain\libraries\lvgl\src\draw\sw/lv_draw_sw_transform.c ****         return;
 270              		.loc 1 475 0
 271 0018 46E0     		b	.L15
 272              	.LVL35:
 273              	.L16:
 476:..\..\..\arduinoLCD\test\Pain Drain\libraries\lvgl\src\draw\sw/lv_draw_sw_transform.c ****     }
 477:..\..\..\arduinoLCD\test\Pain Drain\libraries\lvgl\src\draw\sw/lv_draw_sw_transform.c **** 
 478:..\..\..\arduinoLCD\test\Pain Drain\libraries\lvgl\src\draw\sw/lv_draw_sw_transform.c ****     xin -= t->pivot.x;
 274              		.loc 1 478 0
 275 001a B0F92850 		ldrsh	r5, [r0, #40]
 276 001e 491B     		subs	r1, r1, r5
 277              	.LVL36:
 479:..\..\..\arduinoLCD\test\Pain Drain\libraries\lvgl\src\draw\sw/lv_draw_sw_transform.c ****     yin -= t->pivot.y;
 278              		.loc 1 479 0
 279 0020 B0F92A50 		ldrsh	r5, [r0, #42]
 280 0024 521B     		subs	r2, r2, r5
 281              	.LVL37:
 480:..\..\..\arduinoLCD\test\Pain Drain\libraries\lvgl\src\draw\sw/lv_draw_sw_transform.c **** 
 481:..\..\..\arduinoLCD\test\Pain Drain\libraries\lvgl\src\draw\sw/lv_draw_sw_transform.c ****     if(t->angle == 0) {
 282              		.loc 1 481 0
 283 0026 5CB9     		cbnz	r4, .L18
 482:..\..\..\arduinoLCD\test\Pain Drain\libraries\lvgl\src\draw\sw/lv_draw_sw_transform.c ****         *xout = ((int32_t)(xin * t->zoom)) + (t->pivot_x_256);
 284              		.loc 1 482 0
 285 0028 8469     		ldr	r4, [r0, #24]
 286 002a 056A     		ldr	r5, [r0, #32]
 287 002c 04FB0151 		mla	r1, r4, r1, r5
 288              	.LVL38:
 289 0030 1960     		str	r1, [r3]
 290              	.LVL39:
 483:..\..\..\arduinoLCD\test\Pain Drain\libraries\lvgl\src\draw\sw/lv_draw_sw_transform.c ****         *yout = ((int32_t)(yin * t->zoom)) + (t->pivot_y_256);
 291              		.loc 1 483 0
 292 0032 8369     		ldr	r3, [r0, #24]
 293              	.LVL40:
 294 0034 416A     		ldr	r1, [r0, #36]
 295 0036 03FB0212 		mla	r2, r3, r2, r1
 296              	.LVL41:
 297 003a 039B     		ldr	r3, [sp, #12]
 298 003c 1A60     		str	r2, [r3]
 299 003e 33E0     		b	.L15
 300              	.LVL42:
 301              	.L18:
 484:..\..\..\arduinoLCD\test\Pain Drain\libraries\lvgl\src\draw\sw/lv_draw_sw_transform.c ****     }
 485:..\..\..\arduinoLCD\test\Pain Drain\libraries\lvgl\src\draw\sw/lv_draw_sw_transform.c ****     else if(t->zoom == LV_IMG_ZOOM_NONE) {
 302              		.loc 1 485 0
 303 0040 8669     		ldr	r6, [r0, #24]
 304 0042 B6F5807F 		cmp	r6, #256
 305 0046 15D1     		bne	.L19
 486:..\..\..\arduinoLCD\test\Pain Drain\libraries\lvgl\src\draw\sw/lv_draw_sw_transform.c ****         *xout = ((t->cosma * xin - t->sinma * yin) >> 2) + (t->pivot_x_256);
 306              		.loc 1 486 0
 307 0048 4469     		ldr	r4, [r0, #20]
 308 004a 04FB01F5 		mul	r5, r4, r1
ARM GAS  C:\Users\haske\AppData\Local\Temp\cc9HFfJU.s 			page 15


 309 004e 0469     		ldr	r4, [r0, #16]
 310 0050 04FB1255 		mls	r5, r4, r2, r5
 311 0054 046A     		ldr	r4, [r0, #32]
 312 0056 04EBA504 		add	r4, r4, r5, asr #2
 313 005a 1C60     		str	r4, [r3]
 487:..\..\..\arduinoLCD\test\Pain Drain\libraries\lvgl\src\draw\sw/lv_draw_sw_transform.c ****         *yout = ((t->sinma * xin + t->cosma * yin) >> 2) + (t->pivot_y_256);
 314              		.loc 1 487 0
 315 005c 0369     		ldr	r3, [r0, #16]
 316              	.LVL43:
 317 005e 4469     		ldr	r4, [r0, #20]
 318 0060 04FB02F2 		mul	r2, r4, r2
 319              	.LVL44:
 320 0064 03FB0121 		mla	r1, r3, r1, r2
 321              	.LVL45:
 322 0068 436A     		ldr	r3, [r0, #36]
 323 006a 03EBA101 		add	r1, r3, r1, asr #2
 324 006e 039B     		ldr	r3, [sp, #12]
 325 0070 1960     		str	r1, [r3]
 326 0072 19E0     		b	.L15
 327              	.LVL46:
 328              	.L19:
 488:..\..\..\arduinoLCD\test\Pain Drain\libraries\lvgl\src\draw\sw/lv_draw_sw_transform.c ****     }
 489:..\..\..\arduinoLCD\test\Pain Drain\libraries\lvgl\src\draw\sw/lv_draw_sw_transform.c ****     else {
 490:..\..\..\arduinoLCD\test\Pain Drain\libraries\lvgl\src\draw\sw/lv_draw_sw_transform.c ****         *xout = (((t->cosma * xin - t->sinma * yin) * t->zoom) >> 10) + (t->pivot_x_256);
 329              		.loc 1 490 0
 330 0074 4569     		ldr	r5, [r0, #20]
 331 0076 05FB01F5 		mul	r5, r5, r1
 332 007a 0469     		ldr	r4, [r0, #16]
 333 007c 04FB1254 		mls	r4, r4, r2, r5
 334 0080 04FB06F4 		mul	r4, r4, r6
 335 0084 056A     		ldr	r5, [r0, #32]
 336 0086 05EBA424 		add	r4, r5, r4, asr #10
 337 008a 1C60     		str	r4, [r3]
 491:..\..\..\arduinoLCD\test\Pain Drain\libraries\lvgl\src\draw\sw/lv_draw_sw_transform.c ****         *yout = (((t->sinma * xin + t->cosma * yin) * t->zoom) >> 10) + (t->pivot_y_256);
 338              		.loc 1 491 0
 339 008c 0469     		ldr	r4, [r0, #16]
 340 008e 4369     		ldr	r3, [r0, #20]
 341              	.LVL47:
 342 0090 03FB02F2 		mul	r2, r3, r2
 343              	.LVL48:
 344 0094 04FB0121 		mla	r1, r4, r1, r2
 345              	.LVL49:
 346 0098 8269     		ldr	r2, [r0, #24]
 347 009a 02FB01F1 		mul	r1, r2, r1
 348 009e 436A     		ldr	r3, [r0, #36]
 349 00a0 03EBA121 		add	r1, r3, r1, asr #10
 350 00a4 039B     		ldr	r3, [sp, #12]
 351 00a6 1960     		str	r1, [r3]
 352              	.L15:
 492:..\..\..\arduinoLCD\test\Pain Drain\libraries\lvgl\src\draw\sw/lv_draw_sw_transform.c ****     }
 493:..\..\..\arduinoLCD\test\Pain Drain\libraries\lvgl\src\draw\sw/lv_draw_sw_transform.c **** }
 353              		.loc 1 493 0
 354 00a8 70BC     		pop	{r4, r5, r6}
 355              		.cfi_restore 6
 356              		.cfi_restore 5
 357              		.cfi_restore 4
 358              		.cfi_def_cfa_offset 0
ARM GAS  C:\Users\haske\AppData\Local\Temp\cc9HFfJU.s 			page 16


 359              	.LVL50:
 360 00aa 7047     		bx	lr
 361              		.cfi_endproc
 362              	.LFE164:
 363              		.size	transform_point_upscaled, .-transform_point_upscaled
 364              		.section	.text.argb_and_rgb_aa,"ax",%progbits
 365              		.align	2
 366              		.thumb
 367              		.thumb_func
 368              		.type	argb_and_rgb_aa, %function
 369              	argb_and_rgb_aa:
 370              	.LFB163:
 271:..\..\..\arduinoLCD\test\Pain Drain\libraries\lvgl\src\draw\sw/lv_draw_sw_transform.c ****     int32_t xs_ups_start = xs_ups;
 371              		.loc 1 271 0
 372              		.cfi_startproc
 373              		@ args = 32, pretend = 0, frame = 64
 374              		@ frame_needed = 0, uses_anonymous_args = 0
 375              	.LVL51:
 376 0000 2DE9F04F 		push	{r4, r5, r6, r7, r8, r9, r10, fp, lr}
 377              		.cfi_def_cfa_offset 36
 378              		.cfi_offset 4, -36
 379              		.cfi_offset 5, -32
 380              		.cfi_offset 6, -28
 381              		.cfi_offset 7, -24
 382              		.cfi_offset 8, -20
 383              		.cfi_offset 9, -16
 384              		.cfi_offset 10, -12
 385              		.cfi_offset 11, -8
 386              		.cfi_offset 14, -4
 387 0004 91B0     		sub	sp, sp, #68
 388              		.cfi_def_cfa_offset 104
 389 0006 0190     		str	r0, [sp, #4]
 390 0008 8B46     		mov	fp, r1
 391 000a 0092     		str	r2, [sp]
 392 000c 0393     		str	r3, [sp, #12]
 393 000e DDF868A0 		ldr	r10, [sp, #104]
 394 0012 DDF86C90 		ldr	r9, [sp, #108]
 395 0016 1D9E     		ldr	r6, [sp, #116]
 396 0018 1E9D     		ldr	r5, [sp, #120]
 397 001a 9DF88430 		ldrb	r3, [sp, #132]	@ zero_extendqisi2
 398              	.LVL52:
 399 001e 0493     		str	r3, [sp, #16]
 400              	.LVL53:
 276:..\..\..\arduinoLCD\test\Pain Drain\libraries\lvgl\src\draw\sw/lv_draw_sw_transform.c ****     switch(cf) {
 401              		.loc 1 276 0
 402 0020 4FF00002 		mov	r2, #0	@ movhi
 403              	.LVL54:
 404 0024 ADF82620 		strh	r2, [sp, #38]	@ movhi
 277:..\..\..\arduinoLCD\test\Pain Drain\libraries\lvgl\src\draw\sw/lv_draw_sw_transform.c ****         case LV_IMG_CF_TRUE_COLOR:
 405              		.loc 1 277 0
 406 0028 043B     		subs	r3, r3, #4
 407 002a 102B     		cmp	r3, #16
 408 002c 00F2C781 		bhi	.L21
 409 0030 DFE813F0 		tbh	[pc, r3, lsl #1]
 410              	.LVL55:
 411              	.L24:
 412 0034 1100     		.2byte	(.L23-.L24)/2
ARM GAS  C:\Users\haske\AppData\Local\Temp\cc9HFfJU.s 			page 17


 413 0036 2600     		.2byte	(.L60-.L24)/2
 414 0038 1600     		.2byte	(.L26-.L24)/2
 415 003a C501     		.2byte	(.L21-.L24)/2
 416 003c C501     		.2byte	(.L21-.L24)/2
 417 003e C501     		.2byte	(.L21-.L24)/2
 418 0040 C501     		.2byte	(.L21-.L24)/2
 419 0042 C501     		.2byte	(.L21-.L24)/2
 420 0044 C501     		.2byte	(.L21-.L24)/2
 421 0046 C501     		.2byte	(.L21-.L24)/2
 422 0048 C501     		.2byte	(.L21-.L24)/2
 423 004a C501     		.2byte	(.L21-.L24)/2
 424 004c C501     		.2byte	(.L21-.L24)/2
 425 004e C501     		.2byte	(.L21-.L24)/2
 426 0050 C501     		.2byte	(.L21-.L24)/2
 427 0052 C501     		.2byte	(.L21-.L24)/2
 428 0054 2100     		.2byte	(.L27-.L24)/2
 429              		.p2align 1
 430              	.L23:
 280:..\..\..\arduinoLCD\test\Pain Drain\libraries\lvgl\src\draw\sw/lv_draw_sw_transform.c ****             break;
 431              		.loc 1 280 0
 432 0056 0223     		movs	r3, #2
 433 0058 0693     		str	r3, [sp, #24]
 279:..\..\..\arduinoLCD\test\Pain Drain\libraries\lvgl\src\draw\sw/lv_draw_sw_transform.c ****             px_size = sizeof(lv_color_t);
 434              		.loc 1 279 0
 435 005a 0023     		movs	r3, #0
 436 005c 0B93     		str	r3, [sp, #44]
 437 005e 13E0     		b	.L25
 438              	.L26:
 439              	.LVL56:
 440              	.LBB23:
 289:..\..\..\arduinoLCD\test\Pain Drain\libraries\lvgl\src\draw\sw/lv_draw_sw_transform.c ****                 ck = d->driver->color_chroma_key;
 441              		.loc 1 289 0
 442 0060 FFF7FEFF 		bl	_lv_refr_get_disp_refreshing
 443              	.LVL57:
 290:..\..\..\arduinoLCD\test\Pain Drain\libraries\lvgl\src\draw\sw/lv_draw_sw_transform.c ****                 break;
 444              		.loc 1 290 0
 445 0064 0368     		ldr	r3, [r0]
 446 0066 1B8F     		ldrh	r3, [r3, #56]
 447              	.LVL58:
 448 0068 ADF82630 		strh	r3, [sp, #38]	@ movhi
 288:..\..\..\arduinoLCD\test\Pain Drain\libraries\lvgl\src\draw\sw/lv_draw_sw_transform.c ****                 lv_disp_t * d = _lv_refr_get_disp_refreshing();
 449              		.loc 1 288 0
 450 006c 0223     		movs	r3, #2
 451              	.LVL59:
 452 006e 0693     		str	r3, [sp, #24]
 287:..\..\..\arduinoLCD\test\Pain Drain\libraries\lvgl\src\draw\sw/lv_draw_sw_transform.c ****                 px_size = sizeof(lv_color_t);
 453              		.loc 1 287 0
 454 0070 0123     		movs	r3, #1
 455 0072 0B93     		str	r3, [sp, #44]
 291:..\..\..\arduinoLCD\test\Pain Drain\libraries\lvgl\src\draw\sw/lv_draw_sw_transform.c ****             }
 456              		.loc 1 291 0
 457 0074 08E0     		b	.L25
 458              	.LVL60:
 459              	.L27:
 460              	.LBE23:
 296:..\..\..\arduinoLCD\test\Pain Drain\libraries\lvgl\src\draw\sw/lv_draw_sw_transform.c ****             break;
 461              		.loc 1 296 0
ARM GAS  C:\Users\haske\AppData\Local\Temp\cc9HFfJU.s 			page 18


 462 0076 0223     		movs	r3, #2
 463 0078 0693     		str	r3, [sp, #24]
 295:..\..\..\arduinoLCD\test\Pain Drain\libraries\lvgl\src\draw\sw/lv_draw_sw_transform.c ****             px_size = sizeof(lv_color_t);
 464              		.loc 1 295 0
 465 007a 0123     		movs	r3, #1
 466 007c 0B93     		str	r3, [sp, #44]
 297:..\..\..\arduinoLCD\test\Pain Drain\libraries\lvgl\src\draw\sw/lv_draw_sw_transform.c **** #endif
 467              		.loc 1 297 0
 468 007e 03E0     		b	.L25
 469              	.LVL61:
 470              	.L60:
 284:..\..\..\arduinoLCD\test\Pain Drain\libraries\lvgl\src\draw\sw/lv_draw_sw_transform.c ****             break;
 471              		.loc 1 284 0
 472 0080 0323     		movs	r3, #3
 473 0082 0693     		str	r3, [sp, #24]
 283:..\..\..\arduinoLCD\test\Pain Drain\libraries\lvgl\src\draw\sw/lv_draw_sw_transform.c ****             px_size = LV_IMG_PX_SIZE_ALPHA_BYTE;
 474              		.loc 1 283 0
 475 0084 0123     		movs	r3, #1
 476 0086 0B93     		str	r3, [sp, #44]
 477              	.LVL62:
 478              	.L25:
 304:..\..\..\arduinoLCD\test\Pain Drain\libraries\lvgl\src\draw\sw/lv_draw_sw_transform.c ****         xs_ups = xs_ups_start + ((xs_step * x) >> 8);
 479              		.loc 1 304 0
 480 0088 0021     		movs	r1, #0
 481 008a DDF88080 		ldr	r8, [sp, #128]
 482 008e 93E1     		b	.L28
 483              	.LVL63:
 484              	.L58:
 485              	.LBB24:
 305:..\..\..\arduinoLCD\test\Pain Drain\libraries\lvgl\src\draw\sw/lv_draw_sw_transform.c ****         ys_ups = ys_ups_start + ((ys_step * x) >> 8);
 486              		.loc 1 305 0
 487 0090 1C9B     		ldr	r3, [sp, #112]
 488 0092 03FB01F7 		mul	r7, r3, r1
 489 0096 0AEB2727 		add	r7, r10, r7, asr #8
 490              	.LVL64:
 306:..\..\..\arduinoLCD\test\Pain Drain\libraries\lvgl\src\draw\sw/lv_draw_sw_transform.c **** 
 491              		.loc 1 306 0
 492 009a 06FB01F4 		mul	r4, r6, r1
 493              	.LVL65:
 494 009e 09EB2424 		add	r4, r9, r4, asr #8
 495              	.LVL66:
 309:..\..\..\arduinoLCD\test\Pain Drain\libraries\lvgl\src\draw\sw/lv_draw_sw_transform.c **** 
 496              		.loc 1 309 0
 497 00a2 2212     		asrs	r2, r4, #8
 498              	.LVL67:
 312:..\..\..\arduinoLCD\test\Pain Drain\libraries\lvgl\src\draw\sw/lv_draw_sw_transform.c ****             abuf[x] = 0x00;
 499              		.loc 1 312 0
 500 00a4 3B12     		asrs	r3, r7, #8
 501              	.LVL68:
 502 00a6 06D4     		bmi	.L29
 312:..\..\..\arduinoLCD\test\Pain Drain\libraries\lvgl\src\draw\sw/lv_draw_sw_transform.c ****             abuf[x] = 0x00;
 503              		.loc 1 312 0 is_stmt 0 discriminator 1
 504 00a8 5B45     		cmp	r3, fp
 505 00aa 04DA     		bge	.L29
 312:..\..\..\arduinoLCD\test\Pain Drain\libraries\lvgl\src\draw\sw/lv_draw_sw_transform.c ****             abuf[x] = 0x00;
 506              		.loc 1 312 0 discriminator 2
 507 00ac 002A     		cmp	r2, #0
ARM GAS  C:\Users\haske\AppData\Local\Temp\cc9HFfJU.s 			page 19


 508 00ae 02DB     		blt	.L29
 312:..\..\..\arduinoLCD\test\Pain Drain\libraries\lvgl\src\draw\sw/lv_draw_sw_transform.c ****             abuf[x] = 0x00;
 509              		.loc 1 312 0 discriminator 3
 510 00b0 0098     		ldr	r0, [sp]
 511              	.LVL69:
 512 00b2 8242     		cmp	r2, r0
 513 00b4 03DB     		blt	.L30
 514              	.LVL70:
 515              	.L29:
 313:..\..\..\arduinoLCD\test\Pain Drain\libraries\lvgl\src\draw\sw/lv_draw_sw_transform.c ****             continue;
 516              		.loc 1 313 0 is_stmt 1
 517 00b6 0023     		movs	r3, #0
 518              	.LVL71:
 519 00b8 08F80130 		strb	r3, [r8, r1]
 314:..\..\..\arduinoLCD\test\Pain Drain\libraries\lvgl\src\draw\sw/lv_draw_sw_transform.c ****         }
 520              		.loc 1 314 0
 521 00bc 7AE1     		b	.L31
 522              	.LVL72:
 523              	.L30:
 319:..\..\..\arduinoLCD\test\Pain Drain\libraries\lvgl\src\draw\sw/lv_draw_sw_transform.c ****         int32_t ys_fract = ys_ups & 0xFF;
 524              		.loc 1 319 0
 525 00be FFB2     		uxtb	r7, r7
 526              	.LVL73:
 320:..\..\..\arduinoLCD\test\Pain Drain\libraries\lvgl\src\draw\sw/lv_draw_sw_transform.c **** 
 527              		.loc 1 320 0
 528 00c0 E4B2     		uxtb	r4, r4
 529              	.LVL74:
 324:..\..\..\arduinoLCD\test\Pain Drain\libraries\lvgl\src\draw\sw/lv_draw_sw_transform.c ****             x_next = -1;
 530              		.loc 1 324 0
 531 00c2 7F2F     		cmp	r7, #127
 532 00c4 07DC     		bgt	.L32
 533              	.LVL75:
 326:..\..\..\arduinoLCD\test\Pain Drain\libraries\lvgl\src\draw\sw/lv_draw_sw_transform.c ****         }
 534              		.loc 1 326 0
 535 00c6 C7F17F07 		rsb	r7, r7, #127
 536              	.LVL76:
 537 00ca 7800     		lsls	r0, r7, #1
 538 00cc 0790     		str	r0, [sp, #28]
 539              	.LVL77:
 325:..\..\..\arduinoLCD\test\Pain Drain\libraries\lvgl\src\draw\sw/lv_draw_sw_transform.c ****             xs_fract = (0x7F - xs_fract) * 2;
 540              		.loc 1 325 0
 541 00ce 4FF0FF30 		mov	r0, #-1
 542              	.LVL78:
 543 00d2 0290     		str	r0, [sp, #8]
 544 00d4 04E0     		b	.L33
 545              	.LVL79:
 546              	.L32:
 330:..\..\..\arduinoLCD\test\Pain Drain\libraries\lvgl\src\draw\sw/lv_draw_sw_transform.c ****         }
 547              		.loc 1 330 0
 548 00d6 803F     		subs	r7, r7, #128
 549              	.LVL80:
 550 00d8 7800     		lsls	r0, r7, #1
 551 00da 0790     		str	r0, [sp, #28]
 552              	.LVL81:
 329:..\..\..\arduinoLCD\test\Pain Drain\libraries\lvgl\src\draw\sw/lv_draw_sw_transform.c ****             xs_fract = (xs_fract - 0x80) * 2;
 553              		.loc 1 329 0
 554 00dc 0120     		movs	r0, #1
ARM GAS  C:\Users\haske\AppData\Local\Temp\cc9HFfJU.s 			page 20


 555              	.LVL82:
 556 00de 0290     		str	r0, [sp, #8]
 557              	.LVL83:
 558              	.L33:
 332:..\..\..\arduinoLCD\test\Pain Drain\libraries\lvgl\src\draw\sw/lv_draw_sw_transform.c ****             y_next = -1;
 559              		.loc 1 332 0
 560 00e0 7F2C     		cmp	r4, #127
 561 00e2 07DC     		bgt	.L34
 562              	.LVL84:
 334:..\..\..\arduinoLCD\test\Pain Drain\libraries\lvgl\src\draw\sw/lv_draw_sw_transform.c ****         }
 563              		.loc 1 334 0
 564 00e4 C4F17F04 		rsb	r4, r4, #127
 565              	.LVL85:
 566 00e8 6000     		lsls	r0, r4, #1
 567 00ea 0890     		str	r0, [sp, #32]
 568              	.LVL86:
 333:..\..\..\arduinoLCD\test\Pain Drain\libraries\lvgl\src\draw\sw/lv_draw_sw_transform.c ****             ys_fract = (0x7F - ys_fract) * 2;
 569              		.loc 1 333 0
 570 00ec 4FF0FF30 		mov	r0, #-1
 571              	.LVL87:
 572 00f0 0590     		str	r0, [sp, #20]
 573 00f2 04E0     		b	.L35
 574              	.LVL88:
 575              	.L34:
 338:..\..\..\arduinoLCD\test\Pain Drain\libraries\lvgl\src\draw\sw/lv_draw_sw_transform.c ****         }
 576              		.loc 1 338 0
 577 00f4 803C     		subs	r4, r4, #128
 578              	.LVL89:
 579 00f6 6000     		lsls	r0, r4, #1
 580 00f8 0890     		str	r0, [sp, #32]
 581              	.LVL90:
 337:..\..\..\arduinoLCD\test\Pain Drain\libraries\lvgl\src\draw\sw/lv_draw_sw_transform.c ****             ys_fract = (ys_fract - 0x80) * 2;
 582              		.loc 1 337 0
 583 00fa 0120     		movs	r0, #1
 584              	.LVL91:
 585 00fc 0590     		str	r0, [sp, #20]
 586              	.LVL92:
 587              	.L35:
 342:..\..\..\arduinoLCD\test\Pain Drain\libraries\lvgl\src\draw\sw/lv_draw_sw_transform.c **** 
 588              		.loc 1 342 0
 589 00fe 0398     		ldr	r0, [sp, #12]
 590 0100 00FB02F0 		mul	r0, r0, r2
 591 0104 0A90     		str	r0, [sp, #40]
 592 0106 1C18     		adds	r4, r3, r0
 593 0108 0698     		ldr	r0, [sp, #24]
 594 010a 00FB04F4 		mul	r4, r0, r4
 595 010e 019F     		ldr	r7, [sp, #4]
 596 0110 07EB040E 		add	lr, r7, r4
 597              	.LVL93:
 345:..\..\..\arduinoLCD\test\Pain Drain\libraries\lvgl\src\draw\sw/lv_draw_sw_transform.c ****            xs_int + x_next <= src_w - 1 &&
 598              		.loc 1 345 0
 599 0114 029F     		ldr	r7, [sp, #8]
 600 0116 17EB030C 		adds	ip, r7, r3
 601              	.LVL94:
 602 011a 00F1F380 		bmi	.L36
 346:..\..\..\arduinoLCD\test\Pain Drain\libraries\lvgl\src\draw\sw/lv_draw_sw_transform.c ****            ys_int + y_next >= 0 &&
 603              		.loc 1 346 0 discriminator 1
ARM GAS  C:\Users\haske\AppData\Local\Temp\cc9HFfJU.s 			page 21


 604 011e 0BF1FF37 		add	r7, fp, #-1
 345:..\..\..\arduinoLCD\test\Pain Drain\libraries\lvgl\src\draw\sw/lv_draw_sw_transform.c ****            xs_int + x_next <= src_w - 1 &&
 605              		.loc 1 345 0 discriminator 1
 606 0122 BC45     		cmp	ip, r7
 607 0124 00F3EE80 		bgt	.L36
 346:..\..\..\arduinoLCD\test\Pain Drain\libraries\lvgl\src\draw\sw/lv_draw_sw_transform.c ****            ys_int + y_next >= 0 &&
 608              		.loc 1 346 0
 609 0128 059F     		ldr	r7, [sp, #20]
 610 012a 17EB020C 		adds	ip, r7, r2
 611 012e 00F1E980 		bmi	.L36
 348:..\..\..\arduinoLCD\test\Pain Drain\libraries\lvgl\src\draw\sw/lv_draw_sw_transform.c **** 
 612              		.loc 1 348 0
 613 0132 009F     		ldr	r7, [sp]
 614 0134 013F     		subs	r7, r7, #1
 347:..\..\..\arduinoLCD\test\Pain Drain\libraries\lvgl\src\draw\sw/lv_draw_sw_transform.c ****            ys_int + y_next <= src_h - 1) {
 615              		.loc 1 347 0
 616 0136 BC45     		cmp	ip, r7
 617 0138 00F3E480 		bgt	.L36
 618              	.LVL95:
 619              	.LBB25:
 351:..\..\..\arduinoLCD\test\Pain Drain\libraries\lvgl\src\draw\sw/lv_draw_sw_transform.c ****             const uint8_t * px_ver = src_tmp + y_next * src_stride * px_size;
 620              		.loc 1 351 0
 621 013c 0246     		mov	r2, r0
 622              	.LVL96:
 623 013e 029F     		ldr	r7, [sp, #8]
 624 0140 07FB02F2 		mul	r2, r7, r2
 625 0144 0C92     		str	r2, [sp, #48]
 626 0146 7244     		add	r2, lr, r2
 627 0148 0E92     		str	r2, [sp, #56]
 628              	.LVL97:
 352:..\..\..\arduinoLCD\test\Pain Drain\libraries\lvgl\src\draw\sw/lv_draw_sw_transform.c ****             lv_color_t c_base;
 629              		.loc 1 352 0
 630 014a 059F     		ldr	r7, [sp, #20]
 631 014c 039A     		ldr	r2, [sp, #12]
 632              	.LVL98:
 633 014e 02FB07F7 		mul	r7, r2, r7
 634 0152 3A46     		mov	r2, r7
 635 0154 02FB00F2 		mul	r2, r2, r0
 636 0158 0D92     		str	r2, [sp, #52]
 637 015a 7244     		add	r2, lr, r2
 638 015c 0F92     		str	r2, [sp, #60]
 639              	.LVL99:
 357:..\..\..\arduinoLCD\test\Pain Drain\libraries\lvgl\src\draw\sw/lv_draw_sw_transform.c ****                 lv_opa_t a_base;
 640              		.loc 1 357 0
 641 015e 0B9A     		ldr	r2, [sp, #44]
 642              	.LVL100:
 643 0160 002A     		cmp	r2, #0
 644 0162 7BD0     		beq	.L37
 645              	.LBB26:
 361:..\..\..\arduinoLCD\test\Pain Drain\libraries\lvgl\src\draw\sw/lv_draw_sw_transform.c ****                     a_base = px_base[LV_IMG_PX_SIZE_ALPHA_BYTE - 1];
 646              		.loc 1 361 0
 647 0164 049A     		ldr	r2, [sp, #16]
 648 0166 052A     		cmp	r2, #5
 649 0168 07D1     		bne	.L38
 362:..\..\..\arduinoLCD\test\Pain Drain\libraries\lvgl\src\draw\sw/lv_draw_sw_transform.c ****                     a_ver = px_ver[LV_IMG_PX_SIZE_ALPHA_BYTE - 1];
 650              		.loc 1 362 0
 651 016a 9EF80230 		ldrb	r3, [lr, #2]	@ zero_extendqisi2
ARM GAS  C:\Users\haske\AppData\Local\Temp\cc9HFfJU.s 			page 22


 652              	.LVL101:
 653 016e 0593     		str	r3, [sp, #20]
 654              	.LVL102:
 363:..\..\..\arduinoLCD\test\Pain Drain\libraries\lvgl\src\draw\sw/lv_draw_sw_transform.c ****                     a_hor = px_hor[LV_IMG_PX_SIZE_ALPHA_BYTE - 1];
 655              		.loc 1 363 0
 656 0170 0F9B     		ldr	r3, [sp, #60]
 657 0172 9B78     		ldrb	r3, [r3, #2]	@ zero_extendqisi2
 658              	.LVL103:
 364:..\..\..\arduinoLCD\test\Pain Drain\libraries\lvgl\src\draw\sw/lv_draw_sw_transform.c ****                 }
 659              		.loc 1 364 0
 660 0174 0E9A     		ldr	r2, [sp, #56]
 661 0176 9278     		ldrb	r2, [r2, #2]	@ zero_extendqisi2
 662              	.LVL104:
 663 0178 36E0     		b	.L39
 664              	.LVL105:
 665              	.L38:
 367:..\..\..\arduinoLCD\test\Pain Drain\libraries\lvgl\src\draw\sw/lv_draw_sw_transform.c ****                     const lv_opa_t * a_tmp = src + src_stride * src_h * sizeof(lv_color_t);
 666              		.loc 1 367 0
 667 017a 049A     		ldr	r2, [sp, #16]
 668 017c 142A     		cmp	r2, #20
 669 017e 15D1     		bne	.L40
 670              	.LBB27:
 368:..\..\..\arduinoLCD\test\Pain Drain\libraries\lvgl\src\draw\sw/lv_draw_sw_transform.c ****                     a_base = *(a_tmp + (ys_int * src_stride) + xs_int);
 671              		.loc 1 368 0
 672 0180 039A     		ldr	r2, [sp, #12]
 673 0182 009F     		ldr	r7, [sp]
 674 0184 02FB07F2 		mul	r2, r2, r7
 675 0188 019F     		ldr	r7, [sp, #4]
 676 018a 07EB4202 		add	r2, r7, r2, lsl #1
 677 018e 1046     		mov	r0, r2
 678              	.LVL106:
 369:..\..\..\arduinoLCD\test\Pain Drain\libraries\lvgl\src\draw\sw/lv_draw_sw_transform.c ****                     a_hor = *(a_tmp + (ys_int * src_stride) + xs_int + x_next);
 679              		.loc 1 369 0
 680 0190 0A9F     		ldr	r7, [sp, #40]
 681 0192 1F44     		add	r7, r7, r3
 682 0194 3A46     		mov	r2, r7
 683 0196 0746     		mov	r7, r0
 684 0198 805C     		ldrb	r0, [r0, r2]	@ zero_extendqisi2
 685              	.LVL107:
 686 019a 0590     		str	r0, [sp, #20]
 687              	.LVL108:
 370:..\..\..\arduinoLCD\test\Pain Drain\libraries\lvgl\src\draw\sw/lv_draw_sw_transform.c ****                     a_ver = *(a_tmp + ((ys_int + y_next) * src_stride) + xs_int);
 688              		.loc 1 370 0
 689 019c 0298     		ldr	r0, [sp, #8]
 690 019e 0244     		add	r2, r2, r0
 691 01a0 BA5C     		ldrb	r2, [r7, r2]	@ zero_extendqisi2
 692              	.LVL109:
 371:..\..\..\arduinoLCD\test\Pain Drain\libraries\lvgl\src\draw\sw/lv_draw_sw_transform.c ****                 }
 693              		.loc 1 371 0
 694 01a2 0398     		ldr	r0, [sp, #12]
 695 01a4 0CFB0033 		mla	r3, ip, r0, r3
 696              	.LVL110:
 697 01a8 FB5C     		ldrb	r3, [r7, r3]	@ zero_extendqisi2
 698              	.LVL111:
 699              	.LBE27:
 700 01aa 1DE0     		b	.L39
 701              	.LVL112:
ARM GAS  C:\Users\haske\AppData\Local\Temp\cc9HFfJU.s 			page 23


 702              	.L40:
 374:..\..\..\arduinoLCD\test\Pain Drain\libraries\lvgl\src\draw\sw/lv_draw_sw_transform.c ****                     if(((lv_color_t *)px_base)->full == ck.full ||
 703              		.loc 1 374 0
 704 01ac 049B     		ldr	r3, [sp, #16]
 705              	.LVL113:
 706 01ae 062B     		cmp	r3, #6
 707 01b0 13D1     		bne	.L61
 375:..\..\..\arduinoLCD\test\Pain Drain\libraries\lvgl\src\draw\sw/lv_draw_sw_transform.c ****                        ((lv_color_t *)px_ver)->full == ck.full ||
 708              		.loc 1 375 0
 709 01b2 019B     		ldr	r3, [sp, #4]
 710 01b4 1B5B     		ldrh	r3, [r3, r4]
 711 01b6 BDF82620 		ldrh	r2, [sp, #38]
 712 01ba 9342     		cmp	r3, r2
 713 01bc 09D0     		beq	.L41
 376:..\..\..\arduinoLCD\test\Pain Drain\libraries\lvgl\src\draw\sw/lv_draw_sw_transform.c ****                        ((lv_color_t *)px_hor)->full == ck.full) {
 714              		.loc 1 376 0 discriminator 1
 715 01be 0D9B     		ldr	r3, [sp, #52]
 716 01c0 3EF80330 		ldrh	r3, [lr, r3]
 375:..\..\..\arduinoLCD\test\Pain Drain\libraries\lvgl\src\draw\sw/lv_draw_sw_transform.c ****                        ((lv_color_t *)px_ver)->full == ck.full ||
 717              		.loc 1 375 0 discriminator 1
 718 01c4 9A42     		cmp	r2, r3
 719 01c6 04D0     		beq	.L41
 377:..\..\..\arduinoLCD\test\Pain Drain\libraries\lvgl\src\draw\sw/lv_draw_sw_transform.c ****                         abuf[x] = 0x00;
 720              		.loc 1 377 0
 721 01c8 0C9B     		ldr	r3, [sp, #48]
 722 01ca 3EF80330 		ldrh	r3, [lr, r3]
 376:..\..\..\arduinoLCD\test\Pain Drain\libraries\lvgl\src\draw\sw/lv_draw_sw_transform.c ****                        ((lv_color_t *)px_hor)->full == ck.full) {
 723              		.loc 1 376 0
 724 01ce 9A42     		cmp	r2, r3
 725 01d0 07D1     		bne	.L62
 726              	.L41:
 378:..\..\..\arduinoLCD\test\Pain Drain\libraries\lvgl\src\draw\sw/lv_draw_sw_transform.c ****                         continue;
 727              		.loc 1 378 0
 728 01d2 0023     		movs	r3, #0
 729 01d4 08F80130 		strb	r3, [r8, r1]
 379:..\..\..\arduinoLCD\test\Pain Drain\libraries\lvgl\src\draw\sw/lv_draw_sw_transform.c ****                     }
 730              		.loc 1 379 0
 731 01d8 ECE0     		b	.L31
 732              	.L61:
 390:..\..\..\arduinoLCD\test\Pain Drain\libraries\lvgl\src\draw\sw/lv_draw_sw_transform.c ****                 }
 733              		.loc 1 390 0
 734 01da FF22     		movs	r2, #255
 389:..\..\..\arduinoLCD\test\Pain Drain\libraries\lvgl\src\draw\sw/lv_draw_sw_transform.c ****                     a_hor = 0xff;
 735              		.loc 1 389 0
 736 01dc 1346     		mov	r3, r2
 388:..\..\..\arduinoLCD\test\Pain Drain\libraries\lvgl\src\draw\sw/lv_draw_sw_transform.c ****                     a_ver = 0xff;
 737              		.loc 1 388 0
 738 01de 0592     		str	r2, [sp, #20]
 739              	.LVL114:
 740 01e0 02E0     		b	.L39
 741              	.LVL115:
 742              	.L62:
 384:..\..\..\arduinoLCD\test\Pain Drain\libraries\lvgl\src\draw\sw/lv_draw_sw_transform.c ****                     }
 743              		.loc 1 384 0
 744 01e2 FF22     		movs	r2, #255
 383:..\..\..\arduinoLCD\test\Pain Drain\libraries\lvgl\src\draw\sw/lv_draw_sw_transform.c ****                         a_hor = 0xff;
 745              		.loc 1 383 0
ARM GAS  C:\Users\haske\AppData\Local\Temp\cc9HFfJU.s 			page 24


 746 01e4 1346     		mov	r3, r2
 382:..\..\..\arduinoLCD\test\Pain Drain\libraries\lvgl\src\draw\sw/lv_draw_sw_transform.c ****                         a_ver = 0xff;
 747              		.loc 1 382 0
 748 01e6 0592     		str	r2, [sp, #20]
 749              	.LVL116:
 750              	.L39:
 393:..\..\..\arduinoLCD\test\Pain Drain\libraries\lvgl\src\draw\sw/lv_draw_sw_transform.c ****                 if(a_hor != a_base) a_hor = ((a_hor * xs_fract) + (a_base * (0x100 - xs_fract))) >>
 751              		.loc 1 393 0
 752 01e8 0598     		ldr	r0, [sp, #20]
 753 01ea 9842     		cmp	r0, r3
 754 01ec 09D0     		beq	.L43
 393:..\..\..\arduinoLCD\test\Pain Drain\libraries\lvgl\src\draw\sw/lv_draw_sw_transform.c ****                 if(a_hor != a_base) a_hor = ((a_hor * xs_fract) + (a_base * (0x100 - xs_fract))) >>
 755              		.loc 1 393 0 is_stmt 0 discriminator 1
 756 01ee 089F     		ldr	r7, [sp, #32]
 757 01f0 C7F58077 		rsb	r7, r7, #256
 758 01f4 07FB00F7 		mul	r7, r7, r0
 759 01f8 0898     		ldr	r0, [sp, #32]
 760 01fa 00FB0373 		mla	r3, r0, r3, r7
 761              	.LVL117:
 762 01fe C3F30723 		ubfx	r3, r3, #8, #8
 763              	.LVL118:
 764              	.L43:
 394:..\..\..\arduinoLCD\test\Pain Drain\libraries\lvgl\src\draw\sw/lv_draw_sw_transform.c ****                 abuf[x] = (a_ver + a_hor) >> 1;
 765              		.loc 1 394 0 is_stmt 1
 766 0202 0598     		ldr	r0, [sp, #20]
 767 0204 9042     		cmp	r0, r2
 768 0206 09D0     		beq	.L44
 394:..\..\..\arduinoLCD\test\Pain Drain\libraries\lvgl\src\draw\sw/lv_draw_sw_transform.c ****                 abuf[x] = (a_ver + a_hor) >> 1;
 769              		.loc 1 394 0 is_stmt 0 discriminator 1
 770 0208 079F     		ldr	r7, [sp, #28]
 771 020a C7F58077 		rsb	r7, r7, #256
 772 020e 07FB00F7 		mul	r7, r7, r0
 773 0212 0798     		ldr	r0, [sp, #28]
 774 0214 00FB0272 		mla	r2, r0, r2, r7
 775              	.LVL119:
 776 0218 C2F30722 		ubfx	r2, r2, #8, #8
 777              	.LVL120:
 778              	.L44:
 395:..\..\..\arduinoLCD\test\Pain Drain\libraries\lvgl\src\draw\sw/lv_draw_sw_transform.c **** 
 779              		.loc 1 395 0 is_stmt 1
 780 021c 1344     		add	r3, r3, r2
 781              	.LVL121:
 782 021e C3F34703 		ubfx	r3, r3, #1, #8
 783 0222 08F80130 		strb	r3, [r8, r1]
 397:..\..\..\arduinoLCD\test\Pain Drain\libraries\lvgl\src\draw\sw/lv_draw_sw_transform.c **** 
 784              		.loc 1 397 0
 785 0226 002B     		cmp	r3, #0
 786 0228 00F0C480 		beq	.L31
 404:..\..\..\arduinoLCD\test\Pain Drain\libraries\lvgl\src\draw\sw/lv_draw_sw_transform.c ****                 c_ver.full = px_ver[0] + (px_ver[1] << 8);
 787              		.loc 1 404 0
 788 022c 019B     		ldr	r3, [sp, #4]
 789 022e 1B5D     		ldrb	r3, [r3, r4]	@ zero_extendqisi2
 790 0230 9EF80120 		ldrb	r2, [lr, #1]	@ zero_extendqisi2
 791              	.LVL122:
 792 0234 03EB0223 		add	r3, r3, r2, lsl #8
 793 0238 1C46     		mov	r4, r3	@ movhi
 405:..\..\..\arduinoLCD\test\Pain Drain\libraries\lvgl\src\draw\sw/lv_draw_sw_transform.c ****                 c_hor.full = px_hor[0] + (px_hor[1] << 8);
ARM GAS  C:\Users\haske\AppData\Local\Temp\cc9HFfJU.s 			page 25


 794              		.loc 1 405 0
 795 023a 0D9B     		ldr	r3, [sp, #52]
 796 023c 1EF80330 		ldrb	r3, [lr, r3]	@ zero_extendqisi2
 797 0240 0F9A     		ldr	r2, [sp, #60]
 798 0242 5278     		ldrb	r2, [r2, #1]	@ zero_extendqisi2
 799 0244 03EB0222 		add	r2, r3, r2, lsl #8
 800 0248 9446     		mov	ip, r2	@ movhi
 406:..\..\..\arduinoLCD\test\Pain Drain\libraries\lvgl\src\draw\sw/lv_draw_sw_transform.c **** #elif LV_COLOR_DEPTH == 32
 801              		.loc 1 406 0
 802 024a 0C9B     		ldr	r3, [sp, #48]
 803 024c 1EF80330 		ldrb	r3, [lr, r3]	@ zero_extendqisi2
 804 0250 0E9A     		ldr	r2, [sp, #56]
 805 0252 5278     		ldrb	r2, [r2, #1]	@ zero_extendqisi2
 806 0254 03EB0223 		add	r3, r3, r2, lsl #8
 807 0258 1846     		mov	r0, r3	@ movhi
 808              	.LBE26:
 809 025a 0BE0     		b	.L45
 810              	.LVL123:
 811              	.L37:
 415:..\..\..\arduinoLCD\test\Pain Drain\libraries\lvgl\src\draw\sw/lv_draw_sw_transform.c ****                 c_hor = *((const lv_color_t *) px_hor);
 812              		.loc 1 415 0
 813 025c 019B     		ldr	r3, [sp, #4]
 814              	.LVL124:
 815 025e 1C5B     		ldrh	r4, [r3, r4]
 416:..\..\..\arduinoLCD\test\Pain Drain\libraries\lvgl\src\draw\sw/lv_draw_sw_transform.c ****                 c_ver = *((const lv_color_t *) px_ver);
 816              		.loc 1 416 0
 817 0260 0C9B     		ldr	r3, [sp, #48]
 818 0262 3EF80330 		ldrh	r3, [lr, r3]
 819              	.LVL125:
 820 0266 1846     		mov	r0, r3	@ movhi
 417:..\..\..\arduinoLCD\test\Pain Drain\libraries\lvgl\src\draw\sw/lv_draw_sw_transform.c ****                 abuf[x] = 0xff;
 821              		.loc 1 417 0
 822 0268 0D9B     		ldr	r3, [sp, #52]
 823              	.LVL126:
 824 026a 3EF803C0 		ldrh	ip, [lr, r3]
 418:..\..\..\arduinoLCD\test\Pain Drain\libraries\lvgl\src\draw\sw/lv_draw_sw_transform.c ****             }
 825              		.loc 1 418 0
 826 026e FF23     		movs	r3, #255
 827 0270 08F80130 		strb	r3, [r8, r1]
 828              	.LVL127:
 829              	.L45:
 421:..\..\..\arduinoLCD\test\Pain Drain\libraries\lvgl\src\draw\sw/lv_draw_sw_transform.c ****                 cbuf[x] = c_base;
 830              		.loc 1 421 0
 831 0274 A3B2     		uxth	r3, r4
 832              	.LVL128:
 833 0276 1FFA8CF2 		uxth	r2, ip
 834 027a 9342     		cmp	r3, r2
 835 027c 06D1     		bne	.L46
 836              	.LVL129:
 421:..\..\..\arduinoLCD\test\Pain Drain\libraries\lvgl\src\draw\sw/lv_draw_sw_transform.c ****                 cbuf[x] = c_base;
 837              		.loc 1 421 0 is_stmt 0 discriminator 1
 838 027e 82B2     		uxth	r2, r0
 839 0280 9342     		cmp	r3, r2
 840 0282 03D1     		bne	.L46
 422:..\..\..\arduinoLCD\test\Pain Drain\libraries\lvgl\src\draw\sw/lv_draw_sw_transform.c ****             }
 841              		.loc 1 422 0 is_stmt 1
 842 0284 1F9B     		ldr	r3, [sp, #124]
ARM GAS  C:\Users\haske\AppData\Local\Temp\cc9HFfJU.s 			page 26


 843 0286 23F81140 		strh	r4, [r3, r1, lsl #1]	@ movhi
 844 028a 93E0     		b	.L31
 845              	.L46:
 846              	.LVL130:
 847              	.LBB28:
 848              	.LBB29:
 849              		.file 2 "c:\\projects\\paindrain\\arduinolcd\\test\\pain drain\\libraries\\lvgl\\src\\misc\\lv_col
   1:c:\projects\paindrain\arduinolcd\test\pain drain\libraries\lvgl\src\misc\lv_color.h **** /**
   2:c:\projects\paindrain\arduinolcd\test\pain drain\libraries\lvgl\src\misc\lv_color.h ****  * @file lv_color.h
   3:c:\projects\paindrain\arduinolcd\test\pain drain\libraries\lvgl\src\misc\lv_color.h ****  *
   4:c:\projects\paindrain\arduinolcd\test\pain drain\libraries\lvgl\src\misc\lv_color.h ****  */
   5:c:\projects\paindrain\arduinolcd\test\pain drain\libraries\lvgl\src\misc\lv_color.h **** 
   6:c:\projects\paindrain\arduinolcd\test\pain drain\libraries\lvgl\src\misc\lv_color.h **** #ifndef LV_COLOR_H
   7:c:\projects\paindrain\arduinolcd\test\pain drain\libraries\lvgl\src\misc\lv_color.h **** #define LV_COLOR_H
   8:c:\projects\paindrain\arduinolcd\test\pain drain\libraries\lvgl\src\misc\lv_color.h **** 
   9:c:\projects\paindrain\arduinolcd\test\pain drain\libraries\lvgl\src\misc\lv_color.h **** #ifdef __cplusplus
  10:c:\projects\paindrain\arduinolcd\test\pain drain\libraries\lvgl\src\misc\lv_color.h **** extern "C" {
  11:c:\projects\paindrain\arduinolcd\test\pain drain\libraries\lvgl\src\misc\lv_color.h **** #endif
  12:c:\projects\paindrain\arduinolcd\test\pain drain\libraries\lvgl\src\misc\lv_color.h **** 
  13:c:\projects\paindrain\arduinolcd\test\pain drain\libraries\lvgl\src\misc\lv_color.h **** /*********************
  14:c:\projects\paindrain\arduinolcd\test\pain drain\libraries\lvgl\src\misc\lv_color.h ****  *      INCLUDES
  15:c:\projects\paindrain\arduinolcd\test\pain drain\libraries\lvgl\src\misc\lv_color.h ****  *********************/
  16:c:\projects\paindrain\arduinolcd\test\pain drain\libraries\lvgl\src\misc\lv_color.h **** #include "../lv_conf_internal.h"
  17:c:\projects\paindrain\arduinolcd\test\pain drain\libraries\lvgl\src\misc\lv_color.h **** #include "lv_assert.h"
  18:c:\projects\paindrain\arduinolcd\test\pain drain\libraries\lvgl\src\misc\lv_color.h **** #include "lv_math.h"
  19:c:\projects\paindrain\arduinolcd\test\pain drain\libraries\lvgl\src\misc\lv_color.h **** #include "lv_types.h"
  20:c:\projects\paindrain\arduinolcd\test\pain drain\libraries\lvgl\src\misc\lv_color.h **** 
  21:c:\projects\paindrain\arduinolcd\test\pain drain\libraries\lvgl\src\misc\lv_color.h **** /*Error checking*/
  22:c:\projects\paindrain\arduinolcd\test\pain drain\libraries\lvgl\src\misc\lv_color.h **** #if LV_COLOR_DEPTH == 24
  23:c:\projects\paindrain\arduinolcd\test\pain drain\libraries\lvgl\src\misc\lv_color.h **** #error "LV_COLOR_DEPTH 24 is deprecated. Use LV_COLOR_DEPTH 32 instead (lv_conf.h)"
  24:c:\projects\paindrain\arduinolcd\test\pain drain\libraries\lvgl\src\misc\lv_color.h **** #endif
  25:c:\projects\paindrain\arduinolcd\test\pain drain\libraries\lvgl\src\misc\lv_color.h **** 
  26:c:\projects\paindrain\arduinolcd\test\pain drain\libraries\lvgl\src\misc\lv_color.h **** #if LV_COLOR_DEPTH != 16 && LV_COLOR_16_SWAP != 0
  27:c:\projects\paindrain\arduinolcd\test\pain drain\libraries\lvgl\src\misc\lv_color.h **** #error "LV_COLOR_16_SWAP requires LV_COLOR_DEPTH == 16. Set it in lv_conf.h"
  28:c:\projects\paindrain\arduinolcd\test\pain drain\libraries\lvgl\src\misc\lv_color.h **** #endif
  29:c:\projects\paindrain\arduinolcd\test\pain drain\libraries\lvgl\src\misc\lv_color.h **** 
  30:c:\projects\paindrain\arduinolcd\test\pain drain\libraries\lvgl\src\misc\lv_color.h **** #include <stdint.h>
  31:c:\projects\paindrain\arduinolcd\test\pain drain\libraries\lvgl\src\misc\lv_color.h **** 
  32:c:\projects\paindrain\arduinolcd\test\pain drain\libraries\lvgl\src\misc\lv_color.h **** /*********************
  33:c:\projects\paindrain\arduinolcd\test\pain drain\libraries\lvgl\src\misc\lv_color.h ****  *      DEFINES
  34:c:\projects\paindrain\arduinolcd\test\pain drain\libraries\lvgl\src\misc\lv_color.h ****  *********************/
  35:c:\projects\paindrain\arduinolcd\test\pain drain\libraries\lvgl\src\misc\lv_color.h **** LV_EXPORT_CONST_INT(LV_COLOR_DEPTH);
  36:c:\projects\paindrain\arduinolcd\test\pain drain\libraries\lvgl\src\misc\lv_color.h **** LV_EXPORT_CONST_INT(LV_COLOR_16_SWAP);
  37:c:\projects\paindrain\arduinolcd\test\pain drain\libraries\lvgl\src\misc\lv_color.h **** 
  38:c:\projects\paindrain\arduinolcd\test\pain drain\libraries\lvgl\src\misc\lv_color.h **** /**
  39:c:\projects\paindrain\arduinolcd\test\pain drain\libraries\lvgl\src\misc\lv_color.h ****  * Opacity percentages.
  40:c:\projects\paindrain\arduinolcd\test\pain drain\libraries\lvgl\src\misc\lv_color.h ****  */
  41:c:\projects\paindrain\arduinolcd\test\pain drain\libraries\lvgl\src\misc\lv_color.h **** enum {
  42:c:\projects\paindrain\arduinolcd\test\pain drain\libraries\lvgl\src\misc\lv_color.h ****     LV_OPA_TRANSP = 0,
  43:c:\projects\paindrain\arduinolcd\test\pain drain\libraries\lvgl\src\misc\lv_color.h ****     LV_OPA_0      = 0,
  44:c:\projects\paindrain\arduinolcd\test\pain drain\libraries\lvgl\src\misc\lv_color.h ****     LV_OPA_10     = 25,
  45:c:\projects\paindrain\arduinolcd\test\pain drain\libraries\lvgl\src\misc\lv_color.h ****     LV_OPA_20     = 51,
  46:c:\projects\paindrain\arduinolcd\test\pain drain\libraries\lvgl\src\misc\lv_color.h ****     LV_OPA_30     = 76,
  47:c:\projects\paindrain\arduinolcd\test\pain drain\libraries\lvgl\src\misc\lv_color.h ****     LV_OPA_40     = 102,
  48:c:\projects\paindrain\arduinolcd\test\pain drain\libraries\lvgl\src\misc\lv_color.h ****     LV_OPA_50     = 127,
  49:c:\projects\paindrain\arduinolcd\test\pain drain\libraries\lvgl\src\misc\lv_color.h ****     LV_OPA_60     = 153,
  50:c:\projects\paindrain\arduinolcd\test\pain drain\libraries\lvgl\src\misc\lv_color.h ****     LV_OPA_70     = 178,
ARM GAS  C:\Users\haske\AppData\Local\Temp\cc9HFfJU.s 			page 27


  51:c:\projects\paindrain\arduinolcd\test\pain drain\libraries\lvgl\src\misc\lv_color.h ****     LV_OPA_80     = 204,
  52:c:\projects\paindrain\arduinolcd\test\pain drain\libraries\lvgl\src\misc\lv_color.h ****     LV_OPA_90     = 229,
  53:c:\projects\paindrain\arduinolcd\test\pain drain\libraries\lvgl\src\misc\lv_color.h ****     LV_OPA_100    = 255,
  54:c:\projects\paindrain\arduinolcd\test\pain drain\libraries\lvgl\src\misc\lv_color.h ****     LV_OPA_COVER  = 255,
  55:c:\projects\paindrain\arduinolcd\test\pain drain\libraries\lvgl\src\misc\lv_color.h **** };
  56:c:\projects\paindrain\arduinolcd\test\pain drain\libraries\lvgl\src\misc\lv_color.h **** 
  57:c:\projects\paindrain\arduinolcd\test\pain drain\libraries\lvgl\src\misc\lv_color.h **** #define LV_OPA_MIN 2    /*Opacities below this will be transparent*/
  58:c:\projects\paindrain\arduinolcd\test\pain drain\libraries\lvgl\src\misc\lv_color.h **** #define LV_OPA_MAX 253  /*Opacities above this will fully cover*/
  59:c:\projects\paindrain\arduinolcd\test\pain drain\libraries\lvgl\src\misc\lv_color.h **** 
  60:c:\projects\paindrain\arduinolcd\test\pain drain\libraries\lvgl\src\misc\lv_color.h **** #if LV_COLOR_DEPTH == 1
  61:c:\projects\paindrain\arduinolcd\test\pain drain\libraries\lvgl\src\misc\lv_color.h **** #define LV_COLOR_SIZE 8
  62:c:\projects\paindrain\arduinolcd\test\pain drain\libraries\lvgl\src\misc\lv_color.h **** #elif LV_COLOR_DEPTH == 8
  63:c:\projects\paindrain\arduinolcd\test\pain drain\libraries\lvgl\src\misc\lv_color.h **** #define LV_COLOR_SIZE 8
  64:c:\projects\paindrain\arduinolcd\test\pain drain\libraries\lvgl\src\misc\lv_color.h **** #elif LV_COLOR_DEPTH == 16
  65:c:\projects\paindrain\arduinolcd\test\pain drain\libraries\lvgl\src\misc\lv_color.h **** #define LV_COLOR_SIZE 16
  66:c:\projects\paindrain\arduinolcd\test\pain drain\libraries\lvgl\src\misc\lv_color.h **** #elif LV_COLOR_DEPTH == 32
  67:c:\projects\paindrain\arduinolcd\test\pain drain\libraries\lvgl\src\misc\lv_color.h **** #define LV_COLOR_SIZE 32
  68:c:\projects\paindrain\arduinolcd\test\pain drain\libraries\lvgl\src\misc\lv_color.h **** #else
  69:c:\projects\paindrain\arduinolcd\test\pain drain\libraries\lvgl\src\misc\lv_color.h **** #error "Invalid LV_COLOR_DEPTH in lv_conf.h! Set it to 1, 8, 16 or 32!"
  70:c:\projects\paindrain\arduinolcd\test\pain drain\libraries\lvgl\src\misc\lv_color.h **** #endif
  71:c:\projects\paindrain\arduinolcd\test\pain drain\libraries\lvgl\src\misc\lv_color.h **** 
  72:c:\projects\paindrain\arduinolcd\test\pain drain\libraries\lvgl\src\misc\lv_color.h **** #if defined(__cplusplus) && !defined(_LV_COLOR_HAS_MODERN_CPP)
  73:c:\projects\paindrain\arduinolcd\test\pain drain\libraries\lvgl\src\misc\lv_color.h **** /**
  74:c:\projects\paindrain\arduinolcd\test\pain drain\libraries\lvgl\src\misc\lv_color.h **** * MSVC compiler's definition of the __cplusplus indicating 199711L regardless to C++ standard versi
  75:c:\projects\paindrain\arduinolcd\test\pain drain\libraries\lvgl\src\misc\lv_color.h **** * see https://devblogs.microsoft.com/cppblog/msvc-now-correctly-reports-cplusplus
  76:c:\projects\paindrain\arduinolcd\test\pain drain\libraries\lvgl\src\misc\lv_color.h **** * so we use _MSC_VER macro instead of __cplusplus
  77:c:\projects\paindrain\arduinolcd\test\pain drain\libraries\lvgl\src\misc\lv_color.h **** */
  78:c:\projects\paindrain\arduinolcd\test\pain drain\libraries\lvgl\src\misc\lv_color.h **** #ifdef _MSC_VER
  79:c:\projects\paindrain\arduinolcd\test\pain drain\libraries\lvgl\src\misc\lv_color.h **** #if _MSC_VER >= 1900 /*Visual Studio 2015*/
  80:c:\projects\paindrain\arduinolcd\test\pain drain\libraries\lvgl\src\misc\lv_color.h **** #define _LV_COLOR_HAS_MODERN_CPP 1
  81:c:\projects\paindrain\arduinolcd\test\pain drain\libraries\lvgl\src\misc\lv_color.h **** #endif
  82:c:\projects\paindrain\arduinolcd\test\pain drain\libraries\lvgl\src\misc\lv_color.h **** #else
  83:c:\projects\paindrain\arduinolcd\test\pain drain\libraries\lvgl\src\misc\lv_color.h **** #if __cplusplus >= 201103L
  84:c:\projects\paindrain\arduinolcd\test\pain drain\libraries\lvgl\src\misc\lv_color.h **** #define _LV_COLOR_HAS_MODERN_CPP 1
  85:c:\projects\paindrain\arduinolcd\test\pain drain\libraries\lvgl\src\misc\lv_color.h **** #endif
  86:c:\projects\paindrain\arduinolcd\test\pain drain\libraries\lvgl\src\misc\lv_color.h **** #endif
  87:c:\projects\paindrain\arduinolcd\test\pain drain\libraries\lvgl\src\misc\lv_color.h **** #endif /*__cplusplus*/
  88:c:\projects\paindrain\arduinolcd\test\pain drain\libraries\lvgl\src\misc\lv_color.h **** 
  89:c:\projects\paindrain\arduinolcd\test\pain drain\libraries\lvgl\src\misc\lv_color.h **** #ifndef _LV_COLOR_HAS_MODERN_CPP
  90:c:\projects\paindrain\arduinolcd\test\pain drain\libraries\lvgl\src\misc\lv_color.h **** #define _LV_COLOR_HAS_MODERN_CPP 0
  91:c:\projects\paindrain\arduinolcd\test\pain drain\libraries\lvgl\src\misc\lv_color.h **** #endif
  92:c:\projects\paindrain\arduinolcd\test\pain drain\libraries\lvgl\src\misc\lv_color.h **** 
  93:c:\projects\paindrain\arduinolcd\test\pain drain\libraries\lvgl\src\misc\lv_color.h **** #if _LV_COLOR_HAS_MODERN_CPP
  94:c:\projects\paindrain\arduinolcd\test\pain drain\libraries\lvgl\src\misc\lv_color.h **** /*Fix msvc compiler error C4576 inside C++ code*/
  95:c:\projects\paindrain\arduinolcd\test\pain drain\libraries\lvgl\src\misc\lv_color.h **** #define _LV_COLOR_MAKE_TYPE_HELPER lv_color_t
  96:c:\projects\paindrain\arduinolcd\test\pain drain\libraries\lvgl\src\misc\lv_color.h **** #else
  97:c:\projects\paindrain\arduinolcd\test\pain drain\libraries\lvgl\src\misc\lv_color.h **** #define _LV_COLOR_MAKE_TYPE_HELPER (lv_color_t)
  98:c:\projects\paindrain\arduinolcd\test\pain drain\libraries\lvgl\src\misc\lv_color.h **** #endif
  99:c:\projects\paindrain\arduinolcd\test\pain drain\libraries\lvgl\src\misc\lv_color.h **** 
 100:c:\projects\paindrain\arduinolcd\test\pain drain\libraries\lvgl\src\misc\lv_color.h **** /*---------------------------------------
 101:c:\projects\paindrain\arduinolcd\test\pain drain\libraries\lvgl\src\misc\lv_color.h ****  * Macros for all existing color depths
 102:c:\projects\paindrain\arduinolcd\test\pain drain\libraries\lvgl\src\misc\lv_color.h ****  * to set/get values of the color channels
 103:c:\projects\paindrain\arduinolcd\test\pain drain\libraries\lvgl\src\misc\lv_color.h ****  *------------------------------------------*/
 104:c:\projects\paindrain\arduinolcd\test\pain drain\libraries\lvgl\src\misc\lv_color.h **** # define LV_COLOR_SET_R1(c, v) (c).ch.red = (uint8_t)((v) & 0x1)
 105:c:\projects\paindrain\arduinolcd\test\pain drain\libraries\lvgl\src\misc\lv_color.h **** # define LV_COLOR_SET_G1(c, v) (c).ch.green = (uint8_t)((v) & 0x1)
 106:c:\projects\paindrain\arduinolcd\test\pain drain\libraries\lvgl\src\misc\lv_color.h **** # define LV_COLOR_SET_B1(c, v) (c).ch.blue = (uint8_t)((v) & 0x1)
 107:c:\projects\paindrain\arduinolcd\test\pain drain\libraries\lvgl\src\misc\lv_color.h **** # define LV_COLOR_SET_A1(c, v) do {} while(0)
ARM GAS  C:\Users\haske\AppData\Local\Temp\cc9HFfJU.s 			page 28


 108:c:\projects\paindrain\arduinolcd\test\pain drain\libraries\lvgl\src\misc\lv_color.h **** 
 109:c:\projects\paindrain\arduinolcd\test\pain drain\libraries\lvgl\src\misc\lv_color.h **** # define LV_COLOR_GET_R1(c) (c).ch.red
 110:c:\projects\paindrain\arduinolcd\test\pain drain\libraries\lvgl\src\misc\lv_color.h **** # define LV_COLOR_GET_G1(c) (c).ch.green
 111:c:\projects\paindrain\arduinolcd\test\pain drain\libraries\lvgl\src\misc\lv_color.h **** # define LV_COLOR_GET_B1(c) (c).ch.blue
 112:c:\projects\paindrain\arduinolcd\test\pain drain\libraries\lvgl\src\misc\lv_color.h **** # define LV_COLOR_GET_A1(c) 0xFF
 113:c:\projects\paindrain\arduinolcd\test\pain drain\libraries\lvgl\src\misc\lv_color.h **** 
 114:c:\projects\paindrain\arduinolcd\test\pain drain\libraries\lvgl\src\misc\lv_color.h **** # define _LV_COLOR_ZERO_INITIALIZER1 {0x00}
 115:c:\projects\paindrain\arduinolcd\test\pain drain\libraries\lvgl\src\misc\lv_color.h **** # define LV_COLOR_MAKE1(r8, g8, b8)  {(uint8_t)((b8 >> 7) | (g8 >> 7) | (r8 >> 7))}
 116:c:\projects\paindrain\arduinolcd\test\pain drain\libraries\lvgl\src\misc\lv_color.h **** 
 117:c:\projects\paindrain\arduinolcd\test\pain drain\libraries\lvgl\src\misc\lv_color.h **** # define LV_COLOR_SET_R8(c, v) (c).ch.red = (uint8_t)((v) & 0x7U)
 118:c:\projects\paindrain\arduinolcd\test\pain drain\libraries\lvgl\src\misc\lv_color.h **** # define LV_COLOR_SET_G8(c, v) (c).ch.green = (uint8_t)((v) & 0x7U)
 119:c:\projects\paindrain\arduinolcd\test\pain drain\libraries\lvgl\src\misc\lv_color.h **** # define LV_COLOR_SET_B8(c, v) (c).ch.blue = (uint8_t)((v) & 0x3U)
 120:c:\projects\paindrain\arduinolcd\test\pain drain\libraries\lvgl\src\misc\lv_color.h **** # define LV_COLOR_SET_A8(c, v) do {} while(0)
 121:c:\projects\paindrain\arduinolcd\test\pain drain\libraries\lvgl\src\misc\lv_color.h **** 
 122:c:\projects\paindrain\arduinolcd\test\pain drain\libraries\lvgl\src\misc\lv_color.h **** # define LV_COLOR_GET_R8(c) (c).ch.red
 123:c:\projects\paindrain\arduinolcd\test\pain drain\libraries\lvgl\src\misc\lv_color.h **** # define LV_COLOR_GET_G8(c) (c).ch.green
 124:c:\projects\paindrain\arduinolcd\test\pain drain\libraries\lvgl\src\misc\lv_color.h **** # define LV_COLOR_GET_B8(c) (c).ch.blue
 125:c:\projects\paindrain\arduinolcd\test\pain drain\libraries\lvgl\src\misc\lv_color.h **** # define LV_COLOR_GET_A8(c) 0xFF
 126:c:\projects\paindrain\arduinolcd\test\pain drain\libraries\lvgl\src\misc\lv_color.h **** 
 127:c:\projects\paindrain\arduinolcd\test\pain drain\libraries\lvgl\src\misc\lv_color.h **** # define _LV_COLOR_ZERO_INITIALIZER8 {{0x00, 0x00, 0x00}}
 128:c:\projects\paindrain\arduinolcd\test\pain drain\libraries\lvgl\src\misc\lv_color.h **** # define LV_COLOR_MAKE8(r8, g8, b8) {{(uint8_t)((b8 >> 6) & 0x3U), (uint8_t)((g8 >> 5) & 0x7U), (ui
 129:c:\projects\paindrain\arduinolcd\test\pain drain\libraries\lvgl\src\misc\lv_color.h **** 
 130:c:\projects\paindrain\arduinolcd\test\pain drain\libraries\lvgl\src\misc\lv_color.h **** # define LV_COLOR_SET_R16(c, v) (c).ch.red = (uint8_t)((v) & 0x1FU)
 131:c:\projects\paindrain\arduinolcd\test\pain drain\libraries\lvgl\src\misc\lv_color.h **** #if LV_COLOR_16_SWAP == 0
 132:c:\projects\paindrain\arduinolcd\test\pain drain\libraries\lvgl\src\misc\lv_color.h **** # define LV_COLOR_SET_G16(c, v) (c).ch.green = (uint8_t)((v) & 0x3FU)
 133:c:\projects\paindrain\arduinolcd\test\pain drain\libraries\lvgl\src\misc\lv_color.h **** #else
 134:c:\projects\paindrain\arduinolcd\test\pain drain\libraries\lvgl\src\misc\lv_color.h **** # define LV_COLOR_SET_G16(c, v) {(c).ch.green_h = (uint8_t)(((v) >> 3) & 0x7); (c).ch.green_l = (ui
 135:c:\projects\paindrain\arduinolcd\test\pain drain\libraries\lvgl\src\misc\lv_color.h **** #endif
 136:c:\projects\paindrain\arduinolcd\test\pain drain\libraries\lvgl\src\misc\lv_color.h **** # define LV_COLOR_SET_B16(c, v) (c).ch.blue = (uint8_t)((v) & 0x1FU)
 137:c:\projects\paindrain\arduinolcd\test\pain drain\libraries\lvgl\src\misc\lv_color.h **** # define LV_COLOR_SET_A16(c, v) do {} while(0)
 138:c:\projects\paindrain\arduinolcd\test\pain drain\libraries\lvgl\src\misc\lv_color.h **** 
 139:c:\projects\paindrain\arduinolcd\test\pain drain\libraries\lvgl\src\misc\lv_color.h **** # define LV_COLOR_GET_R16(c) (c).ch.red
 140:c:\projects\paindrain\arduinolcd\test\pain drain\libraries\lvgl\src\misc\lv_color.h **** #if LV_COLOR_16_SWAP == 0
 141:c:\projects\paindrain\arduinolcd\test\pain drain\libraries\lvgl\src\misc\lv_color.h **** # define LV_COLOR_GET_G16(c) (c).ch.green
 142:c:\projects\paindrain\arduinolcd\test\pain drain\libraries\lvgl\src\misc\lv_color.h **** #else
 143:c:\projects\paindrain\arduinolcd\test\pain drain\libraries\lvgl\src\misc\lv_color.h **** # define LV_COLOR_GET_G16(c) (((c).ch.green_h << 3) + (c).ch.green_l)
 144:c:\projects\paindrain\arduinolcd\test\pain drain\libraries\lvgl\src\misc\lv_color.h **** #endif
 145:c:\projects\paindrain\arduinolcd\test\pain drain\libraries\lvgl\src\misc\lv_color.h **** # define LV_COLOR_GET_B16(c) (c).ch.blue
 146:c:\projects\paindrain\arduinolcd\test\pain drain\libraries\lvgl\src\misc\lv_color.h **** # define LV_COLOR_GET_A16(c) 0xFF
 147:c:\projects\paindrain\arduinolcd\test\pain drain\libraries\lvgl\src\misc\lv_color.h **** 
 148:c:\projects\paindrain\arduinolcd\test\pain drain\libraries\lvgl\src\misc\lv_color.h **** #if LV_COLOR_16_SWAP == 0
 149:c:\projects\paindrain\arduinolcd\test\pain drain\libraries\lvgl\src\misc\lv_color.h **** # define _LV_COLOR_ZERO_INITIALIZER16  {{0x00, 0x00, 0x00}}
 150:c:\projects\paindrain\arduinolcd\test\pain drain\libraries\lvgl\src\misc\lv_color.h **** # define LV_COLOR_MAKE16(r8, g8, b8) {{(uint8_t)((b8 >> 3) & 0x1FU), (uint8_t)((g8 >> 2) & 0x3FU), 
 151:c:\projects\paindrain\arduinolcd\test\pain drain\libraries\lvgl\src\misc\lv_color.h **** #else
 152:c:\projects\paindrain\arduinolcd\test\pain drain\libraries\lvgl\src\misc\lv_color.h **** # define _LV_COLOR_ZERO_INITIALIZER16 {{0x00, 0x00, 0x00, 0x00}}
 153:c:\projects\paindrain\arduinolcd\test\pain drain\libraries\lvgl\src\misc\lv_color.h **** # define LV_COLOR_MAKE16(r8, g8, b8) {{(uint8_t)((g8 >> 5) & 0x7U), (uint8_t)((r8 >> 3) & 0x1FU), (
 154:c:\projects\paindrain\arduinolcd\test\pain drain\libraries\lvgl\src\misc\lv_color.h **** #endif
 155:c:\projects\paindrain\arduinolcd\test\pain drain\libraries\lvgl\src\misc\lv_color.h **** 
 156:c:\projects\paindrain\arduinolcd\test\pain drain\libraries\lvgl\src\misc\lv_color.h **** # define LV_COLOR_SET_R32(c, v) (c).ch.red = (uint8_t)((v) & 0xFF)
 157:c:\projects\paindrain\arduinolcd\test\pain drain\libraries\lvgl\src\misc\lv_color.h **** # define LV_COLOR_SET_G32(c, v) (c).ch.green = (uint8_t)((v) & 0xFF)
 158:c:\projects\paindrain\arduinolcd\test\pain drain\libraries\lvgl\src\misc\lv_color.h **** # define LV_COLOR_SET_B32(c, v) (c).ch.blue = (uint8_t)((v) & 0xFF)
 159:c:\projects\paindrain\arduinolcd\test\pain drain\libraries\lvgl\src\misc\lv_color.h **** # define LV_COLOR_SET_A32(c, v) (c).ch.alpha = (uint8_t)((v) & 0xFF)
 160:c:\projects\paindrain\arduinolcd\test\pain drain\libraries\lvgl\src\misc\lv_color.h **** 
 161:c:\projects\paindrain\arduinolcd\test\pain drain\libraries\lvgl\src\misc\lv_color.h **** # define LV_COLOR_GET_R32(c) (c).ch.red
 162:c:\projects\paindrain\arduinolcd\test\pain drain\libraries\lvgl\src\misc\lv_color.h **** # define LV_COLOR_GET_G32(c) (c).ch.green
 163:c:\projects\paindrain\arduinolcd\test\pain drain\libraries\lvgl\src\misc\lv_color.h **** # define LV_COLOR_GET_B32(c) (c).ch.blue
 164:c:\projects\paindrain\arduinolcd\test\pain drain\libraries\lvgl\src\misc\lv_color.h **** # define LV_COLOR_GET_A32(c) (c).ch.alpha
ARM GAS  C:\Users\haske\AppData\Local\Temp\cc9HFfJU.s 			page 29


 165:c:\projects\paindrain\arduinolcd\test\pain drain\libraries\lvgl\src\misc\lv_color.h **** 
 166:c:\projects\paindrain\arduinolcd\test\pain drain\libraries\lvgl\src\misc\lv_color.h **** # define _LV_COLOR_ZERO_INITIALIZER32  {{0x00, 0x00, 0x00, 0x00}}
 167:c:\projects\paindrain\arduinolcd\test\pain drain\libraries\lvgl\src\misc\lv_color.h **** # define LV_COLOR_MAKE32(r8, g8, b8) {{b8, g8, r8, 0xff}} /*Fix 0xff alpha*/
 168:c:\projects\paindrain\arduinolcd\test\pain drain\libraries\lvgl\src\misc\lv_color.h **** 
 169:c:\projects\paindrain\arduinolcd\test\pain drain\libraries\lvgl\src\misc\lv_color.h **** /*---------------------------------------
 170:c:\projects\paindrain\arduinolcd\test\pain drain\libraries\lvgl\src\misc\lv_color.h ****  * Macros for the current color depth
 171:c:\projects\paindrain\arduinolcd\test\pain drain\libraries\lvgl\src\misc\lv_color.h ****  * to set/get values of the color channels
 172:c:\projects\paindrain\arduinolcd\test\pain drain\libraries\lvgl\src\misc\lv_color.h ****  *------------------------------------------*/
 173:c:\projects\paindrain\arduinolcd\test\pain drain\libraries\lvgl\src\misc\lv_color.h **** #define LV_COLOR_SET_R(c, v) LV_CONCAT(LV_COLOR_SET_R, LV_COLOR_DEPTH)(c, v)
 174:c:\projects\paindrain\arduinolcd\test\pain drain\libraries\lvgl\src\misc\lv_color.h **** #define LV_COLOR_SET_G(c, v) LV_CONCAT(LV_COLOR_SET_G, LV_COLOR_DEPTH)(c, v)
 175:c:\projects\paindrain\arduinolcd\test\pain drain\libraries\lvgl\src\misc\lv_color.h **** #define LV_COLOR_SET_B(c, v) LV_CONCAT(LV_COLOR_SET_B, LV_COLOR_DEPTH)(c, v)
 176:c:\projects\paindrain\arduinolcd\test\pain drain\libraries\lvgl\src\misc\lv_color.h **** #define LV_COLOR_SET_A(c, v) LV_CONCAT(LV_COLOR_SET_A, LV_COLOR_DEPTH)(c, v)
 177:c:\projects\paindrain\arduinolcd\test\pain drain\libraries\lvgl\src\misc\lv_color.h **** 
 178:c:\projects\paindrain\arduinolcd\test\pain drain\libraries\lvgl\src\misc\lv_color.h **** #define LV_COLOR_GET_R(c) LV_CONCAT(LV_COLOR_GET_R, LV_COLOR_DEPTH)(c)
 179:c:\projects\paindrain\arduinolcd\test\pain drain\libraries\lvgl\src\misc\lv_color.h **** #define LV_COLOR_GET_G(c) LV_CONCAT(LV_COLOR_GET_G, LV_COLOR_DEPTH)(c)
 180:c:\projects\paindrain\arduinolcd\test\pain drain\libraries\lvgl\src\misc\lv_color.h **** #define LV_COLOR_GET_B(c) LV_CONCAT(LV_COLOR_GET_B, LV_COLOR_DEPTH)(c)
 181:c:\projects\paindrain\arduinolcd\test\pain drain\libraries\lvgl\src\misc\lv_color.h **** #define LV_COLOR_GET_A(c) LV_CONCAT(LV_COLOR_GET_A, LV_COLOR_DEPTH)(c)
 182:c:\projects\paindrain\arduinolcd\test\pain drain\libraries\lvgl\src\misc\lv_color.h **** 
 183:c:\projects\paindrain\arduinolcd\test\pain drain\libraries\lvgl\src\misc\lv_color.h **** #define _LV_COLOR_ZERO_INITIALIZER LV_CONCAT(_LV_COLOR_ZERO_INITIALIZER, LV_COLOR_DEPTH)
 184:c:\projects\paindrain\arduinolcd\test\pain drain\libraries\lvgl\src\misc\lv_color.h **** #define LV_COLOR_MAKE(r8, g8, b8) LV_CONCAT(LV_COLOR_MAKE, LV_COLOR_DEPTH)(r8, g8, b8)
 185:c:\projects\paindrain\arduinolcd\test\pain drain\libraries\lvgl\src\misc\lv_color.h **** 
 186:c:\projects\paindrain\arduinolcd\test\pain drain\libraries\lvgl\src\misc\lv_color.h **** /**********************
 187:c:\projects\paindrain\arduinolcd\test\pain drain\libraries\lvgl\src\misc\lv_color.h ****  *      TYPEDEFS
 188:c:\projects\paindrain\arduinolcd\test\pain drain\libraries\lvgl\src\misc\lv_color.h ****  **********************/
 189:c:\projects\paindrain\arduinolcd\test\pain drain\libraries\lvgl\src\misc\lv_color.h **** 
 190:c:\projects\paindrain\arduinolcd\test\pain drain\libraries\lvgl\src\misc\lv_color.h **** typedef union {
 191:c:\projects\paindrain\arduinolcd\test\pain drain\libraries\lvgl\src\misc\lv_color.h ****     uint8_t full; /*must be declared first to set all bits of byte via initializer list*/
 192:c:\projects\paindrain\arduinolcd\test\pain drain\libraries\lvgl\src\misc\lv_color.h ****     union {
 193:c:\projects\paindrain\arduinolcd\test\pain drain\libraries\lvgl\src\misc\lv_color.h ****         uint8_t blue : 1;
 194:c:\projects\paindrain\arduinolcd\test\pain drain\libraries\lvgl\src\misc\lv_color.h ****         uint8_t green : 1;
 195:c:\projects\paindrain\arduinolcd\test\pain drain\libraries\lvgl\src\misc\lv_color.h ****         uint8_t red : 1;
 196:c:\projects\paindrain\arduinolcd\test\pain drain\libraries\lvgl\src\misc\lv_color.h ****     } ch;
 197:c:\projects\paindrain\arduinolcd\test\pain drain\libraries\lvgl\src\misc\lv_color.h **** } lv_color1_t;
 198:c:\projects\paindrain\arduinolcd\test\pain drain\libraries\lvgl\src\misc\lv_color.h **** 
 199:c:\projects\paindrain\arduinolcd\test\pain drain\libraries\lvgl\src\misc\lv_color.h **** typedef union {
 200:c:\projects\paindrain\arduinolcd\test\pain drain\libraries\lvgl\src\misc\lv_color.h ****     struct {
 201:c:\projects\paindrain\arduinolcd\test\pain drain\libraries\lvgl\src\misc\lv_color.h ****         uint8_t blue : 2;
 202:c:\projects\paindrain\arduinolcd\test\pain drain\libraries\lvgl\src\misc\lv_color.h ****         uint8_t green : 3;
 203:c:\projects\paindrain\arduinolcd\test\pain drain\libraries\lvgl\src\misc\lv_color.h ****         uint8_t red : 3;
 204:c:\projects\paindrain\arduinolcd\test\pain drain\libraries\lvgl\src\misc\lv_color.h ****     } ch;
 205:c:\projects\paindrain\arduinolcd\test\pain drain\libraries\lvgl\src\misc\lv_color.h ****     uint8_t full;
 206:c:\projects\paindrain\arduinolcd\test\pain drain\libraries\lvgl\src\misc\lv_color.h **** } lv_color8_t;
 207:c:\projects\paindrain\arduinolcd\test\pain drain\libraries\lvgl\src\misc\lv_color.h **** 
 208:c:\projects\paindrain\arduinolcd\test\pain drain\libraries\lvgl\src\misc\lv_color.h **** typedef union {
 209:c:\projects\paindrain\arduinolcd\test\pain drain\libraries\lvgl\src\misc\lv_color.h ****     struct {
 210:c:\projects\paindrain\arduinolcd\test\pain drain\libraries\lvgl\src\misc\lv_color.h **** #if LV_COLOR_16_SWAP == 0
 211:c:\projects\paindrain\arduinolcd\test\pain drain\libraries\lvgl\src\misc\lv_color.h ****         uint16_t blue : 5;
 212:c:\projects\paindrain\arduinolcd\test\pain drain\libraries\lvgl\src\misc\lv_color.h ****         uint16_t green : 6;
 213:c:\projects\paindrain\arduinolcd\test\pain drain\libraries\lvgl\src\misc\lv_color.h ****         uint16_t red : 5;
 214:c:\projects\paindrain\arduinolcd\test\pain drain\libraries\lvgl\src\misc\lv_color.h **** #else
 215:c:\projects\paindrain\arduinolcd\test\pain drain\libraries\lvgl\src\misc\lv_color.h ****         uint16_t green_h : 3;
 216:c:\projects\paindrain\arduinolcd\test\pain drain\libraries\lvgl\src\misc\lv_color.h ****         uint16_t red : 5;
 217:c:\projects\paindrain\arduinolcd\test\pain drain\libraries\lvgl\src\misc\lv_color.h ****         uint16_t blue : 5;
 218:c:\projects\paindrain\arduinolcd\test\pain drain\libraries\lvgl\src\misc\lv_color.h ****         uint16_t green_l : 3;
 219:c:\projects\paindrain\arduinolcd\test\pain drain\libraries\lvgl\src\misc\lv_color.h **** #endif
 220:c:\projects\paindrain\arduinolcd\test\pain drain\libraries\lvgl\src\misc\lv_color.h ****     } ch;
 221:c:\projects\paindrain\arduinolcd\test\pain drain\libraries\lvgl\src\misc\lv_color.h ****     uint16_t full;
ARM GAS  C:\Users\haske\AppData\Local\Temp\cc9HFfJU.s 			page 30


 222:c:\projects\paindrain\arduinolcd\test\pain drain\libraries\lvgl\src\misc\lv_color.h **** } lv_color16_t;
 223:c:\projects\paindrain\arduinolcd\test\pain drain\libraries\lvgl\src\misc\lv_color.h **** 
 224:c:\projects\paindrain\arduinolcd\test\pain drain\libraries\lvgl\src\misc\lv_color.h **** typedef union {
 225:c:\projects\paindrain\arduinolcd\test\pain drain\libraries\lvgl\src\misc\lv_color.h ****     struct {
 226:c:\projects\paindrain\arduinolcd\test\pain drain\libraries\lvgl\src\misc\lv_color.h ****         uint8_t blue;
 227:c:\projects\paindrain\arduinolcd\test\pain drain\libraries\lvgl\src\misc\lv_color.h ****         uint8_t green;
 228:c:\projects\paindrain\arduinolcd\test\pain drain\libraries\lvgl\src\misc\lv_color.h ****         uint8_t red;
 229:c:\projects\paindrain\arduinolcd\test\pain drain\libraries\lvgl\src\misc\lv_color.h ****         uint8_t alpha;
 230:c:\projects\paindrain\arduinolcd\test\pain drain\libraries\lvgl\src\misc\lv_color.h ****     } ch;
 231:c:\projects\paindrain\arduinolcd\test\pain drain\libraries\lvgl\src\misc\lv_color.h ****     uint32_t full;
 232:c:\projects\paindrain\arduinolcd\test\pain drain\libraries\lvgl\src\misc\lv_color.h **** } lv_color32_t;
 233:c:\projects\paindrain\arduinolcd\test\pain drain\libraries\lvgl\src\misc\lv_color.h **** 
 234:c:\projects\paindrain\arduinolcd\test\pain drain\libraries\lvgl\src\misc\lv_color.h **** typedef LV_CONCAT3(uint, LV_COLOR_SIZE, _t) lv_color_int_t;
 235:c:\projects\paindrain\arduinolcd\test\pain drain\libraries\lvgl\src\misc\lv_color.h **** typedef LV_CONCAT3(lv_color, LV_COLOR_DEPTH, _t) lv_color_t;
 236:c:\projects\paindrain\arduinolcd\test\pain drain\libraries\lvgl\src\misc\lv_color.h **** 
 237:c:\projects\paindrain\arduinolcd\test\pain drain\libraries\lvgl\src\misc\lv_color.h **** typedef struct {
 238:c:\projects\paindrain\arduinolcd\test\pain drain\libraries\lvgl\src\misc\lv_color.h ****     uint16_t h;
 239:c:\projects\paindrain\arduinolcd\test\pain drain\libraries\lvgl\src\misc\lv_color.h ****     uint8_t s;
 240:c:\projects\paindrain\arduinolcd\test\pain drain\libraries\lvgl\src\misc\lv_color.h ****     uint8_t v;
 241:c:\projects\paindrain\arduinolcd\test\pain drain\libraries\lvgl\src\misc\lv_color.h **** } lv_color_hsv_t;
 242:c:\projects\paindrain\arduinolcd\test\pain drain\libraries\lvgl\src\misc\lv_color.h **** 
 243:c:\projects\paindrain\arduinolcd\test\pain drain\libraries\lvgl\src\misc\lv_color.h **** //! @cond Doxygen_Suppress
 244:c:\projects\paindrain\arduinolcd\test\pain drain\libraries\lvgl\src\misc\lv_color.h **** /*No idea where the guard is required but else throws warnings in the docs*/
 245:c:\projects\paindrain\arduinolcd\test\pain drain\libraries\lvgl\src\misc\lv_color.h **** typedef uint8_t lv_opa_t;
 246:c:\projects\paindrain\arduinolcd\test\pain drain\libraries\lvgl\src\misc\lv_color.h **** //! @endcond
 247:c:\projects\paindrain\arduinolcd\test\pain drain\libraries\lvgl\src\misc\lv_color.h **** 
 248:c:\projects\paindrain\arduinolcd\test\pain drain\libraries\lvgl\src\misc\lv_color.h **** struct _lv_color_filter_dsc_t;
 249:c:\projects\paindrain\arduinolcd\test\pain drain\libraries\lvgl\src\misc\lv_color.h **** 
 250:c:\projects\paindrain\arduinolcd\test\pain drain\libraries\lvgl\src\misc\lv_color.h **** typedef lv_color_t (*lv_color_filter_cb_t)(const struct _lv_color_filter_dsc_t *, lv_color_t, lv_op
 251:c:\projects\paindrain\arduinolcd\test\pain drain\libraries\lvgl\src\misc\lv_color.h **** 
 252:c:\projects\paindrain\arduinolcd\test\pain drain\libraries\lvgl\src\misc\lv_color.h **** typedef struct _lv_color_filter_dsc_t {
 253:c:\projects\paindrain\arduinolcd\test\pain drain\libraries\lvgl\src\misc\lv_color.h ****     lv_color_filter_cb_t filter_cb;
 254:c:\projects\paindrain\arduinolcd\test\pain drain\libraries\lvgl\src\misc\lv_color.h ****     void * user_data;
 255:c:\projects\paindrain\arduinolcd\test\pain drain\libraries\lvgl\src\misc\lv_color.h **** } lv_color_filter_dsc_t;
 256:c:\projects\paindrain\arduinolcd\test\pain drain\libraries\lvgl\src\misc\lv_color.h **** 
 257:c:\projects\paindrain\arduinolcd\test\pain drain\libraries\lvgl\src\misc\lv_color.h **** 
 258:c:\projects\paindrain\arduinolcd\test\pain drain\libraries\lvgl\src\misc\lv_color.h **** typedef enum {
 259:c:\projects\paindrain\arduinolcd\test\pain drain\libraries\lvgl\src\misc\lv_color.h ****     LV_PALETTE_RED,
 260:c:\projects\paindrain\arduinolcd\test\pain drain\libraries\lvgl\src\misc\lv_color.h ****     LV_PALETTE_PINK,
 261:c:\projects\paindrain\arduinolcd\test\pain drain\libraries\lvgl\src\misc\lv_color.h ****     LV_PALETTE_PURPLE,
 262:c:\projects\paindrain\arduinolcd\test\pain drain\libraries\lvgl\src\misc\lv_color.h ****     LV_PALETTE_DEEP_PURPLE,
 263:c:\projects\paindrain\arduinolcd\test\pain drain\libraries\lvgl\src\misc\lv_color.h ****     LV_PALETTE_INDIGO,
 264:c:\projects\paindrain\arduinolcd\test\pain drain\libraries\lvgl\src\misc\lv_color.h ****     LV_PALETTE_BLUE,
 265:c:\projects\paindrain\arduinolcd\test\pain drain\libraries\lvgl\src\misc\lv_color.h ****     LV_PALETTE_LIGHT_BLUE,
 266:c:\projects\paindrain\arduinolcd\test\pain drain\libraries\lvgl\src\misc\lv_color.h ****     LV_PALETTE_CYAN,
 267:c:\projects\paindrain\arduinolcd\test\pain drain\libraries\lvgl\src\misc\lv_color.h ****     LV_PALETTE_TEAL,
 268:c:\projects\paindrain\arduinolcd\test\pain drain\libraries\lvgl\src\misc\lv_color.h ****     LV_PALETTE_GREEN,
 269:c:\projects\paindrain\arduinolcd\test\pain drain\libraries\lvgl\src\misc\lv_color.h ****     LV_PALETTE_LIGHT_GREEN,
 270:c:\projects\paindrain\arduinolcd\test\pain drain\libraries\lvgl\src\misc\lv_color.h ****     LV_PALETTE_LIME,
 271:c:\projects\paindrain\arduinolcd\test\pain drain\libraries\lvgl\src\misc\lv_color.h ****     LV_PALETTE_YELLOW,
 272:c:\projects\paindrain\arduinolcd\test\pain drain\libraries\lvgl\src\misc\lv_color.h ****     LV_PALETTE_AMBER,
 273:c:\projects\paindrain\arduinolcd\test\pain drain\libraries\lvgl\src\misc\lv_color.h ****     LV_PALETTE_ORANGE,
 274:c:\projects\paindrain\arduinolcd\test\pain drain\libraries\lvgl\src\misc\lv_color.h ****     LV_PALETTE_DEEP_ORANGE,
 275:c:\projects\paindrain\arduinolcd\test\pain drain\libraries\lvgl\src\misc\lv_color.h ****     LV_PALETTE_BROWN,
 276:c:\projects\paindrain\arduinolcd\test\pain drain\libraries\lvgl\src\misc\lv_color.h ****     LV_PALETTE_BLUE_GREY,
 277:c:\projects\paindrain\arduinolcd\test\pain drain\libraries\lvgl\src\misc\lv_color.h ****     LV_PALETTE_GREY,
 278:c:\projects\paindrain\arduinolcd\test\pain drain\libraries\lvgl\src\misc\lv_color.h ****     _LV_PALETTE_LAST,
ARM GAS  C:\Users\haske\AppData\Local\Temp\cc9HFfJU.s 			page 31


 279:c:\projects\paindrain\arduinolcd\test\pain drain\libraries\lvgl\src\misc\lv_color.h ****     LV_PALETTE_NONE = 0xff,
 280:c:\projects\paindrain\arduinolcd\test\pain drain\libraries\lvgl\src\misc\lv_color.h **** } lv_palette_t;
 281:c:\projects\paindrain\arduinolcd\test\pain drain\libraries\lvgl\src\misc\lv_color.h **** 
 282:c:\projects\paindrain\arduinolcd\test\pain drain\libraries\lvgl\src\misc\lv_color.h **** /**********************
 283:c:\projects\paindrain\arduinolcd\test\pain drain\libraries\lvgl\src\misc\lv_color.h ****  * GLOBAL PROTOTYPES
 284:c:\projects\paindrain\arduinolcd\test\pain drain\libraries\lvgl\src\misc\lv_color.h ****  **********************/
 285:c:\projects\paindrain\arduinolcd\test\pain drain\libraries\lvgl\src\misc\lv_color.h **** 
 286:c:\projects\paindrain\arduinolcd\test\pain drain\libraries\lvgl\src\misc\lv_color.h **** /*In color conversations:
 287:c:\projects\paindrain\arduinolcd\test\pain drain\libraries\lvgl\src\misc\lv_color.h ****  * - When converting to bigger color type the LSB weight of 1 LSB is calculated
 288:c:\projects\paindrain\arduinolcd\test\pain drain\libraries\lvgl\src\misc\lv_color.h ****  *   E.g. 16 bit Red has 5 bits
 289:c:\projects\paindrain\arduinolcd\test\pain drain\libraries\lvgl\src\misc\lv_color.h ****  *         8 bit Red has 3 bits
 290:c:\projects\paindrain\arduinolcd\test\pain drain\libraries\lvgl\src\misc\lv_color.h ****  *        ----------------------
 291:c:\projects\paindrain\arduinolcd\test\pain drain\libraries\lvgl\src\misc\lv_color.h ****  *        8 bit red LSB = (2^5 - 1) / (2^3 - 1) = 31 / 7 = 4
 292:c:\projects\paindrain\arduinolcd\test\pain drain\libraries\lvgl\src\misc\lv_color.h ****  *
 293:c:\projects\paindrain\arduinolcd\test\pain drain\libraries\lvgl\src\misc\lv_color.h ****  * - When calculating to smaller color type simply shift out the LSBs
 294:c:\projects\paindrain\arduinolcd\test\pain drain\libraries\lvgl\src\misc\lv_color.h ****  *   E.g.  8 bit Red has 3 bits
 295:c:\projects\paindrain\arduinolcd\test\pain drain\libraries\lvgl\src\misc\lv_color.h ****  *        16 bit Red has 5 bits
 296:c:\projects\paindrain\arduinolcd\test\pain drain\libraries\lvgl\src\misc\lv_color.h ****  *        ----------------------
 297:c:\projects\paindrain\arduinolcd\test\pain drain\libraries\lvgl\src\misc\lv_color.h ****  *         Shift right with 5 - 3 = 2
 298:c:\projects\paindrain\arduinolcd\test\pain drain\libraries\lvgl\src\misc\lv_color.h ****  */
 299:c:\projects\paindrain\arduinolcd\test\pain drain\libraries\lvgl\src\misc\lv_color.h **** static inline uint8_t lv_color_to1(lv_color_t color)
 300:c:\projects\paindrain\arduinolcd\test\pain drain\libraries\lvgl\src\misc\lv_color.h **** {
 301:c:\projects\paindrain\arduinolcd\test\pain drain\libraries\lvgl\src\misc\lv_color.h **** #if LV_COLOR_DEPTH == 1
 302:c:\projects\paindrain\arduinolcd\test\pain drain\libraries\lvgl\src\misc\lv_color.h ****     return color.full;
 303:c:\projects\paindrain\arduinolcd\test\pain drain\libraries\lvgl\src\misc\lv_color.h **** #elif LV_COLOR_DEPTH == 8
 304:c:\projects\paindrain\arduinolcd\test\pain drain\libraries\lvgl\src\misc\lv_color.h ****     if((LV_COLOR_GET_R(color) & 0x4) || (LV_COLOR_GET_G(color) & 0x4) || (LV_COLOR_GET_B(color) & 0
 305:c:\projects\paindrain\arduinolcd\test\pain drain\libraries\lvgl\src\misc\lv_color.h ****         return 1;
 306:c:\projects\paindrain\arduinolcd\test\pain drain\libraries\lvgl\src\misc\lv_color.h ****     }
 307:c:\projects\paindrain\arduinolcd\test\pain drain\libraries\lvgl\src\misc\lv_color.h ****     else {
 308:c:\projects\paindrain\arduinolcd\test\pain drain\libraries\lvgl\src\misc\lv_color.h ****         return 0;
 309:c:\projects\paindrain\arduinolcd\test\pain drain\libraries\lvgl\src\misc\lv_color.h ****     }
 310:c:\projects\paindrain\arduinolcd\test\pain drain\libraries\lvgl\src\misc\lv_color.h **** #elif LV_COLOR_DEPTH == 16
 311:c:\projects\paindrain\arduinolcd\test\pain drain\libraries\lvgl\src\misc\lv_color.h ****     if((LV_COLOR_GET_R(color) & 0x10) || (LV_COLOR_GET_G(color) & 0x20) || (LV_COLOR_GET_B(color) &
 312:c:\projects\paindrain\arduinolcd\test\pain drain\libraries\lvgl\src\misc\lv_color.h ****         return 1;
 313:c:\projects\paindrain\arduinolcd\test\pain drain\libraries\lvgl\src\misc\lv_color.h ****     }
 314:c:\projects\paindrain\arduinolcd\test\pain drain\libraries\lvgl\src\misc\lv_color.h ****     else {
 315:c:\projects\paindrain\arduinolcd\test\pain drain\libraries\lvgl\src\misc\lv_color.h ****         return 0;
 316:c:\projects\paindrain\arduinolcd\test\pain drain\libraries\lvgl\src\misc\lv_color.h ****     }
 317:c:\projects\paindrain\arduinolcd\test\pain drain\libraries\lvgl\src\misc\lv_color.h **** #elif LV_COLOR_DEPTH == 32
 318:c:\projects\paindrain\arduinolcd\test\pain drain\libraries\lvgl\src\misc\lv_color.h ****     if((LV_COLOR_GET_R(color) & 0x80) || (LV_COLOR_GET_G(color) & 0x80) || (LV_COLOR_GET_B(color) &
 319:c:\projects\paindrain\arduinolcd\test\pain drain\libraries\lvgl\src\misc\lv_color.h ****         return 1;
 320:c:\projects\paindrain\arduinolcd\test\pain drain\libraries\lvgl\src\misc\lv_color.h ****     }
 321:c:\projects\paindrain\arduinolcd\test\pain drain\libraries\lvgl\src\misc\lv_color.h ****     else {
 322:c:\projects\paindrain\arduinolcd\test\pain drain\libraries\lvgl\src\misc\lv_color.h ****         return 0;
 323:c:\projects\paindrain\arduinolcd\test\pain drain\libraries\lvgl\src\misc\lv_color.h ****     }
 324:c:\projects\paindrain\arduinolcd\test\pain drain\libraries\lvgl\src\misc\lv_color.h **** #endif
 325:c:\projects\paindrain\arduinolcd\test\pain drain\libraries\lvgl\src\misc\lv_color.h **** }
 326:c:\projects\paindrain\arduinolcd\test\pain drain\libraries\lvgl\src\misc\lv_color.h **** 
 327:c:\projects\paindrain\arduinolcd\test\pain drain\libraries\lvgl\src\misc\lv_color.h **** static inline uint8_t lv_color_to8(lv_color_t color)
 328:c:\projects\paindrain\arduinolcd\test\pain drain\libraries\lvgl\src\misc\lv_color.h **** {
 329:c:\projects\paindrain\arduinolcd\test\pain drain\libraries\lvgl\src\misc\lv_color.h **** #if LV_COLOR_DEPTH == 1
 330:c:\projects\paindrain\arduinolcd\test\pain drain\libraries\lvgl\src\misc\lv_color.h ****     if(color.full == 0)
 331:c:\projects\paindrain\arduinolcd\test\pain drain\libraries\lvgl\src\misc\lv_color.h ****         return 0;
 332:c:\projects\paindrain\arduinolcd\test\pain drain\libraries\lvgl\src\misc\lv_color.h ****     else
 333:c:\projects\paindrain\arduinolcd\test\pain drain\libraries\lvgl\src\misc\lv_color.h ****         return 0xFF;
 334:c:\projects\paindrain\arduinolcd\test\pain drain\libraries\lvgl\src\misc\lv_color.h **** #elif LV_COLOR_DEPTH == 8
 335:c:\projects\paindrain\arduinolcd\test\pain drain\libraries\lvgl\src\misc\lv_color.h ****     return color.full;
ARM GAS  C:\Users\haske\AppData\Local\Temp\cc9HFfJU.s 			page 32


 336:c:\projects\paindrain\arduinolcd\test\pain drain\libraries\lvgl\src\misc\lv_color.h **** #elif LV_COLOR_DEPTH == 16
 337:c:\projects\paindrain\arduinolcd\test\pain drain\libraries\lvgl\src\misc\lv_color.h ****     lv_color8_t ret;
 338:c:\projects\paindrain\arduinolcd\test\pain drain\libraries\lvgl\src\misc\lv_color.h ****     LV_COLOR_SET_R8(ret, LV_COLOR_GET_R(color) >> 2); /*5 - 3  = 2*/
 339:c:\projects\paindrain\arduinolcd\test\pain drain\libraries\lvgl\src\misc\lv_color.h ****     LV_COLOR_SET_G8(ret, LV_COLOR_GET_G(color) >> 3); /*6 - 3  = 3*/
 340:c:\projects\paindrain\arduinolcd\test\pain drain\libraries\lvgl\src\misc\lv_color.h ****     LV_COLOR_SET_B8(ret, LV_COLOR_GET_B(color) >> 3); /*5 - 2  = 3*/
 341:c:\projects\paindrain\arduinolcd\test\pain drain\libraries\lvgl\src\misc\lv_color.h ****     return ret.full;
 342:c:\projects\paindrain\arduinolcd\test\pain drain\libraries\lvgl\src\misc\lv_color.h **** #elif LV_COLOR_DEPTH == 32
 343:c:\projects\paindrain\arduinolcd\test\pain drain\libraries\lvgl\src\misc\lv_color.h ****     lv_color8_t ret;
 344:c:\projects\paindrain\arduinolcd\test\pain drain\libraries\lvgl\src\misc\lv_color.h ****     LV_COLOR_SET_R8(ret, LV_COLOR_GET_R(color) >> 5); /*8 - 3  = 5*/
 345:c:\projects\paindrain\arduinolcd\test\pain drain\libraries\lvgl\src\misc\lv_color.h ****     LV_COLOR_SET_G8(ret, LV_COLOR_GET_G(color) >> 5); /*8 - 3  = 5*/
 346:c:\projects\paindrain\arduinolcd\test\pain drain\libraries\lvgl\src\misc\lv_color.h ****     LV_COLOR_SET_B8(ret, LV_COLOR_GET_B(color) >> 6); /*8 - 2  = 6*/
 347:c:\projects\paindrain\arduinolcd\test\pain drain\libraries\lvgl\src\misc\lv_color.h ****     return ret.full;
 348:c:\projects\paindrain\arduinolcd\test\pain drain\libraries\lvgl\src\misc\lv_color.h **** #endif
 349:c:\projects\paindrain\arduinolcd\test\pain drain\libraries\lvgl\src\misc\lv_color.h **** }
 350:c:\projects\paindrain\arduinolcd\test\pain drain\libraries\lvgl\src\misc\lv_color.h **** 
 351:c:\projects\paindrain\arduinolcd\test\pain drain\libraries\lvgl\src\misc\lv_color.h **** static inline uint16_t lv_color_to16(lv_color_t color)
 352:c:\projects\paindrain\arduinolcd\test\pain drain\libraries\lvgl\src\misc\lv_color.h **** {
 353:c:\projects\paindrain\arduinolcd\test\pain drain\libraries\lvgl\src\misc\lv_color.h **** #if LV_COLOR_DEPTH == 1
 354:c:\projects\paindrain\arduinolcd\test\pain drain\libraries\lvgl\src\misc\lv_color.h ****     if(color.full == 0)
 355:c:\projects\paindrain\arduinolcd\test\pain drain\libraries\lvgl\src\misc\lv_color.h ****         return 0;
 356:c:\projects\paindrain\arduinolcd\test\pain drain\libraries\lvgl\src\misc\lv_color.h ****     else
 357:c:\projects\paindrain\arduinolcd\test\pain drain\libraries\lvgl\src\misc\lv_color.h ****         return 0xFFFF;
 358:c:\projects\paindrain\arduinolcd\test\pain drain\libraries\lvgl\src\misc\lv_color.h **** #elif LV_COLOR_DEPTH == 8
 359:c:\projects\paindrain\arduinolcd\test\pain drain\libraries\lvgl\src\misc\lv_color.h ****     lv_color16_t ret;
 360:c:\projects\paindrain\arduinolcd\test\pain drain\libraries\lvgl\src\misc\lv_color.h ****     LV_COLOR_SET_R16(ret, LV_COLOR_GET_R(color) * 4);  /*(2^5 - 1)/(2^3 - 1) = 31/7 = 4*/
 361:c:\projects\paindrain\arduinolcd\test\pain drain\libraries\lvgl\src\misc\lv_color.h ****     LV_COLOR_SET_G16(ret, LV_COLOR_GET_G(color) * 9);  /*(2^6 - 1)/(2^3 - 1) = 63/7 = 9*/
 362:c:\projects\paindrain\arduinolcd\test\pain drain\libraries\lvgl\src\misc\lv_color.h ****     LV_COLOR_SET_B16(ret, LV_COLOR_GET_B(color) * 10); /*(2^5 - 1)/(2^2 - 1) = 31/3 = 10*/
 363:c:\projects\paindrain\arduinolcd\test\pain drain\libraries\lvgl\src\misc\lv_color.h ****     return ret.full;
 364:c:\projects\paindrain\arduinolcd\test\pain drain\libraries\lvgl\src\misc\lv_color.h **** #elif LV_COLOR_DEPTH == 16
 365:c:\projects\paindrain\arduinolcd\test\pain drain\libraries\lvgl\src\misc\lv_color.h ****     return color.full;
 366:c:\projects\paindrain\arduinolcd\test\pain drain\libraries\lvgl\src\misc\lv_color.h **** #elif LV_COLOR_DEPTH == 32
 367:c:\projects\paindrain\arduinolcd\test\pain drain\libraries\lvgl\src\misc\lv_color.h ****     lv_color16_t ret;
 368:c:\projects\paindrain\arduinolcd\test\pain drain\libraries\lvgl\src\misc\lv_color.h ****     LV_COLOR_SET_R16(ret, LV_COLOR_GET_R(color) >> 3); /*8 - 5  = 3*/
 369:c:\projects\paindrain\arduinolcd\test\pain drain\libraries\lvgl\src\misc\lv_color.h ****     LV_COLOR_SET_G16(ret, LV_COLOR_GET_G(color) >> 2); /*8 - 6  = 2*/
 370:c:\projects\paindrain\arduinolcd\test\pain drain\libraries\lvgl\src\misc\lv_color.h ****     LV_COLOR_SET_B16(ret, LV_COLOR_GET_B(color) >> 3); /*8 - 5  = 3*/
 371:c:\projects\paindrain\arduinolcd\test\pain drain\libraries\lvgl\src\misc\lv_color.h ****     return ret.full;
 372:c:\projects\paindrain\arduinolcd\test\pain drain\libraries\lvgl\src\misc\lv_color.h **** #endif
 373:c:\projects\paindrain\arduinolcd\test\pain drain\libraries\lvgl\src\misc\lv_color.h **** }
 374:c:\projects\paindrain\arduinolcd\test\pain drain\libraries\lvgl\src\misc\lv_color.h **** 
 375:c:\projects\paindrain\arduinolcd\test\pain drain\libraries\lvgl\src\misc\lv_color.h **** static inline uint32_t lv_color_to32(lv_color_t color)
 376:c:\projects\paindrain\arduinolcd\test\pain drain\libraries\lvgl\src\misc\lv_color.h **** {
 377:c:\projects\paindrain\arduinolcd\test\pain drain\libraries\lvgl\src\misc\lv_color.h **** #if LV_COLOR_DEPTH == 1
 378:c:\projects\paindrain\arduinolcd\test\pain drain\libraries\lvgl\src\misc\lv_color.h ****     if(color.full == 0)
 379:c:\projects\paindrain\arduinolcd\test\pain drain\libraries\lvgl\src\misc\lv_color.h ****         return 0xFF000000;
 380:c:\projects\paindrain\arduinolcd\test\pain drain\libraries\lvgl\src\misc\lv_color.h ****     else
 381:c:\projects\paindrain\arduinolcd\test\pain drain\libraries\lvgl\src\misc\lv_color.h ****         return 0xFFFFFFFF;
 382:c:\projects\paindrain\arduinolcd\test\pain drain\libraries\lvgl\src\misc\lv_color.h **** #elif LV_COLOR_DEPTH == 8
 383:c:\projects\paindrain\arduinolcd\test\pain drain\libraries\lvgl\src\misc\lv_color.h ****     lv_color32_t ret;
 384:c:\projects\paindrain\arduinolcd\test\pain drain\libraries\lvgl\src\misc\lv_color.h ****     LV_COLOR_SET_R32(ret, LV_COLOR_GET_R(color) * 36); /*(2^8 - 1)/(2^3 - 1) = 255/7 = 36*/
 385:c:\projects\paindrain\arduinolcd\test\pain drain\libraries\lvgl\src\misc\lv_color.h ****     LV_COLOR_SET_G32(ret, LV_COLOR_GET_G(color) * 36); /*(2^8 - 1)/(2^3 - 1) = 255/7 = 36*/
 386:c:\projects\paindrain\arduinolcd\test\pain drain\libraries\lvgl\src\misc\lv_color.h ****     LV_COLOR_SET_B32(ret, LV_COLOR_GET_B(color) * 85); /*(2^8 - 1)/(2^2 - 1) = 255/3 = 85*/
 387:c:\projects\paindrain\arduinolcd\test\pain drain\libraries\lvgl\src\misc\lv_color.h ****     LV_COLOR_SET_A32(ret, 0xFF);
 388:c:\projects\paindrain\arduinolcd\test\pain drain\libraries\lvgl\src\misc\lv_color.h ****     return ret.full;
 389:c:\projects\paindrain\arduinolcd\test\pain drain\libraries\lvgl\src\misc\lv_color.h **** #elif LV_COLOR_DEPTH == 16
 390:c:\projects\paindrain\arduinolcd\test\pain drain\libraries\lvgl\src\misc\lv_color.h ****     /**
 391:c:\projects\paindrain\arduinolcd\test\pain drain\libraries\lvgl\src\misc\lv_color.h ****      * The floating point math for conversion is:
 392:c:\projects\paindrain\arduinolcd\test\pain drain\libraries\lvgl\src\misc\lv_color.h ****      *  valueto = valuefrom * ( (2^bitsto - 1) / (float)(2^bitsfrom - 1) )
ARM GAS  C:\Users\haske\AppData\Local\Temp\cc9HFfJU.s 			page 33


 393:c:\projects\paindrain\arduinolcd\test\pain drain\libraries\lvgl\src\misc\lv_color.h ****      * The faster integer math for conversion is:
 394:c:\projects\paindrain\arduinolcd\test\pain drain\libraries\lvgl\src\misc\lv_color.h ****      *  valueto = ( valuefrom * multiplier + adder ) >> divisor
 395:c:\projects\paindrain\arduinolcd\test\pain drain\libraries\lvgl\src\misc\lv_color.h ****      *   multiplier = FLOOR( ( (2^bitsto - 1) << divisor ) / (float)(2^bitsfrom - 1) )
 396:c:\projects\paindrain\arduinolcd\test\pain drain\libraries\lvgl\src\misc\lv_color.h ****      *
 397:c:\projects\paindrain\arduinolcd\test\pain drain\libraries\lvgl\src\misc\lv_color.h ****      * Find the first divisor where ( adder >> divisor ) <= 0
 398:c:\projects\paindrain\arduinolcd\test\pain drain\libraries\lvgl\src\misc\lv_color.h ****      *
 399:c:\projects\paindrain\arduinolcd\test\pain drain\libraries\lvgl\src\misc\lv_color.h ****      * 5-bit to 8-bit: ( 31 * multiplier + adder ) >> divisor = 255
 400:c:\projects\paindrain\arduinolcd\test\pain drain\libraries\lvgl\src\misc\lv_color.h ****      * divisor  multiplier  adder  min (0)  max (31)
 401:c:\projects\paindrain\arduinolcd\test\pain drain\libraries\lvgl\src\misc\lv_color.h ****      *       0           8      7        7       255
 402:c:\projects\paindrain\arduinolcd\test\pain drain\libraries\lvgl\src\misc\lv_color.h ****      *       1          16     14        7       255
 403:c:\projects\paindrain\arduinolcd\test\pain drain\libraries\lvgl\src\misc\lv_color.h ****      *       2          32     28        7       255
 404:c:\projects\paindrain\arduinolcd\test\pain drain\libraries\lvgl\src\misc\lv_color.h ****      *       3          65     25        3       255
 405:c:\projects\paindrain\arduinolcd\test\pain drain\libraries\lvgl\src\misc\lv_color.h ****      *       4         131     19        1       255
 406:c:\projects\paindrain\arduinolcd\test\pain drain\libraries\lvgl\src\misc\lv_color.h ****      *       5         263      7        0       255
 407:c:\projects\paindrain\arduinolcd\test\pain drain\libraries\lvgl\src\misc\lv_color.h ****      *
 408:c:\projects\paindrain\arduinolcd\test\pain drain\libraries\lvgl\src\misc\lv_color.h ****      * 6-bit to 8-bit: 255 = ( 63 * multiplier + adder ) >> divisor
 409:c:\projects\paindrain\arduinolcd\test\pain drain\libraries\lvgl\src\misc\lv_color.h ****      * divisor  multiplier  adder  min (0)  max (63)
 410:c:\projects\paindrain\arduinolcd\test\pain drain\libraries\lvgl\src\misc\lv_color.h ****      *       0           4      3        3       255
 411:c:\projects\paindrain\arduinolcd\test\pain drain\libraries\lvgl\src\misc\lv_color.h ****      *       1           8      6        3       255
 412:c:\projects\paindrain\arduinolcd\test\pain drain\libraries\lvgl\src\misc\lv_color.h ****      *       2          16     12        3       255
 413:c:\projects\paindrain\arduinolcd\test\pain drain\libraries\lvgl\src\misc\lv_color.h ****      *       3          32     24        3       255
 414:c:\projects\paindrain\arduinolcd\test\pain drain\libraries\lvgl\src\misc\lv_color.h ****      *       4          64     48        3       255
 415:c:\projects\paindrain\arduinolcd\test\pain drain\libraries\lvgl\src\misc\lv_color.h ****      *       5         129     33        1       255
 416:c:\projects\paindrain\arduinolcd\test\pain drain\libraries\lvgl\src\misc\lv_color.h ****      *       6         259      3        0       255
 417:c:\projects\paindrain\arduinolcd\test\pain drain\libraries\lvgl\src\misc\lv_color.h ****      */
 418:c:\projects\paindrain\arduinolcd\test\pain drain\libraries\lvgl\src\misc\lv_color.h **** 
 419:c:\projects\paindrain\arduinolcd\test\pain drain\libraries\lvgl\src\misc\lv_color.h ****     lv_color32_t ret;
 420:c:\projects\paindrain\arduinolcd\test\pain drain\libraries\lvgl\src\misc\lv_color.h ****     LV_COLOR_SET_R32(ret, (LV_COLOR_GET_R(color) * 263 + 7) >> 5);
 421:c:\projects\paindrain\arduinolcd\test\pain drain\libraries\lvgl\src\misc\lv_color.h ****     LV_COLOR_SET_G32(ret, (LV_COLOR_GET_G(color) * 259 + 3) >> 6);
 422:c:\projects\paindrain\arduinolcd\test\pain drain\libraries\lvgl\src\misc\lv_color.h ****     LV_COLOR_SET_B32(ret, (LV_COLOR_GET_B(color) * 263 + 7) >> 5);
 423:c:\projects\paindrain\arduinolcd\test\pain drain\libraries\lvgl\src\misc\lv_color.h ****     LV_COLOR_SET_A32(ret, 0xFF);
 424:c:\projects\paindrain\arduinolcd\test\pain drain\libraries\lvgl\src\misc\lv_color.h ****     return ret.full;
 425:c:\projects\paindrain\arduinolcd\test\pain drain\libraries\lvgl\src\misc\lv_color.h **** #elif LV_COLOR_DEPTH == 32
 426:c:\projects\paindrain\arduinolcd\test\pain drain\libraries\lvgl\src\misc\lv_color.h ****     return color.full;
 427:c:\projects\paindrain\arduinolcd\test\pain drain\libraries\lvgl\src\misc\lv_color.h **** #endif
 428:c:\projects\paindrain\arduinolcd\test\pain drain\libraries\lvgl\src\misc\lv_color.h **** }
 429:c:\projects\paindrain\arduinolcd\test\pain drain\libraries\lvgl\src\misc\lv_color.h **** 
 430:c:\projects\paindrain\arduinolcd\test\pain drain\libraries\lvgl\src\misc\lv_color.h **** //! @cond Doxygen_Suppress
 431:c:\projects\paindrain\arduinolcd\test\pain drain\libraries\lvgl\src\misc\lv_color.h **** 
 432:c:\projects\paindrain\arduinolcd\test\pain drain\libraries\lvgl\src\misc\lv_color.h **** /**
 433:c:\projects\paindrain\arduinolcd\test\pain drain\libraries\lvgl\src\misc\lv_color.h ****  * Mix two colors with a given ratio.
 434:c:\projects\paindrain\arduinolcd\test\pain drain\libraries\lvgl\src\misc\lv_color.h ****  * @param c1 the first color to mix (usually the foreground)
 435:c:\projects\paindrain\arduinolcd\test\pain drain\libraries\lvgl\src\misc\lv_color.h ****  * @param c2 the second color to mix (usually the background)
 436:c:\projects\paindrain\arduinolcd\test\pain drain\libraries\lvgl\src\misc\lv_color.h ****  * @param mix The ratio of the colors. 0: full `c2`, 255: full `c1`, 127: half `c1` and half`c2`
 437:c:\projects\paindrain\arduinolcd\test\pain drain\libraries\lvgl\src\misc\lv_color.h ****  * @return the mixed color
 438:c:\projects\paindrain\arduinolcd\test\pain drain\libraries\lvgl\src\misc\lv_color.h ****  */
 439:c:\projects\paindrain\arduinolcd\test\pain drain\libraries\lvgl\src\misc\lv_color.h **** LV_ATTRIBUTE_FAST_MEM static inline lv_color_t lv_color_mix(lv_color_t c1, lv_color_t c2, uint8_t m
 440:c:\projects\paindrain\arduinolcd\test\pain drain\libraries\lvgl\src\misc\lv_color.h **** {
 441:c:\projects\paindrain\arduinolcd\test\pain drain\libraries\lvgl\src\misc\lv_color.h ****     lv_color_t ret;
 442:c:\projects\paindrain\arduinolcd\test\pain drain\libraries\lvgl\src\misc\lv_color.h **** 
 443:c:\projects\paindrain\arduinolcd\test\pain drain\libraries\lvgl\src\misc\lv_color.h **** #if LV_COLOR_DEPTH == 16 && LV_COLOR_16_SWAP == 0 && LV_COLOR_MIX_ROUND_OFS == 0
 444:c:\projects\paindrain\arduinolcd\test\pain drain\libraries\lvgl\src\misc\lv_color.h ****     /*Source: https://stackoverflow.com/a/50012418/1999969*/
 445:c:\projects\paindrain\arduinolcd\test\pain drain\libraries\lvgl\src\misc\lv_color.h ****     mix = (uint32_t)((uint32_t)mix + 4) >> 3;
 850              		.loc 2 445 0
 851 028c 9DF82070 		ldrb	r7, [sp, #32]	@ zero_extendqisi2
 852 0290 0437     		adds	r7, r7, #4
 853              	.LVL131:
ARM GAS  C:\Users\haske\AppData\Local\Temp\cc9HFfJU.s 			page 34


 446:c:\projects\paindrain\arduinolcd\test\pain drain\libraries\lvgl\src\misc\lv_color.h ****     uint32_t bg = (uint32_t)((uint32_t)c2.full | ((uint32_t)c2.full << 16)) &
 854              		.loc 2 446 0
 855 0292 A3B2     		uxth	r3, r4
 856 0294 43EA0343 		orr	r3, r3, r3, lsl #16
 857 0298 4A4C     		ldr	r4, .L67
 858              	.LVL132:
 859 029a 2340     		ands	r3, r3, r4
 860              	.LVL133:
 447:c:\projects\paindrain\arduinolcd\test\pain drain\libraries\lvgl\src\misc\lv_color.h ****                   0x7E0F81F; /*0b00000111111000001111100000011111*/
 448:c:\projects\paindrain\arduinolcd\test\pain drain\libraries\lvgl\src\misc\lv_color.h ****     uint32_t fg = (uint32_t)((uint32_t)c1.full | ((uint32_t)c1.full << 16)) & 0x7E0F81F;
 861              		.loc 2 448 0
 862 029c 1FFA8CF2 		uxth	r2, ip
 863 02a0 42EA0242 		orr	r2, r2, r2, lsl #16
 864 02a4 2240     		ands	r2, r2, r4
 865              	.LVL134:
 449:c:\projects\paindrain\arduinolcd\test\pain drain\libraries\lvgl\src\misc\lv_color.h ****     uint32_t result = ((((fg - bg) * mix) >> 5) + bg) & 0x7E0F81F;
 866              		.loc 2 449 0
 867 02a6 D21A     		subs	r2, r2, r3
 868              	.LVL135:
 869 02a8 C7F3C707 		ubfx	r7, r7, #3, #8
 870              	.LVL136:
 871 02ac 02FB07F2 		mul	r2, r2, r7
 872 02b0 03EB5212 		add	r2, r3, r2, lsr #5
 873 02b4 2240     		ands	r2, r2, r4
 874              	.LVL137:
 450:c:\projects\paindrain\arduinolcd\test\pain drain\libraries\lvgl\src\misc\lv_color.h ****     ret.full = (uint16_t)((result >> 16) | result);
 875              		.loc 2 450 0
 876 02b6 42EA1242 		orr	r2, r2, r2, lsr #16
 877              	.LVL138:
 878 02ba 92B2     		uxth	r2, r2
 879              	.LVL139:
 880              	.LBE29:
 881              	.LBE28:
 882              	.LBB30:
 883              	.LBB31:
 445:c:\projects\paindrain\arduinolcd\test\pain drain\libraries\lvgl\src\misc\lv_color.h ****     uint32_t bg = (uint32_t)((uint32_t)c2.full | ((uint32_t)c2.full << 16)) &
 884              		.loc 2 445 0
 885 02bc 9DF81CE0 		ldrb	lr, [sp, #28]	@ zero_extendqisi2
 886              	.LVL140:
 887 02c0 0EF1040E 		add	lr, lr, #4
 888              	.LVL141:
 448:c:\projects\paindrain\arduinolcd\test\pain drain\libraries\lvgl\src\misc\lv_color.h ****     uint32_t result = ((((fg - bg) * mix) >> 5) + bg) & 0x7E0F81F;
 889              		.loc 2 448 0
 890 02c4 87B2     		uxth	r7, r0
 891 02c6 47EA0747 		orr	r7, r7, r7, lsl #16
 892 02ca 2740     		ands	r7, r7, r4
 893              	.LVL142:
 449:c:\projects\paindrain\arduinolcd\test\pain drain\libraries\lvgl\src\misc\lv_color.h ****     ret.full = (uint16_t)((result >> 16) | result);
 894              		.loc 2 449 0
 895 02cc FF1A     		subs	r7, r7, r3
 896              	.LVL143:
 897 02ce CEF3C70E 		ubfx	lr, lr, #3, #8
 898              	.LVL144:
 899 02d2 07FB0EFE 		mul	lr, r7, lr
 900 02d6 03EB5E13 		add	r3, r3, lr, lsr #5
 901              	.LVL145:
 902 02da 2340     		ands	r3, r3, r4
ARM GAS  C:\Users\haske\AppData\Local\Temp\cc9HFfJU.s 			page 35


 903              	.LVL146:
 904              		.loc 2 450 0
 905 02dc 43EA1343 		orr	r3, r3, r3, lsr #16
 906              	.LVL147:
 907 02e0 9BB2     		uxth	r3, r3
 908              	.LVL148:
 909              	.LBE31:
 910              	.LBE30:
 911              	.LBB32:
 912              	.LBB33:
 446:c:\projects\paindrain\arduinolcd\test\pain drain\libraries\lvgl\src\misc\lv_color.h ****                   0x7E0F81F; /*0b00000111111000001111100000011111*/
 913              		.loc 2 446 0
 914 02e2 42EA0242 		orr	r2, r2, r2, lsl #16
 915 02e6 2240     		ands	r2, r2, r4
 916              	.LVL149:
 448:c:\projects\paindrain\arduinolcd\test\pain drain\libraries\lvgl\src\misc\lv_color.h ****     uint32_t result = ((((fg - bg) * mix) >> 5) + bg) & 0x7E0F81F;
 917              		.loc 2 448 0
 918 02e8 43EA0343 		orr	r3, r3, r3, lsl #16
 919 02ec 2340     		ands	r3, r3, r4
 920              	.LVL150:
 449:c:\projects\paindrain\arduinolcd\test\pain drain\libraries\lvgl\src\misc\lv_color.h ****     ret.full = (uint16_t)((result >> 16) | result);
 921              		.loc 2 449 0
 922 02ee 9B1A     		subs	r3, r3, r2
 923              	.LVL151:
 924 02f0 C3F35A03 		ubfx	r3, r3, #1, #27
 925 02f4 1344     		add	r3, r3, r2
 926 02f6 2340     		ands	r3, r3, r4
 927              	.LVL152:
 928              		.loc 2 450 0
 929 02f8 43EA1343 		orr	r3, r3, r3, lsr #16
 930              	.LVL153:
 931              	.LBE33:
 932              	.LBE32:
 427:..\..\..\arduinoLCD\test\Pain Drain\libraries\lvgl\src\draw\sw/lv_draw_sw_transform.c ****             }
 933              		.loc 1 427 0
 934 02fc 1F9A     		ldr	r2, [sp, #124]
 935 02fe 22F81130 		strh	r3, [r2, r1, lsl #1]	@ movhi
 936              	.LBE25:
 348:..\..\..\arduinoLCD\test\Pain Drain\libraries\lvgl\src\draw\sw/lv_draw_sw_transform.c **** 
 937              		.loc 1 348 0
 938 0302 57E0     		b	.L31
 939              	.LVL154:
 940              	.L36:
 941              	.LBB34:
 435:..\..\..\arduinoLCD\test\Pain Drain\libraries\lvgl\src\draw\sw/lv_draw_sw_transform.c **** #elif LV_COLOR_DEPTH == 32
 942              		.loc 1 435 0
 943 0304 0F46     		mov	r7, r1
 944 0306 0198     		ldr	r0, [sp, #4]
 945 0308 045D     		ldrb	r4, [r0, r4]	@ zero_extendqisi2
 946 030a 9EF801C0 		ldrb	ip, [lr, #1]	@ zero_extendqisi2
 947 030e 04EB0C24 		add	r4, r4, ip, lsl #8
 948 0312 A4B2     		uxth	r4, r4
 949 0314 1F98     		ldr	r0, [sp, #124]
 950 0316 20F81140 		strh	r4, [r0, r1, lsl #1]	@ movhi
 440:..\..\..\arduinoLCD\test\Pain Drain\libraries\lvgl\src\draw\sw/lv_draw_sw_transform.c ****                 case LV_IMG_CF_TRUE_COLOR_ALPHA:
 951              		.loc 1 440 0
 952 031a 0498     		ldr	r0, [sp, #16]
ARM GAS  C:\Users\haske\AppData\Local\Temp\cc9HFfJU.s 			page 36


 953 031c 0628     		cmp	r0, #6
 954 031e 06D0     		beq	.L49
 955 0320 1428     		cmp	r0, #20
 956 0322 0BD0     		beq	.L50
 957 0324 0528     		cmp	r0, #5
 958 0326 15D1     		bne	.L65
 442:..\..\..\arduinoLCD\test\Pain Drain\libraries\lvgl\src\draw\sw/lv_draw_sw_transform.c ****                     break;
 959              		.loc 1 442 0
 960 0328 9EF802E0 		ldrb	lr, [lr, #2]	@ zero_extendqisi2
 961              	.LVL155:
 443:..\..\..\arduinoLCD\test\Pain Drain\libraries\lvgl\src\draw\sw/lv_draw_sw_transform.c ****                 case LV_IMG_CF_TRUE_COLOR_CHROMA_KEYED:
 962              		.loc 1 443 0
 963 032c 17E0     		b	.L48
 964              	.LVL156:
 965              	.L49:
 445:..\..\..\arduinoLCD\test\Pain Drain\libraries\lvgl\src\draw\sw/lv_draw_sw_transform.c ****                     break;
 966              		.loc 1 445 0
 967 032e BDF826E0 		ldrh	lr, [sp, #38]
 968              	.LVL157:
 969 0332 7445     		cmp	r4, lr
 970 0334 11D1     		bne	.L64
 971 0336 4FF0000E 		mov	lr, #0
 972 033a 10E0     		b	.L48
 973              	.LVL158:
 974              	.L50:
 449:..\..\..\arduinoLCD\test\Pain Drain\libraries\lvgl\src\draw\sw/lv_draw_sw_transform.c ****                     break;
 975              		.loc 1 449 0
 976 033c 0398     		ldr	r0, [sp, #12]
 977 033e 009C     		ldr	r4, [sp]
 978 0340 00FB04F4 		mul	r4, r0, r4
 979 0344 0A98     		ldr	r0, [sp, #40]
 980 0346 00EB4404 		add	r4, r0, r4, lsl #1
 981 034a 1C44     		add	r4, r4, r3
 982 034c 0198     		ldr	r0, [sp, #4]
 983 034e 10F804E0 		ldrb	lr, [r0, r4]	@ zero_extendqisi2
 984              	.LVL159:
 450:..\..\..\arduinoLCD\test\Pain Drain\libraries\lvgl\src\draw\sw/lv_draw_sw_transform.c **** #endif
 985              		.loc 1 450 0
 986 0352 04E0     		b	.L48
 987              	.LVL160:
 988              	.L65:
 453:..\..\..\arduinoLCD\test\Pain Drain\libraries\lvgl\src\draw\sw/lv_draw_sw_transform.c ****             }
 989              		.loc 1 453 0
 990 0354 4FF0FF0E 		mov	lr, #255
 991              	.LVL161:
 992 0358 01E0     		b	.L48
 993              	.L64:
 445:..\..\..\arduinoLCD\test\Pain Drain\libraries\lvgl\src\draw\sw/lv_draw_sw_transform.c ****                     break;
 994              		.loc 1 445 0
 995 035a 4FF0FF0E 		mov	lr, #255
 996              	.L48:
 997              	.LVL162:
 456:..\..\..\arduinoLCD\test\Pain Drain\libraries\lvgl\src\draw\sw/lv_draw_sw_transform.c ****                 abuf[x] = (a * (0xFF - xs_fract)) >> 8;
 998              		.loc 1 456 0
 999 035e 13B9     		cbnz	r3, .L52
 456:..\..\..\arduinoLCD\test\Pain Drain\libraries\lvgl\src\draw\sw/lv_draw_sw_transform.c ****                 abuf[x] = (a * (0xFF - xs_fract)) >> 8;
 1000              		.loc 1 456 0 is_stmt 0 discriminator 1
ARM GAS  C:\Users\haske\AppData\Local\Temp\cc9HFfJU.s 			page 37


 1001 0360 0298     		ldr	r0, [sp, #8]
 1002 0362 0028     		cmp	r0, #0
 1003 0364 06DB     		blt	.L53
 1004              	.L52:
 456:..\..\..\arduinoLCD\test\Pain Drain\libraries\lvgl\src\draw\sw/lv_draw_sw_transform.c ****                 abuf[x] = (a * (0xFF - xs_fract)) >> 8;
 1005              		.loc 1 456 0 discriminator 3
 1006 0366 0BF1FF34 		add	r4, fp, #-1
 1007 036a A342     		cmp	r3, r4
 1008 036c 0BD1     		bne	.L54
 456:..\..\..\arduinoLCD\test\Pain Drain\libraries\lvgl\src\draw\sw/lv_draw_sw_transform.c ****                 abuf[x] = (a * (0xFF - xs_fract)) >> 8;
 1009              		.loc 1 456 0 discriminator 4
 1010 036e 029B     		ldr	r3, [sp, #8]
 1011              	.LVL163:
 1012 0370 002B     		cmp	r3, #0
 1013 0372 08DD     		ble	.L54
 1014              	.L53:
 457:..\..\..\arduinoLCD\test\Pain Drain\libraries\lvgl\src\draw\sw/lv_draw_sw_transform.c ****             }
 1015              		.loc 1 457 0 is_stmt 1
 1016 0374 079B     		ldr	r3, [sp, #28]
 1017 0376 C3F1FF03 		rsb	r3, r3, #255
 1018 037a 03FB0EF3 		mul	r3, r3, lr
 1019 037e 1B12     		asrs	r3, r3, #8
 1020 0380 08F80730 		strb	r3, [r8, r7]
 1021 0384 16E0     		b	.L31
 1022              	.L54:
 459:..\..\..\arduinoLCD\test\Pain Drain\libraries\lvgl\src\draw\sw/lv_draw_sw_transform.c ****                 abuf[x] = (a * (0xFF - ys_fract)) >> 8;
 1023              		.loc 1 459 0
 1024 0386 12B9     		cbnz	r2, .L55
 459:..\..\..\arduinoLCD\test\Pain Drain\libraries\lvgl\src\draw\sw/lv_draw_sw_transform.c ****                 abuf[x] = (a * (0xFF - ys_fract)) >> 8;
 1025              		.loc 1 459 0 is_stmt 0 discriminator 1
 1026 0388 059B     		ldr	r3, [sp, #20]
 1027 038a 002B     		cmp	r3, #0
 1028 038c 06DB     		blt	.L56
 1029              	.L55:
 459:..\..\..\arduinoLCD\test\Pain Drain\libraries\lvgl\src\draw\sw/lv_draw_sw_transform.c ****                 abuf[x] = (a * (0xFF - ys_fract)) >> 8;
 1030              		.loc 1 459 0 discriminator 3
 1031 038e 009B     		ldr	r3, [sp]
 1032 0390 013B     		subs	r3, r3, #1
 1033 0392 9A42     		cmp	r2, r3
 1034 0394 0BD1     		bne	.L57
 459:..\..\..\arduinoLCD\test\Pain Drain\libraries\lvgl\src\draw\sw/lv_draw_sw_transform.c ****                 abuf[x] = (a * (0xFF - ys_fract)) >> 8;
 1035              		.loc 1 459 0 discriminator 4
 1036 0396 059B     		ldr	r3, [sp, #20]
 1037 0398 002B     		cmp	r3, #0
 1038 039a 08DD     		ble	.L57
 1039              	.L56:
 460:..\..\..\arduinoLCD\test\Pain Drain\libraries\lvgl\src\draw\sw/lv_draw_sw_transform.c ****             }
 1040              		.loc 1 460 0 is_stmt 1
 1041 039c 089B     		ldr	r3, [sp, #32]
 1042 039e C3F1FF03 		rsb	r3, r3, #255
 1043 03a2 03FB0EF3 		mul	r3, r3, lr
 1044 03a6 1B12     		asrs	r3, r3, #8
 1045 03a8 08F80730 		strb	r3, [r8, r7]
 1046 03ac 02E0     		b	.L31
 1047              	.L57:
 463:..\..\..\arduinoLCD\test\Pain Drain\libraries\lvgl\src\draw\sw/lv_draw_sw_transform.c ****             }
 1048              		.loc 1 463 0
ARM GAS  C:\Users\haske\AppData\Local\Temp\cc9HFfJU.s 			page 38


 1049 03ae 0023     		movs	r3, #0
 1050 03b0 08F80730 		strb	r3, [r8, r7]
 1051              	.LVL164:
 1052              	.L31:
 1053              	.LBE34:
 1054              	.LBE24:
 304:..\..\..\arduinoLCD\test\Pain Drain\libraries\lvgl\src\draw\sw/lv_draw_sw_transform.c ****         xs_ups = xs_ups_start + ((xs_step * x) >> 8);
 1055              		.loc 1 304 0 discriminator 2
 1056 03b4 0131     		adds	r1, r1, #1
 1057              	.LVL165:
 1058 03b6 09B2     		sxth	r1, r1
 1059              	.LVL166:
 1060              	.L28:
 304:..\..\..\arduinoLCD\test\Pain Drain\libraries\lvgl\src\draw\sw/lv_draw_sw_transform.c ****         xs_ups = xs_ups_start + ((xs_step * x) >> 8);
 1061              		.loc 1 304 0 is_stmt 0 discriminator 1
 1062 03b8 A942     		cmp	r1, r5
 1063 03ba FFF669AE 		blt	.L58
 1064              	.LVL167:
 1065              	.L21:
 467:..\..\..\arduinoLCD\test\Pain Drain\libraries\lvgl\src\draw\sw/lv_draw_sw_transform.c **** 
 1066              		.loc 1 467 0 is_stmt 1
 1067 03be 11B0     		add	sp, sp, #68
 1068              		.cfi_def_cfa_offset 36
 1069              		@ sp needed
 1070 03c0 BDE8F08F 		pop	{r4, r5, r6, r7, r8, r9, r10, fp, pc}
 1071              	.LVL168:
 1072              	.L68:
 1073              		.align	2
 1074              	.L67:
 1075 03c4 1FF8E007 		.word	132184095
 1076              		.cfi_endproc
 1077              	.LFE163:
 1078              		.size	argb_and_rgb_aa, .-argb_and_rgb_aa
 1079              		.section	.text.rgb_no_aa,"ax",%progbits
 1080              		.align	2
 1081              		.thumb
 1082              		.thumb_func
 1083              		.type	rgb_no_aa, %function
 1084              	rgb_no_aa:
 1085              	.LFB160:
 163:..\..\..\arduinoLCD\test\Pain Drain\libraries\lvgl\src\draw\sw/lv_draw_sw_transform.c ****     int32_t xs_ups_start = xs_ups;
 1086              		.loc 1 163 0
 1087              		.cfi_startproc
 1088              		@ args = 32, pretend = 0, frame = 16
 1089              		@ frame_needed = 0, uses_anonymous_args = 0
 1090              	.LVL169:
 1091 0000 2DE9F04F 		push	{r4, r5, r6, r7, r8, r9, r10, fp, lr}
 1092              		.cfi_def_cfa_offset 36
 1093              		.cfi_offset 4, -36
 1094              		.cfi_offset 5, -32
 1095              		.cfi_offset 6, -28
 1096              		.cfi_offset 7, -24
 1097              		.cfi_offset 8, -20
 1098              		.cfi_offset 9, -16
 1099              		.cfi_offset 10, -12
 1100              		.cfi_offset 11, -8
 1101              		.cfi_offset 14, -4
ARM GAS  C:\Users\haske\AppData\Local\Temp\cc9HFfJU.s 			page 39


 1102 0004 85B0     		sub	sp, sp, #20
 1103              		.cfi_def_cfa_offset 56
 1104 0006 0290     		str	r0, [sp, #8]
 1105 0008 8B46     		mov	fp, r1
 1106 000a 0392     		str	r2, [sp, #12]
 1107 000c 0193     		str	r3, [sp, #4]
 1108 000e DDF838A0 		ldr	r10, [sp, #56]
 1109 0012 DDF83C90 		ldr	r9, [sp, #60]
 1110 0016 DDF84080 		ldr	r8, [sp, #64]
 1111 001a 119F     		ldr	r7, [sp, #68]
 1112 001c 129C     		ldr	r4, [sp, #72]
 1113 001e 149D     		ldr	r5, [sp, #80]
 1114 0020 9DF85460 		ldrb	r6, [sp, #84]	@ zero_extendqisi2
 1115              	.LVL170:
 166:..\..\..\arduinoLCD\test\Pain Drain\libraries\lvgl\src\draw\sw/lv_draw_sw_transform.c ****     lv_color_t ck = d->driver->color_chroma_key;
 1116              		.loc 1 166 0
 1117 0024 FFF7FEFF 		bl	_lv_refr_get_disp_refreshing
 1118              	.LVL171:
 167:..\..\..\arduinoLCD\test\Pain Drain\libraries\lvgl\src\draw\sw/lv_draw_sw_transform.c **** 
 1119              		.loc 1 167 0
 1120 0028 0368     		ldr	r3, [r0]
 1121 002a 1B8F     		ldrh	r3, [r3, #56]
 1122              	.LVL172:
 1123 002c ADF80230 		strh	r3, [sp, #2]	@ movhi
 169:..\..\..\arduinoLCD\test\Pain Drain\libraries\lvgl\src\draw\sw/lv_draw_sw_transform.c **** 
 1124              		.loc 1 169 0
 1125 0030 2146     		mov	r1, r4
 1126 0032 2846     		mov	r0, r5
 1127              	.LVL173:
 1128 0034 FFF7FEFF 		bl	lv_memset_ff
 1129              	.LVL174:
 172:..\..\..\arduinoLCD\test\Pain Drain\libraries\lvgl\src\draw\sw/lv_draw_sw_transform.c ****         xs_ups = xs_ups_start + ((xs_step * x) >> 8);
 1130              		.loc 1 172 0
 1131 0038 0021     		movs	r1, #0
 1132 003a DDF808C0 		ldr	ip, [sp, #8]
 1133 003e DDF80CE0 		ldr	lr, [sp, #12]
 1134 0042 28E0     		b	.L70
 1135              	.LVL175:
 1136              	.L75:
 1137              	.LBB35:
 173:..\..\..\arduinoLCD\test\Pain Drain\libraries\lvgl\src\draw\sw/lv_draw_sw_transform.c ****         ys_ups = ys_ups_start + ((ys_step * x) >> 8);
 1138              		.loc 1 173 0
 1139 0044 08FB01F3 		mul	r3, r8, r1
 1140 0048 0AEB2323 		add	r3, r10, r3, asr #8
 1141              	.LVL176:
 174:..\..\..\arduinoLCD\test\Pain Drain\libraries\lvgl\src\draw\sw/lv_draw_sw_transform.c **** 
 1142              		.loc 1 174 0
 1143 004c 07FB01F2 		mul	r2, r7, r1
 1144 0050 09EB2222 		add	r2, r9, r2, asr #8
 1145              	.LVL177:
 177:..\..\..\arduinoLCD\test\Pain Drain\libraries\lvgl\src\draw\sw/lv_draw_sw_transform.c ****         if(xs_int < 0 || xs_int >= src_w || ys_int < 0 || ys_int >= src_h) {
 1146              		.loc 1 177 0
 1147 0054 1212     		asrs	r2, r2, #8
 1148              	.LVL178:
 178:..\..\..\arduinoLCD\test\Pain Drain\libraries\lvgl\src\draw\sw/lv_draw_sw_transform.c ****             abuf[x] = 0x00;
 1149              		.loc 1 178 0
 1150 0056 1B12     		asrs	r3, r3, #8
ARM GAS  C:\Users\haske\AppData\Local\Temp\cc9HFfJU.s 			page 40


 1151              	.LVL179:
 1152 0058 05D4     		bmi	.L71
 178:..\..\..\arduinoLCD\test\Pain Drain\libraries\lvgl\src\draw\sw/lv_draw_sw_transform.c ****             abuf[x] = 0x00;
 1153              		.loc 1 178 0 is_stmt 0 discriminator 1
 1154 005a 5B45     		cmp	r3, fp
 1155 005c 03DA     		bge	.L71
 178:..\..\..\arduinoLCD\test\Pain Drain\libraries\lvgl\src\draw\sw/lv_draw_sw_transform.c ****             abuf[x] = 0x00;
 1156              		.loc 1 178 0 discriminator 2
 1157 005e 002A     		cmp	r2, #0
 1158 0060 01DB     		blt	.L71
 178:..\..\..\arduinoLCD\test\Pain Drain\libraries\lvgl\src\draw\sw/lv_draw_sw_transform.c ****             abuf[x] = 0x00;
 1159              		.loc 1 178 0 discriminator 3
 1160 0062 7245     		cmp	r2, lr
 1161 0064 02DB     		blt	.L72
 1162              	.L71:
 179:..\..\..\arduinoLCD\test\Pain Drain\libraries\lvgl\src\draw\sw/lv_draw_sw_transform.c ****         }
 1163              		.loc 1 179 0 is_stmt 1
 1164 0066 0023     		movs	r3, #0
 1165              	.LVL180:
 1166 0068 6B54     		strb	r3, [r5, r1]
 1167 006a 07E0     		b	.L73
 1168              	.LVL181:
 1169              	.L72:
 1170              	.LBB36:
 189:..\..\..\arduinoLCD\test\Pain Drain\libraries\lvgl\src\draw\sw/lv_draw_sw_transform.c ****             cbuf[x] = *src_tmp;
 1171              		.loc 1 189 0
 1172 006c 0198     		ldr	r0, [sp, #4]
 1173 006e 02FB0033 		mla	r3, r2, r0, r3
 1174              	.LVL182:
 190:..\..\..\arduinoLCD\test\Pain Drain\libraries\lvgl\src\draw\sw/lv_draw_sw_transform.c **** #elif LV_COLOR_DEPTH == 32
 1175              		.loc 1 190 0
 1176 0072 3CF81330 		ldrh	r3, [ip, r3, lsl #1]
 1177              	.LVL183:
 1178 0076 139A     		ldr	r2, [sp, #76]
 1179              	.LVL184:
 1180 0078 22F81130 		strh	r3, [r2, r1, lsl #1]	@ movhi
 1181              	.LVL185:
 1182              	.L73:
 1183              	.LBE36:
 197:..\..\..\arduinoLCD\test\Pain Drain\libraries\lvgl\src\draw\sw/lv_draw_sw_transform.c ****             abuf[x] = 0x00;
 1184              		.loc 1 197 0
 1185 007c 062E     		cmp	r6, #6
 1186 007e 08D1     		bne	.L74
 197:..\..\..\arduinoLCD\test\Pain Drain\libraries\lvgl\src\draw\sw/lv_draw_sw_transform.c ****             abuf[x] = 0x00;
 1187              		.loc 1 197 0 is_stmt 0 discriminator 1
 1188 0080 139B     		ldr	r3, [sp, #76]
 1189 0082 33F81120 		ldrh	r2, [r3, r1, lsl #1]
 1190 0086 BDF80230 		ldrh	r3, [sp, #2]
 1191 008a 9A42     		cmp	r2, r3
 1192 008c 01D1     		bne	.L74
 198:..\..\..\arduinoLCD\test\Pain Drain\libraries\lvgl\src\draw\sw/lv_draw_sw_transform.c ****         }
 1193              		.loc 1 198 0 is_stmt 1
 1194 008e 0023     		movs	r3, #0
 1195 0090 6B54     		strb	r3, [r5, r1]
 1196              	.L74:
 1197              	.LBE35:
 172:..\..\..\arduinoLCD\test\Pain Drain\libraries\lvgl\src\draw\sw/lv_draw_sw_transform.c ****         xs_ups = xs_ups_start + ((xs_step * x) >> 8);
ARM GAS  C:\Users\haske\AppData\Local\Temp\cc9HFfJU.s 			page 41


 1198              		.loc 1 172 0 discriminator 2
 1199 0092 0131     		adds	r1, r1, #1
 1200              	.LVL186:
 1201 0094 09B2     		sxth	r1, r1
 1202              	.LVL187:
 1203              	.L70:
 172:..\..\..\arduinoLCD\test\Pain Drain\libraries\lvgl\src\draw\sw/lv_draw_sw_transform.c ****         xs_ups = xs_ups_start + ((xs_step * x) >> 8);
 1204              		.loc 1 172 0 is_stmt 0 discriminator 1
 1205 0096 8C42     		cmp	r4, r1
 1206 0098 D4DC     		bgt	.L75
 201:..\..\..\arduinoLCD\test\Pain Drain\libraries\lvgl\src\draw\sw/lv_draw_sw_transform.c **** 
 1207              		.loc 1 201 0 is_stmt 1
 1208 009a 05B0     		add	sp, sp, #20
 1209              		.cfi_def_cfa_offset 36
 1210              		@ sp needed
 1211 009c BDE8F08F 		pop	{r4, r5, r6, r7, r8, r9, r10, fp, pc}
 1212              		.cfi_endproc
 1213              	.LFE160:
 1214              		.size	rgb_no_aa, .-rgb_no_aa
 1215              		.section	.text.lv_draw_sw_transform,"ax",%progbits
 1216              		.align	2
 1217              		.global	lv_draw_sw_transform
 1218              		.thumb
 1219              		.thumb_func
 1220              		.type	lv_draw_sw_transform, %function
 1221              	lv_draw_sw_transform:
 1222              	.LFB159:
  83:..\..\..\arduinoLCD\test\Pain Drain\libraries\lvgl\src\draw\sw/lv_draw_sw_transform.c ****     LV_UNUSED(draw_ctx);
 1223              		.loc 1 83 0
 1224              		.cfi_startproc
 1225              		@ args = 24, pretend = 0, frame = 96
 1226              		@ frame_needed = 0, uses_anonymous_args = 0
 1227              	.LVL188:
 1228 0000 2DE9F04F 		push	{r4, r5, r6, r7, r8, r9, r10, fp, lr}
 1229              		.cfi_def_cfa_offset 36
 1230              		.cfi_offset 4, -36
 1231              		.cfi_offset 5, -32
 1232              		.cfi_offset 6, -28
 1233              		.cfi_offset 7, -24
 1234              		.cfi_offset 8, -20
 1235              		.cfi_offset 9, -16
 1236              		.cfi_offset 10, -12
 1237              		.cfi_offset 11, -8
 1238              		.cfi_offset 14, -4
 1239 0004 A1B0     		sub	sp, sp, #132
 1240              		.cfi_def_cfa_offset 168
 1241 0006 0C46     		mov	r4, r1
 1242 0008 0992     		str	r2, [sp, #36]
 1243 000a 0A93     		str	r3, [sp, #40]
 1244 000c BDF9A830 		ldrsh	r3, [sp, #168]
 1245              	.LVL189:
 1246 0010 0B93     		str	r3, [sp, #44]
 1247 0012 BDF9AC30 		ldrsh	r3, [sp, #172]
 1248 0016 0C93     		str	r3, [sp, #48]
 1249 0018 2C9F     		ldr	r7, [sp, #176]
 1250 001a 9DF8B4B0 		ldrb	fp, [sp, #180]	@ zero_extendqisi2
 1251 001e 2E9E     		ldr	r6, [sp, #184]
ARM GAS  C:\Users\haske\AppData\Local\Temp\cc9HFfJU.s 			page 42


 1252 0020 2F9D     		ldr	r5, [sp, #188]
  87:..\..\..\arduinoLCD\test\Pain Drain\libraries\lvgl\src\draw\sw/lv_draw_sw_transform.c ****     tr_dsc.zoom = (256 * 256) / draw_dsc->zoom;
 1253              		.loc 1 87 0
 1254 0022 B7F90090 		ldrsh	r9, [r7]
 1255 0026 C9F10003 		rsb	r3, r9, #0
 1256 002a 1C93     		str	r3, [sp, #112]
  88:..\..\..\arduinoLCD\test\Pain Drain\libraries\lvgl\src\draw\sw/lv_draw_sw_transform.c ****     tr_dsc.pivot = draw_dsc->pivot;
 1257              		.loc 1 88 0
 1258 002c 7988     		ldrh	r1, [r7, #2]
 1259              	.LVL190:
 1260 002e 4FF48032 		mov	r2, #65536
 1261              	.LVL191:
 1262 0032 92FBF1F2 		sdiv	r2, r2, r1
 1263 0036 1B92     		str	r2, [sp, #108]
  89:..\..\..\arduinoLCD\test\Pain Drain\libraries\lvgl\src\draw\sw/lv_draw_sw_transform.c **** 
 1264              		.loc 1 89 0
 1265 0038 7A68     		ldr	r2, [r7, #4]
 1266 003a 1F92     		str	r2, [sp, #124]
  91:..\..\..\arduinoLCD\test\Pain Drain\libraries\lvgl\src\draw\sw/lv_draw_sw_transform.c ****     int32_t angle_high = angle_low + 1;
 1267              		.loc 1 91 0
 1268 003c DFF8D8A1 		ldr	r10, .L89
 1269 0040 8AFB0328 		smull	r2, r8, r10, r3
 1270 0044 DA17     		asrs	r2, r3, #31
 1271 0046 C2EBA808 		rsb	r8, r2, r8, asr #2
 1272              	.LVL192:
  92:..\..\..\arduinoLCD\test\Pain Drain\libraries\lvgl\src\draw\sw/lv_draw_sw_transform.c ****     int32_t angle_rem = tr_dsc.angle  - (angle_low * 10);
 1273              		.loc 1 92 0
 1274 004a 08F10102 		add	r2, r8, #1
 1275 004e 0D92     		str	r2, [sp, #52]
 1276              	.LVL193:
  93:..\..\..\arduinoLCD\test\Pain Drain\libraries\lvgl\src\draw\sw/lv_draw_sw_transform.c **** 
 1277              		.loc 1 93 0
 1278 0050 6FF00909 		mvn	r9, #9
 1279 0054 09FB0839 		mla	r9, r9, r8, r3
 1280              	.LVL194:
  95:..\..\..\arduinoLCD\test\Pain Drain\libraries\lvgl\src\draw\sw/lv_draw_sw_transform.c ****     int32_t s2 = lv_trigo_sin(angle_high);
 1281              		.loc 1 95 0
 1282 0058 0FFA88F0 		sxth	r0, r8
 1283              	.LVL195:
 1284 005c FFF7FEFF 		bl	lv_trigo_sin
 1285              	.LVL196:
 1286 0060 0E90     		str	r0, [sp, #56]
 1287              	.LVL197:
  96:..\..\..\arduinoLCD\test\Pain Drain\libraries\lvgl\src\draw\sw/lv_draw_sw_transform.c **** 
 1288              		.loc 1 96 0
 1289 0062 BDF93400 		ldrsh	r0, [sp, #52]
 1290              	.LVL198:
 1291 0066 FFF7FEFF 		bl	lv_trigo_sin
 1292              	.LVL199:
 1293 006a 0F90     		str	r0, [sp, #60]
 1294              	.LVL200:
  98:..\..\..\arduinoLCD\test\Pain Drain\libraries\lvgl\src\draw\sw/lv_draw_sw_transform.c ****     int32_t c2 = lv_trigo_sin(angle_high + 90);
 1295              		.loc 1 98 0
 1296 006c 08F15A00 		add	r0, r8, #90
 1297              	.LVL201:
 1298 0070 00B2     		sxth	r0, r0
 1299 0072 FFF7FEFF 		bl	lv_trigo_sin
ARM GAS  C:\Users\haske\AppData\Local\Temp\cc9HFfJU.s 			page 43


 1300              	.LVL202:
 1301 0076 8046     		mov	r8, r0
 1302              	.LVL203:
  99:..\..\..\arduinoLCD\test\Pain Drain\libraries\lvgl\src\draw\sw/lv_draw_sw_transform.c **** 
 1303              		.loc 1 99 0
 1304 0078 0D9A     		ldr	r2, [sp, #52]
 1305 007a 02F15A00 		add	r0, r2, #90
 1306              	.LVL204:
 1307 007e 00B2     		sxth	r0, r0
 1308 0080 FFF7FEFF 		bl	lv_trigo_sin
 1309              	.LVL205:
 101:..\..\..\arduinoLCD\test\Pain Drain\libraries\lvgl\src\draw\sw/lv_draw_sw_transform.c ****     tr_dsc.cosma = (c1 * (10 - angle_rem) + c2 * angle_rem) / 10;
 1310              		.loc 1 101 0
 1311 0084 C9F10A01 		rsb	r1, r9, #10
 1312 0088 0F9B     		ldr	r3, [sp, #60]
 1313 008a 03FB09F3 		mul	r3, r3, r9
 1314 008e 0E9A     		ldr	r2, [sp, #56]
 1315 0090 01FB0233 		mla	r3, r1, r2, r3
 1316 0094 8AFB03E2 		smull	lr, r2, r10, r3
 1317 0098 DB17     		asrs	r3, r3, #31
 1318 009a C3EBA202 		rsb	r2, r3, r2, asr #2
 102:..\..\..\arduinoLCD\test\Pain Drain\libraries\lvgl\src\draw\sw/lv_draw_sw_transform.c ****     tr_dsc.sinma = tr_dsc.sinma >> (LV_TRIGO_SHIFT - 10);
 1319              		.loc 1 102 0
 1320 009e 00FB09F0 		mul	r0, r0, r9
 1321              	.LVL206:
 1322 00a2 01FB0808 		mla	r8, r1, r8, r0
 1323              	.LVL207:
 1324 00a6 8AFB0813 		smull	r1, r3, r10, r8
 1325 00aa 4FEAE878 		asr	r8, r8, #31
 1326 00ae C8EBA303 		rsb	r3, r8, r3, asr #2
 103:..\..\..\arduinoLCD\test\Pain Drain\libraries\lvgl\src\draw\sw/lv_draw_sw_transform.c ****     tr_dsc.cosma = tr_dsc.cosma >> (LV_TRIGO_SHIFT - 10);
 1327              		.loc 1 103 0
 1328 00b2 5211     		asrs	r2, r2, #5
 1329 00b4 1992     		str	r2, [sp, #100]
 104:..\..\..\arduinoLCD\test\Pain Drain\libraries\lvgl\src\draw\sw/lv_draw_sw_transform.c ****     tr_dsc.pivot_x_256 = tr_dsc.pivot.x * 256;
 1330              		.loc 1 104 0
 1331 00b6 5B11     		asrs	r3, r3, #5
 1332 00b8 1A93     		str	r3, [sp, #104]
 105:..\..\..\arduinoLCD\test\Pain Drain\libraries\lvgl\src\draw\sw/lv_draw_sw_transform.c ****     tr_dsc.pivot_y_256 = tr_dsc.pivot.y * 256;
 1333              		.loc 1 105 0
 1334 00ba BDF97C30 		ldrsh	r3, [sp, #124]
 1335 00be 1B02     		lsls	r3, r3, #8
 1336 00c0 1D93     		str	r3, [sp, #116]
 106:..\..\..\arduinoLCD\test\Pain Drain\libraries\lvgl\src\draw\sw/lv_draw_sw_transform.c **** 
 1337              		.loc 1 106 0
 1338 00c2 BDF97E30 		ldrsh	r3, [sp, #126]
 1339 00c6 1B02     		lsls	r3, r3, #8
 1340 00c8 1E93     		str	r3, [sp, #120]
 1341              	.LVL208:
 1342              	.LBB37:
 1343              	.LBB38:
 1344              		.file 3 "c:\\projects\\paindrain\\arduinolcd\\test\\pain drain\\libraries\\lvgl\\src\\misc\\lv_are
   1:c:\projects\paindrain\arduinolcd\test\pain drain\libraries\lvgl\src\misc\lv_area.h **** /**
   2:c:\projects\paindrain\arduinolcd\test\pain drain\libraries\lvgl\src\misc\lv_area.h ****  * @file lv_area.h
   3:c:\projects\paindrain\arduinolcd\test\pain drain\libraries\lvgl\src\misc\lv_area.h ****  *
   4:c:\projects\paindrain\arduinolcd\test\pain drain\libraries\lvgl\src\misc\lv_area.h ****  */
   5:c:\projects\paindrain\arduinolcd\test\pain drain\libraries\lvgl\src\misc\lv_area.h **** 
ARM GAS  C:\Users\haske\AppData\Local\Temp\cc9HFfJU.s 			page 44


   6:c:\projects\paindrain\arduinolcd\test\pain drain\libraries\lvgl\src\misc\lv_area.h **** #ifndef LV_AREA_H
   7:c:\projects\paindrain\arduinolcd\test\pain drain\libraries\lvgl\src\misc\lv_area.h **** #define LV_AREA_H
   8:c:\projects\paindrain\arduinolcd\test\pain drain\libraries\lvgl\src\misc\lv_area.h **** 
   9:c:\projects\paindrain\arduinolcd\test\pain drain\libraries\lvgl\src\misc\lv_area.h **** #ifdef __cplusplus
  10:c:\projects\paindrain\arduinolcd\test\pain drain\libraries\lvgl\src\misc\lv_area.h **** extern "C" {
  11:c:\projects\paindrain\arduinolcd\test\pain drain\libraries\lvgl\src\misc\lv_area.h **** #endif
  12:c:\projects\paindrain\arduinolcd\test\pain drain\libraries\lvgl\src\misc\lv_area.h **** 
  13:c:\projects\paindrain\arduinolcd\test\pain drain\libraries\lvgl\src\misc\lv_area.h **** /*********************
  14:c:\projects\paindrain\arduinolcd\test\pain drain\libraries\lvgl\src\misc\lv_area.h ****  *      INCLUDES
  15:c:\projects\paindrain\arduinolcd\test\pain drain\libraries\lvgl\src\misc\lv_area.h ****  *********************/
  16:c:\projects\paindrain\arduinolcd\test\pain drain\libraries\lvgl\src\misc\lv_area.h **** #include "../lv_conf_internal.h"
  17:c:\projects\paindrain\arduinolcd\test\pain drain\libraries\lvgl\src\misc\lv_area.h **** #include <stdbool.h>
  18:c:\projects\paindrain\arduinolcd\test\pain drain\libraries\lvgl\src\misc\lv_area.h **** #include <stdint.h>
  19:c:\projects\paindrain\arduinolcd\test\pain drain\libraries\lvgl\src\misc\lv_area.h **** 
  20:c:\projects\paindrain\arduinolcd\test\pain drain\libraries\lvgl\src\misc\lv_area.h **** /*********************
  21:c:\projects\paindrain\arduinolcd\test\pain drain\libraries\lvgl\src\misc\lv_area.h ****  *      DEFINES
  22:c:\projects\paindrain\arduinolcd\test\pain drain\libraries\lvgl\src\misc\lv_area.h ****  *********************/
  23:c:\projects\paindrain\arduinolcd\test\pain drain\libraries\lvgl\src\misc\lv_area.h **** 
  24:c:\projects\paindrain\arduinolcd\test\pain drain\libraries\lvgl\src\misc\lv_area.h **** #if LV_USE_LARGE_COORD
  25:c:\projects\paindrain\arduinolcd\test\pain drain\libraries\lvgl\src\misc\lv_area.h **** typedef int32_t lv_coord_t;
  26:c:\projects\paindrain\arduinolcd\test\pain drain\libraries\lvgl\src\misc\lv_area.h **** #else
  27:c:\projects\paindrain\arduinolcd\test\pain drain\libraries\lvgl\src\misc\lv_area.h **** typedef int16_t lv_coord_t;
  28:c:\projects\paindrain\arduinolcd\test\pain drain\libraries\lvgl\src\misc\lv_area.h **** #endif
  29:c:\projects\paindrain\arduinolcd\test\pain drain\libraries\lvgl\src\misc\lv_area.h **** 
  30:c:\projects\paindrain\arduinolcd\test\pain drain\libraries\lvgl\src\misc\lv_area.h **** /**********************
  31:c:\projects\paindrain\arduinolcd\test\pain drain\libraries\lvgl\src\misc\lv_area.h ****  *      TYPEDEFS
  32:c:\projects\paindrain\arduinolcd\test\pain drain\libraries\lvgl\src\misc\lv_area.h ****  **********************/
  33:c:\projects\paindrain\arduinolcd\test\pain drain\libraries\lvgl\src\misc\lv_area.h **** 
  34:c:\projects\paindrain\arduinolcd\test\pain drain\libraries\lvgl\src\misc\lv_area.h **** /**
  35:c:\projects\paindrain\arduinolcd\test\pain drain\libraries\lvgl\src\misc\lv_area.h ****  * Represents a point on the screen.
  36:c:\projects\paindrain\arduinolcd\test\pain drain\libraries\lvgl\src\misc\lv_area.h ****  */
  37:c:\projects\paindrain\arduinolcd\test\pain drain\libraries\lvgl\src\misc\lv_area.h **** typedef struct {
  38:c:\projects\paindrain\arduinolcd\test\pain drain\libraries\lvgl\src\misc\lv_area.h ****     lv_coord_t x;
  39:c:\projects\paindrain\arduinolcd\test\pain drain\libraries\lvgl\src\misc\lv_area.h ****     lv_coord_t y;
  40:c:\projects\paindrain\arduinolcd\test\pain drain\libraries\lvgl\src\misc\lv_area.h **** } lv_point_t;
  41:c:\projects\paindrain\arduinolcd\test\pain drain\libraries\lvgl\src\misc\lv_area.h **** 
  42:c:\projects\paindrain\arduinolcd\test\pain drain\libraries\lvgl\src\misc\lv_area.h **** /** Represents an area of the screen.*/
  43:c:\projects\paindrain\arduinolcd\test\pain drain\libraries\lvgl\src\misc\lv_area.h **** typedef struct {
  44:c:\projects\paindrain\arduinolcd\test\pain drain\libraries\lvgl\src\misc\lv_area.h ****     lv_coord_t x1;
  45:c:\projects\paindrain\arduinolcd\test\pain drain\libraries\lvgl\src\misc\lv_area.h ****     lv_coord_t y1;
  46:c:\projects\paindrain\arduinolcd\test\pain drain\libraries\lvgl\src\misc\lv_area.h ****     lv_coord_t x2;
  47:c:\projects\paindrain\arduinolcd\test\pain drain\libraries\lvgl\src\misc\lv_area.h ****     lv_coord_t y2;
  48:c:\projects\paindrain\arduinolcd\test\pain drain\libraries\lvgl\src\misc\lv_area.h **** } lv_area_t;
  49:c:\projects\paindrain\arduinolcd\test\pain drain\libraries\lvgl\src\misc\lv_area.h **** 
  50:c:\projects\paindrain\arduinolcd\test\pain drain\libraries\lvgl\src\misc\lv_area.h **** /** Alignments*/
  51:c:\projects\paindrain\arduinolcd\test\pain drain\libraries\lvgl\src\misc\lv_area.h **** enum {
  52:c:\projects\paindrain\arduinolcd\test\pain drain\libraries\lvgl\src\misc\lv_area.h ****     LV_ALIGN_DEFAULT = 0,
  53:c:\projects\paindrain\arduinolcd\test\pain drain\libraries\lvgl\src\misc\lv_area.h ****     LV_ALIGN_TOP_LEFT,
  54:c:\projects\paindrain\arduinolcd\test\pain drain\libraries\lvgl\src\misc\lv_area.h ****     LV_ALIGN_TOP_MID,
  55:c:\projects\paindrain\arduinolcd\test\pain drain\libraries\lvgl\src\misc\lv_area.h ****     LV_ALIGN_TOP_RIGHT,
  56:c:\projects\paindrain\arduinolcd\test\pain drain\libraries\lvgl\src\misc\lv_area.h ****     LV_ALIGN_BOTTOM_LEFT,
  57:c:\projects\paindrain\arduinolcd\test\pain drain\libraries\lvgl\src\misc\lv_area.h ****     LV_ALIGN_BOTTOM_MID,
  58:c:\projects\paindrain\arduinolcd\test\pain drain\libraries\lvgl\src\misc\lv_area.h ****     LV_ALIGN_BOTTOM_RIGHT,
  59:c:\projects\paindrain\arduinolcd\test\pain drain\libraries\lvgl\src\misc\lv_area.h ****     LV_ALIGN_LEFT_MID,
  60:c:\projects\paindrain\arduinolcd\test\pain drain\libraries\lvgl\src\misc\lv_area.h ****     LV_ALIGN_RIGHT_MID,
  61:c:\projects\paindrain\arduinolcd\test\pain drain\libraries\lvgl\src\misc\lv_area.h ****     LV_ALIGN_CENTER,
  62:c:\projects\paindrain\arduinolcd\test\pain drain\libraries\lvgl\src\misc\lv_area.h **** 
ARM GAS  C:\Users\haske\AppData\Local\Temp\cc9HFfJU.s 			page 45


  63:c:\projects\paindrain\arduinolcd\test\pain drain\libraries\lvgl\src\misc\lv_area.h ****     LV_ALIGN_OUT_TOP_LEFT,
  64:c:\projects\paindrain\arduinolcd\test\pain drain\libraries\lvgl\src\misc\lv_area.h ****     LV_ALIGN_OUT_TOP_MID,
  65:c:\projects\paindrain\arduinolcd\test\pain drain\libraries\lvgl\src\misc\lv_area.h ****     LV_ALIGN_OUT_TOP_RIGHT,
  66:c:\projects\paindrain\arduinolcd\test\pain drain\libraries\lvgl\src\misc\lv_area.h ****     LV_ALIGN_OUT_BOTTOM_LEFT,
  67:c:\projects\paindrain\arduinolcd\test\pain drain\libraries\lvgl\src\misc\lv_area.h ****     LV_ALIGN_OUT_BOTTOM_MID,
  68:c:\projects\paindrain\arduinolcd\test\pain drain\libraries\lvgl\src\misc\lv_area.h ****     LV_ALIGN_OUT_BOTTOM_RIGHT,
  69:c:\projects\paindrain\arduinolcd\test\pain drain\libraries\lvgl\src\misc\lv_area.h ****     LV_ALIGN_OUT_LEFT_TOP,
  70:c:\projects\paindrain\arduinolcd\test\pain drain\libraries\lvgl\src\misc\lv_area.h ****     LV_ALIGN_OUT_LEFT_MID,
  71:c:\projects\paindrain\arduinolcd\test\pain drain\libraries\lvgl\src\misc\lv_area.h ****     LV_ALIGN_OUT_LEFT_BOTTOM,
  72:c:\projects\paindrain\arduinolcd\test\pain drain\libraries\lvgl\src\misc\lv_area.h ****     LV_ALIGN_OUT_RIGHT_TOP,
  73:c:\projects\paindrain\arduinolcd\test\pain drain\libraries\lvgl\src\misc\lv_area.h ****     LV_ALIGN_OUT_RIGHT_MID,
  74:c:\projects\paindrain\arduinolcd\test\pain drain\libraries\lvgl\src\misc\lv_area.h ****     LV_ALIGN_OUT_RIGHT_BOTTOM,
  75:c:\projects\paindrain\arduinolcd\test\pain drain\libraries\lvgl\src\misc\lv_area.h **** };
  76:c:\projects\paindrain\arduinolcd\test\pain drain\libraries\lvgl\src\misc\lv_area.h **** typedef uint8_t lv_align_t;
  77:c:\projects\paindrain\arduinolcd\test\pain drain\libraries\lvgl\src\misc\lv_area.h **** 
  78:c:\projects\paindrain\arduinolcd\test\pain drain\libraries\lvgl\src\misc\lv_area.h **** enum {
  79:c:\projects\paindrain\arduinolcd\test\pain drain\libraries\lvgl\src\misc\lv_area.h ****     LV_DIR_NONE     = 0x00,
  80:c:\projects\paindrain\arduinolcd\test\pain drain\libraries\lvgl\src\misc\lv_area.h ****     LV_DIR_LEFT     = (1 << 0),
  81:c:\projects\paindrain\arduinolcd\test\pain drain\libraries\lvgl\src\misc\lv_area.h ****     LV_DIR_RIGHT    = (1 << 1),
  82:c:\projects\paindrain\arduinolcd\test\pain drain\libraries\lvgl\src\misc\lv_area.h ****     LV_DIR_TOP      = (1 << 2),
  83:c:\projects\paindrain\arduinolcd\test\pain drain\libraries\lvgl\src\misc\lv_area.h ****     LV_DIR_BOTTOM   = (1 << 3),
  84:c:\projects\paindrain\arduinolcd\test\pain drain\libraries\lvgl\src\misc\lv_area.h ****     LV_DIR_HOR      = LV_DIR_LEFT | LV_DIR_RIGHT,
  85:c:\projects\paindrain\arduinolcd\test\pain drain\libraries\lvgl\src\misc\lv_area.h ****     LV_DIR_VER      = LV_DIR_TOP | LV_DIR_BOTTOM,
  86:c:\projects\paindrain\arduinolcd\test\pain drain\libraries\lvgl\src\misc\lv_area.h ****     LV_DIR_ALL      = LV_DIR_HOR | LV_DIR_VER,
  87:c:\projects\paindrain\arduinolcd\test\pain drain\libraries\lvgl\src\misc\lv_area.h **** };
  88:c:\projects\paindrain\arduinolcd\test\pain drain\libraries\lvgl\src\misc\lv_area.h **** 
  89:c:\projects\paindrain\arduinolcd\test\pain drain\libraries\lvgl\src\misc\lv_area.h **** typedef uint8_t lv_dir_t;
  90:c:\projects\paindrain\arduinolcd\test\pain drain\libraries\lvgl\src\misc\lv_area.h **** 
  91:c:\projects\paindrain\arduinolcd\test\pain drain\libraries\lvgl\src\misc\lv_area.h **** /**********************
  92:c:\projects\paindrain\arduinolcd\test\pain drain\libraries\lvgl\src\misc\lv_area.h ****  * GLOBAL PROTOTYPES
  93:c:\projects\paindrain\arduinolcd\test\pain drain\libraries\lvgl\src\misc\lv_area.h ****  **********************/
  94:c:\projects\paindrain\arduinolcd\test\pain drain\libraries\lvgl\src\misc\lv_area.h **** 
  95:c:\projects\paindrain\arduinolcd\test\pain drain\libraries\lvgl\src\misc\lv_area.h **** /**
  96:c:\projects\paindrain\arduinolcd\test\pain drain\libraries\lvgl\src\misc\lv_area.h ****  * Initialize an area
  97:c:\projects\paindrain\arduinolcd\test\pain drain\libraries\lvgl\src\misc\lv_area.h ****  * @param area_p pointer to an area
  98:c:\projects\paindrain\arduinolcd\test\pain drain\libraries\lvgl\src\misc\lv_area.h ****  * @param x1 left coordinate of the area
  99:c:\projects\paindrain\arduinolcd\test\pain drain\libraries\lvgl\src\misc\lv_area.h ****  * @param y1 top coordinate of the area
 100:c:\projects\paindrain\arduinolcd\test\pain drain\libraries\lvgl\src\misc\lv_area.h ****  * @param x2 right coordinate of the area
 101:c:\projects\paindrain\arduinolcd\test\pain drain\libraries\lvgl\src\misc\lv_area.h ****  * @param y2 bottom coordinate of the area
 102:c:\projects\paindrain\arduinolcd\test\pain drain\libraries\lvgl\src\misc\lv_area.h ****  */
 103:c:\projects\paindrain\arduinolcd\test\pain drain\libraries\lvgl\src\misc\lv_area.h **** void lv_area_set(lv_area_t * area_p, lv_coord_t x1, lv_coord_t y1, lv_coord_t x2, lv_coord_t y2);
 104:c:\projects\paindrain\arduinolcd\test\pain drain\libraries\lvgl\src\misc\lv_area.h **** 
 105:c:\projects\paindrain\arduinolcd\test\pain drain\libraries\lvgl\src\misc\lv_area.h **** /**
 106:c:\projects\paindrain\arduinolcd\test\pain drain\libraries\lvgl\src\misc\lv_area.h ****  * Copy an area
 107:c:\projects\paindrain\arduinolcd\test\pain drain\libraries\lvgl\src\misc\lv_area.h ****  * @param dest pointer to the destination area
 108:c:\projects\paindrain\arduinolcd\test\pain drain\libraries\lvgl\src\misc\lv_area.h ****  * @param src pointer to the source area
 109:c:\projects\paindrain\arduinolcd\test\pain drain\libraries\lvgl\src\misc\lv_area.h ****  */
 110:c:\projects\paindrain\arduinolcd\test\pain drain\libraries\lvgl\src\misc\lv_area.h **** inline static void lv_area_copy(lv_area_t * dest, const lv_area_t * src)
 111:c:\projects\paindrain\arduinolcd\test\pain drain\libraries\lvgl\src\misc\lv_area.h **** {
 112:c:\projects\paindrain\arduinolcd\test\pain drain\libraries\lvgl\src\misc\lv_area.h ****     dest->x1 = src->x1;
 113:c:\projects\paindrain\arduinolcd\test\pain drain\libraries\lvgl\src\misc\lv_area.h ****     dest->y1 = src->y1;
 114:c:\projects\paindrain\arduinolcd\test\pain drain\libraries\lvgl\src\misc\lv_area.h ****     dest->x2 = src->x2;
 115:c:\projects\paindrain\arduinolcd\test\pain drain\libraries\lvgl\src\misc\lv_area.h ****     dest->y2 = src->y2;
 116:c:\projects\paindrain\arduinolcd\test\pain drain\libraries\lvgl\src\misc\lv_area.h **** }
 117:c:\projects\paindrain\arduinolcd\test\pain drain\libraries\lvgl\src\misc\lv_area.h **** 
 118:c:\projects\paindrain\arduinolcd\test\pain drain\libraries\lvgl\src\misc\lv_area.h **** /**
 119:c:\projects\paindrain\arduinolcd\test\pain drain\libraries\lvgl\src\misc\lv_area.h ****  * Get the width of an area
ARM GAS  C:\Users\haske\AppData\Local\Temp\cc9HFfJU.s 			page 46


 120:c:\projects\paindrain\arduinolcd\test\pain drain\libraries\lvgl\src\misc\lv_area.h ****  * @param area_p pointer to an area
 121:c:\projects\paindrain\arduinolcd\test\pain drain\libraries\lvgl\src\misc\lv_area.h ****  * @return the width of the area (if x1 == x2 -> width = 1)
 122:c:\projects\paindrain\arduinolcd\test\pain drain\libraries\lvgl\src\misc\lv_area.h ****  */
 123:c:\projects\paindrain\arduinolcd\test\pain drain\libraries\lvgl\src\misc\lv_area.h **** static inline lv_coord_t lv_area_get_width(const lv_area_t * area_p)
 124:c:\projects\paindrain\arduinolcd\test\pain drain\libraries\lvgl\src\misc\lv_area.h **** {
 125:c:\projects\paindrain\arduinolcd\test\pain drain\libraries\lvgl\src\misc\lv_area.h ****     return (lv_coord_t)(area_p->x2 - area_p->x1 + 1);
 1345              		.loc 3 125 0
 1346 00ca B4F90430 		ldrsh	r3, [r4, #4]
 1347 00ce B4F90090 		ldrsh	r9, [r4]
 1348              	.LVL209:
 1349 00d2 C9EB0309 		rsb	r9, r9, r3
 1350 00d6 09F10109 		add	r9, r9, #1
 1351 00da 0FFA89F9 		sxth	r9, r9
 1352              	.LVL210:
 1353              	.LBE38:
 1354              	.LBE37:
 1355              	.LBB39:
 1356              	.LBB40:
 126:c:\projects\paindrain\arduinolcd\test\pain drain\libraries\lvgl\src\misc\lv_area.h **** }
 127:c:\projects\paindrain\arduinolcd\test\pain drain\libraries\lvgl\src\misc\lv_area.h **** 
 128:c:\projects\paindrain\arduinolcd\test\pain drain\libraries\lvgl\src\misc\lv_area.h **** /**
 129:c:\projects\paindrain\arduinolcd\test\pain drain\libraries\lvgl\src\misc\lv_area.h ****  * Get the height of an area
 130:c:\projects\paindrain\arduinolcd\test\pain drain\libraries\lvgl\src\misc\lv_area.h ****  * @param area_p pointer to an area
 131:c:\projects\paindrain\arduinolcd\test\pain drain\libraries\lvgl\src\misc\lv_area.h ****  * @return the height of the area (if y1 == y2 -> height = 1)
 132:c:\projects\paindrain\arduinolcd\test\pain drain\libraries\lvgl\src\misc\lv_area.h ****  */
 133:c:\projects\paindrain\arduinolcd\test\pain drain\libraries\lvgl\src\misc\lv_area.h **** static inline lv_coord_t lv_area_get_height(const lv_area_t * area_p)
 134:c:\projects\paindrain\arduinolcd\test\pain drain\libraries\lvgl\src\misc\lv_area.h **** {
 135:c:\projects\paindrain\arduinolcd\test\pain drain\libraries\lvgl\src\misc\lv_area.h ****     return (lv_coord_t)(area_p->y2 - area_p->y1 + 1);
 1357              		.loc 3 135 0
 1358 00de B4F90630 		ldrsh	r3, [r4, #6]
 1359 00e2 B4F902A0 		ldrsh	r10, [r4, #2]
 1360 00e6 CAEB030A 		rsb	r10, r10, r3
 1361 00ea 0AF1010A 		add	r10, r10, #1
 1362 00ee 0FFA8AFA 		sxth	r10, r10
 1363              	.LVL211:
 1364              	.LBE40:
 1365              	.LBE39:
 111:..\..\..\arduinoLCD\test\Pain Drain\libraries\lvgl\src\draw\sw/lv_draw_sw_transform.c ****         int32_t xs1_ups, ys1_ups, xs2_ups, ys2_ups;
 1366              		.loc 1 111 0
 1367 00f2 4FF00008 		mov	r8, #0
 1368 00f6 2246     		mov	r2, r4
 1369 00f8 4C46     		mov	r4, r9
 1370              	.LVL212:
 1371 00fa 5B46     		mov	r3, fp
 1372 00fc BB46     		mov	fp, r7
 1373 00fe 1F46     		mov	r7, r3
 1374 0100 9146     		mov	r9, r2
 1375 0102 82E0     		b	.L78
 1376              	.LVL213:
 1377              	.L86:
 1378              	.LBB41:
 114:..\..\..\arduinoLCD\test\Pain Drain\libraries\lvgl\src\draw\sw/lv_draw_sw_transform.c ****         transform_point_upscaled(&tr_dsc, dest_area->x2, dest_area->y1 + y, &xs2_ups, &ys2_ups);
 1379              		.loc 1 114 0
 1380 0104 B9F90010 		ldrsh	r1, [r9]
 1381 0108 B9F90220 		ldrsh	r2, [r9, #2]
 1382 010c 12AB     		add	r3, sp, #72
 1383 010e 0093     		str	r3, [sp]
ARM GAS  C:\Users\haske\AppData\Local\Temp\cc9HFfJU.s 			page 47


 1384 0110 11AB     		add	r3, sp, #68
 1385 0112 4244     		add	r2, r2, r8
 1386 0114 15A8     		add	r0, sp, #84
 1387 0116 FFF7FEFF 		bl	transform_point_upscaled
 1388              	.LVL214:
 115:..\..\..\arduinoLCD\test\Pain Drain\libraries\lvgl\src\draw\sw/lv_draw_sw_transform.c **** 
 1389              		.loc 1 115 0
 1390 011a B9F90410 		ldrsh	r1, [r9, #4]
 1391 011e B9F90220 		ldrsh	r2, [r9, #2]
 1392 0122 14AB     		add	r3, sp, #80
 1393 0124 0093     		str	r3, [sp]
 1394 0126 13AB     		add	r3, sp, #76
 1395 0128 4244     		add	r2, r2, r8
 1396 012a 15A8     		add	r0, sp, #84
 1397 012c FFF7FEFF 		bl	transform_point_upscaled
 1398              	.LVL215:
 117:..\..\..\arduinoLCD\test\Pain Drain\libraries\lvgl\src\draw\sw/lv_draw_sw_transform.c ****         int32_t ys_diff = ys2_ups - ys1_ups;
 1399              		.loc 1 117 0
 1400 0130 1198     		ldr	r0, [sp, #68]
 1401 0132 139B     		ldr	r3, [sp, #76]
 1402 0134 1B1A     		subs	r3, r3, r0
 1403              	.LVL216:
 118:..\..\..\arduinoLCD\test\Pain Drain\libraries\lvgl\src\draw\sw/lv_draw_sw_transform.c ****         int32_t xs_step_256 = 0;
 1404              		.loc 1 118 0
 1405 0136 DDF848E0 		ldr	lr, [sp, #72]
 1406 013a 149A     		ldr	r2, [sp, #80]
 1407 013c CEEB0202 		rsb	r2, lr, r2
 1408              	.LVL217:
 121:..\..\..\arduinoLCD\test\Pain Drain\libraries\lvgl\src\draw\sw/lv_draw_sw_transform.c ****             xs_step_256 = (256 * xs_diff) / (dest_w - 1);
 1409              		.loc 1 121 0
 1410 0140 012C     		cmp	r4, #1
 1411 0142 08DD     		ble	.L87
 122:..\..\..\arduinoLCD\test\Pain Drain\libraries\lvgl\src\draw\sw/lv_draw_sw_transform.c ****             ys_step_256 = (256 * ys_diff) / (dest_w - 1);
 1412              		.loc 1 122 0
 1413 0144 1B02     		lsls	r3, r3, #8
 1414              	.LVL218:
 1415 0146 04F1FF3C 		add	ip, r4, #-1
 1416 014a 93FBFCF1 		sdiv	r1, r3, ip
 1417              	.LVL219:
 123:..\..\..\arduinoLCD\test\Pain Drain\libraries\lvgl\src\draw\sw/lv_draw_sw_transform.c ****         }
 1418              		.loc 1 123 0
 1419 014e 1302     		lsls	r3, r2, #8
 1420 0150 93FBFCF3 		sdiv	r3, r3, ip
 1421              	.LVL220:
 1422 0154 01E0     		b	.L79
 1423              	.LVL221:
 1424              	.L87:
 120:..\..\..\arduinoLCD\test\Pain Drain\libraries\lvgl\src\draw\sw/lv_draw_sw_transform.c ****         if(dest_w > 1) {
 1425              		.loc 1 120 0
 1426 0156 0023     		movs	r3, #0
 1427              	.LVL222:
 119:..\..\..\arduinoLCD\test\Pain Drain\libraries\lvgl\src\draw\sw/lv_draw_sw_transform.c ****         int32_t ys_step_256 = 0;
 1428              		.loc 1 119 0
 1429 0158 1946     		mov	r1, r3
 1430              	.LVL223:
 1431              	.L79:
 125:..\..\..\arduinoLCD\test\Pain Drain\libraries\lvgl\src\draw\sw/lv_draw_sw_transform.c ****         int32_t ys_ups = ys1_ups + 0x80;
ARM GAS  C:\Users\haske\AppData\Local\Temp\cc9HFfJU.s 			page 48


 1432              		.loc 1 125 0
 1433 015a 8030     		adds	r0, r0, #128
 1434              	.LVL224:
 126:..\..\..\arduinoLCD\test\Pain Drain\libraries\lvgl\src\draw\sw/lv_draw_sw_transform.c **** 
 1435              		.loc 1 126 0
 1436 015c 0EF18002 		add	r2, lr, #128
 1437              	.LVL225:
 128:..\..\..\arduinoLCD\test\Pain Drain\libraries\lvgl\src\draw\sw/lv_draw_sw_transform.c ****             switch(cf) {
 1438              		.loc 1 128 0
 1439 0160 9BF814E0 		ldrb	lr, [fp, #20]	@ zero_extendqisi2
 1440              	.LVL226:
 1441 0164 1EF0010F 		tst	lr, #1
 1442 0168 3AD1     		bne	.L80
 129:..\..\..\arduinoLCD\test\Pain Drain\libraries\lvgl\src\draw\sw/lv_draw_sw_transform.c ****                 case LV_IMG_CF_TRUE_COLOR_ALPHA:
 1443              		.loc 1 129 0
 1444 016a A7F1040E 		sub	lr, r7, #4
 1445 016e BEF1100F 		cmp	lr, #16
 1446 0172 43D8     		bhi	.L81
 1447 0174 DFE80EF0 		tbb	[pc, lr]
 1448              	.L83:
 1449 0178 17       		.byte	(.L82-.L83)/2
 1450 0179 09       		.byte	(.L84-.L83)/2
 1451 017a 17       		.byte	(.L82-.L83)/2
 1452 017b 42       		.byte	(.L81-.L83)/2
 1453 017c 42       		.byte	(.L81-.L83)/2
 1454 017d 42       		.byte	(.L81-.L83)/2
 1455 017e 42       		.byte	(.L81-.L83)/2
 1456 017f 42       		.byte	(.L81-.L83)/2
 1457 0180 42       		.byte	(.L81-.L83)/2
 1458 0181 42       		.byte	(.L81-.L83)/2
 1459 0182 42       		.byte	(.L81-.L83)/2
 1460 0183 42       		.byte	(.L81-.L83)/2
 1461 0184 42       		.byte	(.L81-.L83)/2
 1462 0185 42       		.byte	(.L81-.L83)/2
 1463 0186 42       		.byte	(.L81-.L83)/2
 1464 0187 42       		.byte	(.L81-.L83)/2
 1465 0188 26       		.byte	(.L85-.L83)/2
 1466 0189 00       		.p2align 1
 1467              	.L84:
 131:..\..\..\arduinoLCD\test\Pain Drain\libraries\lvgl\src\draw\sw/lv_draw_sw_transform.c ****                     break;
 1468              		.loc 1 131 0
 1469 018a 0695     		str	r5, [sp, #24]
 1470 018c 0596     		str	r6, [sp, #20]
 1471 018e 0494     		str	r4, [sp, #16]
 1472 0190 0393     		str	r3, [sp, #12]
 1473 0192 0291     		str	r1, [sp, #8]
 1474 0194 0192     		str	r2, [sp, #4]
 1475 0196 0090     		str	r0, [sp]
 1476 0198 0C9B     		ldr	r3, [sp, #48]
 1477              	.LVL227:
 1478 019a 0B9A     		ldr	r2, [sp, #44]
 1479              	.LVL228:
 1480 019c 0A99     		ldr	r1, [sp, #40]
 1481              	.LVL229:
 1482 019e 0998     		ldr	r0, [sp, #36]
 1483              	.LVL230:
 1484 01a0 FFF7FEFF 		bl	argb_no_aa
ARM GAS  C:\Users\haske\AppData\Local\Temp\cc9HFfJU.s 			page 49


 1485              	.LVL231:
 132:..\..\..\arduinoLCD\test\Pain Drain\libraries\lvgl\src\draw\sw/lv_draw_sw_transform.c ****                 case LV_IMG_CF_TRUE_COLOR:
 1486              		.loc 1 132 0
 1487 01a4 2AE0     		b	.L81
 1488              	.LVL232:
 1489              	.L82:
 135:..\..\..\arduinoLCD\test\Pain Drain\libraries\lvgl\src\draw\sw/lv_draw_sw_transform.c ****                     break;
 1490              		.loc 1 135 0
 1491 01a6 0797     		str	r7, [sp, #28]
 1492 01a8 0695     		str	r5, [sp, #24]
 1493 01aa 0596     		str	r6, [sp, #20]
 1494 01ac 0494     		str	r4, [sp, #16]
 1495 01ae 0393     		str	r3, [sp, #12]
 1496 01b0 0291     		str	r1, [sp, #8]
 1497 01b2 0192     		str	r2, [sp, #4]
 1498 01b4 0090     		str	r0, [sp]
 1499 01b6 0C9B     		ldr	r3, [sp, #48]
 1500              	.LVL233:
 1501 01b8 0B9A     		ldr	r2, [sp, #44]
 1502              	.LVL234:
 1503 01ba 0A99     		ldr	r1, [sp, #40]
 1504              	.LVL235:
 1505 01bc 0998     		ldr	r0, [sp, #36]
 1506              	.LVL236:
 1507 01be FFF7FEFF 		bl	rgb_no_aa
 1508              	.LVL237:
 136:..\..\..\arduinoLCD\test\Pain Drain\libraries\lvgl\src\draw\sw/lv_draw_sw_transform.c **** 
 1509              		.loc 1 136 0
 1510 01c2 1BE0     		b	.L81
 1511              	.LVL238:
 1512              	.L85:
 140:..\..\..\arduinoLCD\test\Pain Drain\libraries\lvgl\src\draw\sw/lv_draw_sw_transform.c ****                     break;
 1513              		.loc 1 140 0
 1514 01c4 0695     		str	r5, [sp, #24]
 1515 01c6 0596     		str	r6, [sp, #20]
 1516 01c8 0494     		str	r4, [sp, #16]
 1517 01ca 0393     		str	r3, [sp, #12]
 1518 01cc 0291     		str	r1, [sp, #8]
 1519 01ce 0192     		str	r2, [sp, #4]
 1520 01d0 0090     		str	r0, [sp]
 1521 01d2 0C9B     		ldr	r3, [sp, #48]
 1522              	.LVL239:
 1523 01d4 0B9A     		ldr	r2, [sp, #44]
 1524              	.LVL240:
 1525 01d6 0A99     		ldr	r1, [sp, #40]
 1526              	.LVL241:
 1527 01d8 0998     		ldr	r0, [sp, #36]
 1528              	.LVL242:
 1529 01da FFF7FEFF 		bl	rgb565a8_no_aa
 1530              	.LVL243:
 141:..\..\..\arduinoLCD\test\Pain Drain\libraries\lvgl\src\draw\sw/lv_draw_sw_transform.c **** #endif
 1531              		.loc 1 141 0
 1532 01de 0DE0     		b	.L81
 1533              	.LVL244:
 1534              	.L80:
 148:..\..\..\arduinoLCD\test\Pain Drain\libraries\lvgl\src\draw\sw/lv_draw_sw_transform.c ****         }
 1535              		.loc 1 148 0
ARM GAS  C:\Users\haske\AppData\Local\Temp\cc9HFfJU.s 			page 50


 1536 01e0 0797     		str	r7, [sp, #28]
 1537 01e2 0695     		str	r5, [sp, #24]
 1538 01e4 0596     		str	r6, [sp, #20]
 1539 01e6 0494     		str	r4, [sp, #16]
 1540 01e8 0393     		str	r3, [sp, #12]
 1541 01ea 0291     		str	r1, [sp, #8]
 1542 01ec 0192     		str	r2, [sp, #4]
 1543 01ee 0090     		str	r0, [sp]
 1544 01f0 0C9B     		ldr	r3, [sp, #48]
 1545              	.LVL245:
 1546 01f2 0B9A     		ldr	r2, [sp, #44]
 1547              	.LVL246:
 1548 01f4 0A99     		ldr	r1, [sp, #40]
 1549              	.LVL247:
 1550 01f6 0998     		ldr	r0, [sp, #36]
 1551              	.LVL248:
 1552 01f8 FFF7FEFF 		bl	argb_and_rgb_aa
 1553              	.LVL249:
 1554              	.L81:
 151:..\..\..\arduinoLCD\test\Pain Drain\libraries\lvgl\src\draw\sw/lv_draw_sw_transform.c ****         abuf += dest_w;
 1555              		.loc 1 151 0 discriminator 2
 1556 01fc 06EB4406 		add	r6, r6, r4, lsl #1
 1557              	.LVL250:
 152:..\..\..\arduinoLCD\test\Pain Drain\libraries\lvgl\src\draw\sw/lv_draw_sw_transform.c ****     }
 1558              		.loc 1 152 0 discriminator 2
 1559 0200 2544     		add	r5, r5, r4
 1560              	.LVL251:
 1561              	.LBE41:
 111:..\..\..\arduinoLCD\test\Pain Drain\libraries\lvgl\src\draw\sw/lv_draw_sw_transform.c ****         int32_t xs1_ups, ys1_ups, xs2_ups, ys2_ups;
 1562              		.loc 1 111 0 discriminator 2
 1563 0202 08F10108 		add	r8, r8, #1
 1564              	.LVL252:
 1565 0206 0FFA88F8 		sxth	r8, r8
 1566              	.LVL253:
 1567              	.L78:
 111:..\..\..\arduinoLCD\test\Pain Drain\libraries\lvgl\src\draw\sw/lv_draw_sw_transform.c ****         int32_t xs1_ups, ys1_ups, xs2_ups, ys2_ups;
 1568              		.loc 1 111 0 is_stmt 0 discriminator 1
 1569 020a D045     		cmp	r8, r10
 1570 020c FFF67AAF 		blt	.L86
 154:..\..\..\arduinoLCD\test\Pain Drain\libraries\lvgl\src\draw\sw/lv_draw_sw_transform.c **** 
 1571              		.loc 1 154 0 is_stmt 1
 1572 0210 21B0     		add	sp, sp, #132
 1573              		.cfi_def_cfa_offset 36
 1574              		@ sp needed
 1575 0212 BDE8F08F 		pop	{r4, r5, r6, r7, r8, r9, r10, fp, pc}
 1576              	.LVL254:
 1577              	.L90:
 1578 0216 00BF     		.align	2
 1579              	.L89:
 1580 0218 67666666 		.word	1717986919
 1581              		.cfi_endproc
 1582              	.LFE159:
 1583              		.size	lv_draw_sw_transform, .-lv_draw_sw_transform
 1584              		.text
 1585              	.Letext0:
 1586              		.file 4 "c:\\program files (x86)\\cypress\\psoc creator\\4.4\\psoc creator\\import\\gnu\\arm\\5.4.
 1587              		.file 5 "c:\\program files (x86)\\cypress\\psoc creator\\4.4\\psoc creator\\import\\gnu\\arm\\5.4.
ARM GAS  C:\Users\haske\AppData\Local\Temp\cc9HFfJU.s 			page 51


 1588              		.file 6 "c:\\projects\\paindrain\\arduinolcd\\test\\pain drain\\libraries\\lvgl\\src\\misc\\lv_typ
 1589              		.file 7 "c:\\program files (x86)\\cypress\\psoc creator\\4.4\\psoc creator\\import\\gnu\\arm\\5.4.
 1590              		.file 8 "c:\\projects\\paindrain\\arduinolcd\\test\\pain drain\\libraries\\lvgl\\src\\font\\lv_fon
 1591              		.file 9 "c:\\projects\\paindrain\\arduinolcd\\test\\pain drain\\libraries\\lvgl\\src\\misc\\lv_txt
 1592              		.file 10 "c:\\projects\\paindrain\\arduinolcd\\test\\pain drain\\libraries\\lvgl\\src\\misc\\lv_bi
 1593              		.file 11 "c:\\projects\\paindrain\\arduinolcd\\test\\pain drain\\libraries\\lvgl\\src\\misc\\lv_st
 1594              		.file 12 "..\\..\\..\\arduinoLCD\\test\\Pain Drain\\libraries\\lvgl\\src\\draw\\sw\\../lv_img_buf.
 1595              		.file 13 "c:\\projects\\paindrain\\arduinolcd\\test\\pain drain\\libraries\\lvgl\\src\\core\\lv_ob
 1596              		.file 14 "..\\..\\..\\arduinoLCD\\test\\Pain Drain\\libraries\\lvgl\\src\\draw\\sw\\../lv_draw_rec
 1597              		.file 15 "..\\..\\..\\arduinoLCD\\test\\Pain Drain\\libraries\\lvgl\\src\\draw\\sw\\../lv_draw_lab
 1598              		.file 16 "..\\..\\..\\arduinoLCD\\test\\Pain Drain\\libraries\\lvgl\\src\\draw\\sw\\../lv_draw_img
 1599              		.file 17 "..\\..\\..\\arduinoLCD\\test\\Pain Drain\\libraries\\lvgl\\src\\draw\\sw\\../lv_draw_lin
 1600              		.file 18 "..\\..\\..\\arduinoLCD\\test\\Pain Drain\\libraries\\lvgl\\src\\draw\\sw\\../lv_draw_arc
 1601              		.file 19 "..\\..\\..\\arduinoLCD\\test\\Pain Drain\\libraries\\lvgl\\src\\draw\\sw\\../lv_draw_lay
 1602              		.file 20 "..\\..\\..\\arduinoLCD\\test\\Pain Drain\\libraries\\lvgl\\src\\draw\\sw\\../lv_draw.h"
 1603              		.file 21 "c:\\projects\\paindrain\\arduinolcd\\test\\pain drain\\libraries\\lvgl\\src\\misc\\lv_ti
 1604              		.file 22 "c:\\projects\\paindrain\\arduinolcd\\test\\pain drain\\libraries\\lvgl\\src\\hal\\lv_hal
 1605              		.file 23 "c:\\projects\\paindrain\\arduinolcd\\test\\pain drain\\libraries\\lvgl\\src\\core\\lv_gr
 1606              		.file 24 "c:\\projects\\paindrain\\arduinolcd\\test\\pain drain\\libraries\\lvgl\\src\\misc\\lv_ll
 1607              		.file 25 "c:\\projects\\paindrain\\arduinolcd\\test\\pain drain\\libraries\\lvgl\\src\\core\\lv_ob
 1608              		.file 26 "c:\\projects\\paindrain\\arduinolcd\\test\\pain drain\\libraries\\lvgl\\src\\core\\lv_ob
 1609              		.file 27 "c:\\projects\\paindrain\\arduinolcd\\test\\pain drain\\libraries\\lvgl\\src\\core\\lv_ob
 1610              		.file 28 "c:\\projects\\paindrain\\arduinolcd\\test\\pain drain\\libraries\\lvgl\\src\\core\\lv_ev
 1611              		.file 29 "c:\\projects\\paindrain\\arduinolcd\\test\\pain drain\\libraries\\lvgl\\src\\core\\lv_re
 1612              		.file 30 "c:\\projects\\paindrain\\arduinolcd\\test\\pain drain\\libraries\\lvgl\\src\\misc\\lv_me
 1613              		.file 31 "c:\\projects\\paindrain\\arduinolcd\\test\\pain drain\\libraries\\lvgl\\src\\misc\\lv_ma