ARM GAS  C:\Users\haske\AppData\Local\Temp\cc9HFfJU.s 			page 1


   1              		.syntax unified
   2              		.cpu cortex-m4
   3              		.eabi_attribute 27, 1
   4              		.fpu fpv4-sp-d16
   5              		.eabi_attribute 20, 1
   6              		.eabi_attribute 21, 1
   7              		.eabi_attribute 23, 3
   8              		.eabi_attribute 24, 1
   9              		.eabi_attribute 25, 1
  10              		.eabi_attribute 26, 1
  11              		.eabi_attribute 30, 1
  12              		.eabi_attribute 34, 1
  13              		.eabi_attribute 18, 4
  14              		.thumb
  15              		.syntax unified
  16              		.file	"lv_draw_sw_transform.c"
  17              		.text
  18              	.Ltext0:
  19              		.cfi_sections	.debug_frame
  20              		.section	.text.argb_no_aa,"ax",%progbits
  21              		.align	2
  22              		.thumb
  23              		.thumb_func
  24              		.type	argb_no_aa, %function
  25              	argb_no_aa:
  26              	.LFB161:
  27              		.file 1 "..\\..\\..\\arduinoLCD\\test\\Pain Drain\\libraries\\lvgl\\src\\draw\\sw\\lv_draw_sw_tran
   1:..\..\..\arduinoLCD\test\Pain Drain\libraries\lvgl\src\draw\sw/lv_draw_sw_transform.c **** /**
   2:..\..\..\arduinoLCD\test\Pain Drain\libraries\lvgl\src\draw\sw/lv_draw_sw_transform.c ****  * @file lv_draw_sw_tranform.c
   3:..\..\..\arduinoLCD\test\Pain Drain\libraries\lvgl\src\draw\sw/lv_draw_sw_transform.c ****  *
   4:..\..\..\arduinoLCD\test\Pain Drain\libraries\lvgl\src\draw\sw/lv_draw_sw_transform.c ****  */
   5:..\..\..\arduinoLCD\test\Pain Drain\libraries\lvgl\src\draw\sw/lv_draw_sw_transform.c **** 
   6:..\..\..\arduinoLCD\test\Pain Drain\libraries\lvgl\src\draw\sw/lv_draw_sw_transform.c **** /*********************
   7:..\..\..\arduinoLCD\test\Pain Drain\libraries\lvgl\src\draw\sw/lv_draw_sw_transform.c ****  *      INCLUDES
   8:..\..\..\arduinoLCD\test\Pain Drain\libraries\lvgl\src\draw\sw/lv_draw_sw_transform.c ****  *********************/
   9:..\..\..\arduinoLCD\test\Pain Drain\libraries\lvgl\src\draw\sw/lv_draw_sw_transform.c **** #include "lv_draw_sw.h"
  10:..\..\..\arduinoLCD\test\Pain Drain\libraries\lvgl\src\draw\sw/lv_draw_sw_transform.c **** #include "../../misc/lv_assert.h"
  11:..\..\..\arduinoLCD\test\Pain Drain\libraries\lvgl\src\draw\sw/lv_draw_sw_transform.c **** #include "../../misc/lv_area.h"
  12:..\..\..\arduinoLCD\test\Pain Drain\libraries\lvgl\src\draw\sw/lv_draw_sw_transform.c **** #include "../../core/lv_refr.h"
  13:..\..\..\arduinoLCD\test\Pain Drain\libraries\lvgl\src\draw\sw/lv_draw_sw_transform.c **** 
  14:..\..\..\arduinoLCD\test\Pain Drain\libraries\lvgl\src\draw\sw/lv_draw_sw_transform.c **** #if LV_DRAW_COMPLEX
  15:..\..\..\arduinoLCD\test\Pain Drain\libraries\lvgl\src\draw\sw/lv_draw_sw_transform.c **** /*********************
  16:..\..\..\arduinoLCD\test\Pain Drain\libraries\lvgl\src\draw\sw/lv_draw_sw_transform.c ****  *      DEFINES
  17:..\..\..\arduinoLCD\test\Pain Drain\libraries\lvgl\src\draw\sw/lv_draw_sw_transform.c ****  *********************/
  18:..\..\..\arduinoLCD\test\Pain Drain\libraries\lvgl\src\draw\sw/lv_draw_sw_transform.c **** 
  19:..\..\..\arduinoLCD\test\Pain Drain\libraries\lvgl\src\draw\sw/lv_draw_sw_transform.c **** /**********************
  20:..\..\..\arduinoLCD\test\Pain Drain\libraries\lvgl\src\draw\sw/lv_draw_sw_transform.c ****  *      TYPEDEFS
  21:..\..\..\arduinoLCD\test\Pain Drain\libraries\lvgl\src\draw\sw/lv_draw_sw_transform.c ****  **********************/
  22:..\..\..\arduinoLCD\test\Pain Drain\libraries\lvgl\src\draw\sw/lv_draw_sw_transform.c **** typedef struct {
  23:..\..\..\arduinoLCD\test\Pain Drain\libraries\lvgl\src\draw\sw/lv_draw_sw_transform.c ****     int32_t x_in;
  24:..\..\..\arduinoLCD\test\Pain Drain\libraries\lvgl\src\draw\sw/lv_draw_sw_transform.c ****     int32_t y_in;
  25:..\..\..\arduinoLCD\test\Pain Drain\libraries\lvgl\src\draw\sw/lv_draw_sw_transform.c ****     int32_t x_out;
  26:..\..\..\arduinoLCD\test\Pain Drain\libraries\lvgl\src\draw\sw/lv_draw_sw_transform.c ****     int32_t y_out;
  27:..\..\..\arduinoLCD\test\Pain Drain\libraries\lvgl\src\draw\sw/lv_draw_sw_transform.c ****     int32_t sinma;
  28:..\..\..\arduinoLCD\test\Pain Drain\libraries\lvgl\src\draw\sw/lv_draw_sw_transform.c ****     int32_t cosma;
  29:..\..\..\arduinoLCD\test\Pain Drain\libraries\lvgl\src\draw\sw/lv_draw_sw_transform.c ****     int32_t zoom;
  30:..\..\..\arduinoLCD\test\Pain Drain\libraries\lvgl\src\draw\sw/lv_draw_sw_transform.c ****     int32_t angle;
ARM GAS  C:\Users\haske\AppData\Local\Temp\cc9HFfJU.s 			page 2


  31:..\..\..\arduinoLCD\test\Pain Drain\libraries\lvgl\src\draw\sw/lv_draw_sw_transform.c ****     int32_t pivot_x_256;
  32:..\..\..\arduinoLCD\test\Pain Drain\libraries\lvgl\src\draw\sw/lv_draw_sw_transform.c ****     int32_t pivot_y_256;
  33:..\..\..\arduinoLCD\test\Pain Drain\libraries\lvgl\src\draw\sw/lv_draw_sw_transform.c ****     lv_point_t pivot;
  34:..\..\..\arduinoLCD\test\Pain Drain\libraries\lvgl\src\draw\sw/lv_draw_sw_transform.c **** } point_transform_dsc_t;
  35:..\..\..\arduinoLCD\test\Pain Drain\libraries\lvgl\src\draw\sw/lv_draw_sw_transform.c **** 
  36:..\..\..\arduinoLCD\test\Pain Drain\libraries\lvgl\src\draw\sw/lv_draw_sw_transform.c **** /**********************
  37:..\..\..\arduinoLCD\test\Pain Drain\libraries\lvgl\src\draw\sw/lv_draw_sw_transform.c ****  *  STATIC PROTOTYPES
  38:..\..\..\arduinoLCD\test\Pain Drain\libraries\lvgl\src\draw\sw/lv_draw_sw_transform.c ****  **********************/
  39:..\..\..\arduinoLCD\test\Pain Drain\libraries\lvgl\src\draw\sw/lv_draw_sw_transform.c **** /**
  40:..\..\..\arduinoLCD\test\Pain Drain\libraries\lvgl\src\draw\sw/lv_draw_sw_transform.c ****  * Transform a point with 1/256 precision (the output coordinates are upscaled by 256)
  41:..\..\..\arduinoLCD\test\Pain Drain\libraries\lvgl\src\draw\sw/lv_draw_sw_transform.c ****  * @param t         pointer to n initialized `point_transform_dsc_t` structure
  42:..\..\..\arduinoLCD\test\Pain Drain\libraries\lvgl\src\draw\sw/lv_draw_sw_transform.c ****  * @param xin       X coordinate to rotate
  43:..\..\..\arduinoLCD\test\Pain Drain\libraries\lvgl\src\draw\sw/lv_draw_sw_transform.c ****  * @param yin       Y coordinate to rotate
  44:..\..\..\arduinoLCD\test\Pain Drain\libraries\lvgl\src\draw\sw/lv_draw_sw_transform.c ****  * @param xout      upscaled, transformed X
  45:..\..\..\arduinoLCD\test\Pain Drain\libraries\lvgl\src\draw\sw/lv_draw_sw_transform.c ****  * @param yout      upscaled, transformed Y
  46:..\..\..\arduinoLCD\test\Pain Drain\libraries\lvgl\src\draw\sw/lv_draw_sw_transform.c ****  */
  47:..\..\..\arduinoLCD\test\Pain Drain\libraries\lvgl\src\draw\sw/lv_draw_sw_transform.c **** static void transform_point_upscaled(point_transform_dsc_t * t, int32_t xin, int32_t yin, int32_t *
  48:..\..\..\arduinoLCD\test\Pain Drain\libraries\lvgl\src\draw\sw/lv_draw_sw_transform.c ****                                      int32_t * yout);
  49:..\..\..\arduinoLCD\test\Pain Drain\libraries\lvgl\src\draw\sw/lv_draw_sw_transform.c **** 
  50:..\..\..\arduinoLCD\test\Pain Drain\libraries\lvgl\src\draw\sw/lv_draw_sw_transform.c **** static void argb_no_aa(const uint8_t * src, lv_coord_t src_w, lv_coord_t src_h, lv_coord_t src_stri
  51:..\..\..\arduinoLCD\test\Pain Drain\libraries\lvgl\src\draw\sw/lv_draw_sw_transform.c ****                        int32_t xs_ups, int32_t ys_ups, int32_t xs_step, int32_t ys_step,
  52:..\..\..\arduinoLCD\test\Pain Drain\libraries\lvgl\src\draw\sw/lv_draw_sw_transform.c ****                        int32_t x_end, lv_color_t * cbuf, uint8_t * abuf);
  53:..\..\..\arduinoLCD\test\Pain Drain\libraries\lvgl\src\draw\sw/lv_draw_sw_transform.c **** 
  54:..\..\..\arduinoLCD\test\Pain Drain\libraries\lvgl\src\draw\sw/lv_draw_sw_transform.c **** static void rgb_no_aa(const uint8_t * src, lv_coord_t src_w, lv_coord_t src_h, lv_coord_t src_strid
  55:..\..\..\arduinoLCD\test\Pain Drain\libraries\lvgl\src\draw\sw/lv_draw_sw_transform.c ****                       int32_t xs_ups, int32_t ys_ups, int32_t xs_step, int32_t ys_step,
  56:..\..\..\arduinoLCD\test\Pain Drain\libraries\lvgl\src\draw\sw/lv_draw_sw_transform.c ****                       int32_t x_end, lv_color_t * cbuf, uint8_t * abuf, lv_img_cf_t cf);
  57:..\..\..\arduinoLCD\test\Pain Drain\libraries\lvgl\src\draw\sw/lv_draw_sw_transform.c **** 
  58:..\..\..\arduinoLCD\test\Pain Drain\libraries\lvgl\src\draw\sw/lv_draw_sw_transform.c **** #if LV_COLOR_DEPTH == 16
  59:..\..\..\arduinoLCD\test\Pain Drain\libraries\lvgl\src\draw\sw/lv_draw_sw_transform.c **** static void rgb565a8_no_aa(const uint8_t * src, lv_coord_t src_w, lv_coord_t src_h, lv_coord_t src_
  60:..\..\..\arduinoLCD\test\Pain Drain\libraries\lvgl\src\draw\sw/lv_draw_sw_transform.c ****                            int32_t xs_ups, int32_t ys_ups, int32_t xs_step, int32_t ys_step,
  61:..\..\..\arduinoLCD\test\Pain Drain\libraries\lvgl\src\draw\sw/lv_draw_sw_transform.c ****                            int32_t x_end, lv_color_t * cbuf, uint8_t * abuf);
  62:..\..\..\arduinoLCD\test\Pain Drain\libraries\lvgl\src\draw\sw/lv_draw_sw_transform.c **** #endif
  63:..\..\..\arduinoLCD\test\Pain Drain\libraries\lvgl\src\draw\sw/lv_draw_sw_transform.c **** 
  64:..\..\..\arduinoLCD\test\Pain Drain\libraries\lvgl\src\draw\sw/lv_draw_sw_transform.c **** static void argb_and_rgb_aa(const uint8_t * src, lv_coord_t src_w, lv_coord_t src_h, lv_coord_t src
  65:..\..\..\arduinoLCD\test\Pain Drain\libraries\lvgl\src\draw\sw/lv_draw_sw_transform.c ****                             int32_t xs_ups, int32_t ys_ups, int32_t xs_step, int32_t ys_step,
  66:..\..\..\arduinoLCD\test\Pain Drain\libraries\lvgl\src\draw\sw/lv_draw_sw_transform.c ****                             int32_t x_end, lv_color_t * cbuf, uint8_t * abuf, lv_img_cf_t cf);
  67:..\..\..\arduinoLCD\test\Pain Drain\libraries\lvgl\src\draw\sw/lv_draw_sw_transform.c **** 
  68:..\..\..\arduinoLCD\test\Pain Drain\libraries\lvgl\src\draw\sw/lv_draw_sw_transform.c **** /**********************
  69:..\..\..\arduinoLCD\test\Pain Drain\libraries\lvgl\src\draw\sw/lv_draw_sw_transform.c ****  *  STATIC VARIABLES
  70:..\..\..\arduinoLCD\test\Pain Drain\libraries\lvgl\src\draw\sw/lv_draw_sw_transform.c ****  **********************/
  71:..\..\..\arduinoLCD\test\Pain Drain\libraries\lvgl\src\draw\sw/lv_draw_sw_transform.c **** 
  72:..\..\..\arduinoLCD\test\Pain Drain\libraries\lvgl\src\draw\sw/lv_draw_sw_transform.c **** /**********************
  73:..\..\..\arduinoLCD\test\Pain Drain\libraries\lvgl\src\draw\sw/lv_draw_sw_transform.c ****  *      MACROS
  74:..\..\..\arduinoLCD\test\Pain Drain\libraries\lvgl\src\draw\sw/lv_draw_sw_transform.c ****  **********************/
  75:..\..\..\arduinoLCD\test\Pain Drain\libraries\lvgl\src\draw\sw/lv_draw_sw_transform.c **** 
  76:..\..\..\arduinoLCD\test\Pain Drain\libraries\lvgl\src\draw\sw/lv_draw_sw_transform.c **** /**********************
  77:..\..\..\arduinoLCD\test\Pain Drain\libraries\lvgl\src\draw\sw/lv_draw_sw_transform.c ****  *   GLOBAL FUNCTIONS
  78:..\..\..\arduinoLCD\test\Pain Drain\libraries\lvgl\src\draw\sw/lv_draw_sw_transform.c ****  **********************/
  79:..\..\..\arduinoLCD\test\Pain Drain\libraries\lvgl\src\draw\sw/lv_draw_sw_transform.c **** 
  80:..\..\..\arduinoLCD\test\Pain Drain\libraries\lvgl\src\draw\sw/lv_draw_sw_transform.c **** void lv_draw_sw_transform(lv_draw_ctx_t * draw_ctx, const lv_area_t * dest_area, const void * src_b
  81:..\..\..\arduinoLCD\test\Pain Drain\libraries\lvgl\src\draw\sw/lv_draw_sw_transform.c ****                           lv_coord_t src_w, lv_coord_t src_h, lv_coord_t src_stride,
  82:..\..\..\arduinoLCD\test\Pain Drain\libraries\lvgl\src\draw\sw/lv_draw_sw_transform.c ****                           const lv_draw_img_dsc_t * draw_dsc, lv_img_cf_t cf, lv_color_t * cbuf, lv
  83:..\..\..\arduinoLCD\test\Pain Drain\libraries\lvgl\src\draw\sw/lv_draw_sw_transform.c **** {
  84:..\..\..\arduinoLCD\test\Pain Drain\libraries\lvgl\src\draw\sw/lv_draw_sw_transform.c ****     LV_UNUSED(draw_ctx);
  85:..\..\..\arduinoLCD\test\Pain Drain\libraries\lvgl\src\draw\sw/lv_draw_sw_transform.c **** 
  86:..\..\..\arduinoLCD\test\Pain Drain\libraries\lvgl\src\draw\sw/lv_draw_sw_transform.c ****     point_transform_dsc_t tr_dsc;
  87:..\..\..\arduinoLCD\test\Pain Drain\libraries\lvgl\src\draw\sw/lv_draw_sw_transform.c ****     tr_dsc.angle = -draw_dsc->angle;
ARM GAS  C:\Users\haske\AppData\Local\Temp\cc9HFfJU.s 			page 3


  88:..\..\..\arduinoLCD\test\Pain Drain\libraries\lvgl\src\draw\sw/lv_draw_sw_transform.c ****     tr_dsc.zoom = (256 * 256) / draw_dsc->zoom;
  89:..\..\..\arduinoLCD\test\Pain Drain\libraries\lvgl\src\draw\sw/lv_draw_sw_transform.c ****     tr_dsc.pivot = draw_dsc->pivot;
  90:..\..\..\arduinoLCD\test\Pain Drain\libraries\lvgl\src\draw\sw/lv_draw_sw_transform.c **** 
  91:..\..\..\arduinoLCD\test\Pain Drain\libraries\lvgl\src\draw\sw/lv_draw_sw_transform.c ****     int32_t angle_low = tr_dsc.angle / 10;
  92:..\..\..\arduinoLCD\test\Pain Drain\libraries\lvgl\src\draw\sw/lv_draw_sw_transform.c ****     int32_t angle_high = angle_low + 1;
  93:..\..\..\arduinoLCD\test\Pain Drain\libraries\lvgl\src\draw\sw/lv_draw_sw_transform.c ****     int32_t angle_rem = tr_dsc.angle  - (angle_low * 10);
  94:..\..\..\arduinoLCD\test\Pain Drain\libraries\lvgl\src\draw\sw/lv_draw_sw_transform.c **** 
  95:..\..\..\arduinoLCD\test\Pain Drain\libraries\lvgl\src\draw\sw/lv_draw_sw_transform.c ****     int32_t s1 = lv_trigo_sin(angle_low);
  96:..\..\..\arduinoLCD\test\Pain Drain\libraries\lvgl\src\draw\sw/lv_draw_sw_transform.c ****     int32_t s2 = lv_trigo_sin(angle_high);
  97:..\..\..\arduinoLCD\test\Pain Drain\libraries\lvgl\src\draw\sw/lv_draw_sw_transform.c **** 
  98:..\..\..\arduinoLCD\test\Pain Drain\libraries\lvgl\src\draw\sw/lv_draw_sw_transform.c ****     int32_t c1 = lv_trigo_sin(angle_low + 90);
  99:..\..\..\arduinoLCD\test\Pain Drain\libraries\lvgl\src\draw\sw/lv_draw_sw_transform.c ****     int32_t c2 = lv_trigo_sin(angle_high + 90);
 100:..\..\..\arduinoLCD\test\Pain Drain\libraries\lvgl\src\draw\sw/lv_draw_sw_transform.c **** 
 101:..\..\..\arduinoLCD\test\Pain Drain\libraries\lvgl\src\draw\sw/lv_draw_sw_transform.c ****     tr_dsc.sinma = (s1 * (10 - angle_rem) + s2 * angle_rem) / 10;
 102:..\..\..\arduinoLCD\test\Pain Drain\libraries\lvgl\src\draw\sw/lv_draw_sw_transform.c ****     tr_dsc.cosma = (c1 * (10 - angle_rem) + c2 * angle_rem) / 10;
 103:..\..\..\arduinoLCD\test\Pain Drain\libraries\lvgl\src\draw\sw/lv_draw_sw_transform.c ****     tr_dsc.sinma = tr_dsc.sinma >> (LV_TRIGO_SHIFT - 10);
 104:..\..\..\arduinoLCD\test\Pain Drain\libraries\lvgl\src\draw\sw/lv_draw_sw_transform.c ****     tr_dsc.cosma = tr_dsc.cosma >> (LV_TRIGO_SHIFT - 10);
 105:..\..\..\arduinoLCD\test\Pain Drain\libraries\lvgl\src\draw\sw/lv_draw_sw_transform.c ****     tr_dsc.pivot_x_256 = tr_dsc.pivot.x * 256;
 106:..\..\..\arduinoLCD\test\Pain Drain\libraries\lvgl\src\draw\sw/lv_draw_sw_transform.c ****     tr_dsc.pivot_y_256 = tr_dsc.pivot.y * 256;
 107:..\..\..\arduinoLCD\test\Pain Drain\libraries\lvgl\src\draw\sw/lv_draw_sw_transform.c **** 
 108:..\..\..\arduinoLCD\test\Pain Drain\libraries\lvgl\src\draw\sw/lv_draw_sw_transform.c ****     lv_coord_t dest_w = lv_area_get_width(dest_area);
 109:..\..\..\arduinoLCD\test\Pain Drain\libraries\lvgl\src\draw\sw/lv_draw_sw_transform.c ****     lv_coord_t dest_h = lv_area_get_height(dest_area);
 110:..\..\..\arduinoLCD\test\Pain Drain\libraries\lvgl\src\draw\sw/lv_draw_sw_transform.c ****     lv_coord_t y;
 111:..\..\..\arduinoLCD\test\Pain Drain\libraries\lvgl\src\draw\sw/lv_draw_sw_transform.c ****     for(y = 0; y < dest_h; y++) {
 112:..\..\..\arduinoLCD\test\Pain Drain\libraries\lvgl\src\draw\sw/lv_draw_sw_transform.c ****         int32_t xs1_ups, ys1_ups, xs2_ups, ys2_ups;
 113:..\..\..\arduinoLCD\test\Pain Drain\libraries\lvgl\src\draw\sw/lv_draw_sw_transform.c **** 
 114:..\..\..\arduinoLCD\test\Pain Drain\libraries\lvgl\src\draw\sw/lv_draw_sw_transform.c ****         transform_point_upscaled(&tr_dsc, dest_area->x1, dest_area->y1 + y, &xs1_ups, &ys1_ups);
 115:..\..\..\arduinoLCD\test\Pain Drain\libraries\lvgl\src\draw\sw/lv_draw_sw_transform.c ****         transform_point_upscaled(&tr_dsc, dest_area->x2, dest_area->y1 + y, &xs2_ups, &ys2_ups);
 116:..\..\..\arduinoLCD\test\Pain Drain\libraries\lvgl\src\draw\sw/lv_draw_sw_transform.c **** 
 117:..\..\..\arduinoLCD\test\Pain Drain\libraries\lvgl\src\draw\sw/lv_draw_sw_transform.c ****         int32_t xs_diff = xs2_ups - xs1_ups;
 118:..\..\..\arduinoLCD\test\Pain Drain\libraries\lvgl\src\draw\sw/lv_draw_sw_transform.c ****         int32_t ys_diff = ys2_ups - ys1_ups;
 119:..\..\..\arduinoLCD\test\Pain Drain\libraries\lvgl\src\draw\sw/lv_draw_sw_transform.c ****         int32_t xs_step_256 = 0;
 120:..\..\..\arduinoLCD\test\Pain Drain\libraries\lvgl\src\draw\sw/lv_draw_sw_transform.c ****         int32_t ys_step_256 = 0;
 121:..\..\..\arduinoLCD\test\Pain Drain\libraries\lvgl\src\draw\sw/lv_draw_sw_transform.c ****         if(dest_w > 1) {
 122:..\..\..\arduinoLCD\test\Pain Drain\libraries\lvgl\src\draw\sw/lv_draw_sw_transform.c ****             xs_step_256 = (256 * xs_diff) / (dest_w - 1);
 123:..\..\..\arduinoLCD\test\Pain Drain\libraries\lvgl\src\draw\sw/lv_draw_sw_transform.c ****             ys_step_256 = (256 * ys_diff) / (dest_w - 1);
 124:..\..\..\arduinoLCD\test\Pain Drain\libraries\lvgl\src\draw\sw/lv_draw_sw_transform.c ****         }
 125:..\..\..\arduinoLCD\test\Pain Drain\libraries\lvgl\src\draw\sw/lv_draw_sw_transform.c ****         int32_t xs_ups = xs1_ups + 0x80;
 126:..\..\..\arduinoLCD\test\Pain Drain\libraries\lvgl\src\draw\sw/lv_draw_sw_transform.c ****         int32_t ys_ups = ys1_ups + 0x80;
 127:..\..\..\arduinoLCD\test\Pain Drain\libraries\lvgl\src\draw\sw/lv_draw_sw_transform.c **** 
 128:..\..\..\arduinoLCD\test\Pain Drain\libraries\lvgl\src\draw\sw/lv_draw_sw_transform.c ****         if(draw_dsc->antialias == 0) {
 129:..\..\..\arduinoLCD\test\Pain Drain\libraries\lvgl\src\draw\sw/lv_draw_sw_transform.c ****             switch(cf) {
 130:..\..\..\arduinoLCD\test\Pain Drain\libraries\lvgl\src\draw\sw/lv_draw_sw_transform.c ****                 case LV_IMG_CF_TRUE_COLOR_ALPHA:
 131:..\..\..\arduinoLCD\test\Pain Drain\libraries\lvgl\src\draw\sw/lv_draw_sw_transform.c ****                     argb_no_aa(src_buf, src_w, src_h, src_stride, xs_ups, ys_ups, xs_step_256, ys_s
 132:..\..\..\arduinoLCD\test\Pain Drain\libraries\lvgl\src\draw\sw/lv_draw_sw_transform.c ****                     break;
 133:..\..\..\arduinoLCD\test\Pain Drain\libraries\lvgl\src\draw\sw/lv_draw_sw_transform.c ****                 case LV_IMG_CF_TRUE_COLOR:
 134:..\..\..\arduinoLCD\test\Pain Drain\libraries\lvgl\src\draw\sw/lv_draw_sw_transform.c ****                 case LV_IMG_CF_TRUE_COLOR_CHROMA_KEYED:
 135:..\..\..\arduinoLCD\test\Pain Drain\libraries\lvgl\src\draw\sw/lv_draw_sw_transform.c ****                     rgb_no_aa(src_buf, src_w, src_h, src_stride, xs_ups, ys_ups, xs_step_256, ys_st
 136:..\..\..\arduinoLCD\test\Pain Drain\libraries\lvgl\src\draw\sw/lv_draw_sw_transform.c ****                     break;
 137:..\..\..\arduinoLCD\test\Pain Drain\libraries\lvgl\src\draw\sw/lv_draw_sw_transform.c **** 
 138:..\..\..\arduinoLCD\test\Pain Drain\libraries\lvgl\src\draw\sw/lv_draw_sw_transform.c **** #if LV_COLOR_DEPTH == 16
 139:..\..\..\arduinoLCD\test\Pain Drain\libraries\lvgl\src\draw\sw/lv_draw_sw_transform.c ****                 case LV_IMG_CF_RGB565A8:
 140:..\..\..\arduinoLCD\test\Pain Drain\libraries\lvgl\src\draw\sw/lv_draw_sw_transform.c ****                     rgb565a8_no_aa(src_buf, src_w, src_h, src_stride, xs_ups, ys_ups, xs_step_256, 
 141:..\..\..\arduinoLCD\test\Pain Drain\libraries\lvgl\src\draw\sw/lv_draw_sw_transform.c ****                     break;
 142:..\..\..\arduinoLCD\test\Pain Drain\libraries\lvgl\src\draw\sw/lv_draw_sw_transform.c **** #endif
 143:..\..\..\arduinoLCD\test\Pain Drain\libraries\lvgl\src\draw\sw/lv_draw_sw_transform.c ****                 default:
 144:..\..\..\arduinoLCD\test\Pain Drain\libraries\lvgl\src\draw\sw/lv_draw_sw_transform.c ****                     break;
ARM GAS  C:\Users\haske\AppData\Local\Temp\cc9HFfJU.s 			page 4


 145:..\..\..\arduinoLCD\test\Pain Drain\libraries\lvgl\src\draw\sw/lv_draw_sw_transform.c ****             }
 146:..\..\..\arduinoLCD\test\Pain Drain\libraries\lvgl\src\draw\sw/lv_draw_sw_transform.c ****         }
 147:..\..\..\arduinoLCD\test\Pain Drain\libraries\lvgl\src\draw\sw/lv_draw_sw_transform.c ****         else {
 148:..\..\..\arduinoLCD\test\Pain Drain\libraries\lvgl\src\draw\sw/lv_draw_sw_transform.c ****             argb_and_rgb_aa(src_buf, src_w, src_h, src_stride, xs_ups, ys_ups, xs_step_256, ys_step
 149:..\..\..\arduinoLCD\test\Pain Drain\libraries\lvgl\src\draw\sw/lv_draw_sw_transform.c ****         }
 150:..\..\..\arduinoLCD\test\Pain Drain\libraries\lvgl\src\draw\sw/lv_draw_sw_transform.c **** 
 151:..\..\..\arduinoLCD\test\Pain Drain\libraries\lvgl\src\draw\sw/lv_draw_sw_transform.c ****         cbuf += dest_w;
 152:..\..\..\arduinoLCD\test\Pain Drain\libraries\lvgl\src\draw\sw/lv_draw_sw_transform.c ****         abuf += dest_w;
 153:..\..\..\arduinoLCD\test\Pain Drain\libraries\lvgl\src\draw\sw/lv_draw_sw_transform.c ****     }
 154:..\..\..\arduinoLCD\test\Pain Drain\libraries\lvgl\src\draw\sw/lv_draw_sw_transform.c **** }
 155:..\..\..\arduinoLCD\test\Pain Drain\libraries\lvgl\src\draw\sw/lv_draw_sw_transform.c **** 
 156:..\..\..\arduinoLCD\test\Pain Drain\libraries\lvgl\src\draw\sw/lv_draw_sw_transform.c **** /**********************
 157:..\..\..\arduinoLCD\test\Pain Drain\libraries\lvgl\src\draw\sw/lv_draw_sw_transform.c ****  *   STATIC FUNCTIONS
 158:..\..\..\arduinoLCD\test\Pain Drain\libraries\lvgl\src\draw\sw/lv_draw_sw_transform.c ****  **********************/
 159:..\..\..\arduinoLCD\test\Pain Drain\libraries\lvgl\src\draw\sw/lv_draw_sw_transform.c **** 
 160:..\..\..\arduinoLCD\test\Pain Drain\libraries\lvgl\src\draw\sw/lv_draw_sw_transform.c **** static void rgb_no_aa(const uint8_t * src, lv_coord_t src_w, lv_coord_t src_h, lv_coord_t src_strid
 161:..\..\..\arduinoLCD\test\Pain Drain\libraries\lvgl\src\draw\sw/lv_draw_sw_transform.c ****                       int32_t xs_ups, int32_t ys_ups, int32_t xs_step, int32_t ys_step,
 162:..\..\..\arduinoLCD\test\Pain Drain\libraries\lvgl\src\draw\sw/lv_draw_sw_transform.c ****                       int32_t x_end, lv_color_t * cbuf, uint8_t * abuf, lv_img_cf_t cf)
 163:..\..\..\arduinoLCD\test\Pain Drain\libraries\lvgl\src\draw\sw/lv_draw_sw_transform.c **** {
 164:..\..\..\arduinoLCD\test\Pain Drain\libraries\lvgl\src\draw\sw/lv_draw_sw_transform.c ****     int32_t xs_ups_start = xs_ups;
 165:..\..\..\arduinoLCD\test\Pain Drain\libraries\lvgl\src\draw\sw/lv_draw_sw_transform.c ****     int32_t ys_ups_start = ys_ups;
 166:..\..\..\arduinoLCD\test\Pain Drain\libraries\lvgl\src\draw\sw/lv_draw_sw_transform.c ****     lv_disp_t * d = _lv_refr_get_disp_refreshing();
 167:..\..\..\arduinoLCD\test\Pain Drain\libraries\lvgl\src\draw\sw/lv_draw_sw_transform.c ****     lv_color_t ck = d->driver->color_chroma_key;
 168:..\..\..\arduinoLCD\test\Pain Drain\libraries\lvgl\src\draw\sw/lv_draw_sw_transform.c **** 
 169:..\..\..\arduinoLCD\test\Pain Drain\libraries\lvgl\src\draw\sw/lv_draw_sw_transform.c ****     lv_memset_ff(abuf, x_end);
 170:..\..\..\arduinoLCD\test\Pain Drain\libraries\lvgl\src\draw\sw/lv_draw_sw_transform.c **** 
 171:..\..\..\arduinoLCD\test\Pain Drain\libraries\lvgl\src\draw\sw/lv_draw_sw_transform.c ****     lv_coord_t x;
 172:..\..\..\arduinoLCD\test\Pain Drain\libraries\lvgl\src\draw\sw/lv_draw_sw_transform.c ****     for(x = 0; x < x_end; x++) {
 173:..\..\..\arduinoLCD\test\Pain Drain\libraries\lvgl\src\draw\sw/lv_draw_sw_transform.c ****         xs_ups = xs_ups_start + ((xs_step * x) >> 8);
 174:..\..\..\arduinoLCD\test\Pain Drain\libraries\lvgl\src\draw\sw/lv_draw_sw_transform.c ****         ys_ups = ys_ups_start + ((ys_step * x) >> 8);
 175:..\..\..\arduinoLCD\test\Pain Drain\libraries\lvgl\src\draw\sw/lv_draw_sw_transform.c **** 
 176:..\..\..\arduinoLCD\test\Pain Drain\libraries\lvgl\src\draw\sw/lv_draw_sw_transform.c ****         int32_t xs_int = xs_ups >> 8;
 177:..\..\..\arduinoLCD\test\Pain Drain\libraries\lvgl\src\draw\sw/lv_draw_sw_transform.c ****         int32_t ys_int = ys_ups >> 8;
 178:..\..\..\arduinoLCD\test\Pain Drain\libraries\lvgl\src\draw\sw/lv_draw_sw_transform.c ****         if(xs_int < 0 || xs_int >= src_w || ys_int < 0 || ys_int >= src_h) {
 179:..\..\..\arduinoLCD\test\Pain Drain\libraries\lvgl\src\draw\sw/lv_draw_sw_transform.c ****             abuf[x] = 0x00;
 180:..\..\..\arduinoLCD\test\Pain Drain\libraries\lvgl\src\draw\sw/lv_draw_sw_transform.c ****         }
 181:..\..\..\arduinoLCD\test\Pain Drain\libraries\lvgl\src\draw\sw/lv_draw_sw_transform.c ****         else {
 182:..\..\..\arduinoLCD\test\Pain Drain\libraries\lvgl\src\draw\sw/lv_draw_sw_transform.c **** 
 183:..\..\..\arduinoLCD\test\Pain Drain\libraries\lvgl\src\draw\sw/lv_draw_sw_transform.c **** #if LV_COLOR_DEPTH == 1 || LV_COLOR_DEPTH == 8
 184:..\..\..\arduinoLCD\test\Pain Drain\libraries\lvgl\src\draw\sw/lv_draw_sw_transform.c ****             const uint8_t * src_tmp = src;
 185:..\..\..\arduinoLCD\test\Pain Drain\libraries\lvgl\src\draw\sw/lv_draw_sw_transform.c ****             src_tmp += ys_int * src_stride + xs_int;
 186:..\..\..\arduinoLCD\test\Pain Drain\libraries\lvgl\src\draw\sw/lv_draw_sw_transform.c ****             cbuf[x].full = src_tmp[0];
 187:..\..\..\arduinoLCD\test\Pain Drain\libraries\lvgl\src\draw\sw/lv_draw_sw_transform.c **** #elif LV_COLOR_DEPTH == 16
 188:..\..\..\arduinoLCD\test\Pain Drain\libraries\lvgl\src\draw\sw/lv_draw_sw_transform.c ****             const lv_color_t * src_tmp = (const lv_color_t *)src;
 189:..\..\..\arduinoLCD\test\Pain Drain\libraries\lvgl\src\draw\sw/lv_draw_sw_transform.c ****             src_tmp += ys_int * src_stride + xs_int;
 190:..\..\..\arduinoLCD\test\Pain Drain\libraries\lvgl\src\draw\sw/lv_draw_sw_transform.c ****             cbuf[x] = *src_tmp;
 191:..\..\..\arduinoLCD\test\Pain Drain\libraries\lvgl\src\draw\sw/lv_draw_sw_transform.c **** #elif LV_COLOR_DEPTH == 32
 192:..\..\..\arduinoLCD\test\Pain Drain\libraries\lvgl\src\draw\sw/lv_draw_sw_transform.c ****             const uint8_t * src_tmp = src;
 193:..\..\..\arduinoLCD\test\Pain Drain\libraries\lvgl\src\draw\sw/lv_draw_sw_transform.c ****             src_tmp += (ys_int * src_stride * sizeof(lv_color_t)) + xs_int * sizeof(lv_color_t);
 194:..\..\..\arduinoLCD\test\Pain Drain\libraries\lvgl\src\draw\sw/lv_draw_sw_transform.c ****             cbuf[x].full = *((uint32_t *)src_tmp);
 195:..\..\..\arduinoLCD\test\Pain Drain\libraries\lvgl\src\draw\sw/lv_draw_sw_transform.c **** #endif
 196:..\..\..\arduinoLCD\test\Pain Drain\libraries\lvgl\src\draw\sw/lv_draw_sw_transform.c ****         }
 197:..\..\..\arduinoLCD\test\Pain Drain\libraries\lvgl\src\draw\sw/lv_draw_sw_transform.c ****         if(cf == LV_IMG_CF_TRUE_COLOR_CHROMA_KEYED && cbuf[x].full == ck.full) {
 198:..\..\..\arduinoLCD\test\Pain Drain\libraries\lvgl\src\draw\sw/lv_draw_sw_transform.c ****             abuf[x] = 0x00;
 199:..\..\..\arduinoLCD\test\Pain Drain\libraries\lvgl\src\draw\sw/lv_draw_sw_transform.c ****         }
 200:..\..\..\arduinoLCD\test\Pain Drain\libraries\lvgl\src\draw\sw/lv_draw_sw_transform.c ****     }
 201:..\..\..\arduinoLCD\test\Pain Drain\libraries\lvgl\src\draw\sw/lv_draw_sw_transform.c **** }
ARM GAS  C:\Users\haske\AppData\Local\Temp\cc9HFfJU.s 			page 5


 202:..\..\..\arduinoLCD\test\Pain Drain\libraries\lvgl\src\draw\sw/lv_draw_sw_transform.c **** 
 203:..\..\..\arduinoLCD\test\Pain Drain\libraries\lvgl\src\draw\sw/lv_draw_sw_transform.c **** static void argb_no_aa(const uint8_t * src, lv_coord_t src_w, lv_coord_t src_h, lv_coord_t src_stri
 204:..\..\..\arduinoLCD\test\Pain Drain\libraries\lvgl\src\draw\sw/lv_draw_sw_transform.c ****                        int32_t xs_ups, int32_t ys_ups, int32_t xs_step, int32_t ys_step,
 205:..\..\..\arduinoLCD\test\Pain Drain\libraries\lvgl\src\draw\sw/lv_draw_sw_transform.c ****                        int32_t x_end, lv_color_t * cbuf, uint8_t * abuf)
 206:..\..\..\arduinoLCD\test\Pain Drain\libraries\lvgl\src\draw\sw/lv_draw_sw_transform.c **** {
  28              		.loc 1 206 0
  29              		.cfi_startproc
  30              		@ args = 28, pretend = 0, frame = 8
  31              		@ frame_needed = 0, uses_anonymous_args = 0
  32              	.LVL0:
  33 0000 2DE9F04F 		push	{r4, r5, r6, r7, r8, r9, r10, fp, lr}
  34              		.cfi_def_cfa_offset 36
  35              		.cfi_offset 4, -36
  36              		.cfi_offset 5, -32
  37              		.cfi_offset 6, -28
  38              		.cfi_offset 7, -24
  39              		.cfi_offset 8, -20
  40              		.cfi_offset 9, -16
  41              		.cfi_offset 10, -12
  42              		.cfi_offset 11, -8
  43              		.cfi_offset 14, -4
  44 0004 83B0     		sub	sp, sp, #12
  45              		.cfi_def_cfa_offset 48
  46 0006 DDF830C0 		ldr	ip, [sp, #48]
  47 000a DDF834E0 		ldr	lr, [sp, #52]
  48 000e 0E9F     		ldr	r7, [sp, #56]
  49 0010 0F9E     		ldr	r6, [sp, #60]
  50 0012 109D     		ldr	r5, [sp, #64]
  51 0014 DDF84880 		ldr	r8, [sp, #72]
  52              	.LVL1:
 207:..\..\..\arduinoLCD\test\Pain Drain\libraries\lvgl\src\draw\sw/lv_draw_sw_transform.c ****     int32_t xs_ups_start = xs_ups;
 208:..\..\..\arduinoLCD\test\Pain Drain\libraries\lvgl\src\draw\sw/lv_draw_sw_transform.c ****     int32_t ys_ups_start = ys_ups;
 209:..\..\..\arduinoLCD\test\Pain Drain\libraries\lvgl\src\draw\sw/lv_draw_sw_transform.c **** 
 210:..\..\..\arduinoLCD\test\Pain Drain\libraries\lvgl\src\draw\sw/lv_draw_sw_transform.c ****     lv_coord_t x;
 211:..\..\..\arduinoLCD\test\Pain Drain\libraries\lvgl\src\draw\sw/lv_draw_sw_transform.c ****     for(x = 0; x < x_end; x++) {
  53              		.loc 1 211 0
  54 0018 0024     		movs	r4, #0
  55 001a 0193     		str	r3, [sp, #4]
  56 001c 2EE0     		b	.L2
  57              	.LVL2:
  58              	.L6:
  59              	.LBB19:
 212:..\..\..\arduinoLCD\test\Pain Drain\libraries\lvgl\src\draw\sw/lv_draw_sw_transform.c ****         xs_ups = xs_ups_start + ((xs_step * x) >> 8);
  60              		.loc 1 212 0
  61 001e 07FB04F9 		mul	r9, r7, r4
  62 0022 0CEB2929 		add	r9, ip, r9, asr #8
  63              	.LVL3:
 213:..\..\..\arduinoLCD\test\Pain Drain\libraries\lvgl\src\draw\sw/lv_draw_sw_transform.c ****         ys_ups = ys_ups_start + ((ys_step * x) >> 8);
  64              		.loc 1 213 0
  65 0026 06FB04FA 		mul	r10, r6, r4
  66 002a 0EEB2A2A 		add	r10, lr, r10, asr #8
  67              	.LVL4:
 214:..\..\..\arduinoLCD\test\Pain Drain\libraries\lvgl\src\draw\sw/lv_draw_sw_transform.c **** 
 215:..\..\..\arduinoLCD\test\Pain Drain\libraries\lvgl\src\draw\sw/lv_draw_sw_transform.c ****         int32_t xs_int = xs_ups >> 8;
 216:..\..\..\arduinoLCD\test\Pain Drain\libraries\lvgl\src\draw\sw/lv_draw_sw_transform.c ****         int32_t ys_int = ys_ups >> 8;
  68              		.loc 1 216 0
  69 002e 4FEA2A2A 		asr	r10, r10, #8
ARM GAS  C:\Users\haske\AppData\Local\Temp\cc9HFfJU.s 			page 6


  70              	.LVL5:
 217:..\..\..\arduinoLCD\test\Pain Drain\libraries\lvgl\src\draw\sw/lv_draw_sw_transform.c ****         if(xs_int < 0 || xs_int >= src_w || ys_int < 0 || ys_int >= src_h) {
  71              		.loc 1 217 0
  72 0032 5FEA2929 		asrs	r9, r9, #8
  73              	.LVL6:
  74 0036 06D4     		bmi	.L3
  75              		.loc 1 217 0 is_stmt 0 discriminator 1
  76 0038 8945     		cmp	r9, r1
  77 003a 04DA     		bge	.L3
  78              		.loc 1 217 0 discriminator 2
  79 003c BAF1000F 		cmp	r10, #0
  80 0040 01DB     		blt	.L3
  81              		.loc 1 217 0 discriminator 3
  82 0042 9245     		cmp	r10, r2
  83 0044 04DB     		blt	.L4
  84              	.L3:
 218:..\..\..\arduinoLCD\test\Pain Drain\libraries\lvgl\src\draw\sw/lv_draw_sw_transform.c ****             abuf[x] = 0;
  85              		.loc 1 218 0 is_stmt 1
  86 0046 4FF00009 		mov	r9, #0
  87              	.LVL7:
  88 004a 08F80490 		strb	r9, [r8, r4]
  89 004e 13E0     		b	.L5
  90              	.LVL8:
  91              	.L4:
  92              	.LBB20:
 219:..\..\..\arduinoLCD\test\Pain Drain\libraries\lvgl\src\draw\sw/lv_draw_sw_transform.c ****         }
 220:..\..\..\arduinoLCD\test\Pain Drain\libraries\lvgl\src\draw\sw/lv_draw_sw_transform.c ****         else {
 221:..\..\..\arduinoLCD\test\Pain Drain\libraries\lvgl\src\draw\sw/lv_draw_sw_transform.c ****             const uint8_t * src_tmp = src;
 222:..\..\..\arduinoLCD\test\Pain Drain\libraries\lvgl\src\draw\sw/lv_draw_sw_transform.c ****             src_tmp += (ys_int * src_stride * LV_IMG_PX_SIZE_ALPHA_BYTE) + xs_int * LV_IMG_PX_SIZE_
  93              		.loc 1 222 0
  94 0050 019B     		ldr	r3, [sp, #4]
  95 0052 0AFB0399 		mla	r9, r10, r3, r9
  96              	.LVL9:
  97 0056 09EB4909 		add	r9, r9, r9, lsl #1
  98 005a 00EB090A 		add	r10, r0, r9
  99              	.LVL10:
 223:..\..\..\arduinoLCD\test\Pain Drain\libraries\lvgl\src\draw\sw/lv_draw_sw_transform.c **** 
 224:..\..\..\arduinoLCD\test\Pain Drain\libraries\lvgl\src\draw\sw/lv_draw_sw_transform.c **** #if LV_COLOR_DEPTH == 1 || LV_COLOR_DEPTH == 8
 225:..\..\..\arduinoLCD\test\Pain Drain\libraries\lvgl\src\draw\sw/lv_draw_sw_transform.c ****             cbuf[x].full = src_tmp[0];
 226:..\..\..\arduinoLCD\test\Pain Drain\libraries\lvgl\src\draw\sw/lv_draw_sw_transform.c **** #elif LV_COLOR_DEPTH == 16
 227:..\..\..\arduinoLCD\test\Pain Drain\libraries\lvgl\src\draw\sw/lv_draw_sw_transform.c ****             cbuf[x].full = src_tmp[0] + (src_tmp[1] << 8);
 100              		.loc 1 227 0
 101 005e 10F80990 		ldrb	r9, [r0, r9]	@ zero_extendqisi2
 102 0062 9AF801B0 		ldrb	fp, [r10, #1]	@ zero_extendqisi2
 103 0066 09EB0B29 		add	r9, r9, fp, lsl #8
 104 006a 119B     		ldr	r3, [sp, #68]
 105 006c 23F81490 		strh	r9, [r3, r4, lsl #1]	@ movhi
 228:..\..\..\arduinoLCD\test\Pain Drain\libraries\lvgl\src\draw\sw/lv_draw_sw_transform.c **** #elif LV_COLOR_DEPTH == 32
 229:..\..\..\arduinoLCD\test\Pain Drain\libraries\lvgl\src\draw\sw/lv_draw_sw_transform.c ****             cbuf[x].full = *((uint32_t *)src_tmp);
 230:..\..\..\arduinoLCD\test\Pain Drain\libraries\lvgl\src\draw\sw/lv_draw_sw_transform.c **** #endif
 231:..\..\..\arduinoLCD\test\Pain Drain\libraries\lvgl\src\draw\sw/lv_draw_sw_transform.c ****             abuf[x] = src_tmp[LV_IMG_PX_SIZE_ALPHA_BYTE - 1];
 106              		.loc 1 231 0
 107 0070 9AF80290 		ldrb	r9, [r10, #2]	@ zero_extendqisi2
 108 0074 08F80490 		strb	r9, [r8, r4]
 109              	.LVL11:
 110              	.L5:
 111              	.LBE20:
ARM GAS  C:\Users\haske\AppData\Local\Temp\cc9HFfJU.s 			page 7


 112              	.LBE19:
 211:..\..\..\arduinoLCD\test\Pain Drain\libraries\lvgl\src\draw\sw/lv_draw_sw_transform.c ****         xs_ups = xs_ups_start + ((xs_step * x) >> 8);
 113              		.loc 1 211 0 discriminator 2
 114 0078 0134     		adds	r4, r4, #1
 115              	.LVL12:
 116 007a 24B2     		sxth	r4, r4
 117              	.LVL13:
 118              	.L2:
 211:..\..\..\arduinoLCD\test\Pain Drain\libraries\lvgl\src\draw\sw/lv_draw_sw_transform.c ****         xs_ups = xs_ups_start + ((xs_step * x) >> 8);
 119              		.loc 1 211 0 is_stmt 0 discriminator 1
 120 007c AC42     		cmp	r4, r5
 121 007e CEDB     		blt	.L6
 232:..\..\..\arduinoLCD\test\Pain Drain\libraries\lvgl\src\draw\sw/lv_draw_sw_transform.c ****         }
 233:..\..\..\arduinoLCD\test\Pain Drain\libraries\lvgl\src\draw\sw/lv_draw_sw_transform.c ****     }
 234:..\..\..\arduinoLCD\test\Pain Drain\libraries\lvgl\src\draw\sw/lv_draw_sw_transform.c **** }
 122              		.loc 1 234 0 is_stmt 1
 123 0080 03B0     		add	sp, sp, #12
 124              		.cfi_def_cfa_offset 36
 125              		@ sp needed
 126 0082 BDE8F08F 		pop	{r4, r5, r6, r7, r8, r9, r10, fp, pc}
 127              		.cfi_endproc
 128              	.LFE161:
 129              		.size	argb_no_aa, .-argb_no_aa
 130 0086 00BF     		.section	.text.rgb565a8_no_aa,"ax",%progbits
 131              		.align	2
 132              		.thumb
 133              		.thumb_func
 134              		.type	rgb565a8_no_aa, %function
 135              	rgb565a8_no_aa:
 136              	.LFB162:
 235:..\..\..\arduinoLCD\test\Pain Drain\libraries\lvgl\src\draw\sw/lv_draw_sw_transform.c **** 
 236:..\..\..\arduinoLCD\test\Pain Drain\libraries\lvgl\src\draw\sw/lv_draw_sw_transform.c **** #if LV_COLOR_DEPTH == 16
 237:..\..\..\arduinoLCD\test\Pain Drain\libraries\lvgl\src\draw\sw/lv_draw_sw_transform.c **** static void rgb565a8_no_aa(const uint8_t * src, lv_coord_t src_w, lv_coord_t src_h, lv_coord_t src_
 238:..\..\..\arduinoLCD\test\Pain Drain\libraries\lvgl\src\draw\sw/lv_draw_sw_transform.c ****                            int32_t xs_ups, int32_t ys_ups, int32_t xs_step, int32_t ys_step,
 239:..\..\..\arduinoLCD\test\Pain Drain\libraries\lvgl\src\draw\sw/lv_draw_sw_transform.c ****                            int32_t x_end, lv_color_t * cbuf, uint8_t * abuf)
 240:..\..\..\arduinoLCD\test\Pain Drain\libraries\lvgl\src\draw\sw/lv_draw_sw_transform.c **** {
 137              		.loc 1 240 0
 138              		.cfi_startproc
 139              		@ args = 28, pretend = 0, frame = 0
 140              		@ frame_needed = 0, uses_anonymous_args = 0
 141              	.LVL14:
 142 0000 2DE9F04F 		push	{r4, r5, r6, r7, r8, r9, r10, fp, lr}
 143              		.cfi_def_cfa_offset 36
 144              		.cfi_offset 4, -36
 145              		.cfi_offset 5, -32
 146              		.cfi_offset 6, -28
 147              		.cfi_offset 7, -24
 148              		.cfi_offset 8, -20
 149              		.cfi_offset 9, -16
 150              		.cfi_offset 10, -12
 151              		.cfi_offset 11, -8
 152              		.cfi_offset 14, -4
 153 0004 DDF82490 		ldr	r9, [sp, #36]
 154 0008 DDF82880 		ldr	r8, [sp, #40]
 155 000c DDF82CC0 		ldr	ip, [sp, #44]
 156 0010 DDF830E0 		ldr	lr, [sp, #48]
 157 0014 0D9F     		ldr	r7, [sp, #52]
ARM GAS  C:\Users\haske\AppData\Local\Temp\cc9HFfJU.s 			page 8


 158 0016 DDF838B0 		ldr	fp, [sp, #56]
 159 001a DDF83CA0 		ldr	r10, [sp, #60]
 160              	.LVL15:
 241:..\..\..\arduinoLCD\test\Pain Drain\libraries\lvgl\src\draw\sw/lv_draw_sw_transform.c ****     int32_t xs_ups_start = xs_ups;
 242:..\..\..\arduinoLCD\test\Pain Drain\libraries\lvgl\src\draw\sw/lv_draw_sw_transform.c ****     int32_t ys_ups_start = ys_ups;
 243:..\..\..\arduinoLCD\test\Pain Drain\libraries\lvgl\src\draw\sw/lv_draw_sw_transform.c **** 
 244:..\..\..\arduinoLCD\test\Pain Drain\libraries\lvgl\src\draw\sw/lv_draw_sw_transform.c ****     lv_coord_t x;
 245:..\..\..\arduinoLCD\test\Pain Drain\libraries\lvgl\src\draw\sw/lv_draw_sw_transform.c ****     for(x = 0; x < x_end; x++) {
 161              		.loc 1 245 0
 162 001e 0024     		movs	r4, #0
 163 0020 23E0     		b	.L9
 164              	.LVL16:
 165              	.L13:
 166              	.LBB21:
 246:..\..\..\arduinoLCD\test\Pain Drain\libraries\lvgl\src\draw\sw/lv_draw_sw_transform.c ****         xs_ups = xs_ups_start + ((xs_step * x) >> 8);
 167              		.loc 1 246 0
 168 0022 0CFB04F5 		mul	r5, ip, r4
 169 0026 09EB2525 		add	r5, r9, r5, asr #8
 170              	.LVL17:
 247:..\..\..\arduinoLCD\test\Pain Drain\libraries\lvgl\src\draw\sw/lv_draw_sw_transform.c ****         ys_ups = ys_ups_start + ((ys_step * x) >> 8);
 171              		.loc 1 247 0
 172 002a 0EFB04F6 		mul	r6, lr, r4
 173 002e 08EB2626 		add	r6, r8, r6, asr #8
 174              	.LVL18:
 248:..\..\..\arduinoLCD\test\Pain Drain\libraries\lvgl\src\draw\sw/lv_draw_sw_transform.c **** 
 249:..\..\..\arduinoLCD\test\Pain Drain\libraries\lvgl\src\draw\sw/lv_draw_sw_transform.c ****         int32_t xs_int = xs_ups >> 8;
 250:..\..\..\arduinoLCD\test\Pain Drain\libraries\lvgl\src\draw\sw/lv_draw_sw_transform.c ****         int32_t ys_int = ys_ups >> 8;
 175              		.loc 1 250 0
 176 0032 3612     		asrs	r6, r6, #8
 177              	.LVL19:
 251:..\..\..\arduinoLCD\test\Pain Drain\libraries\lvgl\src\draw\sw/lv_draw_sw_transform.c ****         if(xs_int < 0 || xs_int >= src_w || ys_int < 0 || ys_int >= src_h) {
 178              		.loc 1 251 0
 179 0034 2D12     		asrs	r5, r5, #8
 180              	.LVL20:
 181 0036 05D4     		bmi	.L10
 182              		.loc 1 251 0 is_stmt 0 discriminator 1
 183 0038 8D42     		cmp	r5, r1
 184 003a 03DA     		bge	.L10
 185              		.loc 1 251 0 discriminator 2
 186 003c 002E     		cmp	r6, #0
 187 003e 01DB     		blt	.L10
 188              		.loc 1 251 0 discriminator 3
 189 0040 9642     		cmp	r6, r2
 190 0042 03DB     		blt	.L11
 191              	.L10:
 252:..\..\..\arduinoLCD\test\Pain Drain\libraries\lvgl\src\draw\sw/lv_draw_sw_transform.c ****             abuf[x] = 0;
 192              		.loc 1 252 0 is_stmt 1
 193 0044 0025     		movs	r5, #0
 194              	.LVL21:
 195 0046 0AF80450 		strb	r5, [r10, r4]
 196 004a 0CE0     		b	.L12
 197              	.LVL22:
 198              	.L11:
 199              	.LBB22:
 253:..\..\..\arduinoLCD\test\Pain Drain\libraries\lvgl\src\draw\sw/lv_draw_sw_transform.c ****         }
 254:..\..\..\arduinoLCD\test\Pain Drain\libraries\lvgl\src\draw\sw/lv_draw_sw_transform.c ****         else {
 255:..\..\..\arduinoLCD\test\Pain Drain\libraries\lvgl\src\draw\sw/lv_draw_sw_transform.c ****             const lv_color_t * src_tmp = (const lv_color_t *)src;
ARM GAS  C:\Users\haske\AppData\Local\Temp\cc9HFfJU.s 			page 9


 256:..\..\..\arduinoLCD\test\Pain Drain\libraries\lvgl\src\draw\sw/lv_draw_sw_transform.c ****             src_tmp += ys_int * src_stride + xs_int;
 200              		.loc 1 256 0
 201 004c 03FB0655 		mla	r5, r3, r6, r5
 202              	.LVL23:
 257:..\..\..\arduinoLCD\test\Pain Drain\libraries\lvgl\src\draw\sw/lv_draw_sw_transform.c ****             cbuf[x] = *src_tmp;
 203              		.loc 1 257 0
 204 0050 30F81560 		ldrh	r6, [r0, r5, lsl #1]
 205              	.LVL24:
 206 0054 2BF81460 		strh	r6, [fp, r4, lsl #1]	@ movhi
 258:..\..\..\arduinoLCD\test\Pain Drain\libraries\lvgl\src\draw\sw/lv_draw_sw_transform.c **** 
 259:..\..\..\arduinoLCD\test\Pain Drain\libraries\lvgl\src\draw\sw/lv_draw_sw_transform.c ****             const lv_opa_t * a_tmp = src + src_stride * src_h * sizeof(lv_color_t);
 207              		.loc 1 259 0
 208 0058 03FB02F6 		mul	r6, r3, r2
 209              	.LVL25:
 260:..\..\..\arduinoLCD\test\Pain Drain\libraries\lvgl\src\draw\sw/lv_draw_sw_transform.c ****             a_tmp += ys_int * src_stride + xs_int;
 210              		.loc 1 260 0
 211 005c 05EB4605 		add	r5, r5, r6, lsl #1
 212              	.LVL26:
 261:..\..\..\arduinoLCD\test\Pain Drain\libraries\lvgl\src\draw\sw/lv_draw_sw_transform.c ****             abuf[x] = *a_tmp;
 213              		.loc 1 261 0
 214 0060 455D     		ldrb	r5, [r0, r5]	@ zero_extendqisi2
 215              	.LVL27:
 216 0062 0AF80450 		strb	r5, [r10, r4]
 217              	.LVL28:
 218              	.L12:
 219              	.LBE22:
 220              	.LBE21:
 245:..\..\..\arduinoLCD\test\Pain Drain\libraries\lvgl\src\draw\sw/lv_draw_sw_transform.c ****         xs_ups = xs_ups_start + ((xs_step * x) >> 8);
 221              		.loc 1 245 0 discriminator 2
 222 0066 0134     		adds	r4, r4, #1
 223              	.LVL29:
 224 0068 24B2     		sxth	r4, r4
 225              	.LVL30:
 226              	.L9:
 245:..\..\..\arduinoLCD\test\Pain Drain\libraries\lvgl\src\draw\sw/lv_draw_sw_transform.c ****         xs_ups = xs_ups_start + ((xs_step * x) >> 8);
 227              		.loc 1 245 0 is_stmt 0 discriminator 1
 228 006a BC42     		cmp	r4, r7
 229 006c D9DB     		blt	.L13
 262:..\..\..\arduinoLCD\test\Pain Drain\libraries\lvgl\src\draw\sw/lv_draw_sw_transform.c ****         }
 263:..\..\..\arduinoLCD\test\Pain Drain\libraries\lvgl\src\draw\sw/lv_draw_sw_transform.c ****     }
 264:..\..\..\arduinoLCD\test\Pain Drain\libraries\lvgl\src\draw\sw/lv_draw_sw_transform.c **** }
 230              		.loc 1 264 0 is_stmt 1
 231 006e BDE8F08F 		pop	{r4, r5, r6, r7, r8, r9, r10, fp, pc}
 232              		.cfi_endproc
 233              	.LFE162:
 234              		.size	rgb565a8_no_aa, .-rgb565a8_no_aa
 235 0072 00BF     		.section	.text.transform_point_upscaled,"ax",%progbits
 236              		.align	2
 237              		.thumb
 238              		.thumb_func
 239              		.type	transform_point_upscaled, %function
 240              	transform_point_upscaled:
 241              	.LFB164:
 265:..\..\..\arduinoLCD\test\Pain Drain\libraries\lvgl\src\draw\sw/lv_draw_sw_transform.c **** #endif
 266:..\..\..\arduinoLCD\test\Pain Drain\libraries\lvgl\src\draw\sw/lv_draw_sw_transform.c **** 
 267:..\..\..\arduinoLCD\test\Pain Drain\libraries\lvgl\src\draw\sw/lv_draw_sw_transform.c **** 
 268:..\..\..\arduinoLCD\test\Pain Drain\libraries\lvgl\src\draw\sw/lv_draw_sw_transform.c **** static void argb_and_rgb_aa(const uint8_t * src, lv_coord_t src_w, lv_coord_t src_h, lv_coord_t src
ARM GAS  C:\Users\haske\AppData\Local\Temp\cc9HFfJU.s 			page 10


 269:..\..\..\arduinoLCD\test\Pain Drain\libraries\lvgl\src\draw\sw/lv_draw_sw_transform.c ****                             int32_t xs_ups, int32_t ys_ups, int32_t xs_step, int32_t ys_step,
 270:..\..\..\arduinoLCD\test\Pain Drain\libraries\lvgl\src\draw\sw/lv_draw_sw_transform.c ****                             int32_t x_end, lv_color_t * cbuf, uint8_t * abuf, lv_img_cf_t cf)
 271:..\..\..\arduinoLCD\test\Pain Drain\libraries\lvgl\src\draw\sw/lv_draw_sw_transform.c **** {
 272:..\..\..\arduinoLCD\test\Pain Drain\libraries\lvgl\src\draw\sw/lv_draw_sw_transform.c ****     int32_t xs_ups_start = xs_ups;
 273:..\..\..\arduinoLCD\test\Pain Drain\libraries\lvgl\src\draw\sw/lv_draw_sw_transform.c ****     int32_t ys_ups_start = ys_ups;
 274:..\..\..\arduinoLCD\test\Pain Drain\libraries\lvgl\src\draw\sw/lv_draw_sw_transform.c ****     bool has_alpha;
 275:..\..\..\arduinoLCD\test\Pain Drain\libraries\lvgl\src\draw\sw/lv_draw_sw_transform.c ****     int32_t px_size;
 276:..\..\..\arduinoLCD\test\Pain Drain\libraries\lvgl\src\draw\sw/lv_draw_sw_transform.c ****     lv_color_t ck = {0};
 277:..\..\..\arduinoLCD\test\Pain Drain\libraries\lvgl\src\draw\sw/lv_draw_sw_transform.c ****     switch(cf) {
 278:..\..\..\arduinoLCD\test\Pain Drain\libraries\lvgl\src\draw\sw/lv_draw_sw_transform.c ****         case LV_IMG_CF_TRUE_COLOR:
 279:..\..\..\arduinoLCD\test\Pain Drain\libraries\lvgl\src\draw\sw/lv_draw_sw_transform.c ****             has_alpha = false;
 280:..\..\..\arduinoLCD\test\Pain Drain\libraries\lvgl\src\draw\sw/lv_draw_sw_transform.c ****             px_size = sizeof(lv_color_t);
 281:..\..\..\arduinoLCD\test\Pain Drain\libraries\lvgl\src\draw\sw/lv_draw_sw_transform.c ****             break;
 282:..\..\..\arduinoLCD\test\Pain Drain\libraries\lvgl\src\draw\sw/lv_draw_sw_transform.c ****         case LV_IMG_CF_TRUE_COLOR_ALPHA:
 283:..\..\..\arduinoLCD\test\Pain Drain\libraries\lvgl\src\draw\sw/lv_draw_sw_transform.c ****             has_alpha = true;
 284:..\..\..\arduinoLCD\test\Pain Drain\libraries\lvgl\src\draw\sw/lv_draw_sw_transform.c ****             px_size = LV_IMG_PX_SIZE_ALPHA_BYTE;
 285:..\..\..\arduinoLCD\test\Pain Drain\libraries\lvgl\src\draw\sw/lv_draw_sw_transform.c ****             break;
 286:..\..\..\arduinoLCD\test\Pain Drain\libraries\lvgl\src\draw\sw/lv_draw_sw_transform.c ****         case LV_IMG_CF_TRUE_COLOR_CHROMA_KEYED: {
 287:..\..\..\arduinoLCD\test\Pain Drain\libraries\lvgl\src\draw\sw/lv_draw_sw_transform.c ****                 has_alpha = true;
 288:..\..\..\arduinoLCD\test\Pain Drain\libraries\lvgl\src\draw\sw/lv_draw_sw_transform.c ****                 px_size = sizeof(lv_color_t);
 289:..\..\..\arduinoLCD\test\Pain Drain\libraries\lvgl\src\draw\sw/lv_draw_sw_transform.c ****                 lv_disp_t * d = _lv_refr_get_disp_refreshing();
 290:..\..\..\arduinoLCD\test\Pain Drain\libraries\lvgl\src\draw\sw/lv_draw_sw_transform.c ****                 ck = d->driver->color_chroma_key;
 291:..\..\..\arduinoLCD\test\Pain Drain\libraries\lvgl\src\draw\sw/lv_draw_sw_transform.c ****                 break;
 292:..\..\..\arduinoLCD\test\Pain Drain\libraries\lvgl\src\draw\sw/lv_draw_sw_transform.c ****             }
 293:..\..\..\arduinoLCD\test\Pain Drain\libraries\lvgl\src\draw\sw/lv_draw_sw_transform.c **** #if LV_COLOR_DEPTH == 16
 294:..\..\..\arduinoLCD\test\Pain Drain\libraries\lvgl\src\draw\sw/lv_draw_sw_transform.c ****         case LV_IMG_CF_RGB565A8:
 295:..\..\..\arduinoLCD\test\Pain Drain\libraries\lvgl\src\draw\sw/lv_draw_sw_transform.c ****             has_alpha = true;
 296:..\..\..\arduinoLCD\test\Pain Drain\libraries\lvgl\src\draw\sw/lv_draw_sw_transform.c ****             px_size = sizeof(lv_color_t);
 297:..\..\..\arduinoLCD\test\Pain Drain\libraries\lvgl\src\draw\sw/lv_draw_sw_transform.c ****             break;
 298:..\..\..\arduinoLCD\test\Pain Drain\libraries\lvgl\src\draw\sw/lv_draw_sw_transform.c **** #endif
 299:..\..\..\arduinoLCD\test\Pain Drain\libraries\lvgl\src\draw\sw/lv_draw_sw_transform.c ****         default:
 300:..\..\..\arduinoLCD\test\Pain Drain\libraries\lvgl\src\draw\sw/lv_draw_sw_transform.c ****             return;
 301:..\..\..\arduinoLCD\test\Pain Drain\libraries\lvgl\src\draw\sw/lv_draw_sw_transform.c ****     }
 302:..\..\..\arduinoLCD\test\Pain Drain\libraries\lvgl\src\draw\sw/lv_draw_sw_transform.c **** 
 303:..\..\..\arduinoLCD\test\Pain Drain\libraries\lvgl\src\draw\sw/lv_draw_sw_transform.c ****     lv_coord_t x;
 304:..\..\..\arduinoLCD\test\Pain Drain\libraries\lvgl\src\draw\sw/lv_draw_sw_transform.c ****     for(x = 0; x < x_end; x++) {
 305:..\..\..\arduinoLCD\test\Pain Drain\libraries\lvgl\src\draw\sw/lv_draw_sw_transform.c ****         xs_ups = xs_ups_start + ((xs_step * x) >> 8);
 306:..\..\..\arduinoLCD\test\Pain Drain\libraries\lvgl\src\draw\sw/lv_draw_sw_transform.c ****         ys_ups = ys_ups_start + ((ys_step * x) >> 8);
 307:..\..\..\arduinoLCD\test\Pain Drain\libraries\lvgl\src\draw\sw/lv_draw_sw_transform.c **** 
 308:..\..\..\arduinoLCD\test\Pain Drain\libraries\lvgl\src\draw\sw/lv_draw_sw_transform.c ****         int32_t xs_int = xs_ups >> 8;
 309:..\..\..\arduinoLCD\test\Pain Drain\libraries\lvgl\src\draw\sw/lv_draw_sw_transform.c ****         int32_t ys_int = ys_ups >> 8;
 310:..\..\..\arduinoLCD\test\Pain Drain\libraries\lvgl\src\draw\sw/lv_draw_sw_transform.c **** 
 311:..\..\..\arduinoLCD\test\Pain Drain\libraries\lvgl\src\draw\sw/lv_draw_sw_transform.c ****         /*Fully out of the image*/
 312:..\..\..\arduinoLCD\test\Pain Drain\libraries\lvgl\src\draw\sw/lv_draw_sw_transform.c ****         if(xs_int < 0 || xs_int >= src_w || ys_int < 0 || ys_int >= src_h) {
 313:..\..\..\arduinoLCD\test\Pain Drain\libraries\lvgl\src\draw\sw/lv_draw_sw_transform.c ****             abuf[x] = 0x00;
 314:..\..\..\arduinoLCD\test\Pain Drain\libraries\lvgl\src\draw\sw/lv_draw_sw_transform.c ****             continue;
 315:..\..\..\arduinoLCD\test\Pain Drain\libraries\lvgl\src\draw\sw/lv_draw_sw_transform.c ****         }
 316:..\..\..\arduinoLCD\test\Pain Drain\libraries\lvgl\src\draw\sw/lv_draw_sw_transform.c **** 
 317:..\..\..\arduinoLCD\test\Pain Drain\libraries\lvgl\src\draw\sw/lv_draw_sw_transform.c ****         /*Get the direction the hor and ver neighbor
 318:..\..\..\arduinoLCD\test\Pain Drain\libraries\lvgl\src\draw\sw/lv_draw_sw_transform.c ****          *`fract` will be in range of 0x00..0xFF and `next` (+/-1) indicates the direction*/
 319:..\..\..\arduinoLCD\test\Pain Drain\libraries\lvgl\src\draw\sw/lv_draw_sw_transform.c ****         int32_t xs_fract = xs_ups & 0xFF;
 320:..\..\..\arduinoLCD\test\Pain Drain\libraries\lvgl\src\draw\sw/lv_draw_sw_transform.c ****         int32_t ys_fract = ys_ups & 0xFF;
 321:..\..\..\arduinoLCD\test\Pain Drain\libraries\lvgl\src\draw\sw/lv_draw_sw_transform.c **** 
 322:..\..\..\arduinoLCD\test\Pain Drain\libraries\lvgl\src\draw\sw/lv_draw_sw_transform.c ****         int32_t x_next;
 323:..\..\..\arduinoLCD\test\Pain Drain\libraries\lvgl\src\draw\sw/lv_draw_sw_transform.c ****         int32_t y_next;
 324:..\..\..\arduinoLCD\test\Pain Drain\libraries\lvgl\src\draw\sw/lv_draw_sw_transform.c ****         if(xs_fract < 0x80) {
 325:..\..\..\arduinoLCD\test\Pain Drain\libraries\lvgl\src\draw\sw/lv_draw_sw_transform.c ****             x_next = -1;
ARM GAS  C:\Users\haske\AppData\Local\Temp\cc9HFfJU.s 			page 11


 326:..\..\..\arduinoLCD\test\Pain Drain\libraries\lvgl\src\draw\sw/lv_draw_sw_transform.c ****             xs_fract = (0x7F - xs_fract) * 2;
 327:..\..\..\arduinoLCD\test\Pain Drain\libraries\lvgl\src\draw\sw/lv_draw_sw_transform.c ****         }
 328:..\..\..\arduinoLCD\test\Pain Drain\libraries\lvgl\src\draw\sw/lv_draw_sw_transform.c ****         else {
 329:..\..\..\arduinoLCD\test\Pain Drain\libraries\lvgl\src\draw\sw/lv_draw_sw_transform.c ****             x_next = 1;
 330:..\..\..\arduinoLCD\test\Pain Drain\libraries\lvgl\src\draw\sw/lv_draw_sw_transform.c ****             xs_fract = (xs_fract - 0x80) * 2;
 331:..\..\..\arduinoLCD\test\Pain Drain\libraries\lvgl\src\draw\sw/lv_draw_sw_transform.c ****         }
 332:..\..\..\arduinoLCD\test\Pain Drain\libraries\lvgl\src\draw\sw/lv_draw_sw_transform.c ****         if(ys_fract < 0x80) {
 333:..\..\..\arduinoLCD\test\Pain Drain\libraries\lvgl\src\draw\sw/lv_draw_sw_transform.c ****             y_next = -1;
 334:..\..\..\arduinoLCD\test\Pain Drain\libraries\lvgl\src\draw\sw/lv_draw_sw_transform.c ****             ys_fract = (0x7F - ys_fract) * 2;
 335:..\..\..\arduinoLCD\test\Pain Drain\libraries\lvgl\src\draw\sw/lv_draw_sw_transform.c ****         }
 336:..\..\..\arduinoLCD\test\Pain Drain\libraries\lvgl\src\draw\sw/lv_draw_sw_transform.c ****         else {
 337:..\..\..\arduinoLCD\test\Pain Drain\libraries\lvgl\src\draw\sw/lv_draw_sw_transform.c ****             y_next = 1;
 338:..\..\..\arduinoLCD\test\Pain Drain\libraries\lvgl\src\draw\sw/lv_draw_sw_transform.c ****             ys_fract = (ys_fract - 0x80) * 2;
 339:..\..\..\arduinoLCD\test\Pain Drain\libraries\lvgl\src\draw\sw/lv_draw_sw_transform.c ****         }
 340:..\..\..\arduinoLCD\test\Pain Drain\libraries\lvgl\src\draw\sw/lv_draw_sw_transform.c **** 
 341:..\..\..\arduinoLCD\test\Pain Drain\libraries\lvgl\src\draw\sw/lv_draw_sw_transform.c ****         const uint8_t * src_tmp = src;
 342:..\..\..\arduinoLCD\test\Pain Drain\libraries\lvgl\src\draw\sw/lv_draw_sw_transform.c ****         src_tmp += (ys_int * src_stride * px_size) + xs_int * px_size;
 343:..\..\..\arduinoLCD\test\Pain Drain\libraries\lvgl\src\draw\sw/lv_draw_sw_transform.c **** 
 344:..\..\..\arduinoLCD\test\Pain Drain\libraries\lvgl\src\draw\sw/lv_draw_sw_transform.c **** 
 345:..\..\..\arduinoLCD\test\Pain Drain\libraries\lvgl\src\draw\sw/lv_draw_sw_transform.c ****         if(xs_int + x_next >= 0 &&
 346:..\..\..\arduinoLCD\test\Pain Drain\libraries\lvgl\src\draw\sw/lv_draw_sw_transform.c ****            xs_int + x_next <= src_w - 1 &&
 347:..\..\..\arduinoLCD\test\Pain Drain\libraries\lvgl\src\draw\sw/lv_draw_sw_transform.c ****            ys_int + y_next >= 0 &&
 348:..\..\..\arduinoLCD\test\Pain Drain\libraries\lvgl\src\draw\sw/lv_draw_sw_transform.c ****            ys_int + y_next <= src_h - 1) {
 349:..\..\..\arduinoLCD\test\Pain Drain\libraries\lvgl\src\draw\sw/lv_draw_sw_transform.c **** 
 350:..\..\..\arduinoLCD\test\Pain Drain\libraries\lvgl\src\draw\sw/lv_draw_sw_transform.c ****             const uint8_t * px_base = src_tmp;
 351:..\..\..\arduinoLCD\test\Pain Drain\libraries\lvgl\src\draw\sw/lv_draw_sw_transform.c ****             const uint8_t * px_hor = src_tmp + x_next * px_size;
 352:..\..\..\arduinoLCD\test\Pain Drain\libraries\lvgl\src\draw\sw/lv_draw_sw_transform.c ****             const uint8_t * px_ver = src_tmp + y_next * src_stride * px_size;
 353:..\..\..\arduinoLCD\test\Pain Drain\libraries\lvgl\src\draw\sw/lv_draw_sw_transform.c ****             lv_color_t c_base;
 354:..\..\..\arduinoLCD\test\Pain Drain\libraries\lvgl\src\draw\sw/lv_draw_sw_transform.c ****             lv_color_t c_ver;
 355:..\..\..\arduinoLCD\test\Pain Drain\libraries\lvgl\src\draw\sw/lv_draw_sw_transform.c ****             lv_color_t c_hor;
 356:..\..\..\arduinoLCD\test\Pain Drain\libraries\lvgl\src\draw\sw/lv_draw_sw_transform.c **** 
 357:..\..\..\arduinoLCD\test\Pain Drain\libraries\lvgl\src\draw\sw/lv_draw_sw_transform.c ****             if(has_alpha) {
 358:..\..\..\arduinoLCD\test\Pain Drain\libraries\lvgl\src\draw\sw/lv_draw_sw_transform.c ****                 lv_opa_t a_base;
 359:..\..\..\arduinoLCD\test\Pain Drain\libraries\lvgl\src\draw\sw/lv_draw_sw_transform.c ****                 lv_opa_t a_ver;
 360:..\..\..\arduinoLCD\test\Pain Drain\libraries\lvgl\src\draw\sw/lv_draw_sw_transform.c ****                 lv_opa_t a_hor;
 361:..\..\..\arduinoLCD\test\Pain Drain\libraries\lvgl\src\draw\sw/lv_draw_sw_transform.c ****                 if(cf == LV_IMG_CF_TRUE_COLOR_ALPHA) {
 362:..\..\..\arduinoLCD\test\Pain Drain\libraries\lvgl\src\draw\sw/lv_draw_sw_transform.c ****                     a_base = px_base[LV_IMG_PX_SIZE_ALPHA_BYTE - 1];
 363:..\..\..\arduinoLCD\test\Pain Drain\libraries\lvgl\src\draw\sw/lv_draw_sw_transform.c ****                     a_ver = px_ver[LV_IMG_PX_SIZE_ALPHA_BYTE - 1];
 364:..\..\..\arduinoLCD\test\Pain Drain\libraries\lvgl\src\draw\sw/lv_draw_sw_transform.c ****                     a_hor = px_hor[LV_IMG_PX_SIZE_ALPHA_BYTE - 1];
 365:..\..\..\arduinoLCD\test\Pain Drain\libraries\lvgl\src\draw\sw/lv_draw_sw_transform.c ****                 }
 366:..\..\..\arduinoLCD\test\Pain Drain\libraries\lvgl\src\draw\sw/lv_draw_sw_transform.c **** #if LV_COLOR_DEPTH == 16
 367:..\..\..\arduinoLCD\test\Pain Drain\libraries\lvgl\src\draw\sw/lv_draw_sw_transform.c ****                 else if(cf == LV_IMG_CF_RGB565A8) {
 368:..\..\..\arduinoLCD\test\Pain Drain\libraries\lvgl\src\draw\sw/lv_draw_sw_transform.c ****                     const lv_opa_t * a_tmp = src + src_stride * src_h * sizeof(lv_color_t);
 369:..\..\..\arduinoLCD\test\Pain Drain\libraries\lvgl\src\draw\sw/lv_draw_sw_transform.c ****                     a_base = *(a_tmp + (ys_int * src_stride) + xs_int);
 370:..\..\..\arduinoLCD\test\Pain Drain\libraries\lvgl\src\draw\sw/lv_draw_sw_transform.c ****                     a_hor = *(a_tmp + (ys_int * src_stride) + xs_int + x_next);
 371:..\..\..\arduinoLCD\test\Pain Drain\libraries\lvgl\src\draw\sw/lv_draw_sw_transform.c ****                     a_ver = *(a_tmp + ((ys_int + y_next) * src_stride) + xs_int);
 372:..\..\..\arduinoLCD\test\Pain Drain\libraries\lvgl\src\draw\sw/lv_draw_sw_transform.c ****                 }
 373:..\..\..\arduinoLCD\test\Pain Drain\libraries\lvgl\src\draw\sw/lv_draw_sw_transform.c **** #endif
 374:..\..\..\arduinoLCD\test\Pain Drain\libraries\lvgl\src\draw\sw/lv_draw_sw_transform.c ****                 else if(cf == LV_IMG_CF_TRUE_COLOR_CHROMA_KEYED) {
 375:..\..\..\arduinoLCD\test\Pain Drain\libraries\lvgl\src\draw\sw/lv_draw_sw_transform.c ****                     if(((lv_color_t *)px_base)->full == ck.full ||
 376:..\..\..\arduinoLCD\test\Pain Drain\libraries\lvgl\src\draw\sw/lv_draw_sw_transform.c ****                        ((lv_color_t *)px_ver)->full == ck.full ||
 377:..\..\..\arduinoLCD\test\Pain Drain\libraries\lvgl\src\draw\sw/lv_draw_sw_transform.c ****                        ((lv_color_t *)px_hor)->full == ck.full) {
 378:..\..\..\arduinoLCD\test\Pain Drain\libraries\lvgl\src\draw\sw/lv_draw_sw_transform.c ****                         abuf[x] = 0x00;
 379:..\..\..\arduinoLCD\test\Pain Drain\libraries\lvgl\src\draw\sw/lv_draw_sw_transform.c ****                         continue;
 380:..\..\..\arduinoLCD\test\Pain Drain\libraries\lvgl\src\draw\sw/lv_draw_sw_transform.c ****                     }
 381:..\..\..\arduinoLCD\test\Pain Drain\libraries\lvgl\src\draw\sw/lv_draw_sw_transform.c ****                     else {
 382:..\..\..\arduinoLCD\test\Pain Drain\libraries\lvgl\src\draw\sw/lv_draw_sw_transform.c ****                         a_base = 0xff;
ARM GAS  C:\Users\haske\AppData\Local\Temp\cc9HFfJU.s 			page 12


 383:..\..\..\arduinoLCD\test\Pain Drain\libraries\lvgl\src\draw\sw/lv_draw_sw_transform.c ****                         a_ver = 0xff;
 384:..\..\..\arduinoLCD\test\Pain Drain\libraries\lvgl\src\draw\sw/lv_draw_sw_transform.c ****                         a_hor = 0xff;
 385:..\..\..\arduinoLCD\test\Pain Drain\libraries\lvgl\src\draw\sw/lv_draw_sw_transform.c ****                     }
 386:..\..\..\arduinoLCD\test\Pain Drain\libraries\lvgl\src\draw\sw/lv_draw_sw_transform.c ****                 }
 387:..\..\..\arduinoLCD\test\Pain Drain\libraries\lvgl\src\draw\sw/lv_draw_sw_transform.c ****                 else {
 388:..\..\..\arduinoLCD\test\Pain Drain\libraries\lvgl\src\draw\sw/lv_draw_sw_transform.c ****                     a_base = 0xff;
 389:..\..\..\arduinoLCD\test\Pain Drain\libraries\lvgl\src\draw\sw/lv_draw_sw_transform.c ****                     a_ver = 0xff;
 390:..\..\..\arduinoLCD\test\Pain Drain\libraries\lvgl\src\draw\sw/lv_draw_sw_transform.c ****                     a_hor = 0xff;
 391:..\..\..\arduinoLCD\test\Pain Drain\libraries\lvgl\src\draw\sw/lv_draw_sw_transform.c ****                 }
 392:..\..\..\arduinoLCD\test\Pain Drain\libraries\lvgl\src\draw\sw/lv_draw_sw_transform.c **** 
 393:..\..\..\arduinoLCD\test\Pain Drain\libraries\lvgl\src\draw\sw/lv_draw_sw_transform.c ****                 if(a_ver != a_base) a_ver = ((a_ver * ys_fract) + (a_base * (0x100 - ys_fract))) >>
 394:..\..\..\arduinoLCD\test\Pain Drain\libraries\lvgl\src\draw\sw/lv_draw_sw_transform.c ****                 if(a_hor != a_base) a_hor = ((a_hor * xs_fract) + (a_base * (0x100 - xs_fract))) >>
 395:..\..\..\arduinoLCD\test\Pain Drain\libraries\lvgl\src\draw\sw/lv_draw_sw_transform.c ****                 abuf[x] = (a_ver + a_hor) >> 1;
 396:..\..\..\arduinoLCD\test\Pain Drain\libraries\lvgl\src\draw\sw/lv_draw_sw_transform.c **** 
 397:..\..\..\arduinoLCD\test\Pain Drain\libraries\lvgl\src\draw\sw/lv_draw_sw_transform.c ****                 if(abuf[x] == 0x00) continue;
 398:..\..\..\arduinoLCD\test\Pain Drain\libraries\lvgl\src\draw\sw/lv_draw_sw_transform.c **** 
 399:..\..\..\arduinoLCD\test\Pain Drain\libraries\lvgl\src\draw\sw/lv_draw_sw_transform.c **** #if LV_COLOR_DEPTH == 1 || LV_COLOR_DEPTH == 8
 400:..\..\..\arduinoLCD\test\Pain Drain\libraries\lvgl\src\draw\sw/lv_draw_sw_transform.c ****                 c_base.full = px_base[0];
 401:..\..\..\arduinoLCD\test\Pain Drain\libraries\lvgl\src\draw\sw/lv_draw_sw_transform.c ****                 c_ver.full = px_ver[0];
 402:..\..\..\arduinoLCD\test\Pain Drain\libraries\lvgl\src\draw\sw/lv_draw_sw_transform.c ****                 c_hor.full = px_hor[0];
 403:..\..\..\arduinoLCD\test\Pain Drain\libraries\lvgl\src\draw\sw/lv_draw_sw_transform.c **** #elif LV_COLOR_DEPTH == 16
 404:..\..\..\arduinoLCD\test\Pain Drain\libraries\lvgl\src\draw\sw/lv_draw_sw_transform.c ****                 c_base.full = px_base[0] + (px_base[1] << 8);
 405:..\..\..\arduinoLCD\test\Pain Drain\libraries\lvgl\src\draw\sw/lv_draw_sw_transform.c ****                 c_ver.full = px_ver[0] + (px_ver[1] << 8);
 406:..\..\..\arduinoLCD\test\Pain Drain\libraries\lvgl\src\draw\sw/lv_draw_sw_transform.c ****                 c_hor.full = px_hor[0] + (px_hor[1] << 8);
 407:..\..\..\arduinoLCD\test\Pain Drain\libraries\lvgl\src\draw\sw/lv_draw_sw_transform.c **** #elif LV_COLOR_DEPTH == 32
 408:..\..\..\arduinoLCD\test\Pain Drain\libraries\lvgl\src\draw\sw/lv_draw_sw_transform.c ****                 c_base.full = *((uint32_t *)px_base);
 409:..\..\..\arduinoLCD\test\Pain Drain\libraries\lvgl\src\draw\sw/lv_draw_sw_transform.c ****                 c_ver.full = *((uint32_t *)px_ver);
 410:..\..\..\arduinoLCD\test\Pain Drain\libraries\lvgl\src\draw\sw/lv_draw_sw_transform.c ****                 c_hor.full = *((uint32_t *)px_hor);
 411:..\..\..\arduinoLCD\test\Pain Drain\libraries\lvgl\src\draw\sw/lv_draw_sw_transform.c **** #endif
 412:..\..\..\arduinoLCD\test\Pain Drain\libraries\lvgl\src\draw\sw/lv_draw_sw_transform.c ****             }
 413:..\..\..\arduinoLCD\test\Pain Drain\libraries\lvgl\src\draw\sw/lv_draw_sw_transform.c ****             /*No alpha channel -> RGB*/
 414:..\..\..\arduinoLCD\test\Pain Drain\libraries\lvgl\src\draw\sw/lv_draw_sw_transform.c ****             else {
 415:..\..\..\arduinoLCD\test\Pain Drain\libraries\lvgl\src\draw\sw/lv_draw_sw_transform.c ****                 c_base = *((const lv_color_t *) px_base);
 416:..\..\..\arduinoLCD\test\Pain Drain\libraries\lvgl\src\draw\sw/lv_draw_sw_transform.c ****                 c_hor = *((const lv_color_t *) px_hor);
 417:..\..\..\arduinoLCD\test\Pain Drain\libraries\lvgl\src\draw\sw/lv_draw_sw_transform.c ****                 c_ver = *((const lv_color_t *) px_ver);
 418:..\..\..\arduinoLCD\test\Pain Drain\libraries\lvgl\src\draw\sw/lv_draw_sw_transform.c ****                 abuf[x] = 0xff;
 419:..\..\..\arduinoLCD\test\Pain Drain\libraries\lvgl\src\draw\sw/lv_draw_sw_transform.c ****             }
 420:..\..\..\arduinoLCD\test\Pain Drain\libraries\lvgl\src\draw\sw/lv_draw_sw_transform.c **** 
 421:..\..\..\arduinoLCD\test\Pain Drain\libraries\lvgl\src\draw\sw/lv_draw_sw_transform.c ****             if(c_base.full == c_ver.full && c_base.full == c_hor.full) {
 422:..\..\..\arduinoLCD\test\Pain Drain\libraries\lvgl\src\draw\sw/lv_draw_sw_transform.c ****                 cbuf[x] = c_base;
 423:..\..\..\arduinoLCD\test\Pain Drain\libraries\lvgl\src\draw\sw/lv_draw_sw_transform.c ****             }
 424:..\..\..\arduinoLCD\test\Pain Drain\libraries\lvgl\src\draw\sw/lv_draw_sw_transform.c ****             else {
 425:..\..\..\arduinoLCD\test\Pain Drain\libraries\lvgl\src\draw\sw/lv_draw_sw_transform.c ****                 c_ver = lv_color_mix(c_ver, c_base, ys_fract);
 426:..\..\..\arduinoLCD\test\Pain Drain\libraries\lvgl\src\draw\sw/lv_draw_sw_transform.c ****                 c_hor = lv_color_mix(c_hor, c_base, xs_fract);
 427:..\..\..\arduinoLCD\test\Pain Drain\libraries\lvgl\src\draw\sw/lv_draw_sw_transform.c ****                 cbuf[x] = lv_color_mix(c_hor, c_ver, LV_OPA_50);
 428:..\..\..\arduinoLCD\test\Pain Drain\libraries\lvgl\src\draw\sw/lv_draw_sw_transform.c ****             }
 429:..\..\..\arduinoLCD\test\Pain Drain\libraries\lvgl\src\draw\sw/lv_draw_sw_transform.c ****         }
 430:..\..\..\arduinoLCD\test\Pain Drain\libraries\lvgl\src\draw\sw/lv_draw_sw_transform.c ****         /*Partially out of the image*/
 431:..\..\..\arduinoLCD\test\Pain Drain\libraries\lvgl\src\draw\sw/lv_draw_sw_transform.c ****         else {
 432:..\..\..\arduinoLCD\test\Pain Drain\libraries\lvgl\src\draw\sw/lv_draw_sw_transform.c **** #if LV_COLOR_DEPTH == 1 || LV_COLOR_DEPTH == 8
 433:..\..\..\arduinoLCD\test\Pain Drain\libraries\lvgl\src\draw\sw/lv_draw_sw_transform.c ****             cbuf[x].full = src_tmp[0];
 434:..\..\..\arduinoLCD\test\Pain Drain\libraries\lvgl\src\draw\sw/lv_draw_sw_transform.c **** #elif LV_COLOR_DEPTH == 16
 435:..\..\..\arduinoLCD\test\Pain Drain\libraries\lvgl\src\draw\sw/lv_draw_sw_transform.c ****             cbuf[x].full = src_tmp[0] + (src_tmp[1] << 8);
 436:..\..\..\arduinoLCD\test\Pain Drain\libraries\lvgl\src\draw\sw/lv_draw_sw_transform.c **** #elif LV_COLOR_DEPTH == 32
 437:..\..\..\arduinoLCD\test\Pain Drain\libraries\lvgl\src\draw\sw/lv_draw_sw_transform.c ****             cbuf[x].full = *((uint32_t *)src_tmp);
 438:..\..\..\arduinoLCD\test\Pain Drain\libraries\lvgl\src\draw\sw/lv_draw_sw_transform.c **** #endif
 439:..\..\..\arduinoLCD\test\Pain Drain\libraries\lvgl\src\draw\sw/lv_draw_sw_transform.c ****             lv_opa_t a;
ARM GAS  C:\Users\haske\AppData\Local\Temp\cc9HFfJU.s 			page 13


 440:..\..\..\arduinoLCD\test\Pain Drain\libraries\lvgl\src\draw\sw/lv_draw_sw_transform.c ****             switch(cf) {
 441:..\..\..\arduinoLCD\test\Pain Drain\libraries\lvgl\src\draw\sw/lv_draw_sw_transform.c ****                 case LV_IMG_CF_TRUE_COLOR_ALPHA:
 442:..\..\..\arduinoLCD\test\Pain Drain\libraries\lvgl\src\draw\sw/lv_draw_sw_transform.c ****                     a = src_tmp[LV_IMG_PX_SIZE_ALPHA_BYTE - 1];
 443:..\..\..\arduinoLCD\test\Pain Drain\libraries\lvgl\src\draw\sw/lv_draw_sw_transform.c ****                     break;
 444:..\..\..\arduinoLCD\test\Pain Drain\libraries\lvgl\src\draw\sw/lv_draw_sw_transform.c ****                 case LV_IMG_CF_TRUE_COLOR_CHROMA_KEYED:
 445:..\..\..\arduinoLCD\test\Pain Drain\libraries\lvgl\src\draw\sw/lv_draw_sw_transform.c ****                     a = cbuf[x].full == ck.full ? 0x00 : 0xff;
 446:..\..\..\arduinoLCD\test\Pain Drain\libraries\lvgl\src\draw\sw/lv_draw_sw_transform.c ****                     break;
 447:..\..\..\arduinoLCD\test\Pain Drain\libraries\lvgl\src\draw\sw/lv_draw_sw_transform.c **** #if LV_COLOR_DEPTH == 16
 448:..\..\..\arduinoLCD\test\Pain Drain\libraries\lvgl\src\draw\sw/lv_draw_sw_transform.c ****                 case LV_IMG_CF_RGB565A8:
 449:..\..\..\arduinoLCD\test\Pain Drain\libraries\lvgl\src\draw\sw/lv_draw_sw_transform.c ****                     a = *(src + src_stride * src_h * sizeof(lv_color_t) + (ys_int * src_stride) + x
 450:..\..\..\arduinoLCD\test\Pain Drain\libraries\lvgl\src\draw\sw/lv_draw_sw_transform.c ****                     break;
 451:..\..\..\arduinoLCD\test\Pain Drain\libraries\lvgl\src\draw\sw/lv_draw_sw_transform.c **** #endif
 452:..\..\..\arduinoLCD\test\Pain Drain\libraries\lvgl\src\draw\sw/lv_draw_sw_transform.c ****                 default:
 453:..\..\..\arduinoLCD\test\Pain Drain\libraries\lvgl\src\draw\sw/lv_draw_sw_transform.c ****                     a = 0xff;
 454:..\..\..\arduinoLCD\test\Pain Drain\libraries\lvgl\src\draw\sw/lv_draw_sw_transform.c ****             }
 455:..\..\..\arduinoLCD\test\Pain Drain\libraries\lvgl\src\draw\sw/lv_draw_sw_transform.c **** 
 456:..\..\..\arduinoLCD\test\Pain Drain\libraries\lvgl\src\draw\sw/lv_draw_sw_transform.c ****             if((xs_int == 0 && x_next < 0) || (xs_int == src_w - 1 && x_next > 0))  {
 457:..\..\..\arduinoLCD\test\Pain Drain\libraries\lvgl\src\draw\sw/lv_draw_sw_transform.c ****                 abuf[x] = (a * (0xFF - xs_fract)) >> 8;
 458:..\..\..\arduinoLCD\test\Pain Drain\libraries\lvgl\src\draw\sw/lv_draw_sw_transform.c ****             }
 459:..\..\..\arduinoLCD\test\Pain Drain\libraries\lvgl\src\draw\sw/lv_draw_sw_transform.c ****             else if((ys_int == 0 && y_next < 0) || (ys_int == src_h - 1 && y_next > 0))  {
 460:..\..\..\arduinoLCD\test\Pain Drain\libraries\lvgl\src\draw\sw/lv_draw_sw_transform.c ****                 abuf[x] = (a * (0xFF - ys_fract)) >> 8;
 461:..\..\..\arduinoLCD\test\Pain Drain\libraries\lvgl\src\draw\sw/lv_draw_sw_transform.c ****             }
 462:..\..\..\arduinoLCD\test\Pain Drain\libraries\lvgl\src\draw\sw/lv_draw_sw_transform.c ****             else {
 463:..\..\..\arduinoLCD\test\Pain Drain\libraries\lvgl\src\draw\sw/lv_draw_sw_transform.c ****                 abuf[x] = 0x00;
 464:..\..\..\arduinoLCD\test\Pain Drain\libraries\lvgl\src\draw\sw/lv_draw_sw_transform.c ****             }
 465:..\..\..\arduinoLCD\test\Pain Drain\libraries\lvgl\src\draw\sw/lv_draw_sw_transform.c ****         }
 466:..\..\..\arduinoLCD\test\Pain Drain\libraries\lvgl\src\draw\sw/lv_draw_sw_transform.c ****     }
 467:..\..\..\arduinoLCD\test\Pain Drain\libraries\lvgl\src\draw\sw/lv_draw_sw_transform.c **** }
 468:..\..\..\arduinoLCD\test\Pain Drain\libraries\lvgl\src\draw\sw/lv_draw_sw_transform.c **** 
 469:..\..\..\arduinoLCD\test\Pain Drain\libraries\lvgl\src\draw\sw/lv_draw_sw_transform.c **** static void transform_point_upscaled(point_transform_dsc_t * t, int32_t xin, int32_t yin, int32_t *
 470:..\..\..\arduinoLCD\test\Pain Drain\libraries\lvgl\src\draw\sw/lv_draw_sw_transform.c ****                                      int32_t * yout)
 471:..\..\..\arduinoLCD\test\Pain Drain\libraries\lvgl\src\draw\sw/lv_draw_sw_transform.c **** {
 242              		.loc 1 471 0
 243              		.cfi_startproc
 244              		@ args = 4, pretend = 0, frame = 0
 245              		@ frame_needed = 0, uses_anonymous_args = 0
 246              		@ link register save eliminated.
 247              	.LVL31:
 248 0000 70B4     		push	{r4, r5, r6}
 249              		.cfi_def_cfa_offset 12
 250              		.cfi_offset 4, -12
 251              		.cfi_offset 5, -8
 252              		.cfi_offset 6, -4
 472:..\..\..\arduinoLCD\test\Pain Drain\libraries\lvgl\src\draw\sw/lv_draw_sw_transform.c ****     if(t->angle == 0 && t->zoom == LV_IMG_ZOOM_NONE) {
 253              		.loc 1 472 0
 254 0002 C469     		ldr	r4, [r0, #28]
 255 0004 4CB9     		cbnz	r4, .L16
 256              		.loc 1 472 0 is_stmt 0 discriminator 1
 257 0006 8569     		ldr	r5, [r0, #24]
 258 0008 B5F5807F 		cmp	r5, #256
 259 000c 05D1     		bne	.L16
 473:..\..\..\arduinoLCD\test\Pain Drain\libraries\lvgl\src\draw\sw/lv_draw_sw_transform.c ****         *xout = xin * 256;
 260              		.loc 1 473 0 is_stmt 1
 261 000e 0902     		lsls	r1, r1, #8
 262              	.LVL32:
 263 0010 1960     		str	r1, [r3]
 474:..\..\..\arduinoLCD\test\Pain Drain\libraries\lvgl\src\draw\sw/lv_draw_sw_transform.c ****         *yout = yin * 256;
ARM GAS  C:\Users\haske\AppData\Local\Temp\cc9HFfJU.s 			page 14


 264              		.loc 1 474 0
 265 0012 1202     		lsls	r2, r2, #8
 266              	.LVL33:
 267 0014 039B     		ldr	r3, [sp, #12]
 268              	.LVL34:
 269 0016 1A60     		str	r2, [r3]
 475:..\..\..\arduinoLCD\test\Pain Drain\libraries\lvgl\src\draw\sw/lv_draw_sw_transform.c ****         return;
 270              		.loc 1 475 0
 271 0018 46E0     		b	.L15
 272              	.LVL35:
 273              	.L16:
 476:..\..\..\arduinoLCD\test\Pain Drain\libraries\lvgl\src\draw\sw/lv_draw_sw_transform.c ****     }
 477:..\..\..\arduinoLCD\test\Pain Drain\libraries\lvgl\src\draw\sw/lv_draw_sw_transform.c **** 
 478:..\..\..\arduinoLCD\test\Pain Drain\libraries\lvgl\src\draw\sw/lv_draw_sw_transform.c ****     xin -= t->pivot.x;
 274              		.loc 1 478 0
 275 001a B0F92850 		ldrsh	r5, [r0, #40]
 276 001e 491B     		subs	r1, r1, r5
 277              	.LVL36:
 479:..\..\..\arduinoLCD\test\Pain Drain\libraries\lvgl\src\draw\sw/lv_draw_sw_transform.c ****     yin -= t->pivot.y;
 278              		.loc 1 479 0
 279 0020 B0F92A50 		ldrsh	r5, [r0, #42]
 280 0024 521B     		subs	r2, r2, r5
 281              	.LVL37:
 480:..\..\..\arduinoLCD\test\Pain Drain\libraries\lvgl\src\draw\sw/lv_draw_sw_transform.c **** 
 481:..\..\..\arduinoLCD\test\Pain Drain\libraries\lvgl\src\draw\sw/lv_draw_sw_transform.c ****     if(t->angle == 0) {
 282              		.loc 1 481 0
 283 0026 5CB9     		cbnz	r4, .L18
 482:..\..\..\arduinoLCD\test\Pain Drain\libraries\lvgl\src\draw\sw/lv_draw_sw_transform.c ****         *xout = ((int32_t)(xin * t->zoom)) + (t->pivot_x_256);
 284              		.loc 1 482 0
 285 0028 8469     		ldr	r4, [r0, #24]
 286 002a 056A     		ldr	r5, [r0, #32]
 287 002c 04FB0151 		mla	r1, r4, r1, r5
 288              	.LVL38:
 289 0030 1960     		str	r1, [r3]
 290              	.LVL39:
 483:..\..\..\arduinoLCD\test\Pain Drain\libraries\lvgl\src\draw\sw/lv_draw_sw_transform.c ****         *yout = ((int32_t)(yin * t->zoom)) + (t->pivot_y_256);
 291              		.loc 1 483 0
 292 0032 8369     		ldr	r3, [r0, #24]
 293              	.LVL40:
 294 0034 416A     		ldr	r1, [r0, #36]
 295 0036 03FB0212 		mla	r2, r3, r2, r1
 296              	.LVL41:
 297 003a 039B     		ldr	r3, [sp, #12]
 298 003c 1A60     		str	r2, [r3]
 299 003e 33E0     		b	.L15
 300              	.LVL42:
 301              	.L18:
 484:..\..\..\arduinoLCD\test\Pain Drain\libraries\lvgl\src\draw\sw/lv_draw_sw_transform.c ****     }
 485:..\..\..\arduinoLCD\test\Pain Drain\libraries\lvgl\src\draw\sw/lv_draw_sw_transform.c ****     else if(t->zoom == LV_IMG_ZOOM_NONE) {
 302              		.loc 1 485 0
 303 0040 8669     		ldr	r6, [r0, #24]
 304 0042 B6F5807F 		cmp	r6, #256
 305 0046 15D1     		bne	.L19
 486:..\..\..\arduinoLCD\test\Pain Drain\libraries\lvgl\src\draw\sw/lv_draw_sw_transform.c ****         *xout = ((t->cosma * xin - t->sinma * yin) >> 2) + (t->pivot_x_256);
 306              		.loc 1 486 0
 307 0048 4469     		ldr	r4, [r0, #20]
 308 004a 04FB01F5 		mul	r5, r4, r1
ARM GAS  C:\Users\haske\AppData\Local\Temp\cc9HFfJU.s 			page 15


 309 004e 0469     		ldr	r4, [r0, #16]
 310 0050 04FB1255 		mls	r5, r4, r2, r5
 311 0054 046A     		ldr	r4, [r0, #32]
 312 0056 04EBA504 		add	r4, r4, r5, asr #2
 313 005a 1C60     		str	r4, [r3]
 487:..\..\..\arduinoLCD\test\Pain Drain\libraries\lvgl\src\draw\sw/lv_draw_sw_transform.c ****         *yout = ((t->sinma * xin + t->cosma * yin) >> 2) + (t->pivot_y_256);
 314              		.loc 1 487 0
 315 005c 0369     		ldr	r3, [r0, #16]
 316              	.LVL43:
 317 005e 4469     		ldr	r4, [r0, #20]
 318 0060 04FB02F2 		mul	r2, r4, r2
 319              	.LVL44:
 320 0064 03FB0121 		mla	r1, r3, r1, r2
 321              	.LVL45:
 322 0068 436A     		ldr	r3, [r0, #36]
 323 006a 03EBA101 		add	r1, r3, r1, asr #2
 324 006e 039B     		ldr	r3, [sp, #12]
 325 0070 1960     		str	r1, [r3]
 326 0072 19E0     		b	.L15
 327              	.LVL46:
 328              	.L19:
 488:..\..\..\arduinoLCD\test\Pain Drain\libraries\lvgl\src\draw\sw/lv_draw_sw_transform.c ****     }
 489:..\..\..\arduinoLCD\test\Pain Drain\libraries\lvgl\src\draw\sw/lv_draw_sw_transform.c ****     else {
 490:..\..\..\arduinoLCD\test\Pain Drain\libraries\lvgl\src\draw\sw/lv_draw_sw_transform.c ****         *xout = (((t->cosma * xin - t->sinma * yin) * t->zoom) >> 10) + (t->pivot_x_256);
 329              		.loc 1 490 0
 330 0074 4569     		ldr	r5, [r0, #20]
 331 0076 05FB01F5 		mul	r5, r5, r1
 332 007a 0469     		ldr	r4, [r0, #16]
 333 007c 04FB1254 		mls	r4, r4, r2, r5
 334 0080 04FB06F4 		mul	r4, r4, r6
 335 0084 056A     		ldr	r5, [r0, #32]
 336 0086 05EBA424 		add	r4, r5, r4, asr #10
 337 008a 1C60     		str	r4, [r3]
 491:..\..\..\arduinoLCD\test\Pain Drain\libraries\lvgl\src\draw\sw/lv_draw_sw_transform.c ****         *yout = (((t->sinma * xin + t->cosma * yin) * t->zoom) >> 10) + (t->pivot_y_256);
 338              		.loc 1 491 0
 339 008c 0469     		ldr	r4, [r0, #16]
 340 008e 4369     		ldr	r3, [r0, #20]
 341              	.LVL47:
 342 0090 03FB02F2 		mul	r2, r3, r2
 343              	.LVL48:
 344 0094 04FB0121 		mla	r1, r4, r1, r2
 345              	.LVL49:
 346 0098 8269     		ldr	r2, [r0, #24]
 347 009a 02FB01F1 		mul	r1, r2, r1
 348 009e 436A     		ldr	r3, [r0, #36]
 349 00a0 03EBA121 		add	r1, r3, r1, asr #10
 350 00a4 039B     		ldr	r3, [sp, #12]
 351 00a6 1960     		str	r1, [r3]
 352              	.L15:
 492:..\..\..\arduinoLCD\test\Pain Drain\libraries\lvgl\src\draw\sw/lv_draw_sw_transform.c ****     }
 493:..\..\..\arduinoLCD\test\Pain Drain\libraries\lvgl\src\draw\sw/lv_draw_sw_transform.c **** }
 353              		.loc 1 493 0
 354 00a8 70BC     		pop	{r4, r5, r6}
 355              		.cfi_restore 6
 356              		.cfi_restore 5
 357              		.cfi_restore 4
 358              		.cfi_def_cfa_offset 0
ARM GAS  C:\Users\haske\AppData\Local\Temp\cc9HFfJU.s 			page 16


 359              	.LVL50:
 360 00aa 7047     		bx	lr
 361              		.cfi_endproc
 362              	.LFE164:
 363              		.size	transform_point_upscaled, .-transform_point_upscaled
 364              		.section	.text.argb_and_rgb_aa,"ax",%progbits
 365              		.align	2
 366              		.thumb
 367              		.thumb_func
 368              		.type	argb_and_rgb_aa, %function
 369              	argb_and_rgb_aa:
 370              	.LFB163:
 271:..\..\..\arduinoLCD\test\Pain Drain\libraries\lvgl\src\draw\sw/lv_draw_sw_transform.c ****     int32_t xs_ups_start = xs_ups;
 371              		.loc 1 271 0
 372              		.cfi_startproc
 373              		@ args = 32, pretend = 0, frame = 64
 374              		@ frame_needed = 0, uses_anonymous_args = 0
 375              	.LVL51:
 376 0000 2DE9F04F 		push	{r4, r5, r6, r7, r8, r9, r10, fp, lr}
 377              		.cfi_def_cfa_offset 36
 378              		.cfi_offset 4, -36
 379              		.cfi_offset 5, -32
 380              		.cfi_offset 6, -28
 381              		.cfi_offset 7, -24
 382              		.cfi_offset 8, -20
 383              		.cfi_offset 9, -16
 384              		.cfi_offset 10, -12
 385              		.cfi_offset 11, -8
 386              		.cfi_offset 14, -4
 387 0004 91B0     		sub	sp, sp, #68
 388              		.cfi_def_cfa_offset 104
 389 0006 0190     		str	r0, [sp, #4]
 390 0008 8B46     		mov	fp, r1
 391 000a 0092     		str	r2, [sp]
 392 000c 0393     		str	r3, [sp, #12]
 393 000e DDF868A0 		ldr	r10, [sp, #104]
 394 0012 DDF86C90 		ldr	r9, [sp, #108]
 395 0016 1D9E     		ldr	r6, [sp, #116]
 396 0018 1E9D     		ldr	r5, [sp, #120]
 397 001a 9DF88430 		ldrb	r3, [sp, #132]	@ zero_extendqisi2
 398              	.LVL52:
 399 001e 0493     		str	r3, [sp, #16]
 400              	.LVL53:
 276:..\..\..\arduinoLCD\test\Pain Drain\libraries\lvgl\src\draw\sw/lv_draw_sw_transform.c ****     switch(cf) {
 401              		.loc 1 276 0
 402 0020 4FF00002 		mov	r2, #0	@ movhi
 403              	.LVL54:
 404 0024 ADF82620 		strh	r2, [sp, #38]	@ movhi
 277:..\..\..\arduinoLCD\test\Pain Drain\libraries\lvgl\src\draw\sw/lv_draw_sw_transform.c ****         case LV_IMG_CF_TRUE_COLOR:
 405              		.loc 1 277 0
 406 0028 043B     		subs	r3, r3, #4
 407 002a 102B     		cmp	r3, #16
 408 002c 00F2C781 		bhi	.L21
 409 0030 DFE813F0 		tbh	[pc, r3, lsl #1]
 410              	.LVL55:
 411              	.L24:
 412 0034 1100     		.2byte	(.L23-.L24)/2
ARM GAS  C:\Users\haske\AppData\Local\Temp\cc9HFfJU.s 			page 17


 413 0036 2600     		.2byte	(.L60-.L24)/2
 414 0038 1600     		.2byte	(.L26-.L24)/2
 415 003a C501     		.2byte	(.L21-.L24)/2
 416 003c C501     		.2byte	(.L21-.L24)/2
 417 003e C501     		.2byte	(.L21-.L24)/2
 418 0040 C501     		.2byte	(.L21-.L24)/2
 419 0042 C501     		.2byte	(.L21-.L24)/2
 420 0044 C501     		.2byte	(.L21-.L24)/2
 421 0046 C501     		.2byte	(.L21-.L24)/2
 422 0048 C501     		.2byte	(.L21-.L24)/2
 423 004a C501     		.2byte	(.L21-.L24)/2
 424 004c C501     		.2byte	(.L21-.L24)/2
 425 004e C501     		.2byte	(.L21-.L24)/2
 426 0050 C501     		.2byte	(.L21-.L24)/2
 427 0052 C501     		.2byte	(.L21-.L24)/2
 428 0054 2100     		.2byte	(.L27-.L24)/2
 429              		.p2align 1
 430              	.L23:
 280:..\..\..\arduinoLCD\test\Pain Drain\libraries\lvgl\src\draw\sw/lv_draw_sw_transform.c ****             break;
 431              		.loc 1 280 0
 432 0056 0223     		movs	r3, #2
 433 0058 0693     		str	r3, [sp, #24]
 279:..\..\..\arduinoLCD\test\Pain Drain\libraries\lvgl\src\draw\sw/lv_draw_sw_transform.c ****             px_size = sizeof(lv_color_t);
 434              		.loc 1 279 0
 435 005a 0023     		movs	r3, #0
 436 005c 0B93     		str	r3, [sp, #44]
 437 005e 13E0     		b	.L25
 438              	.L26:
 439              	.LVL56:
 440              	.LBB23:
 289:..\..\..\arduinoLCD\test\Pain Drain\libraries\lvgl\src\draw\sw/lv_draw_sw_transform.c ****                 ck = d->driver->color_chroma_key;
 441              		.loc 1 289 0
 442 0060 FFF7FEFF 		bl	_lv_refr_get_disp_refreshing
 443              	.LVL57:
 290:..\..\..\arduinoLCD\test\Pain Drain\libraries\lvgl\src\draw\sw/lv_draw_sw_transform.c ****                 break;
 444              		.loc 1 290 0
 445 0064 0368     		ldr	r3, [r0]
 446 0066 1B8F     		ldrh	r3, [r3, #56]
 447              	.LVL58:
 448 0068 ADF82630 		strh	r3, [sp, #38]	@ movhi
 288:..\..\..\arduinoLCD\test\Pain Drain\libraries\lvgl\src\draw\sw/lv_draw_sw_transform.c ****                 lv_disp_t * d = _lv_refr_get_disp_refreshing();
 449              		.loc 1 288 0
 450 006c 0223     		movs	r3, #2
 451              	.LVL59:
 452 006e 0693     		str	r3, [sp, #24]
 287:..\..\..\arduinoLCD\test\Pain Drain\libraries\lvgl\src\draw\sw/lv_draw_sw_transform.c ****                 px_size = sizeof(lv_color_t);
 453              		.loc 1 287 0
 454 0070 0123     		movs	r3, #1
 455 0072 0B93     		str	r3, [sp, #44]
 291:..\..\..\arduinoLCD\test\Pain Drain\libraries\lvgl\src\draw\sw/lv_draw_sw_transform.c ****             }
 456              		.loc 1 291 0
 457 0074 08E0     		b	.L25
 458              	.LVL60:
 459              	.L27:
 460              	.LBE23:
 296:..\..\..\arduinoLCD\test\Pain Drain\libraries\lvgl\src\draw\sw/lv_draw_sw_transform.c ****             break;
 461              		.loc 1 296 0
ARM GAS  C:\Users\haske\AppData\Local\Temp\cc9HFfJU.s 			page 18


 462 0076 0223     		movs	r3, #2
 463 0078 0693     		str	r3, [sp, #24]
 295:..\..\..\arduinoLCD\test\Pain Drain\libraries\lvgl\src\draw\sw/lv_draw_sw_transform.c ****             px_size = sizeof(lv_color_t);
 464              		.loc 1 295 0
 465 007a 0123     		movs	r3, #1
 466 007c 0B93     		str	r3, [sp, #44]
 297:..\..\..\arduinoLCD\test\Pain Drain\libraries\lvgl\src\draw\sw/lv_draw_sw_transform.c **** #endif
 467              		.loc 1 297 0
 468 007e 03E0     		b	.L25
 469              	.LVL61:
 470              	.L60:
 284:..\..\..\arduinoLCD\test\Pain Drain\libraries\lvgl\src\draw\sw/lv_draw_sw_transform.c ****             break;
 471              		.loc 1 284 0
 472 0080 0323     		movs	r3, #3
 473 0082 0693     		str	r3, [sp, #24]
 283:..\..\..\arduinoLCD\test\Pain Drain\libraries\lvgl\src\draw\sw/lv_draw_sw_transform.c ****             px_size = LV_IMG_PX_SIZE_ALPHA_BYTE;
 474              		.loc 1 283 0
 475 0084 0123     		movs	r3, #1
 476 0086 0B93     		str	r3, [sp, #44]
 477              	.LVL62:
 478              	.L25:
 304:..\..\..\arduinoLCD\test\Pain Drain\libraries\lvgl\src\draw\sw/lv_draw_sw_transform.c ****         xs_ups = xs_ups_start + ((xs_step * x) >> 8);
 479              		.loc 1 304 0
 480 0088 0021     		movs	r1, #0
 481 008a DDF88080 		ldr	r8, [sp, #128]
 482 008e 93E1     		b	.L28
 483              	.LVL63:
 484              	.L58:
 485              	.LBB24:
 305:..\..\..\arduinoLCD\test\Pain Drain\libraries\lvgl\src\draw\sw/lv_draw_sw_transform.c ****         ys_ups = ys_ups_start + ((ys_step * x) >> 8);
 486              		.loc 1 305 0
 487 0090 1C9B     		ldr	r3, [sp, #112]
 488 0092 03FB01F7 		mul	r7, r3, r1
 489 0096 0AEB2727 		add	r7, r10, r7, asr #8
 490              	.LVL64:
 306:..\..\..\arduinoLCD\test\Pain Drain\libraries\lvgl\src\draw\sw/lv_draw_sw_transform.c **** 
 491              		.loc 1 306 0
 492 009a 06FB01F4 		mul	r4, r6, r1
 493              	.LVL65:
 494 009e 09EB2424 		add	r4, r9, r4, asr #8
 495              	.LVL66:
 309:..\..\..\arduinoLCD\test\Pain Drain\libraries\lvgl\src\draw\sw/lv_draw_sw_transform.c **** 
 496              		.loc 1 309 0
 497 00a2 2212     		asrs	r2, r4, #8
 498              	.LVL67:
 312:..\..\..\arduinoLCD\test\Pain Drain\libraries\lvgl\src\draw\sw/lv_draw_sw_transform.c ****             abuf[x] = 0x00;
 499              		.loc 1 312 0
 500 00a4 3B12     		asrs	r3, r7, #8
 501              	.LVL68:
 502 00a6 06D4     		bmi	.L29
 312:..\..\..\arduinoLCD\test\Pain Drain\libraries\lvgl\src\draw\sw/lv_draw_sw_transform.c ****             abuf[x] = 0x00;
 503              		.loc 1 312 0 is_stmt 0 discriminator 1
 504 00a8 5B45     		cmp	r3, fp
 505 00aa 04DA     		bge	.L29
 312:..\..\..\arduinoLCD\test\Pain Drain\libraries\lvgl\src\draw\sw/lv_draw_sw_transform.c ****             abuf[x] = 0x00;
 506              		.loc 1 312 0 discriminator 2
 507 00ac 002A     		cmp	r2, #0
ARM GAS  C:\Users\haske\AppData\Local\Temp\cc9HFfJU.s 			page 19


 508 00ae 02DB     		blt	.L29
 312:..\..\..\arduinoLCD\test\Pain Drain\libraries\lvgl\src\draw\sw/lv_draw_sw_transform.c ****             abuf[x] = 0x00;
 509              		.loc 1 312 0 discriminator 3
 510 00b0 0098     		ldr	r0, [sp]
 511              	.LVL69:
 512 00b2 8242     		cmp	r2, r0
 513 00b4 03DB     		blt	.L30
 514              	.LVL70:
 515              	.L29:
 313:..\..\..\arduinoLCD\test\Pain Drain\libraries\lvgl\src\draw\sw/lv_draw_sw_transform.c ****             continue;
 516              		.loc 1 313 0 is_stmt 1
 517 00b6 0023     		movs	r3, #0
 518              	.LVL71:
 519 00b8 08F80130 		strb	r3, [r8, r1]
 314:..\..\..\arduinoLCD\test\Pain Drain\libraries\lvgl\src\draw\sw/lv_draw_sw_transform.c ****         }
 520              		.loc 1 314 0
 521 00bc 7AE1     		b	.L31
 522              	.LVL72:
 523              	.L30:
 319:..\..\..\arduinoLCD\test\Pain Drain\libraries\lvgl\src\draw\sw/lv_draw_sw_transform.c ****         int32_t ys_fract = ys_ups & 0xFF;
 524              		.loc 1 319 0
 525 00be FFB2     		uxtb	r7, r7
 526              	.LVL73:
 320:..\..\..\arduinoLCD\test\Pain Drain\libraries\lvgl\src\draw\sw/lv_draw_sw_transform.c **** 
 527              		.loc 1 320 0
 528 00c0 E4B2     		uxtb	r4, r4
 529              	.LVL74:
 324:..\..\..\arduinoLCD\test\Pain Drain\libraries\lvgl\src\draw\sw/lv_draw_sw_transform.c ****             x_next = -1;
 530              		.loc 1 324 0
 531 00c2 7F2F     		cmp	r7, #127
 532 00c4 07DC     		bgt	.L32
 533              	.LVL75:
 326:..\..\..\arduinoLCD\test\Pain Drain\libraries\lvgl\src\draw\sw/lv_draw_sw_transform.c ****         }
 534              		.loc 1 326 0
 535 00c6 C7F17F07 		rsb	r7, r7, #127
 536              	.LVL76:
 537 00ca 7800     		lsls	r0, r7, #1
 538 00cc 0790     		str	r0, [sp, #28]
 539              	.LVL77:
 325:..\..\..\arduinoLCD\test\Pain Drain\libraries\lvgl\src\draw\sw/lv_draw_sw_transform.c ****             xs_fract = (0x7F - xs_fract) * 2;
 540              		.loc 1 325 0
 541 00ce 4FF0FF30 		mov	r0, #-1
 542              	.LVL78:
 543 00d2 0290     		str	r0, [sp, #8]
 544 00d4 04E0     		b	.L33
 545              	.LVL79:
 546              	.L32:
 330:..\..\..\arduinoLCD\test\Pain Drain\libraries\lvgl\src\draw\sw/lv_draw_sw_transform.c ****         }
 547              		.loc 1 330 0
 548 00d6 803F     		subs	r7, r7, #128
 549              	.LVL80:
 550 00d8 7800     		lsls	r0, r7, #1
 551 00da 0790     		str	r0, [sp, #28]
 552              	.LVL81:
 329:..\..\..\arduinoLCD\test\Pain Drain\libraries\lvgl\src\draw\sw/lv_draw_sw_transform.c ****             xs_fract = (xs_fract - 0x80) * 2;
 553              		.loc 1 329 0
 554 00dc 0120     		movs	r0, #1
ARM GAS  C:\Users\haske\AppData\Local\Temp\cc9HFfJU.s 			page 20


 555              	.LVL82:
 556 00de 0290     		str	r0, [sp, #8]
 557              	.LVL83:
 558              	.L33:
 332:..\..\..\arduinoLCD\test\Pain Drain\libraries\lvgl\src\draw\sw/lv_draw_sw_transform.c ****             y_next = -1;
 559              		.loc 1 332 0
 560 00e0 7F2C     		cmp	r4, #127
 561 00e2 07DC     		bgt	.L34
 562              	.LVL84:
 334:..\..\..\arduinoLCD\test\Pain Drain\libraries\lvgl\src\draw\sw/lv_draw_sw_transform.c ****         }
 563              		.loc 1 334 0
 564 00e4 C4F17F04 		rsb	r4, r4, #127
 565              	.LVL85:
 566 00e8 6000     		lsls	r0, r4, #1
 567 00ea 0890     		str	r0, [sp, #32]
 568              	.LVL86:
 333:..\..\..\arduinoLCD\test\Pain Drain\libraries\lvgl\src\draw\sw/lv_draw_sw_transform.c ****             ys_fract = (0x7F - ys_fract) * 2;
 569              		.loc 1 333 0
 570 00ec 4FF0FF30 		mov	r0, #-1
 571              	.LVL87:
 572 00f0 0590     		str	r0, [sp, #20]
 573 00f2 04E0     		b	.L35
 574              	.LVL88:
 575              	.L34:
 338:..\..\..\arduinoLCD\test\Pain Drain\libraries\lvgl\src\draw\sw/lv_draw_sw_transform.c ****         }
 576              		.loc 1 338 0
 577 00f4 803C     		subs	r4, r4, #128
 578              	.LVL89:
 579 00f6 6000     		lsls	r0, r4, #1
 580 00f8 0890     		str	r0, [sp, #32]
 581              	.LVL90:
 337:..\..\..\arduinoLCD\test\Pain Drain\libraries\lvgl\src\draw\sw/lv_draw_sw_transform.c ****             ys_fract = (ys_fract - 0x80) * 2;
 582              		.loc 1 337 0
 583 00fa 0120     		movs	r0, #1
 584              	.LVL91:
 585 00fc 0590     		str	r0, [sp, #20]
 586              	.LVL92:
 587              	.L35:
 342:..\..\..\arduinoLCD\test\Pain Drain\libraries\lvgl\src\draw\sw/lv_draw_sw_transform.c **** 
 588              		.loc 1 342 0
 589 00fe 0398     		ldr	r0, [sp, #12]
 590 0100 00FB02F0 		mul	r0, r0, r2
 591 0104 0A90     		str	r0, [sp, #40]
 592 0106 1C18     		adds	r4, r3, r0
 593 0108 0698     		ldr	r0, [sp, #24]
 594 010a 00FB04F4 		mul	r4, r0, r4
 595 010e 019F     		ldr	r7, [sp, #4]
 596 0110 07EB040E 		add	lr, r7, r4
 597              	.LVL93:
 345:..\..\..\arduinoLCD\test\Pain Drain\libraries\lvgl\src\draw\sw/lv_draw_sw_transform.c ****            xs_int + x_next <= src_w - 1 &&
 598              		.loc 1 345 0
 599 0114 029F     		ldr	r7, [sp, #8]
 600 0116 17EB030C 		adds	ip, r7, r3
 601              	.LVL94:
 602 011a 00F1F380 		bmi	.L36
 346:..\..\..\arduinoLCD\test\Pain Drain\libraries\lvgl\src\draw\sw/lv_draw_sw_transform.c ****            ys_int + y_next >= 0 &&
 603              		.loc 1 346 0 discriminator 1
ARM GAS  C:\Users\haske\AppData\Local\Temp\cc9HFfJU.s 			page 21


 604 011e 0BF1FF37 		add	r7, fp, #-1
 345:..\..\..\arduinoLCD\test\Pain Drain\libraries\lvgl\src\draw\sw/lv_draw_sw_transform.c ****            xs_int + x_next <= src_w - 1 &&
 605              		.loc 1 345 0 discriminator 1
 606 0122 BC45     		cmp	ip, r7
 607 0124 00F3EE80 		bgt	.L36
 346:..\..\..\arduinoLCD\test\Pain Drain\libraries\lvgl\src\draw\sw/lv_draw_sw_transform.c ****            ys_int + y_next >= 0 &&
 608              		.loc 1 346 0
 609 0128 059F     		ldr	r7, [sp, #20]
 610 012a 17EB020C 		adds	ip, r7, r2
 611 012e 00F1E980 		bmi	.L36
 348:..\..\..\arduinoLCD\test\Pain Drain\libraries\lvgl\src\draw\sw/lv_draw_sw_transform.c **** 
 612              		.loc 1 348 0
 613 0132 009F     		ldr	r7, [sp]
 614 0134 013F     		subs	r7, r7, #1
 347:..\..\..\arduinoLCD\test\Pain Drain\libraries\lvgl\src\draw\sw/lv_draw_sw_transform.c ****            ys_int + y_next <= src_h - 1) {
 615              		.loc 1 347 0
 616 0136 BC45     		cmp	ip, r7
 617 0138 00F3E480 		bgt	.L36
 618              	.LVL95:
 619              	.LBB25:
 351:..\..\..\arduinoLCD\test\Pain Drain\libraries\lvgl\src\draw\sw/lv_draw_sw_transform.c ****             const uint8_t * px_ver = src_tmp + y_next * src_stride * px_size;
 620              		.loc 1 351 0
 621 013c 0246     		mov	r2, r0
 622              	.LVL96:
 623 013e 029F     		ldr	r7, [sp, #8]
 624 0140 07FB02F2 		mul	r2, r7, r2
 625 0144 0C92     		str	r2, [sp, #48]
 626 0146 7244     		add	r2, lr, r2
 627 0148 0E92     		str	r2, [sp, #56]
 628              	.LVL97:
 352:..\..\..\arduinoLCD\test\Pain Drain\libraries\lvgl\src\draw\sw/lv_draw_sw_transform.c ****             lv_color_t c_base;
 629              		.loc 1 352 0
 630 014a 059F     		ldr	r7, [sp, #20]
 631 014c 039A     		ldr	r2, [sp, #12]
 632              	.LVL98:
 633 014e 02FB07F7 		mul	r7, r2, r7
 634 0152 3A46     		mov	r2, r7
 635 0154 02FB00F2 		mul	r2, r2, r0
 636 0158 0D92     		str	r2, [sp, #52]
 637 015a 7244     		add	r2, lr, r2
 638 015c 0F92     		str	r2, [sp, #60]
 639              	.LVL99:
 357:..\..\..\arduinoLCD\test\Pain Drain\libraries\lvgl\src\draw\sw/lv_draw_sw_transform.c ****                 lv_opa_t a_base;
 640              		.loc 1 357 0
 641 015e 0B9A     		ldr	r2, [sp, #44]
 642              	.LVL100:
 643 0160 002A     		cmp	r2, #0
 644 0162 7BD0     		beq	.L37
 645              	.LBB26:
 361:..\..\..\arduinoLCD\test\Pain Drain\libraries\lvgl\src\draw\sw/lv_draw_sw_transform.c ****                     a_base = px_base[LV_IMG_PX_SIZE_ALPHA_BYTE - 1];
 646              		.loc 1 361 0
 647 0164 049A     		ldr	r2, [sp, #16]
 648 0166 052A     		cmp	r2, #5
 649 0168 07D1     		bne	.L38
 362:..\..\..\arduinoLCD\test\Pain Drain\libraries\lvgl\src\draw\sw/lv_draw_sw_transform.c ****                     a_ver = px_ver[LV_IMG_PX_SIZE_ALPHA_BYTE - 1];
 650              		.loc 1 362 0
 651 016a 9EF80230 		ldrb	r3, [lr, #2]	@ zero_extendqisi2
ARM GAS  C:\Users\haske\AppData\Local\Temp\cc9HFfJU.s 			page 22


 652              	.LVL101:
 653 016e 0593     		str	r3, [sp, #20]
 654              	.LVL102:
 363:..\..\..\arduinoLCD\test\Pain Drain\libraries\lvgl\src\draw\sw/lv_draw_sw_transform.c ****                     a_hor = px_hor[LV_IMG_PX_SIZE_ALPHA_BYTE - 1];
 655              		.loc 1 363 0
 656 0170 0F9B     		ldr	r3, [sp, #60]
 657 0172 9B78     		ldrb	r3, [r3, #2]	@ zero_extendqisi2
 658              	.LVL103:
 364:..\..\..\arduinoLCD\test\Pain Drain\libraries\lvgl\src\draw\sw/lv_draw_sw_transform.c ****                 }
 659              		.loc 1 364 0
 660 0174 0E9A     		ldr	r2, [sp, #56]
 661 0176 9278     		ldrb	r2, [r2, #2]	@ zero_extendqisi2
 662              	.LVL104:
 663 0178 36E0     		b	.L39
 664              	.LVL105:
 665              	.L38:
 367:..\..\..\arduinoLCD\test\Pain Drain\libraries\lvgl\src\draw\sw/lv_draw_sw_transform.c ****                     const lv_opa_t * a_tmp = src + src_stride * src_h * sizeof(lv_color_t);
 666              		.loc 1 367 0
 667 017a 049A     		ldr	r2, [sp, #16]
 668 017c 142A     		cmp	r2, #20
 669 017e 15D1     		bne	.L40
 670              	.LBB27:
 368:..\..\..\arduinoLCD\test\Pain Drain\libraries\lvgl\src\draw\sw/lv_draw_sw_transform.c ****                     a_base = *(a_tmp + (ys_int * src_stride) + xs_int);
 671              		.loc 1 368 0
 672 0180 039A     		ldr	r2, [sp, #12]
 673 0182 009F     		ldr	r7, [sp]
 674 0184 02FB07F2 		mul	r2, r2, r7
 675 0188 019F     		ldr	r7, [sp, #4]
 676 018a 07EB4202 		add	r2, r7, r2, lsl #1
 677 018e 1046     		mov	r0, r2
 678              	.LVL106:
 369:..\..\..\arduinoLCD\test\Pain Drain\libraries\lvgl\src\draw\sw/lv_draw_sw_transform.c ****                     a_hor = *(a_tmp + (ys_int * src_stride) + xs_int + x_next);
 679              		.loc 1 369 0
 680 0190 0A9F     		ldr	r7, [sp, #40]
 681 0192 1F44     		add	r7, r7, r3
 682 0194 3A46     		mov	r2, r7
 683 0196 0746     		mov	r7, r0
 684 0198 805C     		ldrb	r0, [r0, r2]	@ zero_extendqisi2
 685              	.LVL107:
 686 019a 0590     		str	r0, [sp, #20]
 687              	.LVL108:
 370:..\..\..\arduinoLCD\test\Pain Drain\libraries\lvgl\src\draw\sw/lv_draw_sw_transform.c ****                     a_ver = *(a_tmp + ((ys_int + y_next) * src_stride) + xs_int);
 688              		.loc 1 370 0
 689 019c 0298     		ldr	r0, [sp, #8]
 690 019e 0244     		add	r2, r2, r0
 691 01a0 BA5C     		ldrb	r2, [r7, r2]	@ zero_extendqisi2
 692              	.LVL109:
 371:..\..\..\arduinoLCD\test\Pain Drain\libraries\lvgl\src\draw\sw/lv_draw_sw_transform.c ****                 }
 693              		.loc 1 371 0
 694 01a2 0398     		ldr	r0, [sp, #12]
 695 01a4 0CFB0033 		mla	r3, ip, r0, r3
 696              	.LVL110:
 697 01a8 FB5C     		ldrb	r3, [r7, r3]	@ zero_extendqisi2
 698              	.LVL111:
 699              	.LBE27:
 700 01aa 1DE0     		b	.L39
 701              	.LVL112:
ARM GAS  C:\Users\haske\AppData\Local\Temp\cc9HFfJU.s 			page 23


 702              	.L40:
 374:..\..\..\arduinoLCD\test\Pain Drain\libraries\lvgl\src\draw\sw/lv_draw_sw_transform.c ****                     if(((lv_color_t *)px_base)->full == ck.full ||
 703              		.loc 1 374 0
 704 01ac 049B     		ldr	r3, [sp, #16]
 705              	.LVL113:
 706 01ae 062B     		cmp	r3, #6
 707 01b0 13D1     		bne	.L61
 375:..\..\..\arduinoLCD\test\Pain Drain\libraries\lvgl\src\draw\sw/lv_draw_sw_transform.c ****                        ((lv_color_t *)px_ver)->full == ck.full ||
 708              		.loc 1 375 0
 709 01b2 019B     		ldr	r3, [sp, #4]
 710 01b4 1B5B     		ldrh	r3, [r3, r4]
 711 01b6 BDF82620 		ldrh	r2, [sp, #38]
 712 01ba 9342     		cmp	r3, r2
 713 01bc 09D0     		beq	.L41
 376:..\..\..\arduinoLCD\test\Pain Drain\libraries\lvgl\src\draw\sw/lv_draw_sw_transform.c ****                        ((lv_color_t *)px_hor)->full == ck.full) {
 714              		.loc 1 376 0 discriminator 1
 715 01be 0D9B     		ldr	r3, [sp, #52]
 716 01c0 3EF80330 		ldrh	r3, [lr, r3]
 375:..\..\..\arduinoLCD\test\Pain Drain\libraries\lvgl\src\draw\sw/lv_draw_sw_transform.c ****                        ((lv_color_t *)px_ver)->full == ck.full ||
 717              		.loc 1 375 0 discriminator 1
 718 01c4 9A42     		cmp	r2, r3
 719 01c6 04D0     		beq	.L41
 377:..\..\..\arduinoLCD\test\Pain Drain\libraries\lvgl\src\draw\sw/lv_draw_sw_transform.c ****                         abuf[x] = 0x00;
 720              		.loc 1 377 0
 721 01c8 0C9B     		ldr	r3, [sp, #48]
 722 01ca 3EF80330 		ldrh	r3, [lr, r3]
 376:..\..\..\arduinoLCD\test\Pain Drain\libraries\lvgl\src\draw\sw/lv_draw_sw_transform.c ****                        ((lv_color_t *)px_hor)->full == ck.full) {
 723              		.loc 1 376 0
 724 01ce 9A42     		cmp	r2, r3
 725 01d0 07D1     		bne	.L62
 726              	.L41:
 378:..\..\..\arduinoLCD\test\Pain Drain\libraries\lvgl\src\draw\sw/lv_draw_sw_transform.c ****                         continue;
 727              		.loc 1 378 0
 728 01d2 0023     		movs	r3, #0
 729 01d4 08F80130 		strb	r3, [r8, r1]
 379:..\..\..\arduinoLCD\test\Pain Drain\libraries\lvgl\src\draw\sw/lv_draw_sw_transform.c ****                     }
 730              		.loc 1 379 0
 731 01d8 ECE0     		b	.L31
 732              	.L61:
 390:..\..\..\arduinoLCD\test\Pain Drain\libraries\lvgl\src\draw\sw/lv_draw_sw_transform.c ****                 }
 733              		.loc 1 390 0
 734 01da FF22     		movs	r2, #255
 389:..\..\..\arduinoLCD\test\Pain Drain\libraries\lvgl\src\draw\sw/lv_draw_sw_transform.c ****                     a_hor = 0xff;
 735              		.loc 1 389 0
 736 01dc 1346     		mov	r3, r2
 388:..\..\..\arduinoLCD\test\Pain Drain\libraries\lvgl\src\draw\sw/lv_draw_sw_transform.c ****                     a_ver = 0xff;
 737              		.loc 1 388 0
 738 01de 0592     		str	r2, [sp, #20]
 739              	.LVL114:
 740 01e0 02E0     		b	.L39
 741              	.LVL115:
 742              	.L62:
 384:..\..\..\arduinoLCD\test\Pain Drain\libraries\lvgl\src\draw\sw/lv_draw_sw_transform.c ****                     }
 743              		.loc 1 384 0
 744 01e2 FF22     		movs	r2, #255
 383:..\..\..\arduinoLCD\test\Pain Drain\libraries\lvgl\src\draw\sw/lv_draw_sw_transform.c ****                         a_hor = 0xff;
 745              		.loc 1 383 0
ARM GAS  C:\Users\haske\AppData\Local\Temp\cc9HFfJU.s 			page 24


 746 01e4 1346     		mov	r3, r2
 382:..\..\..\arduinoLCD\test\Pain Drain\libraries\lvgl\src\draw\sw/lv_draw_sw_transform.c ****                         a_ver = 0xff;
 747              		.loc 1 382 0
 748 01e6 0592     		str	r2, [sp, #20]
 749              	.LVL116:
 750              	.L39:
 393:..\..\..\arduinoLCD\test\Pain Drain\libraries\lvgl\src\draw\sw/lv_draw_sw_transform.c ****                 if(a_hor != a_base) a_hor = ((a_hor * xs_fract) + (a_base * (0x100 - xs_fract))) >>
 751              		.loc 1 393 0
 752 01e8 0598     		ldr	r0, [sp, #20]
 753 01ea 9842     		cmp	r0, r3
 754 01ec 09D0     		beq	.L43
 393:..\..\..\arduinoLCD\test\Pain Drain\libraries\lvgl\src\draw\sw/lv_draw_sw_transform.c ****                 if(a_hor != a_base) a_hor = ((a_hor * xs_fract) + (a_base * (0x100 - xs_fract))) >>
 755              		.loc 1 393 0 is_stmt 0 discriminator 1
 756 01ee 089F     		ldr	r7, [sp, #32]
 757 01f0 C7F58077 		rsb	r7, r7, #256
 758 01f4 07FB00F7 		mul	r7, r7, r0
 759 01f8 0898     		ldr	r0, [sp, #32]
 760 01fa 00FB0373 		mla	r3, r0, r3, r7
 761              	.LVL117:
 762 01fe C3F30723 		ubfx	r3, r3, #8, #8
 763              	.LVL118:
 764              	.L43:
 394:..\..\..\arduinoLCD\test\Pain Drain\libraries\lvgl\src\draw\sw/lv_draw_sw_transform.c ****                 abuf[x] = (a_ver + a_hor) >> 1;
 765              		.loc 1 394 0 is_stmt 1
 766 0202 0598     		ldr	r0, [sp, #20]
 767 0204 9042     		cmp	r0, r2
 768 0206 09D0     		beq	.L44
 394:..\..\..\arduinoLCD\test\Pain Drain\libraries\lvgl\src\draw\sw/lv_draw_sw_transform.c ****                 abuf[x] = (a_ver + a_hor) >> 1;
 769              		.loc 1 394 0 is_stmt 0 discriminator 1
 770 0208 079F     		ldr	r7, [sp, #28]
 771 020a C7F58077 		rsb	r7, r7, #256
 772 020e 07FB00F7 		mul	r7, r7, r0
 773 0212 0798     		ldr	r0, [sp, #28]
 774 0214 00FB0272 		mla	r2, r0, r2, r7
 775              	.LVL119:
 776 0218 C2F30722 		ubfx	r2, r2, #8, #8
 777              	.LVL120:
 778              	.L44:
 395:..\..\..\arduinoLCD\test\Pain Drain\libraries\lvgl\src\draw\sw/lv_draw_sw_transform.c **** 
 779              		.loc 1 395 0 is_stmt 1
 780 021c 1344     		add	r3, r3, r2
 781              	.LVL121:
 782 021e C3F34703 		ubfx	r3, r3, #1, #8
 783 0222 08F80130 		strb	r3, [r8, r1]
 397:..\..\..\arduinoLCD\test\Pain Drain\libraries\lvgl\src\draw\sw/lv_draw_sw_transform.c **** 
 784              		.loc 1 397 0
 785 0226 002B     		cmp	r3, #0
 786 0228 00F0C480 		beq	.L31
 404:..\..\..\arduinoLCD\test\Pain Drain\libraries\lvgl\src\draw\sw/lv_draw_sw_transform.c ****                 c_ver.full = px_ver[0] + (px_ver[1] << 8);
 787              		.loc 1 404 0
 788 022c 019B     		ldr	r3, [sp, #4]
 789 022e 1B5D     		ldrb	r3, [r3, r4]	@ zero_extendqisi2
 790 0230 9EF80120 		ldrb	r2, [lr, #1]	@ zero_extendqisi2
 791              	.LVL122:
 792 0234 03EB0223 		add	r3, r3, r2, lsl #8
 793 0238 1C46     		mov	r4, r3	@ movhi
 405:..\..\..\arduinoLCD\test\Pain Drain\libraries\lvgl\src\draw\sw/lv_draw_sw_transform.c ****                 c_hor.full = px_hor[0] + (px_hor[1] << 8);
ARM GAS  C:\Users\haske\AppData\Local\Temp\cc9HFfJU.s 			page 25


 794              		.loc 1 405 0
 795 023a 0D9B     		ldr	r3, [sp, #52]
 796 023c 1EF80330 		ldrb	r3, [lr, r3]	@ zero_extendqisi2
 797 0240 0F9A     		ldr	r2, [sp, #60]
 798 0242 5278     		ldrb	r2, [r2, #1]	@ zero_extendqisi2
 799 0244 03EB0222 		add	r2, r3, r2, lsl #8
 800 0248 9446     		mov	ip, r2	@ movhi
 406:..\..\..\arduinoLCD\test\Pain Drain\libraries\lvgl\src\draw\sw/lv_draw_sw_transform.c **** #elif LV_COLOR_DEPTH == 32
 801              		.loc 1 406 0
 802 024a 0C9B     		ldr	r3, [sp, #48]
 803 024c 1EF80330 		ldrb	r3, [lr, r3]	@ zero_extendqisi2
 804 0250 0E9A     		ldr	r2, [sp, #56]
 805 0252 5278     		ldrb	r2, [r2, #1]	@ zero_extendqisi2
 806 0254 03EB0223 		add	r3, r3, r2, lsl #8
 807 0258 1846     		mov	r0, r3	@ movhi
 808              	.LBE26:
 809 025a 0BE0     		b	.L45
 810              	.LVL123:
 811              	.L37:
 415:..\..\..\arduinoLCD\test\Pain Drain\libraries\lvgl\src\draw\sw/lv_draw_sw_transform.c ****                 c_hor = *((const lv_color_t *) px_hor);
 812              		.loc 1 415 0
 813 025c 019B     		ldr	r3, [sp, #4]
 814              	.LVL124:
 815 025e 1C5B     		ldrh	r4, [r3, r4]
 416:..\..\..\arduinoLCD\test\Pain Drain\libraries\lvgl\src\draw\sw/lv_draw_sw_transform.c ****                 c_ver = *((const lv_color_t *) px_ver);
 816              		.loc 1 416 0
 817 0260 0C9B     		ldr	r3, [sp, #48]
 818 0262 3EF80330 		ldrh	r3, [lr, r3]
 819              	.LVL125:
 820 0266 1846     		mov	r0, r3	@ movhi
 417:..\..\..\arduinoLCD\test\Pain Drain\libraries\lvgl\src\draw\sw/lv_draw_sw_transform.c ****                 abuf[x] = 0xff;
 821              		.loc 1 417 0
 822 0268 0D9B     		ldr	r3, [sp, #52]
 823              	.LVL126:
 824 026a 3EF803C0 		ldrh	ip, [lr, r3]
 418:..\..\..\arduinoLCD\test\Pain Drain\libraries\lvgl\src\draw\sw/lv_draw_sw_transform.c ****             }
 825              		.loc 1 418 0
 826 026e FF23     		movs	r3, #255
 827 0270 08F80130 		strb	r3, [r8, r1]
 828              	.LVL127:
 829              	.L45:
 421:..\..\..\arduinoLCD\test\Pain Drain\libraries\lvgl\src\draw\sw/lv_draw_sw_transform.c ****                 cbuf[x] = c_base;
 830              		.loc 1 421 0
 831 0274 A3B2     		uxth	r3, r4
 832              	.LVL128:
 833 0276 1FFA8CF2 		uxth	r2, ip
 834 027a 9342     		cmp	r3, r2
 835 027c 06D1     		bne	.L46
 836              	.LVL129:
 421:..\..\..\arduinoLCD\test\Pain Drain\libraries\lvgl\src\draw\sw/lv_draw_sw_transform.c ****                 cbuf[x] = c_base;
 837              		.loc 1 421 0 is_stmt 0 discriminator 1
 838 027e 82B2     		uxth	r2, r0
 839 0280 9342     		cmp	r3, r2
 840 0282 03D1     		bne	.L46
 422:..\..\..\arduinoLCD\test\Pain Drain\libraries\lvgl\src\draw\sw/lv_draw_sw_transform.c ****             }
 841              		.loc 1 422 0 is_stmt 1
 842 0284 1F9B     		ldr	r3, [sp, #124]
ARM GAS  C:\Users\haske\AppData\Local\Temp\cc9HFfJU.s 			page 26


 843 0286 23F81140 		strh	r4, [r3, r1, lsl #1]	@ movhi
 844 028a 93E0     		b	.L31
 845              	.L46:
 846              	.LVL130:
 847              	.LBB28:
 848              	.LBB29:
 849              		.file 2 "c:\\projects\\paindrain\\arduinolcd\\test\\pain drain\\libraries\\lvgl\\src\\misc\\lv_col
   1:c:\projects\paindrain\arduinolcd\test\pain drain\libraries\lvgl\src\misc\lv_color.h **** /**
   2:c:\projects\paindrain\arduinolcd\test\pain drain\libraries\lvgl\src\misc\lv_color.h ****  * @file lv_color.h
   3:c:\projects\paindrain\arduinolcd\test\pain drain\libraries\lvgl\src\misc\lv_color.h ****  *
   4:c:\projects\paindrain\arduinolcd\test\pain drain\libraries\lvgl\src\misc\lv_color.h ****  */
   5:c:\projects\paindrain\arduinolcd\test\pain drain\libraries\lvgl\src\misc\lv_color.h **** 
   6:c:\projects\paindrain\arduinolcd\test\pain drain\libraries\lvgl\src\misc\lv_color.h **** #ifndef LV_COLOR_H
   7:c:\projects\paindrain\arduinolcd\test\pain drain\libraries\lvgl\src\misc\lv_color.h **** #define LV_COLOR_H
   8:c:\projects\paindrain\arduinolcd\test\pain drain\libraries\lvgl\src\misc\lv_color.h **** 
   9:c:\projects\paindrain\arduinolcd\test\pain drain\libraries\lvgl\src\misc\lv_color.h **** #ifdef __cplusplus
  10:c:\projects\paindrain\arduinolcd\test\pain drain\libraries\lvgl\src\misc\lv_color.h **** extern "C" {
  11:c:\projects\paindrain\arduinolcd\test\pain drain\libraries\lvgl\src\misc\lv_color.h **** #endif
  12:c:\projects\paindrain\arduinolcd\test\pain drain\libraries\lvgl\src\misc\lv_color.h **** 
  13:c:\projects\paindrain\arduinolcd\test\pain drain\libraries\lvgl\src\misc\lv_color.h **** /*********************
  14:c:\projects\paindrain\arduinolcd\test\pain drain\libraries\lvgl\src\misc\lv_color.h ****  *      INCLUDES
  15:c:\projects\paindrain\arduinolcd\test\pain drain\libraries\lvgl\src\misc\lv_color.h ****  *********************/
  16:c:\projects\paindrain\arduinolcd\test\pain drain\libraries\lvgl\src\misc\lv_color.h **** #include "../lv_conf_internal.h"
  17:c:\projects\paindrain\arduinolcd\test\pain drain\libraries\lvgl\src\misc\lv_color.h **** #include "lv_assert.h"
  18:c:\projects\paindrain\arduinolcd\test\pain drain\libraries\lvgl\src\misc\lv_color.h **** #include "lv_math.h"
  19:c:\projects\paindrain\arduinolcd\test\pain drain\libraries\lvgl\src\misc\lv_color.h **** #include "lv_types.h"
  20:c:\projects\paindrain\arduinolcd\test\pain drain\libraries\lvgl\src\misc\lv_color.h **** 
  21:c:\projects\paindrain\arduinolcd\test\pain drain\libraries\lvgl\src\misc\lv_color.h **** /*Error checking*/
  22:c:\projects\paindrain\arduinolcd\test\pain drain\libraries\lvgl\src\misc\lv_color.h **** #if LV_COLOR_DEPTH == 24
  23:c:\projects\paindrain\arduinolcd\test\pain drain\libraries\lvgl\src\misc\lv_color.h **** #error "LV_COLOR_DEPTH 24 is deprecated. Use LV_COLOR_DEPTH 32 instead (lv_conf.h)"
  24:c:\projects\paindrain\arduinolcd\test\pain drain\libraries\lvgl\src\misc\lv_color.h **** #endif
  25:c:\projects\paindrain\arduinolcd\test\pain drain\libraries\lvgl\src\misc\lv_color.h **** 
  26:c:\projects\paindrain\arduinolcd\test\pain drain\libraries\lvgl\src\misc\lv_color.h **** #if LV_COLOR_DEPTH != 16 && LV_COLOR_16_SWAP != 0
  27:c:\projects\paindrain\arduinolcd\test\pain drain\libraries\lvgl\src\misc\lv_color.h **** #error "LV_COLOR_16_SWAP requires LV_COLOR_DEPTH == 16. Set it in lv_conf.h"
  28:c:\projects\paindrain\arduinolcd\test\pain drain\libraries\lvgl\src\misc\lv_color.h **** #endif
  29:c:\projects\paindrain\arduinolcd\test\pain drain\libraries\lvgl\src\misc\lv_color.h **** 
  30:c:\projects\paindrain\arduinolcd\test\pain drain\libraries\lvgl\src\misc\lv_color.h **** #include <stdint.h>
  31:c:\projects\paindrain\arduinolcd\test\pain drain\libraries\lvgl\src\misc\lv_color.h **** 
  32:c:\projects\paindrain\arduinolcd\test\pain drain\libraries\lvgl\src\misc\lv_color.h **** /*********************
  33:c:\projects\paindrain\arduinolcd\test\pain drain\libraries\lvgl\src\misc\lv_color.h ****  *      DEFINES
  34:c:\projects\paindrain\arduinolcd\test\pain drain\libraries\lvgl\src\misc\lv_color.h ****  *********************/
  35:c:\projects\paindrain\arduinolcd\test\pain drain\libraries\lvgl\src\misc\lv_color.h **** LV_EXPORT_CONST_INT(LV_COLOR_DEPTH);
  36:c:\projects\paindrain\arduinolcd\test\pain drain\libraries\lvgl\src\misc\lv_color.h **** LV_EXPORT_CONST_INT(LV_COLOR_16_SWAP);
  37:c:\projects\paindrain\arduinolcd\test\pain drain\libraries\lvgl\src\misc\lv_color.h **** 
  38:c:\projects\paindrain\arduinolcd\test\pain drain\libraries\lvgl\src\misc\lv_color.h **** /**
  39:c:\projects\paindrain\arduinolcd\test\pain drain\libraries\lvgl\src\misc\lv_color.h ****  * Opacity percentages.
  40:c:\projects\paindrain\arduinolcd\test\pain drain\libraries\lvgl\src\misc\lv_color.h ****  */
  41:c:\projects\paindrain\arduinolcd\test\pain drain\libraries\lvgl\src\misc\lv_color.h **** enum {
  42:c:\projects\paindrain\arduinolcd\test\pain drain\libraries\lvgl\src\misc\lv_color.h ****     LV_OPA_TRANSP = 0,
  43:c:\projects\paindrain\arduinolcd\test\pain drain\libraries\lvgl\src\misc\lv_color.h ****     LV_OPA_0      = 0,
  44:c:\projects\paindrain\arduinolcd\test\pain drain\libraries\lvgl\src\misc\lv_color.h ****     LV_OPA_10     = 25,
  45:c:\projects\paindrain\arduinolcd\test\pain drain\libraries\lvgl\src\misc\lv_color.h ****     LV_OPA_20     = 51,
  46:c:\projects\paindrain\arduinolcd\test\pain drain\libraries\lvgl\src\misc\lv_color.h ****     LV_OPA_30     = 76,
  47:c:\projects\paindrain\arduinolcd\test\pain drain\libraries\lvgl\src\misc\lv_color.h ****     LV_OPA_40     = 102,
  48:c:\projects\paindrain\arduinolcd\test\pain drain\libraries\lvgl\src\misc\lv_color.h ****     LV_OPA_50     = 127,
  49:c:\projects\paindrain\arduinolcd\test\pain drain\libraries\lvgl\src\misc\lv_color.h ****     LV_OPA_60     = 153,
  50:c:\projects\paindrain\arduinolcd\test\pain drain\libraries\lvgl\src\misc\lv_color.h ****     LV_OPA_70     = 178,
ARM GAS  C:\Users\haske\AppData\Local\Temp\cc9HFfJU.s 			page 27


  51:c:\projects\paindrain\arduinolcd\test\pain drain\libraries\lvgl\src\misc\lv_color.h ****     LV_OPA_80     = 204,
  52:c:\projects\paindrain\arduinolcd\test\pain drain\libraries\lvgl\src\misc\lv_color.h ****     LV_OPA_90     = 229,
  53:c:\projects\paindrain\arduinolcd\test\pain drain\libraries\lvgl\src\misc\lv_color.h ****     LV_OPA_100    = 255,
  54:c:\projects\paindrain\arduinolcd\test\pain drain\libraries\lvgl\src\misc\lv_color.h ****     LV_OPA_COVER  = 255,
  55:c:\projects\paindrain\arduinolcd\test\pain drain\libraries\lvgl\src\misc\lv_color.h **** };
  56:c:\projects\paindrain\arduinolcd\test\pain drain\libraries\lvgl\src\misc\lv_color.h **** 
  57:c:\projects\paindrain\arduinolcd\test\pain drain\libraries\lvgl\src\misc\lv_color.h **** #define LV_OPA_MIN 2    /*Opacities below this will be transparent*/
  58:c:\projects\paindrain\arduinolcd\test\pain drain\libraries\lvgl\src\misc\lv_color.h **** #define LV_OPA_MAX 253  /*Opacities above this will fully cover*/
  59:c:\projects\paindrain\arduinolcd\test\pain drain\libraries\lvgl\src\misc\lv_color.h **** 
  60:c:\projects\paindrain\arduinolcd\test\pain drain\libraries\lvgl\src\misc\lv_color.h **** #if LV_COLOR_DEPTH == 1
  61:c:\projects\paindrain\arduinolcd\test\pain drain\libraries\lvgl\src\misc\lv_color.h **** #define LV_COLOR_SIZE 8
  62:c:\projects\paindrain\arduinolcd\test\pain drain\libraries\lvgl\src\misc\lv_color.h **** #elif LV_COLOR_DEPTH == 8
  63:c:\projects\paindrain\arduinolcd\test\pain drain\libraries\lvgl\src\misc\lv_color.h **** #define LV_COLOR_SIZE 8
  64:c:\projects\paindrain\arduinolcd\test\pain drain\libraries\lvgl\src\misc\lv_color.h **** #elif LV_COLOR_DEPTH == 16
  65:c:\projects\paindrain\arduinolcd\test\pain drain\libraries\lvgl\src\misc\lv_color.h **** #define LV_COLOR_SIZE 16
  66:c:\projects\paindrain\arduinolcd\test\pain drain\libraries\lvgl\src\misc\lv_color.h **** #elif LV_COLOR_DEPTH == 32
  67:c:\projects\paindrain\arduinolcd\test\pain drain\libraries\lvgl\src\misc\lv_color.h **** #define LV_COLOR_SIZE 32
  68:c:\projects\paindrain\arduinolcd\test\pain drain\libraries\lvgl\src\misc\lv_color.h **** #else
  69:c:\projects\paindrain\arduinolcd\test\pain drain\libraries\lvgl\src\misc\lv_color.h **** #error "Invalid LV_COLOR_DEPTH in lv_conf.h! Set it to 1, 8, 16 or 32!"
  70:c:\projects\paindrain\arduinolcd\test\pain drain\libraries\lvgl\src\misc\lv_color.h **** #endif
  71:c:\projects\paindrain\arduinolcd\test\pain drain\libraries\lvgl\src\misc\lv_color.h **** 
  72:c:\projects\paindrain\arduinolcd\test\pain drain\libraries\lvgl\src\misc\lv_color.h **** #if defined(__cplusplus) && !defined(_LV_COLOR_HAS_MODERN_CPP)
  73:c:\projects\paindrain\arduinolcd\test\pain drain\libraries\lvgl\src\misc\lv_color.h **** /**
  74:c:\projects\paindrain\arduinolcd\test\pain drain\libraries\lvgl\src\misc\lv_color.h **** * MSVC compiler's definition of the __cplusplus indicating 199711L regardless to C++ standard versi
  75:c:\projects\paindrain\arduinolcd\test\pain drain\libraries\lvgl\src\misc\lv_color.h **** * see https://devblogs.microsoft.com/cppblog/msvc-now-correctly-reports-cplusplus
  76:c:\projects\paindrain\arduinolcd\test\pain drain\libraries\lvgl\src\misc\lv_color.h **** * so we use _MSC_VER macro instead of __cplusplus
  77:c:\projects\paindrain\arduinolcd\test\pain drain\libraries\lvgl\src\misc\lv_color.h **** */
  78:c:\projects\paindrain\arduinolcd\test\pain drain\libraries\lvgl\src\misc\lv_color.h **** #ifdef _MSC_VER
  79:c:\projects\paindrain\arduinolcd\test\pain drain\libraries\lvgl\src\misc\lv_color.h **** #if _MSC_VER >= 1900 /*Visual Studio 2015*/
  80:c:\projects\paindrain\arduinolcd\test\pain drain\libraries\lvgl\src\misc\lv_color.h **** #define _LV_COLOR_HAS_MODERN_CPP 1
  81:c:\projects\paindrain\arduinolcd\test\pain drain\libraries\lvgl\src\misc\lv_color.h **** #endif
  82:c:\projects\paindrain\arduinolcd\test\pain drain\libraries\lvgl\src\misc\lv_color.h **** #else
  83:c:\projects\paindrain\arduinolcd\test\pain drain\libraries\lvgl\src\misc\lv_color.h **** #if __cplusplus >= 201103L
  84:c:\projects\paindrain\arduinolcd\test\pain drain\libraries\lvgl\src\misc\lv_color.h **** #define _LV_COLOR_HAS_MODERN_CPP 1
  85:c:\projects\paindrain\arduinolcd\test\pain drain\libraries\lvgl\src\misc\lv_color.h **** #endif
  86:c:\projects\paindrain\arduinolcd\test\pain drain\libraries\lvgl\src\misc\lv_color.h **** #endif
  87:c:\projects\paindrain\arduinolcd\test\pain drain\libraries\lvgl\src\misc\lv_color.h **** #endif /*__cplusplus*/
  88:c:\projects\paindrain\arduinolcd\test\pain drain\libraries\lvgl\src\misc\lv_color.h **** 
  89:c:\projects\paindrain\arduinolcd\test\pain drain\libraries\lvgl\src\misc\lv_color.h **** #ifndef _LV_COLOR_HAS_MODERN_CPP
  90:c:\projects\paindrain\arduinolcd\test\pain drain\libraries\lvgl\src\misc\lv_color.h **** #define _LV_COLOR_HAS_MODERN_CPP 0
  91:c:\projects\paindrain\arduinolcd\test\pain drain\libraries\lvgl\src\misc\lv_color.h **** #endif
  92:c:\projects\paindrain\arduinolcd\test\pain drain\libraries\lvgl\src\misc\lv_color.h **** 
  93:c:\projects\paindrain\arduinolcd\test\pain drain\libraries\lvgl\src\misc\lv_color.h **** #if _LV_COLOR_HAS_MODERN_CPP
  94:c:\projects\paindrain\arduinolcd\test\pain drain\libraries\lvgl\src\misc\lv_color.h **** /*Fix msvc compiler error C4576 inside C++ code*/
  95:c:\projects\paindrain\arduinolcd\test\pain drain\libraries\lvgl\src\misc\lv_color.h **** #define _LV_COLOR_MAKE_TYPE_HELPER lv_color_t
  96:c:\projects\paindrain\arduinolcd\test\pain drain\libraries\lvgl\src\misc\lv_color.h **** #else
  97:c:\projects\paindrain\arduinolcd\test\pain drain\libraries\lvgl\src\misc\lv_color.h **** #define _LV_COLOR_MAKE_TYPE_HELPER (lv_color_t)
  98:c:\projects\paindrain\arduinolcd\test\pain drain\libraries\lvgl\src\misc\lv_color.h **** #endif
  99:c:\projects\paindrain\arduinolcd\test\pain drain\libraries\lvgl\src\misc\lv_color.h **** 
 100:c:\projects\paindrain\arduinolcd\test\pain drain\libraries\lvgl\src\misc\lv_color.h **** /*---------------------------------------
 101:c:\projects\paindrain\arduinolcd\test\pain drain\libraries\lvgl\src\misc\lv_color.h ****  * Macros for all existing color depths
 102:c:\projects\paindrain\arduinolcd\test\pain drain\libraries\lvgl\src\misc\lv_color.h ****  * to set/get values of the color channels
 103:c:\projects\paindrain\arduinolcd\test\pain drain\libraries\lvgl\src\misc\lv_color.h ****  *------------------------------------------*/
 104:c:\projects\paindrain\arduinolcd\test\pain drain\libraries\lvgl\src\misc\lv_color.h **** # define LV_COLOR_SET_R1(c, v) (c).ch.red = (uint8_t)((v) & 0x1)
 105:c:\projects\paindrain\arduinolcd\test\pain drain\libraries\lvgl\src\misc\lv_color.h **** # define LV_COLOR_SET_G1(c, v) (c).ch.green = (uint8_t)((v) & 0x1)
 106:c:\projects\paindrain\arduinolcd\test\pain drain\libraries\lvgl\src\misc\lv_color.h **** # define LV_COLOR_SET_B1(c, v) (c).ch.blue = (uint8_t)((v) & 0x1)
 107:c:\projects\paindrain\arduinolcd\test\pain drain\libraries\lvgl\src\misc\lv_color.h **** # define LV_COLOR_SET_A1(c, v) do {} while(0)
ARM GAS  C:\Users\haske\AppData\Local\Temp\cc9HFfJU.s 			page 28


 108:c:\projects\paindrain\arduinolcd\test\pain drain\libraries\lvgl\src\misc\lv_color.h **** 
 109:c:\projects\paindrain\arduinolcd\test\pain drain\libraries\lvgl\src\misc\lv_color.h **** # define LV_COLOR_GET_R1(c) (c).ch.red
 110:c:\projects\paindrain\arduinolcd\test\pain drain\libraries\lvgl\src\misc\lv_color.h **** # define LV_COLOR_GET_G1(c) (c).ch.green
 111:c:\projects\paindrain\arduinolcd\test\pain drain\libraries\lvgl\src\misc\lv_color.h **** # define LV_COLOR_GET_B1(c) (c).ch.blue
 112:c:\projects\paindrain\arduinolcd\test\pain drain\libraries\lvgl\src\misc\lv_color.h **** # define LV_COLOR_GET_A1(c) 0xFF
 113:c:\projects\paindrain\arduinolcd\test\pain drain\libraries\lvgl\src\misc\lv_color.h **** 
 114:c:\projects\paindrain\arduinolcd\test\pain drain\libraries\lvgl\src\misc\lv_color.h **** # define _LV_COLOR_ZERO_INITIALIZER1 {0x00}
 115:c:\projects\paindrain\arduinolcd\test\pain drain\libraries\lvgl\src\misc\lv_color.h **** # define LV_COLOR_MAKE1(r8, g8, b8)  {(uint8_t)((b8 >> 7) | (g8 >> 7) | (r8 >> 7))}
 116:c:\projects\paindrain\arduinolcd\test\pain drain\libraries\lvgl\src\misc\lv_color.h **** 
 117:c:\projects\paindrain\arduinolcd\test\pain drain\libraries\lvgl\src\misc\lv_color.h **** # define LV_COLOR_SET_R8(c, v) (c).ch.red = (uint8_t)((v) & 0x7U)
 118:c:\projects\paindrain\arduinolcd\test\pain drain\libraries\lvgl\src\misc\lv_color.h **** # define LV_COLOR_SET_G8(c, v) (c).ch.green = (uint8_t)((v) & 0x7U)
 119:c:\projects\paindrain\arduinolcd\test\pain drain\libraries\lvgl\src\misc\lv_color.h **** # define LV_COLOR_SET_B8(c, v) (c).ch.blue = (uint8_t)((v) & 0x3U)
 120:c:\projects\paindrain\arduinolcd\test\pain drain\libraries\lvgl\src\misc\lv_color.h **** # define LV_COLOR_SET_A8(c, v) do {} while(0)
 121:c:\projects\paindrain\arduinolcd\test\pain drain\libraries\lvgl\src\misc\lv_color.h **** 
 122:c:\projects\paindrain\arduinolcd\test\pain drain\libraries\lvgl\src\misc\lv_color.h **** # define LV_COLOR_GET_R8(c) (c).ch.red
 123:c:\projects\paindrain\arduinolcd\test\pain drain\libraries\lvgl\src\misc\lv_color.h **** # define LV_COLOR_GET_G8(c) (c).ch.green
 124:c:\projects\paindrain\arduinolcd\test\pain drain\libraries\lvgl\src\misc\lv_color.h **** # define LV_COLOR_GET_B8(c) (c).ch.blue
 125:c:\projects\paindrain\arduinolcd\test\pain drain\libraries\lvgl\src\misc\lv_color.h **** # define LV_COLOR_GET_A8(c) 0xFF
 126:c:\projects\paindrain\arduinolcd\test\pain drain\libraries\lvgl\src\misc\lv_color.h **** 
 127:c:\projects\paindrain\arduinolcd\test\pain drain\libraries\lvgl\src\misc\lv_color.h **** # define _LV_COLOR_ZERO_INITIALIZER8 {{0x00, 0x00, 0x00}}
 128:c:\projects\paindrain\arduinolcd\test\pain drain\libraries\lvgl\src\misc\lv_color.h **** # define LV_COLOR_MAKE8(r8, g8, b8) {{(uint8_t)((b8 >> 6) & 0x3U), (uint8_t)((g8 >> 5) & 0x7U), (ui
 129:c:\projects\paindrain\arduinolcd\test\pain drain\libraries\lvgl\src\misc\lv_color.h **** 
 130:c:\projects\paindrain\arduinolcd\test\pain drain\libraries\lvgl\src\misc\lv_color.h **** # define LV_COLOR_SET_R16(c, v) (c).ch.red = (uint8_t)((v) & 0x1FU)
 131:c:\projects\paindrain\arduinolcd\test\pain drain\libraries\lvgl\src\misc\lv_color.h **** #if LV_COLOR_16_SWAP == 0
 132:c:\projects\paindrain\arduinolcd\test\pain drain\libraries\lvgl\src\misc\lv_color.h **** # define LV_COLOR_SET_G16(c, v) (c).ch.green = (uint8_t)((v) & 0x3FU)
 133:c:\projects\paindrain\arduinolcd\test\pain drain\libraries\lvgl\src\misc\lv_color.h **** #else
 134:c:\projects\paindrain\arduinolcd\test\pain drain\libraries\lvgl\src\misc\lv_color.h **** # define LV_COLOR_SET_G16(c, v) {(c).ch.green_h = (uint8_t)(((v) >> 3) & 0x7); (c).ch.green_l = (ui
 135:c:\projects\paindrain\arduinolcd\test\pain drain\libraries\lvgl\src\misc\lv_color.h **** #endif
 136:c:\projects\paindrain\arduinolcd\test\pain drain\libraries\lvgl\src\misc\lv_color.h **** # define LV_COLOR_SET_B16(c, v) (c).ch.blue = (uint8_t)((v) & 0x1FU)
 137:c:\projects\paindrain\arduinolcd\test\pain drain\libraries\lvgl\src\misc\lv_color.h **** # define LV_COLOR_SET_A16(c, v) do {} while(0)
 138:c:\projects\paindrain\arduinolcd\test\pain drain\libraries\lvgl\src\misc\lv_color.h **** 
 139:c:\projects\paindrain\arduinolcd\test\pain drain\libraries\lvgl\src\misc\lv_color.h **** # define LV_COLOR_GET_R16(c) (c).ch.red
 140:c:\projects\paindrain\arduinolcd\test\pain drain\libraries\lvgl\src\misc\lv_color.h **** #if LV_COLOR_16_SWAP == 0
 141:c:\projects\paindrain\arduinolcd\test\pain drain\libraries\lvgl\src\misc\lv_color.h **** # define LV_COLOR_GET_G16(c) (c).ch.green
 142:c:\projects\paindrain\arduinolcd\test\pain drain\libraries\lvgl\src\misc\lv_color.h **** #else
 143:c:\projects\paindrain\arduinolcd\test\pain drain\libraries\lvgl\src\misc\lv_color.h **** # define LV_COLOR_GET_G16(c) (((c).ch.green_h << 3) + (c).ch.green_l)
 144:c:\projects\paindrain\arduinolcd\test\pain drain\libraries\lvgl\src\misc\lv_color.h **** #endif
 145:c:\projects\paindrain\arduinolcd\test\pain drain\libraries\lvgl\src\misc\lv_color.h **** # define LV_COLOR_GET_B16(c) (c).ch.blue
 146:c:\projects\paindrain\arduinolcd\test\pain drain\libraries\lvgl\src\misc\lv_color.h **** # define LV_COLOR_GET_A16(c) 0xFF
 147:c:\projects\paindrain\arduinolcd\test\pain drain\libraries\lvgl\src\misc\lv_color.h **** 
 148:c:\projects\paindrain\arduinolcd\test\pain drain\libraries\lvgl\src\misc\lv_color.h **** #if LV_COLOR_16_SWAP == 0
 149:c:\projects\paindrain\arduinolcd\test\pain drain\libraries\lvgl\src\misc\lv_color.h **** # define _LV_COLOR_ZERO_INITIALIZER16  {{0x00, 0x00, 0x00}}
 150:c:\projects\paindrain\arduinolcd\test\pain drain\libraries\lvgl\src\misc\lv_color.h **** # define LV_COLOR_MAKE16(r8, g8, b8) {{(uint8_t)((b8 >> 3) & 0x1FU), (uint8_t)((g8 >> 2) & 0x3FU), 
 151:c:\projects\paindrain\arduinolcd\test\pain drain\libraries\lvgl\src\misc\lv_color.h **** #else
 152:c:\projects\paindrain\arduinolcd\test\pain drain\libraries\lvgl\src\misc\lv_color.h **** # define _LV_COLOR_ZERO_INITIALIZER16 {{0x00, 0x00, 0x00, 0x00}}
 153:c:\projects\paindrain\arduinolcd\test\pain drain\libraries\lvgl\src\misc\lv_color.h **** # define LV_COLOR_MAKE16(r8, g8, b8) {{(uint8_t)((g8 >> 5) & 0x7U), (uint8_t)((r8 >> 3) & 0x1FU), (
 154:c:\projects\paindrain\arduinolcd\test\pain drain\libraries\lvgl\src\misc\lv_color.h **** #endif
 155:c:\projects\paindrain\arduinolcd\test\pain drain\libraries\lvgl\src\misc\lv_color.h **** 
 156:c:\projects\paindrain\arduinolcd\test\pain drain\libraries\lvgl\src\misc\lv_color.h **** # define LV_COLOR_SET_R32(c, v) (c).ch.red = (uint8_t)((v) & 0xFF)
 157:c:\projects\paindrain\arduinolcd\test\pain drain\libraries\lvgl\src\misc\lv_color.h **** # define LV_COLOR_SET_G32(c, v) (c).ch.green = (uint8_t)((v) & 0xFF)
 158:c:\projects\paindrain\arduinolcd\test\pain drain\libraries\lvgl\src\misc\lv_color.h **** # define LV_COLOR_SET_B32(c, v) (c).ch.blue = (uint8_t)((v) & 0xFF)
 159:c:\projects\paindrain\arduinolcd\test\pain drain\libraries\lvgl\src\misc\lv_color.h **** # define LV_COLOR_SET_A32(c, v) (c).ch.alpha = (uint8_t)((v) & 0xFF)
 160:c:\projects\paindrain\arduinolcd\test\pain drain\libraries\lvgl\src\misc\lv_color.h **** 
 161:c:\projects\paindrain\arduinolcd\test\pain drain\libraries\lvgl\src\misc\lv_color.h **** # define LV_COLOR_GET_R32(c) (c).ch.red
 162:c:\projects\paindrain\arduinolcd\test\pain drain\libraries\lvgl\src\misc\lv_color.h **** # define LV_COLOR_GET_G32(c) (c).ch.green
 163:c:\projects\paindrain\arduinolcd\test\pain drain\libraries\lvgl\src\misc\lv_color.h **** # define LV_COLOR_GET_B32(c) (c).ch.blue
 164:c:\projects\paindrain\arduinolcd\test\pain drain\libraries\lvgl\src\misc\lv_color.h **** # define LV_COLOR_GET_A32(c) (c).ch.alpha
ARM GAS  C:\Users\haske\AppData\Local\Temp\cc9HFfJU.s 			page 29


 165:c:\projects\paindrain\arduinolcd\test\pain drain\libraries\lvgl\src\misc\lv_color.h **** 
 166:c:\projects\paindrain\arduinolcd\test\pain drain\libraries\lvgl\src\misc\lv_color.h **** # define _LV_COLOR_ZERO_INITIALIZER32  {{0x00, 0x00, 0x00, 0x00}}
 167:c:\projects\paindrain\arduinolcd\test\pain drain\libraries\lvgl\src\misc\lv_color.h **** # define LV_COLOR_MAKE32(r8, g8, b8) {{b8, g8, r8, 0xff}} /*Fix 0xff alpha*/
 168:c:\projects\paindrain\arduinolcd\test\pain drain\libraries\lvgl\src\misc\lv_color.h **** 
 169:c:\projects\paindrain\arduinolcd\test\pain drain\libraries\lvgl\src\misc\lv_color.h **** /*---------------------------------------
 170:c:\projects\paindrain\arduinolcd\test\pain drain\libraries\lvgl\src\misc\lv_color.h ****  * Macros for the current color depth
 171:c:\projects\paindrain\arduinolcd\test\pain drain\libraries\lvgl\src\misc\lv_color.h ****  * to set/get values of the color channels
 172:c:\projects\paindrain\arduinolcd\test\pain drain\libraries\lvgl\src\misc\lv_color.h ****  *------------------------------------------*/
 173:c:\projects\paindrain\arduinolcd\test\pain drain\libraries\lvgl\src\misc\lv_color.h **** #define LV_COLOR_SET_R(c, v) LV_CONCAT(LV_COLOR_SET_R, LV_COLOR_DEPTH)(c, v)
 174:c:\projects\paindrain\arduinolcd\test\pain drain\libraries\lvgl\src\misc\lv_color.h **** #define LV_COLOR_SET_G(c, v) LV_CONCAT(LV_COLOR_SET_G, LV_COLOR_DEPTH)(c, v)
 175:c:\projects\paindrain\arduinolcd\test\pain drain\libraries\lvgl\src\misc\lv_color.h **** #define LV_COLOR_SET_B(c, v) LV_CONCAT(LV_COLOR_SET_B, LV_COLOR_DEPTH)(c, v)
 176:c:\projects\paindrain\arduinolcd\test\pain drain\libraries\lvgl\src\misc\lv_color.h **** #define LV_COLOR_SET_A(c, v) LV_CONCAT(LV_COLOR_SET_A, LV_COLOR_DEPTH)(c, v)
 177:c:\projects\paindrain\arduinolcd\test\pain drain\libraries\lvgl\src\misc\lv_color.h **** 
 178:c:\projects\paindrain\arduinolcd\test\pain drain\libraries\lvgl\src\misc\lv_color.h **** #define LV_COLOR_GET_R(c) LV_CONCAT(LV_COLOR_GET_R, LV_COLOR_DEPTH)(c)
 179:c:\projects\paindrain\arduinolcd\test\pain drain\libraries\lvgl\src\misc\lv_color.h **** #define LV_COLOR_GET_G(c) LV_CONCAT(LV_COLOR_GET_G, LV_COLOR_DEPTH)(c)
 180:c:\projects\paindrain\arduinolcd\test\pain drain\libraries\lvgl\src\misc\lv_color.h **** #define LV_COLOR_GET_B(c) LV_CONCAT(LV_COLOR_GET_B, LV_COLOR_DEPTH)(c)
 181:c:\projects\paindrain\arduinolcd\test\pain drain\libraries\lvgl\src\misc\lv_color.h **** #define LV_COLOR_GET_A(c) LV_CONCAT(LV_COLOR_GET_A, LV_COLOR_DEPTH)(c)
 182:c:\projects\paindrain\arduinolcd\test\pain drain\libraries\lvgl\src\misc\lv_color.h **** 
 183:c:\projects\paindrain\arduinolcd\test\pain drain\libraries\lvgl\src\misc\lv_color.h **** #define _LV_COLOR_ZERO_INITIALIZER LV_CONCAT(_LV_COLOR_ZERO_INITIALIZER, LV_COLOR_DEPTH)
 184:c:\projects\paindrain\arduinolcd\test\pain drain\libraries\lvgl\src\misc\lv_color.h **** #define LV_COLOR_MAKE(r8, g8, b8) LV_CONCAT(LV_COLOR_MAKE, LV_COLOR_DEPTH)(r8, g8, b8)
 185:c:\projects\paindrain\arduinolcd\test\pain drain\libraries\lvgl\src\misc\lv_color.h **** 
 186:c:\projects\paindrain\arduinolcd\test\pain drain\libraries\lvgl\src\misc\lv_color.h **** /**********************
 187:c:\projects\paindrain\arduinolcd\test\pain drain\libraries\lvgl\src\misc\lv_color.h ****  *      TYPEDEFS
 188:c:\projects\paindrain\arduinolcd\test\pain drain\libraries\lvgl\src\misc\lv_color.h ****  **********************/
 189:c:\projects\paindrain\arduinolcd\test\pain drain\libraries\lvgl\src\misc\lv_color.h **** 
 190:c:\projects\paindrain\arduinolcd\test\pain drain\libraries\lvgl\src\misc\lv_color.h **** typedef union {
 191:c:\projects\paindrain\arduinolcd\test\pain drain\libraries\lvgl\src\misc\lv_color.h ****     uint8_t full; /*must be declared first to set all bits of byte via initializer list*/
 192:c:\projects\paindrain\arduinolcd\test\pain drain\libraries\lvgl\src\misc\lv_color.h ****     union {
 193:c:\projects\paindrain\arduinolcd\test\pain drain\libraries\lvgl\src\misc\lv_color.h ****         uint8_t blue : 1;
 194:c:\projects\paindrain\arduinolcd\test\pain drain\libraries\lvgl\src\misc\lv_color.h ****         uint8_t green : 1;
 195:c:\projects\paindrain\arduinolcd\test\pain drain\libraries\lvgl\src\misc\lv_color.h ****         uint8_t red : 1;
 196:c:\projects\paindrain\arduinolcd\test\pain drain\libraries\lvgl\src\misc\lv_color.h ****     } ch;
 197:c:\projects\paindrain\arduinolcd\test\pain drain\libraries\lvgl\src\misc\lv_color.h **** } lv_color1_t;
 198:c:\projects\paindrain\arduinolcd\test\pain drain\libraries\lvgl\src\misc\lv_color.h **** 
 199:c:\projects\paindrain\arduinolcd\test\pain drain\libraries\lvgl\src\misc\lv_color.h **** typedef union {
 200:c:\projects\paindrain\arduinolcd\test\pain drain\libraries\lvgl\src\misc\lv_color.h ****     struct {
 201:c:\projects\paindrain\arduinolcd\test\pain drain\libraries\lvgl\src\misc\lv_color.h ****         uint8_t blue : 2;
 202:c:\projects\paindrain\arduinolcd\test\pain drain\libraries\lvgl\src\misc\lv_color.h ****         uint8_t green : 3;
 203:c:\projects\paindrain\arduinolcd\test\pain drain\libraries\lvgl\src\misc\lv_color.h ****         uint8_t red : 3;
 204:c:\projects\paindrain\arduinolcd\test\pain drain\libraries\lvgl\src\misc\lv_color.h ****     } ch;
 205:c:\projects\paindrain\arduinolcd\test\pain drain\libraries\lvgl\src\misc\lv_color.h ****     uint8_t full;
 206:c:\projects\paindrain\arduinolcd\test\pain drain\libraries\lvgl\src\misc\lv_color.h **** } lv_color8_t;
 207:c:\projects\paindrain\arduinolcd\test\pain drain\libraries\lvgl\src\misc\lv_color.h **** 
 208:c:\projects\paindrain\arduinolcd\test\pain drain\libraries\lvgl\src\misc\lv_color.h **** typedef union {
 209:c:\projects\paindrain\arduinolcd\test\pain drain\libraries\lvgl\src\misc\lv_color.h ****     struct {
 210:c:\projects\paindrain\arduinolcd\test\pain drain\libraries\lvgl\src\misc\lv_color.h **** #if LV_COLOR_16_SWAP == 0
 211:c:\projects\paindrain\arduinolcd\test\pain drain\libraries\lvgl\src\misc\lv_color.h ****         uint16_t blue : 5;
 212:c:\projects\paindrain\arduinolcd\test\pain drain\libraries\lvgl\src\misc\lv_color.h ****         uint16_t green : 6;
 213:c:\projects\paindrain\arduinolcd\test\pain drain\libraries\lvgl\src\misc\lv_color.h ****         uint16_t red : 5;
 214:c:\projects\paindrain\arduinolcd\test\pain drain\libraries\lvgl\src\misc\lv_color.h **** #else
 215:c:\projects\paindrain\arduinolcd\test\pain drain\libraries\lvgl\src\misc\lv_color.h ****         uint16_t green_h : 3;
 216:c:\projects\paindrain\arduinolcd\test\pain drain\libraries\lvgl\src\misc\lv_color.h ****         uint16_t red : 5;
 217:c:\projects\paindrain\arduinolcd\test\pain drain\libraries\lvgl\src\misc\lv_color.h ****         uint16_t blue : 5;
 218:c:\projects\paindrain\arduinolcd\test\pain drain\libraries\lvgl\src\misc\lv_color.h ****         uint16_t green_l : 3;
 219:c:\projects\paindrain\arduinolcd\test\pain drain\libraries\lvgl\src\misc\lv_color.h **** #endif
 220:c:\projects\paindrain\arduinolcd\test\pain drain\libraries\lvgl\src\misc\lv_color.h ****     } ch;
 221:c:\projects\paindrain\arduinolcd\test\pain drain\libraries\lvgl\src\misc\lv_color.h ****     uint16_t full;
ARM GAS  C:\Users\haske\AppData\Local\Temp\cc9HFfJU.s 			page 30


 222:c:\projects\paindrain\arduinolcd\test\pain drain\libraries\lvgl\src\misc\lv_color.h **** } lv_color16_t;
 223:c:\projects\paindrain\arduinolcd\test\pain drain\libraries\lvgl\src\misc\lv_color.h **** 
 224:c:\projects\paindrain\arduinolcd\test\pain drain\libraries\lvgl\src\misc\lv_color.h **** typedef union {
 225:c:\projects\paindrain\arduinolcd\test\pain drain\libraries\lvgl\src\misc\lv_color.h ****     struct {
 226:c:\projects\paindrain\arduinolcd\test\pain drain\libraries\lvgl\src\misc\lv_color.h ****         uint8_t blue;
 227:c:\projects\paindrain\arduinolcd\test\pain drain\libraries\lvgl\src\misc\lv_color.h ****         uint8_t green;
 228:c:\projects\paindrain\arduinolcd\test\pain drain\libraries\lvgl\src\misc\lv_color.h ****         uint8_t red;
 229:c:\projects\paindrain\arduinolcd\test\pain drain\libraries\lvgl\src\misc\lv_color.h ****         uint8_t alpha;
 230:c:\projects\paindrain\arduinolcd\test\pain drain\libraries\lvgl\src\misc\lv_color.h ****     } ch;
 231:c:\projects\paindrain\arduinolcd\test\pain drain\libraries\lvgl\src\misc\lv_color.h ****     uint32_t full;
 232:c:\projects\paindrain\arduinolcd\test\pain drain\libraries\lvgl\src\misc\lv_color.h **** } lv_color32_t;
 233:c:\projects\paindrain\arduinolcd\test\pain drain\libraries\lvgl\src\misc\lv_color.h **** 
 234:c:\projects\paindrain\arduinolcd\test\pain drain\libraries\lvgl\src\misc\lv_color.h **** typedef LV_CONCAT3(uint, LV_COLOR_SIZE, _t) lv_color_int_t;
 235:c:\projects\paindrain\arduinolcd\test\pain drain\libraries\lvgl\src\misc\lv_color.h **** typedef LV_CONCAT3(lv_color, LV_COLOR_DEPTH, _t) lv_color_t;
 236:c:\projects\paindrain\arduinolcd\test\pain drain\libraries\lvgl\src\misc\lv_color.h **** 
 237:c:\projects\paindrain\arduinolcd\test\pain drain\libraries\lvgl\src\misc\lv_color.h **** typedef struct {
 238:c:\projects\paindrain\arduinolcd\test\pain drain\libraries\lvgl\src\misc\lv_color.h ****     uint16_t h;
 239:c:\projects\paindrain\arduinolcd\test\pain drain\libraries\lvgl\src\misc\lv_color.h ****     uint8_t s;
 240:c:\projects\paindrain\arduinolcd\test\pain drain\libraries\lvgl\src\misc\lv_color.h ****     uint8_t v;
 241:c:\projects\paindrain\arduinolcd\test\pain drain\libraries\lvgl\src\misc\lv_color.h **** } lv_color_hsv_t;
 242:c:\projects\paindrain\arduinolcd\test\pain drain\libraries\lvgl\src\misc\lv_color.h **** 
 243:c:\projects\paindrain\arduinolcd\test\pain drain\libraries\lvgl\src\misc\lv_color.h **** //! @cond Doxygen_Suppress
 244:c:\projects\paindrain\arduinolcd\test\pain drain\libraries\lvgl\src\misc\lv_color.h **** /*No idea where the guard is required but else throws warnings in the docs*/
 245:c:\projects\paindrain\arduinolcd\test\pain drain\libraries\lvgl\src\misc\lv_color.h **** typedef uint8_t lv_opa_t;
 246:c:\projects\paindrain\arduinolcd\test\pain drain\libraries\lvgl\src\misc\lv_color.h **** //! @endcond
 247:c:\projects\paindrain\arduinolcd\test\pain drain\libraries\lvgl\src\misc\lv_color.h **** 
 248:c:\projects\paindrain\arduinolcd\test\pain drain\libraries\lvgl\src\misc\lv_color.h **** struct _lv_color_filter_dsc_t;
 249:c:\projects\paindrain\arduinolcd\test\pain drain\libraries\lvgl\src\misc\lv_color.h **** 
 250:c:\projects\paindrain\arduinolcd\test\pain drain\libraries\lvgl\src\misc\lv_color.h **** typedef lv_color_t (*lv_color_filter_cb_t)(const struct _lv_color_filter_dsc_t *, lv_color_t, lv_op
 251:c:\projects\paindrain\arduinolcd\test\pain drain\libraries\lvgl\src\misc\lv_color.h **** 
 252:c:\projects\paindrain\arduinolcd\test\pain drain\libraries\lvgl\src\misc\lv_color.h **** typedef struct _lv_color_filter_dsc_t {
 253:c:\projects\paindrain\arduinolcd\test\pain drain\libraries\lvgl\src\misc\lv_color.h ****     lv_color_filter_cb_t filter_cb;
 254:c:\projects\paindrain\arduinolcd\test\pain drain\libraries\lvgl\src\misc\lv_color.h ****     void * user_data;
 255:c:\projects\paindrain\arduinolcd\test\pain drain\libraries\lvgl\src\misc\lv_color.h **** } lv_color_filter_dsc_t;
 256:c:\projects\paindrain\arduinolcd\test\pain drain\libraries\lvgl\src\misc\lv_color.h **** 
 257:c:\projects\paindrain\arduinolcd\test\pain drain\libraries\lvgl\src\misc\lv_color.h **** 
 258:c:\projects\paindrain\arduinolcd\test\pain drain\libraries\lvgl\src\misc\lv_color.h **** typedef enum {
 259:c:\projects\paindrain\arduinolcd\test\pain drain\libraries\lvgl\src\misc\lv_color.h ****     LV_PALETTE_RED,
 260:c:\projects\paindrain\arduinolcd\test\pain drain\libraries\lvgl\src\misc\lv_color.h ****     LV_PALETTE_PINK,
 261:c:\projects\paindrain\arduinolcd\test\pain drain\libraries\lvgl\src\misc\lv_color.h ****     LV_PALETTE_PURPLE,
 262:c:\projects\paindrain\arduinolcd\test\pain drain\libraries\lvgl\src\misc\lv_color.h ****     LV_PALETTE_DEEP_PURPLE,
 263:c:\projects\paindrain\arduinolcd\test\pain drain\libraries\lvgl\src\misc\lv_color.h ****     LV_PALETTE_INDIGO,
 264:c:\projects\paindrain\arduinolcd\test\pain drain\libraries\lvgl\src\misc\lv_color.h ****     LV_PALETTE_BLUE,
 265:c:\projects\paindrain\arduinolcd\test\pain drain\libraries\lvgl\src\misc\lv_color.h ****     LV_PALETTE_LIGHT_BLUE,
 266:c:\projects\paindrain\arduinolcd\test\pain drain\libraries\lvgl\src\misc\lv_color.h ****     LV_PALETTE_CYAN,
 267:c:\projects\paindrain\arduinolcd\test\pain drain\libraries\lvgl\src\misc\lv_color.h ****     LV_PALETTE_TEAL,
 268:c:\projects\paindrain\arduinolcd\test\pain drain\libraries\lvgl\src\misc\lv_color.h ****     LV_PALETTE_GREEN,
 269:c:\projects\paindrain\arduinolcd\test\pain drain\libraries\lvgl\src\misc\lv_color.h ****     LV_PALETTE_LIGHT_GREEN,
 270:c:\projects\paindrain\arduinolcd\test\pain drain\libraries\lvgl\src\misc\lv_color.h ****     LV_PALETTE_LIME,
 271:c:\projects\paindrain\arduinolcd\test\pain drain\libraries\lvgl\src\misc\lv_color.h ****     LV_PALETTE_YELLOW,
 272:c:\projects\paindrain\arduinolcd\test\pain drain\libraries\lvgl\src\misc\lv_color.h ****     LV_PALETTE_AMBER,
 273:c:\projects\paindrain\arduinolcd\test\pain drain\libraries\lvgl\src\misc\lv_color.h ****     LV_PALETTE_ORANGE,
 274:c:\projects\paindrain\arduinolcd\test\pain drain\libraries\lvgl\src\misc\lv_color.h ****     LV_PALETTE_DEEP_ORANGE,
 275:c:\projects\paindrain\arduinolcd\test\pain drain\libraries\lvgl\src\misc\lv_color.h ****     LV_PALETTE_BROWN,
 276:c:\projects\paindrain\arduinolcd\test\pain drain\libraries\lvgl\src\misc\lv_color.h ****     LV_PALETTE_BLUE_GREY,
 277:c:\projects\paindrain\arduinolcd\test\pain drain\libraries\lvgl\src\misc\lv_color.h ****     LV_PALETTE_GREY,
 278:c:\projects\paindrain\arduinolcd\test\pain drain\libraries\lvgl\src\misc\lv_color.h ****     _LV_PALETTE_LAST,
ARM GAS  C:\Users\haske\AppData\Local\Temp\cc9HFfJU.s 			page 31


 279:c:\projects\paindrain\arduinolcd\test\pain drain\libraries\lvgl\src\misc\lv_color.h ****     LV_PALETTE_NONE = 0xff,
 280:c:\projects\paindrain\arduinolcd\test\pain drain\libraries\lvgl\src\misc\lv_color.h **** } lv_palette_t;
 281:c:\projects\paindrain\arduinolcd\test\pain drain\libraries\lvgl\src\misc\lv_color.h **** 
 282:c:\projects\paindrain\arduinolcd\test\pain drain\libraries\lvgl\src\misc\lv_color.h **** /**********************
 283:c:\projects\paindrain\arduinolcd\test\pain drain\libraries\lvgl\src\misc\lv_color.h ****  * GLOBAL PROTOTYPES
 284:c:\projects\paindrain\arduinolcd\test\pain drain\libraries\lvgl\src\misc\lv_color.h ****  **********************/
 285:c:\projects\paindrain\arduinolcd\test\pain drain\libraries\lvgl\src\misc\lv_color.h **** 
 286:c:\projects\paindrain\arduinolcd\test\pain drain\libraries\lvgl\src\misc\lv_color.h **** /*In color conversations:
 287:c:\projects\paindrain\arduinolcd\test\pain drain\libraries\lvgl\src\misc\lv_color.h ****  * - When converting to bigger color type the LSB weight of 1 LSB is calculated
 288:c:\projects\paindrain\arduinolcd\test\pain drain\libraries\lvgl\src\misc\lv_color.h ****  *   E.g. 16 bit Red has 5 bits
 289:c:\projects\paindrain\arduinolcd\test\pain drain\libraries\lvgl\src\misc\lv_color.h ****  *         8 bit Red has 3 bits
 290:c:\projects\paindrain\arduinolcd\test\pain drain\libraries\lvgl\src\misc\lv_color.h ****  *        ----------------------
 291:c:\projects\paindrain\arduinolcd\test\pain drain\libraries\lvgl\src\misc\lv_color.h ****  *        8 bit red LSB = (2^5 - 1) / (2^3 - 1) = 31 / 7 = 4
 292:c:\projects\paindrain\arduinolcd\test\pain drain\libraries\lvgl\src\misc\lv_color.h ****  *
 293:c:\projects\paindrain\arduinolcd\test\pain drain\libraries\lvgl\src\misc\lv_color.h ****  * - When calculating to smaller color type simply shift out the LSBs
 294:c:\projects\paindrain\arduinolcd\test\pain drain\libraries\lvgl\src\misc\lv_color.h ****  *   E.g.  8 bit Red has 3 bits
 295:c:\projects\paindrain\arduinolcd\test\pain drain\libraries\lvgl\src\misc\lv_color.h ****  *        16 bit Red has 5 bits
 296:c:\projects\paindrain\arduinolcd\test\pain drain\libraries\lvgl\src\misc\lv_color.h ****  *        ----------------------
 297:c:\projects\paindrain\arduinolcd\test\pain drain\libraries\lvgl\src\misc\lv_color.h ****  *         Shift right with 5 - 3 = 2
 298:c:\projects\paindrain\arduinolcd\test\pain drain\libraries\lvgl\src\misc\lv_color.h ****  */
 299:c:\projects\paindrain\arduinolcd\test\pain drain\libraries\lvgl\src\misc\lv_color.h **** static inline uint8_t lv_color_to1(lv_color_t color)
 300:c:\projects\paindrain\arduinolcd\test\pain drain\libraries\lvgl\src\misc\lv_color.h **** {
 301:c:\projects\paindrain\arduinolcd\test\pain drain\libraries\lvgl\src\misc\lv_color.h **** #if LV_COLOR_DEPTH == 1
 302:c:\projects\paindrain\arduinolcd\test\pain drain\libraries\lvgl\src\misc\lv_color.h ****     return color.full;
 303:c:\projects\paindrain\arduinolcd\test\pain drain\libraries\lvgl\src\misc\lv_color.h **** #elif LV_COLOR_DEPTH == 8
 304:c:\projects\paindrain\arduinolcd\test\pain drain\libraries\lvgl\src\misc\lv_color.h ****     if((LV_COLOR_GET_R(color) & 0x4) || (LV_COLOR_GET_G(color) & 0x4) || (LV_COLOR_GET_B(color) & 0
 305:c:\projects\paindrain\arduinolcd\test\pain drain\libraries\lvgl\src\misc\lv_color.h ****         return 1;
 306:c:\projects\paindrain\arduinolcd\test\pain drain\libraries\lvgl\src\misc\lv_color.h ****     }
 307:c:\projects\paindrain\arduinolcd\test\pain drain\libraries\lvgl\src\misc\lv_color.h ****     else {
 308:c:\projects\paindrain\arduinolcd\test\pain drain\libraries\lvgl\src\misc\lv_color.h ****         return 0;
 309:c:\projects\paindrain\arduinolcd\test\pain drain\libraries\lvgl\src\misc\lv_color.h ****     }
 310:c:\projects\paindrain\arduinolcd\test\pain drain\libraries\lvgl\src\misc\lv_color.h **** #elif LV_COLOR_DEPTH == 16
 311:c:\projects\paindrain\arduinolcd\test\pain drain\libraries\lvgl\src\misc\lv_color.h ****     if((LV_COLOR_GET_R(color) & 0x10) || (LV_COLOR_GET_G(color) & 0x20) || (LV_COLOR_GET_B(color) &
 312:c:\projects\paindrain\arduinolcd\test\pain drain\libraries\lvgl\src\misc\lv_color.h ****         return 1;
 313:c:\projects\paindrain\arduinolcd\test\pain drain\libraries\lvgl\src\misc\lv_color.h ****     }
 314:c:\projects\paindrain\arduinolcd\test\pain drain\libraries\lvgl\src\misc\lv_color.h ****     else {
 315:c:\projects\paindrain\arduinolcd\test\pain drain\libraries\lvgl\src\misc\lv_color.h ****         return 0;
 316:c:\projects\paindrain\arduinolcd\test\pain drain\libraries\lvgl\src\misc\lv_color.h ****     }
 317:c:\projects\paindrain\arduinolcd\test\pain drain\libraries\lvgl\src\misc\lv_color.h **** #elif LV_COLOR_DEPTH == 32
 318:c:\projects\paindrain\arduinolcd\test\pain drain\libraries\lvgl\src\misc\lv_color.h ****     if((LV_COLOR_GET_R(color) & 0x80) || (LV_COLOR_GET_G(color) & 0x80) || (LV_COLOR_GET_B(color) &
 319:c:\projects\paindrain\arduinolcd\test\pain drain\libraries\lvgl\src\misc\lv_color.h ****         return 1;
 320:c:\projects\paindrain\arduinolcd\test\pain drain\libraries\lvgl\src\misc\lv_color.h ****     }
 321:c:\projects\paindrain\arduinolcd\test\pain drain\libraries\lvgl\src\misc\lv_color.h ****     else {
 322:c:\projects\paindrain\arduinolcd\test\pain drain\libraries\lvgl\src\misc\lv_color.h ****         return 0;
 323:c:\projects\paindrain\arduinolcd\test\pain drain\libraries\lvgl\src\misc\lv_color.h ****     }
 324:c:\projects\paindrain\arduinolcd\test\pain drain\libraries\lvgl\src\misc\lv_color.h **** #endif
 325:c:\projects\paindrain\arduinolcd\test\pain drain\libraries\lvgl\src\misc\lv_color.h **** }
 326:c:\projects\paindrain\arduinolcd\test\pain drain\libraries\lvgl\src\misc\lv_color.h **** 
 327:c:\projects\paindrain\arduinolcd\test\pain drain\libraries\lvgl\src\misc\lv_color.h **** static inline uint8_t lv_color_to8(lv_color_t color)
 328:c:\projects\paindrain\arduinolcd\test\pain drain\libraries\lvgl\src\misc\lv_color.h **** {
 329:c:\projects\paindrain\arduinolcd\test\pain drain\libraries\lvgl\src\misc\lv_color.h **** #if LV_COLOR_DEPTH == 1
 330:c:\projects\paindrain\arduinolcd\test\pain drain\libraries\lvgl\src\misc\lv_color.h ****     if(color.full == 0)
 331:c:\projects\paindrain\arduinolcd\test\pain drain\libraries\lvgl\src\misc\lv_color.h ****         return 0;
 332:c:\projects\paindrain\arduinolcd\test\pain drain\libraries\lvgl\src\misc\lv_color.h ****     else
 333:c:\projects\paindrain\arduinolcd\test\pain drain\libraries\lvgl\src\misc\lv_color.h ****         return 0xFF;
 334:c:\projects\paindrain\arduinolcd\test\pain drain\libraries\lvgl\src\misc\lv_color.h **** #elif LV_COLOR_DEPTH == 8
 335:c:\projects\paindrain\arduinolcd\test\pain drain\libraries\lvgl\src\misc\lv_color.h ****     return color.full;
ARM GAS  C:\Users\haske\AppData\Local\Temp\cc9HFfJU.s 			page 32


 336:c:\projects\paindrain\arduinolcd\test\pain drain\libraries\lvgl\src\misc\lv_color.h **** #elif LV_COLOR_DEPTH == 16
 337:c:\projects\paindrain\arduinolcd\test\pain drain\libraries\lvgl\src\misc\lv_color.h ****     lv_color8_t ret;
 338:c:\projects\paindrain\arduinolcd\test\pain drain\libraries\lvgl\src\misc\lv_color.h ****     LV_COLOR_SET_R8(ret, LV_COLOR_GET_R(color) >> 2); /*5 - 3  = 2*/
 339:c:\projects\paindrain\arduinolcd\test\pain drain\libraries\lvgl\src\misc\lv_color.h ****     LV_COLOR_SET_G8(ret, LV_COLOR_GET_G(color) >> 3); /*6 - 3  = 3*/
 340:c:\projects\paindrain\arduinolcd\test\pain drain\libraries\lvgl\src\misc\lv_color.h ****     LV_COLOR_SET_B8(ret, LV_COLOR_GET_B(color) >> 3); /*5 - 2  = 3*/
 341:c:\projects\paindrain\arduinolcd\test\pain drain\libraries\lvgl\src\misc\lv_color.h ****     return ret.full;
 342:c:\projects\paindrain\arduinolcd\test\pain drain\libraries\lvgl\src\misc\lv_color.h **** #elif LV_COLOR_DEPTH == 32
 343:c:\projects\paindrain\arduinolcd\test\pain drain\libraries\lvgl\src\misc\lv_color.h ****     lv_color8_t ret;
 344:c:\projects\paindrain\arduinolcd\test\pain drain\libraries\lvgl\src\misc\lv_color.h ****     LV_COLOR_SET_R8(ret, LV_COLOR_GET_R(color) >> 5); /*8 - 3  = 5*/
 345:c:\projects\paindrain\arduinolcd\test\pain drain\libraries\lvgl\src\misc\lv_color.h ****     LV_COLOR_SET_G8(ret, LV_COLOR_GET_G(color) >> 5); /*8 - 3  = 5*/
 346:c:\projects\paindrain\arduinolcd\test\pain drain\libraries\lvgl\src\misc\lv_color.h ****     LV_COLOR_SET_B8(ret, LV_COLOR_GET_B(color) >> 6); /*8 - 2  = 6*/
 347:c:\projects\paindrain\arduinolcd\test\pain drain\libraries\lvgl\src\misc\lv_color.h ****     return ret.full;
 348:c:\projects\paindrain\arduinolcd\test\pain drain\libraries\lvgl\src\misc\lv_color.h **** #endif
 349:c:\projects\paindrain\arduinolcd\test\pain drain\libraries\lvgl\src\misc\lv_color.h **** }
 350:c:\projects\paindrain\arduinolcd\test\pain drain\libraries\lvgl\src\misc\lv_color.h **** 
 351:c:\projects\paindrain\arduinolcd\test\pain drain\libraries\lvgl\src\misc\lv_color.h **** static inline uint16_t lv_color_to16(lv_color_t color)
 352:c:\projects\paindrain\arduinolcd\test\pain drain\libraries\lvgl\src\misc\lv_color.h **** {
 353:c:\projects\paindrain\arduinolcd\test\pain drain\libraries\lvgl\src\misc\lv_color.h **** #if LV_COLOR_DEPTH == 1
 354:c:\projects\paindrain\arduinolcd\test\pain drain\libraries\lvgl\src\misc\lv_color.h ****     if(color.full == 0)
 355:c:\projects\paindrain\arduinolcd\test\pain drain\libraries\lvgl\src\misc\lv_color.h ****         return 0;
 356:c:\projects\paindrain\arduinolcd\test\pain drain\libraries\lvgl\src\misc\lv_color.h ****     else
 357:c:\projects\paindrain\arduinolcd\test\pain drain\libraries\lvgl\src\misc\lv_color.h ****         return 0xFFFF;
 358:c:\projects\paindrain\arduinolcd\test\pain drain\libraries\lvgl\src\misc\lv_color.h **** #elif LV_COLOR_DEPTH == 8
 359:c:\projects\paindrain\arduinolcd\test\pain drain\libraries\lvgl\src\misc\lv_color.h ****     lv_color16_t ret;
 360:c:\projects\paindrain\arduinolcd\test\pain drain\libraries\lvgl\src\misc\lv_color.h ****     LV_COLOR_SET_R16(ret, LV_COLOR_GET_R(color) * 4);  /*(2^5 - 1)/(2^3 - 1) = 31/7 = 4*/
 361:c:\projects\paindrain\arduinolcd\test\pain drain\libraries\lvgl\src\misc\lv_color.h ****     LV_COLOR_SET_G16(ret, LV_COLOR_GET_G(color) * 9);  /*(2^6 - 1)/(2^3 - 1) = 63/7 = 9*/
 362:c:\projects\paindrain\arduinolcd\test\pain drain\libraries\lvgl\src\misc\lv_color.h ****     LV_COLOR_SET_B16(ret, LV_COLOR_GET_B(color) * 10); /*(2^5 - 1)/(2^2 - 1) = 31/3 = 10*/
 363:c:\projects\paindrain\arduinolcd\test\pain drain\libraries\lvgl\src\misc\lv_color.h ****     return ret.full;
 364:c:\projects\paindrain\arduinolcd\test\pain drain\libraries\lvgl\src\misc\lv_color.h **** #elif LV_COLOR_DEPTH == 16
 365:c:\projects\paindrain\arduinolcd\test\pain drain\libraries\lvgl\src\misc\lv_color.h ****     return color.full;
 366:c:\projects\paindrain\arduinolcd\test\pain drain\libraries\lvgl\src\misc\lv_color.h **** #elif LV_COLOR_DEPTH == 32
 367:c:\projects\paindrain\arduinolcd\test\pain drain\libraries\lvgl\src\misc\lv_color.h ****     lv_color16_t ret;
 368:c:\projects\paindrain\arduinolcd\test\pain drain\libraries\lvgl\src\misc\lv_color.h ****     LV_COLOR_SET_R16(ret, LV_COLOR_GET_R(color) >> 3); /*8 - 5  = 3*/
 369:c:\projects\paindrain\arduinolcd\test\pain drain\libraries\lvgl\src\misc\lv_color.h ****     LV_COLOR_SET_G16(ret, LV_COLOR_GET_G(color) >> 2); /*8 - 6  = 2*/
 370:c:\projects\paindrain\arduinolcd\test\pain drain\libraries\lvgl\src\misc\lv_color.h ****     LV_COLOR_SET_B16(ret, LV_COLOR_GET_B(color) >> 3); /*8 - 5  = 3*/
 371:c:\projects\paindrain\arduinolcd\test\pain drain\libraries\lvgl\src\misc\lv_color.h ****     return ret.full;
 372:c:\projects\paindrain\arduinolcd\test\pain drain\libraries\lvgl\src\misc\lv_color.h **** #endif
 373:c:\projects\paindrain\arduinolcd\test\pain drain\libraries\lvgl\src\misc\lv_color.h **** }
 374:c:\projects\paindrain\arduinolcd\test\pain drain\libraries\lvgl\src\misc\lv_color.h **** 
 375:c:\projects\paindrain\arduinolcd\test\pain drain\libraries\lvgl\src\misc\lv_color.h **** static inline uint32_t lv_color_to32(lv_color_t color)
 376:c:\projects\paindrain\arduinolcd\test\pain drain\libraries\lvgl\src\misc\lv_color.h **** {
 377:c:\projects\paindrain\arduinolcd\test\pain drain\libraries\lvgl\src\misc\lv_color.h **** #if LV_COLOR_DEPTH == 1
 378:c:\projects\paindrain\arduinolcd\test\pain drain\libraries\lvgl\src\misc\lv_color.h ****     if(color.full == 0)
 379:c:\projects\paindrain\arduinolcd\test\pain drain\libraries\lvgl\src\misc\lv_color.h ****         return 0xFF000000;
 380:c:\projects\paindrain\arduinolcd\test\pain drain\libraries\lvgl\src\misc\lv_color.h ****     else
 381:c:\projects\paindrain\arduinolcd\test\pain drain\libraries\lvgl\src\misc\lv_color.h ****         return 0xFFFFFFFF;
 382:c:\projects\paindrain\arduinolcd\test\pain drain\libraries\lvgl\src\misc\lv_color.h **** #elif LV_COLOR_DEPTH == 8
 383:c:\projects\paindrain\arduinolcd\test\pain drain\libraries\lvgl\src\misc\lv_color.h ****     lv_color32_t ret;
 384:c:\projects\paindrain\arduinolcd\test\pain drain\libraries\lvgl\src\misc\lv_color.h ****     LV_COLOR_SET_R32(ret, LV_COLOR_GET_R(color) * 36); /*(2^8 - 1)/(2^3 - 1) = 255/7 = 36*/
 385:c:\projects\paindrain\arduinolcd\test\pain drain\libraries\lvgl\src\misc\lv_color.h ****     LV_COLOR_SET_G32(ret, LV_COLOR_GET_G(color) * 36); /*(2^8 - 1)/(2^3 - 1) = 255/7 = 36*/
 386:c:\projects\paindrain\arduinolcd\test\pain drain\libraries\lvgl\src\misc\lv_color.h ****     LV_COLOR_SET_B32(ret, LV_COLOR_GET_B(color) * 85); /*(2^8 - 1)/(2^2 - 1) = 255/3 = 85*/
 387:c:\projects\paindrain\arduinolcd\test\pain drain\libraries\lvgl\src\misc\lv_color.h ****     LV_COLOR_SET_A32(ret, 0xFF);
 388:c:\projects\paindrain\arduinolcd\test\pain drain\libraries\lvgl\src\misc\lv_color.h ****     return ret.full;
 389:c:\projects\paindrain\arduinolcd\test\pain drain\libraries\lvgl\src\misc\lv_color.h **** #elif LV_COLOR_DEPTH == 16
 390:c:\projects\paindrain\arduinolcd\test\pain drain\libraries\lvgl\src\misc\lv_color.h ****     /**
 391:c:\projects\paindrain\arduinolcd\test\pain drain\libraries\lvgl\src\misc\lv_color.h ****      * The floating point math for conversion is:
 392:c:\projects\paindrain\arduinolcd\test\pain drain\libraries\lvgl\src\misc\lv_color.h ****      *  valueto = valuefrom * ( (2^bitsto - 1) / (float)(2^bitsfrom - 1) )
ARM GAS  C:\Users\haske\AppData\Local\Temp\cc9HFfJU.s 			page 33


 393:c:\projects\paindrain\arduinolcd\test\pain drain\libraries\lvgl\src\misc\lv_color.h ****      * The faster integer math for conversion is:
 394:c:\projects\paindrain\arduinolcd\test\pain drain\libraries\lvgl\src\misc\lv_color.h ****      *  valueto = ( valuefrom * multiplier + adder ) >> divisor
 395:c:\projects\paindrain\arduinolcd\test\pain drain\libraries\lvgl\src\misc\lv_color.h ****      *   multiplier = FLOOR( ( (2^bitsto - 1) << divisor ) / (float)(2^bitsfrom - 1) )
 396:c:\projects\paindrain\arduinolcd\test\pain drain\libraries\lvgl\src\misc\lv_color.h ****      *
 397:c:\projects\paindrain\arduinolcd\test\pain drain\libraries\lvgl\src\misc\lv_color.h ****      * Find the first divisor where ( adder >> divisor ) <= 0
 398:c:\projects\paindrain\arduinolcd\test\pain drain\libraries\lvgl\src\misc\lv_color.h ****      *
 399:c:\projects\paindrain\arduinolcd\test\pain drain\libraries\lvgl\src\misc\lv_color.h ****      * 5-bit to 8-bit: ( 31 * multiplier + adder ) >> divisor = 255
 400:c:\projects\paindrain\arduinolcd\test\pain drain\libraries\lvgl\src\misc\lv_color.h ****      * divisor  multiplier  adder  min (0)  max (31)
 401:c:\projects\paindrain\arduinolcd\test\pain drain\libraries\lvgl\src\misc\lv_color.h ****      *       0           8      7        7       255
 402:c:\projects\paindrain\arduinolcd\test\pain drain\libraries\lvgl\src\misc\lv_color.h ****      *       1          16     14        7       255
 403:c:\projects\paindrain\arduinolcd\test\pain drain\libraries\lvgl\src\misc\lv_color.h ****      *       2          32     28        7       255
 404:c:\projects\paindrain\arduinolcd\test\pain drain\libraries\lvgl\src\misc\lv_color.h ****      *       3          65     25        3       255
 405:c:\projects\paindrain\arduinolcd\test\pain drain\libraries\lvgl\src\misc\lv_color.h ****      *       4         131     19        1       255
 406:c:\projects\paindrain\arduinolcd\test\pain drain\libraries\lvgl\src\misc\lv_color.h ****      *       5         263      7        0       255
 407:c:\projects\paindrain\arduinolcd\test\pain drain\libraries\lvgl\src\misc\lv_color.h ****      *
 408:c:\projects\paindrain\arduinolcd\test\pain drain\libraries\lvgl\src\misc\lv_color.h ****      * 6-bit to 8-bit: 255 = ( 63 * multiplier + adder ) >> divisor
 409:c:\projects\paindrain\arduinolcd\test\pain drain\libraries\lvgl\src\misc\lv_color.h ****      * divisor  multiplier  adder  min (0)  max (63)
 410:c:\projects\paindrain\arduinolcd\test\pain drain\libraries\lvgl\src\misc\lv_color.h ****      *       0           4      3        3       255
 411:c:\projects\paindrain\arduinolcd\test\pain drain\libraries\lvgl\src\misc\lv_color.h ****      *       1           8      6        3       255
 412:c:\projects\paindrain\arduinolcd\test\pain drain\libraries\lvgl\src\misc\lv_color.h ****      *       2          16     12        3       255
 413:c:\projects\paindrain\arduinolcd\test\pain drain\libraries\lvgl\src\misc\lv_color.h ****      *       3          32     24        3       255
 414:c:\projects\paindrain\arduinolcd\test\pain drain\libraries\lvgl\src\misc\lv_color.h ****      *       4          64     48        3       255
 415:c:\projects\paindrain\arduinolcd\test\pain drain\libraries\lvgl\src\misc\lv_color.h ****      *       5         129     33        1       255
 416:c:\projects\paindrain\arduinolcd\test\pain drain\libraries\lvgl\src\misc\lv_color.h ****      *       6         259      3        0       255
 417:c:\projects\paindrain\arduinolcd\test\pain drain\libraries\lvgl\src\misc\lv_color.h ****      */
 418:c:\projects\paindrain\arduinolcd\test\pain drain\libraries\lvgl\src\misc\lv_color.h **** 
 419:c:\projects\paindrain\arduinolcd\test\pain drain\libraries\lvgl\src\misc\lv_color.h ****     lv_color32_t ret;
 420:c:\projects\paindrain\arduinolcd\test\pain drain\libraries\lvgl\src\misc\lv_color.h ****     LV_COLOR_SET_R32(ret, (LV_COLOR_GET_R(color) * 263 + 7) >> 5);
 421:c:\projects\paindrain\arduinolcd\test\pain drain\libraries\lvgl\src\misc\lv_color.h ****     LV_COLOR_SET_G32(ret, (LV_COLOR_GET_G(color) * 259 + 3) >> 6);
 422:c:\projects\paindrain\arduinolcd\test\pain drain\libraries\lvgl\src\misc\lv_color.h ****     LV_COLOR_SET_B32(ret, (LV_COLOR_GET_B(color) * 263 + 7) >> 5);
 423:c:\projects\paindrain\arduinolcd\test\pain drain\libraries\lvgl\src\misc\lv_color.h ****     LV_COLOR_SET_A32(ret, 0xFF);
 424:c:\projects\paindrain\arduinolcd\test\pain drain\libraries\lvgl\src\misc\lv_color.h ****     return ret.full;
 425:c:\projects\paindrain\arduinolcd\test\pain drain\libraries\lvgl\src\misc\lv_color.h **** #elif LV_COLOR_DEPTH == 32
 426:c:\projects\paindrain\arduinolcd\test\pain drain\libraries\lvgl\src\misc\lv_color.h ****     return color.full;
 427:c:\projects\paindrain\arduinolcd\test\pain drain\libraries\lvgl\src\misc\lv_color.h **** #endif
 428:c:\projects\paindrain\arduinolcd\test\pain drain\libraries\lvgl\src\misc\lv_color.h **** }
 429:c:\projects\paindrain\arduinolcd\test\pain drain\libraries\lvgl\src\misc\lv_color.h **** 
 430:c:\projects\paindrain\arduinolcd\test\pain drain\libraries\lvgl\src\misc\lv_color.h **** //! @cond Doxygen_Suppress
 431:c:\projects\paindrain\arduinolcd\test\pain drain\libraries\lvgl\src\misc\lv_color.h **** 
 432:c:\projects\paindrain\arduinolcd\test\pain drain\libraries\lvgl\src\misc\lv_color.h **** /**
 433:c:\projects\paindrain\arduinolcd\test\pain drain\libraries\lvgl\src\misc\lv_color.h ****  * Mix two colors with a given ratio.
 434:c:\projects\paindrain\arduinolcd\test\pain drain\libraries\lvgl\src\misc\lv_color.h ****  * @param c1 the first color to mix (usually the foreground)
 435:c:\projects\paindrain\arduinolcd\test\pain drain\libraries\lvgl\src\misc\lv_color.h ****  * @param c2 the second color to mix (usually the background)
 436:c:\projects\paindrain\arduinolcd\test\pain drain\libraries\lvgl\src\misc\lv_color.h ****  * @param mix The ratio of the colors. 0: full `c2`, 255: full `c1`, 127: half `c1` and half`c2`
 437:c:\projects\paindrain\arduinolcd\test\pain drain\libraries\lvgl\src\misc\lv_color.h ****  * @return the mixed color
 438:c:\projects\paindrain\arduinolcd\test\pain drain\libraries\lvgl\src\misc\lv_color.h ****  */
 439:c:\projects\paindrain\arduinolcd\test\pain drain\libraries\lvgl\src\misc\lv_color.h **** LV_ATTRIBUTE_FAST_MEM static inline lv_color_t lv_color_mix(lv_color_t c1, lv_color_t c2, uint8_t m
 440:c:\projects\paindrain\arduinolcd\test\pain drain\libraries\lvgl\src\misc\lv_color.h **** {
 441:c:\projects\paindrain\arduinolcd\test\pain drain\libraries\lvgl\src\misc\lv_color.h ****     lv_color_t ret;
 442:c:\projects\paindrain\arduinolcd\test\pain drain\libraries\lvgl\src\misc\lv_color.h **** 
 443:c:\projects\paindrain\arduinolcd\test\pain drain\libraries\lvgl\src\misc\lv_color.h **** #if LV_COLOR_DEPTH == 16 && LV_COLOR_16_SWAP == 0 && LV_COLOR_MIX_ROUND_OFS == 0
 444:c:\projects\paindrain\arduinolcd\test\pain drain\libraries\lvgl\src\misc\lv_color.h ****     /*Source: https://stackoverflow.com/a/50012418/1999969*/
 445:c:\projects\paindrain\arduinolcd\test\pain drain\libraries\lvgl\src\misc\lv_color.h ****     mix = (uint32_t)((uint32_t)mix + 4) >> 3;
 850              		.loc 2 445 0
 851 028c 9DF82070 		ldrb	r7, [sp, #32]	@ zero_extendqisi2
 852 0290 0437     		adds	r7, r7, #4
 853              	.LVL131:
ARM GAS  C:\Users\haske\AppData\Local\Temp\cc9HFfJU.s 			page 34


 446:c:\projects\paindrain\arduinolcd\test\pain drain\libraries\lvgl\src\misc\lv_color.h ****     uint32_t bg = (uint32_t)((uint32_t)c2.full | ((uint32_t)c2.full << 16)) &
 854              		.loc 2 446 0
 855 0292 A3B2     		uxth	r3, r4
 856 0294 43EA0343 		orr	r3, r3, r3, lsl #16
 857 0298 4A4C     		ldr	r4, .L67
 858              	.LVL132:
 859 029a 2340     		ands	r3, r3, r4
 860              	.LVL133:
 447:c:\projects\paindrain\arduinolcd\test\pain drain\libraries\lvgl\src\misc\lv_color.h ****                   0x7E0F81F; /*0b00000111111000001111100000011111*/
 448:c:\projects\paindrain\arduinolcd\test\pain drain\libraries\lvgl\src\misc\lv_color.h ****     uint32_t fg = (uint32_t)((uint32_t)c1.full | ((uint32_t)c1.full << 16)) & 0x7E0F81F;
 861              		.loc 2 448 0
 862 029c 1FFA8CF2 		uxth	r2, ip
 863 02a0 42EA0242 		orr	r2, r2, r2, lsl #16
 864 02a4 2240     		ands	r2, r2, r4
 865              	.LVL134:
 449:c:\projects\paindrain\arduinolcd\test\pain drain\libraries\lvgl\src\misc\lv_color.h ****     uint32_t result = ((((fg - bg) * mix) >> 5) + bg) & 0x7E0F81F;
 866              		.loc 2 449 0
 867 02a6 D21A     		subs	r2, r2, r3
 868              	.LVL135:
 869 02a8 C7F3C707 		ubfx	r7, r7, #3, #8
 870              	.LVL136:
 871 02ac 02FB07F2 		mul	r2, r2, r7
 872 02b0 03EB5212 		add	r2, r3, r2, lsr #5
 873 02b4 2240     		ands	r2, r2, r4
 874              	.LVL137:
 450:c:\projects\paindrain\arduinolcd\test\pain drain\libraries\lvgl\src\misc\lv_color.h ****     ret.full = (uint16_t)((result >> 16) | result);
 875              		.loc 2 450 0
 876 02b6 42EA1242 		orr	r2, r2, r2, lsr #16
 877              	.LVL138:
 878 02ba 92B2     		uxth	r2, r2
 879              	.LVL139:
 880              	.LBE29:
 881              	.LBE28:
 882              	.LBB30:
 883              	.LBB31:
 445:c:\projects\paindrain\arduinolcd\test\pain drain\libraries\lvgl\src\misc\lv_color.h ****     uint32_t bg = (uint32_t)((uint32_t)c2.full | ((uint32_t)c2.full << 16)) &
 884              		.loc 2 445 0
 885 02bc 9DF81CE0 		ldrb	lr, [sp, #28]	@ zero_extendqisi2
 886              	.LVL140:
 887 02c0 0EF1040E 		add	lr, lr, #4
 888              	.LVL141:
 448:c:\projects\paindrain\arduinolcd\test\pain drain\libraries\lvgl\src\misc\lv_color.h ****     uint32_t result = ((((fg - bg) * mix) >> 5) + bg) & 0x7E0F81F;
 889              		.loc 2 448 0
 890 02c4 87B2     		uxth	r7, r0
 891 02c6 47EA0747 		orr	r7, r7, r7, lsl #16
 892 02ca 2740     		ands	r7, r7, r4
 893              	.LVL142:
 449:c:\projects\paindrain\arduinolcd\test\pain drain\libraries\lvgl\src\misc\lv_color.h ****     ret.full = (uint16_t)((result >> 16) | result);
 894              		.loc 2 449 0
 895 02cc FF1A     		subs	r7, r7, r3
 896              	.LVL143:
 897 02ce CEF3C70E 		ubfx	lr, lr, #3, #8
 898              	.LVL144:
 899 02d2 07FB0EFE 		mul	lr, r7, lr
 900 02d6 03EB5E13 		add	r3, r3, lr, lsr #5
 901              	.LVL145:
 902 02da 2340     		ands	r3, r3, r4
ARM GAS  C:\Users\haske\AppData\Local\Temp\cc9HFfJU.s 			page 35


 903              	.LVL146:
 904              		.loc 2 450 0
 905 02dc 43EA1343 		orr	r3, r3, r3, lsr #16
 906              	.LVL147:
 907 02e0 9BB2     		uxth	r3, r3
 908              	.LVL148:
 909              	.LBE31:
 910              	.LBE30:
 911              	.LBB32:
 912              	.LBB33:
 446:c:\projects\paindrain\arduinolcd\test\pain drain\libraries\lvgl\src\misc\lv_color.h ****                   0x7E0F81F; /*0b00000111111000001111100000011111*/
 913              		.loc 2 446 0
 914 02e2 42EA0242 		orr	r2, r2, r2, lsl #16
 915 02e6 2240     		ands	r2, r2, r4
 916              	.LVL149:
 448:c:\projects\paindrain\arduinolcd\test\pain drain\libraries\lvgl\src\misc\lv_color.h ****     uint32_t result = ((((fg - bg) * mix) >> 5) + bg) & 0x7E0F81F;
 917              		.loc 2 448 0
 918 02e8 43EA0343 		orr	r3, r3, r3, lsl #16
 919 02ec 2340     		ands	r3, r3, r4
 920              	.LVL150:
 449:c:\projects\paindrain\arduinolcd\test\pain drain\libraries\lvgl\src\misc\lv_color.h ****     ret.full = (uint16_t)((result >> 16) | result);
 921              		.loc 2 449 0
 922 02ee 9B1A     		subs	r3, r3, r2
 923              	.LVL151:
 924 02f0 C3F35A03 		ubfx	r3, r3, #1, #27
 925 02f4 1344     		add	r3, r3, r2
 926 02f6 2340     		ands	r3, r3, r4
 927              	.LVL152:
 928              		.loc 2 450 0
 929 02f8 43EA1343 		orr	r3, r3, r3, lsr #16
 930              	.LVL153:
 931              	.LBE33:
 932              	.LBE32:
 427:..\..\..\arduinoLCD\test\Pain Drain\libraries\lvgl\src\draw\sw/lv_draw_sw_transform.c ****             }
 933              		.loc 1 427 0
 934 02fc 1F9A     		ldr	r2, [sp, #124]
 935 02fe 22F81130 		strh	r3, [r2, r1, lsl #1]	@ movhi
 936              	.LBE25:
 348:..\..\..\arduinoLCD\test\Pain Drain\libraries\lvgl\src\draw\sw/lv_draw_sw_transform.c **** 
 937              		.loc 1 348 0
 938 0302 57E0     		b	.L31
 939              	.LVL154:
 940              	.L36:
 941              	.LBB34:
 435:..\..\..\arduinoLCD\test\Pain Drain\libraries\lvgl\src\draw\sw/lv_draw_sw_transform.c **** #elif LV_COLOR_DEPTH == 32
 942              		.loc 1 435 0
 943 0304 0F46     		mov	r7, r1
 944 0306 0198     		ldr	r0, [sp, #4]
 945 0308 045D     		ldrb	r4, [r0, r4]	@ zero_extendqisi2
 946 030a 9EF801C0 		ldrb	ip, [lr, #1]	@ zero_extendqisi2
 947 030e 04EB0C24 		add	r4, r4, ip, lsl #8
 948 0312 A4B2     		uxth	r4, r4
 949 0314 1F98     		ldr	r0, [sp, #124]
 950 0316 20F81140 		strh	r4, [r0, r1, lsl #1]	@ movhi
 440:..\..\..\arduinoLCD\test\Pain Drain\libraries\lvgl\src\draw\sw/lv_draw_sw_transform.c ****                 case LV_IMG_CF_TRUE_COLOR_ALPHA:
 951              		.loc 1 440 0
 952 031a 0498     		ldr	r0, [sp, #16]
ARM GAS  C:\Users\haske\AppData\Local\Temp\cc9HFfJU.s 			page 36


 953 031c 0628     		cmp	r0, #6
 954 031e 06D0     		beq	.L49
 955 0320 1428     		cmp	r0, #20
 956 0322 0BD0     		beq	.L50
 957 0324 0528     		cmp	r0, #5
 958 0326 15D1     		bne	.L65
 442:..\..\..\arduinoLCD\test\Pain Drain\libraries\lvgl\src\draw\sw/lv_draw_sw_transform.c ****                     break;
 959              		.loc 1 442 0
 960 0328 9EF802E0 		ldrb	lr, [lr, #2]	@ zero_extendqisi2
 961              	.LVL155:
 443:..\..\..\arduinoLCD\test\Pain Drain\libraries\lvgl\src\draw\sw/lv_draw_sw_transform.c ****                 case LV_IMG_CF_TRUE_COLOR_CHROMA_KEYED:
 962              		.loc 1 443 0
 963 032c 17E0     		b	.L48
 964              	.LVL156:
 965              	.L49:
 445:..\..\..\arduinoLCD\test\Pain Drain\libraries\lvgl\src\draw\sw/lv_draw_sw_transform.c ****                     break;
 966              		.loc 1 445 0
 967 032e BDF826E0 		ldrh	lr, [sp, #38]
 968              	.LVL157:
 969 0332 7445     		cmp	r4, lr
 970 0334 11D1     		bne	.L64
 971 0336 4FF0000E 		mov	lr, #0
 972 033a 10E0     		b	.L48
 973              	.LVL158:
 974              	.L50:
 449:..\..\..\arduinoLCD\test\Pain Drain\libraries\lvgl\src\draw\sw/lv_draw_sw_transform.c ****                     break;
 975              		.loc 1 449 0
 976 033c 0398     		ldr	r0, [sp, #12]
 977 033e 009C     		ldr	r4, [sp]
 978 0340 00FB04F4 		mul	r4, r0, r4
 979 0344 0A98     		ldr	r0, [sp, #40]
 980 0346 00EB4404 		add	r4, r0, r4, lsl #1
 981 034a 1C44     		add	r4, r4, r3
 982 034c 0198     		ldr	r0, [sp, #4]
 983 034e 10F804E0 		ldrb	lr, [r0, r4]	@ zero_extendqisi2
 984              	.LVL159:
 450:..\..\..\arduinoLCD\test\Pain Drain\libraries\lvgl\src\draw\sw/lv_draw_sw_transform.c **** #endif
 985              		.loc 1 450 0
 986 0352 04E0     		b	.L48
 987              	.LVL160:
 988              	.L65:
 453:..\..\..\arduinoLCD\test\Pain Drain\libraries\lvgl\src\draw\sw/lv_draw_sw_transform.c ****             }
 989              		.loc 1 453 0
 990 0354 4FF0FF0E 		mov	lr, #255
 991              	.LVL161:
 992 0358 01E0     		b	.L48
 993              	.L64:
 445:..\..\..\arduinoLCD\test\Pain Drain\libraries\lvgl\src\draw\sw/lv_draw_sw_transform.c ****                     break;
 994              		.loc 1 445 0
 995 035a 4FF0FF0E 		mov	lr, #255
 996              	.L48:
 997              	.LVL162:
 456:..\..\..\arduinoLCD\test\Pain Drain\libraries\lvgl\src\draw\sw/lv_draw_sw_transform.c ****                 abuf[x] = (a * (0xFF - xs_fract)) >> 8;
 998              		.loc 1 456 0
 999 035e 13B9     		cbnz	r3, .L52
 456:..\..\..\arduinoLCD\test\Pain Drain\libraries\lvgl\src\draw\sw/lv_draw_sw_transform.c ****                 abuf[x] = (a * (0xFF - xs_fract)) >> 8;
 1000              		.loc 1 456 0 is_stmt 0 discriminator 1
ARM GAS  C:\Users\haske\AppData\Local\Temp\cc9HFfJU.s 			page 37


 1001 0360 0298     		ldr	r0, [sp, #8]
 1002 0362 0028     		cmp	r0, #0
 1003 0364 06DB     		blt	.L53
 1004              	.L52:
 456:..\..\..\arduinoLCD\test\Pain Drain\libraries\lvgl\src\draw\sw/lv_draw_sw_transform.c ****                 abuf[x] = (a * (0xFF - xs_fract)) >> 8;
 1005              		.loc 1 456 0 discriminator 3
 1006 0366 0BF1FF34 		add	r4, fp, #-1
 1007 036a A342     		cmp	r3, r4
 1008 036c 0BD1     		bne	.L54
 456:..\..\..\arduinoLCD\test\Pain Drain\libraries\lvgl\src\draw\sw/lv_draw_sw_transform.c ****                 abuf[x] = (a * (0xFF - xs_fract)) >> 8;
 1009              		.loc 1 456 0 discriminator 4
 1010 036e 029B     		ldr	r3, [sp, #8]
 1011              	.LVL163:
 1012 0370 002B     		cmp	r3, #0
 1013 0372 08DD     		ble	.L54
 1014              	.L53:
 457:..\..\..\arduinoLCD\test\Pain Drain\libraries\lvgl\src\draw\sw/lv_draw_sw_transform.c ****             }
 1015              		.loc 1 457 0 is_stmt 1
 1016 0374 079B     		ldr	r3, [sp, #28]
 1017 0376 C3F1FF03 		rsb	r3, r3, #255
 1018 037a 03FB0EF3 		mul	r3, r3, lr
 1019 037e 1B12     		asrs	r3, r3, #8
 1020 0380 08F80730 		strb	r3, [r8, r7]
 1021 0384 16E0     		b	.L31
 1022              	.L54:
 459:..\..\..\arduinoLCD\test\Pain Drain\libraries\lvgl\src\draw\sw/lv_draw_sw_transform.c ****                 abuf[x] = (a * (0xFF - ys_fract)) >> 8;
 1023              		.loc 1 459 0
 1024 0386 12B9     		cbnz	r2, .L55
 459:..\..\..\arduinoLCD\test\Pain Drain\libraries\lvgl\src\draw\sw/lv_draw_sw_transform.c ****                 abuf[x] = (a * (0xFF - ys_fract)) >> 8;
 1025              		.loc 1 459 0 is_stmt 0 discriminator 1
 1026 0388 059B     		ldr	r3, [sp, #20]
 1027 038a 002B     		cmp	r3, #0
 1028 038c 06DB     		blt	.L56
 1029              	.L55:
 459:..\..\..\arduinoLCD\test\Pain Drain\libraries\lvgl\src\draw\sw/lv_draw_sw_transform.c ****                 abuf[x] = (a * (0xFF - ys_fract)) >> 8;
 1030              		.loc 1 459 0 discriminator 3
 1031 038e 009B     		ldr	r3, [sp]
 1032 0390 013B     		subs	r3, r3, #1
 1033 0392 9A42     		cmp	r2, r3
 1034 0394 0BD1     		bne	.L57
 459:..\..\..\arduinoLCD\test\Pain Drain\libraries\lvgl\src\draw\sw/lv_draw_sw_transform.c ****                 abuf[x] = (a * (0xFF - ys_fract)) >> 8;
 1035              		.loc 1 459 0 discriminator 4
 1036 0396 059B     		ldr	r3, [sp, #20]
 1037 0398 002B     		cmp	r3, #0
 1038 039a 08DD     		ble	.L57
 1039              	.L56:
 460:..\..\..\arduinoLCD\test\Pain Drain\libraries\lvgl\src\draw\sw/lv_draw_sw_transform.c ****             }
 1040              		.loc 1 460 0 is_stmt 1
 1041 039c 089B     		ldr	r3, [sp, #32]
 1042 039e C3F1FF03 		rsb	r3, r3, #255
 1043 03a2 03FB0EF3 		mul	r3, r3, lr
 1044 03a6 1B12     		asrs	r3, r3, #8
 1045 03a8 08F80730 		strb	r3, [r8, r7]
 1046 03ac 02E0     		b	.L31
 1047              	.L57:
 463:..\..\..\arduinoLCD\test\Pain Drain\libraries\lvgl\src\draw\sw/lv_draw_sw_transform.c ****             }
 1048              		.loc 1 463 0
ARM GAS  C:\Users\haske\AppData\Local\Temp\cc9HFfJU.s 			page 38


 1049 03ae 0023     		movs	r3, #0
 1050 03b0 08F80730 		strb	r3, [r8, r7]
 1051              	.LVL164:
 1052              	.L31:
 1053              	.LBE34:
 1054              	.LBE24:
 304:..\..\..\arduinoLCD\test\Pain Drain\libraries\lvgl\src\draw\sw/lv_draw_sw_transform.c ****         xs_ups = xs_ups_start + ((xs_step * x) >> 8);
 1055              		.loc 1 304 0 discriminator 2
 1056 03b4 0131     		adds	r1, r1, #1
 1057              	.LVL165:
 1058 03b6 09B2     		sxth	r1, r1
 1059              	.LVL166:
 1060              	.L28:
 304:..\..\..\arduinoLCD\test\Pain Drain\libraries\lvgl\src\draw\sw/lv_draw_sw_transform.c ****         xs_ups = xs_ups_start + ((xs_step * x) >> 8);
 1061              		.loc 1 304 0 is_stmt 0 discriminator 1
 1062 03b8 A942     		cmp	r1, r5
 1063 03ba FFF669AE 		blt	.L58
 1064              	.LVL167:
 1065              	.L21:
 467:..\..\..\arduinoLCD\test\Pain Drain\libraries\lvgl\src\draw\sw/lv_draw_sw_transform.c **** 
 1066              		.loc 1 467 0 is_stmt 1
 1067 03be 11B0     		add	sp, sp, #68
 1068              		.cfi_def_cfa_offset 36
 1069              		@ sp needed
 1070 03c0 BDE8F08F 		pop	{r4, r5, r6, r7, r8, r9, r10, fp, pc}
 1071              	.LVL168:
 1072              	.L68:
 1073              		.align	2
 1074              	.L67:
 1075 03c4 1FF8E007 		.word	132184095
 1076              		.cfi_endproc
 1077              	.LFE163:
 1078              		.size	argb_and_rgb_aa, .-argb_and_rgb_aa
 1079              		.section	.text.rgb_no_aa,"ax",%progbits
 1080              		.align	2
 1081              		.thumb
 1082              		.thumb_func
 1083              		.type	rgb_no_aa, %function
 1084              	rgb_no_aa:
 1085              	.LFB160:
 163:..\..\..\arduinoLCD\test\Pain Drain\libraries\lvgl\src\draw\sw/lv_draw_sw_transform.c ****     int32_t xs_ups_start = xs_ups;
 1086              		.loc 1 163 0
 1087              		.cfi_startproc
 1088              		@ args = 32, pretend = 0, frame = 16
 1089              		@ frame_needed = 0, uses_anonymous_args = 0
 1090              	.LVL169:
 1091 0000 2DE9F04F 		push	{r4, r5, r6, r7, r8, r9, r10, fp, lr}
 1092              		.cfi_def_cfa_offset 36
 1093              		.cfi_offset 4, -36
 1094              		.cfi_offset 5, -32
 1095              		.cfi_offset 6, -28
 1096              		.cfi_offset 7, -24
 1097              		.cfi_offset 8, -20
 1098              		.cfi_offset 9, -16
 1099              		.cfi_offset 10, -12
 1100              		.cfi_offset 11, -8
 1101              		.cfi_offset 14, -4
ARM GAS  C:\Users\haske\AppData\Local\Temp\cc9HFfJU.s 			page 39


 1102 0004 85B0     		sub	sp, sp, #20
 1103              		.cfi_def_cfa_offset 56
 1104 0006 0290     		str	r0, [sp, #8]
 1105 0008 8B46     		mov	fp, r1
 1106 000a 0392     		str	r2, [sp, #12]
 1107 000c 0193     		str	r3, [sp, #4]
 1108 000e DDF838A0 		ldr	r10, [sp, #56]
 1109 0012 DDF83C90 		ldr	r9, [sp, #60]
 1110 0016 DDF84080 		ldr	r8, [sp, #64]
 1111 001a 119F     		ldr	r7, [sp, #68]
 1112 001c 129C     		ldr	r4, [sp, #72]
 1113 001e 149D     		ldr	r5, [sp, #80]
 1114 0020 9DF85460 		ldrb	r6, [sp, #84]	@ zero_extendqisi2
 1115              	.LVL170:
 166:..\..\..\arduinoLCD\test\Pain Drain\libraries\lvgl\src\draw\sw/lv_draw_sw_transform.c ****     lv_color_t ck = d->driver->color_chroma_key;
 1116              		.loc 1 166 0
 1117 0024 FFF7FEFF 		bl	_lv_refr_get_disp_refreshing
 1118              	.LVL171:
 167:..\..\..\arduinoLCD\test\Pain Drain\libraries\lvgl\src\draw\sw/lv_draw_sw_transform.c **** 
 1119              		.loc 1 167 0
 1120 0028 0368     		ldr	r3, [r0]
 1121 002a 1B8F     		ldrh	r3, [r3, #56]
 1122              	.LVL172:
 1123 002c ADF80230 		strh	r3, [sp, #2]	@ movhi
 169:..\..\..\arduinoLCD\test\Pain Drain\libraries\lvgl\src\draw\sw/lv_draw_sw_transform.c **** 
 1124              		.loc 1 169 0
 1125 0030 2146     		mov	r1, r4
 1126 0032 2846     		mov	r0, r5
 1127              	.LVL173:
 1128 0034 FFF7FEFF 		bl	lv_memset_ff
 1129              	.LVL174:
 172:..\..\..\arduinoLCD\test\Pain Drain\libraries\lvgl\src\draw\sw/lv_draw_sw_transform.c ****         xs_ups = xs_ups_start + ((xs_step * x) >> 8);
 1130              		.loc 1 172 0
 1131 0038 0021     		movs	r1, #0
 1132 003a DDF808C0 		ldr	ip, [sp, #8]
 1133 003e DDF80CE0 		ldr	lr, [sp, #12]
 1134 0042 28E0     		b	.L70
 1135              	.LVL175:
 1136              	.L75:
 1137              	.LBB35:
 173:..\..\..\arduinoLCD\test\Pain Drain\libraries\lvgl\src\draw\sw/lv_draw_sw_transform.c ****         ys_ups = ys_ups_start + ((ys_step * x) >> 8);
 1138              		.loc 1 173 0
 1139 0044 08FB01F3 		mul	r3, r8, r1
 1140 0048 0AEB2323 		add	r3, r10, r3, asr #8
 1141              	.LVL176:
 174:..\..\..\arduinoLCD\test\Pain Drain\libraries\lvgl\src\draw\sw/lv_draw_sw_transform.c **** 
 1142              		.loc 1 174 0
 1143 004c 07FB01F2 		mul	r2, r7, r1
 1144 0050 09EB2222 		add	r2, r9, r2, asr #8
 1145              	.LVL177:
 177:..\..\..\arduinoLCD\test\Pain Drain\libraries\lvgl\src\draw\sw/lv_draw_sw_transform.c ****         if(xs_int < 0 || xs_int >= src_w || ys_int < 0 || ys_int >= src_h) {
 1146              		.loc 1 177 0
 1147 0054 1212     		asrs	r2, r2, #8
 1148              	.LVL178:
 178:..\..\..\arduinoLCD\test\Pain Drain\libraries\lvgl\src\draw\sw/lv_draw_sw_transform.c ****             abuf[x] = 0x00;
 1149              		.loc 1 178 0
 1150 0056 1B12     		asrs	r3, r3, #8
ARM GAS  C:\Users\haske\AppData\Local\Temp\cc9HFfJU.s 			page 40


 1151              	.LVL179:
 1152 0058 05D4     		bmi	.L71
 178:..\..\..\arduinoLCD\test\Pain Drain\libraries\lvgl\src\draw\sw/lv_draw_sw_transform.c ****             abuf[x] = 0x00;
 1153              		.loc 1 178 0 is_stmt 0 discriminator 1
 1154 005a 5B45     		cmp	r3, fp
 1155 005c 03DA     		bge	.L71
 178:..\..\..\arduinoLCD\test\Pain Drain\libraries\lvgl\src\draw\sw/lv_draw_sw_transform.c ****             abuf[x] = 0x00;
 1156              		.loc 1 178 0 discriminator 2
 1157 005e 002A     		cmp	r2, #0
 1158 0060 01DB     		blt	.L71
 178:..\..\..\arduinoLCD\test\Pain Drain\libraries\lvgl\src\draw\sw/lv_draw_sw_transform.c ****             abuf[x] = 0x00;
 1159              		.loc 1 178 0 discriminator 3
 1160 0062 7245     		cmp	r2, lr
 1161 0064 02DB     		blt	.L72
 1162              	.L71:
 179:..\..\..\arduinoLCD\test\Pain Drain\libraries\lvgl\src\draw\sw/lv_draw_sw_transform.c ****         }
 1163              		.loc 1 179 0 is_stmt 1
 1164 0066 0023     		movs	r3, #0
 1165              	.LVL180:
 1166 0068 6B54     		strb	r3, [r5, r1]
 1167 006a 07E0     		b	.L73
 1168              	.LVL181:
 1169              	.L72:
 1170              	.LBB36:
 189:..\..\..\arduinoLCD\test\Pain Drain\libraries\lvgl\src\draw\sw/lv_draw_sw_transform.c ****             cbuf[x] = *src_tmp;
 1171              		.loc 1 189 0
 1172 006c 0198     		ldr	r0, [sp, #4]
 1173 006e 02FB0033 		mla	r3, r2, r0, r3
 1174              	.LVL182:
 190:..\..\..\arduinoLCD\test\Pain Drain\libraries\lvgl\src\draw\sw/lv_draw_sw_transform.c **** #elif LV_COLOR_DEPTH == 32
 1175              		.loc 1 190 0
 1176 0072 3CF81330 		ldrh	r3, [ip, r3, lsl #1]
 1177              	.LVL183:
 1178 0076 139A     		ldr	r2, [sp, #76]
 1179              	.LVL184:
 1180 0078 22F81130 		strh	r3, [r2, r1, lsl #1]	@ movhi
 1181              	.LVL185:
 1182              	.L73:
 1183              	.LBE36:
 197:..\..\..\arduinoLCD\test\Pain Drain\libraries\lvgl\src\draw\sw/lv_draw_sw_transform.c ****             abuf[x] = 0x00;
 1184              		.loc 1 197 0
 1185 007c 062E     		cmp	r6, #6
 1186 007e 08D1     		bne	.L74
 197:..\..\..\arduinoLCD\test\Pain Drain\libraries\lvgl\src\draw\sw/lv_draw_sw_transform.c ****             abuf[x] = 0x00;
 1187              		.loc 1 197 0 is_stmt 0 discriminator 1
 1188 0080 139B     		ldr	r3, [sp, #76]
 1189 0082 33F81120 		ldrh	r2, [r3, r1, lsl #1]
 1190 0086 BDF80230 		ldrh	r3, [sp, #2]
 1191 008a 9A42     		cmp	r2, r3
 1192 008c 01D1     		bne	.L74
 198:..\..\..\arduinoLCD\test\Pain Drain\libraries\lvgl\src\draw\sw/lv_draw_sw_transform.c ****         }
 1193              		.loc 1 198 0 is_stmt 1
 1194 008e 0023     		movs	r3, #0
 1195 0090 6B54     		strb	r3, [r5, r1]
 1196              	.L74:
 1197              	.LBE35:
 172:..\..\..\arduinoLCD\test\Pain Drain\libraries\lvgl\src\draw\sw/lv_draw_sw_transform.c ****         xs_ups = xs_ups_start + ((xs_step * x) >> 8);
ARM GAS  C:\Users\haske\AppData\Local\Temp\cc9HFfJU.s 			page 41


 1198              		.loc 1 172 0 discriminator 2
 1199 0092 0131     		adds	r1, r1, #1
 1200              	.LVL186:
 1201 0094 09B2     		sxth	r1, r1
 1202              	.LVL187:
 1203              	.L70:
 172:..\..\..\arduinoLCD\test\Pain Drain\libraries\lvgl\src\draw\sw/lv_draw_sw_transform.c ****         xs_ups = xs_ups_start + ((xs_step * x) >> 8);
 1204              		.loc 1 172 0 is_stmt 0 discriminator 1
 1205 0096 8C42     		cmp	r4, r1
 1206 0098 D4DC     		bgt	.L75
 201:..\..\..\arduinoLCD\test\Pain Drain\libraries\lvgl\src\draw\sw/lv_draw_sw_transform.c **** 
 1207              		.loc 1 201 0 is_stmt 1
 1208 009a 05B0     		add	sp, sp, #20
 1209              		.cfi_def_cfa_offset 36
 1210              		@ sp needed
 1211 009c BDE8F08F 		pop	{r4, r5, r6, r7, r8, r9, r10, fp, pc}
 1212              		.cfi_endproc
 1213              	.LFE160:
 1214              		.size	rgb_no_aa, .-rgb_no_aa
 1215              		.section	.text.lv_draw_sw_transform,"ax",%progbits
 1216              		.align	2
 1217              		.global	lv_draw_sw_transform
 1218              		.thumb
 1219              		.thumb_func
 1220              		.type	lv_draw_sw_transform, %function
 1221              	lv_draw_sw_transform:
 1222              	.LFB159:
  83:..\..\..\arduinoLCD\test\Pain Drain\libraries\lvgl\src\draw\sw/lv_draw_sw_transform.c ****     LV_UNUSED(draw_ctx);
 1223              		.loc 1 83 0
 1224              		.cfi_startproc
 1225              		@ args = 24, pretend = 0, frame = 96
 1226              		@ frame_needed = 0, uses_anonymous_args = 0
 1227              	.LVL188:
 1228 0000 2DE9F04F 		push	{r4, r5, r6, r7, r8, r9, r10, fp, lr}
 1229              		.cfi_def_cfa_offset 36
 1230              		.cfi_offset 4, -36
 1231              		.cfi_offset 5, -32
 1232              		.cfi_offset 6, -28
 1233              		.cfi_offset 7, -24
 1234              		.cfi_offset 8, -20
 1235              		.cfi_offset 9, -16
 1236              		.cfi_offset 10, -12
 1237              		.cfi_offset 11, -8
 1238              		.cfi_offset 14, -4
 1239 0004 A1B0     		sub	sp, sp, #132
 1240              		.cfi_def_cfa_offset 168
 1241 0006 0C46     		mov	r4, r1
 1242 0008 0992     		str	r2, [sp, #36]
 1243 000a 0A93     		str	r3, [sp, #40]
 1244 000c BDF9A830 		ldrsh	r3, [sp, #168]
 1245              	.LVL189:
 1246 0010 0B93     		str	r3, [sp, #44]
 1247 0012 BDF9AC30 		ldrsh	r3, [sp, #172]
 1248 0016 0C93     		str	r3, [sp, #48]
 1249 0018 2C9F     		ldr	r7, [sp, #176]
 1250 001a 9DF8B4B0 		ldrb	fp, [sp, #180]	@ zero_extendqisi2
 1251 001e 2E9E     		ldr	r6, [sp, #184]
ARM GAS  C:\Users\haske\AppData\Local\Temp\cc9HFfJU.s 			page 42


 1252 0020 2F9D     		ldr	r5, [sp, #188]
  87:..\..\..\arduinoLCD\test\Pain Drain\libraries\lvgl\src\draw\sw/lv_draw_sw_transform.c ****     tr_dsc.zoom = (256 * 256) / draw_dsc->zoom;
 1253              		.loc 1 87 0
 1254 0022 B7F90090 		ldrsh	r9, [r7]
 1255 0026 C9F10003 		rsb	r3, r9, #0
 1256 002a 1C93     		str	r3, [sp, #112]
  88:..\..\..\arduinoLCD\test\Pain Drain\libraries\lvgl\src\draw\sw/lv_draw_sw_transform.c ****     tr_dsc.pivot = draw_dsc->pivot;
 1257              		.loc 1 88 0
 1258 002c 7988     		ldrh	r1, [r7, #2]
 1259              	.LVL190:
 1260 002e 4FF48032 		mov	r2, #65536
 1261              	.LVL191:
 1262 0032 92FBF1F2 		sdiv	r2, r2, r1
 1263 0036 1B92     		str	r2, [sp, #108]
  89:..\..\..\arduinoLCD\test\Pain Drain\libraries\lvgl\src\draw\sw/lv_draw_sw_transform.c **** 
 1264              		.loc 1 89 0
 1265 0038 7A68     		ldr	r2, [r7, #4]
 1266 003a 1F92     		str	r2, [sp, #124]
  91:..\..\..\arduinoLCD\test\Pain Drain\libraries\lvgl\src\draw\sw/lv_draw_sw_transform.c ****     int32_t angle_high = angle_low + 1;
 1267              		.loc 1 91 0
 1268 003c DFF8D8A1 		ldr	r10, .L89
 1269 0040 8AFB0328 		smull	r2, r8, r10, r3
 1270 0044 DA17     		asrs	r2, r3, #31
 1271 0046 C2EBA808 		rsb	r8, r2, r8, asr #2
 1272              	.LVL192:
  92:..\..\..\arduinoLCD\test\Pain Drain\libraries\lvgl\src\draw\sw/lv_draw_sw_transform.c ****     int32_t angle_rem = tr_dsc.angle  - (angle_low * 10);
 1273              		.loc 1 92 0
 1274 004a 08F10102 		add	r2, r8, #1
 1275 004e 0D92     		str	r2, [sp, #52]
 1276              	.LVL193:
  93:..\..\..\arduinoLCD\test\Pain Drain\libraries\lvgl\src\draw\sw/lv_draw_sw_transform.c **** 
 1277              		.loc 1 93 0
 1278 0050 6FF00909 		mvn	r9, #9
 1279 0054 09FB0839 		mla	r9, r9, r8, r3
 1280              	.LVL194:
  95:..\..\..\arduinoLCD\test\Pain Drain\libraries\lvgl\src\draw\sw/lv_draw_sw_transform.c ****     int32_t s2 = lv_trigo_sin(angle_high);
 1281              		.loc 1 95 0
 1282 0058 0FFA88F0 		sxth	r0, r8
 1283              	.LVL195:
 1284 005c FFF7FEFF 		bl	lv_trigo_sin
 1285              	.LVL196:
 1286 0060 0E90     		str	r0, [sp, #56]
 1287              	.LVL197:
  96:..\..\..\arduinoLCD\test\Pain Drain\libraries\lvgl\src\draw\sw/lv_draw_sw_transform.c **** 
 1288              		.loc 1 96 0
 1289 0062 BDF93400 		ldrsh	r0, [sp, #52]
 1290              	.LVL198:
 1291 0066 FFF7FEFF 		bl	lv_trigo_sin
 1292              	.LVL199:
 1293 006a 0F90     		str	r0, [sp, #60]
 1294              	.LVL200:
  98:..\..\..\arduinoLCD\test\Pain Drain\libraries\lvgl\src\draw\sw/lv_draw_sw_transform.c ****     int32_t c2 = lv_trigo_sin(angle_high + 90);
 1295              		.loc 1 98 0
 1296 006c 08F15A00 		add	r0, r8, #90
 1297              	.LVL201:
 1298 0070 00B2     		sxth	r0, r0
 1299 0072 FFF7FEFF 		bl	lv_trigo_sin
ARM GAS  C:\Users\haske\AppData\Local\Temp\cc9HFfJU.s 			page 43


 1300              	.LVL202:
 1301 0076 8046     		mov	r8, r0
 1302              	.LVL203:
  99:..\..\..\arduinoLCD\test\Pain Drain\libraries\lvgl\src\draw\sw/lv_draw_sw_transform.c **** 
 1303              		.loc 1 99 0
 1304 0078 0D9A     		ldr	r2, [sp, #52]
 1305 007a 02F15A00 		add	r0, r2, #90
 1306              	.LVL204:
 1307 007e 00B2     		sxth	r0, r0
 1308 0080 FFF7FEFF 		bl	lv_trigo_sin
 1309              	.LVL205:
 101:..\..\..\arduinoLCD\test\Pain Drain\libraries\lvgl\src\draw\sw/lv_draw_sw_transform.c ****     tr_dsc.cosma = (c1 * (10 - angle_rem) + c2 * angle_rem) / 10;
 1310              		.loc 1 101 0
 1311 0084 C9F10A01 		rsb	r1, r9, #10
 1312 0088 0F9B     		ldr	r3, [sp, #60]
 1313 008a 03FB09F3 		mul	r3, r3, r9
 1314 008e 0E9A     		ldr	r2, [sp, #56]
 1315 0090 01FB0233 		mla	r3, r1, r2, r3
 1316 0094 8AFB03E2 		smull	lr, r2, r10, r3
 1317 0098 DB17     		asrs	r3, r3, #31
 1318 009a C3EBA202 		rsb	r2, r3, r2, asr #2
 102:..\..\..\arduinoLCD\test\Pain Drain\libraries\lvgl\src\draw\sw/lv_draw_sw_transform.c ****     tr_dsc.sinma = tr_dsc.sinma >> (LV_TRIGO_SHIFT - 10);
 1319              		.loc 1 102 0
 1320 009e 00FB09F0 		mul	r0, r0, r9
 1321              	.LVL206:
 1322 00a2 01FB0808 		mla	r8, r1, r8, r0
 1323              	.LVL207:
 1324 00a6 8AFB0813 		smull	r1, r3, r10, r8
 1325 00aa 4FEAE878 		asr	r8, r8, #31
 1326 00ae C8EBA303 		rsb	r3, r8, r3, asr #2
 103:..\..\..\arduinoLCD\test\Pain Drain\libraries\lvgl\src\draw\sw/lv_draw_sw_transform.c ****     tr_dsc.cosma = tr_dsc.cosma >> (LV_TRIGO_SHIFT - 10);
 1327              		.loc 1 103 0
 1328 00b2 5211     		asrs	r2, r2, #5
 1329 00b4 1992     		str	r2, [sp, #100]
 104:..\..\..\arduinoLCD\test\Pain Drain\libraries\lvgl\src\draw\sw/lv_draw_sw_transform.c ****     tr_dsc.pivot_x_256 = tr_dsc.pivot.x * 256;
 1330              		.loc 1 104 0
 1331 00b6 5B11     		asrs	r3, r3, #5
 1332 00b8 1A93     		str	r3, [sp, #104]
 105:..\..\..\arduinoLCD\test\Pain Drain\libraries\lvgl\src\draw\sw/lv_draw_sw_transform.c ****     tr_dsc.pivot_y_256 = tr_dsc.pivot.y * 256;
 1333              		.loc 1 105 0
 1334 00ba BDF97C30 		ldrsh	r3, [sp, #124]
 1335 00be 1B02     		lsls	r3, r3, #8
 1336 00c0 1D93     		str	r3, [sp, #116]
 106:..\..\..\arduinoLCD\test\Pain Drain\libraries\lvgl\src\draw\sw/lv_draw_sw_transform.c **** 
 1337              		.loc 1 106 0
 1338 00c2 BDF97E30 		ldrsh	r3, [sp, #126]
 1339 00c6 1B02     		lsls	r3, r3, #8
 1340 00c8 1E93     		str	r3, [sp, #120]
 1341              	.LVL208:
 1342              	.LBB37:
 1343              	.LBB38:
 1344              		.file 3 "c:\\projects\\paindrain\\arduinolcd\\test\\pain drain\\libraries\\lvgl\\src\\misc\\lv_are
   1:c:\projects\paindrain\arduinolcd\test\pain drain\libraries\lvgl\src\misc\lv_area.h **** /**
   2:c:\projects\paindrain\arduinolcd\test\pain drain\libraries\lvgl\src\misc\lv_area.h ****  * @file lv_area.h
   3:c:\projects\paindrain\arduinolcd\test\pain drain\libraries\lvgl\src\misc\lv_area.h ****  *
   4:c:\projects\paindrain\arduinolcd\test\pain drain\libraries\lvgl\src\misc\lv_area.h ****  */
   5:c:\projects\paindrain\arduinolcd\test\pain drain\libraries\lvgl\src\misc\lv_area.h **** 
ARM GAS  C:\Users\haske\AppData\Local\Temp\cc9HFfJU.s 			page 44


   6:c:\projects\paindrain\arduinolcd\test\pain drain\libraries\lvgl\src\misc\lv_area.h **** #ifndef LV_AREA_H
   7:c:\projects\paindrain\arduinolcd\test\pain drain\libraries\lvgl\src\misc\lv_area.h **** #define LV_AREA_H
   8:c:\projects\paindrain\arduinolcd\test\pain drain\libraries\lvgl\src\misc\lv_area.h **** 
   9:c:\projects\paindrain\arduinolcd\test\pain drain\libraries\lvgl\src\misc\lv_area.h **** #ifdef __cplusplus
  10:c:\projects\paindrain\arduinolcd\test\pain drain\libraries\lvgl\src\misc\lv_area.h **** extern "C" {
  11:c:\projects\paindrain\arduinolcd\test\pain drain\libraries\lvgl\src\misc\lv_area.h **** #endif
  12:c:\projects\paindrain\arduinolcd\test\pain drain\libraries\lvgl\src\misc\lv_area.h **** 
  13:c:\projects\paindrain\arduinolcd\test\pain drain\libraries\lvgl\src\misc\lv_area.h **** /*********************
  14:c:\projects\paindrain\arduinolcd\test\pain drain\libraries\lvgl\src\misc\lv_area.h ****  *      INCLUDES
  15:c:\projects\paindrain\arduinolcd\test\pain drain\libraries\lvgl\src\misc\lv_area.h ****  *********************/
  16:c:\projects\paindrain\arduinolcd\test\pain drain\libraries\lvgl\src\misc\lv_area.h **** #include "../lv_conf_internal.h"
  17:c:\projects\paindrain\arduinolcd\test\pain drain\libraries\lvgl\src\misc\lv_area.h **** #include <stdbool.h>
  18:c:\projects\paindrain\arduinolcd\test\pain drain\libraries\lvgl\src\misc\lv_area.h **** #include <stdint.h>
  19:c:\projects\paindrain\arduinolcd\test\pain drain\libraries\lvgl\src\misc\lv_area.h **** 
  20:c:\projects\paindrain\arduinolcd\test\pain drain\libraries\lvgl\src\misc\lv_area.h **** /*********************
  21:c:\projects\paindrain\arduinolcd\test\pain drain\libraries\lvgl\src\misc\lv_area.h ****  *      DEFINES
  22:c:\projects\paindrain\arduinolcd\test\pain drain\libraries\lvgl\src\misc\lv_area.h ****  *********************/
  23:c:\projects\paindrain\arduinolcd\test\pain drain\libraries\lvgl\src\misc\lv_area.h **** 
  24:c:\projects\paindrain\arduinolcd\test\pain drain\libraries\lvgl\src\misc\lv_area.h **** #if LV_USE_LARGE_COORD
  25:c:\projects\paindrain\arduinolcd\test\pain drain\libraries\lvgl\src\misc\lv_area.h **** typedef int32_t lv_coord_t;
  26:c:\projects\paindrain\arduinolcd\test\pain drain\libraries\lvgl\src\misc\lv_area.h **** #else
  27:c:\projects\paindrain\arduinolcd\test\pain drain\libraries\lvgl\src\misc\lv_area.h **** typedef int16_t lv_coord_t;
  28:c:\projects\paindrain\arduinolcd\test\pain drain\libraries\lvgl\src\misc\lv_area.h **** #endif
  29:c:\projects\paindrain\arduinolcd\test\pain drain\libraries\lvgl\src\misc\lv_area.h **** 
  30:c:\projects\paindrain\arduinolcd\test\pain drain\libraries\lvgl\src\misc\lv_area.h **** /**********************
  31:c:\projects\paindrain\arduinolcd\test\pain drain\libraries\lvgl\src\misc\lv_area.h ****  *      TYPEDEFS
  32:c:\projects\paindrain\arduinolcd\test\pain drain\libraries\lvgl\src\misc\lv_area.h ****  **********************/
  33:c:\projects\paindrain\arduinolcd\test\pain drain\libraries\lvgl\src\misc\lv_area.h **** 
  34:c:\projects\paindrain\arduinolcd\test\pain drain\libraries\lvgl\src\misc\lv_area.h **** /**
  35:c:\projects\paindrain\arduinolcd\test\pain drain\libraries\lvgl\src\misc\lv_area.h ****  * Represents a point on the screen.
  36:c:\projects\paindrain\arduinolcd\test\pain drain\libraries\lvgl\src\misc\lv_area.h ****  */
  37:c:\projects\paindrain\arduinolcd\test\pain drain\libraries\lvgl\src\misc\lv_area.h **** typedef struct {
  38:c:\projects\paindrain\arduinolcd\test\pain drain\libraries\lvgl\src\misc\lv_area.h ****     lv_coord_t x;
  39:c:\projects\paindrain\arduinolcd\test\pain drain\libraries\lvgl\src\misc\lv_area.h ****     lv_coord_t y;
  40:c:\projects\paindrain\arduinolcd\test\pain drain\libraries\lvgl\src\misc\lv_area.h **** } lv_point_t;
  41:c:\projects\paindrain\arduinolcd\test\pain drain\libraries\lvgl\src\misc\lv_area.h **** 
  42:c:\projects\paindrain\arduinolcd\test\pain drain\libraries\lvgl\src\misc\lv_area.h **** /** Represents an area of the screen.*/
  43:c:\projects\paindrain\arduinolcd\test\pain drain\libraries\lvgl\src\misc\lv_area.h **** typedef struct {
  44:c:\projects\paindrain\arduinolcd\test\pain drain\libraries\lvgl\src\misc\lv_area.h ****     lv_coord_t x1;
  45:c:\projects\paindrain\arduinolcd\test\pain drain\libraries\lvgl\src\misc\lv_area.h ****     lv_coord_t y1;
  46:c:\projects\paindrain\arduinolcd\test\pain drain\libraries\lvgl\src\misc\lv_area.h ****     lv_coord_t x2;
  47:c:\projects\paindrain\arduinolcd\test\pain drain\libraries\lvgl\src\misc\lv_area.h ****     lv_coord_t y2;
  48:c:\projects\paindrain\arduinolcd\test\pain drain\libraries\lvgl\src\misc\lv_area.h **** } lv_area_t;
  49:c:\projects\paindrain\arduinolcd\test\pain drain\libraries\lvgl\src\misc\lv_area.h **** 
  50:c:\projects\paindrain\arduinolcd\test\pain drain\libraries\lvgl\src\misc\lv_area.h **** /** Alignments*/
  51:c:\projects\paindrain\arduinolcd\test\pain drain\libraries\lvgl\src\misc\lv_area.h **** enum {
  52:c:\projects\paindrain\arduinolcd\test\pain drain\libraries\lvgl\src\misc\lv_area.h ****     LV_ALIGN_DEFAULT = 0,
  53:c:\projects\paindrain\arduinolcd\test\pain drain\libraries\lvgl\src\misc\lv_area.h ****     LV_ALIGN_TOP_LEFT,
  54:c:\projects\paindrain\arduinolcd\test\pain drain\libraries\lvgl\src\misc\lv_area.h ****     LV_ALIGN_TOP_MID,
  55:c:\projects\paindrain\arduinolcd\test\pain drain\libraries\lvgl\src\misc\lv_area.h ****     LV_ALIGN_TOP_RIGHT,
  56:c:\projects\paindrain\arduinolcd\test\pain drain\libraries\lvgl\src\misc\lv_area.h ****     LV_ALIGN_BOTTOM_LEFT,
  57:c:\projects\paindrain\arduinolcd\test\pain drain\libraries\lvgl\src\misc\lv_area.h ****     LV_ALIGN_BOTTOM_MID,
  58:c:\projects\paindrain\arduinolcd\test\pain drain\libraries\lvgl\src\misc\lv_area.h ****     LV_ALIGN_BOTTOM_RIGHT,
  59:c:\projects\paindrain\arduinolcd\test\pain drain\libraries\lvgl\src\misc\lv_area.h ****     LV_ALIGN_LEFT_MID,
  60:c:\projects\paindrain\arduinolcd\test\pain drain\libraries\lvgl\src\misc\lv_area.h ****     LV_ALIGN_RIGHT_MID,
  61:c:\projects\paindrain\arduinolcd\test\pain drain\libraries\lvgl\src\misc\lv_area.h ****     LV_ALIGN_CENTER,
  62:c:\projects\paindrain\arduinolcd\test\pain drain\libraries\lvgl\src\misc\lv_area.h **** 
ARM GAS  C:\Users\haske\AppData\Local\Temp\cc9HFfJU.s 			page 45


  63:c:\projects\paindrain\arduinolcd\test\pain drain\libraries\lvgl\src\misc\lv_area.h ****     LV_ALIGN_OUT_TOP_LEFT,
  64:c:\projects\paindrain\arduinolcd\test\pain drain\libraries\lvgl\src\misc\lv_area.h ****     LV_ALIGN_OUT_TOP_MID,
  65:c:\projects\paindrain\arduinolcd\test\pain drain\libraries\lvgl\src\misc\lv_area.h ****     LV_ALIGN_OUT_TOP_RIGHT,
  66:c:\projects\paindrain\arduinolcd\test\pain drain\libraries\lvgl\src\misc\lv_area.h ****     LV_ALIGN_OUT_BOTTOM_LEFT,
  67:c:\projects\paindrain\arduinolcd\test\pain drain\libraries\lvgl\src\misc\lv_area.h ****     LV_ALIGN_OUT_BOTTOM_MID,
  68:c:\projects\paindrain\arduinolcd\test\pain drain\libraries\lvgl\src\misc\lv_area.h ****     LV_ALIGN_OUT_BOTTOM_RIGHT,
  69:c:\projects\paindrain\arduinolcd\test\pain drain\libraries\lvgl\src\misc\lv_area.h ****     LV_ALIGN_OUT_LEFT_TOP,
  70:c:\projects\paindrain\arduinolcd\test\pain drain\libraries\lvgl\src\misc\lv_area.h ****     LV_ALIGN_OUT_LEFT_MID,
  71:c:\projects\paindrain\arduinolcd\test\pain drain\libraries\lvgl\src\misc\lv_area.h ****     LV_ALIGN_OUT_LEFT_BOTTOM,
  72:c:\projects\paindrain\arduinolcd\test\pain drain\libraries\lvgl\src\misc\lv_area.h ****     LV_ALIGN_OUT_RIGHT_TOP,
  73:c:\projects\paindrain\arduinolcd\test\pain drain\libraries\lvgl\src\misc\lv_area.h ****     LV_ALIGN_OUT_RIGHT_MID,
  74:c:\projects\paindrain\arduinolcd\test\pain drain\libraries\lvgl\src\misc\lv_area.h ****     LV_ALIGN_OUT_RIGHT_BOTTOM,
  75:c:\projects\paindrain\arduinolcd\test\pain drain\libraries\lvgl\src\misc\lv_area.h **** };
  76:c:\projects\paindrain\arduinolcd\test\pain drain\libraries\lvgl\src\misc\lv_area.h **** typedef uint8_t lv_align_t;
  77:c:\projects\paindrain\arduinolcd\test\pain drain\libraries\lvgl\src\misc\lv_area.h **** 
  78:c:\projects\paindrain\arduinolcd\test\pain drain\libraries\lvgl\src\misc\lv_area.h **** enum {
  79:c:\projects\paindrain\arduinolcd\test\pain drain\libraries\lvgl\src\misc\lv_area.h ****     LV_DIR_NONE     = 0x00,
  80:c:\projects\paindrain\arduinolcd\test\pain drain\libraries\lvgl\src\misc\lv_area.h ****     LV_DIR_LEFT     = (1 << 0),
  81:c:\projects\paindrain\arduinolcd\test\pain drain\libraries\lvgl\src\misc\lv_area.h ****     LV_DIR_RIGHT    = (1 << 1),
  82:c:\projects\paindrain\arduinolcd\test\pain drain\libraries\lvgl\src\misc\lv_area.h ****     LV_DIR_TOP      = (1 << 2),
  83:c:\projects\paindrain\arduinolcd\test\pain drain\libraries\lvgl\src\misc\lv_area.h ****     LV_DIR_BOTTOM   = (1 << 3),
  84:c:\projects\paindrain\arduinolcd\test\pain drain\libraries\lvgl\src\misc\lv_area.h ****     LV_DIR_HOR      = LV_DIR_LEFT | LV_DIR_RIGHT,
  85:c:\projects\paindrain\arduinolcd\test\pain drain\libraries\lvgl\src\misc\lv_area.h ****     LV_DIR_VER      = LV_DIR_TOP | LV_DIR_BOTTOM,
  86:c:\projects\paindrain\arduinolcd\test\pain drain\libraries\lvgl\src\misc\lv_area.h ****     LV_DIR_ALL      = LV_DIR_HOR | LV_DIR_VER,
  87:c:\projects\paindrain\arduinolcd\test\pain drain\libraries\lvgl\src\misc\lv_area.h **** };
  88:c:\projects\paindrain\arduinolcd\test\pain drain\libraries\lvgl\src\misc\lv_area.h **** 
  89:c:\projects\paindrain\arduinolcd\test\pain drain\libraries\lvgl\src\misc\lv_area.h **** typedef uint8_t lv_dir_t;
  90:c:\projects\paindrain\arduinolcd\test\pain drain\libraries\lvgl\src\misc\lv_area.h **** 
  91:c:\projects\paindrain\arduinolcd\test\pain drain\libraries\lvgl\src\misc\lv_area.h **** /**********************
  92:c:\projects\paindrain\arduinolcd\test\pain drain\libraries\lvgl\src\misc\lv_area.h ****  * GLOBAL PROTOTYPES
  93:c:\projects\paindrain\arduinolcd\test\pain drain\libraries\lvgl\src\misc\lv_area.h ****  **********************/
  94:c:\projects\paindrain\arduinolcd\test\pain drain\libraries\lvgl\src\misc\lv_area.h **** 
  95:c:\projects\paindrain\arduinolcd\test\pain drain\libraries\lvgl\src\misc\lv_area.h **** /**
  96:c:\projects\paindrain\arduinolcd\test\pain drain\libraries\lvgl\src\misc\lv_area.h ****  * Initialize an area
  97:c:\projects\paindrain\arduinolcd\test\pain drain\libraries\lvgl\src\misc\lv_area.h ****  * @param area_p pointer to an area
  98:c:\projects\paindrain\arduinolcd\test\pain drain\libraries\lvgl\src\misc\lv_area.h ****  * @param x1 left coordinate of the area
  99:c:\projects\paindrain\arduinolcd\test\pain drain\libraries\lvgl\src\misc\lv_area.h ****  * @param y1 top coordinate of the area
 100:c:\projects\paindrain\arduinolcd\test\pain drain\libraries\lvgl\src\misc\lv_area.h ****  * @param x2 right coordinate of the area
 101:c:\projects\paindrain\arduinolcd\test\pain drain\libraries\lvgl\src\misc\lv_area.h ****  * @param y2 bottom coordinate of the area
 102:c:\projects\paindrain\arduinolcd\test\pain drain\libraries\lvgl\src\misc\lv_area.h ****  */
 103:c:\projects\paindrain\arduinolcd\test\pain drain\libraries\lvgl\src\misc\lv_area.h **** void lv_area_set(lv_area_t * area_p, lv_coord_t x1, lv_coord_t y1, lv_coord_t x2, lv_coord_t y2);
 104:c:\projects\paindrain\arduinolcd\test\pain drain\libraries\lvgl\src\misc\lv_area.h **** 
 105:c:\projects\paindrain\arduinolcd\test\pain drain\libraries\lvgl\src\misc\lv_area.h **** /**
 106:c:\projects\paindrain\arduinolcd\test\pain drain\libraries\lvgl\src\misc\lv_area.h ****  * Copy an area
 107:c:\projects\paindrain\arduinolcd\test\pain drain\libraries\lvgl\src\misc\lv_area.h ****  * @param dest pointer to the destination area
 108:c:\projects\paindrain\arduinolcd\test\pain drain\libraries\lvgl\src\misc\lv_area.h ****  * @param src pointer to the source area
 109:c:\projects\paindrain\arduinolcd\test\pain drain\libraries\lvgl\src\misc\lv_area.h ****  */
 110:c:\projects\paindrain\arduinolcd\test\pain drain\libraries\lvgl\src\misc\lv_area.h **** inline static void lv_area_copy(lv_area_t * dest, const lv_area_t * src)
 111:c:\projects\paindrain\arduinolcd\test\pain drain\libraries\lvgl\src\misc\lv_area.h **** {
 112:c:\projects\paindrain\arduinolcd\test\pain drain\libraries\lvgl\src\misc\lv_area.h ****     dest->x1 = src->x1;
 113:c:\projects\paindrain\arduinolcd\test\pain drain\libraries\lvgl\src\misc\lv_area.h ****     dest->y1 = src->y1;
 114:c:\projects\paindrain\arduinolcd\test\pain drain\libraries\lvgl\src\misc\lv_area.h ****     dest->x2 = src->x2;
 115:c:\projects\paindrain\arduinolcd\test\pain drain\libraries\lvgl\src\misc\lv_area.h ****     dest->y2 = src->y2;
 116:c:\projects\paindrain\arduinolcd\test\pain drain\libraries\lvgl\src\misc\lv_area.h **** }
 117:c:\projects\paindrain\arduinolcd\test\pain drain\libraries\lvgl\src\misc\lv_area.h **** 
 118:c:\projects\paindrain\arduinolcd\test\pain drain\libraries\lvgl\src\misc\lv_area.h **** /**
 119:c:\projects\paindrain\arduinolcd\test\pain drain\libraries\lvgl\src\misc\lv_area.h ****  * Get the width of an area
ARM GAS  C:\Users\haske\AppData\Local\Temp\cc9HFfJU.s 			page 46


 120:c:\projects\paindrain\arduinolcd\test\pain drain\libraries\lvgl\src\misc\lv_area.h ****  * @param area_p pointer to an area
 121:c:\projects\paindrain\arduinolcd\test\pain drain\libraries\lvgl\src\misc\lv_area.h ****  * @return the width of the area (if x1 == x2 -> width = 1)
 122:c:\projects\paindrain\arduinolcd\test\pain drain\libraries\lvgl\src\misc\lv_area.h ****  */
 123:c:\projects\paindrain\arduinolcd\test\pain drain\libraries\lvgl\src\misc\lv_area.h **** static inline lv_coord_t lv_area_get_width(const lv_area_t * area_p)
 124:c:\projects\paindrain\arduinolcd\test\pain drain\libraries\lvgl\src\misc\lv_area.h **** {
 125:c:\projects\paindrain\arduinolcd\test\pain drain\libraries\lvgl\src\misc\lv_area.h ****     return (lv_coord_t)(area_p->x2 - area_p->x1 + 1);
 1345              		.loc 3 125 0
 1346 00ca B4F90430 		ldrsh	r3, [r4, #4]
 1347 00ce B4F90090 		ldrsh	r9, [r4]
 1348              	.LVL209:
 1349 00d2 C9EB0309 		rsb	r9, r9, r3
 1350 00d6 09F10109 		add	r9, r9, #1
 1351 00da 0FFA89F9 		sxth	r9, r9
 1352              	.LVL210:
 1353              	.LBE38:
 1354              	.LBE37:
 1355              	.LBB39:
 1356              	.LBB40:
 126:c:\projects\paindrain\arduinolcd\test\pain drain\libraries\lvgl\src\misc\lv_area.h **** }
 127:c:\projects\paindrain\arduinolcd\test\pain drain\libraries\lvgl\src\misc\lv_area.h **** 
 128:c:\projects\paindrain\arduinolcd\test\pain drain\libraries\lvgl\src\misc\lv_area.h **** /**
 129:c:\projects\paindrain\arduinolcd\test\pain drain\libraries\lvgl\src\misc\lv_area.h ****  * Get the height of an area
 130:c:\projects\paindrain\arduinolcd\test\pain drain\libraries\lvgl\src\misc\lv_area.h ****  * @param area_p pointer to an area
 131:c:\projects\paindrain\arduinolcd\test\pain drain\libraries\lvgl\src\misc\lv_area.h ****  * @return the height of the area (if y1 == y2 -> height = 1)
 132:c:\projects\paindrain\arduinolcd\test\pain drain\libraries\lvgl\src\misc\lv_area.h ****  */
 133:c:\projects\paindrain\arduinolcd\test\pain drain\libraries\lvgl\src\misc\lv_area.h **** static inline lv_coord_t lv_area_get_height(const lv_area_t * area_p)
 134:c:\projects\paindrain\arduinolcd\test\pain drain\libraries\lvgl\src\misc\lv_area.h **** {
 135:c:\projects\paindrain\arduinolcd\test\pain drain\libraries\lvgl\src\misc\lv_area.h ****     return (lv_coord_t)(area_p->y2 - area_p->y1 + 1);
 1357              		.loc 3 135 0
 1358 00de B4F90630 		ldrsh	r3, [r4, #6]
 1359 00e2 B4F902A0 		ldrsh	r10, [r4, #2]
 1360 00e6 CAEB030A 		rsb	r10, r10, r3
 1361 00ea 0AF1010A 		add	r10, r10, #1
 1362 00ee 0FFA8AFA 		sxth	r10, r10
 1363              	.LVL211:
 1364              	.LBE40:
 1365              	.LBE39:
 111:..\..\..\arduinoLCD\test\Pain Drain\libraries\lvgl\src\draw\sw/lv_draw_sw_transform.c ****         int32_t xs1_ups, ys1_ups, xs2_ups, ys2_ups;
 1366              		.loc 1 111 0
 1367 00f2 4FF00008 		mov	r8, #0
 1368 00f6 2246     		mov	r2, r4
 1369 00f8 4C46     		mov	r4, r9
 1370              	.LVL212:
 1371 00fa 5B46     		mov	r3, fp
 1372 00fc BB46     		mov	fp, r7
 1373 00fe 1F46     		mov	r7, r3
 1374 0100 9146     		mov	r9, r2
 1375 0102 82E0     		b	.L78
 1376              	.LVL213:
 1377              	.L86:
 1378              	.LBB41:
 114:..\..\..\arduinoLCD\test\Pain Drain\libraries\lvgl\src\draw\sw/lv_draw_sw_transform.c ****         transform_point_upscaled(&tr_dsc, dest_area->x2, dest_area->y1 + y, &xs2_ups, &ys2_ups);
 1379              		.loc 1 114 0
 1380 0104 B9F90010 		ldrsh	r1, [r9]
 1381 0108 B9F90220 		ldrsh	r2, [r9, #2]
 1382 010c 12AB     		add	r3, sp, #72
 1383 010e 0093     		str	r3, [sp]
ARM GAS  C:\Users\haske\AppData\Local\Temp\cc9HFfJU.s 			page 47


 1384 0110 11AB     		add	r3, sp, #68
 1385 0112 4244     		add	r2, r2, r8
 1386 0114 15A8     		add	r0, sp, #84
 1387 0116 FFF7FEFF 		bl	transform_point_upscaled
 1388              	.LVL214:
 115:..\..\..\arduinoLCD\test\Pain Drain\libraries\lvgl\src\draw\sw/lv_draw_sw_transform.c **** 
 1389              		.loc 1 115 0
 1390 011a B9F90410 		ldrsh	r1, [r9, #4]
 1391 011e B9F90220 		ldrsh	r2, [r9, #2]
 1392 0122 14AB     		add	r3, sp, #80
 1393 0124 0093     		str	r3, [sp]
 1394 0126 13AB     		add	r3, sp, #76
 1395 0128 4244     		add	r2, r2, r8
 1396 012a 15A8     		add	r0, sp, #84
 1397 012c FFF7FEFF 		bl	transform_point_upscaled
 1398              	.LVL215:
 117:..\..\..\arduinoLCD\test\Pain Drain\libraries\lvgl\src\draw\sw/lv_draw_sw_transform.c ****         int32_t ys_diff = ys2_ups - ys1_ups;
 1399              		.loc 1 117 0
 1400 0130 1198     		ldr	r0, [sp, #68]
 1401 0132 139B     		ldr	r3, [sp, #76]
 1402 0134 1B1A     		subs	r3, r3, r0
 1403              	.LVL216:
 118:..\..\..\arduinoLCD\test\Pain Drain\libraries\lvgl\src\draw\sw/lv_draw_sw_transform.c ****         int32_t xs_step_256 = 0;
 1404              		.loc 1 118 0
 1405 0136 DDF848E0 		ldr	lr, [sp, #72]
 1406 013a 149A     		ldr	r2, [sp, #80]
 1407 013c CEEB0202 		rsb	r2, lr, r2
 1408              	.LVL217:
 121:..\..\..\arduinoLCD\test\Pain Drain\libraries\lvgl\src\draw\sw/lv_draw_sw_transform.c ****             xs_step_256 = (256 * xs_diff) / (dest_w - 1);
 1409              		.loc 1 121 0
 1410 0140 012C     		cmp	r4, #1
 1411 0142 08DD     		ble	.L87
 122:..\..\..\arduinoLCD\test\Pain Drain\libraries\lvgl\src\draw\sw/lv_draw_sw_transform.c ****             ys_step_256 = (256 * ys_diff) / (dest_w - 1);
 1412              		.loc 1 122 0
 1413 0144 1B02     		lsls	r3, r3, #8
 1414              	.LVL218:
 1415 0146 04F1FF3C 		add	ip, r4, #-1
 1416 014a 93FBFCF1 		sdiv	r1, r3, ip
 1417              	.LVL219:
 123:..\..\..\arduinoLCD\test\Pain Drain\libraries\lvgl\src\draw\sw/lv_draw_sw_transform.c ****         }
 1418              		.loc 1 123 0
 1419 014e 1302     		lsls	r3, r2, #8
 1420 0150 93FBFCF3 		sdiv	r3, r3, ip
 1421              	.LVL220:
 1422 0154 01E0     		b	.L79
 1423              	.LVL221:
 1424              	.L87:
 120:..\..\..\arduinoLCD\test\Pain Drain\libraries\lvgl\src\draw\sw/lv_draw_sw_transform.c ****         if(dest_w > 1) {
 1425              		.loc 1 120 0
 1426 0156 0023     		movs	r3, #0
 1427              	.LVL222:
 119:..\..\..\arduinoLCD\test\Pain Drain\libraries\lvgl\src\draw\sw/lv_draw_sw_transform.c ****         int32_t ys_step_256 = 0;
 1428              		.loc 1 119 0
 1429 0158 1946     		mov	r1, r3
 1430              	.LVL223:
 1431              	.L79:
 125:..\..\..\arduinoLCD\test\Pain Drain\libraries\lvgl\src\draw\sw/lv_draw_sw_transform.c ****         int32_t ys_ups = ys1_ups + 0x80;
ARM GAS  C:\Users\haske\AppData\Local\Temp\cc9HFfJU.s 			page 48


 1432              		.loc 1 125 0
 1433 015a 8030     		adds	r0, r0, #128
 1434              	.LVL224:
 126:..\..\..\arduinoLCD\test\Pain Drain\libraries\lvgl\src\draw\sw/lv_draw_sw_transform.c **** 
 1435              		.loc 1 126 0
 1436 015c 0EF18002 		add	r2, lr, #128
 1437              	.LVL225:
 128:..\..\..\arduinoLCD\test\Pain Drain\libraries\lvgl\src\draw\sw/lv_draw_sw_transform.c ****             switch(cf) {
 1438              		.loc 1 128 0
 1439 0160 9BF814E0 		ldrb	lr, [fp, #20]	@ zero_extendqisi2
 1440              	.LVL226:
 1441 0164 1EF0010F 		tst	lr, #1
 1442 0168 3AD1     		bne	.L80
 129:..\..\..\arduinoLCD\test\Pain Drain\libraries\lvgl\src\draw\sw/lv_draw_sw_transform.c ****                 case LV_IMG_CF_TRUE_COLOR_ALPHA:
 1443              		.loc 1 129 0
 1444 016a A7F1040E 		sub	lr, r7, #4
 1445 016e BEF1100F 		cmp	lr, #16
 1446 0172 43D8     		bhi	.L81
 1447 0174 DFE80EF0 		tbb	[pc, lr]
 1448              	.L83:
 1449 0178 17       		.byte	(.L82-.L83)/2
 1450 0179 09       		.byte	(.L84-.L83)/2
 1451 017a 17       		.byte	(.L82-.L83)/2
 1452 017b 42       		.byte	(.L81-.L83)/2
 1453 017c 42       		.byte	(.L81-.L83)/2
 1454 017d 42       		.byte	(.L81-.L83)/2
 1455 017e 42       		.byte	(.L81-.L83)/2
 1456 017f 42       		.byte	(.L81-.L83)/2
 1457 0180 42       		.byte	(.L81-.L83)/2
 1458 0181 42       		.byte	(.L81-.L83)/2
 1459 0182 42       		.byte	(.L81-.L83)/2
 1460 0183 42       		.byte	(.L81-.L83)/2
 1461 0184 42       		.byte	(.L81-.L83)/2
 1462 0185 42       		.byte	(.L81-.L83)/2
 1463 0186 42       		.byte	(.L81-.L83)/2
 1464 0187 42       		.byte	(.L81-.L83)/2
 1465 0188 26       		.byte	(.L85-.L83)/2
 1466 0189 00       		.p2align 1
 1467              	.L84:
 131:..\..\..\arduinoLCD\test\Pain Drain\libraries\lvgl\src\draw\sw/lv_draw_sw_transform.c ****                     break;
 1468              		.loc 1 131 0
 1469 018a 0695     		str	r5, [sp, #24]
 1470 018c 0596     		str	r6, [sp, #20]
 1471 018e 0494     		str	r4, [sp, #16]
 1472 0190 0393     		str	r3, [sp, #12]
 1473 0192 0291     		str	r1, [sp, #8]
 1474 0194 0192     		str	r2, [sp, #4]
 1475 0196 0090     		str	r0, [sp]
 1476 0198 0C9B     		ldr	r3, [sp, #48]
 1477              	.LVL227:
 1478 019a 0B9A     		ldr	r2, [sp, #44]
 1479              	.LVL228:
 1480 019c 0A99     		ldr	r1, [sp, #40]
 1481              	.LVL229:
 1482 019e 0998     		ldr	r0, [sp, #36]
 1483              	.LVL230:
 1484 01a0 FFF7FEFF 		bl	argb_no_aa
ARM GAS  C:\Users\haske\AppData\Local\Temp\cc9HFfJU.s 			page 49


 1485              	.LVL231:
 132:..\..\..\arduinoLCD\test\Pain Drain\libraries\lvgl\src\draw\sw/lv_draw_sw_transform.c ****                 case LV_IMG_CF_TRUE_COLOR:
 1486              		.loc 1 132 0
 1487 01a4 2AE0     		b	.L81
 1488              	.LVL232:
 1489              	.L82:
 135:..\..\..\arduinoLCD\test\Pain Drain\libraries\lvgl\src\draw\sw/lv_draw_sw_transform.c ****                     break;
 1490              		.loc 1 135 0
 1491 01a6 0797     		str	r7, [sp, #28]
 1492 01a8 0695     		str	r5, [sp, #24]
 1493 01aa 0596     		str	r6, [sp, #20]
 1494 01ac 0494     		str	r4, [sp, #16]
 1495 01ae 0393     		str	r3, [sp, #12]
 1496 01b0 0291     		str	r1, [sp, #8]
 1497 01b2 0192     		str	r2, [sp, #4]
 1498 01b4 0090     		str	r0, [sp]
 1499 01b6 0C9B     		ldr	r3, [sp, #48]
 1500              	.LVL233:
 1501 01b8 0B9A     		ldr	r2, [sp, #44]
 1502              	.LVL234:
 1503 01ba 0A99     		ldr	r1, [sp, #40]
 1504              	.LVL235:
 1505 01bc 0998     		ldr	r0, [sp, #36]
 1506              	.LVL236:
 1507 01be FFF7FEFF 		bl	rgb_no_aa
 1508              	.LVL237:
 136:..\..\..\arduinoLCD\test\Pain Drain\libraries\lvgl\src\draw\sw/lv_draw_sw_transform.c **** 
 1509              		.loc 1 136 0
 1510 01c2 1BE0     		b	.L81
 1511              	.LVL238:
 1512              	.L85:
 140:..\..\..\arduinoLCD\test\Pain Drain\libraries\lvgl\src\draw\sw/lv_draw_sw_transform.c ****                     break;
 1513              		.loc 1 140 0
 1514 01c4 0695     		str	r5, [sp, #24]
 1515 01c6 0596     		str	r6, [sp, #20]
 1516 01c8 0494     		str	r4, [sp, #16]
 1517 01ca 0393     		str	r3, [sp, #12]
 1518 01cc 0291     		str	r1, [sp, #8]
 1519 01ce 0192     		str	r2, [sp, #4]
 1520 01d0 0090     		str	r0, [sp]
 1521 01d2 0C9B     		ldr	r3, [sp, #48]
 1522              	.LVL239:
 1523 01d4 0B9A     		ldr	r2, [sp, #44]
 1524              	.LVL240:
 1525 01d6 0A99     		ldr	r1, [sp, #40]
 1526              	.LVL241:
 1527 01d8 0998     		ldr	r0, [sp, #36]
 1528              	.LVL242:
 1529 01da FFF7FEFF 		bl	rgb565a8_no_aa
 1530              	.LVL243:
 141:..\..\..\arduinoLCD\test\Pain Drain\libraries\lvgl\src\draw\sw/lv_draw_sw_transform.c **** #endif
 1531              		.loc 1 141 0
 1532 01de 0DE0     		b	.L81
 1533              	.LVL244:
 1534              	.L80:
 148:..\..\..\arduinoLCD\test\Pain Drain\libraries\lvgl\src\draw\sw/lv_draw_sw_transform.c ****         }
 1535              		.loc 1 148 0
ARM GAS  C:\Users\haske\AppData\Local\Temp\cc9HFfJU.s 			page 50


 1536 01e0 0797     		str	r7, [sp, #28]
 1537 01e2 0695     		str	r5, [sp, #24]
 1538 01e4 0596     		str	r6, [sp, #20]
 1539 01e6 0494     		str	r4, [sp, #16]
 1540 01e8 0393     		str	r3, [sp, #12]
 1541 01ea 0291     		str	r1, [sp, #8]
 1542 01ec 0192     		str	r2, [sp, #4]
 1543 01ee 0090     		str	r0, [sp]
 1544 01f0 0C9B     		ldr	r3, [sp, #48]
 1545              	.LVL245:
 1546 01f2 0B9A     		ldr	r2, [sp, #44]
 1547              	.LVL246:
 1548 01f4 0A99     		ldr	r1, [sp, #40]
 1549              	.LVL247:
 1550 01f6 0998     		ldr	r0, [sp, #36]
 1551              	.LVL248:
 1552 01f8 FFF7FEFF 		bl	argb_and_rgb_aa
 1553              	.LVL249:
 1554              	.L81:
 151:..\..\..\arduinoLCD\test\Pain Drain\libraries\lvgl\src\draw\sw/lv_draw_sw_transform.c ****         abuf += dest_w;
 1555              		.loc 1 151 0 discriminator 2
 1556 01fc 06EB4406 		add	r6, r6, r4, lsl #1
 1557              	.LVL250:
 152:..\..\..\arduinoLCD\test\Pain Drain\libraries\lvgl\src\draw\sw/lv_draw_sw_transform.c ****     }
 1558              		.loc 1 152 0 discriminator 2
 1559 0200 2544     		add	r5, r5, r4
 1560              	.LVL251:
 1561              	.LBE41:
 111:..\..\..\arduinoLCD\test\Pain Drain\libraries\lvgl\src\draw\sw/lv_draw_sw_transform.c ****         int32_t xs1_ups, ys1_ups, xs2_ups, ys2_ups;
 1562              		.loc 1 111 0 discriminator 2
 1563 0202 08F10108 		add	r8, r8, #1
 1564              	.LVL252:
 1565 0206 0FFA88F8 		sxth	r8, r8
 1566              	.LVL253:
 1567              	.L78:
 111:..\..\..\arduinoLCD\test\Pain Drain\libraries\lvgl\src\draw\sw/lv_draw_sw_transform.c ****         int32_t xs1_ups, ys1_ups, xs2_ups, ys2_ups;
 1568              		.loc 1 111 0 is_stmt 0 discriminator 1
 1569 020a D045     		cmp	r8, r10
 1570 020c FFF67AAF 		blt	.L86
 154:..\..\..\arduinoLCD\test\Pain Drain\libraries\lvgl\src\draw\sw/lv_draw_sw_transform.c **** 
 1571              		.loc 1 154 0 is_stmt 1
 1572 0210 21B0     		add	sp, sp, #132
 1573              		.cfi_def_cfa_offset 36
 1574              		@ sp needed
 1575 0212 BDE8F08F 		pop	{r4, r5, r6, r7, r8, r9, r10, fp, pc}
 1576              	.LVL254:
 1577              	.L90:
 1578 0216 00BF     		.align	2
 1579              	.L89:
 1580 0218 67666666 		.word	1717986919
 1581              		.cfi_endproc
 1582              	.LFE159:
 1583              		.size	lv_draw_sw_transform, .-lv_draw_sw_transform
 1584              		.text
 1585              	.Letext0:
 1586              		.file 4 "c:\\program files (x86)\\cypress\\psoc creator\\4.4\\psoc creator\\import\\gnu\\arm\\5.4.
 1587              		.file 5 "c:\\program files (x86)\\cypress\\psoc creator\\4.4\\psoc creator\\import\\gnu\\arm\\5.4.
ARM GAS  C:\Users\haske\AppData\Local\Temp\cc9HFfJU.s 			page 51


 1588              		.file 6 "c:\\projects\\paindrain\\arduinolcd\\test\\pain drain\\libraries\\lvgl\\src\\misc\\lv_typ
 1589              		.file 7 "c:\\program files (x86)\\cypress\\psoc creator\\4.4\\psoc creator\\import\\gnu\\arm\\5.4.
 1590              		.file 8 "c:\\projects\\paindrain\\arduinolcd\\test\\pain drain\\libraries\\lvgl\\src\\font\\lv_fon
 1591              		.file 9 "c:\\projects\\paindrain\\arduinolcd\\test\\pain drain\\libraries\\lvgl\\src\\misc\\lv_txt
 1592              		.file 10 "c:\\projects\\paindrain\\arduinolcd\\test\\pain drain\\libraries\\lvgl\\src\\misc\\lv_bi
 1593              		.file 11 "c:\\projects\\paindrain\\arduinolcd\\test\\pain drain\\libraries\\lvgl\\src\\misc\\lv_st
 1594              		.file 12 "..\\..\\..\\arduinoLCD\\test\\Pain Drain\\libraries\\lvgl\\src\\draw\\sw\\../lv_img_buf.
 1595              		.file 13 "c:\\projects\\paindrain\\arduinolcd\\test\\pain drain\\libraries\\lvgl\\src\\core\\lv_ob
 1596              		.file 14 "..\\..\\..\\arduinoLCD\\test\\Pain Drain\\libraries\\lvgl\\src\\draw\\sw\\../lv_draw_rec
 1597              		.file 15 "..\\..\\..\\arduinoLCD\\test\\Pain Drain\\libraries\\lvgl\\src\\draw\\sw\\../lv_draw_lab
 1598              		.file 16 "..\\..\\..\\arduinoLCD\\test\\Pain Drain\\libraries\\lvgl\\src\\draw\\sw\\../lv_draw_img
 1599              		.file 17 "..\\..\\..\\arduinoLCD\\test\\Pain Drain\\libraries\\lvgl\\src\\draw\\sw\\../lv_draw_lin
 1600              		.file 18 "..\\..\\..\\arduinoLCD\\test\\Pain Drain\\libraries\\lvgl\\src\\draw\\sw\\../lv_draw_arc
 1601              		.file 19 "..\\..\\..\\arduinoLCD\\test\\Pain Drain\\libraries\\lvgl\\src\\draw\\sw\\../lv_draw_lay
 1602              		.file 20 "..\\..\\..\\arduinoLCD\\test\\Pain Drain\\libraries\\lvgl\\src\\draw\\sw\\../lv_draw.h"
 1603              		.file 21 "c:\\projects\\paindrain\\arduinolcd\\test\\pain drain\\libraries\\lvgl\\src\\misc\\lv_ti
 1604              		.file 22 "c:\\projects\\paindrain\\arduinolcd\\test\\pain drain\\libraries\\lvgl\\src\\hal\\lv_hal
 1605              		.file 23 "c:\\projects\\paindrain\\arduinolcd\\test\\pain drain\\libraries\\lvgl\\src\\core\\lv_gr
 1606              		.file 24 "c:\\projects\\paindrain\\arduinolcd\\test\\pain drain\\libraries\\lvgl\\src\\misc\\lv_ll
 1607              		.file 25 "c:\\projects\\paindrain\\arduinolcd\\test\\pain drain\\libraries\\lvgl\\src\\core\\lv_ob
 1608              		.file 26 "c:\\projects\\paindrain\\arduinolcd\\test\\pain drain\\libraries\\lvgl\\src\\core\\lv_ob
 1609              		.file 27 "c:\\projects\\paindrain\\arduinolcd\\test\\pain drain\\libraries\\lvgl\\src\\core\\lv_ob
 1610              		.file 28 "c:\\projects\\paindrain\\arduinolcd\\test\\pain drain\\libraries\\lvgl\\src\\core\\lv_ev
 1611              		.file 29 "c:\\projects\\paindrain\\arduinolcd\\test\\pain drain\\libraries\\lvgl\\src\\core\\lv_re
 1612              		.file 30 "c:\\projects\\paindrain\\arduinolcd\\test\\pain drain\\libraries\\lvgl\\src\\misc\\lv_me
 1613              		.file 31 "c:\\projects\\paindrain\\arduinolcd\\test\\pain drain\\libraries\\lvgl\\src\\misc\\lv_ma
 1614              		.section	.debug_info,"",%progbits
 1615              	.Ldebug_info0:
 1616 0000 56280000 		.4byte	0x2856
 1617 0004 0400     		.2byte	0x4
 1618 0006 00000000 		.4byte	.Ldebug_abbrev0
 1619 000a 04       		.byte	0x4
 1620 000b 01       		.uleb128 0x1
 1621 000c 9A0E0000 		.4byte	.LASF578
 1622 0010 0C       		.byte	0xc
 1623 0011 9E190000 		.4byte	.LASF579
 1624 0015 E31C0000 		.4byte	.LASF580
 1625 0019 00000000 		.4byte	.Ldebug_ranges0+0
 1626 001d 00000000 		.4byte	0
 1627 0021 00000000 		.4byte	.Ldebug_line0
 1628 0025 02       		.uleb128 0x2
 1629 0026 71170000 		.4byte	.LASF0
 1630 002a 04       		.byte	0x4
 1631 002b 1B       		.byte	0x1b
 1632 002c 30000000 		.4byte	0x30
 1633 0030 03       		.uleb128 0x3
 1634 0031 01       		.byte	0x1
 1635 0032 06       		.byte	0x6
 1636 0033 43060000 		.4byte	.LASF2
 1637 0037 02       		.uleb128 0x2
 1638 0038 C5030000 		.4byte	.LASF1
 1639 003c 04       		.byte	0x4
 1640 003d 1D       		.byte	0x1d
 1641 003e 42000000 		.4byte	0x42
 1642 0042 03       		.uleb128 0x3
 1643 0043 01       		.byte	0x1
 1644 0044 08       		.byte	0x8
ARM GAS  C:\Users\haske\AppData\Local\Temp\cc9HFfJU.s 			page 52


 1645 0045 D3060000 		.4byte	.LASF3
 1646 0049 02       		.uleb128 0x2
 1647 004a F4190000 		.4byte	.LASF4
 1648 004e 04       		.byte	0x4
 1649 004f 29       		.byte	0x29
 1650 0050 54000000 		.4byte	0x54
 1651 0054 03       		.uleb128 0x3
 1652 0055 02       		.byte	0x2
 1653 0056 05       		.byte	0x5
 1654 0057 771B0000 		.4byte	.LASF5
 1655 005b 02       		.uleb128 0x2
 1656 005c 8D090000 		.4byte	.LASF6
 1657 0060 04       		.byte	0x4
 1658 0061 2B       		.byte	0x2b
 1659 0062 66000000 		.4byte	0x66
 1660 0066 03       		.uleb128 0x3
 1661 0067 02       		.byte	0x2
 1662 0068 07       		.byte	0x7
 1663 0069 FF1E0000 		.4byte	.LASF7
 1664 006d 02       		.uleb128 0x2
 1665 006e B51F0000 		.4byte	.LASF8
 1666 0072 04       		.byte	0x4
 1667 0073 3F       		.byte	0x3f
 1668 0074 78000000 		.4byte	0x78
 1669 0078 03       		.uleb128 0x3
 1670 0079 04       		.byte	0x4
 1671 007a 05       		.byte	0x5
 1672 007b B7040000 		.4byte	.LASF9
 1673 007f 02       		.uleb128 0x2
 1674 0080 A8100000 		.4byte	.LASF10
 1675 0084 04       		.byte	0x4
 1676 0085 41       		.byte	0x41
 1677 0086 8A000000 		.4byte	0x8a
 1678 008a 03       		.uleb128 0x3
 1679 008b 04       		.byte	0x4
 1680 008c 07       		.byte	0x7
 1681 008d B40D0000 		.4byte	.LASF11
 1682 0091 03       		.uleb128 0x3
 1683 0092 08       		.byte	0x8
 1684 0093 05       		.byte	0x5
 1685 0094 E8100000 		.4byte	.LASF12
 1686 0098 03       		.uleb128 0x3
 1687 0099 08       		.byte	0x8
 1688 009a 07       		.byte	0x7
 1689 009b BD170000 		.4byte	.LASF13
 1690 009f 04       		.uleb128 0x4
 1691 00a0 04       		.byte	0x4
 1692 00a1 05       		.byte	0x5
 1693 00a2 696E7400 		.ascii	"int\000"
 1694 00a6 03       		.uleb128 0x3
 1695 00a7 04       		.byte	0x4
 1696 00a8 07       		.byte	0x7
 1697 00a9 AF120000 		.4byte	.LASF14
 1698 00ad 02       		.uleb128 0x2
 1699 00ae 16000000 		.4byte	.LASF15
 1700 00b2 05       		.byte	0x5
 1701 00b3 14       		.byte	0x14
ARM GAS  C:\Users\haske\AppData\Local\Temp\cc9HFfJU.s 			page 53


 1702 00b4 25000000 		.4byte	0x25
 1703 00b8 02       		.uleb128 0x2
 1704 00b9 4F060000 		.4byte	.LASF16
 1705 00bd 05       		.byte	0x5
 1706 00be 18       		.byte	0x18
 1707 00bf 37000000 		.4byte	0x37
 1708 00c3 02       		.uleb128 0x2
 1709 00c4 1A1C0000 		.4byte	.LASF17
 1710 00c8 05       		.byte	0x5
 1711 00c9 20       		.byte	0x20
 1712 00ca 49000000 		.4byte	0x49
 1713 00ce 02       		.uleb128 0x2
 1714 00cf 40180000 		.4byte	.LASF18
 1715 00d3 05       		.byte	0x5
 1716 00d4 24       		.byte	0x24
 1717 00d5 5B000000 		.4byte	0x5b
 1718 00d9 02       		.uleb128 0x2
 1719 00da FE000000 		.4byte	.LASF19
 1720 00de 05       		.byte	0x5
 1721 00df 2C       		.byte	0x2c
 1722 00e0 6D000000 		.4byte	0x6d
 1723 00e4 02       		.uleb128 0x2
 1724 00e5 6D1E0000 		.4byte	.LASF20
 1725 00e9 05       		.byte	0x5
 1726 00ea 30       		.byte	0x30
 1727 00eb 7F000000 		.4byte	0x7f
 1728 00ef 02       		.uleb128 0x2
 1729 00f0 08160000 		.4byte	.LASF21
 1730 00f4 06       		.byte	0x6
 1731 00f5 2F       		.byte	0x2f
 1732 00f6 B8000000 		.4byte	0xb8
 1733 00fa 02       		.uleb128 0x2
 1734 00fb 5B000000 		.4byte	.LASF22
 1735 00ff 07       		.byte	0x7
 1736 0100 D8       		.byte	0xd8
 1737 0101 A6000000 		.4byte	0xa6
 1738 0105 03       		.uleb128 0x3
 1739 0106 08       		.byte	0x8
 1740 0107 04       		.byte	0x4
 1741 0108 38160000 		.4byte	.LASF23
 1742 010c 03       		.uleb128 0x3
 1743 010d 04       		.byte	0x4
 1744 010e 07       		.byte	0x7
 1745 010f 68000000 		.4byte	.LASF24
 1746 0113 05       		.uleb128 0x5
 1747 0114 04       		.byte	0x4
 1748 0115 03       		.uleb128 0x3
 1749 0116 01       		.byte	0x1
 1750 0117 08       		.byte	0x8
 1751 0118 CF080000 		.4byte	.LASF25
 1752 011c 06       		.uleb128 0x6
 1753 011d 01       		.byte	0x1
 1754 011e 42000000 		.4byte	0x42
 1755 0122 02       		.byte	0x2
 1756 0123 29       		.byte	0x29
 1757 0124 77010000 		.4byte	0x177
 1758 0128 07       		.uleb128 0x7
ARM GAS  C:\Users\haske\AppData\Local\Temp\cc9HFfJU.s 			page 54


 1759 0129 FB110000 		.4byte	.LASF26
 1760 012d 00       		.byte	0
 1761 012e 07       		.uleb128 0x7
 1762 012f 4D0F0000 		.4byte	.LASF27
 1763 0133 00       		.byte	0
 1764 0134 07       		.uleb128 0x7
 1765 0135 2E190000 		.4byte	.LASF28
 1766 0139 19       		.byte	0x19
 1767 013a 07       		.uleb128 0x7
 1768 013b 621A0000 		.4byte	.LASF29
 1769 013f 33       		.byte	0x33
 1770 0140 07       		.uleb128 0x7
 1771 0141 011B0000 		.4byte	.LASF30
 1772 0145 4C       		.byte	0x4c
 1773 0146 07       		.uleb128 0x7
 1774 0147 101C0000 		.4byte	.LASF31
 1775 014b 66       		.byte	0x66
 1776 014c 07       		.uleb128 0x7
 1777 014d C71C0000 		.4byte	.LASF32
 1778 0151 7F       		.byte	0x7f
 1779 0152 07       		.uleb128 0x7
 1780 0153 F61D0000 		.4byte	.LASF33
 1781 0157 99       		.byte	0x99
 1782 0158 07       		.uleb128 0x7
 1783 0159 F51E0000 		.4byte	.LASF34
 1784 015d B2       		.byte	0xb2
 1785 015e 07       		.uleb128 0x7
 1786 015f 0D200000 		.4byte	.LASF35
 1787 0163 CC       		.byte	0xcc
 1788 0164 07       		.uleb128 0x7
 1789 0165 F3200000 		.4byte	.LASF36
 1790 0169 E5       		.byte	0xe5
 1791 016a 07       		.uleb128 0x7
 1792 016b 0F150000 		.4byte	.LASF37
 1793 016f FF       		.byte	0xff
 1794 0170 07       		.uleb128 0x7
 1795 0171 77160000 		.4byte	.LASF38
 1796 0175 FF       		.byte	0xff
 1797 0176 00       		.byte	0
 1798 0177 08       		.uleb128 0x8
 1799 0178 02       		.byte	0x2
 1800 0179 02       		.byte	0x2
 1801 017a D1       		.byte	0xd1
 1802 017b AD010000 		.4byte	0x1ad
 1803 017f 09       		.uleb128 0x9
 1804 0180 A6060000 		.4byte	.LASF39
 1805 0184 02       		.byte	0x2
 1806 0185 D3       		.byte	0xd3
 1807 0186 CE000000 		.4byte	0xce
 1808 018a 02       		.byte	0x2
 1809 018b 05       		.byte	0x5
 1810 018c 0B       		.byte	0xb
 1811 018d 00       		.byte	0
 1812 018e 09       		.uleb128 0x9
 1813 018f C61E0000 		.4byte	.LASF40
 1814 0193 02       		.byte	0x2
 1815 0194 D4       		.byte	0xd4
ARM GAS  C:\Users\haske\AppData\Local\Temp\cc9HFfJU.s 			page 55


 1816 0195 CE000000 		.4byte	0xce
 1817 0199 02       		.byte	0x2
 1818 019a 06       		.byte	0x6
 1819 019b 05       		.byte	0x5
 1820 019c 00       		.byte	0
 1821 019d 0A       		.uleb128 0xa
 1822 019e 72656400 		.ascii	"red\000"
 1823 01a2 02       		.byte	0x2
 1824 01a3 D5       		.byte	0xd5
 1825 01a4 CE000000 		.4byte	0xce
 1826 01a8 02       		.byte	0x2
 1827 01a9 05       		.byte	0x5
 1828 01aa 00       		.byte	0
 1829 01ab 00       		.byte	0
 1830 01ac 00       		.byte	0
 1831 01ad 0B       		.uleb128 0xb
 1832 01ae 02       		.byte	0x2
 1833 01af 02       		.byte	0x2
 1834 01b0 D0       		.byte	0xd0
 1835 01b1 CB010000 		.4byte	0x1cb
 1836 01b5 0C       		.uleb128 0xc
 1837 01b6 636800   		.ascii	"ch\000"
 1838 01b9 02       		.byte	0x2
 1839 01ba DC       		.byte	0xdc
 1840 01bb 77010000 		.4byte	0x177
 1841 01bf 0D       		.uleb128 0xd
 1842 01c0 491A0000 		.4byte	.LASF41
 1843 01c4 02       		.byte	0x2
 1844 01c5 DD       		.byte	0xdd
 1845 01c6 CE000000 		.4byte	0xce
 1846 01ca 00       		.byte	0
 1847 01cb 02       		.uleb128 0x2
 1848 01cc 641B0000 		.4byte	.LASF42
 1849 01d0 02       		.byte	0x2
 1850 01d1 DE       		.byte	0xde
 1851 01d2 AD010000 		.4byte	0x1ad
 1852 01d6 02       		.uleb128 0x2
 1853 01d7 79180000 		.4byte	.LASF43
 1854 01db 02       		.byte	0x2
 1855 01dc EB       		.byte	0xeb
 1856 01dd CB010000 		.4byte	0x1cb
 1857 01e1 02       		.uleb128 0x2
 1858 01e2 DC000000 		.4byte	.LASF44
 1859 01e6 02       		.byte	0x2
 1860 01e7 F5       		.byte	0xf5
 1861 01e8 B8000000 		.4byte	0xb8
 1862 01ec 02       		.uleb128 0x2
 1863 01ed 1F1F0000 		.4byte	.LASF45
 1864 01f1 03       		.byte	0x3
 1865 01f2 1B       		.byte	0x1b
 1866 01f3 C3000000 		.4byte	0xc3
 1867 01f7 08       		.uleb128 0x8
 1868 01f8 04       		.byte	0x4
 1869 01f9 03       		.byte	0x3
 1870 01fa 25       		.byte	0x25
 1871 01fb 14020000 		.4byte	0x214
 1872 01ff 0E       		.uleb128 0xe
ARM GAS  C:\Users\haske\AppData\Local\Temp\cc9HFfJU.s 			page 56


 1873 0200 7800     		.ascii	"x\000"
 1874 0202 03       		.byte	0x3
 1875 0203 26       		.byte	0x26
 1876 0204 EC010000 		.4byte	0x1ec
 1877 0208 00       		.byte	0
 1878 0209 0E       		.uleb128 0xe
 1879 020a 7900     		.ascii	"y\000"
 1880 020c 03       		.byte	0x3
 1881 020d 27       		.byte	0x27
 1882 020e EC010000 		.4byte	0x1ec
 1883 0212 02       		.byte	0x2
 1884 0213 00       		.byte	0
 1885 0214 02       		.uleb128 0x2
 1886 0215 49010000 		.4byte	.LASF46
 1887 0219 03       		.byte	0x3
 1888 021a 28       		.byte	0x28
 1889 021b F7010000 		.4byte	0x1f7
 1890 021f 08       		.uleb128 0x8
 1891 0220 08       		.byte	0x8
 1892 0221 03       		.byte	0x3
 1893 0222 2B       		.byte	0x2b
 1894 0223 54020000 		.4byte	0x254
 1895 0227 0E       		.uleb128 0xe
 1896 0228 783100   		.ascii	"x1\000"
 1897 022b 03       		.byte	0x3
 1898 022c 2C       		.byte	0x2c
 1899 022d EC010000 		.4byte	0x1ec
 1900 0231 00       		.byte	0
 1901 0232 0E       		.uleb128 0xe
 1902 0233 793100   		.ascii	"y1\000"
 1903 0236 03       		.byte	0x3
 1904 0237 2D       		.byte	0x2d
 1905 0238 EC010000 		.4byte	0x1ec
 1906 023c 02       		.byte	0x2
 1907 023d 0E       		.uleb128 0xe
 1908 023e 783200   		.ascii	"x2\000"
 1909 0241 03       		.byte	0x3
 1910 0242 2E       		.byte	0x2e
 1911 0243 EC010000 		.4byte	0x1ec
 1912 0247 04       		.byte	0x4
 1913 0248 0E       		.uleb128 0xe
 1914 0249 793200   		.ascii	"y2\000"
 1915 024c 03       		.byte	0x3
 1916 024d 2F       		.byte	0x2f
 1917 024e EC010000 		.4byte	0x1ec
 1918 0252 06       		.byte	0x6
 1919 0253 00       		.byte	0
 1920 0254 02       		.uleb128 0x2
 1921 0255 450B0000 		.4byte	.LASF47
 1922 0259 03       		.byte	0x3
 1923 025a 30       		.byte	0x30
 1924 025b 1F020000 		.4byte	0x21f
 1925 025f 02       		.uleb128 0x2
 1926 0260 1F0A0000 		.4byte	.LASF48
 1927 0264 03       		.byte	0x3
 1928 0265 59       		.byte	0x59
 1929 0266 B8000000 		.4byte	0xb8
ARM GAS  C:\Users\haske\AppData\Local\Temp\cc9HFfJU.s 			page 57


 1930 026a 08       		.uleb128 0x8
 1931 026b 10       		.byte	0x10
 1932 026c 08       		.byte	0x8
 1933 026d 29       		.byte	0x29
 1934 026e D9020000 		.4byte	0x2d9
 1935 0272 0F       		.uleb128 0xf
 1936 0273 680E0000 		.4byte	.LASF49
 1937 0277 08       		.byte	0x8
 1938 0278 2B       		.byte	0x2b
 1939 0279 61030000 		.4byte	0x361
 1940 027d 00       		.byte	0
 1941 027e 0F       		.uleb128 0xf
 1942 027f 62000000 		.4byte	.LASF50
 1943 0283 08       		.byte	0x8
 1944 0284 2C       		.byte	0x2c
 1945 0285 CE000000 		.4byte	0xce
 1946 0289 04       		.byte	0x4
 1947 028a 0F       		.uleb128 0xf
 1948 028b 711B0000 		.4byte	.LASF51
 1949 028f 08       		.byte	0x8
 1950 0290 2D       		.byte	0x2d
 1951 0291 CE000000 		.4byte	0xce
 1952 0295 06       		.byte	0x6
 1953 0296 0F       		.uleb128 0xf
 1954 0297 491B0000 		.4byte	.LASF52
 1955 029b 08       		.byte	0x8
 1956 029c 2E       		.byte	0x2e
 1957 029d CE000000 		.4byte	0xce
 1958 02a1 08       		.byte	0x8
 1959 02a2 0F       		.uleb128 0xf
 1960 02a3 C2070000 		.4byte	.LASF53
 1961 02a7 08       		.byte	0x8
 1962 02a8 2F       		.byte	0x2f
 1963 02a9 C3000000 		.4byte	0xc3
 1964 02ad 0A       		.byte	0xa
 1965 02ae 0F       		.uleb128 0xf
 1966 02af C8070000 		.4byte	.LASF54
 1967 02b3 08       		.byte	0x8
 1968 02b4 30       		.byte	0x30
 1969 02b5 C3000000 		.4byte	0xc3
 1970 02b9 0C       		.byte	0xc
 1971 02ba 0A       		.uleb128 0xa
 1972 02bb 62707000 		.ascii	"bpp\000"
 1973 02bf 08       		.byte	0x8
 1974 02c0 31       		.byte	0x31
 1975 02c1 B8000000 		.4byte	0xb8
 1976 02c5 01       		.byte	0x1
 1977 02c6 04       		.byte	0x4
 1978 02c7 04       		.byte	0x4
 1979 02c8 0E       		.byte	0xe
 1980 02c9 09       		.uleb128 0x9
 1981 02ca CF200000 		.4byte	.LASF55
 1982 02ce 08       		.byte	0x8
 1983 02cf 32       		.byte	0x32
 1984 02d0 B8000000 		.4byte	0xb8
 1985 02d4 01       		.byte	0x1
 1986 02d5 01       		.byte	0x1
ARM GAS  C:\Users\haske\AppData\Local\Temp\cc9HFfJU.s 			page 58


 1987 02d6 03       		.byte	0x3
 1988 02d7 0E       		.byte	0xe
 1989 02d8 00       		.byte	0
 1990 02d9 10       		.uleb128 0x10
 1991 02da 95100000 		.4byte	.LASF223
 1992 02de 1C       		.byte	0x1c
 1993 02df 08       		.byte	0x8
 1994 02e0 40       		.byte	0x40
 1995 02e1 61030000 		.4byte	0x361
 1996 02e5 0F       		.uleb128 0xf
 1997 02e6 A71F0000 		.4byte	.LASF56
 1998 02ea 08       		.byte	0x8
 1999 02eb 42       		.byte	0x42
 2000 02ec A2030000 		.4byte	0x3a2
 2001 02f0 00       		.byte	0
 2002 02f1 0F       		.uleb128 0xf
 2003 02f2 8B060000 		.4byte	.LASF57
 2004 02f6 08       		.byte	0x8
 2005 02f7 45       		.byte	0x45
 2006 02f8 C7030000 		.4byte	0x3c7
 2007 02fc 04       		.byte	0x4
 2008 02fd 0F       		.uleb128 0xf
 2009 02fe 6B010000 		.4byte	.LASF58
 2010 0302 08       		.byte	0x8
 2011 0303 48       		.byte	0x48
 2012 0304 EC010000 		.4byte	0x1ec
 2013 0308 08       		.byte	0x8
 2014 0309 0F       		.uleb128 0xf
 2015 030a 811B0000 		.4byte	.LASF59
 2016 030e 08       		.byte	0x8
 2017 030f 49       		.byte	0x49
 2018 0310 EC010000 		.4byte	0x1ec
 2019 0314 0A       		.byte	0xa
 2020 0315 09       		.uleb128 0x9
 2021 0316 71160000 		.4byte	.LASF60
 2022 031a 08       		.byte	0x8
 2023 031b 4A       		.byte	0x4a
 2024 031c B8000000 		.4byte	0xb8
 2025 0320 01       		.byte	0x1
 2026 0321 02       		.byte	0x2
 2027 0322 06       		.byte	0x6
 2028 0323 0C       		.byte	0xc
 2029 0324 0F       		.uleb128 0xf
 2030 0325 E6080000 		.4byte	.LASF61
 2031 0329 08       		.byte	0x8
 2032 032a 4C       		.byte	0x4c
 2033 032b AD000000 		.4byte	0xad
 2034 032f 0D       		.byte	0xd
 2035 0330 0F       		.uleb128 0xf
 2036 0331 B7110000 		.4byte	.LASF62
 2037 0335 08       		.byte	0x8
 2038 0336 4D       		.byte	0x4d
 2039 0337 AD000000 		.4byte	0xad
 2040 033b 0E       		.byte	0xe
 2041 033c 0E       		.uleb128 0xe
 2042 033d 64736300 		.ascii	"dsc\000"
 2043 0341 08       		.byte	0x8
ARM GAS  C:\Users\haske\AppData\Local\Temp\cc9HFfJU.s 			page 59


 2044 0342 4F       		.byte	0x4f
 2045 0343 CD030000 		.4byte	0x3cd
 2046 0347 10       		.byte	0x10
 2047 0348 0F       		.uleb128 0xf
 2048 0349 FB0A0000 		.4byte	.LASF63
 2049 034d 08       		.byte	0x8
 2050 034e 50       		.byte	0x50
 2051 034f 61030000 		.4byte	0x361
 2052 0353 14       		.byte	0x14
 2053 0354 0F       		.uleb128 0xf
 2054 0355 4A1F0000 		.4byte	.LASF64
 2055 0359 08       		.byte	0x8
 2056 035a 52       		.byte	0x52
 2057 035b 13010000 		.4byte	0x113
 2058 035f 18       		.byte	0x18
 2059 0360 00       		.byte	0
 2060 0361 11       		.uleb128 0x11
 2061 0362 04       		.byte	0x4
 2062 0363 67030000 		.4byte	0x367
 2063 0367 12       		.uleb128 0x12
 2064 0368 D9020000 		.4byte	0x2d9
 2065 036c 02       		.uleb128 0x2
 2066 036d 26140000 		.4byte	.LASF65
 2067 0371 08       		.byte	0x8
 2068 0372 33       		.byte	0x33
 2069 0373 6A020000 		.4byte	0x26a
 2070 0377 13       		.uleb128 0x13
 2071 0378 95030000 		.4byte	0x395
 2072 037c 95030000 		.4byte	0x395
 2073 0380 14       		.uleb128 0x14
 2074 0381 61030000 		.4byte	0x361
 2075 0385 14       		.uleb128 0x14
 2076 0386 9C030000 		.4byte	0x39c
 2077 038a 14       		.uleb128 0x14
 2078 038b E4000000 		.4byte	0xe4
 2079 038f 14       		.uleb128 0x14
 2080 0390 E4000000 		.4byte	0xe4
 2081 0394 00       		.byte	0
 2082 0395 03       		.uleb128 0x3
 2083 0396 01       		.byte	0x1
 2084 0397 02       		.byte	0x2
 2085 0398 09080000 		.4byte	.LASF66
 2086 039c 11       		.uleb128 0x11
 2087 039d 04       		.byte	0x4
 2088 039e 6C030000 		.4byte	0x36c
 2089 03a2 11       		.uleb128 0x11
 2090 03a3 04       		.byte	0x4
 2091 03a4 77030000 		.4byte	0x377
 2092 03a8 13       		.uleb128 0x13
 2093 03a9 BC030000 		.4byte	0x3bc
 2094 03ad BC030000 		.4byte	0x3bc
 2095 03b1 14       		.uleb128 0x14
 2096 03b2 61030000 		.4byte	0x361
 2097 03b6 14       		.uleb128 0x14
 2098 03b7 E4000000 		.4byte	0xe4
 2099 03bb 00       		.byte	0
 2100 03bc 11       		.uleb128 0x11
ARM GAS  C:\Users\haske\AppData\Local\Temp\cc9HFfJU.s 			page 60


 2101 03bd 04       		.byte	0x4
 2102 03be C2030000 		.4byte	0x3c2
 2103 03c2 12       		.uleb128 0x12
 2104 03c3 B8000000 		.4byte	0xb8
 2105 03c7 11       		.uleb128 0x11
 2106 03c8 04       		.byte	0x4
 2107 03c9 A8030000 		.4byte	0x3a8
 2108 03cd 11       		.uleb128 0x11
 2109 03ce 04       		.byte	0x4
 2110 03cf D3030000 		.4byte	0x3d3
 2111 03d3 15       		.uleb128 0x15
 2112 03d4 02       		.uleb128 0x2
 2113 03d5 CC1E0000 		.4byte	.LASF67
 2114 03d9 08       		.byte	0x8
 2115 03da 54       		.byte	0x54
 2116 03db D9020000 		.4byte	0x2d9
 2117 03df 02       		.uleb128 0x2
 2118 03e0 E9180000 		.4byte	.LASF68
 2119 03e4 09       		.byte	0x9
 2120 03e5 30       		.byte	0x30
 2121 03e6 B8000000 		.4byte	0xb8
 2122 03ea 02       		.uleb128 0x2
 2123 03eb 9D110000 		.4byte	.LASF69
 2124 03ef 09       		.byte	0x9
 2125 03f0 42       		.byte	0x42
 2126 03f1 B8000000 		.4byte	0xb8
 2127 03f5 02       		.uleb128 0x2
 2128 03f6 CE070000 		.4byte	.LASF70
 2129 03fa 0A       		.byte	0xa
 2130 03fb 2A       		.byte	0x2a
 2131 03fc B8000000 		.4byte	0xb8
 2132 0400 02       		.uleb128 0x2
 2133 0401 77010000 		.4byte	.LASF71
 2134 0405 0B       		.byte	0xb
 2135 0406 5E       		.byte	0x5e
 2136 0407 B8000000 		.4byte	0xb8
 2137 040b 02       		.uleb128 0x2
 2138 040c CC100000 		.4byte	.LASF72
 2139 0410 0B       		.byte	0xb
 2140 0411 6A       		.byte	0x6a
 2141 0412 B8000000 		.4byte	0xb8
 2142 0416 02       		.uleb128 0x2
 2143 0417 BB1A0000 		.4byte	.LASF73
 2144 041b 0B       		.byte	0xb
 2145 041c 79       		.byte	0x79
 2146 041d B8000000 		.4byte	0xb8
 2147 0421 02       		.uleb128 0x2
 2148 0422 E11F0000 		.4byte	.LASF74
 2149 0426 0B       		.byte	0xb
 2150 0427 84       		.byte	0x84
 2151 0428 B8000000 		.4byte	0xb8
 2152 042c 02       		.uleb128 0x2
 2153 042d 4A160000 		.4byte	.LASF75
 2154 0431 0B       		.byte	0xb
 2155 0432 90       		.byte	0x90
 2156 0433 B8000000 		.4byte	0xb8
 2157 0437 08       		.uleb128 0x8
ARM GAS  C:\Users\haske\AppData\Local\Temp\cc9HFfJU.s 			page 61


 2158 0438 04       		.byte	0x4
 2159 0439 0B       		.byte	0xb
 2160 043a 95       		.byte	0x95
 2161 043b 58040000 		.4byte	0x458
 2162 043f 0F       		.uleb128 0xf
 2163 0440 6C1A0000 		.4byte	.LASF76
 2164 0444 0B       		.byte	0xb
 2165 0445 96       		.byte	0x96
 2166 0446 D6010000 		.4byte	0x1d6
 2167 044a 00       		.byte	0
 2168 044b 0F       		.uleb128 0xf
 2169 044c CC1A0000 		.4byte	.LASF77
 2170 0450 0B       		.byte	0xb
 2171 0451 97       		.byte	0x97
 2172 0452 B8000000 		.4byte	0xb8
 2173 0456 02       		.byte	0x2
 2174 0457 00       		.byte	0
 2175 0458 02       		.uleb128 0x2
 2176 0459 C21D0000 		.4byte	.LASF78
 2177 045d 0B       		.byte	0xb
 2178 045e 98       		.byte	0x98
 2179 045f 37040000 		.4byte	0x437
 2180 0463 08       		.uleb128 0x8
 2181 0464 0A       		.byte	0xa
 2182 0465 0B       		.byte	0xb
 2183 0466 9B       		.byte	0x9b
 2184 0467 A2040000 		.4byte	0x4a2
 2185 046b 0F       		.uleb128 0xf
 2186 046c 7F1A0000 		.4byte	.LASF79
 2187 0470 0B       		.byte	0xb
 2188 0471 9C       		.byte	0x9c
 2189 0472 A2040000 		.4byte	0x4a2
 2190 0476 00       		.byte	0
 2191 0477 0F       		.uleb128 0xf
 2192 0478 6D090000 		.4byte	.LASF80
 2193 047c 0B       		.byte	0xb
 2194 047d 9D       		.byte	0x9d
 2195 047e B8000000 		.4byte	0xb8
 2196 0482 08       		.byte	0x8
 2197 0483 0A       		.uleb128 0xa
 2198 0484 64697200 		.ascii	"dir\000"
 2199 0488 0B       		.byte	0xb
 2200 0489 9E       		.byte	0x9e
 2201 048a 21040000 		.4byte	0x421
 2202 048e 01       		.byte	0x1
 2203 048f 03       		.byte	0x3
 2204 0490 05       		.byte	0x5
 2205 0491 09       		.byte	0x9
 2206 0492 09       		.uleb128 0x9
 2207 0493 EE1E0000 		.4byte	.LASF81
 2208 0497 0B       		.byte	0xb
 2209 0498 A0       		.byte	0xa0
 2210 0499 2C040000 		.4byte	0x42c
 2211 049d 01       		.byte	0x1
 2212 049e 03       		.byte	0x3
 2213 049f 02       		.byte	0x2
 2214 04a0 09       		.byte	0x9
ARM GAS  C:\Users\haske\AppData\Local\Temp\cc9HFfJU.s 			page 62


 2215 04a1 00       		.byte	0
 2216 04a2 16       		.uleb128 0x16
 2217 04a3 58040000 		.4byte	0x458
 2218 04a7 B2040000 		.4byte	0x4b2
 2219 04ab 17       		.uleb128 0x17
 2220 04ac 0C010000 		.4byte	0x10c
 2221 04b0 01       		.byte	0x1
 2222 04b1 00       		.byte	0
 2223 04b2 02       		.uleb128 0x2
 2224 04b3 84200000 		.4byte	.LASF82
 2225 04b7 0B       		.byte	0xb
 2226 04b8 A2       		.byte	0xa2
 2227 04b9 63040000 		.4byte	0x463
 2228 04bd 0B       		.uleb128 0xb
 2229 04be 04       		.byte	0x4
 2230 04bf 0B       		.byte	0xb
 2231 04c0 A7       		.byte	0xa7
 2232 04c1 E7040000 		.4byte	0x4e7
 2233 04c5 0C       		.uleb128 0xc
 2234 04c6 6E756D00 		.ascii	"num\000"
 2235 04ca 0B       		.byte	0xb
 2236 04cb A8       		.byte	0xa8
 2237 04cc D9000000 		.4byte	0xd9
 2238 04d0 0C       		.uleb128 0xc
 2239 04d1 70747200 		.ascii	"ptr\000"
 2240 04d5 0B       		.byte	0xb
 2241 04d6 A9       		.byte	0xa9
 2242 04d7 CD030000 		.4byte	0x3cd
 2243 04db 0D       		.uleb128 0xd
 2244 04dc 6C1A0000 		.4byte	.LASF76
 2245 04e0 0B       		.byte	0xb
 2246 04e1 AA       		.byte	0xaa
 2247 04e2 D6010000 		.4byte	0x1d6
 2248 04e6 00       		.byte	0
 2249 04e7 02       		.uleb128 0x2
 2250 04e8 E8120000 		.4byte	.LASF83
 2251 04ec 0B       		.byte	0xb
 2252 04ed AB       		.byte	0xab
 2253 04ee BD040000 		.4byte	0x4bd
 2254 04f2 06       		.uleb128 0x6
 2255 04f3 02       		.byte	0x2
 2256 04f4 66000000 		.4byte	0x66
 2257 04f8 0B       		.byte	0xb
 2258 04f9 B2       		.byte	0xb2
 2259 04fa 17070000 		.4byte	0x717
 2260 04fe 07       		.uleb128 0x7
 2261 04ff BE0B0000 		.4byte	.LASF84
 2262 0503 00       		.byte	0
 2263 0504 07       		.uleb128 0x7
 2264 0505 A7180000 		.4byte	.LASF85
 2265 0509 01       		.byte	0x1
 2266 050a 07       		.uleb128 0x7
 2267 050b D6180000 		.4byte	.LASF86
 2268 050f 02       		.byte	0x2
 2269 0510 07       		.uleb128 0x7
 2270 0511 0A040000 		.4byte	.LASF87
 2271 0515 03       		.byte	0x3
ARM GAS  C:\Users\haske\AppData\Local\Temp\cc9HFfJU.s 			page 63


 2272 0516 07       		.uleb128 0x7
 2273 0517 16020000 		.4byte	.LASF88
 2274 051b 04       		.byte	0x4
 2275 051c 07       		.uleb128 0x7
 2276 051d 581D0000 		.4byte	.LASF89
 2277 0521 05       		.byte	0x5
 2278 0522 07       		.uleb128 0x7
 2279 0523 ED1A0000 		.4byte	.LASF90
 2280 0527 06       		.byte	0x6
 2281 0528 07       		.uleb128 0x7
 2282 0529 53100000 		.4byte	.LASF91
 2283 052d 07       		.byte	0x7
 2284 052e 07       		.uleb128 0x7
 2285 052f D51D0000 		.4byte	.LASF92
 2286 0533 08       		.byte	0x8
 2287 0534 07       		.uleb128 0x7
 2288 0535 C4060000 		.4byte	.LASF93
 2289 0539 09       		.byte	0x9
 2290 053a 07       		.uleb128 0x7
 2291 053b 16140000 		.4byte	.LASF94
 2292 053f 0A       		.byte	0xa
 2293 0540 07       		.uleb128 0x7
 2294 0541 E3030000 		.4byte	.LASF95
 2295 0545 0B       		.byte	0xb
 2296 0546 07       		.uleb128 0x7
 2297 0547 7E1C0000 		.4byte	.LASF96
 2298 054b 10       		.byte	0x10
 2299 054c 07       		.uleb128 0x7
 2300 054d AF0C0000 		.4byte	.LASF97
 2301 0551 11       		.byte	0x11
 2302 0552 07       		.uleb128 0x7
 2303 0553 B60F0000 		.4byte	.LASF98
 2304 0557 12       		.byte	0x12
 2305 0558 07       		.uleb128 0x7
 2306 0559 6B040000 		.4byte	.LASF99
 2307 055d 13       		.byte	0x13
 2308 055e 07       		.uleb128 0x7
 2309 055f 560F0000 		.4byte	.LASF100
 2310 0563 14       		.byte	0x14
 2311 0564 07       		.uleb128 0x7
 2312 0565 5A030000 		.4byte	.LASF101
 2313 0569 15       		.byte	0x15
 2314 056a 07       		.uleb128 0x7
 2315 056b 46090000 		.4byte	.LASF102
 2316 056f 16       		.byte	0x16
 2317 0570 07       		.uleb128 0x7
 2318 0571 B9140000 		.4byte	.LASF103
 2319 0575 17       		.byte	0x17
 2320 0576 07       		.uleb128 0x7
 2321 0577 D3090000 		.4byte	.LASF104
 2322 057b 20       		.byte	0x20
 2323 057c 07       		.uleb128 0x7
 2324 057d 3E0D0000 		.4byte	.LASF105
 2325 0581 21       		.byte	0x21
 2326 0582 07       		.uleb128 0x7
 2327 0583 291B0000 		.4byte	.LASF106
 2328 0587 22       		.byte	0x22
ARM GAS  C:\Users\haske\AppData\Local\Temp\cc9HFfJU.s 			page 64


 2329 0588 07       		.uleb128 0x7
 2330 0589 76060000 		.4byte	.LASF107
 2331 058d 23       		.byte	0x23
 2332 058e 07       		.uleb128 0x7
 2333 058f 72020000 		.4byte	.LASF108
 2334 0593 24       		.byte	0x24
 2335 0594 07       		.uleb128 0x7
 2336 0595 DE170000 		.4byte	.LASF109
 2337 0599 25       		.byte	0x25
 2338 059a 07       		.uleb128 0x7
 2339 059b AC200000 		.4byte	.LASF110
 2340 059f 26       		.byte	0x26
 2341 05a0 07       		.uleb128 0x7
 2342 05a1 8E030000 		.4byte	.LASF111
 2343 05a5 27       		.byte	0x27
 2344 05a6 07       		.uleb128 0x7
 2345 05a7 38190000 		.4byte	.LASF112
 2346 05ab 28       		.byte	0x28
 2347 05ac 07       		.uleb128 0x7
 2348 05ad 9F1C0000 		.4byte	.LASF113
 2349 05b1 29       		.byte	0x29
 2350 05b2 07       		.uleb128 0x7
 2351 05b3 25040000 		.4byte	.LASF114
 2352 05b7 2A       		.byte	0x2a
 2353 05b8 07       		.uleb128 0x7
 2354 05b9 69080000 		.4byte	.LASF115
 2355 05bd 2B       		.byte	0x2b
 2356 05be 07       		.uleb128 0x7
 2357 05bf 77050000 		.4byte	.LASF116
 2358 05c3 2C       		.byte	0x2c
 2359 05c4 07       		.uleb128 0x7
 2360 05c5 37170000 		.4byte	.LASF117
 2361 05c9 30       		.byte	0x30
 2362 05ca 07       		.uleb128 0x7
 2363 05cb A5050000 		.4byte	.LASF118
 2364 05cf 31       		.byte	0x31
 2365 05d0 07       		.uleb128 0x7
 2366 05d1 1B030000 		.4byte	.LASF119
 2367 05d5 32       		.byte	0x32
 2368 05d6 07       		.uleb128 0x7
 2369 05d7 F4170000 		.4byte	.LASF120
 2370 05db 33       		.byte	0x33
 2371 05dc 07       		.uleb128 0x7
 2372 05dd 9B1D0000 		.4byte	.LASF121
 2373 05e1 34       		.byte	0x34
 2374 05e2 07       		.uleb128 0x7
 2375 05e3 5A0B0000 		.4byte	.LASF122
 2376 05e7 35       		.byte	0x35
 2377 05e8 07       		.uleb128 0x7
 2378 05e9 331F0000 		.4byte	.LASF123
 2379 05ed 36       		.byte	0x36
 2380 05ee 07       		.uleb128 0x7
 2381 05ef 58090000 		.4byte	.LASF124
 2382 05f3 37       		.byte	0x37
 2383 05f4 07       		.uleb128 0x7
 2384 05f5 DE200000 		.4byte	.LASF125
 2385 05f9 38       		.byte	0x38
ARM GAS  C:\Users\haske\AppData\Local\Temp\cc9HFfJU.s 			page 65


 2386 05fa 07       		.uleb128 0x7
 2387 05fb 71140000 		.4byte	.LASF126
 2388 05ff 40       		.byte	0x40
 2389 0600 07       		.uleb128 0x7
 2390 0601 F8180000 		.4byte	.LASF127
 2391 0605 41       		.byte	0x41
 2392 0606 07       		.uleb128 0x7
 2393 0607 0E190000 		.4byte	.LASF128
 2394 060b 42       		.byte	0x42
 2395 060c 07       		.uleb128 0x7
 2396 060d 781F0000 		.4byte	.LASF129
 2397 0611 43       		.byte	0x43
 2398 0612 07       		.uleb128 0x7
 2399 0613 FF050000 		.4byte	.LASF130
 2400 0617 44       		.byte	0x44
 2401 0618 07       		.uleb128 0x7
 2402 0619 3D040000 		.4byte	.LASF131
 2403 061d 45       		.byte	0x45
 2404 061e 07       		.uleb128 0x7
 2405 061f 7C0D0000 		.4byte	.LASF132
 2406 0623 46       		.byte	0x46
 2407 0624 07       		.uleb128 0x7
 2408 0625 85070000 		.4byte	.LASF133
 2409 0629 47       		.byte	0x47
 2410 062a 07       		.uleb128 0x7
 2411 062b E5090000 		.4byte	.LASF134
 2412 062f 48       		.byte	0x48
 2413 0630 07       		.uleb128 0x7
 2414 0631 B31C0000 		.4byte	.LASF135
 2415 0635 49       		.byte	0x49
 2416 0636 07       		.uleb128 0x7
 2417 0637 7F0A0000 		.4byte	.LASF136
 2418 063b 4A       		.byte	0x4a
 2419 063c 07       		.uleb128 0x7
 2420 063d 9D000000 		.4byte	.LASF137
 2421 0641 4B       		.byte	0x4b
 2422 0642 07       		.uleb128 0x7
 2423 0643 E01D0000 		.4byte	.LASF138
 2424 0647 4C       		.byte	0x4c
 2425 0648 07       		.uleb128 0x7
 2426 0649 860E0000 		.4byte	.LASF139
 2427 064d 4D       		.byte	0x4d
 2428 064e 07       		.uleb128 0x7
 2429 064f 4E0D0000 		.4byte	.LASF140
 2430 0653 4E       		.byte	0x4e
 2431 0654 07       		.uleb128 0x7
 2432 0655 A3070000 		.4byte	.LASF141
 2433 0659 50       		.byte	0x50
 2434 065a 07       		.uleb128 0x7
 2435 065b 09120000 		.4byte	.LASF142
 2436 065f 51       		.byte	0x51
 2437 0660 07       		.uleb128 0x7
 2438 0661 FD1B0000 		.4byte	.LASF143
 2439 0665 52       		.byte	0x52
 2440 0666 07       		.uleb128 0x7
 2441 0667 E5000000 		.4byte	.LASF144
 2442 066b 53       		.byte	0x53
ARM GAS  C:\Users\haske\AppData\Local\Temp\cc9HFfJU.s 			page 66


 2443 066c 07       		.uleb128 0x7
 2444 066d 61190000 		.4byte	.LASF145
 2445 0671 54       		.byte	0x54
 2446 0672 07       		.uleb128 0x7
 2447 0673 6A120000 		.4byte	.LASF146
 2448 0677 55       		.byte	0x55
 2449 0678 07       		.uleb128 0x7
 2450 0679 E00D0000 		.4byte	.LASF147
 2451 067d 56       		.byte	0x56
 2452 067e 07       		.uleb128 0x7
 2453 067f 0B1A0000 		.4byte	.LASF148
 2454 0683 57       		.byte	0x57
 2455 0684 07       		.uleb128 0x7
 2456 0685 07210000 		.4byte	.LASF149
 2457 0689 58       		.byte	0x58
 2458 068a 07       		.uleb128 0x7
 2459 068b E60B0000 		.4byte	.LASF150
 2460 068f 59       		.byte	0x59
 2461 0690 07       		.uleb128 0x7
 2462 0691 CB110000 		.4byte	.LASF151
 2463 0695 5A       		.byte	0x5a
 2464 0696 07       		.uleb128 0x7
 2465 0697 6D100000 		.4byte	.LASF152
 2466 069b 5B       		.byte	0x5b
 2467 069c 07       		.uleb128 0x7
 2468 069d 1D000000 		.4byte	.LASF153
 2469 06a1 60       		.byte	0x60
 2470 06a2 07       		.uleb128 0x7
 2471 06a3 6F110000 		.4byte	.LASF154
 2472 06a7 61       		.byte	0x61
 2473 06a8 07       		.uleb128 0x7
 2474 06a9 11160000 		.4byte	.LASF155
 2475 06ad 62       		.byte	0x62
 2476 06ae 07       		.uleb128 0x7
 2477 06af 45100000 		.4byte	.LASF156
 2478 06b3 63       		.byte	0x63
 2479 06b4 07       		.uleb128 0x7
 2480 06b5 9C0C0000 		.4byte	.LASF157
 2481 06b9 64       		.byte	0x64
 2482 06ba 07       		.uleb128 0x7
 2483 06bb 310B0000 		.4byte	.LASF158
 2484 06bf 65       		.byte	0x65
 2485 06c0 07       		.uleb128 0x7
 2486 06c1 C5040000 		.4byte	.LASF159
 2487 06c5 66       		.byte	0x66
 2488 06c6 07       		.uleb128 0x7
 2489 06c7 0B0A0000 		.4byte	.LASF160
 2490 06cb 67       		.byte	0x67
 2491 06cc 07       		.uleb128 0x7
 2492 06cd AC0A0000 		.4byte	.LASF161
 2493 06d1 68       		.byte	0x68
 2494 06d2 07       		.uleb128 0x7
 2495 06d3 51040000 		.4byte	.LASF162
 2496 06d7 69       		.byte	0x69
 2497 06d8 07       		.uleb128 0x7
 2498 06d9 38080000 		.4byte	.LASF163
 2499 06dd 6A       		.byte	0x6a
ARM GAS  C:\Users\haske\AppData\Local\Temp\cc9HFfJU.s 			page 67


 2500 06de 07       		.uleb128 0x7
 2501 06df 4D080000 		.4byte	.LASF164
 2502 06e3 6B       		.byte	0x6b
 2503 06e4 07       		.uleb128 0x7
 2504 06e5 8D0D0000 		.4byte	.LASF165
 2505 06e9 6C       		.byte	0x6c
 2506 06ea 07       		.uleb128 0x7
 2507 06eb 2B110000 		.4byte	.LASF166
 2508 06ef 6D       		.byte	0x6d
 2509 06f0 07       		.uleb128 0x7
 2510 06f1 30070000 		.4byte	.LASF167
 2511 06f5 6E       		.byte	0x6e
 2512 06f6 07       		.uleb128 0x7
 2513 06f7 4B070000 		.4byte	.LASF168
 2514 06fb 6F       		.byte	0x6f
 2515 06fc 07       		.uleb128 0x7
 2516 06fd B5020000 		.4byte	.LASF169
 2517 0701 6F       		.byte	0x6f
 2518 0702 07       		.uleb128 0x7
 2519 0703 5A1C0000 		.4byte	.LASF170
 2520 0707 70       		.byte	0x70
 2521 0708 18       		.uleb128 0x18
 2522 0709 371A0000 		.4byte	.LASF171
 2523 070d FFFF     		.2byte	0xffff
 2524 070f 18       		.uleb128 0x18
 2525 0710 20130000 		.4byte	.LASF172
 2526 0714 FFFF     		.2byte	0xffff
 2527 0716 00       		.byte	0
 2528 0717 19       		.uleb128 0x19
 2529 0718 D80A0000 		.4byte	.LASF173
 2530 071c 0B       		.byte	0xb
 2531 071d 1C01     		.2byte	0x11c
 2532 071f F2040000 		.4byte	0x4f2
 2533 0723 1A       		.uleb128 0x1a
 2534 0724 08       		.byte	0x8
 2535 0725 0B       		.byte	0xb
 2536 0726 3601     		.2byte	0x136
 2537 0728 47070000 		.4byte	0x747
 2538 072c 1B       		.uleb128 0x1b
 2539 072d 3F0A0000 		.4byte	.LASF174
 2540 0731 0B       		.byte	0xb
 2541 0732 3701     		.2byte	0x137
 2542 0734 17070000 		.4byte	0x717
 2543 0738 00       		.byte	0
 2544 0739 1B       		.uleb128 0x1b
 2545 073a 95080000 		.4byte	.LASF175
 2546 073e 0B       		.byte	0xb
 2547 073f 3801     		.2byte	0x138
 2548 0741 E7040000 		.4byte	0x4e7
 2549 0745 04       		.byte	0x4
 2550 0746 00       		.byte	0
 2551 0747 19       		.uleb128 0x19
 2552 0748 140C0000 		.4byte	.LASF176
 2553 074c 0B       		.byte	0xb
 2554 074d 3901     		.2byte	0x139
 2555 074f 23070000 		.4byte	0x723
 2556 0753 1C       		.uleb128 0x1c
ARM GAS  C:\Users\haske\AppData\Local\Temp\cc9HFfJU.s 			page 68


 2557 0754 04       		.byte	0x4
 2558 0755 0B       		.byte	0xb
 2559 0756 4601     		.2byte	0x146
 2560 0758 81070000 		.4byte	0x781
 2561 075c 1D       		.uleb128 0x1d
 2562 075d 76190000 		.4byte	.LASF177
 2563 0761 0B       		.byte	0xb
 2564 0762 4701     		.2byte	0x147
 2565 0764 E7040000 		.4byte	0x4e7
 2566 0768 1D       		.uleb128 0x1d
 2567 0769 040B0000 		.4byte	.LASF178
 2568 076d 0B       		.byte	0xb
 2569 076e 4801     		.2byte	0x148
 2570 0770 81070000 		.4byte	0x781
 2571 0774 1D       		.uleb128 0x1d
 2572 0775 440A0000 		.4byte	.LASF179
 2573 0779 0B       		.byte	0xb
 2574 077a 4901     		.2byte	0x149
 2575 077c 87070000 		.4byte	0x787
 2576 0780 00       		.byte	0
 2577 0781 11       		.uleb128 0x11
 2578 0782 04       		.byte	0x4
 2579 0783 B8000000 		.4byte	0xb8
 2580 0787 11       		.uleb128 0x11
 2581 0788 04       		.byte	0x4
 2582 0789 8D070000 		.4byte	0x78d
 2583 078d 12       		.uleb128 0x12
 2584 078e 47070000 		.4byte	0x747
 2585 0792 1A       		.uleb128 0x1a
 2586 0793 08       		.byte	0x8
 2587 0794 0B       		.byte	0xb
 2588 0795 3E01     		.2byte	0x13e
 2589 0797 D0070000 		.4byte	0x7d0
 2590 079b 1E       		.uleb128 0x1e
 2591 079c 765F7000 		.ascii	"v_p\000"
 2592 07a0 0B       		.byte	0xb
 2593 07a1 4A01     		.2byte	0x14a
 2594 07a3 53070000 		.4byte	0x753
 2595 07a7 00       		.byte	0
 2596 07a8 1B       		.uleb128 0x1b
 2597 07a9 1C1D0000 		.4byte	.LASF180
 2598 07ad 0B       		.byte	0xb
 2599 07ae 4C01     		.2byte	0x14c
 2600 07b0 CE000000 		.4byte	0xce
 2601 07b4 04       		.byte	0x4
 2602 07b5 1B       		.uleb128 0x1b
 2603 07b6 2F010000 		.4byte	.LASF181
 2604 07ba 0B       		.byte	0xb
 2605 07bb 4D01     		.2byte	0x14d
 2606 07bd B8000000 		.4byte	0xb8
 2607 07c1 06       		.byte	0x6
 2608 07c2 1B       		.uleb128 0x1b
 2609 07c3 0D000000 		.4byte	.LASF182
 2610 07c7 0B       		.byte	0xb
 2611 07c8 4E01     		.2byte	0x14e
 2612 07ca B8000000 		.4byte	0xb8
 2613 07ce 07       		.byte	0x7
ARM GAS  C:\Users\haske\AppData\Local\Temp\cc9HFfJU.s 			page 69


 2614 07cf 00       		.byte	0
 2615 07d0 19       		.uleb128 0x19
 2616 07d1 600D0000 		.4byte	.LASF183
 2617 07d5 0B       		.byte	0xb
 2618 07d6 4F01     		.2byte	0x14f
 2619 07d8 92070000 		.4byte	0x792
 2620 07dc 11       		.uleb128 0x11
 2621 07dd 04       		.byte	0x4
 2622 07de E1010000 		.4byte	0x1e1
 2623 07e2 11       		.uleb128 0x11
 2624 07e3 04       		.byte	0x4
 2625 07e4 E8070000 		.4byte	0x7e8
 2626 07e8 12       		.uleb128 0x12
 2627 07e9 E1010000 		.4byte	0x1e1
 2628 07ed 11       		.uleb128 0x11
 2629 07ee 04       		.byte	0x4
 2630 07ef F3070000 		.4byte	0x7f3
 2631 07f3 12       		.uleb128 0x12
 2632 07f4 54020000 		.4byte	0x254
 2633 07f8 11       		.uleb128 0x11
 2634 07f9 04       		.byte	0x4
 2635 07fa FE070000 		.4byte	0x7fe
 2636 07fe 12       		.uleb128 0x12
 2637 07ff D6010000 		.4byte	0x1d6
 2638 0803 06       		.uleb128 0x6
 2639 0804 01       		.byte	0x1
 2640 0805 42000000 		.4byte	0x42
 2641 0809 0C       		.byte	0xc
 2642 080a 37       		.byte	0x37
 2643 080b F4080000 		.4byte	0x8f4
 2644 080f 07       		.uleb128 0x7
 2645 0810 95180000 		.4byte	.LASF184
 2646 0814 00       		.byte	0
 2647 0815 07       		.uleb128 0x7
 2648 0816 AB060000 		.4byte	.LASF185
 2649 081a 01       		.byte	0x1
 2650 081b 07       		.uleb128 0x7
 2651 081c 7F1D0000 		.4byte	.LASF186
 2652 0820 02       		.byte	0x2
 2653 0821 07       		.uleb128 0x7
 2654 0822 9E140000 		.4byte	.LASF187
 2655 0826 03       		.byte	0x3
 2656 0827 07       		.uleb128 0x7
 2657 0828 4C190000 		.4byte	.LASF188
 2658 082c 04       		.byte	0x4
 2659 082d 07       		.uleb128 0x7
 2660 082e C3120000 		.4byte	.LASF189
 2661 0832 05       		.byte	0x5
 2662 0833 07       		.uleb128 0x7
 2663 0834 CE140000 		.4byte	.LASF190
 2664 0838 06       		.byte	0x6
 2665 0839 07       		.uleb128 0x7
 2666 083a 33020000 		.4byte	.LASF191
 2667 083e 07       		.byte	0x7
 2668 083f 07       		.uleb128 0x7
 2669 0840 3F130000 		.4byte	.LASF192
 2670 0844 08       		.byte	0x8
ARM GAS  C:\Users\haske\AppData\Local\Temp\cc9HFfJU.s 			page 70


 2671 0845 07       		.uleb128 0x7
 2672 0846 B0130000 		.4byte	.LASF193
 2673 084a 09       		.byte	0x9
 2674 084b 07       		.uleb128 0x7
 2675 084c 87140000 		.4byte	.LASF194
 2676 0850 0A       		.byte	0xa
 2677 0851 07       		.uleb128 0x7
 2678 0852 06010000 		.4byte	.LASF195
 2679 0856 0B       		.byte	0xb
 2680 0857 07       		.uleb128 0x7
 2681 0858 29120000 		.4byte	.LASF196
 2682 085c 0C       		.byte	0xc
 2683 085d 07       		.uleb128 0x7
 2684 085e 55120000 		.4byte	.LASF197
 2685 0862 0D       		.byte	0xd
 2686 0863 07       		.uleb128 0x7
 2687 0864 F9120000 		.4byte	.LASF198
 2688 0868 0E       		.byte	0xe
 2689 0869 07       		.uleb128 0x7
 2690 086a 61200000 		.4byte	.LASF199
 2691 086e 0F       		.byte	0xf
 2692 086f 07       		.uleb128 0x7
 2693 0870 2C050000 		.4byte	.LASF200
 2694 0874 10       		.byte	0x10
 2695 0875 07       		.uleb128 0x7
 2696 0876 F7130000 		.4byte	.LASF201
 2697 087a 11       		.byte	0x11
 2698 087b 07       		.uleb128 0x7
 2699 087c B6010000 		.4byte	.LASF202
 2700 0880 12       		.byte	0x12
 2701 0881 07       		.uleb128 0x7
 2702 0882 91040000 		.4byte	.LASF203
 2703 0886 13       		.byte	0x13
 2704 0887 07       		.uleb128 0x7
 2705 0888 61180000 		.4byte	.LASF204
 2706 088c 14       		.byte	0x14
 2707 088d 07       		.uleb128 0x7
 2708 088e 920B0000 		.4byte	.LASF205
 2709 0892 15       		.byte	0x15
 2710 0893 07       		.uleb128 0x7
 2711 0894 A80B0000 		.4byte	.LASF206
 2712 0898 16       		.byte	0x16
 2713 0899 07       		.uleb128 0x7
 2714 089a FB160000 		.4byte	.LASF207
 2715 089e 17       		.byte	0x17
 2716 089f 07       		.uleb128 0x7
 2717 08a0 D00B0000 		.4byte	.LASF208
 2718 08a4 18       		.byte	0x18
 2719 08a5 07       		.uleb128 0x7
 2720 08a6 21170000 		.4byte	.LASF209
 2721 08aa 19       		.byte	0x19
 2722 08ab 07       		.uleb128 0x7
 2723 08ac DD0C0000 		.4byte	.LASF210
 2724 08b0 1A       		.byte	0x1a
 2725 08b1 07       		.uleb128 0x7
 2726 08b2 F30C0000 		.4byte	.LASF211
 2727 08b6 1B       		.byte	0x1b
ARM GAS  C:\Users\haske\AppData\Local\Temp\cc9HFfJU.s 			page 71


 2728 08b7 07       		.uleb128 0x7
 2729 08b8 090D0000 		.4byte	.LASF212
 2730 08bc 1C       		.byte	0x1c
 2731 08bd 07       		.uleb128 0x7
 2732 08be 1F0D0000 		.4byte	.LASF213
 2733 08c2 1D       		.byte	0x1d
 2734 08c3 07       		.uleb128 0x7
 2735 08c4 40150000 		.4byte	.LASF214
 2736 08c8 1E       		.byte	0x1e
 2737 08c9 07       		.uleb128 0x7
 2738 08ca 59150000 		.4byte	.LASF215
 2739 08ce 1F       		.byte	0x1f
 2740 08cf 07       		.uleb128 0x7
 2741 08d0 72150000 		.4byte	.LASF216
 2742 08d4 20       		.byte	0x20
 2743 08d5 07       		.uleb128 0x7
 2744 08d6 8B150000 		.4byte	.LASF217
 2745 08da 21       		.byte	0x21
 2746 08db 07       		.uleb128 0x7
 2747 08dc A4150000 		.4byte	.LASF218
 2748 08e0 22       		.byte	0x22
 2749 08e1 07       		.uleb128 0x7
 2750 08e2 BD150000 		.4byte	.LASF219
 2751 08e6 23       		.byte	0x23
 2752 08e7 07       		.uleb128 0x7
 2753 08e8 D6150000 		.4byte	.LASF220
 2754 08ec 24       		.byte	0x24
 2755 08ed 07       		.uleb128 0x7
 2756 08ee EF150000 		.4byte	.LASF221
 2757 08f2 25       		.byte	0x25
 2758 08f3 00       		.byte	0
 2759 08f4 02       		.uleb128 0x2
 2760 08f5 D40D0000 		.4byte	.LASF222
 2761 08f9 0C       		.byte	0xc
 2762 08fa 69       		.byte	0x69
 2763 08fb B8000000 		.4byte	0xb8
 2764 08ff 11       		.uleb128 0x11
 2765 0900 04       		.byte	0x4
 2766 0901 05090000 		.4byte	0x905
 2767 0905 10       		.uleb128 0x10
 2768 0906 D11A0000 		.4byte	.LASF224
 2769 090a 24       		.byte	0x24
 2770 090b 0D       		.byte	0xd
 2771 090c AE       		.byte	0xae
 2772 090d CC090000 		.4byte	0x9cc
 2773 0911 0F       		.uleb128 0xf
 2774 0912 8E120000 		.4byte	.LASF225
 2775 0916 0D       		.byte	0xd
 2776 0917 AF       		.byte	0xaf
 2777 0918 481B0000 		.4byte	0x1b48
 2778 091c 00       		.byte	0
 2779 091d 0F       		.uleb128 0xf
 2780 091e 410C0000 		.4byte	.LASF226
 2781 0922 0D       		.byte	0xd
 2782 0923 B0       		.byte	0xb0
 2783 0924 FF080000 		.4byte	0x8ff
 2784 0928 04       		.byte	0x4
ARM GAS  C:\Users\haske\AppData\Local\Temp\cc9HFfJU.s 			page 72


 2785 0929 0F       		.uleb128 0xf
 2786 092a 9E010000 		.4byte	.LASF227
 2787 092e 0D       		.byte	0xd
 2788 092f B1       		.byte	0xb1
 2789 0930 531B0000 		.4byte	0x1b53
 2790 0934 08       		.byte	0x8
 2791 0935 0F       		.uleb128 0xf
 2792 0936 6B0D0000 		.4byte	.LASF228
 2793 093a 0D       		.byte	0xd
 2794 093b B2       		.byte	0xb2
 2795 093c 591B0000 		.4byte	0x1b59
 2796 0940 0C       		.byte	0xc
 2797 0941 0F       		.uleb128 0xf
 2798 0942 4A1F0000 		.4byte	.LASF64
 2799 0946 0D       		.byte	0xd
 2800 0947 B4       		.byte	0xb4
 2801 0948 13010000 		.4byte	0x113
 2802 094c 10       		.byte	0x10
 2803 094d 0F       		.uleb128 0xf
 2804 094e 3B1C0000 		.4byte	.LASF229
 2805 0952 0D       		.byte	0xd
 2806 0953 B6       		.byte	0xb6
 2807 0954 54020000 		.4byte	0x254
 2808 0958 14       		.byte	0x14
 2809 0959 0F       		.uleb128 0xf
 2810 095a 9B080000 		.4byte	.LASF230
 2811 095e 0D       		.byte	0xd
 2812 095f B7       		.byte	0xb7
 2813 0960 2F170000 		.4byte	0x172f
 2814 0964 1C       		.byte	0x1c
 2815 0965 0F       		.uleb128 0xf
 2816 0966 10020000 		.4byte	.LASF231
 2817 096a 0D       		.byte	0xd
 2818 096b B8       		.byte	0xb8
 2819 096c 24170000 		.4byte	0x1724
 2820 0970 20       		.byte	0x20
 2821 0971 09       		.uleb128 0x9
 2822 0972 27060000 		.4byte	.LASF232
 2823 0976 0D       		.byte	0xd
 2824 0977 B9       		.byte	0xb9
 2825 0978 CE000000 		.4byte	0xce
 2826 097c 02       		.byte	0x2
 2827 097d 01       		.byte	0x1
 2828 097e 0F       		.byte	0xf
 2829 097f 22       		.byte	0x22
 2830 0980 09       		.uleb128 0x9
 2831 0981 FB030000 		.4byte	.LASF233
 2832 0985 0D       		.byte	0xd
 2833 0986 BA       		.byte	0xba
 2834 0987 CE000000 		.4byte	0xce
 2835 098b 02       		.byte	0x2
 2836 098c 01       		.byte	0x1
 2837 098d 0E       		.byte	0xe
 2838 098e 22       		.byte	0x22
 2839 098f 09       		.uleb128 0x9
 2840 0990 3E120000 		.4byte	.LASF234
 2841 0994 0D       		.byte	0xd
ARM GAS  C:\Users\haske\AppData\Local\Temp\cc9HFfJU.s 			page 73


 2842 0995 BB       		.byte	0xbb
 2843 0996 CE000000 		.4byte	0xce
 2844 099a 02       		.byte	0x2
 2845 099b 01       		.byte	0x1
 2846 099c 0D       		.byte	0xd
 2847 099d 22       		.byte	0x22
 2848 099e 09       		.uleb128 0x9
 2849 099f 15060000 		.4byte	.LASF235
 2850 09a3 0D       		.byte	0xd
 2851 09a4 BC       		.byte	0xbc
 2852 09a5 CE000000 		.4byte	0xce
 2853 09a9 02       		.byte	0x2
 2854 09aa 06       		.byte	0x6
 2855 09ab 07       		.byte	0x7
 2856 09ac 22       		.byte	0x22
 2857 09ad 09       		.uleb128 0x9
 2858 09ae F2070000 		.4byte	.LASF236
 2859 09b2 0D       		.byte	0xd
 2860 09b3 BD       		.byte	0xbd
 2861 09b4 CE000000 		.4byte	0xce
 2862 09b8 02       		.byte	0x2
 2863 09b9 01       		.byte	0x1
 2864 09ba 06       		.byte	0x6
 2865 09bb 22       		.byte	0x22
 2866 09bc 09       		.uleb128 0x9
 2867 09bd CF030000 		.4byte	.LASF237
 2868 09c1 0D       		.byte	0xd
 2869 09c2 BE       		.byte	0xbe
 2870 09c3 CE000000 		.4byte	0xce
 2871 09c7 02       		.byte	0x2
 2872 09c8 01       		.byte	0x1
 2873 09c9 05       		.byte	0x5
 2874 09ca 22       		.byte	0x22
 2875 09cb 00       		.byte	0
 2876 09cc 11       		.uleb128 0x11
 2877 09cd 04       		.byte	0x4
 2878 09ce D6010000 		.4byte	0x1d6
 2879 09d2 08       		.uleb128 0x8
 2880 09d3 38       		.byte	0x38
 2881 09d4 0E       		.byte	0xe
 2882 09d5 20       		.byte	0x20
 2883 09d6 190B0000 		.4byte	0xb19
 2884 09da 0F       		.uleb128 0xf
 2885 09db 5B010000 		.4byte	.LASF238
 2886 09df 0E       		.byte	0xe
 2887 09e0 21       		.byte	0x21
 2888 09e1 EC010000 		.4byte	0x1ec
 2889 09e5 00       		.byte	0
 2890 09e6 0F       		.uleb128 0xf
 2891 09e7 D8030000 		.4byte	.LASF239
 2892 09eb 0E       		.byte	0xe
 2893 09ec 22       		.byte	0x22
 2894 09ed 00040000 		.4byte	0x400
 2895 09f1 02       		.byte	0x2
 2896 09f2 0F       		.uleb128 0xf
 2897 09f3 06050000 		.4byte	.LASF240
 2898 09f7 0E       		.byte	0xe
ARM GAS  C:\Users\haske\AppData\Local\Temp\cc9HFfJU.s 			page 74


 2899 09f8 25       		.byte	0x25
 2900 09f9 E1010000 		.4byte	0x1e1
 2901 09fd 03       		.byte	0x3
 2902 09fe 0F       		.uleb128 0xf
 2903 09ff 62010000 		.4byte	.LASF241
 2904 0a03 0E       		.byte	0xe
 2905 0a04 26       		.byte	0x26
 2906 0a05 D6010000 		.4byte	0x1d6
 2907 0a09 04       		.byte	0x4
 2908 0a0a 0F       		.uleb128 0xf
 2909 0a0b 931D0000 		.4byte	.LASF242
 2910 0a0f 0E       		.byte	0xe
 2911 0a10 27       		.byte	0x27
 2912 0a11 B2040000 		.4byte	0x4b2
 2913 0a15 06       		.byte	0x6
 2914 0a16 0F       		.uleb128 0xf
 2915 0a17 10030000 		.4byte	.LASF243
 2916 0a1b 0E       		.byte	0xe
 2917 0a1c 2A       		.byte	0x2a
 2918 0a1d CD030000 		.4byte	0x3cd
 2919 0a21 10       		.byte	0x10
 2920 0a22 0F       		.uleb128 0xf
 2921 0a23 A6030000 		.4byte	.LASF244
 2922 0a27 0E       		.byte	0xe
 2923 0a28 2B       		.byte	0x2b
 2924 0a29 CD030000 		.4byte	0x3cd
 2925 0a2d 14       		.byte	0x14
 2926 0a2e 0F       		.uleb128 0xf
 2927 0a2f 551B0000 		.4byte	.LASF245
 2928 0a33 0E       		.byte	0xe
 2929 0a34 2C       		.byte	0x2c
 2930 0a35 D6010000 		.4byte	0x1d6
 2931 0a39 18       		.byte	0x18
 2932 0a3a 0F       		.uleb128 0xf
 2933 0a3b E71B0000 		.4byte	.LASF246
 2934 0a3f 0E       		.byte	0xe
 2935 0a40 2D       		.byte	0x2d
 2936 0a41 E1010000 		.4byte	0x1e1
 2937 0a45 1A       		.byte	0x1a
 2938 0a46 0F       		.uleb128 0xf
 2939 0a47 9B160000 		.4byte	.LASF247
 2940 0a4b 0E       		.byte	0xe
 2941 0a4c 2E       		.byte	0x2e
 2942 0a4d E1010000 		.4byte	0x1e1
 2943 0a51 1B       		.byte	0x1b
 2944 0a52 0F       		.uleb128 0xf
 2945 0a53 69060000 		.4byte	.LASF248
 2946 0a57 0E       		.byte	0xe
 2947 0a58 2F       		.byte	0x2f
 2948 0a59 B8000000 		.4byte	0xb8
 2949 0a5d 1C       		.byte	0x1c
 2950 0a5e 0F       		.uleb128 0xf
 2951 0a5f FE090000 		.4byte	.LASF249
 2952 0a63 0E       		.byte	0xe
 2953 0a64 32       		.byte	0x32
 2954 0a65 D6010000 		.4byte	0x1d6
 2955 0a69 1E       		.byte	0x1e
ARM GAS  C:\Users\haske\AppData\Local\Temp\cc9HFfJU.s 			page 75


 2956 0a6a 0F       		.uleb128 0xf
 2957 0a6b C9180000 		.4byte	.LASF250
 2958 0a6f 0E       		.byte	0xe
 2959 0a70 33       		.byte	0x33
 2960 0a71 EC010000 		.4byte	0x1ec
 2961 0a75 20       		.byte	0x20
 2962 0a76 0F       		.uleb128 0xf
 2963 0a77 4D1D0000 		.4byte	.LASF251
 2964 0a7b 0E       		.byte	0xe
 2965 0a7c 34       		.byte	0x34
 2966 0a7d E1010000 		.4byte	0x1e1
 2967 0a81 22       		.byte	0x22
 2968 0a82 09       		.uleb128 0x9
 2969 0a83 600A0000 		.4byte	.LASF252
 2970 0a87 0E       		.byte	0xe
 2971 0a88 35       		.byte	0x35
 2972 0a89 B8000000 		.4byte	0xb8
 2973 0a8d 01       		.byte	0x1
 2974 0a8e 01       		.byte	0x1
 2975 0a8f 07       		.byte	0x7
 2976 0a90 23       		.byte	0x23
 2977 0a91 09       		.uleb128 0x9
 2978 0a92 B9030000 		.4byte	.LASF253
 2979 0a96 0E       		.byte	0xe
 2980 0a97 36       		.byte	0x36
 2981 0a98 16040000 		.4byte	0x416
 2982 0a9c 01       		.byte	0x1
 2983 0a9d 05       		.byte	0x5
 2984 0a9e 02       		.byte	0x2
 2985 0a9f 23       		.byte	0x23
 2986 0aa0 0F       		.uleb128 0xf
 2987 0aa1 F1050000 		.4byte	.LASF254
 2988 0aa5 0E       		.byte	0xe
 2989 0aa6 39       		.byte	0x39
 2990 0aa7 D6010000 		.4byte	0x1d6
 2991 0aab 24       		.byte	0x24
 2992 0aac 0F       		.uleb128 0xf
 2993 0aad 63140000 		.4byte	.LASF255
 2994 0ab1 0E       		.byte	0xe
 2995 0ab2 3A       		.byte	0x3a
 2996 0ab3 EC010000 		.4byte	0x1ec
 2997 0ab7 26       		.byte	0x26
 2998 0ab8 0F       		.uleb128 0xf
 2999 0ab9 B3090000 		.4byte	.LASF256
 3000 0abd 0E       		.byte	0xe
 3001 0abe 3B       		.byte	0x3b
 3002 0abf EC010000 		.4byte	0x1ec
 3003 0ac3 28       		.byte	0x28
 3004 0ac4 0F       		.uleb128 0xf
 3005 0ac5 92130000 		.4byte	.LASF257
 3006 0ac9 0E       		.byte	0xe
 3007 0aca 3C       		.byte	0x3c
 3008 0acb E1010000 		.4byte	0x1e1
 3009 0acf 2A       		.byte	0x2a
 3010 0ad0 0F       		.uleb128 0xf
 3011 0ad1 F6100000 		.4byte	.LASF258
 3012 0ad5 0E       		.byte	0xe
ARM GAS  C:\Users\haske\AppData\Local\Temp\cc9HFfJU.s 			page 76


 3013 0ad6 3F       		.byte	0x3f
 3014 0ad7 D6010000 		.4byte	0x1d6
 3015 0adb 2C       		.byte	0x2c
 3016 0adc 0F       		.uleb128 0xf
 3017 0add B91E0000 		.4byte	.LASF259
 3018 0ae1 0E       		.byte	0xe
 3019 0ae2 40       		.byte	0x40
 3020 0ae3 EC010000 		.4byte	0x1ec
 3021 0ae7 2E       		.byte	0x2e
 3022 0ae8 0F       		.uleb128 0xf
 3023 0ae9 9F0A0000 		.4byte	.LASF260
 3024 0aed 0E       		.byte	0xe
 3025 0aee 41       		.byte	0x41
 3026 0aef EC010000 		.4byte	0x1ec
 3027 0af3 30       		.byte	0x30
 3028 0af4 0F       		.uleb128 0xf
 3029 0af5 72200000 		.4byte	.LASF261
 3030 0af9 0E       		.byte	0xe
 3031 0afa 42       		.byte	0x42
 3032 0afb EC010000 		.4byte	0x1ec
 3033 0aff 32       		.byte	0x32
 3034 0b00 0F       		.uleb128 0xf
 3035 0b01 8E0C0000 		.4byte	.LASF262
 3036 0b05 0E       		.byte	0xe
 3037 0b06 43       		.byte	0x43
 3038 0b07 EC010000 		.4byte	0x1ec
 3039 0b0b 34       		.byte	0x34
 3040 0b0c 0F       		.uleb128 0xf
 3041 0b0d F21B0000 		.4byte	.LASF263
 3042 0b11 0E       		.byte	0xe
 3043 0b12 44       		.byte	0x44
 3044 0b13 E1010000 		.4byte	0x1e1
 3045 0b17 36       		.byte	0x36
 3046 0b18 00       		.byte	0
 3047 0b19 02       		.uleb128 0x2
 3048 0b1a 2D180000 		.4byte	.LASF264
 3049 0b1e 0E       		.byte	0xe
 3050 0b1f 45       		.byte	0x45
 3051 0b20 D2090000 		.4byte	0x9d2
 3052 0b24 08       		.uleb128 0x8
 3053 0b25 20       		.byte	0x20
 3054 0b26 0F       		.byte	0xf
 3055 0b27 1E       		.byte	0x1e
 3056 0b28 F30B0000 		.4byte	0xbf3
 3057 0b2c 0F       		.uleb128 0xf
 3058 0b2d DB1A0000 		.4byte	.LASF265
 3059 0b31 0F       		.byte	0xf
 3060 0b32 1F       		.byte	0x1f
 3061 0b33 F30B0000 		.4byte	0xbf3
 3062 0b37 00       		.byte	0
 3063 0b38 0F       		.uleb128 0xf
 3064 0b39 501E0000 		.4byte	.LASF266
 3065 0b3d 0F       		.byte	0xf
 3066 0b3e 20       		.byte	0x20
 3067 0b3f E4000000 		.4byte	0xe4
 3068 0b43 04       		.byte	0x4
 3069 0b44 0F       		.uleb128 0xf
ARM GAS  C:\Users\haske\AppData\Local\Temp\cc9HFfJU.s 			page 77


 3070 0b45 0E130000 		.4byte	.LASF267
 3071 0b49 0F       		.byte	0xf
 3072 0b4a 21       		.byte	0x21
 3073 0b4b E4000000 		.4byte	0xe4
 3074 0b4f 08       		.byte	0x8
 3075 0b50 0F       		.uleb128 0xf
 3076 0b51 6C1A0000 		.4byte	.LASF76
 3077 0b55 0F       		.byte	0xf
 3078 0b56 22       		.byte	0x22
 3079 0b57 D6010000 		.4byte	0x1d6
 3080 0b5b 0C       		.byte	0xc
 3081 0b5c 0F       		.uleb128 0xf
 3082 0b5d 57200000 		.4byte	.LASF268
 3083 0b61 0F       		.byte	0xf
 3084 0b62 23       		.byte	0x23
 3085 0b63 D6010000 		.4byte	0x1d6
 3086 0b67 0E       		.byte	0xe
 3087 0b68 0F       		.uleb128 0xf
 3088 0b69 52050000 		.4byte	.LASF269
 3089 0b6d 0F       		.byte	0xf
 3090 0b6e 24       		.byte	0x24
 3091 0b6f D6010000 		.4byte	0x1d6
 3092 0b73 10       		.byte	0x10
 3093 0b74 0F       		.uleb128 0xf
 3094 0b75 8A1A0000 		.4byte	.LASF270
 3095 0b79 0F       		.byte	0xf
 3096 0b7a 25       		.byte	0x25
 3097 0b7b EC010000 		.4byte	0x1ec
 3098 0b7f 12       		.byte	0x12
 3099 0b80 0F       		.uleb128 0xf
 3100 0b81 E01A0000 		.4byte	.LASF271
 3101 0b85 0F       		.byte	0xf
 3102 0b86 26       		.byte	0x26
 3103 0b87 EC010000 		.4byte	0x1ec
 3104 0b8b 14       		.byte	0x14
 3105 0b8c 0F       		.uleb128 0xf
 3106 0b8d C2070000 		.4byte	.LASF53
 3107 0b91 0F       		.byte	0xf
 3108 0b92 27       		.byte	0x27
 3109 0b93 EC010000 		.4byte	0x1ec
 3110 0b97 16       		.byte	0x16
 3111 0b98 0F       		.uleb128 0xf
 3112 0b99 C8070000 		.4byte	.LASF54
 3113 0b9d 0F       		.byte	0xf
 3114 0b9e 28       		.byte	0x28
 3115 0b9f EC010000 		.4byte	0x1ec
 3116 0ba3 18       		.byte	0x18
 3117 0ba4 0E       		.uleb128 0xe
 3118 0ba5 6F706100 		.ascii	"opa\000"
 3119 0ba9 0F       		.byte	0xf
 3120 0baa 29       		.byte	0x29
 3121 0bab E1010000 		.4byte	0x1e1
 3122 0baf 1A       		.byte	0x1a
 3123 0bb0 0F       		.uleb128 0xf
 3124 0bb1 87010000 		.4byte	.LASF272
 3125 0bb5 0F       		.byte	0xf
 3126 0bb6 2A       		.byte	0x2a
ARM GAS  C:\Users\haske\AppData\Local\Temp\cc9HFfJU.s 			page 78


 3127 0bb7 F5030000 		.4byte	0x3f5
 3128 0bbb 1B       		.byte	0x1b
 3129 0bbc 0F       		.uleb128 0xf
 3130 0bbd F5110000 		.4byte	.LASF273
 3131 0bc1 0F       		.byte	0xf
 3132 0bc2 2B       		.byte	0x2b
 3133 0bc3 EA030000 		.4byte	0x3ea
 3134 0bc7 1C       		.byte	0x1c
 3135 0bc8 0F       		.uleb128 0xf
 3136 0bc9 56130000 		.4byte	.LASF274
 3137 0bcd 0F       		.byte	0xf
 3138 0bce 2C       		.byte	0x2c
 3139 0bcf DF030000 		.4byte	0x3df
 3140 0bd3 1D       		.byte	0x1d
 3141 0bd4 09       		.uleb128 0x9
 3142 0bd5 98190000 		.4byte	.LASF275
 3143 0bd9 0F       		.byte	0xf
 3144 0bda 2D       		.byte	0x2d
 3145 0bdb 0B040000 		.4byte	0x40b
 3146 0bdf 01       		.byte	0x1
 3147 0be0 03       		.byte	0x3
 3148 0be1 05       		.byte	0x5
 3149 0be2 1E       		.byte	0x1e
 3150 0be3 09       		.uleb128 0x9
 3151 0be4 D8030000 		.4byte	.LASF239
 3152 0be8 0F       		.byte	0xf
 3153 0be9 2E       		.byte	0x2e
 3154 0bea 00040000 		.4byte	0x400
 3155 0bee 01       		.byte	0x1
 3156 0bef 03       		.byte	0x3
 3157 0bf0 02       		.byte	0x2
 3158 0bf1 1E       		.byte	0x1e
 3159 0bf2 00       		.byte	0
 3160 0bf3 11       		.uleb128 0x11
 3161 0bf4 04       		.byte	0x4
 3162 0bf5 F90B0000 		.4byte	0xbf9
 3163 0bf9 12       		.uleb128 0x12
 3164 0bfa D4030000 		.4byte	0x3d4
 3165 0bfe 02       		.uleb128 0x2
 3166 0bff 18050000 		.4byte	.LASF276
 3167 0c03 0F       		.byte	0xf
 3168 0c04 2F       		.byte	0x2f
 3169 0c05 240B0000 		.4byte	0xb24
 3170 0c09 08       		.uleb128 0x8
 3171 0c0a 18       		.byte	0x18
 3172 0c0b 10       		.byte	0x10
 3173 0c0c 20       		.byte	0x20
 3174 0c0d 840C0000 		.4byte	0xc84
 3175 0c11 0F       		.uleb128 0xf
 3176 0c12 B00F0000 		.4byte	.LASF277
 3177 0c16 10       		.byte	0x10
 3178 0c17 22       		.byte	0x22
 3179 0c18 C3000000 		.4byte	0xc3
 3180 0c1c 00       		.byte	0
 3181 0c1d 0F       		.uleb128 0xf
 3182 0c1e 840F0000 		.4byte	.LASF278
 3183 0c22 10       		.byte	0x10
ARM GAS  C:\Users\haske\AppData\Local\Temp\cc9HFfJU.s 			page 79


 3184 0c23 23       		.byte	0x23
 3185 0c24 CE000000 		.4byte	0xce
 3186 0c28 02       		.byte	0x2
 3187 0c29 0F       		.uleb128 0xf
 3188 0c2a 791A0000 		.4byte	.LASF279
 3189 0c2e 10       		.byte	0x10
 3190 0c2f 24       		.byte	0x24
 3191 0c30 14020000 		.4byte	0x214
 3192 0c34 04       		.byte	0x4
 3193 0c35 0F       		.uleb128 0xf
 3194 0c36 890F0000 		.4byte	.LASF280
 3195 0c3a 10       		.byte	0x10
 3196 0c3b 26       		.byte	0x26
 3197 0c3c D6010000 		.4byte	0x1d6
 3198 0c40 08       		.byte	0x8
 3199 0c41 0F       		.uleb128 0xf
 3200 0c42 0A140000 		.4byte	.LASF281
 3201 0c46 10       		.byte	0x10
 3202 0c47 27       		.byte	0x27
 3203 0c48 E1010000 		.4byte	0x1e1
 3204 0c4c 0A       		.byte	0xa
 3205 0c4d 0E       		.uleb128 0xe
 3206 0c4e 6F706100 		.ascii	"opa\000"
 3207 0c52 10       		.byte	0x10
 3208 0c53 29       		.byte	0x29
 3209 0c54 E1010000 		.4byte	0x1e1
 3210 0c58 0B       		.byte	0xb
 3211 0c59 09       		.uleb128 0x9
 3212 0c5a D8030000 		.4byte	.LASF239
 3213 0c5e 10       		.byte	0x10
 3214 0c5f 2A       		.byte	0x2a
 3215 0c60 00040000 		.4byte	0x400
 3216 0c64 01       		.byte	0x1
 3217 0c65 04       		.byte	0x4
 3218 0c66 04       		.byte	0x4
 3219 0c67 0C       		.byte	0xc
 3220 0c68 0F       		.uleb128 0xf
 3221 0c69 EE130000 		.4byte	.LASF282
 3222 0c6d 10       		.byte	0x10
 3223 0c6e 2C       		.byte	0x2c
 3224 0c6f D9000000 		.4byte	0xd9
 3225 0c73 10       		.byte	0x10
 3226 0c74 09       		.uleb128 0x9
 3227 0c75 FA140000 		.4byte	.LASF283
 3228 0c79 10       		.byte	0x10
 3229 0c7a 2D       		.byte	0x2d
 3230 0c7b B8000000 		.4byte	0xb8
 3231 0c7f 01       		.byte	0x1
 3232 0c80 01       		.byte	0x1
 3233 0c81 07       		.byte	0x7
 3234 0c82 14       		.byte	0x14
 3235 0c83 00       		.byte	0
 3236 0c84 02       		.uleb128 0x2
 3237 0c85 D4080000 		.4byte	.LASF284
 3238 0c89 10       		.byte	0x10
 3239 0c8a 2E       		.byte	0x2e
 3240 0c8b 090C0000 		.4byte	0xc09
ARM GAS  C:\Users\haske\AppData\Local\Temp\cc9HFfJU.s 			page 80


 3241 0c8f 08       		.uleb128 0x8
 3242 0c90 0A       		.byte	0xa
 3243 0c91 11       		.byte	0x11
 3244 0c92 1C       		.byte	0x1c
 3245 0c93 100D0000 		.4byte	0xd10
 3246 0c97 0F       		.uleb128 0xf
 3247 0c98 6C1A0000 		.4byte	.LASF76
 3248 0c9c 11       		.byte	0x11
 3249 0c9d 1D       		.byte	0x1d
 3250 0c9e D6010000 		.4byte	0x1d6
 3251 0ca2 00       		.byte	0
 3252 0ca3 0F       		.uleb128 0xf
 3253 0ca4 0B110000 		.4byte	.LASF285
 3254 0ca8 11       		.byte	0x11
 3255 0ca9 1E       		.byte	0x1e
 3256 0caa EC010000 		.4byte	0x1ec
 3257 0cae 02       		.byte	0x2
 3258 0caf 0F       		.uleb128 0xf
 3259 0cb0 320E0000 		.4byte	.LASF286
 3260 0cb4 11       		.byte	0x11
 3261 0cb5 1F       		.byte	0x1f
 3262 0cb6 EC010000 		.4byte	0x1ec
 3263 0cba 04       		.byte	0x4
 3264 0cbb 0F       		.uleb128 0xf
 3265 0cbc 0D090000 		.4byte	.LASF287
 3266 0cc0 11       		.byte	0x11
 3267 0cc1 20       		.byte	0x20
 3268 0cc2 EC010000 		.4byte	0x1ec
 3269 0cc6 06       		.byte	0x6
 3270 0cc7 0E       		.uleb128 0xe
 3271 0cc8 6F706100 		.ascii	"opa\000"
 3272 0ccc 11       		.byte	0x11
 3273 0ccd 21       		.byte	0x21
 3274 0cce E1010000 		.4byte	0x1e1
 3275 0cd2 08       		.byte	0x8
 3276 0cd3 09       		.uleb128 0x9
 3277 0cd4 D8030000 		.4byte	.LASF239
 3278 0cd8 11       		.byte	0x11
 3279 0cd9 22       		.byte	0x22
 3280 0cda 00040000 		.4byte	0x400
 3281 0cde 01       		.byte	0x1
 3282 0cdf 02       		.byte	0x2
 3283 0ce0 06       		.byte	0x6
 3284 0ce1 09       		.byte	0x9
 3285 0ce2 09       		.uleb128 0x9
 3286 0ce3 E80A0000 		.4byte	.LASF288
 3287 0ce7 11       		.byte	0x11
 3288 0ce8 23       		.byte	0x23
 3289 0ce9 B8000000 		.4byte	0xb8
 3290 0ced 01       		.byte	0x1
 3291 0cee 01       		.byte	0x1
 3292 0cef 05       		.byte	0x5
 3293 0cf0 09       		.byte	0x9
 3294 0cf1 09       		.uleb128 0x9
 3295 0cf2 550C0000 		.4byte	.LASF289
 3296 0cf6 11       		.byte	0x11
 3297 0cf7 24       		.byte	0x24
ARM GAS  C:\Users\haske\AppData\Local\Temp\cc9HFfJU.s 			page 81


 3298 0cf8 B8000000 		.4byte	0xb8
 3299 0cfc 01       		.byte	0x1
 3300 0cfd 01       		.byte	0x1
 3301 0cfe 04       		.byte	0x4
 3302 0cff 09       		.byte	0x9
 3303 0d00 09       		.uleb128 0x9
 3304 0d01 F6000000 		.4byte	.LASF290
 3305 0d05 11       		.byte	0x11
 3306 0d06 25       		.byte	0x25
 3307 0d07 B8000000 		.4byte	0xb8
 3308 0d0b 01       		.byte	0x1
 3309 0d0c 01       		.byte	0x1
 3310 0d0d 03       		.byte	0x3
 3311 0d0e 09       		.byte	0x9
 3312 0d0f 00       		.byte	0
 3313 0d10 02       		.uleb128 0x2
 3314 0d11 1D070000 		.4byte	.LASF291
 3315 0d15 11       		.byte	0x11
 3316 0d16 26       		.byte	0x26
 3317 0d17 8F0C0000 		.4byte	0xc8f
 3318 0d1b 08       		.uleb128 0x8
 3319 0d1c 10       		.byte	0x10
 3320 0d1d 12       		.byte	0x12
 3321 0d1e 1C       		.byte	0x1c
 3322 0d1f 8A0D0000 		.4byte	0xd8a
 3323 0d23 0F       		.uleb128 0xf
 3324 0d24 6C1A0000 		.4byte	.LASF76
 3325 0d28 12       		.byte	0x12
 3326 0d29 1D       		.byte	0x1d
 3327 0d2a D6010000 		.4byte	0x1d6
 3328 0d2e 00       		.byte	0
 3329 0d2f 0F       		.uleb128 0xf
 3330 0d30 0B110000 		.4byte	.LASF285
 3331 0d34 12       		.byte	0x12
 3332 0d35 1E       		.byte	0x1e
 3333 0d36 EC010000 		.4byte	0x1ec
 3334 0d3a 02       		.byte	0x2
 3335 0d3b 0F       		.uleb128 0xf
 3336 0d3c F20D0000 		.4byte	.LASF292
 3337 0d40 12       		.byte	0x12
 3338 0d41 1F       		.byte	0x1f
 3339 0d42 CE000000 		.4byte	0xce
 3340 0d46 04       		.byte	0x4
 3341 0d47 0F       		.uleb128 0xf
 3342 0d48 9C060000 		.4byte	.LASF293
 3343 0d4c 12       		.byte	0x12
 3344 0d4d 20       		.byte	0x20
 3345 0d4e CE000000 		.4byte	0xce
 3346 0d52 06       		.byte	0x6
 3347 0d53 0F       		.uleb128 0xf
 3348 0d54 5F0C0000 		.4byte	.LASF294
 3349 0d58 12       		.byte	0x12
 3350 0d59 21       		.byte	0x21
 3351 0d5a CD030000 		.4byte	0x3cd
 3352 0d5e 08       		.byte	0x8
 3353 0d5f 0E       		.uleb128 0xe
 3354 0d60 6F706100 		.ascii	"opa\000"
ARM GAS  C:\Users\haske\AppData\Local\Temp\cc9HFfJU.s 			page 82


 3355 0d64 12       		.byte	0x12
 3356 0d65 22       		.byte	0x22
 3357 0d66 E1010000 		.4byte	0x1e1
 3358 0d6a 0C       		.byte	0xc
 3359 0d6b 09       		.uleb128 0x9
 3360 0d6c D8030000 		.4byte	.LASF239
 3361 0d70 12       		.byte	0x12
 3362 0d71 23       		.byte	0x23
 3363 0d72 00040000 		.4byte	0x400
 3364 0d76 01       		.byte	0x1
 3365 0d77 02       		.byte	0x2
 3366 0d78 06       		.byte	0x6
 3367 0d79 0D       		.byte	0xd
 3368 0d7a 09       		.uleb128 0x9
 3369 0d7b AD020000 		.4byte	.LASF295
 3370 0d7f 12       		.byte	0x12
 3371 0d80 24       		.byte	0x24
 3372 0d81 B8000000 		.4byte	0xb8
 3373 0d85 01       		.byte	0x1
 3374 0d86 01       		.byte	0x1
 3375 0d87 05       		.byte	0x5
 3376 0d88 0D       		.byte	0xd
 3377 0d89 00       		.byte	0
 3378 0d8a 02       		.uleb128 0x2
 3379 0d8b 171B0000 		.4byte	.LASF296
 3380 0d8f 12       		.byte	0x12
 3381 0d90 25       		.byte	0x25
 3382 0d91 1B0D0000 		.4byte	0xd1b
 3383 0d95 06       		.uleb128 0x6
 3384 0d96 01       		.byte	0x1
 3385 0d97 42000000 		.4byte	0x42
 3386 0d9b 13       		.byte	0x13
 3387 0d9c 1C       		.byte	0x1c
 3388 0d9d B40D0000 		.4byte	0xdb4
 3389 0da1 07       		.uleb128 0x7
 3390 0da2 57110000 		.4byte	.LASF297
 3391 0da6 00       		.byte	0
 3392 0da7 07       		.uleb128 0x7
 3393 0da8 C7010000 		.4byte	.LASF298
 3394 0dac 01       		.byte	0x1
 3395 0dad 07       		.uleb128 0x7
 3396 0dae AE160000 		.4byte	.LASF299
 3397 0db2 02       		.byte	0x2
 3398 0db3 00       		.byte	0
 3399 0db4 02       		.uleb128 0x2
 3400 0db5 A1080000 		.4byte	.LASF300
 3401 0db9 13       		.byte	0x13
 3402 0dba 20       		.byte	0x20
 3403 0dbb 950D0000 		.4byte	0xd95
 3404 0dbf 08       		.uleb128 0x8
 3405 0dc0 10       		.byte	0x10
 3406 0dc1 14       		.byte	0x14
 3407 0dc2 33       		.byte	0x33
 3408 0dc3 F80D0000 		.4byte	0xdf8
 3409 0dc7 0F       		.uleb128 0xf
 3410 0dc8 DE120000 		.4byte	.LASF301
 3411 0dcc 14       		.byte	0x14
ARM GAS  C:\Users\haske\AppData\Local\Temp\cc9HFfJU.s 			page 83


 3412 0dcd 34       		.byte	0x34
 3413 0dce ED070000 		.4byte	0x7ed
 3414 0dd2 00       		.byte	0
 3415 0dd3 0F       		.uleb128 0xf
 3416 0dd4 7B0F0000 		.4byte	.LASF302
 3417 0dd8 14       		.byte	0x14
 3418 0dd9 35       		.byte	0x35
 3419 0dda F80D0000 		.4byte	0xdf8
 3420 0dde 04       		.byte	0x4
 3421 0ddf 0E       		.uleb128 0xe
 3422 0de0 62756600 		.ascii	"buf\000"
 3423 0de4 14       		.byte	0x14
 3424 0de5 36       		.byte	0x36
 3425 0de6 13010000 		.4byte	0x113
 3426 0dea 08       		.byte	0x8
 3427 0deb 0F       		.uleb128 0xf
 3428 0dec 2D1C0000 		.4byte	.LASF303
 3429 0df0 14       		.byte	0x14
 3430 0df1 37       		.byte	0x37
 3431 0df2 95030000 		.4byte	0x395
 3432 0df6 0C       		.byte	0xc
 3433 0df7 00       		.byte	0
 3434 0df8 11       		.uleb128 0x11
 3435 0df9 04       		.byte	0x4
 3436 0dfa 54020000 		.4byte	0x254
 3437 0dfe 10       		.uleb128 0x10
 3438 0dff 7D130000 		.4byte	.LASF304
 3439 0e03 28       		.byte	0x28
 3440 0e04 14       		.byte	0x14
 3441 0e05 2D       		.byte	0x2d
 3442 0e06 530E0000 		.4byte	0xe53
 3443 0e0a 0F       		.uleb128 0xf
 3444 0e0b 35130000 		.4byte	.LASF305
 3445 0e0f 14       		.byte	0x14
 3446 0e10 2E       		.byte	0x2e
 3447 0e11 54020000 		.4byte	0x254
 3448 0e15 00       		.byte	0
 3449 0e16 0F       		.uleb128 0xf
 3450 0e17 9A070000 		.4byte	.LASF306
 3451 0e1b 14       		.byte	0x14
 3452 0e1c 2F       		.byte	0x2f
 3453 0e1d 54020000 		.4byte	0x254
 3454 0e21 08       		.byte	0x8
 3455 0e22 0F       		.uleb128 0xf
 3456 0e23 C7130000 		.4byte	.LASF307
 3457 0e27 14       		.byte	0x14
 3458 0e28 30       		.byte	0x30
 3459 0e29 EC010000 		.4byte	0x1ec
 3460 0e2d 10       		.byte	0x10
 3461 0e2e 0F       		.uleb128 0xf
 3462 0e2f A7170000 		.4byte	.LASF308
 3463 0e33 14       		.byte	0x14
 3464 0e34 31       		.byte	0x31
 3465 0e35 EC010000 		.4byte	0x1ec
 3466 0e39 12       		.byte	0x12
 3467 0e3a 0E       		.uleb128 0xe
 3468 0e3b 62756600 		.ascii	"buf\000"
ARM GAS  C:\Users\haske\AppData\Local\Temp\cc9HFfJU.s 			page 84


 3469 0e3f 14       		.byte	0x14
 3470 0e40 32       		.byte	0x32
 3471 0e41 13010000 		.4byte	0x113
 3472 0e45 14       		.byte	0x14
 3473 0e46 0F       		.uleb128 0xf
 3474 0e47 2F080000 		.4byte	.LASF309
 3475 0e4b 14       		.byte	0x14
 3476 0e4c 38       		.byte	0x38
 3477 0e4d BF0D0000 		.4byte	0xdbf
 3478 0e51 18       		.byte	0x18
 3479 0e52 00       		.byte	0
 3480 0e53 02       		.uleb128 0x2
 3481 0e54 4E1A0000 		.4byte	.LASF310
 3482 0e58 14       		.byte	0x14
 3483 0e59 39       		.byte	0x39
 3484 0e5a FE0D0000 		.4byte	0xdfe
 3485 0e5e 10       		.uleb128 0x10
 3486 0e5f DA020000 		.4byte	.LASF311
 3487 0e63 54       		.byte	0x54
 3488 0e64 14       		.byte	0x14
 3489 0e65 3B       		.byte	0x3b
 3490 0e66 670F0000 		.4byte	0xf67
 3491 0e6a 0E       		.uleb128 0xe
 3492 0e6b 62756600 		.ascii	"buf\000"
 3493 0e6f 14       		.byte	0x14
 3494 0e70 3F       		.byte	0x3f
 3495 0e71 13010000 		.4byte	0x113
 3496 0e75 00       		.byte	0
 3497 0e76 0F       		.uleb128 0xf
 3498 0e77 7B0F0000 		.4byte	.LASF302
 3499 0e7b 14       		.byte	0x14
 3500 0e7c 44       		.byte	0x44
 3501 0e7d F80D0000 		.4byte	0xdf8
 3502 0e81 04       		.byte	0x4
 3503 0e82 0F       		.uleb128 0xf
 3504 0e83 DE120000 		.4byte	.LASF301
 3505 0e87 14       		.byte	0x14
 3506 0e88 49       		.byte	0x49
 3507 0e89 ED070000 		.4byte	0x7ed
 3508 0e8d 08       		.byte	0x8
 3509 0e8e 0F       		.uleb128 0xf
 3510 0e8f 95020000 		.4byte	.LASF312
 3511 0e93 14       		.byte	0x14
 3512 0e94 4B       		.byte	0x4b
 3513 0e95 780F0000 		.4byte	0xf78
 3514 0e99 0C       		.byte	0xc
 3515 0e9a 0F       		.uleb128 0xf
 3516 0e9b 53020000 		.4byte	.LASF313
 3517 0e9f 14       		.byte	0x14
 3518 0ea0 4D       		.byte	0x4d
 3519 0ea1 9E0F0000 		.4byte	0xf9e
 3520 0ea5 10       		.byte	0x10
 3521 0ea6 0F       		.uleb128 0xf
 3522 0ea7 7D0E0000 		.4byte	.LASF314
 3523 0eab 14       		.byte	0x14
 3524 0eac 4F       		.byte	0x4f
 3525 0ead DE0F0000 		.4byte	0xfde
ARM GAS  C:\Users\haske\AppData\Local\Temp\cc9HFfJU.s 			page 85


 3526 0eb1 14       		.byte	0x14
 3527 0eb2 0F       		.uleb128 0xf
 3528 0eb3 26100000 		.4byte	.LASF315
 3529 0eb7 14       		.byte	0x14
 3530 0eb8 52       		.byte	0x52
 3531 0eb9 0E100000 		.4byte	0x100e
 3532 0ebd 18       		.byte	0x18
 3533 0ebe 0F       		.uleb128 0xf
 3534 0ebf B91D0000 		.4byte	.LASF316
 3535 0ec3 14       		.byte	0x14
 3536 0ec4 55       		.byte	0x55
 3537 0ec5 32100000 		.4byte	0x1032
 3538 0ec9 1C       		.byte	0x1c
 3539 0eca 0F       		.uleb128 0xf
 3540 0ecb 89180000 		.4byte	.LASF317
 3541 0ecf 14       		.byte	0x14
 3542 0ed0 58       		.byte	0x58
 3543 0ed1 5D100000 		.4byte	0x105d
 3544 0ed5 20       		.byte	0x20
 3545 0ed6 0F       		.uleb128 0xf
 3546 0ed7 57060000 		.4byte	.LASF318
 3547 0edb 14       		.byte	0x14
 3548 0edc 5C       		.byte	0x5c
 3549 0edd 88100000 		.4byte	0x1088
 3550 0ee1 24       		.byte	0x24
 3551 0ee2 0F       		.uleb128 0xf
 3552 0ee3 1D1E0000 		.4byte	.LASF319
 3553 0ee7 14       		.byte	0x14
 3554 0ee8 60       		.byte	0x60
 3555 0ee9 A8100000 		.4byte	0x10a8
 3556 0eed 28       		.byte	0x28
 3557 0eee 0F       		.uleb128 0xf
 3558 0eef 16090000 		.4byte	.LASF320
 3559 0ef3 14       		.byte	0x14
 3560 0ef4 71       		.byte	0x71
 3561 0ef5 E6100000 		.4byte	0x10e6
 3562 0ef9 2C       		.byte	0x2c
 3563 0efa 0F       		.uleb128 0xf
 3564 0efb D4000000 		.4byte	.LASF321
 3565 0eff 14       		.byte	0x14
 3566 0f00 78       		.byte	0x78
 3567 0f01 9E0F0000 		.4byte	0xf9e
 3568 0f05 30       		.byte	0x30
 3569 0f06 0F       		.uleb128 0xf
 3570 0f07 84160000 		.4byte	.LASF322
 3571 0f0b 14       		.byte	0x14
 3572 0f0c 7D       		.byte	0x7d
 3573 0f0d 780F0000 		.4byte	0xf78
 3574 0f11 34       		.byte	0x34
 3575 0f12 0F       		.uleb128 0xf
 3576 0f13 E5050000 		.4byte	.LASF323
 3577 0f17 14       		.byte	0x14
 3578 0f18 8D       		.byte	0x8d
 3579 0f19 15110000 		.4byte	0x1115
 3580 0f1d 38       		.byte	0x38
 3581 0f1e 0F       		.uleb128 0xf
 3582 0f1f 4F0B0000 		.4byte	.LASF324
ARM GAS  C:\Users\haske\AppData\Local\Temp\cc9HFfJU.s 			page 86


 3583 0f23 14       		.byte	0x14
 3584 0f24 99       		.byte	0x99
 3585 0f25 3A110000 		.4byte	0x113a
 3586 0f29 3C       		.byte	0x3c
 3587 0f2a 0F       		.uleb128 0xf
 3588 0f2b FE190000 		.4byte	.LASF325
 3589 0f2f 14       		.byte	0x14
 3590 0f30 A3       		.byte	0xa3
 3591 0f31 55110000 		.4byte	0x1155
 3592 0f35 40       		.byte	0x40
 3593 0f36 0F       		.uleb128 0xf
 3594 0f37 951A0000 		.4byte	.LASF326
 3595 0f3b 14       		.byte	0x14
 3596 0f3c AC       		.byte	0xac
 3597 0f3d 70110000 		.4byte	0x1170
 3598 0f41 44       		.byte	0x44
 3599 0f42 0F       		.uleb128 0xf
 3600 0f43 1E0E0000 		.4byte	.LASF327
 3601 0f47 14       		.byte	0x14
 3602 0f48 B5       		.byte	0xb5
 3603 0f49 8C110000 		.4byte	0x118c
 3604 0f4d 48       		.byte	0x48
 3605 0f4e 0F       		.uleb128 0xf
 3606 0f4f F9080000 		.4byte	.LASF328
 3607 0f53 14       		.byte	0x14
 3608 0f54 BA       		.byte	0xba
 3609 0f55 FA000000 		.4byte	0xfa
 3610 0f59 4C       		.byte	0x4c
 3611 0f5a 0F       		.uleb128 0xf
 3612 0f5b 4A1F0000 		.4byte	.LASF64
 3613 0f5f 14       		.byte	0x14
 3614 0f60 BD       		.byte	0xbd
 3615 0f61 13010000 		.4byte	0x113
 3616 0f65 50       		.byte	0x50
 3617 0f66 00       		.byte	0
 3618 0f67 1F       		.uleb128 0x1f
 3619 0f68 720F0000 		.4byte	0xf72
 3620 0f6c 14       		.uleb128 0x14
 3621 0f6d 720F0000 		.4byte	0xf72
 3622 0f71 00       		.byte	0
 3623 0f72 11       		.uleb128 0x11
 3624 0f73 04       		.byte	0x4
 3625 0f74 5E0E0000 		.4byte	0xe5e
 3626 0f78 11       		.uleb128 0x11
 3627 0f79 04       		.byte	0x4
 3628 0f7a 670F0000 		.4byte	0xf67
 3629 0f7e 1F       		.uleb128 0x1f
 3630 0f7f 930F0000 		.4byte	0xf93
 3631 0f83 14       		.uleb128 0x14
 3632 0f84 720F0000 		.4byte	0xf72
 3633 0f88 14       		.uleb128 0x14
 3634 0f89 930F0000 		.4byte	0xf93
 3635 0f8d 14       		.uleb128 0x14
 3636 0f8e ED070000 		.4byte	0x7ed
 3637 0f92 00       		.byte	0
 3638 0f93 11       		.uleb128 0x11
 3639 0f94 04       		.byte	0x4
ARM GAS  C:\Users\haske\AppData\Local\Temp\cc9HFfJU.s 			page 87


 3640 0f95 990F0000 		.4byte	0xf99
 3641 0f99 12       		.uleb128 0x12
 3642 0f9a 190B0000 		.4byte	0xb19
 3643 0f9e 11       		.uleb128 0x11
 3644 0f9f 04       		.byte	0x4
 3645 0fa0 7E0F0000 		.4byte	0xf7e
 3646 0fa4 1F       		.uleb128 0x1f
 3647 0fa5 C80F0000 		.4byte	0xfc8
 3648 0fa9 14       		.uleb128 0x14
 3649 0faa 720F0000 		.4byte	0xf72
 3650 0fae 14       		.uleb128 0x14
 3651 0faf C80F0000 		.4byte	0xfc8
 3652 0fb3 14       		.uleb128 0x14
 3653 0fb4 D30F0000 		.4byte	0xfd3
 3654 0fb8 14       		.uleb128 0x14
 3655 0fb9 CE000000 		.4byte	0xce
 3656 0fbd 14       		.uleb128 0x14
 3657 0fbe CE000000 		.4byte	0xce
 3658 0fc2 14       		.uleb128 0x14
 3659 0fc3 CE000000 		.4byte	0xce
 3660 0fc7 00       		.byte	0
 3661 0fc8 11       		.uleb128 0x11
 3662 0fc9 04       		.byte	0x4
 3663 0fca CE0F0000 		.4byte	0xfce
 3664 0fce 12       		.uleb128 0x12
 3665 0fcf 8A0D0000 		.4byte	0xd8a
 3666 0fd3 11       		.uleb128 0x11
 3667 0fd4 04       		.byte	0x4
 3668 0fd5 D90F0000 		.4byte	0xfd9
 3669 0fd9 12       		.uleb128 0x12
 3670 0fda 14020000 		.4byte	0x214
 3671 0fde 11       		.uleb128 0x11
 3672 0fdf 04       		.byte	0x4
 3673 0fe0 A40F0000 		.4byte	0xfa4
 3674 0fe4 1F       		.uleb128 0x1f
 3675 0fe5 03100000 		.4byte	0x1003
 3676 0fe9 14       		.uleb128 0x14
 3677 0fea 720F0000 		.4byte	0xf72
 3678 0fee 14       		.uleb128 0x14
 3679 0fef 03100000 		.4byte	0x1003
 3680 0ff3 14       		.uleb128 0x14
 3681 0ff4 ED070000 		.4byte	0x7ed
 3682 0ff8 14       		.uleb128 0x14
 3683 0ff9 BC030000 		.4byte	0x3bc
 3684 0ffd 14       		.uleb128 0x14
 3685 0ffe F4080000 		.4byte	0x8f4
 3686 1002 00       		.byte	0
 3687 1003 11       		.uleb128 0x11
 3688 1004 04       		.byte	0x4
 3689 1005 09100000 		.4byte	0x1009
 3690 1009 12       		.uleb128 0x12
 3691 100a 840C0000 		.4byte	0xc84
 3692 100e 11       		.uleb128 0x11
 3693 100f 04       		.byte	0x4
 3694 1010 E40F0000 		.4byte	0xfe4
 3695 1014 13       		.uleb128 0x13
 3696 1015 EF000000 		.4byte	0xef
ARM GAS  C:\Users\haske\AppData\Local\Temp\cc9HFfJU.s 			page 88


 3697 1019 32100000 		.4byte	0x1032
 3698 101d 14       		.uleb128 0x14
 3699 101e 720F0000 		.4byte	0xf72
 3700 1022 14       		.uleb128 0x14
 3701 1023 03100000 		.4byte	0x1003
 3702 1027 14       		.uleb128 0x14
 3703 1028 ED070000 		.4byte	0x7ed
 3704 102c 14       		.uleb128 0x14
 3705 102d CD030000 		.4byte	0x3cd
 3706 1031 00       		.byte	0
 3707 1032 11       		.uleb128 0x11
 3708 1033 04       		.byte	0x4
 3709 1034 14100000 		.4byte	0x1014
 3710 1038 1F       		.uleb128 0x1f
 3711 1039 52100000 		.4byte	0x1052
 3712 103d 14       		.uleb128 0x14
 3713 103e 720F0000 		.4byte	0xf72
 3714 1042 14       		.uleb128 0x14
 3715 1043 52100000 		.4byte	0x1052
 3716 1047 14       		.uleb128 0x14
 3717 1048 D30F0000 		.4byte	0xfd3
 3718 104c 14       		.uleb128 0x14
 3719 104d E4000000 		.4byte	0xe4
 3720 1051 00       		.byte	0
 3721 1052 11       		.uleb128 0x11
 3722 1053 04       		.byte	0x4
 3723 1054 58100000 		.4byte	0x1058
 3724 1058 12       		.uleb128 0x12
 3725 1059 FE0B0000 		.4byte	0xbfe
 3726 105d 11       		.uleb128 0x11
 3727 105e 04       		.byte	0x4
 3728 105f 38100000 		.4byte	0x1038
 3729 1063 1F       		.uleb128 0x1f
 3730 1064 7D100000 		.4byte	0x107d
 3731 1068 14       		.uleb128 0x14
 3732 1069 720F0000 		.4byte	0xf72
 3733 106d 14       		.uleb128 0x14
 3734 106e 7D100000 		.4byte	0x107d
 3735 1072 14       		.uleb128 0x14
 3736 1073 D30F0000 		.4byte	0xfd3
 3737 1077 14       		.uleb128 0x14
 3738 1078 D30F0000 		.4byte	0xfd3
 3739 107c 00       		.byte	0
 3740 107d 11       		.uleb128 0x11
 3741 107e 04       		.byte	0x4
 3742 107f 83100000 		.4byte	0x1083
 3743 1083 12       		.uleb128 0x12
 3744 1084 100D0000 		.4byte	0xd10
 3745 1088 11       		.uleb128 0x11
 3746 1089 04       		.byte	0x4
 3747 108a 63100000 		.4byte	0x1063
 3748 108e 1F       		.uleb128 0x1f
 3749 108f A8100000 		.4byte	0x10a8
 3750 1093 14       		.uleb128 0x14
 3751 1094 720F0000 		.4byte	0xf72
 3752 1098 14       		.uleb128 0x14
 3753 1099 930F0000 		.4byte	0xf93
ARM GAS  C:\Users\haske\AppData\Local\Temp\cc9HFfJU.s 			page 89


 3754 109d 14       		.uleb128 0x14
 3755 109e D30F0000 		.4byte	0xfd3
 3756 10a2 14       		.uleb128 0x14
 3757 10a3 CE000000 		.4byte	0xce
 3758 10a7 00       		.byte	0
 3759 10a8 11       		.uleb128 0x11
 3760 10a9 04       		.byte	0x4
 3761 10aa 8E100000 		.4byte	0x108e
 3762 10ae 1F       		.uleb128 0x1f
 3763 10af E6100000 		.4byte	0x10e6
 3764 10b3 14       		.uleb128 0x14
 3765 10b4 720F0000 		.4byte	0xf72
 3766 10b8 14       		.uleb128 0x14
 3767 10b9 ED070000 		.4byte	0x7ed
 3768 10bd 14       		.uleb128 0x14
 3769 10be CD030000 		.4byte	0x3cd
 3770 10c2 14       		.uleb128 0x14
 3771 10c3 EC010000 		.4byte	0x1ec
 3772 10c7 14       		.uleb128 0x14
 3773 10c8 EC010000 		.4byte	0x1ec
 3774 10cc 14       		.uleb128 0x14
 3775 10cd EC010000 		.4byte	0x1ec
 3776 10d1 14       		.uleb128 0x14
 3777 10d2 03100000 		.4byte	0x1003
 3778 10d6 14       		.uleb128 0x14
 3779 10d7 F4080000 		.4byte	0x8f4
 3780 10db 14       		.uleb128 0x14
 3781 10dc CC090000 		.4byte	0x9cc
 3782 10e0 14       		.uleb128 0x14
 3783 10e1 DC070000 		.4byte	0x7dc
 3784 10e5 00       		.byte	0
 3785 10e6 11       		.uleb128 0x11
 3786 10e7 04       		.byte	0x4
 3787 10e8 AE100000 		.4byte	0x10ae
 3788 10ec 1F       		.uleb128 0x1f
 3789 10ed 15110000 		.4byte	0x1115
 3790 10f1 14       		.uleb128 0x14
 3791 10f2 720F0000 		.4byte	0xf72
 3792 10f6 14       		.uleb128 0x14
 3793 10f7 13010000 		.4byte	0x113
 3794 10fb 14       		.uleb128 0x14
 3795 10fc EC010000 		.4byte	0x1ec
 3796 1100 14       		.uleb128 0x14
 3797 1101 ED070000 		.4byte	0x7ed
 3798 1105 14       		.uleb128 0x14
 3799 1106 13010000 		.4byte	0x113
 3800 110a 14       		.uleb128 0x14
 3801 110b EC010000 		.4byte	0x1ec
 3802 110f 14       		.uleb128 0x14
 3803 1110 ED070000 		.4byte	0x7ed
 3804 1114 00       		.byte	0
 3805 1115 11       		.uleb128 0x11
 3806 1116 04       		.byte	0x4
 3807 1117 EC100000 		.4byte	0x10ec
 3808 111b 13       		.uleb128 0x13
 3809 111c 34110000 		.4byte	0x1134
 3810 1120 34110000 		.4byte	0x1134
ARM GAS  C:\Users\haske\AppData\Local\Temp\cc9HFfJU.s 			page 90


 3811 1124 14       		.uleb128 0x14
 3812 1125 720F0000 		.4byte	0xf72
 3813 1129 14       		.uleb128 0x14
 3814 112a 34110000 		.4byte	0x1134
 3815 112e 14       		.uleb128 0x14
 3816 112f B40D0000 		.4byte	0xdb4
 3817 1133 00       		.byte	0
 3818 1134 11       		.uleb128 0x11
 3819 1135 04       		.byte	0x4
 3820 1136 FE0D0000 		.4byte	0xdfe
 3821 113a 11       		.uleb128 0x11
 3822 113b 04       		.byte	0x4
 3823 113c 1B110000 		.4byte	0x111b
 3824 1140 1F       		.uleb128 0x1f
 3825 1141 55110000 		.4byte	0x1155
 3826 1145 14       		.uleb128 0x14
 3827 1146 720F0000 		.4byte	0xf72
 3828 114a 14       		.uleb128 0x14
 3829 114b 34110000 		.4byte	0x1134
 3830 114f 14       		.uleb128 0x14
 3831 1150 B40D0000 		.4byte	0xdb4
 3832 1154 00       		.byte	0
 3833 1155 11       		.uleb128 0x11
 3834 1156 04       		.byte	0x4
 3835 1157 40110000 		.4byte	0x1140
 3836 115b 1F       		.uleb128 0x1f
 3837 115c 70110000 		.4byte	0x1170
 3838 1160 14       		.uleb128 0x14
 3839 1161 720F0000 		.4byte	0xf72
 3840 1165 14       		.uleb128 0x14
 3841 1166 34110000 		.4byte	0x1134
 3842 116a 14       		.uleb128 0x14
 3843 116b 03100000 		.4byte	0x1003
 3844 116f 00       		.byte	0
 3845 1170 11       		.uleb128 0x11
 3846 1171 04       		.byte	0x4
 3847 1172 5B110000 		.4byte	0x115b
 3848 1176 1F       		.uleb128 0x1f
 3849 1177 86110000 		.4byte	0x1186
 3850 117b 14       		.uleb128 0x14
 3851 117c 720F0000 		.4byte	0xf72
 3852 1180 14       		.uleb128 0x14
 3853 1181 86110000 		.4byte	0x1186
 3854 1185 00       		.byte	0
 3855 1186 11       		.uleb128 0x11
 3856 1187 04       		.byte	0x4
 3857 1188 530E0000 		.4byte	0xe53
 3858 118c 11       		.uleb128 0x11
 3859 118d 04       		.byte	0x4
 3860 118e 76110000 		.4byte	0x1176
 3861 1192 02       		.uleb128 0x2
 3862 1193 C5090000 		.4byte	.LASF329
 3863 1197 14       		.byte	0x14
 3864 1198 C0       		.byte	0xc0
 3865 1199 5E0E0000 		.4byte	0xe5e
 3866 119d 02       		.uleb128 0x2
 3867 119e 37100000 		.4byte	.LASF330
ARM GAS  C:\Users\haske\AppData\Local\Temp\cc9HFfJU.s 			page 91


 3868 11a2 15       		.byte	0x15
 3869 11a3 27       		.byte	0x27
 3870 11a4 A8110000 		.4byte	0x11a8
 3871 11a8 11       		.uleb128 0x11
 3872 11a9 04       		.byte	0x4
 3873 11aa AE110000 		.4byte	0x11ae
 3874 11ae 1F       		.uleb128 0x1f
 3875 11af B9110000 		.4byte	0x11b9
 3876 11b3 14       		.uleb128 0x14
 3877 11b4 B9110000 		.4byte	0x11b9
 3878 11b8 00       		.byte	0
 3879 11b9 11       		.uleb128 0x11
 3880 11ba 04       		.byte	0x4
 3881 11bb BF110000 		.4byte	0x11bf
 3882 11bf 10       		.uleb128 0x10
 3883 11c0 66020000 		.4byte	.LASF331
 3884 11c4 18       		.byte	0x18
 3885 11c5 15       		.byte	0x15
 3886 11c6 2C       		.byte	0x2c
 3887 11c7 17120000 		.4byte	0x1217
 3888 11cb 0F       		.uleb128 0xf
 3889 11cc 86190000 		.4byte	.LASF332
 3890 11d0 15       		.byte	0x15
 3891 11d1 2D       		.byte	0x2d
 3892 11d2 E4000000 		.4byte	0xe4
 3893 11d6 00       		.byte	0
 3894 11d7 0F       		.uleb128 0xf
 3895 11d8 58180000 		.4byte	.LASF333
 3896 11dc 15       		.byte	0x15
 3897 11dd 2E       		.byte	0x2e
 3898 11de E4000000 		.4byte	0xe4
 3899 11e2 04       		.byte	0x4
 3900 11e3 0F       		.uleb128 0xf
 3901 11e4 E1160000 		.4byte	.LASF334
 3902 11e8 15       		.byte	0x15
 3903 11e9 2F       		.byte	0x2f
 3904 11ea 9D110000 		.4byte	0x119d
 3905 11ee 08       		.byte	0x8
 3906 11ef 0F       		.uleb128 0xf
 3907 11f0 4A1F0000 		.4byte	.LASF64
 3908 11f4 15       		.byte	0x15
 3909 11f5 30       		.byte	0x30
 3910 11f6 13010000 		.4byte	0x113
 3911 11fa 0C       		.byte	0xc
 3912 11fb 0F       		.uleb128 0xf
 3913 11fc 26020000 		.4byte	.LASF335
 3914 1200 15       		.byte	0x15
 3915 1201 31       		.byte	0x31
 3916 1202 D9000000 		.4byte	0xd9
 3917 1206 10       		.byte	0x10
 3918 1207 09       		.uleb128 0x9
 3919 1208 81100000 		.4byte	.LASF336
 3920 120c 15       		.byte	0x15
 3921 120d 32       		.byte	0x32
 3922 120e E4000000 		.4byte	0xe4
 3923 1212 04       		.byte	0x4
 3924 1213 01       		.byte	0x1
ARM GAS  C:\Users\haske\AppData\Local\Temp\cc9HFfJU.s 			page 92


 3925 1214 1F       		.byte	0x1f
 3926 1215 14       		.byte	0x14
 3927 1216 00       		.byte	0
 3928 1217 02       		.uleb128 0x2
 3929 1218 C50A0000 		.4byte	.LASF337
 3930 121c 15       		.byte	0x15
 3931 121d 33       		.byte	0x33
 3932 121e BF110000 		.4byte	0x11bf
 3933 1222 20       		.uleb128 0x20
 3934 1223 5B130000 		.4byte	.LASF338
 3935 1227 5C01     		.2byte	0x15c
 3936 1229 16       		.byte	0x16
 3937 122a 9E       		.byte	0x9e
 3938 122b 39130000 		.4byte	0x1339
 3939 122f 0F       		.uleb128 0xf
 3940 1230 86090000 		.4byte	.LASF339
 3941 1234 16       		.byte	0x16
 3942 1235 A0       		.byte	0xa0
 3943 1236 34160000 		.4byte	0x1634
 3944 123a 00       		.byte	0
 3945 123b 0F       		.uleb128 0xf
 3946 123c 0D050000 		.4byte	.LASF340
 3947 1240 16       		.byte	0x16
 3948 1241 A3       		.byte	0xa3
 3949 1242 39130000 		.4byte	0x1339
 3950 1246 04       		.byte	0x4
 3951 1247 0F       		.uleb128 0xf
 3952 1248 500E0000 		.4byte	.LASF341
 3953 124c 16       		.byte	0x16
 3954 124d A6       		.byte	0xa6
 3955 124e ED160000 		.4byte	0x16ed
 3956 1252 08       		.byte	0x8
 3957 1253 0F       		.uleb128 0xf
 3958 1254 1D040000 		.4byte	.LASF342
 3959 1258 16       		.byte	0x16
 3960 1259 A9       		.byte	0xa9
 3961 125a F3160000 		.4byte	0x16f3
 3962 125e 0C       		.byte	0xc
 3963 125f 0F       		.uleb128 0xf
 3964 1260 B9000000 		.4byte	.LASF343
 3965 1264 16       		.byte	0x16
 3966 1265 AA       		.byte	0xaa
 3967 1266 FF080000 		.4byte	0x8ff
 3968 126a 10       		.byte	0x10
 3969 126b 0F       		.uleb128 0xf
 3970 126c 401B0000 		.4byte	.LASF344
 3971 1270 16       		.byte	0x16
 3972 1271 AB       		.byte	0xab
 3973 1272 FF080000 		.4byte	0x8ff
 3974 1276 14       		.byte	0x14
 3975 1277 0F       		.uleb128 0xf
 3976 1278 8D050000 		.4byte	.LASF345
 3977 127c 16       		.byte	0x16
 3978 127d AC       		.byte	0xac
 3979 127e FF080000 		.4byte	0x8ff
 3980 1282 18       		.byte	0x18
 3981 1283 0F       		.uleb128 0xf
ARM GAS  C:\Users\haske\AppData\Local\Temp\cc9HFfJU.s 			page 93


 3982 1284 E1060000 		.4byte	.LASF346
 3983 1288 16       		.byte	0x16
 3984 1289 AD       		.byte	0xad
 3985 128a FF080000 		.4byte	0x8ff
 3986 128e 1C       		.byte	0x1c
 3987 128f 0F       		.uleb128 0xf
 3988 1290 D4170000 		.4byte	.LASF347
 3989 1294 16       		.byte	0x16
 3990 1295 AE       		.byte	0xae
 3991 1296 FF080000 		.4byte	0x8ff
 3992 129a 20       		.byte	0x20
 3993 129b 0F       		.uleb128 0xf
 3994 129c C1000000 		.4byte	.LASF348
 3995 12a0 16       		.byte	0x16
 3996 12a1 AF       		.byte	0xaf
 3997 12a2 E4000000 		.4byte	0xe4
 3998 12a6 24       		.byte	0x24
 3999 12a7 09       		.uleb128 0x9
 4000 12a8 0B0E0000 		.4byte	.LASF349
 4001 12ac 16       		.byte	0x16
 4002 12ad B0       		.byte	0xb0
 4003 12ae B8000000 		.4byte	0xb8
 4004 12b2 01       		.byte	0x1
 4005 12b3 01       		.byte	0x1
 4006 12b4 07       		.byte	0x7
 4007 12b5 28       		.byte	0x28
 4008 12b6 09       		.uleb128 0x9
 4009 12b7 8F1C0000 		.4byte	.LASF350
 4010 12bb 16       		.byte	0x16
 4011 12bc B2       		.byte	0xb2
 4012 12bd B8000000 		.4byte	0xb8
 4013 12c1 01       		.byte	0x1
 4014 12c2 01       		.byte	0x1
 4015 12c3 06       		.byte	0x6
 4016 12c4 28       		.byte	0x28
 4017 12c5 09       		.uleb128 0x9
 4018 12c6 DC070000 		.4byte	.LASF351
 4019 12ca 16       		.byte	0x16
 4020 12cb B4       		.byte	0xb4
 4021 12cc B8000000 		.4byte	0xb8
 4022 12d0 01       		.byte	0x1
 4023 12d1 01       		.byte	0x1
 4024 12d2 05       		.byte	0x5
 4025 12d3 28       		.byte	0x28
 4026 12d4 0F       		.uleb128 0xf
 4027 12d5 06050000 		.4byte	.LASF240
 4028 12d9 16       		.byte	0x16
 4029 12da B6       		.byte	0xb6
 4030 12db E1010000 		.4byte	0x1e1
 4031 12df 29       		.byte	0x29
 4032 12e0 0F       		.uleb128 0xf
 4033 12e1 62010000 		.4byte	.LASF241
 4034 12e5 16       		.byte	0x16
 4035 12e6 B7       		.byte	0xb7
 4036 12e7 D6010000 		.4byte	0x1d6
 4037 12eb 2A       		.byte	0x2a
 4038 12ec 0F       		.uleb128 0xf
ARM GAS  C:\Users\haske\AppData\Local\Temp\cc9HFfJU.s 			page 94


 4039 12ed 981C0000 		.4byte	.LASF352
 4040 12f1 16       		.byte	0x16
 4041 12f2 B8       		.byte	0xb8
 4042 12f3 CD030000 		.4byte	0x3cd
 4043 12f7 2C       		.byte	0x2c
 4044 12f8 0F       		.uleb128 0xf
 4045 12f9 9E130000 		.4byte	.LASF353
 4046 12fd 16       		.byte	0x16
 4047 12fe BB       		.byte	0xbb
 4048 12ff F9160000 		.4byte	0x16f9
 4049 1303 30       		.byte	0x30
 4050 1304 21       		.uleb128 0x21
 4051 1305 67050000 		.4byte	.LASF354
 4052 1309 16       		.byte	0x16
 4053 130a BC       		.byte	0xbc
 4054 130b 09170000 		.4byte	0x1709
 4055 130f 3001     		.2byte	0x130
 4056 1311 21       		.uleb128 0x21
 4057 1312 8B1B0000 		.4byte	.LASF355
 4058 1316 16       		.byte	0x16
 4059 1317 BD       		.byte	0xbd
 4060 1318 CE000000 		.4byte	0xce
 4061 131c 5001     		.2byte	0x150
 4062 131e 21       		.uleb128 0x21
 4063 131f 221C0000 		.4byte	.LASF356
 4064 1323 16       		.byte	0x16
 4065 1324 BE       		.byte	0xbe
 4066 1325 D9000000 		.4byte	0xd9
 4067 1329 5401     		.2byte	0x154
 4068 132b 21       		.uleb128 0x21
 4069 132c A4040000 		.4byte	.LASF357
 4070 1330 16       		.byte	0x16
 4071 1331 C1       		.byte	0xc1
 4072 1332 E4000000 		.4byte	0xe4
 4073 1336 5801     		.2byte	0x158
 4074 1338 00       		.byte	0
 4075 1339 11       		.uleb128 0x11
 4076 133a 04       		.byte	0x4
 4077 133b 17120000 		.4byte	0x1217
 4078 133f 10       		.uleb128 0x10
 4079 1340 A0200000 		.4byte	.LASF358
 4080 1344 20       		.byte	0x20
 4081 1345 17       		.byte	0x17
 4082 1346 3B       		.byte	0x3b
 4083 1347 C4130000 		.4byte	0x13c4
 4084 134b 0F       		.uleb128 0xf
 4085 134c 760E0000 		.4byte	.LASF359
 4086 1350 17       		.byte	0x17
 4087 1351 3C       		.byte	0x3c
 4088 1352 08140000 		.4byte	0x1408
 4089 1356 00       		.byte	0
 4090 1357 0F       		.uleb128 0xf
 4091 1358 FD200000 		.4byte	.LASF360
 4092 135c 17       		.byte	0x17
 4093 135d 3D       		.byte	0x3d
 4094 135e F3160000 		.4byte	0x16f3
 4095 1362 0C       		.byte	0xc
ARM GAS  C:\Users\haske\AppData\Local\Temp\cc9HFfJU.s 			page 95


 4096 1363 0F       		.uleb128 0xf
 4097 1364 37150000 		.4byte	.LASF361
 4098 1368 17       		.byte	0x17
 4099 1369 3F       		.byte	0x3f
 4100 136a 2D1A0000 		.4byte	0x1a2d
 4101 136e 10       		.byte	0x10
 4102 136f 0F       		.uleb128 0xf
 4103 1370 5F050000 		.4byte	.LASF362
 4104 1374 17       		.byte	0x17
 4105 1375 40       		.byte	0x40
 4106 1376 491A0000 		.4byte	0x1a49
 4107 137a 14       		.byte	0x14
 4108 137b 0F       		.uleb128 0xf
 4109 137c 4A1F0000 		.4byte	.LASF64
 4110 1380 17       		.byte	0x17
 4111 1381 45       		.byte	0x45
 4112 1382 13010000 		.4byte	0x113
 4113 1386 18       		.byte	0x18
 4114 1387 09       		.uleb128 0x9
 4115 1388 DE050000 		.4byte	.LASF363
 4116 138c 17       		.byte	0x17
 4117 138d 48       		.byte	0x48
 4118 138e B8000000 		.4byte	0xb8
 4119 1392 01       		.byte	0x1
 4120 1393 01       		.byte	0x1
 4121 1394 07       		.byte	0x7
 4122 1395 1C       		.byte	0x1c
 4123 1396 09       		.uleb128 0x9
 4124 1397 89170000 		.4byte	.LASF364
 4125 139b 17       		.byte	0x17
 4126 139c 49       		.byte	0x49
 4127 139d B8000000 		.4byte	0xb8
 4128 13a1 01       		.byte	0x1
 4129 13a2 01       		.byte	0x1
 4130 13a3 06       		.byte	0x6
 4131 13a4 1C       		.byte	0x1c
 4132 13a5 09       		.uleb128 0x9
 4133 13a6 EF1F0000 		.4byte	.LASF365
 4134 13aa 17       		.byte	0x17
 4135 13ab 4A       		.byte	0x4a
 4136 13ac B8000000 		.4byte	0xb8
 4137 13b0 01       		.byte	0x1
 4138 13b1 01       		.byte	0x1
 4139 13b2 05       		.byte	0x5
 4140 13b3 1C       		.byte	0x1c
 4141 13b4 09       		.uleb128 0x9
 4142 13b5 74180000 		.4byte	.LASF366
 4143 13b9 17       		.byte	0x17
 4144 13ba 4C       		.byte	0x4c
 4145 13bb B8000000 		.4byte	0xb8
 4146 13bf 01       		.byte	0x1
 4147 13c0 01       		.byte	0x1
 4148 13c1 04       		.byte	0x4
 4149 13c2 1C       		.byte	0x1c
 4150 13c3 00       		.byte	0
 4151 13c4 11       		.uleb128 0x11
 4152 13c5 04       		.byte	0x4
ARM GAS  C:\Users\haske\AppData\Local\Temp\cc9HFfJU.s 			page 96


 4153 13c6 3F130000 		.4byte	0x133f
 4154 13ca 02       		.uleb128 0x2
 4155 13cb 3B000000 		.4byte	.LASF367
 4156 13cf 18       		.byte	0x18
 4157 13d0 1D       		.byte	0x1d
 4158 13d1 B8000000 		.4byte	0xb8
 4159 13d5 08       		.uleb128 0x8
 4160 13d6 0C       		.byte	0xc
 4161 13d7 18       		.byte	0x18
 4162 13d8 20       		.byte	0x20
 4163 13d9 02140000 		.4byte	0x1402
 4164 13dd 0F       		.uleb128 0xf
 4165 13de 92200000 		.4byte	.LASF368
 4166 13e2 18       		.byte	0x18
 4167 13e3 21       		.byte	0x21
 4168 13e4 E4000000 		.4byte	0xe4
 4169 13e8 00       		.byte	0
 4170 13e9 0F       		.uleb128 0xf
 4171 13ea A0050000 		.4byte	.LASF369
 4172 13ee 18       		.byte	0x18
 4173 13ef 22       		.byte	0x22
 4174 13f0 02140000 		.4byte	0x1402
 4175 13f4 04       		.byte	0x4
 4176 13f5 0F       		.uleb128 0xf
 4177 13f6 B4000000 		.4byte	.LASF370
 4178 13fa 18       		.byte	0x18
 4179 13fb 23       		.byte	0x23
 4180 13fc 02140000 		.4byte	0x1402
 4181 1400 08       		.byte	0x8
 4182 1401 00       		.byte	0
 4183 1402 11       		.uleb128 0x11
 4184 1403 04       		.byte	0x4
 4185 1404 CA130000 		.4byte	0x13ca
 4186 1408 02       		.uleb128 0x2
 4187 1409 911B0000 		.4byte	.LASF371
 4188 140d 18       		.byte	0x18
 4189 140e 24       		.byte	0x24
 4190 140f D5130000 		.4byte	0x13d5
 4191 1413 10       		.uleb128 0x10
 4192 1414 670F0000 		.4byte	.LASF372
 4193 1418 1C       		.byte	0x1c
 4194 1419 16       		.byte	0x16
 4195 141a 32       		.byte	0x32
 4196 141b 86140000 		.4byte	0x1486
 4197 141f 0F       		.uleb128 0xf
 4198 1420 21110000 		.4byte	.LASF373
 4199 1424 16       		.byte	0x16
 4200 1425 33       		.byte	0x33
 4201 1426 13010000 		.4byte	0x113
 4202 142a 00       		.byte	0
 4203 142b 0F       		.uleb128 0xf
 4204 142c 26110000 		.4byte	.LASF374
 4205 1430 16       		.byte	0x16
 4206 1431 34       		.byte	0x34
 4207 1432 13010000 		.4byte	0x113
 4208 1436 04       		.byte	0x4
 4209 1437 0F       		.uleb128 0xf
ARM GAS  C:\Users\haske\AppData\Local\Temp\cc9HFfJU.s 			page 97


 4210 1438 30160000 		.4byte	.LASF375
 4211 143c 16       		.byte	0x16
 4212 143d 37       		.byte	0x37
 4213 143e 13010000 		.4byte	0x113
 4214 1442 08       		.byte	0x8
 4215 1443 0F       		.uleb128 0xf
 4216 1444 A2170000 		.4byte	.LASF376
 4217 1448 16       		.byte	0x16
 4218 1449 38       		.byte	0x38
 4219 144a E4000000 		.4byte	0xe4
 4220 144e 0C       		.byte	0xc
 4221 144f 0F       		.uleb128 0xf
 4222 1450 760A0000 		.4byte	.LASF377
 4223 1454 16       		.byte	0x16
 4224 1455 3A       		.byte	0x3a
 4225 1456 86140000 		.4byte	0x1486
 4226 145a 10       		.byte	0x10
 4227 145b 0F       		.uleb128 0xf
 4228 145c FB070000 		.4byte	.LASF378
 4229 1460 16       		.byte	0x16
 4230 1461 3C       		.byte	0x3c
 4231 1462 86140000 		.4byte	0x1486
 4232 1466 14       		.byte	0x14
 4233 1467 09       		.uleb128 0x9
 4234 1468 AD110000 		.4byte	.LASF379
 4235 146c 16       		.byte	0x16
 4236 146d 3D       		.byte	0x3d
 4237 146e 8B140000 		.4byte	0x148b
 4238 1472 04       		.byte	0x4
 4239 1473 01       		.byte	0x1
 4240 1474 1F       		.byte	0x1f
 4241 1475 18       		.byte	0x18
 4242 1476 09       		.uleb128 0x9
 4243 1477 3D0E0000 		.4byte	.LASF380
 4244 147b 16       		.byte	0x16
 4245 147c 3E       		.byte	0x3e
 4246 147d 8B140000 		.4byte	0x148b
 4247 1481 04       		.byte	0x4
 4248 1482 01       		.byte	0x1
 4249 1483 1E       		.byte	0x1e
 4250 1484 18       		.byte	0x18
 4251 1485 00       		.byte	0
 4252 1486 22       		.uleb128 0x22
 4253 1487 9F000000 		.4byte	0x9f
 4254 148b 22       		.uleb128 0x22
 4255 148c E4000000 		.4byte	0xe4
 4256 1490 02       		.uleb128 0x2
 4257 1491 48000000 		.4byte	.LASF381
 4258 1495 16       		.byte	0x16
 4259 1496 3F       		.byte	0x3f
 4260 1497 13140000 		.4byte	0x1413
 4261 149b 10       		.uleb128 0x10
 4262 149c FE1F0000 		.4byte	.LASF382
 4263 14a0 50       		.byte	0x50
 4264 14a1 16       		.byte	0x16
 4265 14a2 4D       		.byte	0x4d
 4266 14a3 19160000 		.4byte	0x1619
ARM GAS  C:\Users\haske\AppData\Local\Temp\cc9HFfJU.s 			page 98


 4267 14a7 0F       		.uleb128 0xf
 4268 14a8 61060000 		.4byte	.LASF383
 4269 14ac 16       		.byte	0x16
 4270 14ad 4F       		.byte	0x4f
 4271 14ae EC010000 		.4byte	0x1ec
 4272 14b2 00       		.byte	0
 4273 14b3 0F       		.uleb128 0xf
 4274 14b4 F3030000 		.4byte	.LASF384
 4275 14b8 16       		.byte	0x16
 4276 14b9 50       		.byte	0x50
 4277 14ba EC010000 		.4byte	0x1ec
 4278 14be 02       		.byte	0x2
 4279 14bf 0F       		.uleb128 0xf
 4280 14c0 91170000 		.4byte	.LASF385
 4281 14c4 16       		.byte	0x16
 4282 14c5 53       		.byte	0x53
 4283 14c6 EC010000 		.4byte	0x1ec
 4284 14ca 04       		.byte	0x4
 4285 14cb 0F       		.uleb128 0xf
 4286 14cc 1E080000 		.4byte	.LASF386
 4287 14d0 16       		.byte	0x16
 4288 14d1 55       		.byte	0x55
 4289 14d2 EC010000 		.4byte	0x1ec
 4290 14d6 06       		.byte	0x6
 4291 14d7 0F       		.uleb128 0xf
 4292 14d8 560E0000 		.4byte	.LASF387
 4293 14dc 16       		.byte	0x16
 4294 14dd 57       		.byte	0x57
 4295 14de EC010000 		.4byte	0x1ec
 4296 14e2 08       		.byte	0x8
 4297 14e3 0F       		.uleb128 0xf
 4298 14e4 5F0E0000 		.4byte	.LASF388
 4299 14e8 16       		.byte	0x16
 4300 14e9 58       		.byte	0x58
 4301 14ea EC010000 		.4byte	0x1ec
 4302 14ee 0A       		.byte	0xa
 4303 14ef 0F       		.uleb128 0xf
 4304 14f0 7D190000 		.4byte	.LASF389
 4305 14f4 16       		.byte	0x16
 4306 14f5 5C       		.byte	0x5c
 4307 14f6 19160000 		.4byte	0x1619
 4308 14fa 0C       		.byte	0xc
 4309 14fb 09       		.uleb128 0x9
 4310 14fc 25090000 		.4byte	.LASF390
 4311 1500 16       		.byte	0x16
 4312 1501 5E       		.byte	0x5e
 4313 1502 E4000000 		.4byte	0xe4
 4314 1506 04       		.byte	0x4
 4315 1507 01       		.byte	0x1
 4316 1508 1F       		.byte	0x1f
 4317 1509 10       		.byte	0x10
 4318 150a 09       		.uleb128 0x9
 4319 150b 480C0000 		.4byte	.LASF391
 4320 150f 16       		.byte	0x16
 4321 1510 5F       		.byte	0x5f
 4322 1511 E4000000 		.4byte	0xe4
 4323 1515 04       		.byte	0x4
ARM GAS  C:\Users\haske\AppData\Local\Temp\cc9HFfJU.s 			page 99


 4324 1516 01       		.byte	0x1
 4325 1517 1E       		.byte	0x1e
 4326 1518 10       		.byte	0x10
 4327 1519 09       		.uleb128 0x9
 4328 151a 1C0B0000 		.4byte	.LASF392
 4329 151e 16       		.byte	0x16
 4330 151f 60       		.byte	0x60
 4331 1520 E4000000 		.4byte	0xe4
 4332 1524 04       		.byte	0x4
 4333 1525 01       		.byte	0x1
 4334 1526 1D       		.byte	0x1d
 4335 1527 10       		.byte	0x10
 4336 1528 09       		.uleb128 0x9
 4337 1529 79090000 		.4byte	.LASF393
 4338 152d 16       		.byte	0x16
 4339 152e 61       		.byte	0x61
 4340 152f E4000000 		.4byte	0xe4
 4341 1533 04       		.byte	0x4
 4342 1534 01       		.byte	0x1
 4343 1535 1C       		.byte	0x1c
 4344 1536 10       		.byte	0x10
 4345 1537 09       		.uleb128 0x9
 4346 1538 D9040000 		.4byte	.LASF394
 4347 153c 16       		.byte	0x16
 4348 153d 62       		.byte	0x62
 4349 153e E4000000 		.4byte	0xe4
 4350 1542 04       		.byte	0x4
 4351 1543 02       		.byte	0x2
 4352 1544 1A       		.byte	0x1a
 4353 1545 10       		.byte	0x10
 4354 1546 09       		.uleb128 0x9
 4355 1547 2D1C0000 		.4byte	.LASF303
 4356 154b 16       		.byte	0x16
 4357 154c 63       		.byte	0x63
 4358 154d E4000000 		.4byte	0xe4
 4359 1551 04       		.byte	0x4
 4360 1552 01       		.byte	0x1
 4361 1553 19       		.byte	0x19
 4362 1554 10       		.byte	0x10
 4363 1555 0A       		.uleb128 0xa
 4364 1556 64706900 		.ascii	"dpi\000"
 4365 155a 16       		.byte	0x16
 4366 155b 66       		.byte	0x66
 4367 155c E4000000 		.4byte	0xe4
 4368 1560 04       		.byte	0x4
 4369 1561 0A       		.byte	0xa
 4370 1562 0F       		.byte	0xf
 4371 1563 10       		.byte	0x10
 4372 1564 0F       		.uleb128 0xf
 4373 1565 2A1F0000 		.4byte	.LASF395
 4374 1569 16       		.byte	0x16
 4375 156a 6A       		.byte	0x6a
 4376 156b 3A160000 		.4byte	0x163a
 4377 156f 14       		.byte	0x14
 4378 1570 0F       		.uleb128 0xf
 4379 1571 8D190000 		.4byte	.LASF396
 4380 1575 16       		.byte	0x16
ARM GAS  C:\Users\haske\AppData\Local\Temp\cc9HFfJU.s 			page 100


 4381 1576 6E       		.byte	0x6e
 4382 1577 50160000 		.4byte	0x1650
 4383 157b 18       		.byte	0x18
 4384 157c 0F       		.uleb128 0xf
 4385 157d 2F1D0000 		.4byte	.LASF397
 4386 1581 16       		.byte	0x16
 4387 1582 73       		.byte	0x73
 4388 1583 7F160000 		.4byte	0x167f
 4389 1587 1C       		.byte	0x1c
 4390 1588 0F       		.uleb128 0xf
 4391 1589 350D0000 		.4byte	.LASF398
 4392 158d 16       		.byte	0x16
 4393 158e 76       		.byte	0x76
 4394 158f 9A160000 		.4byte	0x169a
 4395 1593 20       		.byte	0x20
 4396 1594 0F       		.uleb128 0xf
 4397 1595 1E120000 		.4byte	.LASF399
 4398 1599 16       		.byte	0x16
 4399 159a 7B       		.byte	0x7b
 4400 159b B5160000 		.4byte	0x16b5
 4401 159f 24       		.byte	0x24
 4402 15a0 0F       		.uleb128 0xf
 4403 15a1 A0100000 		.4byte	.LASF400
 4404 15a5 16       		.byte	0x16
 4405 15a6 80       		.byte	0x80
 4406 15a7 C6160000 		.4byte	0x16c6
 4407 15ab 28       		.byte	0x28
 4408 15ac 0F       		.uleb128 0xf
 4409 15ad 47200000 		.4byte	.LASF401
 4410 15b1 16       		.byte	0x16
 4411 15b2 83       		.byte	0x83
 4412 15b3 C6160000 		.4byte	0x16c6
 4413 15b7 2C       		.byte	0x2c
 4414 15b8 0F       		.uleb128 0xf
 4415 15b9 5D170000 		.4byte	.LASF402
 4416 15bd 16       		.byte	0x16
 4417 15be 86       		.byte	0x86
 4418 15bf C6160000 		.4byte	0x16c6
 4419 15c3 30       		.byte	0x30
 4420 15c4 0F       		.uleb128 0xf
 4421 15c5 4D170000 		.4byte	.LASF403
 4422 15c9 16       		.byte	0x16
 4423 15ca 89       		.byte	0x89
 4424 15cb C6160000 		.4byte	0x16c6
 4425 15cf 34       		.byte	0x34
 4426 15d0 0F       		.uleb128 0xf
 4427 15d1 2A000000 		.4byte	.LASF404
 4428 15d5 16       		.byte	0x16
 4429 15d6 8D       		.byte	0x8d
 4430 15d7 D6010000 		.4byte	0x1d6
 4431 15db 38       		.byte	0x38
 4432 15dc 0F       		.uleb128 0xf
 4433 15dd B01D0000 		.4byte	.LASF405
 4434 15e1 16       		.byte	0x16
 4435 15e2 8F       		.byte	0x8f
 4436 15e3 CC160000 		.4byte	0x16cc
 4437 15e7 3C       		.byte	0x3c
ARM GAS  C:\Users\haske\AppData\Local\Temp\cc9HFfJU.s 			page 101


 4438 15e8 0F       		.uleb128 0xf
 4439 15e9 C80F0000 		.4byte	.LASF406
 4440 15ed 16       		.byte	0x16
 4441 15ee 90       		.byte	0x90
 4442 15ef E2160000 		.4byte	0x16e2
 4443 15f3 40       		.byte	0x40
 4444 15f4 0F       		.uleb128 0xf
 4445 15f5 F6040000 		.4byte	.LASF407
 4446 15f9 16       		.byte	0x16
 4447 15fa 91       		.byte	0x91
 4448 15fb E2160000 		.4byte	0x16e2
 4449 15ff 44       		.byte	0x44
 4450 1600 0F       		.uleb128 0xf
 4451 1601 90010000 		.4byte	.LASF408
 4452 1605 16       		.byte	0x16
 4453 1606 92       		.byte	0x92
 4454 1607 FA000000 		.4byte	0xfa
 4455 160b 48       		.byte	0x48
 4456 160c 0F       		.uleb128 0xf
 4457 160d 4A1F0000 		.4byte	.LASF64
 4458 1611 16       		.byte	0x16
 4459 1612 95       		.byte	0x95
 4460 1613 13010000 		.4byte	0x113
 4461 1617 4C       		.byte	0x4c
 4462 1618 00       		.byte	0
 4463 1619 11       		.uleb128 0x11
 4464 161a 04       		.byte	0x4
 4465 161b 90140000 		.4byte	0x1490
 4466 161f 1F       		.uleb128 0x1f
 4467 1620 34160000 		.4byte	0x1634
 4468 1624 14       		.uleb128 0x14
 4469 1625 34160000 		.4byte	0x1634
 4470 1629 14       		.uleb128 0x14
 4471 162a ED070000 		.4byte	0x7ed
 4472 162e 14       		.uleb128 0x14
 4473 162f CC090000 		.4byte	0x9cc
 4474 1633 00       		.byte	0
 4475 1634 11       		.uleb128 0x11
 4476 1635 04       		.byte	0x4
 4477 1636 9B140000 		.4byte	0x149b
 4478 163a 11       		.uleb128 0x11
 4479 163b 04       		.byte	0x4
 4480 163c 1F160000 		.4byte	0x161f
 4481 1640 1F       		.uleb128 0x1f
 4482 1641 50160000 		.4byte	0x1650
 4483 1645 14       		.uleb128 0x14
 4484 1646 34160000 		.4byte	0x1634
 4485 164a 14       		.uleb128 0x14
 4486 164b F80D0000 		.4byte	0xdf8
 4487 164f 00       		.byte	0
 4488 1650 11       		.uleb128 0x11
 4489 1651 04       		.byte	0x4
 4490 1652 40160000 		.4byte	0x1640
 4491 1656 1F       		.uleb128 0x1f
 4492 1657 7F160000 		.4byte	0x167f
 4493 165b 14       		.uleb128 0x14
 4494 165c 34160000 		.4byte	0x1634
ARM GAS  C:\Users\haske\AppData\Local\Temp\cc9HFfJU.s 			page 102


 4495 1660 14       		.uleb128 0x14
 4496 1661 81070000 		.4byte	0x781
 4497 1665 14       		.uleb128 0x14
 4498 1666 EC010000 		.4byte	0x1ec
 4499 166a 14       		.uleb128 0x14
 4500 166b EC010000 		.4byte	0x1ec
 4501 166f 14       		.uleb128 0x14
 4502 1670 EC010000 		.4byte	0x1ec
 4503 1674 14       		.uleb128 0x14
 4504 1675 D6010000 		.4byte	0x1d6
 4505 1679 14       		.uleb128 0x14
 4506 167a E1010000 		.4byte	0x1e1
 4507 167e 00       		.byte	0
 4508 167f 11       		.uleb128 0x11
 4509 1680 04       		.byte	0x4
 4510 1681 56160000 		.4byte	0x1656
 4511 1685 1F       		.uleb128 0x1f
 4512 1686 9A160000 		.4byte	0x169a
 4513 168a 14       		.uleb128 0x14
 4514 168b 34160000 		.4byte	0x1634
 4515 168f 14       		.uleb128 0x14
 4516 1690 81070000 		.4byte	0x781
 4517 1694 14       		.uleb128 0x14
 4518 1695 E4000000 		.4byte	0xe4
 4519 1699 00       		.byte	0
 4520 169a 11       		.uleb128 0x11
 4521 169b 04       		.byte	0x4
 4522 169c 85160000 		.4byte	0x1685
 4523 16a0 1F       		.uleb128 0x1f
 4524 16a1 B5160000 		.4byte	0x16b5
 4525 16a5 14       		.uleb128 0x14
 4526 16a6 34160000 		.4byte	0x1634
 4527 16aa 14       		.uleb128 0x14
 4528 16ab E4000000 		.4byte	0xe4
 4529 16af 14       		.uleb128 0x14
 4530 16b0 E4000000 		.4byte	0xe4
 4531 16b4 00       		.byte	0
 4532 16b5 11       		.uleb128 0x11
 4533 16b6 04       		.byte	0x4
 4534 16b7 A0160000 		.4byte	0x16a0
 4535 16bb 1F       		.uleb128 0x1f
 4536 16bc C6160000 		.4byte	0x16c6
 4537 16c0 14       		.uleb128 0x14
 4538 16c1 34160000 		.4byte	0x1634
 4539 16c5 00       		.byte	0
 4540 16c6 11       		.uleb128 0x11
 4541 16c7 04       		.byte	0x4
 4542 16c8 BB160000 		.4byte	0x16bb
 4543 16cc 11       		.uleb128 0x11
 4544 16cd 04       		.byte	0x4
 4545 16ce 92110000 		.4byte	0x1192
 4546 16d2 1F       		.uleb128 0x1f
 4547 16d3 E2160000 		.4byte	0x16e2
 4548 16d7 14       		.uleb128 0x14
 4549 16d8 34160000 		.4byte	0x1634
 4550 16dc 14       		.uleb128 0x14
 4551 16dd CC160000 		.4byte	0x16cc
ARM GAS  C:\Users\haske\AppData\Local\Temp\cc9HFfJU.s 			page 103


 4552 16e1 00       		.byte	0
 4553 16e2 11       		.uleb128 0x11
 4554 16e3 04       		.byte	0x4
 4555 16e4 D2160000 		.4byte	0x16d2
 4556 16e8 23       		.uleb128 0x23
 4557 16e9 0B1B0000 		.4byte	.LASF503
 4558 16ed 11       		.uleb128 0x11
 4559 16ee 04       		.byte	0x4
 4560 16ef E8160000 		.4byte	0x16e8
 4561 16f3 11       		.uleb128 0x11
 4562 16f4 04       		.byte	0x4
 4563 16f5 FF080000 		.4byte	0x8ff
 4564 16f9 16       		.uleb128 0x16
 4565 16fa 54020000 		.4byte	0x254
 4566 16fe 09170000 		.4byte	0x1709
 4567 1702 17       		.uleb128 0x17
 4568 1703 0C010000 		.4byte	0x10c
 4569 1707 1F       		.byte	0x1f
 4570 1708 00       		.byte	0
 4571 1709 16       		.uleb128 0x16
 4572 170a B8000000 		.4byte	0xb8
 4573 170e 19170000 		.4byte	0x1719
 4574 1712 17       		.uleb128 0x17
 4575 1713 0C010000 		.4byte	0x10c
 4576 1717 1F       		.byte	0x1f
 4577 1718 00       		.byte	0
 4578 1719 02       		.uleb128 0x2
 4579 171a 71000000 		.4byte	.LASF409
 4580 171e 16       		.byte	0x16
 4581 171f C2       		.byte	0xc2
 4582 1720 22120000 		.4byte	0x1222
 4583 1724 02       		.uleb128 0x2
 4584 1725 3F050000 		.4byte	.LASF410
 4585 1729 0D       		.byte	0xd
 4586 172a 3C       		.byte	0x3c
 4587 172b CE000000 		.4byte	0xce
 4588 172f 02       		.uleb128 0x2
 4589 1730 951E0000 		.4byte	.LASF411
 4590 1734 0D       		.byte	0xd
 4591 1735 7D       		.byte	0x7d
 4592 1736 E4000000 		.4byte	0xe4
 4593 173a 02       		.uleb128 0x2
 4594 173b 1B010000 		.4byte	.LASF412
 4595 173f 19       		.byte	0x19
 4596 1740 26       		.byte	0x26
 4597 1741 B8000000 		.4byte	0xb8
 4598 1745 02       		.uleb128 0x2
 4599 1746 5B160000 		.4byte	.LASF413
 4600 174a 19       		.byte	0x19
 4601 174b 30       		.byte	0x30
 4602 174c B8000000 		.4byte	0xb8
 4603 1750 08       		.uleb128 0x8
 4604 1751 08       		.byte	0x8
 4605 1752 1A       		.byte	0x1a
 4606 1753 27       		.byte	0x27
 4607 1754 92170000 		.4byte	0x1792
 4608 1758 0F       		.uleb128 0xf
ARM GAS  C:\Users\haske\AppData\Local\Temp\cc9HFfJU.s 			page 104


 4609 1759 44160000 		.4byte	.LASF414
 4610 175d 1A       		.byte	0x1a
 4611 175e 28       		.byte	0x28
 4612 175f 92170000 		.4byte	0x1792
 4613 1763 00       		.byte	0
 4614 1764 09       		.uleb128 0x9
 4615 1765 BF1F0000 		.4byte	.LASF415
 4616 1769 1A       		.byte	0x1a
 4617 176a 29       		.byte	0x29
 4618 176b E4000000 		.4byte	0xe4
 4619 176f 04       		.byte	0x4
 4620 1770 18       		.byte	0x18
 4621 1771 08       		.byte	0x8
 4622 1772 04       		.byte	0x4
 4623 1773 09       		.uleb128 0x9
 4624 1774 4A020000 		.4byte	.LASF416
 4625 1778 1A       		.byte	0x1a
 4626 1779 2A       		.byte	0x2a
 4627 177a E4000000 		.4byte	0xe4
 4628 177e 04       		.byte	0x4
 4629 177f 01       		.byte	0x1
 4630 1780 07       		.byte	0x7
 4631 1781 04       		.byte	0x4
 4632 1782 09       		.uleb128 0x9
 4633 1783 670C0000 		.4byte	.LASF417
 4634 1787 1A       		.byte	0x1a
 4635 1788 2B       		.byte	0x2b
 4636 1789 E4000000 		.4byte	0xe4
 4637 178d 04       		.byte	0x4
 4638 178e 01       		.byte	0x1
 4639 178f 06       		.byte	0x6
 4640 1790 04       		.byte	0x4
 4641 1791 00       		.byte	0
 4642 1792 11       		.uleb128 0x11
 4643 1793 04       		.byte	0x4
 4644 1794 D0070000 		.4byte	0x7d0
 4645 1798 02       		.uleb128 0x2
 4646 1799 500A0000 		.4byte	.LASF418
 4647 179d 1A       		.byte	0x1a
 4648 179e 2C       		.byte	0x2c
 4649 179f 50170000 		.4byte	0x1750
 4650 17a3 10       		.uleb128 0x10
 4651 17a4 1D180000 		.4byte	.LASF419
 4652 17a8 1C       		.byte	0x1c
 4653 17a9 1B       		.byte	0x1b
 4654 17aa 31       		.byte	0x31
 4655 17ab 31180000 		.4byte	0x1831
 4656 17af 0F       		.uleb128 0xf
 4657 17b0 04150000 		.4byte	.LASF420
 4658 17b4 1B       		.byte	0x1b
 4659 17b5 32       		.byte	0x32
 4660 17b6 31180000 		.4byte	0x1831
 4661 17ba 00       		.byte	0
 4662 17bb 0F       		.uleb128 0xf
 4663 17bc 9E020000 		.4byte	.LASF421
 4664 17c0 1B       		.byte	0x1b
 4665 17c1 33       		.byte	0x33
ARM GAS  C:\Users\haske\AppData\Local\Temp\cc9HFfJU.s 			page 105


 4666 17c2 D4180000 		.4byte	0x18d4
 4667 17c6 04       		.byte	0x4
 4668 17c7 0F       		.uleb128 0xf
 4669 17c8 AD1A0000 		.4byte	.LASF422
 4670 17cc 1B       		.byte	0x1b
 4671 17cd 34       		.byte	0x34
 4672 17ce D4180000 		.4byte	0x18d4
 4673 17d2 08       		.byte	0x8
 4674 17d3 0F       		.uleb128 0xf
 4675 17d4 4A1F0000 		.4byte	.LASF64
 4676 17d8 1B       		.byte	0x1b
 4677 17d9 36       		.byte	0x36
 4678 17da 13010000 		.4byte	0x113
 4679 17de 0C       		.byte	0xc
 4680 17df 0F       		.uleb128 0xf
 4681 17e0 B3100000 		.4byte	.LASF423
 4682 17e4 1B       		.byte	0x1b
 4683 17e5 38       		.byte	0x38
 4684 17e6 EA180000 		.4byte	0x18ea
 4685 17ea 10       		.byte	0x10
 4686 17eb 0F       		.uleb128 0xf
 4687 17ec C30C0000 		.4byte	.LASF424
 4688 17f0 1B       		.byte	0x1b
 4689 17f1 3A       		.byte	0x3a
 4690 17f2 EC010000 		.4byte	0x1ec
 4691 17f6 14       		.byte	0x14
 4692 17f7 0F       		.uleb128 0xf
 4693 17f8 1F200000 		.4byte	.LASF425
 4694 17fc 1B       		.byte	0x1b
 4695 17fd 3B       		.byte	0x3b
 4696 17fe EC010000 		.4byte	0x1ec
 4697 1802 16       		.byte	0x16
 4698 1803 09       		.uleb128 0x9
 4699 1804 470E0000 		.4byte	.LASF426
 4700 1808 1B       		.byte	0x1b
 4701 1809 3C       		.byte	0x3c
 4702 180a E4000000 		.4byte	0xe4
 4703 180e 04       		.byte	0x4
 4704 180f 02       		.byte	0x2
 4705 1810 1E       		.byte	0x1e
 4706 1811 18       		.byte	0x18
 4707 1812 09       		.uleb128 0x9
 4708 1813 EC040000 		.4byte	.LASF427
 4709 1817 1B       		.byte	0x1b
 4710 1818 3D       		.byte	0x3d
 4711 1819 E4000000 		.4byte	0xe4
 4712 181d 04       		.byte	0x4
 4713 181e 02       		.byte	0x2
 4714 181f 1C       		.byte	0x1c
 4715 1820 18       		.byte	0x18
 4716 1821 09       		.uleb128 0x9
 4717 1822 A20F0000 		.4byte	.LASF428
 4718 1826 1B       		.byte	0x1b
 4719 1827 3E       		.byte	0x3e
 4720 1828 E4000000 		.4byte	0xe4
 4721 182c 04       		.byte	0x4
 4722 182d 10       		.byte	0x10
ARM GAS  C:\Users\haske\AppData\Local\Temp\cc9HFfJU.s 			page 106


 4723 182e 0C       		.byte	0xc
 4724 182f 18       		.byte	0x18
 4725 1830 00       		.byte	0
 4726 1831 11       		.uleb128 0x11
 4727 1832 04       		.byte	0x4
 4728 1833 37180000 		.4byte	0x1837
 4729 1837 12       		.uleb128 0x12
 4730 1838 A3170000 		.4byte	0x17a3
 4731 183c 11       		.uleb128 0x11
 4732 183d 04       		.byte	0x4
 4733 183e 42180000 		.4byte	0x1842
 4734 1842 10       		.uleb128 0x10
 4735 1843 DC100000 		.4byte	.LASF429
 4736 1847 1C       		.byte	0x1c
 4737 1848 1C       		.byte	0x1c
 4738 1849 5E       		.byte	0x5e
 4739 184a C4180000 		.4byte	0x18c4
 4740 184e 0F       		.uleb128 0xf
 4741 184f 040E0000 		.4byte	.LASF430
 4742 1853 1C       		.byte	0x1c
 4743 1854 5F       		.byte	0x5f
 4744 1855 FF080000 		.4byte	0x8ff
 4745 1859 00       		.byte	0
 4746 185a 0F       		.uleb128 0xf
 4747 185b D60F0000 		.4byte	.LASF431
 4748 185f 1C       		.byte	0x1c
 4749 1860 60       		.byte	0x60
 4750 1861 FF080000 		.4byte	0x8ff
 4751 1865 04       		.byte	0x4
 4752 1866 0F       		.uleb128 0xf
 4753 1867 6C160000 		.4byte	.LASF432
 4754 186b 1C       		.byte	0x1c
 4755 186c 61       		.byte	0x61
 4756 186d 221A0000 		.4byte	0x1a22
 4757 1871 08       		.byte	0x8
 4758 1872 0F       		.uleb128 0xf
 4759 1873 4A1F0000 		.4byte	.LASF64
 4760 1877 1C       		.byte	0x1c
 4761 1878 62       		.byte	0x62
 4762 1879 13010000 		.4byte	0x113
 4763 187d 0C       		.byte	0xc
 4764 187e 0F       		.uleb128 0xf
 4765 187f FE0D0000 		.4byte	.LASF433
 4766 1883 1C       		.byte	0x1c
 4767 1884 63       		.byte	0x63
 4768 1885 13010000 		.4byte	0x113
 4769 1889 10       		.byte	0x10
 4770 188a 0F       		.uleb128 0xf
 4771 188b 7F200000 		.4byte	.LASF434
 4772 188f 1C       		.byte	0x1c
 4773 1890 64       		.byte	0x64
 4774 1891 3C180000 		.4byte	0x183c
 4775 1895 14       		.byte	0x14
 4776 1896 09       		.uleb128 0x9
 4777 1897 03110000 		.4byte	.LASF435
 4778 189b 1C       		.byte	0x1c
 4779 189c 65       		.byte	0x65
ARM GAS  C:\Users\haske\AppData\Local\Temp\cc9HFfJU.s 			page 107


 4780 189d B8000000 		.4byte	0xb8
 4781 18a1 01       		.byte	0x1
 4782 18a2 01       		.byte	0x1
 4783 18a3 07       		.byte	0x7
 4784 18a4 18       		.byte	0x18
 4785 18a5 09       		.uleb128 0x9
 4786 18a6 85080000 		.4byte	.LASF436
 4787 18aa 1C       		.byte	0x1c
 4788 18ab 66       		.byte	0x66
 4789 18ac B8000000 		.4byte	0xb8
 4790 18b0 01       		.byte	0x1
 4791 18b1 01       		.byte	0x1
 4792 18b2 06       		.byte	0x6
 4793 18b3 18       		.byte	0x18
 4794 18b4 09       		.uleb128 0x9
 4795 18b5 55140000 		.4byte	.LASF437
 4796 18b9 1C       		.byte	0x1c
 4797 18ba 67       		.byte	0x67
 4798 18bb B8000000 		.4byte	0xb8
 4799 18bf 01       		.byte	0x1
 4800 18c0 01       		.byte	0x1
 4801 18c1 05       		.byte	0x5
 4802 18c2 18       		.byte	0x18
 4803 18c3 00       		.byte	0
 4804 18c4 1F       		.uleb128 0x1f
 4805 18c5 D4180000 		.4byte	0x18d4
 4806 18c9 14       		.uleb128 0x14
 4807 18ca 31180000 		.4byte	0x1831
 4808 18ce 14       		.uleb128 0x14
 4809 18cf FF080000 		.4byte	0x8ff
 4810 18d3 00       		.byte	0
 4811 18d4 11       		.uleb128 0x11
 4812 18d5 04       		.byte	0x4
 4813 18d6 C4180000 		.4byte	0x18c4
 4814 18da 1F       		.uleb128 0x1f
 4815 18db EA180000 		.4byte	0x18ea
 4816 18df 14       		.uleb128 0x14
 4817 18e0 31180000 		.4byte	0x1831
 4818 18e4 14       		.uleb128 0x14
 4819 18e5 3C180000 		.4byte	0x183c
 4820 18e9 00       		.byte	0
 4821 18ea 11       		.uleb128 0x11
 4822 18eb 04       		.byte	0x4
 4823 18ec DA180000 		.4byte	0x18da
 4824 18f0 02       		.uleb128 0x2
 4825 18f1 050C0000 		.4byte	.LASF438
 4826 18f5 1B       		.byte	0x1b
 4827 18f6 3F       		.byte	0x3f
 4828 18f7 A3170000 		.4byte	0x17a3
 4829 18fb 06       		.uleb128 0x6
 4830 18fc 01       		.byte	0x1
 4831 18fd 42000000 		.4byte	0x42
 4832 1901 1C       		.byte	0x1c
 4833 1902 20       		.byte	0x20
 4834 1903 221A0000 		.4byte	0x1a22
 4835 1907 07       		.uleb128 0x7
 4836 1908 7E040000 		.4byte	.LASF439
ARM GAS  C:\Users\haske\AppData\Local\Temp\cc9HFfJU.s 			page 108


 4837 190c 00       		.byte	0
 4838 190d 07       		.uleb128 0x7
 4839 190e EA160000 		.4byte	.LASF440
 4840 1912 01       		.byte	0x1
 4841 1913 07       		.uleb128 0x7
 4842 1914 CF160000 		.4byte	.LASF441
 4843 1918 02       		.byte	0x2
 4844 1919 07       		.uleb128 0x7
 4845 191a 541F0000 		.4byte	.LASF442
 4846 191e 03       		.byte	0x3
 4847 191f 07       		.uleb128 0x7
 4848 1920 77030000 		.4byte	.LASF443
 4849 1924 04       		.byte	0x4
 4850 1925 07       		.uleb128 0x7
 4851 1926 FA020000 		.4byte	.LASF444
 4852 192a 05       		.byte	0x5
 4853 192b 07       		.uleb128 0x7
 4854 192c 1A150000 		.4byte	.LASF445
 4855 1930 06       		.byte	0x6
 4856 1931 07       		.uleb128 0x7
 4857 1932 961F0000 		.4byte	.LASF446
 4858 1936 07       		.byte	0x7
 4859 1937 07       		.uleb128 0x7
 4860 1938 BD200000 		.4byte	.LASF447
 4861 193c 08       		.byte	0x8
 4862 193d 07       		.uleb128 0x7
 4863 193e DF110000 		.4byte	.LASF448
 4864 1942 09       		.byte	0x9
 4865 1943 07       		.uleb128 0x7
 4866 1944 391D0000 		.4byte	.LASF449
 4867 1948 0A       		.byte	0xa
 4868 1949 07       		.uleb128 0x7
 4869 194a 11110000 		.4byte	.LASF450
 4870 194e 0B       		.byte	0xb
 4871 194f 07       		.uleb128 0x7
 4872 1950 E9020000 		.4byte	.LASF451
 4873 1954 0C       		.byte	0xc
 4874 1955 07       		.uleb128 0x7
 4875 1956 121F0000 		.4byte	.LASF452
 4876 195a 0D       		.byte	0xd
 4877 195b 07       		.uleb128 0x7
 4878 195c D01F0000 		.4byte	.LASF453
 4879 1960 0E       		.byte	0xe
 4880 1961 07       		.uleb128 0x7
 4881 1962 6C1D0000 		.4byte	.LASF454
 4882 1966 0F       		.byte	0xf
 4883 1967 07       		.uleb128 0x7
 4884 1968 A50D0000 		.4byte	.LASF455
 4885 196c 10       		.byte	0x10
 4886 196d 07       		.uleb128 0x7
 4887 196e 98090000 		.4byte	.LASF456
 4888 1972 11       		.byte	0x11
 4889 1973 07       		.uleb128 0x7
 4890 1974 31090000 		.4byte	.LASF457
 4891 1978 12       		.byte	0x12
 4892 1979 07       		.uleb128 0x7
 4893 197a 03100000 		.4byte	.LASF458
ARM GAS  C:\Users\haske\AppData\Local\Temp\cc9HFfJU.s 			page 109


 4894 197e 13       		.byte	0x13
 4895 197f 07       		.uleb128 0x7
 4896 1980 7B000000 		.4byte	.LASF459
 4897 1984 14       		.byte	0x14
 4898 1985 07       		.uleb128 0x7
 4899 1986 02070000 		.4byte	.LASF460
 4900 198a 15       		.byte	0x15
 4901 198b 07       		.uleb128 0x7
 4902 198c 2A0C0000 		.4byte	.LASF461
 4903 1990 16       		.byte	0x16
 4904 1991 07       		.uleb128 0x7
 4905 1992 96120000 		.4byte	.LASF462
 4906 1996 17       		.byte	0x17
 4907 1997 07       		.uleb128 0x7
 4908 1998 5A1E0000 		.4byte	.LASF463
 4909 199c 18       		.byte	0x18
 4910 199d 07       		.uleb128 0x7
 4911 199e AF1B0000 		.4byte	.LASF464
 4912 19a2 19       		.byte	0x19
 4913 19a3 07       		.uleb128 0x7
 4914 19a4 C61B0000 		.4byte	.LASF465
 4915 19a8 1A       		.byte	0x1a
 4916 19a9 07       		.uleb128 0x7
 4917 19aa C1050000 		.4byte	.LASF466
 4918 19ae 1B       		.byte	0x1b
 4919 19af 07       		.uleb128 0x7
 4920 19b0 66130000 		.4byte	.LASF467
 4921 19b4 1C       		.byte	0x1c
 4922 19b5 07       		.uleb128 0x7
 4923 19b6 39010000 		.4byte	.LASF468
 4924 19ba 1D       		.byte	0x1d
 4925 19bb 07       		.uleb128 0x7
 4926 19bc 910F0000 		.4byte	.LASF469
 4927 19c0 1E       		.byte	0x1e
 4928 19c1 07       		.uleb128 0x7
 4929 19c2 411E0000 		.4byte	.LASF470
 4930 19c6 1F       		.byte	0x1f
 4931 19c7 07       		.uleb128 0x7
 4932 19c8 11170000 		.4byte	.LASF471
 4933 19cc 20       		.byte	0x20
 4934 19cd 07       		.uleb128 0x7
 4935 19ce 7E120000 		.4byte	.LASF472
 4936 19d2 21       		.byte	0x21
 4937 19d3 07       		.uleb128 0x7
 4938 19d4 F9010000 		.4byte	.LASF473
 4939 19d8 22       		.byte	0x22
 4940 19d9 07       		.uleb128 0x7
 4941 19da 43030000 		.4byte	.LASF474
 4942 19de 23       		.byte	0x23
 4943 19df 07       		.uleb128 0x7
 4944 19e0 E50F0000 		.4byte	.LASF475
 4945 19e4 24       		.byte	0x24
 4946 19e5 07       		.uleb128 0x7
 4947 19e6 2A200000 		.4byte	.LASF476
 4948 19ea 25       		.byte	0x25
 4949 19eb 07       		.uleb128 0x7
 4950 19ec 3A140000 		.4byte	.LASF477
ARM GAS  C:\Users\haske\AppData\Local\Temp\cc9HFfJU.s 			page 110


 4951 19f0 26       		.byte	0x26
 4952 19f1 07       		.uleb128 0x7
 4953 19f2 280A0000 		.4byte	.LASF478
 4954 19f6 27       		.byte	0x27
 4955 19f7 07       		.uleb128 0x7
 4956 19f8 1E1A0000 		.4byte	.LASF479
 4957 19fc 28       		.byte	0x28
 4958 19fd 07       		.uleb128 0x7
 4959 19fe A31E0000 		.4byte	.LASF480
 4960 1a02 29       		.byte	0x29
 4961 1a03 07       		.uleb128 0x7
 4962 1a04 2A1E0000 		.4byte	.LASF481
 4963 1a08 2A       		.byte	0x2a
 4964 1a09 07       		.uleb128 0x7
 4965 1a0a D61E0000 		.4byte	.LASF482
 4966 1a0e 2B       		.byte	0x2b
 4967 1a0f 07       		.uleb128 0x7
 4968 1a10 EB060000 		.4byte	.LASF483
 4969 1a14 2C       		.byte	0x2c
 4970 1a15 07       		.uleb128 0x7
 4971 1a16 7A170000 		.4byte	.LASF484
 4972 1a1a 2D       		.byte	0x2d
 4973 1a1b 07       		.uleb128 0x7
 4974 1a1c DA130000 		.4byte	.LASF485
 4975 1a20 80       		.byte	0x80
 4976 1a21 00       		.byte	0
 4977 1a22 02       		.uleb128 0x2
 4978 1a23 BC100000 		.4byte	.LASF486
 4979 1a27 1C       		.byte	0x1c
 4980 1a28 5C       		.byte	0x5c
 4981 1a29 FB180000 		.4byte	0x18fb
 4982 1a2d 02       		.uleb128 0x2
 4983 1a2e 09180000 		.4byte	.LASF487
 4984 1a32 17       		.byte	0x17
 4985 1a33 34       		.byte	0x34
 4986 1a34 381A0000 		.4byte	0x1a38
 4987 1a38 11       		.uleb128 0x11
 4988 1a39 04       		.byte	0x4
 4989 1a3a 3E1A0000 		.4byte	0x1a3e
 4990 1a3e 1F       		.uleb128 0x1f
 4991 1a3f 491A0000 		.4byte	0x1a49
 4992 1a43 14       		.uleb128 0x14
 4993 1a44 C4130000 		.4byte	0x13c4
 4994 1a48 00       		.byte	0
 4995 1a49 02       		.uleb128 0x2
 4996 1a4a 7F0B0000 		.4byte	.LASF488
 4997 1a4e 17       		.byte	0x17
 4998 1a4f 35       		.byte	0x35
 4999 1a50 541A0000 		.4byte	0x1a54
 5000 1a54 11       		.uleb128 0x11
 5001 1a55 04       		.byte	0x4
 5002 1a56 5A1A0000 		.4byte	0x1a5a
 5003 1a5a 1F       		.uleb128 0x1f
 5004 1a5b 6A1A0000 		.4byte	0x1a6a
 5005 1a5f 14       		.uleb128 0x14
 5006 1a60 C4130000 		.4byte	0x13c4
 5007 1a64 14       		.uleb128 0x14
ARM GAS  C:\Users\haske\AppData\Local\Temp\cc9HFfJU.s 			page 111


 5008 1a65 95030000 		.4byte	0x395
 5009 1a69 00       		.byte	0
 5010 1a6a 02       		.uleb128 0x2
 5011 1a6b 66070000 		.4byte	.LASF489
 5012 1a6f 17       		.byte	0x17
 5013 1a70 4E       		.byte	0x4e
 5014 1a71 3F130000 		.4byte	0x133f
 5015 1a75 08       		.uleb128 0x8
 5016 1a76 1C       		.byte	0x1c
 5017 1a77 0D       		.byte	0xd
 5018 1a78 9B       		.byte	0x9b
 5019 1a79 2C1B0000 		.4byte	0x1b2c
 5020 1a7d 0F       		.uleb128 0xf
 5021 1a7e 6E030000 		.4byte	.LASF490
 5022 1a82 0D       		.byte	0xd
 5023 1a83 9C       		.byte	0x9c
 5024 1a84 F3160000 		.4byte	0x16f3
 5025 1a88 00       		.byte	0
 5026 1a89 0F       		.uleb128 0xf
 5027 1a8a 720D0000 		.4byte	.LASF491
 5028 1a8e 0D       		.byte	0xd
 5029 1a8f 9D       		.byte	0x9d
 5030 1a90 E4000000 		.4byte	0xe4
 5031 1a94 04       		.byte	0x4
 5032 1a95 0F       		.uleb128 0xf
 5033 1a96 D00A0000 		.4byte	.LASF492
 5034 1a9a 0D       		.byte	0xd
 5035 1a9b 9E       		.byte	0x9e
 5036 1a9c 2C1B0000 		.4byte	0x1b2c
 5037 1aa0 08       		.byte	0x8
 5038 1aa1 0F       		.uleb128 0xf
 5039 1aa2 6C0A0000 		.4byte	.LASF493
 5040 1aa6 0D       		.byte	0xd
 5041 1aa7 A0       		.byte	0xa0
 5042 1aa8 371B0000 		.4byte	0x1b37
 5043 1aac 0C       		.byte	0xc
 5044 1aad 0F       		.uleb128 0xf
 5045 1aae F40A0000 		.4byte	.LASF494
 5046 1ab2 0D       		.byte	0xd
 5047 1ab3 A1       		.byte	0xa1
 5048 1ab4 14020000 		.4byte	0x214
 5049 1ab8 10       		.byte	0x10
 5050 1ab9 0F       		.uleb128 0xf
 5051 1aba 4C1C0000 		.4byte	.LASF495
 5052 1abe 0D       		.byte	0xd
 5053 1abf A3       		.byte	0xa3
 5054 1ac0 EC010000 		.4byte	0x1ec
 5055 1ac4 14       		.byte	0x14
 5056 1ac5 0F       		.uleb128 0xf
 5057 1ac6 710B0000 		.4byte	.LASF496
 5058 1aca 0D       		.byte	0xd
 5059 1acb A4       		.byte	0xa4
 5060 1acc EC010000 		.4byte	0x1ec
 5061 1ad0 16       		.byte	0x16
 5062 1ad1 09       		.uleb128 0x9
 5063 1ad2 0F080000 		.4byte	.LASF497
 5064 1ad6 0D       		.byte	0xd
ARM GAS  C:\Users\haske\AppData\Local\Temp\cc9HFfJU.s 			page 112


 5065 1ad7 A6       		.byte	0xa6
 5066 1ad8 3A170000 		.4byte	0x173a
 5067 1adc 01       		.byte	0x1
 5068 1add 02       		.byte	0x2
 5069 1ade 06       		.byte	0x6
 5070 1adf 18       		.byte	0x18
 5071 1ae0 09       		.uleb128 0x9
 5072 1ae1 A8010000 		.4byte	.LASF498
 5073 1ae5 0D       		.byte	0xd
 5074 1ae6 A7       		.byte	0xa7
 5075 1ae7 45170000 		.4byte	0x1745
 5076 1aeb 01       		.byte	0x1
 5077 1aec 02       		.byte	0x2
 5078 1aed 04       		.byte	0x4
 5079 1aee 18       		.byte	0x18
 5080 1aef 09       		.uleb128 0x9
 5081 1af0 C60D0000 		.4byte	.LASF499
 5082 1af4 0D       		.byte	0xd
 5083 1af5 A8       		.byte	0xa8
 5084 1af6 45170000 		.4byte	0x1745
 5085 1afa 01       		.byte	0x1
 5086 1afb 02       		.byte	0x2
 5087 1afc 02       		.byte	0x2
 5088 1afd 18       		.byte	0x18
 5089 1afe 09       		.uleb128 0x9
 5090 1aff E1040000 		.4byte	.LASF500
 5091 1b03 0D       		.byte	0xd
 5092 1b04 A9       		.byte	0xa9
 5093 1b05 5F020000 		.4byte	0x25f
 5094 1b09 01       		.byte	0x1
 5095 1b0a 04       		.byte	0x4
 5096 1b0b 04       		.byte	0x4
 5097 1b0c 19       		.byte	0x19
 5098 1b0d 09       		.uleb128 0x9
 5099 1b0e 22210000 		.4byte	.LASF501
 5100 1b12 0D       		.byte	0xd
 5101 1b13 AA       		.byte	0xaa
 5102 1b14 B8000000 		.4byte	0xb8
 5103 1b18 01       		.byte	0x1
 5104 1b19 06       		.byte	0x6
 5105 1b1a 02       		.byte	0x2
 5106 1b1b 1A       		.byte	0x1a
 5107 1b1c 09       		.uleb128 0x9
 5108 1b1d 260B0000 		.4byte	.LASF502
 5109 1b21 0D       		.byte	0xd
 5110 1b22 AB       		.byte	0xab
 5111 1b23 B8000000 		.4byte	0xb8
 5112 1b27 01       		.byte	0x1
 5113 1b28 02       		.byte	0x2
 5114 1b29 00       		.byte	0
 5115 1b2a 1A       		.byte	0x1a
 5116 1b2b 00       		.byte	0
 5117 1b2c 11       		.uleb128 0x11
 5118 1b2d 04       		.byte	0x4
 5119 1b2e 6A1A0000 		.4byte	0x1a6a
 5120 1b32 23       		.uleb128 0x23
 5121 1b33 681F0000 		.4byte	.LASF504
ARM GAS  C:\Users\haske\AppData\Local\Temp\cc9HFfJU.s 			page 113


 5122 1b37 11       		.uleb128 0x11
 5123 1b38 04       		.byte	0x4
 5124 1b39 321B0000 		.4byte	0x1b32
 5125 1b3d 02       		.uleb128 0x2
 5126 1b3e 71070000 		.4byte	.LASF505
 5127 1b42 0D       		.byte	0xd
 5128 1b43 AC       		.byte	0xac
 5129 1b44 751A0000 		.4byte	0x1a75
 5130 1b48 11       		.uleb128 0x11
 5131 1b49 04       		.byte	0x4
 5132 1b4a 4E1B0000 		.4byte	0x1b4e
 5133 1b4e 12       		.uleb128 0x12
 5134 1b4f F0180000 		.4byte	0x18f0
 5135 1b53 11       		.uleb128 0x11
 5136 1b54 04       		.byte	0x4
 5137 1b55 3D1B0000 		.4byte	0x1b3d
 5138 1b59 11       		.uleb128 0x11
 5139 1b5a 04       		.byte	0x4
 5140 1b5b 98170000 		.4byte	0x1798
 5141 1b5f 08       		.uleb128 0x8
 5142 1b60 2C       		.byte	0x2c
 5143 1b61 01       		.byte	0x1
 5144 1b62 16       		.byte	0x16
 5145 1b63 EC1B0000 		.4byte	0x1bec
 5146 1b67 0F       		.uleb128 0xf
 5147 1b68 2B160000 		.4byte	.LASF506
 5148 1b6c 01       		.byte	0x1
 5149 1b6d 17       		.byte	0x17
 5150 1b6e D9000000 		.4byte	0xd9
 5151 1b72 00       		.byte	0
 5152 1b73 0F       		.uleb128 0xf
 5153 1b74 C0040000 		.4byte	.LASF507
 5154 1b78 01       		.byte	0x1
 5155 1b79 18       		.byte	0x18
 5156 1b7a D9000000 		.4byte	0xd9
 5157 1b7e 04       		.byte	0x4
 5158 1b7f 0F       		.uleb128 0xf
 5159 1b80 8B040000 		.4byte	.LASF508
 5160 1b84 01       		.byte	0x1
 5161 1b85 19       		.byte	0x19
 5162 1b86 D9000000 		.4byte	0xd9
 5163 1b8a 08       		.byte	0x8
 5164 1b8b 0F       		.uleb128 0xf
 5165 1b8c 4F1B0000 		.4byte	.LASF509
 5166 1b90 01       		.byte	0x1
 5167 1b91 1A       		.byte	0x1a
 5168 1b92 D9000000 		.4byte	0xd9
 5169 1b96 0C       		.byte	0xc
 5170 1b97 0F       		.uleb128 0xf
 5171 1b98 8F1E0000 		.4byte	.LASF510
 5172 1b9c 01       		.byte	0x1
 5173 1b9d 1B       		.byte	0x1b
 5174 1b9e D9000000 		.4byte	0xd9
 5175 1ba2 10       		.byte	0x10
 5176 1ba3 0F       		.uleb128 0xf
 5177 1ba4 3D030000 		.4byte	.LASF511
 5178 1ba8 01       		.byte	0x1
ARM GAS  C:\Users\haske\AppData\Local\Temp\cc9HFfJU.s 			page 114


 5179 1ba9 1C       		.byte	0x1c
 5180 1baa D9000000 		.4byte	0xd9
 5181 1bae 14       		.byte	0x14
 5182 1baf 0F       		.uleb128 0xf
 5183 1bb0 840F0000 		.4byte	.LASF278
 5184 1bb4 01       		.byte	0x1
 5185 1bb5 1D       		.byte	0x1d
 5186 1bb6 D9000000 		.4byte	0xd9
 5187 1bba 18       		.byte	0x18
 5188 1bbb 0F       		.uleb128 0xf
 5189 1bbc B00F0000 		.4byte	.LASF277
 5190 1bc0 01       		.byte	0x1
 5191 1bc1 1E       		.byte	0x1e
 5192 1bc2 D9000000 		.4byte	0xd9
 5193 1bc6 1C       		.byte	0x1c
 5194 1bc7 0F       		.uleb128 0xf
 5195 1bc8 49120000 		.4byte	.LASF512
 5196 1bcc 01       		.byte	0x1
 5197 1bcd 1F       		.byte	0x1f
 5198 1bce D9000000 		.4byte	0xd9
 5199 1bd2 20       		.byte	0x20
 5200 1bd3 0F       		.uleb128 0xf
 5201 1bd4 4B110000 		.4byte	.LASF513
 5202 1bd8 01       		.byte	0x1
 5203 1bd9 20       		.byte	0x20
 5204 1bda D9000000 		.4byte	0xd9
 5205 1bde 24       		.byte	0x24
 5206 1bdf 0F       		.uleb128 0xf
 5207 1be0 791A0000 		.4byte	.LASF279
 5208 1be4 01       		.byte	0x1
 5209 1be5 21       		.byte	0x21
 5210 1be6 14020000 		.4byte	0x214
 5211 1bea 28       		.byte	0x28
 5212 1beb 00       		.byte	0
 5213 1bec 02       		.uleb128 0x2
 5214 1bed 780C0000 		.4byte	.LASF514
 5215 1bf1 01       		.byte	0x1
 5216 1bf2 22       		.byte	0x22
 5217 1bf3 5F1B0000 		.4byte	0x1b5f
 5218 1bf7 24       		.uleb128 0x24
 5219 1bf8 88100000 		.4byte	.LASF516
 5220 1bfc 02       		.byte	0x2
 5221 1bfd B701     		.2byte	0x1b7
 5222 1bff D6010000 		.4byte	0x1d6
 5223 1c03 03       		.byte	0x3
 5224 1c04 591C0000 		.4byte	0x1c59
 5225 1c08 25       		.uleb128 0x25
 5226 1c09 633100   		.ascii	"c1\000"
 5227 1c0c 02       		.byte	0x2
 5228 1c0d B701     		.2byte	0x1b7
 5229 1c0f D6010000 		.4byte	0x1d6
 5230 1c13 25       		.uleb128 0x25
 5231 1c14 633200   		.ascii	"c2\000"
 5232 1c17 02       		.byte	0x2
 5233 1c18 B701     		.2byte	0x1b7
 5234 1c1a D6010000 		.4byte	0x1d6
 5235 1c1e 25       		.uleb128 0x25
ARM GAS  C:\Users\haske\AppData\Local\Temp\cc9HFfJU.s 			page 115


 5236 1c1f 6D697800 		.ascii	"mix\000"
 5237 1c23 02       		.byte	0x2
 5238 1c24 B701     		.2byte	0x1b7
 5239 1c26 B8000000 		.4byte	0xb8
 5240 1c2a 26       		.uleb128 0x26
 5241 1c2b 72657400 		.ascii	"ret\000"
 5242 1c2f 02       		.byte	0x2
 5243 1c30 B901     		.2byte	0x1b9
 5244 1c32 D6010000 		.4byte	0x1d6
 5245 1c36 26       		.uleb128 0x26
 5246 1c37 626700   		.ascii	"bg\000"
 5247 1c3a 02       		.byte	0x2
 5248 1c3b BE01     		.2byte	0x1be
 5249 1c3d E4000000 		.4byte	0xe4
 5250 1c41 26       		.uleb128 0x26
 5251 1c42 666700   		.ascii	"fg\000"
 5252 1c45 02       		.byte	0x2
 5253 1c46 C001     		.2byte	0x1c0
 5254 1c48 E4000000 		.4byte	0xe4
 5255 1c4c 27       		.uleb128 0x27
 5256 1c4d 1F100000 		.4byte	.LASF515
 5257 1c51 02       		.byte	0x2
 5258 1c52 C101     		.2byte	0x1c1
 5259 1c54 E4000000 		.4byte	0xe4
 5260 1c58 00       		.byte	0
 5261 1c59 28       		.uleb128 0x28
 5262 1c5a B6180000 		.4byte	.LASF517
 5263 1c5e 03       		.byte	0x3
 5264 1c5f 85       		.byte	0x85
 5265 1c60 EC010000 		.4byte	0x1ec
 5266 1c64 03       		.byte	0x3
 5267 1c65 751C0000 		.4byte	0x1c75
 5268 1c69 29       		.uleb128 0x29
 5269 1c6a 99050000 		.4byte	.LASF518
 5270 1c6e 03       		.byte	0x3
 5271 1c6f 85       		.byte	0x85
 5272 1c70 ED070000 		.4byte	0x7ed
 5273 1c74 00       		.byte	0
 5274 1c75 28       		.uleb128 0x28
 5275 1c76 D11C0000 		.4byte	.LASF519
 5276 1c7a 03       		.byte	0x3
 5277 1c7b 7B       		.byte	0x7b
 5278 1c7c EC010000 		.4byte	0x1ec
 5279 1c80 03       		.byte	0x3
 5280 1c81 911C0000 		.4byte	0x1c91
 5281 1c85 29       		.uleb128 0x29
 5282 1c86 99050000 		.4byte	.LASF518
 5283 1c8a 03       		.byte	0x3
 5284 1c8b 7B       		.byte	0x7b
 5285 1c8c ED070000 		.4byte	0x7ed
 5286 1c90 00       		.byte	0
 5287 1c91 2A       		.uleb128 0x2a
 5288 1c92 B7080000 		.4byte	.LASF535
 5289 1c96 01       		.byte	0x1
 5290 1c97 CB       		.byte	0xcb
 5291 1c98 00000000 		.4byte	.LFB161
 5292 1c9c 86000000 		.4byte	.LFE161-.LFB161
ARM GAS  C:\Users\haske\AppData\Local\Temp\cc9HFfJU.s 			page 116


 5293 1ca0 01       		.uleb128 0x1
 5294 1ca1 9C       		.byte	0x9c
 5295 1ca2 A91D0000 		.4byte	0x1da9
 5296 1ca6 2B       		.uleb128 0x2b
 5297 1ca7 73726300 		.ascii	"src\000"
 5298 1cab 01       		.byte	0x1
 5299 1cac CB       		.byte	0xcb
 5300 1cad BC030000 		.4byte	0x3bc
 5301 1cb1 01       		.uleb128 0x1
 5302 1cb2 50       		.byte	0x50
 5303 1cb3 2C       		.uleb128 0x2c
 5304 1cb4 A71A0000 		.4byte	.LASF520
 5305 1cb8 01       		.byte	0x1
 5306 1cb9 CB       		.byte	0xcb
 5307 1cba EC010000 		.4byte	0x1ec
 5308 1cbe 01       		.uleb128 0x1
 5309 1cbf 51       		.byte	0x51
 5310 1cc0 2C       		.uleb128 0x2c
 5311 1cc1 A11A0000 		.4byte	.LASF521
 5312 1cc5 01       		.byte	0x1
 5313 1cc6 CB       		.byte	0xcb
 5314 1cc7 EC010000 		.4byte	0x1ec
 5315 1ccb 01       		.uleb128 0x1
 5316 1ccc 52       		.byte	0x52
 5317 1ccd 2D       		.uleb128 0x2d
 5318 1cce 32060000 		.4byte	.LASF522
 5319 1cd2 01       		.byte	0x1
 5320 1cd3 CB       		.byte	0xcb
 5321 1cd4 EC010000 		.4byte	0x1ec
 5322 1cd8 00000000 		.4byte	.LLST0
 5323 1cdc 2D       		.uleb128 0x2d
 5324 1cdd 980A0000 		.4byte	.LASF523
 5325 1ce1 01       		.byte	0x1
 5326 1ce2 CC       		.byte	0xcc
 5327 1ce3 D9000000 		.4byte	0xd9
 5328 1ce7 21000000 		.4byte	.LLST1
 5329 1ceb 2D       		.uleb128 0x2d
 5330 1cec 8F1F0000 		.4byte	.LASF524
 5331 1cf0 01       		.byte	0x1
 5332 1cf1 CC       		.byte	0xcc
 5333 1cf2 D9000000 		.4byte	0xd9
 5334 1cf6 6A000000 		.4byte	.LLST2
 5335 1cfa 2C       		.uleb128 0x2c
 5336 1cfb 4A050000 		.4byte	.LASF525
 5337 1cff 01       		.byte	0x1
 5338 1d00 CC       		.byte	0xcc
 5339 1d01 D9000000 		.4byte	0xd9
 5340 1d05 02       		.uleb128 0x2
 5341 1d06 91       		.byte	0x91
 5342 1d07 08       		.sleb128 8
 5343 1d08 2C       		.uleb128 0x2c
 5344 1d09 17200000 		.4byte	.LASF526
 5345 1d0d 01       		.byte	0x1
 5346 1d0e CC       		.byte	0xcc
 5347 1d0f D9000000 		.4byte	0xd9
 5348 1d13 02       		.uleb128 0x2
 5349 1d14 91       		.byte	0x91
ARM GAS  C:\Users\haske\AppData\Local\Temp\cc9HFfJU.s 			page 117


 5350 1d15 0C       		.sleb128 12
 5351 1d16 2C       		.uleb128 0x2c
 5352 1d17 BF090000 		.4byte	.LASF527
 5353 1d1b 01       		.byte	0x1
 5354 1d1c CD       		.byte	0xcd
 5355 1d1d D9000000 		.4byte	0xd9
 5356 1d21 02       		.uleb128 0x2
 5357 1d22 91       		.byte	0x91
 5358 1d23 10       		.sleb128 16
 5359 1d24 2C       		.uleb128 0x2c
 5360 1d25 84180000 		.4byte	.LASF528
 5361 1d29 01       		.byte	0x1
 5362 1d2a CD       		.byte	0xcd
 5363 1d2b CC090000 		.4byte	0x9cc
 5364 1d2f 02       		.uleb128 0x2
 5365 1d30 91       		.byte	0x91
 5366 1d31 14       		.sleb128 20
 5367 1d32 2C       		.uleb128 0x2c
 5368 1d33 49180000 		.4byte	.LASF529
 5369 1d37 01       		.byte	0x1
 5370 1d38 CD       		.byte	0xcd
 5371 1d39 81070000 		.4byte	0x781
 5372 1d3d 02       		.uleb128 0x2
 5373 1d3e 91       		.byte	0x91
 5374 1d3f 18       		.sleb128 24
 5375 1d40 2E       		.uleb128 0x2e
 5376 1d41 221D0000 		.4byte	.LASF530
 5377 1d45 01       		.byte	0x1
 5378 1d46 CF       		.byte	0xcf
 5379 1d47 D9000000 		.4byte	0xd9
 5380 1d4b 01       		.uleb128 0x1
 5381 1d4c 5C       		.byte	0x5c
 5382 1d4d 2E       		.uleb128 0x2e
 5383 1d4e 00000000 		.4byte	.LASF531
 5384 1d52 01       		.byte	0x1
 5385 1d53 D0       		.byte	0xd0
 5386 1d54 D9000000 		.4byte	0xd9
 5387 1d58 01       		.uleb128 0x1
 5388 1d59 5E       		.byte	0x5e
 5389 1d5a 2F       		.uleb128 0x2f
 5390 1d5b 7800     		.ascii	"x\000"
 5391 1d5d 01       		.byte	0x1
 5392 1d5e D2       		.byte	0xd2
 5393 1d5f EC010000 		.4byte	0x1ec
 5394 1d63 B3000000 		.4byte	.LLST3
 5395 1d67 30       		.uleb128 0x30
 5396 1d68 1E000000 		.4byte	.LBB19
 5397 1d6c 5A000000 		.4byte	.LBE19-.LBB19
 5398 1d70 31       		.uleb128 0x31
 5399 1d71 771C0000 		.4byte	.LASF532
 5400 1d75 01       		.byte	0x1
 5401 1d76 D7       		.byte	0xd7
 5402 1d77 D9000000 		.4byte	0xd9
 5403 1d7b DD000000 		.4byte	.LLST4
 5404 1d7f 31       		.uleb128 0x31
 5405 1d80 FC0F0000 		.4byte	.LASF533
 5406 1d84 01       		.byte	0x1
ARM GAS  C:\Users\haske\AppData\Local\Temp\cc9HFfJU.s 			page 118


 5407 1d85 D8       		.byte	0xd8
 5408 1d86 D9000000 		.4byte	0xd9
 5409 1d8a 4F010000 		.4byte	.LLST5
 5410 1d8e 30       		.uleb128 0x30
 5411 1d8f 50000000 		.4byte	.LBB20
 5412 1d93 28000000 		.4byte	.LBE20-.LBB20
 5413 1d97 31       		.uleb128 0x31
 5414 1d98 C7080000 		.4byte	.LASF534
 5415 1d9c 01       		.byte	0x1
 5416 1d9d DD       		.byte	0xdd
 5417 1d9e BC030000 		.4byte	0x3bc
 5418 1da2 90010000 		.4byte	.LLST6
 5419 1da6 00       		.byte	0
 5420 1da7 00       		.byte	0
 5421 1da8 00       		.byte	0
 5422 1da9 2A       		.uleb128 0x2a
 5423 1daa 5E100000 		.4byte	.LASF536
 5424 1dae 01       		.byte	0x1
 5425 1daf ED       		.byte	0xed
 5426 1db0 00000000 		.4byte	.LFB162
 5427 1db4 72000000 		.4byte	.LFE162-.LFB162
 5428 1db8 01       		.uleb128 0x1
 5429 1db9 9C       		.byte	0x9c
 5430 1dba CF1E0000 		.4byte	0x1ecf
 5431 1dbe 2B       		.uleb128 0x2b
 5432 1dbf 73726300 		.ascii	"src\000"
 5433 1dc3 01       		.byte	0x1
 5434 1dc4 ED       		.byte	0xed
 5435 1dc5 BC030000 		.4byte	0x3bc
 5436 1dc9 01       		.uleb128 0x1
 5437 1dca 50       		.byte	0x50
 5438 1dcb 2C       		.uleb128 0x2c
 5439 1dcc A71A0000 		.4byte	.LASF520
 5440 1dd0 01       		.byte	0x1
 5441 1dd1 ED       		.byte	0xed
 5442 1dd2 EC010000 		.4byte	0x1ec
 5443 1dd6 01       		.uleb128 0x1
 5444 1dd7 51       		.byte	0x51
 5445 1dd8 2C       		.uleb128 0x2c
 5446 1dd9 A11A0000 		.4byte	.LASF521
 5447 1ddd 01       		.byte	0x1
 5448 1dde ED       		.byte	0xed
 5449 1ddf EC010000 		.4byte	0x1ec
 5450 1de3 01       		.uleb128 0x1
 5451 1de4 52       		.byte	0x52
 5452 1de5 2C       		.uleb128 0x2c
 5453 1de6 32060000 		.4byte	.LASF522
 5454 1dea 01       		.byte	0x1
 5455 1deb ED       		.byte	0xed
 5456 1dec EC010000 		.4byte	0x1ec
 5457 1df0 01       		.uleb128 0x1
 5458 1df1 53       		.byte	0x53
 5459 1df2 2D       		.uleb128 0x2d
 5460 1df3 980A0000 		.4byte	.LASF523
 5461 1df7 01       		.byte	0x1
 5462 1df8 EE       		.byte	0xee
 5463 1df9 D9000000 		.4byte	0xd9
ARM GAS  C:\Users\haske\AppData\Local\Temp\cc9HFfJU.s 			page 119


 5464 1dfd AE010000 		.4byte	.LLST7
 5465 1e01 2D       		.uleb128 0x2d
 5466 1e02 8F1F0000 		.4byte	.LASF524
 5467 1e06 01       		.byte	0x1
 5468 1e07 EE       		.byte	0xee
 5469 1e08 D9000000 		.4byte	0xd9
 5470 1e0c F7010000 		.4byte	.LLST8
 5471 1e10 2C       		.uleb128 0x2c
 5472 1e11 4A050000 		.4byte	.LASF525
 5473 1e15 01       		.byte	0x1
 5474 1e16 EE       		.byte	0xee
 5475 1e17 D9000000 		.4byte	0xd9
 5476 1e1b 02       		.uleb128 0x2
 5477 1e1c 91       		.byte	0x91
 5478 1e1d 08       		.sleb128 8
 5479 1e1e 2C       		.uleb128 0x2c
 5480 1e1f 17200000 		.4byte	.LASF526
 5481 1e23 01       		.byte	0x1
 5482 1e24 EE       		.byte	0xee
 5483 1e25 D9000000 		.4byte	0xd9
 5484 1e29 02       		.uleb128 0x2
 5485 1e2a 91       		.byte	0x91
 5486 1e2b 0C       		.sleb128 12
 5487 1e2c 2C       		.uleb128 0x2c
 5488 1e2d BF090000 		.4byte	.LASF527
 5489 1e31 01       		.byte	0x1
 5490 1e32 EF       		.byte	0xef
 5491 1e33 D9000000 		.4byte	0xd9
 5492 1e37 02       		.uleb128 0x2
 5493 1e38 91       		.byte	0x91
 5494 1e39 10       		.sleb128 16
 5495 1e3a 2C       		.uleb128 0x2c
 5496 1e3b 84180000 		.4byte	.LASF528
 5497 1e3f 01       		.byte	0x1
 5498 1e40 EF       		.byte	0xef
 5499 1e41 CC090000 		.4byte	0x9cc
 5500 1e45 02       		.uleb128 0x2
 5501 1e46 91       		.byte	0x91
 5502 1e47 14       		.sleb128 20
 5503 1e48 2C       		.uleb128 0x2c
 5504 1e49 49180000 		.4byte	.LASF529
 5505 1e4d 01       		.byte	0x1
 5506 1e4e EF       		.byte	0xef
 5507 1e4f 81070000 		.4byte	0x781
 5508 1e53 02       		.uleb128 0x2
 5509 1e54 91       		.byte	0x91
 5510 1e55 18       		.sleb128 24
 5511 1e56 2E       		.uleb128 0x2e
 5512 1e57 221D0000 		.4byte	.LASF530
 5513 1e5b 01       		.byte	0x1
 5514 1e5c F1       		.byte	0xf1
 5515 1e5d D9000000 		.4byte	0xd9
 5516 1e61 01       		.uleb128 0x1
 5517 1e62 59       		.byte	0x59
 5518 1e63 2E       		.uleb128 0x2e
 5519 1e64 00000000 		.4byte	.LASF531
 5520 1e68 01       		.byte	0x1
ARM GAS  C:\Users\haske\AppData\Local\Temp\cc9HFfJU.s 			page 120


 5521 1e69 F2       		.byte	0xf2
 5522 1e6a D9000000 		.4byte	0xd9
 5523 1e6e 01       		.uleb128 0x1
 5524 1e6f 58       		.byte	0x58
 5525 1e70 2F       		.uleb128 0x2f
 5526 1e71 7800     		.ascii	"x\000"
 5527 1e73 01       		.byte	0x1
 5528 1e74 F4       		.byte	0xf4
 5529 1e75 EC010000 		.4byte	0x1ec
 5530 1e79 40020000 		.4byte	.LLST9
 5531 1e7d 30       		.uleb128 0x30
 5532 1e7e 22000000 		.4byte	.LBB21
 5533 1e82 44000000 		.4byte	.LBE21-.LBB21
 5534 1e86 31       		.uleb128 0x31
 5535 1e87 771C0000 		.4byte	.LASF532
 5536 1e8b 01       		.byte	0x1
 5537 1e8c F9       		.byte	0xf9
 5538 1e8d D9000000 		.4byte	0xd9
 5539 1e91 6A020000 		.4byte	.LLST10
 5540 1e95 31       		.uleb128 0x31
 5541 1e96 FC0F0000 		.4byte	.LASF533
 5542 1e9a 01       		.byte	0x1
 5543 1e9b FA       		.byte	0xfa
 5544 1e9c D9000000 		.4byte	0xd9
 5545 1ea0 DC020000 		.4byte	.LLST11
 5546 1ea4 30       		.uleb128 0x30
 5547 1ea5 4C000000 		.4byte	.LBB22
 5548 1ea9 1A000000 		.4byte	.LBE22-.LBB22
 5549 1ead 31       		.uleb128 0x31
 5550 1eae C7080000 		.4byte	.LASF534
 5551 1eb2 01       		.byte	0x1
 5552 1eb3 FF       		.byte	0xff
 5553 1eb4 F8070000 		.4byte	0x7f8
 5554 1eb8 1D030000 		.4byte	.LLST12
 5555 1ebc 32       		.uleb128 0x32
 5556 1ebd 3D060000 		.4byte	.LASF537
 5557 1ec1 01       		.byte	0x1
 5558 1ec2 0301     		.2byte	0x103
 5559 1ec4 E2070000 		.4byte	0x7e2
 5560 1ec8 6E030000 		.4byte	.LLST13
 5561 1ecc 00       		.byte	0
 5562 1ecd 00       		.byte	0
 5563 1ece 00       		.byte	0
 5564 1ecf 33       		.uleb128 0x33
 5565 1ed0 761E0000 		.4byte	.LASF538
 5566 1ed4 01       		.byte	0x1
 5567 1ed5 D501     		.2byte	0x1d5
 5568 1ed7 00000000 		.4byte	.LFB164
 5569 1edb AC000000 		.4byte	.LFE164-.LFB164
 5570 1edf 01       		.uleb128 0x1
 5571 1ee0 9C       		.byte	0x9c
 5572 1ee1 321F0000 		.4byte	0x1f32
 5573 1ee5 34       		.uleb128 0x34
 5574 1ee6 7400     		.ascii	"t\000"
 5575 1ee8 01       		.byte	0x1
 5576 1ee9 D501     		.2byte	0x1d5
 5577 1eeb 321F0000 		.4byte	0x1f32
ARM GAS  C:\Users\haske\AppData\Local\Temp\cc9HFfJU.s 			page 121


 5578 1eef 01       		.uleb128 0x1
 5579 1ef0 50       		.byte	0x50
 5580 1ef1 35       		.uleb128 0x35
 5581 1ef2 78696E00 		.ascii	"xin\000"
 5582 1ef6 01       		.byte	0x1
 5583 1ef7 D501     		.2byte	0x1d5
 5584 1ef9 D9000000 		.4byte	0xd9
 5585 1efd C7030000 		.4byte	.LLST14
 5586 1f01 35       		.uleb128 0x35
 5587 1f02 79696E00 		.ascii	"yin\000"
 5588 1f06 01       		.byte	0x1
 5589 1f07 D501     		.2byte	0x1d5
 5590 1f09 D9000000 		.4byte	0xd9
 5591 1f0d 20040000 		.4byte	.LLST15
 5592 1f11 36       		.uleb128 0x36
 5593 1f12 C2080000 		.4byte	.LASF539
 5594 1f16 01       		.byte	0x1
 5595 1f17 D501     		.2byte	0x1d5
 5596 1f19 381F0000 		.4byte	0x1f38
 5597 1f1d 62040000 		.4byte	.LLST16
 5598 1f21 36       		.uleb128 0x36
 5599 1f22 851A0000 		.4byte	.LASF540
 5600 1f26 01       		.byte	0x1
 5601 1f27 D601     		.2byte	0x1d6
 5602 1f29 381F0000 		.4byte	0x1f38
 5603 1f2d CE040000 		.4byte	.LLST17
 5604 1f31 00       		.byte	0
 5605 1f32 11       		.uleb128 0x11
 5606 1f33 04       		.byte	0x4
 5607 1f34 EC1B0000 		.4byte	0x1bec
 5608 1f38 11       		.uleb128 0x11
 5609 1f39 04       		.byte	0x4
 5610 1f3a D9000000 		.4byte	0xd9
 5611 1f3e 33       		.uleb128 0x33
 5612 1f3f CD0C0000 		.4byte	.LASF541
 5613 1f43 01       		.byte	0x1
 5614 1f44 0C01     		.2byte	0x10c
 5615 1f46 00000000 		.4byte	.LFB163
 5616 1f4a C8030000 		.4byte	.LFE163-.LFB163
 5617 1f4e 01       		.uleb128 0x1
 5618 1f4f 9C       		.byte	0x9c
 5619 1f50 E0220000 		.4byte	0x22e0
 5620 1f54 35       		.uleb128 0x35
 5621 1f55 73726300 		.ascii	"src\000"
 5622 1f59 01       		.byte	0x1
 5623 1f5a 0C01     		.2byte	0x10c
 5624 1f5c BC030000 		.4byte	0x3bc
 5625 1f60 EE040000 		.4byte	.LLST18
 5626 1f64 36       		.uleb128 0x36
 5627 1f65 A71A0000 		.4byte	.LASF520
 5628 1f69 01       		.byte	0x1
 5629 1f6a 0C01     		.2byte	0x10c
 5630 1f6c EC010000 		.4byte	0x1ec
 5631 1f70 33050000 		.4byte	.LLST19
 5632 1f74 36       		.uleb128 0x36
 5633 1f75 A11A0000 		.4byte	.LASF521
 5634 1f79 01       		.byte	0x1
ARM GAS  C:\Users\haske\AppData\Local\Temp\cc9HFfJU.s 			page 122


 5635 1f7a 0C01     		.2byte	0x10c
 5636 1f7c EC010000 		.4byte	0x1ec
 5637 1f80 6D050000 		.4byte	.LLST20
 5638 1f84 36       		.uleb128 0x36
 5639 1f85 32060000 		.4byte	.LASF522
 5640 1f89 01       		.byte	0x1
 5641 1f8a 0C01     		.2byte	0x10c
 5642 1f8c EC010000 		.4byte	0x1ec
 5643 1f90 8E050000 		.4byte	.LLST21
 5644 1f94 36       		.uleb128 0x36
 5645 1f95 980A0000 		.4byte	.LASF523
 5646 1f99 01       		.byte	0x1
 5647 1f9a 0D01     		.2byte	0x10d
 5648 1f9c D9000000 		.4byte	0xd9
 5649 1fa0 AF050000 		.4byte	.LLST22
 5650 1fa4 36       		.uleb128 0x36
 5651 1fa5 8F1F0000 		.4byte	.LASF524
 5652 1fa9 01       		.byte	0x1
 5653 1faa 0D01     		.2byte	0x10d
 5654 1fac D9000000 		.4byte	0xd9
 5655 1fb0 FA050000 		.4byte	.LLST23
 5656 1fb4 36       		.uleb128 0x36
 5657 1fb5 4A050000 		.4byte	.LASF525
 5658 1fb9 01       		.byte	0x1
 5659 1fba 0D01     		.2byte	0x10d
 5660 1fbc D9000000 		.4byte	0xd9
 5661 1fc0 43060000 		.4byte	.LLST24
 5662 1fc4 36       		.uleb128 0x36
 5663 1fc5 17200000 		.4byte	.LASF526
 5664 1fc9 01       		.byte	0x1
 5665 1fca 0D01     		.2byte	0x10d
 5666 1fcc D9000000 		.4byte	0xd9
 5667 1fd0 63060000 		.4byte	.LLST25
 5668 1fd4 36       		.uleb128 0x36
 5669 1fd5 BF090000 		.4byte	.LASF527
 5670 1fd9 01       		.byte	0x1
 5671 1fda 0E01     		.2byte	0x10e
 5672 1fdc D9000000 		.4byte	0xd9
 5673 1fe0 83060000 		.4byte	.LLST26
 5674 1fe4 36       		.uleb128 0x36
 5675 1fe5 84180000 		.4byte	.LASF528
 5676 1fe9 01       		.byte	0x1
 5677 1fea 0E01     		.2byte	0x10e
 5678 1fec CC090000 		.4byte	0x9cc
 5679 1ff0 A3060000 		.4byte	.LLST27
 5680 1ff4 36       		.uleb128 0x36
 5681 1ff5 49180000 		.4byte	.LASF529
 5682 1ff9 01       		.byte	0x1
 5683 1ffa 0E01     		.2byte	0x10e
 5684 1ffc 81070000 		.4byte	0x781
 5685 2000 C3060000 		.4byte	.LLST28
 5686 2004 35       		.uleb128 0x35
 5687 2005 636600   		.ascii	"cf\000"
 5688 2008 01       		.byte	0x1
 5689 2009 0E01     		.2byte	0x10e
 5690 200b F4080000 		.4byte	0x8f4
 5691 200f E3060000 		.4byte	.LLST29
ARM GAS  C:\Users\haske\AppData\Local\Temp\cc9HFfJU.s 			page 123


 5692 2013 32       		.uleb128 0x32
 5693 2014 221D0000 		.4byte	.LASF530
 5694 2018 01       		.byte	0x1
 5695 2019 1001     		.2byte	0x110
 5696 201b D9000000 		.4byte	0xd9
 5697 201f 03070000 		.4byte	.LLST30
 5698 2023 32       		.uleb128 0x32
 5699 2024 00000000 		.4byte	.LASF531
 5700 2028 01       		.byte	0x1
 5701 2029 1101     		.2byte	0x111
 5702 202b D9000000 		.4byte	0xd9
 5703 202f 22070000 		.4byte	.LLST31
 5704 2033 32       		.uleb128 0x32
 5705 2034 421C0000 		.4byte	.LASF542
 5706 2038 01       		.byte	0x1
 5707 2039 1201     		.2byte	0x112
 5708 203b 95030000 		.4byte	0x395
 5709 203f 41070000 		.4byte	.LLST32
 5710 2043 32       		.uleb128 0x32
 5711 2044 700C0000 		.4byte	.LASF543
 5712 2048 01       		.byte	0x1
 5713 2049 1301     		.2byte	0x113
 5714 204b D9000000 		.4byte	0xd9
 5715 204f 61070000 		.4byte	.LLST33
 5716 2053 37       		.uleb128 0x37
 5717 2054 636B00   		.ascii	"ck\000"
 5718 2057 01       		.byte	0x1
 5719 2058 1401     		.2byte	0x114
 5720 205a D6010000 		.4byte	0x1d6
 5721 205e 82070000 		.4byte	.LLST34
 5722 2062 37       		.uleb128 0x37
 5723 2063 7800     		.ascii	"x\000"
 5724 2065 01       		.byte	0x1
 5725 2066 2F01     		.2byte	0x12f
 5726 2068 EC010000 		.4byte	0x1ec
 5727 206c A0070000 		.4byte	.LLST35
 5728 2070 38       		.uleb128 0x38
 5729 2071 60000000 		.4byte	.LBB23
 5730 2075 16000000 		.4byte	.LBE23-.LBB23
 5731 2079 95200000 		.4byte	0x2095
 5732 207d 37       		.uleb128 0x37
 5733 207e 6400     		.ascii	"d\000"
 5734 2080 01       		.byte	0x1
 5735 2081 2101     		.2byte	0x121
 5736 2083 E0220000 		.4byte	0x22e0
 5737 2087 CA070000 		.4byte	.LLST36
 5738 208b 39       		.uleb128 0x39
 5739 208c 64000000 		.4byte	.LVL57
 5740 2090 38280000 		.4byte	0x2838
 5741 2094 00       		.byte	0
 5742 2095 30       		.uleb128 0x30
 5743 2096 90000000 		.4byte	.LBB24
 5744 209a 24030000 		.4byte	.LBE24-.LBB24
 5745 209e 32       		.uleb128 0x32
 5746 209f 771C0000 		.4byte	.LASF532
 5747 20a3 01       		.byte	0x1
 5748 20a4 3401     		.2byte	0x134
ARM GAS  C:\Users\haske\AppData\Local\Temp\cc9HFfJU.s 			page 124


 5749 20a6 D9000000 		.4byte	0xd9
 5750 20aa DD070000 		.4byte	.LLST37
 5751 20ae 32       		.uleb128 0x32
 5752 20af FC0F0000 		.4byte	.LASF533
 5753 20b3 01       		.byte	0x1
 5754 20b4 3501     		.2byte	0x135
 5755 20b6 D9000000 		.4byte	0xd9
 5756 20ba D5080000 		.4byte	.LLST38
 5757 20be 32       		.uleb128 0x32
 5758 20bf AA090000 		.4byte	.LASF544
 5759 20c3 01       		.byte	0x1
 5760 20c4 3F01     		.2byte	0x13f
 5761 20c6 D9000000 		.4byte	0xd9
 5762 20ca 38090000 		.4byte	.LLST39
 5763 20ce 32       		.uleb128 0x32
 5764 20cf 94000000 		.4byte	.LASF545
 5765 20d3 01       		.byte	0x1
 5766 20d4 4001     		.2byte	0x140
 5767 20d6 D9000000 		.4byte	0xd9
 5768 20da 94090000 		.4byte	.LLST40
 5769 20de 32       		.uleb128 0x32
 5770 20df 54010000 		.4byte	.LASF546
 5771 20e3 01       		.byte	0x1
 5772 20e4 4201     		.2byte	0x142
 5773 20e6 D9000000 		.4byte	0xd9
 5774 20ea F0090000 		.4byte	.LLST41
 5775 20ee 32       		.uleb128 0x32
 5776 20ef 94160000 		.4byte	.LASF547
 5777 20f3 01       		.byte	0x1
 5778 20f4 4301     		.2byte	0x143
 5779 20f6 D9000000 		.4byte	0xd9
 5780 20fa 1E0A0000 		.4byte	.LLST42
 5781 20fe 32       		.uleb128 0x32
 5782 20ff C7080000 		.4byte	.LASF534
 5783 2103 01       		.byte	0x1
 5784 2104 5501     		.2byte	0x155
 5785 2106 BC030000 		.4byte	0x3bc
 5786 210a 8D0A0000 		.4byte	.LLST43
 5787 210e 38       		.uleb128 0x38
 5788 210f 3C010000 		.4byte	.LBB25
 5789 2113 C6010000 		.4byte	.LBE25-.LBB25
 5790 2117 C6220000 		.4byte	0x22c6
 5791 211b 32       		.uleb128 0x32
 5792 211c C81F0000 		.4byte	.LASF548
 5793 2120 01       		.byte	0x1
 5794 2121 5E01     		.2byte	0x15e
 5795 2123 BC030000 		.4byte	0x3bc
 5796 2127 910B0000 		.4byte	.LLST44
 5797 212b 32       		.uleb128 0x32
 5798 212c 99200000 		.4byte	.LASF549
 5799 2130 01       		.byte	0x1
 5800 2131 5F01     		.2byte	0x15f
 5801 2133 BC030000 		.4byte	0x3bc
 5802 2137 CA0B0000 		.4byte	.LLST45
 5803 213b 32       		.uleb128 0x32
 5804 213c 150B0000 		.4byte	.LASF550
 5805 2140 01       		.byte	0x1
ARM GAS  C:\Users\haske\AppData\Local\Temp\cc9HFfJU.s 			page 125


 5806 2141 6001     		.2byte	0x160
 5807 2143 BC030000 		.4byte	0x3bc
 5808 2147 E90B0000 		.4byte	.LLST46
 5809 214b 32       		.uleb128 0x32
 5810 214c 721A0000 		.4byte	.LASF551
 5811 2150 01       		.byte	0x1
 5812 2151 6101     		.2byte	0x161
 5813 2153 D6010000 		.4byte	0x1d6
 5814 2157 080C0000 		.4byte	.LLST47
 5815 215b 32       		.uleb128 0x32
 5816 215c FF0B0000 		.4byte	.LASF552
 5817 2160 01       		.byte	0x1
 5818 2161 6201     		.2byte	0x162
 5819 2163 D6010000 		.4byte	0x1d6
 5820 2167 310C0000 		.4byte	.LLST48
 5821 216b 32       		.uleb128 0x32
 5822 216c 2C0E0000 		.4byte	.LASF553
 5823 2170 01       		.byte	0x1
 5824 2171 6301     		.2byte	0x163
 5825 2173 D6010000 		.4byte	0x1d6
 5826 2177 5A0C0000 		.4byte	.LLST49
 5827 217b 38       		.uleb128 0x38
 5828 217c 64010000 		.4byte	.LBB26
 5829 2180 F6000000 		.4byte	.LBE26-.LBB26
 5830 2184 D3210000 		.4byte	0x21d3
 5831 2188 32       		.uleb128 0x32
 5832 2189 BC120000 		.4byte	.LASF554
 5833 218d 01       		.byte	0x1
 5834 218e 6601     		.2byte	0x166
 5835 2190 E1010000 		.4byte	0x1e1
 5836 2194 990C0000 		.4byte	.LLST50
 5837 2198 32       		.uleb128 0x32
 5838 2199 6B170000 		.4byte	.LASF555
 5839 219d 01       		.byte	0x1
 5840 219e 6701     		.2byte	0x167
 5841 21a0 E1010000 		.4byte	0x1e1
 5842 21a4 C80C0000 		.4byte	.LLST51
 5843 21a8 32       		.uleb128 0x32
 5844 21a9 D8050000 		.4byte	.LASF556
 5845 21ad 01       		.byte	0x1
 5846 21ae 6801     		.2byte	0x168
 5847 21b0 E1010000 		.4byte	0x1e1
 5848 21b4 FC0C0000 		.4byte	.LLST52
 5849 21b8 30       		.uleb128 0x30
 5850 21b9 80010000 		.4byte	.LBB27
 5851 21bd 2A000000 		.4byte	.LBE27-.LBB27
 5852 21c1 32       		.uleb128 0x32
 5853 21c2 3D060000 		.4byte	.LASF537
 5854 21c6 01       		.byte	0x1
 5855 21c7 7001     		.2byte	0x170
 5856 21c9 E2070000 		.4byte	0x7e2
 5857 21cd 300D0000 		.4byte	.LLST53
 5858 21d1 00       		.byte	0
 5859 21d2 00       		.byte	0
 5860 21d3 3A       		.uleb128 0x3a
 5861 21d4 F71B0000 		.4byte	0x1bf7
 5862 21d8 8C020000 		.4byte	.LBB28
ARM GAS  C:\Users\haske\AppData\Local\Temp\cc9HFfJU.s 			page 126


 5863 21dc 30000000 		.4byte	.LBE28-.LBB28
 5864 21e0 01       		.byte	0x1
 5865 21e1 A901     		.2byte	0x1a9
 5866 21e3 25220000 		.4byte	0x2225
 5867 21e7 3B       		.uleb128 0x3b
 5868 21e8 1E1C0000 		.4byte	0x1c1e
 5869 21ec 4E0D0000 		.4byte	.LLST54
 5870 21f0 3C       		.uleb128 0x3c
 5871 21f1 131C0000 		.4byte	0x1c13
 5872 21f5 3C       		.uleb128 0x3c
 5873 21f6 081C0000 		.4byte	0x1c08
 5874 21fa 30       		.uleb128 0x30
 5875 21fb 8C020000 		.4byte	.LBB29
 5876 21ff 30000000 		.4byte	.LBE29-.LBB29
 5877 2203 3D       		.uleb128 0x3d
 5878 2204 2A1C0000 		.4byte	0x1c2a
 5879 2208 3E       		.uleb128 0x3e
 5880 2209 361C0000 		.4byte	0x1c36
 5881 220d 890D0000 		.4byte	.LLST55
 5882 2211 3E       		.uleb128 0x3e
 5883 2212 411C0000 		.4byte	0x1c41
 5884 2216 9C0D0000 		.4byte	.LLST56
 5885 221a 3E       		.uleb128 0x3e
 5886 221b 4C1C0000 		.4byte	0x1c4c
 5887 221f CC0D0000 		.4byte	.LLST57
 5888 2223 00       		.byte	0
 5889 2224 00       		.byte	0
 5890 2225 3A       		.uleb128 0x3a
 5891 2226 F71B0000 		.4byte	0x1bf7
 5892 222a BC020000 		.4byte	.LBB30
 5893 222e 26000000 		.4byte	.LBE30-.LBB30
 5894 2232 01       		.byte	0x1
 5895 2233 AA01     		.2byte	0x1aa
 5896 2235 77220000 		.4byte	0x2277
 5897 2239 3B       		.uleb128 0x3b
 5898 223a 1E1C0000 		.4byte	0x1c1e
 5899 223e 0A0E0000 		.4byte	.LLST58
 5900 2242 3C       		.uleb128 0x3c
 5901 2243 131C0000 		.4byte	0x1c13
 5902 2247 3C       		.uleb128 0x3c
 5903 2248 081C0000 		.4byte	0x1c08
 5904 224c 30       		.uleb128 0x30
 5905 224d BC020000 		.4byte	.LBB31
 5906 2251 26000000 		.4byte	.LBE31-.LBB31
 5907 2255 3D       		.uleb128 0x3d
 5908 2256 2A1C0000 		.4byte	0x1c2a
 5909 225a 3E       		.uleb128 0x3e
 5910 225b 361C0000 		.4byte	0x1c36
 5911 225f 450E0000 		.4byte	.LLST59
 5912 2263 3E       		.uleb128 0x3e
 5913 2264 411C0000 		.4byte	0x1c41
 5914 2268 580E0000 		.4byte	.LLST60
 5915 226c 3E       		.uleb128 0x3e
 5916 226d 4C1C0000 		.4byte	0x1c4c
 5917 2271 880E0000 		.4byte	.LLST61
 5918 2275 00       		.byte	0
 5919 2276 00       		.byte	0
ARM GAS  C:\Users\haske\AppData\Local\Temp\cc9HFfJU.s 			page 127


 5920 2277 3F       		.uleb128 0x3f
 5921 2278 F71B0000 		.4byte	0x1bf7
 5922 227c E2020000 		.4byte	.LBB32
 5923 2280 1A000000 		.4byte	.LBE32-.LBB32
 5924 2284 01       		.byte	0x1
 5925 2285 AB01     		.2byte	0x1ab
 5926 2287 3B       		.uleb128 0x3b
 5927 2288 1E1C0000 		.4byte	0x1c1e
 5928 228c 9B0E0000 		.4byte	.LLST62
 5929 2290 3C       		.uleb128 0x3c
 5930 2291 131C0000 		.4byte	0x1c13
 5931 2295 3C       		.uleb128 0x3c
 5932 2296 081C0000 		.4byte	0x1c08
 5933 229a 30       		.uleb128 0x30
 5934 229b E2020000 		.4byte	.LBB33
 5935 229f 1A000000 		.4byte	.LBE33-.LBB33
 5936 22a3 3D       		.uleb128 0x3d
 5937 22a4 2A1C0000 		.4byte	0x1c2a
 5938 22a8 3E       		.uleb128 0x3e
 5939 22a9 361C0000 		.4byte	0x1c36
 5940 22ad AF0E0000 		.4byte	.LLST63
 5941 22b1 3E       		.uleb128 0x3e
 5942 22b2 411C0000 		.4byte	0x1c41
 5943 22b6 C20E0000 		.4byte	.LLST64
 5944 22ba 3E       		.uleb128 0x3e
 5945 22bb 4C1C0000 		.4byte	0x1c4c
 5946 22bf D50E0000 		.4byte	.LLST65
 5947 22c3 00       		.byte	0
 5948 22c4 00       		.byte	0
 5949 22c5 00       		.byte	0
 5950 22c6 30       		.uleb128 0x30
 5951 22c7 04030000 		.4byte	.LBB34
 5952 22cb B0000000 		.4byte	.LBE34-.LBB34
 5953 22cf 37       		.uleb128 0x37
 5954 22d0 6100     		.ascii	"a\000"
 5955 22d2 01       		.byte	0x1
 5956 22d3 B701     		.2byte	0x1b7
 5957 22d5 E1010000 		.4byte	0x1e1
 5958 22d9 E80E0000 		.4byte	.LLST66
 5959 22dd 00       		.byte	0
 5960 22de 00       		.byte	0
 5961 22df 00       		.byte	0
 5962 22e0 11       		.uleb128 0x11
 5963 22e1 04       		.byte	0x4
 5964 22e2 19170000 		.4byte	0x1719
 5965 22e6 2A       		.uleb128 0x2a
 5966 22e7 24190000 		.4byte	.LASF557
 5967 22eb 01       		.byte	0x1
 5968 22ec A0       		.byte	0xa0
 5969 22ed 00000000 		.4byte	.LFB160
 5970 22f1 A0000000 		.4byte	.LFE160-.LFB160
 5971 22f5 01       		.uleb128 0x1
 5972 22f6 9C       		.byte	0x9c
 5973 22f7 4F240000 		.4byte	0x244f
 5974 22fb 40       		.uleb128 0x40
 5975 22fc 73726300 		.ascii	"src\000"
 5976 2300 01       		.byte	0x1
ARM GAS  C:\Users\haske\AppData\Local\Temp\cc9HFfJU.s 			page 128


 5977 2301 A0       		.byte	0xa0
 5978 2302 BC030000 		.4byte	0x3bc
 5979 2306 110F0000 		.4byte	.LLST67
 5980 230a 2D       		.uleb128 0x2d
 5981 230b A71A0000 		.4byte	.LASF520
 5982 230f 01       		.byte	0x1
 5983 2310 A0       		.byte	0xa0
 5984 2311 EC010000 		.4byte	0x1ec
 5985 2315 300F0000 		.4byte	.LLST68
 5986 2319 2D       		.uleb128 0x2d
 5987 231a A11A0000 		.4byte	.LASF521
 5988 231e 01       		.byte	0x1
 5989 231f A0       		.byte	0xa0
 5990 2320 EC010000 		.4byte	0x1ec
 5991 2324 510F0000 		.4byte	.LLST69
 5992 2328 2D       		.uleb128 0x2d
 5993 2329 32060000 		.4byte	.LASF522
 5994 232d 01       		.byte	0x1
 5995 232e A0       		.byte	0xa0
 5996 232f EC010000 		.4byte	0x1ec
 5997 2333 720F0000 		.4byte	.LLST70
 5998 2337 2D       		.uleb128 0x2d
 5999 2338 980A0000 		.4byte	.LASF523
 6000 233c 01       		.byte	0x1
 6001 233d A1       		.byte	0xa1
 6002 233e D9000000 		.4byte	0xd9
 6003 2342 930F0000 		.4byte	.LLST71
 6004 2346 2D       		.uleb128 0x2d
 6005 2347 8F1F0000 		.4byte	.LASF524
 6006 234b 01       		.byte	0x1
 6007 234c A1       		.byte	0xa1
 6008 234d D9000000 		.4byte	0xd9
 6009 2351 DC0F0000 		.4byte	.LLST72
 6010 2355 2C       		.uleb128 0x2c
 6011 2356 4A050000 		.4byte	.LASF525
 6012 235a 01       		.byte	0x1
 6013 235b A1       		.byte	0xa1
 6014 235c D9000000 		.4byte	0xd9
 6015 2360 02       		.uleb128 0x2
 6016 2361 91       		.byte	0x91
 6017 2362 08       		.sleb128 8
 6018 2363 2C       		.uleb128 0x2c
 6019 2364 17200000 		.4byte	.LASF526
 6020 2368 01       		.byte	0x1
 6021 2369 A1       		.byte	0xa1
 6022 236a D9000000 		.4byte	0xd9
 6023 236e 02       		.uleb128 0x2
 6024 236f 91       		.byte	0x91
 6025 2370 0C       		.sleb128 12
 6026 2371 2C       		.uleb128 0x2c
 6027 2372 BF090000 		.4byte	.LASF527
 6028 2376 01       		.byte	0x1
 6029 2377 A2       		.byte	0xa2
 6030 2378 D9000000 		.4byte	0xd9
 6031 237c 02       		.uleb128 0x2
 6032 237d 91       		.byte	0x91
 6033 237e 10       		.sleb128 16
ARM GAS  C:\Users\haske\AppData\Local\Temp\cc9HFfJU.s 			page 129


 6034 237f 2C       		.uleb128 0x2c
 6035 2380 84180000 		.4byte	.LASF528
 6036 2384 01       		.byte	0x1
 6037 2385 A2       		.byte	0xa2
 6038 2386 CC090000 		.4byte	0x9cc
 6039 238a 02       		.uleb128 0x2
 6040 238b 91       		.byte	0x91
 6041 238c 14       		.sleb128 20
 6042 238d 2C       		.uleb128 0x2c
 6043 238e 49180000 		.4byte	.LASF529
 6044 2392 01       		.byte	0x1
 6045 2393 A2       		.byte	0xa2
 6046 2394 81070000 		.4byte	0x781
 6047 2398 02       		.uleb128 0x2
 6048 2399 91       		.byte	0x91
 6049 239a 18       		.sleb128 24
 6050 239b 2B       		.uleb128 0x2b
 6051 239c 636600   		.ascii	"cf\000"
 6052 239f 01       		.byte	0x1
 6053 23a0 A2       		.byte	0xa2
 6054 23a1 F4080000 		.4byte	0x8f4
 6055 23a5 02       		.uleb128 0x2
 6056 23a6 91       		.byte	0x91
 6057 23a7 1C       		.sleb128 28
 6058 23a8 2E       		.uleb128 0x2e
 6059 23a9 221D0000 		.4byte	.LASF530
 6060 23ad 01       		.byte	0x1
 6061 23ae A4       		.byte	0xa4
 6062 23af D9000000 		.4byte	0xd9
 6063 23b3 01       		.uleb128 0x1
 6064 23b4 5A       		.byte	0x5a
 6065 23b5 2E       		.uleb128 0x2e
 6066 23b6 00000000 		.4byte	.LASF531
 6067 23ba 01       		.byte	0x1
 6068 23bb A5       		.byte	0xa5
 6069 23bc D9000000 		.4byte	0xd9
 6070 23c0 01       		.uleb128 0x1
 6071 23c1 59       		.byte	0x59
 6072 23c2 2F       		.uleb128 0x2f
 6073 23c3 6400     		.ascii	"d\000"
 6074 23c5 01       		.byte	0x1
 6075 23c6 A6       		.byte	0xa6
 6076 23c7 E0220000 		.4byte	0x22e0
 6077 23cb 25100000 		.4byte	.LLST73
 6078 23cf 2F       		.uleb128 0x2f
 6079 23d0 636B00   		.ascii	"ck\000"
 6080 23d3 01       		.byte	0x1
 6081 23d4 A7       		.byte	0xa7
 6082 23d5 D6010000 		.4byte	0x1d6
 6083 23d9 38100000 		.4byte	.LLST74
 6084 23dd 2F       		.uleb128 0x2f
 6085 23de 7800     		.ascii	"x\000"
 6086 23e0 01       		.byte	0x1
 6087 23e1 AB       		.byte	0xab
 6088 23e2 EC010000 		.4byte	0x1ec
 6089 23e6 4B100000 		.4byte	.LLST75
 6090 23ea 38       		.uleb128 0x38
ARM GAS  C:\Users\haske\AppData\Local\Temp\cc9HFfJU.s 			page 130


 6091 23eb 44000000 		.4byte	.LBB35
 6092 23ef 4E000000 		.4byte	.LBE35-.LBB35
 6093 23f3 2F240000 		.4byte	0x242f
 6094 23f7 31       		.uleb128 0x31
 6095 23f8 771C0000 		.4byte	.LASF532
 6096 23fc 01       		.byte	0x1
 6097 23fd B0       		.byte	0xb0
 6098 23fe D9000000 		.4byte	0xd9
 6099 2402 75100000 		.4byte	.LLST76
 6100 2406 31       		.uleb128 0x31
 6101 2407 FC0F0000 		.4byte	.LASF533
 6102 240b 01       		.byte	0x1
 6103 240c B1       		.byte	0xb1
 6104 240d D9000000 		.4byte	0xd9
 6105 2411 E7100000 		.4byte	.LLST77
 6106 2415 30       		.uleb128 0x30
 6107 2416 6C000000 		.4byte	.LBB36
 6108 241a 10000000 		.4byte	.LBE36-.LBB36
 6109 241e 31       		.uleb128 0x31
 6110 241f C7080000 		.4byte	.LASF534
 6111 2423 01       		.byte	0x1
 6112 2424 BC       		.byte	0xbc
 6113 2425 F8070000 		.4byte	0x7f8
 6114 2429 28110000 		.4byte	.LLST78
 6115 242d 00       		.byte	0
 6116 242e 00       		.byte	0
 6117 242f 39       		.uleb128 0x39
 6118 2430 28000000 		.4byte	.LVL171
 6119 2434 38280000 		.4byte	0x2838
 6120 2438 41       		.uleb128 0x41
 6121 2439 38000000 		.4byte	.LVL174
 6122 243d 43280000 		.4byte	0x2843
 6123 2441 42       		.uleb128 0x42
 6124 2442 01       		.uleb128 0x1
 6125 2443 50       		.byte	0x50
 6126 2444 02       		.uleb128 0x2
 6127 2445 75       		.byte	0x75
 6128 2446 00       		.sleb128 0
 6129 2447 42       		.uleb128 0x42
 6130 2448 01       		.uleb128 0x1
 6131 2449 51       		.byte	0x51
 6132 244a 02       		.uleb128 0x2
 6133 244b 74       		.byte	0x74
 6134 244c 00       		.sleb128 0
 6135 244d 00       		.byte	0
 6136 244e 00       		.byte	0
 6137 244f 43       		.uleb128 0x43
 6138 2450 E4010000 		.4byte	.LASF581
 6139 2454 01       		.byte	0x1
 6140 2455 50       		.byte	0x50
 6141 2456 00000000 		.4byte	.LFB159
 6142 245a 1C020000 		.4byte	.LFE159-.LFB159
 6143 245e 01       		.uleb128 0x1
 6144 245f 9C       		.byte	0x9c
 6145 2460 2D280000 		.4byte	0x282d
 6146 2464 2D       		.uleb128 0x2d
 6147 2465 B01D0000 		.4byte	.LASF405
ARM GAS  C:\Users\haske\AppData\Local\Temp\cc9HFfJU.s 			page 131


 6148 2469 01       		.byte	0x1
 6149 246a 50       		.byte	0x50
 6150 246b CC160000 		.4byte	0x16cc
 6151 246f 9B110000 		.4byte	.LLST79
 6152 2473 2D       		.uleb128 0x2d
 6153 2474 F0140000 		.4byte	.LASF558
 6154 2478 01       		.byte	0x1
 6155 2479 50       		.byte	0x50
 6156 247a ED070000 		.4byte	0x7ed
 6157 247e BC110000 		.4byte	.LLST80
 6158 2482 2D       		.uleb128 0x2d
 6159 2483 A8130000 		.4byte	.LASF559
 6160 2487 01       		.byte	0x1
 6161 2488 50       		.byte	0x50
 6162 2489 CD030000 		.4byte	0x3cd
 6163 248d FE110000 		.4byte	.LLST81
 6164 2491 2D       		.uleb128 0x2d
 6165 2492 A71A0000 		.4byte	.LASF520
 6166 2496 01       		.byte	0x1
 6167 2497 51       		.byte	0x51
 6168 2498 EC010000 		.4byte	0x1ec
 6169 249c 2B120000 		.4byte	.LLST82
 6170 24a0 2D       		.uleb128 0x2d
 6171 24a1 A11A0000 		.4byte	.LASF521
 6172 24a5 01       		.byte	0x1
 6173 24a6 51       		.byte	0x51
 6174 24a7 EC010000 		.4byte	0x1ec
 6175 24ab 4C120000 		.4byte	.LLST83
 6176 24af 2D       		.uleb128 0x2d
 6177 24b0 32060000 		.4byte	.LASF522
 6178 24b4 01       		.byte	0x1
 6179 24b5 51       		.byte	0x51
 6180 24b6 EC010000 		.4byte	0x1ec
 6181 24ba 6C120000 		.4byte	.LLST84
 6182 24be 2D       		.uleb128 0x2d
 6183 24bf 5D020000 		.4byte	.LASF560
 6184 24c3 01       		.byte	0x1
 6185 24c4 52       		.byte	0x52
 6186 24c5 03100000 		.4byte	0x1003
 6187 24c9 8C120000 		.4byte	.LLST85
 6188 24cd 40       		.uleb128 0x40
 6189 24ce 636600   		.ascii	"cf\000"
 6190 24d1 01       		.byte	0x1
 6191 24d2 52       		.byte	0x52
 6192 24d3 F4080000 		.4byte	0x8f4
 6193 24d7 AC120000 		.4byte	.LLST86
 6194 24db 2D       		.uleb128 0x2d
 6195 24dc 84180000 		.4byte	.LASF528
 6196 24e0 01       		.byte	0x1
 6197 24e1 52       		.byte	0x52
 6198 24e2 CC090000 		.4byte	0x9cc
 6199 24e6 CC120000 		.4byte	.LLST87
 6200 24ea 2D       		.uleb128 0x2d
 6201 24eb 49180000 		.4byte	.LASF529
 6202 24ef 01       		.byte	0x1
 6203 24f0 52       		.byte	0x52
 6204 24f1 DC070000 		.4byte	0x7dc
ARM GAS  C:\Users\haske\AppData\Local\Temp\cc9HFfJU.s 			page 132


 6205 24f5 EB120000 		.4byte	.LLST88
 6206 24f9 2E       		.uleb128 0x2e
 6207 24fa 44110000 		.4byte	.LASF561
 6208 24fe 01       		.byte	0x1
 6209 24ff 56       		.byte	0x56
 6210 2500 EC1B0000 		.4byte	0x1bec
 6211 2504 03       		.uleb128 0x3
 6212 2505 91       		.byte	0x91
 6213 2506 AC7F     		.sleb128 -84
 6214 2508 31       		.uleb128 0x31
 6215 2509 4E180000 		.4byte	.LASF562
 6216 250d 01       		.byte	0x1
 6217 250e 5B       		.byte	0x5b
 6218 250f D9000000 		.4byte	0xd9
 6219 2513 0A130000 		.4byte	.LLST89
 6220 2517 31       		.uleb128 0x31
 6221 2518 B9060000 		.4byte	.LASF563
 6222 251c 01       		.byte	0x1
 6223 251d 5C       		.byte	0x5c
 6224 251e D9000000 		.4byte	0xd9
 6225 2522 3F130000 		.4byte	.LLST90
 6226 2526 31       		.uleb128 0x31
 6227 2527 16130000 		.4byte	.LASF564
 6228 252b 01       		.byte	0x1
 6229 252c 5D       		.byte	0x5d
 6230 252d D9000000 		.4byte	0xd9
 6231 2531 6C130000 		.4byte	.LLST91
 6232 2535 2F       		.uleb128 0x2f
 6233 2536 733100   		.ascii	"s1\000"
 6234 2539 01       		.byte	0x1
 6235 253a 5F       		.byte	0x5f
 6236 253b D9000000 		.4byte	0xd9
 6237 253f 7F130000 		.4byte	.LLST92
 6238 2543 2F       		.uleb128 0x2f
 6239 2544 733200   		.ascii	"s2\000"
 6240 2547 01       		.byte	0x1
 6241 2548 60       		.byte	0x60
 6242 2549 D9000000 		.4byte	0xd9
 6243 254d AC130000 		.4byte	.LLST93
 6244 2551 2F       		.uleb128 0x2f
 6245 2552 633100   		.ascii	"c1\000"
 6246 2555 01       		.byte	0x1
 6247 2556 62       		.byte	0x62
 6248 2557 D9000000 		.4byte	0xd9
 6249 255b D9130000 		.4byte	.LLST94
 6250 255f 2F       		.uleb128 0x2f
 6251 2560 633200   		.ascii	"c2\000"
 6252 2563 01       		.byte	0x1
 6253 2564 63       		.byte	0x63
 6254 2565 D9000000 		.4byte	0xd9
 6255 2569 F7130000 		.4byte	.LLST95
 6256 256d 44       		.uleb128 0x44
 6257 256e 89110000 		.4byte	.LASF565
 6258 2572 01       		.byte	0x1
 6259 2573 6C       		.byte	0x6c
 6260 2574 EC010000 		.4byte	0x1ec
 6261 2578 44       		.uleb128 0x44
ARM GAS  C:\Users\haske\AppData\Local\Temp\cc9HFfJU.s 			page 133


 6262 2579 62080000 		.4byte	.LASF566
 6263 257d 01       		.byte	0x1
 6264 257e 6D       		.byte	0x6d
 6265 257f EC010000 		.4byte	0x1ec
 6266 2583 2F       		.uleb128 0x2f
 6267 2584 7900     		.ascii	"y\000"
 6268 2586 01       		.byte	0x1
 6269 2587 6E       		.byte	0x6e
 6270 2588 EC010000 		.4byte	0x1ec
 6271 258c 0A140000 		.4byte	.LLST96
 6272 2590 45       		.uleb128 0x45
 6273 2591 751C0000 		.4byte	0x1c75
 6274 2595 CA000000 		.4byte	.LBB37
 6275 2599 14000000 		.4byte	.LBE37-.LBB37
 6276 259d 01       		.byte	0x1
 6277 259e 6C       		.byte	0x6c
 6278 259f AD250000 		.4byte	0x25ad
 6279 25a3 3B       		.uleb128 0x3b
 6280 25a4 851C0000 		.4byte	0x1c85
 6281 25a8 34140000 		.4byte	.LLST97
 6282 25ac 00       		.byte	0
 6283 25ad 45       		.uleb128 0x45
 6284 25ae 591C0000 		.4byte	0x1c59
 6285 25b2 DE000000 		.4byte	.LBB39
 6286 25b6 14000000 		.4byte	.LBE39-.LBB39
 6287 25ba 01       		.byte	0x1
 6288 25bb 6D       		.byte	0x6d
 6289 25bc CA250000 		.4byte	0x25ca
 6290 25c0 3B       		.uleb128 0x3b
 6291 25c1 691C0000 		.4byte	0x1c69
 6292 25c5 47140000 		.4byte	.LLST98
 6293 25c9 00       		.byte	0
 6294 25ca 38       		.uleb128 0x38
 6295 25cb 04010000 		.4byte	.LBB41
 6296 25cf FE000000 		.4byte	.LBE41-.LBB41
 6297 25d3 D8270000 		.4byte	0x27d8
 6298 25d7 2E       		.uleb128 0x2e
 6299 25d8 B9050000 		.4byte	.LASF567
 6300 25dc 01       		.byte	0x1
 6301 25dd 70       		.byte	0x70
 6302 25de D9000000 		.4byte	0xd9
 6303 25e2 03       		.uleb128 0x3
 6304 25e3 91       		.byte	0x91
 6305 25e4 9C7F     		.sleb128 -100
 6306 25e6 2E       		.uleb128 0x2e
 6307 25e7 15070000 		.4byte	.LASF568
 6308 25eb 01       		.byte	0x1
 6309 25ec 70       		.byte	0x70
 6310 25ed D9000000 		.4byte	0xd9
 6311 25f1 03       		.uleb128 0x3
 6312 25f2 91       		.byte	0x91
 6313 25f3 A07F     		.sleb128 -96
 6314 25f5 2E       		.uleb128 0x2e
 6315 25f6 CC000000 		.4byte	.LASF569
 6316 25fa 01       		.byte	0x1
 6317 25fb 70       		.byte	0x70
 6318 25fc D9000000 		.4byte	0xd9
ARM GAS  C:\Users\haske\AppData\Local\Temp\cc9HFfJU.s 			page 134


 6319 2600 03       		.uleb128 0x3
 6320 2601 91       		.byte	0x91
 6321 2602 A47F     		.sleb128 -92
 6322 2604 2E       		.uleb128 0x2e
 6323 2605 D2020000 		.4byte	.LASF570
 6324 2609 01       		.byte	0x1
 6325 260a 70       		.byte	0x70
 6326 260b D9000000 		.4byte	0xd9
 6327 260f 03       		.uleb128 0x3
 6328 2610 91       		.byte	0x91
 6329 2611 A87F     		.sleb128 -88
 6330 2613 31       		.uleb128 0x31
 6331 2614 DF1B0000 		.4byte	.LASF571
 6332 2618 01       		.byte	0x1
 6333 2619 75       		.byte	0x75
 6334 261a D9000000 		.4byte	0xd9
 6335 261e 5A140000 		.4byte	.LLST99
 6336 2622 31       		.uleb128 0x31
 6337 2623 1F060000 		.4byte	.LASF572
 6338 2627 01       		.byte	0x1
 6339 2628 76       		.byte	0x76
 6340 2629 D9000000 		.4byte	0xd9
 6341 262d EC140000 		.4byte	.LLST100
 6342 2631 31       		.uleb128 0x31
 6343 2632 31030000 		.4byte	.LASF573
 6344 2636 01       		.byte	0x1
 6345 2637 77       		.byte	0x77
 6346 2638 D9000000 		.4byte	0xd9
 6347 263c 61150000 		.4byte	.LLST101
 6348 2640 31       		.uleb128 0x31
 6349 2641 B6070000 		.4byte	.LASF574
 6350 2645 01       		.byte	0x1
 6351 2646 78       		.byte	0x78
 6352 2647 D9000000 		.4byte	0xd9
 6353 264b EC150000 		.4byte	.LLST102
 6354 264f 31       		.uleb128 0x31
 6355 2650 980A0000 		.4byte	.LASF523
 6356 2654 01       		.byte	0x1
 6357 2655 7D       		.byte	0x7d
 6358 2656 D9000000 		.4byte	0xd9
 6359 265a 77160000 		.4byte	.LLST103
 6360 265e 31       		.uleb128 0x31
 6361 265f 8F1F0000 		.4byte	.LASF524
 6362 2663 01       		.byte	0x1
 6363 2664 7E       		.byte	0x7e
 6364 2665 D9000000 		.4byte	0xd9
 6365 2669 DB160000 		.4byte	.LLST104
 6366 266d 46       		.uleb128 0x46
 6367 266e 1A010000 		.4byte	.LVL214
 6368 2672 CF1E0000 		.4byte	0x1ecf
 6369 2676 91260000 		.4byte	0x2691
 6370 267a 42       		.uleb128 0x42
 6371 267b 01       		.uleb128 0x1
 6372 267c 50       		.byte	0x50
 6373 267d 03       		.uleb128 0x3
 6374 267e 91       		.byte	0x91
 6375 267f AC7F     		.sleb128 -84
ARM GAS  C:\Users\haske\AppData\Local\Temp\cc9HFfJU.s 			page 135


 6376 2681 42       		.uleb128 0x42
 6377 2682 01       		.uleb128 0x1
 6378 2683 53       		.byte	0x53
 6379 2684 03       		.uleb128 0x3
 6380 2685 91       		.byte	0x91
 6381 2686 9C7F     		.sleb128 -100
 6382 2688 42       		.uleb128 0x42
 6383 2689 02       		.uleb128 0x2
 6384 268a 7D       		.byte	0x7d
 6385 268b 00       		.sleb128 0
 6386 268c 03       		.uleb128 0x3
 6387 268d 91       		.byte	0x91
 6388 268e A07F     		.sleb128 -96
 6389 2690 00       		.byte	0
 6390 2691 46       		.uleb128 0x46
 6391 2692 30010000 		.4byte	.LVL215
 6392 2696 CF1E0000 		.4byte	0x1ecf
 6393 269a B5260000 		.4byte	0x26b5
 6394 269e 42       		.uleb128 0x42
 6395 269f 01       		.uleb128 0x1
 6396 26a0 50       		.byte	0x50
 6397 26a1 03       		.uleb128 0x3
 6398 26a2 91       		.byte	0x91
 6399 26a3 AC7F     		.sleb128 -84
 6400 26a5 42       		.uleb128 0x42
 6401 26a6 01       		.uleb128 0x1
 6402 26a7 53       		.byte	0x53
 6403 26a8 03       		.uleb128 0x3
 6404 26a9 91       		.byte	0x91
 6405 26aa A47F     		.sleb128 -92
 6406 26ac 42       		.uleb128 0x42
 6407 26ad 02       		.uleb128 0x2
 6408 26ae 7D       		.byte	0x7d
 6409 26af 00       		.sleb128 0
 6410 26b0 03       		.uleb128 0x3
 6411 26b1 91       		.byte	0x91
 6412 26b2 A87F     		.sleb128 -88
 6413 26b4 00       		.byte	0
 6414 26b5 46       		.uleb128 0x46
 6415 26b6 A4010000 		.4byte	.LVL231
 6416 26ba 911C0000 		.4byte	0x1c91
 6417 26be FB260000 		.4byte	0x26fb
 6418 26c2 42       		.uleb128 0x42
 6419 26c3 01       		.uleb128 0x1
 6420 26c4 50       		.byte	0x50
 6421 26c5 04       		.uleb128 0x4
 6422 26c6 91       		.byte	0x91
 6423 26c7 FC7E     		.sleb128 -132
 6424 26c9 06       		.byte	0x6
 6425 26ca 42       		.uleb128 0x42
 6426 26cb 01       		.uleb128 0x1
 6427 26cc 51       		.byte	0x51
 6428 26cd 05       		.uleb128 0x5
 6429 26ce 91       		.byte	0x91
 6430 26cf 807F     		.sleb128 -128
 6431 26d1 94       		.byte	0x94
 6432 26d2 02       		.byte	0x2
ARM GAS  C:\Users\haske\AppData\Local\Temp\cc9HFfJU.s 			page 136


 6433 26d3 42       		.uleb128 0x42
 6434 26d4 01       		.uleb128 0x1
 6435 26d5 52       		.byte	0x52
 6436 26d6 05       		.uleb128 0x5
 6437 26d7 91       		.byte	0x91
 6438 26d8 847F     		.sleb128 -124
 6439 26da 94       		.byte	0x94
 6440 26db 02       		.byte	0x2
 6441 26dc 42       		.uleb128 0x42
 6442 26dd 01       		.uleb128 0x1
 6443 26de 53       		.byte	0x53
 6444 26df 05       		.uleb128 0x5
 6445 26e0 91       		.byte	0x91
 6446 26e1 887F     		.sleb128 -120
 6447 26e3 94       		.byte	0x94
 6448 26e4 02       		.byte	0x2
 6449 26e5 42       		.uleb128 0x42
 6450 26e6 02       		.uleb128 0x2
 6451 26e7 7D       		.byte	0x7d
 6452 26e8 10       		.sleb128 16
 6453 26e9 02       		.uleb128 0x2
 6454 26ea 74       		.byte	0x74
 6455 26eb 00       		.sleb128 0
 6456 26ec 42       		.uleb128 0x42
 6457 26ed 02       		.uleb128 0x2
 6458 26ee 7D       		.byte	0x7d
 6459 26ef 14       		.sleb128 20
 6460 26f0 02       		.uleb128 0x2
 6461 26f1 76       		.byte	0x76
 6462 26f2 00       		.sleb128 0
 6463 26f3 42       		.uleb128 0x42
 6464 26f4 02       		.uleb128 0x2
 6465 26f5 7D       		.byte	0x7d
 6466 26f6 18       		.sleb128 24
 6467 26f7 02       		.uleb128 0x2
 6468 26f8 75       		.byte	0x75
 6469 26f9 00       		.sleb128 0
 6470 26fa 00       		.byte	0
 6471 26fb 46       		.uleb128 0x46
 6472 26fc C2010000 		.4byte	.LVL237
 6473 2700 E6220000 		.4byte	0x22e6
 6474 2704 48270000 		.4byte	0x2748
 6475 2708 42       		.uleb128 0x42
 6476 2709 01       		.uleb128 0x1
 6477 270a 50       		.byte	0x50
 6478 270b 04       		.uleb128 0x4
 6479 270c 91       		.byte	0x91
 6480 270d FC7E     		.sleb128 -132
 6481 270f 06       		.byte	0x6
 6482 2710 42       		.uleb128 0x42
 6483 2711 01       		.uleb128 0x1
 6484 2712 51       		.byte	0x51
 6485 2713 05       		.uleb128 0x5
 6486 2714 91       		.byte	0x91
 6487 2715 807F     		.sleb128 -128
 6488 2717 94       		.byte	0x94
 6489 2718 02       		.byte	0x2
ARM GAS  C:\Users\haske\AppData\Local\Temp\cc9HFfJU.s 			page 137


 6490 2719 42       		.uleb128 0x42
 6491 271a 01       		.uleb128 0x1
 6492 271b 52       		.byte	0x52
 6493 271c 05       		.uleb128 0x5
 6494 271d 91       		.byte	0x91
 6495 271e 847F     		.sleb128 -124
 6496 2720 94       		.byte	0x94
 6497 2721 02       		.byte	0x2
 6498 2722 42       		.uleb128 0x42
 6499 2723 01       		.uleb128 0x1
 6500 2724 53       		.byte	0x53
 6501 2725 05       		.uleb128 0x5
 6502 2726 91       		.byte	0x91
 6503 2727 887F     		.sleb128 -120
 6504 2729 94       		.byte	0x94
 6505 272a 02       		.byte	0x2
 6506 272b 42       		.uleb128 0x42
 6507 272c 02       		.uleb128 0x2
 6508 272d 7D       		.byte	0x7d
 6509 272e 10       		.sleb128 16
 6510 272f 02       		.uleb128 0x2
 6511 2730 74       		.byte	0x74
 6512 2731 00       		.sleb128 0
 6513 2732 42       		.uleb128 0x42
 6514 2733 02       		.uleb128 0x2
 6515 2734 7D       		.byte	0x7d
 6516 2735 14       		.sleb128 20
 6517 2736 02       		.uleb128 0x2
 6518 2737 76       		.byte	0x76
 6519 2738 00       		.sleb128 0
 6520 2739 42       		.uleb128 0x42
 6521 273a 02       		.uleb128 0x2
 6522 273b 7D       		.byte	0x7d
 6523 273c 18       		.sleb128 24
 6524 273d 02       		.uleb128 0x2
 6525 273e 75       		.byte	0x75
 6526 273f 00       		.sleb128 0
 6527 2740 42       		.uleb128 0x42
 6528 2741 02       		.uleb128 0x2
 6529 2742 7D       		.byte	0x7d
 6530 2743 1C       		.sleb128 28
 6531 2744 02       		.uleb128 0x2
 6532 2745 77       		.byte	0x77
 6533 2746 00       		.sleb128 0
 6534 2747 00       		.byte	0
 6535 2748 46       		.uleb128 0x46
 6536 2749 DE010000 		.4byte	.LVL243
 6537 274d A91D0000 		.4byte	0x1da9
 6538 2751 8E270000 		.4byte	0x278e
 6539 2755 42       		.uleb128 0x42
 6540 2756 01       		.uleb128 0x1
 6541 2757 50       		.byte	0x50
 6542 2758 04       		.uleb128 0x4
 6543 2759 91       		.byte	0x91
 6544 275a FC7E     		.sleb128 -132
 6545 275c 06       		.byte	0x6
 6546 275d 42       		.uleb128 0x42
ARM GAS  C:\Users\haske\AppData\Local\Temp\cc9HFfJU.s 			page 138


 6547 275e 01       		.uleb128 0x1
 6548 275f 51       		.byte	0x51
 6549 2760 05       		.uleb128 0x5
 6550 2761 91       		.byte	0x91
 6551 2762 807F     		.sleb128 -128
 6552 2764 94       		.byte	0x94
 6553 2765 02       		.byte	0x2
 6554 2766 42       		.uleb128 0x42
 6555 2767 01       		.uleb128 0x1
 6556 2768 52       		.byte	0x52
 6557 2769 05       		.uleb128 0x5
 6558 276a 91       		.byte	0x91
 6559 276b 847F     		.sleb128 -124
 6560 276d 94       		.byte	0x94
 6561 276e 02       		.byte	0x2
 6562 276f 42       		.uleb128 0x42
 6563 2770 01       		.uleb128 0x1
 6564 2771 53       		.byte	0x53
 6565 2772 05       		.uleb128 0x5
 6566 2773 91       		.byte	0x91
 6567 2774 887F     		.sleb128 -120
 6568 2776 94       		.byte	0x94
 6569 2777 02       		.byte	0x2
 6570 2778 42       		.uleb128 0x42
 6571 2779 02       		.uleb128 0x2
 6572 277a 7D       		.byte	0x7d
 6573 277b 10       		.sleb128 16
 6574 277c 02       		.uleb128 0x2
 6575 277d 74       		.byte	0x74
 6576 277e 00       		.sleb128 0
 6577 277f 42       		.uleb128 0x42
 6578 2780 02       		.uleb128 0x2
 6579 2781 7D       		.byte	0x7d
 6580 2782 14       		.sleb128 20
 6581 2783 02       		.uleb128 0x2
 6582 2784 76       		.byte	0x76
 6583 2785 00       		.sleb128 0
 6584 2786 42       		.uleb128 0x42
 6585 2787 02       		.uleb128 0x2
 6586 2788 7D       		.byte	0x7d
 6587 2789 18       		.sleb128 24
 6588 278a 02       		.uleb128 0x2
 6589 278b 75       		.byte	0x75
 6590 278c 00       		.sleb128 0
 6591 278d 00       		.byte	0
 6592 278e 41       		.uleb128 0x41
 6593 278f FC010000 		.4byte	.LVL249
 6594 2793 3E1F0000 		.4byte	0x1f3e
 6595 2797 42       		.uleb128 0x42
 6596 2798 01       		.uleb128 0x1
 6597 2799 50       		.byte	0x50
 6598 279a 04       		.uleb128 0x4
 6599 279b 91       		.byte	0x91
 6600 279c FC7E     		.sleb128 -132
 6601 279e 06       		.byte	0x6
 6602 279f 42       		.uleb128 0x42
 6603 27a0 01       		.uleb128 0x1
ARM GAS  C:\Users\haske\AppData\Local\Temp\cc9HFfJU.s 			page 139


 6604 27a1 51       		.byte	0x51
 6605 27a2 05       		.uleb128 0x5
 6606 27a3 91       		.byte	0x91
 6607 27a4 807F     		.sleb128 -128
 6608 27a6 94       		.byte	0x94
 6609 27a7 02       		.byte	0x2
 6610 27a8 42       		.uleb128 0x42
 6611 27a9 01       		.uleb128 0x1
 6612 27aa 52       		.byte	0x52
 6613 27ab 05       		.uleb128 0x5
 6614 27ac 91       		.byte	0x91
 6615 27ad 847F     		.sleb128 -124
 6616 27af 94       		.byte	0x94
 6617 27b0 02       		.byte	0x2
 6618 27b1 42       		.uleb128 0x42
 6619 27b2 01       		.uleb128 0x1
 6620 27b3 53       		.byte	0x53
 6621 27b4 05       		.uleb128 0x5
 6622 27b5 91       		.byte	0x91
 6623 27b6 887F     		.sleb128 -120
 6624 27b8 94       		.byte	0x94
 6625 27b9 02       		.byte	0x2
 6626 27ba 42       		.uleb128 0x42
 6627 27bb 02       		.uleb128 0x2
 6628 27bc 7D       		.byte	0x7d
 6629 27bd 10       		.sleb128 16
 6630 27be 02       		.uleb128 0x2
 6631 27bf 74       		.byte	0x74
 6632 27c0 00       		.sleb128 0
 6633 27c1 42       		.uleb128 0x42
 6634 27c2 02       		.uleb128 0x2
 6635 27c3 7D       		.byte	0x7d
 6636 27c4 14       		.sleb128 20
 6637 27c5 02       		.uleb128 0x2
 6638 27c6 76       		.byte	0x76
 6639 27c7 00       		.sleb128 0
 6640 27c8 42       		.uleb128 0x42
 6641 27c9 02       		.uleb128 0x2
 6642 27ca 7D       		.byte	0x7d
 6643 27cb 18       		.sleb128 24
 6644 27cc 02       		.uleb128 0x2
 6645 27cd 75       		.byte	0x75
 6646 27ce 00       		.sleb128 0
 6647 27cf 42       		.uleb128 0x42
 6648 27d0 02       		.uleb128 0x2
 6649 27d1 7D       		.byte	0x7d
 6650 27d2 1C       		.sleb128 28
 6651 27d3 02       		.uleb128 0x2
 6652 27d4 77       		.byte	0x77
 6653 27d5 00       		.sleb128 0
 6654 27d6 00       		.byte	0
 6655 27d7 00       		.byte	0
 6656 27d8 46       		.uleb128 0x46
 6657 27d9 60000000 		.4byte	.LVL196
 6658 27dd 4E280000 		.4byte	0x284e
 6659 27e1 EC270000 		.4byte	0x27ec
 6660 27e5 42       		.uleb128 0x42
ARM GAS  C:\Users\haske\AppData\Local\Temp\cc9HFfJU.s 			page 140


 6661 27e6 01       		.uleb128 0x1
 6662 27e7 50       		.byte	0x50
 6663 27e8 02       		.uleb128 0x2
 6664 27e9 78       		.byte	0x78
 6665 27ea 00       		.sleb128 0
 6666 27eb 00       		.byte	0
 6667 27ec 46       		.uleb128 0x46
 6668 27ed 6A000000 		.4byte	.LVL199
 6669 27f1 4E280000 		.4byte	0x284e
 6670 27f5 03280000 		.4byte	0x2803
 6671 27f9 42       		.uleb128 0x42
 6672 27fa 01       		.uleb128 0x1
 6673 27fb 50       		.byte	0x50
 6674 27fc 05       		.uleb128 0x5
 6675 27fd 91       		.byte	0x91
 6676 27fe 8C7F     		.sleb128 -116
 6677 2800 94       		.byte	0x94
 6678 2801 02       		.byte	0x2
 6679 2802 00       		.byte	0
 6680 2803 46       		.uleb128 0x46
 6681 2804 76000000 		.4byte	.LVL202
 6682 2808 4E280000 		.4byte	0x284e
 6683 280c 18280000 		.4byte	0x2818
 6684 2810 42       		.uleb128 0x42
 6685 2811 01       		.uleb128 0x1
 6686 2812 50       		.byte	0x50
 6687 2813 03       		.uleb128 0x3
 6688 2814 78       		.byte	0x78
 6689 2815 DA00     		.sleb128 90
 6690 2817 00       		.byte	0
 6691 2818 41       		.uleb128 0x41
 6692 2819 84000000 		.4byte	.LVL205
 6693 281d 4E280000 		.4byte	0x284e
 6694 2821 42       		.uleb128 0x42
 6695 2822 01       		.uleb128 0x1
 6696 2823 50       		.byte	0x50
 6697 2824 06       		.uleb128 0x6
 6698 2825 91       		.byte	0x91
 6699 2826 8C7F     		.sleb128 -116
 6700 2828 06       		.byte	0x6
 6701 2829 23       		.byte	0x23
 6702 282a 5A       		.uleb128 0x5a
 6703 282b 00       		.byte	0
 6704 282c 00       		.byte	0
 6705 282d 47       		.uleb128 0x47
 6706 282e 991B0000 		.4byte	.LASF582
 6707 2832 08       		.byte	0x8
 6708 2833 94       		.byte	0x94
 6709 2834 F90B0000 		.4byte	0xbf9
 6710 2838 48       		.uleb128 0x48
 6711 2839 001E0000 		.4byte	.LASF575
 6712 283d 001E0000 		.4byte	.LASF575
 6713 2841 1D       		.byte	0x1d
 6714 2842 4E       		.byte	0x4e
 6715 2843 48       		.uleb128 0x48
 6716 2844 90110000 		.4byte	.LASF576
 6717 2848 90110000 		.4byte	.LASF576
ARM GAS  C:\Users\haske\AppData\Local\Temp\cc9HFfJU.s 			page 141


 6718 284c 1E       		.byte	0x1e
 6719 284d E5       		.byte	0xe5
 6720 284e 48       		.uleb128 0x48
 6721 284f 88020000 		.4byte	.LASF577
 6722 2853 88020000 		.4byte	.LASF577
 6723 2857 1F       		.byte	0x1f
 6724 2858 2F       		.byte	0x2f
 6725 2859 00       		.byte	0
 6726              		.section	.debug_abbrev,"",%progbits
 6727              	.Ldebug_abbrev0:
 6728 0000 01       		.uleb128 0x1
 6729 0001 11       		.uleb128 0x11
 6730 0002 01       		.byte	0x1
 6731 0003 25       		.uleb128 0x25
 6732 0004 0E       		.uleb128 0xe
 6733 0005 13       		.uleb128 0x13
 6734 0006 0B       		.uleb128 0xb
 6735 0007 03       		.uleb128 0x3
 6736 0008 0E       		.uleb128 0xe
 6737 0009 1B       		.uleb128 0x1b
 6738 000a 0E       		.uleb128 0xe
 6739 000b 55       		.uleb128 0x55
 6740 000c 17       		.uleb128 0x17
 6741 000d 11       		.uleb128 0x11
 6742 000e 01       		.uleb128 0x1
 6743 000f 10       		.uleb128 0x10
 6744 0010 17       		.uleb128 0x17
 6745 0011 00       		.byte	0
 6746 0012 00       		.byte	0
 6747 0013 02       		.uleb128 0x2
 6748 0014 16       		.uleb128 0x16
 6749 0015 00       		.byte	0
 6750 0016 03       		.uleb128 0x3
 6751 0017 0E       		.uleb128 0xe
 6752 0018 3A       		.uleb128 0x3a
 6753 0019 0B       		.uleb128 0xb
 6754 001a 3B       		.uleb128 0x3b
 6755 001b 0B       		.uleb128 0xb
 6756 001c 49       		.uleb128 0x49
 6757 001d 13       		.uleb128 0x13
 6758 001e 00       		.byte	0
 6759 001f 00       		.byte	0
 6760 0020 03       		.uleb128 0x3
 6761 0021 24       		.uleb128 0x24
 6762 0022 00       		.byte	0
 6763 0023 0B       		.uleb128 0xb
 6764 0024 0B       		.uleb128 0xb
 6765 0025 3E       		.uleb128 0x3e
 6766 0026 0B       		.uleb128 0xb
 6767 0027 03       		.uleb128 0x3
 6768 0028 0E       		.uleb128 0xe
 6769 0029 00       		.byte	0
 6770 002a 00       		.byte	0
 6771 002b 04       		.uleb128 0x4
 6772 002c 24       		.uleb128 0x24
 6773 002d 00       		.byte	0
 6774 002e 0B       		.uleb128 0xb
ARM GAS  C:\Users\haske\AppData\Local\Temp\cc9HFfJU.s 			page 142


 6775 002f 0B       		.uleb128 0xb
 6776 0030 3E       		.uleb128 0x3e
 6777 0031 0B       		.uleb128 0xb
 6778 0032 03       		.uleb128 0x3
 6779 0033 08       		.uleb128 0x8
 6780 0034 00       		.byte	0
 6781 0035 00       		.byte	0
 6782 0036 05       		.uleb128 0x5
 6783 0037 0F       		.uleb128 0xf
 6784 0038 00       		.byte	0
 6785 0039 0B       		.uleb128 0xb
 6786 003a 0B       		.uleb128 0xb
 6787 003b 00       		.byte	0
 6788 003c 00       		.byte	0
 6789 003d 06       		.uleb128 0x6
 6790 003e 04       		.uleb128 0x4
 6791 003f 01       		.byte	0x1
 6792 0040 0B       		.uleb128 0xb
 6793 0041 0B       		.uleb128 0xb
 6794 0042 49       		.uleb128 0x49
 6795 0043 13       		.uleb128 0x13
 6796 0044 3A       		.uleb128 0x3a
 6797 0045 0B       		.uleb128 0xb
 6798 0046 3B       		.uleb128 0x3b
 6799 0047 0B       		.uleb128 0xb
 6800 0048 01       		.uleb128 0x1
 6801 0049 13       		.uleb128 0x13
 6802 004a 00       		.byte	0
 6803 004b 00       		.byte	0
 6804 004c 07       		.uleb128 0x7
 6805 004d 28       		.uleb128 0x28
 6806 004e 00       		.byte	0
 6807 004f 03       		.uleb128 0x3
 6808 0050 0E       		.uleb128 0xe
 6809 0051 1C       		.uleb128 0x1c
 6810 0052 0B       		.uleb128 0xb
 6811 0053 00       		.byte	0
 6812 0054 00       		.byte	0
 6813 0055 08       		.uleb128 0x8
 6814 0056 13       		.uleb128 0x13
 6815 0057 01       		.byte	0x1
 6816 0058 0B       		.uleb128 0xb
 6817 0059 0B       		.uleb128 0xb
 6818 005a 3A       		.uleb128 0x3a
 6819 005b 0B       		.uleb128 0xb
 6820 005c 3B       		.uleb128 0x3b
 6821 005d 0B       		.uleb128 0xb
 6822 005e 01       		.uleb128 0x1
 6823 005f 13       		.uleb128 0x13
 6824 0060 00       		.byte	0
 6825 0061 00       		.byte	0
 6826 0062 09       		.uleb128 0x9
 6827 0063 0D       		.uleb128 0xd
 6828 0064 00       		.byte	0
 6829 0065 03       		.uleb128 0x3
 6830 0066 0E       		.uleb128 0xe
 6831 0067 3A       		.uleb128 0x3a
ARM GAS  C:\Users\haske\AppData\Local\Temp\cc9HFfJU.s 			page 143


 6832 0068 0B       		.uleb128 0xb
 6833 0069 3B       		.uleb128 0x3b
 6834 006a 0B       		.uleb128 0xb
 6835 006b 49       		.uleb128 0x49
 6836 006c 13       		.uleb128 0x13
 6837 006d 0B       		.uleb128 0xb
 6838 006e 0B       		.uleb128 0xb
 6839 006f 0D       		.uleb128 0xd
 6840 0070 0B       		.uleb128 0xb
 6841 0071 0C       		.uleb128 0xc
 6842 0072 0B       		.uleb128 0xb
 6843 0073 38       		.uleb128 0x38
 6844 0074 0B       		.uleb128 0xb
 6845 0075 00       		.byte	0
 6846 0076 00       		.byte	0
 6847 0077 0A       		.uleb128 0xa
 6848 0078 0D       		.uleb128 0xd
 6849 0079 00       		.byte	0
 6850 007a 03       		.uleb128 0x3
 6851 007b 08       		.uleb128 0x8
 6852 007c 3A       		.uleb128 0x3a
 6853 007d 0B       		.uleb128 0xb
 6854 007e 3B       		.uleb128 0x3b
 6855 007f 0B       		.uleb128 0xb
 6856 0080 49       		.uleb128 0x49
 6857 0081 13       		.uleb128 0x13
 6858 0082 0B       		.uleb128 0xb
 6859 0083 0B       		.uleb128 0xb
 6860 0084 0D       		.uleb128 0xd
 6861 0085 0B       		.uleb128 0xb
 6862 0086 0C       		.uleb128 0xc
 6863 0087 0B       		.uleb128 0xb
 6864 0088 38       		.uleb128 0x38
 6865 0089 0B       		.uleb128 0xb
 6866 008a 00       		.byte	0
 6867 008b 00       		.byte	0
 6868 008c 0B       		.uleb128 0xb
 6869 008d 17       		.uleb128 0x17
 6870 008e 01       		.byte	0x1
 6871 008f 0B       		.uleb128 0xb
 6872 0090 0B       		.uleb128 0xb
 6873 0091 3A       		.uleb128 0x3a
 6874 0092 0B       		.uleb128 0xb
 6875 0093 3B       		.uleb128 0x3b
 6876 0094 0B       		.uleb128 0xb
 6877 0095 01       		.uleb128 0x1
 6878 0096 13       		.uleb128 0x13
 6879 0097 00       		.byte	0
 6880 0098 00       		.byte	0
 6881 0099 0C       		.uleb128 0xc
 6882 009a 0D       		.uleb128 0xd
 6883 009b 00       		.byte	0
 6884 009c 03       		.uleb128 0x3
 6885 009d 08       		.uleb128 0x8
 6886 009e 3A       		.uleb128 0x3a
 6887 009f 0B       		.uleb128 0xb
 6888 00a0 3B       		.uleb128 0x3b
ARM GAS  C:\Users\haske\AppData\Local\Temp\cc9HFfJU.s 			page 144


 6889 00a1 0B       		.uleb128 0xb
 6890 00a2 49       		.uleb128 0x49
 6891 00a3 13       		.uleb128 0x13
 6892 00a4 00       		.byte	0
 6893 00a5 00       		.byte	0
 6894 00a6 0D       		.uleb128 0xd
 6895 00a7 0D       		.uleb128 0xd
 6896 00a8 00       		.byte	0
 6897 00a9 03       		.uleb128 0x3
 6898 00aa 0E       		.uleb128 0xe
 6899 00ab 3A       		.uleb128 0x3a
 6900 00ac 0B       		.uleb128 0xb
 6901 00ad 3B       		.uleb128 0x3b
 6902 00ae 0B       		.uleb128 0xb
 6903 00af 49       		.uleb128 0x49
 6904 00b0 13       		.uleb128 0x13
 6905 00b1 00       		.byte	0
 6906 00b2 00       		.byte	0
 6907 00b3 0E       		.uleb128 0xe
 6908 00b4 0D       		.uleb128 0xd
 6909 00b5 00       		.byte	0
 6910 00b6 03       		.uleb128 0x3
 6911 00b7 08       		.uleb128 0x8
 6912 00b8 3A       		.uleb128 0x3a
 6913 00b9 0B       		.uleb128 0xb
 6914 00ba 3B       		.uleb128 0x3b
 6915 00bb 0B       		.uleb128 0xb
 6916 00bc 49       		.uleb128 0x49
 6917 00bd 13       		.uleb128 0x13
 6918 00be 38       		.uleb128 0x38
 6919 00bf 0B       		.uleb128 0xb
 6920 00c0 00       		.byte	0
 6921 00c1 00       		.byte	0
 6922 00c2 0F       		.uleb128 0xf
 6923 00c3 0D       		.uleb128 0xd
 6924 00c4 00       		.byte	0
 6925 00c5 03       		.uleb128 0x3
 6926 00c6 0E       		.uleb128 0xe
 6927 00c7 3A       		.uleb128 0x3a
 6928 00c8 0B       		.uleb128 0xb
 6929 00c9 3B       		.uleb128 0x3b
 6930 00ca 0B       		.uleb128 0xb
 6931 00cb 49       		.uleb128 0x49
 6932 00cc 13       		.uleb128 0x13
 6933 00cd 38       		.uleb128 0x38
 6934 00ce 0B       		.uleb128 0xb
 6935 00cf 00       		.byte	0
 6936 00d0 00       		.byte	0
 6937 00d1 10       		.uleb128 0x10
 6938 00d2 13       		.uleb128 0x13
 6939 00d3 01       		.byte	0x1
 6940 00d4 03       		.uleb128 0x3
 6941 00d5 0E       		.uleb128 0xe
 6942 00d6 0B       		.uleb128 0xb
 6943 00d7 0B       		.uleb128 0xb
 6944 00d8 3A       		.uleb128 0x3a
 6945 00d9 0B       		.uleb128 0xb
ARM GAS  C:\Users\haske\AppData\Local\Temp\cc9HFfJU.s 			page 145


 6946 00da 3B       		.uleb128 0x3b
 6947 00db 0B       		.uleb128 0xb
 6948 00dc 01       		.uleb128 0x1
 6949 00dd 13       		.uleb128 0x13
 6950 00de 00       		.byte	0
 6951 00df 00       		.byte	0
 6952 00e0 11       		.uleb128 0x11
 6953 00e1 0F       		.uleb128 0xf
 6954 00e2 00       		.byte	0
 6955 00e3 0B       		.uleb128 0xb
 6956 00e4 0B       		.uleb128 0xb
 6957 00e5 49       		.uleb128 0x49
 6958 00e6 13       		.uleb128 0x13
 6959 00e7 00       		.byte	0
 6960 00e8 00       		.byte	0
 6961 00e9 12       		.uleb128 0x12
 6962 00ea 26       		.uleb128 0x26
 6963 00eb 00       		.byte	0
 6964 00ec 49       		.uleb128 0x49
 6965 00ed 13       		.uleb128 0x13
 6966 00ee 00       		.byte	0
 6967 00ef 00       		.byte	0
 6968 00f0 13       		.uleb128 0x13
 6969 00f1 15       		.uleb128 0x15
 6970 00f2 01       		.byte	0x1
 6971 00f3 27       		.uleb128 0x27
 6972 00f4 19       		.uleb128 0x19
 6973 00f5 49       		.uleb128 0x49
 6974 00f6 13       		.uleb128 0x13
 6975 00f7 01       		.uleb128 0x1
 6976 00f8 13       		.uleb128 0x13
 6977 00f9 00       		.byte	0
 6978 00fa 00       		.byte	0
 6979 00fb 14       		.uleb128 0x14
 6980 00fc 05       		.uleb128 0x5
 6981 00fd 00       		.byte	0
 6982 00fe 49       		.uleb128 0x49
 6983 00ff 13       		.uleb128 0x13
 6984 0100 00       		.byte	0
 6985 0101 00       		.byte	0
 6986 0102 15       		.uleb128 0x15
 6987 0103 26       		.uleb128 0x26
 6988 0104 00       		.byte	0
 6989 0105 00       		.byte	0
 6990 0106 00       		.byte	0
 6991 0107 16       		.uleb128 0x16
 6992 0108 01       		.uleb128 0x1
 6993 0109 01       		.byte	0x1
 6994 010a 49       		.uleb128 0x49
 6995 010b 13       		.uleb128 0x13
 6996 010c 01       		.uleb128 0x1
 6997 010d 13       		.uleb128 0x13
 6998 010e 00       		.byte	0
 6999 010f 00       		.byte	0
 7000 0110 17       		.uleb128 0x17
 7001 0111 21       		.uleb128 0x21
 7002 0112 00       		.byte	0
ARM GAS  C:\Users\haske\AppData\Local\Temp\cc9HFfJU.s 			page 146


 7003 0113 49       		.uleb128 0x49
 7004 0114 13       		.uleb128 0x13
 7005 0115 2F       		.uleb128 0x2f
 7006 0116 0B       		.uleb128 0xb
 7007 0117 00       		.byte	0
 7008 0118 00       		.byte	0
 7009 0119 18       		.uleb128 0x18
 7010 011a 28       		.uleb128 0x28
 7011 011b 00       		.byte	0
 7012 011c 03       		.uleb128 0x3
 7013 011d 0E       		.uleb128 0xe
 7014 011e 1C       		.uleb128 0x1c
 7015 011f 05       		.uleb128 0x5
 7016 0120 00       		.byte	0
 7017 0121 00       		.byte	0
 7018 0122 19       		.uleb128 0x19
 7019 0123 16       		.uleb128 0x16
 7020 0124 00       		.byte	0
 7021 0125 03       		.uleb128 0x3
 7022 0126 0E       		.uleb128 0xe
 7023 0127 3A       		.uleb128 0x3a
 7024 0128 0B       		.uleb128 0xb
 7025 0129 3B       		.uleb128 0x3b
 7026 012a 05       		.uleb128 0x5
 7027 012b 49       		.uleb128 0x49
 7028 012c 13       		.uleb128 0x13
 7029 012d 00       		.byte	0
 7030 012e 00       		.byte	0
 7031 012f 1A       		.uleb128 0x1a
 7032 0130 13       		.uleb128 0x13
 7033 0131 01       		.byte	0x1
 7034 0132 0B       		.uleb128 0xb
 7035 0133 0B       		.uleb128 0xb
 7036 0134 3A       		.uleb128 0x3a
 7037 0135 0B       		.uleb128 0xb
 7038 0136 3B       		.uleb128 0x3b
 7039 0137 05       		.uleb128 0x5
 7040 0138 01       		.uleb128 0x1
 7041 0139 13       		.uleb128 0x13
 7042 013a 00       		.byte	0
 7043 013b 00       		.byte	0
 7044 013c 1B       		.uleb128 0x1b
 7045 013d 0D       		.uleb128 0xd
 7046 013e 00       		.byte	0
 7047 013f 03       		.uleb128 0x3
 7048 0140 0E       		.uleb128 0xe
 7049 0141 3A       		.uleb128 0x3a
 7050 0142 0B       		.uleb128 0xb
 7051 0143 3B       		.uleb128 0x3b
 7052 0144 05       		.uleb128 0x5
 7053 0145 49       		.uleb128 0x49
 7054 0146 13       		.uleb128 0x13
 7055 0147 38       		.uleb128 0x38
 7056 0148 0B       		.uleb128 0xb
 7057 0149 00       		.byte	0
 7058 014a 00       		.byte	0
 7059 014b 1C       		.uleb128 0x1c
ARM GAS  C:\Users\haske\AppData\Local\Temp\cc9HFfJU.s 			page 147


 7060 014c 17       		.uleb128 0x17
 7061 014d 01       		.byte	0x1
 7062 014e 0B       		.uleb128 0xb
 7063 014f 0B       		.uleb128 0xb
 7064 0150 3A       		.uleb128 0x3a
 7065 0151 0B       		.uleb128 0xb
 7066 0152 3B       		.uleb128 0x3b
 7067 0153 05       		.uleb128 0x5
 7068 0154 01       		.uleb128 0x1
 7069 0155 13       		.uleb128 0x13
 7070 0156 00       		.byte	0
 7071 0157 00       		.byte	0
 7072 0158 1D       		.uleb128 0x1d
 7073 0159 0D       		.uleb128 0xd
 7074 015a 00       		.byte	0
 7075 015b 03       		.uleb128 0x3
 7076 015c 0E       		.uleb128 0xe
 7077 015d 3A       		.uleb128 0x3a
 7078 015e 0B       		.uleb128 0xb
 7079 015f 3B       		.uleb128 0x3b
 7080 0160 05       		.uleb128 0x5
 7081 0161 49       		.uleb128 0x49
 7082 0162 13       		.uleb128 0x13
 7083 0163 00       		.byte	0
 7084 0164 00       		.byte	0
 7085 0165 1E       		.uleb128 0x1e
 7086 0166 0D       		.uleb128 0xd
 7087 0167 00       		.byte	0
 7088 0168 03       		.uleb128 0x3
 7089 0169 08       		.uleb128 0x8
 7090 016a 3A       		.uleb128 0x3a
 7091 016b 0B       		.uleb128 0xb
 7092 016c 3B       		.uleb128 0x3b
 7093 016d 05       		.uleb128 0x5
 7094 016e 49       		.uleb128 0x49
 7095 016f 13       		.uleb128 0x13
 7096 0170 38       		.uleb128 0x38
 7097 0171 0B       		.uleb128 0xb
 7098 0172 00       		.byte	0
 7099 0173 00       		.byte	0
 7100 0174 1F       		.uleb128 0x1f
 7101 0175 15       		.uleb128 0x15
 7102 0176 01       		.byte	0x1
 7103 0177 27       		.uleb128 0x27
 7104 0178 19       		.uleb128 0x19
 7105 0179 01       		.uleb128 0x1
 7106 017a 13       		.uleb128 0x13
 7107 017b 00       		.byte	0
 7108 017c 00       		.byte	0
 7109 017d 20       		.uleb128 0x20
 7110 017e 13       		.uleb128 0x13
 7111 017f 01       		.byte	0x1
 7112 0180 03       		.uleb128 0x3
 7113 0181 0E       		.uleb128 0xe
 7114 0182 0B       		.uleb128 0xb
 7115 0183 05       		.uleb128 0x5
 7116 0184 3A       		.uleb128 0x3a
ARM GAS  C:\Users\haske\AppData\Local\Temp\cc9HFfJU.s 			page 148


 7117 0185 0B       		.uleb128 0xb
 7118 0186 3B       		.uleb128 0x3b
 7119 0187 0B       		.uleb128 0xb
 7120 0188 01       		.uleb128 0x1
 7121 0189 13       		.uleb128 0x13
 7122 018a 00       		.byte	0
 7123 018b 00       		.byte	0
 7124 018c 21       		.uleb128 0x21
 7125 018d 0D       		.uleb128 0xd
 7126 018e 00       		.byte	0
 7127 018f 03       		.uleb128 0x3
 7128 0190 0E       		.uleb128 0xe
 7129 0191 3A       		.uleb128 0x3a
 7130 0192 0B       		.uleb128 0xb
 7131 0193 3B       		.uleb128 0x3b
 7132 0194 0B       		.uleb128 0xb
 7133 0195 49       		.uleb128 0x49
 7134 0196 13       		.uleb128 0x13
 7135 0197 38       		.uleb128 0x38
 7136 0198 05       		.uleb128 0x5
 7137 0199 00       		.byte	0
 7138 019a 00       		.byte	0
 7139 019b 22       		.uleb128 0x22
 7140 019c 35       		.uleb128 0x35
 7141 019d 00       		.byte	0
 7142 019e 49       		.uleb128 0x49
 7143 019f 13       		.uleb128 0x13
 7144 01a0 00       		.byte	0
 7145 01a1 00       		.byte	0
 7146 01a2 23       		.uleb128 0x23
 7147 01a3 13       		.uleb128 0x13
 7148 01a4 00       		.byte	0
 7149 01a5 03       		.uleb128 0x3
 7150 01a6 0E       		.uleb128 0xe
 7151 01a7 3C       		.uleb128 0x3c
 7152 01a8 19       		.uleb128 0x19
 7153 01a9 00       		.byte	0
 7154 01aa 00       		.byte	0
 7155 01ab 24       		.uleb128 0x24
 7156 01ac 2E       		.uleb128 0x2e
 7157 01ad 01       		.byte	0x1
 7158 01ae 03       		.uleb128 0x3
 7159 01af 0E       		.uleb128 0xe
 7160 01b0 3A       		.uleb128 0x3a
 7161 01b1 0B       		.uleb128 0xb
 7162 01b2 3B       		.uleb128 0x3b
 7163 01b3 05       		.uleb128 0x5
 7164 01b4 27       		.uleb128 0x27
 7165 01b5 19       		.uleb128 0x19
 7166 01b6 49       		.uleb128 0x49
 7167 01b7 13       		.uleb128 0x13
 7168 01b8 20       		.uleb128 0x20
 7169 01b9 0B       		.uleb128 0xb
 7170 01ba 01       		.uleb128 0x1
 7171 01bb 13       		.uleb128 0x13
 7172 01bc 00       		.byte	0
 7173 01bd 00       		.byte	0
ARM GAS  C:\Users\haske\AppData\Local\Temp\cc9HFfJU.s 			page 149


 7174 01be 25       		.uleb128 0x25
 7175 01bf 05       		.uleb128 0x5
 7176 01c0 00       		.byte	0
 7177 01c1 03       		.uleb128 0x3
 7178 01c2 08       		.uleb128 0x8
 7179 01c3 3A       		.uleb128 0x3a
 7180 01c4 0B       		.uleb128 0xb
 7181 01c5 3B       		.uleb128 0x3b
 7182 01c6 05       		.uleb128 0x5
 7183 01c7 49       		.uleb128 0x49
 7184 01c8 13       		.uleb128 0x13
 7185 01c9 00       		.byte	0
 7186 01ca 00       		.byte	0
 7187 01cb 26       		.uleb128 0x26
 7188 01cc 34       		.uleb128 0x34
 7189 01cd 00       		.byte	0
 7190 01ce 03       		.uleb128 0x3
 7191 01cf 08       		.uleb128 0x8
 7192 01d0 3A       		.uleb128 0x3a
 7193 01d1 0B       		.uleb128 0xb
 7194 01d2 3B       		.uleb128 0x3b
 7195 01d3 05       		.uleb128 0x5
 7196 01d4 49       		.uleb128 0x49
 7197 01d5 13       		.uleb128 0x13
 7198 01d6 00       		.byte	0
 7199 01d7 00       		.byte	0
 7200 01d8 27       		.uleb128 0x27
 7201 01d9 34       		.uleb128 0x34
 7202 01da 00       		.byte	0
 7203 01db 03       		.uleb128 0x3
 7204 01dc 0E       		.uleb128 0xe
 7205 01dd 3A       		.uleb128 0x3a
 7206 01de 0B       		.uleb128 0xb
 7207 01df 3B       		.uleb128 0x3b
 7208 01e0 05       		.uleb128 0x5
 7209 01e1 49       		.uleb128 0x49
 7210 01e2 13       		.uleb128 0x13
 7211 01e3 00       		.byte	0
 7212 01e4 00       		.byte	0
 7213 01e5 28       		.uleb128 0x28
 7214 01e6 2E       		.uleb128 0x2e
 7215 01e7 01       		.byte	0x1
 7216 01e8 03       		.uleb128 0x3
 7217 01e9 0E       		.uleb128 0xe
 7218 01ea 3A       		.uleb128 0x3a
 7219 01eb 0B       		.uleb128 0xb
 7220 01ec 3B       		.uleb128 0x3b
 7221 01ed 0B       		.uleb128 0xb
 7222 01ee 27       		.uleb128 0x27
 7223 01ef 19       		.uleb128 0x19
 7224 01f0 49       		.uleb128 0x49
 7225 01f1 13       		.uleb128 0x13
 7226 01f2 20       		.uleb128 0x20
 7227 01f3 0B       		.uleb128 0xb
 7228 01f4 01       		.uleb128 0x1
 7229 01f5 13       		.uleb128 0x13
 7230 01f6 00       		.byte	0
ARM GAS  C:\Users\haske\AppData\Local\Temp\cc9HFfJU.s 			page 150


 7231 01f7 00       		.byte	0
 7232 01f8 29       		.uleb128 0x29
 7233 01f9 05       		.uleb128 0x5
 7234 01fa 00       		.byte	0
 7235 01fb 03       		.uleb128 0x3
 7236 01fc 0E       		.uleb128 0xe
 7237 01fd 3A       		.uleb128 0x3a
 7238 01fe 0B       		.uleb128 0xb
 7239 01ff 3B       		.uleb128 0x3b
 7240 0200 0B       		.uleb128 0xb
 7241 0201 49       		.uleb128 0x49
 7242 0202 13       		.uleb128 0x13
 7243 0203 00       		.byte	0
 7244 0204 00       		.byte	0
 7245 0205 2A       		.uleb128 0x2a
 7246 0206 2E       		.uleb128 0x2e
 7247 0207 01       		.byte	0x1
 7248 0208 03       		.uleb128 0x3
 7249 0209 0E       		.uleb128 0xe
 7250 020a 3A       		.uleb128 0x3a
 7251 020b 0B       		.uleb128 0xb
 7252 020c 3B       		.uleb128 0x3b
 7253 020d 0B       		.uleb128 0xb
 7254 020e 27       		.uleb128 0x27
 7255 020f 19       		.uleb128 0x19
 7256 0210 11       		.uleb128 0x11
 7257 0211 01       		.uleb128 0x1
 7258 0212 12       		.uleb128 0x12
 7259 0213 06       		.uleb128 0x6
 7260 0214 40       		.uleb128 0x40
 7261 0215 18       		.uleb128 0x18
 7262 0216 9742     		.uleb128 0x2117
 7263 0218 19       		.uleb128 0x19
 7264 0219 01       		.uleb128 0x1
 7265 021a 13       		.uleb128 0x13
 7266 021b 00       		.byte	0
 7267 021c 00       		.byte	0
 7268 021d 2B       		.uleb128 0x2b
 7269 021e 05       		.uleb128 0x5
 7270 021f 00       		.byte	0
 7271 0220 03       		.uleb128 0x3
 7272 0221 08       		.uleb128 0x8
 7273 0222 3A       		.uleb128 0x3a
 7274 0223 0B       		.uleb128 0xb
 7275 0224 3B       		.uleb128 0x3b
 7276 0225 0B       		.uleb128 0xb
 7277 0226 49       		.uleb128 0x49
 7278 0227 13       		.uleb128 0x13
 7279 0228 02       		.uleb128 0x2
 7280 0229 18       		.uleb128 0x18
 7281 022a 00       		.byte	0
 7282 022b 00       		.byte	0
 7283 022c 2C       		.uleb128 0x2c
 7284 022d 05       		.uleb128 0x5
 7285 022e 00       		.byte	0
 7286 022f 03       		.uleb128 0x3
 7287 0230 0E       		.uleb128 0xe
ARM GAS  C:\Users\haske\AppData\Local\Temp\cc9HFfJU.s 			page 151


 7288 0231 3A       		.uleb128 0x3a
 7289 0232 0B       		.uleb128 0xb
 7290 0233 3B       		.uleb128 0x3b
 7291 0234 0B       		.uleb128 0xb
 7292 0235 49       		.uleb128 0x49
 7293 0236 13       		.uleb128 0x13
 7294 0237 02       		.uleb128 0x2
 7295 0238 18       		.uleb128 0x18
 7296 0239 00       		.byte	0
 7297 023a 00       		.byte	0
 7298 023b 2D       		.uleb128 0x2d
 7299 023c 05       		.uleb128 0x5
 7300 023d 00       		.byte	0
 7301 023e 03       		.uleb128 0x3
 7302 023f 0E       		.uleb128 0xe
 7303 0240 3A       		.uleb128 0x3a
 7304 0241 0B       		.uleb128 0xb
 7305 0242 3B       		.uleb128 0x3b
 7306 0243 0B       		.uleb128 0xb
 7307 0244 49       		.uleb128 0x49
 7308 0245 13       		.uleb128 0x13
 7309 0246 02       		.uleb128 0x2
 7310 0247 17       		.uleb128 0x17
 7311 0248 00       		.byte	0
 7312 0249 00       		.byte	0
 7313 024a 2E       		.uleb128 0x2e
 7314 024b 34       		.uleb128 0x34
 7315 024c 00       		.byte	0
 7316 024d 03       		.uleb128 0x3
 7317 024e 0E       		.uleb128 0xe
 7318 024f 3A       		.uleb128 0x3a
 7319 0250 0B       		.uleb128 0xb
 7320 0251 3B       		.uleb128 0x3b
 7321 0252 0B       		.uleb128 0xb
 7322 0253 49       		.uleb128 0x49
 7323 0254 13       		.uleb128 0x13
 7324 0255 02       		.uleb128 0x2
 7325 0256 18       		.uleb128 0x18
 7326 0257 00       		.byte	0
 7327 0258 00       		.byte	0
 7328 0259 2F       		.uleb128 0x2f
 7329 025a 34       		.uleb128 0x34
 7330 025b 00       		.byte	0
 7331 025c 03       		.uleb128 0x3
 7332 025d 08       		.uleb128 0x8
 7333 025e 3A       		.uleb128 0x3a
 7334 025f 0B       		.uleb128 0xb
 7335 0260 3B       		.uleb128 0x3b
 7336 0261 0B       		.uleb128 0xb
 7337 0262 49       		.uleb128 0x49
 7338 0263 13       		.uleb128 0x13
 7339 0264 02       		.uleb128 0x2
 7340 0265 17       		.uleb128 0x17
 7341 0266 00       		.byte	0
 7342 0267 00       		.byte	0
 7343 0268 30       		.uleb128 0x30
 7344 0269 0B       		.uleb128 0xb
ARM GAS  C:\Users\haske\AppData\Local\Temp\cc9HFfJU.s 			page 152


 7345 026a 01       		.byte	0x1
 7346 026b 11       		.uleb128 0x11
 7347 026c 01       		.uleb128 0x1
 7348 026d 12       		.uleb128 0x12
 7349 026e 06       		.uleb128 0x6
 7350 026f 00       		.byte	0
 7351 0270 00       		.byte	0
 7352 0271 31       		.uleb128 0x31
 7353 0272 34       		.uleb128 0x34
 7354 0273 00       		.byte	0
 7355 0274 03       		.uleb128 0x3
 7356 0275 0E       		.uleb128 0xe
 7357 0276 3A       		.uleb128 0x3a
 7358 0277 0B       		.uleb128 0xb
 7359 0278 3B       		.uleb128 0x3b
 7360 0279 0B       		.uleb128 0xb
 7361 027a 49       		.uleb128 0x49
 7362 027b 13       		.uleb128 0x13
 7363 027c 02       		.uleb128 0x2
 7364 027d 17       		.uleb128 0x17
 7365 027e 00       		.byte	0
 7366 027f 00       		.byte	0
 7367 0280 32       		.uleb128 0x32
 7368 0281 34       		.uleb128 0x34
 7369 0282 00       		.byte	0
 7370 0283 03       		.uleb128 0x3
 7371 0284 0E       		.uleb128 0xe
 7372 0285 3A       		.uleb128 0x3a
 7373 0286 0B       		.uleb128 0xb
 7374 0287 3B       		.uleb128 0x3b
 7375 0288 05       		.uleb128 0x5
 7376 0289 49       		.uleb128 0x49
 7377 028a 13       		.uleb128 0x13
 7378 028b 02       		.uleb128 0x2
 7379 028c 17       		.uleb128 0x17
 7380 028d 00       		.byte	0
 7381 028e 00       		.byte	0
 7382 028f 33       		.uleb128 0x33
 7383 0290 2E       		.uleb128 0x2e
 7384 0291 01       		.byte	0x1
 7385 0292 03       		.uleb128 0x3
 7386 0293 0E       		.uleb128 0xe
 7387 0294 3A       		.uleb128 0x3a
 7388 0295 0B       		.uleb128 0xb
 7389 0296 3B       		.uleb128 0x3b
 7390 0297 05       		.uleb128 0x5
 7391 0298 27       		.uleb128 0x27
 7392 0299 19       		.uleb128 0x19
 7393 029a 11       		.uleb128 0x11
 7394 029b 01       		.uleb128 0x1
 7395 029c 12       		.uleb128 0x12
 7396 029d 06       		.uleb128 0x6
 7397 029e 40       		.uleb128 0x40
 7398 029f 18       		.uleb128 0x18
 7399 02a0 9742     		.uleb128 0x2117
 7400 02a2 19       		.uleb128 0x19
 7401 02a3 01       		.uleb128 0x1
ARM GAS  C:\Users\haske\AppData\Local\Temp\cc9HFfJU.s 			page 153


 7402 02a4 13       		.uleb128 0x13
 7403 02a5 00       		.byte	0
 7404 02a6 00       		.byte	0
 7405 02a7 34       		.uleb128 0x34
 7406 02a8 05       		.uleb128 0x5
 7407 02a9 00       		.byte	0
 7408 02aa 03       		.uleb128 0x3
 7409 02ab 08       		.uleb128 0x8
 7410 02ac 3A       		.uleb128 0x3a
 7411 02ad 0B       		.uleb128 0xb
 7412 02ae 3B       		.uleb128 0x3b
 7413 02af 05       		.uleb128 0x5
 7414 02b0 49       		.uleb128 0x49
 7415 02b1 13       		.uleb128 0x13
 7416 02b2 02       		.uleb128 0x2
 7417 02b3 18       		.uleb128 0x18
 7418 02b4 00       		.byte	0
 7419 02b5 00       		.byte	0
 7420 02b6 35       		.uleb128 0x35
 7421 02b7 05       		.uleb128 0x5
 7422 02b8 00       		.byte	0
 7423 02b9 03       		.uleb128 0x3
 7424 02ba 08       		.uleb128 0x8
 7425 02bb 3A       		.uleb128 0x3a
 7426 02bc 0B       		.uleb128 0xb
 7427 02bd 3B       		.uleb128 0x3b
 7428 02be 05       		.uleb128 0x5
 7429 02bf 49       		.uleb128 0x49
 7430 02c0 13       		.uleb128 0x13
 7431 02c1 02       		.uleb128 0x2
 7432 02c2 17       		.uleb128 0x17
 7433 02c3 00       		.byte	0
 7434 02c4 00       		.byte	0
 7435 02c5 36       		.uleb128 0x36
 7436 02c6 05       		.uleb128 0x5
 7437 02c7 00       		.byte	0
 7438 02c8 03       		.uleb128 0x3
 7439 02c9 0E       		.uleb128 0xe
 7440 02ca 3A       		.uleb128 0x3a
 7441 02cb 0B       		.uleb128 0xb
 7442 02cc 3B       		.uleb128 0x3b
 7443 02cd 05       		.uleb128 0x5
 7444 02ce 49       		.uleb128 0x49
 7445 02cf 13       		.uleb128 0x13
 7446 02d0 02       		.uleb128 0x2
 7447 02d1 17       		.uleb128 0x17
 7448 02d2 00       		.byte	0
 7449 02d3 00       		.byte	0
 7450 02d4 37       		.uleb128 0x37
 7451 02d5 34       		.uleb128 0x34
 7452 02d6 00       		.byte	0
 7453 02d7 03       		.uleb128 0x3
 7454 02d8 08       		.uleb128 0x8
 7455 02d9 3A       		.uleb128 0x3a
 7456 02da 0B       		.uleb128 0xb
 7457 02db 3B       		.uleb128 0x3b
 7458 02dc 05       		.uleb128 0x5
ARM GAS  C:\Users\haske\AppData\Local\Temp\cc9HFfJU.s 			page 154


 7459 02dd 49       		.uleb128 0x49
 7460 02de 13       		.uleb128 0x13
 7461 02df 02       		.uleb128 0x2
 7462 02e0 17       		.uleb128 0x17
 7463 02e1 00       		.byte	0
 7464 02e2 00       		.byte	0
 7465 02e3 38       		.uleb128 0x38
 7466 02e4 0B       		.uleb128 0xb
 7467 02e5 01       		.byte	0x1
 7468 02e6 11       		.uleb128 0x11
 7469 02e7 01       		.uleb128 0x1
 7470 02e8 12       		.uleb128 0x12
 7471 02e9 06       		.uleb128 0x6
 7472 02ea 01       		.uleb128 0x1
 7473 02eb 13       		.uleb128 0x13
 7474 02ec 00       		.byte	0
 7475 02ed 00       		.byte	0
 7476 02ee 39       		.uleb128 0x39
 7477 02ef 898201   		.uleb128 0x4109
 7478 02f2 00       		.byte	0
 7479 02f3 11       		.uleb128 0x11
 7480 02f4 01       		.uleb128 0x1
 7481 02f5 31       		.uleb128 0x31
 7482 02f6 13       		.uleb128 0x13
 7483 02f7 00       		.byte	0
 7484 02f8 00       		.byte	0
 7485 02f9 3A       		.uleb128 0x3a
 7486 02fa 1D       		.uleb128 0x1d
 7487 02fb 01       		.byte	0x1
 7488 02fc 31       		.uleb128 0x31
 7489 02fd 13       		.uleb128 0x13
 7490 02fe 11       		.uleb128 0x11
 7491 02ff 01       		.uleb128 0x1
 7492 0300 12       		.uleb128 0x12
 7493 0301 06       		.uleb128 0x6
 7494 0302 58       		.uleb128 0x58
 7495 0303 0B       		.uleb128 0xb
 7496 0304 59       		.uleb128 0x59
 7497 0305 05       		.uleb128 0x5
 7498 0306 01       		.uleb128 0x1
 7499 0307 13       		.uleb128 0x13
 7500 0308 00       		.byte	0
 7501 0309 00       		.byte	0
 7502 030a 3B       		.uleb128 0x3b
 7503 030b 05       		.uleb128 0x5
 7504 030c 00       		.byte	0
 7505 030d 31       		.uleb128 0x31
 7506 030e 13       		.uleb128 0x13
 7507 030f 02       		.uleb128 0x2
 7508 0310 17       		.uleb128 0x17
 7509 0311 00       		.byte	0
 7510 0312 00       		.byte	0
 7511 0313 3C       		.uleb128 0x3c
 7512 0314 05       		.uleb128 0x5
 7513 0315 00       		.byte	0
 7514 0316 31       		.uleb128 0x31
 7515 0317 13       		.uleb128 0x13
ARM GAS  C:\Users\haske\AppData\Local\Temp\cc9HFfJU.s 			page 155


 7516 0318 00       		.byte	0
 7517 0319 00       		.byte	0
 7518 031a 3D       		.uleb128 0x3d
 7519 031b 34       		.uleb128 0x34
 7520 031c 00       		.byte	0
 7521 031d 31       		.uleb128 0x31
 7522 031e 13       		.uleb128 0x13
 7523 031f 00       		.byte	0
 7524 0320 00       		.byte	0
 7525 0321 3E       		.uleb128 0x3e
 7526 0322 34       		.uleb128 0x34
 7527 0323 00       		.byte	0
 7528 0324 31       		.uleb128 0x31
 7529 0325 13       		.uleb128 0x13
 7530 0326 02       		.uleb128 0x2
 7531 0327 17       		.uleb128 0x17
 7532 0328 00       		.byte	0
 7533 0329 00       		.byte	0
 7534 032a 3F       		.uleb128 0x3f
 7535 032b 1D       		.uleb128 0x1d
 7536 032c 01       		.byte	0x1
 7537 032d 31       		.uleb128 0x31
 7538 032e 13       		.uleb128 0x13
 7539 032f 11       		.uleb128 0x11
 7540 0330 01       		.uleb128 0x1
 7541 0331 12       		.uleb128 0x12
 7542 0332 06       		.uleb128 0x6
 7543 0333 58       		.uleb128 0x58
 7544 0334 0B       		.uleb128 0xb
 7545 0335 59       		.uleb128 0x59
 7546 0336 05       		.uleb128 0x5
 7547 0337 00       		.byte	0
 7548 0338 00       		.byte	0
 7549 0339 40       		.uleb128 0x40
 7550 033a 05       		.uleb128 0x5
 7551 033b 00       		.byte	0
 7552 033c 03       		.uleb128 0x3
 7553 033d 08       		.uleb128 0x8
 7554 033e 3A       		.uleb128 0x3a
 7555 033f 0B       		.uleb128 0xb
 7556 0340 3B       		.uleb128 0x3b
 7557 0341 0B       		.uleb128 0xb
 7558 0342 49       		.uleb128 0x49
 7559 0343 13       		.uleb128 0x13
 7560 0344 02       		.uleb128 0x2
 7561 0345 17       		.uleb128 0x17
 7562 0346 00       		.byte	0
 7563 0347 00       		.byte	0
 7564 0348 41       		.uleb128 0x41
 7565 0349 898201   		.uleb128 0x4109
 7566 034c 01       		.byte	0x1
 7567 034d 11       		.uleb128 0x11
 7568 034e 01       		.uleb128 0x1
 7569 034f 31       		.uleb128 0x31
 7570 0350 13       		.uleb128 0x13
 7571 0351 00       		.byte	0
 7572 0352 00       		.byte	0
ARM GAS  C:\Users\haske\AppData\Local\Temp\cc9HFfJU.s 			page 156


 7573 0353 42       		.uleb128 0x42
 7574 0354 8A8201   		.uleb128 0x410a
 7575 0357 00       		.byte	0
 7576 0358 02       		.uleb128 0x2
 7577 0359 18       		.uleb128 0x18
 7578 035a 9142     		.uleb128 0x2111
 7579 035c 18       		.uleb128 0x18
 7580 035d 00       		.byte	0
 7581 035e 00       		.byte	0
 7582 035f 43       		.uleb128 0x43
 7583 0360 2E       		.uleb128 0x2e
 7584 0361 01       		.byte	0x1
 7585 0362 3F       		.uleb128 0x3f
 7586 0363 19       		.uleb128 0x19
 7587 0364 03       		.uleb128 0x3
 7588 0365 0E       		.uleb128 0xe
 7589 0366 3A       		.uleb128 0x3a
 7590 0367 0B       		.uleb128 0xb
 7591 0368 3B       		.uleb128 0x3b
 7592 0369 0B       		.uleb128 0xb
 7593 036a 27       		.uleb128 0x27
 7594 036b 19       		.uleb128 0x19
 7595 036c 11       		.uleb128 0x11
 7596 036d 01       		.uleb128 0x1
 7597 036e 12       		.uleb128 0x12
 7598 036f 06       		.uleb128 0x6
 7599 0370 40       		.uleb128 0x40
 7600 0371 18       		.uleb128 0x18
 7601 0372 9742     		.uleb128 0x2117
 7602 0374 19       		.uleb128 0x19
 7603 0375 01       		.uleb128 0x1
 7604 0376 13       		.uleb128 0x13
 7605 0377 00       		.byte	0
 7606 0378 00       		.byte	0
 7607 0379 44       		.uleb128 0x44
 7608 037a 34       		.uleb128 0x34
 7609 037b 00       		.byte	0
 7610 037c 03       		.uleb128 0x3
 7611 037d 0E       		.uleb128 0xe
 7612 037e 3A       		.uleb128 0x3a
 7613 037f 0B       		.uleb128 0xb
 7614 0380 3B       		.uleb128 0x3b
 7615 0381 0B       		.uleb128 0xb
 7616 0382 49       		.uleb128 0x49
 7617 0383 13       		.uleb128 0x13
 7618 0384 00       		.byte	0
 7619 0385 00       		.byte	0
 7620 0386 45       		.uleb128 0x45
 7621 0387 1D       		.uleb128 0x1d
 7622 0388 01       		.byte	0x1
 7623 0389 31       		.uleb128 0x31
 7624 038a 13       		.uleb128 0x13
 7625 038b 11       		.uleb128 0x11
 7626 038c 01       		.uleb128 0x1
 7627 038d 12       		.uleb128 0x12
 7628 038e 06       		.uleb128 0x6
 7629 038f 58       		.uleb128 0x58
ARM GAS  C:\Users\haske\AppData\Local\Temp\cc9HFfJU.s 			page 157


 7630 0390 0B       		.uleb128 0xb
 7631 0391 59       		.uleb128 0x59
 7632 0392 0B       		.uleb128 0xb
 7633 0393 01       		.uleb128 0x1
 7634 0394 13       		.uleb128 0x13
 7635 0395 00       		.byte	0
 7636 0396 00       		.byte	0
 7637 0397 46       		.uleb128 0x46
 7638 0398 898201   		.uleb128 0x4109
 7639 039b 01       		.byte	0x1
 7640 039c 11       		.uleb128 0x11
 7641 039d 01       		.uleb128 0x1
 7642 039e 31       		.uleb128 0x31
 7643 039f 13       		.uleb128 0x13
 7644 03a0 01       		.uleb128 0x1
 7645 03a1 13       		.uleb128 0x13
 7646 03a2 00       		.byte	0
 7647 03a3 00       		.byte	0
 7648 03a4 47       		.uleb128 0x47
 7649 03a5 34       		.uleb128 0x34
 7650 03a6 00       		.byte	0
 7651 03a7 03       		.uleb128 0x3
 7652 03a8 0E       		.uleb128 0xe
 7653 03a9 3A       		.uleb128 0x3a
 7654 03aa 0B       		.uleb128 0xb
 7655 03ab 3B       		.uleb128 0x3b
 7656 03ac 0B       		.uleb128 0xb
 7657 03ad 49       		.uleb128 0x49
 7658 03ae 13       		.uleb128 0x13
 7659 03af 3F       		.uleb128 0x3f
 7660 03b0 19       		.uleb128 0x19
 7661 03b1 3C       		.uleb128 0x3c
 7662 03b2 19       		.uleb128 0x19
 7663 03b3 00       		.byte	0
 7664 03b4 00       		.byte	0
 7665 03b5 48       		.uleb128 0x48
 7666 03b6 2E       		.uleb128 0x2e
 7667 03b7 00       		.byte	0
 7668 03b8 3F       		.uleb128 0x3f
 7669 03b9 19       		.uleb128 0x19
 7670 03ba 3C       		.uleb128 0x3c
 7671 03bb 19       		.uleb128 0x19
 7672 03bc 6E       		.uleb128 0x6e
 7673 03bd 0E       		.uleb128 0xe
 7674 03be 03       		.uleb128 0x3
 7675 03bf 0E       		.uleb128 0xe
 7676 03c0 3A       		.uleb128 0x3a
 7677 03c1 0B       		.uleb128 0xb
 7678 03c2 3B       		.uleb128 0x3b
 7679 03c3 0B       		.uleb128 0xb
 7680 03c4 00       		.byte	0
 7681 03c5 00       		.byte	0
 7682 03c6 00       		.byte	0
 7683              		.section	.debug_loc,"",%progbits
 7684              	.Ldebug_loc0:
 7685              	.LLST0:
 7686 0000 00000000 		.4byte	.LVL0
ARM GAS  C:\Users\haske\AppData\Local\Temp\cc9HFfJU.s 			page 158


 7687 0004 1E000000 		.4byte	.LVL2
 7688 0008 0100     		.2byte	0x1
 7689 000a 53       		.byte	0x53
 7690 000b 1E000000 		.4byte	.LVL2
 7691 000f 86000000 		.4byte	.LFE161
 7692 0013 0400     		.2byte	0x4
 7693 0015 F3       		.byte	0xf3
 7694 0016 01       		.uleb128 0x1
 7695 0017 53       		.byte	0x53
 7696 0018 9F       		.byte	0x9f
 7697 0019 00000000 		.4byte	0
 7698 001d 00000000 		.4byte	0
 7699              	.LLST1:
 7700 0021 00000000 		.4byte	.LVL0
 7701 0025 1E000000 		.4byte	.LVL2
 7702 0029 0200     		.2byte	0x2
 7703 002b 91       		.byte	0x91
 7704 002c 00       		.sleb128 0
 7705 002d 26000000 		.4byte	.LVL3
 7706 0031 36000000 		.4byte	.LVL6
 7707 0035 0100     		.2byte	0x1
 7708 0037 59       		.byte	0x59
 7709 0038 36000000 		.4byte	.LVL6
 7710 003c 7A000000 		.4byte	.LVL12
 7711 0040 0B00     		.2byte	0xb
 7712 0042 77       		.byte	0x77
 7713 0043 00       		.sleb128 0
 7714 0044 74       		.byte	0x74
 7715 0045 00       		.sleb128 0
 7716 0046 1E       		.byte	0x1e
 7717 0047 38       		.byte	0x38
 7718 0048 26       		.byte	0x26
 7719 0049 7C       		.byte	0x7c
 7720 004a 00       		.sleb128 0
 7721 004b 22       		.byte	0x22
 7722 004c 9F       		.byte	0x9f
 7723 004d 7A000000 		.4byte	.LVL12
 7724 0051 7C000000 		.4byte	.LVL13
 7725 0055 0B00     		.2byte	0xb
 7726 0057 74       		.byte	0x74
 7727 0058 7F       		.sleb128 -1
 7728 0059 77       		.byte	0x77
 7729 005a 00       		.sleb128 0
 7730 005b 1E       		.byte	0x1e
 7731 005c 38       		.byte	0x38
 7732 005d 26       		.byte	0x26
 7733 005e 7C       		.byte	0x7c
 7734 005f 00       		.sleb128 0
 7735 0060 22       		.byte	0x22
 7736 0061 9F       		.byte	0x9f
 7737 0062 00000000 		.4byte	0
 7738 0066 00000000 		.4byte	0
 7739              	.LLST2:
 7740 006a 00000000 		.4byte	.LVL0
 7741 006e 1E000000 		.4byte	.LVL2
 7742 0072 0200     		.2byte	0x2
 7743 0074 91       		.byte	0x91
ARM GAS  C:\Users\haske\AppData\Local\Temp\cc9HFfJU.s 			page 159


 7744 0075 04       		.sleb128 4
 7745 0076 2E000000 		.4byte	.LVL4
 7746 007a 32000000 		.4byte	.LVL5
 7747 007e 0100     		.2byte	0x1
 7748 0080 5A       		.byte	0x5a
 7749 0081 32000000 		.4byte	.LVL5
 7750 0085 7A000000 		.4byte	.LVL12
 7751 0089 0B00     		.2byte	0xb
 7752 008b 76       		.byte	0x76
 7753 008c 00       		.sleb128 0
 7754 008d 74       		.byte	0x74
 7755 008e 00       		.sleb128 0
 7756 008f 1E       		.byte	0x1e
 7757 0090 38       		.byte	0x38
 7758 0091 26       		.byte	0x26
 7759 0092 7E       		.byte	0x7e
 7760 0093 00       		.sleb128 0
 7761 0094 22       		.byte	0x22
 7762 0095 9F       		.byte	0x9f
 7763 0096 7A000000 		.4byte	.LVL12
 7764 009a 7C000000 		.4byte	.LVL13
 7765 009e 0B00     		.2byte	0xb
 7766 00a0 74       		.byte	0x74
 7767 00a1 7F       		.sleb128 -1
 7768 00a2 76       		.byte	0x76
 7769 00a3 00       		.sleb128 0
 7770 00a4 1E       		.byte	0x1e
 7771 00a5 38       		.byte	0x38
 7772 00a6 26       		.byte	0x26
 7773 00a7 7E       		.byte	0x7e
 7774 00a8 00       		.sleb128 0
 7775 00a9 22       		.byte	0x22
 7776 00aa 9F       		.byte	0x9f
 7777 00ab 00000000 		.4byte	0
 7778 00af 00000000 		.4byte	0
 7779              	.LLST3:
 7780 00b3 18000000 		.4byte	.LVL1
 7781 00b7 1E000000 		.4byte	.LVL2
 7782 00bb 0200     		.2byte	0x2
 7783 00bd 30       		.byte	0x30
 7784 00be 9F       		.byte	0x9f
 7785 00bf 1E000000 		.4byte	.LVL2
 7786 00c3 7A000000 		.4byte	.LVL12
 7787 00c7 0100     		.2byte	0x1
 7788 00c9 54       		.byte	0x54
 7789 00ca 7C000000 		.4byte	.LVL13
 7790 00ce 86000000 		.4byte	.LFE161
 7791 00d2 0100     		.2byte	0x1
 7792 00d4 54       		.byte	0x54
 7793 00d5 00000000 		.4byte	0
 7794 00d9 00000000 		.4byte	0
 7795              	.LLST4:
 7796 00dd 2E000000 		.4byte	.LVL4
 7797 00e1 36000000 		.4byte	.LVL6
 7798 00e5 0500     		.2byte	0x5
 7799 00e7 79       		.byte	0x79
 7800 00e8 00       		.sleb128 0
ARM GAS  C:\Users\haske\AppData\Local\Temp\cc9HFfJU.s 			page 160


 7801 00e9 38       		.byte	0x38
 7802 00ea 26       		.byte	0x26
 7803 00eb 9F       		.byte	0x9f
 7804 00ec 36000000 		.4byte	.LVL6
 7805 00f0 4A000000 		.4byte	.LVL7
 7806 00f4 0100     		.2byte	0x1
 7807 00f6 59       		.byte	0x59
 7808 00f7 4A000000 		.4byte	.LVL7
 7809 00fb 50000000 		.4byte	.LVL8
 7810 00ff 0D00     		.2byte	0xd
 7811 0101 77       		.byte	0x77
 7812 0102 00       		.sleb128 0
 7813 0103 74       		.byte	0x74
 7814 0104 00       		.sleb128 0
 7815 0105 1E       		.byte	0x1e
 7816 0106 38       		.byte	0x38
 7817 0107 26       		.byte	0x26
 7818 0108 7C       		.byte	0x7c
 7819 0109 00       		.sleb128 0
 7820 010a 22       		.byte	0x22
 7821 010b 38       		.byte	0x38
 7822 010c 26       		.byte	0x26
 7823 010d 9F       		.byte	0x9f
 7824 010e 50000000 		.4byte	.LVL8
 7825 0112 56000000 		.4byte	.LVL9
 7826 0116 0100     		.2byte	0x1
 7827 0118 59       		.byte	0x59
 7828 0119 56000000 		.4byte	.LVL9
 7829 011d 7A000000 		.4byte	.LVL12
 7830 0121 0D00     		.2byte	0xd
 7831 0123 77       		.byte	0x77
 7832 0124 00       		.sleb128 0
 7833 0125 74       		.byte	0x74
 7834 0126 00       		.sleb128 0
 7835 0127 1E       		.byte	0x1e
 7836 0128 38       		.byte	0x38
 7837 0129 26       		.byte	0x26
 7838 012a 7C       		.byte	0x7c
 7839 012b 00       		.sleb128 0
 7840 012c 22       		.byte	0x22
 7841 012d 38       		.byte	0x38
 7842 012e 26       		.byte	0x26
 7843 012f 9F       		.byte	0x9f
 7844 0130 7A000000 		.4byte	.LVL12
 7845 0134 7C000000 		.4byte	.LVL13
 7846 0138 0D00     		.2byte	0xd
 7847 013a 74       		.byte	0x74
 7848 013b 7F       		.sleb128 -1
 7849 013c 77       		.byte	0x77
 7850 013d 00       		.sleb128 0
 7851 013e 1E       		.byte	0x1e
 7852 013f 38       		.byte	0x38
 7853 0140 26       		.byte	0x26
 7854 0141 7C       		.byte	0x7c
 7855 0142 00       		.sleb128 0
 7856 0143 22       		.byte	0x22
 7857 0144 38       		.byte	0x38
ARM GAS  C:\Users\haske\AppData\Local\Temp\cc9HFfJU.s 			page 161


 7858 0145 26       		.byte	0x26
 7859 0146 9F       		.byte	0x9f
 7860 0147 00000000 		.4byte	0
 7861 014b 00000000 		.4byte	0
 7862              	.LLST5:
 7863 014f 32000000 		.4byte	.LVL5
 7864 0153 5E000000 		.4byte	.LVL10
 7865 0157 0100     		.2byte	0x1
 7866 0159 5A       		.byte	0x5a
 7867 015a 5E000000 		.4byte	.LVL10
 7868 015e 7A000000 		.4byte	.LVL12
 7869 0162 0D00     		.2byte	0xd
 7870 0164 76       		.byte	0x76
 7871 0165 00       		.sleb128 0
 7872 0166 74       		.byte	0x74
 7873 0167 00       		.sleb128 0
 7874 0168 1E       		.byte	0x1e
 7875 0169 38       		.byte	0x38
 7876 016a 26       		.byte	0x26
 7877 016b 7E       		.byte	0x7e
 7878 016c 00       		.sleb128 0
 7879 016d 22       		.byte	0x22
 7880 016e 38       		.byte	0x38
 7881 016f 26       		.byte	0x26
 7882 0170 9F       		.byte	0x9f
 7883 0171 7A000000 		.4byte	.LVL12
 7884 0175 7C000000 		.4byte	.LVL13
 7885 0179 0D00     		.2byte	0xd
 7886 017b 74       		.byte	0x74
 7887 017c 7F       		.sleb128 -1
 7888 017d 76       		.byte	0x76
 7889 017e 00       		.sleb128 0
 7890 017f 1E       		.byte	0x1e
 7891 0180 38       		.byte	0x38
 7892 0181 26       		.byte	0x26
 7893 0182 7E       		.byte	0x7e
 7894 0183 00       		.sleb128 0
 7895 0184 22       		.byte	0x22
 7896 0185 38       		.byte	0x38
 7897 0186 26       		.byte	0x26
 7898 0187 9F       		.byte	0x9f
 7899 0188 00000000 		.4byte	0
 7900 018c 00000000 		.4byte	0
 7901              	.LLST6:
 7902 0190 50000000 		.4byte	.LVL8
 7903 0194 5E000000 		.4byte	.LVL10
 7904 0198 0100     		.2byte	0x1
 7905 019a 50       		.byte	0x50
 7906 019b 5E000000 		.4byte	.LVL10
 7907 019f 78000000 		.4byte	.LVL11
 7908 01a3 0100     		.2byte	0x1
 7909 01a5 5A       		.byte	0x5a
 7910 01a6 00000000 		.4byte	0
 7911 01aa 00000000 		.4byte	0
 7912              	.LLST7:
 7913 01ae 00000000 		.4byte	.LVL14
 7914 01b2 22000000 		.4byte	.LVL16
ARM GAS  C:\Users\haske\AppData\Local\Temp\cc9HFfJU.s 			page 162


 7915 01b6 0200     		.2byte	0x2
 7916 01b8 91       		.byte	0x91
 7917 01b9 00       		.sleb128 0
 7918 01ba 2A000000 		.4byte	.LVL17
 7919 01be 36000000 		.4byte	.LVL20
 7920 01c2 0100     		.2byte	0x1
 7921 01c4 55       		.byte	0x55
 7922 01c5 36000000 		.4byte	.LVL20
 7923 01c9 68000000 		.4byte	.LVL29
 7924 01cd 0B00     		.2byte	0xb
 7925 01cf 7C       		.byte	0x7c
 7926 01d0 00       		.sleb128 0
 7927 01d1 74       		.byte	0x74
 7928 01d2 00       		.sleb128 0
 7929 01d3 1E       		.byte	0x1e
 7930 01d4 38       		.byte	0x38
 7931 01d5 26       		.byte	0x26
 7932 01d6 79       		.byte	0x79
 7933 01d7 00       		.sleb128 0
 7934 01d8 22       		.byte	0x22
 7935 01d9 9F       		.byte	0x9f
 7936 01da 68000000 		.4byte	.LVL29
 7937 01de 6A000000 		.4byte	.LVL30
 7938 01e2 0B00     		.2byte	0xb
 7939 01e4 74       		.byte	0x74
 7940 01e5 7F       		.sleb128 -1
 7941 01e6 7C       		.byte	0x7c
 7942 01e7 00       		.sleb128 0
 7943 01e8 1E       		.byte	0x1e
 7944 01e9 38       		.byte	0x38
 7945 01ea 26       		.byte	0x26
 7946 01eb 79       		.byte	0x79
 7947 01ec 00       		.sleb128 0
 7948 01ed 22       		.byte	0x22
 7949 01ee 9F       		.byte	0x9f
 7950 01ef 00000000 		.4byte	0
 7951 01f3 00000000 		.4byte	0
 7952              	.LLST8:
 7953 01f7 00000000 		.4byte	.LVL14
 7954 01fb 22000000 		.4byte	.LVL16
 7955 01ff 0200     		.2byte	0x2
 7956 0201 91       		.byte	0x91
 7957 0202 04       		.sleb128 4
 7958 0203 32000000 		.4byte	.LVL18
 7959 0207 34000000 		.4byte	.LVL19
 7960 020b 0100     		.2byte	0x1
 7961 020d 56       		.byte	0x56
 7962 020e 34000000 		.4byte	.LVL19
 7963 0212 68000000 		.4byte	.LVL29
 7964 0216 0B00     		.2byte	0xb
 7965 0218 7E       		.byte	0x7e
 7966 0219 00       		.sleb128 0
 7967 021a 74       		.byte	0x74
 7968 021b 00       		.sleb128 0
 7969 021c 1E       		.byte	0x1e
 7970 021d 38       		.byte	0x38
 7971 021e 26       		.byte	0x26
ARM GAS  C:\Users\haske\AppData\Local\Temp\cc9HFfJU.s 			page 163


 7972 021f 78       		.byte	0x78
 7973 0220 00       		.sleb128 0
 7974 0221 22       		.byte	0x22
 7975 0222 9F       		.byte	0x9f
 7976 0223 68000000 		.4byte	.LVL29
 7977 0227 6A000000 		.4byte	.LVL30
 7978 022b 0B00     		.2byte	0xb
 7979 022d 74       		.byte	0x74
 7980 022e 7F       		.sleb128 -1
 7981 022f 7E       		.byte	0x7e
 7982 0230 00       		.sleb128 0
 7983 0231 1E       		.byte	0x1e
 7984 0232 38       		.byte	0x38
 7985 0233 26       		.byte	0x26
 7986 0234 78       		.byte	0x78
 7987 0235 00       		.sleb128 0
 7988 0236 22       		.byte	0x22
 7989 0237 9F       		.byte	0x9f
 7990 0238 00000000 		.4byte	0
 7991 023c 00000000 		.4byte	0
 7992              	.LLST9:
 7993 0240 1E000000 		.4byte	.LVL15
 7994 0244 22000000 		.4byte	.LVL16
 7995 0248 0200     		.2byte	0x2
 7996 024a 30       		.byte	0x30
 7997 024b 9F       		.byte	0x9f
 7998 024c 22000000 		.4byte	.LVL16
 7999 0250 68000000 		.4byte	.LVL29
 8000 0254 0100     		.2byte	0x1
 8001 0256 54       		.byte	0x54
 8002 0257 6A000000 		.4byte	.LVL30
 8003 025b 72000000 		.4byte	.LFE162
 8004 025f 0100     		.2byte	0x1
 8005 0261 54       		.byte	0x54
 8006 0262 00000000 		.4byte	0
 8007 0266 00000000 		.4byte	0
 8008              	.LLST10:
 8009 026a 32000000 		.4byte	.LVL18
 8010 026e 36000000 		.4byte	.LVL20
 8011 0272 0500     		.2byte	0x5
 8012 0274 75       		.byte	0x75
 8013 0275 00       		.sleb128 0
 8014 0276 38       		.byte	0x38
 8015 0277 26       		.byte	0x26
 8016 0278 9F       		.byte	0x9f
 8017 0279 36000000 		.4byte	.LVL20
 8018 027d 46000000 		.4byte	.LVL21
 8019 0281 0100     		.2byte	0x1
 8020 0283 55       		.byte	0x55
 8021 0284 46000000 		.4byte	.LVL21
 8022 0288 4C000000 		.4byte	.LVL22
 8023 028c 0D00     		.2byte	0xd
 8024 028e 7C       		.byte	0x7c
 8025 028f 00       		.sleb128 0
 8026 0290 74       		.byte	0x74
 8027 0291 00       		.sleb128 0
 8028 0292 1E       		.byte	0x1e
ARM GAS  C:\Users\haske\AppData\Local\Temp\cc9HFfJU.s 			page 164


 8029 0293 38       		.byte	0x38
 8030 0294 26       		.byte	0x26
 8031 0295 79       		.byte	0x79
 8032 0296 00       		.sleb128 0
 8033 0297 22       		.byte	0x22
 8034 0298 38       		.byte	0x38
 8035 0299 26       		.byte	0x26
 8036 029a 9F       		.byte	0x9f
 8037 029b 4C000000 		.4byte	.LVL22
 8038 029f 50000000 		.4byte	.LVL23
 8039 02a3 0100     		.2byte	0x1
 8040 02a5 55       		.byte	0x55
 8041 02a6 50000000 		.4byte	.LVL23
 8042 02aa 68000000 		.4byte	.LVL29
 8043 02ae 0D00     		.2byte	0xd
 8044 02b0 7C       		.byte	0x7c
 8045 02b1 00       		.sleb128 0
 8046 02b2 74       		.byte	0x74
 8047 02b3 00       		.sleb128 0
 8048 02b4 1E       		.byte	0x1e
 8049 02b5 38       		.byte	0x38
 8050 02b6 26       		.byte	0x26
 8051 02b7 79       		.byte	0x79
 8052 02b8 00       		.sleb128 0
 8053 02b9 22       		.byte	0x22
 8054 02ba 38       		.byte	0x38
 8055 02bb 26       		.byte	0x26
 8056 02bc 9F       		.byte	0x9f
 8057 02bd 68000000 		.4byte	.LVL29
 8058 02c1 6A000000 		.4byte	.LVL30
 8059 02c5 0D00     		.2byte	0xd
 8060 02c7 74       		.byte	0x74
 8061 02c8 7F       		.sleb128 -1
 8062 02c9 7C       		.byte	0x7c
 8063 02ca 00       		.sleb128 0
 8064 02cb 1E       		.byte	0x1e
 8065 02cc 38       		.byte	0x38
 8066 02cd 26       		.byte	0x26
 8067 02ce 79       		.byte	0x79
 8068 02cf 00       		.sleb128 0
 8069 02d0 22       		.byte	0x22
 8070 02d1 38       		.byte	0x38
 8071 02d2 26       		.byte	0x26
 8072 02d3 9F       		.byte	0x9f
 8073 02d4 00000000 		.4byte	0
 8074 02d8 00000000 		.4byte	0
 8075              	.LLST11:
 8076 02dc 34000000 		.4byte	.LVL19
 8077 02e0 54000000 		.4byte	.LVL24
 8078 02e4 0100     		.2byte	0x1
 8079 02e6 56       		.byte	0x56
 8080 02e7 54000000 		.4byte	.LVL24
 8081 02eb 68000000 		.4byte	.LVL29
 8082 02ef 0D00     		.2byte	0xd
 8083 02f1 7E       		.byte	0x7e
 8084 02f2 00       		.sleb128 0
 8085 02f3 74       		.byte	0x74
ARM GAS  C:\Users\haske\AppData\Local\Temp\cc9HFfJU.s 			page 165


 8086 02f4 00       		.sleb128 0
 8087 02f5 1E       		.byte	0x1e
 8088 02f6 38       		.byte	0x38
 8089 02f7 26       		.byte	0x26
 8090 02f8 78       		.byte	0x78
 8091 02f9 00       		.sleb128 0
 8092 02fa 22       		.byte	0x22
 8093 02fb 38       		.byte	0x38
 8094 02fc 26       		.byte	0x26
 8095 02fd 9F       		.byte	0x9f
 8096 02fe 68000000 		.4byte	.LVL29
 8097 0302 6A000000 		.4byte	.LVL30
 8098 0306 0D00     		.2byte	0xd
 8099 0308 74       		.byte	0x74
 8100 0309 7F       		.sleb128 -1
 8101 030a 7E       		.byte	0x7e
 8102 030b 00       		.sleb128 0
 8103 030c 1E       		.byte	0x1e
 8104 030d 38       		.byte	0x38
 8105 030e 26       		.byte	0x26
 8106 030f 78       		.byte	0x78
 8107 0310 00       		.sleb128 0
 8108 0311 22       		.byte	0x22
 8109 0312 38       		.byte	0x38
 8110 0313 26       		.byte	0x26
 8111 0314 9F       		.byte	0x9f
 8112 0315 00000000 		.4byte	0
 8113 0319 00000000 		.4byte	0
 8114              	.LLST12:
 8115 031d 4C000000 		.4byte	.LVL22
 8116 0321 50000000 		.4byte	.LVL23
 8117 0325 0100     		.2byte	0x1
 8118 0327 50       		.byte	0x50
 8119 0328 50000000 		.4byte	.LVL23
 8120 032c 60000000 		.4byte	.LVL26
 8121 0330 0800     		.2byte	0x8
 8122 0332 75       		.byte	0x75
 8123 0333 00       		.sleb128 0
 8124 0334 31       		.byte	0x31
 8125 0335 24       		.byte	0x24
 8126 0336 70       		.byte	0x70
 8127 0337 00       		.sleb128 0
 8128 0338 22       		.byte	0x22
 8129 0339 9F       		.byte	0x9f
 8130 033a 60000000 		.4byte	.LVL26
 8131 033e 66000000 		.4byte	.LVL28
 8132 0342 2200     		.2byte	0x22
 8133 0344 7E       		.byte	0x7e
 8134 0345 00       		.sleb128 0
 8135 0346 74       		.byte	0x74
 8136 0347 00       		.sleb128 0
 8137 0348 1E       		.byte	0x1e
 8138 0349 38       		.byte	0x38
 8139 034a 26       		.byte	0x26
 8140 034b 78       		.byte	0x78
 8141 034c 00       		.sleb128 0
 8142 034d 22       		.byte	0x22
ARM GAS  C:\Users\haske\AppData\Local\Temp\cc9HFfJU.s 			page 166


 8143 034e 38       		.byte	0x38
 8144 034f 26       		.byte	0x26
 8145 0350 73       		.byte	0x73
 8146 0351 00       		.sleb128 0
 8147 0352 1E       		.byte	0x1e
 8148 0353 7C       		.byte	0x7c
 8149 0354 00       		.sleb128 0
 8150 0355 74       		.byte	0x74
 8151 0356 00       		.sleb128 0
 8152 0357 1E       		.byte	0x1e
 8153 0358 38       		.byte	0x38
 8154 0359 26       		.byte	0x26
 8155 035a 79       		.byte	0x79
 8156 035b 00       		.sleb128 0
 8157 035c 22       		.byte	0x22
 8158 035d 38       		.byte	0x38
 8159 035e 26       		.byte	0x26
 8160 035f 22       		.byte	0x22
 8161 0360 31       		.byte	0x31
 8162 0361 24       		.byte	0x24
 8163 0362 70       		.byte	0x70
 8164 0363 00       		.sleb128 0
 8165 0364 22       		.byte	0x22
 8166 0365 9F       		.byte	0x9f
 8167 0366 00000000 		.4byte	0
 8168 036a 00000000 		.4byte	0
 8169              	.LLST13:
 8170 036e 5C000000 		.4byte	.LVL25
 8171 0372 60000000 		.4byte	.LVL26
 8172 0376 0800     		.2byte	0x8
 8173 0378 76       		.byte	0x76
 8174 0379 00       		.sleb128 0
 8175 037a 31       		.byte	0x31
 8176 037b 24       		.byte	0x24
 8177 037c 70       		.byte	0x70
 8178 037d 00       		.sleb128 0
 8179 037e 22       		.byte	0x22
 8180 037f 9F       		.byte	0x9f
 8181 0380 60000000 		.4byte	.LVL26
 8182 0384 62000000 		.4byte	.LVL27
 8183 0388 0600     		.2byte	0x6
 8184 038a 70       		.byte	0x70
 8185 038b 00       		.sleb128 0
 8186 038c 75       		.byte	0x75
 8187 038d 00       		.sleb128 0
 8188 038e 22       		.byte	0x22
 8189 038f 9F       		.byte	0x9f
 8190 0390 62000000 		.4byte	.LVL27
 8191 0394 66000000 		.4byte	.LVL28
 8192 0398 2500     		.2byte	0x25
 8193 039a 7E       		.byte	0x7e
 8194 039b 00       		.sleb128 0
 8195 039c 74       		.byte	0x74
 8196 039d 00       		.sleb128 0
 8197 039e 1E       		.byte	0x1e
 8198 039f 38       		.byte	0x38
 8199 03a0 26       		.byte	0x26
ARM GAS  C:\Users\haske\AppData\Local\Temp\cc9HFfJU.s 			page 167


 8200 03a1 78       		.byte	0x78
 8201 03a2 00       		.sleb128 0
 8202 03a3 22       		.byte	0x22
 8203 03a4 38       		.byte	0x38
 8204 03a5 26       		.byte	0x26
 8205 03a6 73       		.byte	0x73
 8206 03a7 00       		.sleb128 0
 8207 03a8 1E       		.byte	0x1e
 8208 03a9 7C       		.byte	0x7c
 8209 03aa 00       		.sleb128 0
 8210 03ab 74       		.byte	0x74
 8211 03ac 00       		.sleb128 0
 8212 03ad 1E       		.byte	0x1e
 8213 03ae 38       		.byte	0x38
 8214 03af 26       		.byte	0x26
 8215 03b0 79       		.byte	0x79
 8216 03b1 00       		.sleb128 0
 8217 03b2 22       		.byte	0x22
 8218 03b3 38       		.byte	0x38
 8219 03b4 26       		.byte	0x26
 8220 03b5 22       		.byte	0x22
 8221 03b6 76       		.byte	0x76
 8222 03b7 00       		.sleb128 0
 8223 03b8 31       		.byte	0x31
 8224 03b9 24       		.byte	0x24
 8225 03ba 22       		.byte	0x22
 8226 03bb 70       		.byte	0x70
 8227 03bc 00       		.sleb128 0
 8228 03bd 22       		.byte	0x22
 8229 03be 9F       		.byte	0x9f
 8230 03bf 00000000 		.4byte	0
 8231 03c3 00000000 		.4byte	0
 8232              	.LLST14:
 8233 03c7 00000000 		.4byte	.LVL31
 8234 03cb 10000000 		.4byte	.LVL32
 8235 03cf 0100     		.2byte	0x1
 8236 03d1 51       		.byte	0x51
 8237 03d2 10000000 		.4byte	.LVL32
 8238 03d6 1A000000 		.4byte	.LVL35
 8239 03da 0400     		.2byte	0x4
 8240 03dc F3       		.byte	0xf3
 8241 03dd 01       		.uleb128 0x1
 8242 03de 51       		.byte	0x51
 8243 03df 9F       		.byte	0x9f
 8244 03e0 1A000000 		.4byte	.LVL35
 8245 03e4 30000000 		.4byte	.LVL38
 8246 03e8 0100     		.2byte	0x1
 8247 03ea 51       		.byte	0x51
 8248 03eb 30000000 		.4byte	.LVL38
 8249 03ef 32000000 		.4byte	.LVL39
 8250 03f3 0D00     		.2byte	0xd
 8251 03f5 F3       		.byte	0xf3
 8252 03f6 01       		.uleb128 0x1
 8253 03f7 51       		.byte	0x51
 8254 03f8 70       		.byte	0x70
 8255 03f9 28       		.sleb128 40
 8256 03fa 94       		.byte	0x94
ARM GAS  C:\Users\haske\AppData\Local\Temp\cc9HFfJU.s 			page 168


 8257 03fb 02       		.byte	0x2
 8258 03fc 40       		.byte	0x40
 8259 03fd 24       		.byte	0x24
 8260 03fe 40       		.byte	0x40
 8261 03ff 26       		.byte	0x26
 8262 0400 1C       		.byte	0x1c
 8263 0401 9F       		.byte	0x9f
 8264 0402 40000000 		.4byte	.LVL42
 8265 0406 68000000 		.4byte	.LVL45
 8266 040a 0100     		.2byte	0x1
 8267 040c 51       		.byte	0x51
 8268 040d 74000000 		.4byte	.LVL46
 8269 0411 98000000 		.4byte	.LVL49
 8270 0415 0100     		.2byte	0x1
 8271 0417 51       		.byte	0x51
 8272 0418 00000000 		.4byte	0
 8273 041c 00000000 		.4byte	0
 8274              	.LLST15:
 8275 0420 00000000 		.4byte	.LVL31
 8276 0424 14000000 		.4byte	.LVL33
 8277 0428 0100     		.2byte	0x1
 8278 042a 52       		.byte	0x52
 8279 042b 14000000 		.4byte	.LVL33
 8280 042f 1A000000 		.4byte	.LVL35
 8281 0433 0400     		.2byte	0x4
 8282 0435 F3       		.byte	0xf3
 8283 0436 01       		.uleb128 0x1
 8284 0437 52       		.byte	0x52
 8285 0438 9F       		.byte	0x9f
 8286 0439 1A000000 		.4byte	.LVL35
 8287 043d 3A000000 		.4byte	.LVL41
 8288 0441 0100     		.2byte	0x1
 8289 0443 52       		.byte	0x52
 8290 0444 40000000 		.4byte	.LVL42
 8291 0448 64000000 		.4byte	.LVL44
 8292 044c 0100     		.2byte	0x1
 8293 044e 52       		.byte	0x52
 8294 044f 74000000 		.4byte	.LVL46
 8295 0453 94000000 		.4byte	.LVL48
 8296 0457 0100     		.2byte	0x1
 8297 0459 52       		.byte	0x52
 8298 045a 00000000 		.4byte	0
 8299 045e 00000000 		.4byte	0
 8300              	.LLST16:
 8301 0462 00000000 		.4byte	.LVL31
 8302 0466 16000000 		.4byte	.LVL34
 8303 046a 0100     		.2byte	0x1
 8304 046c 53       		.byte	0x53
 8305 046d 16000000 		.4byte	.LVL34
 8306 0471 1A000000 		.4byte	.LVL35
 8307 0475 0400     		.2byte	0x4
 8308 0477 F3       		.byte	0xf3
 8309 0478 01       		.uleb128 0x1
 8310 0479 53       		.byte	0x53
 8311 047a 9F       		.byte	0x9f
 8312 047b 1A000000 		.4byte	.LVL35
 8313 047f 34000000 		.4byte	.LVL40
ARM GAS  C:\Users\haske\AppData\Local\Temp\cc9HFfJU.s 			page 169


 8314 0483 0100     		.2byte	0x1
 8315 0485 53       		.byte	0x53
 8316 0486 34000000 		.4byte	.LVL40
 8317 048a 40000000 		.4byte	.LVL42
 8318 048e 0400     		.2byte	0x4
 8319 0490 F3       		.byte	0xf3
 8320 0491 01       		.uleb128 0x1
 8321 0492 53       		.byte	0x53
 8322 0493 9F       		.byte	0x9f
 8323 0494 40000000 		.4byte	.LVL42
 8324 0498 5E000000 		.4byte	.LVL43
 8325 049c 0100     		.2byte	0x1
 8326 049e 53       		.byte	0x53
 8327 049f 5E000000 		.4byte	.LVL43
 8328 04a3 74000000 		.4byte	.LVL46
 8329 04a7 0400     		.2byte	0x4
 8330 04a9 F3       		.byte	0xf3
 8331 04aa 01       		.uleb128 0x1
 8332 04ab 53       		.byte	0x53
 8333 04ac 9F       		.byte	0x9f
 8334 04ad 74000000 		.4byte	.LVL46
 8335 04b1 90000000 		.4byte	.LVL47
 8336 04b5 0100     		.2byte	0x1
 8337 04b7 53       		.byte	0x53
 8338 04b8 90000000 		.4byte	.LVL47
 8339 04bc AC000000 		.4byte	.LFE164
 8340 04c0 0400     		.2byte	0x4
 8341 04c2 F3       		.byte	0xf3
 8342 04c3 01       		.uleb128 0x1
 8343 04c4 53       		.byte	0x53
 8344 04c5 9F       		.byte	0x9f
 8345 04c6 00000000 		.4byte	0
 8346 04ca 00000000 		.4byte	0
 8347              	.LLST17:
 8348 04ce 00000000 		.4byte	.LVL31
 8349 04d2 AA000000 		.4byte	.LVL50
 8350 04d6 0200     		.2byte	0x2
 8351 04d8 91       		.byte	0x91
 8352 04d9 00       		.sleb128 0
 8353 04da AA000000 		.4byte	.LVL50
 8354 04de AC000000 		.4byte	.LFE164
 8355 04e2 0200     		.2byte	0x2
 8356 04e4 7D       		.byte	0x7d
 8357 04e5 00       		.sleb128 0
 8358 04e6 00000000 		.4byte	0
 8359 04ea 00000000 		.4byte	0
 8360              	.LLST18:
 8361 04ee 00000000 		.4byte	.LVL51
 8362 04f2 63000000 		.4byte	.LVL57-1
 8363 04f6 0100     		.2byte	0x1
 8364 04f8 50       		.byte	0x50
 8365 04f9 63000000 		.4byte	.LVL57-1
 8366 04fd 76000000 		.4byte	.LVL60
 8367 0501 0300     		.2byte	0x3
 8368 0503 91       		.byte	0x91
 8369 0504 9C7F     		.sleb128 -100
 8370 0506 76000000 		.4byte	.LVL60
ARM GAS  C:\Users\haske\AppData\Local\Temp\cc9HFfJU.s 			page 170


 8371 050a 88000000 		.4byte	.LVL62
 8372 050e 0100     		.2byte	0x1
 8373 0510 50       		.byte	0x50
 8374 0511 88000000 		.4byte	.LVL62
 8375 0515 C4030000 		.4byte	.LVL168
 8376 0519 0300     		.2byte	0x3
 8377 051b 91       		.byte	0x91
 8378 051c 9C7F     		.sleb128 -100
 8379 051e C4030000 		.4byte	.LVL168
 8380 0522 C8030000 		.4byte	.LFE163
 8381 0526 0300     		.2byte	0x3
 8382 0528 7D       		.byte	0x7d
 8383 0529 9C7F     		.sleb128 -100
 8384 052b 00000000 		.4byte	0
 8385 052f 00000000 		.4byte	0
 8386              	.LLST19:
 8387 0533 00000000 		.4byte	.LVL51
 8388 0537 63000000 		.4byte	.LVL57-1
 8389 053b 0100     		.2byte	0x1
 8390 053d 51       		.byte	0x51
 8391 053e 63000000 		.4byte	.LVL57-1
 8392 0542 76000000 		.4byte	.LVL60
 8393 0546 0400     		.2byte	0x4
 8394 0548 F3       		.byte	0xf3
 8395 0549 01       		.uleb128 0x1
 8396 054a 51       		.byte	0x51
 8397 054b 9F       		.byte	0x9f
 8398 054c 76000000 		.4byte	.LVL60
 8399 0550 88000000 		.4byte	.LVL62
 8400 0554 0100     		.2byte	0x1
 8401 0556 51       		.byte	0x51
 8402 0557 88000000 		.4byte	.LVL62
 8403 055b C8030000 		.4byte	.LFE163
 8404 055f 0400     		.2byte	0x4
 8405 0561 F3       		.byte	0xf3
 8406 0562 01       		.uleb128 0x1
 8407 0563 51       		.byte	0x51
 8408 0564 9F       		.byte	0x9f
 8409 0565 00000000 		.4byte	0
 8410 0569 00000000 		.4byte	0
 8411              	.LLST20:
 8412 056d 00000000 		.4byte	.LVL51
 8413 0571 24000000 		.4byte	.LVL54
 8414 0575 0100     		.2byte	0x1
 8415 0577 52       		.byte	0x52
 8416 0578 24000000 		.4byte	.LVL54
 8417 057c C8030000 		.4byte	.LFE163
 8418 0580 0400     		.2byte	0x4
 8419 0582 F3       		.byte	0xf3
 8420 0583 01       		.uleb128 0x1
 8421 0584 52       		.byte	0x52
 8422 0585 9F       		.byte	0x9f
 8423 0586 00000000 		.4byte	0
 8424 058a 00000000 		.4byte	0
 8425              	.LLST21:
 8426 058e 00000000 		.4byte	.LVL51
 8427 0592 1E000000 		.4byte	.LVL52
ARM GAS  C:\Users\haske\AppData\Local\Temp\cc9HFfJU.s 			page 171


 8428 0596 0100     		.2byte	0x1
 8429 0598 53       		.byte	0x53
 8430 0599 1E000000 		.4byte	.LVL52
 8431 059d C8030000 		.4byte	.LFE163
 8432 05a1 0400     		.2byte	0x4
 8433 05a3 F3       		.byte	0xf3
 8434 05a4 01       		.uleb128 0x1
 8435 05a5 53       		.byte	0x53
 8436 05a6 9F       		.byte	0x9f
 8437 05a7 00000000 		.4byte	0
 8438 05ab 00000000 		.4byte	0
 8439              	.LLST22:
 8440 05af 00000000 		.4byte	.LVL51
 8441 05b3 90000000 		.4byte	.LVL63
 8442 05b7 0200     		.2byte	0x2
 8443 05b9 91       		.byte	0x91
 8444 05ba 00       		.sleb128 0
 8445 05bb 9A000000 		.4byte	.LVL64
 8446 05bf C0000000 		.4byte	.LVL73
 8447 05c3 0100     		.2byte	0x1
 8448 05c5 57       		.byte	0x57
 8449 05c6 C0000000 		.4byte	.LVL73
 8450 05ca B6030000 		.4byte	.LVL165
 8451 05ce 0C00     		.2byte	0xc
 8452 05d0 91       		.byte	0x91
 8453 05d1 08       		.sleb128 8
 8454 05d2 06       		.byte	0x6
 8455 05d3 71       		.byte	0x71
 8456 05d4 00       		.sleb128 0
 8457 05d5 1E       		.byte	0x1e
 8458 05d6 38       		.byte	0x38
 8459 05d7 26       		.byte	0x26
 8460 05d8 7A       		.byte	0x7a
 8461 05d9 00       		.sleb128 0
 8462 05da 22       		.byte	0x22
 8463 05db 9F       		.byte	0x9f
 8464 05dc B6030000 		.4byte	.LVL165
 8465 05e0 B8030000 		.4byte	.LVL166
 8466 05e4 0C00     		.2byte	0xc
 8467 05e6 71       		.byte	0x71
 8468 05e7 7F       		.sleb128 -1
 8469 05e8 91       		.byte	0x91
 8470 05e9 08       		.sleb128 8
 8471 05ea 06       		.byte	0x6
 8472 05eb 1E       		.byte	0x1e
 8473 05ec 38       		.byte	0x38
 8474 05ed 26       		.byte	0x26
 8475 05ee 7A       		.byte	0x7a
 8476 05ef 00       		.sleb128 0
 8477 05f0 22       		.byte	0x22
 8478 05f1 9F       		.byte	0x9f
 8479 05f2 00000000 		.4byte	0
 8480 05f6 00000000 		.4byte	0
 8481              	.LLST23:
 8482 05fa 00000000 		.4byte	.LVL51
 8483 05fe 90000000 		.4byte	.LVL63
 8484 0602 0200     		.2byte	0x2
ARM GAS  C:\Users\haske\AppData\Local\Temp\cc9HFfJU.s 			page 172


 8485 0604 91       		.byte	0x91
 8486 0605 04       		.sleb128 4
 8487 0606 A2000000 		.4byte	.LVL66
 8488 060a C2000000 		.4byte	.LVL74
 8489 060e 0100     		.2byte	0x1
 8490 0610 54       		.byte	0x54
 8491 0611 C2000000 		.4byte	.LVL74
 8492 0615 B6030000 		.4byte	.LVL165
 8493 0619 0B00     		.2byte	0xb
 8494 061b 76       		.byte	0x76
 8495 061c 00       		.sleb128 0
 8496 061d 71       		.byte	0x71
 8497 061e 00       		.sleb128 0
 8498 061f 1E       		.byte	0x1e
 8499 0620 38       		.byte	0x38
 8500 0621 26       		.byte	0x26
 8501 0622 79       		.byte	0x79
 8502 0623 00       		.sleb128 0
 8503 0624 22       		.byte	0x22
 8504 0625 9F       		.byte	0x9f
 8505 0626 B6030000 		.4byte	.LVL165
 8506 062a B8030000 		.4byte	.LVL166
 8507 062e 0B00     		.2byte	0xb
 8508 0630 71       		.byte	0x71
 8509 0631 7F       		.sleb128 -1
 8510 0632 76       		.byte	0x76
 8511 0633 00       		.sleb128 0
 8512 0634 1E       		.byte	0x1e
 8513 0635 38       		.byte	0x38
 8514 0636 26       		.byte	0x26
 8515 0637 79       		.byte	0x79
 8516 0638 00       		.sleb128 0
 8517 0639 22       		.byte	0x22
 8518 063a 9F       		.byte	0x9f
 8519 063b 00000000 		.4byte	0
 8520 063f 00000000 		.4byte	0
 8521              	.LLST24:
 8522 0643 00000000 		.4byte	.LVL51
 8523 0647 C4030000 		.4byte	.LVL168
 8524 064b 0200     		.2byte	0x2
 8525 064d 91       		.byte	0x91
 8526 064e 08       		.sleb128 8
 8527 064f C4030000 		.4byte	.LVL168
 8528 0653 C8030000 		.4byte	.LFE163
 8529 0657 0200     		.2byte	0x2
 8530 0659 7D       		.byte	0x7d
 8531 065a 08       		.sleb128 8
 8532 065b 00000000 		.4byte	0
 8533 065f 00000000 		.4byte	0
 8534              	.LLST25:
 8535 0663 00000000 		.4byte	.LVL51
 8536 0667 C4030000 		.4byte	.LVL168
 8537 066b 0200     		.2byte	0x2
 8538 066d 91       		.byte	0x91
 8539 066e 0C       		.sleb128 12
 8540 066f C4030000 		.4byte	.LVL168
 8541 0673 C8030000 		.4byte	.LFE163
ARM GAS  C:\Users\haske\AppData\Local\Temp\cc9HFfJU.s 			page 173


 8542 0677 0200     		.2byte	0x2
 8543 0679 7D       		.byte	0x7d
 8544 067a 0C       		.sleb128 12
 8545 067b 00000000 		.4byte	0
 8546 067f 00000000 		.4byte	0
 8547              	.LLST26:
 8548 0683 00000000 		.4byte	.LVL51
 8549 0687 C4030000 		.4byte	.LVL168
 8550 068b 0200     		.2byte	0x2
 8551 068d 91       		.byte	0x91
 8552 068e 10       		.sleb128 16
 8553 068f C4030000 		.4byte	.LVL168
 8554 0693 C8030000 		.4byte	.LFE163
 8555 0697 0200     		.2byte	0x2
 8556 0699 7D       		.byte	0x7d
 8557 069a 10       		.sleb128 16
 8558 069b 00000000 		.4byte	0
 8559 069f 00000000 		.4byte	0
 8560              	.LLST27:
 8561 06a3 00000000 		.4byte	.LVL51
 8562 06a7 C4030000 		.4byte	.LVL168
 8563 06ab 0200     		.2byte	0x2
 8564 06ad 91       		.byte	0x91
 8565 06ae 14       		.sleb128 20
 8566 06af C4030000 		.4byte	.LVL168
 8567 06b3 C8030000 		.4byte	.LFE163
 8568 06b7 0200     		.2byte	0x2
 8569 06b9 7D       		.byte	0x7d
 8570 06ba 14       		.sleb128 20
 8571 06bb 00000000 		.4byte	0
 8572 06bf 00000000 		.4byte	0
 8573              	.LLST28:
 8574 06c3 00000000 		.4byte	.LVL51
 8575 06c7 C4030000 		.4byte	.LVL168
 8576 06cb 0200     		.2byte	0x2
 8577 06cd 91       		.byte	0x91
 8578 06ce 18       		.sleb128 24
 8579 06cf C4030000 		.4byte	.LVL168
 8580 06d3 C8030000 		.4byte	.LFE163
 8581 06d7 0200     		.2byte	0x2
 8582 06d9 7D       		.byte	0x7d
 8583 06da 18       		.sleb128 24
 8584 06db 00000000 		.4byte	0
 8585 06df 00000000 		.4byte	0
 8586              	.LLST29:
 8587 06e3 00000000 		.4byte	.LVL51
 8588 06e7 C4030000 		.4byte	.LVL168
 8589 06eb 0200     		.2byte	0x2
 8590 06ed 91       		.byte	0x91
 8591 06ee 1C       		.sleb128 28
 8592 06ef C4030000 		.4byte	.LVL168
 8593 06f3 C8030000 		.4byte	.LFE163
 8594 06f7 0200     		.2byte	0x2
 8595 06f9 7D       		.byte	0x7d
 8596 06fa 1C       		.sleb128 28
 8597 06fb 00000000 		.4byte	0
 8598 06ff 00000000 		.4byte	0
ARM GAS  C:\Users\haske\AppData\Local\Temp\cc9HFfJU.s 			page 174


 8599              	.LLST30:
 8600 0703 20000000 		.4byte	.LVL53
 8601 0707 C4030000 		.4byte	.LVL168
 8602 070b 0100     		.2byte	0x1
 8603 070d 5A       		.byte	0x5a
 8604 070e C4030000 		.4byte	.LVL168
 8605 0712 C8030000 		.4byte	.LFE163
 8606 0716 0200     		.2byte	0x2
 8607 0718 7D       		.byte	0x7d
 8608 0719 00       		.sleb128 0
 8609 071a 00000000 		.4byte	0
 8610 071e 00000000 		.4byte	0
 8611              	.LLST31:
 8612 0722 20000000 		.4byte	.LVL53
 8613 0726 C4030000 		.4byte	.LVL168
 8614 072a 0100     		.2byte	0x1
 8615 072c 59       		.byte	0x59
 8616 072d C4030000 		.4byte	.LVL168
 8617 0731 C8030000 		.4byte	.LFE163
 8618 0735 0200     		.2byte	0x2
 8619 0737 7D       		.byte	0x7d
 8620 0738 04       		.sleb128 4
 8621 0739 00000000 		.4byte	0
 8622 073d 00000000 		.4byte	0
 8623              	.LLST32:
 8624 0741 60000000 		.4byte	.LVL56
 8625 0745 80000000 		.4byte	.LVL61
 8626 0749 0200     		.2byte	0x2
 8627 074b 31       		.byte	0x31
 8628 074c 9F       		.byte	0x9f
 8629 074d 88000000 		.4byte	.LVL62
 8630 0751 BE030000 		.4byte	.LVL167
 8631 0755 0200     		.2byte	0x2
 8632 0757 91       		.byte	0x91
 8633 0758 44       		.sleb128 -60
 8634 0759 00000000 		.4byte	0
 8635 075d 00000000 		.4byte	0
 8636              	.LLST33:
 8637 0761 60000000 		.4byte	.LVL56
 8638 0765 80000000 		.4byte	.LVL61
 8639 0769 0200     		.2byte	0x2
 8640 076b 32       		.byte	0x32
 8641 076c 9F       		.byte	0x9f
 8642 076d 88000000 		.4byte	.LVL62
 8643 0771 BE030000 		.4byte	.LVL167
 8644 0775 0300     		.2byte	0x3
 8645 0777 91       		.byte	0x91
 8646 0778 B07F     		.sleb128 -80
 8647 077a 00000000 		.4byte	0
 8648 077e 00000000 		.4byte	0
 8649              	.LLST34:
 8650 0782 24000000 		.4byte	.LVL54
 8651 0786 34000000 		.4byte	.LVL55
 8652 078a 0100     		.2byte	0x1
 8653 078c 52       		.byte	0x52
 8654 078d 68000000 		.4byte	.LVL58
 8655 0791 6E000000 		.4byte	.LVL59
ARM GAS  C:\Users\haske\AppData\Local\Temp\cc9HFfJU.s 			page 175


 8656 0795 0100     		.2byte	0x1
 8657 0797 53       		.byte	0x53
 8658 0798 00000000 		.4byte	0
 8659 079c 00000000 		.4byte	0
 8660              	.LLST35:
 8661 07a0 88000000 		.4byte	.LVL62
 8662 07a4 90000000 		.4byte	.LVL63
 8663 07a8 0200     		.2byte	0x2
 8664 07aa 30       		.byte	0x30
 8665 07ab 9F       		.byte	0x9f
 8666 07ac 90000000 		.4byte	.LVL63
 8667 07b0 B6030000 		.4byte	.LVL165
 8668 07b4 0100     		.2byte	0x1
 8669 07b6 51       		.byte	0x51
 8670 07b7 B8030000 		.4byte	.LVL166
 8671 07bb BE030000 		.4byte	.LVL167
 8672 07bf 0100     		.2byte	0x1
 8673 07c1 51       		.byte	0x51
 8674 07c2 00000000 		.4byte	0
 8675 07c6 00000000 		.4byte	0
 8676              	.LLST36:
 8677 07ca 64000000 		.4byte	.LVL57
 8678 07ce 76000000 		.4byte	.LVL60
 8679 07d2 0100     		.2byte	0x1
 8680 07d4 50       		.byte	0x50
 8681 07d5 00000000 		.4byte	0
 8682 07d9 00000000 		.4byte	0
 8683              	.LLST37:
 8684 07dd A2000000 		.4byte	.LVL66
 8685 07e1 A6000000 		.4byte	.LVL68
 8686 07e5 0500     		.2byte	0x5
 8687 07e7 77       		.byte	0x77
 8688 07e8 00       		.sleb128 0
 8689 07e9 38       		.byte	0x38
 8690 07ea 26       		.byte	0x26
 8691 07eb 9F       		.byte	0x9f
 8692 07ec A6000000 		.4byte	.LVL68
 8693 07f0 B8000000 		.4byte	.LVL71
 8694 07f4 0100     		.2byte	0x1
 8695 07f6 53       		.byte	0x53
 8696 07f7 B8000000 		.4byte	.LVL71
 8697 07fb BE000000 		.4byte	.LVL72
 8698 07ff 0500     		.2byte	0x5
 8699 0801 77       		.byte	0x77
 8700 0802 00       		.sleb128 0
 8701 0803 38       		.byte	0x38
 8702 0804 26       		.byte	0x26
 8703 0805 9F       		.byte	0x9f
 8704 0806 BE000000 		.4byte	.LVL72
 8705 080a 6E010000 		.4byte	.LVL101
 8706 080e 0100     		.2byte	0x1
 8707 0810 53       		.byte	0x53
 8708 0811 6E010000 		.4byte	.LVL101
 8709 0815 7A010000 		.4byte	.LVL105
 8710 0819 0E00     		.2byte	0xe
 8711 081b 91       		.byte	0x91
 8712 081c 08       		.sleb128 8
ARM GAS  C:\Users\haske\AppData\Local\Temp\cc9HFfJU.s 			page 176


 8713 081d 06       		.byte	0x6
 8714 081e 71       		.byte	0x71
 8715 081f 00       		.sleb128 0
 8716 0820 1E       		.byte	0x1e
 8717 0821 38       		.byte	0x38
 8718 0822 26       		.byte	0x26
 8719 0823 7A       		.byte	0x7a
 8720 0824 00       		.sleb128 0
 8721 0825 22       		.byte	0x22
 8722 0826 38       		.byte	0x38
 8723 0827 26       		.byte	0x26
 8724 0828 9F       		.byte	0x9f
 8725 0829 7A010000 		.4byte	.LVL105
 8726 082d A8010000 		.4byte	.LVL110
 8727 0831 0100     		.2byte	0x1
 8728 0833 53       		.byte	0x53
 8729 0834 A8010000 		.4byte	.LVL110
 8730 0838 AC010000 		.4byte	.LVL112
 8731 083c 0E00     		.2byte	0xe
 8732 083e 91       		.byte	0x91
 8733 083f 08       		.sleb128 8
 8734 0840 06       		.byte	0x6
 8735 0841 71       		.byte	0x71
 8736 0842 00       		.sleb128 0
 8737 0843 1E       		.byte	0x1e
 8738 0844 38       		.byte	0x38
 8739 0845 26       		.byte	0x26
 8740 0846 7A       		.byte	0x7a
 8741 0847 00       		.sleb128 0
 8742 0848 22       		.byte	0x22
 8743 0849 38       		.byte	0x38
 8744 084a 26       		.byte	0x26
 8745 084b 9F       		.byte	0x9f
 8746 084c AC010000 		.4byte	.LVL112
 8747 0850 AE010000 		.4byte	.LVL113
 8748 0854 0100     		.2byte	0x1
 8749 0856 53       		.byte	0x53
 8750 0857 AE010000 		.4byte	.LVL113
 8751 085b 5C020000 		.4byte	.LVL123
 8752 085f 0E00     		.2byte	0xe
 8753 0861 91       		.byte	0x91
 8754 0862 08       		.sleb128 8
 8755 0863 06       		.byte	0x6
 8756 0864 71       		.byte	0x71
 8757 0865 00       		.sleb128 0
 8758 0866 1E       		.byte	0x1e
 8759 0867 38       		.byte	0x38
 8760 0868 26       		.byte	0x26
 8761 0869 7A       		.byte	0x7a
 8762 086a 00       		.sleb128 0
 8763 086b 22       		.byte	0x22
 8764 086c 38       		.byte	0x38
 8765 086d 26       		.byte	0x26
 8766 086e 9F       		.byte	0x9f
 8767 086f 5C020000 		.4byte	.LVL123
 8768 0873 5E020000 		.4byte	.LVL124
 8769 0877 0100     		.2byte	0x1
ARM GAS  C:\Users\haske\AppData\Local\Temp\cc9HFfJU.s 			page 177


 8770 0879 53       		.byte	0x53
 8771 087a 5E020000 		.4byte	.LVL124
 8772 087e 04030000 		.4byte	.LVL154
 8773 0882 0E00     		.2byte	0xe
 8774 0884 91       		.byte	0x91
 8775 0885 08       		.sleb128 8
 8776 0886 06       		.byte	0x6
 8777 0887 71       		.byte	0x71
 8778 0888 00       		.sleb128 0
 8779 0889 1E       		.byte	0x1e
 8780 088a 38       		.byte	0x38
 8781 088b 26       		.byte	0x26
 8782 088c 7A       		.byte	0x7a
 8783 088d 00       		.sleb128 0
 8784 088e 22       		.byte	0x22
 8785 088f 38       		.byte	0x38
 8786 0890 26       		.byte	0x26
 8787 0891 9F       		.byte	0x9f
 8788 0892 04030000 		.4byte	.LVL154
 8789 0896 70030000 		.4byte	.LVL163
 8790 089a 0100     		.2byte	0x1
 8791 089c 53       		.byte	0x53
 8792 089d 70030000 		.4byte	.LVL163
 8793 08a1 B6030000 		.4byte	.LVL165
 8794 08a5 0E00     		.2byte	0xe
 8795 08a7 91       		.byte	0x91
 8796 08a8 08       		.sleb128 8
 8797 08a9 06       		.byte	0x6
 8798 08aa 71       		.byte	0x71
 8799 08ab 00       		.sleb128 0
 8800 08ac 1E       		.byte	0x1e
 8801 08ad 38       		.byte	0x38
 8802 08ae 26       		.byte	0x26
 8803 08af 7A       		.byte	0x7a
 8804 08b0 00       		.sleb128 0
 8805 08b1 22       		.byte	0x22
 8806 08b2 38       		.byte	0x38
 8807 08b3 26       		.byte	0x26
 8808 08b4 9F       		.byte	0x9f
 8809 08b5 B6030000 		.4byte	.LVL165
 8810 08b9 B8030000 		.4byte	.LVL166
 8811 08bd 0E00     		.2byte	0xe
 8812 08bf 71       		.byte	0x71
 8813 08c0 7F       		.sleb128 -1
 8814 08c1 91       		.byte	0x91
 8815 08c2 08       		.sleb128 8
 8816 08c3 06       		.byte	0x6
 8817 08c4 1E       		.byte	0x1e
 8818 08c5 38       		.byte	0x38
 8819 08c6 26       		.byte	0x26
 8820 08c7 7A       		.byte	0x7a
 8821 08c8 00       		.sleb128 0
 8822 08c9 22       		.byte	0x22
 8823 08ca 38       		.byte	0x38
 8824 08cb 26       		.byte	0x26
 8825 08cc 9F       		.byte	0x9f
 8826 08cd 00000000 		.4byte	0
ARM GAS  C:\Users\haske\AppData\Local\Temp\cc9HFfJU.s 			page 178


 8827 08d1 00000000 		.4byte	0
 8828              	.LLST38:
 8829 08d5 A4000000 		.4byte	.LVL67
 8830 08d9 3E010000 		.4byte	.LVL96
 8831 08dd 0100     		.2byte	0x1
 8832 08df 52       		.byte	0x52
 8833 08e0 3E010000 		.4byte	.LVL96
 8834 08e4 04030000 		.4byte	.LVL154
 8835 08e8 0D00     		.2byte	0xd
 8836 08ea 76       		.byte	0x76
 8837 08eb 00       		.sleb128 0
 8838 08ec 71       		.byte	0x71
 8839 08ed 00       		.sleb128 0
 8840 08ee 1E       		.byte	0x1e
 8841 08ef 38       		.byte	0x38
 8842 08f0 26       		.byte	0x26
 8843 08f1 79       		.byte	0x79
 8844 08f2 00       		.sleb128 0
 8845 08f3 22       		.byte	0x22
 8846 08f4 38       		.byte	0x38
 8847 08f5 26       		.byte	0x26
 8848 08f6 9F       		.byte	0x9f
 8849 08f7 04030000 		.4byte	.LVL154
 8850 08fb B4030000 		.4byte	.LVL164
 8851 08ff 0100     		.2byte	0x1
 8852 0901 52       		.byte	0x52
 8853 0902 B4030000 		.4byte	.LVL164
 8854 0906 B6030000 		.4byte	.LVL165
 8855 090a 0D00     		.2byte	0xd
 8856 090c 76       		.byte	0x76
 8857 090d 00       		.sleb128 0
 8858 090e 71       		.byte	0x71
 8859 090f 00       		.sleb128 0
 8860 0910 1E       		.byte	0x1e
 8861 0911 38       		.byte	0x38
 8862 0912 26       		.byte	0x26
 8863 0913 79       		.byte	0x79
 8864 0914 00       		.sleb128 0
 8865 0915 22       		.byte	0x22
 8866 0916 38       		.byte	0x38
 8867 0917 26       		.byte	0x26
 8868 0918 9F       		.byte	0x9f
 8869 0919 B6030000 		.4byte	.LVL165
 8870 091d B8030000 		.4byte	.LVL166
 8871 0921 0D00     		.2byte	0xd
 8872 0923 71       		.byte	0x71
 8873 0924 7F       		.sleb128 -1
 8874 0925 76       		.byte	0x76
 8875 0926 00       		.sleb128 0
 8876 0927 1E       		.byte	0x1e
 8877 0928 38       		.byte	0x38
 8878 0929 26       		.byte	0x26
 8879 092a 79       		.byte	0x79
 8880 092b 00       		.sleb128 0
 8881 092c 22       		.byte	0x22
 8882 092d 38       		.byte	0x38
 8883 092e 26       		.byte	0x26
ARM GAS  C:\Users\haske\AppData\Local\Temp\cc9HFfJU.s 			page 179


 8884 092f 9F       		.byte	0x9f
 8885 0930 00000000 		.4byte	0
 8886 0934 00000000 		.4byte	0
 8887              	.LLST39:
 8888 0938 C0000000 		.4byte	.LVL73
 8889 093c CA000000 		.4byte	.LVL76
 8890 0940 0100     		.2byte	0x1
 8891 0942 57       		.byte	0x57
 8892 0943 CE000000 		.4byte	.LVL77
 8893 0947 D2000000 		.4byte	.LVL78
 8894 094b 0100     		.2byte	0x1
 8895 094d 50       		.byte	0x50
 8896 094e D2000000 		.4byte	.LVL78
 8897 0952 D6000000 		.4byte	.LVL79
 8898 0956 0300     		.2byte	0x3
 8899 0958 91       		.byte	0x91
 8900 0959 B47F     		.sleb128 -76
 8901 095b D6000000 		.4byte	.LVL79
 8902 095f D8000000 		.4byte	.LVL80
 8903 0963 0100     		.2byte	0x1
 8904 0965 57       		.byte	0x57
 8905 0966 D8000000 		.4byte	.LVL80
 8906 096a DC000000 		.4byte	.LVL81
 8907 096e 0400     		.2byte	0x4
 8908 0970 77       		.byte	0x77
 8909 0971 8001     		.sleb128 128
 8910 0973 9F       		.byte	0x9f
 8911 0974 DC000000 		.4byte	.LVL81
 8912 0978 DE000000 		.4byte	.LVL82
 8913 097c 0100     		.2byte	0x1
 8914 097e 50       		.byte	0x50
 8915 097f DE000000 		.4byte	.LVL82
 8916 0983 B4030000 		.4byte	.LVL164
 8917 0987 0300     		.2byte	0x3
 8918 0989 91       		.byte	0x91
 8919 098a B47F     		.sleb128 -76
 8920 098c 00000000 		.4byte	0
 8921 0990 00000000 		.4byte	0
 8922              	.LLST40:
 8923 0994 C2000000 		.4byte	.LVL74
 8924 0998 E8000000 		.4byte	.LVL85
 8925 099c 0100     		.2byte	0x1
 8926 099e 54       		.byte	0x54
 8927 099f EC000000 		.4byte	.LVL86
 8928 09a3 F0000000 		.4byte	.LVL87
 8929 09a7 0100     		.2byte	0x1
 8930 09a9 50       		.byte	0x50
 8931 09aa F0000000 		.4byte	.LVL87
 8932 09ae F4000000 		.4byte	.LVL88
 8933 09b2 0300     		.2byte	0x3
 8934 09b4 91       		.byte	0x91
 8935 09b5 B87F     		.sleb128 -72
 8936 09b7 F4000000 		.4byte	.LVL88
 8937 09bb F6000000 		.4byte	.LVL89
 8938 09bf 0100     		.2byte	0x1
 8939 09c1 54       		.byte	0x54
 8940 09c2 F6000000 		.4byte	.LVL89
ARM GAS  C:\Users\haske\AppData\Local\Temp\cc9HFfJU.s 			page 180


 8941 09c6 FA000000 		.4byte	.LVL90
 8942 09ca 0400     		.2byte	0x4
 8943 09cc 74       		.byte	0x74
 8944 09cd 8001     		.sleb128 128
 8945 09cf 9F       		.byte	0x9f
 8946 09d0 FA000000 		.4byte	.LVL90
 8947 09d4 FC000000 		.4byte	.LVL91
 8948 09d8 0100     		.2byte	0x1
 8949 09da 50       		.byte	0x50
 8950 09db FC000000 		.4byte	.LVL91
 8951 09df B4030000 		.4byte	.LVL164
 8952 09e3 0300     		.2byte	0x3
 8953 09e5 91       		.byte	0x91
 8954 09e6 B87F     		.sleb128 -72
 8955 09e8 00000000 		.4byte	0
 8956 09ec 00000000 		.4byte	0
 8957              	.LLST41:
 8958 09f0 C6000000 		.4byte	.LVL75
 8959 09f4 D6000000 		.4byte	.LVL79
 8960 09f8 0300     		.2byte	0x3
 8961 09fa 09       		.byte	0x9
 8962 09fb FF       		.byte	0xff
 8963 09fc 9F       		.byte	0x9f
 8964 09fd D6000000 		.4byte	.LVL79
 8965 0a01 E0000000 		.4byte	.LVL83
 8966 0a05 0200     		.2byte	0x2
 8967 0a07 31       		.byte	0x31
 8968 0a08 9F       		.byte	0x9f
 8969 0a09 E0000000 		.4byte	.LVL83
 8970 0a0d B4030000 		.4byte	.LVL164
 8971 0a11 0300     		.2byte	0x3
 8972 0a13 91       		.byte	0x91
 8973 0a14 A07F     		.sleb128 -96
 8974 0a16 00000000 		.4byte	0
 8975 0a1a 00000000 		.4byte	0
 8976              	.LLST42:
 8977 0a1e E4000000 		.4byte	.LVL84
 8978 0a22 F4000000 		.4byte	.LVL88
 8979 0a26 0300     		.2byte	0x3
 8980 0a28 09       		.byte	0x9
 8981 0a29 FF       		.byte	0xff
 8982 0a2a 9F       		.byte	0x9f
 8983 0a2b F4000000 		.4byte	.LVL88
 8984 0a2f FE000000 		.4byte	.LVL92
 8985 0a33 0200     		.2byte	0x2
 8986 0a35 31       		.byte	0x31
 8987 0a36 9F       		.byte	0x9f
 8988 0a37 FE000000 		.4byte	.LVL92
 8989 0a3b 70010000 		.4byte	.LVL102
 8990 0a3f 0300     		.2byte	0x3
 8991 0a41 91       		.byte	0x91
 8992 0a42 AC7F     		.sleb128 -84
 8993 0a44 7A010000 		.4byte	.LVL105
 8994 0a48 9C010000 		.4byte	.LVL108
 8995 0a4c 0300     		.2byte	0x3
 8996 0a4e 91       		.byte	0x91
 8997 0a4f AC7F     		.sleb128 -84
ARM GAS  C:\Users\haske\AppData\Local\Temp\cc9HFfJU.s 			page 181


 8998 0a51 AC010000 		.4byte	.LVL112
 8999 0a55 E0010000 		.4byte	.LVL114
 9000 0a59 0300     		.2byte	0x3
 9001 0a5b 91       		.byte	0x91
 9002 0a5c AC7F     		.sleb128 -84
 9003 0a5e E2010000 		.4byte	.LVL115
 9004 0a62 E8010000 		.4byte	.LVL116
 9005 0a66 0300     		.2byte	0x3
 9006 0a68 91       		.byte	0x91
 9007 0a69 AC7F     		.sleb128 -84
 9008 0a6b 5C020000 		.4byte	.LVL123
 9009 0a6f 74020000 		.4byte	.LVL127
 9010 0a73 0300     		.2byte	0x3
 9011 0a75 91       		.byte	0x91
 9012 0a76 AC7F     		.sleb128 -84
 9013 0a78 04030000 		.4byte	.LVL154
 9014 0a7c B4030000 		.4byte	.LVL164
 9015 0a80 0300     		.2byte	0x3
 9016 0a82 91       		.byte	0x91
 9017 0a83 AC7F     		.sleb128 -84
 9018 0a85 00000000 		.4byte	0
 9019 0a89 00000000 		.4byte	0
 9020              	.LLST43:
 9021 0a8d FE000000 		.4byte	.LVL92
 9022 0a91 14010000 		.4byte	.LVL93
 9023 0a95 0300     		.2byte	0x3
 9024 0a97 91       		.byte	0x91
 9025 0a98 9C7F     		.sleb128 -100
 9026 0a9a 14010000 		.4byte	.LVL93
 9027 0a9e C0020000 		.4byte	.LVL140
 9028 0aa2 0100     		.2byte	0x1
 9029 0aa4 5E       		.byte	0x5e
 9030 0aa5 C0020000 		.4byte	.LVL140
 9031 0aa9 04030000 		.4byte	.LVL154
 9032 0aad 1C00     		.2byte	0x1c
 9033 0aaf 91       		.byte	0x91
 9034 0ab0 08       		.sleb128 8
 9035 0ab1 06       		.byte	0x6
 9036 0ab2 71       		.byte	0x71
 9037 0ab3 00       		.sleb128 0
 9038 0ab4 1E       		.byte	0x1e
 9039 0ab5 38       		.byte	0x38
 9040 0ab6 26       		.byte	0x26
 9041 0ab7 7A       		.byte	0x7a
 9042 0ab8 00       		.sleb128 0
 9043 0ab9 22       		.byte	0x22
 9044 0aba 38       		.byte	0x38
 9045 0abb 26       		.byte	0x26
 9046 0abc 91       		.byte	0x91
 9047 0abd 40       		.sleb128 -64
 9048 0abe 06       		.byte	0x6
 9049 0abf 22       		.byte	0x22
 9050 0ac0 91       		.byte	0x91
 9051 0ac1 B07F     		.sleb128 -80
 9052 0ac3 06       		.byte	0x6
 9053 0ac4 1E       		.byte	0x1e
 9054 0ac5 91       		.byte	0x91
ARM GAS  C:\Users\haske\AppData\Local\Temp\cc9HFfJU.s 			page 182


 9055 0ac6 9C7F     		.sleb128 -100
 9056 0ac8 06       		.byte	0x6
 9057 0ac9 22       		.byte	0x22
 9058 0aca 9F       		.byte	0x9f
 9059 0acb 04030000 		.4byte	.LVL154
 9060 0acf 2C030000 		.4byte	.LVL155
 9061 0ad3 0100     		.2byte	0x1
 9062 0ad5 5E       		.byte	0x5e
 9063 0ad6 2C030000 		.4byte	.LVL155
 9064 0ada 2E030000 		.4byte	.LVL156
 9065 0ade 1100     		.2byte	0x11
 9066 0ae0 73       		.byte	0x73
 9067 0ae1 00       		.sleb128 0
 9068 0ae2 91       		.byte	0x91
 9069 0ae3 40       		.sleb128 -64
 9070 0ae4 06       		.byte	0x6
 9071 0ae5 22       		.byte	0x22
 9072 0ae6 91       		.byte	0x91
 9073 0ae7 B07F     		.sleb128 -80
 9074 0ae9 06       		.byte	0x6
 9075 0aea 1E       		.byte	0x1e
 9076 0aeb 91       		.byte	0x91
 9077 0aec 9C7F     		.sleb128 -100
 9078 0aee 06       		.byte	0x6
 9079 0aef 22       		.byte	0x22
 9080 0af0 9F       		.byte	0x9f
 9081 0af1 2E030000 		.4byte	.LVL156
 9082 0af5 32030000 		.4byte	.LVL157
 9083 0af9 0100     		.2byte	0x1
 9084 0afb 5E       		.byte	0x5e
 9085 0afc 32030000 		.4byte	.LVL157
 9086 0b00 3C030000 		.4byte	.LVL158
 9087 0b04 1100     		.2byte	0x11
 9088 0b06 73       		.byte	0x73
 9089 0b07 00       		.sleb128 0
 9090 0b08 91       		.byte	0x91
 9091 0b09 40       		.sleb128 -64
 9092 0b0a 06       		.byte	0x6
 9093 0b0b 22       		.byte	0x22
 9094 0b0c 91       		.byte	0x91
 9095 0b0d B07F     		.sleb128 -80
 9096 0b0f 06       		.byte	0x6
 9097 0b10 1E       		.byte	0x1e
 9098 0b11 91       		.byte	0x91
 9099 0b12 9C7F     		.sleb128 -100
 9100 0b14 06       		.byte	0x6
 9101 0b15 22       		.byte	0x22
 9102 0b16 9F       		.byte	0x9f
 9103 0b17 3C030000 		.4byte	.LVL158
 9104 0b1b 52030000 		.4byte	.LVL159
 9105 0b1f 0100     		.2byte	0x1
 9106 0b21 5E       		.byte	0x5e
 9107 0b22 52030000 		.4byte	.LVL159
 9108 0b26 54030000 		.4byte	.LVL160
 9109 0b2a 1100     		.2byte	0x11
 9110 0b2c 73       		.byte	0x73
 9111 0b2d 00       		.sleb128 0
ARM GAS  C:\Users\haske\AppData\Local\Temp\cc9HFfJU.s 			page 183


 9112 0b2e 91       		.byte	0x91
 9113 0b2f 40       		.sleb128 -64
 9114 0b30 06       		.byte	0x6
 9115 0b31 22       		.byte	0x22
 9116 0b32 91       		.byte	0x91
 9117 0b33 B07F     		.sleb128 -80
 9118 0b35 06       		.byte	0x6
 9119 0b36 1E       		.byte	0x1e
 9120 0b37 91       		.byte	0x91
 9121 0b38 9C7F     		.sleb128 -100
 9122 0b3a 06       		.byte	0x6
 9123 0b3b 22       		.byte	0x22
 9124 0b3c 9F       		.byte	0x9f
 9125 0b3d 54030000 		.4byte	.LVL160
 9126 0b41 58030000 		.4byte	.LVL161
 9127 0b45 0100     		.2byte	0x1
 9128 0b47 5E       		.byte	0x5e
 9129 0b48 58030000 		.4byte	.LVL161
 9130 0b4c 70030000 		.4byte	.LVL163
 9131 0b50 1100     		.2byte	0x11
 9132 0b52 73       		.byte	0x73
 9133 0b53 00       		.sleb128 0
 9134 0b54 91       		.byte	0x91
 9135 0b55 40       		.sleb128 -64
 9136 0b56 06       		.byte	0x6
 9137 0b57 22       		.byte	0x22
 9138 0b58 91       		.byte	0x91
 9139 0b59 B07F     		.sleb128 -80
 9140 0b5b 06       		.byte	0x6
 9141 0b5c 1E       		.byte	0x1e
 9142 0b5d 91       		.byte	0x91
 9143 0b5e 9C7F     		.sleb128 -100
 9144 0b60 06       		.byte	0x6
 9145 0b61 22       		.byte	0x22
 9146 0b62 9F       		.byte	0x9f
 9147 0b63 70030000 		.4byte	.LVL163
 9148 0b67 B4030000 		.4byte	.LVL164
 9149 0b6b 1C00     		.2byte	0x1c
 9150 0b6d 91       		.byte	0x91
 9151 0b6e 08       		.sleb128 8
 9152 0b6f 06       		.byte	0x6
 9153 0b70 71       		.byte	0x71
 9154 0b71 00       		.sleb128 0
 9155 0b72 1E       		.byte	0x1e
 9156 0b73 38       		.byte	0x38
 9157 0b74 26       		.byte	0x26
 9158 0b75 7A       		.byte	0x7a
 9159 0b76 00       		.sleb128 0
 9160 0b77 22       		.byte	0x22
 9161 0b78 38       		.byte	0x38
 9162 0b79 26       		.byte	0x26
 9163 0b7a 91       		.byte	0x91
 9164 0b7b 40       		.sleb128 -64
 9165 0b7c 06       		.byte	0x6
 9166 0b7d 22       		.byte	0x22
 9167 0b7e 91       		.byte	0x91
 9168 0b7f B07F     		.sleb128 -80
ARM GAS  C:\Users\haske\AppData\Local\Temp\cc9HFfJU.s 			page 184


 9169 0b81 06       		.byte	0x6
 9170 0b82 1E       		.byte	0x1e
 9171 0b83 91       		.byte	0x91
 9172 0b84 9C7F     		.sleb128 -100
 9173 0b86 06       		.byte	0x6
 9174 0b87 22       		.byte	0x22
 9175 0b88 9F       		.byte	0x9f
 9176 0b89 00000000 		.4byte	0
 9177 0b8d 00000000 		.4byte	0
 9178              	.LLST44:
 9179 0b91 3C010000 		.4byte	.LVL95
 9180 0b95 C0020000 		.4byte	.LVL140
 9181 0b99 0100     		.2byte	0x1
 9182 0b9b 5E       		.byte	0x5e
 9183 0b9c C0020000 		.4byte	.LVL140
 9184 0ba0 04030000 		.4byte	.LVL154
 9185 0ba4 1C00     		.2byte	0x1c
 9186 0ba6 91       		.byte	0x91
 9187 0ba7 08       		.sleb128 8
 9188 0ba8 06       		.byte	0x6
 9189 0ba9 71       		.byte	0x71
 9190 0baa 00       		.sleb128 0
 9191 0bab 1E       		.byte	0x1e
 9192 0bac 38       		.byte	0x38
 9193 0bad 26       		.byte	0x26
 9194 0bae 7A       		.byte	0x7a
 9195 0baf 00       		.sleb128 0
 9196 0bb0 22       		.byte	0x22
 9197 0bb1 38       		.byte	0x38
 9198 0bb2 26       		.byte	0x26
 9199 0bb3 91       		.byte	0x91
 9200 0bb4 40       		.sleb128 -64
 9201 0bb5 06       		.byte	0x6
 9202 0bb6 22       		.byte	0x22
 9203 0bb7 91       		.byte	0x91
 9204 0bb8 B07F     		.sleb128 -80
 9205 0bba 06       		.byte	0x6
 9206 0bbb 1E       		.byte	0x1e
 9207 0bbc 91       		.byte	0x91
 9208 0bbd 9C7F     		.sleb128 -100
 9209 0bbf 06       		.byte	0x6
 9210 0bc0 22       		.byte	0x22
 9211 0bc1 9F       		.byte	0x9f
 9212 0bc2 00000000 		.4byte	0
 9213 0bc6 00000000 		.4byte	0
 9214              	.LLST45:
 9215 0bca 4A010000 		.4byte	.LVL97
 9216 0bce 4E010000 		.4byte	.LVL98
 9217 0bd2 0100     		.2byte	0x1
 9218 0bd4 52       		.byte	0x52
 9219 0bd5 4E010000 		.4byte	.LVL98
 9220 0bd9 04030000 		.4byte	.LVL154
 9221 0bdd 0200     		.2byte	0x2
 9222 0bdf 91       		.byte	0x91
 9223 0be0 50       		.sleb128 -48
 9224 0be1 00000000 		.4byte	0
 9225 0be5 00000000 		.4byte	0
ARM GAS  C:\Users\haske\AppData\Local\Temp\cc9HFfJU.s 			page 185


 9226              	.LLST46:
 9227 0be9 5E010000 		.4byte	.LVL99
 9228 0bed 60010000 		.4byte	.LVL100
 9229 0bf1 0100     		.2byte	0x1
 9230 0bf3 52       		.byte	0x52
 9231 0bf4 60010000 		.4byte	.LVL100
 9232 0bf8 04030000 		.4byte	.LVL154
 9233 0bfc 0200     		.2byte	0x2
 9234 0bfe 91       		.byte	0x91
 9235 0bff 54       		.sleb128 -44
 9236 0c00 00000000 		.4byte	0
 9237 0c04 00000000 		.4byte	0
 9238              	.LLST47:
 9239 0c08 90000000 		.4byte	.LVL63
 9240 0c0c 9E000000 		.4byte	.LVL65
 9241 0c10 0100     		.2byte	0x1
 9242 0c12 54       		.byte	0x54
 9243 0c13 74020000 		.4byte	.LVL127
 9244 0c17 9A020000 		.4byte	.LVL132
 9245 0c1b 0100     		.2byte	0x1
 9246 0c1d 54       		.byte	0x54
 9247 0c1e B4030000 		.4byte	.LVL164
 9248 0c22 C4030000 		.4byte	.LVL168
 9249 0c26 0100     		.2byte	0x1
 9250 0c28 54       		.byte	0x54
 9251 0c29 00000000 		.4byte	0
 9252 0c2d 00000000 		.4byte	0
 9253              	.LLST48:
 9254 0c31 90000000 		.4byte	.LVL63
 9255 0c35 1A010000 		.4byte	.LVL94
 9256 0c39 0100     		.2byte	0x1
 9257 0c3b 5C       		.byte	0x5c
 9258 0c3c 76020000 		.4byte	.LVL128
 9259 0c40 04030000 		.4byte	.LVL154
 9260 0c44 0100     		.2byte	0x1
 9261 0c46 5C       		.byte	0x5c
 9262 0c47 B4030000 		.4byte	.LVL164
 9263 0c4b C8030000 		.4byte	.LFE163
 9264 0c4f 0100     		.2byte	0x1
 9265 0c51 5C       		.byte	0x5c
 9266 0c52 00000000 		.4byte	0
 9267 0c56 00000000 		.4byte	0
 9268              	.LLST49:
 9269 0c5a 90000000 		.4byte	.LVL63
 9270 0c5e B2000000 		.4byte	.LVL69
 9271 0c62 0100     		.2byte	0x1
 9272 0c64 50       		.byte	0x50
 9273 0c65 B6000000 		.4byte	.LVL70
 9274 0c69 BE000000 		.4byte	.LVL72
 9275 0c6d 0100     		.2byte	0x1
 9276 0c6f 50       		.byte	0x50
 9277 0c70 66020000 		.4byte	.LVL125
 9278 0c74 6A020000 		.4byte	.LVL126
 9279 0c78 0100     		.2byte	0x1
 9280 0c7a 53       		.byte	0x53
 9281 0c7b 7E020000 		.4byte	.LVL129
 9282 0c7f 04030000 		.4byte	.LVL154
ARM GAS  C:\Users\haske\AppData\Local\Temp\cc9HFfJU.s 			page 186


 9283 0c83 0100     		.2byte	0x1
 9284 0c85 50       		.byte	0x50
 9285 0c86 B4030000 		.4byte	.LVL164
 9286 0c8a C8030000 		.4byte	.LFE163
 9287 0c8e 0100     		.2byte	0x1
 9288 0c90 50       		.byte	0x50
 9289 0c91 00000000 		.4byte	0
 9290 0c95 00000000 		.4byte	0
 9291              	.LLST50:
 9292 0c99 70010000 		.4byte	.LVL102
 9293 0c9d 7A010000 		.4byte	.LVL105
 9294 0ca1 0300     		.2byte	0x3
 9295 0ca3 91       		.byte	0x91
 9296 0ca4 AC7F     		.sleb128 -84
 9297 0ca6 9C010000 		.4byte	.LVL108
 9298 0caa AC010000 		.4byte	.LVL112
 9299 0cae 0300     		.2byte	0x3
 9300 0cb0 91       		.byte	0x91
 9301 0cb1 AC7F     		.sleb128 -84
 9302 0cb3 E8010000 		.4byte	.LVL116
 9303 0cb7 5C020000 		.4byte	.LVL123
 9304 0cbb 0300     		.2byte	0x3
 9305 0cbd 91       		.byte	0x91
 9306 0cbe AC7F     		.sleb128 -84
 9307 0cc0 00000000 		.4byte	0
 9308 0cc4 00000000 		.4byte	0
 9309              	.LLST51:
 9310 0cc8 74010000 		.4byte	.LVL103
 9311 0ccc 7A010000 		.4byte	.LVL105
 9312 0cd0 0100     		.2byte	0x1
 9313 0cd2 53       		.byte	0x53
 9314 0cd3 AA010000 		.4byte	.LVL111
 9315 0cd7 AC010000 		.4byte	.LVL112
 9316 0cdb 0100     		.2byte	0x1
 9317 0cdd 53       		.byte	0x53
 9318 0cde E8010000 		.4byte	.LVL116
 9319 0ce2 FE010000 		.4byte	.LVL117
 9320 0ce6 0100     		.2byte	0x1
 9321 0ce8 53       		.byte	0x53
 9322 0ce9 02020000 		.4byte	.LVL118
 9323 0ced 1E020000 		.4byte	.LVL121
 9324 0cf1 0100     		.2byte	0x1
 9325 0cf3 53       		.byte	0x53
 9326 0cf4 00000000 		.4byte	0
 9327 0cf8 00000000 		.4byte	0
 9328              	.LLST52:
 9329 0cfc 78010000 		.4byte	.LVL104
 9330 0d00 7A010000 		.4byte	.LVL105
 9331 0d04 0100     		.2byte	0x1
 9332 0d06 52       		.byte	0x52
 9333 0d07 A2010000 		.4byte	.LVL109
 9334 0d0b AC010000 		.4byte	.LVL112
 9335 0d0f 0100     		.2byte	0x1
 9336 0d11 52       		.byte	0x52
 9337 0d12 E8010000 		.4byte	.LVL116
 9338 0d16 18020000 		.4byte	.LVL119
 9339 0d1a 0100     		.2byte	0x1
ARM GAS  C:\Users\haske\AppData\Local\Temp\cc9HFfJU.s 			page 187


 9340 0d1c 52       		.byte	0x52
 9341 0d1d 1C020000 		.4byte	.LVL120
 9342 0d21 34020000 		.4byte	.LVL122
 9343 0d25 0100     		.2byte	0x1
 9344 0d27 52       		.byte	0x52
 9345 0d28 00000000 		.4byte	0
 9346 0d2c 00000000 		.4byte	0
 9347              	.LLST53:
 9348 0d30 90010000 		.4byte	.LVL106
 9349 0d34 9A010000 		.4byte	.LVL107
 9350 0d38 0100     		.2byte	0x1
 9351 0d3a 50       		.byte	0x50
 9352 0d3b 9A010000 		.4byte	.LVL107
 9353 0d3f AC010000 		.4byte	.LVL112
 9354 0d43 0100     		.2byte	0x1
 9355 0d45 57       		.byte	0x57
 9356 0d46 00000000 		.4byte	0
 9357 0d4a 00000000 		.4byte	0
 9358              	.LLST54:
 9359 0d4e 8C020000 		.4byte	.LVL130
 9360 0d52 92020000 		.4byte	.LVL131
 9361 0d56 0300     		.2byte	0x3
 9362 0d58 91       		.byte	0x91
 9363 0d59 B87F     		.sleb128 -72
 9364 0d5b 92020000 		.4byte	.LVL131
 9365 0d5f AC020000 		.4byte	.LVL136
 9366 0d63 0500     		.2byte	0x5
 9367 0d65 77       		.byte	0x77
 9368 0d66 00       		.sleb128 0
 9369 0d67 33       		.byte	0x33
 9370 0d68 25       		.byte	0x25
 9371 0d69 9F       		.byte	0x9f
 9372 0d6a AC020000 		.4byte	.LVL136
 9373 0d6e BC020000 		.4byte	.LVL139
 9374 0d72 0D00     		.2byte	0xd
 9375 0d74 91       		.byte	0x91
 9376 0d75 B87F     		.sleb128 -72
 9377 0d77 94       		.byte	0x94
 9378 0d78 01       		.byte	0x1
 9379 0d79 08       		.byte	0x8
 9380 0d7a FF       		.byte	0xff
 9381 0d7b 1A       		.byte	0x1a
 9382 0d7c 23       		.byte	0x23
 9383 0d7d 04       		.uleb128 0x4
 9384 0d7e 33       		.byte	0x33
 9385 0d7f 25       		.byte	0x25
 9386 0d80 9F       		.byte	0x9f
 9387 0d81 00000000 		.4byte	0
 9388 0d85 00000000 		.4byte	0
 9389              	.LLST55:
 9390 0d89 9C020000 		.4byte	.LVL133
 9391 0d8d BC020000 		.4byte	.LVL139
 9392 0d91 0100     		.2byte	0x1
 9393 0d93 53       		.byte	0x53
 9394 0d94 00000000 		.4byte	0
 9395 0d98 00000000 		.4byte	0
 9396              	.LLST56:
ARM GAS  C:\Users\haske\AppData\Local\Temp\cc9HFfJU.s 			page 188


 9397 0d9c A6020000 		.4byte	.LVL134
 9398 0da0 A8020000 		.4byte	.LVL135
 9399 0da4 0100     		.2byte	0x1
 9400 0da6 52       		.byte	0x52
 9401 0da7 A8020000 		.4byte	.LVL135
 9402 0dab BC020000 		.4byte	.LVL139
 9403 0daf 1300     		.2byte	0x13
 9404 0db1 7C       		.byte	0x7c
 9405 0db2 00       		.sleb128 0
 9406 0db3 0A       		.byte	0xa
 9407 0db4 FFFF     		.2byte	0xffff
 9408 0db6 1A       		.byte	0x1a
 9409 0db7 40       		.byte	0x40
 9410 0db8 24       		.byte	0x24
 9411 0db9 7C       		.byte	0x7c
 9412 0dba 00       		.sleb128 0
 9413 0dbb 0A       		.byte	0xa
 9414 0dbc FFFF     		.2byte	0xffff
 9415 0dbe 1A       		.byte	0x1a
 9416 0dbf 21       		.byte	0x21
 9417 0dc0 74       		.byte	0x74
 9418 0dc1 00       		.sleb128 0
 9419 0dc2 1A       		.byte	0x1a
 9420 0dc3 9F       		.byte	0x9f
 9421 0dc4 00000000 		.4byte	0
 9422 0dc8 00000000 		.4byte	0
 9423              	.LLST57:
 9424 0dcc B6020000 		.4byte	.LVL137
 9425 0dd0 BA020000 		.4byte	.LVL138
 9426 0dd4 0100     		.2byte	0x1
 9427 0dd6 52       		.byte	0x52
 9428 0dd7 BA020000 		.4byte	.LVL138
 9429 0ddb BC020000 		.4byte	.LVL139
 9430 0ddf 2100     		.2byte	0x21
 9431 0de1 7C       		.byte	0x7c
 9432 0de2 00       		.sleb128 0
 9433 0de3 0A       		.byte	0xa
 9434 0de4 FFFF     		.2byte	0xffff
 9435 0de6 1A       		.byte	0x1a
 9436 0de7 40       		.byte	0x40
 9437 0de8 24       		.byte	0x24
 9438 0de9 7C       		.byte	0x7c
 9439 0dea 00       		.sleb128 0
 9440 0deb 0A       		.byte	0xa
 9441 0dec FFFF     		.2byte	0xffff
 9442 0dee 1A       		.byte	0x1a
 9443 0def 21       		.byte	0x21
 9444 0df0 74       		.byte	0x74
 9445 0df1 00       		.sleb128 0
 9446 0df2 1A       		.byte	0x1a
 9447 0df3 73       		.byte	0x73
 9448 0df4 00       		.sleb128 0
 9449 0df5 1C       		.byte	0x1c
 9450 0df6 77       		.byte	0x77
 9451 0df7 00       		.sleb128 0
 9452 0df8 1E       		.byte	0x1e
 9453 0df9 35       		.byte	0x35
ARM GAS  C:\Users\haske\AppData\Local\Temp\cc9HFfJU.s 			page 189


 9454 0dfa 25       		.byte	0x25
 9455 0dfb 73       		.byte	0x73
 9456 0dfc 00       		.sleb128 0
 9457 0dfd 22       		.byte	0x22
 9458 0dfe 74       		.byte	0x74
 9459 0dff 00       		.sleb128 0
 9460 0e00 1A       		.byte	0x1a
 9461 0e01 9F       		.byte	0x9f
 9462 0e02 00000000 		.4byte	0
 9463 0e06 00000000 		.4byte	0
 9464              	.LLST58:
 9465 0e0a BC020000 		.4byte	.LVL139
 9466 0e0e C4020000 		.4byte	.LVL141
 9467 0e12 0300     		.2byte	0x3
 9468 0e14 91       		.byte	0x91
 9469 0e15 B47F     		.sleb128 -76
 9470 0e17 C4020000 		.4byte	.LVL141
 9471 0e1b D2020000 		.4byte	.LVL144
 9472 0e1f 0500     		.2byte	0x5
 9473 0e21 7E       		.byte	0x7e
 9474 0e22 00       		.sleb128 0
 9475 0e23 33       		.byte	0x33
 9476 0e24 25       		.byte	0x25
 9477 0e25 9F       		.byte	0x9f
 9478 0e26 D2020000 		.4byte	.LVL144
 9479 0e2a E2020000 		.4byte	.LVL148
 9480 0e2e 0D00     		.2byte	0xd
 9481 0e30 91       		.byte	0x91
 9482 0e31 B47F     		.sleb128 -76
 9483 0e33 94       		.byte	0x94
 9484 0e34 01       		.byte	0x1
 9485 0e35 08       		.byte	0x8
 9486 0e36 FF       		.byte	0xff
 9487 0e37 1A       		.byte	0x1a
 9488 0e38 23       		.byte	0x23
 9489 0e39 04       		.uleb128 0x4
 9490 0e3a 33       		.byte	0x33
 9491 0e3b 25       		.byte	0x25
 9492 0e3c 9F       		.byte	0x9f
 9493 0e3d 00000000 		.4byte	0
 9494 0e41 00000000 		.4byte	0
 9495              	.LLST59:
 9496 0e45 C4020000 		.4byte	.LVL141
 9497 0e49 DA020000 		.4byte	.LVL145
 9498 0e4d 0100     		.2byte	0x1
 9499 0e4f 53       		.byte	0x53
 9500 0e50 00000000 		.4byte	0
 9501 0e54 00000000 		.4byte	0
 9502              	.LLST60:
 9503 0e58 CC020000 		.4byte	.LVL142
 9504 0e5c CE020000 		.4byte	.LVL143
 9505 0e60 0100     		.2byte	0x1
 9506 0e62 57       		.byte	0x57
 9507 0e63 CE020000 		.4byte	.LVL143
 9508 0e67 E2020000 		.4byte	.LVL148
 9509 0e6b 1300     		.2byte	0x13
 9510 0e6d 70       		.byte	0x70
ARM GAS  C:\Users\haske\AppData\Local\Temp\cc9HFfJU.s 			page 190


 9511 0e6e 00       		.sleb128 0
 9512 0e6f 0A       		.byte	0xa
 9513 0e70 FFFF     		.2byte	0xffff
 9514 0e72 1A       		.byte	0x1a
 9515 0e73 40       		.byte	0x40
 9516 0e74 24       		.byte	0x24
 9517 0e75 70       		.byte	0x70
 9518 0e76 00       		.sleb128 0
 9519 0e77 0A       		.byte	0xa
 9520 0e78 FFFF     		.2byte	0xffff
 9521 0e7a 1A       		.byte	0x1a
 9522 0e7b 21       		.byte	0x21
 9523 0e7c 74       		.byte	0x74
 9524 0e7d 00       		.sleb128 0
 9525 0e7e 1A       		.byte	0x1a
 9526 0e7f 9F       		.byte	0x9f
 9527 0e80 00000000 		.4byte	0
 9528 0e84 00000000 		.4byte	0
 9529              	.LLST61:
 9530 0e88 DC020000 		.4byte	.LVL146
 9531 0e8c E0020000 		.4byte	.LVL147
 9532 0e90 0100     		.2byte	0x1
 9533 0e92 53       		.byte	0x53
 9534 0e93 00000000 		.4byte	0
 9535 0e97 00000000 		.4byte	0
 9536              	.LLST62:
 9537 0e9b E2020000 		.4byte	.LVL148
 9538 0e9f FC020000 		.4byte	.LVL153
 9539 0ea3 0200     		.2byte	0x2
 9540 0ea5 40       		.byte	0x40
 9541 0ea6 9F       		.byte	0x9f
 9542 0ea7 00000000 		.4byte	0
 9543 0eab 00000000 		.4byte	0
 9544              	.LLST63:
 9545 0eaf E8020000 		.4byte	.LVL149
 9546 0eb3 FC020000 		.4byte	.LVL153
 9547 0eb7 0100     		.2byte	0x1
 9548 0eb9 52       		.byte	0x52
 9549 0eba 00000000 		.4byte	0
 9550 0ebe 00000000 		.4byte	0
 9551              	.LLST64:
 9552 0ec2 EE020000 		.4byte	.LVL150
 9553 0ec6 F0020000 		.4byte	.LVL151
 9554 0eca 0100     		.2byte	0x1
 9555 0ecc 53       		.byte	0x53
 9556 0ecd 00000000 		.4byte	0
 9557 0ed1 00000000 		.4byte	0
 9558              	.LLST65:
 9559 0ed5 F8020000 		.4byte	.LVL152
 9560 0ed9 FC020000 		.4byte	.LVL153
 9561 0edd 0100     		.2byte	0x1
 9562 0edf 53       		.byte	0x53
 9563 0ee0 00000000 		.4byte	0
 9564 0ee4 00000000 		.4byte	0
 9565              	.LLST66:
 9566 0ee8 2C030000 		.4byte	.LVL155
 9567 0eec 2E030000 		.4byte	.LVL156
ARM GAS  C:\Users\haske\AppData\Local\Temp\cc9HFfJU.s 			page 191


 9568 0ef0 0100     		.2byte	0x1
 9569 0ef2 5E       		.byte	0x5e
 9570 0ef3 52030000 		.4byte	.LVL159
 9571 0ef7 54030000 		.4byte	.LVL160
 9572 0efb 0100     		.2byte	0x1
 9573 0efd 5E       		.byte	0x5e
 9574 0efe 5E030000 		.4byte	.LVL162
 9575 0f02 B4030000 		.4byte	.LVL164
 9576 0f06 0100     		.2byte	0x1
 9577 0f08 5E       		.byte	0x5e
 9578 0f09 00000000 		.4byte	0
 9579 0f0d 00000000 		.4byte	0
 9580              	.LLST67:
 9581 0f11 00000000 		.4byte	.LVL169
 9582 0f15 27000000 		.4byte	.LVL171-1
 9583 0f19 0100     		.2byte	0x1
 9584 0f1b 50       		.byte	0x50
 9585 0f1c 27000000 		.4byte	.LVL171-1
 9586 0f20 A0000000 		.4byte	.LFE160
 9587 0f24 0200     		.2byte	0x2
 9588 0f26 91       		.byte	0x91
 9589 0f27 50       		.sleb128 -48
 9590 0f28 00000000 		.4byte	0
 9591 0f2c 00000000 		.4byte	0
 9592              	.LLST68:
 9593 0f30 00000000 		.4byte	.LVL169
 9594 0f34 27000000 		.4byte	.LVL171-1
 9595 0f38 0100     		.2byte	0x1
 9596 0f3a 51       		.byte	0x51
 9597 0f3b 27000000 		.4byte	.LVL171-1
 9598 0f3f A0000000 		.4byte	.LFE160
 9599 0f43 0400     		.2byte	0x4
 9600 0f45 F3       		.byte	0xf3
 9601 0f46 01       		.uleb128 0x1
 9602 0f47 51       		.byte	0x51
 9603 0f48 9F       		.byte	0x9f
 9604 0f49 00000000 		.4byte	0
 9605 0f4d 00000000 		.4byte	0
 9606              	.LLST69:
 9607 0f51 00000000 		.4byte	.LVL169
 9608 0f55 27000000 		.4byte	.LVL171-1
 9609 0f59 0100     		.2byte	0x1
 9610 0f5b 52       		.byte	0x52
 9611 0f5c 27000000 		.4byte	.LVL171-1
 9612 0f60 A0000000 		.4byte	.LFE160
 9613 0f64 0400     		.2byte	0x4
 9614 0f66 F3       		.byte	0xf3
 9615 0f67 01       		.uleb128 0x1
 9616 0f68 52       		.byte	0x52
 9617 0f69 9F       		.byte	0x9f
 9618 0f6a 00000000 		.4byte	0
 9619 0f6e 00000000 		.4byte	0
 9620              	.LLST70:
 9621 0f72 00000000 		.4byte	.LVL169
 9622 0f76 27000000 		.4byte	.LVL171-1
 9623 0f7a 0100     		.2byte	0x1
 9624 0f7c 53       		.byte	0x53
ARM GAS  C:\Users\haske\AppData\Local\Temp\cc9HFfJU.s 			page 192


 9625 0f7d 27000000 		.4byte	.LVL171-1
 9626 0f81 A0000000 		.4byte	.LFE160
 9627 0f85 0400     		.2byte	0x4
 9628 0f87 F3       		.byte	0xf3
 9629 0f88 01       		.uleb128 0x1
 9630 0f89 53       		.byte	0x53
 9631 0f8a 9F       		.byte	0x9f
 9632 0f8b 00000000 		.4byte	0
 9633 0f8f 00000000 		.4byte	0
 9634              	.LLST71:
 9635 0f93 00000000 		.4byte	.LVL169
 9636 0f97 44000000 		.4byte	.LVL175
 9637 0f9b 0200     		.2byte	0x2
 9638 0f9d 91       		.byte	0x91
 9639 0f9e 00       		.sleb128 0
 9640 0f9f 4C000000 		.4byte	.LVL176
 9641 0fa3 58000000 		.4byte	.LVL179
 9642 0fa7 0100     		.2byte	0x1
 9643 0fa9 53       		.byte	0x53
 9644 0faa 58000000 		.4byte	.LVL179
 9645 0fae 94000000 		.4byte	.LVL186
 9646 0fb2 0B00     		.2byte	0xb
 9647 0fb4 78       		.byte	0x78
 9648 0fb5 00       		.sleb128 0
 9649 0fb6 71       		.byte	0x71
 9650 0fb7 00       		.sleb128 0
 9651 0fb8 1E       		.byte	0x1e
 9652 0fb9 38       		.byte	0x38
 9653 0fba 26       		.byte	0x26
 9654 0fbb 7A       		.byte	0x7a
 9655 0fbc 00       		.sleb128 0
 9656 0fbd 22       		.byte	0x22
 9657 0fbe 9F       		.byte	0x9f
 9658 0fbf 94000000 		.4byte	.LVL186
 9659 0fc3 96000000 		.4byte	.LVL187
 9660 0fc7 0B00     		.2byte	0xb
 9661 0fc9 71       		.byte	0x71
 9662 0fca 7F       		.sleb128 -1
 9663 0fcb 78       		.byte	0x78
 9664 0fcc 00       		.sleb128 0
 9665 0fcd 1E       		.byte	0x1e
 9666 0fce 38       		.byte	0x38
 9667 0fcf 26       		.byte	0x26
 9668 0fd0 7A       		.byte	0x7a
 9669 0fd1 00       		.sleb128 0
 9670 0fd2 22       		.byte	0x22
 9671 0fd3 9F       		.byte	0x9f
 9672 0fd4 00000000 		.4byte	0
 9673 0fd8 00000000 		.4byte	0
 9674              	.LLST72:
 9675 0fdc 00000000 		.4byte	.LVL169
 9676 0fe0 44000000 		.4byte	.LVL175
 9677 0fe4 0200     		.2byte	0x2
 9678 0fe6 91       		.byte	0x91
 9679 0fe7 04       		.sleb128 4
 9680 0fe8 54000000 		.4byte	.LVL177
 9681 0fec 56000000 		.4byte	.LVL178
ARM GAS  C:\Users\haske\AppData\Local\Temp\cc9HFfJU.s 			page 193


 9682 0ff0 0100     		.2byte	0x1
 9683 0ff2 52       		.byte	0x52
 9684 0ff3 56000000 		.4byte	.LVL178
 9685 0ff7 94000000 		.4byte	.LVL186
 9686 0ffb 0B00     		.2byte	0xb
 9687 0ffd 77       		.byte	0x77
 9688 0ffe 00       		.sleb128 0
 9689 0fff 71       		.byte	0x71
 9690 1000 00       		.sleb128 0
 9691 1001 1E       		.byte	0x1e
 9692 1002 38       		.byte	0x38
 9693 1003 26       		.byte	0x26
 9694 1004 79       		.byte	0x79
 9695 1005 00       		.sleb128 0
 9696 1006 22       		.byte	0x22
 9697 1007 9F       		.byte	0x9f
 9698 1008 94000000 		.4byte	.LVL186
 9699 100c 96000000 		.4byte	.LVL187
 9700 1010 0B00     		.2byte	0xb
 9701 1012 71       		.byte	0x71
 9702 1013 7F       		.sleb128 -1
 9703 1014 77       		.byte	0x77
 9704 1015 00       		.sleb128 0
 9705 1016 1E       		.byte	0x1e
 9706 1017 38       		.byte	0x38
 9707 1018 26       		.byte	0x26
 9708 1019 79       		.byte	0x79
 9709 101a 00       		.sleb128 0
 9710 101b 22       		.byte	0x22
 9711 101c 9F       		.byte	0x9f
 9712 101d 00000000 		.4byte	0
 9713 1021 00000000 		.4byte	0
 9714              	.LLST73:
 9715 1025 28000000 		.4byte	.LVL171
 9716 1029 34000000 		.4byte	.LVL173
 9717 102d 0100     		.2byte	0x1
 9718 102f 50       		.byte	0x50
 9719 1030 00000000 		.4byte	0
 9720 1034 00000000 		.4byte	0
 9721              	.LLST74:
 9722 1038 2C000000 		.4byte	.LVL172
 9723 103c 37000000 		.4byte	.LVL174-1
 9724 1040 0100     		.2byte	0x1
 9725 1042 53       		.byte	0x53
 9726 1043 00000000 		.4byte	0
 9727 1047 00000000 		.4byte	0
 9728              	.LLST75:
 9729 104b 38000000 		.4byte	.LVL174
 9730 104f 44000000 		.4byte	.LVL175
 9731 1053 0200     		.2byte	0x2
 9732 1055 30       		.byte	0x30
 9733 1056 9F       		.byte	0x9f
 9734 1057 44000000 		.4byte	.LVL175
 9735 105b 94000000 		.4byte	.LVL186
 9736 105f 0100     		.2byte	0x1
 9737 1061 51       		.byte	0x51
 9738 1062 96000000 		.4byte	.LVL187
ARM GAS  C:\Users\haske\AppData\Local\Temp\cc9HFfJU.s 			page 194


 9739 1066 A0000000 		.4byte	.LFE160
 9740 106a 0100     		.2byte	0x1
 9741 106c 51       		.byte	0x51
 9742 106d 00000000 		.4byte	0
 9743 1071 00000000 		.4byte	0
 9744              	.LLST76:
 9745 1075 54000000 		.4byte	.LVL177
 9746 1079 58000000 		.4byte	.LVL179
 9747 107d 0500     		.2byte	0x5
 9748 107f 73       		.byte	0x73
 9749 1080 00       		.sleb128 0
 9750 1081 38       		.byte	0x38
 9751 1082 26       		.byte	0x26
 9752 1083 9F       		.byte	0x9f
 9753 1084 58000000 		.4byte	.LVL179
 9754 1088 68000000 		.4byte	.LVL180
 9755 108c 0100     		.2byte	0x1
 9756 108e 53       		.byte	0x53
 9757 108f 68000000 		.4byte	.LVL180
 9758 1093 6C000000 		.4byte	.LVL181
 9759 1097 0D00     		.2byte	0xd
 9760 1099 78       		.byte	0x78
 9761 109a 00       		.sleb128 0
 9762 109b 71       		.byte	0x71
 9763 109c 00       		.sleb128 0
 9764 109d 1E       		.byte	0x1e
 9765 109e 38       		.byte	0x38
 9766 109f 26       		.byte	0x26
 9767 10a0 7A       		.byte	0x7a
 9768 10a1 00       		.sleb128 0
 9769 10a2 22       		.byte	0x22
 9770 10a3 38       		.byte	0x38
 9771 10a4 26       		.byte	0x26
 9772 10a5 9F       		.byte	0x9f
 9773 10a6 6C000000 		.4byte	.LVL181
 9774 10aa 72000000 		.4byte	.LVL182
 9775 10ae 0100     		.2byte	0x1
 9776 10b0 53       		.byte	0x53
 9777 10b1 72000000 		.4byte	.LVL182
 9778 10b5 94000000 		.4byte	.LVL186
 9779 10b9 0D00     		.2byte	0xd
 9780 10bb 78       		.byte	0x78
 9781 10bc 00       		.sleb128 0
 9782 10bd 71       		.byte	0x71
 9783 10be 00       		.sleb128 0
 9784 10bf 1E       		.byte	0x1e
 9785 10c0 38       		.byte	0x38
 9786 10c1 26       		.byte	0x26
 9787 10c2 7A       		.byte	0x7a
 9788 10c3 00       		.sleb128 0
 9789 10c4 22       		.byte	0x22
 9790 10c5 38       		.byte	0x38
 9791 10c6 26       		.byte	0x26
 9792 10c7 9F       		.byte	0x9f
 9793 10c8 94000000 		.4byte	.LVL186
 9794 10cc 96000000 		.4byte	.LVL187
 9795 10d0 0D00     		.2byte	0xd
ARM GAS  C:\Users\haske\AppData\Local\Temp\cc9HFfJU.s 			page 195


 9796 10d2 71       		.byte	0x71
 9797 10d3 7F       		.sleb128 -1
 9798 10d4 78       		.byte	0x78
 9799 10d5 00       		.sleb128 0
 9800 10d6 1E       		.byte	0x1e
 9801 10d7 38       		.byte	0x38
 9802 10d8 26       		.byte	0x26
 9803 10d9 7A       		.byte	0x7a
 9804 10da 00       		.sleb128 0
 9805 10db 22       		.byte	0x22
 9806 10dc 38       		.byte	0x38
 9807 10dd 26       		.byte	0x26
 9808 10de 9F       		.byte	0x9f
 9809 10df 00000000 		.4byte	0
 9810 10e3 00000000 		.4byte	0
 9811              	.LLST77:
 9812 10e7 56000000 		.4byte	.LVL178
 9813 10eb 78000000 		.4byte	.LVL184
 9814 10ef 0100     		.2byte	0x1
 9815 10f1 52       		.byte	0x52
 9816 10f2 78000000 		.4byte	.LVL184
 9817 10f6 94000000 		.4byte	.LVL186
 9818 10fa 0D00     		.2byte	0xd
 9819 10fc 77       		.byte	0x77
 9820 10fd 00       		.sleb128 0
 9821 10fe 71       		.byte	0x71
 9822 10ff 00       		.sleb128 0
 9823 1100 1E       		.byte	0x1e
 9824 1101 38       		.byte	0x38
 9825 1102 26       		.byte	0x26
 9826 1103 79       		.byte	0x79
 9827 1104 00       		.sleb128 0
 9828 1105 22       		.byte	0x22
 9829 1106 38       		.byte	0x38
 9830 1107 26       		.byte	0x26
 9831 1108 9F       		.byte	0x9f
 9832 1109 94000000 		.4byte	.LVL186
 9833 110d 96000000 		.4byte	.LVL187
 9834 1111 0D00     		.2byte	0xd
 9835 1113 71       		.byte	0x71
 9836 1114 7F       		.sleb128 -1
 9837 1115 77       		.byte	0x77
 9838 1116 00       		.sleb128 0
 9839 1117 1E       		.byte	0x1e
 9840 1118 38       		.byte	0x38
 9841 1119 26       		.byte	0x26
 9842 111a 79       		.byte	0x79
 9843 111b 00       		.sleb128 0
 9844 111c 22       		.byte	0x22
 9845 111d 38       		.byte	0x38
 9846 111e 26       		.byte	0x26
 9847 111f 9F       		.byte	0x9f
 9848 1120 00000000 		.4byte	0
 9849 1124 00000000 		.4byte	0
 9850              	.LLST78:
 9851 1128 6C000000 		.4byte	.LVL181
 9852 112c 72000000 		.4byte	.LVL182
ARM GAS  C:\Users\haske\AppData\Local\Temp\cc9HFfJU.s 			page 196


 9853 1130 0100     		.2byte	0x1
 9854 1132 5C       		.byte	0x5c
 9855 1133 72000000 		.4byte	.LVL182
 9856 1137 76000000 		.4byte	.LVL183
 9857 113b 0800     		.2byte	0x8
 9858 113d 73       		.byte	0x73
 9859 113e 00       		.sleb128 0
 9860 113f 31       		.byte	0x31
 9861 1140 24       		.byte	0x24
 9862 1141 7C       		.byte	0x7c
 9863 1142 00       		.sleb128 0
 9864 1143 22       		.byte	0x22
 9865 1144 9F       		.byte	0x9f
 9866 1145 76000000 		.4byte	.LVL183
 9867 1149 78000000 		.4byte	.LVL184
 9868 114d 1800     		.2byte	0x18
 9869 114f 72       		.byte	0x72
 9870 1150 00       		.sleb128 0
 9871 1151 70       		.byte	0x70
 9872 1152 00       		.sleb128 0
 9873 1153 1E       		.byte	0x1e
 9874 1154 78       		.byte	0x78
 9875 1155 00       		.sleb128 0
 9876 1156 71       		.byte	0x71
 9877 1157 00       		.sleb128 0
 9878 1158 1E       		.byte	0x1e
 9879 1159 38       		.byte	0x38
 9880 115a 26       		.byte	0x26
 9881 115b 7A       		.byte	0x7a
 9882 115c 00       		.sleb128 0
 9883 115d 22       		.byte	0x22
 9884 115e 38       		.byte	0x38
 9885 115f 26       		.byte	0x26
 9886 1160 22       		.byte	0x22
 9887 1161 31       		.byte	0x31
 9888 1162 24       		.byte	0x24
 9889 1163 7C       		.byte	0x7c
 9890 1164 00       		.sleb128 0
 9891 1165 22       		.byte	0x22
 9892 1166 9F       		.byte	0x9f
 9893 1167 78000000 		.4byte	.LVL184
 9894 116b 7C000000 		.4byte	.LVL185
 9895 116f 2200     		.2byte	0x22
 9896 1171 77       		.byte	0x77
 9897 1172 00       		.sleb128 0
 9898 1173 71       		.byte	0x71
 9899 1174 00       		.sleb128 0
 9900 1175 1E       		.byte	0x1e
 9901 1176 38       		.byte	0x38
 9902 1177 26       		.byte	0x26
 9903 1178 79       		.byte	0x79
 9904 1179 00       		.sleb128 0
 9905 117a 22       		.byte	0x22
 9906 117b 38       		.byte	0x38
 9907 117c 26       		.byte	0x26
 9908 117d 70       		.byte	0x70
 9909 117e 00       		.sleb128 0
ARM GAS  C:\Users\haske\AppData\Local\Temp\cc9HFfJU.s 			page 197


 9910 117f 1E       		.byte	0x1e
 9911 1180 78       		.byte	0x78
 9912 1181 00       		.sleb128 0
 9913 1182 71       		.byte	0x71
 9914 1183 00       		.sleb128 0
 9915 1184 1E       		.byte	0x1e
 9916 1185 38       		.byte	0x38
 9917 1186 26       		.byte	0x26
 9918 1187 7A       		.byte	0x7a
 9919 1188 00       		.sleb128 0
 9920 1189 22       		.byte	0x22
 9921 118a 38       		.byte	0x38
 9922 118b 26       		.byte	0x26
 9923 118c 22       		.byte	0x22
 9924 118d 31       		.byte	0x31
 9925 118e 24       		.byte	0x24
 9926 118f 7C       		.byte	0x7c
 9927 1190 00       		.sleb128 0
 9928 1191 22       		.byte	0x22
 9929 1192 9F       		.byte	0x9f
 9930 1193 00000000 		.4byte	0
 9931 1197 00000000 		.4byte	0
 9932              	.LLST79:
 9933 119b 00000000 		.4byte	.LVL188
 9934 119f 5C000000 		.4byte	.LVL195
 9935 11a3 0100     		.2byte	0x1
 9936 11a5 50       		.byte	0x50
 9937 11a6 5C000000 		.4byte	.LVL195
 9938 11aa 1C020000 		.4byte	.LFE159
 9939 11ae 0400     		.2byte	0x4
 9940 11b0 F3       		.byte	0xf3
 9941 11b1 01       		.uleb128 0x1
 9942 11b2 50       		.byte	0x50
 9943 11b3 9F       		.byte	0x9f
 9944 11b4 00000000 		.4byte	0
 9945 11b8 00000000 		.4byte	0
 9946              	.LLST80:
 9947 11bc 00000000 		.4byte	.LVL188
 9948 11c0 2E000000 		.4byte	.LVL190
 9949 11c4 0100     		.2byte	0x1
 9950 11c6 51       		.byte	0x51
 9951 11c7 2E000000 		.4byte	.LVL190
 9952 11cb FA000000 		.4byte	.LVL212
 9953 11cf 0100     		.2byte	0x1
 9954 11d1 54       		.byte	0x54
 9955 11d2 FA000000 		.4byte	.LVL212
 9956 11d6 04010000 		.4byte	.LVL213
 9957 11da 0100     		.2byte	0x1
 9958 11dc 52       		.byte	0x52
 9959 11dd 04010000 		.4byte	.LVL213
 9960 11e1 16020000 		.4byte	.LVL254
 9961 11e5 0100     		.2byte	0x1
 9962 11e7 59       		.byte	0x59
 9963 11e8 16020000 		.4byte	.LVL254
 9964 11ec 1C020000 		.4byte	.LFE159
 9965 11f0 0400     		.2byte	0x4
 9966 11f2 F3       		.byte	0xf3
ARM GAS  C:\Users\haske\AppData\Local\Temp\cc9HFfJU.s 			page 198


 9967 11f3 01       		.uleb128 0x1
 9968 11f4 51       		.byte	0x51
 9969 11f5 9F       		.byte	0x9f
 9970 11f6 00000000 		.4byte	0
 9971 11fa 00000000 		.4byte	0
 9972              	.LLST81:
 9973 11fe 00000000 		.4byte	.LVL188
 9974 1202 32000000 		.4byte	.LVL191
 9975 1206 0100     		.2byte	0x1
 9976 1208 52       		.byte	0x52
 9977 1209 32000000 		.4byte	.LVL191
 9978 120d 16020000 		.4byte	.LVL254
 9979 1211 0300     		.2byte	0x3
 9980 1213 91       		.byte	0x91
 9981 1214 FC7E     		.sleb128 -132
 9982 1216 16020000 		.4byte	.LVL254
 9983 121a 1C020000 		.4byte	.LFE159
 9984 121e 0300     		.2byte	0x3
 9985 1220 7D       		.byte	0x7d
 9986 1221 FC7E     		.sleb128 -132
 9987 1223 00000000 		.4byte	0
 9988 1227 00000000 		.4byte	0
 9989              	.LLST82:
 9990 122b 00000000 		.4byte	.LVL188
 9991 122f 10000000 		.4byte	.LVL189
 9992 1233 0100     		.2byte	0x1
 9993 1235 53       		.byte	0x53
 9994 1236 10000000 		.4byte	.LVL189
 9995 123a 1C020000 		.4byte	.LFE159
 9996 123e 0400     		.2byte	0x4
 9997 1240 F3       		.byte	0xf3
 9998 1241 01       		.uleb128 0x1
 9999 1242 53       		.byte	0x53
 10000 1243 9F       		.byte	0x9f
 10001 1244 00000000 		.4byte	0
 10002 1248 00000000 		.4byte	0
 10003              	.LLST83:
 10004 124c 00000000 		.4byte	.LVL188
 10005 1250 16020000 		.4byte	.LVL254
 10006 1254 0200     		.2byte	0x2
 10007 1256 91       		.byte	0x91
 10008 1257 00       		.sleb128 0
 10009 1258 16020000 		.4byte	.LVL254
 10010 125c 1C020000 		.4byte	.LFE159
 10011 1260 0200     		.2byte	0x2
 10012 1262 7D       		.byte	0x7d
 10013 1263 00       		.sleb128 0
 10014 1264 00000000 		.4byte	0
 10015 1268 00000000 		.4byte	0
 10016              	.LLST84:
 10017 126c 00000000 		.4byte	.LVL188
 10018 1270 16020000 		.4byte	.LVL254
 10019 1274 0200     		.2byte	0x2
 10020 1276 91       		.byte	0x91
 10021 1277 04       		.sleb128 4
 10022 1278 16020000 		.4byte	.LVL254
 10023 127c 1C020000 		.4byte	.LFE159
ARM GAS  C:\Users\haske\AppData\Local\Temp\cc9HFfJU.s 			page 199


 10024 1280 0200     		.2byte	0x2
 10025 1282 7D       		.byte	0x7d
 10026 1283 04       		.sleb128 4
 10027 1284 00000000 		.4byte	0
 10028 1288 00000000 		.4byte	0
 10029              	.LLST85:
 10030 128c 00000000 		.4byte	.LVL188
 10031 1290 16020000 		.4byte	.LVL254
 10032 1294 0200     		.2byte	0x2
 10033 1296 91       		.byte	0x91
 10034 1297 08       		.sleb128 8
 10035 1298 16020000 		.4byte	.LVL254
 10036 129c 1C020000 		.4byte	.LFE159
 10037 12a0 0200     		.2byte	0x2
 10038 12a2 7D       		.byte	0x7d
 10039 12a3 08       		.sleb128 8
 10040 12a4 00000000 		.4byte	0
 10041 12a8 00000000 		.4byte	0
 10042              	.LLST86:
 10043 12ac 00000000 		.4byte	.LVL188
 10044 12b0 16020000 		.4byte	.LVL254
 10045 12b4 0200     		.2byte	0x2
 10046 12b6 91       		.byte	0x91
 10047 12b7 0C       		.sleb128 12
 10048 12b8 16020000 		.4byte	.LVL254
 10049 12bc 1C020000 		.4byte	.LFE159
 10050 12c0 0200     		.2byte	0x2
 10051 12c2 7D       		.byte	0x7d
 10052 12c3 0C       		.sleb128 12
 10053 12c4 00000000 		.4byte	0
 10054 12c8 00000000 		.4byte	0
 10055              	.LLST87:
 10056 12cc 00000000 		.4byte	.LVL188
 10057 12d0 04010000 		.4byte	.LVL213
 10058 12d4 0200     		.2byte	0x2
 10059 12d6 91       		.byte	0x91
 10060 12d7 10       		.sleb128 16
 10061 12d8 04010000 		.4byte	.LVL213
 10062 12dc 16020000 		.4byte	.LVL254
 10063 12e0 0100     		.2byte	0x1
 10064 12e2 56       		.byte	0x56
 10065 12e3 00000000 		.4byte	0
 10066 12e7 00000000 		.4byte	0
 10067              	.LLST88:
 10068 12eb 00000000 		.4byte	.LVL188
 10069 12ef 04010000 		.4byte	.LVL213
 10070 12f3 0200     		.2byte	0x2
 10071 12f5 91       		.byte	0x91
 10072 12f6 14       		.sleb128 20
 10073 12f7 04010000 		.4byte	.LVL213
 10074 12fb 16020000 		.4byte	.LVL254
 10075 12ff 0100     		.2byte	0x1
 10076 1301 55       		.byte	0x55
 10077 1302 00000000 		.4byte	0
 10078 1306 00000000 		.4byte	0
 10079              	.LLST89:
 10080 130a 4A000000 		.4byte	.LVL192
ARM GAS  C:\Users\haske\AppData\Local\Temp\cc9HFfJU.s 			page 200


 10081 130e 78000000 		.4byte	.LVL203
 10082 1312 0100     		.2byte	0x1
 10083 1314 58       		.byte	0x58
 10084 1315 78000000 		.4byte	.LVL203
 10085 1319 16020000 		.4byte	.LVL254
 10086 131d 0700     		.2byte	0x7
 10087 131f 91       		.byte	0x91
 10088 1320 8C7F     		.sleb128 -116
 10089 1322 06       		.byte	0x6
 10090 1323 31       		.byte	0x31
 10091 1324 1C       		.byte	0x1c
 10092 1325 9F       		.byte	0x9f
 10093 1326 16020000 		.4byte	.LVL254
 10094 132a 1C020000 		.4byte	.LFE159
 10095 132e 0700     		.2byte	0x7
 10096 1330 7D       		.byte	0x7d
 10097 1331 8C7F     		.sleb128 -116
 10098 1333 06       		.byte	0x6
 10099 1334 31       		.byte	0x31
 10100 1335 1C       		.byte	0x1c
 10101 1336 9F       		.byte	0x9f
 10102 1337 00000000 		.4byte	0
 10103 133b 00000000 		.4byte	0
 10104              	.LLST90:
 10105 133f 50000000 		.4byte	.LVL193
 10106 1343 5F000000 		.4byte	.LVL196-1
 10107 1347 0100     		.2byte	0x1
 10108 1349 52       		.byte	0x52
 10109 134a 5F000000 		.4byte	.LVL196-1
 10110 134e 16020000 		.4byte	.LVL254
 10111 1352 0300     		.2byte	0x3
 10112 1354 91       		.byte	0x91
 10113 1355 8C7F     		.sleb128 -116
 10114 1357 16020000 		.4byte	.LVL254
 10115 135b 1C020000 		.4byte	.LFE159
 10116 135f 0300     		.2byte	0x3
 10117 1361 7D       		.byte	0x7d
 10118 1362 8C7F     		.sleb128 -116
 10119 1364 00000000 		.4byte	0
 10120 1368 00000000 		.4byte	0
 10121              	.LLST91:
 10122 136c 58000000 		.4byte	.LVL194
 10123 1370 D2000000 		.4byte	.LVL209
 10124 1374 0100     		.2byte	0x1
 10125 1376 59       		.byte	0x59
 10126 1377 00000000 		.4byte	0
 10127 137b 00000000 		.4byte	0
 10128              	.LLST92:
 10129 137f 62000000 		.4byte	.LVL197
 10130 1383 66000000 		.4byte	.LVL198
 10131 1387 0100     		.2byte	0x1
 10132 1389 50       		.byte	0x50
 10133 138a 66000000 		.4byte	.LVL198
 10134 138e 16020000 		.4byte	.LVL254
 10135 1392 0300     		.2byte	0x3
 10136 1394 91       		.byte	0x91
 10137 1395 907F     		.sleb128 -112
ARM GAS  C:\Users\haske\AppData\Local\Temp\cc9HFfJU.s 			page 201


 10138 1397 16020000 		.4byte	.LVL254
 10139 139b 1C020000 		.4byte	.LFE159
 10140 139f 0300     		.2byte	0x3
 10141 13a1 7D       		.byte	0x7d
 10142 13a2 907F     		.sleb128 -112
 10143 13a4 00000000 		.4byte	0
 10144 13a8 00000000 		.4byte	0
 10145              	.LLST93:
 10146 13ac 6C000000 		.4byte	.LVL200
 10147 13b0 70000000 		.4byte	.LVL201
 10148 13b4 0100     		.2byte	0x1
 10149 13b6 50       		.byte	0x50
 10150 13b7 70000000 		.4byte	.LVL201
 10151 13bb 16020000 		.4byte	.LVL254
 10152 13bf 0300     		.2byte	0x3
 10153 13c1 91       		.byte	0x91
 10154 13c2 947F     		.sleb128 -108
 10155 13c4 16020000 		.4byte	.LVL254
 10156 13c8 1C020000 		.4byte	.LFE159
 10157 13cc 0300     		.2byte	0x3
 10158 13ce 7D       		.byte	0x7d
 10159 13cf 947F     		.sleb128 -108
 10160 13d1 00000000 		.4byte	0
 10161 13d5 00000000 		.4byte	0
 10162              	.LLST94:
 10163 13d9 78000000 		.4byte	.LVL203
 10164 13dd 7E000000 		.4byte	.LVL204
 10165 13e1 0100     		.2byte	0x1
 10166 13e3 50       		.byte	0x50
 10167 13e4 7E000000 		.4byte	.LVL204
 10168 13e8 A6000000 		.4byte	.LVL207
 10169 13ec 0100     		.2byte	0x1
 10170 13ee 58       		.byte	0x58
 10171 13ef 00000000 		.4byte	0
 10172 13f3 00000000 		.4byte	0
 10173              	.LLST95:
 10174 13f7 84000000 		.4byte	.LVL205
 10175 13fb A2000000 		.4byte	.LVL206
 10176 13ff 0100     		.2byte	0x1
 10177 1401 50       		.byte	0x50
 10178 1402 00000000 		.4byte	0
 10179 1406 00000000 		.4byte	0
 10180              	.LLST96:
 10181 140a F2000000 		.4byte	.LVL211
 10182 140e 04010000 		.4byte	.LVL213
 10183 1412 0200     		.2byte	0x2
 10184 1414 30       		.byte	0x30
 10185 1415 9F       		.byte	0x9f
 10186 1416 04010000 		.4byte	.LVL213
 10187 141a 06020000 		.4byte	.LVL252
 10188 141e 0100     		.2byte	0x1
 10189 1420 58       		.byte	0x58
 10190 1421 0A020000 		.4byte	.LVL253
 10191 1425 16020000 		.4byte	.LVL254
 10192 1429 0100     		.2byte	0x1
 10193 142b 58       		.byte	0x58
 10194 142c 00000000 		.4byte	0
ARM GAS  C:\Users\haske\AppData\Local\Temp\cc9HFfJU.s 			page 202


 10195 1430 00000000 		.4byte	0
 10196              	.LLST97:
 10197 1434 CA000000 		.4byte	.LVL208
 10198 1438 DE000000 		.4byte	.LVL210
 10199 143c 0100     		.2byte	0x1
 10200 143e 54       		.byte	0x54
 10201 143f 00000000 		.4byte	0
 10202 1443 00000000 		.4byte	0
 10203              	.LLST98:
 10204 1447 DE000000 		.4byte	.LVL210
 10205 144b F2000000 		.4byte	.LVL211
 10206 144f 0100     		.2byte	0x1
 10207 1451 54       		.byte	0x54
 10208 1452 00000000 		.4byte	0
 10209 1456 00000000 		.4byte	0
 10210              	.LLST99:
 10211 145a 36010000 		.4byte	.LVL216
 10212 145e 46010000 		.4byte	.LVL218
 10213 1462 0100     		.2byte	0x1
 10214 1464 53       		.byte	0x53
 10215 1465 46010000 		.4byte	.LVL218
 10216 1469 56010000 		.4byte	.LVL221
 10217 146d 0800     		.2byte	0x8
 10218 146f 91       		.byte	0x91
 10219 1470 A47F     		.sleb128 -92
 10220 1472 06       		.byte	0x6
 10221 1473 70       		.byte	0x70
 10222 1474 00       		.sleb128 0
 10223 1475 1C       		.byte	0x1c
 10224 1476 9F       		.byte	0x9f
 10225 1477 56010000 		.4byte	.LVL221
 10226 147b 58010000 		.4byte	.LVL222
 10227 147f 0100     		.2byte	0x1
 10228 1481 53       		.byte	0x53
 10229 1482 58010000 		.4byte	.LVL222
 10230 1486 5C010000 		.4byte	.LVL224
 10231 148a 0800     		.2byte	0x8
 10232 148c 91       		.byte	0x91
 10233 148d A47F     		.sleb128 -92
 10234 148f 06       		.byte	0x6
 10235 1490 70       		.byte	0x70
 10236 1491 00       		.sleb128 0
 10237 1492 1C       		.byte	0x1c
 10238 1493 9F       		.byte	0x9f
 10239 1494 5C010000 		.4byte	.LVL224
 10240 1498 A3010000 		.4byte	.LVL231-1
 10241 149c 0A00     		.2byte	0xa
 10242 149e 91       		.byte	0x91
 10243 149f A47F     		.sleb128 -92
 10244 14a1 06       		.byte	0x6
 10245 14a2 91       		.byte	0x91
 10246 14a3 9C7F     		.sleb128 -100
 10247 14a5 06       		.byte	0x6
 10248 14a6 1C       		.byte	0x1c
 10249 14a7 9F       		.byte	0x9f
 10250 14a8 A6010000 		.4byte	.LVL232
 10251 14ac C1010000 		.4byte	.LVL237-1
ARM GAS  C:\Users\haske\AppData\Local\Temp\cc9HFfJU.s 			page 203


 10252 14b0 0A00     		.2byte	0xa
 10253 14b2 91       		.byte	0x91
 10254 14b3 A47F     		.sleb128 -92
 10255 14b5 06       		.byte	0x6
 10256 14b6 91       		.byte	0x91
 10257 14b7 9C7F     		.sleb128 -100
 10258 14b9 06       		.byte	0x6
 10259 14ba 1C       		.byte	0x1c
 10260 14bb 9F       		.byte	0x9f
 10261 14bc C4010000 		.4byte	.LVL238
 10262 14c0 DD010000 		.4byte	.LVL243-1
 10263 14c4 0A00     		.2byte	0xa
 10264 14c6 91       		.byte	0x91
 10265 14c7 A47F     		.sleb128 -92
 10266 14c9 06       		.byte	0x6
 10267 14ca 91       		.byte	0x91
 10268 14cb 9C7F     		.sleb128 -100
 10269 14cd 06       		.byte	0x6
 10270 14ce 1C       		.byte	0x1c
 10271 14cf 9F       		.byte	0x9f
 10272 14d0 E0010000 		.4byte	.LVL244
 10273 14d4 FB010000 		.4byte	.LVL249-1
 10274 14d8 0A00     		.2byte	0xa
 10275 14da 91       		.byte	0x91
 10276 14db A47F     		.sleb128 -92
 10277 14dd 06       		.byte	0x6
 10278 14de 91       		.byte	0x91
 10279 14df 9C7F     		.sleb128 -100
 10280 14e1 06       		.byte	0x6
 10281 14e2 1C       		.byte	0x1c
 10282 14e3 9F       		.byte	0x9f
 10283 14e4 00000000 		.4byte	0
 10284 14e8 00000000 		.4byte	0
 10285              	.LLST100:
 10286 14ec 40010000 		.4byte	.LVL217
 10287 14f0 60010000 		.4byte	.LVL225
 10288 14f4 0100     		.2byte	0x1
 10289 14f6 52       		.byte	0x52
 10290 14f7 60010000 		.4byte	.LVL225
 10291 14fb 64010000 		.4byte	.LVL226
 10292 14ff 0800     		.2byte	0x8
 10293 1501 91       		.byte	0x91
 10294 1502 A87F     		.sleb128 -88
 10295 1504 06       		.byte	0x6
 10296 1505 7E       		.byte	0x7e
 10297 1506 00       		.sleb128 0
 10298 1507 1C       		.byte	0x1c
 10299 1508 9F       		.byte	0x9f
 10300 1509 64010000 		.4byte	.LVL226
 10301 150d A3010000 		.4byte	.LVL231-1
 10302 1511 0A00     		.2byte	0xa
 10303 1513 91       		.byte	0x91
 10304 1514 A87F     		.sleb128 -88
 10305 1516 06       		.byte	0x6
 10306 1517 91       		.byte	0x91
 10307 1518 A07F     		.sleb128 -96
 10308 151a 06       		.byte	0x6
ARM GAS  C:\Users\haske\AppData\Local\Temp\cc9HFfJU.s 			page 204


 10309 151b 1C       		.byte	0x1c
 10310 151c 9F       		.byte	0x9f
 10311 151d A6010000 		.4byte	.LVL232
 10312 1521 C1010000 		.4byte	.LVL237-1
 10313 1525 0A00     		.2byte	0xa
 10314 1527 91       		.byte	0x91
 10315 1528 A87F     		.sleb128 -88
 10316 152a 06       		.byte	0x6
 10317 152b 91       		.byte	0x91
 10318 152c A07F     		.sleb128 -96
 10319 152e 06       		.byte	0x6
 10320 152f 1C       		.byte	0x1c
 10321 1530 9F       		.byte	0x9f
 10322 1531 C4010000 		.4byte	.LVL238
 10323 1535 DD010000 		.4byte	.LVL243-1
 10324 1539 0A00     		.2byte	0xa
 10325 153b 91       		.byte	0x91
 10326 153c A87F     		.sleb128 -88
 10327 153e 06       		.byte	0x6
 10328 153f 91       		.byte	0x91
 10329 1540 A07F     		.sleb128 -96
 10330 1542 06       		.byte	0x6
 10331 1543 1C       		.byte	0x1c
 10332 1544 9F       		.byte	0x9f
 10333 1545 E0010000 		.4byte	.LVL244
 10334 1549 FB010000 		.4byte	.LVL249-1
 10335 154d 0A00     		.2byte	0xa
 10336 154f 91       		.byte	0x91
 10337 1550 A87F     		.sleb128 -88
 10338 1552 06       		.byte	0x6
 10339 1553 91       		.byte	0x91
 10340 1554 A07F     		.sleb128 -96
 10341 1556 06       		.byte	0x6
 10342 1557 1C       		.byte	0x1c
 10343 1558 9F       		.byte	0x9f
 10344 1559 00000000 		.4byte	0
 10345 155d 00000000 		.4byte	0
 10346              	.LLST101:
 10347 1561 40010000 		.4byte	.LVL217
 10348 1565 4E010000 		.4byte	.LVL219
 10349 1569 0200     		.2byte	0x2
 10350 156b 30       		.byte	0x30
 10351 156c 9F       		.byte	0x9f
 10352 156d 4E010000 		.4byte	.LVL219
 10353 1571 56010000 		.4byte	.LVL221
 10354 1575 0100     		.2byte	0x1
 10355 1577 51       		.byte	0x51
 10356 1578 56010000 		.4byte	.LVL221
 10357 157c 5A010000 		.4byte	.LVL223
 10358 1580 0200     		.2byte	0x2
 10359 1582 30       		.byte	0x30
 10360 1583 9F       		.byte	0x9f
 10361 1584 5A010000 		.4byte	.LVL223
 10362 1588 9E010000 		.4byte	.LVL229
 10363 158c 0100     		.2byte	0x1
 10364 158e 51       		.byte	0x51
 10365 158f 9E010000 		.4byte	.LVL229
ARM GAS  C:\Users\haske\AppData\Local\Temp\cc9HFfJU.s 			page 205


 10366 1593 A3010000 		.4byte	.LVL231-1
 10367 1597 0300     		.2byte	0x3
 10368 1599 91       		.byte	0x91
 10369 159a E07E     		.sleb128 -160
 10370 159c A6010000 		.4byte	.LVL232
 10371 15a0 BC010000 		.4byte	.LVL235
 10372 15a4 0100     		.2byte	0x1
 10373 15a6 51       		.byte	0x51
 10374 15a7 BC010000 		.4byte	.LVL235
 10375 15ab C1010000 		.4byte	.LVL237-1
 10376 15af 0300     		.2byte	0x3
 10377 15b1 91       		.byte	0x91
 10378 15b2 E07E     		.sleb128 -160
 10379 15b4 C4010000 		.4byte	.LVL238
 10380 15b8 D8010000 		.4byte	.LVL241
 10381 15bc 0100     		.2byte	0x1
 10382 15be 51       		.byte	0x51
 10383 15bf D8010000 		.4byte	.LVL241
 10384 15c3 DD010000 		.4byte	.LVL243-1
 10385 15c7 0300     		.2byte	0x3
 10386 15c9 91       		.byte	0x91
 10387 15ca E07E     		.sleb128 -160
 10388 15cc E0010000 		.4byte	.LVL244
 10389 15d0 F6010000 		.4byte	.LVL247
 10390 15d4 0100     		.2byte	0x1
 10391 15d6 51       		.byte	0x51
 10392 15d7 F6010000 		.4byte	.LVL247
 10393 15db FB010000 		.4byte	.LVL249-1
 10394 15df 0300     		.2byte	0x3
 10395 15e1 91       		.byte	0x91
 10396 15e2 E07E     		.sleb128 -160
 10397 15e4 00000000 		.4byte	0
 10398 15e8 00000000 		.4byte	0
 10399              	.LLST102:
 10400 15ec 40010000 		.4byte	.LVL217
 10401 15f0 54010000 		.4byte	.LVL220
 10402 15f4 0200     		.2byte	0x2
 10403 15f6 30       		.byte	0x30
 10404 15f7 9F       		.byte	0x9f
 10405 15f8 54010000 		.4byte	.LVL220
 10406 15fc 56010000 		.4byte	.LVL221
 10407 1600 0100     		.2byte	0x1
 10408 1602 53       		.byte	0x53
 10409 1603 56010000 		.4byte	.LVL221
 10410 1607 5A010000 		.4byte	.LVL223
 10411 160b 0200     		.2byte	0x2
 10412 160d 30       		.byte	0x30
 10413 160e 9F       		.byte	0x9f
 10414 160f 5A010000 		.4byte	.LVL223
 10415 1613 9A010000 		.4byte	.LVL227
 10416 1617 0100     		.2byte	0x1
 10417 1619 53       		.byte	0x53
 10418 161a 9A010000 		.4byte	.LVL227
 10419 161e A3010000 		.4byte	.LVL231-1
 10420 1622 0300     		.2byte	0x3
 10421 1624 91       		.byte	0x91
 10422 1625 E47E     		.sleb128 -156
ARM GAS  C:\Users\haske\AppData\Local\Temp\cc9HFfJU.s 			page 206


 10423 1627 A6010000 		.4byte	.LVL232
 10424 162b B8010000 		.4byte	.LVL233
 10425 162f 0100     		.2byte	0x1
 10426 1631 53       		.byte	0x53
 10427 1632 B8010000 		.4byte	.LVL233
 10428 1636 C1010000 		.4byte	.LVL237-1
 10429 163a 0300     		.2byte	0x3
 10430 163c 91       		.byte	0x91
 10431 163d E47E     		.sleb128 -156
 10432 163f C4010000 		.4byte	.LVL238
 10433 1643 D4010000 		.4byte	.LVL239
 10434 1647 0100     		.2byte	0x1
 10435 1649 53       		.byte	0x53
 10436 164a D4010000 		.4byte	.LVL239
 10437 164e DD010000 		.4byte	.LVL243-1
 10438 1652 0300     		.2byte	0x3
 10439 1654 91       		.byte	0x91
 10440 1655 E47E     		.sleb128 -156
 10441 1657 E0010000 		.4byte	.LVL244
 10442 165b F2010000 		.4byte	.LVL245
 10443 165f 0100     		.2byte	0x1
 10444 1661 53       		.byte	0x53
 10445 1662 F2010000 		.4byte	.LVL245
 10446 1666 FB010000 		.4byte	.LVL249-1
 10447 166a 0300     		.2byte	0x3
 10448 166c 91       		.byte	0x91
 10449 166d E47E     		.sleb128 -156
 10450 166f 00000000 		.4byte	0
 10451 1673 00000000 		.4byte	0
 10452              	.LLST103:
 10453 1677 5C010000 		.4byte	.LVL224
 10454 167b A0010000 		.4byte	.LVL230
 10455 167f 0100     		.2byte	0x1
 10456 1681 50       		.byte	0x50
 10457 1682 A0010000 		.4byte	.LVL230
 10458 1686 A3010000 		.4byte	.LVL231-1
 10459 168a 0200     		.2byte	0x2
 10460 168c 7D       		.byte	0x7d
 10461 168d 00       		.sleb128 0
 10462 168e A6010000 		.4byte	.LVL232
 10463 1692 BE010000 		.4byte	.LVL236
 10464 1696 0100     		.2byte	0x1
 10465 1698 50       		.byte	0x50
 10466 1699 BE010000 		.4byte	.LVL236
 10467 169d C1010000 		.4byte	.LVL237-1
 10468 16a1 0200     		.2byte	0x2
 10469 16a3 7D       		.byte	0x7d
 10470 16a4 00       		.sleb128 0
 10471 16a5 C4010000 		.4byte	.LVL238
 10472 16a9 DA010000 		.4byte	.LVL242
 10473 16ad 0100     		.2byte	0x1
 10474 16af 50       		.byte	0x50
 10475 16b0 DA010000 		.4byte	.LVL242
 10476 16b4 DD010000 		.4byte	.LVL243-1
 10477 16b8 0200     		.2byte	0x2
 10478 16ba 7D       		.byte	0x7d
 10479 16bb 00       		.sleb128 0
ARM GAS  C:\Users\haske\AppData\Local\Temp\cc9HFfJU.s 			page 207


 10480 16bc E0010000 		.4byte	.LVL244
 10481 16c0 F8010000 		.4byte	.LVL248
 10482 16c4 0100     		.2byte	0x1
 10483 16c6 50       		.byte	0x50
 10484 16c7 F8010000 		.4byte	.LVL248
 10485 16cb FB010000 		.4byte	.LVL249-1
 10486 16cf 0200     		.2byte	0x2
 10487 16d1 7D       		.byte	0x7d
 10488 16d2 00       		.sleb128 0
 10489 16d3 00000000 		.4byte	0
 10490 16d7 00000000 		.4byte	0
 10491              	.LLST104:
 10492 16db 60010000 		.4byte	.LVL225
 10493 16df 9C010000 		.4byte	.LVL228
 10494 16e3 0100     		.2byte	0x1
 10495 16e5 52       		.byte	0x52
 10496 16e6 9C010000 		.4byte	.LVL228
 10497 16ea A3010000 		.4byte	.LVL231-1
 10498 16ee 0300     		.2byte	0x3
 10499 16f0 91       		.byte	0x91
 10500 16f1 DC7E     		.sleb128 -164
 10501 16f3 A6010000 		.4byte	.LVL232
 10502 16f7 BA010000 		.4byte	.LVL234
 10503 16fb 0100     		.2byte	0x1
 10504 16fd 52       		.byte	0x52
 10505 16fe BA010000 		.4byte	.LVL234
 10506 1702 C1010000 		.4byte	.LVL237-1
 10507 1706 0300     		.2byte	0x3
 10508 1708 91       		.byte	0x91
 10509 1709 DC7E     		.sleb128 -164
 10510 170b C4010000 		.4byte	.LVL238
 10511 170f D6010000 		.4byte	.LVL240
 10512 1713 0100     		.2byte	0x1
 10513 1715 52       		.byte	0x52
 10514 1716 D6010000 		.4byte	.LVL240
 10515 171a DD010000 		.4byte	.LVL243-1
 10516 171e 0300     		.2byte	0x3
 10517 1720 91       		.byte	0x91
 10518 1721 DC7E     		.sleb128 -164
 10519 1723 E0010000 		.4byte	.LVL244
 10520 1727 F4010000 		.4byte	.LVL246
 10521 172b 0100     		.2byte	0x1
 10522 172d 52       		.byte	0x52
 10523 172e F4010000 		.4byte	.LVL246
 10524 1732 FB010000 		.4byte	.LVL249-1
 10525 1736 0300     		.2byte	0x3
 10526 1738 91       		.byte	0x91
 10527 1739 DC7E     		.sleb128 -164
 10528 173b 00000000 		.4byte	0
 10529 173f 00000000 		.4byte	0
 10530              		.section	.debug_aranges,"",%progbits
 10531 0000 44000000 		.4byte	0x44
 10532 0004 0200     		.2byte	0x2
 10533 0006 00000000 		.4byte	.Ldebug_info0
 10534 000a 04       		.byte	0x4
 10535 000b 00       		.byte	0
 10536 000c 0000     		.2byte	0
ARM GAS  C:\Users\haske\AppData\Local\Temp\cc9HFfJU.s 			page 208


 10537 000e 0000     		.2byte	0
 10538 0010 00000000 		.4byte	.LFB161
 10539 0014 86000000 		.4byte	.LFE161-.LFB161
 10540 0018 00000000 		.4byte	.LFB162
 10541 001c 72000000 		.4byte	.LFE162-.LFB162
 10542 0020 00000000 		.4byte	.LFB164
 10543 0024 AC000000 		.4byte	.LFE164-.LFB164
 10544 0028 00000000 		.4byte	.LFB163
 10545 002c C8030000 		.4byte	.LFE163-.LFB163
 10546 0030 00000000 		.4byte	.LFB160
 10547 0034 A0000000 		.4byte	.LFE160-.LFB160
 10548 0038 00000000 		.4byte	.LFB159
 10549 003c 1C020000 		.4byte	.LFE159-.LFB159
 10550 0040 00000000 		.4byte	0
 10551 0044 00000000 		.4byte	0
 10552              		.section	.debug_ranges,"",%progbits
 10553              	.Ldebug_ranges0:
 10554 0000 00000000 		.4byte	.LFB161
 10555 0004 86000000 		.4byte	.LFE161
 10556 0008 00000000 		.4byte	.LFB162
 10557 000c 72000000 		.4byte	.LFE162
 10558 0010 00000000 		.4byte	.LFB164
 10559 0014 AC000000 		.4byte	.LFE164
 10560 0018 00000000 		.4byte	.LFB163
 10561 001c C8030000 		.4byte	.LFE163
 10562 0020 00000000 		.4byte	.LFB160
 10563 0024 A0000000 		.4byte	.LFE160
 10564 0028 00000000 		.4byte	.LFB159
 10565 002c 1C020000 		.4byte	.LFE159
 10566 0030 00000000 		.4byte	0
 10567 0034 00000000 		.4byte	0
 10568              		.section	.debug_line,"",%progbits
 10569              	.Ldebug_line0:
 10570 0000 35070000 		.section	.debug_str,"MS",%progbits,1
 10570      0200E504 
 10570      00000201 
 10570      FB0E0D00 
 10570      01010101 
 10571              	.LASF531:
 10572 0000 79735F75 		.ascii	"ys_ups_start\000"
 10572      70735F73 
 10572      74617274 
 10572      00
 10573              	.LASF182:
 10574 000d 70726F70 		.ascii	"prop_cnt\000"
 10574      5F636E74 
 10574      00
 10575              	.LASF15:
 10576 0016 696E7438 		.ascii	"int8_t\000"
 10576      5F7400
 10577              	.LASF153:
 10578 001d 4C565F53 		.ascii	"LV_STYLE_OPA\000"
 10578      54594C45 
 10578      5F4F5041 
 10578      00
 10579              	.LASF404:
 10580 002a 636F6C6F 		.ascii	"color_chroma_key\000"
ARM GAS  C:\Users\haske\AppData\Local\Temp\cc9HFfJU.s 			page 209


 10580      725F6368 
 10580      726F6D61 
 10580      5F6B6579 
 10580      00
 10581              	.LASF367:
 10582 003b 6C765F6C 		.ascii	"lv_ll_node_t\000"
 10582      6C5F6E6F 
 10582      64655F74 
 10582      00
 10583              	.LASF381:
 10584 0048 6C765F64 		.ascii	"lv_disp_draw_buf_t\000"
 10584      6973705F 
 10584      64726177 
 10584      5F627566 
 10584      5F7400
 10585              	.LASF22:
 10586 005b 73697A65 		.ascii	"size_t\000"
 10586      5F7400
 10587              	.LASF50:
 10588 0062 6164765F 		.ascii	"adv_w\000"
 10588      7700
 10589              	.LASF24:
 10590 0068 73697A65 		.ascii	"sizetype\000"
 10590      74797065 
 10590      00
 10591              	.LASF409:
 10592 0071 6C765F64 		.ascii	"lv_disp_t\000"
 10592      6973705F 
 10592      7400
 10593              	.LASF459:
 10594 007b 4C565F45 		.ascii	"LV_EVENT_DRAW_MAIN_BEGIN\000"
 10594      56454E54 
 10594      5F445241 
 10594      575F4D41 
 10594      494E5F42 
 10595              	.LASF545:
 10596 0094 79735F66 		.ascii	"ys_fract\000"
 10596      72616374 
 10596      00
 10597              	.LASF137:
 10598 009d 4C565F53 		.ascii	"LV_STYLE_LINE_DASH_GAP\000"
 10598      54594C45 
 10598      5F4C494E 
 10598      455F4441 
 10598      53485F47 
 10599              	.LASF370:
 10600 00b4 7461696C 		.ascii	"tail\000"
 10600      00
 10601              	.LASF343:
 10602 00b9 6163745F 		.ascii	"act_scr\000"
 10602      73637200 
 10603              	.LASF348:
 10604 00c1 73637265 		.ascii	"screen_cnt\000"
 10604      656E5F63 
 10604      6E7400
 10605              	.LASF569:
 10606 00cc 7873325F 		.ascii	"xs2_ups\000"
ARM GAS  C:\Users\haske\AppData\Local\Temp\cc9HFfJU.s 			page 210


 10606      75707300 
 10607              	.LASF321:
 10608 00d4 64726177 		.ascii	"draw_bg\000"
 10608      5F626700 
 10609              	.LASF44:
 10610 00dc 6C765F6F 		.ascii	"lv_opa_t\000"
 10610      70615F74 
 10610      00
 10611              	.LASF144:
 10612 00e5 4C565F53 		.ascii	"LV_STYLE_ARC_OPA\000"
 10612      54594C45 
 10612      5F415243 
 10612      5F4F5041 
 10612      00
 10613              	.LASF290:
 10614 00f6 7261775F 		.ascii	"raw_end\000"
 10614      656E6400 
 10615              	.LASF19:
 10616 00fe 696E7433 		.ascii	"int32_t\000"
 10616      325F7400 
 10617              	.LASF195:
 10618 0106 4C565F49 		.ascii	"LV_IMG_CF_ALPHA_1BIT\000"
 10618      4D475F43 
 10618      465F414C 
 10618      5048415F 
 10618      31424954 
 10619              	.LASF412:
 10620 011b 6C765F73 		.ascii	"lv_scrollbar_mode_t\000"
 10620      63726F6C 
 10620      6C626172 
 10620      5F6D6F64 
 10620      655F7400 
 10621              	.LASF181:
 10622 012f 6861735F 		.ascii	"has_group\000"
 10622      67726F75 
 10622      7000
 10623              	.LASF468:
 10624 0139 4C565F45 		.ascii	"LV_EVENT_INSERT\000"
 10624      56454E54 
 10624      5F494E53 
 10624      45525400 
 10625              	.LASF46:
 10626 0149 6C765F70 		.ascii	"lv_point_t\000"
 10626      6F696E74 
 10626      5F7400
 10627              	.LASF546:
 10628 0154 785F6E65 		.ascii	"x_next\000"
 10628      787400
 10629              	.LASF238:
 10630 015b 72616469 		.ascii	"radius\000"
 10630      757300
 10631              	.LASF241:
 10632 0162 62675F63 		.ascii	"bg_color\000"
 10632      6F6C6F72 
 10632      00
 10633              	.LASF58:
 10634 016b 6C696E65 		.ascii	"line_height\000"
ARM GAS  C:\Users\haske\AppData\Local\Temp\cc9HFfJU.s 			page 211


 10634      5F686569 
 10634      67687400 
 10635              	.LASF71:
 10636 0177 6C765F62 		.ascii	"lv_blend_mode_t\000"
 10636      6C656E64 
 10636      5F6D6F64 
 10636      655F7400 
 10637              	.LASF272:
 10638 0187 62696469 		.ascii	"bidi_dir\000"
 10638      5F646972 
 10638      00
 10639              	.LASF408:
 10640 0190 64726177 		.ascii	"draw_ctx_size\000"
 10640      5F637478 
 10640      5F73697A 
 10640      6500
 10641              	.LASF227:
 10642 019e 73706563 		.ascii	"spec_attr\000"
 10642      5F617474 
 10642      7200
 10643              	.LASF498:
 10644 01a8 7363726F 		.ascii	"scroll_snap_x\000"
 10644      6C6C5F73 
 10644      6E61705F 
 10644      7800
 10645              	.LASF202:
 10646 01b6 4C565F49 		.ascii	"LV_IMG_CF_RGB565\000"
 10646      4D475F43 
 10646      465F5247 
 10646      42353635 
 10646      00
 10647              	.LASF298:
 10648 01c7 4C565F44 		.ascii	"LV_DRAW_LAYER_FLAG_HAS_ALPHA\000"
 10648      5241575F 
 10648      4C415945 
 10648      525F464C 
 10648      41475F48 
 10649              	.LASF581:
 10650 01e4 6C765F64 		.ascii	"lv_draw_sw_transform\000"
 10650      7261775F 
 10650      73775F74 
 10650      72616E73 
 10650      666F726D 
 10651              	.LASF473:
 10652 01f9 4C565F45 		.ascii	"LV_EVENT_CHILD_CHANGED\000"
 10652      56454E54 
 10652      5F434849 
 10652      4C445F43 
 10652      48414E47 
 10653              	.LASF231:
 10654 0210 73746174 		.ascii	"state\000"
 10654      6500
 10655              	.LASF88:
 10656 0216 4C565F53 		.ascii	"LV_STYLE_HEIGHT\000"
 10656      54594C45 
 10656      5F484549 
 10656      47485400 
ARM GAS  C:\Users\haske\AppData\Local\Temp\cc9HFfJU.s 			page 212


 10657              	.LASF335:
 10658 0226 72657065 		.ascii	"repeat_count\000"
 10658      61745F63 
 10658      6F756E74 
 10658      00
 10659              	.LASF191:
 10660 0233 4C565F49 		.ascii	"LV_IMG_CF_INDEXED_1BIT\000"
 10660      4D475F43 
 10660      465F494E 
 10660      44455845 
 10660      445F3142 
 10661              	.LASF416:
 10662 024a 69735F6C 		.ascii	"is_local\000"
 10662      6F63616C 
 10662      00
 10663              	.LASF313:
 10664 0253 64726177 		.ascii	"draw_rect\000"
 10664      5F726563 
 10664      7400
 10665              	.LASF560:
 10666 025d 64726177 		.ascii	"draw_dsc\000"
 10666      5F647363 
 10666      00
 10667              	.LASF331:
 10668 0266 5F6C765F 		.ascii	"_lv_timer_t\000"
 10668      74696D65 
 10668      725F7400 
 10669              	.LASF108:
 10670 0272 4C565F53 		.ascii	"LV_STYLE_BG_MAIN_STOP\000"
 10670      54594C45 
 10670      5F42475F 
 10670      4D41494E 
 10670      5F53544F 
 10671              	.LASF577:
 10672 0288 6C765F74 		.ascii	"lv_trigo_sin\000"
 10672      7269676F 
 10672      5F73696E 
 10672      00
 10673              	.LASF312:
 10674 0295 696E6974 		.ascii	"init_buf\000"
 10674      5F627566 
 10674      00
 10675              	.LASF421:
 10676 029e 636F6E73 		.ascii	"constructor_cb\000"
 10676      74727563 
 10676      746F725F 
 10676      636200
 10677              	.LASF295:
 10678 02ad 726F756E 		.ascii	"rounded\000"
 10678      64656400 
 10679              	.LASF169:
 10680 02b5 5F4C565F 		.ascii	"_LV_STYLE_LAST_BUILT_IN_PROP\000"
 10680      5354594C 
 10680      455F4C41 
 10680      53545F42 
 10680      55494C54 
 10681              	.LASF570:
ARM GAS  C:\Users\haske\AppData\Local\Temp\cc9HFfJU.s 			page 213


 10682 02d2 7973325F 		.ascii	"ys2_ups\000"
 10682      75707300 
 10683              	.LASF311:
 10684 02da 5F6C765F 		.ascii	"_lv_draw_ctx_t\000"
 10684      64726177 
 10684      5F637478 
 10684      5F7400
 10685              	.LASF451:
 10686 02e9 4C565F45 		.ascii	"LV_EVENT_GESTURE\000"
 10686      56454E54 
 10686      5F474553 
 10686      54555245 
 10686      00
 10687              	.LASF444:
 10688 02fa 4C565F45 		.ascii	"LV_EVENT_LONG_PRESSED\000"
 10688      56454E54 
 10688      5F4C4F4E 
 10688      475F5052 
 10688      45535345 
 10689              	.LASF243:
 10690 0310 62675F69 		.ascii	"bg_img_src\000"
 10690      6D675F73 
 10690      726300
 10691              	.LASF119:
 10692 031b 4C565F53 		.ascii	"LV_STYLE_BORDER_WIDTH\000"
 10692      54594C45 
 10692      5F424F52 
 10692      4445525F 
 10692      57494454 
 10693              	.LASF573:
 10694 0331 78735F73 		.ascii	"xs_step_256\000"
 10694      7465705F 
 10694      32353600 
 10695              	.LASF511:
 10696 033d 636F736D 		.ascii	"cosma\000"
 10696      6100
 10697              	.LASF474:
 10698 0343 4C565F45 		.ascii	"LV_EVENT_CHILD_CREATED\000"
 10698      56454E54 
 10698      5F434849 
 10698      4C445F43 
 10698      52454154 
 10699              	.LASF101:
 10700 035a 4C565F53 		.ascii	"LV_STYLE_PAD_COLUMN\000"
 10700      54594C45 
 10700      5F504144 
 10700      5F434F4C 
 10700      554D4E00 
 10701              	.LASF490:
 10702 036e 6368696C 		.ascii	"children\000"
 10702      6472656E 
 10702      00
 10703              	.LASF443:
 10704 0377 4C565F45 		.ascii	"LV_EVENT_SHORT_CLICKED\000"
 10704      56454E54 
 10704      5F53484F 
 10704      52545F43 
ARM GAS  C:\Users\haske\AppData\Local\Temp\cc9HFfJU.s 			page 214


 10704      4C49434B 
 10705              	.LASF111:
 10706 038e 4C565F53 		.ascii	"LV_STYLE_BG_DITHER_MODE\000"
 10706      54594C45 
 10706      5F42475F 
 10706      44495448 
 10706      45525F4D 
 10707              	.LASF244:
 10708 03a6 62675F69 		.ascii	"bg_img_symbol_font\000"
 10708      6D675F73 
 10708      796D626F 
 10708      6C5F666F 
 10708      6E7400
 10709              	.LASF253:
 10710 03b9 626F7264 		.ascii	"border_side\000"
 10710      65725F73 
 10710      69646500 
 10711              	.LASF1:
 10712 03c5 5F5F7569 		.ascii	"__uint8_t\000"
 10712      6E74385F 
 10712      7400
 10713              	.LASF237:
 10714 03cf 775F6C61 		.ascii	"w_layout\000"
 10714      796F7574 
 10714      00
 10715              	.LASF239:
 10716 03d8 626C656E 		.ascii	"blend_mode\000"
 10716      645F6D6F 
 10716      646500
 10717              	.LASF95:
 10718 03e3 4C565F53 		.ascii	"LV_STYLE_RADIUS\000"
 10718      54594C45 
 10718      5F524144 
 10718      49555300 
 10719              	.LASF384:
 10720 03f3 7665725F 		.ascii	"ver_res\000"
 10720      72657300 
 10721              	.LASF233:
 10722 03fb 7363725F 		.ascii	"scr_layout_inv\000"
 10722      6C61796F 
 10722      75745F69 
 10722      6E7600
 10723              	.LASF87:
 10724 040a 4C565F53 		.ascii	"LV_STYLE_MAX_WIDTH\000"
 10724      54594C45 
 10724      5F4D4158 
 10724      5F574944 
 10724      544800
 10725              	.LASF342:
 10726 041d 73637265 		.ascii	"screens\000"
 10726      656E7300 
 10727              	.LASF114:
 10728 0425 4C565F53 		.ascii	"LV_STYLE_BG_IMG_RECOLOR\000"
 10728      54594C45 
 10728      5F42475F 
 10728      494D475F 
 10728      5245434F 
ARM GAS  C:\Users\haske\AppData\Local\Temp\cc9HFfJU.s 			page 215


 10729              	.LASF131:
 10730 043d 4C565F53 		.ascii	"LV_STYLE_SHADOW_OPA\000"
 10730      54594C45 
 10730      5F534841 
 10730      444F575F 
 10730      4F504100 
 10731              	.LASF162:
 10732 0451 4C565F53 		.ascii	"LV_STYLE_TRANSFORM_HEIGHT\000"
 10732      54594C45 
 10732      5F545241 
 10732      4E53464F 
 10732      524D5F48 
 10733              	.LASF99:
 10734 046b 4C565F53 		.ascii	"LV_STYLE_PAD_RIGHT\000"
 10734      54594C45 
 10734      5F504144 
 10734      5F524947 
 10734      485400
 10735              	.LASF439:
 10736 047e 4C565F45 		.ascii	"LV_EVENT_ALL\000"
 10736      56454E54 
 10736      5F414C4C 
 10736      00
 10737              	.LASF508:
 10738 048b 785F6F75 		.ascii	"x_out\000"
 10738      7400
 10739              	.LASF203:
 10740 0491 4C565F49 		.ascii	"LV_IMG_CF_RGBA5658\000"
 10740      4D475F43 
 10740      465F5247 
 10740      42413536 
 10740      353800
 10741              	.LASF357:
 10742 04a4 6C617374 		.ascii	"last_activity_time\000"
 10742      5F616374 
 10742      69766974 
 10742      795F7469 
 10742      6D6500
 10743              	.LASF9:
 10744 04b7 6C6F6E67 		.ascii	"long int\000"
 10744      20696E74 
 10744      00
 10745              	.LASF507:
 10746 04c0 795F696E 		.ascii	"y_in\000"
 10746      00
 10747              	.LASF159:
 10748 04c5 4C565F53 		.ascii	"LV_STYLE_TRANSITION\000"
 10748      54594C45 
 10748      5F545241 
 10748      4E534954 
 10748      494F4E00 
 10749              	.LASF394:
 10750 04d9 726F7461 		.ascii	"rotated\000"
 10750      74656400 
 10751              	.LASF500:
 10752 04e1 7363726F 		.ascii	"scroll_dir\000"
 10752      6C6C5F64 
ARM GAS  C:\Users\haske\AppData\Local\Temp\cc9HFfJU.s 			page 216


 10752      697200
 10753              	.LASF427:
 10754 04ec 67726F75 		.ascii	"group_def\000"
 10754      705F6465 
 10754      6600
 10755              	.LASF407:
 10756 04f6 64726177 		.ascii	"draw_ctx_deinit\000"
 10756      5F637478 
 10756      5F646569 
 10756      6E697400 
 10757              	.LASF240:
 10758 0506 62675F6F 		.ascii	"bg_opa\000"
 10758      706100
 10759              	.LASF340:
 10760 050d 72656672 		.ascii	"refr_timer\000"
 10760      5F74696D 
 10760      657200
 10761              	.LASF276:
 10762 0518 6C765F64 		.ascii	"lv_draw_label_dsc_t\000"
 10762      7261775F 
 10762      6C616265 
 10762      6C5F6473 
 10762      635F7400 
 10763              	.LASF200:
 10764 052c 4C565F49 		.ascii	"LV_IMG_CF_RGBA8888\000"
 10764      4D475F43 
 10764      465F5247 
 10764      42413838 
 10764      383800
 10765              	.LASF410:
 10766 053f 6C765F73 		.ascii	"lv_state_t\000"
 10766      74617465 
 10766      5F7400
 10767              	.LASF525:
 10768 054a 78735F73 		.ascii	"xs_step\000"
 10768      74657000 
 10769              	.LASF269:
 10770 0552 73656C5F 		.ascii	"sel_bg_color\000"
 10770      62675F63 
 10770      6F6C6F72 
 10770      00
 10771              	.LASF362:
 10772 055f 65646765 		.ascii	"edge_cb\000"
 10772      5F636200 
 10773              	.LASF354:
 10774 0567 696E765F 		.ascii	"inv_area_joined\000"
 10774      61726561 
 10774      5F6A6F69 
 10774      6E656400 
 10775              	.LASF116:
 10776 0577 4C565F53 		.ascii	"LV_STYLE_BG_IMG_TILED\000"
 10776      54594C45 
 10776      5F42475F 
 10776      494D475F 
 10776      54494C45 
 10777              	.LASF345:
 10778 058d 7363725F 		.ascii	"scr_to_load\000"
ARM GAS  C:\Users\haske\AppData\Local\Temp\cc9HFfJU.s 			page 217


 10778      746F5F6C 
 10778      6F616400 
 10779              	.LASF518:
 10780 0599 61726561 		.ascii	"area_p\000"
 10780      5F7000
 10781              	.LASF369:
 10782 05a0 68656164 		.ascii	"head\000"
 10782      00
 10783              	.LASF118:
 10784 05a5 4C565F53 		.ascii	"LV_STYLE_BORDER_OPA\000"
 10784      54594C45 
 10784      5F424F52 
 10784      4445525F 
 10784      4F504100 
 10785              	.LASF567:
 10786 05b9 7873315F 		.ascii	"xs1_ups\000"
 10786      75707300 
 10787              	.LASF466:
 10788 05c1 4C565F45 		.ascii	"LV_EVENT_DRAW_PART_END\000"
 10788      56454E54 
 10788      5F445241 
 10788      575F5041 
 10788      52545F45 
 10789              	.LASF556:
 10790 05d8 615F686F 		.ascii	"a_hor\000"
 10790      7200
 10791              	.LASF363:
 10792 05de 66726F7A 		.ascii	"frozen\000"
 10792      656E00
 10793              	.LASF323:
 10794 05e5 62756666 		.ascii	"buffer_copy\000"
 10794      65725F63 
 10794      6F707900 
 10795              	.LASF254:
 10796 05f1 6F75746C 		.ascii	"outline_color\000"
 10796      696E655F 
 10796      636F6C6F 
 10796      7200
 10797              	.LASF130:
 10798 05ff 4C565F53 		.ascii	"LV_STYLE_SHADOW_COLOR\000"
 10798      54594C45 
 10798      5F534841 
 10798      444F575F 
 10798      434F4C4F 
 10799              	.LASF235:
 10800 0615 7374796C 		.ascii	"style_cnt\000"
 10800      655F636E 
 10800      7400
 10801              	.LASF572:
 10802 061f 79735F64 		.ascii	"ys_diff\000"
 10802      69666600 
 10803              	.LASF232:
 10804 0627 6C61796F 		.ascii	"layout_inv\000"
 10804      75745F69 
 10804      6E7600
 10805              	.LASF522:
 10806 0632 7372635F 		.ascii	"src_stride\000"
ARM GAS  C:\Users\haske\AppData\Local\Temp\cc9HFfJU.s 			page 218


 10806      73747269 
 10806      646500
 10807              	.LASF537:
 10808 063d 615F746D 		.ascii	"a_tmp\000"
 10808      7000
 10809              	.LASF2:
 10810 0643 7369676E 		.ascii	"signed char\000"
 10810      65642063 
 10810      68617200 
 10811              	.LASF16:
 10812 064f 75696E74 		.ascii	"uint8_t\000"
 10812      385F7400 
 10813              	.LASF318:
 10814 0657 64726177 		.ascii	"draw_line\000"
 10814      5F6C696E 
 10814      6500
 10815              	.LASF383:
 10816 0661 686F725F 		.ascii	"hor_res\000"
 10816      72657300 
 10817              	.LASF248:
 10818 0669 62675F69 		.ascii	"bg_img_tiled\000"
 10818      6D675F74 
 10818      696C6564 
 10818      00
 10819              	.LASF107:
 10820 0676 4C565F53 		.ascii	"LV_STYLE_BG_GRAD_DIR\000"
 10820      54594C45 
 10820      5F42475F 
 10820      47524144 
 10820      5F444952 
 10821              	.LASF57:
 10822 068b 6765745F 		.ascii	"get_glyph_bitmap\000"
 10822      676C7970 
 10822      685F6269 
 10822      746D6170 
 10822      00
 10823              	.LASF293:
 10824 069c 656E645F 		.ascii	"end_angle\000"
 10824      616E676C 
 10824      6500
 10825              	.LASF39:
 10826 06a6 626C7565 		.ascii	"blue\000"
 10826      00
 10827              	.LASF185:
 10828 06ab 4C565F49 		.ascii	"LV_IMG_CF_RAW\000"
 10828      4D475F43 
 10828      465F5241 
 10828      5700
 10829              	.LASF563:
 10830 06b9 616E676C 		.ascii	"angle_high\000"
 10830      655F6869 
 10830      676800
 10831              	.LASF93:
 10832 06c4 4C565F53 		.ascii	"LV_STYLE_ALIGN\000"
 10832      54594C45 
 10832      5F414C49 
 10832      474E00
ARM GAS  C:\Users\haske\AppData\Local\Temp\cc9HFfJU.s 			page 219


 10833              	.LASF3:
 10834 06d3 756E7369 		.ascii	"unsigned char\000"
 10834      676E6564 
 10834      20636861 
 10834      7200
 10835              	.LASF346:
 10836 06e1 746F705F 		.ascii	"top_layer\000"
 10836      6C617965 
 10836      7200
 10837              	.LASF483:
 10838 06eb 4C565F45 		.ascii	"LV_EVENT_GET_SELF_SIZE\000"
 10838      56454E54 
 10838      5F474554 
 10838      5F53454C 
 10838      465F5349 
 10839              	.LASF460:
 10840 0702 4C565F45 		.ascii	"LV_EVENT_DRAW_MAIN\000"
 10840      56454E54 
 10840      5F445241 
 10840      575F4D41 
 10840      494E00
 10841              	.LASF568:
 10842 0715 7973315F 		.ascii	"ys1_ups\000"
 10842      75707300 
 10843              	.LASF291:
 10844 071d 6C765F64 		.ascii	"lv_draw_line_dsc_t\000"
 10844      7261775F 
 10844      6C696E65 
 10844      5F647363 
 10844      5F7400
 10845              	.LASF167:
 10846 0730 4C565F53 		.ascii	"LV_STYLE_TRANSFORM_PIVOT_X\000"
 10846      54594C45 
 10846      5F545241 
 10846      4E53464F 
 10846      524D5F50 
 10847              	.LASF168:
 10848 074b 4C565F53 		.ascii	"LV_STYLE_TRANSFORM_PIVOT_Y\000"
 10848      54594C45 
 10848      5F545241 
 10848      4E53464F 
 10848      524D5F50 
 10849              	.LASF489:
 10850 0766 6C765F67 		.ascii	"lv_group_t\000"
 10850      726F7570 
 10850      5F7400
 10851              	.LASF505:
 10852 0771 5F6C765F 		.ascii	"_lv_obj_spec_attr_t\000"
 10852      6F626A5F 
 10852      73706563 
 10852      5F617474 
 10852      725F7400 
 10853              	.LASF133:
 10854 0785 4C565F53 		.ascii	"LV_STYLE_IMG_RECOLOR\000"
 10854      54594C45 
 10854      5F494D47 
 10854      5F524543 
ARM GAS  C:\Users\haske\AppData\Local\Temp\cc9HFfJU.s 			page 220


 10854      4F4C4F52 
 10855              	.LASF306:
 10856 079a 61726561 		.ascii	"area_act\000"
 10856      5F616374 
 10856      00
 10857              	.LASF141:
 10858 07a3 4C565F53 		.ascii	"LV_STYLE_ARC_WIDTH\000"
 10858      54594C45 
 10858      5F415243 
 10858      5F574944 
 10858      544800
 10859              	.LASF574:
 10860 07b6 79735F73 		.ascii	"ys_step_256\000"
 10860      7465705F 
 10860      32353600 
 10861              	.LASF53:
 10862 07c2 6F66735F 		.ascii	"ofs_x\000"
 10862      7800
 10863              	.LASF54:
 10864 07c8 6F66735F 		.ascii	"ofs_y\000"
 10864      7900
 10865              	.LASF70:
 10866 07ce 6C765F62 		.ascii	"lv_base_dir_t\000"
 10866      6173655F 
 10866      6469725F 
 10866      7400
 10867              	.LASF351:
 10868 07dc 72656E64 		.ascii	"rendering_in_progress\000"
 10868      6572696E 
 10868      675F696E 
 10868      5F70726F 
 10868      67726573 
 10869              	.LASF236:
 10870 07f2 685F6C61 		.ascii	"h_layout\000"
 10870      796F7574 
 10870      00
 10871              	.LASF378:
 10872 07fb 666C7573 		.ascii	"flushing_last\000"
 10872      68696E67 
 10872      5F6C6173 
 10872      7400
 10873              	.LASF66:
 10874 0809 5F426F6F 		.ascii	"_Bool\000"
 10874      6C00
 10875              	.LASF497:
 10876 080f 7363726F 		.ascii	"scrollbar_mode\000"
 10876      6C6C6261 
 10876      725F6D6F 
 10876      646500
 10877              	.LASF386:
 10878 081e 70687973 		.ascii	"physical_ver_res\000"
 10878      6963616C 
 10878      5F766572 
 10878      5F726573 
 10878      00
 10879              	.LASF309:
 10880 082f 6F726967 		.ascii	"original\000"
ARM GAS  C:\Users\haske\AppData\Local\Temp\cc9HFfJU.s 			page 221


 10880      696E616C 
 10880      00
 10881              	.LASF163:
 10882 0838 4C565F53 		.ascii	"LV_STYLE_TRANSLATE_X\000"
 10882      54594C45 
 10882      5F545241 
 10882      4E534C41 
 10882      54455F58 
 10883              	.LASF164:
 10884 084d 4C565F53 		.ascii	"LV_STYLE_TRANSLATE_Y\000"
 10884      54594C45 
 10884      5F545241 
 10884      4E534C41 
 10884      54455F59 
 10885              	.LASF566:
 10886 0862 64657374 		.ascii	"dest_h\000"
 10886      5F6800
 10887              	.LASF115:
 10888 0869 4C565F53 		.ascii	"LV_STYLE_BG_IMG_RECOLOR_OPA\000"
 10888      54594C45 
 10888      5F42475F 
 10888      494D475F 
 10888      5245434F 
 10889              	.LASF436:
 10890 0885 73746F70 		.ascii	"stop_processing\000"
 10890      5F70726F 
 10890      63657373 
 10890      696E6700 
 10891              	.LASF175:
 10892 0895 76616C75 		.ascii	"value\000"
 10892      6500
 10893              	.LASF230:
 10894 089b 666C6167 		.ascii	"flags\000"
 10894      7300
 10895              	.LASF300:
 10896 08a1 6C765F64 		.ascii	"lv_draw_layer_flags_t\000"
 10896      7261775F 
 10896      6C617965 
 10896      725F666C 
 10896      6167735F 
 10897              	.LASF535:
 10898 08b7 61726762 		.ascii	"argb_no_aa\000"
 10898      5F6E6F5F 
 10898      616100
 10899              	.LASF539:
 10900 08c2 786F7574 		.ascii	"xout\000"
 10900      00
 10901              	.LASF534:
 10902 08c7 7372635F 		.ascii	"src_tmp\000"
 10902      746D7000 
 10903              	.LASF25:
 10904 08cf 63686172 		.ascii	"char\000"
 10904      00
 10905              	.LASF284:
 10906 08d4 6C765F64 		.ascii	"lv_draw_img_dsc_t\000"
 10906      7261775F 
 10906      696D675F 
ARM GAS  C:\Users\haske\AppData\Local\Temp\cc9HFfJU.s 			page 222


 10906      6473635F 
 10906      7400
 10907              	.LASF61:
 10908 08e6 756E6465 		.ascii	"underline_position\000"
 10908      726C696E 
 10908      655F706F 
 10908      73697469 
 10908      6F6E00
 10909              	.LASF328:
 10910 08f9 6C617965 		.ascii	"layer_instance_size\000"
 10910      725F696E 
 10910      7374616E 
 10910      63655F73 
 10910      697A6500 
 10911              	.LASF287:
 10912 090d 64617368 		.ascii	"dash_gap\000"
 10912      5F676170 
 10912      00
 10913              	.LASF320:
 10914 0916 64726177 		.ascii	"draw_transform\000"
 10914      5F747261 
 10914      6E73666F 
 10914      726D00
 10915              	.LASF390:
 10916 0925 64697265 		.ascii	"direct_mode\000"
 10916      63745F6D 
 10916      6F646500 
 10917              	.LASF457:
 10918 0931 4C565F45 		.ascii	"LV_EVENT_COVER_CHECK\000"
 10918      56454E54 
 10918      5F434F56 
 10918      45525F43 
 10918      4845434B 
 10919              	.LASF102:
 10920 0946 4C565F53 		.ascii	"LV_STYLE_BASE_DIR\000"
 10920      54594C45 
 10920      5F424153 
 10920      455F4449 
 10920      5200
 10921              	.LASF124:
 10922 0958 4C565F53 		.ascii	"LV_STYLE_OUTLINE_OPA\000"
 10922      54594C45 
 10922      5F4F5554 
 10922      4C494E45 
 10922      5F4F5041 
 10923              	.LASF80:
 10924 096d 73746F70 		.ascii	"stops_count\000"
 10924      735F636F 
 10924      756E7400 
 10925              	.LASF393:
 10926 0979 616E7469 		.ascii	"antialiasing\000"
 10926      616C6961 
 10926      73696E67 
 10926      00
 10927              	.LASF339:
 10928 0986 64726976 		.ascii	"driver\000"
 10928      657200
ARM GAS  C:\Users\haske\AppData\Local\Temp\cc9HFfJU.s 			page 223


 10929              	.LASF6:
 10930 098d 5F5F7569 		.ascii	"__uint16_t\000"
 10930      6E743136 
 10930      5F7400
 10931              	.LASF456:
 10932 0998 4C565F45 		.ascii	"LV_EVENT_HIT_TEST\000"
 10932      56454E54 
 10932      5F484954 
 10932      5F544553 
 10932      5400
 10933              	.LASF544:
 10934 09aa 78735F66 		.ascii	"xs_fract\000"
 10934      72616374 
 10934      00
 10935              	.LASF256:
 10936 09b3 6F75746C 		.ascii	"outline_pad\000"
 10936      696E655F 
 10936      70616400 
 10937              	.LASF527:
 10938 09bf 785F656E 		.ascii	"x_end\000"
 10938      6400
 10939              	.LASF329:
 10940 09c5 6C765F64 		.ascii	"lv_draw_ctx_t\000"
 10940      7261775F 
 10940      6374785F 
 10940      7400
 10941              	.LASF104:
 10942 09d3 4C565F53 		.ascii	"LV_STYLE_BG_COLOR\000"
 10942      54594C45 
 10942      5F42475F 
 10942      434F4C4F 
 10942      5200
 10943              	.LASF134:
 10944 09e5 4C565F53 		.ascii	"LV_STYLE_IMG_RECOLOR_OPA\000"
 10944      54594C45 
 10944      5F494D47 
 10944      5F524543 
 10944      4F4C4F52 
 10945              	.LASF249:
 10946 09fe 626F7264 		.ascii	"border_color\000"
 10946      65725F63 
 10946      6F6C6F72 
 10946      00
 10947              	.LASF160:
 10948 0a0b 4C565F53 		.ascii	"LV_STYLE_BLEND_MODE\000"
 10948      54594C45 
 10948      5F424C45 
 10948      4E445F4D 
 10948      4F444500 
 10949              	.LASF48:
 10950 0a1f 6C765F64 		.ascii	"lv_dir_t\000"
 10950      69725F74 
 10950      00
 10951              	.LASF478:
 10952 0a28 4C565F45 		.ascii	"LV_EVENT_SCREEN_LOADED\000"
 10952      56454E54 
 10952      5F534352 
ARM GAS  C:\Users\haske\AppData\Local\Temp\cc9HFfJU.s 			page 224


 10952      45454E5F 
 10952      4C4F4144 
 10953              	.LASF174:
 10954 0a3f 70726F70 		.ascii	"prop\000"
 10954      00
 10955              	.LASF179:
 10956 0a44 636F6E73 		.ascii	"const_props\000"
 10956      745F7072 
 10956      6F707300 
 10957              	.LASF418:
 10958 0a50 5F6C765F 		.ascii	"_lv_obj_style_t\000"
 10958      6F626A5F 
 10958      7374796C 
 10958      655F7400 
 10959              	.LASF252:
 10960 0a60 626F7264 		.ascii	"border_post\000"
 10960      65725F70 
 10960      6F737400 
 10961              	.LASF493:
 10962 0a6c 6576656E 		.ascii	"event_dsc\000"
 10962      745F6473 
 10962      6300
 10963              	.LASF377:
 10964 0a76 666C7573 		.ascii	"flushing\000"
 10964      68696E67 
 10964      00
 10965              	.LASF136:
 10966 0a7f 4C565F53 		.ascii	"LV_STYLE_LINE_DASH_WIDTH\000"
 10966      54594C45 
 10966      5F4C494E 
 10966      455F4441 
 10966      53485F57 
 10967              	.LASF523:
 10968 0a98 78735F75 		.ascii	"xs_ups\000"
 10968      707300
 10969              	.LASF260:
 10970 0a9f 73686164 		.ascii	"shadow_ofs_x\000"
 10970      6F775F6F 
 10970      66735F78 
 10970      00
 10971              	.LASF161:
 10972 0aac 4C565F53 		.ascii	"LV_STYLE_TRANSFORM_WIDTH\000"
 10972      54594C45 
 10972      5F545241 
 10972      4E53464F 
 10972      524D5F57 
 10973              	.LASF337:
 10974 0ac5 6C765F74 		.ascii	"lv_timer_t\000"
 10974      696D6572 
 10974      5F7400
 10975              	.LASF492:
 10976 0ad0 67726F75 		.ascii	"group_p\000"
 10976      705F7000 
 10977              	.LASF173:
 10978 0ad8 6C765F73 		.ascii	"lv_style_prop_t\000"
 10978      74796C65 
 10978      5F70726F 
ARM GAS  C:\Users\haske\AppData\Local\Temp\cc9HFfJU.s 			page 225


 10978      705F7400 
 10979              	.LASF288:
 10980 0ae8 726F756E 		.ascii	"round_start\000"
 10980      645F7374 
 10980      61727400 
 10981              	.LASF494:
 10982 0af4 7363726F 		.ascii	"scroll\000"
 10982      6C6C00
 10983              	.LASF63:
 10984 0afb 66616C6C 		.ascii	"fallback\000"
 10984      6261636B 
 10984      00
 10985              	.LASF178:
 10986 0b04 76616C75 		.ascii	"values_and_props\000"
 10986      65735F61 
 10986      6E645F70 
 10986      726F7073 
 10986      00
 10987              	.LASF550:
 10988 0b15 70785F76 		.ascii	"px_ver\000"
 10988      657200
 10989              	.LASF392:
 10990 0b1c 73775F72 		.ascii	"sw_rotate\000"
 10990      6F746174 
 10990      6500
 10991              	.LASF502:
 10992 0b26 6C617965 		.ascii	"layer_type\000"
 10992      725F7479 
 10992      706500
 10993              	.LASF158:
 10994 0b31 4C565F53 		.ascii	"LV_STYLE_ANIM_SPEED\000"
 10994      54594C45 
 10994      5F414E49 
 10994      4D5F5350 
 10994      45454400 
 10995              	.LASF47:
 10996 0b45 6C765F61 		.ascii	"lv_area_t\000"
 10996      7265615F 
 10996      7400
 10997              	.LASF324:
 10998 0b4f 6C617965 		.ascii	"layer_init\000"
 10998      725F696E 
 10998      697400
 10999              	.LASF122:
 11000 0b5a 4C565F53 		.ascii	"LV_STYLE_OUTLINE_WIDTH\000"
 11000      54594C45 
 11000      5F4F5554 
 11000      4C494E45 
 11000      5F574944 
 11001              	.LASF496:
 11002 0b71 6578745F 		.ascii	"ext_draw_size\000"
 11002      64726177 
 11002      5F73697A 
 11002      6500
 11003              	.LASF488:
 11004 0b7f 6C765F67 		.ascii	"lv_group_edge_cb_t\000"
 11004      726F7570 
ARM GAS  C:\Users\haske\AppData\Local\Temp\cc9HFfJU.s 			page 226


 11004      5F656467 
 11004      655F6362 
 11004      5F7400
 11005              	.LASF205:
 11006 0b92 4C565F49 		.ascii	"LV_IMG_CF_RESERVED_15\000"
 11006      4D475F43 
 11006      465F5245 
 11006      53455256 
 11006      45445F31 
 11007              	.LASF206:
 11008 0ba8 4C565F49 		.ascii	"LV_IMG_CF_RESERVED_16\000"
 11008      4D475F43 
 11008      465F5245 
 11008      53455256 
 11008      45445F31 
 11009              	.LASF84:
 11010 0bbe 4C565F53 		.ascii	"LV_STYLE_PROP_INV\000"
 11010      54594C45 
 11010      5F50524F 
 11010      505F494E 
 11010      5600
 11011              	.LASF208:
 11012 0bd0 4C565F49 		.ascii	"LV_IMG_CF_RESERVED_18\000"
 11012      4D475F43 
 11012      465F5245 
 11012      53455256 
 11012      45445F31 
 11013              	.LASF150:
 11014 0be6 4C565F53 		.ascii	"LV_STYLE_TEXT_LINE_SPACE\000"
 11014      54594C45 
 11014      5F544558 
 11014      545F4C49 
 11014      4E455F53 
 11015              	.LASF552:
 11016 0bff 635F7665 		.ascii	"c_ver\000"
 11016      7200
 11017              	.LASF438:
 11018 0c05 6C765F6F 		.ascii	"lv_obj_class_t\000"
 11018      626A5F63 
 11018      6C617373 
 11018      5F7400
 11019              	.LASF176:
 11020 0c14 6C765F73 		.ascii	"lv_style_const_prop_t\000"
 11020      74796C65 
 11020      5F636F6E 
 11020      73745F70 
 11020      726F705F 
 11021              	.LASF461:
 11022 0c2a 4C565F45 		.ascii	"LV_EVENT_DRAW_MAIN_END\000"
 11022      56454E54 
 11022      5F445241 
 11022      575F4D41 
 11022      494E5F45 
 11023              	.LASF226:
 11024 0c41 70617265 		.ascii	"parent\000"
 11024      6E7400
 11025              	.LASF391:
ARM GAS  C:\Users\haske\AppData\Local\Temp\cc9HFfJU.s 			page 227


 11026 0c48 66756C6C 		.ascii	"full_refresh\000"
 11026      5F726566 
 11026      72657368 
 11026      00
 11027              	.LASF289:
 11028 0c55 726F756E 		.ascii	"round_end\000"
 11028      645F656E 
 11028      6400
 11029              	.LASF294:
 11030 0c5f 696D675F 		.ascii	"img_src\000"
 11030      73726300 
 11031              	.LASF417:
 11032 0c67 69735F74 		.ascii	"is_trans\000"
 11032      72616E73 
 11032      00
 11033              	.LASF543:
 11034 0c70 70785F73 		.ascii	"px_size\000"
 11034      697A6500 
 11035              	.LASF514:
 11036 0c78 706F696E 		.ascii	"point_transform_dsc_t\000"
 11036      745F7472 
 11036      616E7366 
 11036      6F726D5F 
 11036      6473635F 
 11037              	.LASF262:
 11038 0c8e 73686164 		.ascii	"shadow_spread\000"
 11038      6F775F73 
 11038      70726561 
 11038      6400
 11039              	.LASF157:
 11040 0c9c 4C565F53 		.ascii	"LV_STYLE_ANIM_TIME\000"
 11040      54594C45 
 11040      5F414E49 
 11040      4D5F5449 
 11040      4D4500
 11041              	.LASF97:
 11042 0caf 4C565F53 		.ascii	"LV_STYLE_PAD_BOTTOM\000"
 11042      54594C45 
 11042      5F504144 
 11042      5F424F54 
 11042      544F4D00 
 11043              	.LASF424:
 11044 0cc3 77696474 		.ascii	"width_def\000"
 11044      685F6465 
 11044      6600
 11045              	.LASF541:
 11046 0ccd 61726762 		.ascii	"argb_and_rgb_aa\000"
 11046      5F616E64 
 11046      5F726762 
 11046      5F616100 
 11047              	.LASF210:
 11048 0cdd 4C565F49 		.ascii	"LV_IMG_CF_RESERVED_20\000"
 11048      4D475F43 
 11048      465F5245 
 11048      53455256 
 11048      45445F32 
 11049              	.LASF211:
ARM GAS  C:\Users\haske\AppData\Local\Temp\cc9HFfJU.s 			page 228


 11050 0cf3 4C565F49 		.ascii	"LV_IMG_CF_RESERVED_21\000"
 11050      4D475F43 
 11050      465F5245 
 11050      53455256 
 11050      45445F32 
 11051              	.LASF212:
 11052 0d09 4C565F49 		.ascii	"LV_IMG_CF_RESERVED_22\000"
 11052      4D475F43 
 11052      465F5245 
 11052      53455256 
 11052      45445F32 
 11053              	.LASF213:
 11054 0d1f 4C565F49 		.ascii	"LV_IMG_CF_RESERVED_23\000"
 11054      4D475F43 
 11054      465F5245 
 11054      53455256 
 11054      45445F32 
 11055              	.LASF398:
 11056 0d35 636C6561 		.ascii	"clear_cb\000"
 11056      725F6362 
 11056      00
 11057              	.LASF105:
 11058 0d3e 4C565F53 		.ascii	"LV_STYLE_BG_OPA\000"
 11058      54594C45 
 11058      5F42475F 
 11058      4F504100 
 11059              	.LASF140:
 11060 0d4e 4C565F53 		.ascii	"LV_STYLE_LINE_OPA\000"
 11060      54594C45 
 11060      5F4C494E 
 11060      455F4F50 
 11060      4100
 11061              	.LASF183:
 11062 0d60 6C765F73 		.ascii	"lv_style_t\000"
 11062      74796C65 
 11062      5F7400
 11063              	.LASF228:
 11064 0d6b 7374796C 		.ascii	"styles\000"
 11064      657300
 11065              	.LASF491:
 11066 0d72 6368696C 		.ascii	"child_cnt\000"
 11066      645F636E 
 11066      7400
 11067              	.LASF132:
 11068 0d7c 4C565F53 		.ascii	"LV_STYLE_IMG_OPA\000"
 11068      54594C45 
 11068      5F494D47 
 11068      5F4F5041 
 11068      00
 11069              	.LASF165:
 11070 0d8d 4C565F53 		.ascii	"LV_STYLE_TRANSFORM_ZOOM\000"
 11070      54594C45 
 11070      5F545241 
 11070      4E53464F 
 11070      524D5F5A 
 11071              	.LASF455:
 11072 0da5 4C565F45 		.ascii	"LV_EVENT_LEAVE\000"
ARM GAS  C:\Users\haske\AppData\Local\Temp\cc9HFfJU.s 			page 229


 11072      56454E54 
 11072      5F4C4541 
 11072      564500
 11073              	.LASF11:
 11074 0db4 6C6F6E67 		.ascii	"long unsigned int\000"
 11074      20756E73 
 11074      69676E65 
 11074      6420696E 
 11074      7400
 11075              	.LASF499:
 11076 0dc6 7363726F 		.ascii	"scroll_snap_y\000"
 11076      6C6C5F73 
 11076      6E61705F 
 11076      7900
 11077              	.LASF222:
 11078 0dd4 6C765F69 		.ascii	"lv_img_cf_t\000"
 11078      6D675F63 
 11078      665F7400 
 11079              	.LASF147:
 11080 0de0 4C565F53 		.ascii	"LV_STYLE_TEXT_OPA\000"
 11080      54594C45 
 11080      5F544558 
 11080      545F4F50 
 11080      4100
 11081              	.LASF292:
 11082 0df2 73746172 		.ascii	"start_angle\000"
 11082      745F616E 
 11082      676C6500 
 11083              	.LASF433:
 11084 0dfe 70617261 		.ascii	"param\000"
 11084      6D00
 11085              	.LASF430:
 11086 0e04 74617267 		.ascii	"target\000"
 11086      657400
 11087              	.LASF349:
 11088 0e0b 64726177 		.ascii	"draw_prev_over_act\000"
 11088      5F707265 
 11088      765F6F76 
 11088      65725F61 
 11088      637400
 11089              	.LASF327:
 11090 0e1e 6C617965 		.ascii	"layer_destroy\000"
 11090      725F6465 
 11090      7374726F 
 11090      7900
 11091              	.LASF553:
 11092 0e2c 635F686F 		.ascii	"c_hor\000"
 11092      7200
 11093              	.LASF286:
 11094 0e32 64617368 		.ascii	"dash_width\000"
 11094      5F776964 
 11094      746800
 11095              	.LASF380:
 11096 0e3d 6C617374 		.ascii	"last_part\000"
 11096      5F706172 
 11096      7400
 11097              	.LASF426:
ARM GAS  C:\Users\haske\AppData\Local\Temp\cc9HFfJU.s 			page 230


 11098 0e47 65646974 		.ascii	"editable\000"
 11098      61626C65 
 11098      00
 11099              	.LASF341:
 11100 0e50 7468656D 		.ascii	"theme\000"
 11100      6500
 11101              	.LASF387:
 11102 0e56 6F666673 		.ascii	"offset_x\000"
 11102      65745F78 
 11102      00
 11103              	.LASF388:
 11104 0e5f 6F666673 		.ascii	"offset_y\000"
 11104      65745F79 
 11104      00
 11105              	.LASF49:
 11106 0e68 7265736F 		.ascii	"resolved_font\000"
 11106      6C766564 
 11106      5F666F6E 
 11106      7400
 11107              	.LASF359:
 11108 0e76 6F626A5F 		.ascii	"obj_ll\000"
 11108      6C6C00
 11109              	.LASF314:
 11110 0e7d 64726177 		.ascii	"draw_arc\000"
 11110      5F617263 
 11110      00
 11111              	.LASF139:
 11112 0e86 4C565F53 		.ascii	"LV_STYLE_LINE_COLOR\000"
 11112      54594C45 
 11112      5F4C494E 
 11112      455F434F 
 11112      4C4F5200 
 11113              	.LASF578:
 11114 0e9a 474E5520 		.ascii	"GNU C11 5.4.1 20160609 (release) [ARM/embedded-5-br"
 11114      43313120 
 11114      352E342E 
 11114      31203230 
 11114      31363036 
 11115 0ecd 616E6368 		.ascii	"anch revision 237715] -mcpu=cortex-m4 -mfloat-abi=s"
 11115      20726576 
 11115      6973696F 
 11115      6E203233 
 11115      37373135 
 11116 0f00 6F667466 		.ascii	"oftfp -mfpu=fpv4-sp-d16 -mthumb -g -Og -ffunction-s"
 11116      70202D6D 
 11116      6670753D 
 11116      66707634 
 11116      2D73702D 
 11117 0f33 65637469 		.ascii	"ections -ffat-lto-objects\000"
 11117      6F6E7320 
 11117      2D666661 
 11117      742D6C74 
 11117      6F2D6F62 
 11118              	.LASF27:
 11119 0f4d 4C565F4F 		.ascii	"LV_OPA_0\000"
 11119      50415F30 
 11119      00
ARM GAS  C:\Users\haske\AppData\Local\Temp\cc9HFfJU.s 			page 231


 11120              	.LASF100:
 11121 0f56 4C565F53 		.ascii	"LV_STYLE_PAD_ROW\000"
 11121      54594C45 
 11121      5F504144 
 11121      5F524F57 
 11121      00
 11122              	.LASF372:
 11123 0f67 5F6C765F 		.ascii	"_lv_disp_draw_buf_t\000"
 11123      64697370 
 11123      5F647261 
 11123      775F6275 
 11123      665F7400 
 11124              	.LASF302:
 11125 0f7b 6275665F 		.ascii	"buf_area\000"
 11125      61726561 
 11125      00
 11126              	.LASF278:
 11127 0f84 7A6F6F6D 		.ascii	"zoom\000"
 11127      00
 11128              	.LASF280:
 11129 0f89 7265636F 		.ascii	"recolor\000"
 11129      6C6F7200 
 11130              	.LASF469:
 11131 0f91 4C565F45 		.ascii	"LV_EVENT_REFRESH\000"
 11131      56454E54 
 11131      5F524546 
 11131      52455348 
 11131      00
 11132              	.LASF428:
 11133 0fa2 696E7374 		.ascii	"instance_size\000"
 11133      616E6365 
 11133      5F73697A 
 11133      6500
 11134              	.LASF277:
 11135 0fb0 616E676C 		.ascii	"angle\000"
 11135      6500
 11136              	.LASF98:
 11137 0fb6 4C565F53 		.ascii	"LV_STYLE_PAD_LEFT\000"
 11137      54594C45 
 11137      5F504144 
 11137      5F4C4546 
 11137      5400
 11138              	.LASF406:
 11139 0fc8 64726177 		.ascii	"draw_ctx_init\000"
 11139      5F637478 
 11139      5F696E69 
 11139      7400
 11140              	.LASF431:
 11141 0fd6 63757272 		.ascii	"current_target\000"
 11141      656E745F 
 11141      74617267 
 11141      657400
 11142              	.LASF475:
 11143 0fe5 4C565F45 		.ascii	"LV_EVENT_CHILD_DELETED\000"
 11143      56454E54 
 11143      5F434849 
 11143      4C445F44 
ARM GAS  C:\Users\haske\AppData\Local\Temp\cc9HFfJU.s 			page 232


 11143      454C4554 
 11144              	.LASF533:
 11145 0ffc 79735F69 		.ascii	"ys_int\000"
 11145      6E7400
 11146              	.LASF458:
 11147 1003 4C565F45 		.ascii	"LV_EVENT_REFR_EXT_DRAW_SIZE\000"
 11147      56454E54 
 11147      5F524546 
 11147      525F4558 
 11147      545F4452 
 11148              	.LASF515:
 11149 101f 72657375 		.ascii	"result\000"
 11149      6C7400
 11150              	.LASF315:
 11151 1026 64726177 		.ascii	"draw_img_decoded\000"
 11151      5F696D67 
 11151      5F646563 
 11151      6F646564 
 11151      00
 11152              	.LASF330:
 11153 1037 6C765F74 		.ascii	"lv_timer_cb_t\000"
 11153      696D6572 
 11153      5F63625F 
 11153      7400
 11154              	.LASF156:
 11155 1045 4C565F53 		.ascii	"LV_STYLE_ANIM\000"
 11155      54594C45 
 11155      5F414E49 
 11155      4D00
 11156              	.LASF91:
 11157 1053 4C565F53 		.ascii	"LV_STYLE_X\000"
 11157      54594C45 
 11157      5F5800
 11158              	.LASF536:
 11159 105e 72676235 		.ascii	"rgb565a8_no_aa\000"
 11159      36356138 
 11159      5F6E6F5F 
 11159      616100
 11160              	.LASF152:
 11161 106d 4C565F53 		.ascii	"LV_STYLE_TEXT_ALIGN\000"
 11161      54594C45 
 11161      5F544558 
 11161      545F414C 
 11161      49474E00 
 11162              	.LASF336:
 11163 1081 70617573 		.ascii	"paused\000"
 11163      656400
 11164              	.LASF516:
 11165 1088 6C765F63 		.ascii	"lv_color_mix\000"
 11165      6F6C6F72 
 11165      5F6D6978 
 11165      00
 11166              	.LASF223:
 11167 1095 5F6C765F 		.ascii	"_lv_font_t\000"
 11167      666F6E74 
 11167      5F7400
 11168              	.LASF400:
ARM GAS  C:\Users\haske\AppData\Local\Temp\cc9HFfJU.s 			page 233


 11169 10a0 77616974 		.ascii	"wait_cb\000"
 11169      5F636200 
 11170              	.LASF10:
 11171 10a8 5F5F7569 		.ascii	"__uint32_t\000"
 11171      6E743332 
 11171      5F7400
 11172              	.LASF423:
 11173 10b3 6576656E 		.ascii	"event_cb\000"
 11173      745F6362 
 11173      00
 11174              	.LASF486:
 11175 10bc 6C765F65 		.ascii	"lv_event_code_t\000"
 11175      76656E74 
 11175      5F636F64 
 11175      655F7400 
 11176              	.LASF72:
 11177 10cc 6C765F74 		.ascii	"lv_text_decor_t\000"
 11177      6578745F 
 11177      6465636F 
 11177      725F7400 
 11178              	.LASF429:
 11179 10dc 5F6C765F 		.ascii	"_lv_event_t\000"
 11179      6576656E 
 11179      745F7400 
 11180              	.LASF12:
 11181 10e8 6C6F6E67 		.ascii	"long long int\000"
 11181      206C6F6E 
 11181      6720696E 
 11181      7400
 11182              	.LASF258:
 11183 10f6 73686164 		.ascii	"shadow_color\000"
 11183      6F775F63 
 11183      6F6C6F72 
 11183      00
 11184              	.LASF435:
 11185 1103 64656C65 		.ascii	"deleted\000"
 11185      74656400 
 11186              	.LASF285:
 11187 110b 77696474 		.ascii	"width\000"
 11187      6800
 11188              	.LASF450:
 11189 1111 4C565F45 		.ascii	"LV_EVENT_SCROLL\000"
 11189      56454E54 
 11189      5F534352 
 11189      4F4C4C00 
 11190              	.LASF373:
 11191 1121 62756631 		.ascii	"buf1\000"
 11191      00
 11192              	.LASF374:
 11193 1126 62756632 		.ascii	"buf2\000"
 11193      00
 11194              	.LASF166:
 11195 112b 4C565F53 		.ascii	"LV_STYLE_TRANSFORM_ANGLE\000"
 11195      54594C45 
 11195      5F545241 
 11195      4E53464F 
 11195      524D5F41 
ARM GAS  C:\Users\haske\AppData\Local\Temp\cc9HFfJU.s 			page 234


 11196              	.LASF561:
 11197 1144 74725F64 		.ascii	"tr_dsc\000"
 11197      736300
 11198              	.LASF513:
 11199 114b 7069766F 		.ascii	"pivot_y_256\000"
 11199      745F795F 
 11199      32353600 
 11200              	.LASF297:
 11201 1157 4C565F44 		.ascii	"LV_DRAW_LAYER_FLAG_NONE\000"
 11201      5241575F 
 11201      4C415945 
 11201      525F464C 
 11201      41475F4E 
 11202              	.LASF154:
 11203 116f 4C565F53 		.ascii	"LV_STYLE_COLOR_FILTER_DSC\000"
 11203      54594C45 
 11203      5F434F4C 
 11203      4F525F46 
 11203      494C5445 
 11204              	.LASF565:
 11205 1189 64657374 		.ascii	"dest_w\000"
 11205      5F7700
 11206              	.LASF576:
 11207 1190 6C765F6D 		.ascii	"lv_memset_ff\000"
 11207      656D7365 
 11207      745F6666 
 11207      00
 11208              	.LASF69:
 11209 119d 6C765F74 		.ascii	"lv_text_align_t\000"
 11209      6578745F 
 11209      616C6967 
 11209      6E5F7400 
 11210              	.LASF379:
 11211 11ad 6C617374 		.ascii	"last_area\000"
 11211      5F617265 
 11211      6100
 11212              	.LASF62:
 11213 11b7 756E6465 		.ascii	"underline_thickness\000"
 11213      726C696E 
 11213      655F7468 
 11213      69636B6E 
 11213      65737300 
 11214              	.LASF151:
 11215 11cb 4C565F53 		.ascii	"LV_STYLE_TEXT_DECOR\000"
 11215      54594C45 
 11215      5F544558 
 11215      545F4445 
 11215      434F5200 
 11216              	.LASF448:
 11217 11df 4C565F45 		.ascii	"LV_EVENT_SCROLL_BEGIN\000"
 11217      56454E54 
 11217      5F534352 
 11217      4F4C4C5F 
 11217      42454749 
 11218              	.LASF273:
 11219 11f5 616C6967 		.ascii	"align\000"
 11219      6E00
ARM GAS  C:\Users\haske\AppData\Local\Temp\cc9HFfJU.s 			page 235


 11220              	.LASF26:
 11221 11fb 4C565F4F 		.ascii	"LV_OPA_TRANSP\000"
 11221      50415F54 
 11221      52414E53 
 11221      5000
 11222              	.LASF142:
 11223 1209 4C565F53 		.ascii	"LV_STYLE_ARC_ROUNDED\000"
 11223      54594C45 
 11223      5F415243 
 11223      5F524F55 
 11223      4E444544 
 11224              	.LASF399:
 11225 121e 6D6F6E69 		.ascii	"monitor_cb\000"
 11225      746F725F 
 11225      636200
 11226              	.LASF196:
 11227 1229 4C565F49 		.ascii	"LV_IMG_CF_ALPHA_2BIT\000"
 11227      4D475F43 
 11227      465F414C 
 11227      5048415F 
 11227      32424954 
 11228              	.LASF234:
 11229 123e 736B6970 		.ascii	"skip_trans\000"
 11229      5F747261 
 11229      6E7300
 11230              	.LASF512:
 11231 1249 7069766F 		.ascii	"pivot_x_256\000"
 11231      745F785F 
 11231      32353600 
 11232              	.LASF197:
 11233 1255 4C565F49 		.ascii	"LV_IMG_CF_ALPHA_4BIT\000"
 11233      4D475F43 
 11233      465F414C 
 11233      5048415F 
 11233      34424954 
 11234              	.LASF146:
 11235 126a 4C565F53 		.ascii	"LV_STYLE_TEXT_COLOR\000"
 11235      54594C45 
 11235      5F544558 
 11235      545F434F 
 11235      4C4F5200 
 11236              	.LASF472:
 11237 127e 4C565F45 		.ascii	"LV_EVENT_DELETE\000"
 11237      56454E54 
 11237      5F44454C 
 11237      45544500 
 11238              	.LASF225:
 11239 128e 636C6173 		.ascii	"class_p\000"
 11239      735F7000 
 11240              	.LASF462:
 11241 1296 4C565F45 		.ascii	"LV_EVENT_DRAW_POST_BEGIN\000"
 11241      56454E54 
 11241      5F445241 
 11241      575F504F 
 11241      53545F42 
 11242              	.LASF14:
 11243 12af 756E7369 		.ascii	"unsigned int\000"
ARM GAS  C:\Users\haske\AppData\Local\Temp\cc9HFfJU.s 			page 236


 11243      676E6564 
 11243      20696E74 
 11243      00
 11244              	.LASF554:
 11245 12bc 615F6261 		.ascii	"a_base\000"
 11245      736500
 11246              	.LASF189:
 11247 12c3 4C565F49 		.ascii	"LV_IMG_CF_TRUE_COLOR_ALPHA\000"
 11247      4D475F43 
 11247      465F5452 
 11247      55455F43 
 11247      4F4C4F52 
 11248              	.LASF301:
 11249 12de 636C6970 		.ascii	"clip_area\000"
 11249      5F617265 
 11249      6100
 11250              	.LASF83:
 11251 12e8 6C765F73 		.ascii	"lv_style_value_t\000"
 11251      74796C65 
 11251      5F76616C 
 11251      75655F74 
 11251      00
 11252              	.LASF198:
 11253 12f9 4C565F49 		.ascii	"LV_IMG_CF_ALPHA_8BIT\000"
 11253      4D475F43 
 11253      465F414C 
 11253      5048415F 
 11253      38424954 
 11254              	.LASF267:
 11255 130e 73656C5F 		.ascii	"sel_end\000"
 11255      656E6400 
 11256              	.LASF564:
 11257 1316 616E676C 		.ascii	"angle_rem\000"
 11257      655F7265 
 11257      6D00
 11258              	.LASF172:
 11259 1320 5F4C565F 		.ascii	"_LV_STYLE_PROP_CONST\000"
 11259      5354594C 
 11259      455F5052 
 11259      4F505F43 
 11259      4F4E5354 
 11260              	.LASF305:
 11261 1335 61726561 		.ascii	"area_full\000"
 11261      5F66756C 
 11261      6C00
 11262              	.LASF192:
 11263 133f 4C565F49 		.ascii	"LV_IMG_CF_INDEXED_2BIT\000"
 11263      4D475F43 
 11263      465F494E 
 11263      44455845 
 11263      445F3242 
 11264              	.LASF274:
 11265 1356 666C6167 		.ascii	"flag\000"
 11265      00
 11266              	.LASF338:
 11267 135b 5F6C765F 		.ascii	"_lv_disp_t\000"
 11267      64697370 
ARM GAS  C:\Users\haske\AppData\Local\Temp\cc9HFfJU.s 			page 237


 11267      5F7400
 11268              	.LASF467:
 11269 1366 4C565F45 		.ascii	"LV_EVENT_VALUE_CHANGED\000"
 11269      56454E54 
 11269      5F56414C 
 11269      55455F43 
 11269      48414E47 
 11270              	.LASF304:
 11271 137d 5F6C765F 		.ascii	"_lv_draw_layer_ctx_t\000"
 11271      64726177 
 11271      5F6C6179 
 11271      65725F63 
 11271      74785F74 
 11272              	.LASF257:
 11273 1392 6F75746C 		.ascii	"outline_opa\000"
 11273      696E655F 
 11273      6F706100 
 11274              	.LASF353:
 11275 139e 696E765F 		.ascii	"inv_areas\000"
 11275      61726561 
 11275      7300
 11276              	.LASF559:
 11277 13a8 7372635F 		.ascii	"src_buf\000"
 11277      62756600 
 11278              	.LASF193:
 11279 13b0 4C565F49 		.ascii	"LV_IMG_CF_INDEXED_4BIT\000"
 11279      4D475F43 
 11279      465F494E 
 11279      44455845 
 11279      445F3442 
 11280              	.LASF307:
 11281 13c7 6D61785F 		.ascii	"max_row_with_alpha\000"
 11281      726F775F 
 11281      77697468 
 11281      5F616C70 
 11281      686100
 11282              	.LASF485:
 11283 13da 4C565F45 		.ascii	"LV_EVENT_PREPROCESS\000"
 11283      56454E54 
 11283      5F505245 
 11283      50524F43 
 11283      45535300 
 11284              	.LASF282:
 11285 13ee 6672616D 		.ascii	"frame_id\000"
 11285      655F6964 
 11285      00
 11286              	.LASF201:
 11287 13f7 4C565F49 		.ascii	"LV_IMG_CF_RGBX8888\000"
 11287      4D475F43 
 11287      465F5247 
 11287      42583838 
 11287      383800
 11288              	.LASF281:
 11289 140a 7265636F 		.ascii	"recolor_opa\000"
 11289      6C6F725F 
 11289      6F706100 
 11290              	.LASF94:
ARM GAS  C:\Users\haske\AppData\Local\Temp\cc9HFfJU.s 			page 238


 11291 1416 4C565F53 		.ascii	"LV_STYLE_LAYOUT\000"
 11291      54594C45 
 11291      5F4C4159 
 11291      4F555400 
 11292              	.LASF65:
 11293 1426 6C765F66 		.ascii	"lv_font_glyph_dsc_t\000"
 11293      6F6E745F 
 11293      676C7970 
 11293      685F6473 
 11293      635F7400 
 11294              	.LASF477:
 11295 143a 4C565F45 		.ascii	"LV_EVENT_SCREEN_LOAD_START\000"
 11295      56454E54 
 11295      5F534352 
 11295      45454E5F 
 11295      4C4F4144 
 11296              	.LASF437:
 11297 1455 73746F70 		.ascii	"stop_bubbling\000"
 11297      5F627562 
 11297      626C696E 
 11297      6700
 11298              	.LASF255:
 11299 1463 6F75746C 		.ascii	"outline_width\000"
 11299      696E655F 
 11299      77696474 
 11299      6800
 11300              	.LASF126:
 11301 1471 4C565F53 		.ascii	"LV_STYLE_SHADOW_WIDTH\000"
 11301      54594C45 
 11301      5F534841 
 11301      444F575F 
 11301      57494454 
 11302              	.LASF194:
 11303 1487 4C565F49 		.ascii	"LV_IMG_CF_INDEXED_8BIT\000"
 11303      4D475F43 
 11303      465F494E 
 11303      44455845 
 11303      445F3842 
 11304              	.LASF187:
 11305 149e 4C565F49 		.ascii	"LV_IMG_CF_RAW_CHROMA_KEYED\000"
 11305      4D475F43 
 11305      465F5241 
 11305      575F4348 
 11305      524F4D41 
 11306              	.LASF103:
 11307 14b9 4C565F53 		.ascii	"LV_STYLE_CLIP_CORNER\000"
 11307      54594C45 
 11307      5F434C49 
 11307      505F434F 
 11307      524E4552 
 11308              	.LASF190:
 11309 14ce 4C565F49 		.ascii	"LV_IMG_CF_TRUE_COLOR_CHROMA_KEYED\000"
 11309      4D475F43 
 11309      465F5452 
 11309      55455F43 
 11309      4F4C4F52 
 11310              	.LASF558:
ARM GAS  C:\Users\haske\AppData\Local\Temp\cc9HFfJU.s 			page 239


 11311 14f0 64657374 		.ascii	"dest_area\000"
 11311      5F617265 
 11311      6100
 11312              	.LASF283:
 11313 14fa 616E7469 		.ascii	"antialias\000"
 11313      616C6961 
 11313      7300
 11314              	.LASF420:
 11315 1504 62617365 		.ascii	"base_class\000"
 11315      5F636C61 
 11315      737300
 11316              	.LASF37:
 11317 150f 4C565F4F 		.ascii	"LV_OPA_100\000"
 11317      50415F31 
 11317      303000
 11318              	.LASF445:
 11319 151a 4C565F45 		.ascii	"LV_EVENT_LONG_PRESSED_REPEAT\000"
 11319      56454E54 
 11319      5F4C4F4E 
 11319      475F5052 
 11319      45535345 
 11320              	.LASF361:
 11321 1537 666F6375 		.ascii	"focus_cb\000"
 11321      735F6362 
 11321      00
 11322              	.LASF214:
 11323 1540 4C565F49 		.ascii	"LV_IMG_CF_USER_ENCODED_0\000"
 11323      4D475F43 
 11323      465F5553 
 11323      45525F45 
 11323      4E434F44 
 11324              	.LASF215:
 11325 1559 4C565F49 		.ascii	"LV_IMG_CF_USER_ENCODED_1\000"
 11325      4D475F43 
 11325      465F5553 
 11325      45525F45 
 11325      4E434F44 
 11326              	.LASF216:
 11327 1572 4C565F49 		.ascii	"LV_IMG_CF_USER_ENCODED_2\000"
 11327      4D475F43 
 11327      465F5553 
 11327      45525F45 
 11327      4E434F44 
 11328              	.LASF217:
 11329 158b 4C565F49 		.ascii	"LV_IMG_CF_USER_ENCODED_3\000"
 11329      4D475F43 
 11329      465F5553 
 11329      45525F45 
 11329      4E434F44 
 11330              	.LASF218:
 11331 15a4 4C565F49 		.ascii	"LV_IMG_CF_USER_ENCODED_4\000"
 11331      4D475F43 
 11331      465F5553 
 11331      45525F45 
 11331      4E434F44 
 11332              	.LASF219:
 11333 15bd 4C565F49 		.ascii	"LV_IMG_CF_USER_ENCODED_5\000"
ARM GAS  C:\Users\haske\AppData\Local\Temp\cc9HFfJU.s 			page 240


 11333      4D475F43 
 11333      465F5553 
 11333      45525F45 
 11333      4E434F44 
 11334              	.LASF220:
 11335 15d6 4C565F49 		.ascii	"LV_IMG_CF_USER_ENCODED_6\000"
 11335      4D475F43 
 11335      465F5553 
 11335      45525F45 
 11335      4E434F44 
 11336              	.LASF221:
 11337 15ef 4C565F49 		.ascii	"LV_IMG_CF_USER_ENCODED_7\000"
 11337      4D475F43 
 11337      465F5553 
 11337      45525F45 
 11337      4E434F44 
 11338              	.LASF21:
 11339 1608 6C765F72 		.ascii	"lv_res_t\000"
 11339      65735F74 
 11339      00
 11340              	.LASF155:
 11341 1611 4C565F53 		.ascii	"LV_STYLE_COLOR_FILTER_OPA\000"
 11341      54594C45 
 11341      5F434F4C 
 11341      4F525F46 
 11341      494C5445 
 11342              	.LASF506:
 11343 162b 785F696E 		.ascii	"x_in\000"
 11343      00
 11344              	.LASF375:
 11345 1630 6275665F 		.ascii	"buf_act\000"
 11345      61637400 
 11346              	.LASF23:
 11347 1638 6C6F6E67 		.ascii	"long double\000"
 11347      20646F75 
 11347      626C6500 
 11348              	.LASF414:
 11349 1644 7374796C 		.ascii	"style\000"
 11349      6500
 11350              	.LASF75:
 11351 164a 6C765F64 		.ascii	"lv_dither_mode_t\000"
 11351      69746865 
 11351      725F6D6F 
 11351      64655F74 
 11351      00
 11352              	.LASF413:
 11353 165b 6C765F73 		.ascii	"lv_scroll_snap_t\000"
 11353      63726F6C 
 11353      6C5F736E 
 11353      61705F74 
 11353      00
 11354              	.LASF432:
 11355 166c 636F6465 		.ascii	"code\000"
 11355      00
 11356              	.LASF60:
 11357 1671 73756270 		.ascii	"subpx\000"
 11357      7800
ARM GAS  C:\Users\haske\AppData\Local\Temp\cc9HFfJU.s 			page 241


 11358              	.LASF38:
 11359 1677 4C565F4F 		.ascii	"LV_OPA_COVER\000"
 11359      50415F43 
 11359      4F564552 
 11359      00
 11360              	.LASF322:
 11361 1684 77616974 		.ascii	"wait_for_finish\000"
 11361      5F666F72 
 11361      5F66696E 
 11361      69736800 
 11362              	.LASF547:
 11363 1694 795F6E65 		.ascii	"y_next\000"
 11363      787400
 11364              	.LASF247:
 11365 169b 62675F69 		.ascii	"bg_img_recolor_opa\000"
 11365      6D675F72 
 11365      65636F6C 
 11365      6F725F6F 
 11365      706100
 11366              	.LASF299:
 11367 16ae 4C565F44 		.ascii	"LV_DRAW_LAYER_FLAG_CAN_SUBDIVIDE\000"
 11367      5241575F 
 11367      4C415945 
 11367      525F464C 
 11367      41475F43 
 11368              	.LASF441:
 11369 16cf 4C565F45 		.ascii	"LV_EVENT_PRESSING\000"
 11369      56454E54 
 11369      5F505245 
 11369      5353494E 
 11369      4700
 11370              	.LASF334:
 11371 16e1 74696D65 		.ascii	"timer_cb\000"
 11371      725F6362 
 11371      00
 11372              	.LASF440:
 11373 16ea 4C565F45 		.ascii	"LV_EVENT_PRESSED\000"
 11373      56454E54 
 11373      5F505245 
 11373      53534544 
 11373      00
 11374              	.LASF207:
 11375 16fb 4C565F49 		.ascii	"LV_IMG_CF_RESERVED_17\000"
 11375      4D475F43 
 11375      465F5245 
 11375      53455256 
 11375      45445F31 
 11376              	.LASF471:
 11377 1711 4C565F45 		.ascii	"LV_EVENT_CANCEL\000"
 11377      56454E54 
 11377      5F43414E 
 11377      43454C00 
 11378              	.LASF209:
 11379 1721 4C565F49 		.ascii	"LV_IMG_CF_RESERVED_19\000"
 11379      4D475F43 
 11379      465F5245 
 11379      53455256 
ARM GAS  C:\Users\haske\AppData\Local\Temp\cc9HFfJU.s 			page 242


 11379      45445F31 
 11380              	.LASF117:
 11381 1737 4C565F53 		.ascii	"LV_STYLE_BORDER_COLOR\000"
 11381      54594C45 
 11381      5F424F52 
 11381      4445525F 
 11381      434F4C4F 
 11382              	.LASF403:
 11383 174d 72656E64 		.ascii	"render_start_cb\000"
 11383      65725F73 
 11383      74617274 
 11383      5F636200 
 11384              	.LASF402:
 11385 175d 6472765F 		.ascii	"drv_update_cb\000"
 11385      75706461 
 11385      74655F63 
 11385      6200
 11386              	.LASF555:
 11387 176b 615F7665 		.ascii	"a_ver\000"
 11387      7200
 11388              	.LASF0:
 11389 1771 5F5F696E 		.ascii	"__int8_t\000"
 11389      74385F74 
 11389      00
 11390              	.LASF484:
 11391 177a 5F4C565F 		.ascii	"_LV_EVENT_LAST\000"
 11391      4556454E 
 11391      545F4C41 
 11391      535400
 11392              	.LASF364:
 11393 1789 65646974 		.ascii	"editing\000"
 11393      696E6700 
 11394              	.LASF385:
 11395 1791 70687973 		.ascii	"physical_hor_res\000"
 11395      6963616C 
 11395      5F686F72 
 11395      5F726573 
 11395      00
 11396              	.LASF376:
 11397 17a2 73697A65 		.ascii	"size\000"
 11397      00
 11398              	.LASF308:
 11399 17a7 6D61785F 		.ascii	"max_row_with_no_alpha\000"
 11399      726F775F 
 11399      77697468 
 11399      5F6E6F5F 
 11399      616C7068 
 11400              	.LASF13:
 11401 17bd 6C6F6E67 		.ascii	"long long unsigned int\000"
 11401      206C6F6E 
 11401      6720756E 
 11401      7369676E 
 11401      65642069 
 11402              	.LASF347:
 11403 17d4 7379735F 		.ascii	"sys_layer\000"
 11403      6C617965 
 11403      7200
ARM GAS  C:\Users\haske\AppData\Local\Temp\cc9HFfJU.s 			page 243


 11404              	.LASF109:
 11405 17de 4C565F53 		.ascii	"LV_STYLE_BG_GRAD_STOP\000"
 11405      54594C45 
 11405      5F42475F 
 11405      47524144 
 11405      5F53544F 
 11406              	.LASF120:
 11407 17f4 4C565F53 		.ascii	"LV_STYLE_BORDER_SIDE\000"
 11407      54594C45 
 11407      5F424F52 
 11407      4445525F 
 11407      53494445 
 11408              	.LASF487:
 11409 1809 6C765F67 		.ascii	"lv_group_focus_cb_t\000"
 11409      726F7570 
 11409      5F666F63 
 11409      75735F63 
 11409      625F7400 
 11410              	.LASF419:
 11411 181d 5F6C765F 		.ascii	"_lv_obj_class_t\000"
 11411      6F626A5F 
 11411      636C6173 
 11411      735F7400 
 11412              	.LASF264:
 11413 182d 6C765F64 		.ascii	"lv_draw_rect_dsc_t\000"
 11413      7261775F 
 11413      72656374 
 11413      5F647363 
 11413      5F7400
 11414              	.LASF18:
 11415 1840 75696E74 		.ascii	"uint16_t\000"
 11415      31365F74 
 11415      00
 11416              	.LASF529:
 11417 1849 61627566 		.ascii	"abuf\000"
 11417      00
 11418              	.LASF562:
 11419 184e 616E676C 		.ascii	"angle_low\000"
 11419      655F6C6F 
 11419      7700
 11420              	.LASF333:
 11421 1858 6C617374 		.ascii	"last_run\000"
 11421      5F72756E 
 11421      00
 11422              	.LASF204:
 11423 1861 4C565F49 		.ascii	"LV_IMG_CF_RGB565A8\000"
 11423      4D475F43 
 11423      465F5247 
 11423      42353635 
 11423      413800
 11424              	.LASF366:
 11425 1874 77726170 		.ascii	"wrap\000"
 11425      00
 11426              	.LASF43:
 11427 1879 6C765F63 		.ascii	"lv_color_t\000"
 11427      6F6C6F72 
 11427      5F7400
ARM GAS  C:\Users\haske\AppData\Local\Temp\cc9HFfJU.s 			page 244


 11428              	.LASF528:
 11429 1884 63627566 		.ascii	"cbuf\000"
 11429      00
 11430              	.LASF317:
 11431 1889 64726177 		.ascii	"draw_letter\000"
 11431      5F6C6574 
 11431      74657200 
 11432              	.LASF184:
 11433 1895 4C565F49 		.ascii	"LV_IMG_CF_UNKNOWN\000"
 11433      4D475F43 
 11433      465F554E 
 11433      4B4E4F57 
 11433      4E00
 11434              	.LASF85:
 11435 18a7 4C565F53 		.ascii	"LV_STYLE_WIDTH\000"
 11435      54594C45 
 11435      5F574944 
 11435      544800
 11436              	.LASF517:
 11437 18b6 6C765F61 		.ascii	"lv_area_get_height\000"
 11437      7265615F 
 11437      6765745F 
 11437      68656967 
 11437      687400
 11438              	.LASF250:
 11439 18c9 626F7264 		.ascii	"border_width\000"
 11439      65725F77 
 11439      69647468 
 11439      00
 11440              	.LASF86:
 11441 18d6 4C565F53 		.ascii	"LV_STYLE_MIN_WIDTH\000"
 11441      54594C45 
 11441      5F4D494E 
 11441      5F574944 
 11441      544800
 11442              	.LASF68:
 11443 18e9 6C765F74 		.ascii	"lv_text_flag_t\000"
 11443      6578745F 
 11443      666C6167 
 11443      5F7400
 11444              	.LASF127:
 11445 18f8 4C565F53 		.ascii	"LV_STYLE_SHADOW_OFS_X\000"
 11445      54594C45 
 11445      5F534841 
 11445      444F575F 
 11445      4F46535F 
 11446              	.LASF128:
 11447 190e 4C565F53 		.ascii	"LV_STYLE_SHADOW_OFS_Y\000"
 11447      54594C45 
 11447      5F534841 
 11447      444F575F 
 11447      4F46535F 
 11448              	.LASF557:
 11449 1924 7267625F 		.ascii	"rgb_no_aa\000"
 11449      6E6F5F61 
 11449      6100
 11450              	.LASF28:
ARM GAS  C:\Users\haske\AppData\Local\Temp\cc9HFfJU.s 			page 245


 11451 192e 4C565F4F 		.ascii	"LV_OPA_10\000"
 11451      50415F31 
 11451      3000
 11452              	.LASF112:
 11453 1938 4C565F53 		.ascii	"LV_STYLE_BG_IMG_SRC\000"
 11453      54594C45 
 11453      5F42475F 
 11453      494D475F 
 11453      53524300 
 11454              	.LASF188:
 11455 194c 4C565F49 		.ascii	"LV_IMG_CF_TRUE_COLOR\000"
 11455      4D475F43 
 11455      465F5452 
 11455      55455F43 
 11455      4F4C4F52 
 11456              	.LASF145:
 11457 1961 4C565F53 		.ascii	"LV_STYLE_ARC_IMG_SRC\000"
 11457      54594C45 
 11457      5F415243 
 11457      5F494D47 
 11457      5F535243 
 11458              	.LASF177:
 11459 1976 76616C75 		.ascii	"value1\000"
 11459      653100
 11460              	.LASF389:
 11461 197d 64726177 		.ascii	"draw_buf\000"
 11461      5F627566 
 11461      00
 11462              	.LASF332:
 11463 1986 70657269 		.ascii	"period\000"
 11463      6F6400
 11464              	.LASF396:
 11465 198d 726F756E 		.ascii	"rounder_cb\000"
 11465      6465725F 
 11465      636200
 11466              	.LASF275:
 11467 1998 6465636F 		.ascii	"decor\000"
 11467      7200
 11468              	.LASF579:
 11469 199e 2E2E5C2E 		.ascii	"..\\..\\..\\arduinoLCD\\test\\Pain Drain\\libraries"
 11469      2E5C2E2E 
 11469      5C617264 
 11469      75696E6F 
 11469      4C43445C 
 11470 19cb 5C6C7667 		.ascii	"\\lvgl\\src\\draw\\sw\\lv_draw_sw_transform.c\000"
 11470      6C5C7372 
 11470      635C6472 
 11470      61775C73 
 11470      775C6C76 
 11471              	.LASF4:
 11472 19f4 5F5F696E 		.ascii	"__int16_t\000"
 11472      7431365F 
 11472      7400
 11473              	.LASF325:
 11474 19fe 6C617965 		.ascii	"layer_adjust\000"
 11474      725F6164 
 11474      6A757374 
ARM GAS  C:\Users\haske\AppData\Local\Temp\cc9HFfJU.s 			page 246


 11474      00
 11475              	.LASF148:
 11476 1a0b 4C565F53 		.ascii	"LV_STYLE_TEXT_FONT\000"
 11476      54594C45 
 11476      5F544558 
 11476      545F464F 
 11476      4E5400
 11477              	.LASF479:
 11478 1a1e 4C565F45 		.ascii	"LV_EVENT_SCREEN_UNLOADED\000"
 11478      56454E54 
 11478      5F534352 
 11478      45454E5F 
 11478      554E4C4F 
 11479              	.LASF171:
 11480 1a37 4C565F53 		.ascii	"LV_STYLE_PROP_ANY\000"
 11480      54594C45 
 11480      5F50524F 
 11480      505F414E 
 11480      5900
 11481              	.LASF41:
 11482 1a49 66756C6C 		.ascii	"full\000"
 11482      00
 11483              	.LASF310:
 11484 1a4e 6C765F64 		.ascii	"lv_draw_layer_ctx_t\000"
 11484      7261775F 
 11484      6C617965 
 11484      725F6374 
 11484      785F7400 
 11485              	.LASF29:
 11486 1a62 4C565F4F 		.ascii	"LV_OPA_20\000"
 11486      50415F32 
 11486      3000
 11487              	.LASF76:
 11488 1a6c 636F6C6F 		.ascii	"color\000"
 11488      7200
 11489              	.LASF551:
 11490 1a72 635F6261 		.ascii	"c_base\000"
 11490      736500
 11491              	.LASF279:
 11492 1a79 7069766F 		.ascii	"pivot\000"
 11492      7400
 11493              	.LASF79:
 11494 1a7f 73746F70 		.ascii	"stops\000"
 11494      7300
 11495              	.LASF540:
 11496 1a85 796F7574 		.ascii	"yout\000"
 11496      00
 11497              	.LASF270:
 11498 1a8a 6C696E65 		.ascii	"line_space\000"
 11498      5F737061 
 11498      636500
 11499              	.LASF326:
 11500 1a95 6C617965 		.ascii	"layer_blend\000"
 11500      725F626C 
 11500      656E6400 
 11501              	.LASF521:
 11502 1aa1 7372635F 		.ascii	"src_h\000"
ARM GAS  C:\Users\haske\AppData\Local\Temp\cc9HFfJU.s 			page 247


 11502      6800
 11503              	.LASF520:
 11504 1aa7 7372635F 		.ascii	"src_w\000"
 11504      7700
 11505              	.LASF422:
 11506 1aad 64657374 		.ascii	"destructor_cb\000"
 11506      72756374 
 11506      6F725F63 
 11506      6200
 11507              	.LASF73:
 11508 1abb 6C765F62 		.ascii	"lv_border_side_t\000"
 11508      6F726465 
 11508      725F7369 
 11508      64655F74 
 11508      00
 11509              	.LASF77:
 11510 1acc 66726163 		.ascii	"frac\000"
 11510      00
 11511              	.LASF224:
 11512 1ad1 5F6C765F 		.ascii	"_lv_obj_t\000"
 11512      6F626A5F 
 11512      7400
 11513              	.LASF265:
 11514 1adb 666F6E74 		.ascii	"font\000"
 11514      00
 11515              	.LASF271:
 11516 1ae0 6C657474 		.ascii	"letter_space\000"
 11516      65725F73 
 11516      70616365 
 11516      00
 11517              	.LASF90:
 11518 1aed 4C565F53 		.ascii	"LV_STYLE_MAX_HEIGHT\000"
 11518      54594C45 
 11518      5F4D4158 
 11518      5F484549 
 11518      47485400 
 11519              	.LASF30:
 11520 1b01 4C565F4F 		.ascii	"LV_OPA_30\000"
 11520      50415F33 
 11520      3000
 11521              	.LASF503:
 11522 1b0b 5F6C765F 		.ascii	"_lv_theme_t\000"
 11522      7468656D 
 11522      655F7400 
 11523              	.LASF296:
 11524 1b17 6C765F64 		.ascii	"lv_draw_arc_dsc_t\000"
 11524      7261775F 
 11524      6172635F 
 11524      6473635F 
 11524      7400
 11525              	.LASF106:
 11526 1b29 4C565F53 		.ascii	"LV_STYLE_BG_GRAD_COLOR\000"
 11526      54594C45 
 11526      5F42475F 
 11526      47524144 
 11526      5F434F4C 
 11527              	.LASF344:
ARM GAS  C:\Users\haske\AppData\Local\Temp\cc9HFfJU.s 			page 248


 11528 1b40 70726576 		.ascii	"prev_scr\000"
 11528      5F736372 
 11528      00
 11529              	.LASF52:
 11530 1b49 626F785F 		.ascii	"box_h\000"
 11530      6800
 11531              	.LASF509:
 11532 1b4f 795F6F75 		.ascii	"y_out\000"
 11532      7400
 11533              	.LASF245:
 11534 1b55 62675F69 		.ascii	"bg_img_recolor\000"
 11534      6D675F72 
 11534      65636F6C 
 11534      6F7200
 11535              	.LASF42:
 11536 1b64 6C765F63 		.ascii	"lv_color16_t\000"
 11536      6F6C6F72 
 11536      31365F74 
 11536      00
 11537              	.LASF51:
 11538 1b71 626F785F 		.ascii	"box_w\000"
 11538      7700
 11539              	.LASF5:
 11540 1b77 73686F72 		.ascii	"short int\000"
 11540      7420696E 
 11540      7400
 11541              	.LASF59:
 11542 1b81 62617365 		.ascii	"base_line\000"
 11542      5F6C696E 
 11542      6500
 11543              	.LASF355:
 11544 1b8b 696E765F 		.ascii	"inv_p\000"
 11544      7000
 11545              	.LASF371:
 11546 1b91 6C765F6C 		.ascii	"lv_ll_t\000"
 11546      6C5F7400 
 11547              	.LASF582:
 11548 1b99 6C765F66 		.ascii	"lv_font_montserrat_14\000"
 11548      6F6E745F 
 11548      6D6F6E74 
 11548      73657272 
 11548      61745F31 
 11549              	.LASF464:
 11550 1baf 4C565F45 		.ascii	"LV_EVENT_DRAW_POST_END\000"
 11550      56454E54 
 11550      5F445241 
 11550      575F504F 
 11550      53545F45 
 11551              	.LASF465:
 11552 1bc6 4C565F45 		.ascii	"LV_EVENT_DRAW_PART_BEGIN\000"
 11552      56454E54 
 11552      5F445241 
 11552      575F5041 
 11552      52545F42 
 11553              	.LASF571:
 11554 1bdf 78735F64 		.ascii	"xs_diff\000"
 11554      69666600 
ARM GAS  C:\Users\haske\AppData\Local\Temp\cc9HFfJU.s 			page 249


 11555              	.LASF246:
 11556 1be7 62675F69 		.ascii	"bg_img_opa\000"
 11556      6D675F6F 
 11556      706100
 11557              	.LASF263:
 11558 1bf2 73686164 		.ascii	"shadow_opa\000"
 11558      6F775F6F 
 11558      706100
 11559              	.LASF143:
 11560 1bfd 4C565F53 		.ascii	"LV_STYLE_ARC_COLOR\000"
 11560      54594C45 
 11560      5F415243 
 11560      5F434F4C 
 11560      4F5200
 11561              	.LASF31:
 11562 1c10 4C565F4F 		.ascii	"LV_OPA_40\000"
 11562      50415F34 
 11562      3000
 11563              	.LASF17:
 11564 1c1a 696E7431 		.ascii	"int16_t\000"
 11564      365F7400 
 11565              	.LASF356:
 11566 1c22 696E765F 		.ascii	"inv_en_cnt\000"
 11566      656E5F63 
 11566      6E7400
 11567              	.LASF303:
 11568 1c2d 73637265 		.ascii	"screen_transp\000"
 11568      656E5F74 
 11568      72616E73 
 11568      7000
 11569              	.LASF229:
 11570 1c3b 636F6F72 		.ascii	"coords\000"
 11570      647300
 11571              	.LASF542:
 11572 1c42 6861735F 		.ascii	"has_alpha\000"
 11572      616C7068 
 11572      6100
 11573              	.LASF495:
 11574 1c4c 6578745F 		.ascii	"ext_click_pad\000"
 11574      636C6963 
 11574      6B5F7061 
 11574      6400
 11575              	.LASF170:
 11576 1c5a 5F4C565F 		.ascii	"_LV_STYLE_NUM_BUILT_IN_PROPS\000"
 11576      5354594C 
 11576      455F4E55 
 11576      4D5F4255 
 11576      494C545F 
 11577              	.LASF532:
 11578 1c77 78735F69 		.ascii	"xs_int\000"
 11578      6E7400
 11579              	.LASF96:
 11580 1c7e 4C565F53 		.ascii	"LV_STYLE_PAD_TOP\000"
 11580      54594C45 
 11580      5F504144 
 11580      5F544F50 
 11580      00
ARM GAS  C:\Users\haske\AppData\Local\Temp\cc9HFfJU.s 			page 250


 11581              	.LASF350:
 11582 1c8f 64656C5F 		.ascii	"del_prev\000"
 11582      70726576 
 11582      00
 11583              	.LASF352:
 11584 1c98 62675F69 		.ascii	"bg_img\000"
 11584      6D6700
 11585              	.LASF113:
 11586 1c9f 4C565F53 		.ascii	"LV_STYLE_BG_IMG_OPA\000"
 11586      54594C45 
 11586      5F42475F 
 11586      494D475F 
 11586      4F504100 
 11587              	.LASF135:
 11588 1cb3 4C565F53 		.ascii	"LV_STYLE_LINE_WIDTH\000"
 11588      54594C45 
 11588      5F4C494E 
 11588      455F5749 
 11588      44544800 
 11589              	.LASF32:
 11590 1cc7 4C565F4F 		.ascii	"LV_OPA_50\000"
 11590      50415F35 
 11590      3000
 11591              	.LASF519:
 11592 1cd1 6C765F61 		.ascii	"lv_area_get_width\000"
 11592      7265615F 
 11592      6765745F 
 11592      77696474 
 11592      6800
 11593              	.LASF580:
 11594 1ce3 433A5C50 		.ascii	"C:\\Projects\\PainDrain\\firmware\\PainDrain\\PainD"
 11594      726F6A65 
 11594      6374735C 
 11594      5061696E 
 11594      44726169 
 11595 1d11 7261696E 		.ascii	"rain.cydsn\000"
 11595      2E637964 
 11595      736E00
 11596              	.LASF180:
 11597 1d1c 70726F70 		.ascii	"prop1\000"
 11597      3100
 11598              	.LASF530:
 11599 1d22 78735F75 		.ascii	"xs_ups_start\000"
 11599      70735F73 
 11599      74617274 
 11599      00
 11600              	.LASF397:
 11601 1d2f 7365745F 		.ascii	"set_px_cb\000"
 11601      70785F63 
 11601      6200
 11602              	.LASF449:
 11603 1d39 4C565F45 		.ascii	"LV_EVENT_SCROLL_END\000"
 11603      56454E54 
 11603      5F534352 
 11603      4F4C4C5F 
 11603      454E4400 
 11604              	.LASF251:
ARM GAS  C:\Users\haske\AppData\Local\Temp\cc9HFfJU.s 			page 251


 11605 1d4d 626F7264 		.ascii	"border_opa\000"
 11605      65725F6F 
 11605      706100
 11606              	.LASF89:
 11607 1d58 4C565F53 		.ascii	"LV_STYLE_MIN_HEIGHT\000"
 11607      54594C45 
 11607      5F4D494E 
 11607      5F484549 
 11607      47485400 
 11608              	.LASF454:
 11609 1d6c 4C565F45 		.ascii	"LV_EVENT_DEFOCUSED\000"
 11609      56454E54 
 11609      5F444546 
 11609      4F435553 
 11609      454400
 11610              	.LASF186:
 11611 1d7f 4C565F49 		.ascii	"LV_IMG_CF_RAW_ALPHA\000"
 11611      4D475F43 
 11611      465F5241 
 11611      575F414C 
 11611      50484100 
 11612              	.LASF242:
 11613 1d93 62675F67 		.ascii	"bg_grad\000"
 11613      72616400 
 11614              	.LASF121:
 11615 1d9b 4C565F53 		.ascii	"LV_STYLE_BORDER_POST\000"
 11615      54594C45 
 11615      5F424F52 
 11615      4445525F 
 11615      504F5354 
 11616              	.LASF405:
 11617 1db0 64726177 		.ascii	"draw_ctx\000"
 11617      5F637478 
 11617      00
 11618              	.LASF316:
 11619 1db9 64726177 		.ascii	"draw_img\000"
 11619      5F696D67 
 11619      00
 11620              	.LASF78:
 11621 1dc2 6C765F67 		.ascii	"lv_gradient_stop_t\000"
 11621      72616469 
 11621      656E745F 
 11621      73746F70 
 11621      5F7400
 11622              	.LASF92:
 11623 1dd5 4C565F53 		.ascii	"LV_STYLE_Y\000"
 11623      54594C45 
 11623      5F5900
 11624              	.LASF138:
 11625 1de0 4C565F53 		.ascii	"LV_STYLE_LINE_ROUNDED\000"
 11625      54594C45 
 11625      5F4C494E 
 11625      455F524F 
 11625      554E4445 
 11626              	.LASF33:
 11627 1df6 4C565F4F 		.ascii	"LV_OPA_60\000"
 11627      50415F36 
ARM GAS  C:\Users\haske\AppData\Local\Temp\cc9HFfJU.s 			page 252


 11627      3000
 11628              	.LASF575:
 11629 1e00 5F6C765F 		.ascii	"_lv_refr_get_disp_refreshing\000"
 11629      72656672 
 11629      5F676574 
 11629      5F646973 
 11629      705F7265 
 11630              	.LASF319:
 11631 1e1d 64726177 		.ascii	"draw_polygon\000"
 11631      5F706F6C 
 11631      79676F6E 
 11631      00
 11632              	.LASF481:
 11633 1e2a 4C565F45 		.ascii	"LV_EVENT_STYLE_CHANGED\000"
 11633      56454E54 
 11633      5F535459 
 11633      4C455F43 
 11633      48414E47 
 11634              	.LASF470:
 11635 1e41 4C565F45 		.ascii	"LV_EVENT_READY\000"
 11635      56454E54 
 11635      5F524541 
 11635      445900
 11636              	.LASF266:
 11637 1e50 73656C5F 		.ascii	"sel_start\000"
 11637      73746172 
 11637      7400
 11638              	.LASF463:
 11639 1e5a 4C565F45 		.ascii	"LV_EVENT_DRAW_POST\000"
 11639      56454E54 
 11639      5F445241 
 11639      575F504F 
 11639      535400
 11640              	.LASF20:
 11641 1e6d 75696E74 		.ascii	"uint32_t\000"
 11641      33325F74 
 11641      00
 11642              	.LASF538:
 11643 1e76 7472616E 		.ascii	"transform_point_upscaled\000"
 11643      73666F72 
 11643      6D5F706F 
 11643      696E745F 
 11643      75707363 
 11644              	.LASF510:
 11645 1e8f 73696E6D 		.ascii	"sinma\000"
 11645      6100
 11646              	.LASF411:
 11647 1e95 6C765F6F 		.ascii	"lv_obj_flag_t\000"
 11647      626A5F66 
 11647      6C61675F 
 11647      7400
 11648              	.LASF480:
 11649 1ea3 4C565F45 		.ascii	"LV_EVENT_SIZE_CHANGED\000"
 11649      56454E54 
 11649      5F53495A 
 11649      455F4348 
 11649      414E4745 
ARM GAS  C:\Users\haske\AppData\Local\Temp\cc9HFfJU.s 			page 253


 11650              	.LASF259:
 11651 1eb9 73686164 		.ascii	"shadow_width\000"
 11651      6F775F77 
 11651      69647468 
 11651      00
 11652              	.LASF40:
 11653 1ec6 67726565 		.ascii	"green\000"
 11653      6E00
 11654              	.LASF67:
 11655 1ecc 6C765F66 		.ascii	"lv_font_t\000"
 11655      6F6E745F 
 11655      7400
 11656              	.LASF482:
 11657 1ed6 4C565F45 		.ascii	"LV_EVENT_LAYOUT_CHANGED\000"
 11657      56454E54 
 11657      5F4C4159 
 11657      4F55545F 
 11657      4348414E 
 11658              	.LASF81:
 11659 1eee 64697468 		.ascii	"dither\000"
 11659      657200
 11660              	.LASF34:
 11661 1ef5 4C565F4F 		.ascii	"LV_OPA_70\000"
 11661      50415F37 
 11661      3000
 11662              	.LASF7:
 11663 1eff 73686F72 		.ascii	"short unsigned int\000"
 11663      7420756E 
 11663      7369676E 
 11663      65642069 
 11663      6E7400
 11664              	.LASF452:
 11665 1f12 4C565F45 		.ascii	"LV_EVENT_KEY\000"
 11665      56454E54 
 11665      5F4B4559 
 11665      00
 11666              	.LASF45:
 11667 1f1f 6C765F63 		.ascii	"lv_coord_t\000"
 11667      6F6F7264 
 11667      5F7400
 11668              	.LASF395:
 11669 1f2a 666C7573 		.ascii	"flush_cb\000"
 11669      685F6362 
 11669      00
 11670              	.LASF123:
 11671 1f33 4C565F53 		.ascii	"LV_STYLE_OUTLINE_COLOR\000"
 11671      54594C45 
 11671      5F4F5554 
 11671      4C494E45 
 11671      5F434F4C 
 11672              	.LASF64:
 11673 1f4a 75736572 		.ascii	"user_data\000"
 11673      5F646174 
 11673      6100
 11674              	.LASF442:
 11675 1f54 4C565F45 		.ascii	"LV_EVENT_PRESS_LOST\000"
 11675      56454E54 
ARM GAS  C:\Users\haske\AppData\Local\Temp\cc9HFfJU.s 			page 254


 11675      5F505245 
 11675      53535F4C 
 11675      4F535400 
 11676              	.LASF504:
 11677 1f68 5F6C765F 		.ascii	"_lv_event_dsc_t\000"
 11677      6576656E 
 11677      745F6473 
 11677      635F7400 
 11678              	.LASF129:
 11679 1f78 4C565F53 		.ascii	"LV_STYLE_SHADOW_SPREAD\000"
 11679      54594C45 
 11679      5F534841 
 11679      444F575F 
 11679      53505245 
 11680              	.LASF524:
 11681 1f8f 79735F75 		.ascii	"ys_ups\000"
 11681      707300
 11682              	.LASF446:
 11683 1f96 4C565F45 		.ascii	"LV_EVENT_CLICKED\000"
 11683      56454E54 
 11683      5F434C49 
 11683      434B4544 
 11683      00
 11684              	.LASF56:
 11685 1fa7 6765745F 		.ascii	"get_glyph_dsc\000"
 11685      676C7970 
 11685      685F6473 
 11685      6300
 11686              	.LASF8:
 11687 1fb5 5F5F696E 		.ascii	"__int32_t\000"
 11687      7433325F 
 11687      7400
 11688              	.LASF415:
 11689 1fbf 73656C65 		.ascii	"selector\000"
 11689      63746F72 
 11689      00
 11690              	.LASF548:
 11691 1fc8 70785F62 		.ascii	"px_base\000"
 11691      61736500 
 11692              	.LASF453:
 11693 1fd0 4C565F45 		.ascii	"LV_EVENT_FOCUSED\000"
 11693      56454E54 
 11693      5F464F43 
 11693      55534544 
 11693      00
 11694              	.LASF74:
 11695 1fe1 6C765F67 		.ascii	"lv_grad_dir_t\000"
 11695      7261645F 
 11695      6469725F 
 11695      7400
 11696              	.LASF365:
 11697 1fef 7265666F 		.ascii	"refocus_policy\000"
 11697      6375735F 
 11697      706F6C69 
 11697      637900
 11698              	.LASF382:
 11699 1ffe 5F6C765F 		.ascii	"_lv_disp_drv_t\000"
ARM GAS  C:\Users\haske\AppData\Local\Temp\cc9HFfJU.s 			page 255


 11699      64697370 
 11699      5F647276 
 11699      5F7400
 11700              	.LASF35:
 11701 200d 4C565F4F 		.ascii	"LV_OPA_80\000"
 11701      50415F38 
 11701      3000
 11702              	.LASF526:
 11703 2017 79735F73 		.ascii	"ys_step\000"
 11703      74657000 
 11704              	.LASF425:
 11705 201f 68656967 		.ascii	"height_def\000"
 11705      68745F64 
 11705      656600
 11706              	.LASF476:
 11707 202a 4C565F45 		.ascii	"LV_EVENT_SCREEN_UNLOAD_START\000"
 11707      56454E54 
 11707      5F534352 
 11707      45454E5F 
 11707      554E4C4F 
 11708              	.LASF401:
 11709 2047 636C6561 		.ascii	"clean_dcache_cb\000"
 11709      6E5F6463 
 11709      61636865 
 11709      5F636200 
 11710              	.LASF268:
 11711 2057 73656C5F 		.ascii	"sel_color\000"
 11711      636F6C6F 
 11711      7200
 11712              	.LASF199:
 11713 2061 4C565F49 		.ascii	"LV_IMG_CF_RGB888\000"
 11713      4D475F43 
 11713      465F5247 
 11713      42383838 
 11713      00
 11714              	.LASF261:
 11715 2072 73686164 		.ascii	"shadow_ofs_y\000"
 11715      6F775F6F 
 11715      66735F79 
 11715      00
 11716              	.LASF434:
 11717 207f 70726576 		.ascii	"prev\000"
 11717      00
 11718              	.LASF82:
 11719 2084 6C765F67 		.ascii	"lv_grad_dsc_t\000"
 11719      7261645F 
 11719      6473635F 
 11719      7400
 11720              	.LASF368:
 11721 2092 6E5F7369 		.ascii	"n_size\000"
 11721      7A6500
 11722              	.LASF549:
 11723 2099 70785F68 		.ascii	"px_hor\000"
 11723      6F7200
 11724              	.LASF358:
 11725 20a0 5F6C765F 		.ascii	"_lv_group_t\000"
 11725      67726F75 
ARM GAS  C:\Users\haske\AppData\Local\Temp\cc9HFfJU.s 			page 256


 11725      705F7400 
 11726              	.LASF110:
 11727 20ac 4C565F53 		.ascii	"LV_STYLE_BG_GRAD\000"
 11727      54594C45 
 11727      5F42475F 
 11727      47524144 
 11727      00
 11728              	.LASF447:
 11729 20bd 4C565F45 		.ascii	"LV_EVENT_RELEASED\000"
 11729      56454E54 
 11729      5F52454C 
 11729      45415345 
 11729      4400
 11730              	.LASF55:
 11731 20cf 69735F70 		.ascii	"is_placeholder\000"
 11731      6C616365 
 11731      686F6C64 
 11731      657200
 11732              	.LASF125:
 11733 20de 4C565F53 		.ascii	"LV_STYLE_OUTLINE_PAD\000"
 11733      54594C45 
 11733      5F4F5554 
 11733      4C494E45 
 11733      5F504144 
 11734              	.LASF36:
 11735 20f3 4C565F4F 		.ascii	"LV_OPA_90\000"
 11735      50415F39 
 11735      3000
 11736              	.LASF360:
 11737 20fd 6F626A5F 		.ascii	"obj_focus\000"
 11737      666F6375 
 11737      7300
 11738              	.LASF149:
 11739 2107 4C565F53 		.ascii	"LV_STYLE_TEXT_LETTER_SPACE\000"
 11739      54594C45 
 11739      5F544558 
 11739      545F4C45 
 11739      54544552 
 11740              	.LASF501:
 11741 2122 6576656E 		.ascii	"event_dsc_cnt\000"
 11741      745F6473 
 11741      635F636E 
 11741      7400
 11742              		.ident	"GCC: (GNU Tools for ARM Embedded Processors) 5.4.1 20160609 (release) [ARM/embedded-5-bran
