ARM GAS  C:\Users\haske\AppData\Local\Temp\ccESumnB.s 			page 1


   1              		.syntax unified
   2              		.cpu cortex-m4
   3              		.eabi_attribute 27, 1
   4              		.fpu fpv4-sp-d16
   5              		.eabi_attribute 20, 1
   6              		.eabi_attribute 21, 1
   7              		.eabi_attribute 23, 3
   8              		.eabi_attribute 24, 1
   9              		.eabi_attribute 25, 1
  10              		.eabi_attribute 26, 1
  11              		.eabi_attribute 30, 1
  12              		.eabi_attribute 34, 1
  13              		.eabi_attribute 18, 4
  14              		.thumb
  15              		.syntax unified
  16              		.file	"lv_draw_sw_img.c"
  17              		.text
  18              	.Ltext0:
  19              		.cfi_sections	.debug_frame
  20              		.section	.text.convert_cb,"ax",%progbits
  21              		.align	2
  22              		.thumb
  23              		.thumb_func
  24              		.type	convert_cb, %function
  25              	convert_cb:
  26              	.LFB160:
  27              		.file 1 "..\\..\\..\\arduinoLCD\\test\\Pain Drain\\libraries\\lvgl\\src\\draw\\sw\\lv_draw_sw_img.
   1:..\..\..\arduinoLCD\test\Pain Drain\libraries\lvgl\src\draw\sw/lv_draw_sw_img.c **** /**
   2:..\..\..\arduinoLCD\test\Pain Drain\libraries\lvgl\src\draw\sw/lv_draw_sw_img.c ****  * @file lv_draw_img.c
   3:..\..\..\arduinoLCD\test\Pain Drain\libraries\lvgl\src\draw\sw/lv_draw_sw_img.c ****  *
   4:..\..\..\arduinoLCD\test\Pain Drain\libraries\lvgl\src\draw\sw/lv_draw_sw_img.c ****  */
   5:..\..\..\arduinoLCD\test\Pain Drain\libraries\lvgl\src\draw\sw/lv_draw_sw_img.c **** 
   6:..\..\..\arduinoLCD\test\Pain Drain\libraries\lvgl\src\draw\sw/lv_draw_sw_img.c **** /*********************
   7:..\..\..\arduinoLCD\test\Pain Drain\libraries\lvgl\src\draw\sw/lv_draw_sw_img.c ****  *      INCLUDES
   8:..\..\..\arduinoLCD\test\Pain Drain\libraries\lvgl\src\draw\sw/lv_draw_sw_img.c ****  *********************/
   9:..\..\..\arduinoLCD\test\Pain Drain\libraries\lvgl\src\draw\sw/lv_draw_sw_img.c **** #include "lv_draw_sw.h"
  10:..\..\..\arduinoLCD\test\Pain Drain\libraries\lvgl\src\draw\sw/lv_draw_sw_img.c **** #include "../lv_img_cache.h"
  11:..\..\..\arduinoLCD\test\Pain Drain\libraries\lvgl\src\draw\sw/lv_draw_sw_img.c **** #include "../../hal/lv_hal_disp.h"
  12:..\..\..\arduinoLCD\test\Pain Drain\libraries\lvgl\src\draw\sw/lv_draw_sw_img.c **** #include "../../misc/lv_log.h"
  13:..\..\..\arduinoLCD\test\Pain Drain\libraries\lvgl\src\draw\sw/lv_draw_sw_img.c **** #include "../../core/lv_refr.h"
  14:..\..\..\arduinoLCD\test\Pain Drain\libraries\lvgl\src\draw\sw/lv_draw_sw_img.c **** #include "../../misc/lv_mem.h"
  15:..\..\..\arduinoLCD\test\Pain Drain\libraries\lvgl\src\draw\sw/lv_draw_sw_img.c **** #include "../../misc/lv_math.h"
  16:..\..\..\arduinoLCD\test\Pain Drain\libraries\lvgl\src\draw\sw/lv_draw_sw_img.c **** 
  17:..\..\..\arduinoLCD\test\Pain Drain\libraries\lvgl\src\draw\sw/lv_draw_sw_img.c **** /*********************
  18:..\..\..\arduinoLCD\test\Pain Drain\libraries\lvgl\src\draw\sw/lv_draw_sw_img.c ****  *      DEFINES
  19:..\..\..\arduinoLCD\test\Pain Drain\libraries\lvgl\src\draw\sw/lv_draw_sw_img.c ****  *********************/
  20:..\..\..\arduinoLCD\test\Pain Drain\libraries\lvgl\src\draw\sw/lv_draw_sw_img.c **** #define MAX_BUF_SIZE (uint32_t) lv_disp_get_hor_res(_lv_refr_get_disp_refreshing())
  21:..\..\..\arduinoLCD\test\Pain Drain\libraries\lvgl\src\draw\sw/lv_draw_sw_img.c **** 
  22:..\..\..\arduinoLCD\test\Pain Drain\libraries\lvgl\src\draw\sw/lv_draw_sw_img.c **** /**********************
  23:..\..\..\arduinoLCD\test\Pain Drain\libraries\lvgl\src\draw\sw/lv_draw_sw_img.c ****  *      TYPEDEFS
  24:..\..\..\arduinoLCD\test\Pain Drain\libraries\lvgl\src\draw\sw/lv_draw_sw_img.c ****  **********************/
  25:..\..\..\arduinoLCD\test\Pain Drain\libraries\lvgl\src\draw\sw/lv_draw_sw_img.c **** 
  26:..\..\..\arduinoLCD\test\Pain Drain\libraries\lvgl\src\draw\sw/lv_draw_sw_img.c **** /**********************
  27:..\..\..\arduinoLCD\test\Pain Drain\libraries\lvgl\src\draw\sw/lv_draw_sw_img.c ****  *  STATIC PROTOTYPES
  28:..\..\..\arduinoLCD\test\Pain Drain\libraries\lvgl\src\draw\sw/lv_draw_sw_img.c ****  **********************/
  29:..\..\..\arduinoLCD\test\Pain Drain\libraries\lvgl\src\draw\sw/lv_draw_sw_img.c **** static void convert_cb(const lv_area_t * dest_area, const void * src_buf, lv_coord_t src_w, lv_coor
  30:..\..\..\arduinoLCD\test\Pain Drain\libraries\lvgl\src\draw\sw/lv_draw_sw_img.c ****                        lv_coord_t src_stride, const lv_draw_img_dsc_t * draw_dsc, lv_img_cf_t cf, l
ARM GAS  C:\Users\haske\AppData\Local\Temp\ccESumnB.s 			page 2


  31:..\..\..\arduinoLCD\test\Pain Drain\libraries\lvgl\src\draw\sw/lv_draw_sw_img.c **** 
  32:..\..\..\arduinoLCD\test\Pain Drain\libraries\lvgl\src\draw\sw/lv_draw_sw_img.c **** /**********************
  33:..\..\..\arduinoLCD\test\Pain Drain\libraries\lvgl\src\draw\sw/lv_draw_sw_img.c ****  *  STATIC VARIABLES
  34:..\..\..\arduinoLCD\test\Pain Drain\libraries\lvgl\src\draw\sw/lv_draw_sw_img.c ****  **********************/
  35:..\..\..\arduinoLCD\test\Pain Drain\libraries\lvgl\src\draw\sw/lv_draw_sw_img.c **** 
  36:..\..\..\arduinoLCD\test\Pain Drain\libraries\lvgl\src\draw\sw/lv_draw_sw_img.c **** /**********************
  37:..\..\..\arduinoLCD\test\Pain Drain\libraries\lvgl\src\draw\sw/lv_draw_sw_img.c ****  *      MACROS
  38:..\..\..\arduinoLCD\test\Pain Drain\libraries\lvgl\src\draw\sw/lv_draw_sw_img.c ****  **********************/
  39:..\..\..\arduinoLCD\test\Pain Drain\libraries\lvgl\src\draw\sw/lv_draw_sw_img.c **** 
  40:..\..\..\arduinoLCD\test\Pain Drain\libraries\lvgl\src\draw\sw/lv_draw_sw_img.c **** /**********************
  41:..\..\..\arduinoLCD\test\Pain Drain\libraries\lvgl\src\draw\sw/lv_draw_sw_img.c ****  *   GLOBAL FUNCTIONS
  42:..\..\..\arduinoLCD\test\Pain Drain\libraries\lvgl\src\draw\sw/lv_draw_sw_img.c ****  **********************/
  43:..\..\..\arduinoLCD\test\Pain Drain\libraries\lvgl\src\draw\sw/lv_draw_sw_img.c **** 
  44:..\..\..\arduinoLCD\test\Pain Drain\libraries\lvgl\src\draw\sw/lv_draw_sw_img.c **** 
  45:..\..\..\arduinoLCD\test\Pain Drain\libraries\lvgl\src\draw\sw/lv_draw_sw_img.c **** LV_ATTRIBUTE_FAST_MEM void lv_draw_sw_img_decoded(struct _lv_draw_ctx_t * draw_ctx, const lv_draw_i
  46:..\..\..\arduinoLCD\test\Pain Drain\libraries\lvgl\src\draw\sw/lv_draw_sw_img.c ****                                                   const lv_area_t * coords, const uint8_t * src_buf
  47:..\..\..\arduinoLCD\test\Pain Drain\libraries\lvgl\src\draw\sw/lv_draw_sw_img.c **** {
  48:..\..\..\arduinoLCD\test\Pain Drain\libraries\lvgl\src\draw\sw/lv_draw_sw_img.c ****     /*Use the clip area as draw area*/
  49:..\..\..\arduinoLCD\test\Pain Drain\libraries\lvgl\src\draw\sw/lv_draw_sw_img.c ****     lv_area_t draw_area;
  50:..\..\..\arduinoLCD\test\Pain Drain\libraries\lvgl\src\draw\sw/lv_draw_sw_img.c ****     lv_area_copy(&draw_area, draw_ctx->clip_area);
  51:..\..\..\arduinoLCD\test\Pain Drain\libraries\lvgl\src\draw\sw/lv_draw_sw_img.c **** 
  52:..\..\..\arduinoLCD\test\Pain Drain\libraries\lvgl\src\draw\sw/lv_draw_sw_img.c ****     bool mask_any = lv_draw_mask_is_any(&draw_area);
  53:..\..\..\arduinoLCD\test\Pain Drain\libraries\lvgl\src\draw\sw/lv_draw_sw_img.c ****     bool transform = draw_dsc->angle != 0 || draw_dsc->zoom != LV_IMG_ZOOM_NONE ? true : false;
  54:..\..\..\arduinoLCD\test\Pain Drain\libraries\lvgl\src\draw\sw/lv_draw_sw_img.c **** 
  55:..\..\..\arduinoLCD\test\Pain Drain\libraries\lvgl\src\draw\sw/lv_draw_sw_img.c ****     lv_area_t blend_area;
  56:..\..\..\arduinoLCD\test\Pain Drain\libraries\lvgl\src\draw\sw/lv_draw_sw_img.c ****     lv_draw_sw_blend_dsc_t blend_dsc;
  57:..\..\..\arduinoLCD\test\Pain Drain\libraries\lvgl\src\draw\sw/lv_draw_sw_img.c **** 
  58:..\..\..\arduinoLCD\test\Pain Drain\libraries\lvgl\src\draw\sw/lv_draw_sw_img.c ****     lv_memset_00(&blend_dsc, sizeof(lv_draw_sw_blend_dsc_t));
  59:..\..\..\arduinoLCD\test\Pain Drain\libraries\lvgl\src\draw\sw/lv_draw_sw_img.c ****     blend_dsc.opa = draw_dsc->opa;
  60:..\..\..\arduinoLCD\test\Pain Drain\libraries\lvgl\src\draw\sw/lv_draw_sw_img.c ****     blend_dsc.blend_mode = draw_dsc->blend_mode;
  61:..\..\..\arduinoLCD\test\Pain Drain\libraries\lvgl\src\draw\sw/lv_draw_sw_img.c ****     blend_dsc.blend_area = &blend_area;
  62:..\..\..\arduinoLCD\test\Pain Drain\libraries\lvgl\src\draw\sw/lv_draw_sw_img.c **** 
  63:..\..\..\arduinoLCD\test\Pain Drain\libraries\lvgl\src\draw\sw/lv_draw_sw_img.c ****     /*The simplest case just copy the pixels into the draw_buf*/
  64:..\..\..\arduinoLCD\test\Pain Drain\libraries\lvgl\src\draw\sw/lv_draw_sw_img.c ****     if(!mask_any && !transform && cf == LV_IMG_CF_TRUE_COLOR && draw_dsc->recolor_opa == LV_OPA_TRA
  65:..\..\..\arduinoLCD\test\Pain Drain\libraries\lvgl\src\draw\sw/lv_draw_sw_img.c ****         blend_dsc.src_buf = (const lv_color_t *)src_buf;
  66:..\..\..\arduinoLCD\test\Pain Drain\libraries\lvgl\src\draw\sw/lv_draw_sw_img.c **** 
  67:..\..\..\arduinoLCD\test\Pain Drain\libraries\lvgl\src\draw\sw/lv_draw_sw_img.c ****         blend_dsc.blend_area = coords;
  68:..\..\..\arduinoLCD\test\Pain Drain\libraries\lvgl\src\draw\sw/lv_draw_sw_img.c ****         lv_draw_sw_blend(draw_ctx, &blend_dsc);
  69:..\..\..\arduinoLCD\test\Pain Drain\libraries\lvgl\src\draw\sw/lv_draw_sw_img.c ****     }
  70:..\..\..\arduinoLCD\test\Pain Drain\libraries\lvgl\src\draw\sw/lv_draw_sw_img.c ****     else if(!mask_any && !transform && cf == LV_IMG_CF_ALPHA_8BIT) {
  71:..\..\..\arduinoLCD\test\Pain Drain\libraries\lvgl\src\draw\sw/lv_draw_sw_img.c ****         lv_area_t clipped_coords;
  72:..\..\..\arduinoLCD\test\Pain Drain\libraries\lvgl\src\draw\sw/lv_draw_sw_img.c ****         if(!_lv_area_intersect(&clipped_coords, coords, draw_ctx->clip_area)) return;
  73:..\..\..\arduinoLCD\test\Pain Drain\libraries\lvgl\src\draw\sw/lv_draw_sw_img.c **** 
  74:..\..\..\arduinoLCD\test\Pain Drain\libraries\lvgl\src\draw\sw/lv_draw_sw_img.c ****         blend_dsc.mask_buf = (lv_opa_t *)src_buf;
  75:..\..\..\arduinoLCD\test\Pain Drain\libraries\lvgl\src\draw\sw/lv_draw_sw_img.c ****         blend_dsc.mask_area = coords;
  76:..\..\..\arduinoLCD\test\Pain Drain\libraries\lvgl\src\draw\sw/lv_draw_sw_img.c ****         blend_dsc.src_buf = NULL;
  77:..\..\..\arduinoLCD\test\Pain Drain\libraries\lvgl\src\draw\sw/lv_draw_sw_img.c ****         blend_dsc.color = draw_dsc->recolor;
  78:..\..\..\arduinoLCD\test\Pain Drain\libraries\lvgl\src\draw\sw/lv_draw_sw_img.c ****         blend_dsc.mask_res = LV_DRAW_MASK_RES_CHANGED;
  79:..\..\..\arduinoLCD\test\Pain Drain\libraries\lvgl\src\draw\sw/lv_draw_sw_img.c **** 
  80:..\..\..\arduinoLCD\test\Pain Drain\libraries\lvgl\src\draw\sw/lv_draw_sw_img.c ****         blend_dsc.blend_area = coords;
  81:..\..\..\arduinoLCD\test\Pain Drain\libraries\lvgl\src\draw\sw/lv_draw_sw_img.c ****         lv_draw_sw_blend(draw_ctx, &blend_dsc);
  82:..\..\..\arduinoLCD\test\Pain Drain\libraries\lvgl\src\draw\sw/lv_draw_sw_img.c ****     }
  83:..\..\..\arduinoLCD\test\Pain Drain\libraries\lvgl\src\draw\sw/lv_draw_sw_img.c **** #if LV_COLOR_DEPTH == 16
  84:..\..\..\arduinoLCD\test\Pain Drain\libraries\lvgl\src\draw\sw/lv_draw_sw_img.c ****     else if(!mask_any && !transform && cf == LV_IMG_CF_RGB565A8 && draw_dsc->recolor_opa == LV_OPA_
  85:..\..\..\arduinoLCD\test\Pain Drain\libraries\lvgl\src\draw\sw/lv_draw_sw_img.c ****         lv_coord_t src_w = lv_area_get_width(coords);
  86:..\..\..\arduinoLCD\test\Pain Drain\libraries\lvgl\src\draw\sw/lv_draw_sw_img.c ****         lv_coord_t src_h = lv_area_get_height(coords);
  87:..\..\..\arduinoLCD\test\Pain Drain\libraries\lvgl\src\draw\sw/lv_draw_sw_img.c ****         blend_dsc.src_buf = (const lv_color_t *)src_buf;
ARM GAS  C:\Users\haske\AppData\Local\Temp\ccESumnB.s 			page 3


  88:..\..\..\arduinoLCD\test\Pain Drain\libraries\lvgl\src\draw\sw/lv_draw_sw_img.c ****         blend_dsc.mask_buf = (lv_opa_t *)src_buf;
  89:..\..\..\arduinoLCD\test\Pain Drain\libraries\lvgl\src\draw\sw/lv_draw_sw_img.c ****         blend_dsc.mask_buf += sizeof(lv_color_t) * src_w * src_h;
  90:..\..\..\arduinoLCD\test\Pain Drain\libraries\lvgl\src\draw\sw/lv_draw_sw_img.c ****         blend_dsc.blend_area = coords;
  91:..\..\..\arduinoLCD\test\Pain Drain\libraries\lvgl\src\draw\sw/lv_draw_sw_img.c ****         blend_dsc.mask_area = coords;
  92:..\..\..\arduinoLCD\test\Pain Drain\libraries\lvgl\src\draw\sw/lv_draw_sw_img.c ****         blend_dsc.mask_res = LV_DRAW_MASK_RES_CHANGED;
  93:..\..\..\arduinoLCD\test\Pain Drain\libraries\lvgl\src\draw\sw/lv_draw_sw_img.c ****         lv_draw_sw_blend(draw_ctx, &blend_dsc);
  94:..\..\..\arduinoLCD\test\Pain Drain\libraries\lvgl\src\draw\sw/lv_draw_sw_img.c ****     }
  95:..\..\..\arduinoLCD\test\Pain Drain\libraries\lvgl\src\draw\sw/lv_draw_sw_img.c **** #endif
  96:..\..\..\arduinoLCD\test\Pain Drain\libraries\lvgl\src\draw\sw/lv_draw_sw_img.c ****     /*In the other cases every pixel need to be checked one-by-one*/
  97:..\..\..\arduinoLCD\test\Pain Drain\libraries\lvgl\src\draw\sw/lv_draw_sw_img.c ****     else {
  98:..\..\..\arduinoLCD\test\Pain Drain\libraries\lvgl\src\draw\sw/lv_draw_sw_img.c ****         blend_area.x1 = draw_ctx->clip_area->x1;
  99:..\..\..\arduinoLCD\test\Pain Drain\libraries\lvgl\src\draw\sw/lv_draw_sw_img.c ****         blend_area.x2 = draw_ctx->clip_area->x2;
 100:..\..\..\arduinoLCD\test\Pain Drain\libraries\lvgl\src\draw\sw/lv_draw_sw_img.c ****         blend_area.y1 = draw_ctx->clip_area->y1;
 101:..\..\..\arduinoLCD\test\Pain Drain\libraries\lvgl\src\draw\sw/lv_draw_sw_img.c ****         blend_area.y2 = draw_ctx->clip_area->y2;
 102:..\..\..\arduinoLCD\test\Pain Drain\libraries\lvgl\src\draw\sw/lv_draw_sw_img.c **** 
 103:..\..\..\arduinoLCD\test\Pain Drain\libraries\lvgl\src\draw\sw/lv_draw_sw_img.c ****         lv_coord_t src_w = lv_area_get_width(coords);
 104:..\..\..\arduinoLCD\test\Pain Drain\libraries\lvgl\src\draw\sw/lv_draw_sw_img.c ****         lv_coord_t src_h = lv_area_get_height(coords);
 105:..\..\..\arduinoLCD\test\Pain Drain\libraries\lvgl\src\draw\sw/lv_draw_sw_img.c ****         lv_coord_t blend_h = lv_area_get_height(&blend_area);
 106:..\..\..\arduinoLCD\test\Pain Drain\libraries\lvgl\src\draw\sw/lv_draw_sw_img.c ****         lv_coord_t blend_w = lv_area_get_width(&blend_area);
 107:..\..\..\arduinoLCD\test\Pain Drain\libraries\lvgl\src\draw\sw/lv_draw_sw_img.c **** 
 108:..\..\..\arduinoLCD\test\Pain Drain\libraries\lvgl\src\draw\sw/lv_draw_sw_img.c ****         uint32_t max_buf_size = MAX_BUF_SIZE;
 109:..\..\..\arduinoLCD\test\Pain Drain\libraries\lvgl\src\draw\sw/lv_draw_sw_img.c ****         uint32_t blend_size = lv_area_get_size(&blend_area);
 110:..\..\..\arduinoLCD\test\Pain Drain\libraries\lvgl\src\draw\sw/lv_draw_sw_img.c ****         uint32_t buf_h;
 111:..\..\..\arduinoLCD\test\Pain Drain\libraries\lvgl\src\draw\sw/lv_draw_sw_img.c ****         uint32_t buf_w = blend_w;
 112:..\..\..\arduinoLCD\test\Pain Drain\libraries\lvgl\src\draw\sw/lv_draw_sw_img.c ****         if(blend_size <= max_buf_size) {
 113:..\..\..\arduinoLCD\test\Pain Drain\libraries\lvgl\src\draw\sw/lv_draw_sw_img.c ****             buf_h = blend_h;
 114:..\..\..\arduinoLCD\test\Pain Drain\libraries\lvgl\src\draw\sw/lv_draw_sw_img.c ****         }
 115:..\..\..\arduinoLCD\test\Pain Drain\libraries\lvgl\src\draw\sw/lv_draw_sw_img.c ****         else {
 116:..\..\..\arduinoLCD\test\Pain Drain\libraries\lvgl\src\draw\sw/lv_draw_sw_img.c ****             /*Round to full lines*/
 117:..\..\..\arduinoLCD\test\Pain Drain\libraries\lvgl\src\draw\sw/lv_draw_sw_img.c ****             buf_h = max_buf_size / blend_w;
 118:..\..\..\arduinoLCD\test\Pain Drain\libraries\lvgl\src\draw\sw/lv_draw_sw_img.c ****         }
 119:..\..\..\arduinoLCD\test\Pain Drain\libraries\lvgl\src\draw\sw/lv_draw_sw_img.c **** 
 120:..\..\..\arduinoLCD\test\Pain Drain\libraries\lvgl\src\draw\sw/lv_draw_sw_img.c ****         /*Create buffers and masks*/
 121:..\..\..\arduinoLCD\test\Pain Drain\libraries\lvgl\src\draw\sw/lv_draw_sw_img.c ****         uint32_t buf_size = buf_w * buf_h;
 122:..\..\..\arduinoLCD\test\Pain Drain\libraries\lvgl\src\draw\sw/lv_draw_sw_img.c **** 
 123:..\..\..\arduinoLCD\test\Pain Drain\libraries\lvgl\src\draw\sw/lv_draw_sw_img.c ****         lv_color_t * rgb_buf = lv_mem_buf_get(buf_size * sizeof(lv_color_t));
 124:..\..\..\arduinoLCD\test\Pain Drain\libraries\lvgl\src\draw\sw/lv_draw_sw_img.c ****         lv_opa_t * mask_buf = lv_mem_buf_get(buf_size);
 125:..\..\..\arduinoLCD\test\Pain Drain\libraries\lvgl\src\draw\sw/lv_draw_sw_img.c ****         blend_dsc.mask_buf = mask_buf;
 126:..\..\..\arduinoLCD\test\Pain Drain\libraries\lvgl\src\draw\sw/lv_draw_sw_img.c ****         blend_dsc.mask_area = &blend_area;
 127:..\..\..\arduinoLCD\test\Pain Drain\libraries\lvgl\src\draw\sw/lv_draw_sw_img.c ****         blend_dsc.mask_res = LV_DRAW_MASK_RES_CHANGED;
 128:..\..\..\arduinoLCD\test\Pain Drain\libraries\lvgl\src\draw\sw/lv_draw_sw_img.c ****         blend_dsc.src_buf = rgb_buf;
 129:..\..\..\arduinoLCD\test\Pain Drain\libraries\lvgl\src\draw\sw/lv_draw_sw_img.c ****         lv_coord_t y_last = blend_area.y2;
 130:..\..\..\arduinoLCD\test\Pain Drain\libraries\lvgl\src\draw\sw/lv_draw_sw_img.c ****         blend_area.y2 = blend_area.y1 + buf_h - 1;
 131:..\..\..\arduinoLCD\test\Pain Drain\libraries\lvgl\src\draw\sw/lv_draw_sw_img.c **** 
 132:..\..\..\arduinoLCD\test\Pain Drain\libraries\lvgl\src\draw\sw/lv_draw_sw_img.c ****         lv_draw_mask_res_t mask_res_def = (cf != LV_IMG_CF_TRUE_COLOR || draw_dsc->angle ||
 133:..\..\..\arduinoLCD\test\Pain Drain\libraries\lvgl\src\draw\sw/lv_draw_sw_img.c ****                                            draw_dsc->zoom != LV_IMG_ZOOM_NONE) ?
 134:..\..\..\arduinoLCD\test\Pain Drain\libraries\lvgl\src\draw\sw/lv_draw_sw_img.c ****                                           LV_DRAW_MASK_RES_CHANGED : LV_DRAW_MASK_RES_FULL_COVER;
 135:..\..\..\arduinoLCD\test\Pain Drain\libraries\lvgl\src\draw\sw/lv_draw_sw_img.c ****         blend_dsc.mask_res = mask_res_def;
 136:..\..\..\arduinoLCD\test\Pain Drain\libraries\lvgl\src\draw\sw/lv_draw_sw_img.c **** 
 137:..\..\..\arduinoLCD\test\Pain Drain\libraries\lvgl\src\draw\sw/lv_draw_sw_img.c ****         while(blend_area.y1 <= y_last) {
 138:..\..\..\arduinoLCD\test\Pain Drain\libraries\lvgl\src\draw\sw/lv_draw_sw_img.c ****             /*Apply transformations if any or separate the channels*/
 139:..\..\..\arduinoLCD\test\Pain Drain\libraries\lvgl\src\draw\sw/lv_draw_sw_img.c ****             lv_area_t transform_area;
 140:..\..\..\arduinoLCD\test\Pain Drain\libraries\lvgl\src\draw\sw/lv_draw_sw_img.c ****             lv_area_copy(&transform_area, &blend_area);
 141:..\..\..\arduinoLCD\test\Pain Drain\libraries\lvgl\src\draw\sw/lv_draw_sw_img.c ****             lv_area_move(&transform_area, -coords->x1, -coords->y1);
 142:..\..\..\arduinoLCD\test\Pain Drain\libraries\lvgl\src\draw\sw/lv_draw_sw_img.c ****             if(transform) {
 143:..\..\..\arduinoLCD\test\Pain Drain\libraries\lvgl\src\draw\sw/lv_draw_sw_img.c ****                 lv_draw_transform(draw_ctx, &transform_area, src_buf, src_w, src_h, src_w,
 144:..\..\..\arduinoLCD\test\Pain Drain\libraries\lvgl\src\draw\sw/lv_draw_sw_img.c ****                                   draw_dsc, cf, rgb_buf, mask_buf);
ARM GAS  C:\Users\haske\AppData\Local\Temp\ccESumnB.s 			page 4


 145:..\..\..\arduinoLCD\test\Pain Drain\libraries\lvgl\src\draw\sw/lv_draw_sw_img.c ****             }
 146:..\..\..\arduinoLCD\test\Pain Drain\libraries\lvgl\src\draw\sw/lv_draw_sw_img.c ****             else {
 147:..\..\..\arduinoLCD\test\Pain Drain\libraries\lvgl\src\draw\sw/lv_draw_sw_img.c ****                 convert_cb(&transform_area, src_buf, src_w, src_h, src_w, draw_dsc, cf, rgb_buf, ma
 148:..\..\..\arduinoLCD\test\Pain Drain\libraries\lvgl\src\draw\sw/lv_draw_sw_img.c ****             }
 149:..\..\..\arduinoLCD\test\Pain Drain\libraries\lvgl\src\draw\sw/lv_draw_sw_img.c **** 
 150:..\..\..\arduinoLCD\test\Pain Drain\libraries\lvgl\src\draw\sw/lv_draw_sw_img.c ****             /*Apply recolor*/
 151:..\..\..\arduinoLCD\test\Pain Drain\libraries\lvgl\src\draw\sw/lv_draw_sw_img.c ****             if(draw_dsc->recolor_opa > LV_OPA_MIN) {
 152:..\..\..\arduinoLCD\test\Pain Drain\libraries\lvgl\src\draw\sw/lv_draw_sw_img.c ****                 uint16_t premult_v[3];
 153:..\..\..\arduinoLCD\test\Pain Drain\libraries\lvgl\src\draw\sw/lv_draw_sw_img.c ****                 lv_opa_t recolor_opa = draw_dsc->recolor_opa;
 154:..\..\..\arduinoLCD\test\Pain Drain\libraries\lvgl\src\draw\sw/lv_draw_sw_img.c ****                 lv_color_t recolor = draw_dsc->recolor;
 155:..\..\..\arduinoLCD\test\Pain Drain\libraries\lvgl\src\draw\sw/lv_draw_sw_img.c ****                 lv_color_premult(recolor, recolor_opa, premult_v);
 156:..\..\..\arduinoLCD\test\Pain Drain\libraries\lvgl\src\draw\sw/lv_draw_sw_img.c ****                 recolor_opa = 255 - recolor_opa;
 157:..\..\..\arduinoLCD\test\Pain Drain\libraries\lvgl\src\draw\sw/lv_draw_sw_img.c ****                 uint32_t i;
 158:..\..\..\arduinoLCD\test\Pain Drain\libraries\lvgl\src\draw\sw/lv_draw_sw_img.c ****                 for(i = 0; i < buf_size; i++) {
 159:..\..\..\arduinoLCD\test\Pain Drain\libraries\lvgl\src\draw\sw/lv_draw_sw_img.c ****                     rgb_buf[i] = lv_color_mix_premult(premult_v, rgb_buf[i], recolor_opa);
 160:..\..\..\arduinoLCD\test\Pain Drain\libraries\lvgl\src\draw\sw/lv_draw_sw_img.c ****                 }
 161:..\..\..\arduinoLCD\test\Pain Drain\libraries\lvgl\src\draw\sw/lv_draw_sw_img.c ****             }
 162:..\..\..\arduinoLCD\test\Pain Drain\libraries\lvgl\src\draw\sw/lv_draw_sw_img.c **** #if LV_DRAW_COMPLEX
 163:..\..\..\arduinoLCD\test\Pain Drain\libraries\lvgl\src\draw\sw/lv_draw_sw_img.c ****             /*Apply the masks if any*/
 164:..\..\..\arduinoLCD\test\Pain Drain\libraries\lvgl\src\draw\sw/lv_draw_sw_img.c ****             if(mask_any) {
 165:..\..\..\arduinoLCD\test\Pain Drain\libraries\lvgl\src\draw\sw/lv_draw_sw_img.c ****                 lv_coord_t y;
 166:..\..\..\arduinoLCD\test\Pain Drain\libraries\lvgl\src\draw\sw/lv_draw_sw_img.c ****                 lv_opa_t * mask_buf_tmp = mask_buf;
 167:..\..\..\arduinoLCD\test\Pain Drain\libraries\lvgl\src\draw\sw/lv_draw_sw_img.c ****                 for(y = blend_area.y1; y <= blend_area.y2; y++) {
 168:..\..\..\arduinoLCD\test\Pain Drain\libraries\lvgl\src\draw\sw/lv_draw_sw_img.c ****                     lv_draw_mask_res_t mask_res_line;
 169:..\..\..\arduinoLCD\test\Pain Drain\libraries\lvgl\src\draw\sw/lv_draw_sw_img.c ****                     mask_res_line = lv_draw_mask_apply(mask_buf_tmp, blend_area.x1, y, blend_w);
 170:..\..\..\arduinoLCD\test\Pain Drain\libraries\lvgl\src\draw\sw/lv_draw_sw_img.c **** 
 171:..\..\..\arduinoLCD\test\Pain Drain\libraries\lvgl\src\draw\sw/lv_draw_sw_img.c ****                     if(mask_res_line == LV_DRAW_MASK_RES_TRANSP) {
 172:..\..\..\arduinoLCD\test\Pain Drain\libraries\lvgl\src\draw\sw/lv_draw_sw_img.c ****                         lv_memset_00(mask_buf_tmp, blend_w);
 173:..\..\..\arduinoLCD\test\Pain Drain\libraries\lvgl\src\draw\sw/lv_draw_sw_img.c ****                         blend_dsc.mask_res = LV_DRAW_MASK_RES_CHANGED;
 174:..\..\..\arduinoLCD\test\Pain Drain\libraries\lvgl\src\draw\sw/lv_draw_sw_img.c ****                     }
 175:..\..\..\arduinoLCD\test\Pain Drain\libraries\lvgl\src\draw\sw/lv_draw_sw_img.c ****                     else if(mask_res_line == LV_DRAW_MASK_RES_CHANGED) {
 176:..\..\..\arduinoLCD\test\Pain Drain\libraries\lvgl\src\draw\sw/lv_draw_sw_img.c ****                         blend_dsc.mask_res = LV_DRAW_MASK_RES_CHANGED;
 177:..\..\..\arduinoLCD\test\Pain Drain\libraries\lvgl\src\draw\sw/lv_draw_sw_img.c ****                     }
 178:..\..\..\arduinoLCD\test\Pain Drain\libraries\lvgl\src\draw\sw/lv_draw_sw_img.c ****                     mask_buf_tmp += blend_w;
 179:..\..\..\arduinoLCD\test\Pain Drain\libraries\lvgl\src\draw\sw/lv_draw_sw_img.c ****                 }
 180:..\..\..\arduinoLCD\test\Pain Drain\libraries\lvgl\src\draw\sw/lv_draw_sw_img.c ****             }
 181:..\..\..\arduinoLCD\test\Pain Drain\libraries\lvgl\src\draw\sw/lv_draw_sw_img.c **** #endif
 182:..\..\..\arduinoLCD\test\Pain Drain\libraries\lvgl\src\draw\sw/lv_draw_sw_img.c **** 
 183:..\..\..\arduinoLCD\test\Pain Drain\libraries\lvgl\src\draw\sw/lv_draw_sw_img.c ****             /*Blend*/
 184:..\..\..\arduinoLCD\test\Pain Drain\libraries\lvgl\src\draw\sw/lv_draw_sw_img.c ****             lv_draw_sw_blend(draw_ctx, &blend_dsc);
 185:..\..\..\arduinoLCD\test\Pain Drain\libraries\lvgl\src\draw\sw/lv_draw_sw_img.c **** 
 186:..\..\..\arduinoLCD\test\Pain Drain\libraries\lvgl\src\draw\sw/lv_draw_sw_img.c ****             /*Go the the next lines*/
 187:..\..\..\arduinoLCD\test\Pain Drain\libraries\lvgl\src\draw\sw/lv_draw_sw_img.c ****             blend_area.y1 = blend_area.y2 + 1;
 188:..\..\..\arduinoLCD\test\Pain Drain\libraries\lvgl\src\draw\sw/lv_draw_sw_img.c ****             blend_area.y2 = blend_area.y1 + buf_h - 1;
 189:..\..\..\arduinoLCD\test\Pain Drain\libraries\lvgl\src\draw\sw/lv_draw_sw_img.c ****             if(blend_area.y2 > y_last) blend_area.y2 = y_last;
 190:..\..\..\arduinoLCD\test\Pain Drain\libraries\lvgl\src\draw\sw/lv_draw_sw_img.c ****         }
 191:..\..\..\arduinoLCD\test\Pain Drain\libraries\lvgl\src\draw\sw/lv_draw_sw_img.c **** 
 192:..\..\..\arduinoLCD\test\Pain Drain\libraries\lvgl\src\draw\sw/lv_draw_sw_img.c ****         lv_mem_buf_release(mask_buf);
 193:..\..\..\arduinoLCD\test\Pain Drain\libraries\lvgl\src\draw\sw/lv_draw_sw_img.c ****         lv_mem_buf_release(rgb_buf);
 194:..\..\..\arduinoLCD\test\Pain Drain\libraries\lvgl\src\draw\sw/lv_draw_sw_img.c ****     }
 195:..\..\..\arduinoLCD\test\Pain Drain\libraries\lvgl\src\draw\sw/lv_draw_sw_img.c **** }
 196:..\..\..\arduinoLCD\test\Pain Drain\libraries\lvgl\src\draw\sw/lv_draw_sw_img.c **** 
 197:..\..\..\arduinoLCD\test\Pain Drain\libraries\lvgl\src\draw\sw/lv_draw_sw_img.c **** /**********************
 198:..\..\..\arduinoLCD\test\Pain Drain\libraries\lvgl\src\draw\sw/lv_draw_sw_img.c ****  *   STATIC FUNCTIONS
 199:..\..\..\arduinoLCD\test\Pain Drain\libraries\lvgl\src\draw\sw/lv_draw_sw_img.c ****  **********************/
 200:..\..\..\arduinoLCD\test\Pain Drain\libraries\lvgl\src\draw\sw/lv_draw_sw_img.c **** 
 201:..\..\..\arduinoLCD\test\Pain Drain\libraries\lvgl\src\draw\sw/lv_draw_sw_img.c **** /* Separate the image channels to RGB and Alpha to match LV_COLOR_DEPTH settings*/
ARM GAS  C:\Users\haske\AppData\Local\Temp\ccESumnB.s 			page 5


 202:..\..\..\arduinoLCD\test\Pain Drain\libraries\lvgl\src\draw\sw/lv_draw_sw_img.c **** static void convert_cb(const lv_area_t * dest_area, const void * src_buf, lv_coord_t src_w, lv_coor
 203:..\..\..\arduinoLCD\test\Pain Drain\libraries\lvgl\src\draw\sw/lv_draw_sw_img.c ****                        lv_coord_t src_stride, const lv_draw_img_dsc_t * draw_dsc, lv_img_cf_t cf, l
 204:..\..\..\arduinoLCD\test\Pain Drain\libraries\lvgl\src\draw\sw/lv_draw_sw_img.c **** {
  28              		.loc 1 204 0
  29              		.cfi_startproc
  30              		@ args = 20, pretend = 0, frame = 24
  31              		@ frame_needed = 0, uses_anonymous_args = 0
  32              	.LVL0:
  33 0000 2DE9F04F 		push	{r4, r5, r6, r7, r8, r9, r10, fp, lr}
  34              		.cfi_def_cfa_offset 36
  35              		.cfi_offset 4, -36
  36              		.cfi_offset 5, -32
  37              		.cfi_offset 6, -28
  38              		.cfi_offset 7, -24
  39              		.cfi_offset 8, -20
  40              		.cfi_offset 9, -16
  41              		.cfi_offset 10, -12
  42              		.cfi_offset 11, -8
  43              		.cfi_offset 14, -4
  44 0004 87B0     		sub	sp, sp, #28
  45              		.cfi_def_cfa_offset 64
  46 0006 0190     		str	r0, [sp, #4]
  47 0008 0291     		str	r1, [sp, #8]
  48 000a 0392     		str	r2, [sp, #12]
  49 000c 0493     		str	r3, [sp, #16]
  50 000e BDF940A0 		ldrsh	r10, [sp, #64]
  51 0012 9DF848B0 		ldrb	fp, [sp, #72]	@ zero_extendqisi2
  52 0016 139C     		ldr	r4, [sp, #76]
  53 0018 149D     		ldr	r5, [sp, #80]
  54              	.LVL1:
 205:..\..\..\arduinoLCD\test\Pain Drain\libraries\lvgl\src\draw\sw/lv_draw_sw_img.c ****     LV_UNUSED(draw_dsc);
 206:..\..\..\arduinoLCD\test\Pain Drain\libraries\lvgl\src\draw\sw/lv_draw_sw_img.c ****     LV_UNUSED(src_h);
 207:..\..\..\arduinoLCD\test\Pain Drain\libraries\lvgl\src\draw\sw/lv_draw_sw_img.c ****     LV_UNUSED(src_w);
 208:..\..\..\arduinoLCD\test\Pain Drain\libraries\lvgl\src\draw\sw/lv_draw_sw_img.c **** 
 209:..\..\..\arduinoLCD\test\Pain Drain\libraries\lvgl\src\draw\sw/lv_draw_sw_img.c ****     const uint8_t * src_tmp8 = (const uint8_t *)src_buf;
 210:..\..\..\arduinoLCD\test\Pain Drain\libraries\lvgl\src\draw\sw/lv_draw_sw_img.c ****     lv_coord_t y;
 211:..\..\..\arduinoLCD\test\Pain Drain\libraries\lvgl\src\draw\sw/lv_draw_sw_img.c ****     lv_coord_t x;
 212:..\..\..\arduinoLCD\test\Pain Drain\libraries\lvgl\src\draw\sw/lv_draw_sw_img.c **** 
 213:..\..\..\arduinoLCD\test\Pain Drain\libraries\lvgl\src\draw\sw/lv_draw_sw_img.c ****     if(cf == LV_IMG_CF_TRUE_COLOR || cf == LV_IMG_CF_TRUE_COLOR_CHROMA_KEYED) {
  55              		.loc 1 213 0
  56 001a BBF1040F 		cmp	fp, #4
  57 001e 02D0     		beq	.L2
  58              		.loc 1 213 0 is_stmt 0 discriminator 1
  59 0020 BBF1060F 		cmp	fp, #6
  60 0024 49D1     		bne	.L3
  61              	.L2:
  62              	.LBB47:
 214:..\..\..\arduinoLCD\test\Pain Drain\libraries\lvgl\src\draw\sw/lv_draw_sw_img.c ****         uint32_t px_cnt = lv_area_get_size(dest_area);
  63              		.loc 1 214 0 is_stmt 1
  64 0026 019E     		ldr	r6, [sp, #4]
  65 0028 3046     		mov	r0, r6
  66              	.LVL2:
  67 002a FFF7FEFF 		bl	lv_area_get_size
  68              	.LVL3:
  69 002e 0146     		mov	r1, r0
  70 0030 0390     		str	r0, [sp, #12]
  71              	.LVL4:
ARM GAS  C:\Users\haske\AppData\Local\Temp\ccESumnB.s 			page 6


 215:..\..\..\arduinoLCD\test\Pain Drain\libraries\lvgl\src\draw\sw/lv_draw_sw_img.c ****         lv_memset_ff(abuf, px_cnt);
  72              		.loc 1 215 0
  73 0032 2846     		mov	r0, r5
  74              	.LVL5:
  75 0034 FFF7FEFF 		bl	lv_memset_ff
  76              	.LVL6:
 216:..\..\..\arduinoLCD\test\Pain Drain\libraries\lvgl\src\draw\sw/lv_draw_sw_img.c **** 
 217:..\..\..\arduinoLCD\test\Pain Drain\libraries\lvgl\src\draw\sw/lv_draw_sw_img.c ****         src_tmp8 += (src_stride * dest_area->y1 * sizeof(lv_color_t)) + dest_area->x1 * sizeof(lv_c
  77              		.loc 1 217 0
  78 0038 3246     		mov	r2, r6
  79 003a 3346     		mov	r3, r6
  80 003c B6F90260 		ldrsh	r6, [r6, #2]
  81 0040 B2F90090 		ldrsh	r9, [r2]
  82 0044 06FB0A97 		mla	r7, r6, r10, r9
  83 0048 029A     		ldr	r2, [sp, #8]
  84 004a 02EB4707 		add	r7, r2, r7, lsl #1
  85              	.LVL7:
  86              	.LBB48:
  87              	.LBB49:
  88              		.file 2 "c:\\projects\\paindrain\\arduinolcd\\test\\pain drain\\libraries\\lvgl\\src\\misc\\lv_are
   1:c:\projects\paindrain\arduinolcd\test\pain drain\libraries\lvgl\src\misc\lv_area.h **** /**
   2:c:\projects\paindrain\arduinolcd\test\pain drain\libraries\lvgl\src\misc\lv_area.h ****  * @file lv_area.h
   3:c:\projects\paindrain\arduinolcd\test\pain drain\libraries\lvgl\src\misc\lv_area.h ****  *
   4:c:\projects\paindrain\arduinolcd\test\pain drain\libraries\lvgl\src\misc\lv_area.h ****  */
   5:c:\projects\paindrain\arduinolcd\test\pain drain\libraries\lvgl\src\misc\lv_area.h **** 
   6:c:\projects\paindrain\arduinolcd\test\pain drain\libraries\lvgl\src\misc\lv_area.h **** #ifndef LV_AREA_H
   7:c:\projects\paindrain\arduinolcd\test\pain drain\libraries\lvgl\src\misc\lv_area.h **** #define LV_AREA_H
   8:c:\projects\paindrain\arduinolcd\test\pain drain\libraries\lvgl\src\misc\lv_area.h **** 
   9:c:\projects\paindrain\arduinolcd\test\pain drain\libraries\lvgl\src\misc\lv_area.h **** #ifdef __cplusplus
  10:c:\projects\paindrain\arduinolcd\test\pain drain\libraries\lvgl\src\misc\lv_area.h **** extern "C" {
  11:c:\projects\paindrain\arduinolcd\test\pain drain\libraries\lvgl\src\misc\lv_area.h **** #endif
  12:c:\projects\paindrain\arduinolcd\test\pain drain\libraries\lvgl\src\misc\lv_area.h **** 
  13:c:\projects\paindrain\arduinolcd\test\pain drain\libraries\lvgl\src\misc\lv_area.h **** /*********************
  14:c:\projects\paindrain\arduinolcd\test\pain drain\libraries\lvgl\src\misc\lv_area.h ****  *      INCLUDES
  15:c:\projects\paindrain\arduinolcd\test\pain drain\libraries\lvgl\src\misc\lv_area.h ****  *********************/
  16:c:\projects\paindrain\arduinolcd\test\pain drain\libraries\lvgl\src\misc\lv_area.h **** #include "../lv_conf_internal.h"
  17:c:\projects\paindrain\arduinolcd\test\pain drain\libraries\lvgl\src\misc\lv_area.h **** #include <stdbool.h>
  18:c:\projects\paindrain\arduinolcd\test\pain drain\libraries\lvgl\src\misc\lv_area.h **** #include <stdint.h>
  19:c:\projects\paindrain\arduinolcd\test\pain drain\libraries\lvgl\src\misc\lv_area.h **** 
  20:c:\projects\paindrain\arduinolcd\test\pain drain\libraries\lvgl\src\misc\lv_area.h **** /*********************
  21:c:\projects\paindrain\arduinolcd\test\pain drain\libraries\lvgl\src\misc\lv_area.h ****  *      DEFINES
  22:c:\projects\paindrain\arduinolcd\test\pain drain\libraries\lvgl\src\misc\lv_area.h ****  *********************/
  23:c:\projects\paindrain\arduinolcd\test\pain drain\libraries\lvgl\src\misc\lv_area.h **** 
  24:c:\projects\paindrain\arduinolcd\test\pain drain\libraries\lvgl\src\misc\lv_area.h **** #if LV_USE_LARGE_COORD
  25:c:\projects\paindrain\arduinolcd\test\pain drain\libraries\lvgl\src\misc\lv_area.h **** typedef int32_t lv_coord_t;
  26:c:\projects\paindrain\arduinolcd\test\pain drain\libraries\lvgl\src\misc\lv_area.h **** #else
  27:c:\projects\paindrain\arduinolcd\test\pain drain\libraries\lvgl\src\misc\lv_area.h **** typedef int16_t lv_coord_t;
  28:c:\projects\paindrain\arduinolcd\test\pain drain\libraries\lvgl\src\misc\lv_area.h **** #endif
  29:c:\projects\paindrain\arduinolcd\test\pain drain\libraries\lvgl\src\misc\lv_area.h **** 
  30:c:\projects\paindrain\arduinolcd\test\pain drain\libraries\lvgl\src\misc\lv_area.h **** /**********************
  31:c:\projects\paindrain\arduinolcd\test\pain drain\libraries\lvgl\src\misc\lv_area.h ****  *      TYPEDEFS
  32:c:\projects\paindrain\arduinolcd\test\pain drain\libraries\lvgl\src\misc\lv_area.h ****  **********************/
  33:c:\projects\paindrain\arduinolcd\test\pain drain\libraries\lvgl\src\misc\lv_area.h **** 
  34:c:\projects\paindrain\arduinolcd\test\pain drain\libraries\lvgl\src\misc\lv_area.h **** /**
  35:c:\projects\paindrain\arduinolcd\test\pain drain\libraries\lvgl\src\misc\lv_area.h ****  * Represents a point on the screen.
  36:c:\projects\paindrain\arduinolcd\test\pain drain\libraries\lvgl\src\misc\lv_area.h ****  */
  37:c:\projects\paindrain\arduinolcd\test\pain drain\libraries\lvgl\src\misc\lv_area.h **** typedef struct {
ARM GAS  C:\Users\haske\AppData\Local\Temp\ccESumnB.s 			page 7


  38:c:\projects\paindrain\arduinolcd\test\pain drain\libraries\lvgl\src\misc\lv_area.h ****     lv_coord_t x;
  39:c:\projects\paindrain\arduinolcd\test\pain drain\libraries\lvgl\src\misc\lv_area.h ****     lv_coord_t y;
  40:c:\projects\paindrain\arduinolcd\test\pain drain\libraries\lvgl\src\misc\lv_area.h **** } lv_point_t;
  41:c:\projects\paindrain\arduinolcd\test\pain drain\libraries\lvgl\src\misc\lv_area.h **** 
  42:c:\projects\paindrain\arduinolcd\test\pain drain\libraries\lvgl\src\misc\lv_area.h **** /** Represents an area of the screen.*/
  43:c:\projects\paindrain\arduinolcd\test\pain drain\libraries\lvgl\src\misc\lv_area.h **** typedef struct {
  44:c:\projects\paindrain\arduinolcd\test\pain drain\libraries\lvgl\src\misc\lv_area.h ****     lv_coord_t x1;
  45:c:\projects\paindrain\arduinolcd\test\pain drain\libraries\lvgl\src\misc\lv_area.h ****     lv_coord_t y1;
  46:c:\projects\paindrain\arduinolcd\test\pain drain\libraries\lvgl\src\misc\lv_area.h ****     lv_coord_t x2;
  47:c:\projects\paindrain\arduinolcd\test\pain drain\libraries\lvgl\src\misc\lv_area.h ****     lv_coord_t y2;
  48:c:\projects\paindrain\arduinolcd\test\pain drain\libraries\lvgl\src\misc\lv_area.h **** } lv_area_t;
  49:c:\projects\paindrain\arduinolcd\test\pain drain\libraries\lvgl\src\misc\lv_area.h **** 
  50:c:\projects\paindrain\arduinolcd\test\pain drain\libraries\lvgl\src\misc\lv_area.h **** /** Alignments*/
  51:c:\projects\paindrain\arduinolcd\test\pain drain\libraries\lvgl\src\misc\lv_area.h **** enum {
  52:c:\projects\paindrain\arduinolcd\test\pain drain\libraries\lvgl\src\misc\lv_area.h ****     LV_ALIGN_DEFAULT = 0,
  53:c:\projects\paindrain\arduinolcd\test\pain drain\libraries\lvgl\src\misc\lv_area.h ****     LV_ALIGN_TOP_LEFT,
  54:c:\projects\paindrain\arduinolcd\test\pain drain\libraries\lvgl\src\misc\lv_area.h ****     LV_ALIGN_TOP_MID,
  55:c:\projects\paindrain\arduinolcd\test\pain drain\libraries\lvgl\src\misc\lv_area.h ****     LV_ALIGN_TOP_RIGHT,
  56:c:\projects\paindrain\arduinolcd\test\pain drain\libraries\lvgl\src\misc\lv_area.h ****     LV_ALIGN_BOTTOM_LEFT,
  57:c:\projects\paindrain\arduinolcd\test\pain drain\libraries\lvgl\src\misc\lv_area.h ****     LV_ALIGN_BOTTOM_MID,
  58:c:\projects\paindrain\arduinolcd\test\pain drain\libraries\lvgl\src\misc\lv_area.h ****     LV_ALIGN_BOTTOM_RIGHT,
  59:c:\projects\paindrain\arduinolcd\test\pain drain\libraries\lvgl\src\misc\lv_area.h ****     LV_ALIGN_LEFT_MID,
  60:c:\projects\paindrain\arduinolcd\test\pain drain\libraries\lvgl\src\misc\lv_area.h ****     LV_ALIGN_RIGHT_MID,
  61:c:\projects\paindrain\arduinolcd\test\pain drain\libraries\lvgl\src\misc\lv_area.h ****     LV_ALIGN_CENTER,
  62:c:\projects\paindrain\arduinolcd\test\pain drain\libraries\lvgl\src\misc\lv_area.h **** 
  63:c:\projects\paindrain\arduinolcd\test\pain drain\libraries\lvgl\src\misc\lv_area.h ****     LV_ALIGN_OUT_TOP_LEFT,
  64:c:\projects\paindrain\arduinolcd\test\pain drain\libraries\lvgl\src\misc\lv_area.h ****     LV_ALIGN_OUT_TOP_MID,
  65:c:\projects\paindrain\arduinolcd\test\pain drain\libraries\lvgl\src\misc\lv_area.h ****     LV_ALIGN_OUT_TOP_RIGHT,
  66:c:\projects\paindrain\arduinolcd\test\pain drain\libraries\lvgl\src\misc\lv_area.h ****     LV_ALIGN_OUT_BOTTOM_LEFT,
  67:c:\projects\paindrain\arduinolcd\test\pain drain\libraries\lvgl\src\misc\lv_area.h ****     LV_ALIGN_OUT_BOTTOM_MID,
  68:c:\projects\paindrain\arduinolcd\test\pain drain\libraries\lvgl\src\misc\lv_area.h ****     LV_ALIGN_OUT_BOTTOM_RIGHT,
  69:c:\projects\paindrain\arduinolcd\test\pain drain\libraries\lvgl\src\misc\lv_area.h ****     LV_ALIGN_OUT_LEFT_TOP,
  70:c:\projects\paindrain\arduinolcd\test\pain drain\libraries\lvgl\src\misc\lv_area.h ****     LV_ALIGN_OUT_LEFT_MID,
  71:c:\projects\paindrain\arduinolcd\test\pain drain\libraries\lvgl\src\misc\lv_area.h ****     LV_ALIGN_OUT_LEFT_BOTTOM,
  72:c:\projects\paindrain\arduinolcd\test\pain drain\libraries\lvgl\src\misc\lv_area.h ****     LV_ALIGN_OUT_RIGHT_TOP,
  73:c:\projects\paindrain\arduinolcd\test\pain drain\libraries\lvgl\src\misc\lv_area.h ****     LV_ALIGN_OUT_RIGHT_MID,
  74:c:\projects\paindrain\arduinolcd\test\pain drain\libraries\lvgl\src\misc\lv_area.h ****     LV_ALIGN_OUT_RIGHT_BOTTOM,
  75:c:\projects\paindrain\arduinolcd\test\pain drain\libraries\lvgl\src\misc\lv_area.h **** };
  76:c:\projects\paindrain\arduinolcd\test\pain drain\libraries\lvgl\src\misc\lv_area.h **** typedef uint8_t lv_align_t;
  77:c:\projects\paindrain\arduinolcd\test\pain drain\libraries\lvgl\src\misc\lv_area.h **** 
  78:c:\projects\paindrain\arduinolcd\test\pain drain\libraries\lvgl\src\misc\lv_area.h **** enum {
  79:c:\projects\paindrain\arduinolcd\test\pain drain\libraries\lvgl\src\misc\lv_area.h ****     LV_DIR_NONE     = 0x00,
  80:c:\projects\paindrain\arduinolcd\test\pain drain\libraries\lvgl\src\misc\lv_area.h ****     LV_DIR_LEFT     = (1 << 0),
  81:c:\projects\paindrain\arduinolcd\test\pain drain\libraries\lvgl\src\misc\lv_area.h ****     LV_DIR_RIGHT    = (1 << 1),
  82:c:\projects\paindrain\arduinolcd\test\pain drain\libraries\lvgl\src\misc\lv_area.h ****     LV_DIR_TOP      = (1 << 2),
  83:c:\projects\paindrain\arduinolcd\test\pain drain\libraries\lvgl\src\misc\lv_area.h ****     LV_DIR_BOTTOM   = (1 << 3),
  84:c:\projects\paindrain\arduinolcd\test\pain drain\libraries\lvgl\src\misc\lv_area.h ****     LV_DIR_HOR      = LV_DIR_LEFT | LV_DIR_RIGHT,
  85:c:\projects\paindrain\arduinolcd\test\pain drain\libraries\lvgl\src\misc\lv_area.h ****     LV_DIR_VER      = LV_DIR_TOP | LV_DIR_BOTTOM,
  86:c:\projects\paindrain\arduinolcd\test\pain drain\libraries\lvgl\src\misc\lv_area.h ****     LV_DIR_ALL      = LV_DIR_HOR | LV_DIR_VER,
  87:c:\projects\paindrain\arduinolcd\test\pain drain\libraries\lvgl\src\misc\lv_area.h **** };
  88:c:\projects\paindrain\arduinolcd\test\pain drain\libraries\lvgl\src\misc\lv_area.h **** 
  89:c:\projects\paindrain\arduinolcd\test\pain drain\libraries\lvgl\src\misc\lv_area.h **** typedef uint8_t lv_dir_t;
  90:c:\projects\paindrain\arduinolcd\test\pain drain\libraries\lvgl\src\misc\lv_area.h **** 
  91:c:\projects\paindrain\arduinolcd\test\pain drain\libraries\lvgl\src\misc\lv_area.h **** /**********************
  92:c:\projects\paindrain\arduinolcd\test\pain drain\libraries\lvgl\src\misc\lv_area.h ****  * GLOBAL PROTOTYPES
  93:c:\projects\paindrain\arduinolcd\test\pain drain\libraries\lvgl\src\misc\lv_area.h ****  **********************/
  94:c:\projects\paindrain\arduinolcd\test\pain drain\libraries\lvgl\src\misc\lv_area.h **** 
ARM GAS  C:\Users\haske\AppData\Local\Temp\ccESumnB.s 			page 8


  95:c:\projects\paindrain\arduinolcd\test\pain drain\libraries\lvgl\src\misc\lv_area.h **** /**
  96:c:\projects\paindrain\arduinolcd\test\pain drain\libraries\lvgl\src\misc\lv_area.h ****  * Initialize an area
  97:c:\projects\paindrain\arduinolcd\test\pain drain\libraries\lvgl\src\misc\lv_area.h ****  * @param area_p pointer to an area
  98:c:\projects\paindrain\arduinolcd\test\pain drain\libraries\lvgl\src\misc\lv_area.h ****  * @param x1 left coordinate of the area
  99:c:\projects\paindrain\arduinolcd\test\pain drain\libraries\lvgl\src\misc\lv_area.h ****  * @param y1 top coordinate of the area
 100:c:\projects\paindrain\arduinolcd\test\pain drain\libraries\lvgl\src\misc\lv_area.h ****  * @param x2 right coordinate of the area
 101:c:\projects\paindrain\arduinolcd\test\pain drain\libraries\lvgl\src\misc\lv_area.h ****  * @param y2 bottom coordinate of the area
 102:c:\projects\paindrain\arduinolcd\test\pain drain\libraries\lvgl\src\misc\lv_area.h ****  */
 103:c:\projects\paindrain\arduinolcd\test\pain drain\libraries\lvgl\src\misc\lv_area.h **** void lv_area_set(lv_area_t * area_p, lv_coord_t x1, lv_coord_t y1, lv_coord_t x2, lv_coord_t y2);
 104:c:\projects\paindrain\arduinolcd\test\pain drain\libraries\lvgl\src\misc\lv_area.h **** 
 105:c:\projects\paindrain\arduinolcd\test\pain drain\libraries\lvgl\src\misc\lv_area.h **** /**
 106:c:\projects\paindrain\arduinolcd\test\pain drain\libraries\lvgl\src\misc\lv_area.h ****  * Copy an area
 107:c:\projects\paindrain\arduinolcd\test\pain drain\libraries\lvgl\src\misc\lv_area.h ****  * @param dest pointer to the destination area
 108:c:\projects\paindrain\arduinolcd\test\pain drain\libraries\lvgl\src\misc\lv_area.h ****  * @param src pointer to the source area
 109:c:\projects\paindrain\arduinolcd\test\pain drain\libraries\lvgl\src\misc\lv_area.h ****  */
 110:c:\projects\paindrain\arduinolcd\test\pain drain\libraries\lvgl\src\misc\lv_area.h **** inline static void lv_area_copy(lv_area_t * dest, const lv_area_t * src)
 111:c:\projects\paindrain\arduinolcd\test\pain drain\libraries\lvgl\src\misc\lv_area.h **** {
 112:c:\projects\paindrain\arduinolcd\test\pain drain\libraries\lvgl\src\misc\lv_area.h ****     dest->x1 = src->x1;
 113:c:\projects\paindrain\arduinolcd\test\pain drain\libraries\lvgl\src\misc\lv_area.h ****     dest->y1 = src->y1;
 114:c:\projects\paindrain\arduinolcd\test\pain drain\libraries\lvgl\src\misc\lv_area.h ****     dest->x2 = src->x2;
 115:c:\projects\paindrain\arduinolcd\test\pain drain\libraries\lvgl\src\misc\lv_area.h ****     dest->y2 = src->y2;
 116:c:\projects\paindrain\arduinolcd\test\pain drain\libraries\lvgl\src\misc\lv_area.h **** }
 117:c:\projects\paindrain\arduinolcd\test\pain drain\libraries\lvgl\src\misc\lv_area.h **** 
 118:c:\projects\paindrain\arduinolcd\test\pain drain\libraries\lvgl\src\misc\lv_area.h **** /**
 119:c:\projects\paindrain\arduinolcd\test\pain drain\libraries\lvgl\src\misc\lv_area.h ****  * Get the width of an area
 120:c:\projects\paindrain\arduinolcd\test\pain drain\libraries\lvgl\src\misc\lv_area.h ****  * @param area_p pointer to an area
 121:c:\projects\paindrain\arduinolcd\test\pain drain\libraries\lvgl\src\misc\lv_area.h ****  * @return the width of the area (if x1 == x2 -> width = 1)
 122:c:\projects\paindrain\arduinolcd\test\pain drain\libraries\lvgl\src\misc\lv_area.h ****  */
 123:c:\projects\paindrain\arduinolcd\test\pain drain\libraries\lvgl\src\misc\lv_area.h **** static inline lv_coord_t lv_area_get_width(const lv_area_t * area_p)
 124:c:\projects\paindrain\arduinolcd\test\pain drain\libraries\lvgl\src\misc\lv_area.h **** {
 125:c:\projects\paindrain\arduinolcd\test\pain drain\libraries\lvgl\src\misc\lv_area.h ****     return (lv_coord_t)(area_p->x2 - area_p->x1 + 1);
  89              		.loc 2 125 0
  90 004e 1A46     		mov	r2, r3
  91 0050 B3F90430 		ldrsh	r3, [r3, #4]
  92              	.LVL8:
  93 0054 C9EB0309 		rsb	r9, r9, r3
  94 0058 09F10109 		add	r9, r9, #1
  95 005c 0FFA89F9 		sxth	r9, r9
  96              	.LVL9:
  97              	.LBE49:
  98              	.LBE48:
 218:..\..\..\arduinoLCD\test\Pain Drain\libraries\lvgl\src\draw\sw/lv_draw_sw_img.c ****         uint32_t dest_w = lv_area_get_width(dest_area);
 219:..\..\..\arduinoLCD\test\Pain Drain\libraries\lvgl\src\draw\sw/lv_draw_sw_img.c ****         uint32_t dest_w_byte = dest_w * sizeof(lv_color_t);
  99              		.loc 1 219 0
 100 0060 4FEA4909 		lsl	r9, r9, #1
 101              	.LVL10:
 220:..\..\..\arduinoLCD\test\Pain Drain\libraries\lvgl\src\draw\sw/lv_draw_sw_img.c **** 
 221:..\..\..\arduinoLCD\test\Pain Drain\libraries\lvgl\src\draw\sw/lv_draw_sw_img.c ****         lv_coord_t src_stride_byte = src_stride * sizeof(lv_color_t);
 102              		.loc 1 221 0
 103 0064 4FEA4A0A 		lsl	r10, r10, #1
 104 0068 0FFA8AFA 		sxth	r10, r10
 105              	.LVL11:
 222:..\..\..\arduinoLCD\test\Pain Drain\libraries\lvgl\src\draw\sw/lv_draw_sw_img.c ****         lv_color_t * cbuf_tmp = cbuf;
 106              		.loc 1 222 0
 107 006c A046     		mov	r8, r4
 108 006e CDF804B0 		str	fp, [sp, #4]
 109              	.LVL12:
ARM GAS  C:\Users\haske\AppData\Local\Temp\ccESumnB.s 			page 9


 110 0072 9346     		mov	fp, r2
 223:..\..\..\arduinoLCD\test\Pain Drain\libraries\lvgl\src\draw\sw/lv_draw_sw_img.c ****         for(y = dest_area->y1; y <= dest_area->y2; y++) {
 111              		.loc 1 223 0
 112 0074 08E0     		b	.L4
 113              	.LVL13:
 114              	.L5:
 224:..\..\..\arduinoLCD\test\Pain Drain\libraries\lvgl\src\draw\sw/lv_draw_sw_img.c ****             lv_memcpy(cbuf_tmp, src_tmp8, dest_w_byte);
 115              		.loc 1 224 0 discriminator 3
 116 0076 4A46     		mov	r2, r9
 117 0078 3946     		mov	r1, r7
 118 007a 4046     		mov	r0, r8
 119 007c FFF7FEFF 		bl	lv_memcpy
 120              	.LVL14:
 225:..\..\..\arduinoLCD\test\Pain Drain\libraries\lvgl\src\draw\sw/lv_draw_sw_img.c ****             src_tmp8 += src_stride_byte;
 121              		.loc 1 225 0 discriminator 3
 122 0080 5744     		add	r7, r7, r10
 123              	.LVL15:
 226:..\..\..\arduinoLCD\test\Pain Drain\libraries\lvgl\src\draw\sw/lv_draw_sw_img.c ****             cbuf_tmp += dest_w;
 124              		.loc 1 226 0 discriminator 3
 125 0082 C844     		add	r8, r8, r9
 126              	.LVL16:
 223:..\..\..\arduinoLCD\test\Pain Drain\libraries\lvgl\src\draw\sw/lv_draw_sw_img.c ****             lv_memcpy(cbuf_tmp, src_tmp8, dest_w_byte);
 127              		.loc 1 223 0 discriminator 3
 128 0084 0136     		adds	r6, r6, #1
 129              	.LVL17:
 130 0086 36B2     		sxth	r6, r6
 131              	.LVL18:
 132              	.L4:
 223:..\..\..\arduinoLCD\test\Pain Drain\libraries\lvgl\src\draw\sw/lv_draw_sw_img.c ****             lv_memcpy(cbuf_tmp, src_tmp8, dest_w_byte);
 133              		.loc 1 223 0 is_stmt 0 discriminator 1
 134 0088 BBF90630 		ldrsh	r3, [fp, #6]
 135 008c 9E42     		cmp	r6, r3
 136 008e F2DD     		ble	.L5
 137 0090 DDF804B0 		ldr	fp, [sp, #4]
 227:..\..\..\arduinoLCD\test\Pain Drain\libraries\lvgl\src\draw\sw/lv_draw_sw_img.c ****         }
 228:..\..\..\arduinoLCD\test\Pain Drain\libraries\lvgl\src\draw\sw/lv_draw_sw_img.c **** 
 229:..\..\..\arduinoLCD\test\Pain Drain\libraries\lvgl\src\draw\sw/lv_draw_sw_img.c ****         /*Make "holes" for with Chroma keying*/
 230:..\..\..\arduinoLCD\test\Pain Drain\libraries\lvgl\src\draw\sw/lv_draw_sw_img.c ****         if(cf == LV_IMG_CF_TRUE_COLOR_CHROMA_KEYED) {
 138              		.loc 1 230 0 is_stmt 1
 139 0094 BBF1060F 		cmp	fp, #6
 140 0098 40F0A080 		bne	.L1
 141 009c 08E0     		b	.L18
 142              	.LVL19:
 143              	.L9:
 144              	.LBB50:
 231:..\..\..\arduinoLCD\test\Pain Drain\libraries\lvgl\src\draw\sw/lv_draw_sw_img.c ****             uint32_t i;
 232:..\..\..\arduinoLCD\test\Pain Drain\libraries\lvgl\src\draw\sw/lv_draw_sw_img.c ****             lv_color_t chk = LV_COLOR_CHROMA_KEY;
 233:..\..\..\arduinoLCD\test\Pain Drain\libraries\lvgl\src\draw\sw/lv_draw_sw_img.c **** #if LV_COLOR_DEPTH == 8 || LV_COLOR_DEPTH == 1
 234:..\..\..\arduinoLCD\test\Pain Drain\libraries\lvgl\src\draw\sw/lv_draw_sw_img.c ****             uint8_t * cbuf_uint = (uint8_t *)cbuf;
 235:..\..\..\arduinoLCD\test\Pain Drain\libraries\lvgl\src\draw\sw/lv_draw_sw_img.c ****             uint8_t chk_v = chk.full;
 236:..\..\..\arduinoLCD\test\Pain Drain\libraries\lvgl\src\draw\sw/lv_draw_sw_img.c **** #elif LV_COLOR_DEPTH == 16
 237:..\..\..\arduinoLCD\test\Pain Drain\libraries\lvgl\src\draw\sw/lv_draw_sw_img.c ****             uint16_t * cbuf_uint = (uint16_t *)cbuf;
 238:..\..\..\arduinoLCD\test\Pain Drain\libraries\lvgl\src\draw\sw/lv_draw_sw_img.c ****             uint16_t chk_v = chk.full;
 239:..\..\..\arduinoLCD\test\Pain Drain\libraries\lvgl\src\draw\sw/lv_draw_sw_img.c **** #elif LV_COLOR_DEPTH == 32
 240:..\..\..\arduinoLCD\test\Pain Drain\libraries\lvgl\src\draw\sw/lv_draw_sw_img.c ****             uint32_t * cbuf_uint = (uint32_t *)cbuf;
 241:..\..\..\arduinoLCD\test\Pain Drain\libraries\lvgl\src\draw\sw/lv_draw_sw_img.c ****             uint32_t chk_v = chk.full;
 242:..\..\..\arduinoLCD\test\Pain Drain\libraries\lvgl\src\draw\sw/lv_draw_sw_img.c **** #endif
ARM GAS  C:\Users\haske\AppData\Local\Temp\ccESumnB.s 			page 10


 243:..\..\..\arduinoLCD\test\Pain Drain\libraries\lvgl\src\draw\sw/lv_draw_sw_img.c ****             for(i = 0; i < px_cnt; i++) {
 244:..\..\..\arduinoLCD\test\Pain Drain\libraries\lvgl\src\draw\sw/lv_draw_sw_img.c ****                 if(chk_v == cbuf_uint[i]) abuf[i] = 0x00;
 145              		.loc 1 244 0
 146 009e 34F81320 		ldrh	r2, [r4, r3, lsl #1]
 147 00a2 B2F5FC6F 		cmp	r2, #2016
 148 00a6 01D1     		bne	.L8
 149              		.loc 1 244 0 is_stmt 0 discriminator 1
 150 00a8 0022     		movs	r2, #0
 151 00aa EA54     		strb	r2, [r5, r3]
 152              	.L8:
 243:..\..\..\arduinoLCD\test\Pain Drain\libraries\lvgl\src\draw\sw/lv_draw_sw_img.c ****                 if(chk_v == cbuf_uint[i]) abuf[i] = 0x00;
 153              		.loc 1 243 0 is_stmt 1 discriminator 2
 154 00ac 0133     		adds	r3, r3, #1
 155              	.LVL20:
 156 00ae 01E0     		b	.L6
 157              	.LVL21:
 158              	.L18:
 243:..\..\..\arduinoLCD\test\Pain Drain\libraries\lvgl\src\draw\sw/lv_draw_sw_img.c ****                 if(chk_v == cbuf_uint[i]) abuf[i] = 0x00;
 159              		.loc 1 243 0 is_stmt 0
 160 00b0 0023     		movs	r3, #0
 161 00b2 0399     		ldr	r1, [sp, #12]
 162              	.L6:
 163              	.LVL22:
 243:..\..\..\arduinoLCD\test\Pain Drain\libraries\lvgl\src\draw\sw/lv_draw_sw_img.c ****                 if(chk_v == cbuf_uint[i]) abuf[i] = 0x00;
 164              		.loc 1 243 0 discriminator 1
 165 00b4 8B42     		cmp	r3, r1
 166 00b6 F2D3     		bcc	.L9
 167 00b8 90E0     		b	.L1
 168              	.LVL23:
 169              	.L3:
 170              	.LBE50:
 171              	.LBE47:
 245:..\..\..\arduinoLCD\test\Pain Drain\libraries\lvgl\src\draw\sw/lv_draw_sw_img.c ****             }
 246:..\..\..\arduinoLCD\test\Pain Drain\libraries\lvgl\src\draw\sw/lv_draw_sw_img.c ****         }
 247:..\..\..\arduinoLCD\test\Pain Drain\libraries\lvgl\src\draw\sw/lv_draw_sw_img.c ****     }
 248:..\..\..\arduinoLCD\test\Pain Drain\libraries\lvgl\src\draw\sw/lv_draw_sw_img.c ****     else if(cf == LV_IMG_CF_TRUE_COLOR_ALPHA) {
 172              		.loc 1 248 0 is_stmt 1
 173 00ba BBF1050F 		cmp	fp, #5
 174 00be 3BD1     		bne	.L10
 175              	.LBB51:
 249:..\..\..\arduinoLCD\test\Pain Drain\libraries\lvgl\src\draw\sw/lv_draw_sw_img.c ****         src_tmp8 += (src_stride * dest_area->y1 * LV_IMG_PX_SIZE_ALPHA_BYTE) + dest_area->x1 * LV_I
 176              		.loc 1 249 0
 177 00c0 019E     		ldr	r6, [sp, #4]
 178 00c2 B6F902C0 		ldrsh	ip, [r6, #2]
 179 00c6 B6F90020 		ldrsh	r2, [r6]
 180              	.LVL24:
 181 00ca 0CFB0A27 		mla	r7, ip, r10, r2
 182 00ce 07EB4707 		add	r7, r7, r7, lsl #1
 183 00d2 029B     		ldr	r3, [sp, #8]
 184              	.LVL25:
 185 00d4 3B44     		add	r3, r3, r7
 186 00d6 1F46     		mov	r7, r3
 187              	.LVL26:
 188              	.LBB52:
 189              	.LBB53:
 190              		.loc 2 125 0
 191 00d8 B6F90430 		ldrsh	r3, [r6, #4]
ARM GAS  C:\Users\haske\AppData\Local\Temp\ccESumnB.s 			page 11


 192              	.LVL27:
 193 00dc 9B1A     		subs	r3, r3, r2
 194 00de 0133     		adds	r3, r3, #1
 195 00e0 9BB2     		uxth	r3, r3
 196 00e2 18B2     		sxth	r0, r3
 197              	.LVL28:
 198              	.LBE53:
 199              	.LBE52:
 250:..\..\..\arduinoLCD\test\Pain Drain\libraries\lvgl\src\draw\sw/lv_draw_sw_img.c **** 
 251:..\..\..\arduinoLCD\test\Pain Drain\libraries\lvgl\src\draw\sw/lv_draw_sw_img.c ****         lv_coord_t src_new_line_step_px = (src_stride - lv_area_get_width(dest_area));
 200              		.loc 1 251 0
 201 00e4 C3EB0A03 		rsb	r3, r3, r10
 202 00e8 1FFA83FE 		uxth	lr, r3
 203              	.LVL29:
 252:..\..\..\arduinoLCD\test\Pain Drain\libraries\lvgl\src\draw\sw/lv_draw_sw_img.c ****         lv_coord_t src_new_line_step_byte = src_new_line_step_px * LV_IMG_PX_SIZE_ALPHA_BYTE;
 204              		.loc 1 252 0
 205 00ec 0EEB4E0E 		add	lr, lr, lr, lsl #1
 206              	.LVL30:
 207 00f0 0FFA8EFE 		sxth	lr, lr
 208              	.LVL31:
 209              	.LBB54:
 210              	.LBB55:
 126:c:\projects\paindrain\arduinolcd\test\pain drain\libraries\lvgl\src\misc\lv_area.h **** }
 127:c:\projects\paindrain\arduinolcd\test\pain drain\libraries\lvgl\src\misc\lv_area.h **** 
 128:c:\projects\paindrain\arduinolcd\test\pain drain\libraries\lvgl\src\misc\lv_area.h **** /**
 129:c:\projects\paindrain\arduinolcd\test\pain drain\libraries\lvgl\src\misc\lv_area.h ****  * Get the height of an area
 130:c:\projects\paindrain\arduinolcd\test\pain drain\libraries\lvgl\src\misc\lv_area.h ****  * @param area_p pointer to an area
 131:c:\projects\paindrain\arduinolcd\test\pain drain\libraries\lvgl\src\misc\lv_area.h ****  * @return the height of the area (if y1 == y2 -> height = 1)
 132:c:\projects\paindrain\arduinolcd\test\pain drain\libraries\lvgl\src\misc\lv_area.h ****  */
 133:c:\projects\paindrain\arduinolcd\test\pain drain\libraries\lvgl\src\misc\lv_area.h **** static inline lv_coord_t lv_area_get_height(const lv_area_t * area_p)
 134:c:\projects\paindrain\arduinolcd\test\pain drain\libraries\lvgl\src\misc\lv_area.h **** {
 135:c:\projects\paindrain\arduinolcd\test\pain drain\libraries\lvgl\src\misc\lv_area.h ****     return (lv_coord_t)(area_p->y2 - area_p->y1 + 1);
 211              		.loc 2 135 0
 212 00f4 B6F90630 		ldrsh	r3, [r6, #6]
 213              	.LVL32:
 214 00f8 CCEB030C 		rsb	ip, ip, r3
 215 00fc 0CF1010C 		add	ip, ip, #1
 216 0100 0FFA8CFC 		sxth	ip, ip
 217              	.LVL33:
 218              	.LBE55:
 219              	.LBE54:
 253:..\..\..\arduinoLCD\test\Pain Drain\libraries\lvgl\src\draw\sw/lv_draw_sw_img.c **** 
 254:..\..\..\arduinoLCD\test\Pain Drain\libraries\lvgl\src\draw\sw/lv_draw_sw_img.c ****         lv_coord_t dest_h = lv_area_get_height(dest_area);
 255:..\..\..\arduinoLCD\test\Pain Drain\libraries\lvgl\src\draw\sw/lv_draw_sw_img.c ****         lv_coord_t dest_w = lv_area_get_width(dest_area);
 256:..\..\..\arduinoLCD\test\Pain Drain\libraries\lvgl\src\draw\sw/lv_draw_sw_img.c ****         for(y = 0; y < dest_h; y++) {
 220              		.loc 1 256 0
 221 0104 0026     		movs	r6, #0
 222              	.LVL34:
 223 0106 14E0     		b	.L11
 224              	.LVL35:
 225              	.L12:
 257:..\..\..\arduinoLCD\test\Pain Drain\libraries\lvgl\src\draw\sw/lv_draw_sw_img.c ****             for(x = 0; x < dest_w; x++) {
 258:..\..\..\arduinoLCD\test\Pain Drain\libraries\lvgl\src\draw\sw/lv_draw_sw_img.c ****                 abuf[x] = src_tmp8[LV_IMG_PX_SIZE_ALPHA_BYTE - 1];
 226              		.loc 1 258 0 discriminator 3
 227 0108 BA78     		ldrb	r2, [r7, #2]	@ zero_extendqisi2
 228 010a EA54     		strb	r2, [r5, r3]
 259:..\..\..\arduinoLCD\test\Pain Drain\libraries\lvgl\src\draw\sw/lv_draw_sw_img.c **** #if LV_COLOR_DEPTH == 8 || LV_COLOR_DEPTH == 1
ARM GAS  C:\Users\haske\AppData\Local\Temp\ccESumnB.s 			page 12


 260:..\..\..\arduinoLCD\test\Pain Drain\libraries\lvgl\src\draw\sw/lv_draw_sw_img.c ****                 cbuf[x].full = *src_tmp8;
 261:..\..\..\arduinoLCD\test\Pain Drain\libraries\lvgl\src\draw\sw/lv_draw_sw_img.c **** #elif LV_COLOR_DEPTH == 16
 262:..\..\..\arduinoLCD\test\Pain Drain\libraries\lvgl\src\draw\sw/lv_draw_sw_img.c ****                 cbuf[x].full = *src_tmp8 + ((*(src_tmp8 + 1)) << 8);
 229              		.loc 1 262 0 discriminator 3
 230 010c 3A78     		ldrb	r2, [r7]	@ zero_extendqisi2
 231 010e 7978     		ldrb	r1, [r7, #1]	@ zero_extendqisi2
 232 0110 02EB0122 		add	r2, r2, r1, lsl #8
 233 0114 24F81320 		strh	r2, [r4, r3, lsl #1]	@ movhi
 263:..\..\..\arduinoLCD\test\Pain Drain\libraries\lvgl\src\draw\sw/lv_draw_sw_img.c **** #elif LV_COLOR_DEPTH == 32
 264:..\..\..\arduinoLCD\test\Pain Drain\libraries\lvgl\src\draw\sw/lv_draw_sw_img.c ****                 cbuf[x] = *((lv_color_t *) src_tmp8);
 265:..\..\..\arduinoLCD\test\Pain Drain\libraries\lvgl\src\draw\sw/lv_draw_sw_img.c ****                 cbuf[x].ch.alpha = 0xff;
 266:..\..\..\arduinoLCD\test\Pain Drain\libraries\lvgl\src\draw\sw/lv_draw_sw_img.c **** #endif
 267:..\..\..\arduinoLCD\test\Pain Drain\libraries\lvgl\src\draw\sw/lv_draw_sw_img.c ****                 src_tmp8 += LV_IMG_PX_SIZE_ALPHA_BYTE;
 234              		.loc 1 267 0 discriminator 3
 235 0118 0337     		adds	r7, r7, #3
 236              	.LVL36:
 257:..\..\..\arduinoLCD\test\Pain Drain\libraries\lvgl\src\draw\sw/lv_draw_sw_img.c ****                 abuf[x] = src_tmp8[LV_IMG_PX_SIZE_ALPHA_BYTE - 1];
 237              		.loc 1 257 0 discriminator 3
 238 011a 0133     		adds	r3, r3, #1
 239              	.LVL37:
 240 011c 1BB2     		sxth	r3, r3
 241              	.LVL38:
 242 011e 00E0     		b	.L13
 243              	.LVL39:
 244              	.L19:
 245 0120 0023     		movs	r3, #0
 246              	.L13:
 247              	.LVL40:
 257:..\..\..\arduinoLCD\test\Pain Drain\libraries\lvgl\src\draw\sw/lv_draw_sw_img.c ****                 abuf[x] = src_tmp8[LV_IMG_PX_SIZE_ALPHA_BYTE - 1];
 248              		.loc 1 257 0 is_stmt 0 discriminator 1
 249 0122 8342     		cmp	r3, r0
 250 0124 F0DB     		blt	.L12
 268:..\..\..\arduinoLCD\test\Pain Drain\libraries\lvgl\src\draw\sw/lv_draw_sw_img.c **** 
 269:..\..\..\arduinoLCD\test\Pain Drain\libraries\lvgl\src\draw\sw/lv_draw_sw_img.c ****             }
 270:..\..\..\arduinoLCD\test\Pain Drain\libraries\lvgl\src\draw\sw/lv_draw_sw_img.c ****             cbuf += dest_w;
 251              		.loc 1 270 0 is_stmt 1 discriminator 2
 252 0126 04EB4004 		add	r4, r4, r0, lsl #1
 253              	.LVL41:
 271:..\..\..\arduinoLCD\test\Pain Drain\libraries\lvgl\src\draw\sw/lv_draw_sw_img.c ****             abuf += dest_w;
 254              		.loc 1 271 0 discriminator 2
 255 012a 0544     		add	r5, r5, r0
 256              	.LVL42:
 272:..\..\..\arduinoLCD\test\Pain Drain\libraries\lvgl\src\draw\sw/lv_draw_sw_img.c ****             src_tmp8 += src_new_line_step_byte;
 257              		.loc 1 272 0 discriminator 2
 258 012c 7744     		add	r7, r7, lr
 259              	.LVL43:
 256:..\..\..\arduinoLCD\test\Pain Drain\libraries\lvgl\src\draw\sw/lv_draw_sw_img.c ****             for(x = 0; x < dest_w; x++) {
 260              		.loc 1 256 0 discriminator 2
 261 012e 0136     		adds	r6, r6, #1
 262              	.LVL44:
 263 0130 36B2     		sxth	r6, r6
 264              	.LVL45:
 265              	.L11:
 256:..\..\..\arduinoLCD\test\Pain Drain\libraries\lvgl\src\draw\sw/lv_draw_sw_img.c ****             for(x = 0; x < dest_w; x++) {
 266              		.loc 1 256 0 is_stmt 0 discriminator 1
 267 0132 6645     		cmp	r6, ip
 268 0134 F4DB     		blt	.L19
ARM GAS  C:\Users\haske\AppData\Local\Temp\ccESumnB.s 			page 13


 269 0136 51E0     		b	.L1
 270              	.LVL46:
 271              	.L10:
 272              	.LBE51:
 273:..\..\..\arduinoLCD\test\Pain Drain\libraries\lvgl\src\draw\sw/lv_draw_sw_img.c ****         }
 274:..\..\..\arduinoLCD\test\Pain Drain\libraries\lvgl\src\draw\sw/lv_draw_sw_img.c ****     }
 275:..\..\..\arduinoLCD\test\Pain Drain\libraries\lvgl\src\draw\sw/lv_draw_sw_img.c ****     else if(cf == LV_IMG_CF_RGB565A8) {
 273              		.loc 1 275 0 is_stmt 1
 274 0138 BBF1140F 		cmp	fp, #20
 275 013c 4ED1     		bne	.L1
 276              	.LBB56:
 276:..\..\..\arduinoLCD\test\Pain Drain\libraries\lvgl\src\draw\sw/lv_draw_sw_img.c ****         src_tmp8 += (src_stride * dest_area->y1 * sizeof(lv_color_t)) + dest_area->x1 * sizeof(lv_c
 277              		.loc 1 276 0
 278 013e 0199     		ldr	r1, [sp, #4]
 279              	.LVL47:
 280 0140 B1F90290 		ldrsh	r9, [r1, #2]
 281 0144 B1F900B0 		ldrsh	fp, [r1]
 282 0148 0AFB09B7 		mla	r7, r10, r9, fp
 283 014c 029B     		ldr	r3, [sp, #8]
 284              	.LVL48:
 285 014e 03EB4707 		add	r7, r3, r7, lsl #1
 286              	.LVL49:
 277:..\..\..\arduinoLCD\test\Pain Drain\libraries\lvgl\src\draw\sw/lv_draw_sw_img.c **** 
 278:..\..\..\arduinoLCD\test\Pain Drain\libraries\lvgl\src\draw\sw/lv_draw_sw_img.c ****         lv_coord_t src_stride_byte = src_stride * sizeof(lv_color_t);
 287              		.loc 1 278 0
 288 0152 4FEA4A03 		lsl	r3, r10, #1
 289 0156 1BB2     		sxth	r3, r3
 290 0158 1846     		mov	r0, r3
 291              	.LVL50:
 292              	.LBB57:
 293              	.LBB58:
 294              		.loc 2 135 0
 295 015a B1F90630 		ldrsh	r3, [r1, #6]
 296 015e C9EB0309 		rsb	r9, r9, r3
 297 0162 09F10109 		add	r9, r9, #1
 298 0166 0FFA89F9 		sxth	r9, r9
 299              	.LVL51:
 300              	.LBE58:
 301              	.LBE57:
 302              	.LBB59:
 303              	.LBB60:
 125:c:\projects\paindrain\arduinolcd\test\pain drain\libraries\lvgl\src\misc\lv_area.h **** }
 304              		.loc 2 125 0
 305 016a B1F90430 		ldrsh	r3, [r1, #4]
 306 016e CBEB030B 		rsb	fp, fp, r3
 307 0172 0BF1010B 		add	fp, fp, #1
 308 0176 0FFA8BFB 		sxth	fp, fp
 309              	.LVL52:
 310              	.LBE60:
 311              	.LBE59:
 279:..\..\..\arduinoLCD\test\Pain Drain\libraries\lvgl\src\draw\sw/lv_draw_sw_img.c **** 
 280:..\..\..\arduinoLCD\test\Pain Drain\libraries\lvgl\src\draw\sw/lv_draw_sw_img.c ****         lv_coord_t dest_h = lv_area_get_height(dest_area);
 281:..\..\..\arduinoLCD\test\Pain Drain\libraries\lvgl\src\draw\sw/lv_draw_sw_img.c ****         lv_coord_t dest_w = lv_area_get_width(dest_area);
 282:..\..\..\arduinoLCD\test\Pain Drain\libraries\lvgl\src\draw\sw/lv_draw_sw_img.c ****         for(y = 0; y < dest_h; y++) {
 312              		.loc 1 282 0
 313 017a 0026     		movs	r6, #0
 314 017c CDF814A0 		str	r10, [sp, #20]
ARM GAS  C:\Users\haske\AppData\Local\Temp\ccESumnB.s 			page 14


 315 0180 8246     		mov	r10, r0
 316 0182 0AE0     		b	.L14
 317              	.LVL53:
 318              	.L15:
 283:..\..\..\arduinoLCD\test\Pain Drain\libraries\lvgl\src\draw\sw/lv_draw_sw_img.c ****             lv_memcpy(cbuf, src_tmp8, dest_w * sizeof(lv_color_t));
 319              		.loc 1 283 0 discriminator 3
 320 0184 4FEA4B08 		lsl	r8, fp, #1
 321 0188 4246     		mov	r2, r8
 322 018a 3946     		mov	r1, r7
 323 018c 2046     		mov	r0, r4
 324 018e FFF7FEFF 		bl	lv_memcpy
 325              	.LVL54:
 284:..\..\..\arduinoLCD\test\Pain Drain\libraries\lvgl\src\draw\sw/lv_draw_sw_img.c ****             cbuf += dest_w;
 326              		.loc 1 284 0 discriminator 3
 327 0192 4444     		add	r4, r4, r8
 328              	.LVL55:
 285:..\..\..\arduinoLCD\test\Pain Drain\libraries\lvgl\src\draw\sw/lv_draw_sw_img.c ****             src_tmp8 += src_stride_byte;
 329              		.loc 1 285 0 discriminator 3
 330 0194 5744     		add	r7, r7, r10
 331              	.LVL56:
 282:..\..\..\arduinoLCD\test\Pain Drain\libraries\lvgl\src\draw\sw/lv_draw_sw_img.c ****             lv_memcpy(cbuf, src_tmp8, dest_w * sizeof(lv_color_t));
 332              		.loc 1 282 0 discriminator 3
 333 0196 0136     		adds	r6, r6, #1
 334              	.LVL57:
 335 0198 36B2     		sxth	r6, r6
 336              	.LVL58:
 337              	.L14:
 282:..\..\..\arduinoLCD\test\Pain Drain\libraries\lvgl\src\draw\sw/lv_draw_sw_img.c ****             lv_memcpy(cbuf, src_tmp8, dest_w * sizeof(lv_color_t));
 338              		.loc 1 282 0 is_stmt 0 discriminator 1
 339 019a 4E45     		cmp	r6, r9
 340 019c F2DB     		blt	.L15
 341 019e DDF814A0 		ldr	r10, [sp, #20]
 342              	.LVL59:
 286:..\..\..\arduinoLCD\test\Pain Drain\libraries\lvgl\src\draw\sw/lv_draw_sw_img.c ****         }
 287:..\..\..\arduinoLCD\test\Pain Drain\libraries\lvgl\src\draw\sw/lv_draw_sw_img.c **** 
 288:..\..\..\arduinoLCD\test\Pain Drain\libraries\lvgl\src\draw\sw/lv_draw_sw_img.c ****         src_tmp8 = (const uint8_t *)src_buf;
 289:..\..\..\arduinoLCD\test\Pain Drain\libraries\lvgl\src\draw\sw/lv_draw_sw_img.c ****         src_tmp8 += sizeof(lv_color_t) * src_w * src_h;
 343              		.loc 1 289 0 is_stmt 1
 344 01a2 049F     		ldr	r7, [sp, #16]
 345 01a4 039B     		ldr	r3, [sp, #12]
 346 01a6 07FB03F7 		mul	r7, r7, r3
 347              	.LVL60:
 290:..\..\..\arduinoLCD\test\Pain Drain\libraries\lvgl\src\draw\sw/lv_draw_sw_img.c ****         src_tmp8 += src_stride * dest_area->y1 + dest_area->x1;
 348              		.loc 1 290 0
 349 01aa 019A     		ldr	r2, [sp, #4]
 350 01ac B2F90230 		ldrsh	r3, [r2, #2]
 351 01b0 B2F90020 		ldrsh	r2, [r2]
 352 01b4 0AFB0323 		mla	r3, r10, r3, r2
 353 01b8 03EB4707 		add	r7, r3, r7, lsl #1
 354              	.LVL61:
 355 01bc 029B     		ldr	r3, [sp, #8]
 356 01be 3B44     		add	r3, r3, r7
 357 01c0 1F46     		mov	r7, r3
 358              	.LVL62:
 291:..\..\..\arduinoLCD\test\Pain Drain\libraries\lvgl\src\draw\sw/lv_draw_sw_img.c ****         for(y = 0; y < dest_h; y++) {
 359              		.loc 1 291 0
 360 01c2 0024     		movs	r4, #0
ARM GAS  C:\Users\haske\AppData\Local\Temp\ccESumnB.s 			page 15


 361              	.LVL63:
 362 01c4 08E0     		b	.L16
 363              	.LVL64:
 364              	.L17:
 292:..\..\..\arduinoLCD\test\Pain Drain\libraries\lvgl\src\draw\sw/lv_draw_sw_img.c ****             lv_memcpy(abuf, src_tmp8, dest_w);
 365              		.loc 1 292 0 discriminator 3
 366 01c6 5A46     		mov	r2, fp
 367 01c8 3946     		mov	r1, r7
 368 01ca 2846     		mov	r0, r5
 369 01cc FFF7FEFF 		bl	lv_memcpy
 370              	.LVL65:
 293:..\..\..\arduinoLCD\test\Pain Drain\libraries\lvgl\src\draw\sw/lv_draw_sw_img.c ****             abuf += dest_w;
 371              		.loc 1 293 0 discriminator 3
 372 01d0 5D44     		add	r5, r5, fp
 373              	.LVL66:
 294:..\..\..\arduinoLCD\test\Pain Drain\libraries\lvgl\src\draw\sw/lv_draw_sw_img.c ****             src_tmp8 += src_stride;
 374              		.loc 1 294 0 discriminator 3
 375 01d2 5744     		add	r7, r7, r10
 376              	.LVL67:
 291:..\..\..\arduinoLCD\test\Pain Drain\libraries\lvgl\src\draw\sw/lv_draw_sw_img.c ****             lv_memcpy(abuf, src_tmp8, dest_w);
 377              		.loc 1 291 0 discriminator 3
 378 01d4 0134     		adds	r4, r4, #1
 379              	.LVL68:
 380 01d6 24B2     		sxth	r4, r4
 381              	.LVL69:
 382              	.L16:
 291:..\..\..\arduinoLCD\test\Pain Drain\libraries\lvgl\src\draw\sw/lv_draw_sw_img.c ****             lv_memcpy(abuf, src_tmp8, dest_w);
 383              		.loc 1 291 0 is_stmt 0 discriminator 1
 384 01d8 4C45     		cmp	r4, r9
 385 01da F4DB     		blt	.L17
 386              	.LVL70:
 387              	.L1:
 388              	.LBE56:
 295:..\..\..\arduinoLCD\test\Pain Drain\libraries\lvgl\src\draw\sw/lv_draw_sw_img.c ****         }
 296:..\..\..\arduinoLCD\test\Pain Drain\libraries\lvgl\src\draw\sw/lv_draw_sw_img.c ****     }
 297:..\..\..\arduinoLCD\test\Pain Drain\libraries\lvgl\src\draw\sw/lv_draw_sw_img.c **** }
 389              		.loc 1 297 0 is_stmt 1
 390 01dc 07B0     		add	sp, sp, #28
 391              		.cfi_def_cfa_offset 36
 392              		@ sp needed
 393 01de BDE8F08F 		pop	{r4, r5, r6, r7, r8, r9, r10, fp, pc}
 394              		.cfi_endproc
 395              	.LFE160:
 396              		.size	convert_cb, .-convert_cb
 397 01e2 00BF     		.section	.text.lv_draw_sw_img_decoded,"ax",%progbits
 398              		.align	2
 399              		.global	lv_draw_sw_img_decoded
 400              		.thumb
 401              		.thumb_func
 402              		.type	lv_draw_sw_img_decoded, %function
 403              	lv_draw_sw_img_decoded:
 404              	.LFB159:
  47:..\..\..\arduinoLCD\test\Pain Drain\libraries\lvgl\src\draw\sw/lv_draw_sw_img.c ****     /*Use the clip area as draw area*/
 405              		.loc 1 47 0
 406              		.cfi_startproc
 407              		@ args = 4, pretend = 0, frame = 104
 408              		@ frame_needed = 0, uses_anonymous_args = 0
ARM GAS  C:\Users\haske\AppData\Local\Temp\ccESumnB.s 			page 16


 409              	.LVL71:
 410 0000 2DE9F04F 		push	{r4, r5, r6, r7, r8, r9, r10, fp, lr}
 411              		.cfi_def_cfa_offset 36
 412              		.cfi_offset 4, -36
 413              		.cfi_offset 5, -32
 414              		.cfi_offset 6, -28
 415              		.cfi_offset 7, -24
 416              		.cfi_offset 8, -20
 417              		.cfi_offset 9, -16
 418              		.cfi_offset 10, -12
 419              		.cfi_offset 11, -8
 420              		.cfi_offset 14, -4
 421 0004 A1B0     		sub	sp, sp, #132
 422              		.cfi_def_cfa_offset 168
 423 0006 0890     		str	r0, [sp, #32]
 424 0008 8846     		mov	r8, r1
 425 000a 0D92     		str	r2, [sp, #52]
 426 000c 0E93     		str	r3, [sp, #56]
 427 000e 9DF8A830 		ldrb	r3, [sp, #168]	@ zero_extendqisi2
 428              	.LVL72:
 429 0012 0B93     		str	r3, [sp, #44]
  50:..\..\..\arduinoLCD\test\Pain Drain\libraries\lvgl\src\draw\sw/lv_draw_sw_img.c **** 
 430              		.loc 1 50 0
 431 0014 8368     		ldr	r3, [r0, #8]
 432              	.LVL73:
 433              	.LBB61:
 434              	.LBB62:
 112:c:\projects\paindrain\arduinolcd\test\pain drain\libraries\lvgl\src\misc\lv_area.h ****     dest->y1 = src->y1;
 435              		.loc 2 112 0
 436 0016 B3F90020 		ldrsh	r2, [r3]
 437              	.LVL74:
 438 001a ADF87820 		strh	r2, [sp, #120]	@ movhi
 113:c:\projects\paindrain\arduinolcd\test\pain drain\libraries\lvgl\src\misc\lv_area.h ****     dest->x2 = src->x2;
 439              		.loc 2 113 0
 440 001e B3F90220 		ldrsh	r2, [r3, #2]
 441 0022 ADF87A20 		strh	r2, [sp, #122]	@ movhi
 114:c:\projects\paindrain\arduinolcd\test\pain drain\libraries\lvgl\src\misc\lv_area.h ****     dest->y2 = src->y2;
 442              		.loc 2 114 0
 443 0026 B3F90420 		ldrsh	r2, [r3, #4]
 444 002a ADF87C20 		strh	r2, [sp, #124]	@ movhi
 115:c:\projects\paindrain\arduinolcd\test\pain drain\libraries\lvgl\src\misc\lv_area.h **** }
 445              		.loc 2 115 0
 446 002e B3F90630 		ldrsh	r3, [r3, #6]
 447              	.LVL75:
 448 0032 ADF87E30 		strh	r3, [sp, #126]	@ movhi
 449              	.LVL76:
 450              	.LBE62:
 451              	.LBE61:
  52:..\..\..\arduinoLCD\test\Pain Drain\libraries\lvgl\src\draw\sw/lv_draw_sw_img.c ****     bool transform = draw_dsc->angle != 0 || draw_dsc->zoom != LV_IMG_ZOOM_NONE ? true : false;
 452              		.loc 1 52 0
 453 0036 1EA8     		add	r0, sp, #120
 454              	.LVL77:
 455 0038 FFF7FEFF 		bl	lv_draw_mask_is_any
 456              	.LVL78:
 457 003c 0646     		mov	r6, r0
 458 003e 0A90     		str	r0, [sp, #40]
 459              	.LVL79:
ARM GAS  C:\Users\haske\AppData\Local\Temp\ccESumnB.s 			page 17


  53:..\..\..\arduinoLCD\test\Pain Drain\libraries\lvgl\src\draw\sw/lv_draw_sw_img.c **** 
 460              		.loc 1 53 0
 461 0040 D8F80030 		ldr	r3, [r8]
 462 0044 1D46     		mov	r5, r3
 463 0046 0C93     		str	r3, [sp, #48]
 464              	.LVL80:
  58:..\..\..\arduinoLCD\test\Pain Drain\libraries\lvgl\src\draw\sw/lv_draw_sw_img.c ****     blend_dsc.opa = draw_dsc->opa;
 465              		.loc 1 58 0
 466 0048 1C21     		movs	r1, #28
 467 004a 15A8     		add	r0, sp, #84
 468 004c FFF7FEFF 		bl	lv_memset_00
 469              	.LVL81:
  59:..\..\..\arduinoLCD\test\Pain Drain\libraries\lvgl\src\draw\sw/lv_draw_sw_img.c ****     blend_dsc.blend_mode = draw_dsc->blend_mode;
 470              		.loc 1 59 0
 471 0050 98F80B30 		ldrb	r3, [r8, #11]	@ zero_extendqisi2
 472 0054 8DF86C30 		strb	r3, [sp, #108]
  60:..\..\..\arduinoLCD\test\Pain Drain\libraries\lvgl\src\draw\sw/lv_draw_sw_img.c ****     blend_dsc.blend_area = &blend_area;
 473              		.loc 1 60 0
 474 0058 98F80C30 		ldrb	r3, [r8, #12]	@ zero_extendqisi2
 475 005c C3F30303 		ubfx	r3, r3, #0, #4
 476 0060 8DF86D30 		strb	r3, [sp, #109]
  61:..\..\..\arduinoLCD\test\Pain Drain\libraries\lvgl\src\draw\sw/lv_draw_sw_img.c **** 
 477              		.loc 1 61 0
 478 0064 1CAB     		add	r3, sp, #112
 479 0066 1593     		str	r3, [sp, #84]
  64:..\..\..\arduinoLCD\test\Pain Drain\libraries\lvgl\src\draw\sw/lv_draw_sw_img.c ****         blend_dsc.src_buf = (const lv_color_t *)src_buf;
 480              		.loc 1 64 0
 481 0068 96B9     		cbnz	r6, .L22
  64:..\..\..\arduinoLCD\test\Pain Drain\libraries\lvgl\src\draw\sw/lv_draw_sw_img.c ****         blend_dsc.src_buf = (const lv_color_t *)src_buf;
 482              		.loc 1 64 0 is_stmt 0 discriminator 1
 483 006a B5F1807F 		cmp	r5, #16777216
 484 006e 0FD1     		bne	.L22
  64:..\..\..\arduinoLCD\test\Pain Drain\libraries\lvgl\src\draw\sw/lv_draw_sw_img.c ****         blend_dsc.src_buf = (const lv_color_t *)src_buf;
 485              		.loc 1 64 0 discriminator 2
 486 0070 0B9B     		ldr	r3, [sp, #44]
 487 0072 042B     		cmp	r3, #4
 488 0074 0CD1     		bne	.L22
  64:..\..\..\arduinoLCD\test\Pain Drain\libraries\lvgl\src\draw\sw/lv_draw_sw_img.c ****         blend_dsc.src_buf = (const lv_color_t *)src_buf;
 489              		.loc 1 64 0 discriminator 3
 490 0076 98F80A30 		ldrb	r3, [r8, #10]	@ zero_extendqisi2
 491 007a 4BB9     		cbnz	r3, .L22
  65:..\..\..\arduinoLCD\test\Pain Drain\libraries\lvgl\src\draw\sw/lv_draw_sw_img.c **** 
 492              		.loc 1 65 0 is_stmt 1
 493 007c 0E9B     		ldr	r3, [sp, #56]
 494 007e 1693     		str	r3, [sp, #88]
  67:..\..\..\arduinoLCD\test\Pain Drain\libraries\lvgl\src\draw\sw/lv_draw_sw_img.c ****         lv_draw_sw_blend(draw_ctx, &blend_dsc);
 495              		.loc 1 67 0
 496 0080 20A9     		add	r1, sp, #128
 497 0082 0D9B     		ldr	r3, [sp, #52]
 498 0084 41F82C3D 		str	r3, [r1, #-44]!
  68:..\..\..\arduinoLCD\test\Pain Drain\libraries\lvgl\src\draw\sw/lv_draw_sw_img.c ****     }
 499              		.loc 1 68 0
 500 0088 0898     		ldr	r0, [sp, #32]
 501 008a FFF7FEFF 		bl	lv_draw_sw_blend
 502              	.LVL82:
 503 008e 79E1     		b	.L21
 504              	.L22:
ARM GAS  C:\Users\haske\AppData\Local\Temp\ccESumnB.s 			page 18


  70:..\..\..\arduinoLCD\test\Pain Drain\libraries\lvgl\src\draw\sw/lv_draw_sw_img.c ****         lv_area_t clipped_coords;
 505              		.loc 1 70 0
 506 0090 0A9B     		ldr	r3, [sp, #40]
 507 0092 1BBB     		cbnz	r3, .L24
  70:..\..\..\arduinoLCD\test\Pain Drain\libraries\lvgl\src\draw\sw/lv_draw_sw_img.c ****         lv_area_t clipped_coords;
 508              		.loc 1 70 0 is_stmt 0 discriminator 1
 509 0094 0C9B     		ldr	r3, [sp, #48]
 510 0096 B3F1807F 		cmp	r3, #16777216
 511 009a 1FD1     		bne	.L24
  70:..\..\..\arduinoLCD\test\Pain Drain\libraries\lvgl\src\draw\sw/lv_draw_sw_img.c ****         lv_area_t clipped_coords;
 512              		.loc 1 70 0 discriminator 2
 513 009c 0B9B     		ldr	r3, [sp, #44]
 514 009e 0E2B     		cmp	r3, #14
 515 00a0 1CD1     		bne	.L24
 516              	.LBB63:
  72:..\..\..\arduinoLCD\test\Pain Drain\libraries\lvgl\src\draw\sw/lv_draw_sw_img.c **** 
 517              		.loc 1 72 0 is_stmt 1
 518 00a2 089B     		ldr	r3, [sp, #32]
 519 00a4 9A68     		ldr	r2, [r3, #8]
 520 00a6 0D99     		ldr	r1, [sp, #52]
 521 00a8 13A8     		add	r0, sp, #76
 522 00aa FFF7FEFF 		bl	_lv_area_intersect
 523              	.LVL83:
 524 00ae 0028     		cmp	r0, #0
 525 00b0 00F06881 		beq	.L21
  74:..\..\..\arduinoLCD\test\Pain Drain\libraries\lvgl\src\draw\sw/lv_draw_sw_img.c ****         blend_dsc.mask_area = coords;
 526              		.loc 1 74 0
 527 00b4 0E9B     		ldr	r3, [sp, #56]
 528 00b6 1893     		str	r3, [sp, #96]
  75:..\..\..\arduinoLCD\test\Pain Drain\libraries\lvgl\src\draw\sw/lv_draw_sw_img.c ****         blend_dsc.src_buf = NULL;
 529              		.loc 1 75 0
 530 00b8 0D9A     		ldr	r2, [sp, #52]
 531 00ba 1A92     		str	r2, [sp, #104]
  76:..\..\..\arduinoLCD\test\Pain Drain\libraries\lvgl\src\draw\sw/lv_draw_sw_img.c ****         blend_dsc.color = draw_dsc->recolor;
 532              		.loc 1 76 0
 533 00bc 0023     		movs	r3, #0
 534 00be 1693     		str	r3, [sp, #88]
  77:..\..\..\arduinoLCD\test\Pain Drain\libraries\lvgl\src\draw\sw/lv_draw_sw_img.c ****         blend_dsc.mask_res = LV_DRAW_MASK_RES_CHANGED;
 535              		.loc 1 77 0
 536 00c0 B8F80830 		ldrh	r3, [r8, #8]
 537 00c4 ADF85C30 		strh	r3, [sp, #92]	@ movhi
  78:..\..\..\arduinoLCD\test\Pain Drain\libraries\lvgl\src\draw\sw/lv_draw_sw_img.c **** 
 538              		.loc 1 78 0
 539 00c8 0223     		movs	r3, #2
 540 00ca 8DF86430 		strb	r3, [sp, #100]
  80:..\..\..\arduinoLCD\test\Pain Drain\libraries\lvgl\src\draw\sw/lv_draw_sw_img.c ****         lv_draw_sw_blend(draw_ctx, &blend_dsc);
 541              		.loc 1 80 0
 542 00ce 20A9     		add	r1, sp, #128
 543 00d0 41F82C2D 		str	r2, [r1, #-44]!
  81:..\..\..\arduinoLCD\test\Pain Drain\libraries\lvgl\src\draw\sw/lv_draw_sw_img.c ****     }
 544              		.loc 1 81 0
 545 00d4 0898     		ldr	r0, [sp, #32]
 546 00d6 FFF7FEFF 		bl	lv_draw_sw_blend
 547              	.LVL84:
 548              	.LBE63:
  70:..\..\..\arduinoLCD\test\Pain Drain\libraries\lvgl\src\draw\sw/lv_draw_sw_img.c ****         lv_area_t clipped_coords;
 549              		.loc 1 70 0
ARM GAS  C:\Users\haske\AppData\Local\Temp\ccESumnB.s 			page 19


 550 00da 53E1     		b	.L21
 551              	.L24:
  84:..\..\..\arduinoLCD\test\Pain Drain\libraries\lvgl\src\draw\sw/lv_draw_sw_img.c ****         lv_coord_t src_w = lv_area_get_width(coords);
 552              		.loc 1 84 0
 553 00dc 0A9B     		ldr	r3, [sp, #40]
 554 00de 4BBB     		cbnz	r3, .L27
  84:..\..\..\arduinoLCD\test\Pain Drain\libraries\lvgl\src\draw\sw/lv_draw_sw_img.c ****         lv_coord_t src_w = lv_area_get_width(coords);
 555              		.loc 1 84 0 is_stmt 0 discriminator 1
 556 00e0 0C9B     		ldr	r3, [sp, #48]
 557 00e2 B3F1807F 		cmp	r3, #16777216
 558 00e6 25D1     		bne	.L27
  84:..\..\..\arduinoLCD\test\Pain Drain\libraries\lvgl\src\draw\sw/lv_draw_sw_img.c ****         lv_coord_t src_w = lv_area_get_width(coords);
 559              		.loc 1 84 0 discriminator 2
 560 00e8 0B9B     		ldr	r3, [sp, #44]
 561 00ea 142B     		cmp	r3, #20
 562 00ec 22D1     		bne	.L27
  84:..\..\..\arduinoLCD\test\Pain Drain\libraries\lvgl\src\draw\sw/lv_draw_sw_img.c ****         lv_coord_t src_w = lv_area_get_width(coords);
 563              		.loc 1 84 0 discriminator 3
 564 00ee 98F80A30 		ldrb	r3, [r8, #10]	@ zero_extendqisi2
 565 00f2 FBB9     		cbnz	r3, .L27
 566              	.LVL85:
 567              	.LBB64:
 568              	.LBB65:
 569              	.LBB66:
 125:c:\projects\paindrain\arduinolcd\test\pain drain\libraries\lvgl\src\misc\lv_area.h **** }
 570              		.loc 2 125 0 is_stmt 1
 571 00f4 0D98     		ldr	r0, [sp, #52]
 572 00f6 B0F90430 		ldrsh	r3, [r0, #4]
 573 00fa B0F90020 		ldrsh	r2, [r0]
 574 00fe 9B1A     		subs	r3, r3, r2
 575 0100 0133     		adds	r3, r3, #1
 576 0102 19B2     		sxth	r1, r3
 577              	.LVL86:
 578              	.LBE66:
 579              	.LBE65:
 580              	.LBB67:
 581              	.LBB68:
 582              		.loc 2 135 0
 583 0104 B0F90620 		ldrsh	r2, [r0, #6]
 584 0108 B0F90230 		ldrsh	r3, [r0, #2]
 585 010c D31A     		subs	r3, r2, r3
 586 010e 0133     		adds	r3, r3, #1
 587 0110 1BB2     		sxth	r3, r3
 588              	.LVL87:
 589              	.LBE68:
 590              	.LBE67:
  87:..\..\..\arduinoLCD\test\Pain Drain\libraries\lvgl\src\draw\sw/lv_draw_sw_img.c ****         blend_dsc.mask_buf = (lv_opa_t *)src_buf;
 591              		.loc 1 87 0
 592 0112 0E9A     		ldr	r2, [sp, #56]
 593 0114 1692     		str	r2, [sp, #88]
  89:..\..\..\arduinoLCD\test\Pain Drain\libraries\lvgl\src\draw\sw/lv_draw_sw_img.c ****         blend_dsc.blend_area = coords;
 594              		.loc 1 89 0
 595 0116 03FB01F3 		mul	r3, r3, r1
 596 011a 02EB4303 		add	r3, r2, r3, lsl #1
 597 011e 1893     		str	r3, [sp, #96]
  90:..\..\..\arduinoLCD\test\Pain Drain\libraries\lvgl\src\draw\sw/lv_draw_sw_img.c ****         blend_dsc.mask_area = coords;
 598              		.loc 1 90 0
ARM GAS  C:\Users\haske\AppData\Local\Temp\ccESumnB.s 			page 20


 599 0120 1590     		str	r0, [sp, #84]
  91:..\..\..\arduinoLCD\test\Pain Drain\libraries\lvgl\src\draw\sw/lv_draw_sw_img.c ****         blend_dsc.mask_res = LV_DRAW_MASK_RES_CHANGED;
 600              		.loc 1 91 0
 601 0122 1A90     		str	r0, [sp, #104]
  92:..\..\..\arduinoLCD\test\Pain Drain\libraries\lvgl\src\draw\sw/lv_draw_sw_img.c ****         lv_draw_sw_blend(draw_ctx, &blend_dsc);
 602              		.loc 1 92 0
 603 0124 0223     		movs	r3, #2
 604 0126 8DF86430 		strb	r3, [sp, #100]
  93:..\..\..\arduinoLCD\test\Pain Drain\libraries\lvgl\src\draw\sw/lv_draw_sw_img.c ****     }
 605              		.loc 1 93 0
 606 012a 15A9     		add	r1, sp, #84
 607 012c 0898     		ldr	r0, [sp, #32]
 608 012e FFF7FEFF 		bl	lv_draw_sw_blend
 609              	.LVL88:
 610              	.LBE64:
  84:..\..\..\arduinoLCD\test\Pain Drain\libraries\lvgl\src\draw\sw/lv_draw_sw_img.c ****         lv_coord_t src_w = lv_area_get_width(coords);
 611              		.loc 1 84 0
 612 0132 27E1     		b	.L21
 613              	.L27:
 614              	.LBB69:
  98:..\..\..\arduinoLCD\test\Pain Drain\libraries\lvgl\src\draw\sw/lv_draw_sw_img.c ****         blend_area.x2 = draw_ctx->clip_area->x2;
 615              		.loc 1 98 0
 616 0134 089B     		ldr	r3, [sp, #32]
 617 0136 9A68     		ldr	r2, [r3, #8]
 618 0138 B2F90000 		ldrsh	r0, [r2]
 619 013c ADF87000 		strh	r0, [sp, #112]	@ movhi
  99:..\..\..\arduinoLCD\test\Pain Drain\libraries\lvgl\src\draw\sw/lv_draw_sw_img.c ****         blend_area.y1 = draw_ctx->clip_area->y1;
 620              		.loc 1 99 0
 621 0140 B2F90430 		ldrsh	r3, [r2, #4]
 622 0144 ADF87430 		strh	r3, [sp, #116]	@ movhi
 100:..\..\..\arduinoLCD\test\Pain Drain\libraries\lvgl\src\draw\sw/lv_draw_sw_img.c ****         blend_area.y2 = draw_ctx->clip_area->y2;
 623              		.loc 1 100 0
 624 0148 B2F902A0 		ldrsh	r10, [r2, #2]
 625 014c ADF872A0 		strh	r10, [sp, #114]	@ movhi
 101:..\..\..\arduinoLCD\test\Pain Drain\libraries\lvgl\src\draw\sw/lv_draw_sw_img.c **** 
 626              		.loc 1 101 0
 627 0150 B2F90620 		ldrsh	r2, [r2, #6]
 628 0154 ADF87620 		strh	r2, [sp, #118]	@ movhi
 629              	.LVL89:
 630              	.LBB70:
 631              	.LBB71:
 125:c:\projects\paindrain\arduinolcd\test\pain drain\libraries\lvgl\src\misc\lv_area.h **** }
 632              		.loc 2 125 0
 633 0158 0D9E     		ldr	r6, [sp, #52]
 634              	.LVL90:
 635 015a B6F90410 		ldrsh	r1, [r6, #4]
 636 015e B6F90050 		ldrsh	r5, [r6]
 637              	.LVL91:
 638 0162 491B     		subs	r1, r1, r5
 639 0164 0131     		adds	r1, r1, #1
 640 0166 09B2     		sxth	r1, r1
 641 0168 1191     		str	r1, [sp, #68]
 642              	.LVL92:
 643              	.LBE71:
 644              	.LBE70:
 645              	.LBB72:
 646              	.LBB73:
ARM GAS  C:\Users\haske\AppData\Local\Temp\ccESumnB.s 			page 21


 647              		.loc 2 135 0
 648 016a B6F90610 		ldrsh	r1, [r6, #6]
 649 016e B6F90250 		ldrsh	r5, [r6, #2]
 650 0172 491B     		subs	r1, r1, r5
 651 0174 0131     		adds	r1, r1, #1
 652 0176 09B2     		sxth	r1, r1
 653 0178 1091     		str	r1, [sp, #64]
 654              	.LVL93:
 655              	.LBE73:
 656              	.LBE72:
 657              	.LBB74:
 658              	.LBB75:
 659 017a CAEB020A 		rsb	r10, r10, r2
 660 017e 0AF1010A 		add	r10, r10, #1
 661 0182 0FFA8AFA 		sxth	r10, r10
 662              	.LVL94:
 663              	.LBE75:
 664              	.LBE74:
 665              	.LBB76:
 666              	.LBB77:
 125:c:\projects\paindrain\arduinolcd\test\pain drain\libraries\lvgl\src\misc\lv_area.h **** }
 667              		.loc 2 125 0
 668 0186 1B1A     		subs	r3, r3, r0
 669 0188 0133     		adds	r3, r3, #1
 670 018a 1BB2     		sxth	r3, r3
 671 018c 1E46     		mov	r6, r3
 672 018e 0793     		str	r3, [sp, #28]
 673              	.LVL95:
 674              	.LBE77:
 675              	.LBE76:
 108:..\..\..\arduinoLCD\test\Pain Drain\libraries\lvgl\src\draw\sw/lv_draw_sw_img.c ****         uint32_t blend_size = lv_area_get_size(&blend_area);
 676              		.loc 1 108 0
 677 0190 FFF7FEFF 		bl	_lv_refr_get_disp_refreshing
 678              	.LVL96:
 679 0194 FFF7FEFF 		bl	lv_disp_get_hor_res
 680              	.LVL97:
 681 0198 0546     		mov	r5, r0
 682              	.LVL98:
 109:..\..\..\arduinoLCD\test\Pain Drain\libraries\lvgl\src\draw\sw/lv_draw_sw_img.c ****         uint32_t buf_h;
 683              		.loc 1 109 0
 684 019a 1CA8     		add	r0, sp, #112
 685              	.LVL99:
 686 019c FFF7FEFF 		bl	lv_area_get_size
 687              	.LVL100:
 112:..\..\..\arduinoLCD\test\Pain Drain\libraries\lvgl\src\draw\sw/lv_draw_sw_img.c ****             buf_h = blend_h;
 688              		.loc 1 112 0
 689 01a0 8542     		cmp	r5, r0
 690 01a2 02D2     		bcs	.L29
 117:..\..\..\arduinoLCD\test\Pain Drain\libraries\lvgl\src\draw\sw/lv_draw_sw_img.c ****         }
 691              		.loc 1 117 0
 692 01a4 079B     		ldr	r3, [sp, #28]
 693 01a6 B5FBF3FA 		udiv	r10, r5, r3
 694              	.LVL101:
 695              	.L29:
 121:..\..\..\arduinoLCD\test\Pain Drain\libraries\lvgl\src\draw\sw/lv_draw_sw_img.c **** 
 696              		.loc 1 121 0
 697 01aa 079B     		ldr	r3, [sp, #28]
ARM GAS  C:\Users\haske\AppData\Local\Temp\ccESumnB.s 			page 22


 698 01ac 03FB0AF7 		mul	r7, r3, r10
 699              	.LVL102:
 123:..\..\..\arduinoLCD\test\Pain Drain\libraries\lvgl\src\draw\sw/lv_draw_sw_img.c ****         lv_opa_t * mask_buf = lv_mem_buf_get(buf_size);
 700              		.loc 1 123 0
 701 01b0 7800     		lsls	r0, r7, #1
 702              	.LVL103:
 703 01b2 FFF7FEFF 		bl	lv_mem_buf_get
 704              	.LVL104:
 705 01b6 0546     		mov	r5, r0
 706              	.LVL105:
 124:..\..\..\arduinoLCD\test\Pain Drain\libraries\lvgl\src\draw\sw/lv_draw_sw_img.c ****         blend_dsc.mask_buf = mask_buf;
 707              		.loc 1 124 0
 708 01b8 3846     		mov	r0, r7
 709              	.LVL106:
 710 01ba FFF7FEFF 		bl	lv_mem_buf_get
 711              	.LVL107:
 712 01be 0990     		str	r0, [sp, #36]
 713              	.LVL108:
 125:..\..\..\arduinoLCD\test\Pain Drain\libraries\lvgl\src\draw\sw/lv_draw_sw_img.c ****         blend_dsc.mask_area = &blend_area;
 714              		.loc 1 125 0
 715 01c0 1890     		str	r0, [sp, #96]
 126:..\..\..\arduinoLCD\test\Pain Drain\libraries\lvgl\src\draw\sw/lv_draw_sw_img.c ****         blend_dsc.mask_res = LV_DRAW_MASK_RES_CHANGED;
 716              		.loc 1 126 0
 717 01c2 1CAB     		add	r3, sp, #112
 718 01c4 1A93     		str	r3, [sp, #104]
 128:..\..\..\arduinoLCD\test\Pain Drain\libraries\lvgl\src\draw\sw/lv_draw_sw_img.c ****         lv_coord_t y_last = blend_area.y2;
 719              		.loc 1 128 0
 720 01c6 1695     		str	r5, [sp, #88]
 129:..\..\..\arduinoLCD\test\Pain Drain\libraries\lvgl\src\draw\sw/lv_draw_sw_img.c ****         blend_area.y2 = blend_area.y1 + buf_h - 1;
 721              		.loc 1 129 0
 722 01c8 BDF97690 		ldrsh	r9, [sp, #118]
 723              	.LVL109:
 130:..\..\..\arduinoLCD\test\Pain Drain\libraries\lvgl\src\draw\sw/lv_draw_sw_img.c **** 
 724              		.loc 1 130 0
 725 01cc BDF97230 		ldrsh	r3, [sp, #114]
 726 01d0 1FFA8AF2 		uxth	r2, r10
 727 01d4 0F92     		str	r2, [sp, #60]
 728 01d6 1344     		add	r3, r3, r2
 729 01d8 013B     		subs	r3, r3, #1
 730 01da ADF87630 		strh	r3, [sp, #118]	@ movhi
 132:..\..\..\arduinoLCD\test\Pain Drain\libraries\lvgl\src\draw\sw/lv_draw_sw_img.c ****                                            draw_dsc->zoom != LV_IMG_ZOOM_NONE) ?
 731              		.loc 1 132 0
 732 01de 0B9B     		ldr	r3, [sp, #44]
 733 01e0 042B     		cmp	r3, #4
 734 01e2 06D1     		bne	.L44
 132:..\..\..\arduinoLCD\test\Pain Drain\libraries\lvgl\src\draw\sw/lv_draw_sw_img.c ****                                            draw_dsc->zoom != LV_IMG_ZOOM_NONE) ?
 735              		.loc 1 132 0 is_stmt 0 discriminator 2
 736 01e4 D8F80030 		ldr	r3, [r8]
 737 01e8 B3F1807F 		cmp	r3, #16777216
 738 01ec 03D0     		beq	.L45
 132:..\..\..\arduinoLCD\test\Pain Drain\libraries\lvgl\src\draw\sw/lv_draw_sw_img.c ****                                            draw_dsc->zoom != LV_IMG_ZOOM_NONE) ?
 739              		.loc 1 132 0
 740 01ee 0223     		movs	r3, #2
 741 01f0 02E0     		b	.L30
 742              	.L44:
 743 01f2 0223     		movs	r3, #2
 744 01f4 00E0     		b	.L30
ARM GAS  C:\Users\haske\AppData\Local\Temp\ccESumnB.s 			page 23


 745              	.L45:
 746 01f6 0123     		movs	r3, #1
 747              	.L30:
 748              	.LVL110:
 135:..\..\..\arduinoLCD\test\Pain Drain\libraries\lvgl\src\draw\sw/lv_draw_sw_img.c **** 
 749              		.loc 1 135 0 is_stmt 1 discriminator 6
 750 01f8 8DF86430 		strb	r3, [sp, #100]
 137:..\..\..\arduinoLCD\test\Pain Drain\libraries\lvgl\src\draw\sw/lv_draw_sw_img.c ****             /*Apply transformations if any or separate the channels*/
 751              		.loc 1 137 0 discriminator 6
 752 01fc B7E0     		b	.L31
 753              	.LVL111:
 754              	.L43:
 755              	.LBB78:
 756              	.LBB79:
 757              	.LBB80:
 112:c:\projects\paindrain\arduinolcd\test\pain drain\libraries\lvgl\src\misc\lv_area.h ****     dest->y1 = src->y1;
 758              		.loc 2 112 0
 759 01fe BDF97020 		ldrsh	r2, [sp, #112]
 760 0202 ADF84C20 		strh	r2, [sp, #76]	@ movhi
 113:c:\projects\paindrain\arduinolcd\test\pain drain\libraries\lvgl\src\misc\lv_area.h ****     dest->x2 = src->x2;
 761              		.loc 2 113 0
 762 0206 ADF84E30 		strh	r3, [sp, #78]	@ movhi
 114:c:\projects\paindrain\arduinolcd\test\pain drain\libraries\lvgl\src\misc\lv_area.h ****     dest->y2 = src->y2;
 763              		.loc 2 114 0
 764 020a BDF97430 		ldrsh	r3, [sp, #116]
 765 020e ADF85030 		strh	r3, [sp, #80]	@ movhi
 115:c:\projects\paindrain\arduinolcd\test\pain drain\libraries\lvgl\src\misc\lv_area.h **** }
 766              		.loc 2 115 0
 767 0212 BDF97630 		ldrsh	r3, [sp, #118]
 768 0216 ADF85230 		strh	r3, [sp, #82]	@ movhi
 769              	.LVL112:
 770              	.LBE80:
 771              	.LBE79:
 141:..\..\..\arduinoLCD\test\Pain Drain\libraries\lvgl\src\draw\sw/lv_draw_sw_img.c ****             if(transform) {
 772              		.loc 1 141 0
 773 021a 0D9A     		ldr	r2, [sp, #52]
 774 021c B2F90010 		ldrsh	r1, [r2]
 775 0220 B2F90220 		ldrsh	r2, [r2, #2]
 776 0224 5242     		negs	r2, r2
 777 0226 4942     		negs	r1, r1
 778 0228 12B2     		sxth	r2, r2
 779 022a 09B2     		sxth	r1, r1
 780 022c 13A8     		add	r0, sp, #76
 781 022e FFF7FEFF 		bl	lv_area_move
 782              	.LVL113:
 142:..\..\..\arduinoLCD\test\Pain Drain\libraries\lvgl\src\draw\sw/lv_draw_sw_img.c ****                 lv_draw_transform(draw_ctx, &transform_area, src_buf, src_w, src_h, src_w,
 783              		.loc 1 142 0
 784 0232 0C9B     		ldr	r3, [sp, #48]
 785 0234 B3F1807F 		cmp	r3, #16777216
 786 0238 10D0     		beq	.L32
 143:..\..\..\arduinoLCD\test\Pain Drain\libraries\lvgl\src\draw\sw/lv_draw_sw_img.c ****                                   draw_dsc, cf, rgb_buf, mask_buf);
 787              		.loc 1 143 0
 788 023a 099B     		ldr	r3, [sp, #36]
 789 023c 0593     		str	r3, [sp, #20]
 790 023e 0495     		str	r5, [sp, #16]
 791 0240 0B9B     		ldr	r3, [sp, #44]
 792 0242 0393     		str	r3, [sp, #12]
ARM GAS  C:\Users\haske\AppData\Local\Temp\ccESumnB.s 			page 24


 793 0244 CDF80880 		str	r8, [sp, #8]
 794 0248 119B     		ldr	r3, [sp, #68]
 795 024a 0193     		str	r3, [sp, #4]
 796 024c 109A     		ldr	r2, [sp, #64]
 797 024e 0092     		str	r2, [sp]
 798 0250 0E9A     		ldr	r2, [sp, #56]
 799 0252 13A9     		add	r1, sp, #76
 800 0254 0898     		ldr	r0, [sp, #32]
 801 0256 FFF7FEFF 		bl	lv_draw_transform
 802              	.LVL114:
 803 025a 0DE0     		b	.L33
 804              	.L32:
 147:..\..\..\arduinoLCD\test\Pain Drain\libraries\lvgl\src\draw\sw/lv_draw_sw_img.c ****             }
 805              		.loc 1 147 0
 806 025c 099B     		ldr	r3, [sp, #36]
 807 025e 0493     		str	r3, [sp, #16]
 808 0260 0395     		str	r5, [sp, #12]
 809 0262 0B9B     		ldr	r3, [sp, #44]
 810 0264 0293     		str	r3, [sp, #8]
 811 0266 CDF80480 		str	r8, [sp, #4]
 812 026a 119A     		ldr	r2, [sp, #68]
 813 026c 0092     		str	r2, [sp]
 814 026e 109B     		ldr	r3, [sp, #64]
 815 0270 0E99     		ldr	r1, [sp, #56]
 816 0272 13A8     		add	r0, sp, #76
 817 0274 FFF7FEFF 		bl	convert_cb
 818              	.LVL115:
 819              	.L33:
 151:..\..\..\arduinoLCD\test\Pain Drain\libraries\lvgl\src\draw\sw/lv_draw_sw_img.c ****                 uint16_t premult_v[3];
 820              		.loc 1 151 0
 821 0278 98F80AE0 		ldrb	lr, [r8, #10]	@ zero_extendqisi2
 822 027c BEF1020F 		cmp	lr, #2
 823 0280 3DD9     		bls	.L34
 824              	.LVL116:
 825              	.LBB81:
 154:..\..\..\arduinoLCD\test\Pain Drain\libraries\lvgl\src\draw\sw/lv_draw_sw_img.c ****                 lv_color_premult(recolor, recolor_opa, premult_v);
 826              		.loc 1 154 0
 827 0282 B8F80830 		ldrh	r3, [r8, #8]
 828              	.LVL117:
 829              	.LBB82:
 830              	.LBB83:
 831              		.file 3 "c:\\projects\\paindrain\\arduinolcd\\test\\pain drain\\libraries\\lvgl\\src\\misc\\lv_col
   1:c:\projects\paindrain\arduinolcd\test\pain drain\libraries\lvgl\src\misc\lv_color.h **** /**
   2:c:\projects\paindrain\arduinolcd\test\pain drain\libraries\lvgl\src\misc\lv_color.h ****  * @file lv_color.h
   3:c:\projects\paindrain\arduinolcd\test\pain drain\libraries\lvgl\src\misc\lv_color.h ****  *
   4:c:\projects\paindrain\arduinolcd\test\pain drain\libraries\lvgl\src\misc\lv_color.h ****  */
   5:c:\projects\paindrain\arduinolcd\test\pain drain\libraries\lvgl\src\misc\lv_color.h **** 
   6:c:\projects\paindrain\arduinolcd\test\pain drain\libraries\lvgl\src\misc\lv_color.h **** #ifndef LV_COLOR_H
   7:c:\projects\paindrain\arduinolcd\test\pain drain\libraries\lvgl\src\misc\lv_color.h **** #define LV_COLOR_H
   8:c:\projects\paindrain\arduinolcd\test\pain drain\libraries\lvgl\src\misc\lv_color.h **** 
   9:c:\projects\paindrain\arduinolcd\test\pain drain\libraries\lvgl\src\misc\lv_color.h **** #ifdef __cplusplus
  10:c:\projects\paindrain\arduinolcd\test\pain drain\libraries\lvgl\src\misc\lv_color.h **** extern "C" {
  11:c:\projects\paindrain\arduinolcd\test\pain drain\libraries\lvgl\src\misc\lv_color.h **** #endif
  12:c:\projects\paindrain\arduinolcd\test\pain drain\libraries\lvgl\src\misc\lv_color.h **** 
  13:c:\projects\paindrain\arduinolcd\test\pain drain\libraries\lvgl\src\misc\lv_color.h **** /*********************
  14:c:\projects\paindrain\arduinolcd\test\pain drain\libraries\lvgl\src\misc\lv_color.h ****  *      INCLUDES
  15:c:\projects\paindrain\arduinolcd\test\pain drain\libraries\lvgl\src\misc\lv_color.h ****  *********************/
ARM GAS  C:\Users\haske\AppData\Local\Temp\ccESumnB.s 			page 25


  16:c:\projects\paindrain\arduinolcd\test\pain drain\libraries\lvgl\src\misc\lv_color.h **** #include "../lv_conf_internal.h"
  17:c:\projects\paindrain\arduinolcd\test\pain drain\libraries\lvgl\src\misc\lv_color.h **** #include "lv_assert.h"
  18:c:\projects\paindrain\arduinolcd\test\pain drain\libraries\lvgl\src\misc\lv_color.h **** #include "lv_math.h"
  19:c:\projects\paindrain\arduinolcd\test\pain drain\libraries\lvgl\src\misc\lv_color.h **** #include "lv_types.h"
  20:c:\projects\paindrain\arduinolcd\test\pain drain\libraries\lvgl\src\misc\lv_color.h **** 
  21:c:\projects\paindrain\arduinolcd\test\pain drain\libraries\lvgl\src\misc\lv_color.h **** /*Error checking*/
  22:c:\projects\paindrain\arduinolcd\test\pain drain\libraries\lvgl\src\misc\lv_color.h **** #if LV_COLOR_DEPTH == 24
  23:c:\projects\paindrain\arduinolcd\test\pain drain\libraries\lvgl\src\misc\lv_color.h **** #error "LV_COLOR_DEPTH 24 is deprecated. Use LV_COLOR_DEPTH 32 instead (lv_conf.h)"
  24:c:\projects\paindrain\arduinolcd\test\pain drain\libraries\lvgl\src\misc\lv_color.h **** #endif
  25:c:\projects\paindrain\arduinolcd\test\pain drain\libraries\lvgl\src\misc\lv_color.h **** 
  26:c:\projects\paindrain\arduinolcd\test\pain drain\libraries\lvgl\src\misc\lv_color.h **** #if LV_COLOR_DEPTH != 16 && LV_COLOR_16_SWAP != 0
  27:c:\projects\paindrain\arduinolcd\test\pain drain\libraries\lvgl\src\misc\lv_color.h **** #error "LV_COLOR_16_SWAP requires LV_COLOR_DEPTH == 16. Set it in lv_conf.h"
  28:c:\projects\paindrain\arduinolcd\test\pain drain\libraries\lvgl\src\misc\lv_color.h **** #endif
  29:c:\projects\paindrain\arduinolcd\test\pain drain\libraries\lvgl\src\misc\lv_color.h **** 
  30:c:\projects\paindrain\arduinolcd\test\pain drain\libraries\lvgl\src\misc\lv_color.h **** #include <stdint.h>
  31:c:\projects\paindrain\arduinolcd\test\pain drain\libraries\lvgl\src\misc\lv_color.h **** 
  32:c:\projects\paindrain\arduinolcd\test\pain drain\libraries\lvgl\src\misc\lv_color.h **** /*********************
  33:c:\projects\paindrain\arduinolcd\test\pain drain\libraries\lvgl\src\misc\lv_color.h ****  *      DEFINES
  34:c:\projects\paindrain\arduinolcd\test\pain drain\libraries\lvgl\src\misc\lv_color.h ****  *********************/
  35:c:\projects\paindrain\arduinolcd\test\pain drain\libraries\lvgl\src\misc\lv_color.h **** LV_EXPORT_CONST_INT(LV_COLOR_DEPTH);
  36:c:\projects\paindrain\arduinolcd\test\pain drain\libraries\lvgl\src\misc\lv_color.h **** LV_EXPORT_CONST_INT(LV_COLOR_16_SWAP);
  37:c:\projects\paindrain\arduinolcd\test\pain drain\libraries\lvgl\src\misc\lv_color.h **** 
  38:c:\projects\paindrain\arduinolcd\test\pain drain\libraries\lvgl\src\misc\lv_color.h **** /**
  39:c:\projects\paindrain\arduinolcd\test\pain drain\libraries\lvgl\src\misc\lv_color.h ****  * Opacity percentages.
  40:c:\projects\paindrain\arduinolcd\test\pain drain\libraries\lvgl\src\misc\lv_color.h ****  */
  41:c:\projects\paindrain\arduinolcd\test\pain drain\libraries\lvgl\src\misc\lv_color.h **** enum {
  42:c:\projects\paindrain\arduinolcd\test\pain drain\libraries\lvgl\src\misc\lv_color.h ****     LV_OPA_TRANSP = 0,
  43:c:\projects\paindrain\arduinolcd\test\pain drain\libraries\lvgl\src\misc\lv_color.h ****     LV_OPA_0      = 0,
  44:c:\projects\paindrain\arduinolcd\test\pain drain\libraries\lvgl\src\misc\lv_color.h ****     LV_OPA_10     = 25,
  45:c:\projects\paindrain\arduinolcd\test\pain drain\libraries\lvgl\src\misc\lv_color.h ****     LV_OPA_20     = 51,
  46:c:\projects\paindrain\arduinolcd\test\pain drain\libraries\lvgl\src\misc\lv_color.h ****     LV_OPA_30     = 76,
  47:c:\projects\paindrain\arduinolcd\test\pain drain\libraries\lvgl\src\misc\lv_color.h ****     LV_OPA_40     = 102,
  48:c:\projects\paindrain\arduinolcd\test\pain drain\libraries\lvgl\src\misc\lv_color.h ****     LV_OPA_50     = 127,
  49:c:\projects\paindrain\arduinolcd\test\pain drain\libraries\lvgl\src\misc\lv_color.h ****     LV_OPA_60     = 153,
  50:c:\projects\paindrain\arduinolcd\test\pain drain\libraries\lvgl\src\misc\lv_color.h ****     LV_OPA_70     = 178,
  51:c:\projects\paindrain\arduinolcd\test\pain drain\libraries\lvgl\src\misc\lv_color.h ****     LV_OPA_80     = 204,
  52:c:\projects\paindrain\arduinolcd\test\pain drain\libraries\lvgl\src\misc\lv_color.h ****     LV_OPA_90     = 229,
  53:c:\projects\paindrain\arduinolcd\test\pain drain\libraries\lvgl\src\misc\lv_color.h ****     LV_OPA_100    = 255,
  54:c:\projects\paindrain\arduinolcd\test\pain drain\libraries\lvgl\src\misc\lv_color.h ****     LV_OPA_COVER  = 255,
  55:c:\projects\paindrain\arduinolcd\test\pain drain\libraries\lvgl\src\misc\lv_color.h **** };
  56:c:\projects\paindrain\arduinolcd\test\pain drain\libraries\lvgl\src\misc\lv_color.h **** 
  57:c:\projects\paindrain\arduinolcd\test\pain drain\libraries\lvgl\src\misc\lv_color.h **** #define LV_OPA_MIN 2    /*Opacities below this will be transparent*/
  58:c:\projects\paindrain\arduinolcd\test\pain drain\libraries\lvgl\src\misc\lv_color.h **** #define LV_OPA_MAX 253  /*Opacities above this will fully cover*/
  59:c:\projects\paindrain\arduinolcd\test\pain drain\libraries\lvgl\src\misc\lv_color.h **** 
  60:c:\projects\paindrain\arduinolcd\test\pain drain\libraries\lvgl\src\misc\lv_color.h **** #if LV_COLOR_DEPTH == 1
  61:c:\projects\paindrain\arduinolcd\test\pain drain\libraries\lvgl\src\misc\lv_color.h **** #define LV_COLOR_SIZE 8
  62:c:\projects\paindrain\arduinolcd\test\pain drain\libraries\lvgl\src\misc\lv_color.h **** #elif LV_COLOR_DEPTH == 8
  63:c:\projects\paindrain\arduinolcd\test\pain drain\libraries\lvgl\src\misc\lv_color.h **** #define LV_COLOR_SIZE 8
  64:c:\projects\paindrain\arduinolcd\test\pain drain\libraries\lvgl\src\misc\lv_color.h **** #elif LV_COLOR_DEPTH == 16
  65:c:\projects\paindrain\arduinolcd\test\pain drain\libraries\lvgl\src\misc\lv_color.h **** #define LV_COLOR_SIZE 16
  66:c:\projects\paindrain\arduinolcd\test\pain drain\libraries\lvgl\src\misc\lv_color.h **** #elif LV_COLOR_DEPTH == 32
  67:c:\projects\paindrain\arduinolcd\test\pain drain\libraries\lvgl\src\misc\lv_color.h **** #define LV_COLOR_SIZE 32
  68:c:\projects\paindrain\arduinolcd\test\pain drain\libraries\lvgl\src\misc\lv_color.h **** #else
  69:c:\projects\paindrain\arduinolcd\test\pain drain\libraries\lvgl\src\misc\lv_color.h **** #error "Invalid LV_COLOR_DEPTH in lv_conf.h! Set it to 1, 8, 16 or 32!"
  70:c:\projects\paindrain\arduinolcd\test\pain drain\libraries\lvgl\src\misc\lv_color.h **** #endif
  71:c:\projects\paindrain\arduinolcd\test\pain drain\libraries\lvgl\src\misc\lv_color.h **** 
  72:c:\projects\paindrain\arduinolcd\test\pain drain\libraries\lvgl\src\misc\lv_color.h **** #if defined(__cplusplus) && !defined(_LV_COLOR_HAS_MODERN_CPP)
ARM GAS  C:\Users\haske\AppData\Local\Temp\ccESumnB.s 			page 26


  73:c:\projects\paindrain\arduinolcd\test\pain drain\libraries\lvgl\src\misc\lv_color.h **** /**
  74:c:\projects\paindrain\arduinolcd\test\pain drain\libraries\lvgl\src\misc\lv_color.h **** * MSVC compiler's definition of the __cplusplus indicating 199711L regardless to C++ standard versi
  75:c:\projects\paindrain\arduinolcd\test\pain drain\libraries\lvgl\src\misc\lv_color.h **** * see https://devblogs.microsoft.com/cppblog/msvc-now-correctly-reports-cplusplus
  76:c:\projects\paindrain\arduinolcd\test\pain drain\libraries\lvgl\src\misc\lv_color.h **** * so we use _MSC_VER macro instead of __cplusplus
  77:c:\projects\paindrain\arduinolcd\test\pain drain\libraries\lvgl\src\misc\lv_color.h **** */
  78:c:\projects\paindrain\arduinolcd\test\pain drain\libraries\lvgl\src\misc\lv_color.h **** #ifdef _MSC_VER
  79:c:\projects\paindrain\arduinolcd\test\pain drain\libraries\lvgl\src\misc\lv_color.h **** #if _MSC_VER >= 1900 /*Visual Studio 2015*/
  80:c:\projects\paindrain\arduinolcd\test\pain drain\libraries\lvgl\src\misc\lv_color.h **** #define _LV_COLOR_HAS_MODERN_CPP 1
  81:c:\projects\paindrain\arduinolcd\test\pain drain\libraries\lvgl\src\misc\lv_color.h **** #endif
  82:c:\projects\paindrain\arduinolcd\test\pain drain\libraries\lvgl\src\misc\lv_color.h **** #else
  83:c:\projects\paindrain\arduinolcd\test\pain drain\libraries\lvgl\src\misc\lv_color.h **** #if __cplusplus >= 201103L
  84:c:\projects\paindrain\arduinolcd\test\pain drain\libraries\lvgl\src\misc\lv_color.h **** #define _LV_COLOR_HAS_MODERN_CPP 1
  85:c:\projects\paindrain\arduinolcd\test\pain drain\libraries\lvgl\src\misc\lv_color.h **** #endif
  86:c:\projects\paindrain\arduinolcd\test\pain drain\libraries\lvgl\src\misc\lv_color.h **** #endif
  87:c:\projects\paindrain\arduinolcd\test\pain drain\libraries\lvgl\src\misc\lv_color.h **** #endif /*__cplusplus*/
  88:c:\projects\paindrain\arduinolcd\test\pain drain\libraries\lvgl\src\misc\lv_color.h **** 
  89:c:\projects\paindrain\arduinolcd\test\pain drain\libraries\lvgl\src\misc\lv_color.h **** #ifndef _LV_COLOR_HAS_MODERN_CPP
  90:c:\projects\paindrain\arduinolcd\test\pain drain\libraries\lvgl\src\misc\lv_color.h **** #define _LV_COLOR_HAS_MODERN_CPP 0
  91:c:\projects\paindrain\arduinolcd\test\pain drain\libraries\lvgl\src\misc\lv_color.h **** #endif
  92:c:\projects\paindrain\arduinolcd\test\pain drain\libraries\lvgl\src\misc\lv_color.h **** 
  93:c:\projects\paindrain\arduinolcd\test\pain drain\libraries\lvgl\src\misc\lv_color.h **** #if _LV_COLOR_HAS_MODERN_CPP
  94:c:\projects\paindrain\arduinolcd\test\pain drain\libraries\lvgl\src\misc\lv_color.h **** /*Fix msvc compiler error C4576 inside C++ code*/
  95:c:\projects\paindrain\arduinolcd\test\pain drain\libraries\lvgl\src\misc\lv_color.h **** #define _LV_COLOR_MAKE_TYPE_HELPER lv_color_t
  96:c:\projects\paindrain\arduinolcd\test\pain drain\libraries\lvgl\src\misc\lv_color.h **** #else
  97:c:\projects\paindrain\arduinolcd\test\pain drain\libraries\lvgl\src\misc\lv_color.h **** #define _LV_COLOR_MAKE_TYPE_HELPER (lv_color_t)
  98:c:\projects\paindrain\arduinolcd\test\pain drain\libraries\lvgl\src\misc\lv_color.h **** #endif
  99:c:\projects\paindrain\arduinolcd\test\pain drain\libraries\lvgl\src\misc\lv_color.h **** 
 100:c:\projects\paindrain\arduinolcd\test\pain drain\libraries\lvgl\src\misc\lv_color.h **** /*---------------------------------------
 101:c:\projects\paindrain\arduinolcd\test\pain drain\libraries\lvgl\src\misc\lv_color.h ****  * Macros for all existing color depths
 102:c:\projects\paindrain\arduinolcd\test\pain drain\libraries\lvgl\src\misc\lv_color.h ****  * to set/get values of the color channels
 103:c:\projects\paindrain\arduinolcd\test\pain drain\libraries\lvgl\src\misc\lv_color.h ****  *------------------------------------------*/
 104:c:\projects\paindrain\arduinolcd\test\pain drain\libraries\lvgl\src\misc\lv_color.h **** # define LV_COLOR_SET_R1(c, v) (c).ch.red = (uint8_t)((v) & 0x1)
 105:c:\projects\paindrain\arduinolcd\test\pain drain\libraries\lvgl\src\misc\lv_color.h **** # define LV_COLOR_SET_G1(c, v) (c).ch.green = (uint8_t)((v) & 0x1)
 106:c:\projects\paindrain\arduinolcd\test\pain drain\libraries\lvgl\src\misc\lv_color.h **** # define LV_COLOR_SET_B1(c, v) (c).ch.blue = (uint8_t)((v) & 0x1)
 107:c:\projects\paindrain\arduinolcd\test\pain drain\libraries\lvgl\src\misc\lv_color.h **** # define LV_COLOR_SET_A1(c, v) do {} while(0)
 108:c:\projects\paindrain\arduinolcd\test\pain drain\libraries\lvgl\src\misc\lv_color.h **** 
 109:c:\projects\paindrain\arduinolcd\test\pain drain\libraries\lvgl\src\misc\lv_color.h **** # define LV_COLOR_GET_R1(c) (c).ch.red
 110:c:\projects\paindrain\arduinolcd\test\pain drain\libraries\lvgl\src\misc\lv_color.h **** # define LV_COLOR_GET_G1(c) (c).ch.green
 111:c:\projects\paindrain\arduinolcd\test\pain drain\libraries\lvgl\src\misc\lv_color.h **** # define LV_COLOR_GET_B1(c) (c).ch.blue
 112:c:\projects\paindrain\arduinolcd\test\pain drain\libraries\lvgl\src\misc\lv_color.h **** # define LV_COLOR_GET_A1(c) 0xFF
 113:c:\projects\paindrain\arduinolcd\test\pain drain\libraries\lvgl\src\misc\lv_color.h **** 
 114:c:\projects\paindrain\arduinolcd\test\pain drain\libraries\lvgl\src\misc\lv_color.h **** # define _LV_COLOR_ZERO_INITIALIZER1 {0x00}
 115:c:\projects\paindrain\arduinolcd\test\pain drain\libraries\lvgl\src\misc\lv_color.h **** # define LV_COLOR_MAKE1(r8, g8, b8)  {(uint8_t)((b8 >> 7) | (g8 >> 7) | (r8 >> 7))}
 116:c:\projects\paindrain\arduinolcd\test\pain drain\libraries\lvgl\src\misc\lv_color.h **** 
 117:c:\projects\paindrain\arduinolcd\test\pain drain\libraries\lvgl\src\misc\lv_color.h **** # define LV_COLOR_SET_R8(c, v) (c).ch.red = (uint8_t)((v) & 0x7U)
 118:c:\projects\paindrain\arduinolcd\test\pain drain\libraries\lvgl\src\misc\lv_color.h **** # define LV_COLOR_SET_G8(c, v) (c).ch.green = (uint8_t)((v) & 0x7U)
 119:c:\projects\paindrain\arduinolcd\test\pain drain\libraries\lvgl\src\misc\lv_color.h **** # define LV_COLOR_SET_B8(c, v) (c).ch.blue = (uint8_t)((v) & 0x3U)
 120:c:\projects\paindrain\arduinolcd\test\pain drain\libraries\lvgl\src\misc\lv_color.h **** # define LV_COLOR_SET_A8(c, v) do {} while(0)
 121:c:\projects\paindrain\arduinolcd\test\pain drain\libraries\lvgl\src\misc\lv_color.h **** 
 122:c:\projects\paindrain\arduinolcd\test\pain drain\libraries\lvgl\src\misc\lv_color.h **** # define LV_COLOR_GET_R8(c) (c).ch.red
 123:c:\projects\paindrain\arduinolcd\test\pain drain\libraries\lvgl\src\misc\lv_color.h **** # define LV_COLOR_GET_G8(c) (c).ch.green
 124:c:\projects\paindrain\arduinolcd\test\pain drain\libraries\lvgl\src\misc\lv_color.h **** # define LV_COLOR_GET_B8(c) (c).ch.blue
 125:c:\projects\paindrain\arduinolcd\test\pain drain\libraries\lvgl\src\misc\lv_color.h **** # define LV_COLOR_GET_A8(c) 0xFF
 126:c:\projects\paindrain\arduinolcd\test\pain drain\libraries\lvgl\src\misc\lv_color.h **** 
 127:c:\projects\paindrain\arduinolcd\test\pain drain\libraries\lvgl\src\misc\lv_color.h **** # define _LV_COLOR_ZERO_INITIALIZER8 {{0x00, 0x00, 0x00}}
 128:c:\projects\paindrain\arduinolcd\test\pain drain\libraries\lvgl\src\misc\lv_color.h **** # define LV_COLOR_MAKE8(r8, g8, b8) {{(uint8_t)((b8 >> 6) & 0x3U), (uint8_t)((g8 >> 5) & 0x7U), (ui
 129:c:\projects\paindrain\arduinolcd\test\pain drain\libraries\lvgl\src\misc\lv_color.h **** 
ARM GAS  C:\Users\haske\AppData\Local\Temp\ccESumnB.s 			page 27


 130:c:\projects\paindrain\arduinolcd\test\pain drain\libraries\lvgl\src\misc\lv_color.h **** # define LV_COLOR_SET_R16(c, v) (c).ch.red = (uint8_t)((v) & 0x1FU)
 131:c:\projects\paindrain\arduinolcd\test\pain drain\libraries\lvgl\src\misc\lv_color.h **** #if LV_COLOR_16_SWAP == 0
 132:c:\projects\paindrain\arduinolcd\test\pain drain\libraries\lvgl\src\misc\lv_color.h **** # define LV_COLOR_SET_G16(c, v) (c).ch.green = (uint8_t)((v) & 0x3FU)
 133:c:\projects\paindrain\arduinolcd\test\pain drain\libraries\lvgl\src\misc\lv_color.h **** #else
 134:c:\projects\paindrain\arduinolcd\test\pain drain\libraries\lvgl\src\misc\lv_color.h **** # define LV_COLOR_SET_G16(c, v) {(c).ch.green_h = (uint8_t)(((v) >> 3) & 0x7); (c).ch.green_l = (ui
 135:c:\projects\paindrain\arduinolcd\test\pain drain\libraries\lvgl\src\misc\lv_color.h **** #endif
 136:c:\projects\paindrain\arduinolcd\test\pain drain\libraries\lvgl\src\misc\lv_color.h **** # define LV_COLOR_SET_B16(c, v) (c).ch.blue = (uint8_t)((v) & 0x1FU)
 137:c:\projects\paindrain\arduinolcd\test\pain drain\libraries\lvgl\src\misc\lv_color.h **** # define LV_COLOR_SET_A16(c, v) do {} while(0)
 138:c:\projects\paindrain\arduinolcd\test\pain drain\libraries\lvgl\src\misc\lv_color.h **** 
 139:c:\projects\paindrain\arduinolcd\test\pain drain\libraries\lvgl\src\misc\lv_color.h **** # define LV_COLOR_GET_R16(c) (c).ch.red
 140:c:\projects\paindrain\arduinolcd\test\pain drain\libraries\lvgl\src\misc\lv_color.h **** #if LV_COLOR_16_SWAP == 0
 141:c:\projects\paindrain\arduinolcd\test\pain drain\libraries\lvgl\src\misc\lv_color.h **** # define LV_COLOR_GET_G16(c) (c).ch.green
 142:c:\projects\paindrain\arduinolcd\test\pain drain\libraries\lvgl\src\misc\lv_color.h **** #else
 143:c:\projects\paindrain\arduinolcd\test\pain drain\libraries\lvgl\src\misc\lv_color.h **** # define LV_COLOR_GET_G16(c) (((c).ch.green_h << 3) + (c).ch.green_l)
 144:c:\projects\paindrain\arduinolcd\test\pain drain\libraries\lvgl\src\misc\lv_color.h **** #endif
 145:c:\projects\paindrain\arduinolcd\test\pain drain\libraries\lvgl\src\misc\lv_color.h **** # define LV_COLOR_GET_B16(c) (c).ch.blue
 146:c:\projects\paindrain\arduinolcd\test\pain drain\libraries\lvgl\src\misc\lv_color.h **** # define LV_COLOR_GET_A16(c) 0xFF
 147:c:\projects\paindrain\arduinolcd\test\pain drain\libraries\lvgl\src\misc\lv_color.h **** 
 148:c:\projects\paindrain\arduinolcd\test\pain drain\libraries\lvgl\src\misc\lv_color.h **** #if LV_COLOR_16_SWAP == 0
 149:c:\projects\paindrain\arduinolcd\test\pain drain\libraries\lvgl\src\misc\lv_color.h **** # define _LV_COLOR_ZERO_INITIALIZER16  {{0x00, 0x00, 0x00}}
 150:c:\projects\paindrain\arduinolcd\test\pain drain\libraries\lvgl\src\misc\lv_color.h **** # define LV_COLOR_MAKE16(r8, g8, b8) {{(uint8_t)((b8 >> 3) & 0x1FU), (uint8_t)((g8 >> 2) & 0x3FU), 
 151:c:\projects\paindrain\arduinolcd\test\pain drain\libraries\lvgl\src\misc\lv_color.h **** #else
 152:c:\projects\paindrain\arduinolcd\test\pain drain\libraries\lvgl\src\misc\lv_color.h **** # define _LV_COLOR_ZERO_INITIALIZER16 {{0x00, 0x00, 0x00, 0x00}}
 153:c:\projects\paindrain\arduinolcd\test\pain drain\libraries\lvgl\src\misc\lv_color.h **** # define LV_COLOR_MAKE16(r8, g8, b8) {{(uint8_t)((g8 >> 5) & 0x7U), (uint8_t)((r8 >> 3) & 0x1FU), (
 154:c:\projects\paindrain\arduinolcd\test\pain drain\libraries\lvgl\src\misc\lv_color.h **** #endif
 155:c:\projects\paindrain\arduinolcd\test\pain drain\libraries\lvgl\src\misc\lv_color.h **** 
 156:c:\projects\paindrain\arduinolcd\test\pain drain\libraries\lvgl\src\misc\lv_color.h **** # define LV_COLOR_SET_R32(c, v) (c).ch.red = (uint8_t)((v) & 0xFF)
 157:c:\projects\paindrain\arduinolcd\test\pain drain\libraries\lvgl\src\misc\lv_color.h **** # define LV_COLOR_SET_G32(c, v) (c).ch.green = (uint8_t)((v) & 0xFF)
 158:c:\projects\paindrain\arduinolcd\test\pain drain\libraries\lvgl\src\misc\lv_color.h **** # define LV_COLOR_SET_B32(c, v) (c).ch.blue = (uint8_t)((v) & 0xFF)
 159:c:\projects\paindrain\arduinolcd\test\pain drain\libraries\lvgl\src\misc\lv_color.h **** # define LV_COLOR_SET_A32(c, v) (c).ch.alpha = (uint8_t)((v) & 0xFF)
 160:c:\projects\paindrain\arduinolcd\test\pain drain\libraries\lvgl\src\misc\lv_color.h **** 
 161:c:\projects\paindrain\arduinolcd\test\pain drain\libraries\lvgl\src\misc\lv_color.h **** # define LV_COLOR_GET_R32(c) (c).ch.red
 162:c:\projects\paindrain\arduinolcd\test\pain drain\libraries\lvgl\src\misc\lv_color.h **** # define LV_COLOR_GET_G32(c) (c).ch.green
 163:c:\projects\paindrain\arduinolcd\test\pain drain\libraries\lvgl\src\misc\lv_color.h **** # define LV_COLOR_GET_B32(c) (c).ch.blue
 164:c:\projects\paindrain\arduinolcd\test\pain drain\libraries\lvgl\src\misc\lv_color.h **** # define LV_COLOR_GET_A32(c) (c).ch.alpha
 165:c:\projects\paindrain\arduinolcd\test\pain drain\libraries\lvgl\src\misc\lv_color.h **** 
 166:c:\projects\paindrain\arduinolcd\test\pain drain\libraries\lvgl\src\misc\lv_color.h **** # define _LV_COLOR_ZERO_INITIALIZER32  {{0x00, 0x00, 0x00, 0x00}}
 167:c:\projects\paindrain\arduinolcd\test\pain drain\libraries\lvgl\src\misc\lv_color.h **** # define LV_COLOR_MAKE32(r8, g8, b8) {{b8, g8, r8, 0xff}} /*Fix 0xff alpha*/
 168:c:\projects\paindrain\arduinolcd\test\pain drain\libraries\lvgl\src\misc\lv_color.h **** 
 169:c:\projects\paindrain\arduinolcd\test\pain drain\libraries\lvgl\src\misc\lv_color.h **** /*---------------------------------------
 170:c:\projects\paindrain\arduinolcd\test\pain drain\libraries\lvgl\src\misc\lv_color.h ****  * Macros for the current color depth
 171:c:\projects\paindrain\arduinolcd\test\pain drain\libraries\lvgl\src\misc\lv_color.h ****  * to set/get values of the color channels
 172:c:\projects\paindrain\arduinolcd\test\pain drain\libraries\lvgl\src\misc\lv_color.h ****  *------------------------------------------*/
 173:c:\projects\paindrain\arduinolcd\test\pain drain\libraries\lvgl\src\misc\lv_color.h **** #define LV_COLOR_SET_R(c, v) LV_CONCAT(LV_COLOR_SET_R, LV_COLOR_DEPTH)(c, v)
 174:c:\projects\paindrain\arduinolcd\test\pain drain\libraries\lvgl\src\misc\lv_color.h **** #define LV_COLOR_SET_G(c, v) LV_CONCAT(LV_COLOR_SET_G, LV_COLOR_DEPTH)(c, v)
 175:c:\projects\paindrain\arduinolcd\test\pain drain\libraries\lvgl\src\misc\lv_color.h **** #define LV_COLOR_SET_B(c, v) LV_CONCAT(LV_COLOR_SET_B, LV_COLOR_DEPTH)(c, v)
 176:c:\projects\paindrain\arduinolcd\test\pain drain\libraries\lvgl\src\misc\lv_color.h **** #define LV_COLOR_SET_A(c, v) LV_CONCAT(LV_COLOR_SET_A, LV_COLOR_DEPTH)(c, v)
 177:c:\projects\paindrain\arduinolcd\test\pain drain\libraries\lvgl\src\misc\lv_color.h **** 
 178:c:\projects\paindrain\arduinolcd\test\pain drain\libraries\lvgl\src\misc\lv_color.h **** #define LV_COLOR_GET_R(c) LV_CONCAT(LV_COLOR_GET_R, LV_COLOR_DEPTH)(c)
 179:c:\projects\paindrain\arduinolcd\test\pain drain\libraries\lvgl\src\misc\lv_color.h **** #define LV_COLOR_GET_G(c) LV_CONCAT(LV_COLOR_GET_G, LV_COLOR_DEPTH)(c)
 180:c:\projects\paindrain\arduinolcd\test\pain drain\libraries\lvgl\src\misc\lv_color.h **** #define LV_COLOR_GET_B(c) LV_CONCAT(LV_COLOR_GET_B, LV_COLOR_DEPTH)(c)
 181:c:\projects\paindrain\arduinolcd\test\pain drain\libraries\lvgl\src\misc\lv_color.h **** #define LV_COLOR_GET_A(c) LV_CONCAT(LV_COLOR_GET_A, LV_COLOR_DEPTH)(c)
 182:c:\projects\paindrain\arduinolcd\test\pain drain\libraries\lvgl\src\misc\lv_color.h **** 
 183:c:\projects\paindrain\arduinolcd\test\pain drain\libraries\lvgl\src\misc\lv_color.h **** #define _LV_COLOR_ZERO_INITIALIZER LV_CONCAT(_LV_COLOR_ZERO_INITIALIZER, LV_COLOR_DEPTH)
 184:c:\projects\paindrain\arduinolcd\test\pain drain\libraries\lvgl\src\misc\lv_color.h **** #define LV_COLOR_MAKE(r8, g8, b8) LV_CONCAT(LV_COLOR_MAKE, LV_COLOR_DEPTH)(r8, g8, b8)
 185:c:\projects\paindrain\arduinolcd\test\pain drain\libraries\lvgl\src\misc\lv_color.h **** 
 186:c:\projects\paindrain\arduinolcd\test\pain drain\libraries\lvgl\src\misc\lv_color.h **** /**********************
ARM GAS  C:\Users\haske\AppData\Local\Temp\ccESumnB.s 			page 28


 187:c:\projects\paindrain\arduinolcd\test\pain drain\libraries\lvgl\src\misc\lv_color.h ****  *      TYPEDEFS
 188:c:\projects\paindrain\arduinolcd\test\pain drain\libraries\lvgl\src\misc\lv_color.h ****  **********************/
 189:c:\projects\paindrain\arduinolcd\test\pain drain\libraries\lvgl\src\misc\lv_color.h **** 
 190:c:\projects\paindrain\arduinolcd\test\pain drain\libraries\lvgl\src\misc\lv_color.h **** typedef union {
 191:c:\projects\paindrain\arduinolcd\test\pain drain\libraries\lvgl\src\misc\lv_color.h ****     uint8_t full; /*must be declared first to set all bits of byte via initializer list*/
 192:c:\projects\paindrain\arduinolcd\test\pain drain\libraries\lvgl\src\misc\lv_color.h ****     union {
 193:c:\projects\paindrain\arduinolcd\test\pain drain\libraries\lvgl\src\misc\lv_color.h ****         uint8_t blue : 1;
 194:c:\projects\paindrain\arduinolcd\test\pain drain\libraries\lvgl\src\misc\lv_color.h ****         uint8_t green : 1;
 195:c:\projects\paindrain\arduinolcd\test\pain drain\libraries\lvgl\src\misc\lv_color.h ****         uint8_t red : 1;
 196:c:\projects\paindrain\arduinolcd\test\pain drain\libraries\lvgl\src\misc\lv_color.h ****     } ch;
 197:c:\projects\paindrain\arduinolcd\test\pain drain\libraries\lvgl\src\misc\lv_color.h **** } lv_color1_t;
 198:c:\projects\paindrain\arduinolcd\test\pain drain\libraries\lvgl\src\misc\lv_color.h **** 
 199:c:\projects\paindrain\arduinolcd\test\pain drain\libraries\lvgl\src\misc\lv_color.h **** typedef union {
 200:c:\projects\paindrain\arduinolcd\test\pain drain\libraries\lvgl\src\misc\lv_color.h ****     struct {
 201:c:\projects\paindrain\arduinolcd\test\pain drain\libraries\lvgl\src\misc\lv_color.h ****         uint8_t blue : 2;
 202:c:\projects\paindrain\arduinolcd\test\pain drain\libraries\lvgl\src\misc\lv_color.h ****         uint8_t green : 3;
 203:c:\projects\paindrain\arduinolcd\test\pain drain\libraries\lvgl\src\misc\lv_color.h ****         uint8_t red : 3;
 204:c:\projects\paindrain\arduinolcd\test\pain drain\libraries\lvgl\src\misc\lv_color.h ****     } ch;
 205:c:\projects\paindrain\arduinolcd\test\pain drain\libraries\lvgl\src\misc\lv_color.h ****     uint8_t full;
 206:c:\projects\paindrain\arduinolcd\test\pain drain\libraries\lvgl\src\misc\lv_color.h **** } lv_color8_t;
 207:c:\projects\paindrain\arduinolcd\test\pain drain\libraries\lvgl\src\misc\lv_color.h **** 
 208:c:\projects\paindrain\arduinolcd\test\pain drain\libraries\lvgl\src\misc\lv_color.h **** typedef union {
 209:c:\projects\paindrain\arduinolcd\test\pain drain\libraries\lvgl\src\misc\lv_color.h ****     struct {
 210:c:\projects\paindrain\arduinolcd\test\pain drain\libraries\lvgl\src\misc\lv_color.h **** #if LV_COLOR_16_SWAP == 0
 211:c:\projects\paindrain\arduinolcd\test\pain drain\libraries\lvgl\src\misc\lv_color.h ****         uint16_t blue : 5;
 212:c:\projects\paindrain\arduinolcd\test\pain drain\libraries\lvgl\src\misc\lv_color.h ****         uint16_t green : 6;
 213:c:\projects\paindrain\arduinolcd\test\pain drain\libraries\lvgl\src\misc\lv_color.h ****         uint16_t red : 5;
 214:c:\projects\paindrain\arduinolcd\test\pain drain\libraries\lvgl\src\misc\lv_color.h **** #else
 215:c:\projects\paindrain\arduinolcd\test\pain drain\libraries\lvgl\src\misc\lv_color.h ****         uint16_t green_h : 3;
 216:c:\projects\paindrain\arduinolcd\test\pain drain\libraries\lvgl\src\misc\lv_color.h ****         uint16_t red : 5;
 217:c:\projects\paindrain\arduinolcd\test\pain drain\libraries\lvgl\src\misc\lv_color.h ****         uint16_t blue : 5;
 218:c:\projects\paindrain\arduinolcd\test\pain drain\libraries\lvgl\src\misc\lv_color.h ****         uint16_t green_l : 3;
 219:c:\projects\paindrain\arduinolcd\test\pain drain\libraries\lvgl\src\misc\lv_color.h **** #endif
 220:c:\projects\paindrain\arduinolcd\test\pain drain\libraries\lvgl\src\misc\lv_color.h ****     } ch;
 221:c:\projects\paindrain\arduinolcd\test\pain drain\libraries\lvgl\src\misc\lv_color.h ****     uint16_t full;
 222:c:\projects\paindrain\arduinolcd\test\pain drain\libraries\lvgl\src\misc\lv_color.h **** } lv_color16_t;
 223:c:\projects\paindrain\arduinolcd\test\pain drain\libraries\lvgl\src\misc\lv_color.h **** 
 224:c:\projects\paindrain\arduinolcd\test\pain drain\libraries\lvgl\src\misc\lv_color.h **** typedef union {
 225:c:\projects\paindrain\arduinolcd\test\pain drain\libraries\lvgl\src\misc\lv_color.h ****     struct {
 226:c:\projects\paindrain\arduinolcd\test\pain drain\libraries\lvgl\src\misc\lv_color.h ****         uint8_t blue;
 227:c:\projects\paindrain\arduinolcd\test\pain drain\libraries\lvgl\src\misc\lv_color.h ****         uint8_t green;
 228:c:\projects\paindrain\arduinolcd\test\pain drain\libraries\lvgl\src\misc\lv_color.h ****         uint8_t red;
 229:c:\projects\paindrain\arduinolcd\test\pain drain\libraries\lvgl\src\misc\lv_color.h ****         uint8_t alpha;
 230:c:\projects\paindrain\arduinolcd\test\pain drain\libraries\lvgl\src\misc\lv_color.h ****     } ch;
 231:c:\projects\paindrain\arduinolcd\test\pain drain\libraries\lvgl\src\misc\lv_color.h ****     uint32_t full;
 232:c:\projects\paindrain\arduinolcd\test\pain drain\libraries\lvgl\src\misc\lv_color.h **** } lv_color32_t;
 233:c:\projects\paindrain\arduinolcd\test\pain drain\libraries\lvgl\src\misc\lv_color.h **** 
 234:c:\projects\paindrain\arduinolcd\test\pain drain\libraries\lvgl\src\misc\lv_color.h **** typedef LV_CONCAT3(uint, LV_COLOR_SIZE, _t) lv_color_int_t;
 235:c:\projects\paindrain\arduinolcd\test\pain drain\libraries\lvgl\src\misc\lv_color.h **** typedef LV_CONCAT3(lv_color, LV_COLOR_DEPTH, _t) lv_color_t;
 236:c:\projects\paindrain\arduinolcd\test\pain drain\libraries\lvgl\src\misc\lv_color.h **** 
 237:c:\projects\paindrain\arduinolcd\test\pain drain\libraries\lvgl\src\misc\lv_color.h **** typedef struct {
 238:c:\projects\paindrain\arduinolcd\test\pain drain\libraries\lvgl\src\misc\lv_color.h ****     uint16_t h;
 239:c:\projects\paindrain\arduinolcd\test\pain drain\libraries\lvgl\src\misc\lv_color.h ****     uint8_t s;
 240:c:\projects\paindrain\arduinolcd\test\pain drain\libraries\lvgl\src\misc\lv_color.h ****     uint8_t v;
 241:c:\projects\paindrain\arduinolcd\test\pain drain\libraries\lvgl\src\misc\lv_color.h **** } lv_color_hsv_t;
 242:c:\projects\paindrain\arduinolcd\test\pain drain\libraries\lvgl\src\misc\lv_color.h **** 
 243:c:\projects\paindrain\arduinolcd\test\pain drain\libraries\lvgl\src\misc\lv_color.h **** //! @cond Doxygen_Suppress
ARM GAS  C:\Users\haske\AppData\Local\Temp\ccESumnB.s 			page 29


 244:c:\projects\paindrain\arduinolcd\test\pain drain\libraries\lvgl\src\misc\lv_color.h **** /*No idea where the guard is required but else throws warnings in the docs*/
 245:c:\projects\paindrain\arduinolcd\test\pain drain\libraries\lvgl\src\misc\lv_color.h **** typedef uint8_t lv_opa_t;
 246:c:\projects\paindrain\arduinolcd\test\pain drain\libraries\lvgl\src\misc\lv_color.h **** //! @endcond
 247:c:\projects\paindrain\arduinolcd\test\pain drain\libraries\lvgl\src\misc\lv_color.h **** 
 248:c:\projects\paindrain\arduinolcd\test\pain drain\libraries\lvgl\src\misc\lv_color.h **** struct _lv_color_filter_dsc_t;
 249:c:\projects\paindrain\arduinolcd\test\pain drain\libraries\lvgl\src\misc\lv_color.h **** 
 250:c:\projects\paindrain\arduinolcd\test\pain drain\libraries\lvgl\src\misc\lv_color.h **** typedef lv_color_t (*lv_color_filter_cb_t)(const struct _lv_color_filter_dsc_t *, lv_color_t, lv_op
 251:c:\projects\paindrain\arduinolcd\test\pain drain\libraries\lvgl\src\misc\lv_color.h **** 
 252:c:\projects\paindrain\arduinolcd\test\pain drain\libraries\lvgl\src\misc\lv_color.h **** typedef struct _lv_color_filter_dsc_t {
 253:c:\projects\paindrain\arduinolcd\test\pain drain\libraries\lvgl\src\misc\lv_color.h ****     lv_color_filter_cb_t filter_cb;
 254:c:\projects\paindrain\arduinolcd\test\pain drain\libraries\lvgl\src\misc\lv_color.h ****     void * user_data;
 255:c:\projects\paindrain\arduinolcd\test\pain drain\libraries\lvgl\src\misc\lv_color.h **** } lv_color_filter_dsc_t;
 256:c:\projects\paindrain\arduinolcd\test\pain drain\libraries\lvgl\src\misc\lv_color.h **** 
 257:c:\projects\paindrain\arduinolcd\test\pain drain\libraries\lvgl\src\misc\lv_color.h **** 
 258:c:\projects\paindrain\arduinolcd\test\pain drain\libraries\lvgl\src\misc\lv_color.h **** typedef enum {
 259:c:\projects\paindrain\arduinolcd\test\pain drain\libraries\lvgl\src\misc\lv_color.h ****     LV_PALETTE_RED,
 260:c:\projects\paindrain\arduinolcd\test\pain drain\libraries\lvgl\src\misc\lv_color.h ****     LV_PALETTE_PINK,
 261:c:\projects\paindrain\arduinolcd\test\pain drain\libraries\lvgl\src\misc\lv_color.h ****     LV_PALETTE_PURPLE,
 262:c:\projects\paindrain\arduinolcd\test\pain drain\libraries\lvgl\src\misc\lv_color.h ****     LV_PALETTE_DEEP_PURPLE,
 263:c:\projects\paindrain\arduinolcd\test\pain drain\libraries\lvgl\src\misc\lv_color.h ****     LV_PALETTE_INDIGO,
 264:c:\projects\paindrain\arduinolcd\test\pain drain\libraries\lvgl\src\misc\lv_color.h ****     LV_PALETTE_BLUE,
 265:c:\projects\paindrain\arduinolcd\test\pain drain\libraries\lvgl\src\misc\lv_color.h ****     LV_PALETTE_LIGHT_BLUE,
 266:c:\projects\paindrain\arduinolcd\test\pain drain\libraries\lvgl\src\misc\lv_color.h ****     LV_PALETTE_CYAN,
 267:c:\projects\paindrain\arduinolcd\test\pain drain\libraries\lvgl\src\misc\lv_color.h ****     LV_PALETTE_TEAL,
 268:c:\projects\paindrain\arduinolcd\test\pain drain\libraries\lvgl\src\misc\lv_color.h ****     LV_PALETTE_GREEN,
 269:c:\projects\paindrain\arduinolcd\test\pain drain\libraries\lvgl\src\misc\lv_color.h ****     LV_PALETTE_LIGHT_GREEN,
 270:c:\projects\paindrain\arduinolcd\test\pain drain\libraries\lvgl\src\misc\lv_color.h ****     LV_PALETTE_LIME,
 271:c:\projects\paindrain\arduinolcd\test\pain drain\libraries\lvgl\src\misc\lv_color.h ****     LV_PALETTE_YELLOW,
 272:c:\projects\paindrain\arduinolcd\test\pain drain\libraries\lvgl\src\misc\lv_color.h ****     LV_PALETTE_AMBER,
 273:c:\projects\paindrain\arduinolcd\test\pain drain\libraries\lvgl\src\misc\lv_color.h ****     LV_PALETTE_ORANGE,
 274:c:\projects\paindrain\arduinolcd\test\pain drain\libraries\lvgl\src\misc\lv_color.h ****     LV_PALETTE_DEEP_ORANGE,
 275:c:\projects\paindrain\arduinolcd\test\pain drain\libraries\lvgl\src\misc\lv_color.h ****     LV_PALETTE_BROWN,
 276:c:\projects\paindrain\arduinolcd\test\pain drain\libraries\lvgl\src\misc\lv_color.h ****     LV_PALETTE_BLUE_GREY,
 277:c:\projects\paindrain\arduinolcd\test\pain drain\libraries\lvgl\src\misc\lv_color.h ****     LV_PALETTE_GREY,
 278:c:\projects\paindrain\arduinolcd\test\pain drain\libraries\lvgl\src\misc\lv_color.h ****     _LV_PALETTE_LAST,
 279:c:\projects\paindrain\arduinolcd\test\pain drain\libraries\lvgl\src\misc\lv_color.h ****     LV_PALETTE_NONE = 0xff,
 280:c:\projects\paindrain\arduinolcd\test\pain drain\libraries\lvgl\src\misc\lv_color.h **** } lv_palette_t;
 281:c:\projects\paindrain\arduinolcd\test\pain drain\libraries\lvgl\src\misc\lv_color.h **** 
 282:c:\projects\paindrain\arduinolcd\test\pain drain\libraries\lvgl\src\misc\lv_color.h **** /**********************
 283:c:\projects\paindrain\arduinolcd\test\pain drain\libraries\lvgl\src\misc\lv_color.h ****  * GLOBAL PROTOTYPES
 284:c:\projects\paindrain\arduinolcd\test\pain drain\libraries\lvgl\src\misc\lv_color.h ****  **********************/
 285:c:\projects\paindrain\arduinolcd\test\pain drain\libraries\lvgl\src\misc\lv_color.h **** 
 286:c:\projects\paindrain\arduinolcd\test\pain drain\libraries\lvgl\src\misc\lv_color.h **** /*In color conversations:
 287:c:\projects\paindrain\arduinolcd\test\pain drain\libraries\lvgl\src\misc\lv_color.h ****  * - When converting to bigger color type the LSB weight of 1 LSB is calculated
 288:c:\projects\paindrain\arduinolcd\test\pain drain\libraries\lvgl\src\misc\lv_color.h ****  *   E.g. 16 bit Red has 5 bits
 289:c:\projects\paindrain\arduinolcd\test\pain drain\libraries\lvgl\src\misc\lv_color.h ****  *         8 bit Red has 3 bits
 290:c:\projects\paindrain\arduinolcd\test\pain drain\libraries\lvgl\src\misc\lv_color.h ****  *        ----------------------
 291:c:\projects\paindrain\arduinolcd\test\pain drain\libraries\lvgl\src\misc\lv_color.h ****  *        8 bit red LSB = (2^5 - 1) / (2^3 - 1) = 31 / 7 = 4
 292:c:\projects\paindrain\arduinolcd\test\pain drain\libraries\lvgl\src\misc\lv_color.h ****  *
 293:c:\projects\paindrain\arduinolcd\test\pain drain\libraries\lvgl\src\misc\lv_color.h ****  * - When calculating to smaller color type simply shift out the LSBs
 294:c:\projects\paindrain\arduinolcd\test\pain drain\libraries\lvgl\src\misc\lv_color.h ****  *   E.g.  8 bit Red has 3 bits
 295:c:\projects\paindrain\arduinolcd\test\pain drain\libraries\lvgl\src\misc\lv_color.h ****  *        16 bit Red has 5 bits
 296:c:\projects\paindrain\arduinolcd\test\pain drain\libraries\lvgl\src\misc\lv_color.h ****  *        ----------------------
 297:c:\projects\paindrain\arduinolcd\test\pain drain\libraries\lvgl\src\misc\lv_color.h ****  *         Shift right with 5 - 3 = 2
 298:c:\projects\paindrain\arduinolcd\test\pain drain\libraries\lvgl\src\misc\lv_color.h ****  */
 299:c:\projects\paindrain\arduinolcd\test\pain drain\libraries\lvgl\src\misc\lv_color.h **** static inline uint8_t lv_color_to1(lv_color_t color)
 300:c:\projects\paindrain\arduinolcd\test\pain drain\libraries\lvgl\src\misc\lv_color.h **** {
ARM GAS  C:\Users\haske\AppData\Local\Temp\ccESumnB.s 			page 30


 301:c:\projects\paindrain\arduinolcd\test\pain drain\libraries\lvgl\src\misc\lv_color.h **** #if LV_COLOR_DEPTH == 1
 302:c:\projects\paindrain\arduinolcd\test\pain drain\libraries\lvgl\src\misc\lv_color.h ****     return color.full;
 303:c:\projects\paindrain\arduinolcd\test\pain drain\libraries\lvgl\src\misc\lv_color.h **** #elif LV_COLOR_DEPTH == 8
 304:c:\projects\paindrain\arduinolcd\test\pain drain\libraries\lvgl\src\misc\lv_color.h ****     if((LV_COLOR_GET_R(color) & 0x4) || (LV_COLOR_GET_G(color) & 0x4) || (LV_COLOR_GET_B(color) & 0
 305:c:\projects\paindrain\arduinolcd\test\pain drain\libraries\lvgl\src\misc\lv_color.h ****         return 1;
 306:c:\projects\paindrain\arduinolcd\test\pain drain\libraries\lvgl\src\misc\lv_color.h ****     }
 307:c:\projects\paindrain\arduinolcd\test\pain drain\libraries\lvgl\src\misc\lv_color.h ****     else {
 308:c:\projects\paindrain\arduinolcd\test\pain drain\libraries\lvgl\src\misc\lv_color.h ****         return 0;
 309:c:\projects\paindrain\arduinolcd\test\pain drain\libraries\lvgl\src\misc\lv_color.h ****     }
 310:c:\projects\paindrain\arduinolcd\test\pain drain\libraries\lvgl\src\misc\lv_color.h **** #elif LV_COLOR_DEPTH == 16
 311:c:\projects\paindrain\arduinolcd\test\pain drain\libraries\lvgl\src\misc\lv_color.h ****     if((LV_COLOR_GET_R(color) & 0x10) || (LV_COLOR_GET_G(color) & 0x20) || (LV_COLOR_GET_B(color) &
 312:c:\projects\paindrain\arduinolcd\test\pain drain\libraries\lvgl\src\misc\lv_color.h ****         return 1;
 313:c:\projects\paindrain\arduinolcd\test\pain drain\libraries\lvgl\src\misc\lv_color.h ****     }
 314:c:\projects\paindrain\arduinolcd\test\pain drain\libraries\lvgl\src\misc\lv_color.h ****     else {
 315:c:\projects\paindrain\arduinolcd\test\pain drain\libraries\lvgl\src\misc\lv_color.h ****         return 0;
 316:c:\projects\paindrain\arduinolcd\test\pain drain\libraries\lvgl\src\misc\lv_color.h ****     }
 317:c:\projects\paindrain\arduinolcd\test\pain drain\libraries\lvgl\src\misc\lv_color.h **** #elif LV_COLOR_DEPTH == 32
 318:c:\projects\paindrain\arduinolcd\test\pain drain\libraries\lvgl\src\misc\lv_color.h ****     if((LV_COLOR_GET_R(color) & 0x80) || (LV_COLOR_GET_G(color) & 0x80) || (LV_COLOR_GET_B(color) &
 319:c:\projects\paindrain\arduinolcd\test\pain drain\libraries\lvgl\src\misc\lv_color.h ****         return 1;
 320:c:\projects\paindrain\arduinolcd\test\pain drain\libraries\lvgl\src\misc\lv_color.h ****     }
 321:c:\projects\paindrain\arduinolcd\test\pain drain\libraries\lvgl\src\misc\lv_color.h ****     else {
 322:c:\projects\paindrain\arduinolcd\test\pain drain\libraries\lvgl\src\misc\lv_color.h ****         return 0;
 323:c:\projects\paindrain\arduinolcd\test\pain drain\libraries\lvgl\src\misc\lv_color.h ****     }
 324:c:\projects\paindrain\arduinolcd\test\pain drain\libraries\lvgl\src\misc\lv_color.h **** #endif
 325:c:\projects\paindrain\arduinolcd\test\pain drain\libraries\lvgl\src\misc\lv_color.h **** }
 326:c:\projects\paindrain\arduinolcd\test\pain drain\libraries\lvgl\src\misc\lv_color.h **** 
 327:c:\projects\paindrain\arduinolcd\test\pain drain\libraries\lvgl\src\misc\lv_color.h **** static inline uint8_t lv_color_to8(lv_color_t color)
 328:c:\projects\paindrain\arduinolcd\test\pain drain\libraries\lvgl\src\misc\lv_color.h **** {
 329:c:\projects\paindrain\arduinolcd\test\pain drain\libraries\lvgl\src\misc\lv_color.h **** #if LV_COLOR_DEPTH == 1
 330:c:\projects\paindrain\arduinolcd\test\pain drain\libraries\lvgl\src\misc\lv_color.h ****     if(color.full == 0)
 331:c:\projects\paindrain\arduinolcd\test\pain drain\libraries\lvgl\src\misc\lv_color.h ****         return 0;
 332:c:\projects\paindrain\arduinolcd\test\pain drain\libraries\lvgl\src\misc\lv_color.h ****     else
 333:c:\projects\paindrain\arduinolcd\test\pain drain\libraries\lvgl\src\misc\lv_color.h ****         return 0xFF;
 334:c:\projects\paindrain\arduinolcd\test\pain drain\libraries\lvgl\src\misc\lv_color.h **** #elif LV_COLOR_DEPTH == 8
 335:c:\projects\paindrain\arduinolcd\test\pain drain\libraries\lvgl\src\misc\lv_color.h ****     return color.full;
 336:c:\projects\paindrain\arduinolcd\test\pain drain\libraries\lvgl\src\misc\lv_color.h **** #elif LV_COLOR_DEPTH == 16
 337:c:\projects\paindrain\arduinolcd\test\pain drain\libraries\lvgl\src\misc\lv_color.h ****     lv_color8_t ret;
 338:c:\projects\paindrain\arduinolcd\test\pain drain\libraries\lvgl\src\misc\lv_color.h ****     LV_COLOR_SET_R8(ret, LV_COLOR_GET_R(color) >> 2); /*5 - 3  = 2*/
 339:c:\projects\paindrain\arduinolcd\test\pain drain\libraries\lvgl\src\misc\lv_color.h ****     LV_COLOR_SET_G8(ret, LV_COLOR_GET_G(color) >> 3); /*6 - 3  = 3*/
 340:c:\projects\paindrain\arduinolcd\test\pain drain\libraries\lvgl\src\misc\lv_color.h ****     LV_COLOR_SET_B8(ret, LV_COLOR_GET_B(color) >> 3); /*5 - 2  = 3*/
 341:c:\projects\paindrain\arduinolcd\test\pain drain\libraries\lvgl\src\misc\lv_color.h ****     return ret.full;
 342:c:\projects\paindrain\arduinolcd\test\pain drain\libraries\lvgl\src\misc\lv_color.h **** #elif LV_COLOR_DEPTH == 32
 343:c:\projects\paindrain\arduinolcd\test\pain drain\libraries\lvgl\src\misc\lv_color.h ****     lv_color8_t ret;
 344:c:\projects\paindrain\arduinolcd\test\pain drain\libraries\lvgl\src\misc\lv_color.h ****     LV_COLOR_SET_R8(ret, LV_COLOR_GET_R(color) >> 5); /*8 - 3  = 5*/
 345:c:\projects\paindrain\arduinolcd\test\pain drain\libraries\lvgl\src\misc\lv_color.h ****     LV_COLOR_SET_G8(ret, LV_COLOR_GET_G(color) >> 5); /*8 - 3  = 5*/
 346:c:\projects\paindrain\arduinolcd\test\pain drain\libraries\lvgl\src\misc\lv_color.h ****     LV_COLOR_SET_B8(ret, LV_COLOR_GET_B(color) >> 6); /*8 - 2  = 6*/
 347:c:\projects\paindrain\arduinolcd\test\pain drain\libraries\lvgl\src\misc\lv_color.h ****     return ret.full;
 348:c:\projects\paindrain\arduinolcd\test\pain drain\libraries\lvgl\src\misc\lv_color.h **** #endif
 349:c:\projects\paindrain\arduinolcd\test\pain drain\libraries\lvgl\src\misc\lv_color.h **** }
 350:c:\projects\paindrain\arduinolcd\test\pain drain\libraries\lvgl\src\misc\lv_color.h **** 
 351:c:\projects\paindrain\arduinolcd\test\pain drain\libraries\lvgl\src\misc\lv_color.h **** static inline uint16_t lv_color_to16(lv_color_t color)
 352:c:\projects\paindrain\arduinolcd\test\pain drain\libraries\lvgl\src\misc\lv_color.h **** {
 353:c:\projects\paindrain\arduinolcd\test\pain drain\libraries\lvgl\src\misc\lv_color.h **** #if LV_COLOR_DEPTH == 1
 354:c:\projects\paindrain\arduinolcd\test\pain drain\libraries\lvgl\src\misc\lv_color.h ****     if(color.full == 0)
 355:c:\projects\paindrain\arduinolcd\test\pain drain\libraries\lvgl\src\misc\lv_color.h ****         return 0;
 356:c:\projects\paindrain\arduinolcd\test\pain drain\libraries\lvgl\src\misc\lv_color.h ****     else
 357:c:\projects\paindrain\arduinolcd\test\pain drain\libraries\lvgl\src\misc\lv_color.h ****         return 0xFFFF;
ARM GAS  C:\Users\haske\AppData\Local\Temp\ccESumnB.s 			page 31


 358:c:\projects\paindrain\arduinolcd\test\pain drain\libraries\lvgl\src\misc\lv_color.h **** #elif LV_COLOR_DEPTH == 8
 359:c:\projects\paindrain\arduinolcd\test\pain drain\libraries\lvgl\src\misc\lv_color.h ****     lv_color16_t ret;
 360:c:\projects\paindrain\arduinolcd\test\pain drain\libraries\lvgl\src\misc\lv_color.h ****     LV_COLOR_SET_R16(ret, LV_COLOR_GET_R(color) * 4);  /*(2^5 - 1)/(2^3 - 1) = 31/7 = 4*/
 361:c:\projects\paindrain\arduinolcd\test\pain drain\libraries\lvgl\src\misc\lv_color.h ****     LV_COLOR_SET_G16(ret, LV_COLOR_GET_G(color) * 9);  /*(2^6 - 1)/(2^3 - 1) = 63/7 = 9*/
 362:c:\projects\paindrain\arduinolcd\test\pain drain\libraries\lvgl\src\misc\lv_color.h ****     LV_COLOR_SET_B16(ret, LV_COLOR_GET_B(color) * 10); /*(2^5 - 1)/(2^2 - 1) = 31/3 = 10*/
 363:c:\projects\paindrain\arduinolcd\test\pain drain\libraries\lvgl\src\misc\lv_color.h ****     return ret.full;
 364:c:\projects\paindrain\arduinolcd\test\pain drain\libraries\lvgl\src\misc\lv_color.h **** #elif LV_COLOR_DEPTH == 16
 365:c:\projects\paindrain\arduinolcd\test\pain drain\libraries\lvgl\src\misc\lv_color.h ****     return color.full;
 366:c:\projects\paindrain\arduinolcd\test\pain drain\libraries\lvgl\src\misc\lv_color.h **** #elif LV_COLOR_DEPTH == 32
 367:c:\projects\paindrain\arduinolcd\test\pain drain\libraries\lvgl\src\misc\lv_color.h ****     lv_color16_t ret;
 368:c:\projects\paindrain\arduinolcd\test\pain drain\libraries\lvgl\src\misc\lv_color.h ****     LV_COLOR_SET_R16(ret, LV_COLOR_GET_R(color) >> 3); /*8 - 5  = 3*/
 369:c:\projects\paindrain\arduinolcd\test\pain drain\libraries\lvgl\src\misc\lv_color.h ****     LV_COLOR_SET_G16(ret, LV_COLOR_GET_G(color) >> 2); /*8 - 6  = 2*/
 370:c:\projects\paindrain\arduinolcd\test\pain drain\libraries\lvgl\src\misc\lv_color.h ****     LV_COLOR_SET_B16(ret, LV_COLOR_GET_B(color) >> 3); /*8 - 5  = 3*/
 371:c:\projects\paindrain\arduinolcd\test\pain drain\libraries\lvgl\src\misc\lv_color.h ****     return ret.full;
 372:c:\projects\paindrain\arduinolcd\test\pain drain\libraries\lvgl\src\misc\lv_color.h **** #endif
 373:c:\projects\paindrain\arduinolcd\test\pain drain\libraries\lvgl\src\misc\lv_color.h **** }
 374:c:\projects\paindrain\arduinolcd\test\pain drain\libraries\lvgl\src\misc\lv_color.h **** 
 375:c:\projects\paindrain\arduinolcd\test\pain drain\libraries\lvgl\src\misc\lv_color.h **** static inline uint32_t lv_color_to32(lv_color_t color)
 376:c:\projects\paindrain\arduinolcd\test\pain drain\libraries\lvgl\src\misc\lv_color.h **** {
 377:c:\projects\paindrain\arduinolcd\test\pain drain\libraries\lvgl\src\misc\lv_color.h **** #if LV_COLOR_DEPTH == 1
 378:c:\projects\paindrain\arduinolcd\test\pain drain\libraries\lvgl\src\misc\lv_color.h ****     if(color.full == 0)
 379:c:\projects\paindrain\arduinolcd\test\pain drain\libraries\lvgl\src\misc\lv_color.h ****         return 0xFF000000;
 380:c:\projects\paindrain\arduinolcd\test\pain drain\libraries\lvgl\src\misc\lv_color.h ****     else
 381:c:\projects\paindrain\arduinolcd\test\pain drain\libraries\lvgl\src\misc\lv_color.h ****         return 0xFFFFFFFF;
 382:c:\projects\paindrain\arduinolcd\test\pain drain\libraries\lvgl\src\misc\lv_color.h **** #elif LV_COLOR_DEPTH == 8
 383:c:\projects\paindrain\arduinolcd\test\pain drain\libraries\lvgl\src\misc\lv_color.h ****     lv_color32_t ret;
 384:c:\projects\paindrain\arduinolcd\test\pain drain\libraries\lvgl\src\misc\lv_color.h ****     LV_COLOR_SET_R32(ret, LV_COLOR_GET_R(color) * 36); /*(2^8 - 1)/(2^3 - 1) = 255/7 = 36*/
 385:c:\projects\paindrain\arduinolcd\test\pain drain\libraries\lvgl\src\misc\lv_color.h ****     LV_COLOR_SET_G32(ret, LV_COLOR_GET_G(color) * 36); /*(2^8 - 1)/(2^3 - 1) = 255/7 = 36*/
 386:c:\projects\paindrain\arduinolcd\test\pain drain\libraries\lvgl\src\misc\lv_color.h ****     LV_COLOR_SET_B32(ret, LV_COLOR_GET_B(color) * 85); /*(2^8 - 1)/(2^2 - 1) = 255/3 = 85*/
 387:c:\projects\paindrain\arduinolcd\test\pain drain\libraries\lvgl\src\misc\lv_color.h ****     LV_COLOR_SET_A32(ret, 0xFF);
 388:c:\projects\paindrain\arduinolcd\test\pain drain\libraries\lvgl\src\misc\lv_color.h ****     return ret.full;
 389:c:\projects\paindrain\arduinolcd\test\pain drain\libraries\lvgl\src\misc\lv_color.h **** #elif LV_COLOR_DEPTH == 16
 390:c:\projects\paindrain\arduinolcd\test\pain drain\libraries\lvgl\src\misc\lv_color.h ****     /**
 391:c:\projects\paindrain\arduinolcd\test\pain drain\libraries\lvgl\src\misc\lv_color.h ****      * The floating point math for conversion is:
 392:c:\projects\paindrain\arduinolcd\test\pain drain\libraries\lvgl\src\misc\lv_color.h ****      *  valueto = valuefrom * ( (2^bitsto - 1) / (float)(2^bitsfrom - 1) )
 393:c:\projects\paindrain\arduinolcd\test\pain drain\libraries\lvgl\src\misc\lv_color.h ****      * The faster integer math for conversion is:
 394:c:\projects\paindrain\arduinolcd\test\pain drain\libraries\lvgl\src\misc\lv_color.h ****      *  valueto = ( valuefrom * multiplier + adder ) >> divisor
 395:c:\projects\paindrain\arduinolcd\test\pain drain\libraries\lvgl\src\misc\lv_color.h ****      *   multiplier = FLOOR( ( (2^bitsto - 1) << divisor ) / (float)(2^bitsfrom - 1) )
 396:c:\projects\paindrain\arduinolcd\test\pain drain\libraries\lvgl\src\misc\lv_color.h ****      *
 397:c:\projects\paindrain\arduinolcd\test\pain drain\libraries\lvgl\src\misc\lv_color.h ****      * Find the first divisor where ( adder >> divisor ) <= 0
 398:c:\projects\paindrain\arduinolcd\test\pain drain\libraries\lvgl\src\misc\lv_color.h ****      *
 399:c:\projects\paindrain\arduinolcd\test\pain drain\libraries\lvgl\src\misc\lv_color.h ****      * 5-bit to 8-bit: ( 31 * multiplier + adder ) >> divisor = 255
 400:c:\projects\paindrain\arduinolcd\test\pain drain\libraries\lvgl\src\misc\lv_color.h ****      * divisor  multiplier  adder  min (0)  max (31)
 401:c:\projects\paindrain\arduinolcd\test\pain drain\libraries\lvgl\src\misc\lv_color.h ****      *       0           8      7        7       255
 402:c:\projects\paindrain\arduinolcd\test\pain drain\libraries\lvgl\src\misc\lv_color.h ****      *       1          16     14        7       255
 403:c:\projects\paindrain\arduinolcd\test\pain drain\libraries\lvgl\src\misc\lv_color.h ****      *       2          32     28        7       255
 404:c:\projects\paindrain\arduinolcd\test\pain drain\libraries\lvgl\src\misc\lv_color.h ****      *       3          65     25        3       255
 405:c:\projects\paindrain\arduinolcd\test\pain drain\libraries\lvgl\src\misc\lv_color.h ****      *       4         131     19        1       255
 406:c:\projects\paindrain\arduinolcd\test\pain drain\libraries\lvgl\src\misc\lv_color.h ****      *       5         263      7        0       255
 407:c:\projects\paindrain\arduinolcd\test\pain drain\libraries\lvgl\src\misc\lv_color.h ****      *
 408:c:\projects\paindrain\arduinolcd\test\pain drain\libraries\lvgl\src\misc\lv_color.h ****      * 6-bit to 8-bit: 255 = ( 63 * multiplier + adder ) >> divisor
 409:c:\projects\paindrain\arduinolcd\test\pain drain\libraries\lvgl\src\misc\lv_color.h ****      * divisor  multiplier  adder  min (0)  max (63)
 410:c:\projects\paindrain\arduinolcd\test\pain drain\libraries\lvgl\src\misc\lv_color.h ****      *       0           4      3        3       255
 411:c:\projects\paindrain\arduinolcd\test\pain drain\libraries\lvgl\src\misc\lv_color.h ****      *       1           8      6        3       255
 412:c:\projects\paindrain\arduinolcd\test\pain drain\libraries\lvgl\src\misc\lv_color.h ****      *       2          16     12        3       255
 413:c:\projects\paindrain\arduinolcd\test\pain drain\libraries\lvgl\src\misc\lv_color.h ****      *       3          32     24        3       255
 414:c:\projects\paindrain\arduinolcd\test\pain drain\libraries\lvgl\src\misc\lv_color.h ****      *       4          64     48        3       255
ARM GAS  C:\Users\haske\AppData\Local\Temp\ccESumnB.s 			page 32


 415:c:\projects\paindrain\arduinolcd\test\pain drain\libraries\lvgl\src\misc\lv_color.h ****      *       5         129     33        1       255
 416:c:\projects\paindrain\arduinolcd\test\pain drain\libraries\lvgl\src\misc\lv_color.h ****      *       6         259      3        0       255
 417:c:\projects\paindrain\arduinolcd\test\pain drain\libraries\lvgl\src\misc\lv_color.h ****      */
 418:c:\projects\paindrain\arduinolcd\test\pain drain\libraries\lvgl\src\misc\lv_color.h **** 
 419:c:\projects\paindrain\arduinolcd\test\pain drain\libraries\lvgl\src\misc\lv_color.h ****     lv_color32_t ret;
 420:c:\projects\paindrain\arduinolcd\test\pain drain\libraries\lvgl\src\misc\lv_color.h ****     LV_COLOR_SET_R32(ret, (LV_COLOR_GET_R(color) * 263 + 7) >> 5);
 421:c:\projects\paindrain\arduinolcd\test\pain drain\libraries\lvgl\src\misc\lv_color.h ****     LV_COLOR_SET_G32(ret, (LV_COLOR_GET_G(color) * 259 + 3) >> 6);
 422:c:\projects\paindrain\arduinolcd\test\pain drain\libraries\lvgl\src\misc\lv_color.h ****     LV_COLOR_SET_B32(ret, (LV_COLOR_GET_B(color) * 263 + 7) >> 5);
 423:c:\projects\paindrain\arduinolcd\test\pain drain\libraries\lvgl\src\misc\lv_color.h ****     LV_COLOR_SET_A32(ret, 0xFF);
 424:c:\projects\paindrain\arduinolcd\test\pain drain\libraries\lvgl\src\misc\lv_color.h ****     return ret.full;
 425:c:\projects\paindrain\arduinolcd\test\pain drain\libraries\lvgl\src\misc\lv_color.h **** #elif LV_COLOR_DEPTH == 32
 426:c:\projects\paindrain\arduinolcd\test\pain drain\libraries\lvgl\src\misc\lv_color.h ****     return color.full;
 427:c:\projects\paindrain\arduinolcd\test\pain drain\libraries\lvgl\src\misc\lv_color.h **** #endif
 428:c:\projects\paindrain\arduinolcd\test\pain drain\libraries\lvgl\src\misc\lv_color.h **** }
 429:c:\projects\paindrain\arduinolcd\test\pain drain\libraries\lvgl\src\misc\lv_color.h **** 
 430:c:\projects\paindrain\arduinolcd\test\pain drain\libraries\lvgl\src\misc\lv_color.h **** //! @cond Doxygen_Suppress
 431:c:\projects\paindrain\arduinolcd\test\pain drain\libraries\lvgl\src\misc\lv_color.h **** 
 432:c:\projects\paindrain\arduinolcd\test\pain drain\libraries\lvgl\src\misc\lv_color.h **** /**
 433:c:\projects\paindrain\arduinolcd\test\pain drain\libraries\lvgl\src\misc\lv_color.h ****  * Mix two colors with a given ratio.
 434:c:\projects\paindrain\arduinolcd\test\pain drain\libraries\lvgl\src\misc\lv_color.h ****  * @param c1 the first color to mix (usually the foreground)
 435:c:\projects\paindrain\arduinolcd\test\pain drain\libraries\lvgl\src\misc\lv_color.h ****  * @param c2 the second color to mix (usually the background)
 436:c:\projects\paindrain\arduinolcd\test\pain drain\libraries\lvgl\src\misc\lv_color.h ****  * @param mix The ratio of the colors. 0: full `c2`, 255: full `c1`, 127: half `c1` and half`c2`
 437:c:\projects\paindrain\arduinolcd\test\pain drain\libraries\lvgl\src\misc\lv_color.h ****  * @return the mixed color
 438:c:\projects\paindrain\arduinolcd\test\pain drain\libraries\lvgl\src\misc\lv_color.h ****  */
 439:c:\projects\paindrain\arduinolcd\test\pain drain\libraries\lvgl\src\misc\lv_color.h **** LV_ATTRIBUTE_FAST_MEM static inline lv_color_t lv_color_mix(lv_color_t c1, lv_color_t c2, uint8_t m
 440:c:\projects\paindrain\arduinolcd\test\pain drain\libraries\lvgl\src\misc\lv_color.h **** {
 441:c:\projects\paindrain\arduinolcd\test\pain drain\libraries\lvgl\src\misc\lv_color.h ****     lv_color_t ret;
 442:c:\projects\paindrain\arduinolcd\test\pain drain\libraries\lvgl\src\misc\lv_color.h **** 
 443:c:\projects\paindrain\arduinolcd\test\pain drain\libraries\lvgl\src\misc\lv_color.h **** #if LV_COLOR_DEPTH == 16 && LV_COLOR_16_SWAP == 0 && LV_COLOR_MIX_ROUND_OFS == 0
 444:c:\projects\paindrain\arduinolcd\test\pain drain\libraries\lvgl\src\misc\lv_color.h ****     /*Source: https://stackoverflow.com/a/50012418/1999969*/
 445:c:\projects\paindrain\arduinolcd\test\pain drain\libraries\lvgl\src\misc\lv_color.h ****     mix = (uint32_t)((uint32_t)mix + 4) >> 3;
 446:c:\projects\paindrain\arduinolcd\test\pain drain\libraries\lvgl\src\misc\lv_color.h ****     uint32_t bg = (uint32_t)((uint32_t)c2.full | ((uint32_t)c2.full << 16)) &
 447:c:\projects\paindrain\arduinolcd\test\pain drain\libraries\lvgl\src\misc\lv_color.h ****                   0x7E0F81F; /*0b00000111111000001111100000011111*/
 448:c:\projects\paindrain\arduinolcd\test\pain drain\libraries\lvgl\src\misc\lv_color.h ****     uint32_t fg = (uint32_t)((uint32_t)c1.full | ((uint32_t)c1.full << 16)) & 0x7E0F81F;
 449:c:\projects\paindrain\arduinolcd\test\pain drain\libraries\lvgl\src\misc\lv_color.h ****     uint32_t result = ((((fg - bg) * mix) >> 5) + bg) & 0x7E0F81F;
 450:c:\projects\paindrain\arduinolcd\test\pain drain\libraries\lvgl\src\misc\lv_color.h ****     ret.full = (uint16_t)((result >> 16) | result);
 451:c:\projects\paindrain\arduinolcd\test\pain drain\libraries\lvgl\src\misc\lv_color.h **** #elif LV_COLOR_DEPTH != 1
 452:c:\projects\paindrain\arduinolcd\test\pain drain\libraries\lvgl\src\misc\lv_color.h ****     /*LV_COLOR_DEPTH == 8, 16 or 32*/
 453:c:\projects\paindrain\arduinolcd\test\pain drain\libraries\lvgl\src\misc\lv_color.h ****     LV_COLOR_SET_R(ret, LV_UDIV255((uint16_t)LV_COLOR_GET_R(c1) * mix + LV_COLOR_GET_R(c2) *
 454:c:\projects\paindrain\arduinolcd\test\pain drain\libraries\lvgl\src\misc\lv_color.h ****                                    (255 - mix) + LV_COLOR_MIX_ROUND_OFS));
 455:c:\projects\paindrain\arduinolcd\test\pain drain\libraries\lvgl\src\misc\lv_color.h ****     LV_COLOR_SET_G(ret, LV_UDIV255((uint16_t)LV_COLOR_GET_G(c1) * mix + LV_COLOR_GET_G(c2) *
 456:c:\projects\paindrain\arduinolcd\test\pain drain\libraries\lvgl\src\misc\lv_color.h ****                                    (255 - mix) + LV_COLOR_MIX_ROUND_OFS));
 457:c:\projects\paindrain\arduinolcd\test\pain drain\libraries\lvgl\src\misc\lv_color.h ****     LV_COLOR_SET_B(ret, LV_UDIV255((uint16_t)LV_COLOR_GET_B(c1) * mix + LV_COLOR_GET_B(c2) *
 458:c:\projects\paindrain\arduinolcd\test\pain drain\libraries\lvgl\src\misc\lv_color.h ****                                    (255 - mix) + LV_COLOR_MIX_ROUND_OFS));
 459:c:\projects\paindrain\arduinolcd\test\pain drain\libraries\lvgl\src\misc\lv_color.h ****     LV_COLOR_SET_A(ret, 0xFF);
 460:c:\projects\paindrain\arduinolcd\test\pain drain\libraries\lvgl\src\misc\lv_color.h **** #else
 461:c:\projects\paindrain\arduinolcd\test\pain drain\libraries\lvgl\src\misc\lv_color.h ****     /*LV_COLOR_DEPTH == 1*/
 462:c:\projects\paindrain\arduinolcd\test\pain drain\libraries\lvgl\src\misc\lv_color.h ****     ret.full = mix > LV_OPA_50 ? c1.full : c2.full;
 463:c:\projects\paindrain\arduinolcd\test\pain drain\libraries\lvgl\src\misc\lv_color.h **** #endif
 464:c:\projects\paindrain\arduinolcd\test\pain drain\libraries\lvgl\src\misc\lv_color.h **** 
 465:c:\projects\paindrain\arduinolcd\test\pain drain\libraries\lvgl\src\misc\lv_color.h ****     return ret;
 466:c:\projects\paindrain\arduinolcd\test\pain drain\libraries\lvgl\src\misc\lv_color.h **** }
 467:c:\projects\paindrain\arduinolcd\test\pain drain\libraries\lvgl\src\misc\lv_color.h **** 
 468:c:\projects\paindrain\arduinolcd\test\pain drain\libraries\lvgl\src\misc\lv_color.h **** LV_ATTRIBUTE_FAST_MEM static inline void lv_color_premult(lv_color_t c, uint8_t mix, uint16_t * out
 469:c:\projects\paindrain\arduinolcd\test\pain drain\libraries\lvgl\src\misc\lv_color.h **** {
 470:c:\projects\paindrain\arduinolcd\test\pain drain\libraries\lvgl\src\misc\lv_color.h **** #if LV_COLOR_DEPTH != 1
 471:c:\projects\paindrain\arduinolcd\test\pain drain\libraries\lvgl\src\misc\lv_color.h ****     out[0] = (uint16_t)LV_COLOR_GET_R(c) * mix;
ARM GAS  C:\Users\haske\AppData\Local\Temp\ccESumnB.s 			page 33


 832              		.loc 3 471 0
 833 0286 C3F3C42B 		ubfx	fp, r3, #11, #5
 834 028a 1FFA8EFC 		uxth	ip, lr
 835 028e 0BFB0CFB 		mul	fp, fp, ip
 472:c:\projects\paindrain\arduinolcd\test\pain drain\libraries\lvgl\src\misc\lv_color.h ****     out[1] = (uint16_t)LV_COLOR_GET_G(c) * mix;
 836              		.loc 3 472 0
 837 0292 C3F3451A 		ubfx	r10, r3, #5, #6
 838 0296 0AFB0CFA 		mul	r10, r10, ip
 473:c:\projects\paindrain\arduinolcd\test\pain drain\libraries\lvgl\src\misc\lv_color.h ****     out[2] = (uint16_t)LV_COLOR_GET_B(c) * mix;
 839              		.loc 3 473 0
 840 029a 03F01F03 		and	r3, r3, #31
 841              	.LVL118:
 842 029e 03FB0CFC 		mul	ip, r3, ip
 843              	.LVL119:
 844              	.LBE83:
 845              	.LBE82:
 156:..\..\..\arduinoLCD\test\Pain Drain\libraries\lvgl\src\draw\sw/lv_draw_sw_img.c ****                 uint32_t i;
 846              		.loc 1 156 0
 847 02a2 6FEA0E0E 		mvn	lr, lr
 848              	.LVL120:
 849 02a6 5FFA8EFE 		uxtb	lr, lr
 850              	.LVL121:
 158:..\..\..\arduinoLCD\test\Pain Drain\libraries\lvgl\src\draw\sw/lv_draw_sw_img.c ****                     rgb_buf[i] = lv_color_mix_premult(premult_v, rgb_buf[i], recolor_opa);
 851              		.loc 1 158 0
 852 02aa 0020     		movs	r0, #0
 853 02ac 25E0     		b	.L35
 854              	.LVL122:
 855              	.L36:
 856 02ae 35F81030 		ldrh	r3, [r5, r0, lsl #1]
 857              	.LVL123:
 858              	.LBB84:
 859              	.LBB85:
 474:c:\projects\paindrain\arduinolcd\test\pain drain\libraries\lvgl\src\misc\lv_color.h **** #else
 475:c:\projects\paindrain\arduinolcd\test\pain drain\libraries\lvgl\src\misc\lv_color.h ****     (void) mix;
 476:c:\projects\paindrain\arduinolcd\test\pain drain\libraries\lvgl\src\misc\lv_color.h ****     /*Pre-multiplication can't be used with 1 bpp*/
 477:c:\projects\paindrain\arduinolcd\test\pain drain\libraries\lvgl\src\misc\lv_color.h ****     out[0] = LV_COLOR_GET_R(c);
 478:c:\projects\paindrain\arduinolcd\test\pain drain\libraries\lvgl\src\misc\lv_color.h ****     out[1] = LV_COLOR_GET_G(c);
 479:c:\projects\paindrain\arduinolcd\test\pain drain\libraries\lvgl\src\misc\lv_color.h ****     out[2] = LV_COLOR_GET_B(c);
 480:c:\projects\paindrain\arduinolcd\test\pain drain\libraries\lvgl\src\misc\lv_color.h **** #endif
 481:c:\projects\paindrain\arduinolcd\test\pain drain\libraries\lvgl\src\misc\lv_color.h **** 
 482:c:\projects\paindrain\arduinolcd\test\pain drain\libraries\lvgl\src\misc\lv_color.h **** }
 483:c:\projects\paindrain\arduinolcd\test\pain drain\libraries\lvgl\src\misc\lv_color.h **** 
 484:c:\projects\paindrain\arduinolcd\test\pain drain\libraries\lvgl\src\misc\lv_color.h **** /**
 485:c:\projects\paindrain\arduinolcd\test\pain drain\libraries\lvgl\src\misc\lv_color.h ****  * Mix two colors with a given ratio. It runs faster then `lv_color_mix` but requires some pre comp
 486:c:\projects\paindrain\arduinolcd\test\pain drain\libraries\lvgl\src\misc\lv_color.h ****  * @param premult_c1 The first color. Should be preprocessed with `lv_color_premult(c1)`
 487:c:\projects\paindrain\arduinolcd\test\pain drain\libraries\lvgl\src\misc\lv_color.h ****  * @param c2 The second color. As it is no pre computation required on it
 488:c:\projects\paindrain\arduinolcd\test\pain drain\libraries\lvgl\src\misc\lv_color.h ****  * @param mix The ratio of the colors. 0: full `c1`, 255: full `c2`, 127: half `c1` and half `c2`.
 489:c:\projects\paindrain\arduinolcd\test\pain drain\libraries\lvgl\src\misc\lv_color.h ****  *            Should be modified like mix = `255 - mix`
 490:c:\projects\paindrain\arduinolcd\test\pain drain\libraries\lvgl\src\misc\lv_color.h ****  * @return the mixed color
 491:c:\projects\paindrain\arduinolcd\test\pain drain\libraries\lvgl\src\misc\lv_color.h ****  * @note 255 won't give clearly `c1`.
 492:c:\projects\paindrain\arduinolcd\test\pain drain\libraries\lvgl\src\misc\lv_color.h ****  */
 493:c:\projects\paindrain\arduinolcd\test\pain drain\libraries\lvgl\src\misc\lv_color.h **** LV_ATTRIBUTE_FAST_MEM static inline lv_color_t lv_color_mix_premult(uint16_t * premult_c1, lv_color
 494:c:\projects\paindrain\arduinolcd\test\pain drain\libraries\lvgl\src\misc\lv_color.h **** {
 495:c:\projects\paindrain\arduinolcd\test\pain drain\libraries\lvgl\src\misc\lv_color.h ****     lv_color_t ret;
 496:c:\projects\paindrain\arduinolcd\test\pain drain\libraries\lvgl\src\misc\lv_color.h **** #if LV_COLOR_DEPTH != 1
 497:c:\projects\paindrain\arduinolcd\test\pain drain\libraries\lvgl\src\misc\lv_color.h ****     /*LV_COLOR_DEPTH == 8 or 32*/
 498:c:\projects\paindrain\arduinolcd\test\pain drain\libraries\lvgl\src\misc\lv_color.h ****     LV_COLOR_SET_R(ret, LV_UDIV255(premult_c1[0] + LV_COLOR_GET_R(c2) * mix + LV_COLOR_MIX_ROUND_OF
ARM GAS  C:\Users\haske\AppData\Local\Temp\ccESumnB.s 			page 34


 860              		.loc 3 498 0 discriminator 3
 861 02b2 C3F3C422 		ubfx	r2, r3, #11, #5
 862 02b6 0EFB02B2 		mla	r2, lr, r2, fp
 863 02ba 02EB0221 		add	r1, r2, r2, lsl #8
 864 02be 02EBC112 		add	r2, r2, r1, lsl #7
 865 02c2 D20D     		lsrs	r2, r2, #23
 866 02c4 62F3CF24 		bfi	r4, r2, #11, #5
 499:c:\projects\paindrain\arduinolcd\test\pain drain\libraries\lvgl\src\misc\lv_color.h ****     LV_COLOR_SET_G(ret, LV_UDIV255(premult_c1[1] + LV_COLOR_GET_G(c2) * mix + LV_COLOR_MIX_ROUND_OF
 867              		.loc 3 499 0 discriminator 3
 868 02c8 C3F34512 		ubfx	r2, r3, #5, #6
 869 02cc 0EFB02A2 		mla	r2, lr, r2, r10
 870 02d0 02EB0221 		add	r1, r2, r2, lsl #8
 871 02d4 02EBC112 		add	r2, r2, r1, lsl #7
 872 02d8 D20D     		lsrs	r2, r2, #23
 873 02da 62F34A14 		bfi	r4, r2, #5, #6
 500:c:\projects\paindrain\arduinolcd\test\pain drain\libraries\lvgl\src\misc\lv_color.h ****     LV_COLOR_SET_B(ret, LV_UDIV255(premult_c1[2] + LV_COLOR_GET_B(c2) * mix + LV_COLOR_MIX_ROUND_OF
 874              		.loc 3 500 0 discriminator 3
 875 02de 03F01F03 		and	r3, r3, #31
 876              	.LVL124:
 877 02e2 0EFB03C3 		mla	r3, lr, r3, ip
 878 02e6 03EB0322 		add	r2, r3, r3, lsl #8
 879 02ea 03EBC213 		add	r3, r3, r2, lsl #7
 880 02ee DB0D     		lsrs	r3, r3, #23
 881 02f0 63F30404 		bfi	r4, r3, #0, #5
 882              	.LVL125:
 883              	.LBE85:
 884              	.LBE84:
 159:..\..\..\arduinoLCD\test\Pain Drain\libraries\lvgl\src\draw\sw/lv_draw_sw_img.c ****                 }
 885              		.loc 1 159 0 discriminator 3
 886 02f4 25F81040 		strh	r4, [r5, r0, lsl #1]	@ movhi
 158:..\..\..\arduinoLCD\test\Pain Drain\libraries\lvgl\src\draw\sw/lv_draw_sw_img.c ****                     rgb_buf[i] = lv_color_mix_premult(premult_v, rgb_buf[i], recolor_opa);
 887              		.loc 1 158 0 discriminator 3
 888 02f8 0130     		adds	r0, r0, #1
 889              	.LVL126:
 890              	.L35:
 158:..\..\..\arduinoLCD\test\Pain Drain\libraries\lvgl\src\draw\sw/lv_draw_sw_img.c ****                     rgb_buf[i] = lv_color_mix_premult(premult_v, rgb_buf[i], recolor_opa);
 891              		.loc 1 158 0 is_stmt 0 discriminator 1
 892 02fa B842     		cmp	r0, r7
 893 02fc D7D3     		bcc	.L36
 894              	.LVL127:
 895              	.L34:
 896              	.LBE81:
 164:..\..\..\arduinoLCD\test\Pain Drain\libraries\lvgl\src\draw\sw/lv_draw_sw_img.c ****                 lv_coord_t y;
 897              		.loc 1 164 0 is_stmt 1
 898 02fe 0A9B     		ldr	r3, [sp, #40]
 899 0300 0BB3     		cbz	r3, .L37
 900              	.LVL128:
 901              	.LBB86:
 167:..\..\..\arduinoLCD\test\Pain Drain\libraries\lvgl\src\draw\sw/lv_draw_sw_img.c ****                     lv_draw_mask_res_t mask_res_line;
 902              		.loc 1 167 0
 903 0302 BDF972A0 		ldrsh	r10, [sp, #114]
 904              	.LVL129:
 166:..\..\..\arduinoLCD\test\Pain Drain\libraries\lvgl\src\draw\sw/lv_draw_sw_img.c ****                 for(y = blend_area.y1; y <= blend_area.y2; y++) {
 905              		.loc 1 166 0
 906 0306 DDF824B0 		ldr	fp, [sp, #36]
 167:..\..\..\arduinoLCD\test\Pain Drain\libraries\lvgl\src\draw\sw/lv_draw_sw_img.c ****                     lv_draw_mask_res_t mask_res_line;
 907              		.loc 1 167 0
ARM GAS  C:\Users\haske\AppData\Local\Temp\ccESumnB.s 			page 35


 908 030a 18E0     		b	.L38
 909              	.LVL130:
 910              	.L41:
 911              	.LBB87:
 169:..\..\..\arduinoLCD\test\Pain Drain\libraries\lvgl\src\draw\sw/lv_draw_sw_img.c **** 
 912              		.loc 1 169 0
 913 030c 079B     		ldr	r3, [sp, #28]
 914 030e 5246     		mov	r2, r10
 915 0310 BDF97010 		ldrsh	r1, [sp, #112]
 916 0314 5846     		mov	r0, fp
 917 0316 FFF7FEFF 		bl	lv_draw_mask_apply
 918              	.LVL131:
 171:..\..\..\arduinoLCD\test\Pain Drain\libraries\lvgl\src\draw\sw/lv_draw_sw_img.c ****                         lv_memset_00(mask_buf_tmp, blend_w);
 919              		.loc 1 171 0
 920 031a 38B9     		cbnz	r0, .L39
 172:..\..\..\arduinoLCD\test\Pain Drain\libraries\lvgl\src\draw\sw/lv_draw_sw_img.c ****                         blend_dsc.mask_res = LV_DRAW_MASK_RES_CHANGED;
 921              		.loc 1 172 0
 922 031c 3146     		mov	r1, r6
 923 031e 5846     		mov	r0, fp
 924              	.LVL132:
 925 0320 FFF7FEFF 		bl	lv_memset_00
 926              	.LVL133:
 173:..\..\..\arduinoLCD\test\Pain Drain\libraries\lvgl\src\draw\sw/lv_draw_sw_img.c ****                     }
 927              		.loc 1 173 0
 928 0324 0223     		movs	r3, #2
 929 0326 8DF86430 		strb	r3, [sp, #100]
 930 032a 03E0     		b	.L40
 931              	.LVL134:
 932              	.L39:
 175:..\..\..\arduinoLCD\test\Pain Drain\libraries\lvgl\src\draw\sw/lv_draw_sw_img.c ****                         blend_dsc.mask_res = LV_DRAW_MASK_RES_CHANGED;
 933              		.loc 1 175 0
 934 032c 0228     		cmp	r0, #2
 935 032e 01D1     		bne	.L40
 176:..\..\..\arduinoLCD\test\Pain Drain\libraries\lvgl\src\draw\sw/lv_draw_sw_img.c ****                     }
 936              		.loc 1 176 0
 937 0330 8DF86400 		strb	r0, [sp, #100]
 938              	.LVL135:
 939              	.L40:
 178:..\..\..\arduinoLCD\test\Pain Drain\libraries\lvgl\src\draw\sw/lv_draw_sw_img.c ****                 }
 940              		.loc 1 178 0 discriminator 2
 941 0334 B344     		add	fp, fp, r6
 942              	.LVL136:
 943              	.LBE87:
 167:..\..\..\arduinoLCD\test\Pain Drain\libraries\lvgl\src\draw\sw/lv_draw_sw_img.c ****                     lv_draw_mask_res_t mask_res_line;
 944              		.loc 1 167 0 discriminator 2
 945 0336 0AF1010A 		add	r10, r10, #1
 946              	.LVL137:
 947 033a 0FFA8AFA 		sxth	r10, r10
 948              	.LVL138:
 949              	.L38:
 167:..\..\..\arduinoLCD\test\Pain Drain\libraries\lvgl\src\draw\sw/lv_draw_sw_img.c ****                     lv_draw_mask_res_t mask_res_line;
 950              		.loc 1 167 0 is_stmt 0 discriminator 1
 951 033e BDF97630 		ldrsh	r3, [sp, #118]
 952 0342 9A45     		cmp	r10, r3
 953 0344 E2DD     		ble	.L41
 954              	.LVL139:
 955              	.L37:
ARM GAS  C:\Users\haske\AppData\Local\Temp\ccESumnB.s 			page 36


 956              	.LBE86:
 184:..\..\..\arduinoLCD\test\Pain Drain\libraries\lvgl\src\draw\sw/lv_draw_sw_img.c **** 
 957              		.loc 1 184 0 is_stmt 1
 958 0346 15A9     		add	r1, sp, #84
 959 0348 0898     		ldr	r0, [sp, #32]
 960 034a FFF7FEFF 		bl	lv_draw_sw_blend
 961              	.LVL140:
 187:..\..\..\arduinoLCD\test\Pain Drain\libraries\lvgl\src\draw\sw/lv_draw_sw_img.c ****             blend_area.y2 = blend_area.y1 + buf_h - 1;
 962              		.loc 1 187 0
 963 034e BDF97630 		ldrsh	r3, [sp, #118]
 964 0352 0133     		adds	r3, r3, #1
 965 0354 9BB2     		uxth	r3, r3
 966 0356 ADF87230 		strh	r3, [sp, #114]	@ movhi
 188:..\..\..\arduinoLCD\test\Pain Drain\libraries\lvgl\src\draw\sw/lv_draw_sw_img.c ****             if(blend_area.y2 > y_last) blend_area.y2 = y_last;
 967              		.loc 1 188 0
 968 035a 0F9A     		ldr	r2, [sp, #60]
 969 035c 1344     		add	r3, r3, r2
 970 035e 013B     		subs	r3, r3, #1
 971 0360 1BB2     		sxth	r3, r3
 972 0362 ADF87630 		strh	r3, [sp, #118]	@ movhi
 189:..\..\..\arduinoLCD\test\Pain Drain\libraries\lvgl\src\draw\sw/lv_draw_sw_img.c ****         }
 973              		.loc 1 189 0
 974 0366 9945     		cmp	r9, r3
 975 0368 01DA     		bge	.L31
 189:..\..\..\arduinoLCD\test\Pain Drain\libraries\lvgl\src\draw\sw/lv_draw_sw_img.c ****         }
 976              		.loc 1 189 0 is_stmt 0 discriminator 1
 977 036a ADF87690 		strh	r9, [sp, #118]	@ movhi
 978              	.L31:
 979              	.LBE78:
 137:..\..\..\arduinoLCD\test\Pain Drain\libraries\lvgl\src\draw\sw/lv_draw_sw_img.c ****             /*Apply transformations if any or separate the channels*/
 980              		.loc 1 137 0 is_stmt 1
 981 036e BDF97230 		ldrsh	r3, [sp, #114]
 982 0372 9945     		cmp	r9, r3
 983 0374 BFF643AF 		bge	.L43
 192:..\..\..\arduinoLCD\test\Pain Drain\libraries\lvgl\src\draw\sw/lv_draw_sw_img.c ****         lv_mem_buf_release(rgb_buf);
 984              		.loc 1 192 0
 985 0378 0998     		ldr	r0, [sp, #36]
 986 037a FFF7FEFF 		bl	lv_mem_buf_release
 987              	.LVL141:
 193:..\..\..\arduinoLCD\test\Pain Drain\libraries\lvgl\src\draw\sw/lv_draw_sw_img.c ****     }
 988              		.loc 1 193 0
 989 037e 2846     		mov	r0, r5
 990 0380 FFF7FEFF 		bl	lv_mem_buf_release
 991              	.LVL142:
 992              	.L21:
 993              	.LBE69:
 195:..\..\..\arduinoLCD\test\Pain Drain\libraries\lvgl\src\draw\sw/lv_draw_sw_img.c **** 
 994              		.loc 1 195 0
 995 0384 21B0     		add	sp, sp, #132
 996              		.cfi_def_cfa_offset 36
 997              		@ sp needed
 998 0386 BDE8F08F 		pop	{r4, r5, r6, r7, r8, r9, r10, fp, pc}
 999              		.cfi_endproc
 1000              	.LFE159:
 1001              		.size	lv_draw_sw_img_decoded, .-lv_draw_sw_img_decoded
 1002 038a 00BF     		.text
 1003              	.Letext0:
ARM GAS  C:\Users\haske\AppData\Local\Temp\ccESumnB.s 			page 37


 1004              		.file 4 "c:\\program files (x86)\\cypress\\psoc creator\\4.4\\psoc creator\\import\\gnu\\arm\\5.4.
 1005              		.file 5 "c:\\program files (x86)\\cypress\\psoc creator\\4.4\\psoc creator\\import\\gnu\\arm\\5.4.
 1006              		.file 6 "c:\\projects\\paindrain\\arduinolcd\\test\\pain drain\\libraries\\lvgl\\src\\misc\\lv_typ
 1007              		.file 7 "c:\\program files (x86)\\cypress\\psoc creator\\4.4\\psoc creator\\import\\gnu\\arm\\5.4.
 1008              		.file 8 "c:\\projects\\paindrain\\arduinolcd\\test\\pain drain\\libraries\\lvgl\\src\\font\\lv_fon
 1009              		.file 9 "c:\\projects\\paindrain\\arduinolcd\\test\\pain drain\\libraries\\lvgl\\src\\misc\\lv_txt
 1010              		.file 10 "c:\\projects\\paindrain\\arduinolcd\\test\\pain drain\\libraries\\lvgl\\src\\misc\\lv_bi
 1011              		.file 11 "c:\\projects\\paindrain\\arduinolcd\\test\\pain drain\\libraries\\lvgl\\src\\misc\\lv_st
 1012              		.file 12 "..\\..\\..\\arduinoLCD\\test\\Pain Drain\\libraries\\lvgl\\src\\draw\\sw\\../lv_draw_mas
 1013              		.file 13 "..\\..\\..\\arduinoLCD\\test\\Pain Drain\\libraries\\lvgl\\src\\draw\\sw\\lv_draw_sw_ble
 1014              		.file 14 "..\\..\\..\\arduinoLCD\\test\\Pain Drain\\libraries\\lvgl\\src\\draw\\sw\\../lv_img_buf.
 1015              		.file 15 "..\\..\\..\\arduinoLCD\\test\\Pain Drain\\libraries\\lvgl\\src\\draw\\sw\\../lv_draw_rec
 1016              		.file 16 "..\\..\\..\\arduinoLCD\\test\\Pain Drain\\libraries\\lvgl\\src\\draw\\sw\\../lv_draw_lab
 1017              		.file 17 "..\\..\\..\\arduinoLCD\\test\\Pain Drain\\libraries\\lvgl\\src\\draw\\sw\\../lv_draw_img
 1018              		.file 18 "..\\..\\..\\arduinoLCD\\test\\Pain Drain\\libraries\\lvgl\\src\\draw\\sw\\../lv_draw_lin
 1019              		.file 19 "..\\..\\..\\arduinoLCD\\test\\Pain Drain\\libraries\\lvgl\\src\\draw\\sw\\../lv_draw_arc
 1020              		.file 20 "..\\..\\..\\arduinoLCD\\test\\Pain Drain\\libraries\\lvgl\\src\\draw\\sw\\../lv_draw_lay
 1021              		.file 21 "..\\..\\..\\arduinoLCD\\test\\Pain Drain\\libraries\\lvgl\\src\\draw\\sw\\../lv_draw.h"
 1022              		.file 22 "c:\\projects\\paindrain\\arduinolcd\\test\\pain drain\\libraries\\lvgl\\src\\misc\\lv_me
 1023              		.file 23 "..\\..\\..\\arduinoLCD\\test\\Pain Drain\\libraries\\lvgl\\src\\draw\\sw\\../lv_draw_tra
 1024              		.file 24 "c:\\projects\\paindrain\\arduinolcd\\test\\pain drain\\libraries\\lvgl\\src\\core\\lv_re
 1025              		.file 25 "c:\\projects\\paindrain\\arduinolcd\\test\\pain drain\\libraries\\lvgl\\src\\hal\\lv_hal