ARM GAS  C:\Users\haske\AppData\Local\Temp\ccxlcgkV.s 			page 1


   1              		.syntax unified
   2              		.cpu cortex-m4
   3              		.eabi_attribute 27, 1
   4              		.fpu fpv4-sp-d16
   5              		.eabi_attribute 20, 1
   6              		.eabi_attribute 21, 1
   7              		.eabi_attribute 23, 3
   8              		.eabi_attribute 24, 1
   9              		.eabi_attribute 25, 1
  10              		.eabi_attribute 26, 1
  11              		.eabi_attribute 30, 1
  12              		.eabi_attribute 34, 1
  13              		.eabi_attribute 18, 4
  14              		.thumb
  15              		.syntax unified
  16              		.file	"lv_draw_sw_arc.c"
  17              		.text
  18              	.Ltext0:
  19              		.cfi_sections	.debug_frame
  20              		.section	.text.draw_quarter_0,"ax",%progbits
  21              		.align	2
  22              		.thumb
  23              		.thumb_func
  24              		.type	draw_quarter_0, %function
  25              	draw_quarter_0:
  26              	.LFB57:
  27              		.file 1 "..\\..\\..\\arduinoLCD\\test\\Pain Drain\\libraries\\lvgl\\src\\draw\\sw\\lv_draw_sw_arc.
   1:..\..\..\arduinoLCD\test\Pain Drain\libraries\lvgl\src\draw\sw/lv_draw_sw_arc.c **** /**
   2:..\..\..\arduinoLCD\test\Pain Drain\libraries\lvgl\src\draw\sw/lv_draw_sw_arc.c ****  * @file lv_draw_arc.c
   3:..\..\..\arduinoLCD\test\Pain Drain\libraries\lvgl\src\draw\sw/lv_draw_sw_arc.c ****  *
   4:..\..\..\arduinoLCD\test\Pain Drain\libraries\lvgl\src\draw\sw/lv_draw_sw_arc.c ****  */
   5:..\..\..\arduinoLCD\test\Pain Drain\libraries\lvgl\src\draw\sw/lv_draw_sw_arc.c **** 
   6:..\..\..\arduinoLCD\test\Pain Drain\libraries\lvgl\src\draw\sw/lv_draw_sw_arc.c **** /*********************
   7:..\..\..\arduinoLCD\test\Pain Drain\libraries\lvgl\src\draw\sw/lv_draw_sw_arc.c ****  *      INCLUDES
   8:..\..\..\arduinoLCD\test\Pain Drain\libraries\lvgl\src\draw\sw/lv_draw_sw_arc.c ****  *********************/
   9:..\..\..\arduinoLCD\test\Pain Drain\libraries\lvgl\src\draw\sw/lv_draw_sw_arc.c **** #include "lv_draw_sw.h"
  10:..\..\..\arduinoLCD\test\Pain Drain\libraries\lvgl\src\draw\sw/lv_draw_sw_arc.c **** #include "../../misc/lv_math.h"
  11:..\..\..\arduinoLCD\test\Pain Drain\libraries\lvgl\src\draw\sw/lv_draw_sw_arc.c **** #include "../../misc/lv_log.h"
  12:..\..\..\arduinoLCD\test\Pain Drain\libraries\lvgl\src\draw\sw/lv_draw_sw_arc.c **** #include "../../misc/lv_mem.h"
  13:..\..\..\arduinoLCD\test\Pain Drain\libraries\lvgl\src\draw\sw/lv_draw_sw_arc.c **** #include "../lv_draw.h"
  14:..\..\..\arduinoLCD\test\Pain Drain\libraries\lvgl\src\draw\sw/lv_draw_sw_arc.c **** 
  15:..\..\..\arduinoLCD\test\Pain Drain\libraries\lvgl\src\draw\sw/lv_draw_sw_arc.c **** /*********************
  16:..\..\..\arduinoLCD\test\Pain Drain\libraries\lvgl\src\draw\sw/lv_draw_sw_arc.c ****  *      DEFINES
  17:..\..\..\arduinoLCD\test\Pain Drain\libraries\lvgl\src\draw\sw/lv_draw_sw_arc.c ****  *********************/
  18:..\..\..\arduinoLCD\test\Pain Drain\libraries\lvgl\src\draw\sw/lv_draw_sw_arc.c **** #define SPLIT_RADIUS_LIMIT 10  /*With radius greater than this the arc will drawn in quarters. A qu
  19:..\..\..\arduinoLCD\test\Pain Drain\libraries\lvgl\src\draw\sw/lv_draw_sw_arc.c **** #define SPLIT_ANGLE_GAP_LIMIT 60  /*With small gaps in the arc don't bother with splitting because 
  20:..\..\..\arduinoLCD\test\Pain Drain\libraries\lvgl\src\draw\sw/lv_draw_sw_arc.c **** 
  21:..\..\..\arduinoLCD\test\Pain Drain\libraries\lvgl\src\draw\sw/lv_draw_sw_arc.c **** /**********************
  22:..\..\..\arduinoLCD\test\Pain Drain\libraries\lvgl\src\draw\sw/lv_draw_sw_arc.c ****  *      TYPEDEFS
  23:..\..\..\arduinoLCD\test\Pain Drain\libraries\lvgl\src\draw\sw/lv_draw_sw_arc.c ****  **********************/
  24:..\..\..\arduinoLCD\test\Pain Drain\libraries\lvgl\src\draw\sw/lv_draw_sw_arc.c **** typedef struct {
  25:..\..\..\arduinoLCD\test\Pain Drain\libraries\lvgl\src\draw\sw/lv_draw_sw_arc.c ****     const lv_point_t * center;
  26:..\..\..\arduinoLCD\test\Pain Drain\libraries\lvgl\src\draw\sw/lv_draw_sw_arc.c ****     lv_coord_t radius;
  27:..\..\..\arduinoLCD\test\Pain Drain\libraries\lvgl\src\draw\sw/lv_draw_sw_arc.c ****     uint16_t start_angle;
  28:..\..\..\arduinoLCD\test\Pain Drain\libraries\lvgl\src\draw\sw/lv_draw_sw_arc.c ****     uint16_t end_angle;
  29:..\..\..\arduinoLCD\test\Pain Drain\libraries\lvgl\src\draw\sw/lv_draw_sw_arc.c ****     uint16_t start_quarter;
  30:..\..\..\arduinoLCD\test\Pain Drain\libraries\lvgl\src\draw\sw/lv_draw_sw_arc.c ****     uint16_t end_quarter;
ARM GAS  C:\Users\haske\AppData\Local\Temp\ccxlcgkV.s 			page 2


  31:..\..\..\arduinoLCD\test\Pain Drain\libraries\lvgl\src\draw\sw/lv_draw_sw_arc.c ****     lv_coord_t width;
  32:..\..\..\arduinoLCD\test\Pain Drain\libraries\lvgl\src\draw\sw/lv_draw_sw_arc.c ****     lv_draw_rect_dsc_t * draw_dsc;
  33:..\..\..\arduinoLCD\test\Pain Drain\libraries\lvgl\src\draw\sw/lv_draw_sw_arc.c ****     const lv_area_t * draw_area;
  34:..\..\..\arduinoLCD\test\Pain Drain\libraries\lvgl\src\draw\sw/lv_draw_sw_arc.c ****     lv_draw_ctx_t * draw_ctx;
  35:..\..\..\arduinoLCD\test\Pain Drain\libraries\lvgl\src\draw\sw/lv_draw_sw_arc.c **** } quarter_draw_dsc_t;
  36:..\..\..\arduinoLCD\test\Pain Drain\libraries\lvgl\src\draw\sw/lv_draw_sw_arc.c **** 
  37:..\..\..\arduinoLCD\test\Pain Drain\libraries\lvgl\src\draw\sw/lv_draw_sw_arc.c **** /**********************
  38:..\..\..\arduinoLCD\test\Pain Drain\libraries\lvgl\src\draw\sw/lv_draw_sw_arc.c ****  *  STATIC PROTOTYPES
  39:..\..\..\arduinoLCD\test\Pain Drain\libraries\lvgl\src\draw\sw/lv_draw_sw_arc.c ****  **********************/
  40:..\..\..\arduinoLCD\test\Pain Drain\libraries\lvgl\src\draw\sw/lv_draw_sw_arc.c **** #if LV_DRAW_COMPLEX
  41:..\..\..\arduinoLCD\test\Pain Drain\libraries\lvgl\src\draw\sw/lv_draw_sw_arc.c ****     static void draw_quarter_0(quarter_draw_dsc_t * q);
  42:..\..\..\arduinoLCD\test\Pain Drain\libraries\lvgl\src\draw\sw/lv_draw_sw_arc.c ****     static void draw_quarter_1(quarter_draw_dsc_t * q);
  43:..\..\..\arduinoLCD\test\Pain Drain\libraries\lvgl\src\draw\sw/lv_draw_sw_arc.c ****     static void draw_quarter_2(quarter_draw_dsc_t * q);
  44:..\..\..\arduinoLCD\test\Pain Drain\libraries\lvgl\src\draw\sw/lv_draw_sw_arc.c ****     static void draw_quarter_3(quarter_draw_dsc_t * q);
  45:..\..\..\arduinoLCD\test\Pain Drain\libraries\lvgl\src\draw\sw/lv_draw_sw_arc.c ****     static void get_rounded_area(int16_t angle, lv_coord_t radius, uint8_t thickness, lv_area_t * r
  46:..\..\..\arduinoLCD\test\Pain Drain\libraries\lvgl\src\draw\sw/lv_draw_sw_arc.c **** #endif /*LV_DRAW_COMPLEX*/
  47:..\..\..\arduinoLCD\test\Pain Drain\libraries\lvgl\src\draw\sw/lv_draw_sw_arc.c **** 
  48:..\..\..\arduinoLCD\test\Pain Drain\libraries\lvgl\src\draw\sw/lv_draw_sw_arc.c **** /**********************
  49:..\..\..\arduinoLCD\test\Pain Drain\libraries\lvgl\src\draw\sw/lv_draw_sw_arc.c ****  *  STATIC VARIABLES
  50:..\..\..\arduinoLCD\test\Pain Drain\libraries\lvgl\src\draw\sw/lv_draw_sw_arc.c ****  **********************/
  51:..\..\..\arduinoLCD\test\Pain Drain\libraries\lvgl\src\draw\sw/lv_draw_sw_arc.c **** 
  52:..\..\..\arduinoLCD\test\Pain Drain\libraries\lvgl\src\draw\sw/lv_draw_sw_arc.c **** /**********************
  53:..\..\..\arduinoLCD\test\Pain Drain\libraries\lvgl\src\draw\sw/lv_draw_sw_arc.c ****  *      MACROS
  54:..\..\..\arduinoLCD\test\Pain Drain\libraries\lvgl\src\draw\sw/lv_draw_sw_arc.c ****  **********************/
  55:..\..\..\arduinoLCD\test\Pain Drain\libraries\lvgl\src\draw\sw/lv_draw_sw_arc.c **** 
  56:..\..\..\arduinoLCD\test\Pain Drain\libraries\lvgl\src\draw\sw/lv_draw_sw_arc.c **** /**********************
  57:..\..\..\arduinoLCD\test\Pain Drain\libraries\lvgl\src\draw\sw/lv_draw_sw_arc.c ****  *   GLOBAL FUNCTIONS
  58:..\..\..\arduinoLCD\test\Pain Drain\libraries\lvgl\src\draw\sw/lv_draw_sw_arc.c ****  **********************/
  59:..\..\..\arduinoLCD\test\Pain Drain\libraries\lvgl\src\draw\sw/lv_draw_sw_arc.c **** 
  60:..\..\..\arduinoLCD\test\Pain Drain\libraries\lvgl\src\draw\sw/lv_draw_sw_arc.c **** void lv_draw_sw_arc(lv_draw_ctx_t * draw_ctx, const lv_draw_arc_dsc_t * dsc, const lv_point_t * cen
  61:..\..\..\arduinoLCD\test\Pain Drain\libraries\lvgl\src\draw\sw/lv_draw_sw_arc.c ****                     uint16_t start_angle, uint16_t end_angle)
  62:..\..\..\arduinoLCD\test\Pain Drain\libraries\lvgl\src\draw\sw/lv_draw_sw_arc.c **** {
  63:..\..\..\arduinoLCD\test\Pain Drain\libraries\lvgl\src\draw\sw/lv_draw_sw_arc.c **** #if LV_DRAW_COMPLEX
  64:..\..\..\arduinoLCD\test\Pain Drain\libraries\lvgl\src\draw\sw/lv_draw_sw_arc.c ****     if(dsc->opa <= LV_OPA_MIN) return;
  65:..\..\..\arduinoLCD\test\Pain Drain\libraries\lvgl\src\draw\sw/lv_draw_sw_arc.c ****     if(dsc->width == 0) return;
  66:..\..\..\arduinoLCD\test\Pain Drain\libraries\lvgl\src\draw\sw/lv_draw_sw_arc.c ****     if(start_angle == end_angle) return;
  67:..\..\..\arduinoLCD\test\Pain Drain\libraries\lvgl\src\draw\sw/lv_draw_sw_arc.c **** 
  68:..\..\..\arduinoLCD\test\Pain Drain\libraries\lvgl\src\draw\sw/lv_draw_sw_arc.c ****     lv_coord_t width = dsc->width;
  69:..\..\..\arduinoLCD\test\Pain Drain\libraries\lvgl\src\draw\sw/lv_draw_sw_arc.c ****     if(width > radius) width = radius;
  70:..\..\..\arduinoLCD\test\Pain Drain\libraries\lvgl\src\draw\sw/lv_draw_sw_arc.c **** 
  71:..\..\..\arduinoLCD\test\Pain Drain\libraries\lvgl\src\draw\sw/lv_draw_sw_arc.c ****     lv_draw_rect_dsc_t cir_dsc;
  72:..\..\..\arduinoLCD\test\Pain Drain\libraries\lvgl\src\draw\sw/lv_draw_sw_arc.c ****     lv_draw_rect_dsc_init(&cir_dsc);
  73:..\..\..\arduinoLCD\test\Pain Drain\libraries\lvgl\src\draw\sw/lv_draw_sw_arc.c ****     cir_dsc.blend_mode = dsc->blend_mode;
  74:..\..\..\arduinoLCD\test\Pain Drain\libraries\lvgl\src\draw\sw/lv_draw_sw_arc.c ****     if(dsc->img_src) {
  75:..\..\..\arduinoLCD\test\Pain Drain\libraries\lvgl\src\draw\sw/lv_draw_sw_arc.c ****         cir_dsc.bg_opa = LV_OPA_TRANSP;
  76:..\..\..\arduinoLCD\test\Pain Drain\libraries\lvgl\src\draw\sw/lv_draw_sw_arc.c ****         cir_dsc.bg_img_src = dsc->img_src;
  77:..\..\..\arduinoLCD\test\Pain Drain\libraries\lvgl\src\draw\sw/lv_draw_sw_arc.c ****         cir_dsc.bg_img_opa = dsc->opa;
  78:..\..\..\arduinoLCD\test\Pain Drain\libraries\lvgl\src\draw\sw/lv_draw_sw_arc.c ****     }
  79:..\..\..\arduinoLCD\test\Pain Drain\libraries\lvgl\src\draw\sw/lv_draw_sw_arc.c ****     else {
  80:..\..\..\arduinoLCD\test\Pain Drain\libraries\lvgl\src\draw\sw/lv_draw_sw_arc.c ****         cir_dsc.bg_opa = dsc->opa;
  81:..\..\..\arduinoLCD\test\Pain Drain\libraries\lvgl\src\draw\sw/lv_draw_sw_arc.c ****         cir_dsc.bg_color = dsc->color;
  82:..\..\..\arduinoLCD\test\Pain Drain\libraries\lvgl\src\draw\sw/lv_draw_sw_arc.c ****     }
  83:..\..\..\arduinoLCD\test\Pain Drain\libraries\lvgl\src\draw\sw/lv_draw_sw_arc.c **** 
  84:..\..\..\arduinoLCD\test\Pain Drain\libraries\lvgl\src\draw\sw/lv_draw_sw_arc.c ****     lv_area_t area_out;
  85:..\..\..\arduinoLCD\test\Pain Drain\libraries\lvgl\src\draw\sw/lv_draw_sw_arc.c ****     area_out.x1 = center->x - radius;
  86:..\..\..\arduinoLCD\test\Pain Drain\libraries\lvgl\src\draw\sw/lv_draw_sw_arc.c ****     area_out.y1 = center->y - radius;
  87:..\..\..\arduinoLCD\test\Pain Drain\libraries\lvgl\src\draw\sw/lv_draw_sw_arc.c ****     area_out.x2 = center->x + radius - 1;  /*-1 because the center already belongs to the left/bott
ARM GAS  C:\Users\haske\AppData\Local\Temp\ccxlcgkV.s 			page 3


  88:..\..\..\arduinoLCD\test\Pain Drain\libraries\lvgl\src\draw\sw/lv_draw_sw_arc.c ****     area_out.y2 = center->y + radius - 1;
  89:..\..\..\arduinoLCD\test\Pain Drain\libraries\lvgl\src\draw\sw/lv_draw_sw_arc.c **** 
  90:..\..\..\arduinoLCD\test\Pain Drain\libraries\lvgl\src\draw\sw/lv_draw_sw_arc.c ****     lv_area_t area_in;
  91:..\..\..\arduinoLCD\test\Pain Drain\libraries\lvgl\src\draw\sw/lv_draw_sw_arc.c ****     lv_area_copy(&area_in, &area_out);
  92:..\..\..\arduinoLCD\test\Pain Drain\libraries\lvgl\src\draw\sw/lv_draw_sw_arc.c ****     area_in.x1 += dsc->width;
  93:..\..\..\arduinoLCD\test\Pain Drain\libraries\lvgl\src\draw\sw/lv_draw_sw_arc.c ****     area_in.y1 += dsc->width;
  94:..\..\..\arduinoLCD\test\Pain Drain\libraries\lvgl\src\draw\sw/lv_draw_sw_arc.c ****     area_in.x2 -= dsc->width;
  95:..\..\..\arduinoLCD\test\Pain Drain\libraries\lvgl\src\draw\sw/lv_draw_sw_arc.c ****     area_in.y2 -= dsc->width;
  96:..\..\..\arduinoLCD\test\Pain Drain\libraries\lvgl\src\draw\sw/lv_draw_sw_arc.c **** 
  97:..\..\..\arduinoLCD\test\Pain Drain\libraries\lvgl\src\draw\sw/lv_draw_sw_arc.c ****     /*Create inner the mask*/
  98:..\..\..\arduinoLCD\test\Pain Drain\libraries\lvgl\src\draw\sw/lv_draw_sw_arc.c ****     int16_t mask_in_id = LV_MASK_ID_INV;
  99:..\..\..\arduinoLCD\test\Pain Drain\libraries\lvgl\src\draw\sw/lv_draw_sw_arc.c ****     lv_draw_mask_radius_param_t mask_in_param;
 100:..\..\..\arduinoLCD\test\Pain Drain\libraries\lvgl\src\draw\sw/lv_draw_sw_arc.c ****     bool mask_in_param_valid = false;
 101:..\..\..\arduinoLCD\test\Pain Drain\libraries\lvgl\src\draw\sw/lv_draw_sw_arc.c ****     if(lv_area_get_width(&area_in) > 0 && lv_area_get_height(&area_in) > 0) {
 102:..\..\..\arduinoLCD\test\Pain Drain\libraries\lvgl\src\draw\sw/lv_draw_sw_arc.c ****         lv_draw_mask_radius_init(&mask_in_param, &area_in, LV_RADIUS_CIRCLE, true);
 103:..\..\..\arduinoLCD\test\Pain Drain\libraries\lvgl\src\draw\sw/lv_draw_sw_arc.c ****         mask_in_param_valid = true;
 104:..\..\..\arduinoLCD\test\Pain Drain\libraries\lvgl\src\draw\sw/lv_draw_sw_arc.c ****         mask_in_id = lv_draw_mask_add(&mask_in_param, NULL);
 105:..\..\..\arduinoLCD\test\Pain Drain\libraries\lvgl\src\draw\sw/lv_draw_sw_arc.c ****     }
 106:..\..\..\arduinoLCD\test\Pain Drain\libraries\lvgl\src\draw\sw/lv_draw_sw_arc.c **** 
 107:..\..\..\arduinoLCD\test\Pain Drain\libraries\lvgl\src\draw\sw/lv_draw_sw_arc.c ****     lv_draw_mask_radius_param_t mask_out_param;
 108:..\..\..\arduinoLCD\test\Pain Drain\libraries\lvgl\src\draw\sw/lv_draw_sw_arc.c ****     lv_draw_mask_radius_init(&mask_out_param, &area_out, LV_RADIUS_CIRCLE, false);
 109:..\..\..\arduinoLCD\test\Pain Drain\libraries\lvgl\src\draw\sw/lv_draw_sw_arc.c ****     int16_t mask_out_id = lv_draw_mask_add(&mask_out_param, NULL);
 110:..\..\..\arduinoLCD\test\Pain Drain\libraries\lvgl\src\draw\sw/lv_draw_sw_arc.c **** 
 111:..\..\..\arduinoLCD\test\Pain Drain\libraries\lvgl\src\draw\sw/lv_draw_sw_arc.c ****     /*Draw a full ring*/
 112:..\..\..\arduinoLCD\test\Pain Drain\libraries\lvgl\src\draw\sw/lv_draw_sw_arc.c ****     if(start_angle + 360 == end_angle || start_angle == end_angle + 360) {
 113:..\..\..\arduinoLCD\test\Pain Drain\libraries\lvgl\src\draw\sw/lv_draw_sw_arc.c ****         cir_dsc.radius = LV_RADIUS_CIRCLE;
 114:..\..\..\arduinoLCD\test\Pain Drain\libraries\lvgl\src\draw\sw/lv_draw_sw_arc.c ****         lv_draw_rect(draw_ctx, &cir_dsc, &area_out);
 115:..\..\..\arduinoLCD\test\Pain Drain\libraries\lvgl\src\draw\sw/lv_draw_sw_arc.c **** 
 116:..\..\..\arduinoLCD\test\Pain Drain\libraries\lvgl\src\draw\sw/lv_draw_sw_arc.c ****         lv_draw_mask_remove_id(mask_out_id);
 117:..\..\..\arduinoLCD\test\Pain Drain\libraries\lvgl\src\draw\sw/lv_draw_sw_arc.c ****         if(mask_in_id != LV_MASK_ID_INV) lv_draw_mask_remove_id(mask_in_id);
 118:..\..\..\arduinoLCD\test\Pain Drain\libraries\lvgl\src\draw\sw/lv_draw_sw_arc.c **** 
 119:..\..\..\arduinoLCD\test\Pain Drain\libraries\lvgl\src\draw\sw/lv_draw_sw_arc.c ****         lv_draw_mask_free_param(&mask_out_param);
 120:..\..\..\arduinoLCD\test\Pain Drain\libraries\lvgl\src\draw\sw/lv_draw_sw_arc.c ****         if(mask_in_param_valid) {
 121:..\..\..\arduinoLCD\test\Pain Drain\libraries\lvgl\src\draw\sw/lv_draw_sw_arc.c ****             lv_draw_mask_free_param(&mask_in_param);
 122:..\..\..\arduinoLCD\test\Pain Drain\libraries\lvgl\src\draw\sw/lv_draw_sw_arc.c ****         }
 123:..\..\..\arduinoLCD\test\Pain Drain\libraries\lvgl\src\draw\sw/lv_draw_sw_arc.c **** 
 124:..\..\..\arduinoLCD\test\Pain Drain\libraries\lvgl\src\draw\sw/lv_draw_sw_arc.c ****         return;
 125:..\..\..\arduinoLCD\test\Pain Drain\libraries\lvgl\src\draw\sw/lv_draw_sw_arc.c ****     }
 126:..\..\..\arduinoLCD\test\Pain Drain\libraries\lvgl\src\draw\sw/lv_draw_sw_arc.c **** 
 127:..\..\..\arduinoLCD\test\Pain Drain\libraries\lvgl\src\draw\sw/lv_draw_sw_arc.c ****     while(start_angle >= 360) start_angle -= 360;
 128:..\..\..\arduinoLCD\test\Pain Drain\libraries\lvgl\src\draw\sw/lv_draw_sw_arc.c ****     while(end_angle >= 360) end_angle -= 360;
 129:..\..\..\arduinoLCD\test\Pain Drain\libraries\lvgl\src\draw\sw/lv_draw_sw_arc.c **** 
 130:..\..\..\arduinoLCD\test\Pain Drain\libraries\lvgl\src\draw\sw/lv_draw_sw_arc.c ****     lv_draw_mask_angle_param_t mask_angle_param;
 131:..\..\..\arduinoLCD\test\Pain Drain\libraries\lvgl\src\draw\sw/lv_draw_sw_arc.c ****     lv_draw_mask_angle_init(&mask_angle_param, center->x, center->y, start_angle, end_angle);
 132:..\..\..\arduinoLCD\test\Pain Drain\libraries\lvgl\src\draw\sw/lv_draw_sw_arc.c ****     int16_t mask_angle_id = lv_draw_mask_add(&mask_angle_param, NULL);
 133:..\..\..\arduinoLCD\test\Pain Drain\libraries\lvgl\src\draw\sw/lv_draw_sw_arc.c **** 
 134:..\..\..\arduinoLCD\test\Pain Drain\libraries\lvgl\src\draw\sw/lv_draw_sw_arc.c ****     int32_t angle_gap;
 135:..\..\..\arduinoLCD\test\Pain Drain\libraries\lvgl\src\draw\sw/lv_draw_sw_arc.c ****     if(end_angle > start_angle) {
 136:..\..\..\arduinoLCD\test\Pain Drain\libraries\lvgl\src\draw\sw/lv_draw_sw_arc.c ****         angle_gap = 360 - (end_angle - start_angle);
 137:..\..\..\arduinoLCD\test\Pain Drain\libraries\lvgl\src\draw\sw/lv_draw_sw_arc.c ****     }
 138:..\..\..\arduinoLCD\test\Pain Drain\libraries\lvgl\src\draw\sw/lv_draw_sw_arc.c ****     else {
 139:..\..\..\arduinoLCD\test\Pain Drain\libraries\lvgl\src\draw\sw/lv_draw_sw_arc.c ****         angle_gap = start_angle - end_angle;
 140:..\..\..\arduinoLCD\test\Pain Drain\libraries\lvgl\src\draw\sw/lv_draw_sw_arc.c ****     }
 141:..\..\..\arduinoLCD\test\Pain Drain\libraries\lvgl\src\draw\sw/lv_draw_sw_arc.c **** 
 142:..\..\..\arduinoLCD\test\Pain Drain\libraries\lvgl\src\draw\sw/lv_draw_sw_arc.c ****     const lv_area_t * clip_area_ori = draw_ctx->clip_area;
 143:..\..\..\arduinoLCD\test\Pain Drain\libraries\lvgl\src\draw\sw/lv_draw_sw_arc.c **** 
 144:..\..\..\arduinoLCD\test\Pain Drain\libraries\lvgl\src\draw\sw/lv_draw_sw_arc.c ****     if(angle_gap > SPLIT_ANGLE_GAP_LIMIT && radius > SPLIT_RADIUS_LIMIT) {
ARM GAS  C:\Users\haske\AppData\Local\Temp\ccxlcgkV.s 			page 4


 145:..\..\..\arduinoLCD\test\Pain Drain\libraries\lvgl\src\draw\sw/lv_draw_sw_arc.c ****         /*Handle each quarter individually and skip which is empty*/
 146:..\..\..\arduinoLCD\test\Pain Drain\libraries\lvgl\src\draw\sw/lv_draw_sw_arc.c ****         quarter_draw_dsc_t q_dsc;
 147:..\..\..\arduinoLCD\test\Pain Drain\libraries\lvgl\src\draw\sw/lv_draw_sw_arc.c ****         q_dsc.center = center;
 148:..\..\..\arduinoLCD\test\Pain Drain\libraries\lvgl\src\draw\sw/lv_draw_sw_arc.c ****         q_dsc.radius = radius;
 149:..\..\..\arduinoLCD\test\Pain Drain\libraries\lvgl\src\draw\sw/lv_draw_sw_arc.c ****         q_dsc.start_angle = start_angle;
 150:..\..\..\arduinoLCD\test\Pain Drain\libraries\lvgl\src\draw\sw/lv_draw_sw_arc.c ****         q_dsc.end_angle = end_angle;
 151:..\..\..\arduinoLCD\test\Pain Drain\libraries\lvgl\src\draw\sw/lv_draw_sw_arc.c ****         q_dsc.start_quarter = (start_angle / 90) & 0x3;
 152:..\..\..\arduinoLCD\test\Pain Drain\libraries\lvgl\src\draw\sw/lv_draw_sw_arc.c ****         q_dsc.end_quarter = (end_angle / 90) & 0x3;
 153:..\..\..\arduinoLCD\test\Pain Drain\libraries\lvgl\src\draw\sw/lv_draw_sw_arc.c ****         q_dsc.width = width;
 154:..\..\..\arduinoLCD\test\Pain Drain\libraries\lvgl\src\draw\sw/lv_draw_sw_arc.c ****         q_dsc.draw_dsc = &cir_dsc;
 155:..\..\..\arduinoLCD\test\Pain Drain\libraries\lvgl\src\draw\sw/lv_draw_sw_arc.c ****         q_dsc.draw_area = &area_out;
 156:..\..\..\arduinoLCD\test\Pain Drain\libraries\lvgl\src\draw\sw/lv_draw_sw_arc.c ****         q_dsc.draw_ctx = draw_ctx;
 157:..\..\..\arduinoLCD\test\Pain Drain\libraries\lvgl\src\draw\sw/lv_draw_sw_arc.c **** 
 158:..\..\..\arduinoLCD\test\Pain Drain\libraries\lvgl\src\draw\sw/lv_draw_sw_arc.c ****         draw_quarter_0(&q_dsc);
 159:..\..\..\arduinoLCD\test\Pain Drain\libraries\lvgl\src\draw\sw/lv_draw_sw_arc.c ****         draw_quarter_1(&q_dsc);
 160:..\..\..\arduinoLCD\test\Pain Drain\libraries\lvgl\src\draw\sw/lv_draw_sw_arc.c ****         draw_quarter_2(&q_dsc);
 161:..\..\..\arduinoLCD\test\Pain Drain\libraries\lvgl\src\draw\sw/lv_draw_sw_arc.c ****         draw_quarter_3(&q_dsc);
 162:..\..\..\arduinoLCD\test\Pain Drain\libraries\lvgl\src\draw\sw/lv_draw_sw_arc.c ****     }
 163:..\..\..\arduinoLCD\test\Pain Drain\libraries\lvgl\src\draw\sw/lv_draw_sw_arc.c ****     else {
 164:..\..\..\arduinoLCD\test\Pain Drain\libraries\lvgl\src\draw\sw/lv_draw_sw_arc.c ****         lv_draw_rect(draw_ctx, &cir_dsc, &area_out);
 165:..\..\..\arduinoLCD\test\Pain Drain\libraries\lvgl\src\draw\sw/lv_draw_sw_arc.c ****     }
 166:..\..\..\arduinoLCD\test\Pain Drain\libraries\lvgl\src\draw\sw/lv_draw_sw_arc.c **** 
 167:..\..\..\arduinoLCD\test\Pain Drain\libraries\lvgl\src\draw\sw/lv_draw_sw_arc.c ****     lv_draw_mask_free_param(&mask_angle_param);
 168:..\..\..\arduinoLCD\test\Pain Drain\libraries\lvgl\src\draw\sw/lv_draw_sw_arc.c ****     lv_draw_mask_free_param(&mask_out_param);
 169:..\..\..\arduinoLCD\test\Pain Drain\libraries\lvgl\src\draw\sw/lv_draw_sw_arc.c ****     if(mask_in_param_valid) {
 170:..\..\..\arduinoLCD\test\Pain Drain\libraries\lvgl\src\draw\sw/lv_draw_sw_arc.c ****         lv_draw_mask_free_param(&mask_in_param);
 171:..\..\..\arduinoLCD\test\Pain Drain\libraries\lvgl\src\draw\sw/lv_draw_sw_arc.c ****     }
 172:..\..\..\arduinoLCD\test\Pain Drain\libraries\lvgl\src\draw\sw/lv_draw_sw_arc.c **** 
 173:..\..\..\arduinoLCD\test\Pain Drain\libraries\lvgl\src\draw\sw/lv_draw_sw_arc.c ****     lv_draw_mask_remove_id(mask_angle_id);
 174:..\..\..\arduinoLCD\test\Pain Drain\libraries\lvgl\src\draw\sw/lv_draw_sw_arc.c ****     lv_draw_mask_remove_id(mask_out_id);
 175:..\..\..\arduinoLCD\test\Pain Drain\libraries\lvgl\src\draw\sw/lv_draw_sw_arc.c ****     if(mask_in_id != LV_MASK_ID_INV) lv_draw_mask_remove_id(mask_in_id);
 176:..\..\..\arduinoLCD\test\Pain Drain\libraries\lvgl\src\draw\sw/lv_draw_sw_arc.c **** 
 177:..\..\..\arduinoLCD\test\Pain Drain\libraries\lvgl\src\draw\sw/lv_draw_sw_arc.c ****     if(dsc->rounded) {
 178:..\..\..\arduinoLCD\test\Pain Drain\libraries\lvgl\src\draw\sw/lv_draw_sw_arc.c **** 
 179:..\..\..\arduinoLCD\test\Pain Drain\libraries\lvgl\src\draw\sw/lv_draw_sw_arc.c ****         lv_draw_mask_radius_param_t mask_end_param;
 180:..\..\..\arduinoLCD\test\Pain Drain\libraries\lvgl\src\draw\sw/lv_draw_sw_arc.c **** 
 181:..\..\..\arduinoLCD\test\Pain Drain\libraries\lvgl\src\draw\sw/lv_draw_sw_arc.c ****         lv_area_t round_area;
 182:..\..\..\arduinoLCD\test\Pain Drain\libraries\lvgl\src\draw\sw/lv_draw_sw_arc.c ****         get_rounded_area(start_angle, radius, width, &round_area);
 183:..\..\..\arduinoLCD\test\Pain Drain\libraries\lvgl\src\draw\sw/lv_draw_sw_arc.c ****         round_area.x1 += center->x;
 184:..\..\..\arduinoLCD\test\Pain Drain\libraries\lvgl\src\draw\sw/lv_draw_sw_arc.c ****         round_area.x2 += center->x;
 185:..\..\..\arduinoLCD\test\Pain Drain\libraries\lvgl\src\draw\sw/lv_draw_sw_arc.c ****         round_area.y1 += center->y;
 186:..\..\..\arduinoLCD\test\Pain Drain\libraries\lvgl\src\draw\sw/lv_draw_sw_arc.c ****         round_area.y2 += center->y;
 187:..\..\..\arduinoLCD\test\Pain Drain\libraries\lvgl\src\draw\sw/lv_draw_sw_arc.c ****         lv_area_t clip_area2;
 188:..\..\..\arduinoLCD\test\Pain Drain\libraries\lvgl\src\draw\sw/lv_draw_sw_arc.c ****         if(_lv_area_intersect(&clip_area2, clip_area_ori, &round_area)) {
 189:..\..\..\arduinoLCD\test\Pain Drain\libraries\lvgl\src\draw\sw/lv_draw_sw_arc.c ****             lv_draw_mask_radius_init(&mask_end_param, &round_area, LV_RADIUS_CIRCLE, false);
 190:..\..\..\arduinoLCD\test\Pain Drain\libraries\lvgl\src\draw\sw/lv_draw_sw_arc.c ****             int16_t mask_end_id = lv_draw_mask_add(&mask_end_param, NULL);
 191:..\..\..\arduinoLCD\test\Pain Drain\libraries\lvgl\src\draw\sw/lv_draw_sw_arc.c **** 
 192:..\..\..\arduinoLCD\test\Pain Drain\libraries\lvgl\src\draw\sw/lv_draw_sw_arc.c ****             draw_ctx->clip_area = &clip_area2;
 193:..\..\..\arduinoLCD\test\Pain Drain\libraries\lvgl\src\draw\sw/lv_draw_sw_arc.c ****             lv_draw_rect(draw_ctx, &cir_dsc, &area_out);
 194:..\..\..\arduinoLCD\test\Pain Drain\libraries\lvgl\src\draw\sw/lv_draw_sw_arc.c ****             lv_draw_mask_remove_id(mask_end_id);
 195:..\..\..\arduinoLCD\test\Pain Drain\libraries\lvgl\src\draw\sw/lv_draw_sw_arc.c ****             lv_draw_mask_free_param(&mask_end_param);
 196:..\..\..\arduinoLCD\test\Pain Drain\libraries\lvgl\src\draw\sw/lv_draw_sw_arc.c ****         }
 197:..\..\..\arduinoLCD\test\Pain Drain\libraries\lvgl\src\draw\sw/lv_draw_sw_arc.c **** 
 198:..\..\..\arduinoLCD\test\Pain Drain\libraries\lvgl\src\draw\sw/lv_draw_sw_arc.c ****         get_rounded_area(end_angle, radius, width, &round_area);
 199:..\..\..\arduinoLCD\test\Pain Drain\libraries\lvgl\src\draw\sw/lv_draw_sw_arc.c ****         round_area.x1 += center->x;
 200:..\..\..\arduinoLCD\test\Pain Drain\libraries\lvgl\src\draw\sw/lv_draw_sw_arc.c ****         round_area.x2 += center->x;
 201:..\..\..\arduinoLCD\test\Pain Drain\libraries\lvgl\src\draw\sw/lv_draw_sw_arc.c ****         round_area.y1 += center->y;
ARM GAS  C:\Users\haske\AppData\Local\Temp\ccxlcgkV.s 			page 5


 202:..\..\..\arduinoLCD\test\Pain Drain\libraries\lvgl\src\draw\sw/lv_draw_sw_arc.c ****         round_area.y2 += center->y;
 203:..\..\..\arduinoLCD\test\Pain Drain\libraries\lvgl\src\draw\sw/lv_draw_sw_arc.c ****         if(_lv_area_intersect(&clip_area2, clip_area_ori, &round_area)) {
 204:..\..\..\arduinoLCD\test\Pain Drain\libraries\lvgl\src\draw\sw/lv_draw_sw_arc.c ****             lv_draw_mask_radius_init(&mask_end_param, &round_area, LV_RADIUS_CIRCLE, false);
 205:..\..\..\arduinoLCD\test\Pain Drain\libraries\lvgl\src\draw\sw/lv_draw_sw_arc.c ****             int16_t mask_end_id = lv_draw_mask_add(&mask_end_param, NULL);
 206:..\..\..\arduinoLCD\test\Pain Drain\libraries\lvgl\src\draw\sw/lv_draw_sw_arc.c **** 
 207:..\..\..\arduinoLCD\test\Pain Drain\libraries\lvgl\src\draw\sw/lv_draw_sw_arc.c ****             draw_ctx->clip_area = &clip_area2;
 208:..\..\..\arduinoLCD\test\Pain Drain\libraries\lvgl\src\draw\sw/lv_draw_sw_arc.c ****             lv_draw_rect(draw_ctx, &cir_dsc, &area_out);
 209:..\..\..\arduinoLCD\test\Pain Drain\libraries\lvgl\src\draw\sw/lv_draw_sw_arc.c ****             lv_draw_mask_remove_id(mask_end_id);
 210:..\..\..\arduinoLCD\test\Pain Drain\libraries\lvgl\src\draw\sw/lv_draw_sw_arc.c ****             lv_draw_mask_free_param(&mask_end_param);
 211:..\..\..\arduinoLCD\test\Pain Drain\libraries\lvgl\src\draw\sw/lv_draw_sw_arc.c ****         }
 212:..\..\..\arduinoLCD\test\Pain Drain\libraries\lvgl\src\draw\sw/lv_draw_sw_arc.c ****         draw_ctx->clip_area = clip_area_ori;
 213:..\..\..\arduinoLCD\test\Pain Drain\libraries\lvgl\src\draw\sw/lv_draw_sw_arc.c ****     }
 214:..\..\..\arduinoLCD\test\Pain Drain\libraries\lvgl\src\draw\sw/lv_draw_sw_arc.c **** #else
 215:..\..\..\arduinoLCD\test\Pain Drain\libraries\lvgl\src\draw\sw/lv_draw_sw_arc.c ****     LV_LOG_WARN("Can't draw arc with LV_DRAW_COMPLEX == 0");
 216:..\..\..\arduinoLCD\test\Pain Drain\libraries\lvgl\src\draw\sw/lv_draw_sw_arc.c ****     LV_UNUSED(center);
 217:..\..\..\arduinoLCD\test\Pain Drain\libraries\lvgl\src\draw\sw/lv_draw_sw_arc.c ****     LV_UNUSED(radius);
 218:..\..\..\arduinoLCD\test\Pain Drain\libraries\lvgl\src\draw\sw/lv_draw_sw_arc.c ****     LV_UNUSED(start_angle);
 219:..\..\..\arduinoLCD\test\Pain Drain\libraries\lvgl\src\draw\sw/lv_draw_sw_arc.c ****     LV_UNUSED(end_angle);
 220:..\..\..\arduinoLCD\test\Pain Drain\libraries\lvgl\src\draw\sw/lv_draw_sw_arc.c ****     LV_UNUSED(draw_ctx);
 221:..\..\..\arduinoLCD\test\Pain Drain\libraries\lvgl\src\draw\sw/lv_draw_sw_arc.c ****     LV_UNUSED(dsc);
 222:..\..\..\arduinoLCD\test\Pain Drain\libraries\lvgl\src\draw\sw/lv_draw_sw_arc.c **** #endif /*LV_DRAW_COMPLEX*/
 223:..\..\..\arduinoLCD\test\Pain Drain\libraries\lvgl\src\draw\sw/lv_draw_sw_arc.c **** }
 224:..\..\..\arduinoLCD\test\Pain Drain\libraries\lvgl\src\draw\sw/lv_draw_sw_arc.c **** 
 225:..\..\..\arduinoLCD\test\Pain Drain\libraries\lvgl\src\draw\sw/lv_draw_sw_arc.c **** /**********************
 226:..\..\..\arduinoLCD\test\Pain Drain\libraries\lvgl\src\draw\sw/lv_draw_sw_arc.c ****  *   STATIC FUNCTIONS
 227:..\..\..\arduinoLCD\test\Pain Drain\libraries\lvgl\src\draw\sw/lv_draw_sw_arc.c ****  **********************/
 228:..\..\..\arduinoLCD\test\Pain Drain\libraries\lvgl\src\draw\sw/lv_draw_sw_arc.c **** 
 229:..\..\..\arduinoLCD\test\Pain Drain\libraries\lvgl\src\draw\sw/lv_draw_sw_arc.c **** #if LV_DRAW_COMPLEX
 230:..\..\..\arduinoLCD\test\Pain Drain\libraries\lvgl\src\draw\sw/lv_draw_sw_arc.c **** static void draw_quarter_0(quarter_draw_dsc_t * q)
 231:..\..\..\arduinoLCD\test\Pain Drain\libraries\lvgl\src\draw\sw/lv_draw_sw_arc.c **** {
  28              		.loc 1 231 0
  29              		.cfi_startproc
  30              		@ args = 0, pretend = 0, frame = 8
  31              		@ frame_needed = 0, uses_anonymous_args = 0
  32              	.LVL0:
  33 0000 70B5     		push	{r4, r5, r6, lr}
  34              		.cfi_def_cfa_offset 16
  35              		.cfi_offset 4, -16
  36              		.cfi_offset 5, -12
  37              		.cfi_offset 6, -8
  38              		.cfi_offset 14, -4
  39 0002 82B0     		sub	sp, sp, #8
  40              		.cfi_def_cfa_offset 24
  41 0004 0446     		mov	r4, r0
 232:..\..\..\arduinoLCD\test\Pain Drain\libraries\lvgl\src\draw\sw/lv_draw_sw_arc.c ****     const lv_area_t * clip_area_ori = q->draw_ctx->clip_area;
  42              		.loc 1 232 0
  43 0006 8369     		ldr	r3, [r0, #24]
  44 0008 9D68     		ldr	r5, [r3, #8]
  45              	.LVL1:
 233:..\..\..\arduinoLCD\test\Pain Drain\libraries\lvgl\src\draw\sw/lv_draw_sw_arc.c ****     lv_area_t quarter_area;
 234:..\..\..\arduinoLCD\test\Pain Drain\libraries\lvgl\src\draw\sw/lv_draw_sw_arc.c **** 
 235:..\..\..\arduinoLCD\test\Pain Drain\libraries\lvgl\src\draw\sw/lv_draw_sw_arc.c ****     if(q->start_quarter == 0 && q->end_quarter == 0 && q->start_angle < q->end_angle) {
  46              		.loc 1 235 0
  47 000a 4389     		ldrh	r3, [r0, #10]
  48 000c 002B     		cmp	r3, #0
  49 000e 5AD1     		bne	.L2
  50              		.loc 1 235 0 is_stmt 0 discriminator 1
ARM GAS  C:\Users\haske\AppData\Local\Temp\ccxlcgkV.s 			page 6


  51 0010 8289     		ldrh	r2, [r0, #12]
  52 0012 002A     		cmp	r2, #0
  53 0014 57D1     		bne	.L2
  54              		.loc 1 235 0 discriminator 2
  55 0016 C088     		ldrh	r0, [r0, #6]
  56              	.LVL2:
  57 0018 2289     		ldrh	r2, [r4, #8]
  58 001a 9042     		cmp	r0, r2
  59 001c 53D2     		bcs	.L2
  60              	.LBB12:
 236:..\..\..\arduinoLCD\test\Pain Drain\libraries\lvgl\src\draw\sw/lv_draw_sw_arc.c ****         /*Small arc here*/
 237:..\..\..\arduinoLCD\test\Pain Drain\libraries\lvgl\src\draw\sw/lv_draw_sw_arc.c ****         quarter_area.y1 = q->center->y + ((lv_trigo_sin(q->start_angle) * (q->radius - q->width)) >
  61              		.loc 1 237 0 is_stmt 1
  62 001e 2368     		ldr	r3, [r4]
  63 0020 B3F90260 		ldrsh	r6, [r3, #2]
  64 0024 00B2     		sxth	r0, r0
  65 0026 FFF7FEFF 		bl	lv_trigo_sin
  66              	.LVL3:
  67 002a B4F90430 		ldrsh	r3, [r4, #4]
  68 002e B4F90E20 		ldrsh	r2, [r4, #14]
  69 0032 9B1A     		subs	r3, r3, r2
  70 0034 03FB00F0 		mul	r0, r3, r0
  71 0038 06EBE030 		add	r0, r6, r0, asr #15
  72 003c ADF80200 		strh	r0, [sp, #2]	@ movhi
 238:..\..\..\arduinoLCD\test\Pain Drain\libraries\lvgl\src\draw\sw/lv_draw_sw_arc.c ****         quarter_area.x2 = q->center->x + ((lv_trigo_sin(q->start_angle + 90) * (q->radius)) >> LV_T
  73              		.loc 1 238 0
  74 0040 2368     		ldr	r3, [r4]
  75 0042 B3F90060 		ldrsh	r6, [r3]
  76 0046 E088     		ldrh	r0, [r4, #6]
  77 0048 5A30     		adds	r0, r0, #90
  78 004a 00B2     		sxth	r0, r0
  79 004c FFF7FEFF 		bl	lv_trigo_sin
  80              	.LVL4:
  81 0050 B4F90430 		ldrsh	r3, [r4, #4]
  82 0054 03FB00F0 		mul	r0, r3, r0
  83 0058 06EBE036 		add	r6, r6, r0, asr #15
  84 005c ADF80460 		strh	r6, [sp, #4]	@ movhi
 239:..\..\..\arduinoLCD\test\Pain Drain\libraries\lvgl\src\draw\sw/lv_draw_sw_arc.c **** 
 240:..\..\..\arduinoLCD\test\Pain Drain\libraries\lvgl\src\draw\sw/lv_draw_sw_arc.c ****         quarter_area.y2 = q->center->y + ((lv_trigo_sin(q->end_angle) * q->radius) >> LV_TRIGO_SHIF
  85              		.loc 1 240 0
  86 0060 2368     		ldr	r3, [r4]
  87 0062 B3F90260 		ldrsh	r6, [r3, #2]
  88 0066 B4F90800 		ldrsh	r0, [r4, #8]
  89 006a FFF7FEFF 		bl	lv_trigo_sin
  90              	.LVL5:
  91 006e B4F90430 		ldrsh	r3, [r4, #4]
  92 0072 03FB00F0 		mul	r0, r3, r0
  93 0076 06EBE036 		add	r6, r6, r0, asr #15
  94 007a ADF80660 		strh	r6, [sp, #6]	@ movhi
 241:..\..\..\arduinoLCD\test\Pain Drain\libraries\lvgl\src\draw\sw/lv_draw_sw_arc.c ****         quarter_area.x1 = q->center->x + ((lv_trigo_sin(q->end_angle + 90) * (q->radius - q->width)
  95              		.loc 1 241 0
  96 007e 2368     		ldr	r3, [r4]
  97 0080 B3F90060 		ldrsh	r6, [r3]
  98 0084 2089     		ldrh	r0, [r4, #8]
  99 0086 5A30     		adds	r0, r0, #90
 100 0088 00B2     		sxth	r0, r0
 101 008a FFF7FEFF 		bl	lv_trigo_sin
ARM GAS  C:\Users\haske\AppData\Local\Temp\ccxlcgkV.s 			page 7


 102              	.LVL6:
 103 008e B4F90430 		ldrsh	r3, [r4, #4]
 104 0092 B4F90E20 		ldrsh	r2, [r4, #14]
 105 0096 9B1A     		subs	r3, r3, r2
 106 0098 03FB00F0 		mul	r0, r3, r0
 107 009c 06EBE033 		add	r3, r6, r0, asr #15
 108 00a0 02A8     		add	r0, sp, #8
 109 00a2 20F8083D 		strh	r3, [r0, #-8]!	@ movhi
 242:..\..\..\arduinoLCD\test\Pain Drain\libraries\lvgl\src\draw\sw/lv_draw_sw_arc.c **** 
 243:..\..\..\arduinoLCD\test\Pain Drain\libraries\lvgl\src\draw\sw/lv_draw_sw_arc.c ****         bool ok = _lv_area_intersect(&quarter_area, &quarter_area, clip_area_ori);
 110              		.loc 1 243 0
 111 00a6 2A46     		mov	r2, r5
 112 00a8 0146     		mov	r1, r0
 113 00aa FFF7FEFF 		bl	_lv_area_intersect
 114              	.LVL7:
 244:..\..\..\arduinoLCD\test\Pain Drain\libraries\lvgl\src\draw\sw/lv_draw_sw_arc.c ****         if(ok) {
 115              		.loc 1 244 0
 116 00ae 0028     		cmp	r0, #0
 117 00b0 00F0C080 		beq	.L3
 245:..\..\..\arduinoLCD\test\Pain Drain\libraries\lvgl\src\draw\sw/lv_draw_sw_arc.c ****             q->draw_ctx->clip_area = &quarter_area;
 118              		.loc 1 245 0
 119 00b4 A369     		ldr	r3, [r4, #24]
 120 00b6 C3F808D0 		str	sp, [r3, #8]
 246:..\..\..\arduinoLCD\test\Pain Drain\libraries\lvgl\src\draw\sw/lv_draw_sw_arc.c ****             lv_draw_rect(q->draw_ctx, q->draw_dsc, q->draw_area);
 121              		.loc 1 246 0
 122 00ba 6269     		ldr	r2, [r4, #20]
 123 00bc 2169     		ldr	r1, [r4, #16]
 124 00be A069     		ldr	r0, [r4, #24]
 125              	.LVL8:
 126 00c0 FFF7FEFF 		bl	lv_draw_rect
 127              	.LVL9:
 128 00c4 B6E0     		b	.L3
 129              	.L2:
 130              	.LBE12:
 247:..\..\..\arduinoLCD\test\Pain Drain\libraries\lvgl\src\draw\sw/lv_draw_sw_arc.c ****         }
 248:..\..\..\arduinoLCD\test\Pain Drain\libraries\lvgl\src\draw\sw/lv_draw_sw_arc.c ****     }
 249:..\..\..\arduinoLCD\test\Pain Drain\libraries\lvgl\src\draw\sw/lv_draw_sw_arc.c ****     else if(q->start_quarter == 0 || q->end_quarter == 0) {
 131              		.loc 1 249 0
 132 00c6 13B1     		cbz	r3, .L4
 133              		.loc 1 249 0 is_stmt 0 discriminator 1
 134 00c8 A289     		ldrh	r2, [r4, #12]
 135 00ca 002A     		cmp	r2, #0
 136 00cc 7CD1     		bne	.L5
 137              	.L4:
 250:..\..\..\arduinoLCD\test\Pain Drain\libraries\lvgl\src\draw\sw/lv_draw_sw_arc.c ****         /*Start and/or end arcs here*/
 251:..\..\..\arduinoLCD\test\Pain Drain\libraries\lvgl\src\draw\sw/lv_draw_sw_arc.c ****         if(q->start_quarter == 0) {
 138              		.loc 1 251 0 is_stmt 1
 139 00ce 002B     		cmp	r3, #0
 140 00d0 3AD1     		bne	.L6
 141              	.LBB13:
 252:..\..\..\arduinoLCD\test\Pain Drain\libraries\lvgl\src\draw\sw/lv_draw_sw_arc.c ****             quarter_area.x1 = q->center->x;
 142              		.loc 1 252 0
 143 00d2 2368     		ldr	r3, [r4]
 144 00d4 B3F90020 		ldrsh	r2, [r3]
 145 00d8 ADF80020 		strh	r2, [sp]	@ movhi
 253:..\..\..\arduinoLCD\test\Pain Drain\libraries\lvgl\src\draw\sw/lv_draw_sw_arc.c ****             quarter_area.y2 = q->center->y + q->radius;
 146              		.loc 1 253 0
ARM GAS  C:\Users\haske\AppData\Local\Temp\ccxlcgkV.s 			page 8


 147 00dc B3F90210 		ldrsh	r1, [r3, #2]
 148 00e0 B4F90420 		ldrsh	r2, [r4, #4]
 149 00e4 0A44     		add	r2, r2, r1
 150 00e6 ADF80620 		strh	r2, [sp, #6]	@ movhi
 254:..\..\..\arduinoLCD\test\Pain Drain\libraries\lvgl\src\draw\sw/lv_draw_sw_arc.c **** 
 255:..\..\..\arduinoLCD\test\Pain Drain\libraries\lvgl\src\draw\sw/lv_draw_sw_arc.c ****             quarter_area.y1 = q->center->y + ((lv_trigo_sin(q->start_angle) * (q->radius - q->width
 151              		.loc 1 255 0
 152 00ea B3F90260 		ldrsh	r6, [r3, #2]
 153 00ee B4F90600 		ldrsh	r0, [r4, #6]
 154 00f2 FFF7FEFF 		bl	lv_trigo_sin
 155              	.LVL10:
 156 00f6 B4F90430 		ldrsh	r3, [r4, #4]
 157 00fa B4F90E20 		ldrsh	r2, [r4, #14]
 158 00fe 9B1A     		subs	r3, r3, r2
 159 0100 03FB00F0 		mul	r0, r3, r0
 160 0104 06EBE030 		add	r0, r6, r0, asr #15
 161 0108 ADF80200 		strh	r0, [sp, #2]	@ movhi
 256:..\..\..\arduinoLCD\test\Pain Drain\libraries\lvgl\src\draw\sw/lv_draw_sw_arc.c ****             quarter_area.x2 = q->center->x + ((lv_trigo_sin(q->start_angle + 90) * (q->radius)) >> 
 162              		.loc 1 256 0
 163 010c 2368     		ldr	r3, [r4]
 164 010e B3F90060 		ldrsh	r6, [r3]
 165 0112 E088     		ldrh	r0, [r4, #6]
 166 0114 5A30     		adds	r0, r0, #90
 167 0116 00B2     		sxth	r0, r0
 168 0118 FFF7FEFF 		bl	lv_trigo_sin
 169              	.LVL11:
 170 011c B4F90430 		ldrsh	r3, [r4, #4]
 171 0120 03FB00F0 		mul	r0, r3, r0
 172 0124 06EBE036 		add	r6, r6, r0, asr #15
 173 0128 ADF80460 		strh	r6, [sp, #4]	@ movhi
 257:..\..\..\arduinoLCD\test\Pain Drain\libraries\lvgl\src\draw\sw/lv_draw_sw_arc.c **** 
 258:..\..\..\arduinoLCD\test\Pain Drain\libraries\lvgl\src\draw\sw/lv_draw_sw_arc.c ****             bool ok = _lv_area_intersect(&quarter_area, &quarter_area, clip_area_ori);
 174              		.loc 1 258 0
 175 012c 2A46     		mov	r2, r5
 176 012e 6946     		mov	r1, sp
 177 0130 6846     		mov	r0, sp
 178 0132 FFF7FEFF 		bl	_lv_area_intersect
 179              	.LVL12:
 259:..\..\..\arduinoLCD\test\Pain Drain\libraries\lvgl\src\draw\sw/lv_draw_sw_arc.c ****             if(ok) {
 180              		.loc 1 259 0
 181 0136 38B1     		cbz	r0, .L6
 260:..\..\..\arduinoLCD\test\Pain Drain\libraries\lvgl\src\draw\sw/lv_draw_sw_arc.c ****                 q->draw_ctx->clip_area = &quarter_area;
 182              		.loc 1 260 0
 183 0138 A369     		ldr	r3, [r4, #24]
 184 013a C3F808D0 		str	sp, [r3, #8]
 261:..\..\..\arduinoLCD\test\Pain Drain\libraries\lvgl\src\draw\sw/lv_draw_sw_arc.c ****                 lv_draw_rect(q->draw_ctx, q->draw_dsc, q->draw_area);
 185              		.loc 1 261 0
 186 013e 6269     		ldr	r2, [r4, #20]
 187 0140 2169     		ldr	r1, [r4, #16]
 188 0142 A069     		ldr	r0, [r4, #24]
 189              	.LVL13:
 190 0144 FFF7FEFF 		bl	lv_draw_rect
 191              	.LVL14:
 192              	.L6:
 193              	.LBE13:
 262:..\..\..\arduinoLCD\test\Pain Drain\libraries\lvgl\src\draw\sw/lv_draw_sw_arc.c ****             }
 263:..\..\..\arduinoLCD\test\Pain Drain\libraries\lvgl\src\draw\sw/lv_draw_sw_arc.c ****         }
ARM GAS  C:\Users\haske\AppData\Local\Temp\ccxlcgkV.s 			page 9


 264:..\..\..\arduinoLCD\test\Pain Drain\libraries\lvgl\src\draw\sw/lv_draw_sw_arc.c ****         if(q->end_quarter == 0) {
 194              		.loc 1 264 0
 195 0148 A389     		ldrh	r3, [r4, #12]
 196 014a 002B     		cmp	r3, #0
 197 014c 72D1     		bne	.L3
 198              	.LBB14:
 265:..\..\..\arduinoLCD\test\Pain Drain\libraries\lvgl\src\draw\sw/lv_draw_sw_arc.c ****             quarter_area.x2 = q->center->x + q->radius;
 199              		.loc 1 265 0
 200 014e 2368     		ldr	r3, [r4]
 201 0150 B3F90010 		ldrsh	r1, [r3]
 202 0154 B4F90420 		ldrsh	r2, [r4, #4]
 203 0158 0A44     		add	r2, r2, r1
 204 015a ADF80420 		strh	r2, [sp, #4]	@ movhi
 266:..\..\..\arduinoLCD\test\Pain Drain\libraries\lvgl\src\draw\sw/lv_draw_sw_arc.c ****             quarter_area.y1 = q->center->y;
 205              		.loc 1 266 0
 206 015e B3F90220 		ldrsh	r2, [r3, #2]
 207 0162 ADF80220 		strh	r2, [sp, #2]	@ movhi
 267:..\..\..\arduinoLCD\test\Pain Drain\libraries\lvgl\src\draw\sw/lv_draw_sw_arc.c **** 
 268:..\..\..\arduinoLCD\test\Pain Drain\libraries\lvgl\src\draw\sw/lv_draw_sw_arc.c ****             quarter_area.y2 = q->center->y + ((lv_trigo_sin(q->end_angle) * q->radius) >> LV_TRIGO_
 208              		.loc 1 268 0
 209 0166 B3F90260 		ldrsh	r6, [r3, #2]
 210 016a B4F90800 		ldrsh	r0, [r4, #8]
 211 016e FFF7FEFF 		bl	lv_trigo_sin
 212              	.LVL15:
 213 0172 B4F90430 		ldrsh	r3, [r4, #4]
 214 0176 03FB00F0 		mul	r0, r3, r0
 215 017a 06EBE036 		add	r6, r6, r0, asr #15
 216 017e ADF80660 		strh	r6, [sp, #6]	@ movhi
 269:..\..\..\arduinoLCD\test\Pain Drain\libraries\lvgl\src\draw\sw/lv_draw_sw_arc.c ****             quarter_area.x1 = q->center->x + ((lv_trigo_sin(q->end_angle + 90) * (q->radius - q->wi
 217              		.loc 1 269 0
 218 0182 2368     		ldr	r3, [r4]
 219 0184 B3F90060 		ldrsh	r6, [r3]
 220 0188 2089     		ldrh	r0, [r4, #8]
 221 018a 5A30     		adds	r0, r0, #90
 222 018c 00B2     		sxth	r0, r0
 223 018e FFF7FEFF 		bl	lv_trigo_sin
 224              	.LVL16:
 225 0192 B4F90430 		ldrsh	r3, [r4, #4]
 226 0196 B4F90E20 		ldrsh	r2, [r4, #14]
 227 019a 9B1A     		subs	r3, r3, r2
 228 019c 03FB00F0 		mul	r0, r3, r0
 229 01a0 06EBE033 		add	r3, r6, r0, asr #15
 230 01a4 02A8     		add	r0, sp, #8
 231 01a6 20F8083D 		strh	r3, [r0, #-8]!	@ movhi
 270:..\..\..\arduinoLCD\test\Pain Drain\libraries\lvgl\src\draw\sw/lv_draw_sw_arc.c **** 
 271:..\..\..\arduinoLCD\test\Pain Drain\libraries\lvgl\src\draw\sw/lv_draw_sw_arc.c ****             bool ok = _lv_area_intersect(&quarter_area, &quarter_area, clip_area_ori);
 232              		.loc 1 271 0
 233 01aa 2A46     		mov	r2, r5
 234 01ac 0146     		mov	r1, r0
 235 01ae FFF7FEFF 		bl	_lv_area_intersect
 236              	.LVL17:
 272:..\..\..\arduinoLCD\test\Pain Drain\libraries\lvgl\src\draw\sw/lv_draw_sw_arc.c ****             if(ok) {
 237              		.loc 1 272 0
 238 01b2 0028     		cmp	r0, #0
 239 01b4 3ED0     		beq	.L3
 273:..\..\..\arduinoLCD\test\Pain Drain\libraries\lvgl\src\draw\sw/lv_draw_sw_arc.c ****                 q->draw_ctx->clip_area = &quarter_area;
 240              		.loc 1 273 0
ARM GAS  C:\Users\haske\AppData\Local\Temp\ccxlcgkV.s 			page 10


 241 01b6 A369     		ldr	r3, [r4, #24]
 242 01b8 C3F808D0 		str	sp, [r3, #8]
 274:..\..\..\arduinoLCD\test\Pain Drain\libraries\lvgl\src\draw\sw/lv_draw_sw_arc.c ****                 lv_draw_rect(q->draw_ctx, q->draw_dsc, q->draw_area);
 243              		.loc 1 274 0
 244 01bc 6269     		ldr	r2, [r4, #20]
 245 01be 2169     		ldr	r1, [r4, #16]
 246 01c0 A069     		ldr	r0, [r4, #24]
 247              	.LVL18:
 248 01c2 FFF7FEFF 		bl	lv_draw_rect
 249              	.LVL19:
 250 01c6 35E0     		b	.L3
 251              	.L5:
 252              	.LBE14:
 275:..\..\..\arduinoLCD\test\Pain Drain\libraries\lvgl\src\draw\sw/lv_draw_sw_arc.c ****             }
 276:..\..\..\arduinoLCD\test\Pain Drain\libraries\lvgl\src\draw\sw/lv_draw_sw_arc.c ****         }
 277:..\..\..\arduinoLCD\test\Pain Drain\libraries\lvgl\src\draw\sw/lv_draw_sw_arc.c ****     }
 278:..\..\..\arduinoLCD\test\Pain Drain\libraries\lvgl\src\draw\sw/lv_draw_sw_arc.c ****     else if((q->start_quarter == q->end_quarter && q->start_quarter != 0 && q->end_angle < q->start
 253              		.loc 1 278 0
 254 01c8 9342     		cmp	r3, r2
 255 01ca 04D1     		bne	.L7
 256              		.loc 1 278 0 is_stmt 0 discriminator 1
 257 01cc 1BB1     		cbz	r3, .L7
 258              		.loc 1 278 0 discriminator 3
 259 01ce 2089     		ldrh	r0, [r4, #8]
 260 01d0 E188     		ldrh	r1, [r4, #6]
 261 01d2 8842     		cmp	r0, r1
 262 01d4 0BD3     		bcc	.L8
 263              	.L7:
 264              		.loc 1 278 0 discriminator 5
 265 01d6 022B     		cmp	r3, #2
 266 01d8 01D1     		bne	.L9
 279:..\..\..\arduinoLCD\test\Pain Drain\libraries\lvgl\src\draw\sw/lv_draw_sw_arc.c ****             (q->start_quarter == 2 && q->end_quarter == 1) ||
 267              		.loc 1 279 0 is_stmt 1
 268 01da 012A     		cmp	r2, #1
 269 01dc 07D0     		beq	.L8
 270              	.L9:
 271              		.loc 1 279 0 is_stmt 0 discriminator 1
 272 01de 032B     		cmp	r3, #3
 273 01e0 01D1     		bne	.L10
 280:..\..\..\arduinoLCD\test\Pain Drain\libraries\lvgl\src\draw\sw/lv_draw_sw_arc.c ****             (q->start_quarter == 3 && q->end_quarter == 2) ||
 274              		.loc 1 280 0 is_stmt 1
 275 01e2 022A     		cmp	r2, #2
 276 01e4 03D0     		beq	.L8
 277              	.L10:
 278              		.loc 1 280 0 is_stmt 0 discriminator 1
 279 01e6 032B     		cmp	r3, #3
 280 01e8 24D1     		bne	.L3
 281:..\..\..\arduinoLCD\test\Pain Drain\libraries\lvgl\src\draw\sw/lv_draw_sw_arc.c ****             (q->start_quarter == 3 && q->end_quarter == 1)) {
 281              		.loc 1 281 0 is_stmt 1
 282 01ea 012A     		cmp	r2, #1
 283 01ec 22D1     		bne	.L3
 284              	.L8:
 285              	.LBB15:
 282:..\..\..\arduinoLCD\test\Pain Drain\libraries\lvgl\src\draw\sw/lv_draw_sw_arc.c ****         /*Arc crosses here*/
 283:..\..\..\arduinoLCD\test\Pain Drain\libraries\lvgl\src\draw\sw/lv_draw_sw_arc.c ****         quarter_area.x1 = q->center->x;
 286              		.loc 1 283 0
 287 01ee 2368     		ldr	r3, [r4]
ARM GAS  C:\Users\haske\AppData\Local\Temp\ccxlcgkV.s 			page 11


 288 01f0 B3F90020 		ldrsh	r2, [r3]
 289 01f4 ADF80020 		strh	r2, [sp]	@ movhi
 284:..\..\..\arduinoLCD\test\Pain Drain\libraries\lvgl\src\draw\sw/lv_draw_sw_arc.c ****         quarter_area.y1 = q->center->y;
 290              		.loc 1 284 0
 291 01f8 B3F90220 		ldrsh	r2, [r3, #2]
 292 01fc ADF80220 		strh	r2, [sp, #2]	@ movhi
 285:..\..\..\arduinoLCD\test\Pain Drain\libraries\lvgl\src\draw\sw/lv_draw_sw_arc.c ****         quarter_area.x2 = q->center->x + q->radius;
 293              		.loc 1 285 0
 294 0200 B3F90020 		ldrsh	r2, [r3]
 295 0204 B4F90410 		ldrsh	r1, [r4, #4]
 296 0208 0A44     		add	r2, r2, r1
 297 020a ADF80420 		strh	r2, [sp, #4]	@ movhi
 286:..\..\..\arduinoLCD\test\Pain Drain\libraries\lvgl\src\draw\sw/lv_draw_sw_arc.c ****         quarter_area.y2 = q->center->y + q->radius;
 298              		.loc 1 286 0
 299 020e B3F90230 		ldrsh	r3, [r3, #2]
 300 0212 0B44     		add	r3, r3, r1
 301 0214 ADF80630 		strh	r3, [sp, #6]	@ movhi
 287:..\..\..\arduinoLCD\test\Pain Drain\libraries\lvgl\src\draw\sw/lv_draw_sw_arc.c **** 
 288:..\..\..\arduinoLCD\test\Pain Drain\libraries\lvgl\src\draw\sw/lv_draw_sw_arc.c ****         bool ok = _lv_area_intersect(&quarter_area, &quarter_area, clip_area_ori);
 302              		.loc 1 288 0
 303 0218 2A46     		mov	r2, r5
 304 021a 6946     		mov	r1, sp
 305 021c 6846     		mov	r0, sp
 306 021e FFF7FEFF 		bl	_lv_area_intersect
 307              	.LVL20:
 289:..\..\..\arduinoLCD\test\Pain Drain\libraries\lvgl\src\draw\sw/lv_draw_sw_arc.c ****         if(ok) {
 308              		.loc 1 289 0
 309 0222 38B1     		cbz	r0, .L3
 290:..\..\..\arduinoLCD\test\Pain Drain\libraries\lvgl\src\draw\sw/lv_draw_sw_arc.c ****             q->draw_ctx->clip_area = &quarter_area;
 310              		.loc 1 290 0
 311 0224 A369     		ldr	r3, [r4, #24]
 312 0226 C3F808D0 		str	sp, [r3, #8]
 291:..\..\..\arduinoLCD\test\Pain Drain\libraries\lvgl\src\draw\sw/lv_draw_sw_arc.c ****             lv_draw_rect(q->draw_ctx, q->draw_dsc, q->draw_area);
 313              		.loc 1 291 0
 314 022a 6269     		ldr	r2, [r4, #20]
 315 022c 2169     		ldr	r1, [r4, #16]
 316 022e A069     		ldr	r0, [r4, #24]
 317              	.LVL21:
 318 0230 FFF7FEFF 		bl	lv_draw_rect
 319              	.LVL22:
 320              	.L3:
 321              	.LBE15:
 292:..\..\..\arduinoLCD\test\Pain Drain\libraries\lvgl\src\draw\sw/lv_draw_sw_arc.c ****         }
 293:..\..\..\arduinoLCD\test\Pain Drain\libraries\lvgl\src\draw\sw/lv_draw_sw_arc.c ****     }
 294:..\..\..\arduinoLCD\test\Pain Drain\libraries\lvgl\src\draw\sw/lv_draw_sw_arc.c ****     q->draw_ctx->clip_area = clip_area_ori;
 322              		.loc 1 294 0
 323 0234 A369     		ldr	r3, [r4, #24]
 324 0236 9D60     		str	r5, [r3, #8]
 295:..\..\..\arduinoLCD\test\Pain Drain\libraries\lvgl\src\draw\sw/lv_draw_sw_arc.c **** }
 325              		.loc 1 295 0
 326 0238 02B0     		add	sp, sp, #8
 327              		.cfi_def_cfa_offset 16
 328              		@ sp needed
 329 023a 70BD     		pop	{r4, r5, r6, pc}
 330              		.cfi_endproc
 331              	.LFE57:
 332              		.size	draw_quarter_0, .-draw_quarter_0
ARM GAS  C:\Users\haske\AppData\Local\Temp\ccxlcgkV.s 			page 12


 333              		.section	.text.draw_quarter_1,"ax",%progbits
 334              		.align	2
 335              		.thumb
 336              		.thumb_func
 337              		.type	draw_quarter_1, %function
 338              	draw_quarter_1:
 339              	.LFB58:
 296:..\..\..\arduinoLCD\test\Pain Drain\libraries\lvgl\src\draw\sw/lv_draw_sw_arc.c **** 
 297:..\..\..\arduinoLCD\test\Pain Drain\libraries\lvgl\src\draw\sw/lv_draw_sw_arc.c **** static void draw_quarter_1(quarter_draw_dsc_t * q)
 298:..\..\..\arduinoLCD\test\Pain Drain\libraries\lvgl\src\draw\sw/lv_draw_sw_arc.c **** {
 340              		.loc 1 298 0
 341              		.cfi_startproc
 342              		@ args = 0, pretend = 0, frame = 8
 343              		@ frame_needed = 0, uses_anonymous_args = 0
 344              	.LVL23:
 345 0000 70B5     		push	{r4, r5, r6, lr}
 346              		.cfi_def_cfa_offset 16
 347              		.cfi_offset 4, -16
 348              		.cfi_offset 5, -12
 349              		.cfi_offset 6, -8
 350              		.cfi_offset 14, -4
 351 0002 82B0     		sub	sp, sp, #8
 352              		.cfi_def_cfa_offset 24
 353 0004 0446     		mov	r4, r0
 299:..\..\..\arduinoLCD\test\Pain Drain\libraries\lvgl\src\draw\sw/lv_draw_sw_arc.c ****     const lv_area_t * clip_area_ori = q->draw_ctx->clip_area;
 354              		.loc 1 299 0
 355 0006 8369     		ldr	r3, [r0, #24]
 356 0008 9D68     		ldr	r5, [r3, #8]
 357              	.LVL24:
 300:..\..\..\arduinoLCD\test\Pain Drain\libraries\lvgl\src\draw\sw/lv_draw_sw_arc.c ****     lv_area_t quarter_area;
 301:..\..\..\arduinoLCD\test\Pain Drain\libraries\lvgl\src\draw\sw/lv_draw_sw_arc.c **** 
 302:..\..\..\arduinoLCD\test\Pain Drain\libraries\lvgl\src\draw\sw/lv_draw_sw_arc.c ****     if(q->start_quarter == 1 && q->end_quarter == 1 && q->start_angle < q->end_angle) {
 358              		.loc 1 302 0
 359 000a 4389     		ldrh	r3, [r0, #10]
 360 000c 012B     		cmp	r3, #1
 361 000e 5AD1     		bne	.L13
 362              		.loc 1 302 0 is_stmt 0 discriminator 1
 363 0010 8289     		ldrh	r2, [r0, #12]
 364 0012 012A     		cmp	r2, #1
 365 0014 57D1     		bne	.L13
 366              		.loc 1 302 0 discriminator 2
 367 0016 C088     		ldrh	r0, [r0, #6]
 368              	.LVL25:
 369 0018 2289     		ldrh	r2, [r4, #8]
 370 001a 9042     		cmp	r0, r2
 371 001c 53D2     		bcs	.L13
 372              	.LBB16:
 303:..\..\..\arduinoLCD\test\Pain Drain\libraries\lvgl\src\draw\sw/lv_draw_sw_arc.c ****         /*Small arc here*/
 304:..\..\..\arduinoLCD\test\Pain Drain\libraries\lvgl\src\draw\sw/lv_draw_sw_arc.c ****         quarter_area.y2 = q->center->y + ((lv_trigo_sin(q->start_angle) * (q->radius)) >> LV_TRIGO_
 373              		.loc 1 304 0 is_stmt 1
 374 001e 2368     		ldr	r3, [r4]
 375 0020 B3F90260 		ldrsh	r6, [r3, #2]
 376 0024 00B2     		sxth	r0, r0
 377 0026 FFF7FEFF 		bl	lv_trigo_sin
 378              	.LVL26:
 379 002a B4F90430 		ldrsh	r3, [r4, #4]
 380 002e 03FB00F0 		mul	r0, r3, r0
ARM GAS  C:\Users\haske\AppData\Local\Temp\ccxlcgkV.s 			page 13


 381 0032 06EBE036 		add	r6, r6, r0, asr #15
 382 0036 ADF80660 		strh	r6, [sp, #6]	@ movhi
 305:..\..\..\arduinoLCD\test\Pain Drain\libraries\lvgl\src\draw\sw/lv_draw_sw_arc.c ****         quarter_area.x2 = q->center->x + ((lv_trigo_sin(q->start_angle + 90) * (q->radius - q->widt
 383              		.loc 1 305 0
 384 003a 2368     		ldr	r3, [r4]
 385 003c B3F90060 		ldrsh	r6, [r3]
 386 0040 E088     		ldrh	r0, [r4, #6]
 387 0042 5A30     		adds	r0, r0, #90
 388 0044 00B2     		sxth	r0, r0
 389 0046 FFF7FEFF 		bl	lv_trigo_sin
 390              	.LVL27:
 391 004a B4F90430 		ldrsh	r3, [r4, #4]
 392 004e B4F90E20 		ldrsh	r2, [r4, #14]
 393 0052 9B1A     		subs	r3, r3, r2
 394 0054 03FB00F0 		mul	r0, r3, r0
 395 0058 06EBE030 		add	r0, r6, r0, asr #15
 396 005c ADF80400 		strh	r0, [sp, #4]	@ movhi
 306:..\..\..\arduinoLCD\test\Pain Drain\libraries\lvgl\src\draw\sw/lv_draw_sw_arc.c **** 
 307:..\..\..\arduinoLCD\test\Pain Drain\libraries\lvgl\src\draw\sw/lv_draw_sw_arc.c ****         quarter_area.y1 = q->center->y + ((lv_trigo_sin(q->end_angle) * (q->radius - q->width)) >> 
 397              		.loc 1 307 0
 398 0060 2368     		ldr	r3, [r4]
 399 0062 B3F90260 		ldrsh	r6, [r3, #2]
 400 0066 B4F90800 		ldrsh	r0, [r4, #8]
 401 006a FFF7FEFF 		bl	lv_trigo_sin
 402              	.LVL28:
 403 006e B4F90430 		ldrsh	r3, [r4, #4]
 404 0072 B4F90E20 		ldrsh	r2, [r4, #14]
 405 0076 9B1A     		subs	r3, r3, r2
 406 0078 03FB00F0 		mul	r0, r3, r0
 407 007c 06EBE030 		add	r0, r6, r0, asr #15
 408 0080 ADF80200 		strh	r0, [sp, #2]	@ movhi
 308:..\..\..\arduinoLCD\test\Pain Drain\libraries\lvgl\src\draw\sw/lv_draw_sw_arc.c ****         quarter_area.x1 = q->center->x + ((lv_trigo_sin(q->end_angle + 90) * (q->radius)) >> LV_TRI
 409              		.loc 1 308 0
 410 0084 2368     		ldr	r3, [r4]
 411 0086 B3F90060 		ldrsh	r6, [r3]
 412 008a 2089     		ldrh	r0, [r4, #8]
 413 008c 5A30     		adds	r0, r0, #90
 414 008e 00B2     		sxth	r0, r0
 415 0090 FFF7FEFF 		bl	lv_trigo_sin
 416              	.LVL29:
 417 0094 B4F90430 		ldrsh	r3, [r4, #4]
 418 0098 03FB00F0 		mul	r0, r3, r0
 419 009c 06EBE036 		add	r6, r6, r0, asr #15
 420 00a0 02A8     		add	r0, sp, #8
 421 00a2 20F8086D 		strh	r6, [r0, #-8]!	@ movhi
 309:..\..\..\arduinoLCD\test\Pain Drain\libraries\lvgl\src\draw\sw/lv_draw_sw_arc.c **** 
 310:..\..\..\arduinoLCD\test\Pain Drain\libraries\lvgl\src\draw\sw/lv_draw_sw_arc.c ****         bool ok = _lv_area_intersect(&quarter_area, &quarter_area, clip_area_ori);
 422              		.loc 1 310 0
 423 00a6 2A46     		mov	r2, r5
 424 00a8 0146     		mov	r1, r0
 425 00aa FFF7FEFF 		bl	_lv_area_intersect
 426              	.LVL30:
 311:..\..\..\arduinoLCD\test\Pain Drain\libraries\lvgl\src\draw\sw/lv_draw_sw_arc.c ****         if(ok) {
 427              		.loc 1 311 0
 428 00ae 0028     		cmp	r0, #0
 429 00b0 00F0C280 		beq	.L14
 312:..\..\..\arduinoLCD\test\Pain Drain\libraries\lvgl\src\draw\sw/lv_draw_sw_arc.c ****             q->draw_ctx->clip_area = &quarter_area;
ARM GAS  C:\Users\haske\AppData\Local\Temp\ccxlcgkV.s 			page 14


 430              		.loc 1 312 0
 431 00b4 A369     		ldr	r3, [r4, #24]
 432 00b6 C3F808D0 		str	sp, [r3, #8]
 313:..\..\..\arduinoLCD\test\Pain Drain\libraries\lvgl\src\draw\sw/lv_draw_sw_arc.c ****             lv_draw_rect(q->draw_ctx, q->draw_dsc, q->draw_area);
 433              		.loc 1 313 0
 434 00ba 6269     		ldr	r2, [r4, #20]
 435 00bc 2169     		ldr	r1, [r4, #16]
 436 00be A069     		ldr	r0, [r4, #24]
 437              	.LVL31:
 438 00c0 FFF7FEFF 		bl	lv_draw_rect
 439              	.LVL32:
 440 00c4 B8E0     		b	.L14
 441              	.L13:
 442              	.LBE16:
 314:..\..\..\arduinoLCD\test\Pain Drain\libraries\lvgl\src\draw\sw/lv_draw_sw_arc.c ****         }
 315:..\..\..\arduinoLCD\test\Pain Drain\libraries\lvgl\src\draw\sw/lv_draw_sw_arc.c ****     }
 316:..\..\..\arduinoLCD\test\Pain Drain\libraries\lvgl\src\draw\sw/lv_draw_sw_arc.c ****     else if(q->start_quarter == 1 || q->end_quarter == 1) {
 443              		.loc 1 316 0
 444 00c6 012B     		cmp	r3, #1
 445 00c8 02D0     		beq	.L15
 446              		.loc 1 316 0 is_stmt 0 discriminator 1
 447 00ca A289     		ldrh	r2, [r4, #12]
 448 00cc 012A     		cmp	r2, #1
 449 00ce 7DD1     		bne	.L16
 450              	.L15:
 317:..\..\..\arduinoLCD\test\Pain Drain\libraries\lvgl\src\draw\sw/lv_draw_sw_arc.c ****         /*Start and/or end arcs here*/
 318:..\..\..\arduinoLCD\test\Pain Drain\libraries\lvgl\src\draw\sw/lv_draw_sw_arc.c ****         if(q->start_quarter == 1) {
 451              		.loc 1 318 0 is_stmt 1
 452 00d0 012B     		cmp	r3, #1
 453 00d2 3AD1     		bne	.L17
 454              	.LBB17:
 319:..\..\..\arduinoLCD\test\Pain Drain\libraries\lvgl\src\draw\sw/lv_draw_sw_arc.c ****             quarter_area.x1 = q->center->x - q->radius;
 455              		.loc 1 319 0
 456 00d4 2368     		ldr	r3, [r4]
 457 00d6 B3F90020 		ldrsh	r2, [r3]
 458 00da B4F90410 		ldrsh	r1, [r4, #4]
 459 00de 521A     		subs	r2, r2, r1
 460 00e0 ADF80020 		strh	r2, [sp]	@ movhi
 320:..\..\..\arduinoLCD\test\Pain Drain\libraries\lvgl\src\draw\sw/lv_draw_sw_arc.c ****             quarter_area.y1 = q->center->y;
 461              		.loc 1 320 0
 462 00e4 B3F90220 		ldrsh	r2, [r3, #2]
 463 00e8 ADF80220 		strh	r2, [sp, #2]	@ movhi
 321:..\..\..\arduinoLCD\test\Pain Drain\libraries\lvgl\src\draw\sw/lv_draw_sw_arc.c **** 
 322:..\..\..\arduinoLCD\test\Pain Drain\libraries\lvgl\src\draw\sw/lv_draw_sw_arc.c ****             quarter_area.y2 = q->center->y + ((lv_trigo_sin(q->start_angle) * (q->radius)) >> LV_TR
 464              		.loc 1 322 0
 465 00ec B3F90260 		ldrsh	r6, [r3, #2]
 466 00f0 B4F90600 		ldrsh	r0, [r4, #6]
 467 00f4 FFF7FEFF 		bl	lv_trigo_sin
 468              	.LVL33:
 469 00f8 B4F90430 		ldrsh	r3, [r4, #4]
 470 00fc 03FB00F0 		mul	r0, r3, r0
 471 0100 06EBE036 		add	r6, r6, r0, asr #15
 472 0104 ADF80660 		strh	r6, [sp, #6]	@ movhi
 323:..\..\..\arduinoLCD\test\Pain Drain\libraries\lvgl\src\draw\sw/lv_draw_sw_arc.c ****             quarter_area.x2 = q->center->x + ((lv_trigo_sin(q->start_angle + 90) * (q->radius - q->
 473              		.loc 1 323 0
 474 0108 2368     		ldr	r3, [r4]
 475 010a B3F90060 		ldrsh	r6, [r3]
ARM GAS  C:\Users\haske\AppData\Local\Temp\ccxlcgkV.s 			page 15


 476 010e E088     		ldrh	r0, [r4, #6]
 477 0110 5A30     		adds	r0, r0, #90
 478 0112 00B2     		sxth	r0, r0
 479 0114 FFF7FEFF 		bl	lv_trigo_sin
 480              	.LVL34:
 481 0118 B4F90430 		ldrsh	r3, [r4, #4]
 482 011c B4F90E20 		ldrsh	r2, [r4, #14]
 483 0120 9B1A     		subs	r3, r3, r2
 484 0122 03FB00F0 		mul	r0, r3, r0
 485 0126 06EBE030 		add	r0, r6, r0, asr #15
 486 012a ADF80400 		strh	r0, [sp, #4]	@ movhi
 324:..\..\..\arduinoLCD\test\Pain Drain\libraries\lvgl\src\draw\sw/lv_draw_sw_arc.c **** 
 325:..\..\..\arduinoLCD\test\Pain Drain\libraries\lvgl\src\draw\sw/lv_draw_sw_arc.c ****             bool ok = _lv_area_intersect(&quarter_area, &quarter_area, clip_area_ori);
 487              		.loc 1 325 0
 488 012e 2A46     		mov	r2, r5
 489 0130 6946     		mov	r1, sp
 490 0132 6846     		mov	r0, sp
 491 0134 FFF7FEFF 		bl	_lv_area_intersect
 492              	.LVL35:
 326:..\..\..\arduinoLCD\test\Pain Drain\libraries\lvgl\src\draw\sw/lv_draw_sw_arc.c ****             if(ok) {
 493              		.loc 1 326 0
 494 0138 38B1     		cbz	r0, .L17
 327:..\..\..\arduinoLCD\test\Pain Drain\libraries\lvgl\src\draw\sw/lv_draw_sw_arc.c ****                 q->draw_ctx->clip_area = &quarter_area;
 495              		.loc 1 327 0
 496 013a A369     		ldr	r3, [r4, #24]
 497 013c C3F808D0 		str	sp, [r3, #8]
 328:..\..\..\arduinoLCD\test\Pain Drain\libraries\lvgl\src\draw\sw/lv_draw_sw_arc.c ****                 lv_draw_rect(q->draw_ctx, q->draw_dsc, q->draw_area);
 498              		.loc 1 328 0
 499 0140 6269     		ldr	r2, [r4, #20]
 500 0142 2169     		ldr	r1, [r4, #16]
 501 0144 A069     		ldr	r0, [r4, #24]
 502              	.LVL36:
 503 0146 FFF7FEFF 		bl	lv_draw_rect
 504              	.LVL37:
 505              	.L17:
 506              	.LBE17:
 329:..\..\..\arduinoLCD\test\Pain Drain\libraries\lvgl\src\draw\sw/lv_draw_sw_arc.c ****             }
 330:..\..\..\arduinoLCD\test\Pain Drain\libraries\lvgl\src\draw\sw/lv_draw_sw_arc.c ****         }
 331:..\..\..\arduinoLCD\test\Pain Drain\libraries\lvgl\src\draw\sw/lv_draw_sw_arc.c ****         if(q->end_quarter == 1) {
 507              		.loc 1 331 0
 508 014a A389     		ldrh	r3, [r4, #12]
 509 014c 012B     		cmp	r3, #1
 510 014e 73D1     		bne	.L14
 511              	.LBB18:
 332:..\..\..\arduinoLCD\test\Pain Drain\libraries\lvgl\src\draw\sw/lv_draw_sw_arc.c ****             quarter_area.x2 = q->center->x - 1;
 512              		.loc 1 332 0
 513 0150 2368     		ldr	r3, [r4]
 514 0152 B3F90020 		ldrsh	r2, [r3]
 515 0156 013A     		subs	r2, r2, #1
 516 0158 ADF80420 		strh	r2, [sp, #4]	@ movhi
 333:..\..\..\arduinoLCD\test\Pain Drain\libraries\lvgl\src\draw\sw/lv_draw_sw_arc.c ****             quarter_area.y2 = q->center->y + q->radius;
 517              		.loc 1 333 0
 518 015c B3F90210 		ldrsh	r1, [r3, #2]
 519 0160 B4F90420 		ldrsh	r2, [r4, #4]
 520 0164 0A44     		add	r2, r2, r1
 521 0166 ADF80620 		strh	r2, [sp, #6]	@ movhi
 334:..\..\..\arduinoLCD\test\Pain Drain\libraries\lvgl\src\draw\sw/lv_draw_sw_arc.c **** 
ARM GAS  C:\Users\haske\AppData\Local\Temp\ccxlcgkV.s 			page 16


 335:..\..\..\arduinoLCD\test\Pain Drain\libraries\lvgl\src\draw\sw/lv_draw_sw_arc.c ****             quarter_area.y1 = q->center->y + ((lv_trigo_sin(q->end_angle) * (q->radius - q->width))
 522              		.loc 1 335 0
 523 016a B3F90260 		ldrsh	r6, [r3, #2]
 524 016e B4F90800 		ldrsh	r0, [r4, #8]
 525 0172 FFF7FEFF 		bl	lv_trigo_sin
 526              	.LVL38:
 527 0176 B4F90430 		ldrsh	r3, [r4, #4]
 528 017a B4F90E20 		ldrsh	r2, [r4, #14]
 529 017e 9B1A     		subs	r3, r3, r2
 530 0180 03FB00F0 		mul	r0, r3, r0
 531 0184 06EBE030 		add	r0, r6, r0, asr #15
 532 0188 ADF80200 		strh	r0, [sp, #2]	@ movhi
 336:..\..\..\arduinoLCD\test\Pain Drain\libraries\lvgl\src\draw\sw/lv_draw_sw_arc.c ****             quarter_area.x1 = q->center->x + ((lv_trigo_sin(q->end_angle + 90) * (q->radius)) >> LV
 533              		.loc 1 336 0
 534 018c 2368     		ldr	r3, [r4]
 535 018e B3F90060 		ldrsh	r6, [r3]
 536 0192 2089     		ldrh	r0, [r4, #8]
 537 0194 5A30     		adds	r0, r0, #90
 538 0196 00B2     		sxth	r0, r0
 539 0198 FFF7FEFF 		bl	lv_trigo_sin
 540              	.LVL39:
 541 019c B4F90430 		ldrsh	r3, [r4, #4]
 542 01a0 03FB00F0 		mul	r0, r3, r0
 543 01a4 06EBE036 		add	r6, r6, r0, asr #15
 544 01a8 02A8     		add	r0, sp, #8
 545 01aa 20F8086D 		strh	r6, [r0, #-8]!	@ movhi
 337:..\..\..\arduinoLCD\test\Pain Drain\libraries\lvgl\src\draw\sw/lv_draw_sw_arc.c **** 
 338:..\..\..\arduinoLCD\test\Pain Drain\libraries\lvgl\src\draw\sw/lv_draw_sw_arc.c ****             bool ok = _lv_area_intersect(&quarter_area, &quarter_area, clip_area_ori);
 546              		.loc 1 338 0
 547 01ae 2A46     		mov	r2, r5
 548 01b0 0146     		mov	r1, r0
 549 01b2 FFF7FEFF 		bl	_lv_area_intersect
 550              	.LVL40:
 339:..\..\..\arduinoLCD\test\Pain Drain\libraries\lvgl\src\draw\sw/lv_draw_sw_arc.c ****             if(ok) {
 551              		.loc 1 339 0
 552 01b6 0028     		cmp	r0, #0
 553 01b8 3ED0     		beq	.L14
 340:..\..\..\arduinoLCD\test\Pain Drain\libraries\lvgl\src\draw\sw/lv_draw_sw_arc.c ****                 q->draw_ctx->clip_area = &quarter_area;
 554              		.loc 1 340 0
 555 01ba A369     		ldr	r3, [r4, #24]
 556 01bc C3F808D0 		str	sp, [r3, #8]
 341:..\..\..\arduinoLCD\test\Pain Drain\libraries\lvgl\src\draw\sw/lv_draw_sw_arc.c ****                 lv_draw_rect(q->draw_ctx, q->draw_dsc, q->draw_area);
 557              		.loc 1 341 0
 558 01c0 6269     		ldr	r2, [r4, #20]
 559 01c2 2169     		ldr	r1, [r4, #16]
 560 01c4 A069     		ldr	r0, [r4, #24]
 561              	.LVL41:
 562 01c6 FFF7FEFF 		bl	lv_draw_rect
 563              	.LVL42:
 564 01ca 35E0     		b	.L14
 565              	.L16:
 566              	.LBE18:
 342:..\..\..\arduinoLCD\test\Pain Drain\libraries\lvgl\src\draw\sw/lv_draw_sw_arc.c ****             }
 343:..\..\..\arduinoLCD\test\Pain Drain\libraries\lvgl\src\draw\sw/lv_draw_sw_arc.c ****         }
 344:..\..\..\arduinoLCD\test\Pain Drain\libraries\lvgl\src\draw\sw/lv_draw_sw_arc.c ****     }
 345:..\..\..\arduinoLCD\test\Pain Drain\libraries\lvgl\src\draw\sw/lv_draw_sw_arc.c ****     else if((q->start_quarter == q->end_quarter && q->start_quarter != 1 && q->end_angle < q->start
 567              		.loc 1 345 0
ARM GAS  C:\Users\haske\AppData\Local\Temp\ccxlcgkV.s 			page 17


 568 01cc 9342     		cmp	r3, r2
 569 01ce 05D1     		bne	.L18
 570              		.loc 1 345 0 is_stmt 0 discriminator 1
 571 01d0 012B     		cmp	r3, #1
 572 01d2 03D0     		beq	.L18
 573              		.loc 1 345 0 discriminator 3
 574 01d4 2089     		ldrh	r0, [r4, #8]
 575 01d6 E188     		ldrh	r1, [r4, #6]
 576 01d8 8842     		cmp	r0, r1
 577 01da 09D3     		bcc	.L19
 578              	.L18:
 579              		.loc 1 345 0 discriminator 5
 580 01dc 0BB9     		cbnz	r3, .L20
 346:..\..\..\arduinoLCD\test\Pain Drain\libraries\lvgl\src\draw\sw/lv_draw_sw_arc.c ****             (q->start_quarter == 0 && q->end_quarter == 2) ||
 581              		.loc 1 346 0 is_stmt 1
 582 01de 022A     		cmp	r2, #2
 583 01e0 06D0     		beq	.L19
 584              	.L20:
 585              		.loc 1 346 0 is_stmt 0 discriminator 1
 586 01e2 0BB9     		cbnz	r3, .L21
 347:..\..\..\arduinoLCD\test\Pain Drain\libraries\lvgl\src\draw\sw/lv_draw_sw_arc.c ****             (q->start_quarter == 0 && q->end_quarter == 3) ||
 587              		.loc 1 347 0 is_stmt 1
 588 01e4 032A     		cmp	r2, #3
 589 01e6 03D0     		beq	.L19
 590              	.L21:
 591              		.loc 1 347 0 is_stmt 0 discriminator 1
 592 01e8 032B     		cmp	r3, #3
 593 01ea 25D1     		bne	.L14
 348:..\..\..\arduinoLCD\test\Pain Drain\libraries\lvgl\src\draw\sw/lv_draw_sw_arc.c ****             (q->start_quarter == 3 && q->end_quarter == 2)) {
 594              		.loc 1 348 0 is_stmt 1
 595 01ec 022A     		cmp	r2, #2
 596 01ee 23D1     		bne	.L14
 597              	.L19:
 598              	.LBB19:
 349:..\..\..\arduinoLCD\test\Pain Drain\libraries\lvgl\src\draw\sw/lv_draw_sw_arc.c ****         /*Arc crosses here*/
 350:..\..\..\arduinoLCD\test\Pain Drain\libraries\lvgl\src\draw\sw/lv_draw_sw_arc.c ****         quarter_area.x1 = q->center->x - q->radius;
 599              		.loc 1 350 0
 600 01f0 2368     		ldr	r3, [r4]
 601 01f2 B3F90020 		ldrsh	r2, [r3]
 602 01f6 B4F90410 		ldrsh	r1, [r4, #4]
 603 01fa 521A     		subs	r2, r2, r1
 604 01fc ADF80020 		strh	r2, [sp]	@ movhi
 351:..\..\..\arduinoLCD\test\Pain Drain\libraries\lvgl\src\draw\sw/lv_draw_sw_arc.c ****         quarter_area.y1 = q->center->y;
 605              		.loc 1 351 0
 606 0200 B3F90220 		ldrsh	r2, [r3, #2]
 607 0204 ADF80220 		strh	r2, [sp, #2]	@ movhi
 352:..\..\..\arduinoLCD\test\Pain Drain\libraries\lvgl\src\draw\sw/lv_draw_sw_arc.c ****         quarter_area.x2 = q->center->x - 1;
 608              		.loc 1 352 0
 609 0208 B3F90020 		ldrsh	r2, [r3]
 610 020c 013A     		subs	r2, r2, #1
 611 020e ADF80420 		strh	r2, [sp, #4]	@ movhi
 353:..\..\..\arduinoLCD\test\Pain Drain\libraries\lvgl\src\draw\sw/lv_draw_sw_arc.c ****         quarter_area.y2 = q->center->y + q->radius;
 612              		.loc 1 353 0
 613 0212 B3F90230 		ldrsh	r3, [r3, #2]
 614 0216 0B44     		add	r3, r3, r1
 615 0218 ADF80630 		strh	r3, [sp, #6]	@ movhi
 354:..\..\..\arduinoLCD\test\Pain Drain\libraries\lvgl\src\draw\sw/lv_draw_sw_arc.c **** 
ARM GAS  C:\Users\haske\AppData\Local\Temp\ccxlcgkV.s 			page 18


 355:..\..\..\arduinoLCD\test\Pain Drain\libraries\lvgl\src\draw\sw/lv_draw_sw_arc.c ****         bool ok = _lv_area_intersect(&quarter_area, &quarter_area, clip_area_ori);
 616              		.loc 1 355 0
 617 021c 2A46     		mov	r2, r5
 618 021e 6946     		mov	r1, sp
 619 0220 6846     		mov	r0, sp
 620 0222 FFF7FEFF 		bl	_lv_area_intersect
 621              	.LVL43:
 356:..\..\..\arduinoLCD\test\Pain Drain\libraries\lvgl\src\draw\sw/lv_draw_sw_arc.c ****         if(ok) {
 622              		.loc 1 356 0
 623 0226 38B1     		cbz	r0, .L14
 357:..\..\..\arduinoLCD\test\Pain Drain\libraries\lvgl\src\draw\sw/lv_draw_sw_arc.c ****             q->draw_ctx->clip_area = &quarter_area;
 624              		.loc 1 357 0
 625 0228 A369     		ldr	r3, [r4, #24]
 626 022a C3F808D0 		str	sp, [r3, #8]
 358:..\..\..\arduinoLCD\test\Pain Drain\libraries\lvgl\src\draw\sw/lv_draw_sw_arc.c ****             lv_draw_rect(q->draw_ctx, q->draw_dsc, q->draw_area);
 627              		.loc 1 358 0
 628 022e 6269     		ldr	r2, [r4, #20]
 629 0230 2169     		ldr	r1, [r4, #16]
 630 0232 A069     		ldr	r0, [r4, #24]
 631              	.LVL44:
 632 0234 FFF7FEFF 		bl	lv_draw_rect
 633              	.LVL45:
 634              	.L14:
 635              	.LBE19:
 359:..\..\..\arduinoLCD\test\Pain Drain\libraries\lvgl\src\draw\sw/lv_draw_sw_arc.c ****         }
 360:..\..\..\arduinoLCD\test\Pain Drain\libraries\lvgl\src\draw\sw/lv_draw_sw_arc.c ****     }
 361:..\..\..\arduinoLCD\test\Pain Drain\libraries\lvgl\src\draw\sw/lv_draw_sw_arc.c ****     q->draw_ctx->clip_area = clip_area_ori;
 636              		.loc 1 361 0
 637 0238 A369     		ldr	r3, [r4, #24]
 638 023a 9D60     		str	r5, [r3, #8]
 362:..\..\..\arduinoLCD\test\Pain Drain\libraries\lvgl\src\draw\sw/lv_draw_sw_arc.c **** }
 639              		.loc 1 362 0
 640 023c 02B0     		add	sp, sp, #8
 641              		.cfi_def_cfa_offset 16
 642              		@ sp needed
 643 023e 70BD     		pop	{r4, r5, r6, pc}
 644              		.cfi_endproc
 645              	.LFE58:
 646              		.size	draw_quarter_1, .-draw_quarter_1
 647              		.section	.text.draw_quarter_2,"ax",%progbits
 648              		.align	2
 649              		.thumb
 650              		.thumb_func
 651              		.type	draw_quarter_2, %function
 652              	draw_quarter_2:
 653              	.LFB59:
 363:..\..\..\arduinoLCD\test\Pain Drain\libraries\lvgl\src\draw\sw/lv_draw_sw_arc.c **** 
 364:..\..\..\arduinoLCD\test\Pain Drain\libraries\lvgl\src\draw\sw/lv_draw_sw_arc.c **** static void draw_quarter_2(quarter_draw_dsc_t * q)
 365:..\..\..\arduinoLCD\test\Pain Drain\libraries\lvgl\src\draw\sw/lv_draw_sw_arc.c **** {
 654              		.loc 1 365 0
 655              		.cfi_startproc
 656              		@ args = 0, pretend = 0, frame = 8
 657              		@ frame_needed = 0, uses_anonymous_args = 0
 658              	.LVL46:
 659 0000 70B5     		push	{r4, r5, r6, lr}
 660              		.cfi_def_cfa_offset 16
 661              		.cfi_offset 4, -16
ARM GAS  C:\Users\haske\AppData\Local\Temp\ccxlcgkV.s 			page 19


 662              		.cfi_offset 5, -12
 663              		.cfi_offset 6, -8
 664              		.cfi_offset 14, -4
 665 0002 82B0     		sub	sp, sp, #8
 666              		.cfi_def_cfa_offset 24
 667 0004 0446     		mov	r4, r0
 366:..\..\..\arduinoLCD\test\Pain Drain\libraries\lvgl\src\draw\sw/lv_draw_sw_arc.c ****     const lv_area_t * clip_area_ori = q->draw_ctx->clip_area;
 668              		.loc 1 366 0
 669 0006 8369     		ldr	r3, [r0, #24]
 670 0008 9D68     		ldr	r5, [r3, #8]
 671              	.LVL47:
 367:..\..\..\arduinoLCD\test\Pain Drain\libraries\lvgl\src\draw\sw/lv_draw_sw_arc.c ****     lv_area_t quarter_area;
 368:..\..\..\arduinoLCD\test\Pain Drain\libraries\lvgl\src\draw\sw/lv_draw_sw_arc.c **** 
 369:..\..\..\arduinoLCD\test\Pain Drain\libraries\lvgl\src\draw\sw/lv_draw_sw_arc.c ****     if(q->start_quarter == 2 && q->end_quarter == 2 && q->start_angle < q->end_angle) {
 672              		.loc 1 369 0
 673 000a 4389     		ldrh	r3, [r0, #10]
 674 000c 022B     		cmp	r3, #2
 675 000e 5AD1     		bne	.L24
 676              		.loc 1 369 0 is_stmt 0 discriminator 1
 677 0010 8289     		ldrh	r2, [r0, #12]
 678 0012 022A     		cmp	r2, #2
 679 0014 57D1     		bne	.L24
 680              		.loc 1 369 0 discriminator 2
 681 0016 C088     		ldrh	r0, [r0, #6]
 682              	.LVL48:
 683 0018 2289     		ldrh	r2, [r4, #8]
 684 001a 9042     		cmp	r0, r2
 685 001c 53D2     		bcs	.L24
 686              	.LBB20:
 370:..\..\..\arduinoLCD\test\Pain Drain\libraries\lvgl\src\draw\sw/lv_draw_sw_arc.c ****         /*Small arc here*/
 371:..\..\..\arduinoLCD\test\Pain Drain\libraries\lvgl\src\draw\sw/lv_draw_sw_arc.c ****         quarter_area.x1 = q->center->x + ((lv_trigo_sin(q->start_angle + 90) * (q->radius)) >> LV_T
 687              		.loc 1 371 0 is_stmt 1
 688 001e 2368     		ldr	r3, [r4]
 689 0020 B3F90060 		ldrsh	r6, [r3]
 690 0024 5A30     		adds	r0, r0, #90
 691 0026 00B2     		sxth	r0, r0
 692 0028 FFF7FEFF 		bl	lv_trigo_sin
 693              	.LVL49:
 694 002c B4F90430 		ldrsh	r3, [r4, #4]
 695 0030 03FB00F0 		mul	r0, r3, r0
 696 0034 06EBE036 		add	r6, r6, r0, asr #15
 697 0038 ADF80060 		strh	r6, [sp]	@ movhi
 372:..\..\..\arduinoLCD\test\Pain Drain\libraries\lvgl\src\draw\sw/lv_draw_sw_arc.c ****         quarter_area.y2 = q->center->y + ((lv_trigo_sin(q->start_angle) * (q->radius - q->width)) >
 698              		.loc 1 372 0
 699 003c 2368     		ldr	r3, [r4]
 700 003e B3F90260 		ldrsh	r6, [r3, #2]
 701 0042 B4F90600 		ldrsh	r0, [r4, #6]
 702 0046 FFF7FEFF 		bl	lv_trigo_sin
 703              	.LVL50:
 704 004a B4F90430 		ldrsh	r3, [r4, #4]
 705 004e B4F90E20 		ldrsh	r2, [r4, #14]
 706 0052 9B1A     		subs	r3, r3, r2
 707 0054 03FB00F0 		mul	r0, r3, r0
 708 0058 06EBE030 		add	r0, r6, r0, asr #15
 709 005c ADF80600 		strh	r0, [sp, #6]	@ movhi
 373:..\..\..\arduinoLCD\test\Pain Drain\libraries\lvgl\src\draw\sw/lv_draw_sw_arc.c **** 
 374:..\..\..\arduinoLCD\test\Pain Drain\libraries\lvgl\src\draw\sw/lv_draw_sw_arc.c ****         quarter_area.y1 = q->center->y + ((lv_trigo_sin(q->end_angle) * q->radius) >> LV_TRIGO_SHIF
ARM GAS  C:\Users\haske\AppData\Local\Temp\ccxlcgkV.s 			page 20


 710              		.loc 1 374 0
 711 0060 2368     		ldr	r3, [r4]
 712 0062 B3F90260 		ldrsh	r6, [r3, #2]
 713 0066 B4F90800 		ldrsh	r0, [r4, #8]
 714 006a FFF7FEFF 		bl	lv_trigo_sin
 715              	.LVL51:
 716 006e B4F90430 		ldrsh	r3, [r4, #4]
 717 0072 03FB00F0 		mul	r0, r3, r0
 718 0076 06EBE036 		add	r6, r6, r0, asr #15
 719 007a ADF80260 		strh	r6, [sp, #2]	@ movhi
 375:..\..\..\arduinoLCD\test\Pain Drain\libraries\lvgl\src\draw\sw/lv_draw_sw_arc.c ****         quarter_area.x2 = q->center->x + ((lv_trigo_sin(q->end_angle + 90) * (q->radius - q->width)
 720              		.loc 1 375 0
 721 007e 2368     		ldr	r3, [r4]
 722 0080 B3F90060 		ldrsh	r6, [r3]
 723 0084 2089     		ldrh	r0, [r4, #8]
 724 0086 5A30     		adds	r0, r0, #90
 725 0088 00B2     		sxth	r0, r0
 726 008a FFF7FEFF 		bl	lv_trigo_sin
 727              	.LVL52:
 728 008e B4F90430 		ldrsh	r3, [r4, #4]
 729 0092 B4F90E20 		ldrsh	r2, [r4, #14]
 730 0096 9B1A     		subs	r3, r3, r2
 731 0098 03FB00F0 		mul	r0, r3, r0
 732 009c 06EBE030 		add	r0, r6, r0, asr #15
 733 00a0 ADF80400 		strh	r0, [sp, #4]	@ movhi
 376:..\..\..\arduinoLCD\test\Pain Drain\libraries\lvgl\src\draw\sw/lv_draw_sw_arc.c **** 
 377:..\..\..\arduinoLCD\test\Pain Drain\libraries\lvgl\src\draw\sw/lv_draw_sw_arc.c ****         bool ok = _lv_area_intersect(&quarter_area, &quarter_area, clip_area_ori);
 734              		.loc 1 377 0
 735 00a4 2A46     		mov	r2, r5
 736 00a6 6946     		mov	r1, sp
 737 00a8 6846     		mov	r0, sp
 738 00aa FFF7FEFF 		bl	_lv_area_intersect
 739              	.LVL53:
 378:..\..\..\arduinoLCD\test\Pain Drain\libraries\lvgl\src\draw\sw/lv_draw_sw_arc.c ****         if(ok) {
 740              		.loc 1 378 0
 741 00ae 0028     		cmp	r0, #0
 742 00b0 00F0C380 		beq	.L25
 379:..\..\..\arduinoLCD\test\Pain Drain\libraries\lvgl\src\draw\sw/lv_draw_sw_arc.c ****             q->draw_ctx->clip_area = &quarter_area;
 743              		.loc 1 379 0
 744 00b4 A369     		ldr	r3, [r4, #24]
 745 00b6 C3F808D0 		str	sp, [r3, #8]
 380:..\..\..\arduinoLCD\test\Pain Drain\libraries\lvgl\src\draw\sw/lv_draw_sw_arc.c ****             lv_draw_rect(q->draw_ctx, q->draw_dsc, q->draw_area);
 746              		.loc 1 380 0
 747 00ba 6269     		ldr	r2, [r4, #20]
 748 00bc 2169     		ldr	r1, [r4, #16]
 749 00be A069     		ldr	r0, [r4, #24]
 750              	.LVL54:
 751 00c0 FFF7FEFF 		bl	lv_draw_rect
 752              	.LVL55:
 753 00c4 B9E0     		b	.L25
 754              	.L24:
 755              	.LBE20:
 381:..\..\..\arduinoLCD\test\Pain Drain\libraries\lvgl\src\draw\sw/lv_draw_sw_arc.c ****         }
 382:..\..\..\arduinoLCD\test\Pain Drain\libraries\lvgl\src\draw\sw/lv_draw_sw_arc.c ****     }
 383:..\..\..\arduinoLCD\test\Pain Drain\libraries\lvgl\src\draw\sw/lv_draw_sw_arc.c ****     else if(q->start_quarter == 2 || q->end_quarter == 2) {
 756              		.loc 1 383 0
 757 00c6 022B     		cmp	r3, #2
ARM GAS  C:\Users\haske\AppData\Local\Temp\ccxlcgkV.s 			page 21


 758 00c8 02D0     		beq	.L26
 759              		.loc 1 383 0 is_stmt 0 discriminator 1
 760 00ca A289     		ldrh	r2, [r4, #12]
 761 00cc 022A     		cmp	r2, #2
 762 00ce 7ED1     		bne	.L27
 763              	.L26:
 384:..\..\..\arduinoLCD\test\Pain Drain\libraries\lvgl\src\draw\sw/lv_draw_sw_arc.c ****         /*Start and/or end arcs here*/
 385:..\..\..\arduinoLCD\test\Pain Drain\libraries\lvgl\src\draw\sw/lv_draw_sw_arc.c ****         if(q->start_quarter == 2) {
 764              		.loc 1 385 0 is_stmt 1
 765 00d0 022B     		cmp	r3, #2
 766 00d2 3BD1     		bne	.L28
 767              	.LBB21:
 386:..\..\..\arduinoLCD\test\Pain Drain\libraries\lvgl\src\draw\sw/lv_draw_sw_arc.c ****             quarter_area.x2 = q->center->x - 1;
 768              		.loc 1 386 0
 769 00d4 2368     		ldr	r3, [r4]
 770 00d6 B3F90020 		ldrsh	r2, [r3]
 771 00da 013A     		subs	r2, r2, #1
 772 00dc ADF80420 		strh	r2, [sp, #4]	@ movhi
 387:..\..\..\arduinoLCD\test\Pain Drain\libraries\lvgl\src\draw\sw/lv_draw_sw_arc.c ****             quarter_area.y1 = q->center->y - q->radius;
 773              		.loc 1 387 0
 774 00e0 B3F90220 		ldrsh	r2, [r3, #2]
 775 00e4 B4F90410 		ldrsh	r1, [r4, #4]
 776 00e8 521A     		subs	r2, r2, r1
 777 00ea ADF80220 		strh	r2, [sp, #2]	@ movhi
 388:..\..\..\arduinoLCD\test\Pain Drain\libraries\lvgl\src\draw\sw/lv_draw_sw_arc.c **** 
 389:..\..\..\arduinoLCD\test\Pain Drain\libraries\lvgl\src\draw\sw/lv_draw_sw_arc.c ****             quarter_area.x1 = q->center->x + ((lv_trigo_sin(q->start_angle + 90) * (q->radius)) >> 
 778              		.loc 1 389 0
 779 00ee B3F90060 		ldrsh	r6, [r3]
 780 00f2 E088     		ldrh	r0, [r4, #6]
 781 00f4 5A30     		adds	r0, r0, #90
 782 00f6 00B2     		sxth	r0, r0
 783 00f8 FFF7FEFF 		bl	lv_trigo_sin
 784              	.LVL56:
 785 00fc B4F90430 		ldrsh	r3, [r4, #4]
 786 0100 03FB00F0 		mul	r0, r3, r0
 787 0104 06EBE036 		add	r6, r6, r0, asr #15
 788 0108 ADF80060 		strh	r6, [sp]	@ movhi
 390:..\..\..\arduinoLCD\test\Pain Drain\libraries\lvgl\src\draw\sw/lv_draw_sw_arc.c ****             quarter_area.y2 = q->center->y + ((lv_trigo_sin(q->start_angle) * (q->radius - q->width
 789              		.loc 1 390 0
 790 010c 2368     		ldr	r3, [r4]
 791 010e B3F90260 		ldrsh	r6, [r3, #2]
 792 0112 B4F90600 		ldrsh	r0, [r4, #6]
 793 0116 FFF7FEFF 		bl	lv_trigo_sin
 794              	.LVL57:
 795 011a B4F90430 		ldrsh	r3, [r4, #4]
 796 011e B4F90E20 		ldrsh	r2, [r4, #14]
 797 0122 9B1A     		subs	r3, r3, r2
 798 0124 03FB00F0 		mul	r0, r3, r0
 799 0128 06EBE030 		add	r0, r6, r0, asr #15
 800 012c ADF80600 		strh	r0, [sp, #6]	@ movhi
 391:..\..\..\arduinoLCD\test\Pain Drain\libraries\lvgl\src\draw\sw/lv_draw_sw_arc.c **** 
 392:..\..\..\arduinoLCD\test\Pain Drain\libraries\lvgl\src\draw\sw/lv_draw_sw_arc.c ****             bool ok = _lv_area_intersect(&quarter_area, &quarter_area, clip_area_ori);
 801              		.loc 1 392 0
 802 0130 2A46     		mov	r2, r5
 803 0132 6946     		mov	r1, sp
 804 0134 6846     		mov	r0, sp
 805 0136 FFF7FEFF 		bl	_lv_area_intersect
ARM GAS  C:\Users\haske\AppData\Local\Temp\ccxlcgkV.s 			page 22


 806              	.LVL58:
 393:..\..\..\arduinoLCD\test\Pain Drain\libraries\lvgl\src\draw\sw/lv_draw_sw_arc.c ****             if(ok) {
 807              		.loc 1 393 0
 808 013a 38B1     		cbz	r0, .L28
 394:..\..\..\arduinoLCD\test\Pain Drain\libraries\lvgl\src\draw\sw/lv_draw_sw_arc.c ****                 q->draw_ctx->clip_area = &quarter_area;
 809              		.loc 1 394 0
 810 013c A369     		ldr	r3, [r4, #24]
 811 013e C3F808D0 		str	sp, [r3, #8]
 395:..\..\..\arduinoLCD\test\Pain Drain\libraries\lvgl\src\draw\sw/lv_draw_sw_arc.c ****                 lv_draw_rect(q->draw_ctx, q->draw_dsc, q->draw_area);
 812              		.loc 1 395 0
 813 0142 6269     		ldr	r2, [r4, #20]
 814 0144 2169     		ldr	r1, [r4, #16]
 815 0146 A069     		ldr	r0, [r4, #24]
 816              	.LVL59:
 817 0148 FFF7FEFF 		bl	lv_draw_rect
 818              	.LVL60:
 819              	.L28:
 820              	.LBE21:
 396:..\..\..\arduinoLCD\test\Pain Drain\libraries\lvgl\src\draw\sw/lv_draw_sw_arc.c ****             }
 397:..\..\..\arduinoLCD\test\Pain Drain\libraries\lvgl\src\draw\sw/lv_draw_sw_arc.c ****         }
 398:..\..\..\arduinoLCD\test\Pain Drain\libraries\lvgl\src\draw\sw/lv_draw_sw_arc.c ****         if(q->end_quarter == 2) {
 821              		.loc 1 398 0
 822 014c A389     		ldrh	r3, [r4, #12]
 823 014e 022B     		cmp	r3, #2
 824 0150 73D1     		bne	.L25
 825              	.LBB22:
 399:..\..\..\arduinoLCD\test\Pain Drain\libraries\lvgl\src\draw\sw/lv_draw_sw_arc.c ****             quarter_area.x1 = q->center->x - q->radius;
 826              		.loc 1 399 0
 827 0152 2368     		ldr	r3, [r4]
 828 0154 B3F90020 		ldrsh	r2, [r3]
 829 0158 B4F90410 		ldrsh	r1, [r4, #4]
 830 015c 521A     		subs	r2, r2, r1
 831 015e ADF80020 		strh	r2, [sp]	@ movhi
 400:..\..\..\arduinoLCD\test\Pain Drain\libraries\lvgl\src\draw\sw/lv_draw_sw_arc.c ****             quarter_area.y2 = q->center->y - 1;
 832              		.loc 1 400 0
 833 0162 B3F90220 		ldrsh	r2, [r3, #2]
 834 0166 013A     		subs	r2, r2, #1
 835 0168 ADF80620 		strh	r2, [sp, #6]	@ movhi
 401:..\..\..\arduinoLCD\test\Pain Drain\libraries\lvgl\src\draw\sw/lv_draw_sw_arc.c **** 
 402:..\..\..\arduinoLCD\test\Pain Drain\libraries\lvgl\src\draw\sw/lv_draw_sw_arc.c ****             quarter_area.x2 = q->center->x + ((lv_trigo_sin(q->end_angle + 90) * (q->radius - q->wi
 836              		.loc 1 402 0
 837 016c B3F90060 		ldrsh	r6, [r3]
 838 0170 2089     		ldrh	r0, [r4, #8]
 839 0172 5A30     		adds	r0, r0, #90
 840 0174 00B2     		sxth	r0, r0
 841 0176 FFF7FEFF 		bl	lv_trigo_sin
 842              	.LVL61:
 843 017a B4F90430 		ldrsh	r3, [r4, #4]
 844 017e B4F90E20 		ldrsh	r2, [r4, #14]
 845 0182 9B1A     		subs	r3, r3, r2
 846 0184 03FB00F0 		mul	r0, r3, r0
 847 0188 06EBE030 		add	r0, r6, r0, asr #15
 848 018c ADF80400 		strh	r0, [sp, #4]	@ movhi
 403:..\..\..\arduinoLCD\test\Pain Drain\libraries\lvgl\src\draw\sw/lv_draw_sw_arc.c ****             quarter_area.y1 = q->center->y + ((lv_trigo_sin(q->end_angle) * (q->radius)) >> LV_TRIG
 849              		.loc 1 403 0
 850 0190 2368     		ldr	r3, [r4]
 851 0192 B3F90260 		ldrsh	r6, [r3, #2]
ARM GAS  C:\Users\haske\AppData\Local\Temp\ccxlcgkV.s 			page 23


 852 0196 B4F90800 		ldrsh	r0, [r4, #8]
 853 019a FFF7FEFF 		bl	lv_trigo_sin
 854              	.LVL62:
 855 019e B4F90430 		ldrsh	r3, [r4, #4]
 856 01a2 03FB00F0 		mul	r0, r3, r0
 857 01a6 06EBE036 		add	r6, r6, r0, asr #15
 858 01aa ADF80260 		strh	r6, [sp, #2]	@ movhi
 404:..\..\..\arduinoLCD\test\Pain Drain\libraries\lvgl\src\draw\sw/lv_draw_sw_arc.c **** 
 405:..\..\..\arduinoLCD\test\Pain Drain\libraries\lvgl\src\draw\sw/lv_draw_sw_arc.c ****             bool ok = _lv_area_intersect(&quarter_area, &quarter_area, clip_area_ori);
 859              		.loc 1 405 0
 860 01ae 2A46     		mov	r2, r5
 861 01b0 6946     		mov	r1, sp
 862 01b2 6846     		mov	r0, sp
 863 01b4 FFF7FEFF 		bl	_lv_area_intersect
 864              	.LVL63:
 406:..\..\..\arduinoLCD\test\Pain Drain\libraries\lvgl\src\draw\sw/lv_draw_sw_arc.c ****             if(ok) {
 865              		.loc 1 406 0
 866 01b8 0028     		cmp	r0, #0
 867 01ba 3ED0     		beq	.L25
 407:..\..\..\arduinoLCD\test\Pain Drain\libraries\lvgl\src\draw\sw/lv_draw_sw_arc.c ****                 q->draw_ctx->clip_area = &quarter_area;
 868              		.loc 1 407 0
 869 01bc A369     		ldr	r3, [r4, #24]
 870 01be C3F808D0 		str	sp, [r3, #8]
 408:..\..\..\arduinoLCD\test\Pain Drain\libraries\lvgl\src\draw\sw/lv_draw_sw_arc.c ****                 lv_draw_rect(q->draw_ctx, q->draw_dsc, q->draw_area);
 871              		.loc 1 408 0
 872 01c2 6269     		ldr	r2, [r4, #20]
 873 01c4 2169     		ldr	r1, [r4, #16]
 874 01c6 A069     		ldr	r0, [r4, #24]
 875              	.LVL64:
 876 01c8 FFF7FEFF 		bl	lv_draw_rect
 877              	.LVL65:
 878 01cc 35E0     		b	.L25
 879              	.L27:
 880              	.LBE22:
 409:..\..\..\arduinoLCD\test\Pain Drain\libraries\lvgl\src\draw\sw/lv_draw_sw_arc.c ****             }
 410:..\..\..\arduinoLCD\test\Pain Drain\libraries\lvgl\src\draw\sw/lv_draw_sw_arc.c ****         }
 411:..\..\..\arduinoLCD\test\Pain Drain\libraries\lvgl\src\draw\sw/lv_draw_sw_arc.c ****     }
 412:..\..\..\arduinoLCD\test\Pain Drain\libraries\lvgl\src\draw\sw/lv_draw_sw_arc.c ****     else if((q->start_quarter == q->end_quarter && q->start_quarter != 2 && q->end_angle < q->start
 881              		.loc 1 412 0
 882 01ce 9342     		cmp	r3, r2
 883 01d0 05D1     		bne	.L29
 884              		.loc 1 412 0 is_stmt 0 discriminator 1
 885 01d2 022B     		cmp	r3, #2
 886 01d4 03D0     		beq	.L29
 887              		.loc 1 412 0 discriminator 3
 888 01d6 2089     		ldrh	r0, [r4, #8]
 889 01d8 E188     		ldrh	r1, [r4, #6]
 890 01da 8842     		cmp	r0, r1
 891 01dc 09D3     		bcc	.L30
 892              	.L29:
 893              		.loc 1 412 0 discriminator 5
 894 01de 0BB9     		cbnz	r3, .L31
 413:..\..\..\arduinoLCD\test\Pain Drain\libraries\lvgl\src\draw\sw/lv_draw_sw_arc.c ****             (q->start_quarter == 0 && q->end_quarter == 3) ||
 895              		.loc 1 413 0 is_stmt 1
 896 01e0 032A     		cmp	r2, #3
 897 01e2 06D0     		beq	.L30
 898              	.L31:
ARM GAS  C:\Users\haske\AppData\Local\Temp\ccxlcgkV.s 			page 24


 899              		.loc 1 413 0 is_stmt 0 discriminator 1
 900 01e4 012B     		cmp	r3, #1
 901 01e6 01D1     		bne	.L32
 414:..\..\..\arduinoLCD\test\Pain Drain\libraries\lvgl\src\draw\sw/lv_draw_sw_arc.c ****             (q->start_quarter == 1 && q->end_quarter == 3) ||
 902              		.loc 1 414 0 is_stmt 1
 903 01e8 032A     		cmp	r2, #3
 904 01ea 02D0     		beq	.L30
 905              	.L32:
 906              		.loc 1 414 0 is_stmt 0 discriminator 1
 907 01ec 012B     		cmp	r3, #1
 908 01ee 24D1     		bne	.L25
 415:..\..\..\arduinoLCD\test\Pain Drain\libraries\lvgl\src\draw\sw/lv_draw_sw_arc.c ****             (q->start_quarter == 1 && q->end_quarter == 0)) {
 909              		.loc 1 415 0 is_stmt 1
 910 01f0 1ABB     		cbnz	r2, .L25
 911              	.L30:
 912              	.LBB23:
 416:..\..\..\arduinoLCD\test\Pain Drain\libraries\lvgl\src\draw\sw/lv_draw_sw_arc.c ****         /*Arc crosses here*/
 417:..\..\..\arduinoLCD\test\Pain Drain\libraries\lvgl\src\draw\sw/lv_draw_sw_arc.c ****         quarter_area.x1 = q->center->x - q->radius;
 913              		.loc 1 417 0
 914 01f2 2368     		ldr	r3, [r4]
 915 01f4 B3F90010 		ldrsh	r1, [r3]
 916 01f8 A088     		ldrh	r0, [r4, #4]
 917 01fa 091A     		subs	r1, r1, r0
 918 01fc ADF80010 		strh	r1, [sp]	@ movhi
 418:..\..\..\arduinoLCD\test\Pain Drain\libraries\lvgl\src\draw\sw/lv_draw_sw_arc.c ****         quarter_area.y1 = q->center->y - q->radius;
 919              		.loc 1 418 0
 920 0200 B3F90220 		ldrsh	r2, [r3, #2]
 921 0204 121A     		subs	r2, r2, r0
 922 0206 ADF80220 		strh	r2, [sp, #2]	@ movhi
 419:..\..\..\arduinoLCD\test\Pain Drain\libraries\lvgl\src\draw\sw/lv_draw_sw_arc.c ****         quarter_area.x2 = q->center->x - 1;
 923              		.loc 1 419 0
 924 020a B3F90020 		ldrsh	r2, [r3]
 925 020e 013A     		subs	r2, r2, #1
 926 0210 ADF80420 		strh	r2, [sp, #4]	@ movhi
 420:..\..\..\arduinoLCD\test\Pain Drain\libraries\lvgl\src\draw\sw/lv_draw_sw_arc.c ****         quarter_area.y2 = q->center->y - 1;
 927              		.loc 1 420 0
 928 0214 B3F90230 		ldrsh	r3, [r3, #2]
 929 0218 013B     		subs	r3, r3, #1
 930 021a ADF80630 		strh	r3, [sp, #6]	@ movhi
 421:..\..\..\arduinoLCD\test\Pain Drain\libraries\lvgl\src\draw\sw/lv_draw_sw_arc.c **** 
 422:..\..\..\arduinoLCD\test\Pain Drain\libraries\lvgl\src\draw\sw/lv_draw_sw_arc.c ****         bool ok = _lv_area_intersect(&quarter_area, &quarter_area, clip_area_ori);
 931              		.loc 1 422 0
 932 021e 2A46     		mov	r2, r5
 933 0220 6946     		mov	r1, sp
 934 0222 6846     		mov	r0, sp
 935 0224 FFF7FEFF 		bl	_lv_area_intersect
 936              	.LVL66:
 423:..\..\..\arduinoLCD\test\Pain Drain\libraries\lvgl\src\draw\sw/lv_draw_sw_arc.c ****         if(ok) {
 937              		.loc 1 423 0
 938 0228 38B1     		cbz	r0, .L25
 424:..\..\..\arduinoLCD\test\Pain Drain\libraries\lvgl\src\draw\sw/lv_draw_sw_arc.c ****             q->draw_ctx->clip_area = &quarter_area;
 939              		.loc 1 424 0
 940 022a A369     		ldr	r3, [r4, #24]
 941 022c C3F808D0 		str	sp, [r3, #8]
 425:..\..\..\arduinoLCD\test\Pain Drain\libraries\lvgl\src\draw\sw/lv_draw_sw_arc.c ****             lv_draw_rect(q->draw_ctx, q->draw_dsc, q->draw_area);
 942              		.loc 1 425 0
 943 0230 6269     		ldr	r2, [r4, #20]
ARM GAS  C:\Users\haske\AppData\Local\Temp\ccxlcgkV.s 			page 25


 944 0232 2169     		ldr	r1, [r4, #16]
 945 0234 A069     		ldr	r0, [r4, #24]
 946              	.LVL67:
 947 0236 FFF7FEFF 		bl	lv_draw_rect
 948              	.LVL68:
 949              	.L25:
 950              	.LBE23:
 426:..\..\..\arduinoLCD\test\Pain Drain\libraries\lvgl\src\draw\sw/lv_draw_sw_arc.c ****         }
 427:..\..\..\arduinoLCD\test\Pain Drain\libraries\lvgl\src\draw\sw/lv_draw_sw_arc.c ****     }
 428:..\..\..\arduinoLCD\test\Pain Drain\libraries\lvgl\src\draw\sw/lv_draw_sw_arc.c ****     q->draw_ctx->clip_area = clip_area_ori;
 951              		.loc 1 428 0
 952 023a A369     		ldr	r3, [r4, #24]
 953 023c 9D60     		str	r5, [r3, #8]
 429:..\..\..\arduinoLCD\test\Pain Drain\libraries\lvgl\src\draw\sw/lv_draw_sw_arc.c **** }
 954              		.loc 1 429 0
 955 023e 02B0     		add	sp, sp, #8
 956              		.cfi_def_cfa_offset 16
 957              		@ sp needed
 958 0240 70BD     		pop	{r4, r5, r6, pc}
 959              		.cfi_endproc
 960              	.LFE59:
 961              		.size	draw_quarter_2, .-draw_quarter_2
 962 0242 00BF     		.section	.text.draw_quarter_3,"ax",%progbits
 963              		.align	2
 964              		.thumb
 965              		.thumb_func
 966              		.type	draw_quarter_3, %function
 967              	draw_quarter_3:
 968              	.LFB60:
 430:..\..\..\arduinoLCD\test\Pain Drain\libraries\lvgl\src\draw\sw/lv_draw_sw_arc.c **** 
 431:..\..\..\arduinoLCD\test\Pain Drain\libraries\lvgl\src\draw\sw/lv_draw_sw_arc.c **** static void draw_quarter_3(quarter_draw_dsc_t * q)
 432:..\..\..\arduinoLCD\test\Pain Drain\libraries\lvgl\src\draw\sw/lv_draw_sw_arc.c **** {
 969              		.loc 1 432 0
 970              		.cfi_startproc
 971              		@ args = 0, pretend = 0, frame = 8
 972              		@ frame_needed = 0, uses_anonymous_args = 0
 973              	.LVL69:
 974 0000 70B5     		push	{r4, r5, r6, lr}
 975              		.cfi_def_cfa_offset 16
 976              		.cfi_offset 4, -16
 977              		.cfi_offset 5, -12
 978              		.cfi_offset 6, -8
 979              		.cfi_offset 14, -4
 980 0002 82B0     		sub	sp, sp, #8
 981              		.cfi_def_cfa_offset 24
 982 0004 0446     		mov	r4, r0
 433:..\..\..\arduinoLCD\test\Pain Drain\libraries\lvgl\src\draw\sw/lv_draw_sw_arc.c ****     const lv_area_t * clip_area_ori = q->draw_ctx->clip_area;
 983              		.loc 1 433 0
 984 0006 8369     		ldr	r3, [r0, #24]
 985 0008 9D68     		ldr	r5, [r3, #8]
 986              	.LVL70:
 434:..\..\..\arduinoLCD\test\Pain Drain\libraries\lvgl\src\draw\sw/lv_draw_sw_arc.c ****     lv_area_t quarter_area;
 435:..\..\..\arduinoLCD\test\Pain Drain\libraries\lvgl\src\draw\sw/lv_draw_sw_arc.c **** 
 436:..\..\..\arduinoLCD\test\Pain Drain\libraries\lvgl\src\draw\sw/lv_draw_sw_arc.c ****     if(q->start_quarter == 3 && q->end_quarter == 3 && q->start_angle < q->end_angle) {
 987              		.loc 1 436 0
 988 000a 4389     		ldrh	r3, [r0, #10]
 989 000c 032B     		cmp	r3, #3
ARM GAS  C:\Users\haske\AppData\Local\Temp\ccxlcgkV.s 			page 26


 990 000e 5AD1     		bne	.L35
 991              		.loc 1 436 0 is_stmt 0 discriminator 1
 992 0010 8289     		ldrh	r2, [r0, #12]
 993 0012 032A     		cmp	r2, #3
 994 0014 57D1     		bne	.L35
 995              		.loc 1 436 0 discriminator 2
 996 0016 C088     		ldrh	r0, [r0, #6]
 997              	.LVL71:
 998 0018 2289     		ldrh	r2, [r4, #8]
 999 001a 9042     		cmp	r0, r2
 1000 001c 53D2     		bcs	.L35
 1001              	.LBB24:
 437:..\..\..\arduinoLCD\test\Pain Drain\libraries\lvgl\src\draw\sw/lv_draw_sw_arc.c ****         /*Small arc here*/
 438:..\..\..\arduinoLCD\test\Pain Drain\libraries\lvgl\src\draw\sw/lv_draw_sw_arc.c ****         quarter_area.x1 = q->center->x + ((lv_trigo_sin(q->start_angle + 90) * (q->radius - q->widt
 1002              		.loc 1 438 0 is_stmt 1
 1003 001e 2368     		ldr	r3, [r4]
 1004 0020 B3F90060 		ldrsh	r6, [r3]
 1005 0024 5A30     		adds	r0, r0, #90
 1006 0026 00B2     		sxth	r0, r0
 1007 0028 FFF7FEFF 		bl	lv_trigo_sin
 1008              	.LVL72:
 1009 002c B4F90430 		ldrsh	r3, [r4, #4]
 1010 0030 B4F90E20 		ldrsh	r2, [r4, #14]
 1011 0034 9B1A     		subs	r3, r3, r2
 1012 0036 03FB00F0 		mul	r0, r3, r0
 1013 003a 06EBE030 		add	r0, r6, r0, asr #15
 1014 003e ADF80000 		strh	r0, [sp]	@ movhi
 439:..\..\..\arduinoLCD\test\Pain Drain\libraries\lvgl\src\draw\sw/lv_draw_sw_arc.c ****         quarter_area.y1 = q->center->y + ((lv_trigo_sin(q->start_angle) * (q->radius)) >> LV_TRIGO_
 1015              		.loc 1 439 0
 1016 0042 2368     		ldr	r3, [r4]
 1017 0044 B3F90260 		ldrsh	r6, [r3, #2]
 1018 0048 B4F90600 		ldrsh	r0, [r4, #6]
 1019 004c FFF7FEFF 		bl	lv_trigo_sin
 1020              	.LVL73:
 1021 0050 B4F90430 		ldrsh	r3, [r4, #4]
 1022 0054 03FB00F0 		mul	r0, r3, r0
 1023 0058 06EBE036 		add	r6, r6, r0, asr #15
 1024 005c ADF80260 		strh	r6, [sp, #2]	@ movhi
 440:..\..\..\arduinoLCD\test\Pain Drain\libraries\lvgl\src\draw\sw/lv_draw_sw_arc.c **** 
 441:..\..\..\arduinoLCD\test\Pain Drain\libraries\lvgl\src\draw\sw/lv_draw_sw_arc.c ****         quarter_area.x2 = q->center->x + ((lv_trigo_sin(q->end_angle + 90) * (q->radius)) >> LV_TRI
 1025              		.loc 1 441 0
 1026 0060 2368     		ldr	r3, [r4]
 1027 0062 B3F90060 		ldrsh	r6, [r3]
 1028 0066 2089     		ldrh	r0, [r4, #8]
 1029 0068 5A30     		adds	r0, r0, #90
 1030 006a 00B2     		sxth	r0, r0
 1031 006c FFF7FEFF 		bl	lv_trigo_sin
 1032              	.LVL74:
 1033 0070 B4F90430 		ldrsh	r3, [r4, #4]
 1034 0074 03FB00F0 		mul	r0, r3, r0
 1035 0078 06EBE036 		add	r6, r6, r0, asr #15
 1036 007c ADF80460 		strh	r6, [sp, #4]	@ movhi
 442:..\..\..\arduinoLCD\test\Pain Drain\libraries\lvgl\src\draw\sw/lv_draw_sw_arc.c ****         quarter_area.y2 = q->center->y + ((lv_trigo_sin(q->end_angle) * (q->radius - q->width)) >> 
 1037              		.loc 1 442 0
 1038 0080 2368     		ldr	r3, [r4]
 1039 0082 B3F90260 		ldrsh	r6, [r3, #2]
 1040 0086 B4F90800 		ldrsh	r0, [r4, #8]
ARM GAS  C:\Users\haske\AppData\Local\Temp\ccxlcgkV.s 			page 27


 1041 008a FFF7FEFF 		bl	lv_trigo_sin
 1042              	.LVL75:
 1043 008e B4F90430 		ldrsh	r3, [r4, #4]
 1044 0092 B4F90E20 		ldrsh	r2, [r4, #14]
 1045 0096 9B1A     		subs	r3, r3, r2
 1046 0098 03FB00F0 		mul	r0, r3, r0
 1047 009c 06EBE030 		add	r0, r6, r0, asr #15
 1048 00a0 ADF80600 		strh	r0, [sp, #6]	@ movhi
 443:..\..\..\arduinoLCD\test\Pain Drain\libraries\lvgl\src\draw\sw/lv_draw_sw_arc.c **** 
 444:..\..\..\arduinoLCD\test\Pain Drain\libraries\lvgl\src\draw\sw/lv_draw_sw_arc.c ****         bool ok = _lv_area_intersect(&quarter_area, &quarter_area, clip_area_ori);
 1049              		.loc 1 444 0
 1050 00a4 2A46     		mov	r2, r5
 1051 00a6 6946     		mov	r1, sp
 1052 00a8 6846     		mov	r0, sp
 1053 00aa FFF7FEFF 		bl	_lv_area_intersect
 1054              	.LVL76:
 445:..\..\..\arduinoLCD\test\Pain Drain\libraries\lvgl\src\draw\sw/lv_draw_sw_arc.c ****         if(ok) {
 1055              		.loc 1 445 0
 1056 00ae 0028     		cmp	r0, #0
 1057 00b0 00F0C180 		beq	.L36
 446:..\..\..\arduinoLCD\test\Pain Drain\libraries\lvgl\src\draw\sw/lv_draw_sw_arc.c ****             q->draw_ctx->clip_area = &quarter_area;
 1058              		.loc 1 446 0
 1059 00b4 A369     		ldr	r3, [r4, #24]
 1060 00b6 C3F808D0 		str	sp, [r3, #8]
 447:..\..\..\arduinoLCD\test\Pain Drain\libraries\lvgl\src\draw\sw/lv_draw_sw_arc.c ****             lv_draw_rect(q->draw_ctx, q->draw_dsc, q->draw_area);
 1061              		.loc 1 447 0
 1062 00ba 6269     		ldr	r2, [r4, #20]
 1063 00bc 2169     		ldr	r1, [r4, #16]
 1064 00be A069     		ldr	r0, [r4, #24]
 1065              	.LVL77:
 1066 00c0 FFF7FEFF 		bl	lv_draw_rect
 1067              	.LVL78:
 1068 00c4 B7E0     		b	.L36
 1069              	.L35:
 1070              	.LBE24:
 448:..\..\..\arduinoLCD\test\Pain Drain\libraries\lvgl\src\draw\sw/lv_draw_sw_arc.c ****         }
 449:..\..\..\arduinoLCD\test\Pain Drain\libraries\lvgl\src\draw\sw/lv_draw_sw_arc.c ****     }
 450:..\..\..\arduinoLCD\test\Pain Drain\libraries\lvgl\src\draw\sw/lv_draw_sw_arc.c ****     else if(q->start_quarter == 3 || q->end_quarter == 3) {
 1071              		.loc 1 450 0
 1072 00c6 032B     		cmp	r3, #3
 1073 00c8 02D0     		beq	.L37
 1074              		.loc 1 450 0 is_stmt 0 discriminator 1
 1075 00ca A289     		ldrh	r2, [r4, #12]
 1076 00cc 032A     		cmp	r2, #3
 1077 00ce 7DD1     		bne	.L38
 1078              	.L37:
 451:..\..\..\arduinoLCD\test\Pain Drain\libraries\lvgl\src\draw\sw/lv_draw_sw_arc.c ****         /*Start and/or end arcs here*/
 452:..\..\..\arduinoLCD\test\Pain Drain\libraries\lvgl\src\draw\sw/lv_draw_sw_arc.c ****         if(q->start_quarter == 3) {
 1079              		.loc 1 452 0 is_stmt 1
 1080 00d0 032B     		cmp	r3, #3
 1081 00d2 3BD1     		bne	.L39
 1082              	.LBB25:
 453:..\..\..\arduinoLCD\test\Pain Drain\libraries\lvgl\src\draw\sw/lv_draw_sw_arc.c ****             quarter_area.x2 = q->center->x + q->radius;
 1083              		.loc 1 453 0
 1084 00d4 2368     		ldr	r3, [r4]
 1085 00d6 B3F90010 		ldrsh	r1, [r3]
 1086 00da B4F90420 		ldrsh	r2, [r4, #4]
ARM GAS  C:\Users\haske\AppData\Local\Temp\ccxlcgkV.s 			page 28


 1087 00de 0A44     		add	r2, r2, r1
 1088 00e0 ADF80420 		strh	r2, [sp, #4]	@ movhi
 454:..\..\..\arduinoLCD\test\Pain Drain\libraries\lvgl\src\draw\sw/lv_draw_sw_arc.c ****             quarter_area.y2 = q->center->y - 1;
 1089              		.loc 1 454 0
 1090 00e4 B3F90220 		ldrsh	r2, [r3, #2]
 1091 00e8 013A     		subs	r2, r2, #1
 1092 00ea ADF80620 		strh	r2, [sp, #6]	@ movhi
 455:..\..\..\arduinoLCD\test\Pain Drain\libraries\lvgl\src\draw\sw/lv_draw_sw_arc.c **** 
 456:..\..\..\arduinoLCD\test\Pain Drain\libraries\lvgl\src\draw\sw/lv_draw_sw_arc.c ****             quarter_area.x1 = q->center->x + ((lv_trigo_sin(q->start_angle + 90) * (q->radius - q->
 1093              		.loc 1 456 0
 1094 00ee B3F90060 		ldrsh	r6, [r3]
 1095 00f2 E088     		ldrh	r0, [r4, #6]
 1096 00f4 5A30     		adds	r0, r0, #90
 1097 00f6 00B2     		sxth	r0, r0
 1098 00f8 FFF7FEFF 		bl	lv_trigo_sin
 1099              	.LVL79:
 1100 00fc B4F90430 		ldrsh	r3, [r4, #4]
 1101 0100 B4F90E20 		ldrsh	r2, [r4, #14]
 1102 0104 9B1A     		subs	r3, r3, r2
 1103 0106 03FB00F0 		mul	r0, r3, r0
 1104 010a 06EBE030 		add	r0, r6, r0, asr #15
 1105 010e ADF80000 		strh	r0, [sp]	@ movhi
 457:..\..\..\arduinoLCD\test\Pain Drain\libraries\lvgl\src\draw\sw/lv_draw_sw_arc.c ****             quarter_area.y1 = q->center->y + ((lv_trigo_sin(q->start_angle) * (q->radius)) >> LV_TR
 1106              		.loc 1 457 0
 1107 0112 2368     		ldr	r3, [r4]
 1108 0114 B3F90260 		ldrsh	r6, [r3, #2]
 1109 0118 B4F90600 		ldrsh	r0, [r4, #6]
 1110 011c FFF7FEFF 		bl	lv_trigo_sin
 1111              	.LVL80:
 1112 0120 B4F90430 		ldrsh	r3, [r4, #4]
 1113 0124 03FB00F0 		mul	r0, r3, r0
 1114 0128 06EBE036 		add	r6, r6, r0, asr #15
 1115 012c ADF80260 		strh	r6, [sp, #2]	@ movhi
 458:..\..\..\arduinoLCD\test\Pain Drain\libraries\lvgl\src\draw\sw/lv_draw_sw_arc.c **** 
 459:..\..\..\arduinoLCD\test\Pain Drain\libraries\lvgl\src\draw\sw/lv_draw_sw_arc.c ****             bool ok = _lv_area_intersect(&quarter_area, &quarter_area, clip_area_ori);
 1116              		.loc 1 459 0
 1117 0130 2A46     		mov	r2, r5
 1118 0132 6946     		mov	r1, sp
 1119 0134 6846     		mov	r0, sp
 1120 0136 FFF7FEFF 		bl	_lv_area_intersect
 1121              	.LVL81:
 460:..\..\..\arduinoLCD\test\Pain Drain\libraries\lvgl\src\draw\sw/lv_draw_sw_arc.c ****             if(ok) {
 1122              		.loc 1 460 0
 1123 013a 38B1     		cbz	r0, .L39
 461:..\..\..\arduinoLCD\test\Pain Drain\libraries\lvgl\src\draw\sw/lv_draw_sw_arc.c ****                 q->draw_ctx->clip_area = &quarter_area;
 1124              		.loc 1 461 0
 1125 013c A369     		ldr	r3, [r4, #24]
 1126 013e C3F808D0 		str	sp, [r3, #8]
 462:..\..\..\arduinoLCD\test\Pain Drain\libraries\lvgl\src\draw\sw/lv_draw_sw_arc.c ****                 lv_draw_rect(q->draw_ctx, q->draw_dsc, q->draw_area);
 1127              		.loc 1 462 0
 1128 0142 6269     		ldr	r2, [r4, #20]
 1129 0144 2169     		ldr	r1, [r4, #16]
 1130 0146 A069     		ldr	r0, [r4, #24]
 1131              	.LVL82:
 1132 0148 FFF7FEFF 		bl	lv_draw_rect
 1133              	.LVL83:
 1134              	.L39:
ARM GAS  C:\Users\haske\AppData\Local\Temp\ccxlcgkV.s 			page 29


 1135              	.LBE25:
 463:..\..\..\arduinoLCD\test\Pain Drain\libraries\lvgl\src\draw\sw/lv_draw_sw_arc.c ****             }
 464:..\..\..\arduinoLCD\test\Pain Drain\libraries\lvgl\src\draw\sw/lv_draw_sw_arc.c ****         }
 465:..\..\..\arduinoLCD\test\Pain Drain\libraries\lvgl\src\draw\sw/lv_draw_sw_arc.c ****         if(q->end_quarter == 3) {
 1136              		.loc 1 465 0
 1137 014c A389     		ldrh	r3, [r4, #12]
 1138 014e 032B     		cmp	r3, #3
 1139 0150 71D1     		bne	.L36
 1140              	.LBB26:
 466:..\..\..\arduinoLCD\test\Pain Drain\libraries\lvgl\src\draw\sw/lv_draw_sw_arc.c ****             quarter_area.x1 = q->center->x;
 1141              		.loc 1 466 0
 1142 0152 2368     		ldr	r3, [r4]
 1143 0154 B3F90020 		ldrsh	r2, [r3]
 1144 0158 ADF80020 		strh	r2, [sp]	@ movhi
 467:..\..\..\arduinoLCD\test\Pain Drain\libraries\lvgl\src\draw\sw/lv_draw_sw_arc.c ****             quarter_area.y1 = q->center->y - q->radius;
 1145              		.loc 1 467 0
 1146 015c B3F90220 		ldrsh	r2, [r3, #2]
 1147 0160 B4F90410 		ldrsh	r1, [r4, #4]
 1148 0164 521A     		subs	r2, r2, r1
 1149 0166 ADF80220 		strh	r2, [sp, #2]	@ movhi
 468:..\..\..\arduinoLCD\test\Pain Drain\libraries\lvgl\src\draw\sw/lv_draw_sw_arc.c **** 
 469:..\..\..\arduinoLCD\test\Pain Drain\libraries\lvgl\src\draw\sw/lv_draw_sw_arc.c ****             quarter_area.x2 = q->center->x + ((lv_trigo_sin(q->end_angle + 90) * (q->radius)) >> LV
 1150              		.loc 1 469 0
 1151 016a B3F90060 		ldrsh	r6, [r3]
 1152 016e 2089     		ldrh	r0, [r4, #8]
 1153 0170 5A30     		adds	r0, r0, #90
 1154 0172 00B2     		sxth	r0, r0
 1155 0174 FFF7FEFF 		bl	lv_trigo_sin
 1156              	.LVL84:
 1157 0178 B4F90430 		ldrsh	r3, [r4, #4]
 1158 017c 03FB00F0 		mul	r0, r3, r0
 1159 0180 06EBE036 		add	r6, r6, r0, asr #15
 1160 0184 ADF80460 		strh	r6, [sp, #4]	@ movhi
 470:..\..\..\arduinoLCD\test\Pain Drain\libraries\lvgl\src\draw\sw/lv_draw_sw_arc.c ****             quarter_area.y2 = q->center->y + ((lv_trigo_sin(q->end_angle) * (q->radius - q->width))
 1161              		.loc 1 470 0
 1162 0188 2368     		ldr	r3, [r4]
 1163 018a B3F90260 		ldrsh	r6, [r3, #2]
 1164 018e B4F90800 		ldrsh	r0, [r4, #8]
 1165 0192 FFF7FEFF 		bl	lv_trigo_sin
 1166              	.LVL85:
 1167 0196 B4F90430 		ldrsh	r3, [r4, #4]
 1168 019a B4F90E20 		ldrsh	r2, [r4, #14]
 1169 019e 9B1A     		subs	r3, r3, r2
 1170 01a0 03FB00F0 		mul	r0, r3, r0
 1171 01a4 06EBE030 		add	r0, r6, r0, asr #15
 1172 01a8 ADF80600 		strh	r0, [sp, #6]	@ movhi
 471:..\..\..\arduinoLCD\test\Pain Drain\libraries\lvgl\src\draw\sw/lv_draw_sw_arc.c **** 
 472:..\..\..\arduinoLCD\test\Pain Drain\libraries\lvgl\src\draw\sw/lv_draw_sw_arc.c ****             bool ok = _lv_area_intersect(&quarter_area, &quarter_area, clip_area_ori);
 1173              		.loc 1 472 0
 1174 01ac 2A46     		mov	r2, r5
 1175 01ae 6946     		mov	r1, sp
 1176 01b0 6846     		mov	r0, sp
 1177 01b2 FFF7FEFF 		bl	_lv_area_intersect
 1178              	.LVL86:
 473:..\..\..\arduinoLCD\test\Pain Drain\libraries\lvgl\src\draw\sw/lv_draw_sw_arc.c ****             if(ok) {
 1179              		.loc 1 473 0
 1180 01b6 0028     		cmp	r0, #0
ARM GAS  C:\Users\haske\AppData\Local\Temp\ccxlcgkV.s 			page 30


 1181 01b8 3DD0     		beq	.L36
 474:..\..\..\arduinoLCD\test\Pain Drain\libraries\lvgl\src\draw\sw/lv_draw_sw_arc.c ****                 q->draw_ctx->clip_area = &quarter_area;
 1182              		.loc 1 474 0
 1183 01ba A369     		ldr	r3, [r4, #24]
 1184 01bc C3F808D0 		str	sp, [r3, #8]
 475:..\..\..\arduinoLCD\test\Pain Drain\libraries\lvgl\src\draw\sw/lv_draw_sw_arc.c ****                 lv_draw_rect(q->draw_ctx, q->draw_dsc, q->draw_area);
 1185              		.loc 1 475 0
 1186 01c0 6269     		ldr	r2, [r4, #20]
 1187 01c2 2169     		ldr	r1, [r4, #16]
 1188 01c4 A069     		ldr	r0, [r4, #24]
 1189              	.LVL87:
 1190 01c6 FFF7FEFF 		bl	lv_draw_rect
 1191              	.LVL88:
 1192 01ca 34E0     		b	.L36
 1193              	.L38:
 1194              	.LBE26:
 476:..\..\..\arduinoLCD\test\Pain Drain\libraries\lvgl\src\draw\sw/lv_draw_sw_arc.c ****             }
 477:..\..\..\arduinoLCD\test\Pain Drain\libraries\lvgl\src\draw\sw/lv_draw_sw_arc.c ****         }
 478:..\..\..\arduinoLCD\test\Pain Drain\libraries\lvgl\src\draw\sw/lv_draw_sw_arc.c ****     }
 479:..\..\..\arduinoLCD\test\Pain Drain\libraries\lvgl\src\draw\sw/lv_draw_sw_arc.c ****     else if((q->start_quarter == q->end_quarter && q->start_quarter != 3 && q->end_angle < q->start
 1195              		.loc 1 479 0
 1196 01cc 9342     		cmp	r3, r2
 1197 01ce 05D1     		bne	.L40
 1198              		.loc 1 479 0 is_stmt 0 discriminator 1
 1199 01d0 032B     		cmp	r3, #3
 1200 01d2 03D0     		beq	.L40
 1201              		.loc 1 479 0 discriminator 3
 1202 01d4 2089     		ldrh	r0, [r4, #8]
 1203 01d6 E188     		ldrh	r1, [r4, #6]
 1204 01d8 8842     		cmp	r0, r1
 1205 01da 09D3     		bcc	.L41
 1206              	.L40:
 1207              		.loc 1 479 0 discriminator 5
 1208 01dc 022B     		cmp	r3, #2
 1209 01de 00D1     		bne	.L42
 480:..\..\..\arduinoLCD\test\Pain Drain\libraries\lvgl\src\draw\sw/lv_draw_sw_arc.c ****             (q->start_quarter == 2 && q->end_quarter == 0) ||
 1210              		.loc 1 480 0 is_stmt 1
 1211 01e0 32B1     		cbz	r2, .L41
 1212              	.L42:
 1213              		.loc 1 480 0 is_stmt 0 discriminator 1
 1214 01e2 012B     		cmp	r3, #1
 1215 01e4 00D1     		bne	.L43
 481:..\..\..\arduinoLCD\test\Pain Drain\libraries\lvgl\src\draw\sw/lv_draw_sw_arc.c ****             (q->start_quarter == 1 && q->end_quarter == 0) ||
 1216              		.loc 1 481 0 is_stmt 1
 1217 01e6 1AB1     		cbz	r2, .L41
 1218              	.L43:
 1219              		.loc 1 481 0 is_stmt 0 discriminator 1
 1220 01e8 022B     		cmp	r3, #2
 1221 01ea 24D1     		bne	.L36
 482:..\..\..\arduinoLCD\test\Pain Drain\libraries\lvgl\src\draw\sw/lv_draw_sw_arc.c ****             (q->start_quarter == 2 && q->end_quarter == 1)) {
 1222              		.loc 1 482 0 is_stmt 1
 1223 01ec 012A     		cmp	r2, #1
 1224 01ee 22D1     		bne	.L36
 1225              	.L41:
 1226              	.LBB27:
 483:..\..\..\arduinoLCD\test\Pain Drain\libraries\lvgl\src\draw\sw/lv_draw_sw_arc.c ****         /*Arc crosses here*/
 484:..\..\..\arduinoLCD\test\Pain Drain\libraries\lvgl\src\draw\sw/lv_draw_sw_arc.c ****         quarter_area.x1 = q->center->x;
ARM GAS  C:\Users\haske\AppData\Local\Temp\ccxlcgkV.s 			page 31


 1227              		.loc 1 484 0
 1228 01f0 2368     		ldr	r3, [r4]
 1229 01f2 B3F90020 		ldrsh	r2, [r3]
 1230 01f6 ADF80020 		strh	r2, [sp]	@ movhi
 485:..\..\..\arduinoLCD\test\Pain Drain\libraries\lvgl\src\draw\sw/lv_draw_sw_arc.c ****         quarter_area.y1 = q->center->y - q->radius;
 1231              		.loc 1 485 0
 1232 01fa B3F90210 		ldrsh	r1, [r3, #2]
 1233 01fe A088     		ldrh	r0, [r4, #4]
 1234 0200 091A     		subs	r1, r1, r0
 1235 0202 ADF80210 		strh	r1, [sp, #2]	@ movhi
 486:..\..\..\arduinoLCD\test\Pain Drain\libraries\lvgl\src\draw\sw/lv_draw_sw_arc.c ****         quarter_area.x2 = q->center->x + q->radius;
 1236              		.loc 1 486 0
 1237 0206 B3F90020 		ldrsh	r2, [r3]
 1238 020a 0244     		add	r2, r2, r0
 1239 020c ADF80420 		strh	r2, [sp, #4]	@ movhi
 487:..\..\..\arduinoLCD\test\Pain Drain\libraries\lvgl\src\draw\sw/lv_draw_sw_arc.c ****         quarter_area.y2 = q->center->y - 1;
 1240              		.loc 1 487 0
 1241 0210 B3F90230 		ldrsh	r3, [r3, #2]
 1242 0214 013B     		subs	r3, r3, #1
 1243 0216 ADF80630 		strh	r3, [sp, #6]	@ movhi
 488:..\..\..\arduinoLCD\test\Pain Drain\libraries\lvgl\src\draw\sw/lv_draw_sw_arc.c **** 
 489:..\..\..\arduinoLCD\test\Pain Drain\libraries\lvgl\src\draw\sw/lv_draw_sw_arc.c ****         bool ok = _lv_area_intersect(&quarter_area, &quarter_area, clip_area_ori);
 1244              		.loc 1 489 0
 1245 021a 2A46     		mov	r2, r5
 1246 021c 6946     		mov	r1, sp
 1247 021e 6846     		mov	r0, sp
 1248 0220 FFF7FEFF 		bl	_lv_area_intersect
 1249              	.LVL89:
 490:..\..\..\arduinoLCD\test\Pain Drain\libraries\lvgl\src\draw\sw/lv_draw_sw_arc.c ****         if(ok) {
 1250              		.loc 1 490 0
 1251 0224 38B1     		cbz	r0, .L36
 491:..\..\..\arduinoLCD\test\Pain Drain\libraries\lvgl\src\draw\sw/lv_draw_sw_arc.c ****             q->draw_ctx->clip_area = &quarter_area;
 1252              		.loc 1 491 0
 1253 0226 A369     		ldr	r3, [r4, #24]
 1254 0228 C3F808D0 		str	sp, [r3, #8]
 492:..\..\..\arduinoLCD\test\Pain Drain\libraries\lvgl\src\draw\sw/lv_draw_sw_arc.c ****             lv_draw_rect(q->draw_ctx, q->draw_dsc, q->draw_area);
 1255              		.loc 1 492 0
 1256 022c 6269     		ldr	r2, [r4, #20]
 1257 022e 2169     		ldr	r1, [r4, #16]
 1258 0230 A069     		ldr	r0, [r4, #24]
 1259              	.LVL90:
 1260 0232 FFF7FEFF 		bl	lv_draw_rect
 1261              	.LVL91:
 1262              	.L36:
 1263              	.LBE27:
 493:..\..\..\arduinoLCD\test\Pain Drain\libraries\lvgl\src\draw\sw/lv_draw_sw_arc.c ****         }
 494:..\..\..\arduinoLCD\test\Pain Drain\libraries\lvgl\src\draw\sw/lv_draw_sw_arc.c ****     }
 495:..\..\..\arduinoLCD\test\Pain Drain\libraries\lvgl\src\draw\sw/lv_draw_sw_arc.c **** 
 496:..\..\..\arduinoLCD\test\Pain Drain\libraries\lvgl\src\draw\sw/lv_draw_sw_arc.c ****     q->draw_ctx->clip_area = clip_area_ori;
 1264              		.loc 1 496 0
 1265 0236 A369     		ldr	r3, [r4, #24]
 1266 0238 9D60     		str	r5, [r3, #8]
 497:..\..\..\arduinoLCD\test\Pain Drain\libraries\lvgl\src\draw\sw/lv_draw_sw_arc.c **** }
 1267              		.loc 1 497 0
 1268 023a 02B0     		add	sp, sp, #8
 1269              		.cfi_def_cfa_offset 16
 1270              		@ sp needed
ARM GAS  C:\Users\haske\AppData\Local\Temp\ccxlcgkV.s 			page 32


 1271 023c 70BD     		pop	{r4, r5, r6, pc}
 1272              		.cfi_endproc
 1273              	.LFE60:
 1274              		.size	draw_quarter_3, .-draw_quarter_3
 1275 023e 00BF     		.section	.text.get_rounded_area,"ax",%progbits
 1276              		.align	2
 1277              		.thumb
 1278              		.thumb_func
 1279              		.type	get_rounded_area, %function
 1280              	get_rounded_area:
 1281              	.LFB61:
 498:..\..\..\arduinoLCD\test\Pain Drain\libraries\lvgl\src\draw\sw/lv_draw_sw_arc.c **** 
 499:..\..\..\arduinoLCD\test\Pain Drain\libraries\lvgl\src\draw\sw/lv_draw_sw_arc.c **** static void get_rounded_area(int16_t angle, lv_coord_t radius, uint8_t thickness, lv_area_t * res_a
 500:..\..\..\arduinoLCD\test\Pain Drain\libraries\lvgl\src\draw\sw/lv_draw_sw_arc.c **** {
 1282              		.loc 1 500 0
 1283              		.cfi_startproc
 1284              		@ args = 0, pretend = 0, frame = 0
 1285              		@ frame_needed = 0, uses_anonymous_args = 0
 1286              	.LVL92:
 1287 0000 2DE9F843 		push	{r3, r4, r5, r6, r7, r8, r9, lr}
 1288              		.cfi_def_cfa_offset 32
 1289              		.cfi_offset 3, -32
 1290              		.cfi_offset 4, -28
 1291              		.cfi_offset 5, -24
 1292              		.cfi_offset 6, -20
 1293              		.cfi_offset 7, -16
 1294              		.cfi_offset 8, -12
 1295              		.cfi_offset 9, -8
 1296              		.cfi_offset 14, -4
 1297 0004 8146     		mov	r9, r0
 1298 0006 1F46     		mov	r7, r3
 1299              	.LVL93:
 501:..\..\..\arduinoLCD\test\Pain Drain\libraries\lvgl\src\draw\sw/lv_draw_sw_arc.c ****     const uint8_t ps = 8;
 502:..\..\..\arduinoLCD\test\Pain Drain\libraries\lvgl\src\draw\sw/lv_draw_sw_arc.c ****     const uint8_t pa = 127;
 503:..\..\..\arduinoLCD\test\Pain Drain\libraries\lvgl\src\draw\sw/lv_draw_sw_arc.c **** 
 504:..\..\..\arduinoLCD\test\Pain Drain\libraries\lvgl\src\draw\sw/lv_draw_sw_arc.c ****     int32_t thick_half = thickness / 2;
 1300              		.loc 1 504 0
 1301 0008 5508     		lsrs	r5, r2, #1
 1302              	.LVL94:
 505:..\..\..\arduinoLCD\test\Pain Drain\libraries\lvgl\src\draw\sw/lv_draw_sw_arc.c ****     uint8_t thick_corr = (thickness & 0x01) ? 0 : 1;
 1303              		.loc 1 505 0
 1304 000a 82F00102 		eor	r2, r2, #1
 1305              	.LVL95:
 1306 000e 02F00106 		and	r6, r2, #1
 1307              	.LVL96:
 506:..\..\..\arduinoLCD\test\Pain Drain\libraries\lvgl\src\draw\sw/lv_draw_sw_arc.c **** 
 507:..\..\..\arduinoLCD\test\Pain Drain\libraries\lvgl\src\draw\sw/lv_draw_sw_arc.c ****     int32_t cir_x;
 508:..\..\..\arduinoLCD\test\Pain Drain\libraries\lvgl\src\draw\sw/lv_draw_sw_arc.c ****     int32_t cir_y;
 509:..\..\..\arduinoLCD\test\Pain Drain\libraries\lvgl\src\draw\sw/lv_draw_sw_arc.c **** 
 510:..\..\..\arduinoLCD\test\Pain Drain\libraries\lvgl\src\draw\sw/lv_draw_sw_arc.c ****     cir_x = ((radius - thick_half) * lv_trigo_sin(90 - angle)) >> (LV_TRIGO_SHIFT - ps);
 1308              		.loc 1 510 0
 1309 0012 C5EB0108 		rsb	r8, r5, r1
 1310 0016 C0F15A00 		rsb	r0, r0, #90
 1311              	.LVL97:
 1312 001a 00B2     		sxth	r0, r0
 1313 001c FFF7FEFF 		bl	lv_trigo_sin
 1314              	.LVL98:
ARM GAS  C:\Users\haske\AppData\Local\Temp\ccxlcgkV.s 			page 33


 1315 0020 08FB00F0 		mul	r0, r8, r0
 1316 0024 C411     		asrs	r4, r0, #7
 1317              	.LVL99:
 511:..\..\..\arduinoLCD\test\Pain Drain\libraries\lvgl\src\draw\sw/lv_draw_sw_arc.c ****     cir_y = ((radius - thick_half) * lv_trigo_sin(angle)) >> (LV_TRIGO_SHIFT - ps);
 1318              		.loc 1 511 0
 1319 0026 4846     		mov	r0, r9
 1320 0028 FFF7FEFF 		bl	lv_trigo_sin
 1321              	.LVL100:
 1322 002c 08FB00F0 		mul	r0, r8, r0
 1323 0030 C011     		asrs	r0, r0, #7
 1324              	.LVL101:
 512:..\..\..\arduinoLCD\test\Pain Drain\libraries\lvgl\src\draw\sw/lv_draw_sw_arc.c **** 
 513:..\..\..\arduinoLCD\test\Pain Drain\libraries\lvgl\src\draw\sw/lv_draw_sw_arc.c ****     /*Actually the center of the pixel need to be calculated so apply 1/2 px offset*/
 514:..\..\..\arduinoLCD\test\Pain Drain\libraries\lvgl\src\draw\sw/lv_draw_sw_arc.c ****     if(cir_x > 0) {
 1325              		.loc 1 514 0
 1326 0032 002C     		cmp	r4, #0
 1327 0034 09DD     		ble	.L46
 515:..\..\..\arduinoLCD\test\Pain Drain\libraries\lvgl\src\draw\sw/lv_draw_sw_arc.c ****         cir_x = (cir_x - pa) >> ps;
 1328              		.loc 1 515 0
 1329 0036 7F3C     		subs	r4, r4, #127
 1330              	.LVL102:
 516:..\..\..\arduinoLCD\test\Pain Drain\libraries\lvgl\src\draw\sw/lv_draw_sw_arc.c ****         res_area->x1 = cir_x - thick_half + thick_corr;
 1331              		.loc 1 516 0
 1332 0038 C4F30F24 		ubfx	r4, r4, #8, #16
 1333              	.LVL103:
 1334 003c ABB2     		uxth	r3, r5
 1335 003e E21A     		subs	r2, r4, r3
 1336 0040 3244     		add	r2, r2, r6
 1337 0042 3A80     		strh	r2, [r7]	@ movhi
 517:..\..\..\arduinoLCD\test\Pain Drain\libraries\lvgl\src\draw\sw/lv_draw_sw_arc.c ****         res_area->x2 = cir_x + thick_half;
 1338              		.loc 1 517 0
 1339 0044 1C44     		add	r4, r4, r3
 1340 0046 BC80     		strh	r4, [r7, #4]	@ movhi
 1341 0048 08E0     		b	.L47
 1342              	.LVL104:
 1343              	.L46:
 518:..\..\..\arduinoLCD\test\Pain Drain\libraries\lvgl\src\draw\sw/lv_draw_sw_arc.c ****     }
 519:..\..\..\arduinoLCD\test\Pain Drain\libraries\lvgl\src\draw\sw/lv_draw_sw_arc.c ****     else {
 520:..\..\..\arduinoLCD\test\Pain Drain\libraries\lvgl\src\draw\sw/lv_draw_sw_arc.c ****         cir_x = (cir_x + pa) >> ps;
 1344              		.loc 1 520 0
 1345 004a 7F34     		adds	r4, r4, #127
 1346              	.LVL105:
 521:..\..\..\arduinoLCD\test\Pain Drain\libraries\lvgl\src\draw\sw/lv_draw_sw_arc.c ****         res_area->x1 = cir_x - thick_half;
 1347              		.loc 1 521 0
 1348 004c C4F30F24 		ubfx	r4, r4, #8, #16
 1349              	.LVL106:
 1350 0050 ABB2     		uxth	r3, r5
 1351 0052 E21A     		subs	r2, r4, r3
 1352 0054 3A80     		strh	r2, [r7]	@ movhi
 522:..\..\..\arduinoLCD\test\Pain Drain\libraries\lvgl\src\draw\sw/lv_draw_sw_arc.c ****         res_area->x2 = cir_x + thick_half - thick_corr;
 1353              		.loc 1 522 0
 1354 0056 1C44     		add	r4, r4, r3
 1355 0058 A41B     		subs	r4, r4, r6
 1356 005a BC80     		strh	r4, [r7, #4]	@ movhi
 1357              	.L47:
 523:..\..\..\arduinoLCD\test\Pain Drain\libraries\lvgl\src\draw\sw/lv_draw_sw_arc.c ****     }
 524:..\..\..\arduinoLCD\test\Pain Drain\libraries\lvgl\src\draw\sw/lv_draw_sw_arc.c **** 
ARM GAS  C:\Users\haske\AppData\Local\Temp\ccxlcgkV.s 			page 34


 525:..\..\..\arduinoLCD\test\Pain Drain\libraries\lvgl\src\draw\sw/lv_draw_sw_arc.c ****     if(cir_y > 0) {
 1358              		.loc 1 525 0
 1359 005c 0028     		cmp	r0, #0
 1360 005e 0ADD     		ble	.L48
 526:..\..\..\arduinoLCD\test\Pain Drain\libraries\lvgl\src\draw\sw/lv_draw_sw_arc.c ****         cir_y = (cir_y - pa) >> ps;
 1361              		.loc 1 526 0
 1362 0060 7F38     		subs	r0, r0, #127
 1363              	.LVL107:
 527:..\..\..\arduinoLCD\test\Pain Drain\libraries\lvgl\src\draw\sw/lv_draw_sw_arc.c ****         res_area->y1 = cir_y - thick_half + thick_corr;
 1364              		.loc 1 527 0
 1365 0062 C0F30F20 		ubfx	r0, r0, #8, #16
 1366              	.LVL108:
 1367 0066 ADB2     		uxth	r5, r5
 1368              	.LVL109:
 1369 0068 421B     		subs	r2, r0, r5
 1370 006a 1644     		add	r6, r6, r2
 1371              	.LVL110:
 1372 006c 7E80     		strh	r6, [r7, #2]	@ movhi
 528:..\..\..\arduinoLCD\test\Pain Drain\libraries\lvgl\src\draw\sw/lv_draw_sw_arc.c ****         res_area->y2 = cir_y + thick_half;
 1373              		.loc 1 528 0
 1374 006e 0544     		add	r5, r5, r0
 1375 0070 FD80     		strh	r5, [r7, #6]	@ movhi
 1376 0072 BDE8F883 		pop	{r3, r4, r5, r6, r7, r8, r9, pc}
 1377              	.LVL111:
 1378              	.L48:
 529:..\..\..\arduinoLCD\test\Pain Drain\libraries\lvgl\src\draw\sw/lv_draw_sw_arc.c ****     }
 530:..\..\..\arduinoLCD\test\Pain Drain\libraries\lvgl\src\draw\sw/lv_draw_sw_arc.c ****     else {
 531:..\..\..\arduinoLCD\test\Pain Drain\libraries\lvgl\src\draw\sw/lv_draw_sw_arc.c ****         cir_y = (cir_y + pa) >> ps;
 1379              		.loc 1 531 0
 1380 0076 7F30     		adds	r0, r0, #127
 1381              	.LVL112:
 532:..\..\..\arduinoLCD\test\Pain Drain\libraries\lvgl\src\draw\sw/lv_draw_sw_arc.c ****         res_area->y1 = cir_y - thick_half;
 1382              		.loc 1 532 0
 1383 0078 C0F30F20 		ubfx	r0, r0, #8, #16
 1384              	.LVL113:
 1385 007c ADB2     		uxth	r5, r5
 1386              	.LVL114:
 1387 007e 431B     		subs	r3, r0, r5
 1388 0080 7B80     		strh	r3, [r7, #2]	@ movhi
 533:..\..\..\arduinoLCD\test\Pain Drain\libraries\lvgl\src\draw\sw/lv_draw_sw_arc.c ****         res_area->y2 = cir_y + thick_half - thick_corr;
 1389              		.loc 1 533 0
 1390 0082 0544     		add	r5, r5, r0
 1391 0084 AE1B     		subs	r6, r5, r6
 1392              	.LVL115:
 1393 0086 FE80     		strh	r6, [r7, #6]	@ movhi
 1394 0088 BDE8F883 		pop	{r3, r4, r5, r6, r7, r8, r9, pc}
 1395              		.cfi_endproc
 1396              	.LFE61:
 1397              		.size	get_rounded_area, .-get_rounded_area
 1398              		.section	.text.lv_draw_sw_arc,"ax",%progbits
 1399              		.align	2
 1400              		.global	lv_draw_sw_arc
 1401              		.thumb
 1402              		.thumb_func
 1403              		.type	lv_draw_sw_arc, %function
 1404              	lv_draw_sw_arc:
 1405              	.LFB56:
ARM GAS  C:\Users\haske\AppData\Local\Temp\ccxlcgkV.s 			page 35


  62:..\..\..\arduinoLCD\test\Pain Drain\libraries\lvgl\src\draw\sw/lv_draw_sw_arc.c **** #if LV_DRAW_COMPLEX
 1406              		.loc 1 62 0
 1407              		.cfi_startproc
 1408              		@ args = 8, pretend = 0, frame = 296
 1409              		@ frame_needed = 0, uses_anonymous_args = 0
 1410              	.LVL116:
 1411 0000 2DE9F04F 		push	{r4, r5, r6, r7, r8, r9, r10, fp, lr}
 1412              		.cfi_def_cfa_offset 36
 1413              		.cfi_offset 4, -36
 1414              		.cfi_offset 5, -32
 1415              		.cfi_offset 6, -28
 1416              		.cfi_offset 7, -24
 1417              		.cfi_offset 8, -20
 1418              		.cfi_offset 9, -16
 1419              		.cfi_offset 10, -12
 1420              		.cfi_offset 11, -8
 1421              		.cfi_offset 14, -4
 1422 0004 CDB0     		sub	sp, sp, #308
 1423              		.cfi_def_cfa_offset 344
 1424 0006 BDF85851 		ldrh	r5, [sp, #344]
 1425 000a BDF85C41 		ldrh	r4, [sp, #348]
  64:..\..\..\arduinoLCD\test\Pain Drain\libraries\lvgl\src\draw\sw/lv_draw_sw_arc.c ****     if(dsc->width == 0) return;
 1426              		.loc 1 64 0
 1427 000e 0E7B     		ldrb	r6, [r1, #12]	@ zero_extendqisi2
 1428 0010 022E     		cmp	r6, #2
 1429 0012 40F2A981 		bls	.L51
  65:..\..\..\arduinoLCD\test\Pain Drain\libraries\lvgl\src\draw\sw/lv_draw_sw_arc.c ****     if(start_angle == end_angle) return;
 1430              		.loc 1 65 0
 1431 0016 B1F902A0 		ldrsh	r10, [r1, #2]
 1432 001a BAF1000F 		cmp	r10, #0
 1433 001e 00F0A381 		beq	.L51
  66:..\..\..\arduinoLCD\test\Pain Drain\libraries\lvgl\src\draw\sw/lv_draw_sw_arc.c **** 
 1434              		.loc 1 66 0
 1435 0022 A542     		cmp	r5, r4
 1436 0024 00F0A081 		beq	.L51
 1437              	.LVL117:
  69:..\..\..\arduinoLCD\test\Pain Drain\libraries\lvgl\src\draw\sw/lv_draw_sw_arc.c **** 
 1438              		.loc 1 69 0
 1439 0028 9A45     		cmp	r10, r3
 1440 002a 01DD     		ble	.L53
  69:..\..\..\arduinoLCD\test\Pain Drain\libraries\lvgl\src\draw\sw/lv_draw_sw_arc.c **** 
 1441              		.loc 1 69 0 is_stmt 0 discriminator 1
 1442 002c 0FFA83FA 		sxth	r10, r3
 1443              	.LVL118:
 1444              	.L53:
 1445 0030 1F46     		mov	r7, r3
 1446 0032 9046     		mov	r8, r2
 1447 0034 0E46     		mov	r6, r1
 1448 0036 8146     		mov	r9, r0
  72:..\..\..\arduinoLCD\test\Pain Drain\libraries\lvgl\src\draw\sw/lv_draw_sw_arc.c ****     cir_dsc.blend_mode = dsc->blend_mode;
 1449              		.loc 1 72 0 is_stmt 1
 1450 0038 3EA8     		add	r0, sp, #248
 1451              	.LVL119:
 1452 003a FFF7FEFF 		bl	lv_draw_rect_dsc_init
 1453              	.LVL120:
  73:..\..\..\arduinoLCD\test\Pain Drain\libraries\lvgl\src\draw\sw/lv_draw_sw_arc.c ****     if(dsc->img_src) {
 1454              		.loc 1 73 0
ARM GAS  C:\Users\haske\AppData\Local\Temp\ccxlcgkV.s 			page 36


 1455 003e 737B     		ldrb	r3, [r6, #13]	@ zero_extendqisi2
 1456 0040 C3F30103 		ubfx	r3, r3, #0, #2
 1457 0044 8DF8FA30 		strb	r3, [sp, #250]
  74:..\..\..\arduinoLCD\test\Pain Drain\libraries\lvgl\src\draw\sw/lv_draw_sw_arc.c ****         cir_dsc.bg_opa = LV_OPA_TRANSP;
 1458              		.loc 1 74 0
 1459 0048 B368     		ldr	r3, [r6, #8]
 1460 004a 3BB1     		cbz	r3, .L54
  75:..\..\..\arduinoLCD\test\Pain Drain\libraries\lvgl\src\draw\sw/lv_draw_sw_arc.c ****         cir_dsc.bg_img_src = dsc->img_src;
 1461              		.loc 1 75 0
 1462 004c 0022     		movs	r2, #0
 1463 004e 8DF8FB20 		strb	r2, [sp, #251]
  76:..\..\..\arduinoLCD\test\Pain Drain\libraries\lvgl\src\draw\sw/lv_draw_sw_arc.c ****         cir_dsc.bg_img_opa = dsc->opa;
 1464              		.loc 1 76 0
 1465 0052 4293     		str	r3, [sp, #264]
  77:..\..\..\arduinoLCD\test\Pain Drain\libraries\lvgl\src\draw\sw/lv_draw_sw_arc.c ****     }
 1466              		.loc 1 77 0
 1467 0054 337B     		ldrb	r3, [r6, #12]	@ zero_extendqisi2
 1468 0056 8DF81231 		strb	r3, [sp, #274]
 1469 005a 05E0     		b	.L55
 1470              	.L54:
  80:..\..\..\arduinoLCD\test\Pain Drain\libraries\lvgl\src\draw\sw/lv_draw_sw_arc.c ****         cir_dsc.bg_color = dsc->color;
 1471              		.loc 1 80 0
 1472 005c 337B     		ldrb	r3, [r6, #12]	@ zero_extendqisi2
 1473 005e 8DF8FB30 		strb	r3, [sp, #251]
  81:..\..\..\arduinoLCD\test\Pain Drain\libraries\lvgl\src\draw\sw/lv_draw_sw_arc.c ****     }
 1474              		.loc 1 81 0
 1475 0062 3388     		ldrh	r3, [r6]
 1476 0064 ADF8FC30 		strh	r3, [sp, #252]	@ movhi
 1477              	.L55:
  85:..\..\..\arduinoLCD\test\Pain Drain\libraries\lvgl\src\draw\sw/lv_draw_sw_arc.c ****     area_out.y1 = center->y - radius;
 1478              		.loc 1 85 0
 1479 0068 B8F90020 		ldrsh	r2, [r8]
 1480 006c C7EB020E 		rsb	lr, r7, r2
 1481 0070 1FFA8EFE 		uxth	lr, lr
 1482 0074 ADF8F0E0 		strh	lr, [sp, #240]	@ movhi
  86:..\..\..\arduinoLCD\test\Pain Drain\libraries\lvgl\src\draw\sw/lv_draw_sw_arc.c ****     area_out.x2 = center->x + radius - 1;  /*-1 because the center already belongs to the left/bott
 1483              		.loc 1 86 0
 1484 0078 B8F90200 		ldrsh	r0, [r8, #2]
 1485 007c C11B     		subs	r1, r0, r7
 1486 007e 89B2     		uxth	r1, r1
 1487 0080 ADF8F210 		strh	r1, [sp, #242]	@ movhi
  87:..\..\..\arduinoLCD\test\Pain Drain\libraries\lvgl\src\draw\sw/lv_draw_sw_arc.c ****     area_out.y2 = center->y + radius - 1;
 1488              		.loc 1 87 0
 1489 0084 3A44     		add	r2, r2, r7
 1490 0086 013A     		subs	r2, r2, #1
 1491 0088 92B2     		uxth	r2, r2
 1492 008a ADF8F420 		strh	r2, [sp, #244]	@ movhi
  88:..\..\..\arduinoLCD\test\Pain Drain\libraries\lvgl\src\draw\sw/lv_draw_sw_arc.c **** 
 1493              		.loc 1 88 0
 1494 008e 3844     		add	r0, r0, r7
 1495 0090 0138     		subs	r0, r0, #1
 1496 0092 80B2     		uxth	r0, r0
 1497 0094 ADF8F600 		strh	r0, [sp, #246]	@ movhi
  92:..\..\..\arduinoLCD\test\Pain Drain\libraries\lvgl\src\draw\sw/lv_draw_sw_arc.c ****     area_in.y1 += dsc->width;
 1498              		.loc 1 92 0
 1499 0098 B6F902C0 		ldrsh	ip, [r6, #2]
 1500 009c 1FFA8CFB 		uxth	fp, ip
ARM GAS  C:\Users\haske\AppData\Local\Temp\ccxlcgkV.s 			page 37


 1501 00a0 0EEB0B03 		add	r3, lr, fp
 1502 00a4 1FFA83FE 		uxth	lr, r3
 1503 00a8 ADF8E8E0 		strh	lr, [sp, #232]	@ movhi
  93:..\..\..\arduinoLCD\test\Pain Drain\libraries\lvgl\src\draw\sw/lv_draw_sw_arc.c ****     area_in.x2 -= dsc->width;
 1504              		.loc 1 93 0
 1505 00ac 5944     		add	r1, r1, fp
 1506 00ae 89B2     		uxth	r1, r1
 1507 00b0 ADF8EA10 		strh	r1, [sp, #234]	@ movhi
  94:..\..\..\arduinoLCD\test\Pain Drain\libraries\lvgl\src\draw\sw/lv_draw_sw_arc.c ****     area_in.y2 -= dsc->width;
 1508              		.loc 1 94 0
 1509 00b4 CCEB0202 		rsb	r2, ip, r2
 1510 00b8 93B2     		uxth	r3, r2
 1511 00ba ADF8EC30 		strh	r3, [sp, #236]	@ movhi
  95:..\..\..\arduinoLCD\test\Pain Drain\libraries\lvgl\src\draw\sw/lv_draw_sw_arc.c **** 
 1512              		.loc 1 95 0
 1513 00be CCEB0000 		rsb	r0, ip, r0
 1514 00c2 80B2     		uxth	r0, r0
 1515 00c4 ADF8EE00 		strh	r0, [sp, #238]	@ movhi
 1516              	.LVL121:
 1517              	.LBB28:
 1518              	.LBB29:
 1519              		.file 2 "c:\\projects\\paindrain\\arduinolcd\\test\\pain drain\\libraries\\lvgl\\src\\misc\\lv_are
   1:c:\projects\paindrain\arduinolcd\test\pain drain\libraries\lvgl\src\misc\lv_area.h **** /**
   2:c:\projects\paindrain\arduinolcd\test\pain drain\libraries\lvgl\src\misc\lv_area.h ****  * @file lv_area.h
   3:c:\projects\paindrain\arduinolcd\test\pain drain\libraries\lvgl\src\misc\lv_area.h ****  *
   4:c:\projects\paindrain\arduinolcd\test\pain drain\libraries\lvgl\src\misc\lv_area.h ****  */
   5:c:\projects\paindrain\arduinolcd\test\pain drain\libraries\lvgl\src\misc\lv_area.h **** 
   6:c:\projects\paindrain\arduinolcd\test\pain drain\libraries\lvgl\src\misc\lv_area.h **** #ifndef LV_AREA_H
   7:c:\projects\paindrain\arduinolcd\test\pain drain\libraries\lvgl\src\misc\lv_area.h **** #define LV_AREA_H
   8:c:\projects\paindrain\arduinolcd\test\pain drain\libraries\lvgl\src\misc\lv_area.h **** 
   9:c:\projects\paindrain\arduinolcd\test\pain drain\libraries\lvgl\src\misc\lv_area.h **** #ifdef __cplusplus
  10:c:\projects\paindrain\arduinolcd\test\pain drain\libraries\lvgl\src\misc\lv_area.h **** extern "C" {
  11:c:\projects\paindrain\arduinolcd\test\pain drain\libraries\lvgl\src\misc\lv_area.h **** #endif
  12:c:\projects\paindrain\arduinolcd\test\pain drain\libraries\lvgl\src\misc\lv_area.h **** 
  13:c:\projects\paindrain\arduinolcd\test\pain drain\libraries\lvgl\src\misc\lv_area.h **** /*********************
  14:c:\projects\paindrain\arduinolcd\test\pain drain\libraries\lvgl\src\misc\lv_area.h ****  *      INCLUDES
  15:c:\projects\paindrain\arduinolcd\test\pain drain\libraries\lvgl\src\misc\lv_area.h ****  *********************/
  16:c:\projects\paindrain\arduinolcd\test\pain drain\libraries\lvgl\src\misc\lv_area.h **** #include "../lv_conf_internal.h"
  17:c:\projects\paindrain\arduinolcd\test\pain drain\libraries\lvgl\src\misc\lv_area.h **** #include <stdbool.h>
  18:c:\projects\paindrain\arduinolcd\test\pain drain\libraries\lvgl\src\misc\lv_area.h **** #include <stdint.h>
  19:c:\projects\paindrain\arduinolcd\test\pain drain\libraries\lvgl\src\misc\lv_area.h **** 
  20:c:\projects\paindrain\arduinolcd\test\pain drain\libraries\lvgl\src\misc\lv_area.h **** /*********************
  21:c:\projects\paindrain\arduinolcd\test\pain drain\libraries\lvgl\src\misc\lv_area.h ****  *      DEFINES
  22:c:\projects\paindrain\arduinolcd\test\pain drain\libraries\lvgl\src\misc\lv_area.h ****  *********************/
  23:c:\projects\paindrain\arduinolcd\test\pain drain\libraries\lvgl\src\misc\lv_area.h **** 
  24:c:\projects\paindrain\arduinolcd\test\pain drain\libraries\lvgl\src\misc\lv_area.h **** #if LV_USE_LARGE_COORD
  25:c:\projects\paindrain\arduinolcd\test\pain drain\libraries\lvgl\src\misc\lv_area.h **** typedef int32_t lv_coord_t;
  26:c:\projects\paindrain\arduinolcd\test\pain drain\libraries\lvgl\src\misc\lv_area.h **** #else
  27:c:\projects\paindrain\arduinolcd\test\pain drain\libraries\lvgl\src\misc\lv_area.h **** typedef int16_t lv_coord_t;
  28:c:\projects\paindrain\arduinolcd\test\pain drain\libraries\lvgl\src\misc\lv_area.h **** #endif
  29:c:\projects\paindrain\arduinolcd\test\pain drain\libraries\lvgl\src\misc\lv_area.h **** 
  30:c:\projects\paindrain\arduinolcd\test\pain drain\libraries\lvgl\src\misc\lv_area.h **** /**********************
  31:c:\projects\paindrain\arduinolcd\test\pain drain\libraries\lvgl\src\misc\lv_area.h ****  *      TYPEDEFS
  32:c:\projects\paindrain\arduinolcd\test\pain drain\libraries\lvgl\src\misc\lv_area.h ****  **********************/
  33:c:\projects\paindrain\arduinolcd\test\pain drain\libraries\lvgl\src\misc\lv_area.h **** 
  34:c:\projects\paindrain\arduinolcd\test\pain drain\libraries\lvgl\src\misc\lv_area.h **** /**
  35:c:\projects\paindrain\arduinolcd\test\pain drain\libraries\lvgl\src\misc\lv_area.h ****  * Represents a point on the screen.
ARM GAS  C:\Users\haske\AppData\Local\Temp\ccxlcgkV.s 			page 38


  36:c:\projects\paindrain\arduinolcd\test\pain drain\libraries\lvgl\src\misc\lv_area.h ****  */
  37:c:\projects\paindrain\arduinolcd\test\pain drain\libraries\lvgl\src\misc\lv_area.h **** typedef struct {
  38:c:\projects\paindrain\arduinolcd\test\pain drain\libraries\lvgl\src\misc\lv_area.h ****     lv_coord_t x;
  39:c:\projects\paindrain\arduinolcd\test\pain drain\libraries\lvgl\src\misc\lv_area.h ****     lv_coord_t y;
  40:c:\projects\paindrain\arduinolcd\test\pain drain\libraries\lvgl\src\misc\lv_area.h **** } lv_point_t;
  41:c:\projects\paindrain\arduinolcd\test\pain drain\libraries\lvgl\src\misc\lv_area.h **** 
  42:c:\projects\paindrain\arduinolcd\test\pain drain\libraries\lvgl\src\misc\lv_area.h **** /** Represents an area of the screen.*/
  43:c:\projects\paindrain\arduinolcd\test\pain drain\libraries\lvgl\src\misc\lv_area.h **** typedef struct {
  44:c:\projects\paindrain\arduinolcd\test\pain drain\libraries\lvgl\src\misc\lv_area.h ****     lv_coord_t x1;
  45:c:\projects\paindrain\arduinolcd\test\pain drain\libraries\lvgl\src\misc\lv_area.h ****     lv_coord_t y1;
  46:c:\projects\paindrain\arduinolcd\test\pain drain\libraries\lvgl\src\misc\lv_area.h ****     lv_coord_t x2;
  47:c:\projects\paindrain\arduinolcd\test\pain drain\libraries\lvgl\src\misc\lv_area.h ****     lv_coord_t y2;
  48:c:\projects\paindrain\arduinolcd\test\pain drain\libraries\lvgl\src\misc\lv_area.h **** } lv_area_t;
  49:c:\projects\paindrain\arduinolcd\test\pain drain\libraries\lvgl\src\misc\lv_area.h **** 
  50:c:\projects\paindrain\arduinolcd\test\pain drain\libraries\lvgl\src\misc\lv_area.h **** /** Alignments*/
  51:c:\projects\paindrain\arduinolcd\test\pain drain\libraries\lvgl\src\misc\lv_area.h **** enum {
  52:c:\projects\paindrain\arduinolcd\test\pain drain\libraries\lvgl\src\misc\lv_area.h ****     LV_ALIGN_DEFAULT = 0,
  53:c:\projects\paindrain\arduinolcd\test\pain drain\libraries\lvgl\src\misc\lv_area.h ****     LV_ALIGN_TOP_LEFT,
  54:c:\projects\paindrain\arduinolcd\test\pain drain\libraries\lvgl\src\misc\lv_area.h ****     LV_ALIGN_TOP_MID,
  55:c:\projects\paindrain\arduinolcd\test\pain drain\libraries\lvgl\src\misc\lv_area.h ****     LV_ALIGN_TOP_RIGHT,
  56:c:\projects\paindrain\arduinolcd\test\pain drain\libraries\lvgl\src\misc\lv_area.h ****     LV_ALIGN_BOTTOM_LEFT,
  57:c:\projects\paindrain\arduinolcd\test\pain drain\libraries\lvgl\src\misc\lv_area.h ****     LV_ALIGN_BOTTOM_MID,
  58:c:\projects\paindrain\arduinolcd\test\pain drain\libraries\lvgl\src\misc\lv_area.h ****     LV_ALIGN_BOTTOM_RIGHT,
  59:c:\projects\paindrain\arduinolcd\test\pain drain\libraries\lvgl\src\misc\lv_area.h ****     LV_ALIGN_LEFT_MID,
  60:c:\projects\paindrain\arduinolcd\test\pain drain\libraries\lvgl\src\misc\lv_area.h ****     LV_ALIGN_RIGHT_MID,
  61:c:\projects\paindrain\arduinolcd\test\pain drain\libraries\lvgl\src\misc\lv_area.h ****     LV_ALIGN_CENTER,
  62:c:\projects\paindrain\arduinolcd\test\pain drain\libraries\lvgl\src\misc\lv_area.h **** 
  63:c:\projects\paindrain\arduinolcd\test\pain drain\libraries\lvgl\src\misc\lv_area.h ****     LV_ALIGN_OUT_TOP_LEFT,
  64:c:\projects\paindrain\arduinolcd\test\pain drain\libraries\lvgl\src\misc\lv_area.h ****     LV_ALIGN_OUT_TOP_MID,
  65:c:\projects\paindrain\arduinolcd\test\pain drain\libraries\lvgl\src\misc\lv_area.h ****     LV_ALIGN_OUT_TOP_RIGHT,
  66:c:\projects\paindrain\arduinolcd\test\pain drain\libraries\lvgl\src\misc\lv_area.h ****     LV_ALIGN_OUT_BOTTOM_LEFT,
  67:c:\projects\paindrain\arduinolcd\test\pain drain\libraries\lvgl\src\misc\lv_area.h ****     LV_ALIGN_OUT_BOTTOM_MID,
  68:c:\projects\paindrain\arduinolcd\test\pain drain\libraries\lvgl\src\misc\lv_area.h ****     LV_ALIGN_OUT_BOTTOM_RIGHT,
  69:c:\projects\paindrain\arduinolcd\test\pain drain\libraries\lvgl\src\misc\lv_area.h ****     LV_ALIGN_OUT_LEFT_TOP,
  70:c:\projects\paindrain\arduinolcd\test\pain drain\libraries\lvgl\src\misc\lv_area.h ****     LV_ALIGN_OUT_LEFT_MID,
  71:c:\projects\paindrain\arduinolcd\test\pain drain\libraries\lvgl\src\misc\lv_area.h ****     LV_ALIGN_OUT_LEFT_BOTTOM,
  72:c:\projects\paindrain\arduinolcd\test\pain drain\libraries\lvgl\src\misc\lv_area.h ****     LV_ALIGN_OUT_RIGHT_TOP,
  73:c:\projects\paindrain\arduinolcd\test\pain drain\libraries\lvgl\src\misc\lv_area.h ****     LV_ALIGN_OUT_RIGHT_MID,
  74:c:\projects\paindrain\arduinolcd\test\pain drain\libraries\lvgl\src\misc\lv_area.h ****     LV_ALIGN_OUT_RIGHT_BOTTOM,
  75:c:\projects\paindrain\arduinolcd\test\pain drain\libraries\lvgl\src\misc\lv_area.h **** };
  76:c:\projects\paindrain\arduinolcd\test\pain drain\libraries\lvgl\src\misc\lv_area.h **** typedef uint8_t lv_align_t;
  77:c:\projects\paindrain\arduinolcd\test\pain drain\libraries\lvgl\src\misc\lv_area.h **** 
  78:c:\projects\paindrain\arduinolcd\test\pain drain\libraries\lvgl\src\misc\lv_area.h **** enum {
  79:c:\projects\paindrain\arduinolcd\test\pain drain\libraries\lvgl\src\misc\lv_area.h ****     LV_DIR_NONE     = 0x00,
  80:c:\projects\paindrain\arduinolcd\test\pain drain\libraries\lvgl\src\misc\lv_area.h ****     LV_DIR_LEFT     = (1 << 0),
  81:c:\projects\paindrain\arduinolcd\test\pain drain\libraries\lvgl\src\misc\lv_area.h ****     LV_DIR_RIGHT    = (1 << 1),
  82:c:\projects\paindrain\arduinolcd\test\pain drain\libraries\lvgl\src\misc\lv_area.h ****     LV_DIR_TOP      = (1 << 2),
  83:c:\projects\paindrain\arduinolcd\test\pain drain\libraries\lvgl\src\misc\lv_area.h ****     LV_DIR_BOTTOM   = (1 << 3),
  84:c:\projects\paindrain\arduinolcd\test\pain drain\libraries\lvgl\src\misc\lv_area.h ****     LV_DIR_HOR      = LV_DIR_LEFT | LV_DIR_RIGHT,
  85:c:\projects\paindrain\arduinolcd\test\pain drain\libraries\lvgl\src\misc\lv_area.h ****     LV_DIR_VER      = LV_DIR_TOP | LV_DIR_BOTTOM,
  86:c:\projects\paindrain\arduinolcd\test\pain drain\libraries\lvgl\src\misc\lv_area.h ****     LV_DIR_ALL      = LV_DIR_HOR | LV_DIR_VER,
  87:c:\projects\paindrain\arduinolcd\test\pain drain\libraries\lvgl\src\misc\lv_area.h **** };
  88:c:\projects\paindrain\arduinolcd\test\pain drain\libraries\lvgl\src\misc\lv_area.h **** 
  89:c:\projects\paindrain\arduinolcd\test\pain drain\libraries\lvgl\src\misc\lv_area.h **** typedef uint8_t lv_dir_t;
  90:c:\projects\paindrain\arduinolcd\test\pain drain\libraries\lvgl\src\misc\lv_area.h **** 
  91:c:\projects\paindrain\arduinolcd\test\pain drain\libraries\lvgl\src\misc\lv_area.h **** /**********************
  92:c:\projects\paindrain\arduinolcd\test\pain drain\libraries\lvgl\src\misc\lv_area.h ****  * GLOBAL PROTOTYPES
ARM GAS  C:\Users\haske\AppData\Local\Temp\ccxlcgkV.s 			page 39


  93:c:\projects\paindrain\arduinolcd\test\pain drain\libraries\lvgl\src\misc\lv_area.h ****  **********************/
  94:c:\projects\paindrain\arduinolcd\test\pain drain\libraries\lvgl\src\misc\lv_area.h **** 
  95:c:\projects\paindrain\arduinolcd\test\pain drain\libraries\lvgl\src\misc\lv_area.h **** /**
  96:c:\projects\paindrain\arduinolcd\test\pain drain\libraries\lvgl\src\misc\lv_area.h ****  * Initialize an area
  97:c:\projects\paindrain\arduinolcd\test\pain drain\libraries\lvgl\src\misc\lv_area.h ****  * @param area_p pointer to an area
  98:c:\projects\paindrain\arduinolcd\test\pain drain\libraries\lvgl\src\misc\lv_area.h ****  * @param x1 left coordinate of the area
  99:c:\projects\paindrain\arduinolcd\test\pain drain\libraries\lvgl\src\misc\lv_area.h ****  * @param y1 top coordinate of the area
 100:c:\projects\paindrain\arduinolcd\test\pain drain\libraries\lvgl\src\misc\lv_area.h ****  * @param x2 right coordinate of the area
 101:c:\projects\paindrain\arduinolcd\test\pain drain\libraries\lvgl\src\misc\lv_area.h ****  * @param y2 bottom coordinate of the area
 102:c:\projects\paindrain\arduinolcd\test\pain drain\libraries\lvgl\src\misc\lv_area.h ****  */
 103:c:\projects\paindrain\arduinolcd\test\pain drain\libraries\lvgl\src\misc\lv_area.h **** void lv_area_set(lv_area_t * area_p, lv_coord_t x1, lv_coord_t y1, lv_coord_t x2, lv_coord_t y2);
 104:c:\projects\paindrain\arduinolcd\test\pain drain\libraries\lvgl\src\misc\lv_area.h **** 
 105:c:\projects\paindrain\arduinolcd\test\pain drain\libraries\lvgl\src\misc\lv_area.h **** /**
 106:c:\projects\paindrain\arduinolcd\test\pain drain\libraries\lvgl\src\misc\lv_area.h ****  * Copy an area
 107:c:\projects\paindrain\arduinolcd\test\pain drain\libraries\lvgl\src\misc\lv_area.h ****  * @param dest pointer to the destination area
 108:c:\projects\paindrain\arduinolcd\test\pain drain\libraries\lvgl\src\misc\lv_area.h ****  * @param src pointer to the source area
 109:c:\projects\paindrain\arduinolcd\test\pain drain\libraries\lvgl\src\misc\lv_area.h ****  */
 110:c:\projects\paindrain\arduinolcd\test\pain drain\libraries\lvgl\src\misc\lv_area.h **** inline static void lv_area_copy(lv_area_t * dest, const lv_area_t * src)
 111:c:\projects\paindrain\arduinolcd\test\pain drain\libraries\lvgl\src\misc\lv_area.h **** {
 112:c:\projects\paindrain\arduinolcd\test\pain drain\libraries\lvgl\src\misc\lv_area.h ****     dest->x1 = src->x1;
 113:c:\projects\paindrain\arduinolcd\test\pain drain\libraries\lvgl\src\misc\lv_area.h ****     dest->y1 = src->y1;
 114:c:\projects\paindrain\arduinolcd\test\pain drain\libraries\lvgl\src\misc\lv_area.h ****     dest->x2 = src->x2;
 115:c:\projects\paindrain\arduinolcd\test\pain drain\libraries\lvgl\src\misc\lv_area.h ****     dest->y2 = src->y2;
 116:c:\projects\paindrain\arduinolcd\test\pain drain\libraries\lvgl\src\misc\lv_area.h **** }
 117:c:\projects\paindrain\arduinolcd\test\pain drain\libraries\lvgl\src\misc\lv_area.h **** 
 118:c:\projects\paindrain\arduinolcd\test\pain drain\libraries\lvgl\src\misc\lv_area.h **** /**
 119:c:\projects\paindrain\arduinolcd\test\pain drain\libraries\lvgl\src\misc\lv_area.h ****  * Get the width of an area
 120:c:\projects\paindrain\arduinolcd\test\pain drain\libraries\lvgl\src\misc\lv_area.h ****  * @param area_p pointer to an area
 121:c:\projects\paindrain\arduinolcd\test\pain drain\libraries\lvgl\src\misc\lv_area.h ****  * @return the width of the area (if x1 == x2 -> width = 1)
 122:c:\projects\paindrain\arduinolcd\test\pain drain\libraries\lvgl\src\misc\lv_area.h ****  */
 123:c:\projects\paindrain\arduinolcd\test\pain drain\libraries\lvgl\src\misc\lv_area.h **** static inline lv_coord_t lv_area_get_width(const lv_area_t * area_p)
 124:c:\projects\paindrain\arduinolcd\test\pain drain\libraries\lvgl\src\misc\lv_area.h **** {
 125:c:\projects\paindrain\arduinolcd\test\pain drain\libraries\lvgl\src\misc\lv_area.h ****     return (lv_coord_t)(area_p->x2 - area_p->x1 + 1);
 1520              		.loc 2 125 0
 1521 00c8 CEEB0303 		rsb	r3, lr, r3
 1522 00cc 0133     		adds	r3, r3, #1
 1523 00ce 1BB2     		sxth	r3, r3
 1524              	.LVL122:
 1525              	.LBE29:
 1526              	.LBE28:
 101:..\..\..\arduinoLCD\test\Pain Drain\libraries\lvgl\src\draw\sw/lv_draw_sw_arc.c ****         lv_draw_mask_radius_init(&mask_in_param, &area_in, LV_RADIUS_CIRCLE, true);
 1527              		.loc 1 101 0
 1528 00d0 002B     		cmp	r3, #0
 1529 00d2 13DD     		ble	.L73
 1530              	.LVL123:
 1531              	.LBB30:
 1532              	.LBB31:
 126:c:\projects\paindrain\arduinolcd\test\pain drain\libraries\lvgl\src\misc\lv_area.h **** }
 127:c:\projects\paindrain\arduinolcd\test\pain drain\libraries\lvgl\src\misc\lv_area.h **** 
 128:c:\projects\paindrain\arduinolcd\test\pain drain\libraries\lvgl\src\misc\lv_area.h **** /**
 129:c:\projects\paindrain\arduinolcd\test\pain drain\libraries\lvgl\src\misc\lv_area.h ****  * Get the height of an area
 130:c:\projects\paindrain\arduinolcd\test\pain drain\libraries\lvgl\src\misc\lv_area.h ****  * @param area_p pointer to an area
 131:c:\projects\paindrain\arduinolcd\test\pain drain\libraries\lvgl\src\misc\lv_area.h ****  * @return the height of the area (if y1 == y2 -> height = 1)
 132:c:\projects\paindrain\arduinolcd\test\pain drain\libraries\lvgl\src\misc\lv_area.h ****  */
 133:c:\projects\paindrain\arduinolcd\test\pain drain\libraries\lvgl\src\misc\lv_area.h **** static inline lv_coord_t lv_area_get_height(const lv_area_t * area_p)
 134:c:\projects\paindrain\arduinolcd\test\pain drain\libraries\lvgl\src\misc\lv_area.h **** {
 135:c:\projects\paindrain\arduinolcd\test\pain drain\libraries\lvgl\src\misc\lv_area.h ****     return (lv_coord_t)(area_p->y2 - area_p->y1 + 1);
ARM GAS  C:\Users\haske\AppData\Local\Temp\ccxlcgkV.s 			page 40


 1533              		.loc 2 135 0
 1534 00d4 411A     		subs	r1, r0, r1
 1535 00d6 0131     		adds	r1, r1, #1
 1536 00d8 09B2     		sxth	r1, r1
 1537              	.LVL124:
 1538              	.LBE31:
 1539              	.LBE30:
 101:..\..\..\arduinoLCD\test\Pain Drain\libraries\lvgl\src\draw\sw/lv_draw_sw_arc.c ****         lv_draw_mask_radius_init(&mask_in_param, &area_in, LV_RADIUS_CIRCLE, true);
 1540              		.loc 1 101 0
 1541 00da 0029     		cmp	r1, #0
 1542 00dc 13DD     		ble	.L74
 102:..\..\..\arduinoLCD\test\Pain Drain\libraries\lvgl\src\draw\sw/lv_draw_sw_arc.c ****         mask_in_param_valid = true;
 1543              		.loc 1 102 0
 1544 00de 0123     		movs	r3, #1
 1545 00e0 47F6FF72 		movw	r2, #32767
 1546 00e4 3AA9     		add	r1, sp, #232
 1547 00e6 34A8     		add	r0, sp, #208
 1548 00e8 FFF7FEFF 		bl	lv_draw_mask_radius_init
 1549              	.LVL125:
 104:..\..\..\arduinoLCD\test\Pain Drain\libraries\lvgl\src\draw\sw/lv_draw_sw_arc.c ****     }
 1550              		.loc 1 104 0
 1551 00ec 0021     		movs	r1, #0
 1552 00ee 34A8     		add	r0, sp, #208
 1553 00f0 FFF7FEFF 		bl	lv_draw_mask_add
 1554              	.LVL126:
 1555 00f4 8346     		mov	fp, r0
 1556              	.LVL127:
 103:..\..\..\arduinoLCD\test\Pain Drain\libraries\lvgl\src\draw\sw/lv_draw_sw_arc.c ****         mask_in_id = lv_draw_mask_add(&mask_in_param, NULL);
 1557              		.loc 1 103 0
 1558 00f6 0123     		movs	r3, #1
 1559 00f8 0293     		str	r3, [sp, #8]
 1560 00fa 08E0     		b	.L56
 1561              	.LVL128:
 1562              	.L73:
 100:..\..\..\arduinoLCD\test\Pain Drain\libraries\lvgl\src\draw\sw/lv_draw_sw_arc.c ****     if(lv_area_get_width(&area_in) > 0 && lv_area_get_height(&area_in) > 0) {
 1563              		.loc 1 100 0
 1564 00fc 0023     		movs	r3, #0
 1565 00fe 0293     		str	r3, [sp, #8]
  98:..\..\..\arduinoLCD\test\Pain Drain\libraries\lvgl\src\draw\sw/lv_draw_sw_arc.c ****     lv_draw_mask_radius_param_t mask_in_param;
 1566              		.loc 1 98 0
 1567 0100 4FF0FF3B 		mov	fp, #-1
 1568 0104 03E0     		b	.L56
 1569              	.L74:
 100:..\..\..\arduinoLCD\test\Pain Drain\libraries\lvgl\src\draw\sw/lv_draw_sw_arc.c ****     if(lv_area_get_width(&area_in) > 0 && lv_area_get_height(&area_in) > 0) {
 1570              		.loc 1 100 0
 1571 0106 0023     		movs	r3, #0
 1572 0108 0293     		str	r3, [sp, #8]
  98:..\..\..\arduinoLCD\test\Pain Drain\libraries\lvgl\src\draw\sw/lv_draw_sw_arc.c ****     lv_draw_mask_radius_param_t mask_in_param;
 1573              		.loc 1 98 0
 1574 010a 4FF0FF3B 		mov	fp, #-1
 1575              	.LVL129:
 1576              	.L56:
 108:..\..\..\arduinoLCD\test\Pain Drain\libraries\lvgl\src\draw\sw/lv_draw_sw_arc.c ****     int16_t mask_out_id = lv_draw_mask_add(&mask_out_param, NULL);
 1577              		.loc 1 108 0
 1578 010e 0023     		movs	r3, #0
 1579 0110 47F6FF72 		movw	r2, #32767
 1580 0114 3CA9     		add	r1, sp, #240
ARM GAS  C:\Users\haske\AppData\Local\Temp\ccxlcgkV.s 			page 41


 1581 0116 2EA8     		add	r0, sp, #184
 1582 0118 FFF7FEFF 		bl	lv_draw_mask_radius_init
 1583              	.LVL130:
 109:..\..\..\arduinoLCD\test\Pain Drain\libraries\lvgl\src\draw\sw/lv_draw_sw_arc.c **** 
 1584              		.loc 1 109 0
 1585 011c 0021     		movs	r1, #0
 1586 011e 2EA8     		add	r0, sp, #184
 1587 0120 FFF7FEFF 		bl	lv_draw_mask_add
 1588              	.LVL131:
 1589 0124 0390     		str	r0, [sp, #12]
 1590              	.LVL132:
 112:..\..\..\arduinoLCD\test\Pain Drain\libraries\lvgl\src\draw\sw/lv_draw_sw_arc.c ****         cir_dsc.radius = LV_RADIUS_CIRCLE;
 1591              		.loc 1 112 0
 1592 0126 05F5B473 		add	r3, r5, #360
 1593 012a A342     		cmp	r3, r4
 1594 012c 03D0     		beq	.L57
 112:..\..\..\arduinoLCD\test\Pain Drain\libraries\lvgl\src\draw\sw/lv_draw_sw_arc.c ****         cir_dsc.radius = LV_RADIUS_CIRCLE;
 1595              		.loc 1 112 0 is_stmt 0 discriminator 1
 1596 012e 04F5B473 		add	r3, r4, #360
 1597 0132 9D42     		cmp	r5, r3
 1598 0134 1FD1     		bne	.L58
 1599              	.L57:
 113:..\..\..\arduinoLCD\test\Pain Drain\libraries\lvgl\src\draw\sw/lv_draw_sw_arc.c ****         lv_draw_rect(draw_ctx, &cir_dsc, &area_out);
 1600              		.loc 1 113 0 is_stmt 1
 1601 0136 47F6FF73 		movw	r3, #32767
 1602 013a ADF8F830 		strh	r3, [sp, #248]	@ movhi
 114:..\..\..\arduinoLCD\test\Pain Drain\libraries\lvgl\src\draw\sw/lv_draw_sw_arc.c **** 
 1603              		.loc 1 114 0
 1604 013e 3CAA     		add	r2, sp, #240
 1605 0140 3EA9     		add	r1, sp, #248
 1606 0142 4846     		mov	r0, r9
 1607 0144 FFF7FEFF 		bl	lv_draw_rect
 1608              	.LVL133:
 116:..\..\..\arduinoLCD\test\Pain Drain\libraries\lvgl\src\draw\sw/lv_draw_sw_arc.c ****         if(mask_in_id != LV_MASK_ID_INV) lv_draw_mask_remove_id(mask_in_id);
 1609              		.loc 1 116 0
 1610 0148 0398     		ldr	r0, [sp, #12]
 1611 014a FFF7FEFF 		bl	lv_draw_mask_remove_id
 1612              	.LVL134:
 117:..\..\..\arduinoLCD\test\Pain Drain\libraries\lvgl\src\draw\sw/lv_draw_sw_arc.c **** 
 1613              		.loc 1 117 0
 1614 014e BBF1FF3F 		cmp	fp, #-1
 1615 0152 02D0     		beq	.L59
 117:..\..\..\arduinoLCD\test\Pain Drain\libraries\lvgl\src\draw\sw/lv_draw_sw_arc.c **** 
 1616              		.loc 1 117 0 is_stmt 0 discriminator 1
 1617 0154 5846     		mov	r0, fp
 1618 0156 FFF7FEFF 		bl	lv_draw_mask_remove_id
 1619              	.LVL135:
 1620              	.L59:
 119:..\..\..\arduinoLCD\test\Pain Drain\libraries\lvgl\src\draw\sw/lv_draw_sw_arc.c ****         if(mask_in_param_valid) {
 1621              		.loc 1 119 0 is_stmt 1
 1622 015a 2EA8     		add	r0, sp, #184
 1623 015c FFF7FEFF 		bl	lv_draw_mask_free_param
 1624              	.LVL136:
 120:..\..\..\arduinoLCD\test\Pain Drain\libraries\lvgl\src\draw\sw/lv_draw_sw_arc.c ****             lv_draw_mask_free_param(&mask_in_param);
 1625              		.loc 1 120 0
 1626 0160 029B     		ldr	r3, [sp, #8]
 1627 0162 002B     		cmp	r3, #0
ARM GAS  C:\Users\haske\AppData\Local\Temp\ccxlcgkV.s 			page 42


 1628 0164 00F00081 		beq	.L51
 121:..\..\..\arduinoLCD\test\Pain Drain\libraries\lvgl\src\draw\sw/lv_draw_sw_arc.c ****         }
 1629              		.loc 1 121 0
 1630 0168 34A8     		add	r0, sp, #208
 1631 016a FFF7FEFF 		bl	lv_draw_mask_free_param
 1632              	.LVL137:
 1633 016e FBE0     		b	.L51
 1634              	.LVL138:
 1635              	.L60:
 127:..\..\..\arduinoLCD\test\Pain Drain\libraries\lvgl\src\draw\sw/lv_draw_sw_arc.c ****     while(end_angle >= 360) end_angle -= 360;
 1636              		.loc 1 127 0 discriminator 2
 1637 0170 A5F5B475 		sub	r5, r5, #360
 1638              	.LVL139:
 1639 0174 ADB2     		uxth	r5, r5
 1640              	.LVL140:
 1641              	.L58:
 127:..\..\..\arduinoLCD\test\Pain Drain\libraries\lvgl\src\draw\sw/lv_draw_sw_arc.c ****     while(end_angle >= 360) end_angle -= 360;
 1642              		.loc 1 127 0 is_stmt 0 discriminator 1
 1643 0176 B5F5B47F 		cmp	r5, #360
 1644 017a F9D2     		bcs	.L60
 1645 017c 02E0     		b	.L61
 1646              	.LVL141:
 1647              	.L62:
 128:..\..\..\arduinoLCD\test\Pain Drain\libraries\lvgl\src\draw\sw/lv_draw_sw_arc.c **** 
 1648              		.loc 1 128 0 is_stmt 1 discriminator 2
 1649 017e A4F5B474 		sub	r4, r4, #360
 1650              	.LVL142:
 1651 0182 A4B2     		uxth	r4, r4
 1652              	.LVL143:
 1653              	.L61:
 128:..\..\..\arduinoLCD\test\Pain Drain\libraries\lvgl\src\draw\sw/lv_draw_sw_arc.c **** 
 1654              		.loc 1 128 0 is_stmt 0 discriminator 1
 1655 0184 B4F5B47F 		cmp	r4, #360
 1656 0188 F9D2     		bcs	.L62
 131:..\..\..\arduinoLCD\test\Pain Drain\libraries\lvgl\src\draw\sw/lv_draw_sw_arc.c ****     int16_t mask_angle_id = lv_draw_mask_add(&mask_angle_param, NULL);
 1657              		.loc 1 131 0 is_stmt 1
 1658 018a 2BB2     		sxth	r3, r5
 1659 018c 0693     		str	r3, [sp, #24]
 1660 018e 22B2     		sxth	r2, r4
 1661 0190 1046     		mov	r0, r2
 1662 0192 0792     		str	r2, [sp, #28]
 1663 0194 B8F90220 		ldrsh	r2, [r8, #2]
 1664 0198 B8F90010 		ldrsh	r1, [r8]
 1665 019c 0090     		str	r0, [sp]
 1666 019e 13A8     		add	r0, sp, #76
 1667 01a0 FFF7FEFF 		bl	lv_draw_mask_angle_init
 1668              	.LVL144:
 132:..\..\..\arduinoLCD\test\Pain Drain\libraries\lvgl\src\draw\sw/lv_draw_sw_arc.c **** 
 1669              		.loc 1 132 0
 1670 01a4 0021     		movs	r1, #0
 1671 01a6 13A8     		add	r0, sp, #76
 1672 01a8 FFF7FEFF 		bl	lv_draw_mask_add
 1673              	.LVL145:
 1674 01ac 0590     		str	r0, [sp, #20]
 1675              	.LVL146:
 135:..\..\..\arduinoLCD\test\Pain Drain\libraries\lvgl\src\draw\sw/lv_draw_sw_arc.c ****         angle_gap = 360 - (end_angle - start_angle);
 1676              		.loc 1 135 0
ARM GAS  C:\Users\haske\AppData\Local\Temp\ccxlcgkV.s 			page 43


 1677 01ae A542     		cmp	r5, r4
 1678 01b0 03D2     		bcs	.L63
 136:..\..\..\arduinoLCD\test\Pain Drain\libraries\lvgl\src\draw\sw/lv_draw_sw_arc.c ****     }
 1679              		.loc 1 136 0
 1680 01b2 631B     		subs	r3, r4, r5
 1681 01b4 C3F5B473 		rsb	r3, r3, #360
 1682              	.LVL147:
 1683 01b8 00E0     		b	.L64
 1684              	.LVL148:
 1685              	.L63:
 139:..\..\..\arduinoLCD\test\Pain Drain\libraries\lvgl\src\draw\sw/lv_draw_sw_arc.c ****     }
 1686              		.loc 1 139 0
 1687 01ba 2B1B     		subs	r3, r5, r4
 1688              	.LVL149:
 1689              	.L64:
 142:..\..\..\arduinoLCD\test\Pain Drain\libraries\lvgl\src\draw\sw/lv_draw_sw_arc.c **** 
 1690              		.loc 1 142 0
 1691 01bc D9F80820 		ldr	r2, [r9, #8]
 1692 01c0 0492     		str	r2, [sp, #16]
 1693              	.LVL150:
 144:..\..\..\arduinoLCD\test\Pain Drain\libraries\lvgl\src\draw\sw/lv_draw_sw_arc.c ****         /*Handle each quarter individually and skip which is empty*/
 1694              		.loc 1 144 0
 1695 01c2 3C2B     		cmp	r3, #60
 1696 01c4 2DDD     		ble	.L65
 144:..\..\..\arduinoLCD\test\Pain Drain\libraries\lvgl\src\draw\sw/lv_draw_sw_arc.c ****         /*Handle each quarter individually and skip which is empty*/
 1697              		.loc 1 144 0 is_stmt 0 discriminator 1
 1698 01c6 0A2F     		cmp	r7, #10
 1699 01c8 2BD9     		bls	.L65
 1700              	.LBB32:
 147:..\..\..\arduinoLCD\test\Pain Drain\libraries\lvgl\src\draw\sw/lv_draw_sw_arc.c ****         q_dsc.radius = radius;
 1701              		.loc 1 147 0 is_stmt 1
 1702 01ca CDF83080 		str	r8, [sp, #48]
 148:..\..\..\arduinoLCD\test\Pain Drain\libraries\lvgl\src\draw\sw/lv_draw_sw_arc.c ****         q_dsc.start_angle = start_angle;
 1703              		.loc 1 148 0
 1704 01ce ADF83470 		strh	r7, [sp, #52]	@ movhi
 149:..\..\..\arduinoLCD\test\Pain Drain\libraries\lvgl\src\draw\sw/lv_draw_sw_arc.c ****         q_dsc.end_angle = end_angle;
 1705              		.loc 1 149 0
 1706 01d2 ADF83650 		strh	r5, [sp, #54]	@ movhi
 150:..\..\..\arduinoLCD\test\Pain Drain\libraries\lvgl\src\draw\sw/lv_draw_sw_arc.c ****         q_dsc.start_quarter = (start_angle / 90) & 0x3;
 1707              		.loc 1 150 0
 1708 01d6 ADF83840 		strh	r4, [sp, #56]	@ movhi
 151:..\..\..\arduinoLCD\test\Pain Drain\libraries\lvgl\src\draw\sw/lv_draw_sw_arc.c ****         q_dsc.end_quarter = (end_angle / 90) & 0x3;
 1709              		.loc 1 151 0
 1710 01da 6A08     		lsrs	r2, r5, #1
 1711              	.LVL151:
 1712 01dc 644B     		ldr	r3, .L77
 1713              	.LVL152:
 1714 01de A3FB0212 		umull	r1, r2, r3, r2
 1715 01e2 C2F34112 		ubfx	r2, r2, #5, #2
 1716 01e6 ADF83A20 		strh	r2, [sp, #58]	@ movhi
 152:..\..\..\arduinoLCD\test\Pain Drain\libraries\lvgl\src\draw\sw/lv_draw_sw_arc.c ****         q_dsc.width = width;
 1717              		.loc 1 152 0
 1718 01ea 6408     		lsrs	r4, r4, #1
 1719              	.LVL153:
 1720 01ec A3FB0423 		umull	r2, r3, r3, r4
 1721 01f0 C3F34113 		ubfx	r3, r3, #5, #2
 1722 01f4 ADF83C30 		strh	r3, [sp, #60]	@ movhi
ARM GAS  C:\Users\haske\AppData\Local\Temp\ccxlcgkV.s 			page 44


 153:..\..\..\arduinoLCD\test\Pain Drain\libraries\lvgl\src\draw\sw/lv_draw_sw_arc.c ****         q_dsc.draw_dsc = &cir_dsc;
 1723              		.loc 1 153 0
 1724 01f8 ADF83EA0 		strh	r10, [sp, #62]	@ movhi
 154:..\..\..\arduinoLCD\test\Pain Drain\libraries\lvgl\src\draw\sw/lv_draw_sw_arc.c ****         q_dsc.draw_area = &area_out;
 1725              		.loc 1 154 0
 1726 01fc 3EAB     		add	r3, sp, #248
 1727 01fe 1093     		str	r3, [sp, #64]
 155:..\..\..\arduinoLCD\test\Pain Drain\libraries\lvgl\src\draw\sw/lv_draw_sw_arc.c ****         q_dsc.draw_ctx = draw_ctx;
 1728              		.loc 1 155 0
 1729 0200 3CAB     		add	r3, sp, #240
 1730 0202 1193     		str	r3, [sp, #68]
 156:..\..\..\arduinoLCD\test\Pain Drain\libraries\lvgl\src\draw\sw/lv_draw_sw_arc.c **** 
 1731              		.loc 1 156 0
 1732 0204 CDF84890 		str	r9, [sp, #72]
 158:..\..\..\arduinoLCD\test\Pain Drain\libraries\lvgl\src\draw\sw/lv_draw_sw_arc.c ****         draw_quarter_1(&q_dsc);
 1733              		.loc 1 158 0
 1734 0208 0CA8     		add	r0, sp, #48
 1735 020a FFF7FEFF 		bl	draw_quarter_0
 1736              	.LVL154:
 159:..\..\..\arduinoLCD\test\Pain Drain\libraries\lvgl\src\draw\sw/lv_draw_sw_arc.c ****         draw_quarter_2(&q_dsc);
 1737              		.loc 1 159 0
 1738 020e 0CA8     		add	r0, sp, #48
 1739 0210 FFF7FEFF 		bl	draw_quarter_1
 1740              	.LVL155:
 160:..\..\..\arduinoLCD\test\Pain Drain\libraries\lvgl\src\draw\sw/lv_draw_sw_arc.c ****         draw_quarter_3(&q_dsc);
 1741              		.loc 1 160 0
 1742 0214 0CA8     		add	r0, sp, #48
 1743 0216 FFF7FEFF 		bl	draw_quarter_2
 1744              	.LVL156:
 161:..\..\..\arduinoLCD\test\Pain Drain\libraries\lvgl\src\draw\sw/lv_draw_sw_arc.c ****     }
 1745              		.loc 1 161 0
 1746 021a 0CA8     		add	r0, sp, #48
 1747 021c FFF7FEFF 		bl	draw_quarter_3
 1748              	.LVL157:
 1749              	.LBE32:
 144:..\..\..\arduinoLCD\test\Pain Drain\libraries\lvgl\src\draw\sw/lv_draw_sw_arc.c ****         /*Handle each quarter individually and skip which is empty*/
 1750              		.loc 1 144 0
 1751 0220 04E0     		b	.L66
 1752              	.LVL158:
 1753              	.L65:
 164:..\..\..\arduinoLCD\test\Pain Drain\libraries\lvgl\src\draw\sw/lv_draw_sw_arc.c ****     }
 1754              		.loc 1 164 0
 1755 0222 3CAA     		add	r2, sp, #240
 1756              	.LVL159:
 1757 0224 3EA9     		add	r1, sp, #248
 1758 0226 4846     		mov	r0, r9
 1759 0228 FFF7FEFF 		bl	lv_draw_rect
 1760              	.LVL160:
 1761              	.L66:
 167:..\..\..\arduinoLCD\test\Pain Drain\libraries\lvgl\src\draw\sw/lv_draw_sw_arc.c ****     lv_draw_mask_free_param(&mask_out_param);
 1762              		.loc 1 167 0
 1763 022c 13A8     		add	r0, sp, #76
 1764 022e FFF7FEFF 		bl	lv_draw_mask_free_param
 1765              	.LVL161:
 168:..\..\..\arduinoLCD\test\Pain Drain\libraries\lvgl\src\draw\sw/lv_draw_sw_arc.c ****     if(mask_in_param_valid) {
 1766              		.loc 1 168 0
 1767 0232 2EA8     		add	r0, sp, #184
ARM GAS  C:\Users\haske\AppData\Local\Temp\ccxlcgkV.s 			page 45


 1768 0234 FFF7FEFF 		bl	lv_draw_mask_free_param
 1769              	.LVL162:
 169:..\..\..\arduinoLCD\test\Pain Drain\libraries\lvgl\src\draw\sw/lv_draw_sw_arc.c ****         lv_draw_mask_free_param(&mask_in_param);
 1770              		.loc 1 169 0
 1771 0238 029B     		ldr	r3, [sp, #8]
 1772 023a 13B1     		cbz	r3, .L67
 170:..\..\..\arduinoLCD\test\Pain Drain\libraries\lvgl\src\draw\sw/lv_draw_sw_arc.c ****     }
 1773              		.loc 1 170 0
 1774 023c 34A8     		add	r0, sp, #208
 1775 023e FFF7FEFF 		bl	lv_draw_mask_free_param
 1776              	.LVL163:
 1777              	.L67:
 173:..\..\..\arduinoLCD\test\Pain Drain\libraries\lvgl\src\draw\sw/lv_draw_sw_arc.c ****     lv_draw_mask_remove_id(mask_out_id);
 1778              		.loc 1 173 0
 1779 0242 0598     		ldr	r0, [sp, #20]
 1780 0244 FFF7FEFF 		bl	lv_draw_mask_remove_id
 1781              	.LVL164:
 174:..\..\..\arduinoLCD\test\Pain Drain\libraries\lvgl\src\draw\sw/lv_draw_sw_arc.c ****     if(mask_in_id != LV_MASK_ID_INV) lv_draw_mask_remove_id(mask_in_id);
 1782              		.loc 1 174 0
 1783 0248 0398     		ldr	r0, [sp, #12]
 1784 024a FFF7FEFF 		bl	lv_draw_mask_remove_id
 1785              	.LVL165:
 175:..\..\..\arduinoLCD\test\Pain Drain\libraries\lvgl\src\draw\sw/lv_draw_sw_arc.c **** 
 1786              		.loc 1 175 0
 1787 024e BBF1FF3F 		cmp	fp, #-1
 1788 0252 02D0     		beq	.L68
 175:..\..\..\arduinoLCD\test\Pain Drain\libraries\lvgl\src\draw\sw/lv_draw_sw_arc.c **** 
 1789              		.loc 1 175 0 is_stmt 0 discriminator 1
 1790 0254 5846     		mov	r0, fp
 1791 0256 FFF7FEFF 		bl	lv_draw_mask_remove_id
 1792              	.LVL166:
 1793              	.L68:
 177:..\..\..\arduinoLCD\test\Pain Drain\libraries\lvgl\src\draw\sw/lv_draw_sw_arc.c **** 
 1794              		.loc 1 177 0 is_stmt 1
 1795 025a 737B     		ldrb	r3, [r6, #13]	@ zero_extendqisi2
 1796 025c 13F0040F 		tst	r3, #4
 1797 0260 00F08280 		beq	.L51
 1798              	.LBB33:
 182:..\..\..\arduinoLCD\test\Pain Drain\libraries\lvgl\src\draw\sw/lv_draw_sw_arc.c ****         round_area.x1 += center->x;
 1799              		.loc 1 182 0
 1800 0264 3FB2     		sxth	r7, r7
 1801 0266 5FFA8AFA 		uxtb	r10, r10
 1802              	.LVL167:
 1803 026a 08AB     		add	r3, sp, #32
 1804 026c 5246     		mov	r2, r10
 1805 026e 3946     		mov	r1, r7
 1806 0270 0698     		ldr	r0, [sp, #24]
 1807 0272 FFF7FEFF 		bl	get_rounded_area
 1808              	.LVL168:
 183:..\..\..\arduinoLCD\test\Pain Drain\libraries\lvgl\src\draw\sw/lv_draw_sw_arc.c ****         round_area.x2 += center->x;
 1809              		.loc 1 183 0
 1810 0276 B8F90010 		ldrsh	r1, [r8]
 1811 027a BDF82020 		ldrh	r2, [sp, #32]
 1812 027e 0A44     		add	r2, r2, r1
 1813 0280 ADF82020 		strh	r2, [sp, #32]	@ movhi
 184:..\..\..\arduinoLCD\test\Pain Drain\libraries\lvgl\src\draw\sw/lv_draw_sw_arc.c ****         round_area.y1 += center->y;
 1814              		.loc 1 184 0
ARM GAS  C:\Users\haske\AppData\Local\Temp\ccxlcgkV.s 			page 46


 1815 0284 BDF82430 		ldrh	r3, [sp, #36]
 1816 0288 0B44     		add	r3, r3, r1
 1817 028a ADF82430 		strh	r3, [sp, #36]	@ movhi
 185:..\..\..\arduinoLCD\test\Pain Drain\libraries\lvgl\src\draw\sw/lv_draw_sw_arc.c ****         round_area.y2 += center->y;
 1818              		.loc 1 185 0
 1819 028e B8F90210 		ldrsh	r1, [r8, #2]
 1820 0292 BDF82220 		ldrh	r2, [sp, #34]
 1821 0296 0A44     		add	r2, r2, r1
 1822 0298 ADF82220 		strh	r2, [sp, #34]	@ movhi
 186:..\..\..\arduinoLCD\test\Pain Drain\libraries\lvgl\src\draw\sw/lv_draw_sw_arc.c ****         lv_area_t clip_area2;
 1823              		.loc 1 186 0
 1824 029c BDF82630 		ldrh	r3, [sp, #38]
 1825 02a0 0B44     		add	r3, r3, r1
 1826 02a2 ADF82630 		strh	r3, [sp, #38]	@ movhi
 188:..\..\..\arduinoLCD\test\Pain Drain\libraries\lvgl\src\draw\sw/lv_draw_sw_arc.c ****             lv_draw_mask_radius_init(&mask_end_param, &round_area, LV_RADIUS_CIRCLE, false);
 1827              		.loc 1 188 0
 1828 02a6 08AA     		add	r2, sp, #32
 1829 02a8 0499     		ldr	r1, [sp, #16]
 1830 02aa 0AA8     		add	r0, sp, #40
 1831 02ac FFF7FEFF 		bl	_lv_area_intersect
 1832              	.LVL169:
 1833 02b0 C8B1     		cbz	r0, .L70
 1834              	.LBB34:
 189:..\..\..\arduinoLCD\test\Pain Drain\libraries\lvgl\src\draw\sw/lv_draw_sw_arc.c ****             int16_t mask_end_id = lv_draw_mask_add(&mask_end_param, NULL);
 1835              		.loc 1 189 0
 1836 02b2 0023     		movs	r3, #0
 1837 02b4 47F6FF72 		movw	r2, #32767
 1838 02b8 08A9     		add	r1, sp, #32
 1839 02ba 0CA8     		add	r0, sp, #48
 1840 02bc FFF7FEFF 		bl	lv_draw_mask_radius_init
 1841              	.LVL170:
 190:..\..\..\arduinoLCD\test\Pain Drain\libraries\lvgl\src\draw\sw/lv_draw_sw_arc.c **** 
 1842              		.loc 1 190 0
 1843 02c0 0021     		movs	r1, #0
 1844 02c2 0CA8     		add	r0, sp, #48
 1845 02c4 FFF7FEFF 		bl	lv_draw_mask_add
 1846              	.LVL171:
 1847 02c8 0446     		mov	r4, r0
 1848              	.LVL172:
 192:..\..\..\arduinoLCD\test\Pain Drain\libraries\lvgl\src\draw\sw/lv_draw_sw_arc.c ****             lv_draw_rect(draw_ctx, &cir_dsc, &area_out);
 1849              		.loc 1 192 0
 1850 02ca 0AAB     		add	r3, sp, #40
 1851 02cc C9F80830 		str	r3, [r9, #8]
 193:..\..\..\arduinoLCD\test\Pain Drain\libraries\lvgl\src\draw\sw/lv_draw_sw_arc.c ****             lv_draw_mask_remove_id(mask_end_id);
 1852              		.loc 1 193 0
 1853 02d0 3CAA     		add	r2, sp, #240
 1854 02d2 3EA9     		add	r1, sp, #248
 1855 02d4 4846     		mov	r0, r9
 1856 02d6 FFF7FEFF 		bl	lv_draw_rect
 1857              	.LVL173:
 194:..\..\..\arduinoLCD\test\Pain Drain\libraries\lvgl\src\draw\sw/lv_draw_sw_arc.c ****             lv_draw_mask_free_param(&mask_end_param);
 1858              		.loc 1 194 0
 1859 02da 2046     		mov	r0, r4
 1860 02dc FFF7FEFF 		bl	lv_draw_mask_remove_id
 1861              	.LVL174:
 195:..\..\..\arduinoLCD\test\Pain Drain\libraries\lvgl\src\draw\sw/lv_draw_sw_arc.c ****         }
 1862              		.loc 1 195 0
ARM GAS  C:\Users\haske\AppData\Local\Temp\ccxlcgkV.s 			page 47


 1863 02e0 0CA8     		add	r0, sp, #48
 1864 02e2 FFF7FEFF 		bl	lv_draw_mask_free_param
 1865              	.LVL175:
 1866              	.L70:
 1867              	.LBE34:
 198:..\..\..\arduinoLCD\test\Pain Drain\libraries\lvgl\src\draw\sw/lv_draw_sw_arc.c ****         round_area.x1 += center->x;
 1868              		.loc 1 198 0
 1869 02e6 08AB     		add	r3, sp, #32
 1870 02e8 5246     		mov	r2, r10
 1871 02ea 3946     		mov	r1, r7
 1872 02ec 0798     		ldr	r0, [sp, #28]
 1873 02ee FFF7FEFF 		bl	get_rounded_area
 1874              	.LVL176:
 199:..\..\..\arduinoLCD\test\Pain Drain\libraries\lvgl\src\draw\sw/lv_draw_sw_arc.c ****         round_area.x2 += center->x;
 1875              		.loc 1 199 0
 1876 02f2 B8F90010 		ldrsh	r1, [r8]
 1877 02f6 BDF82020 		ldrh	r2, [sp, #32]
 1878 02fa 0A44     		add	r2, r2, r1
 1879 02fc ADF82020 		strh	r2, [sp, #32]	@ movhi
 200:..\..\..\arduinoLCD\test\Pain Drain\libraries\lvgl\src\draw\sw/lv_draw_sw_arc.c ****         round_area.y1 += center->y;
 1880              		.loc 1 200 0
 1881 0300 BDF82430 		ldrh	r3, [sp, #36]
 1882 0304 0B44     		add	r3, r3, r1
 1883 0306 ADF82430 		strh	r3, [sp, #36]	@ movhi
 201:..\..\..\arduinoLCD\test\Pain Drain\libraries\lvgl\src\draw\sw/lv_draw_sw_arc.c ****         round_area.y2 += center->y;
 1884              		.loc 1 201 0
 1885 030a B8F90210 		ldrsh	r1, [r8, #2]
 1886 030e BDF82220 		ldrh	r2, [sp, #34]
 1887 0312 0A44     		add	r2, r2, r1
 1888 0314 ADF82220 		strh	r2, [sp, #34]	@ movhi
 202:..\..\..\arduinoLCD\test\Pain Drain\libraries\lvgl\src\draw\sw/lv_draw_sw_arc.c ****         if(_lv_area_intersect(&clip_area2, clip_area_ori, &round_area)) {
 1889              		.loc 1 202 0
 1890 0318 BDF82630 		ldrh	r3, [sp, #38]
 1891 031c 0B44     		add	r3, r3, r1
 1892 031e ADF82630 		strh	r3, [sp, #38]	@ movhi
 203:..\..\..\arduinoLCD\test\Pain Drain\libraries\lvgl\src\draw\sw/lv_draw_sw_arc.c ****             lv_draw_mask_radius_init(&mask_end_param, &round_area, LV_RADIUS_CIRCLE, false);
 1893              		.loc 1 203 0
 1894 0322 08AA     		add	r2, sp, #32
 1895 0324 0499     		ldr	r1, [sp, #16]
 1896 0326 0AA8     		add	r0, sp, #40
 1897 0328 FFF7FEFF 		bl	_lv_area_intersect
 1898              	.LVL177:
 1899 032c C8B1     		cbz	r0, .L71
 1900              	.LBB35:
 204:..\..\..\arduinoLCD\test\Pain Drain\libraries\lvgl\src\draw\sw/lv_draw_sw_arc.c ****             int16_t mask_end_id = lv_draw_mask_add(&mask_end_param, NULL);
 1901              		.loc 1 204 0
 1902 032e 0023     		movs	r3, #0
 1903 0330 47F6FF72 		movw	r2, #32767
 1904 0334 08A9     		add	r1, sp, #32
 1905 0336 0CA8     		add	r0, sp, #48
 1906 0338 FFF7FEFF 		bl	lv_draw_mask_radius_init
 1907              	.LVL178:
 205:..\..\..\arduinoLCD\test\Pain Drain\libraries\lvgl\src\draw\sw/lv_draw_sw_arc.c **** 
 1908              		.loc 1 205 0
 1909 033c 0021     		movs	r1, #0
 1910 033e 0CA8     		add	r0, sp, #48
 1911 0340 FFF7FEFF 		bl	lv_draw_mask_add
ARM GAS  C:\Users\haske\AppData\Local\Temp\ccxlcgkV.s 			page 48


 1912              	.LVL179:
 1913 0344 0446     		mov	r4, r0
 1914              	.LVL180:
 207:..\..\..\arduinoLCD\test\Pain Drain\libraries\lvgl\src\draw\sw/lv_draw_sw_arc.c ****             lv_draw_rect(draw_ctx, &cir_dsc, &area_out);
 1915              		.loc 1 207 0
 1916 0346 0AAB     		add	r3, sp, #40
 1917 0348 C9F80830 		str	r3, [r9, #8]
 208:..\..\..\arduinoLCD\test\Pain Drain\libraries\lvgl\src\draw\sw/lv_draw_sw_arc.c ****             lv_draw_mask_remove_id(mask_end_id);
 1918              		.loc 1 208 0
 1919 034c 3CAA     		add	r2, sp, #240
 1920 034e 3EA9     		add	r1, sp, #248
 1921 0350 4846     		mov	r0, r9
 1922 0352 FFF7FEFF 		bl	lv_draw_rect
 1923              	.LVL181:
 209:..\..\..\arduinoLCD\test\Pain Drain\libraries\lvgl\src\draw\sw/lv_draw_sw_arc.c ****             lv_draw_mask_free_param(&mask_end_param);
 1924              		.loc 1 209 0
 1925 0356 2046     		mov	r0, r4
 1926 0358 FFF7FEFF 		bl	lv_draw_mask_remove_id
 1927              	.LVL182:
 210:..\..\..\arduinoLCD\test\Pain Drain\libraries\lvgl\src\draw\sw/lv_draw_sw_arc.c ****         }
 1928              		.loc 1 210 0
 1929 035c 0CA8     		add	r0, sp, #48
 1930 035e FFF7FEFF 		bl	lv_draw_mask_free_param
 1931              	.LVL183:
 1932              	.L71:
 1933              	.LBE35:
 212:..\..\..\arduinoLCD\test\Pain Drain\libraries\lvgl\src\draw\sw/lv_draw_sw_arc.c ****     }
 1934              		.loc 1 212 0
 1935 0362 049B     		ldr	r3, [sp, #16]
 1936 0364 C9F80830 		str	r3, [r9, #8]
 1937              	.LVL184:
 1938              	.L51:
 1939              	.LBE33:
 223:..\..\..\arduinoLCD\test\Pain Drain\libraries\lvgl\src\draw\sw/lv_draw_sw_arc.c **** 
 1940              		.loc 1 223 0
 1941 0368 4DB0     		add	sp, sp, #308
 1942              		.cfi_def_cfa_offset 36
 1943              		@ sp needed
 1944 036a BDE8F08F 		pop	{r4, r5, r6, r7, r8, r9, r10, fp, pc}
 1945              	.L78:
 1946 036e 00BF     		.align	2
 1947              	.L77:
 1948 0370 B7600BB6 		.word	-1240768329
 1949              		.cfi_endproc
 1950              	.LFE56:
 1951              		.size	lv_draw_sw_arc, .-lv_draw_sw_arc
 1952              		.text
 1953              	.Letext0:
 1954              		.file 3 "c:\\program files (x86)\\cypress\\psoc creator\\4.4\\psoc creator\\import\\gnu\\arm\\5.4.
 1955              		.file 4 "c:\\program files (x86)\\cypress\\psoc creator\\4.4\\psoc creator\\import\\gnu\\arm\\5.4.
 1956              		.file 5 "c:\\projects\\paindrain\\arduinolcd\\test\\pain drain\\libraries\\lvgl\\src\\misc\\lv_typ
 1957              		.file 6 "c:\\program files (x86)\\cypress\\psoc creator\\4.4\\psoc creator\\import\\gnu\\arm\\5.4.
 1958              		.file 7 "c:\\projects\\paindrain\\arduinolcd\\test\\pain drain\\libraries\\lvgl\\src\\misc\\lv_col
 1959              		.file 8 "c:\\projects\\paindrain\\arduinolcd\\test\\pain drain\\libraries\\lvgl\\src\\font\\lv_fon
 1960              		.file 9 "c:\\projects\\paindrain\\arduinolcd\\test\\pain drain\\libraries\\lvgl\\src\\misc\\lv_txt
 1961              		.file 10 "c:\\projects\\paindrain\\arduinolcd\\test\\pain drain\\libraries\\lvgl\\src\\misc\\lv_bi
 1962              		.file 11 "c:\\projects\\paindrain\\arduinolcd\\test\\pain drain\\libraries\\lvgl\\src\\misc\\lv_st
ARM GAS  C:\Users\haske\AppData\Local\Temp\ccxlcgkV.s 			page 49


 1963              		.file 12 "..\\..\\..\\arduinoLCD\\test\\Pain Drain\\libraries\\lvgl\\src\\draw\\sw\\../lv_draw_mas
 1964              		.file 13 "..\\..\\..\\arduinoLCD\\test\\Pain Drain\\libraries\\lvgl\\src\\draw\\sw\\../lv_img_buf.
 1965              		.file 14 "..\\..\\..\\arduinoLCD\\test\\Pain Drain\\libraries\\lvgl\\src\\draw\\sw\\../lv_draw_rec
 1966              		.file 15 "..\\..\\..\\arduinoLCD\\test\\Pain Drain\\libraries\\lvgl\\src\\draw\\sw\\../lv_draw_lab
 1967              		.file 16 "..\\..\\..\\arduinoLCD\\test\\Pain Drain\\libraries\\lvgl\\src\\draw\\sw\\../lv_draw_img
 1968              		.file 17 "..\\..\\..\\arduinoLCD\\test\\Pain Drain\\libraries\\lvgl\\src\\draw\\sw\\../lv_draw_lin
 1969              		.file 18 "..\\..\\..\\arduinoLCD\\test\\Pain Drain\\libraries\\lvgl\\src\\draw\\sw\\../lv_draw_arc
 1970              		.file 19 "..\\..\\..\\arduinoLCD\\test\\Pain Drain\\libraries\\lvgl\\src\\draw\\sw\\../lv_draw_lay
 1971              		.file 20 "..\\..\\..\\arduinoLCD\\test\\Pain Drain\\libraries\\lvgl\\src\\draw\\sw\\../lv_draw.h"
 1972              		.file 21 "c:\\projects\\paindrain\\arduinolcd\\test\\pain drain\\libraries\\lvgl\\src\\misc\\lv_ma
 1973              		.section	.debug_info,"",%progbits
 1974              	.Ldebug_info0:
 1975 0000 CD1D0000 		.4byte	0x1dcd
 1976 0004 0400     		.2byte	0x4
 1977 0006 00000000 		.4byte	.Ldebug_abbrev0
 1978 000a 04       		.byte	0x4
 1979 000b 01       		.uleb128 0x1
 1980 000c 3D050000 		.4byte	.LASF253
 1981 0010 0C       		.byte	0xc
 1982 0011 A3010000 		.4byte	.LASF254
 1983 0015 6F0B0000 		.4byte	.LASF255
 1984 0019 00000000 		.4byte	.Ldebug_ranges0+0
 1985 001d 00000000 		.4byte	0
 1986 0021 00000000 		.4byte	.Ldebug_line0
 1987 0025 02       		.uleb128 0x2
 1988 0026 CF080000 		.4byte	.LASF0
 1989 002a 03       		.byte	0x3
 1990 002b 1B       		.byte	0x1b
 1991 002c 30000000 		.4byte	0x30
 1992 0030 03       		.uleb128 0x3
 1993 0031 01       		.byte	0x1
 1994 0032 06       		.byte	0x6
 1995 0033 19020000 		.4byte	.LASF2
 1996 0037 02       		.uleb128 0x2
 1997 0038 4D010000 		.4byte	.LASF1
 1998 003c 03       		.byte	0x3
 1999 003d 1D       		.byte	0x1d
 2000 003e 42000000 		.4byte	0x42
 2001 0042 03       		.uleb128 0x3
 2002 0043 01       		.byte	0x1
 2003 0044 08       		.byte	0x8
 2004 0045 9F020000 		.4byte	.LASF3
 2005 0049 02       		.uleb128 0x2
 2006 004a CF090000 		.4byte	.LASF4
 2007 004e 03       		.byte	0x3
 2008 004f 29       		.byte	0x29
 2009 0050 54000000 		.4byte	0x54
 2010 0054 03       		.uleb128 0x3
 2011 0055 02       		.byte	0x2
 2012 0056 05       		.byte	0x5
 2013 0057 DD0A0000 		.4byte	.LASF5
 2014 005b 02       		.uleb128 0x2
 2015 005c B6030000 		.4byte	.LASF6
 2016 0060 03       		.byte	0x3
 2017 0061 2B       		.byte	0x2b
 2018 0062 66000000 		.4byte	0x66
 2019 0066 03       		.uleb128 0x3
ARM GAS  C:\Users\haske\AppData\Local\Temp\ccxlcgkV.s 			page 50


 2020 0067 02       		.byte	0x2
 2021 0068 07       		.byte	0x7
 2022 0069 840C0000 		.4byte	.LASF7
 2023 006d 02       		.uleb128 0x2
 2024 006e DC0C0000 		.4byte	.LASF8
 2025 0072 03       		.byte	0x3
 2026 0073 3F       		.byte	0x3f
 2027 0074 78000000 		.4byte	0x78
 2028 0078 03       		.uleb128 0x3
 2029 0079 04       		.byte	0x4
 2030 007a 05       		.byte	0x5
 2031 007b 75010000 		.4byte	.LASF9
 2032 007f 02       		.uleb128 0x2
 2033 0080 54060000 		.4byte	.LASF10
 2034 0084 03       		.byte	0x3
 2035 0085 41       		.byte	0x41
 2036 0086 8A000000 		.4byte	0x8a
 2037 008a 03       		.uleb128 0x3
 2038 008b 04       		.byte	0x4
 2039 008c 07       		.byte	0x7
 2040 008d DD040000 		.4byte	.LASF11
 2041 0091 03       		.uleb128 0x3
 2042 0092 08       		.byte	0x8
 2043 0093 05       		.byte	0x5
 2044 0094 78060000 		.4byte	.LASF12
 2045 0098 03       		.uleb128 0x3
 2046 0099 08       		.byte	0x8
 2047 009a 07       		.byte	0x7
 2048 009b EE080000 		.4byte	.LASF13
 2049 009f 04       		.uleb128 0x4
 2050 00a0 04       		.byte	0x4
 2051 00a1 05       		.byte	0x5
 2052 00a2 696E7400 		.ascii	"int\000"
 2053 00a6 03       		.uleb128 0x3
 2054 00a7 04       		.byte	0x4
 2055 00a8 07       		.byte	0x7
 2056 00a9 43070000 		.4byte	.LASF14
 2057 00ad 02       		.uleb128 0x2
 2058 00ae 00000000 		.4byte	.LASF15
 2059 00b2 04       		.byte	0x4
 2060 00b3 14       		.byte	0x14
 2061 00b4 25000000 		.4byte	0x25
 2062 00b8 02       		.uleb128 0x2
 2063 00b9 33020000 		.4byte	.LASF16
 2064 00bd 04       		.byte	0x4
 2065 00be 18       		.byte	0x18
 2066 00bf 37000000 		.4byte	0x37
 2067 00c3 02       		.uleb128 0x2
 2068 00c4 270B0000 		.4byte	.LASF17
 2069 00c8 04       		.byte	0x4
 2070 00c9 20       		.byte	0x20
 2071 00ca 49000000 		.4byte	0x49
 2072 00ce 02       		.uleb128 0x2
 2073 00cf 18090000 		.4byte	.LASF18
 2074 00d3 04       		.byte	0x4
 2075 00d4 24       		.byte	0x24
 2076 00d5 5B000000 		.4byte	0x5b
ARM GAS  C:\Users\haske\AppData\Local\Temp\ccxlcgkV.s 			page 51


 2077 00d9 02       		.uleb128 0x2
 2078 00da 3C000000 		.4byte	.LASF19
 2079 00de 04       		.byte	0x4
 2080 00df 2C       		.byte	0x2c
 2081 00e0 6D000000 		.4byte	0x6d
 2082 00e4 02       		.uleb128 0x2
 2083 00e5 150C0000 		.4byte	.LASF20
 2084 00e9 04       		.byte	0x4
 2085 00ea 30       		.byte	0x30
 2086 00eb 7F000000 		.4byte	0x7f
 2087 00ef 02       		.uleb128 0x2
 2088 00f0 3F080000 		.4byte	.LASF21
 2089 00f4 05       		.byte	0x5
 2090 00f5 2F       		.byte	0x2f
 2091 00f6 B8000000 		.4byte	0xb8
 2092 00fa 02       		.uleb128 0x2
 2093 00fb 07000000 		.4byte	.LASF22
 2094 00ff 06       		.byte	0x6
 2095 0100 D8       		.byte	0xd8
 2096 0101 A6000000 		.4byte	0xa6
 2097 0105 03       		.uleb128 0x3
 2098 0106 08       		.byte	0x8
 2099 0107 04       		.byte	0x4
 2100 0108 48080000 		.4byte	.LASF23
 2101 010c 03       		.uleb128 0x3
 2102 010d 04       		.byte	0x4
 2103 010e 07       		.byte	0x7
 2104 010f 14000000 		.4byte	.LASF24
 2105 0113 05       		.uleb128 0x5
 2106 0114 04       		.byte	0x4
 2107 0115 03       		.uleb128 0x3
 2108 0116 01       		.byte	0x1
 2109 0117 08       		.byte	0x8
 2110 0118 3F030000 		.4byte	.LASF25
 2111 011c 06       		.uleb128 0x6
 2112 011d 01       		.byte	0x1
 2113 011e 42000000 		.4byte	0x42
 2114 0122 07       		.byte	0x7
 2115 0123 29       		.byte	0x29
 2116 0124 77010000 		.4byte	0x177
 2117 0128 07       		.uleb128 0x7
 2118 0129 26070000 		.4byte	.LASF26
 2119 012d 00       		.byte	0
 2120 012e 07       		.uleb128 0x7
 2121 012f F0050000 		.4byte	.LASF27
 2122 0133 00       		.byte	0
 2123 0134 07       		.uleb128 0x7
 2124 0135 94090000 		.4byte	.LASF28
 2125 0139 19       		.byte	0x19
 2126 013a 07       		.uleb128 0x7
 2127 013b 040A0000 		.4byte	.LASF29
 2128 013f 33       		.byte	0x33
 2129 0140 07       		.uleb128 0x7
 2130 0141 720A0000 		.4byte	.LASF30
 2131 0145 4C       		.byte	0x4c
 2132 0146 07       		.uleb128 0x7
 2133 0147 1D0B0000 		.4byte	.LASF31
ARM GAS  C:\Users\haske\AppData\Local\Temp\ccxlcgkV.s 			page 52


 2134 014b 66       		.byte	0x66
 2135 014c 07       		.uleb128 0x7
 2136 014d 530B0000 		.4byte	.LASF32
 2137 0151 7F       		.byte	0x7f
 2138 0152 07       		.uleb128 0x7
 2139 0153 E00B0000 		.4byte	.LASF33
 2140 0157 99       		.byte	0x99
 2141 0158 07       		.uleb128 0x7
 2142 0159 7A0C0000 		.4byte	.LASF34
 2143 015d B2       		.byte	0xb2
 2144 015e 07       		.uleb128 0x7
 2145 015f 170D0000 		.4byte	.LASF35
 2146 0163 CC       		.byte	0xcc
 2147 0164 07       		.uleb128 0x7
 2148 0165 910D0000 		.4byte	.LASF36
 2149 0169 E5       		.byte	0xe5
 2150 016a 07       		.uleb128 0x7
 2151 016b 21080000 		.4byte	.LASF37
 2152 016f FF       		.byte	0xff
 2153 0170 07       		.uleb128 0x7
 2154 0171 74080000 		.4byte	.LASF38
 2155 0175 FF       		.byte	0xff
 2156 0176 00       		.byte	0
 2157 0177 08       		.uleb128 0x8
 2158 0178 02       		.byte	0x2
 2159 0179 07       		.byte	0x7
 2160 017a D1       		.byte	0xd1
 2161 017b AD010000 		.4byte	0x1ad
 2162 017f 09       		.uleb128 0x9
 2163 0180 78020000 		.4byte	.LASF39
 2164 0184 07       		.byte	0x7
 2165 0185 D3       		.byte	0xd3
 2166 0186 CE000000 		.4byte	0xce
 2167 018a 02       		.byte	0x2
 2168 018b 05       		.byte	0x5
 2169 018c 0B       		.byte	0xb
 2170 018d 00       		.byte	0
 2171 018e 09       		.uleb128 0x9
 2172 018f 2B0C0000 		.4byte	.LASF40
 2173 0193 07       		.byte	0x7
 2174 0194 D4       		.byte	0xd4
 2175 0195 CE000000 		.4byte	0xce
 2176 0199 02       		.byte	0x2
 2177 019a 06       		.byte	0x6
 2178 019b 05       		.byte	0x5
 2179 019c 00       		.byte	0
 2180 019d 0A       		.uleb128 0xa
 2181 019e 72656400 		.ascii	"red\000"
 2182 01a2 07       		.byte	0x7
 2183 01a3 D5       		.byte	0xd5
 2184 01a4 CE000000 		.4byte	0xce
 2185 01a8 02       		.byte	0x2
 2186 01a9 05       		.byte	0x5
 2187 01aa 00       		.byte	0
 2188 01ab 00       		.byte	0
 2189 01ac 00       		.byte	0
 2190 01ad 0B       		.uleb128 0xb
ARM GAS  C:\Users\haske\AppData\Local\Temp\ccxlcgkV.s 			page 53


 2191 01ae 02       		.byte	0x2
 2192 01af 07       		.byte	0x7
 2193 01b0 D0       		.byte	0xd0
 2194 01b1 CB010000 		.4byte	0x1cb
 2195 01b5 0C       		.uleb128 0xc
 2196 01b6 636800   		.ascii	"ch\000"
 2197 01b9 07       		.byte	0x7
 2198 01ba DC       		.byte	0xdc
 2199 01bb 77010000 		.4byte	0x177
 2200 01bf 0D       		.uleb128 0xd
 2201 01c0 EB090000 		.4byte	.LASF41
 2202 01c4 07       		.byte	0x7
 2203 01c5 DD       		.byte	0xdd
 2204 01c6 CE000000 		.4byte	0xce
 2205 01ca 00       		.byte	0
 2206 01cb 02       		.uleb128 0x2
 2207 01cc C10A0000 		.4byte	.LASF42
 2208 01d0 07       		.byte	0x7
 2209 01d1 DE       		.byte	0xde
 2210 01d2 AD010000 		.4byte	0x1ad
 2211 01d6 02       		.uleb128 0x2
 2212 01d7 30090000 		.4byte	.LASF43
 2213 01db 07       		.byte	0x7
 2214 01dc EB       		.byte	0xeb
 2215 01dd CB010000 		.4byte	0x1cb
 2216 01e1 02       		.uleb128 0x2
 2217 01e2 2B000000 		.4byte	.LASF44
 2218 01e6 07       		.byte	0x7
 2219 01e7 F5       		.byte	0xf5
 2220 01e8 B8000000 		.4byte	0xb8
 2221 01ec 02       		.uleb128 0x2
 2222 01ed B90C0000 		.4byte	.LASF45
 2223 01f1 02       		.byte	0x2
 2224 01f2 1B       		.byte	0x1b
 2225 01f3 C3000000 		.4byte	0xc3
 2226 01f7 08       		.uleb128 0x8
 2227 01f8 04       		.byte	0x4
 2228 01f9 02       		.byte	0x2
 2229 01fa 25       		.byte	0x25
 2230 01fb 14020000 		.4byte	0x214
 2231 01ff 0E       		.uleb128 0xe
 2232 0200 7800     		.ascii	"x\000"
 2233 0202 02       		.byte	0x2
 2234 0203 26       		.byte	0x26
 2235 0204 EC010000 		.4byte	0x1ec
 2236 0208 00       		.byte	0
 2237 0209 0E       		.uleb128 0xe
 2238 020a 7900     		.ascii	"y\000"
 2239 020c 02       		.byte	0x2
 2240 020d 27       		.byte	0x27
 2241 020e EC010000 		.4byte	0x1ec
 2242 0212 02       		.byte	0x2
 2243 0213 00       		.byte	0
 2244 0214 02       		.uleb128 0x2
 2245 0215 4E000000 		.4byte	.LASF46
 2246 0219 02       		.byte	0x2
 2247 021a 28       		.byte	0x28
ARM GAS  C:\Users\haske\AppData\Local\Temp\ccxlcgkV.s 			page 54


 2248 021b F7010000 		.4byte	0x1f7
 2249 021f 08       		.uleb128 0x8
 2250 0220 08       		.byte	0x8
 2251 0221 02       		.byte	0x2
 2252 0222 2B       		.byte	0x2b
 2253 0223 54020000 		.4byte	0x254
 2254 0227 0E       		.uleb128 0xe
 2255 0228 783100   		.ascii	"x1\000"
 2256 022b 02       		.byte	0x2
 2257 022c 2C       		.byte	0x2c
 2258 022d EC010000 		.4byte	0x1ec
 2259 0231 00       		.byte	0
 2260 0232 0E       		.uleb128 0xe
 2261 0233 793100   		.ascii	"y1\000"
 2262 0236 02       		.byte	0x2
 2263 0237 2D       		.byte	0x2d
 2264 0238 EC010000 		.4byte	0x1ec
 2265 023c 02       		.byte	0x2
 2266 023d 0E       		.uleb128 0xe
 2267 023e 783200   		.ascii	"x2\000"
 2268 0241 02       		.byte	0x2
 2269 0242 2E       		.byte	0x2e
 2270 0243 EC010000 		.4byte	0x1ec
 2271 0247 04       		.byte	0x4
 2272 0248 0E       		.uleb128 0xe
 2273 0249 793200   		.ascii	"y2\000"
 2274 024c 02       		.byte	0x2
 2275 024d 2F       		.byte	0x2f
 2276 024e EC010000 		.4byte	0x1ec
 2277 0252 06       		.byte	0x6
 2278 0253 00       		.byte	0
 2279 0254 02       		.uleb128 0x2
 2280 0255 45040000 		.4byte	.LASF47
 2281 0259 02       		.byte	0x2
 2282 025a 30       		.byte	0x30
 2283 025b 1F020000 		.4byte	0x21f
 2284 025f 08       		.uleb128 0x8
 2285 0260 10       		.byte	0x10
 2286 0261 08       		.byte	0x8
 2287 0262 29       		.byte	0x29
 2288 0263 CE020000 		.4byte	0x2ce
 2289 0267 0F       		.uleb128 0xf
 2290 0268 26050000 		.4byte	.LASF48
 2291 026c 08       		.byte	0x8
 2292 026d 2B       		.byte	0x2b
 2293 026e 56030000 		.4byte	0x356
 2294 0272 00       		.byte	0
 2295 0273 0F       		.uleb128 0xf
 2296 0274 0E000000 		.4byte	.LASF49
 2297 0278 08       		.byte	0x8
 2298 0279 2C       		.byte	0x2c
 2299 027a CE000000 		.4byte	0xce
 2300 027e 04       		.byte	0x4
 2301 027f 0F       		.uleb128 0xf
 2302 0280 CE0A0000 		.4byte	.LASF50
 2303 0284 08       		.byte	0x8
 2304 0285 2D       		.byte	0x2d
ARM GAS  C:\Users\haske\AppData\Local\Temp\ccxlcgkV.s 			page 55


 2305 0286 CE000000 		.4byte	0xce
 2306 028a 06       		.byte	0x6
 2307 028b 0F       		.uleb128 0xf
 2308 028c 9D0A0000 		.4byte	.LASF51
 2309 0290 08       		.byte	0x8
 2310 0291 2E       		.byte	0x2e
 2311 0292 CE000000 		.4byte	0xce
 2312 0296 08       		.byte	0x8
 2313 0297 0F       		.uleb128 0xf
 2314 0298 F5020000 		.4byte	.LASF52
 2315 029c 08       		.byte	0x8
 2316 029d 2F       		.byte	0x2f
 2317 029e C3000000 		.4byte	0xc3
 2318 02a2 0A       		.byte	0xa
 2319 02a3 0F       		.uleb128 0xf
 2320 02a4 FB020000 		.4byte	.LASF53
 2321 02a8 08       		.byte	0x8
 2322 02a9 30       		.byte	0x30
 2323 02aa C3000000 		.4byte	0xc3
 2324 02ae 0C       		.byte	0xc
 2325 02af 0A       		.uleb128 0xa
 2326 02b0 62707000 		.ascii	"bpp\000"
 2327 02b4 08       		.byte	0x8
 2328 02b5 31       		.byte	0x31
 2329 02b6 B8000000 		.4byte	0xb8
 2330 02ba 01       		.byte	0x1
 2331 02bb 04       		.byte	0x4
 2332 02bc 04       		.byte	0x4
 2333 02bd 0E       		.byte	0xe
 2334 02be 09       		.uleb128 0x9
 2335 02bf 820D0000 		.4byte	.LASF54
 2336 02c3 08       		.byte	0x8
 2337 02c4 32       		.byte	0x32
 2338 02c5 B8000000 		.4byte	0xb8
 2339 02c9 01       		.byte	0x1
 2340 02ca 01       		.byte	0x1
 2341 02cb 03       		.byte	0x3
 2342 02cc 0E       		.byte	0xe
 2343 02cd 00       		.byte	0
 2344 02ce 10       		.uleb128 0x10
 2345 02cf 3D060000 		.4byte	.LASF177
 2346 02d3 1C       		.byte	0x1c
 2347 02d4 08       		.byte	0x8
 2348 02d5 40       		.byte	0x40
 2349 02d6 56030000 		.4byte	0x356
 2350 02da 0F       		.uleb128 0xf
 2351 02db CE0C0000 		.4byte	.LASF55
 2352 02df 08       		.byte	0x8
 2353 02e0 42       		.byte	0x42
 2354 02e1 97030000 		.4byte	0x397
 2355 02e5 00       		.byte	0
 2356 02e6 0F       		.uleb128 0xf
 2357 02e7 52020000 		.4byte	.LASF56
 2358 02eb 08       		.byte	0x8
 2359 02ec 45       		.byte	0x45
 2360 02ed BC030000 		.4byte	0x3bc
 2361 02f1 04       		.byte	0x4
ARM GAS  C:\Users\haske\AppData\Local\Temp\ccxlcgkV.s 			page 56


 2362 02f2 0F       		.uleb128 0xf
 2363 02f3 76000000 		.4byte	.LASF57
 2364 02f7 08       		.byte	0x8
 2365 02f8 48       		.byte	0x48
 2366 02f9 EC010000 		.4byte	0x1ec
 2367 02fd 08       		.byte	0x8
 2368 02fe 0F       		.uleb128 0xf
 2369 02ff E70A0000 		.4byte	.LASF58
 2370 0303 08       		.byte	0x8
 2371 0304 49       		.byte	0x49
 2372 0305 EC010000 		.4byte	0x1ec
 2373 0309 0A       		.byte	0xa
 2374 030a 09       		.uleb128 0x9
 2375 030b 6E080000 		.4byte	.LASF59
 2376 030f 08       		.byte	0x8
 2377 0310 4A       		.byte	0x4a
 2378 0311 B8000000 		.4byte	0xb8
 2379 0315 01       		.byte	0x1
 2380 0316 02       		.byte	0x2
 2381 0317 06       		.byte	0x6
 2382 0318 0C       		.byte	0xc
 2383 0319 0F       		.uleb128 0xf
 2384 031a 63030000 		.4byte	.LASF60
 2385 031e 08       		.byte	0x8
 2386 031f 4C       		.byte	0x4c
 2387 0320 AD000000 		.4byte	0xad
 2388 0324 0D       		.byte	0xd
 2389 0325 0F       		.uleb128 0xf
 2390 0326 0C070000 		.4byte	.LASF61
 2391 032a 08       		.byte	0x8
 2392 032b 4D       		.byte	0x4d
 2393 032c AD000000 		.4byte	0xad
 2394 0330 0E       		.byte	0xe
 2395 0331 0E       		.uleb128 0xe
 2396 0332 64736300 		.ascii	"dsc\000"
 2397 0336 08       		.byte	0x8
 2398 0337 4F       		.byte	0x4f
 2399 0338 C2030000 		.4byte	0x3c2
 2400 033c 10       		.byte	0x10
 2401 033d 0F       		.uleb128 0xf
 2402 033e 29040000 		.4byte	.LASF62
 2403 0342 08       		.byte	0x8
 2404 0343 50       		.byte	0x50
 2405 0344 56030000 		.4byte	0x356
 2406 0348 14       		.byte	0x14
 2407 0349 0F       		.uleb128 0xf
 2408 034a C40C0000 		.4byte	.LASF63
 2409 034e 08       		.byte	0x8
 2410 034f 52       		.byte	0x52
 2411 0350 13010000 		.4byte	0x113
 2412 0354 18       		.byte	0x18
 2413 0355 00       		.byte	0
 2414 0356 11       		.uleb128 0x11
 2415 0357 04       		.byte	0x4
 2416 0358 5C030000 		.4byte	0x35c
 2417 035c 12       		.uleb128 0x12
 2418 035d CE020000 		.4byte	0x2ce
ARM GAS  C:\Users\haske\AppData\Local\Temp\ccxlcgkV.s 			page 57


 2419 0361 02       		.uleb128 0x2
 2420 0362 DC070000 		.4byte	.LASF64
 2421 0366 08       		.byte	0x8
 2422 0367 33       		.byte	0x33
 2423 0368 5F020000 		.4byte	0x25f
 2424 036c 13       		.uleb128 0x13
 2425 036d 8A030000 		.4byte	0x38a
 2426 0371 8A030000 		.4byte	0x38a
 2427 0375 14       		.uleb128 0x14
 2428 0376 56030000 		.4byte	0x356
 2429 037a 14       		.uleb128 0x14
 2430 037b 91030000 		.4byte	0x391
 2431 037f 14       		.uleb128 0x14
 2432 0380 E4000000 		.4byte	0xe4
 2433 0384 14       		.uleb128 0x14
 2434 0385 E4000000 		.4byte	0xe4
 2435 0389 00       		.byte	0
 2436 038a 03       		.uleb128 0x3
 2437 038b 01       		.byte	0x1
 2438 038c 02       		.byte	0x2
 2439 038d 0F030000 		.4byte	.LASF65
 2440 0391 11       		.uleb128 0x11
 2441 0392 04       		.byte	0x4
 2442 0393 61030000 		.4byte	0x361
 2443 0397 11       		.uleb128 0x11
 2444 0398 04       		.byte	0x4
 2445 0399 6C030000 		.4byte	0x36c
 2446 039d 13       		.uleb128 0x13
 2447 039e B1030000 		.4byte	0x3b1
 2448 03a2 B1030000 		.4byte	0x3b1
 2449 03a6 14       		.uleb128 0x14
 2450 03a7 56030000 		.4byte	0x356
 2451 03ab 14       		.uleb128 0x14
 2452 03ac E4000000 		.4byte	0xe4
 2453 03b0 00       		.byte	0
 2454 03b1 11       		.uleb128 0x11
 2455 03b2 04       		.byte	0x4
 2456 03b3 B7030000 		.4byte	0x3b7
 2457 03b7 12       		.uleb128 0x12
 2458 03b8 B8000000 		.4byte	0xb8
 2459 03bc 11       		.uleb128 0x11
 2460 03bd 04       		.byte	0x4
 2461 03be 9D030000 		.4byte	0x39d
 2462 03c2 11       		.uleb128 0x11
 2463 03c3 04       		.byte	0x4
 2464 03c4 C8030000 		.4byte	0x3c8
 2465 03c8 15       		.uleb128 0x15
 2466 03c9 02       		.uleb128 0x2
 2467 03ca 310C0000 		.4byte	.LASF66
 2468 03ce 08       		.byte	0x8
 2469 03cf 54       		.byte	0x54
 2470 03d0 CE020000 		.4byte	0x2ce
 2471 03d4 02       		.uleb128 0x2
 2472 03d5 85090000 		.4byte	.LASF67
 2473 03d9 09       		.byte	0x9
 2474 03da 30       		.byte	0x30
 2475 03db B8000000 		.4byte	0xb8
ARM GAS  C:\Users\haske\AppData\Local\Temp\ccxlcgkV.s 			page 58


 2476 03df 02       		.uleb128 0x2
 2477 03e0 FC060000 		.4byte	.LASF68
 2478 03e4 09       		.byte	0x9
 2479 03e5 42       		.byte	0x42
 2480 03e6 B8000000 		.4byte	0xb8
 2481 03ea 02       		.uleb128 0x2
 2482 03eb 01030000 		.4byte	.LASF69
 2483 03ef 0A       		.byte	0xa
 2484 03f0 2A       		.byte	0x2a
 2485 03f1 B8000000 		.4byte	0xb8
 2486 03f5 02       		.uleb128 0x2
 2487 03f6 82000000 		.4byte	.LASF70
 2488 03fa 0B       		.byte	0xb
 2489 03fb 5E       		.byte	0x5e
 2490 03fc B8000000 		.4byte	0xb8
 2491 0400 02       		.uleb128 0x2
 2492 0401 68060000 		.4byte	.LASF71
 2493 0405 0B       		.byte	0xb
 2494 0406 6A       		.byte	0x6a
 2495 0407 B8000000 		.4byte	0xb8
 2496 040b 02       		.uleb128 0x2
 2497 040c 4A0A0000 		.4byte	.LASF72
 2498 0410 0B       		.byte	0xb
 2499 0411 79       		.byte	0x79
 2500 0412 B8000000 		.4byte	0xb8
 2501 0416 02       		.uleb128 0x2
 2502 0417 E60C0000 		.4byte	.LASF73
 2503 041b 0B       		.byte	0xb
 2504 041c 84       		.byte	0x84
 2505 041d B8000000 		.4byte	0xb8
 2506 0421 02       		.uleb128 0x2
 2507 0422 54080000 		.4byte	.LASF74
 2508 0426 0B       		.byte	0xb
 2509 0427 90       		.byte	0x90
 2510 0428 B8000000 		.4byte	0xb8
 2511 042c 08       		.uleb128 0x8
 2512 042d 04       		.byte	0x4
 2513 042e 0B       		.byte	0xb
 2514 042f 95       		.byte	0x95
 2515 0430 4D040000 		.4byte	0x44d
 2516 0434 0F       		.uleb128 0xf
 2517 0435 0E0A0000 		.4byte	.LASF75
 2518 0439 0B       		.byte	0xb
 2519 043a 96       		.byte	0x96
 2520 043b D6010000 		.4byte	0x1d6
 2521 043f 00       		.byte	0
 2522 0440 0F       		.uleb128 0xf
 2523 0441 5B0A0000 		.4byte	.LASF76
 2524 0445 0B       		.byte	0xb
 2525 0446 97       		.byte	0x97
 2526 0447 B8000000 		.4byte	0xb8
 2527 044b 02       		.byte	0x2
 2528 044c 00       		.byte	0
 2529 044d 02       		.uleb128 0x2
 2530 044e CD0B0000 		.4byte	.LASF77
 2531 0452 0B       		.byte	0xb
 2532 0453 98       		.byte	0x98
ARM GAS  C:\Users\haske\AppData\Local\Temp\ccxlcgkV.s 			page 59


 2533 0454 2C040000 		.4byte	0x42c
 2534 0458 08       		.uleb128 0x8
 2535 0459 0A       		.byte	0xa
 2536 045a 0B       		.byte	0xb
 2537 045b 9B       		.byte	0x9b
 2538 045c 97040000 		.4byte	0x497
 2539 0460 0F       		.uleb128 0xf
 2540 0461 140A0000 		.4byte	.LASF78
 2541 0465 0B       		.byte	0xb
 2542 0466 9C       		.byte	0x9c
 2543 0467 97040000 		.4byte	0x497
 2544 046b 00       		.byte	0
 2545 046c 0F       		.uleb128 0xf
 2546 046d AA030000 		.4byte	.LASF79
 2547 0471 0B       		.byte	0xb
 2548 0472 9D       		.byte	0x9d
 2549 0473 B8000000 		.4byte	0xb8
 2550 0477 08       		.byte	0x8
 2551 0478 0A       		.uleb128 0xa
 2552 0479 64697200 		.ascii	"dir\000"
 2553 047d 0B       		.byte	0xb
 2554 047e 9E       		.byte	0x9e
 2555 047f 16040000 		.4byte	0x416
 2556 0483 01       		.byte	0x1
 2557 0484 03       		.byte	0x3
 2558 0485 05       		.byte	0x5
 2559 0486 09       		.byte	0x9
 2560 0487 09       		.uleb128 0x9
 2561 0488 730C0000 		.4byte	.LASF80
 2562 048c 0B       		.byte	0xb
 2563 048d A0       		.byte	0xa0
 2564 048e 21040000 		.4byte	0x421
 2565 0492 01       		.byte	0x1
 2566 0493 03       		.byte	0x3
 2567 0494 02       		.byte	0x2
 2568 0495 09       		.byte	0x9
 2569 0496 00       		.byte	0
 2570 0497 16       		.uleb128 0x16
 2571 0498 4D040000 		.4byte	0x44d
 2572 049c A7040000 		.4byte	0x4a7
 2573 04a0 17       		.uleb128 0x17
 2574 04a1 0C010000 		.4byte	0x10c
 2575 04a5 01       		.byte	0x1
 2576 04a6 00       		.byte	0
 2577 04a7 02       		.uleb128 0x2
 2578 04a8 6E0D0000 		.4byte	.LASF81
 2579 04ac 0B       		.byte	0xb
 2580 04ad A2       		.byte	0xa2
 2581 04ae 58040000 		.4byte	0x458
 2582 04b2 11       		.uleb128 0x11
 2583 04b3 04       		.byte	0x4
 2584 04b4 B8000000 		.4byte	0xb8
 2585 04b8 02       		.uleb128 0x2
 2586 04b9 BD000000 		.4byte	.LASF82
 2587 04bd 0C       		.byte	0xc
 2588 04be 2B       		.byte	0x2b
 2589 04bf B8000000 		.4byte	0xb8
ARM GAS  C:\Users\haske\AppData\Local\Temp\ccxlcgkV.s 			page 60


 2590 04c3 02       		.uleb128 0x2
 2591 04c4 F70B0000 		.4byte	.LASF83
 2592 04c8 0C       		.byte	0xc
 2593 04c9 4F       		.byte	0x4f
 2594 04ca B8000000 		.4byte	0xb8
 2595 04ce 02       		.uleb128 0x2
 2596 04cf 3B090000 		.4byte	.LASF84
 2597 04d3 0C       		.byte	0xc
 2598 04d4 5C       		.byte	0x5c
 2599 04d5 D9040000 		.4byte	0x4d9
 2600 04d9 11       		.uleb128 0x11
 2601 04da 04       		.byte	0x4
 2602 04db DF040000 		.4byte	0x4df
 2603 04df 13       		.uleb128 0x13
 2604 04e0 B8040000 		.4byte	0x4b8
 2605 04e4 02050000 		.4byte	0x502
 2606 04e8 14       		.uleb128 0x14
 2607 04e9 02050000 		.4byte	0x502
 2608 04ed 14       		.uleb128 0x14
 2609 04ee EC010000 		.4byte	0x1ec
 2610 04f2 14       		.uleb128 0x14
 2611 04f3 EC010000 		.4byte	0x1ec
 2612 04f7 14       		.uleb128 0x14
 2613 04f8 EC010000 		.4byte	0x1ec
 2614 04fc 14       		.uleb128 0x14
 2615 04fd 13010000 		.4byte	0x113
 2616 0501 00       		.byte	0
 2617 0502 11       		.uleb128 0x11
 2618 0503 04       		.byte	0x4
 2619 0504 E1010000 		.4byte	0x1e1
 2620 0508 02       		.uleb128 0x2
 2621 0509 FE070000 		.4byte	.LASF85
 2622 050d 0C       		.byte	0xc
 2623 050e 60       		.byte	0x60
 2624 050f B8000000 		.4byte	0xb8
 2625 0513 08       		.uleb128 0x8
 2626 0514 08       		.byte	0x8
 2627 0515 0C       		.byte	0xc
 2628 0516 62       		.byte	0x62
 2629 0517 33050000 		.4byte	0x533
 2630 051b 0E       		.uleb128 0xe
 2631 051c 636200   		.ascii	"cb\000"
 2632 051f 0C       		.byte	0xc
 2633 0520 63       		.byte	0x63
 2634 0521 CE040000 		.4byte	0x4ce
 2635 0525 00       		.byte	0
 2636 0526 0F       		.uleb128 0xf
 2637 0527 24010000 		.4byte	.LASF86
 2638 052b 0C       		.byte	0xc
 2639 052c 64       		.byte	0x64
 2640 052d C3040000 		.4byte	0x4c3
 2641 0531 04       		.byte	0x4
 2642 0532 00       		.byte	0
 2643 0533 02       		.uleb128 0x2
 2644 0534 390D0000 		.4byte	.LASF87
 2645 0538 0C       		.byte	0xc
 2646 0539 65       		.byte	0x65
ARM GAS  C:\Users\haske\AppData\Local\Temp\ccxlcgkV.s 			page 61


 2647 053a 13050000 		.4byte	0x513
 2648 053e 08       		.uleb128 0x8
 2649 053f 0A       		.byte	0xa
 2650 0540 0C       		.byte	0xc
 2651 0541 6B       		.byte	0x6b
 2652 0542 6C050000 		.4byte	0x56c
 2653 0546 0E       		.uleb128 0xe
 2654 0547 703100   		.ascii	"p1\000"
 2655 054a 0C       		.byte	0xc
 2656 054b 6D       		.byte	0x6d
 2657 054c 14020000 		.4byte	0x214
 2658 0550 00       		.byte	0
 2659 0551 0E       		.uleb128 0xe
 2660 0552 703200   		.ascii	"p2\000"
 2661 0555 0C       		.byte	0xc
 2662 0556 70       		.byte	0x70
 2663 0557 14020000 		.4byte	0x214
 2664 055b 04       		.byte	0x4
 2665 055c 09       		.uleb128 0x9
 2666 055d 210D0000 		.4byte	.LASF88
 2667 0561 0C       		.byte	0xc
 2668 0562 73       		.byte	0x73
 2669 0563 08050000 		.4byte	0x508
 2670 0567 01       		.byte	0x1
 2671 0568 02       		.byte	0x2
 2672 0569 06       		.byte	0x6
 2673 056a 08       		.byte	0x8
 2674 056b 00       		.byte	0
 2675 056c 08       		.uleb128 0x8
 2676 056d 2C       		.byte	0x2c
 2677 056e 0C       		.byte	0xc
 2678 056f 67       		.byte	0x67
 2679 0570 E7050000 		.4byte	0x5e7
 2680 0574 0E       		.uleb128 0xe
 2681 0575 64736300 		.ascii	"dsc\000"
 2682 0579 0C       		.byte	0xc
 2683 057a 69       		.byte	0x69
 2684 057b 33050000 		.4byte	0x533
 2685 057f 00       		.byte	0
 2686 0580 0E       		.uleb128 0xe
 2687 0581 63666700 		.ascii	"cfg\000"
 2688 0585 0C       		.byte	0xc
 2689 0586 74       		.byte	0x74
 2690 0587 3E050000 		.4byte	0x53e
 2691 058b 08       		.byte	0x8
 2692 058c 0F       		.uleb128 0xf
 2693 058d 3D070000 		.4byte	.LASF89
 2694 0591 0C       		.byte	0xc
 2695 0592 77       		.byte	0x77
 2696 0593 14020000 		.4byte	0x214
 2697 0597 12       		.byte	0x12
 2698 0598 0F       		.uleb128 0xf
 2699 0599 34070000 		.4byte	.LASF90
 2700 059d 0C       		.byte	0xc
 2701 059e 7A       		.byte	0x7a
 2702 059f D9000000 		.4byte	0xd9
 2703 05a3 18       		.byte	0x18
ARM GAS  C:\Users\haske\AppData\Local\Temp\ccxlcgkV.s 			page 62


 2704 05a4 0F       		.uleb128 0xf
 2705 05a5 6C010000 		.4byte	.LASF91
 2706 05a9 0C       		.byte	0xc
 2707 05aa 7D       		.byte	0x7d
 2708 05ab D9000000 		.4byte	0xd9
 2709 05af 1C       		.byte	0x1c
 2710 05b0 0F       		.uleb128 0xf
 2711 05b1 AC040000 		.4byte	.LASF92
 2712 05b5 0C       		.byte	0xc
 2713 05b6 80       		.byte	0x80
 2714 05b7 D9000000 		.4byte	0xd9
 2715 05bb 20       		.byte	0x20
 2716 05bc 0E       		.uleb128 0xe
 2717 05bd 73707800 		.ascii	"spx\000"
 2718 05c1 0C       		.byte	0xc
 2719 05c2 83       		.byte	0x83
 2720 05c3 D9000000 		.4byte	0xd9
 2721 05c7 24       		.byte	0x24
 2722 05c8 09       		.uleb128 0x9
 2723 05c9 A1070000 		.4byte	.LASF93
 2724 05cd 0C       		.byte	0xc
 2725 05ce 86       		.byte	0x86
 2726 05cf B8000000 		.4byte	0xb8
 2727 05d3 01       		.byte	0x1
 2728 05d4 01       		.byte	0x1
 2729 05d5 07       		.byte	0x7
 2730 05d6 28       		.byte	0x28
 2731 05d7 0A       		.uleb128 0xa
 2732 05d8 696E7600 		.ascii	"inv\000"
 2733 05dc 0C       		.byte	0xc
 2734 05dd 8A       		.byte	0x8a
 2735 05de B8000000 		.4byte	0xb8
 2736 05e2 01       		.byte	0x1
 2737 05e3 01       		.byte	0x1
 2738 05e4 06       		.byte	0x6
 2739 05e5 28       		.byte	0x28
 2740 05e6 00       		.byte	0
 2741 05e7 02       		.uleb128 0x2
 2742 05e8 B5090000 		.4byte	.LASF94
 2743 05ec 0C       		.byte	0xc
 2744 05ed 8B       		.byte	0x8b
 2745 05ee 6C050000 		.4byte	0x56c
 2746 05f2 08       		.uleb128 0x8
 2747 05f3 08       		.byte	0x8
 2748 05f4 0C       		.byte	0xc
 2749 05f5 91       		.byte	0x91
 2750 05f6 1F060000 		.4byte	0x61f
 2751 05fa 0F       		.uleb128 0xf
 2752 05fb 5F060000 		.4byte	.LASF95
 2753 05ff 0C       		.byte	0xc
 2754 0600 92       		.byte	0x92
 2755 0601 14020000 		.4byte	0x214
 2756 0605 00       		.byte	0
 2757 0606 0F       		.uleb128 0xf
 2758 0607 01050000 		.4byte	.LASF96
 2759 060b 0C       		.byte	0xc
 2760 060c 93       		.byte	0x93
ARM GAS  C:\Users\haske\AppData\Local\Temp\ccxlcgkV.s 			page 63


 2761 060d EC010000 		.4byte	0x1ec
 2762 0611 04       		.byte	0x4
 2763 0612 0F       		.uleb128 0xf
 2764 0613 6E020000 		.4byte	.LASF97
 2765 0617 0C       		.byte	0xc
 2766 0618 94       		.byte	0x94
 2767 0619 EC010000 		.4byte	0x1ec
 2768 061d 06       		.byte	0x6
 2769 061e 00       		.byte	0
 2770 061f 08       		.uleb128 0x8
 2771 0620 6C       		.byte	0x6c
 2772 0621 0C       		.byte	0xc
 2773 0622 8D       		.byte	0x8d
 2774 0623 64060000 		.4byte	0x664
 2775 0627 0E       		.uleb128 0xe
 2776 0628 64736300 		.ascii	"dsc\000"
 2777 062c 0C       		.byte	0xc
 2778 062d 8F       		.byte	0x8f
 2779 062e 33050000 		.4byte	0x533
 2780 0632 00       		.byte	0
 2781 0633 0E       		.uleb128 0xe
 2782 0634 63666700 		.ascii	"cfg\000"
 2783 0638 0C       		.byte	0xc
 2784 0639 95       		.byte	0x95
 2785 063a F2050000 		.4byte	0x5f2
 2786 063e 08       		.byte	0x8
 2787 063f 0F       		.uleb128 0xf
 2788 0640 4A0C0000 		.4byte	.LASF98
 2789 0644 0C       		.byte	0xc
 2790 0645 97       		.byte	0x97
 2791 0646 E7050000 		.4byte	0x5e7
 2792 064a 10       		.byte	0x10
 2793 064b 0F       		.uleb128 0xf
 2794 064c D40A0000 		.4byte	.LASF99
 2795 0650 0C       		.byte	0xc
 2796 0651 98       		.byte	0x98
 2797 0652 E7050000 		.4byte	0x5e7
 2798 0656 3C       		.byte	0x3c
 2799 0657 0F       		.uleb128 0xf
 2800 0658 62010000 		.4byte	.LASF100
 2801 065c 0C       		.byte	0xc
 2802 065d 99       		.byte	0x99
 2803 065e CE000000 		.4byte	0xce
 2804 0662 68       		.byte	0x68
 2805 0663 00       		.byte	0
 2806 0664 02       		.uleb128 0x2
 2807 0665 DB030000 		.4byte	.LASF101
 2808 0669 0C       		.byte	0xc
 2809 066a 9A       		.byte	0x9a
 2810 066b 1F060000 		.4byte	0x61f
 2811 066f 08       		.uleb128 0x8
 2812 0670 1C       		.byte	0x1c
 2813 0671 0C       		.byte	0xc
 2814 0672 9C       		.byte	0x9c
 2815 0673 CC060000 		.4byte	0x6cc
 2816 0677 0E       		.uleb128 0xe
 2817 0678 62756600 		.ascii	"buf\000"
ARM GAS  C:\Users\haske\AppData\Local\Temp\ccxlcgkV.s 			page 64


 2818 067c 0C       		.byte	0xc
 2819 067d 9D       		.byte	0x9d
 2820 067e B2040000 		.4byte	0x4b2
 2821 0682 00       		.byte	0
 2822 0683 0F       		.uleb128 0xf
 2823 0684 A4040000 		.4byte	.LASF102
 2824 0688 0C       		.byte	0xc
 2825 0689 9E       		.byte	0x9e
 2826 068a 02050000 		.4byte	0x502
 2827 068e 04       		.byte	0x4
 2828 068f 0F       		.uleb128 0xf
 2829 0690 08010000 		.4byte	.LASF103
 2830 0694 0C       		.byte	0xc
 2831 0695 9F       		.byte	0x9f
 2832 0696 CC060000 		.4byte	0x6cc
 2833 069a 08       		.byte	0x8
 2834 069b 0F       		.uleb128 0xf
 2835 069c 8E0A0000 		.4byte	.LASF104
 2836 06a0 0C       		.byte	0xc
 2837 06a1 A0       		.byte	0xa0
 2838 06a2 CC060000 		.4byte	0x6cc
 2839 06a6 0C       		.byte	0xc
 2840 06a7 0F       		.uleb128 0xf
 2841 06a8 F3010000 		.4byte	.LASF105
 2842 06ac 0C       		.byte	0xc
 2843 06ad A1       		.byte	0xa1
 2844 06ae D9000000 		.4byte	0xd9
 2845 06b2 10       		.byte	0x10
 2846 06b3 0F       		.uleb128 0xf
 2847 06b4 260D0000 		.4byte	.LASF106
 2848 06b8 0C       		.byte	0xc
 2849 06b9 A2       		.byte	0xa2
 2850 06ba E4000000 		.4byte	0xe4
 2851 06be 14       		.byte	0x14
 2852 06bf 0F       		.uleb128 0xf
 2853 06c0 66000000 		.4byte	.LASF107
 2854 06c4 0C       		.byte	0xc
 2855 06c5 A3       		.byte	0xa3
 2856 06c6 EC010000 		.4byte	0x1ec
 2857 06ca 18       		.byte	0x18
 2858 06cb 00       		.byte	0
 2859 06cc 11       		.uleb128 0x11
 2860 06cd 04       		.byte	0x4
 2861 06ce CE000000 		.4byte	0xce
 2862 06d2 02       		.uleb128 0x2
 2863 06d3 B7020000 		.4byte	.LASF108
 2864 06d7 0C       		.byte	0xc
 2865 06d8 A4       		.byte	0xa4
 2866 06d9 6F060000 		.4byte	0x66f
 2867 06dd 08       		.uleb128 0x8
 2868 06de 0C       		.byte	0xc
 2869 06df 0C       		.byte	0xc
 2870 06e0 AC       		.byte	0xac
 2871 06e1 0D070000 		.4byte	0x70d
 2872 06e5 0F       		.uleb128 0xf
 2873 06e6 2C080000 		.4byte	.LASF109
 2874 06ea 0C       		.byte	0xc
ARM GAS  C:\Users\haske\AppData\Local\Temp\ccxlcgkV.s 			page 65


 2875 06eb AD       		.byte	0xad
 2876 06ec 54020000 		.4byte	0x254
 2877 06f0 00       		.byte	0
 2878 06f1 0F       		.uleb128 0xf
 2879 06f2 66000000 		.4byte	.LASF107
 2880 06f6 0C       		.byte	0xc
 2881 06f7 AE       		.byte	0xae
 2882 06f8 EC010000 		.4byte	0x1ec
 2883 06fc 08       		.byte	0x8
 2884 06fd 09       		.uleb128 0x9
 2885 06fe 7D020000 		.4byte	.LASF110
 2886 0702 0C       		.byte	0xc
 2887 0703 B0       		.byte	0xb0
 2888 0704 B8000000 		.4byte	0xb8
 2889 0708 01       		.byte	0x1
 2890 0709 01       		.byte	0x1
 2891 070a 07       		.byte	0x7
 2892 070b 0A       		.byte	0xa
 2893 070c 00       		.byte	0
 2894 070d 08       		.uleb128 0x8
 2895 070e 18       		.byte	0x18
 2896 070f 0C       		.byte	0xc
 2897 0710 A8       		.byte	0xa8
 2898 0711 3A070000 		.4byte	0x73a
 2899 0715 0E       		.uleb128 0xe
 2900 0716 64736300 		.ascii	"dsc\000"
 2901 071a 0C       		.byte	0xc
 2902 071b AA       		.byte	0xaa
 2903 071c 33050000 		.4byte	0x533
 2904 0720 00       		.byte	0
 2905 0721 0E       		.uleb128 0xe
 2906 0722 63666700 		.ascii	"cfg\000"
 2907 0726 0C       		.byte	0xc
 2908 0727 B1       		.byte	0xb1
 2909 0728 DD060000 		.4byte	0x6dd
 2910 072c 08       		.byte	0x8
 2911 072d 0F       		.uleb128 0xf
 2912 072e BC060000 		.4byte	.LASF111
 2913 0732 0C       		.byte	0xc
 2914 0733 B3       		.byte	0xb3
 2915 0734 3A070000 		.4byte	0x73a
 2916 0738 14       		.byte	0x14
 2917 0739 00       		.byte	0
 2918 073a 11       		.uleb128 0x11
 2919 073b 04       		.byte	0x4
 2920 073c D2060000 		.4byte	0x6d2
 2921 0740 02       		.uleb128 0x2
 2922 0741 83020000 		.4byte	.LASF112
 2923 0745 0C       		.byte	0xc
 2924 0746 B4       		.byte	0xb4
 2925 0747 0D070000 		.4byte	0x70d
 2926 074b 11       		.uleb128 0x11
 2927 074c 04       		.byte	0x4
 2928 074d 51070000 		.4byte	0x751
 2929 0751 12       		.uleb128 0x12
 2930 0752 54020000 		.4byte	0x254
 2931 0756 02       		.uleb128 0x2
ARM GAS  C:\Users\haske\AppData\Local\Temp\ccxlcgkV.s 			page 66


 2932 0757 EF040000 		.4byte	.LASF113
 2933 075b 0D       		.byte	0xd
 2934 075c 69       		.byte	0x69
 2935 075d B8000000 		.4byte	0xb8
 2936 0761 11       		.uleb128 0x11
 2937 0762 04       		.byte	0x4
 2938 0763 D6010000 		.4byte	0x1d6
 2939 0767 08       		.uleb128 0x8
 2940 0768 38       		.byte	0x38
 2941 0769 0E       		.byte	0xe
 2942 076a 20       		.byte	0x20
 2943 076b AE080000 		.4byte	0x8ae
 2944 076f 0F       		.uleb128 0xf
 2945 0770 66000000 		.4byte	.LASF107
 2946 0774 0E       		.byte	0xe
 2947 0775 21       		.byte	0x21
 2948 0776 EC010000 		.4byte	0x1ec
 2949 077a 00       		.byte	0
 2950 077b 0F       		.uleb128 0xf
 2951 077c 57010000 		.4byte	.LASF114
 2952 0780 0E       		.byte	0xe
 2953 0781 22       		.byte	0x22
 2954 0782 F5030000 		.4byte	0x3f5
 2955 0786 02       		.byte	0x2
 2956 0787 0F       		.uleb128 0xf
 2957 0788 7E010000 		.4byte	.LASF115
 2958 078c 0E       		.byte	0xe
 2959 078d 25       		.byte	0x25
 2960 078e E1010000 		.4byte	0x1e1
 2961 0792 03       		.byte	0x3
 2962 0793 0F       		.uleb128 0xf
 2963 0794 6D000000 		.4byte	.LASF116
 2964 0798 0E       		.byte	0xe
 2965 0799 26       		.byte	0x26
 2966 079a D6010000 		.4byte	0x1d6
 2967 079e 04       		.byte	0x4
 2968 079f 0F       		.uleb128 0xf
 2969 07a0 B30B0000 		.4byte	.LASF117
 2970 07a4 0E       		.byte	0xe
 2971 07a5 27       		.byte	0x27
 2972 07a6 A7040000 		.4byte	0x4a7
 2973 07aa 06       		.byte	0x6
 2974 07ab 0F       		.uleb128 0xf
 2975 07ac 29010000 		.4byte	.LASF118
 2976 07b0 0E       		.byte	0xe
 2977 07b1 2A       		.byte	0x2a
 2978 07b2 C2030000 		.4byte	0x3c2
 2979 07b6 10       		.byte	0x10
 2980 07b7 0F       		.uleb128 0xf
 2981 07b8 CA040000 		.4byte	.LASF119
 2982 07bc 0E       		.byte	0xe
 2983 07bd 2B       		.byte	0x2b
 2984 07be C2030000 		.4byte	0x3c2
 2985 07c2 14       		.byte	0x14
 2986 07c3 0F       		.uleb128 0xf
 2987 07c4 A30A0000 		.4byte	.LASF120
 2988 07c8 0E       		.byte	0xe
ARM GAS  C:\Users\haske\AppData\Local\Temp\ccxlcgkV.s 			page 67


 2989 07c9 2C       		.byte	0x2c
 2990 07ca D6010000 		.4byte	0x1d6
 2991 07ce 18       		.byte	0x18
 2992 07cf 0F       		.uleb128 0xf
 2993 07d0 070B0000 		.4byte	.LASF121
 2994 07d4 0E       		.byte	0xe
 2995 07d5 2D       		.byte	0x2d
 2996 07d6 E1010000 		.4byte	0x1e1
 2997 07da 1A       		.byte	0x1a
 2998 07db 0F       		.uleb128 0xf
 2999 07dc 8E080000 		.4byte	.LASF122
 3000 07e0 0E       		.byte	0xe
 3001 07e1 2E       		.byte	0x2e
 3002 07e2 E1010000 		.4byte	0x1e1
 3003 07e6 1B       		.byte	0x1b
 3004 07e7 0F       		.uleb128 0xf
 3005 07e8 45020000 		.4byte	.LASF123
 3006 07ec 0E       		.byte	0xe
 3007 07ed 2F       		.byte	0x2f
 3008 07ee B8000000 		.4byte	0xb8
 3009 07f2 1C       		.byte	0x1c
 3010 07f3 0F       		.uleb128 0xf
 3011 07f4 81080000 		.4byte	.LASF124
 3012 07f8 0E       		.byte	0xe
 3013 07f9 32       		.byte	0x32
 3014 07fa D6010000 		.4byte	0x1d6
 3015 07fe 1E       		.byte	0x1e
 3016 07ff 0F       		.uleb128 0xf
 3017 0800 78090000 		.4byte	.LASF125
 3018 0804 0E       		.byte	0xe
 3019 0805 33       		.byte	0x33
 3020 0806 EC010000 		.4byte	0x1ec
 3021 080a 20       		.byte	0x20
 3022 080b 0F       		.uleb128 0xf
 3023 080c A80B0000 		.4byte	.LASF126
 3024 0810 0E       		.byte	0xe
 3025 0811 34       		.byte	0x34
 3026 0812 E1010000 		.4byte	0x1e1
 3027 0816 22       		.byte	0x22
 3028 0817 09       		.uleb128 0x9
 3029 0818 0A040000 		.4byte	.LASF127
 3030 081c 0E       		.byte	0xe
 3031 081d 35       		.byte	0x35
 3032 081e B8000000 		.4byte	0xb8
 3033 0822 01       		.byte	0x1
 3034 0823 01       		.byte	0x1
 3035 0824 07       		.byte	0x7
 3036 0825 23       		.byte	0x23
 3037 0826 09       		.uleb128 0x9
 3038 0827 41010000 		.4byte	.LASF128
 3039 082b 0E       		.byte	0xe
 3040 082c 36       		.byte	0x36
 3041 082d 0B040000 		.4byte	0x40b
 3042 0831 01       		.byte	0x1
 3043 0832 05       		.byte	0x5
 3044 0833 02       		.byte	0x2
 3045 0834 23       		.byte	0x23
ARM GAS  C:\Users\haske\AppData\Local\Temp\ccxlcgkV.s 			page 68


 3046 0835 0F       		.uleb128 0xf
 3047 0836 0B020000 		.4byte	.LASF129
 3048 083a 0E       		.byte	0xe
 3049 083b 39       		.byte	0x39
 3050 083c D6010000 		.4byte	0x1d6
 3051 0840 24       		.byte	0x24
 3052 0841 0F       		.uleb128 0xf
 3053 0842 F0070000 		.4byte	.LASF130
 3054 0846 0E       		.byte	0xe
 3055 0847 3A       		.byte	0x3a
 3056 0848 EC010000 		.4byte	0x1ec
 3057 084c 26       		.byte	0x26
 3058 084d 0F       		.uleb128 0xf
 3059 084e C1030000 		.4byte	.LASF131
 3060 0852 0E       		.byte	0xe
 3061 0853 3B       		.byte	0x3b
 3062 0854 EC010000 		.4byte	0x1ec
 3063 0858 28       		.byte	0x28
 3064 0859 0F       		.uleb128 0xf
 3065 085a 95070000 		.4byte	.LASF132
 3066 085e 0E       		.byte	0xe
 3067 085f 3C       		.byte	0x3c
 3068 0860 E1010000 		.4byte	0x1e1
 3069 0864 2A       		.byte	0x2a
 3070 0865 0F       		.uleb128 0xf
 3071 0866 92060000 		.4byte	.LASF133
 3072 086a 0E       		.byte	0xe
 3073 086b 3F       		.byte	0x3f
 3074 086c D6010000 		.4byte	0x1d6
 3075 0870 2C       		.byte	0x2c
 3076 0871 0F       		.uleb128 0xf
 3077 0872 1E0C0000 		.4byte	.LASF134
 3078 0876 0E       		.byte	0xe
 3079 0877 40       		.byte	0x40
 3080 0878 EC010000 		.4byte	0x1ec
 3081 087c 2E       		.byte	0x2e
 3082 087d 0F       		.uleb128 0xf
 3083 087e 540D0000 		.4byte	.LASF135
 3084 0882 0E       		.byte	0xe
 3085 0883 41       		.byte	0x41
 3086 0884 EC010000 		.4byte	0x1ec
 3087 0888 30       		.byte	0x30
 3088 0889 0F       		.uleb128 0xf
 3089 088a 610D0000 		.4byte	.LASF136
 3090 088e 0E       		.byte	0xe
 3091 088f 42       		.byte	0x42
 3092 0890 EC010000 		.4byte	0x1ec
 3093 0894 32       		.byte	0x32
 3094 0895 0F       		.uleb128 0xf
 3095 0896 96040000 		.4byte	.LASF137
 3096 089a 0E       		.byte	0xe
 3097 089b 43       		.byte	0x43
 3098 089c EC010000 		.4byte	0x1ec
 3099 08a0 34       		.byte	0x34
 3100 08a1 0F       		.uleb128 0xf
 3101 08a2 120B0000 		.4byte	.LASF138
 3102 08a6 0E       		.byte	0xe
ARM GAS  C:\Users\haske\AppData\Local\Temp\ccxlcgkV.s 			page 69


 3103 08a7 44       		.byte	0x44
 3104 08a8 E1010000 		.4byte	0x1e1
 3105 08ac 36       		.byte	0x36
 3106 08ad 00       		.byte	0
 3107 08ae 02       		.uleb128 0x2
 3108 08af 05090000 		.4byte	.LASF139
 3109 08b3 0E       		.byte	0xe
 3110 08b4 45       		.byte	0x45
 3111 08b5 67070000 		.4byte	0x767
 3112 08b9 08       		.uleb128 0x8
 3113 08ba 20       		.byte	0x20
 3114 08bb 0F       		.byte	0xf
 3115 08bc 1E       		.byte	0x1e
 3116 08bd 88090000 		.4byte	0x988
 3117 08c1 0F       		.uleb128 0xf
 3118 08c2 600A0000 		.4byte	.LASF140
 3119 08c6 0F       		.byte	0xf
 3120 08c7 1F       		.byte	0x1f
 3121 08c8 88090000 		.4byte	0x988
 3122 08cc 00       		.byte	0
 3123 08cd 0F       		.uleb128 0xf
 3124 08ce 0B0C0000 		.4byte	.LASF141
 3125 08d2 0F       		.byte	0xf
 3126 08d3 20       		.byte	0x20
 3127 08d4 E4000000 		.4byte	0xe4
 3128 08d8 04       		.byte	0x4
 3129 08d9 0F       		.uleb128 0xf
 3130 08da 5A070000 		.4byte	.LASF142
 3131 08de 0F       		.byte	0xf
 3132 08df 21       		.byte	0x21
 3133 08e0 E4000000 		.4byte	0xe4
 3134 08e4 08       		.byte	0x8
 3135 08e5 0F       		.uleb128 0xf
 3136 08e6 0E0A0000 		.4byte	.LASF75
 3137 08ea 0F       		.byte	0xf
 3138 08eb 22       		.byte	0x22
 3139 08ec D6010000 		.4byte	0x1d6
 3140 08f0 0C       		.byte	0xc
 3141 08f1 0F       		.uleb128 0xf
 3142 08f2 2F0D0000 		.4byte	.LASF143
 3143 08f6 0F       		.byte	0xf
 3144 08f7 23       		.byte	0x23
 3145 08f8 D6010000 		.4byte	0x1d6
 3146 08fc 0E       		.byte	0xe
 3147 08fd 0F       		.uleb128 0xf
 3148 08fe 34010000 		.4byte	.LASF144
 3149 0902 0F       		.byte	0xf
 3150 0903 24       		.byte	0x24
 3151 0904 D6010000 		.4byte	0x1d6
 3152 0908 10       		.byte	0x10
 3153 0909 0F       		.uleb128 0xf
 3154 090a 1A0A0000 		.4byte	.LASF145
 3155 090e 0F       		.byte	0xf
 3156 090f 25       		.byte	0x25
 3157 0910 EC010000 		.4byte	0x1ec
 3158 0914 12       		.byte	0x12
 3159 0915 0F       		.uleb128 0xf
ARM GAS  C:\Users\haske\AppData\Local\Temp\ccxlcgkV.s 			page 70


 3160 0916 650A0000 		.4byte	.LASF146
 3161 091a 0F       		.byte	0xf
 3162 091b 26       		.byte	0x26
 3163 091c EC010000 		.4byte	0x1ec
 3164 0920 14       		.byte	0x14
 3165 0921 0F       		.uleb128 0xf
 3166 0922 F5020000 		.4byte	.LASF52
 3167 0926 0F       		.byte	0xf
 3168 0927 27       		.byte	0x27
 3169 0928 EC010000 		.4byte	0x1ec
 3170 092c 16       		.byte	0x16
 3171 092d 0F       		.uleb128 0xf
 3172 092e FB020000 		.4byte	.LASF53
 3173 0932 0F       		.byte	0xf
 3174 0933 28       		.byte	0x28
 3175 0934 EC010000 		.4byte	0x1ec
 3176 0938 18       		.byte	0x18
 3177 0939 0E       		.uleb128 0xe
 3178 093a 6F706100 		.ascii	"opa\000"
 3179 093e 0F       		.byte	0xf
 3180 093f 29       		.byte	0x29
 3181 0940 E1010000 		.4byte	0x1e1
 3182 0944 1A       		.byte	0x1a
 3183 0945 0F       		.uleb128 0xf
 3184 0946 92000000 		.4byte	.LASF147
 3185 094a 0F       		.byte	0xf
 3186 094b 2A       		.byte	0x2a
 3187 094c EA030000 		.4byte	0x3ea
 3188 0950 1B       		.byte	0x1b
 3189 0951 0F       		.uleb128 0xf
 3190 0952 20070000 		.4byte	.LASF148
 3191 0956 0F       		.byte	0xf
 3192 0957 2B       		.byte	0x2b
 3193 0958 DF030000 		.4byte	0x3df
 3194 095c 1C       		.byte	0x1c
 3195 095d 0F       		.uleb128 0xf
 3196 095e 7B070000 		.4byte	.LASF149
 3197 0962 0F       		.byte	0xf
 3198 0963 2C       		.byte	0x2c
 3199 0964 D4030000 		.4byte	0x3d4
 3200 0968 1D       		.byte	0x1d
 3201 0969 09       		.uleb128 0x9
 3202 096a AF090000 		.4byte	.LASF150
 3203 096e 0F       		.byte	0xf
 3204 096f 2D       		.byte	0x2d
 3205 0970 00040000 		.4byte	0x400
 3206 0974 01       		.byte	0x1
 3207 0975 03       		.byte	0x3
 3208 0976 05       		.byte	0x5
 3209 0977 1E       		.byte	0x1e
 3210 0978 09       		.uleb128 0x9
 3211 0979 57010000 		.4byte	.LASF114
 3212 097d 0F       		.byte	0xf
 3213 097e 2E       		.byte	0x2e
 3214 097f F5030000 		.4byte	0x3f5
 3215 0983 01       		.byte	0x1
 3216 0984 03       		.byte	0x3
ARM GAS  C:\Users\haske\AppData\Local\Temp\ccxlcgkV.s 			page 71


 3217 0985 02       		.byte	0x2
 3218 0986 1E       		.byte	0x1e
 3219 0987 00       		.byte	0
 3220 0988 11       		.uleb128 0x11
 3221 0989 04       		.byte	0x4
 3222 098a 8E090000 		.4byte	0x98e
 3223 098e 12       		.uleb128 0x12
 3224 098f C9030000 		.4byte	0x3c9
 3225 0993 02       		.uleb128 0x2
 3226 0994 85010000 		.4byte	.LASF151
 3227 0998 0F       		.byte	0xf
 3228 0999 2F       		.byte	0x2f
 3229 099a B9080000 		.4byte	0x8b9
 3230 099e 08       		.uleb128 0x8
 3231 099f 18       		.byte	0x18
 3232 09a0 10       		.byte	0x10
 3233 09a1 20       		.byte	0x20
 3234 09a2 190A0000 		.4byte	0xa19
 3235 09a6 0F       		.uleb128 0xf
 3236 09a7 13060000 		.4byte	.LASF152
 3237 09ab 10       		.byte	0x10
 3238 09ac 22       		.byte	0x22
 3239 09ad C3000000 		.4byte	0xc3
 3240 09b1 00       		.byte	0
 3241 09b2 0F       		.uleb128 0xf
 3242 09b3 B8000000 		.4byte	.LASF153
 3243 09b7 10       		.byte	0x10
 3244 09b8 23       		.byte	0x23
 3245 09b9 CE000000 		.4byte	0xce
 3246 09bd 02       		.byte	0x2
 3247 09be 0F       		.uleb128 0xf
 3248 09bf 9E090000 		.4byte	.LASF154
 3249 09c3 10       		.byte	0x10
 3250 09c4 24       		.byte	0x24
 3251 09c5 14020000 		.4byte	0x214
 3252 09c9 04       		.byte	0x4
 3253 09ca 0F       		.uleb128 0xf
 3254 09cb 02060000 		.4byte	.LASF155
 3255 09cf 10       		.byte	0x10
 3256 09d0 26       		.byte	0x26
 3257 09d1 D6010000 		.4byte	0x1d6
 3258 09d5 08       		.byte	0x8
 3259 09d6 0F       		.uleb128 0xf
 3260 09d7 C2070000 		.4byte	.LASF156
 3261 09db 10       		.byte	0x10
 3262 09dc 27       		.byte	0x27
 3263 09dd E1010000 		.4byte	0x1e1
 3264 09e1 0A       		.byte	0xa
 3265 09e2 0E       		.uleb128 0xe
 3266 09e3 6F706100 		.ascii	"opa\000"
 3267 09e7 10       		.byte	0x10
 3268 09e8 29       		.byte	0x29
 3269 09e9 E1010000 		.4byte	0x1e1
 3270 09ed 0B       		.byte	0xb
 3271 09ee 09       		.uleb128 0x9
 3272 09ef 57010000 		.4byte	.LASF114
 3273 09f3 10       		.byte	0x10
ARM GAS  C:\Users\haske\AppData\Local\Temp\ccxlcgkV.s 			page 72


 3274 09f4 2A       		.byte	0x2a
 3275 09f5 F5030000 		.4byte	0x3f5
 3276 09f9 01       		.byte	0x1
 3277 09fa 04       		.byte	0x4
 3278 09fb 04       		.byte	0x4
 3279 09fc 0C       		.byte	0xc
 3280 09fd 0F       		.uleb128 0xf
 3281 09fe B9070000 		.4byte	.LASF157
 3282 0a02 10       		.byte	0x10
 3283 0a03 2C       		.byte	0x2c
 3284 0a04 D9000000 		.4byte	0xd9
 3285 0a08 10       		.byte	0x10
 3286 0a09 09       		.uleb128 0x9
 3287 0a0a 17080000 		.4byte	.LASF158
 3288 0a0e 10       		.byte	0x10
 3289 0a0f 2D       		.byte	0x2d
 3290 0a10 B8000000 		.4byte	0xb8
 3291 0a14 01       		.byte	0x1
 3292 0a15 01       		.byte	0x1
 3293 0a16 07       		.byte	0x7
 3294 0a17 14       		.byte	0x14
 3295 0a18 00       		.byte	0
 3296 0a19 02       		.uleb128 0x2
 3297 0a1a 44030000 		.4byte	.LASF159
 3298 0a1e 10       		.byte	0x10
 3299 0a1f 2E       		.byte	0x2e
 3300 0a20 9E090000 		.4byte	0x99e
 3301 0a24 08       		.uleb128 0x8
 3302 0a25 0A       		.byte	0xa
 3303 0a26 11       		.byte	0x11
 3304 0a27 1C       		.byte	0x1c
 3305 0a28 A50A0000 		.4byte	0xaa5
 3306 0a2c 0F       		.uleb128 0xf
 3307 0a2d 0E0A0000 		.4byte	.LASF75
 3308 0a31 11       		.byte	0x11
 3309 0a32 1D       		.byte	0x1d
 3310 0a33 D6010000 		.4byte	0x1d6
 3311 0a37 00       		.byte	0
 3312 0a38 0F       		.uleb128 0xf
 3313 0a39 9F060000 		.4byte	.LASF160
 3314 0a3d 11       		.byte	0x11
 3315 0a3e 1E       		.byte	0x1e
 3316 0a3f EC010000 		.4byte	0x1ec
 3317 0a43 02       		.byte	0x2
 3318 0a44 0F       		.uleb128 0xf
 3319 0a45 1B050000 		.4byte	.LASF161
 3320 0a49 11       		.byte	0x11
 3321 0a4a 1F       		.byte	0x1f
 3322 0a4b EC010000 		.4byte	0x1ec
 3323 0a4f 04       		.byte	0x4
 3324 0a50 0F       		.uleb128 0xf
 3325 0a51 92030000 		.4byte	.LASF162
 3326 0a55 11       		.byte	0x11
 3327 0a56 20       		.byte	0x20
 3328 0a57 EC010000 		.4byte	0x1ec
 3329 0a5b 06       		.byte	0x6
 3330 0a5c 0E       		.uleb128 0xe
ARM GAS  C:\Users\haske\AppData\Local\Temp\ccxlcgkV.s 			page 73


 3331 0a5d 6F706100 		.ascii	"opa\000"
 3332 0a61 11       		.byte	0x11
 3333 0a62 21       		.byte	0x21
 3334 0a63 E1010000 		.4byte	0x1e1
 3335 0a67 08       		.byte	0x8
 3336 0a68 09       		.uleb128 0x9
 3337 0a69 57010000 		.4byte	.LASF114
 3338 0a6d 11       		.byte	0x11
 3339 0a6e 22       		.byte	0x22
 3340 0a6f F5030000 		.4byte	0x3f5
 3341 0a73 01       		.byte	0x1
 3342 0a74 02       		.byte	0x2
 3343 0a75 06       		.byte	0x6
 3344 0a76 09       		.byte	0x9
 3345 0a77 09       		.uleb128 0x9
 3346 0a78 1D040000 		.4byte	.LASF163
 3347 0a7c 11       		.byte	0x11
 3348 0a7d 23       		.byte	0x23
 3349 0a7e B8000000 		.4byte	0xb8
 3350 0a82 01       		.byte	0x1
 3351 0a83 01       		.byte	0x1
 3352 0a84 05       		.byte	0x5
 3353 0a85 09       		.byte	0x9
 3354 0a86 09       		.uleb128 0x9
 3355 0a87 66040000 		.4byte	.LASF164
 3356 0a8b 11       		.byte	0x11
 3357 0a8c 24       		.byte	0x24
 3358 0a8d B8000000 		.4byte	0xb8
 3359 0a91 01       		.byte	0x1
 3360 0a92 01       		.byte	0x1
 3361 0a93 04       		.byte	0x4
 3362 0a94 09       		.byte	0x9
 3363 0a95 09       		.uleb128 0x9
 3364 0a96 34000000 		.4byte	.LASF165
 3365 0a9a 11       		.byte	0x11
 3366 0a9b 25       		.byte	0x25
 3367 0a9c B8000000 		.4byte	0xb8
 3368 0aa0 01       		.byte	0x1
 3369 0aa1 01       		.byte	0x1
 3370 0aa2 03       		.byte	0x3
 3371 0aa3 09       		.byte	0x9
 3372 0aa4 00       		.byte	0
 3373 0aa5 02       		.uleb128 0x2
 3374 0aa6 D9020000 		.4byte	.LASF166
 3375 0aaa 11       		.byte	0x11
 3376 0aab 26       		.byte	0x26
 3377 0aac 240A0000 		.4byte	0xa24
 3378 0ab0 08       		.uleb128 0x8
 3379 0ab1 10       		.byte	0x10
 3380 0ab2 12       		.byte	0x12
 3381 0ab3 1C       		.byte	0x1c
 3382 0ab4 1F0B0000 		.4byte	0xb1f
 3383 0ab8 0F       		.uleb128 0xf
 3384 0ab9 0E0A0000 		.4byte	.LASF75
 3385 0abd 12       		.byte	0x12
 3386 0abe 1D       		.byte	0x1d
 3387 0abf D6010000 		.4byte	0x1d6
ARM GAS  C:\Users\haske\AppData\Local\Temp\ccxlcgkV.s 			page 74


 3388 0ac3 00       		.byte	0
 3389 0ac4 0F       		.uleb128 0xf
 3390 0ac5 9F060000 		.4byte	.LASF160
 3391 0ac9 12       		.byte	0x12
 3392 0aca 1E       		.byte	0x1e
 3393 0acb EC010000 		.4byte	0x1ec
 3394 0acf 02       		.byte	0x2
 3395 0ad0 0F       		.uleb128 0xf
 3396 0ad1 01050000 		.4byte	.LASF96
 3397 0ad5 12       		.byte	0x12
 3398 0ad6 1F       		.byte	0x1f
 3399 0ad7 CE000000 		.4byte	0xce
 3400 0adb 04       		.byte	0x4
 3401 0adc 0F       		.uleb128 0xf
 3402 0add 6E020000 		.4byte	.LASF97
 3403 0ae1 12       		.byte	0x12
 3404 0ae2 20       		.byte	0x20
 3405 0ae3 CE000000 		.4byte	0xce
 3406 0ae7 06       		.byte	0x6
 3407 0ae8 0F       		.uleb128 0xf
 3408 0ae9 70040000 		.4byte	.LASF167
 3409 0aed 12       		.byte	0x12
 3410 0aee 21       		.byte	0x21
 3411 0aef C2030000 		.4byte	0x3c2
 3412 0af3 08       		.byte	0x8
 3413 0af4 0E       		.uleb128 0xe
 3414 0af5 6F706100 		.ascii	"opa\000"
 3415 0af9 12       		.byte	0x12
 3416 0afa 22       		.byte	0x22
 3417 0afb E1010000 		.4byte	0x1e1
 3418 0aff 0C       		.byte	0xc
 3419 0b00 09       		.uleb128 0x9
 3420 0b01 57010000 		.4byte	.LASF114
 3421 0b05 12       		.byte	0x12
 3422 0b06 23       		.byte	0x23
 3423 0b07 F5030000 		.4byte	0x3f5
 3424 0b0b 01       		.byte	0x1
 3425 0b0c 02       		.byte	0x2
 3426 0b0d 06       		.byte	0x6
 3427 0b0e 0D       		.byte	0xd
 3428 0b0f 09       		.uleb128 0x9
 3429 0b10 3D0B0000 		.4byte	.LASF168
 3430 0b14 12       		.byte	0x12
 3431 0b15 24       		.byte	0x24
 3432 0b16 B8000000 		.4byte	0xb8
 3433 0b1a 01       		.byte	0x1
 3434 0b1b 01       		.byte	0x1
 3435 0b1c 05       		.byte	0x5
 3436 0b1d 0D       		.byte	0xd
 3437 0b1e 00       		.byte	0
 3438 0b1f 02       		.uleb128 0x2
 3439 0b20 7C0A0000 		.4byte	.LASF169
 3440 0b24 12       		.byte	0x12
 3441 0b25 25       		.byte	0x25
 3442 0b26 B00A0000 		.4byte	0xab0
 3443 0b2a 06       		.uleb128 0x6
 3444 0b2b 01       		.byte	0x1
ARM GAS  C:\Users\haske\AppData\Local\Temp\ccxlcgkV.s 			page 75


 3445 0b2c 42000000 		.4byte	0x42
 3446 0b30 13       		.byte	0x13
 3447 0b31 1C       		.byte	0x1c
 3448 0b32 490B0000 		.4byte	0xb49
 3449 0b36 07       		.uleb128 0x7
 3450 0b37 E4060000 		.4byte	.LASF170
 3451 0b3b 00       		.byte	0
 3452 0b3c 07       		.uleb128 0x7
 3453 0b3d 9B000000 		.4byte	.LASF171
 3454 0b41 01       		.byte	0x1
 3455 0b42 07       		.uleb128 0x7
 3456 0b43 A1080000 		.4byte	.LASF172
 3457 0b47 02       		.byte	0x2
 3458 0b48 00       		.byte	0
 3459 0b49 02       		.uleb128 0x2
 3460 0b4a 1E030000 		.4byte	.LASF173
 3461 0b4e 13       		.byte	0x13
 3462 0b4f 20       		.byte	0x20
 3463 0b50 2A0B0000 		.4byte	0xb2a
 3464 0b54 08       		.uleb128 0x8
 3465 0b55 10       		.byte	0x10
 3466 0b56 14       		.byte	0x14
 3467 0b57 33       		.byte	0x33
 3468 0b58 8D0B0000 		.4byte	0xb8d
 3469 0b5c 0F       		.uleb128 0xf
 3470 0b5d 50070000 		.4byte	.LASF174
 3471 0b61 14       		.byte	0x14
 3472 0b62 34       		.byte	0x34
 3473 0b63 4B070000 		.4byte	0x74b
 3474 0b67 00       		.byte	0
 3475 0b68 0F       		.uleb128 0xf
 3476 0b69 F9050000 		.4byte	.LASF175
 3477 0b6d 14       		.byte	0x14
 3478 0b6e 35       		.byte	0x35
 3479 0b6f 8D0B0000 		.4byte	0xb8d
 3480 0b73 04       		.byte	0x4
 3481 0b74 0E       		.uleb128 0xe
 3482 0b75 62756600 		.ascii	"buf\000"
 3483 0b79 14       		.byte	0x14
 3484 0b7a 36       		.byte	0x36
 3485 0b7b 13010000 		.4byte	0x113
 3486 0b7f 08       		.byte	0x8
 3487 0b80 0F       		.uleb128 0xf
 3488 0b81 450B0000 		.4byte	.LASF176
 3489 0b85 14       		.byte	0x14
 3490 0b86 37       		.byte	0x37
 3491 0b87 8A030000 		.4byte	0x38a
 3492 0b8b 0C       		.byte	0xc
 3493 0b8c 00       		.byte	0
 3494 0b8d 11       		.uleb128 0x11
 3495 0b8e 04       		.byte	0x4
 3496 0b8f 54020000 		.4byte	0x254
 3497 0b93 10       		.uleb128 0x10
 3498 0b94 80070000 		.4byte	.LASF178
 3499 0b98 28       		.byte	0x28
 3500 0b99 14       		.byte	0x14
 3501 0b9a 2D       		.byte	0x2d
ARM GAS  C:\Users\haske\AppData\Local\Temp\ccxlcgkV.s 			page 76


 3502 0b9b E80B0000 		.4byte	0xbe8
 3503 0b9f 0F       		.uleb128 0xf
 3504 0ba0 71070000 		.4byte	.LASF179
 3505 0ba4 14       		.byte	0x14
 3506 0ba5 2E       		.byte	0x2e
 3507 0ba6 54020000 		.4byte	0x254
 3508 0baa 00       		.byte	0
 3509 0bab 0F       		.uleb128 0xf
 3510 0bac EC020000 		.4byte	.LASF180
 3511 0bb0 14       		.byte	0x14
 3512 0bb1 2F       		.byte	0x2f
 3513 0bb2 54020000 		.4byte	0x254
 3514 0bb6 08       		.byte	0x8
 3515 0bb7 0F       		.uleb128 0xf
 3516 0bb8 A6070000 		.4byte	.LASF181
 3517 0bbc 14       		.byte	0x14
 3518 0bbd 30       		.byte	0x30
 3519 0bbe EC010000 		.4byte	0x1ec
 3520 0bc2 10       		.byte	0x10
 3521 0bc3 0F       		.uleb128 0xf
 3522 0bc4 D8080000 		.4byte	.LASF182
 3523 0bc8 14       		.byte	0x14
 3524 0bc9 31       		.byte	0x31
 3525 0bca EC010000 		.4byte	0x1ec
 3526 0bce 12       		.byte	0x12
 3527 0bcf 0E       		.uleb128 0xe
 3528 0bd0 62756600 		.ascii	"buf\000"
 3529 0bd4 14       		.byte	0x14
 3530 0bd5 32       		.byte	0x32
 3531 0bd6 13010000 		.4byte	0x113
 3532 0bda 14       		.byte	0x14
 3533 0bdb 0F       		.uleb128 0xf
 3534 0bdc 15030000 		.4byte	.LASF183
 3535 0be0 14       		.byte	0x14
 3536 0be1 38       		.byte	0x38
 3537 0be2 540B0000 		.4byte	0xb54
 3538 0be6 18       		.byte	0x18
 3539 0be7 00       		.byte	0
 3540 0be8 02       		.uleb128 0x2
 3541 0be9 F0090000 		.4byte	.LASF184
 3542 0bed 14       		.byte	0x14
 3543 0bee 39       		.byte	0x39
 3544 0bef 930B0000 		.4byte	0xb93
 3545 0bf3 10       		.uleb128 0x10
 3546 0bf4 15010000 		.4byte	.LASF185
 3547 0bf8 54       		.byte	0x54
 3548 0bf9 14       		.byte	0x14
 3549 0bfa 3B       		.byte	0x3b
 3550 0bfb FC0C0000 		.4byte	0xcfc
 3551 0bff 0E       		.uleb128 0xe
 3552 0c00 62756600 		.ascii	"buf\000"
 3553 0c04 14       		.byte	0x14
 3554 0c05 3F       		.byte	0x3f
 3555 0c06 13010000 		.4byte	0x113
 3556 0c0a 00       		.byte	0
 3557 0c0b 0F       		.uleb128 0xf
 3558 0c0c F9050000 		.4byte	.LASF175
ARM GAS  C:\Users\haske\AppData\Local\Temp\ccxlcgkV.s 			page 77


 3559 0c10 14       		.byte	0x14
 3560 0c11 44       		.byte	0x44
 3561 0c12 8D0B0000 		.4byte	0xb8d
 3562 0c16 04       		.byte	0x4
 3563 0c17 0F       		.uleb128 0xf
 3564 0c18 50070000 		.4byte	.LASF174
 3565 0c1c 14       		.byte	0x14
 3566 0c1d 49       		.byte	0x49
 3567 0c1e 4B070000 		.4byte	0x74b
 3568 0c22 08       		.byte	0x8
 3569 0c23 0F       		.uleb128 0xf
 3570 0c24 FF000000 		.4byte	.LASF186
 3571 0c28 14       		.byte	0x14
 3572 0c29 4B       		.byte	0x4b
 3573 0c2a 0D0D0000 		.4byte	0xd0d
 3574 0c2e 0C       		.byte	0xc
 3575 0c2f 0F       		.uleb128 0xf
 3576 0c30 D0000000 		.4byte	.LASF187
 3577 0c34 14       		.byte	0x14
 3578 0c35 4D       		.byte	0x4d
 3579 0c36 330D0000 		.4byte	0xd33
 3580 0c3a 10       		.byte	0x10
 3581 0c3b 0F       		.uleb128 0xf
 3582 0c3c 34050000 		.4byte	.LASF188
 3583 0c40 14       		.byte	0x14
 3584 0c41 4F       		.byte	0x4f
 3585 0c42 730D0000 		.4byte	0xd73
 3586 0c46 14       		.byte	0x14
 3587 0c47 0F       		.uleb128 0xf
 3588 0c48 19060000 		.4byte	.LASF189
 3589 0c4c 14       		.byte	0x14
 3590 0c4d 52       		.byte	0x52
 3591 0c4e A30D0000 		.4byte	0xda3
 3592 0c52 18       		.byte	0x18
 3593 0c53 0F       		.uleb128 0xf
 3594 0c54 C40B0000 		.4byte	.LASF190
 3595 0c58 14       		.byte	0x14
 3596 0c59 55       		.byte	0x55
 3597 0c5a C70D0000 		.4byte	0xdc7
 3598 0c5e 1C       		.byte	0x1c
 3599 0c5f 0F       		.uleb128 0xf
 3600 0c60 4E090000 		.4byte	.LASF191
 3601 0c64 14       		.byte	0x14
 3602 0c65 58       		.byte	0x58
 3603 0c66 F20D0000 		.4byte	0xdf2
 3604 0c6a 20       		.byte	0x20
 3605 0c6b 0F       		.uleb128 0xf
 3606 0c6c 3B020000 		.4byte	.LASF192
 3607 0c70 14       		.byte	0x14
 3608 0c71 5C       		.byte	0x5c
 3609 0c72 1D0E0000 		.4byte	0xe1d
 3610 0c76 24       		.byte	0x24
 3611 0c77 0F       		.uleb128 0xf
 3612 0c78 EA0B0000 		.4byte	.LASF193
 3613 0c7c 14       		.byte	0x14
 3614 0c7d 60       		.byte	0x60
 3615 0c7e 3D0E0000 		.4byte	0xe3d
ARM GAS  C:\Users\haske\AppData\Local\Temp\ccxlcgkV.s 			page 78


 3616 0c82 28       		.byte	0x28
 3617 0c83 0F       		.uleb128 0xf
 3618 0c84 9B030000 		.4byte	.LASF194
 3619 0c88 14       		.byte	0x14
 3620 0c89 71       		.byte	0x71
 3621 0c8a 7B0E0000 		.4byte	0xe7b
 3622 0c8e 2C       		.byte	0x2c
 3623 0c8f 0F       		.uleb128 0xf
 3624 0c90 23000000 		.4byte	.LASF195
 3625 0c94 14       		.byte	0x14
 3626 0c95 78       		.byte	0x78
 3627 0c96 330D0000 		.4byte	0xd33
 3628 0c9a 30       		.byte	0x30
 3629 0c9b 0F       		.uleb128 0xf
 3630 0c9c C3060000 		.4byte	.LASF196
 3631 0ca0 14       		.byte	0x14
 3632 0ca1 7D       		.byte	0x7d
 3633 0ca2 0D0D0000 		.4byte	0xd0d
 3634 0ca6 34       		.byte	0x34
 3635 0ca7 0F       		.uleb128 0xf
 3636 0ca8 FF010000 		.4byte	.LASF197
 3637 0cac 14       		.byte	0x14
 3638 0cad 8D       		.byte	0x8d
 3639 0cae AA0E0000 		.4byte	0xeaa
 3640 0cb2 38       		.byte	0x38
 3641 0cb3 0F       		.uleb128 0xf
 3642 0cb4 4F040000 		.4byte	.LASF198
 3643 0cb8 14       		.byte	0x14
 3644 0cb9 99       		.byte	0x99
 3645 0cba CF0E0000 		.4byte	0xecf
 3646 0cbe 3C       		.byte	0x3c
 3647 0cbf 0F       		.uleb128 0xf
 3648 0cc0 D9090000 		.4byte	.LASF199
 3649 0cc4 14       		.byte	0x14
 3650 0cc5 A3       		.byte	0xa3
 3651 0cc6 EA0E0000 		.4byte	0xeea
 3652 0cca 40       		.byte	0x40
 3653 0ccb 0F       		.uleb128 0xf
 3654 0ccc 250A0000 		.4byte	.LASF200
 3655 0cd0 14       		.byte	0x14
 3656 0cd1 AC       		.byte	0xac
 3657 0cd2 050F0000 		.4byte	0xf05
 3658 0cd6 44       		.byte	0x44
 3659 0cd7 0F       		.uleb128 0xf
 3660 0cd8 0D050000 		.4byte	.LASF201
 3661 0cdc 14       		.byte	0x14
 3662 0cdd B5       		.byte	0xb5
 3663 0cde 210F0000 		.4byte	0xf21
 3664 0ce2 48       		.byte	0x48
 3665 0ce3 0F       		.uleb128 0xf
 3666 0ce4 76030000 		.4byte	.LASF202
 3667 0ce8 14       		.byte	0x14
 3668 0ce9 BA       		.byte	0xba
 3669 0cea FA000000 		.4byte	0xfa
 3670 0cee 4C       		.byte	0x4c
 3671 0cef 0F       		.uleb128 0xf
 3672 0cf0 C40C0000 		.4byte	.LASF63
ARM GAS  C:\Users\haske\AppData\Local\Temp\ccxlcgkV.s 			page 79


 3673 0cf4 14       		.byte	0x14
 3674 0cf5 BD       		.byte	0xbd
 3675 0cf6 13010000 		.4byte	0x113
 3676 0cfa 50       		.byte	0x50
 3677 0cfb 00       		.byte	0
 3678 0cfc 18       		.uleb128 0x18
 3679 0cfd 070D0000 		.4byte	0xd07
 3680 0d01 14       		.uleb128 0x14
 3681 0d02 070D0000 		.4byte	0xd07
 3682 0d06 00       		.byte	0
 3683 0d07 11       		.uleb128 0x11
 3684 0d08 04       		.byte	0x4
 3685 0d09 F30B0000 		.4byte	0xbf3
 3686 0d0d 11       		.uleb128 0x11
 3687 0d0e 04       		.byte	0x4
 3688 0d0f FC0C0000 		.4byte	0xcfc
 3689 0d13 18       		.uleb128 0x18
 3690 0d14 280D0000 		.4byte	0xd28
 3691 0d18 14       		.uleb128 0x14
 3692 0d19 070D0000 		.4byte	0xd07
 3693 0d1d 14       		.uleb128 0x14
 3694 0d1e 280D0000 		.4byte	0xd28
 3695 0d22 14       		.uleb128 0x14
 3696 0d23 4B070000 		.4byte	0x74b
 3697 0d27 00       		.byte	0
 3698 0d28 11       		.uleb128 0x11
 3699 0d29 04       		.byte	0x4
 3700 0d2a 2E0D0000 		.4byte	0xd2e
 3701 0d2e 12       		.uleb128 0x12
 3702 0d2f AE080000 		.4byte	0x8ae
 3703 0d33 11       		.uleb128 0x11
 3704 0d34 04       		.byte	0x4
 3705 0d35 130D0000 		.4byte	0xd13
 3706 0d39 18       		.uleb128 0x18
 3707 0d3a 5D0D0000 		.4byte	0xd5d
 3708 0d3e 14       		.uleb128 0x14
 3709 0d3f 070D0000 		.4byte	0xd07
 3710 0d43 14       		.uleb128 0x14
 3711 0d44 5D0D0000 		.4byte	0xd5d
 3712 0d48 14       		.uleb128 0x14
 3713 0d49 680D0000 		.4byte	0xd68
 3714 0d4d 14       		.uleb128 0x14
 3715 0d4e CE000000 		.4byte	0xce
 3716 0d52 14       		.uleb128 0x14
 3717 0d53 CE000000 		.4byte	0xce
 3718 0d57 14       		.uleb128 0x14
 3719 0d58 CE000000 		.4byte	0xce
 3720 0d5c 00       		.byte	0
 3721 0d5d 11       		.uleb128 0x11
 3722 0d5e 04       		.byte	0x4
 3723 0d5f 630D0000 		.4byte	0xd63
 3724 0d63 12       		.uleb128 0x12
 3725 0d64 1F0B0000 		.4byte	0xb1f
 3726 0d68 11       		.uleb128 0x11
 3727 0d69 04       		.byte	0x4
 3728 0d6a 6E0D0000 		.4byte	0xd6e
 3729 0d6e 12       		.uleb128 0x12
ARM GAS  C:\Users\haske\AppData\Local\Temp\ccxlcgkV.s 			page 80


 3730 0d6f 14020000 		.4byte	0x214
 3731 0d73 11       		.uleb128 0x11
 3732 0d74 04       		.byte	0x4
 3733 0d75 390D0000 		.4byte	0xd39
 3734 0d79 18       		.uleb128 0x18
 3735 0d7a 980D0000 		.4byte	0xd98
 3736 0d7e 14       		.uleb128 0x14
 3737 0d7f 070D0000 		.4byte	0xd07
 3738 0d83 14       		.uleb128 0x14
 3739 0d84 980D0000 		.4byte	0xd98
 3740 0d88 14       		.uleb128 0x14
 3741 0d89 4B070000 		.4byte	0x74b
 3742 0d8d 14       		.uleb128 0x14
 3743 0d8e B1030000 		.4byte	0x3b1
 3744 0d92 14       		.uleb128 0x14
 3745 0d93 56070000 		.4byte	0x756
 3746 0d97 00       		.byte	0
 3747 0d98 11       		.uleb128 0x11
 3748 0d99 04       		.byte	0x4
 3749 0d9a 9E0D0000 		.4byte	0xd9e
 3750 0d9e 12       		.uleb128 0x12
 3751 0d9f 190A0000 		.4byte	0xa19
 3752 0da3 11       		.uleb128 0x11
 3753 0da4 04       		.byte	0x4
 3754 0da5 790D0000 		.4byte	0xd79
 3755 0da9 13       		.uleb128 0x13
 3756 0daa EF000000 		.4byte	0xef
 3757 0dae C70D0000 		.4byte	0xdc7
 3758 0db2 14       		.uleb128 0x14
 3759 0db3 070D0000 		.4byte	0xd07
 3760 0db7 14       		.uleb128 0x14
 3761 0db8 980D0000 		.4byte	0xd98
 3762 0dbc 14       		.uleb128 0x14
 3763 0dbd 4B070000 		.4byte	0x74b
 3764 0dc1 14       		.uleb128 0x14
 3765 0dc2 C2030000 		.4byte	0x3c2
 3766 0dc6 00       		.byte	0
 3767 0dc7 11       		.uleb128 0x11
 3768 0dc8 04       		.byte	0x4
 3769 0dc9 A90D0000 		.4byte	0xda9
 3770 0dcd 18       		.uleb128 0x18
 3771 0dce E70D0000 		.4byte	0xde7
 3772 0dd2 14       		.uleb128 0x14
 3773 0dd3 070D0000 		.4byte	0xd07
 3774 0dd7 14       		.uleb128 0x14
 3775 0dd8 E70D0000 		.4byte	0xde7
 3776 0ddc 14       		.uleb128 0x14
 3777 0ddd 680D0000 		.4byte	0xd68
 3778 0de1 14       		.uleb128 0x14
 3779 0de2 E4000000 		.4byte	0xe4
 3780 0de6 00       		.byte	0
 3781 0de7 11       		.uleb128 0x11
 3782 0de8 04       		.byte	0x4
 3783 0de9 ED0D0000 		.4byte	0xded
 3784 0ded 12       		.uleb128 0x12
 3785 0dee 93090000 		.4byte	0x993
 3786 0df2 11       		.uleb128 0x11
ARM GAS  C:\Users\haske\AppData\Local\Temp\ccxlcgkV.s 			page 81


 3787 0df3 04       		.byte	0x4
 3788 0df4 CD0D0000 		.4byte	0xdcd
 3789 0df8 18       		.uleb128 0x18
 3790 0df9 120E0000 		.4byte	0xe12
 3791 0dfd 14       		.uleb128 0x14
 3792 0dfe 070D0000 		.4byte	0xd07
 3793 0e02 14       		.uleb128 0x14
 3794 0e03 120E0000 		.4byte	0xe12
 3795 0e07 14       		.uleb128 0x14
 3796 0e08 680D0000 		.4byte	0xd68
 3797 0e0c 14       		.uleb128 0x14
 3798 0e0d 680D0000 		.4byte	0xd68
 3799 0e11 00       		.byte	0
 3800 0e12 11       		.uleb128 0x11
 3801 0e13 04       		.byte	0x4
 3802 0e14 180E0000 		.4byte	0xe18
 3803 0e18 12       		.uleb128 0x12
 3804 0e19 A50A0000 		.4byte	0xaa5
 3805 0e1d 11       		.uleb128 0x11
 3806 0e1e 04       		.byte	0x4
 3807 0e1f F80D0000 		.4byte	0xdf8
 3808 0e23 18       		.uleb128 0x18
 3809 0e24 3D0E0000 		.4byte	0xe3d
 3810 0e28 14       		.uleb128 0x14
 3811 0e29 070D0000 		.4byte	0xd07
 3812 0e2d 14       		.uleb128 0x14
 3813 0e2e 280D0000 		.4byte	0xd28
 3814 0e32 14       		.uleb128 0x14
 3815 0e33 680D0000 		.4byte	0xd68
 3816 0e37 14       		.uleb128 0x14
 3817 0e38 CE000000 		.4byte	0xce
 3818 0e3c 00       		.byte	0
 3819 0e3d 11       		.uleb128 0x11
 3820 0e3e 04       		.byte	0x4
 3821 0e3f 230E0000 		.4byte	0xe23
 3822 0e43 18       		.uleb128 0x18
 3823 0e44 7B0E0000 		.4byte	0xe7b
 3824 0e48 14       		.uleb128 0x14
 3825 0e49 070D0000 		.4byte	0xd07
 3826 0e4d 14       		.uleb128 0x14
 3827 0e4e 4B070000 		.4byte	0x74b
 3828 0e52 14       		.uleb128 0x14
 3829 0e53 C2030000 		.4byte	0x3c2
 3830 0e57 14       		.uleb128 0x14
 3831 0e58 EC010000 		.4byte	0x1ec
 3832 0e5c 14       		.uleb128 0x14
 3833 0e5d EC010000 		.4byte	0x1ec
 3834 0e61 14       		.uleb128 0x14
 3835 0e62 EC010000 		.4byte	0x1ec
 3836 0e66 14       		.uleb128 0x14
 3837 0e67 980D0000 		.4byte	0xd98
 3838 0e6b 14       		.uleb128 0x14
 3839 0e6c 56070000 		.4byte	0x756
 3840 0e70 14       		.uleb128 0x14
 3841 0e71 61070000 		.4byte	0x761
 3842 0e75 14       		.uleb128 0x14
 3843 0e76 02050000 		.4byte	0x502
ARM GAS  C:\Users\haske\AppData\Local\Temp\ccxlcgkV.s 			page 82


 3844 0e7a 00       		.byte	0
 3845 0e7b 11       		.uleb128 0x11
 3846 0e7c 04       		.byte	0x4
 3847 0e7d 430E0000 		.4byte	0xe43
 3848 0e81 18       		.uleb128 0x18
 3849 0e82 AA0E0000 		.4byte	0xeaa
 3850 0e86 14       		.uleb128 0x14
 3851 0e87 070D0000 		.4byte	0xd07
 3852 0e8b 14       		.uleb128 0x14
 3853 0e8c 13010000 		.4byte	0x113
 3854 0e90 14       		.uleb128 0x14
 3855 0e91 EC010000 		.4byte	0x1ec
 3856 0e95 14       		.uleb128 0x14
 3857 0e96 4B070000 		.4byte	0x74b
 3858 0e9a 14       		.uleb128 0x14
 3859 0e9b 13010000 		.4byte	0x113
 3860 0e9f 14       		.uleb128 0x14
 3861 0ea0 EC010000 		.4byte	0x1ec
 3862 0ea4 14       		.uleb128 0x14
 3863 0ea5 4B070000 		.4byte	0x74b
 3864 0ea9 00       		.byte	0
 3865 0eaa 11       		.uleb128 0x11
 3866 0eab 04       		.byte	0x4
 3867 0eac 810E0000 		.4byte	0xe81
 3868 0eb0 13       		.uleb128 0x13
 3869 0eb1 C90E0000 		.4byte	0xec9
 3870 0eb5 C90E0000 		.4byte	0xec9
 3871 0eb9 14       		.uleb128 0x14
 3872 0eba 070D0000 		.4byte	0xd07
 3873 0ebe 14       		.uleb128 0x14
 3874 0ebf C90E0000 		.4byte	0xec9
 3875 0ec3 14       		.uleb128 0x14
 3876 0ec4 490B0000 		.4byte	0xb49
 3877 0ec8 00       		.byte	0
 3878 0ec9 11       		.uleb128 0x11
 3879 0eca 04       		.byte	0x4
 3880 0ecb 930B0000 		.4byte	0xb93
 3881 0ecf 11       		.uleb128 0x11
 3882 0ed0 04       		.byte	0x4
 3883 0ed1 B00E0000 		.4byte	0xeb0
 3884 0ed5 18       		.uleb128 0x18
 3885 0ed6 EA0E0000 		.4byte	0xeea
 3886 0eda 14       		.uleb128 0x14
 3887 0edb 070D0000 		.4byte	0xd07
 3888 0edf 14       		.uleb128 0x14
 3889 0ee0 C90E0000 		.4byte	0xec9
 3890 0ee4 14       		.uleb128 0x14
 3891 0ee5 490B0000 		.4byte	0xb49
 3892 0ee9 00       		.byte	0
 3893 0eea 11       		.uleb128 0x11
 3894 0eeb 04       		.byte	0x4
 3895 0eec D50E0000 		.4byte	0xed5
 3896 0ef0 18       		.uleb128 0x18
 3897 0ef1 050F0000 		.4byte	0xf05
 3898 0ef5 14       		.uleb128 0x14
 3899 0ef6 070D0000 		.4byte	0xd07
 3900 0efa 14       		.uleb128 0x14
ARM GAS  C:\Users\haske\AppData\Local\Temp\ccxlcgkV.s 			page 83


 3901 0efb C90E0000 		.4byte	0xec9
 3902 0eff 14       		.uleb128 0x14
 3903 0f00 980D0000 		.4byte	0xd98
 3904 0f04 00       		.byte	0
 3905 0f05 11       		.uleb128 0x11
 3906 0f06 04       		.byte	0x4
 3907 0f07 F00E0000 		.4byte	0xef0
 3908 0f0b 18       		.uleb128 0x18
 3909 0f0c 1B0F0000 		.4byte	0xf1b
 3910 0f10 14       		.uleb128 0x14
 3911 0f11 070D0000 		.4byte	0xd07
 3912 0f15 14       		.uleb128 0x14
 3913 0f16 1B0F0000 		.4byte	0xf1b
 3914 0f1a 00       		.byte	0
 3915 0f1b 11       		.uleb128 0x11
 3916 0f1c 04       		.byte	0x4
 3917 0f1d E80B0000 		.4byte	0xbe8
 3918 0f21 11       		.uleb128 0x11
 3919 0f22 04       		.byte	0x4
 3920 0f23 0B0F0000 		.4byte	0xf0b
 3921 0f27 02       		.uleb128 0x2
 3922 0f28 CD030000 		.4byte	.LASF203
 3923 0f2c 14       		.byte	0x14
 3924 0f2d C0       		.byte	0xc0
 3925 0f2e F30B0000 		.4byte	0xbf3
 3926 0f32 11       		.uleb128 0x11
 3927 0f33 04       		.byte	0x4
 3928 0f34 270F0000 		.4byte	0xf27
 3929 0f38 08       		.uleb128 0x8
 3930 0f39 1C       		.byte	0x1c
 3931 0f3a 01       		.byte	0x1
 3932 0f3b 18       		.byte	0x18
 3933 0f3c B90F0000 		.4byte	0xfb9
 3934 0f40 0F       		.uleb128 0xf
 3935 0f41 16040000 		.4byte	.LASF204
 3936 0f45 01       		.byte	0x1
 3937 0f46 19       		.byte	0x19
 3938 0f47 680D0000 		.4byte	0xd68
 3939 0f4b 00       		.byte	0
 3940 0f4c 0F       		.uleb128 0xf
 3941 0f4d 66000000 		.4byte	.LASF107
 3942 0f51 01       		.byte	0x1
 3943 0f52 1A       		.byte	0x1a
 3944 0f53 EC010000 		.4byte	0x1ec
 3945 0f57 04       		.byte	0x4
 3946 0f58 0F       		.uleb128 0xf
 3947 0f59 01050000 		.4byte	.LASF96
 3948 0f5d 01       		.byte	0x1
 3949 0f5e 1B       		.byte	0x1b
 3950 0f5f CE000000 		.4byte	0xce
 3951 0f63 06       		.byte	0x6
 3952 0f64 0F       		.uleb128 0xf
 3953 0f65 6E020000 		.4byte	.LASF97
 3954 0f69 01       		.byte	0x1
 3955 0f6a 1C       		.byte	0x1c
 3956 0f6b CE000000 		.4byte	0xce
 3957 0f6f 08       		.byte	0x8
ARM GAS  C:\Users\haske\AppData\Local\Temp\ccxlcgkV.s 			page 84


 3958 0f70 0F       		.uleb128 0xf
 3959 0f71 25020000 		.4byte	.LASF205
 3960 0f75 01       		.byte	0x1
 3961 0f76 1D       		.byte	0x1d
 3962 0f77 CE000000 		.4byte	0xce
 3963 0f7b 0A       		.byte	0xa
 3964 0f7c 0F       		.uleb128 0xf
 3965 0f7d 86060000 		.4byte	.LASF206
 3966 0f81 01       		.byte	0x1
 3967 0f82 1E       		.byte	0x1e
 3968 0f83 CE000000 		.4byte	0xce
 3969 0f87 0C       		.byte	0xc
 3970 0f88 0F       		.uleb128 0xf
 3971 0f89 9F060000 		.4byte	.LASF160
 3972 0f8d 01       		.byte	0x1
 3973 0f8e 1F       		.byte	0x1f
 3974 0f8f EC010000 		.4byte	0x1ec
 3975 0f93 0E       		.byte	0xe
 3976 0f94 0F       		.uleb128 0xf
 3977 0f95 DA000000 		.4byte	.LASF207
 3978 0f99 01       		.byte	0x1
 3979 0f9a 20       		.byte	0x20
 3980 0f9b B90F0000 		.4byte	0xfb9
 3981 0f9f 10       		.byte	0x10
 3982 0fa0 0F       		.uleb128 0xf
 3983 0fa1 99010000 		.4byte	.LASF208
 3984 0fa5 01       		.byte	0x1
 3985 0fa6 21       		.byte	0x21
 3986 0fa7 4B070000 		.4byte	0x74b
 3987 0fab 14       		.byte	0x14
 3988 0fac 0F       		.uleb128 0xf
 3989 0fad BB0B0000 		.4byte	.LASF209
 3990 0fb1 01       		.byte	0x1
 3991 0fb2 22       		.byte	0x22
 3992 0fb3 320F0000 		.4byte	0xf32
 3993 0fb7 18       		.byte	0x18
 3994 0fb8 00       		.byte	0
 3995 0fb9 11       		.uleb128 0x11
 3996 0fba 04       		.byte	0x4
 3997 0fbb AE080000 		.4byte	0x8ae
 3998 0fbf 02       		.uleb128 0x2
 3999 0fc0 2A060000 		.4byte	.LASF210
 4000 0fc4 01       		.byte	0x1
 4001 0fc5 23       		.byte	0x23
 4002 0fc6 380F0000 		.4byte	0xf38
 4003 0fca 19       		.uleb128 0x19
 4004 0fcb 5D0B0000 		.4byte	.LASF213
 4005 0fcf 02       		.byte	0x2
 4006 0fd0 7B       		.byte	0x7b
 4007 0fd1 EC010000 		.4byte	0x1ec
 4008 0fd5 03       		.byte	0x3
 4009 0fd6 E60F0000 		.4byte	0xfe6
 4010 0fda 1A       		.uleb128 0x1a
 4011 0fdb F8010000 		.4byte	.LASF211
 4012 0fdf 02       		.byte	0x2
 4013 0fe0 7B       		.byte	0x7b
 4014 0fe1 4B070000 		.4byte	0x74b
ARM GAS  C:\Users\haske\AppData\Local\Temp\ccxlcgkV.s 			page 85


 4015 0fe5 00       		.byte	0
 4016 0fe6 1B       		.uleb128 0x1b
 4017 0fe7 56030000 		.4byte	.LASF256
 4018 0feb 02       		.byte	0x2
 4019 0fec 6E       		.byte	0x6e
 4020 0fed 03       		.byte	0x3
 4021 0fee 09100000 		.4byte	0x1009
 4022 0ff2 1A       		.uleb128 0x1a
 4023 0ff3 E6090000 		.4byte	.LASF212
 4024 0ff7 02       		.byte	0x2
 4025 0ff8 6E       		.byte	0x6e
 4026 0ff9 8D0B0000 		.4byte	0xb8d
 4027 0ffd 1C       		.uleb128 0x1c
 4028 0ffe 73726300 		.ascii	"src\000"
 4029 1002 02       		.byte	0x2
 4030 1003 6E       		.byte	0x6e
 4031 1004 4B070000 		.4byte	0x74b
 4032 1008 00       		.byte	0
 4033 1009 19       		.uleb128 0x19
 4034 100a 65090000 		.4byte	.LASF214
 4035 100e 02       		.byte	0x2
 4036 100f 85       		.byte	0x85
 4037 1010 EC010000 		.4byte	0x1ec
 4038 1014 03       		.byte	0x3
 4039 1015 25100000 		.4byte	0x1025
 4040 1019 1A       		.uleb128 0x1a
 4041 101a F8010000 		.4byte	.LASF211
 4042 101e 02       		.byte	0x2
 4043 101f 85       		.byte	0x85
 4044 1020 4B070000 		.4byte	0x74b
 4045 1024 00       		.byte	0
 4046 1025 1D       		.uleb128 0x1d
 4047 1026 3B0C0000 		.4byte	.LASF217
 4048 102a 01       		.byte	0x1
 4049 102b E6       		.byte	0xe6
 4050 102c 00000000 		.4byte	.LFB57
 4051 1030 3C020000 		.4byte	.LFE57-.LFB57
 4052 1034 01       		.uleb128 0x1
 4053 1035 9C       		.byte	0x9c
 4054 1036 BE110000 		.4byte	0x11be
 4055 103a 1E       		.uleb128 0x1e
 4056 103b 7100     		.ascii	"q\000"
 4057 103d 01       		.byte	0x1
 4058 103e E6       		.byte	0xe6
 4059 103f BE110000 		.4byte	0x11be
 4060 1043 00000000 		.4byte	.LLST0
 4061 1047 1F       		.uleb128 0x1f
 4062 1048 31080000 		.4byte	.LASF215
 4063 104c 01       		.byte	0x1
 4064 104d E8       		.byte	0xe8
 4065 104e 4B070000 		.4byte	0x74b
 4066 1052 01       		.uleb128 0x1
 4067 1053 55       		.byte	0x55
 4068 1054 1F       		.uleb128 0x1f
 4069 1055 59000000 		.4byte	.LASF216
 4070 1059 01       		.byte	0x1
 4071 105a E9       		.byte	0xe9
ARM GAS  C:\Users\haske\AppData\Local\Temp\ccxlcgkV.s 			page 86


 4072 105b 54020000 		.4byte	0x254
 4073 105f 02       		.uleb128 0x2
 4074 1060 91       		.byte	0x91
 4075 1061 68       		.sleb128 -24
 4076 1062 20       		.uleb128 0x20
 4077 1063 1E000000 		.4byte	.LBB12
 4078 1067 A8000000 		.4byte	.LBE12-.LBB12
 4079 106b CB100000 		.4byte	0x10cb
 4080 106f 21       		.uleb128 0x21
 4081 1070 6F6B00   		.ascii	"ok\000"
 4082 1073 01       		.byte	0x1
 4083 1074 F3       		.byte	0xf3
 4084 1075 8A030000 		.4byte	0x38a
 4085 1079 1E000000 		.4byte	.LLST1
 4086 107d 22       		.uleb128 0x22
 4087 107e 2A000000 		.4byte	.LVL3
 4088 1082 691D0000 		.4byte	0x1d69
 4089 1086 22       		.uleb128 0x22
 4090 1087 50000000 		.4byte	.LVL4
 4091 108b 691D0000 		.4byte	0x1d69
 4092 108f 22       		.uleb128 0x22
 4093 1090 6E000000 		.4byte	.LVL5
 4094 1094 691D0000 		.4byte	0x1d69
 4095 1098 22       		.uleb128 0x22
 4096 1099 8E000000 		.4byte	.LVL6
 4097 109d 691D0000 		.4byte	0x1d69
 4098 10a1 23       		.uleb128 0x23
 4099 10a2 AE000000 		.4byte	.LVL7
 4100 10a6 741D0000 		.4byte	0x1d74
 4101 10aa C1100000 		.4byte	0x10c1
 4102 10ae 24       		.uleb128 0x24
 4103 10af 01       		.uleb128 0x1
 4104 10b0 50       		.byte	0x50
 4105 10b1 02       		.uleb128 0x2
 4106 10b2 91       		.byte	0x91
 4107 10b3 68       		.sleb128 -24
 4108 10b4 24       		.uleb128 0x24
 4109 10b5 01       		.uleb128 0x1
 4110 10b6 51       		.byte	0x51
 4111 10b7 02       		.uleb128 0x2
 4112 10b8 91       		.byte	0x91
 4113 10b9 68       		.sleb128 -24
 4114 10ba 24       		.uleb128 0x24
 4115 10bb 01       		.uleb128 0x1
 4116 10bc 52       		.byte	0x52
 4117 10bd 02       		.uleb128 0x2
 4118 10be 75       		.byte	0x75
 4119 10bf 00       		.sleb128 0
 4120 10c0 00       		.byte	0
 4121 10c1 22       		.uleb128 0x22
 4122 10c2 C4000000 		.4byte	.LVL9
 4123 10c6 7F1D0000 		.4byte	0x1d7f
 4124 10ca 00       		.byte	0
 4125 10cb 20       		.uleb128 0x20
 4126 10cc D2000000 		.4byte	.LBB13
 4127 10d0 76000000 		.4byte	.LBE13-.LBB13
 4128 10d4 23110000 		.4byte	0x1123
ARM GAS  C:\Users\haske\AppData\Local\Temp\ccxlcgkV.s 			page 87


 4129 10d8 25       		.uleb128 0x25
 4130 10d9 6F6B00   		.ascii	"ok\000"
 4131 10dc 01       		.byte	0x1
 4132 10dd 0201     		.2byte	0x102
 4133 10df 8A030000 		.4byte	0x38a
 4134 10e3 31000000 		.4byte	.LLST2
 4135 10e7 22       		.uleb128 0x22
 4136 10e8 F6000000 		.4byte	.LVL10
 4137 10ec 691D0000 		.4byte	0x1d69
 4138 10f0 22       		.uleb128 0x22
 4139 10f1 1C010000 		.4byte	.LVL11
 4140 10f5 691D0000 		.4byte	0x1d69
 4141 10f9 23       		.uleb128 0x23
 4142 10fa 36010000 		.4byte	.LVL12
 4143 10fe 741D0000 		.4byte	0x1d74
 4144 1102 19110000 		.4byte	0x1119
 4145 1106 24       		.uleb128 0x24
 4146 1107 01       		.uleb128 0x1
 4147 1108 50       		.byte	0x50
 4148 1109 02       		.uleb128 0x2
 4149 110a 7D       		.byte	0x7d
 4150 110b 00       		.sleb128 0
 4151 110c 24       		.uleb128 0x24
 4152 110d 01       		.uleb128 0x1
 4153 110e 51       		.byte	0x51
 4154 110f 02       		.uleb128 0x2
 4155 1110 7D       		.byte	0x7d
 4156 1111 00       		.sleb128 0
 4157 1112 24       		.uleb128 0x24
 4158 1113 01       		.uleb128 0x1
 4159 1114 52       		.byte	0x52
 4160 1115 02       		.uleb128 0x2
 4161 1116 75       		.byte	0x75
 4162 1117 00       		.sleb128 0
 4163 1118 00       		.byte	0
 4164 1119 22       		.uleb128 0x22
 4165 111a 48010000 		.4byte	.LVL14
 4166 111e 7F1D0000 		.4byte	0x1d7f
 4167 1122 00       		.byte	0
 4168 1123 20       		.uleb128 0x20
 4169 1124 4E010000 		.4byte	.LBB14
 4170 1128 7A000000 		.4byte	.LBE14-.LBB14
 4171 112c 7B110000 		.4byte	0x117b
 4172 1130 25       		.uleb128 0x25
 4173 1131 6F6B00   		.ascii	"ok\000"
 4174 1134 01       		.byte	0x1
 4175 1135 0F01     		.2byte	0x10f
 4176 1137 8A030000 		.4byte	0x38a
 4177 113b 44000000 		.4byte	.LLST3
 4178 113f 22       		.uleb128 0x22
 4179 1140 72010000 		.4byte	.LVL15
 4180 1144 691D0000 		.4byte	0x1d69
 4181 1148 22       		.uleb128 0x22
 4182 1149 92010000 		.4byte	.LVL16
 4183 114d 691D0000 		.4byte	0x1d69
 4184 1151 23       		.uleb128 0x23
 4185 1152 B2010000 		.4byte	.LVL17
ARM GAS  C:\Users\haske\AppData\Local\Temp\ccxlcgkV.s 			page 88


 4186 1156 741D0000 		.4byte	0x1d74
 4187 115a 71110000 		.4byte	0x1171
 4188 115e 24       		.uleb128 0x24
 4189 115f 01       		.uleb128 0x1
 4190 1160 50       		.byte	0x50
 4191 1161 02       		.uleb128 0x2
 4192 1162 91       		.byte	0x91
 4193 1163 68       		.sleb128 -24
 4194 1164 24       		.uleb128 0x24
 4195 1165 01       		.uleb128 0x1
 4196 1166 51       		.byte	0x51
 4197 1167 02       		.uleb128 0x2
 4198 1168 91       		.byte	0x91
 4199 1169 68       		.sleb128 -24
 4200 116a 24       		.uleb128 0x24
 4201 116b 01       		.uleb128 0x1
 4202 116c 52       		.byte	0x52
 4203 116d 02       		.uleb128 0x2
 4204 116e 75       		.byte	0x75
 4205 116f 00       		.sleb128 0
 4206 1170 00       		.byte	0
 4207 1171 22       		.uleb128 0x22
 4208 1172 C6010000 		.4byte	.LVL19
 4209 1176 7F1D0000 		.4byte	0x1d7f
 4210 117a 00       		.byte	0
 4211 117b 26       		.uleb128 0x26
 4212 117c EE010000 		.4byte	.LBB15
 4213 1180 46000000 		.4byte	.LBE15-.LBB15
 4214 1184 25       		.uleb128 0x25
 4215 1185 6F6B00   		.ascii	"ok\000"
 4216 1188 01       		.byte	0x1
 4217 1189 2001     		.2byte	0x120
 4218 118b 8A030000 		.4byte	0x38a
 4219 118f 57000000 		.4byte	.LLST4
 4220 1193 23       		.uleb128 0x23
 4221 1194 22020000 		.4byte	.LVL20
 4222 1198 741D0000 		.4byte	0x1d74
 4223 119c B3110000 		.4byte	0x11b3
 4224 11a0 24       		.uleb128 0x24
 4225 11a1 01       		.uleb128 0x1
 4226 11a2 50       		.byte	0x50
 4227 11a3 02       		.uleb128 0x2
 4228 11a4 7D       		.byte	0x7d
 4229 11a5 00       		.sleb128 0
 4230 11a6 24       		.uleb128 0x24
 4231 11a7 01       		.uleb128 0x1
 4232 11a8 51       		.byte	0x51
 4233 11a9 02       		.uleb128 0x2
 4234 11aa 7D       		.byte	0x7d
 4235 11ab 00       		.sleb128 0
 4236 11ac 24       		.uleb128 0x24
 4237 11ad 01       		.uleb128 0x1
 4238 11ae 52       		.byte	0x52
 4239 11af 02       		.uleb128 0x2
 4240 11b0 75       		.byte	0x75
 4241 11b1 00       		.sleb128 0
 4242 11b2 00       		.byte	0
ARM GAS  C:\Users\haske\AppData\Local\Temp\ccxlcgkV.s 			page 89


 4243 11b3 22       		.uleb128 0x22
 4244 11b4 34020000 		.4byte	.LVL22
 4245 11b8 7F1D0000 		.4byte	0x1d7f
 4246 11bc 00       		.byte	0
 4247 11bd 00       		.byte	0
 4248 11be 11       		.uleb128 0x11
 4249 11bf 04       		.byte	0x4
 4250 11c0 BF0F0000 		.4byte	0xfbf
 4251 11c4 27       		.uleb128 0x27
 4252 11c5 E3000000 		.4byte	.LASF218
 4253 11c9 01       		.byte	0x1
 4254 11ca 2901     		.2byte	0x129
 4255 11cc 00000000 		.4byte	.LFB58
 4256 11d0 40020000 		.4byte	.LFE58-.LFB58
 4257 11d4 01       		.uleb128 0x1
 4258 11d5 9C       		.byte	0x9c
 4259 11d6 62130000 		.4byte	0x1362
 4260 11da 28       		.uleb128 0x28
 4261 11db 7100     		.ascii	"q\000"
 4262 11dd 01       		.byte	0x1
 4263 11de 2901     		.2byte	0x129
 4264 11e0 BE110000 		.4byte	0x11be
 4265 11e4 6A000000 		.4byte	.LLST5
 4266 11e8 29       		.uleb128 0x29
 4267 11e9 31080000 		.4byte	.LASF215
 4268 11ed 01       		.byte	0x1
 4269 11ee 2B01     		.2byte	0x12b
 4270 11f0 4B070000 		.4byte	0x74b
 4271 11f4 01       		.uleb128 0x1
 4272 11f5 55       		.byte	0x55
 4273 11f6 29       		.uleb128 0x29
 4274 11f7 59000000 		.4byte	.LASF216
 4275 11fb 01       		.byte	0x1
 4276 11fc 2C01     		.2byte	0x12c
 4277 11fe 54020000 		.4byte	0x254
 4278 1202 02       		.uleb128 0x2
 4279 1203 91       		.byte	0x91
 4280 1204 68       		.sleb128 -24
 4281 1205 20       		.uleb128 0x20
 4282 1206 1E000000 		.4byte	.LBB16
 4283 120a A8000000 		.4byte	.LBE16-.LBB16
 4284 120e 6F120000 		.4byte	0x126f
 4285 1212 25       		.uleb128 0x25
 4286 1213 6F6B00   		.ascii	"ok\000"
 4287 1216 01       		.byte	0x1
 4288 1217 3601     		.2byte	0x136
 4289 1219 8A030000 		.4byte	0x38a
 4290 121d 88000000 		.4byte	.LLST6
 4291 1221 22       		.uleb128 0x22
 4292 1222 2A000000 		.4byte	.LVL26
 4293 1226 691D0000 		.4byte	0x1d69
 4294 122a 22       		.uleb128 0x22
 4295 122b 4A000000 		.4byte	.LVL27
 4296 122f 691D0000 		.4byte	0x1d69
 4297 1233 22       		.uleb128 0x22
 4298 1234 6E000000 		.4byte	.LVL28
 4299 1238 691D0000 		.4byte	0x1d69
ARM GAS  C:\Users\haske\AppData\Local\Temp\ccxlcgkV.s 			page 90


 4300 123c 22       		.uleb128 0x22
 4301 123d 94000000 		.4byte	.LVL29
 4302 1241 691D0000 		.4byte	0x1d69
 4303 1245 23       		.uleb128 0x23
 4304 1246 AE000000 		.4byte	.LVL30
 4305 124a 741D0000 		.4byte	0x1d74
 4306 124e 65120000 		.4byte	0x1265
 4307 1252 24       		.uleb128 0x24
 4308 1253 01       		.uleb128 0x1
 4309 1254 50       		.byte	0x50
 4310 1255 02       		.uleb128 0x2
 4311 1256 91       		.byte	0x91
 4312 1257 68       		.sleb128 -24
 4313 1258 24       		.uleb128 0x24
 4314 1259 01       		.uleb128 0x1
 4315 125a 51       		.byte	0x51
 4316 125b 02       		.uleb128 0x2
 4317 125c 91       		.byte	0x91
 4318 125d 68       		.sleb128 -24
 4319 125e 24       		.uleb128 0x24
 4320 125f 01       		.uleb128 0x1
 4321 1260 52       		.byte	0x52
 4322 1261 02       		.uleb128 0x2
 4323 1262 75       		.byte	0x75
 4324 1263 00       		.sleb128 0
 4325 1264 00       		.byte	0
 4326 1265 22       		.uleb128 0x22
 4327 1266 C4000000 		.4byte	.LVL32
 4328 126a 7F1D0000 		.4byte	0x1d7f
 4329 126e 00       		.byte	0
 4330 126f 20       		.uleb128 0x20
 4331 1270 D4000000 		.4byte	.LBB17
 4332 1274 76000000 		.4byte	.LBE17-.LBB17
 4333 1278 C7120000 		.4byte	0x12c7
 4334 127c 25       		.uleb128 0x25
 4335 127d 6F6B00   		.ascii	"ok\000"
 4336 1280 01       		.byte	0x1
 4337 1281 4501     		.2byte	0x145
 4338 1283 8A030000 		.4byte	0x38a
 4339 1287 9B000000 		.4byte	.LLST7
 4340 128b 22       		.uleb128 0x22
 4341 128c F8000000 		.4byte	.LVL33
 4342 1290 691D0000 		.4byte	0x1d69
 4343 1294 22       		.uleb128 0x22
 4344 1295 18010000 		.4byte	.LVL34
 4345 1299 691D0000 		.4byte	0x1d69
 4346 129d 23       		.uleb128 0x23
 4347 129e 38010000 		.4byte	.LVL35
 4348 12a2 741D0000 		.4byte	0x1d74
 4349 12a6 BD120000 		.4byte	0x12bd
 4350 12aa 24       		.uleb128 0x24
 4351 12ab 01       		.uleb128 0x1
 4352 12ac 50       		.byte	0x50
 4353 12ad 02       		.uleb128 0x2
 4354 12ae 7D       		.byte	0x7d
 4355 12af 00       		.sleb128 0
 4356 12b0 24       		.uleb128 0x24
ARM GAS  C:\Users\haske\AppData\Local\Temp\ccxlcgkV.s 			page 91


 4357 12b1 01       		.uleb128 0x1
 4358 12b2 51       		.byte	0x51
 4359 12b3 02       		.uleb128 0x2
 4360 12b4 7D       		.byte	0x7d
 4361 12b5 00       		.sleb128 0
 4362 12b6 24       		.uleb128 0x24
 4363 12b7 01       		.uleb128 0x1
 4364 12b8 52       		.byte	0x52
 4365 12b9 02       		.uleb128 0x2
 4366 12ba 75       		.byte	0x75
 4367 12bb 00       		.sleb128 0
 4368 12bc 00       		.byte	0
 4369 12bd 22       		.uleb128 0x22
 4370 12be 4A010000 		.4byte	.LVL37
 4371 12c2 7F1D0000 		.4byte	0x1d7f
 4372 12c6 00       		.byte	0
 4373 12c7 20       		.uleb128 0x20
 4374 12c8 50010000 		.4byte	.LBB18
 4375 12cc 7C000000 		.4byte	.LBE18-.LBB18
 4376 12d0 1F130000 		.4byte	0x131f
 4377 12d4 25       		.uleb128 0x25
 4378 12d5 6F6B00   		.ascii	"ok\000"
 4379 12d8 01       		.byte	0x1
 4380 12d9 5201     		.2byte	0x152
 4381 12db 8A030000 		.4byte	0x38a
 4382 12df AE000000 		.4byte	.LLST8
 4383 12e3 22       		.uleb128 0x22
 4384 12e4 76010000 		.4byte	.LVL38
 4385 12e8 691D0000 		.4byte	0x1d69
 4386 12ec 22       		.uleb128 0x22
 4387 12ed 9C010000 		.4byte	.LVL39
 4388 12f1 691D0000 		.4byte	0x1d69
 4389 12f5 23       		.uleb128 0x23
 4390 12f6 B6010000 		.4byte	.LVL40
 4391 12fa 741D0000 		.4byte	0x1d74
 4392 12fe 15130000 		.4byte	0x1315
 4393 1302 24       		.uleb128 0x24
 4394 1303 01       		.uleb128 0x1
 4395 1304 50       		.byte	0x50
 4396 1305 02       		.uleb128 0x2
 4397 1306 91       		.byte	0x91
 4398 1307 68       		.sleb128 -24
 4399 1308 24       		.uleb128 0x24
 4400 1309 01       		.uleb128 0x1
 4401 130a 51       		.byte	0x51
 4402 130b 02       		.uleb128 0x2
 4403 130c 91       		.byte	0x91
 4404 130d 68       		.sleb128 -24
 4405 130e 24       		.uleb128 0x24
 4406 130f 01       		.uleb128 0x1
 4407 1310 52       		.byte	0x52
 4408 1311 02       		.uleb128 0x2
 4409 1312 75       		.byte	0x75
 4410 1313 00       		.sleb128 0
 4411 1314 00       		.byte	0
 4412 1315 22       		.uleb128 0x22
 4413 1316 CA010000 		.4byte	.LVL42
ARM GAS  C:\Users\haske\AppData\Local\Temp\ccxlcgkV.s 			page 92


 4414 131a 7F1D0000 		.4byte	0x1d7f
 4415 131e 00       		.byte	0
 4416 131f 26       		.uleb128 0x26
 4417 1320 F0010000 		.4byte	.LBB19
 4418 1324 48000000 		.4byte	.LBE19-.LBB19
 4419 1328 25       		.uleb128 0x25
 4420 1329 6F6B00   		.ascii	"ok\000"
 4421 132c 01       		.byte	0x1
 4422 132d 6301     		.2byte	0x163
 4423 132f 8A030000 		.4byte	0x38a
 4424 1333 C1000000 		.4byte	.LLST9
 4425 1337 23       		.uleb128 0x23
 4426 1338 26020000 		.4byte	.LVL43
 4427 133c 741D0000 		.4byte	0x1d74
 4428 1340 57130000 		.4byte	0x1357
 4429 1344 24       		.uleb128 0x24
 4430 1345 01       		.uleb128 0x1
 4431 1346 50       		.byte	0x50
 4432 1347 02       		.uleb128 0x2
 4433 1348 7D       		.byte	0x7d
 4434 1349 00       		.sleb128 0
 4435 134a 24       		.uleb128 0x24
 4436 134b 01       		.uleb128 0x1
 4437 134c 51       		.byte	0x51
 4438 134d 02       		.uleb128 0x2
 4439 134e 7D       		.byte	0x7d
 4440 134f 00       		.sleb128 0
 4441 1350 24       		.uleb128 0x24
 4442 1351 01       		.uleb128 0x1
 4443 1352 52       		.byte	0x52
 4444 1353 02       		.uleb128 0x2
 4445 1354 75       		.byte	0x75
 4446 1355 00       		.sleb128 0
 4447 1356 00       		.byte	0
 4448 1357 22       		.uleb128 0x22
 4449 1358 38020000 		.4byte	.LVL45
 4450 135c 7F1D0000 		.4byte	0x1d7f
 4451 1360 00       		.byte	0
 4452 1361 00       		.byte	0
 4453 1362 27       		.uleb128 0x27
 4454 1363 550C0000 		.4byte	.LASF219
 4455 1367 01       		.byte	0x1
 4456 1368 6C01     		.2byte	0x16c
 4457 136a 00000000 		.4byte	.LFB59
 4458 136e 42020000 		.4byte	.LFE59-.LFB59
 4459 1372 01       		.uleb128 0x1
 4460 1373 9C       		.byte	0x9c
 4461 1374 00150000 		.4byte	0x1500
 4462 1378 28       		.uleb128 0x28
 4463 1379 7100     		.ascii	"q\000"
 4464 137b 01       		.byte	0x1
 4465 137c 6C01     		.2byte	0x16c
 4466 137e BE110000 		.4byte	0x11be
 4467 1382 D4000000 		.4byte	.LLST10
 4468 1386 29       		.uleb128 0x29
 4469 1387 31080000 		.4byte	.LASF215
 4470 138b 01       		.byte	0x1
ARM GAS  C:\Users\haske\AppData\Local\Temp\ccxlcgkV.s 			page 93


 4471 138c 6E01     		.2byte	0x16e
 4472 138e 4B070000 		.4byte	0x74b
 4473 1392 01       		.uleb128 0x1
 4474 1393 55       		.byte	0x55
 4475 1394 29       		.uleb128 0x29
 4476 1395 59000000 		.4byte	.LASF216
 4477 1399 01       		.byte	0x1
 4478 139a 6F01     		.2byte	0x16f
 4479 139c 54020000 		.4byte	0x254
 4480 13a0 02       		.uleb128 0x2
 4481 13a1 91       		.byte	0x91
 4482 13a2 68       		.sleb128 -24
 4483 13a3 20       		.uleb128 0x20
 4484 13a4 1E000000 		.4byte	.LBB20
 4485 13a8 A8000000 		.4byte	.LBE20-.LBB20
 4486 13ac 0D140000 		.4byte	0x140d
 4487 13b0 25       		.uleb128 0x25
 4488 13b1 6F6B00   		.ascii	"ok\000"
 4489 13b4 01       		.byte	0x1
 4490 13b5 7901     		.2byte	0x179
 4491 13b7 8A030000 		.4byte	0x38a
 4492 13bb F2000000 		.4byte	.LLST11
 4493 13bf 22       		.uleb128 0x22
 4494 13c0 2C000000 		.4byte	.LVL49
 4495 13c4 691D0000 		.4byte	0x1d69
 4496 13c8 22       		.uleb128 0x22
 4497 13c9 4A000000 		.4byte	.LVL50
 4498 13cd 691D0000 		.4byte	0x1d69
 4499 13d1 22       		.uleb128 0x22
 4500 13d2 6E000000 		.4byte	.LVL51
 4501 13d6 691D0000 		.4byte	0x1d69
 4502 13da 22       		.uleb128 0x22
 4503 13db 8E000000 		.4byte	.LVL52
 4504 13df 691D0000 		.4byte	0x1d69
 4505 13e3 23       		.uleb128 0x23
 4506 13e4 AE000000 		.4byte	.LVL53
 4507 13e8 741D0000 		.4byte	0x1d74
 4508 13ec 03140000 		.4byte	0x1403
 4509 13f0 24       		.uleb128 0x24
 4510 13f1 01       		.uleb128 0x1
 4511 13f2 50       		.byte	0x50
 4512 13f3 02       		.uleb128 0x2
 4513 13f4 7D       		.byte	0x7d
 4514 13f5 00       		.sleb128 0
 4515 13f6 24       		.uleb128 0x24
 4516 13f7 01       		.uleb128 0x1
 4517 13f8 51       		.byte	0x51
 4518 13f9 02       		.uleb128 0x2
 4519 13fa 7D       		.byte	0x7d
 4520 13fb 00       		.sleb128 0
 4521 13fc 24       		.uleb128 0x24
 4522 13fd 01       		.uleb128 0x1
 4523 13fe 52       		.byte	0x52
 4524 13ff 02       		.uleb128 0x2
 4525 1400 75       		.byte	0x75
 4526 1401 00       		.sleb128 0
 4527 1402 00       		.byte	0
ARM GAS  C:\Users\haske\AppData\Local\Temp\ccxlcgkV.s 			page 94


 4528 1403 22       		.uleb128 0x22
 4529 1404 C4000000 		.4byte	.LVL55
 4530 1408 7F1D0000 		.4byte	0x1d7f
 4531 140c 00       		.byte	0
 4532 140d 20       		.uleb128 0x20
 4533 140e D4000000 		.4byte	.LBB21
 4534 1412 78000000 		.4byte	.LBE21-.LBB21
 4535 1416 65140000 		.4byte	0x1465
 4536 141a 25       		.uleb128 0x25
 4537 141b 6F6B00   		.ascii	"ok\000"
 4538 141e 01       		.byte	0x1
 4539 141f 8801     		.2byte	0x188
 4540 1421 8A030000 		.4byte	0x38a
 4541 1425 05010000 		.4byte	.LLST12
 4542 1429 22       		.uleb128 0x22
 4543 142a FC000000 		.4byte	.LVL56
 4544 142e 691D0000 		.4byte	0x1d69
 4545 1432 22       		.uleb128 0x22
 4546 1433 1A010000 		.4byte	.LVL57
 4547 1437 691D0000 		.4byte	0x1d69
 4548 143b 23       		.uleb128 0x23
 4549 143c 3A010000 		.4byte	.LVL58
 4550 1440 741D0000 		.4byte	0x1d74
 4551 1444 5B140000 		.4byte	0x145b
 4552 1448 24       		.uleb128 0x24
 4553 1449 01       		.uleb128 0x1
 4554 144a 50       		.byte	0x50
 4555 144b 02       		.uleb128 0x2
 4556 144c 7D       		.byte	0x7d
 4557 144d 00       		.sleb128 0
 4558 144e 24       		.uleb128 0x24
 4559 144f 01       		.uleb128 0x1
 4560 1450 51       		.byte	0x51
 4561 1451 02       		.uleb128 0x2
 4562 1452 7D       		.byte	0x7d
 4563 1453 00       		.sleb128 0
 4564 1454 24       		.uleb128 0x24
 4565 1455 01       		.uleb128 0x1
 4566 1456 52       		.byte	0x52
 4567 1457 02       		.uleb128 0x2
 4568 1458 75       		.byte	0x75
 4569 1459 00       		.sleb128 0
 4570 145a 00       		.byte	0
 4571 145b 22       		.uleb128 0x22
 4572 145c 4C010000 		.4byte	.LVL60
 4573 1460 7F1D0000 		.4byte	0x1d7f
 4574 1464 00       		.byte	0
 4575 1465 20       		.uleb128 0x20
 4576 1466 52010000 		.4byte	.LBB22
 4577 146a 7C000000 		.4byte	.LBE22-.LBB22
 4578 146e BD140000 		.4byte	0x14bd
 4579 1472 25       		.uleb128 0x25
 4580 1473 6F6B00   		.ascii	"ok\000"
 4581 1476 01       		.byte	0x1
 4582 1477 9501     		.2byte	0x195
 4583 1479 8A030000 		.4byte	0x38a
 4584 147d 18010000 		.4byte	.LLST13
ARM GAS  C:\Users\haske\AppData\Local\Temp\ccxlcgkV.s 			page 95


 4585 1481 22       		.uleb128 0x22
 4586 1482 7A010000 		.4byte	.LVL61
 4587 1486 691D0000 		.4byte	0x1d69
 4588 148a 22       		.uleb128 0x22
 4589 148b 9E010000 		.4byte	.LVL62
 4590 148f 691D0000 		.4byte	0x1d69
 4591 1493 23       		.uleb128 0x23
 4592 1494 B8010000 		.4byte	.LVL63
 4593 1498 741D0000 		.4byte	0x1d74
 4594 149c B3140000 		.4byte	0x14b3
 4595 14a0 24       		.uleb128 0x24
 4596 14a1 01       		.uleb128 0x1
 4597 14a2 50       		.byte	0x50
 4598 14a3 02       		.uleb128 0x2
 4599 14a4 7D       		.byte	0x7d
 4600 14a5 00       		.sleb128 0
 4601 14a6 24       		.uleb128 0x24
 4602 14a7 01       		.uleb128 0x1
 4603 14a8 51       		.byte	0x51
 4604 14a9 02       		.uleb128 0x2
 4605 14aa 7D       		.byte	0x7d
 4606 14ab 00       		.sleb128 0
 4607 14ac 24       		.uleb128 0x24
 4608 14ad 01       		.uleb128 0x1
 4609 14ae 52       		.byte	0x52
 4610 14af 02       		.uleb128 0x2
 4611 14b0 75       		.byte	0x75
 4612 14b1 00       		.sleb128 0
 4613 14b2 00       		.byte	0
 4614 14b3 22       		.uleb128 0x22
 4615 14b4 CC010000 		.4byte	.LVL65
 4616 14b8 7F1D0000 		.4byte	0x1d7f
 4617 14bc 00       		.byte	0
 4618 14bd 26       		.uleb128 0x26
 4619 14be F2010000 		.4byte	.LBB23
 4620 14c2 48000000 		.4byte	.LBE23-.LBB23
 4621 14c6 25       		.uleb128 0x25
 4622 14c7 6F6B00   		.ascii	"ok\000"
 4623 14ca 01       		.byte	0x1
 4624 14cb A601     		.2byte	0x1a6
 4625 14cd 8A030000 		.4byte	0x38a
 4626 14d1 2B010000 		.4byte	.LLST14
 4627 14d5 23       		.uleb128 0x23
 4628 14d6 28020000 		.4byte	.LVL66
 4629 14da 741D0000 		.4byte	0x1d74
 4630 14de F5140000 		.4byte	0x14f5
 4631 14e2 24       		.uleb128 0x24
 4632 14e3 01       		.uleb128 0x1
 4633 14e4 50       		.byte	0x50
 4634 14e5 02       		.uleb128 0x2
 4635 14e6 7D       		.byte	0x7d
 4636 14e7 00       		.sleb128 0
 4637 14e8 24       		.uleb128 0x24
 4638 14e9 01       		.uleb128 0x1
 4639 14ea 51       		.byte	0x51
 4640 14eb 02       		.uleb128 0x2
 4641 14ec 7D       		.byte	0x7d
ARM GAS  C:\Users\haske\AppData\Local\Temp\ccxlcgkV.s 			page 96


 4642 14ed 00       		.sleb128 0
 4643 14ee 24       		.uleb128 0x24
 4644 14ef 01       		.uleb128 0x1
 4645 14f0 52       		.byte	0x52
 4646 14f1 02       		.uleb128 0x2
 4647 14f2 75       		.byte	0x75
 4648 14f3 00       		.sleb128 0
 4649 14f4 00       		.byte	0
 4650 14f5 22       		.uleb128 0x22
 4651 14f6 3A020000 		.4byte	.LVL68
 4652 14fa 7F1D0000 		.4byte	0x1d7f
 4653 14fe 00       		.byte	0
 4654 14ff 00       		.byte	0
 4655 1500 27       		.uleb128 0x27
 4656 1501 640C0000 		.4byte	.LASF220
 4657 1505 01       		.byte	0x1
 4658 1506 AF01     		.2byte	0x1af
 4659 1508 00000000 		.4byte	.LFB60
 4660 150c 3E020000 		.4byte	.LFE60-.LFB60
 4661 1510 01       		.uleb128 0x1
 4662 1511 9C       		.byte	0x9c
 4663 1512 9E160000 		.4byte	0x169e
 4664 1516 28       		.uleb128 0x28
 4665 1517 7100     		.ascii	"q\000"
 4666 1519 01       		.byte	0x1
 4667 151a AF01     		.2byte	0x1af
 4668 151c BE110000 		.4byte	0x11be
 4669 1520 3E010000 		.4byte	.LLST15
 4670 1524 29       		.uleb128 0x29
 4671 1525 31080000 		.4byte	.LASF215
 4672 1529 01       		.byte	0x1
 4673 152a B101     		.2byte	0x1b1
 4674 152c 4B070000 		.4byte	0x74b
 4675 1530 01       		.uleb128 0x1
 4676 1531 55       		.byte	0x55
 4677 1532 29       		.uleb128 0x29
 4678 1533 59000000 		.4byte	.LASF216
 4679 1537 01       		.byte	0x1
 4680 1538 B201     		.2byte	0x1b2
 4681 153a 54020000 		.4byte	0x254
 4682 153e 02       		.uleb128 0x2
 4683 153f 91       		.byte	0x91
 4684 1540 68       		.sleb128 -24
 4685 1541 20       		.uleb128 0x20
 4686 1542 1E000000 		.4byte	.LBB24
 4687 1546 A8000000 		.4byte	.LBE24-.LBB24
 4688 154a AB150000 		.4byte	0x15ab
 4689 154e 25       		.uleb128 0x25
 4690 154f 6F6B00   		.ascii	"ok\000"
 4691 1552 01       		.byte	0x1
 4692 1553 BC01     		.2byte	0x1bc
 4693 1555 8A030000 		.4byte	0x38a
 4694 1559 5C010000 		.4byte	.LLST16
 4695 155d 22       		.uleb128 0x22
 4696 155e 2C000000 		.4byte	.LVL72
 4697 1562 691D0000 		.4byte	0x1d69
 4698 1566 22       		.uleb128 0x22
ARM GAS  C:\Users\haske\AppData\Local\Temp\ccxlcgkV.s 			page 97


 4699 1567 50000000 		.4byte	.LVL73
 4700 156b 691D0000 		.4byte	0x1d69
 4701 156f 22       		.uleb128 0x22
 4702 1570 70000000 		.4byte	.LVL74
 4703 1574 691D0000 		.4byte	0x1d69
 4704 1578 22       		.uleb128 0x22
 4705 1579 8E000000 		.4byte	.LVL75
 4706 157d 691D0000 		.4byte	0x1d69
 4707 1581 23       		.uleb128 0x23
 4708 1582 AE000000 		.4byte	.LVL76
 4709 1586 741D0000 		.4byte	0x1d74
 4710 158a A1150000 		.4byte	0x15a1
 4711 158e 24       		.uleb128 0x24
 4712 158f 01       		.uleb128 0x1
 4713 1590 50       		.byte	0x50
 4714 1591 02       		.uleb128 0x2
 4715 1592 7D       		.byte	0x7d
 4716 1593 00       		.sleb128 0
 4717 1594 24       		.uleb128 0x24
 4718 1595 01       		.uleb128 0x1
 4719 1596 51       		.byte	0x51
 4720 1597 02       		.uleb128 0x2
 4721 1598 7D       		.byte	0x7d
 4722 1599 00       		.sleb128 0
 4723 159a 24       		.uleb128 0x24
 4724 159b 01       		.uleb128 0x1
 4725 159c 52       		.byte	0x52
 4726 159d 02       		.uleb128 0x2
 4727 159e 75       		.byte	0x75
 4728 159f 00       		.sleb128 0
 4729 15a0 00       		.byte	0
 4730 15a1 22       		.uleb128 0x22
 4731 15a2 C4000000 		.4byte	.LVL78
 4732 15a6 7F1D0000 		.4byte	0x1d7f
 4733 15aa 00       		.byte	0
 4734 15ab 20       		.uleb128 0x20
 4735 15ac D4000000 		.4byte	.LBB25
 4736 15b0 78000000 		.4byte	.LBE25-.LBB25
 4737 15b4 03160000 		.4byte	0x1603
 4738 15b8 25       		.uleb128 0x25
 4739 15b9 6F6B00   		.ascii	"ok\000"
 4740 15bc 01       		.byte	0x1
 4741 15bd CB01     		.2byte	0x1cb
 4742 15bf 8A030000 		.4byte	0x38a
 4743 15c3 6F010000 		.4byte	.LLST17
 4744 15c7 22       		.uleb128 0x22
 4745 15c8 FC000000 		.4byte	.LVL79
 4746 15cc 691D0000 		.4byte	0x1d69
 4747 15d0 22       		.uleb128 0x22
 4748 15d1 20010000 		.4byte	.LVL80
 4749 15d5 691D0000 		.4byte	0x1d69
 4750 15d9 23       		.uleb128 0x23
 4751 15da 3A010000 		.4byte	.LVL81
 4752 15de 741D0000 		.4byte	0x1d74
 4753 15e2 F9150000 		.4byte	0x15f9
 4754 15e6 24       		.uleb128 0x24
 4755 15e7 01       		.uleb128 0x1
ARM GAS  C:\Users\haske\AppData\Local\Temp\ccxlcgkV.s 			page 98


 4756 15e8 50       		.byte	0x50
 4757 15e9 02       		.uleb128 0x2
 4758 15ea 7D       		.byte	0x7d
 4759 15eb 00       		.sleb128 0
 4760 15ec 24       		.uleb128 0x24
 4761 15ed 01       		.uleb128 0x1
 4762 15ee 51       		.byte	0x51
 4763 15ef 02       		.uleb128 0x2
 4764 15f0 7D       		.byte	0x7d
 4765 15f1 00       		.sleb128 0
 4766 15f2 24       		.uleb128 0x24
 4767 15f3 01       		.uleb128 0x1
 4768 15f4 52       		.byte	0x52
 4769 15f5 02       		.uleb128 0x2
 4770 15f6 75       		.byte	0x75
 4771 15f7 00       		.sleb128 0
 4772 15f8 00       		.byte	0
 4773 15f9 22       		.uleb128 0x22
 4774 15fa 4C010000 		.4byte	.LVL83
 4775 15fe 7F1D0000 		.4byte	0x1d7f
 4776 1602 00       		.byte	0
 4777 1603 20       		.uleb128 0x20
 4778 1604 52010000 		.4byte	.LBB26
 4779 1608 7A000000 		.4byte	.LBE26-.LBB26
 4780 160c 5B160000 		.4byte	0x165b
 4781 1610 25       		.uleb128 0x25
 4782 1611 6F6B00   		.ascii	"ok\000"
 4783 1614 01       		.byte	0x1
 4784 1615 D801     		.2byte	0x1d8
 4785 1617 8A030000 		.4byte	0x38a
 4786 161b 82010000 		.4byte	.LLST18
 4787 161f 22       		.uleb128 0x22
 4788 1620 78010000 		.4byte	.LVL84
 4789 1624 691D0000 		.4byte	0x1d69
 4790 1628 22       		.uleb128 0x22
 4791 1629 96010000 		.4byte	.LVL85
 4792 162d 691D0000 		.4byte	0x1d69
 4793 1631 23       		.uleb128 0x23
 4794 1632 B6010000 		.4byte	.LVL86
 4795 1636 741D0000 		.4byte	0x1d74
 4796 163a 51160000 		.4byte	0x1651
 4797 163e 24       		.uleb128 0x24
 4798 163f 01       		.uleb128 0x1
 4799 1640 50       		.byte	0x50
 4800 1641 02       		.uleb128 0x2
 4801 1642 7D       		.byte	0x7d
 4802 1643 00       		.sleb128 0
 4803 1644 24       		.uleb128 0x24
 4804 1645 01       		.uleb128 0x1
 4805 1646 51       		.byte	0x51
 4806 1647 02       		.uleb128 0x2
 4807 1648 7D       		.byte	0x7d
 4808 1649 00       		.sleb128 0
 4809 164a 24       		.uleb128 0x24
 4810 164b 01       		.uleb128 0x1
 4811 164c 52       		.byte	0x52
 4812 164d 02       		.uleb128 0x2
ARM GAS  C:\Users\haske\AppData\Local\Temp\ccxlcgkV.s 			page 99


 4813 164e 75       		.byte	0x75
 4814 164f 00       		.sleb128 0
 4815 1650 00       		.byte	0
 4816 1651 22       		.uleb128 0x22
 4817 1652 CA010000 		.4byte	.LVL88
 4818 1656 7F1D0000 		.4byte	0x1d7f
 4819 165a 00       		.byte	0
 4820 165b 26       		.uleb128 0x26
 4821 165c F0010000 		.4byte	.LBB27
 4822 1660 46000000 		.4byte	.LBE27-.LBB27
 4823 1664 25       		.uleb128 0x25
 4824 1665 6F6B00   		.ascii	"ok\000"
 4825 1668 01       		.byte	0x1
 4826 1669 E901     		.2byte	0x1e9
 4827 166b 8A030000 		.4byte	0x38a
 4828 166f 95010000 		.4byte	.LLST19
 4829 1673 23       		.uleb128 0x23
 4830 1674 24020000 		.4byte	.LVL89
 4831 1678 741D0000 		.4byte	0x1d74
 4832 167c 93160000 		.4byte	0x1693
 4833 1680 24       		.uleb128 0x24
 4834 1681 01       		.uleb128 0x1
 4835 1682 50       		.byte	0x50
 4836 1683 02       		.uleb128 0x2
 4837 1684 7D       		.byte	0x7d
 4838 1685 00       		.sleb128 0
 4839 1686 24       		.uleb128 0x24
 4840 1687 01       		.uleb128 0x1
 4841 1688 51       		.byte	0x51
 4842 1689 02       		.uleb128 0x2
 4843 168a 7D       		.byte	0x7d
 4844 168b 00       		.sleb128 0
 4845 168c 24       		.uleb128 0x24
 4846 168d 01       		.uleb128 0x1
 4847 168e 52       		.byte	0x52
 4848 168f 02       		.uleb128 0x2
 4849 1690 75       		.byte	0x75
 4850 1691 00       		.sleb128 0
 4851 1692 00       		.byte	0
 4852 1693 22       		.uleb128 0x22
 4853 1694 36020000 		.4byte	.LVL91
 4854 1698 7F1D0000 		.4byte	0x1d7f
 4855 169c 00       		.byte	0
 4856 169d 00       		.byte	0
 4857 169e 27       		.uleb128 0x27
 4858 169f A80C0000 		.4byte	.LASF221
 4859 16a3 01       		.byte	0x1
 4860 16a4 F301     		.2byte	0x1f3
 4861 16a6 00000000 		.4byte	.LFB61
 4862 16aa 8C000000 		.4byte	.LFE61-.LFB61
 4863 16ae 01       		.uleb128 0x1
 4864 16af 9C       		.byte	0x9c
 4865 16b0 74170000 		.4byte	0x1774
 4866 16b4 2A       		.uleb128 0x2a
 4867 16b5 13060000 		.4byte	.LASF152
 4868 16b9 01       		.byte	0x1
 4869 16ba F301     		.2byte	0x1f3
ARM GAS  C:\Users\haske\AppData\Local\Temp\ccxlcgkV.s 			page 100


 4870 16bc C3000000 		.4byte	0xc3
 4871 16c0 A8010000 		.4byte	.LLST20
 4872 16c4 2A       		.uleb128 0x2a
 4873 16c5 66000000 		.4byte	.LASF107
 4874 16c9 01       		.byte	0x1
 4875 16ca F301     		.2byte	0x1f3
 4876 16cc EC010000 		.4byte	0x1ec
 4877 16d0 C9010000 		.4byte	.LLST21
 4878 16d4 2A       		.uleb128 0x2a
 4879 16d5 44000000 		.4byte	.LASF222
 4880 16d9 01       		.byte	0x1
 4881 16da F301     		.2byte	0x1f3
 4882 16dc B8000000 		.4byte	0xb8
 4883 16e0 EA010000 		.4byte	.LLST22
 4884 16e4 2A       		.uleb128 0x2a
 4885 16e5 0A060000 		.4byte	.LASF223
 4886 16e9 01       		.byte	0x1
 4887 16ea F301     		.2byte	0x1f3
 4888 16ec 8D0B0000 		.4byte	0xb8d
 4889 16f0 0B020000 		.4byte	.LLST23
 4890 16f4 2B       		.uleb128 0x2b
 4891 16f5 707300   		.ascii	"ps\000"
 4892 16f8 01       		.byte	0x1
 4893 16f9 F501     		.2byte	0x1f5
 4894 16fb B7030000 		.4byte	0x3b7
 4895 16ff 08       		.byte	0x8
 4896 1700 2B       		.uleb128 0x2b
 4897 1701 706100   		.ascii	"pa\000"
 4898 1704 01       		.byte	0x1
 4899 1705 F601     		.2byte	0x1f6
 4900 1707 B7030000 		.4byte	0x3b7
 4901 170b 7F       		.byte	0x7f
 4902 170c 2C       		.uleb128 0x2c
 4903 170d 63020000 		.4byte	.LASF224
 4904 1711 01       		.byte	0x1
 4905 1712 F801     		.2byte	0x1f8
 4906 1714 D9000000 		.4byte	0xd9
 4907 1718 29020000 		.4byte	.LLST24
 4908 171c 2C       		.uleb128 0x2c
 4909 171d 5A090000 		.4byte	.LASF225
 4910 1721 01       		.byte	0x1
 4911 1722 F901     		.2byte	0x1f9
 4912 1724 B8000000 		.4byte	0xb8
 4913 1728 47020000 		.4byte	.LLST25
 4914 172c 2C       		.uleb128 0x2c
 4915 172d FB040000 		.4byte	.LASF226
 4916 1731 01       		.byte	0x1
 4917 1732 FB01     		.2byte	0x1fb
 4918 1734 D9000000 		.4byte	0xd9
 4919 1738 65020000 		.4byte	.LLST26
 4920 173c 2C       		.uleb128 0x2c
 4921 173d 7C0D0000 		.4byte	.LASF227
 4922 1741 01       		.byte	0x1
 4923 1742 FC01     		.2byte	0x1fc
 4924 1744 D9000000 		.4byte	0xd9
 4925 1748 A1020000 		.4byte	.LLST27
 4926 174c 23       		.uleb128 0x23
ARM GAS  C:\Users\haske\AppData\Local\Temp\ccxlcgkV.s 			page 101


 4927 174d 20000000 		.4byte	.LVL98
 4928 1751 691D0000 		.4byte	0x1d69
 4929 1755 63170000 		.4byte	0x1763
 4930 1759 24       		.uleb128 0x24
 4931 175a 01       		.uleb128 0x1
 4932 175b 50       		.byte	0x50
 4933 175c 05       		.uleb128 0x5
 4934 175d 08       		.byte	0x8
 4935 175e 5A       		.byte	0x5a
 4936 175f 79       		.byte	0x79
 4937 1760 00       		.sleb128 0
 4938 1761 1C       		.byte	0x1c
 4939 1762 00       		.byte	0
 4940 1763 2D       		.uleb128 0x2d
 4941 1764 2C000000 		.4byte	.LVL100
 4942 1768 691D0000 		.4byte	0x1d69
 4943 176c 24       		.uleb128 0x24
 4944 176d 01       		.uleb128 0x1
 4945 176e 50       		.byte	0x50
 4946 176f 02       		.uleb128 0x2
 4947 1770 79       		.byte	0x79
 4948 1771 00       		.sleb128 0
 4949 1772 00       		.byte	0
 4950 1773 00       		.byte	0
 4951 1774 2E       		.uleb128 0x2e
 4952 1775 62070000 		.4byte	.LASF257
 4953 1779 01       		.byte	0x1
 4954 177a 3C       		.byte	0x3c
 4955 177b 00000000 		.4byte	.LFB56
 4956 177f 74030000 		.4byte	.LFE56-.LFB56
 4957 1783 01       		.uleb128 0x1
 4958 1784 9C       		.byte	0x9c
 4959 1785 5E1D0000 		.4byte	0x1d5e
 4960 1789 2F       		.uleb128 0x2f
 4961 178a BB0B0000 		.4byte	.LASF209
 4962 178e 01       		.byte	0x1
 4963 178f 3C       		.byte	0x3c
 4964 1790 320F0000 		.4byte	0xf32
 4965 1794 DD020000 		.4byte	.LLST28
 4966 1798 1E       		.uleb128 0x1e
 4967 1799 64736300 		.ascii	"dsc\000"
 4968 179d 01       		.byte	0x1
 4969 179e 3C       		.byte	0x3c
 4970 179f 5D0D0000 		.4byte	0xd5d
 4971 17a3 09030000 		.4byte	.LLST29
 4972 17a7 2F       		.uleb128 0x2f
 4973 17a8 16040000 		.4byte	.LASF204
 4974 17ac 01       		.byte	0x1
 4975 17ad 3C       		.byte	0x3c
 4976 17ae 680D0000 		.4byte	0xd68
 4977 17b2 35030000 		.4byte	.LLST30
 4978 17b6 2F       		.uleb128 0x2f
 4979 17b7 66000000 		.4byte	.LASF107
 4980 17bb 01       		.byte	0x1
 4981 17bc 3C       		.byte	0x3c
 4982 17bd CE000000 		.4byte	0xce
 4983 17c1 61030000 		.4byte	.LLST31
ARM GAS  C:\Users\haske\AppData\Local\Temp\ccxlcgkV.s 			page 102


 4984 17c5 2F       		.uleb128 0x2f
 4985 17c6 01050000 		.4byte	.LASF96
 4986 17ca 01       		.byte	0x1
 4987 17cb 3D       		.byte	0x3d
 4988 17cc CE000000 		.4byte	0xce
 4989 17d0 82030000 		.4byte	.LLST32
 4990 17d4 2F       		.uleb128 0x2f
 4991 17d5 6E020000 		.4byte	.LASF97
 4992 17d9 01       		.byte	0x1
 4993 17da 3D       		.byte	0x3d
 4994 17db CE000000 		.4byte	0xce
 4995 17df AC030000 		.4byte	.LLST33
 4996 17e3 30       		.uleb128 0x30
 4997 17e4 9F060000 		.4byte	.LASF160
 4998 17e8 01       		.byte	0x1
 4999 17e9 44       		.byte	0x44
 5000 17ea EC010000 		.4byte	0x1ec
 5001 17ee 08040000 		.4byte	.LLST34
 5002 17f2 1F       		.uleb128 0x1f
 5003 17f3 8A030000 		.4byte	.LASF228
 5004 17f7 01       		.byte	0x1
 5005 17f8 47       		.byte	0x47
 5006 17f9 AE080000 		.4byte	0x8ae
 5007 17fd 03       		.uleb128 0x3
 5008 17fe 91       		.byte	0x91
 5009 17ff A07F     		.sleb128 -96
 5010 1801 1F       		.uleb128 0x1f
 5011 1802 65080000 		.4byte	.LASF229
 5012 1806 01       		.byte	0x1
 5013 1807 54       		.byte	0x54
 5014 1808 54020000 		.4byte	0x254
 5015 180c 03       		.uleb128 0x3
 5016 180d 91       		.byte	0x91
 5017 180e 987F     		.sleb128 -104
 5018 1810 1F       		.uleb128 0x1f
 5019 1811 78040000 		.4byte	.LASF230
 5020 1815 01       		.byte	0x1
 5021 1816 5A       		.byte	0x5a
 5022 1817 54020000 		.4byte	0x254
 5023 181b 03       		.uleb128 0x3
 5024 181c 91       		.byte	0x91
 5025 181d 907F     		.sleb128 -112
 5026 181f 30       		.uleb128 0x30
 5027 1820 F40C0000 		.4byte	.LASF231
 5028 1824 01       		.byte	0x1
 5029 1825 62       		.byte	0x62
 5030 1826 C3000000 		.4byte	0xc3
 5031 182a 1B040000 		.4byte	.LLST35
 5032 182e 1F       		.uleb128 0x1f
 5033 182f CE070000 		.4byte	.LASF232
 5034 1833 01       		.byte	0x1
 5035 1834 63       		.byte	0x63
 5036 1835 40070000 		.4byte	0x740
 5037 1839 03       		.uleb128 0x3
 5038 183a 91       		.byte	0x91
 5039 183b F87E     		.sleb128 -136
 5040 183d 30       		.uleb128 0x30
ARM GAS  C:\Users\haske\AppData\Local\Temp\ccxlcgkV.s 			page 103


 5041 183e F6030000 		.4byte	.LASF233
 5042 1842 01       		.byte	0x1
 5043 1843 64       		.byte	0x64
 5044 1844 8A030000 		.4byte	0x38a
 5045 1848 53040000 		.4byte	.LLST36
 5046 184c 1F       		.uleb128 0x1f
 5047 184d B20A0000 		.4byte	.LASF234
 5048 1851 01       		.byte	0x1
 5049 1852 6B       		.byte	0x6b
 5050 1853 40070000 		.4byte	0x740
 5051 1857 03       		.uleb128 0x3
 5052 1858 91       		.byte	0x91
 5053 1859 E07E     		.sleb128 -160
 5054 185b 30       		.uleb128 0x30
 5055 185c 48060000 		.4byte	.LASF235
 5056 1860 01       		.byte	0x1
 5057 1861 6D       		.byte	0x6d
 5058 1862 C3000000 		.4byte	0xc3
 5059 1866 8C040000 		.4byte	.LLST37
 5060 186a 1F       		.uleb128 0x1f
 5061 186b 970C0000 		.4byte	.LASF236
 5062 186f 01       		.byte	0x1
 5063 1870 82       		.byte	0x82
 5064 1871 64060000 		.4byte	0x664
 5065 1875 03       		.uleb128 0x3
 5066 1876 91       		.byte	0x91
 5067 1877 F47D     		.sleb128 -268
 5068 1879 30       		.uleb128 0x30
 5069 187a 2F0B0000 		.4byte	.LASF237
 5070 187e 01       		.byte	0x1
 5071 187f 84       		.byte	0x84
 5072 1880 C3000000 		.4byte	0xc3
 5073 1884 A1040000 		.4byte	.LLST38
 5074 1888 30       		.uleb128 0x30
 5075 1889 AD020000 		.4byte	.LASF238
 5076 188d 01       		.byte	0x1
 5077 188e 86       		.byte	0x86
 5078 188f D9000000 		.4byte	0xd9
 5079 1893 B6040000 		.4byte	.LLST39
 5080 1897 30       		.uleb128 0x30
 5081 1898 31080000 		.4byte	.LASF215
 5082 189c 01       		.byte	0x1
 5083 189d 8E       		.byte	0x8e
 5084 189e 4B070000 		.4byte	0x74b
 5085 18a2 DF040000 		.4byte	.LLST40
 5086 18a6 31       		.uleb128 0x31
 5087 18a7 CA0F0000 		.4byte	0xfca
 5088 18ab C8000000 		.4byte	.LBB28
 5089 18af 08000000 		.4byte	.LBE28-.LBB28
 5090 18b3 01       		.byte	0x1
 5091 18b4 65       		.byte	0x65
 5092 18b5 C3180000 		.4byte	0x18c3
 5093 18b9 32       		.uleb128 0x32
 5094 18ba DA0F0000 		.4byte	0xfda
 5095 18be 23050000 		.4byte	.LLST41
 5096 18c2 00       		.byte	0
 5097 18c3 31       		.uleb128 0x31
ARM GAS  C:\Users\haske\AppData\Local\Temp\ccxlcgkV.s 			page 104


 5098 18c4 09100000 		.4byte	0x1009
 5099 18c8 D4000000 		.4byte	.LBB30
 5100 18cc 06000000 		.4byte	.LBE30-.LBB30
 5101 18d0 01       		.byte	0x1
 5102 18d1 65       		.byte	0x65
 5103 18d2 E0180000 		.4byte	0x18e0
 5104 18d6 32       		.uleb128 0x32
 5105 18d7 19100000 		.4byte	0x1019
 5106 18db 39050000 		.4byte	.LLST42
 5107 18df 00       		.byte	0
 5108 18e0 20       		.uleb128 0x20
 5109 18e1 CA010000 		.4byte	.LBB32
 5110 18e5 56000000 		.4byte	.LBE32-.LBB32
 5111 18e9 4D190000 		.4byte	0x194d
 5112 18ed 1F       		.uleb128 0x1f
 5113 18ee 1D000000 		.4byte	.LASF239
 5114 18f2 01       		.byte	0x1
 5115 18f3 92       		.byte	0x92
 5116 18f4 BF0F0000 		.4byte	0xfbf
 5117 18f8 03       		.uleb128 0x3
 5118 18f9 91       		.byte	0x91
 5119 18fa D87D     		.sleb128 -296
 5120 18fc 23       		.uleb128 0x23
 5121 18fd 0E020000 		.4byte	.LVL154
 5122 1901 25100000 		.4byte	0x1025
 5123 1905 11190000 		.4byte	0x1911
 5124 1909 24       		.uleb128 0x24
 5125 190a 01       		.uleb128 0x1
 5126 190b 50       		.byte	0x50
 5127 190c 03       		.uleb128 0x3
 5128 190d 91       		.byte	0x91
 5129 190e D87D     		.sleb128 -296
 5130 1910 00       		.byte	0
 5131 1911 23       		.uleb128 0x23
 5132 1912 14020000 		.4byte	.LVL155
 5133 1916 C4110000 		.4byte	0x11c4
 5134 191a 26190000 		.4byte	0x1926
 5135 191e 24       		.uleb128 0x24
 5136 191f 01       		.uleb128 0x1
 5137 1920 50       		.byte	0x50
 5138 1921 03       		.uleb128 0x3
 5139 1922 91       		.byte	0x91
 5140 1923 D87D     		.sleb128 -296
 5141 1925 00       		.byte	0
 5142 1926 23       		.uleb128 0x23
 5143 1927 1A020000 		.4byte	.LVL156
 5144 192b 62130000 		.4byte	0x1362
 5145 192f 3B190000 		.4byte	0x193b
 5146 1933 24       		.uleb128 0x24
 5147 1934 01       		.uleb128 0x1
 5148 1935 50       		.byte	0x50
 5149 1936 03       		.uleb128 0x3
 5150 1937 91       		.byte	0x91
 5151 1938 D87D     		.sleb128 -296
 5152 193a 00       		.byte	0
 5153 193b 2D       		.uleb128 0x2d
 5154 193c 20020000 		.4byte	.LVL157
ARM GAS  C:\Users\haske\AppData\Local\Temp\ccxlcgkV.s 			page 105


 5155 1940 00150000 		.4byte	0x1500
 5156 1944 24       		.uleb128 0x24
 5157 1945 01       		.uleb128 0x1
 5158 1946 50       		.byte	0x50
 5159 1947 03       		.uleb128 0x3
 5160 1948 91       		.byte	0x91
 5161 1949 D87D     		.sleb128 -296
 5162 194b 00       		.byte	0
 5163 194c 00       		.byte	0
 5164 194d 20       		.uleb128 0x20
 5165 194e 64020000 		.4byte	.LBB33
 5166 1952 04010000 		.4byte	.LBE33-.LBB33
 5167 1956 6C1B0000 		.4byte	0x1b6c
 5168 195a 1F       		.uleb128 0x1f
 5169 195b 21090000 		.4byte	.LASF240
 5170 195f 01       		.byte	0x1
 5171 1960 B3       		.byte	0xb3
 5172 1961 40070000 		.4byte	0x740
 5173 1965 03       		.uleb128 0x3
 5174 1966 91       		.byte	0x91
 5175 1967 D87D     		.sleb128 -296
 5176 1969 1F       		.uleb128 0x1f
 5177 196a A4090000 		.4byte	.LASF241
 5178 196e 01       		.byte	0x1
 5179 196f B5       		.byte	0xb5
 5180 1970 54020000 		.4byte	0x254
 5181 1974 03       		.uleb128 0x3
 5182 1975 91       		.byte	0x91
 5183 1976 C87D     		.sleb128 -312
 5184 1978 1F       		.uleb128 0x1f
 5185 1979 34030000 		.4byte	.LASF242
 5186 197d 01       		.byte	0x1
 5187 197e BB       		.byte	0xbb
 5188 197f 54020000 		.4byte	0x254
 5189 1983 03       		.uleb128 0x3
 5190 1984 91       		.byte	0x91
 5191 1985 D07D     		.sleb128 -304
 5192 1987 20       		.uleb128 0x20
 5193 1988 B2020000 		.4byte	.LBB34
 5194 198c 34000000 		.4byte	.LBE34-.LBB34
 5195 1990 2D1A0000 		.4byte	0x1a2d
 5196 1994 30       		.uleb128 0x30
 5197 1995 5A040000 		.4byte	.LASF243
 5198 1999 01       		.byte	0x1
 5199 199a BE       		.byte	0xbe
 5200 199b C3000000 		.4byte	0xc3
 5201 199f 4F050000 		.4byte	.LLST43
 5202 19a3 23       		.uleb128 0x23
 5203 19a4 C0020000 		.4byte	.LVL170
 5204 19a8 8A1D0000 		.4byte	0x1d8a
 5205 19ac CB190000 		.4byte	0x19cb
 5206 19b0 24       		.uleb128 0x24
 5207 19b1 01       		.uleb128 0x1
 5208 19b2 50       		.byte	0x50
 5209 19b3 03       		.uleb128 0x3
 5210 19b4 91       		.byte	0x91
 5211 19b5 D87D     		.sleb128 -296
ARM GAS  C:\Users\haske\AppData\Local\Temp\ccxlcgkV.s 			page 106


 5212 19b7 24       		.uleb128 0x24
 5213 19b8 01       		.uleb128 0x1
 5214 19b9 51       		.byte	0x51
 5215 19ba 03       		.uleb128 0x3
 5216 19bb 91       		.byte	0x91
 5217 19bc C87D     		.sleb128 -312
 5218 19be 24       		.uleb128 0x24
 5219 19bf 01       		.uleb128 0x1
 5220 19c0 52       		.byte	0x52
 5221 19c1 03       		.uleb128 0x3
 5222 19c2 0A       		.byte	0xa
 5223 19c3 FF7F     		.2byte	0x7fff
 5224 19c5 24       		.uleb128 0x24
 5225 19c6 01       		.uleb128 0x1
 5226 19c7 53       		.byte	0x53
 5227 19c8 01       		.uleb128 0x1
 5228 19c9 30       		.byte	0x30
 5229 19ca 00       		.byte	0
 5230 19cb 23       		.uleb128 0x23
 5231 19cc C8020000 		.4byte	.LVL171
 5232 19d0 961D0000 		.4byte	0x1d96
 5233 19d4 E5190000 		.4byte	0x19e5
 5234 19d8 24       		.uleb128 0x24
 5235 19d9 01       		.uleb128 0x1
 5236 19da 50       		.byte	0x50
 5237 19db 03       		.uleb128 0x3
 5238 19dc 91       		.byte	0x91
 5239 19dd D87D     		.sleb128 -296
 5240 19df 24       		.uleb128 0x24
 5241 19e0 01       		.uleb128 0x1
 5242 19e1 51       		.byte	0x51
 5243 19e2 01       		.uleb128 0x1
 5244 19e3 30       		.byte	0x30
 5245 19e4 00       		.byte	0
 5246 19e5 23       		.uleb128 0x23
 5247 19e6 DA020000 		.4byte	.LVL173
 5248 19ea 7F1D0000 		.4byte	0x1d7f
 5249 19ee 071A0000 		.4byte	0x1a07
 5250 19f2 24       		.uleb128 0x24
 5251 19f3 01       		.uleb128 0x1
 5252 19f4 50       		.byte	0x50
 5253 19f5 02       		.uleb128 0x2
 5254 19f6 79       		.byte	0x79
 5255 19f7 00       		.sleb128 0
 5256 19f8 24       		.uleb128 0x24
 5257 19f9 01       		.uleb128 0x1
 5258 19fa 51       		.byte	0x51
 5259 19fb 03       		.uleb128 0x3
 5260 19fc 91       		.byte	0x91
 5261 19fd A07F     		.sleb128 -96
 5262 19ff 24       		.uleb128 0x24
 5263 1a00 01       		.uleb128 0x1
 5264 1a01 52       		.byte	0x52
 5265 1a02 03       		.uleb128 0x3
 5266 1a03 91       		.byte	0x91
 5267 1a04 987F     		.sleb128 -104
 5268 1a06 00       		.byte	0
ARM GAS  C:\Users\haske\AppData\Local\Temp\ccxlcgkV.s 			page 107


 5269 1a07 23       		.uleb128 0x23
 5270 1a08 E0020000 		.4byte	.LVL174
 5271 1a0c A11D0000 		.4byte	0x1da1
 5272 1a10 1B1A0000 		.4byte	0x1a1b
 5273 1a14 24       		.uleb128 0x24
 5274 1a15 01       		.uleb128 0x1
 5275 1a16 50       		.byte	0x50
 5276 1a17 02       		.uleb128 0x2
 5277 1a18 74       		.byte	0x74
 5278 1a19 00       		.sleb128 0
 5279 1a1a 00       		.byte	0
 5280 1a1b 2D       		.uleb128 0x2d
 5281 1a1c E6020000 		.4byte	.LVL175
 5282 1a20 AD1D0000 		.4byte	0x1dad
 5283 1a24 24       		.uleb128 0x24
 5284 1a25 01       		.uleb128 0x1
 5285 1a26 50       		.byte	0x50
 5286 1a27 03       		.uleb128 0x3
 5287 1a28 91       		.byte	0x91
 5288 1a29 D87D     		.sleb128 -296
 5289 1a2b 00       		.byte	0
 5290 1a2c 00       		.byte	0
 5291 1a2d 20       		.uleb128 0x20
 5292 1a2e 2E030000 		.4byte	.LBB35
 5293 1a32 34000000 		.4byte	.LBE35-.LBB35
 5294 1a36 D31A0000 		.4byte	0x1ad3
 5295 1a3a 30       		.uleb128 0x30
 5296 1a3b 5A040000 		.4byte	.LASF243
 5297 1a3f 01       		.byte	0x1
 5298 1a40 CD       		.byte	0xcd
 5299 1a41 C3000000 		.4byte	0xc3
 5300 1a45 62050000 		.4byte	.LLST44
 5301 1a49 23       		.uleb128 0x23
 5302 1a4a 3C030000 		.4byte	.LVL178
 5303 1a4e 8A1D0000 		.4byte	0x1d8a
 5304 1a52 711A0000 		.4byte	0x1a71
 5305 1a56 24       		.uleb128 0x24
 5306 1a57 01       		.uleb128 0x1
 5307 1a58 50       		.byte	0x50
 5308 1a59 03       		.uleb128 0x3
 5309 1a5a 91       		.byte	0x91
 5310 1a5b D87D     		.sleb128 -296
 5311 1a5d 24       		.uleb128 0x24
 5312 1a5e 01       		.uleb128 0x1
 5313 1a5f 51       		.byte	0x51
 5314 1a60 03       		.uleb128 0x3
 5315 1a61 91       		.byte	0x91
 5316 1a62 C87D     		.sleb128 -312
 5317 1a64 24       		.uleb128 0x24
 5318 1a65 01       		.uleb128 0x1
 5319 1a66 52       		.byte	0x52
 5320 1a67 03       		.uleb128 0x3
 5321 1a68 0A       		.byte	0xa
 5322 1a69 FF7F     		.2byte	0x7fff
 5323 1a6b 24       		.uleb128 0x24
 5324 1a6c 01       		.uleb128 0x1
 5325 1a6d 53       		.byte	0x53
ARM GAS  C:\Users\haske\AppData\Local\Temp\ccxlcgkV.s 			page 108


 5326 1a6e 01       		.uleb128 0x1
 5327 1a6f 30       		.byte	0x30
 5328 1a70 00       		.byte	0
 5329 1a71 23       		.uleb128 0x23
 5330 1a72 44030000 		.4byte	.LVL179
 5331 1a76 961D0000 		.4byte	0x1d96
 5332 1a7a 8B1A0000 		.4byte	0x1a8b
 5333 1a7e 24       		.uleb128 0x24
 5334 1a7f 01       		.uleb128 0x1
 5335 1a80 50       		.byte	0x50
 5336 1a81 03       		.uleb128 0x3
 5337 1a82 91       		.byte	0x91
 5338 1a83 D87D     		.sleb128 -296
 5339 1a85 24       		.uleb128 0x24
 5340 1a86 01       		.uleb128 0x1
 5341 1a87 51       		.byte	0x51
 5342 1a88 01       		.uleb128 0x1
 5343 1a89 30       		.byte	0x30
 5344 1a8a 00       		.byte	0
 5345 1a8b 23       		.uleb128 0x23
 5346 1a8c 56030000 		.4byte	.LVL181
 5347 1a90 7F1D0000 		.4byte	0x1d7f
 5348 1a94 AD1A0000 		.4byte	0x1aad
 5349 1a98 24       		.uleb128 0x24
 5350 1a99 01       		.uleb128 0x1
 5351 1a9a 50       		.byte	0x50
 5352 1a9b 02       		.uleb128 0x2
 5353 1a9c 79       		.byte	0x79
 5354 1a9d 00       		.sleb128 0
 5355 1a9e 24       		.uleb128 0x24
 5356 1a9f 01       		.uleb128 0x1
 5357 1aa0 51       		.byte	0x51
 5358 1aa1 03       		.uleb128 0x3
 5359 1aa2 91       		.byte	0x91
 5360 1aa3 A07F     		.sleb128 -96
 5361 1aa5 24       		.uleb128 0x24
 5362 1aa6 01       		.uleb128 0x1
 5363 1aa7 52       		.byte	0x52
 5364 1aa8 03       		.uleb128 0x3
 5365 1aa9 91       		.byte	0x91
 5366 1aaa 987F     		.sleb128 -104
 5367 1aac 00       		.byte	0
 5368 1aad 23       		.uleb128 0x23
 5369 1aae 5C030000 		.4byte	.LVL182
 5370 1ab2 A11D0000 		.4byte	0x1da1
 5371 1ab6 C11A0000 		.4byte	0x1ac1
 5372 1aba 24       		.uleb128 0x24
 5373 1abb 01       		.uleb128 0x1
 5374 1abc 50       		.byte	0x50
 5375 1abd 02       		.uleb128 0x2
 5376 1abe 74       		.byte	0x74
 5377 1abf 00       		.sleb128 0
 5378 1ac0 00       		.byte	0
 5379 1ac1 2D       		.uleb128 0x2d
 5380 1ac2 62030000 		.4byte	.LVL183
 5381 1ac6 AD1D0000 		.4byte	0x1dad
 5382 1aca 24       		.uleb128 0x24
ARM GAS  C:\Users\haske\AppData\Local\Temp\ccxlcgkV.s 			page 109


 5383 1acb 01       		.uleb128 0x1
 5384 1acc 50       		.byte	0x50
 5385 1acd 03       		.uleb128 0x3
 5386 1ace 91       		.byte	0x91
 5387 1acf D87D     		.sleb128 -296
 5388 1ad1 00       		.byte	0
 5389 1ad2 00       		.byte	0
 5390 1ad3 23       		.uleb128 0x23
 5391 1ad4 76020000 		.4byte	.LVL168
 5392 1ad8 9E160000 		.4byte	0x169e
 5393 1adc FD1A0000 		.4byte	0x1afd
 5394 1ae0 24       		.uleb128 0x24
 5395 1ae1 01       		.uleb128 0x1
 5396 1ae2 50       		.byte	0x50
 5397 1ae3 05       		.uleb128 0x5
 5398 1ae4 91       		.byte	0x91
 5399 1ae5 C07D     		.sleb128 -320
 5400 1ae7 94       		.byte	0x94
 5401 1ae8 02       		.byte	0x2
 5402 1ae9 24       		.uleb128 0x24
 5403 1aea 01       		.uleb128 0x1
 5404 1aeb 51       		.byte	0x51
 5405 1aec 02       		.uleb128 0x2
 5406 1aed 77       		.byte	0x77
 5407 1aee 00       		.sleb128 0
 5408 1aef 24       		.uleb128 0x24
 5409 1af0 01       		.uleb128 0x1
 5410 1af1 52       		.byte	0x52
 5411 1af2 02       		.uleb128 0x2
 5412 1af3 7A       		.byte	0x7a
 5413 1af4 00       		.sleb128 0
 5414 1af5 24       		.uleb128 0x24
 5415 1af6 01       		.uleb128 0x1
 5416 1af7 53       		.byte	0x53
 5417 1af8 03       		.uleb128 0x3
 5418 1af9 91       		.byte	0x91
 5419 1afa C87D     		.sleb128 -312
 5420 1afc 00       		.byte	0
 5421 1afd 23       		.uleb128 0x23
 5422 1afe B0020000 		.4byte	.LVL169
 5423 1b02 741D0000 		.4byte	0x1d74
 5424 1b06 211B0000 		.4byte	0x1b21
 5425 1b0a 24       		.uleb128 0x24
 5426 1b0b 01       		.uleb128 0x1
 5427 1b0c 50       		.byte	0x50
 5428 1b0d 03       		.uleb128 0x3
 5429 1b0e 91       		.byte	0x91
 5430 1b0f D07D     		.sleb128 -304
 5431 1b11 24       		.uleb128 0x24
 5432 1b12 01       		.uleb128 0x1
 5433 1b13 51       		.byte	0x51
 5434 1b14 04       		.uleb128 0x4
 5435 1b15 91       		.byte	0x91
 5436 1b16 B87D     		.sleb128 -328
 5437 1b18 06       		.byte	0x6
 5438 1b19 24       		.uleb128 0x24
 5439 1b1a 01       		.uleb128 0x1
ARM GAS  C:\Users\haske\AppData\Local\Temp\ccxlcgkV.s 			page 110


 5440 1b1b 52       		.byte	0x52
 5441 1b1c 03       		.uleb128 0x3
 5442 1b1d 91       		.byte	0x91
 5443 1b1e C87D     		.sleb128 -312
 5444 1b20 00       		.byte	0
 5445 1b21 23       		.uleb128 0x23
 5446 1b22 F2020000 		.4byte	.LVL176
 5447 1b26 9E160000 		.4byte	0x169e
 5448 1b2a 4B1B0000 		.4byte	0x1b4b
 5449 1b2e 24       		.uleb128 0x24
 5450 1b2f 01       		.uleb128 0x1
 5451 1b30 50       		.byte	0x50
 5452 1b31 05       		.uleb128 0x5
 5453 1b32 91       		.byte	0x91
 5454 1b33 C47D     		.sleb128 -316
 5455 1b35 94       		.byte	0x94
 5456 1b36 02       		.byte	0x2
 5457 1b37 24       		.uleb128 0x24
 5458 1b38 01       		.uleb128 0x1
 5459 1b39 51       		.byte	0x51
 5460 1b3a 02       		.uleb128 0x2
 5461 1b3b 77       		.byte	0x77
 5462 1b3c 00       		.sleb128 0
 5463 1b3d 24       		.uleb128 0x24
 5464 1b3e 01       		.uleb128 0x1
 5465 1b3f 52       		.byte	0x52
 5466 1b40 02       		.uleb128 0x2
 5467 1b41 7A       		.byte	0x7a
 5468 1b42 00       		.sleb128 0
 5469 1b43 24       		.uleb128 0x24
 5470 1b44 01       		.uleb128 0x1
 5471 1b45 53       		.byte	0x53
 5472 1b46 03       		.uleb128 0x3
 5473 1b47 91       		.byte	0x91
 5474 1b48 C87D     		.sleb128 -312
 5475 1b4a 00       		.byte	0
 5476 1b4b 2D       		.uleb128 0x2d
 5477 1b4c 2C030000 		.4byte	.LVL177
 5478 1b50 741D0000 		.4byte	0x1d74
 5479 1b54 24       		.uleb128 0x24
 5480 1b55 01       		.uleb128 0x1
 5481 1b56 50       		.byte	0x50
 5482 1b57 03       		.uleb128 0x3
 5483 1b58 91       		.byte	0x91
 5484 1b59 D07D     		.sleb128 -304
 5485 1b5b 24       		.uleb128 0x24
 5486 1b5c 01       		.uleb128 0x1
 5487 1b5d 51       		.byte	0x51
 5488 1b5e 04       		.uleb128 0x4
 5489 1b5f 91       		.byte	0x91
 5490 1b60 B87D     		.sleb128 -328
 5491 1b62 06       		.byte	0x6
 5492 1b63 24       		.uleb128 0x24
 5493 1b64 01       		.uleb128 0x1
 5494 1b65 52       		.byte	0x52
 5495 1b66 03       		.uleb128 0x3
 5496 1b67 91       		.byte	0x91
ARM GAS  C:\Users\haske\AppData\Local\Temp\ccxlcgkV.s 			page 111


 5497 1b68 C87D     		.sleb128 -312
 5498 1b6a 00       		.byte	0
 5499 1b6b 00       		.byte	0
 5500 1b6c 23       		.uleb128 0x23
 5501 1b6d 3E000000 		.4byte	.LVL120
 5502 1b71 B91D0000 		.4byte	0x1db9
 5503 1b75 811B0000 		.4byte	0x1b81
 5504 1b79 24       		.uleb128 0x24
 5505 1b7a 01       		.uleb128 0x1
 5506 1b7b 50       		.byte	0x50
 5507 1b7c 03       		.uleb128 0x3
 5508 1b7d 91       		.byte	0x91
 5509 1b7e A07F     		.sleb128 -96
 5510 1b80 00       		.byte	0
 5511 1b81 23       		.uleb128 0x23
 5512 1b82 EC000000 		.4byte	.LVL125
 5513 1b86 8A1D0000 		.4byte	0x1d8a
 5514 1b8a A91B0000 		.4byte	0x1ba9
 5515 1b8e 24       		.uleb128 0x24
 5516 1b8f 01       		.uleb128 0x1
 5517 1b90 50       		.byte	0x50
 5518 1b91 03       		.uleb128 0x3
 5519 1b92 91       		.byte	0x91
 5520 1b93 F87E     		.sleb128 -136
 5521 1b95 24       		.uleb128 0x24
 5522 1b96 01       		.uleb128 0x1
 5523 1b97 51       		.byte	0x51
 5524 1b98 03       		.uleb128 0x3
 5525 1b99 91       		.byte	0x91
 5526 1b9a 907F     		.sleb128 -112
 5527 1b9c 24       		.uleb128 0x24
 5528 1b9d 01       		.uleb128 0x1
 5529 1b9e 52       		.byte	0x52
 5530 1b9f 03       		.uleb128 0x3
 5531 1ba0 0A       		.byte	0xa
 5532 1ba1 FF7F     		.2byte	0x7fff
 5533 1ba3 24       		.uleb128 0x24
 5534 1ba4 01       		.uleb128 0x1
 5535 1ba5 53       		.byte	0x53
 5536 1ba6 01       		.uleb128 0x1
 5537 1ba7 31       		.byte	0x31
 5538 1ba8 00       		.byte	0
 5539 1ba9 23       		.uleb128 0x23
 5540 1baa F4000000 		.4byte	.LVL126
 5541 1bae 961D0000 		.4byte	0x1d96
 5542 1bb2 C31B0000 		.4byte	0x1bc3
 5543 1bb6 24       		.uleb128 0x24
 5544 1bb7 01       		.uleb128 0x1
 5545 1bb8 50       		.byte	0x50
 5546 1bb9 03       		.uleb128 0x3
 5547 1bba 91       		.byte	0x91
 5548 1bbb F87E     		.sleb128 -136
 5549 1bbd 24       		.uleb128 0x24
 5550 1bbe 01       		.uleb128 0x1
 5551 1bbf 51       		.byte	0x51
 5552 1bc0 01       		.uleb128 0x1
 5553 1bc1 30       		.byte	0x30
ARM GAS  C:\Users\haske\AppData\Local\Temp\ccxlcgkV.s 			page 112


 5554 1bc2 00       		.byte	0
 5555 1bc3 23       		.uleb128 0x23
 5556 1bc4 1C010000 		.4byte	.LVL130
 5557 1bc8 8A1D0000 		.4byte	0x1d8a
 5558 1bcc EB1B0000 		.4byte	0x1beb
 5559 1bd0 24       		.uleb128 0x24
 5560 1bd1 01       		.uleb128 0x1
 5561 1bd2 50       		.byte	0x50
 5562 1bd3 03       		.uleb128 0x3
 5563 1bd4 91       		.byte	0x91
 5564 1bd5 E07E     		.sleb128 -160
 5565 1bd7 24       		.uleb128 0x24
 5566 1bd8 01       		.uleb128 0x1
 5567 1bd9 51       		.byte	0x51
 5568 1bda 03       		.uleb128 0x3
 5569 1bdb 91       		.byte	0x91
 5570 1bdc 987F     		.sleb128 -104
 5571 1bde 24       		.uleb128 0x24
 5572 1bdf 01       		.uleb128 0x1
 5573 1be0 52       		.byte	0x52
 5574 1be1 03       		.uleb128 0x3
 5575 1be2 0A       		.byte	0xa
 5576 1be3 FF7F     		.2byte	0x7fff
 5577 1be5 24       		.uleb128 0x24
 5578 1be6 01       		.uleb128 0x1
 5579 1be7 53       		.byte	0x53
 5580 1be8 01       		.uleb128 0x1
 5581 1be9 30       		.byte	0x30
 5582 1bea 00       		.byte	0
 5583 1beb 23       		.uleb128 0x23
 5584 1bec 24010000 		.4byte	.LVL131
 5585 1bf0 961D0000 		.4byte	0x1d96
 5586 1bf4 051C0000 		.4byte	0x1c05
 5587 1bf8 24       		.uleb128 0x24
 5588 1bf9 01       		.uleb128 0x1
 5589 1bfa 50       		.byte	0x50
 5590 1bfb 03       		.uleb128 0x3
 5591 1bfc 91       		.byte	0x91
 5592 1bfd E07E     		.sleb128 -160
 5593 1bff 24       		.uleb128 0x24
 5594 1c00 01       		.uleb128 0x1
 5595 1c01 51       		.byte	0x51
 5596 1c02 01       		.uleb128 0x1
 5597 1c03 30       		.byte	0x30
 5598 1c04 00       		.byte	0
 5599 1c05 23       		.uleb128 0x23
 5600 1c06 48010000 		.4byte	.LVL133
 5601 1c0a 7F1D0000 		.4byte	0x1d7f
 5602 1c0e 271C0000 		.4byte	0x1c27
 5603 1c12 24       		.uleb128 0x24
 5604 1c13 01       		.uleb128 0x1
 5605 1c14 50       		.byte	0x50
 5606 1c15 02       		.uleb128 0x2
 5607 1c16 79       		.byte	0x79
 5608 1c17 00       		.sleb128 0
 5609 1c18 24       		.uleb128 0x24
 5610 1c19 01       		.uleb128 0x1
ARM GAS  C:\Users\haske\AppData\Local\Temp\ccxlcgkV.s 			page 113


 5611 1c1a 51       		.byte	0x51
 5612 1c1b 03       		.uleb128 0x3
 5613 1c1c 91       		.byte	0x91
 5614 1c1d A07F     		.sleb128 -96
 5615 1c1f 24       		.uleb128 0x24
 5616 1c20 01       		.uleb128 0x1
 5617 1c21 52       		.byte	0x52
 5618 1c22 03       		.uleb128 0x3
 5619 1c23 91       		.byte	0x91
 5620 1c24 987F     		.sleb128 -104
 5621 1c26 00       		.byte	0
 5622 1c27 23       		.uleb128 0x23
 5623 1c28 4E010000 		.4byte	.LVL134
 5624 1c2c A11D0000 		.4byte	0x1da1
 5625 1c30 3E1C0000 		.4byte	0x1c3e
 5626 1c34 24       		.uleb128 0x24
 5627 1c35 01       		.uleb128 0x1
 5628 1c36 50       		.byte	0x50
 5629 1c37 05       		.uleb128 0x5
 5630 1c38 91       		.byte	0x91
 5631 1c39 B47D     		.sleb128 -332
 5632 1c3b 94       		.byte	0x94
 5633 1c3c 02       		.byte	0x2
 5634 1c3d 00       		.byte	0
 5635 1c3e 23       		.uleb128 0x23
 5636 1c3f 5A010000 		.4byte	.LVL135
 5637 1c43 A11D0000 		.4byte	0x1da1
 5638 1c47 521C0000 		.4byte	0x1c52
 5639 1c4b 24       		.uleb128 0x24
 5640 1c4c 01       		.uleb128 0x1
 5641 1c4d 50       		.byte	0x50
 5642 1c4e 02       		.uleb128 0x2
 5643 1c4f 7B       		.byte	0x7b
 5644 1c50 00       		.sleb128 0
 5645 1c51 00       		.byte	0
 5646 1c52 23       		.uleb128 0x23
 5647 1c53 60010000 		.4byte	.LVL136
 5648 1c57 AD1D0000 		.4byte	0x1dad
 5649 1c5b 671C0000 		.4byte	0x1c67
 5650 1c5f 24       		.uleb128 0x24
 5651 1c60 01       		.uleb128 0x1
 5652 1c61 50       		.byte	0x50
 5653 1c62 03       		.uleb128 0x3
 5654 1c63 91       		.byte	0x91
 5655 1c64 E07E     		.sleb128 -160
 5656 1c66 00       		.byte	0
 5657 1c67 23       		.uleb128 0x23
 5658 1c68 6E010000 		.4byte	.LVL137
 5659 1c6c AD1D0000 		.4byte	0x1dad
 5660 1c70 7C1C0000 		.4byte	0x1c7c
 5661 1c74 24       		.uleb128 0x24
 5662 1c75 01       		.uleb128 0x1
 5663 1c76 50       		.byte	0x50
 5664 1c77 03       		.uleb128 0x3
 5665 1c78 91       		.byte	0x91
 5666 1c79 F87E     		.sleb128 -136
 5667 1c7b 00       		.byte	0
ARM GAS  C:\Users\haske\AppData\Local\Temp\ccxlcgkV.s 			page 114


 5668 1c7c 23       		.uleb128 0x23
 5669 1c7d A4010000 		.4byte	.LVL144
 5670 1c81 C41D0000 		.4byte	0x1dc4
 5671 1c85 A41C0000 		.4byte	0x1ca4
 5672 1c89 24       		.uleb128 0x24
 5673 1c8a 01       		.uleb128 0x1
 5674 1c8b 50       		.byte	0x50
 5675 1c8c 03       		.uleb128 0x3
 5676 1c8d 91       		.byte	0x91
 5677 1c8e F47D     		.sleb128 -268
 5678 1c90 24       		.uleb128 0x24
 5679 1c91 01       		.uleb128 0x1
 5680 1c92 53       		.byte	0x53
 5681 1c93 05       		.uleb128 0x5
 5682 1c94 91       		.byte	0x91
 5683 1c95 C07D     		.sleb128 -320
 5684 1c97 94       		.byte	0x94
 5685 1c98 02       		.byte	0x2
 5686 1c99 24       		.uleb128 0x24
 5687 1c9a 02       		.uleb128 0x2
 5688 1c9b 7D       		.byte	0x7d
 5689 1c9c 00       		.sleb128 0
 5690 1c9d 05       		.uleb128 0x5
 5691 1c9e 91       		.byte	0x91
 5692 1c9f C47D     		.sleb128 -316
 5693 1ca1 94       		.byte	0x94
 5694 1ca2 02       		.byte	0x2
 5695 1ca3 00       		.byte	0
 5696 1ca4 23       		.uleb128 0x23
 5697 1ca5 AC010000 		.4byte	.LVL145
 5698 1ca9 961D0000 		.4byte	0x1d96
 5699 1cad BE1C0000 		.4byte	0x1cbe
 5700 1cb1 24       		.uleb128 0x24
 5701 1cb2 01       		.uleb128 0x1
 5702 1cb3 50       		.byte	0x50
 5703 1cb4 03       		.uleb128 0x3
 5704 1cb5 91       		.byte	0x91
 5705 1cb6 F47D     		.sleb128 -268
 5706 1cb8 24       		.uleb128 0x24
 5707 1cb9 01       		.uleb128 0x1
 5708 1cba 51       		.byte	0x51
 5709 1cbb 01       		.uleb128 0x1
 5710 1cbc 30       		.byte	0x30
 5711 1cbd 00       		.byte	0
 5712 1cbe 23       		.uleb128 0x23
 5713 1cbf 2C020000 		.4byte	.LVL160
 5714 1cc3 7F1D0000 		.4byte	0x1d7f
 5715 1cc7 E01C0000 		.4byte	0x1ce0
 5716 1ccb 24       		.uleb128 0x24
 5717 1ccc 01       		.uleb128 0x1
 5718 1ccd 50       		.byte	0x50
 5719 1cce 02       		.uleb128 0x2
 5720 1ccf 79       		.byte	0x79
 5721 1cd0 00       		.sleb128 0
 5722 1cd1 24       		.uleb128 0x24
 5723 1cd2 01       		.uleb128 0x1
 5724 1cd3 51       		.byte	0x51
ARM GAS  C:\Users\haske\AppData\Local\Temp\ccxlcgkV.s 			page 115


 5725 1cd4 03       		.uleb128 0x3
 5726 1cd5 91       		.byte	0x91
 5727 1cd6 A07F     		.sleb128 -96
 5728 1cd8 24       		.uleb128 0x24
 5729 1cd9 01       		.uleb128 0x1
 5730 1cda 52       		.byte	0x52
 5731 1cdb 03       		.uleb128 0x3
 5732 1cdc 91       		.byte	0x91
 5733 1cdd 987F     		.sleb128 -104
 5734 1cdf 00       		.byte	0
 5735 1ce0 23       		.uleb128 0x23
 5736 1ce1 32020000 		.4byte	.LVL161
 5737 1ce5 AD1D0000 		.4byte	0x1dad
 5738 1ce9 F51C0000 		.4byte	0x1cf5
 5739 1ced 24       		.uleb128 0x24
 5740 1cee 01       		.uleb128 0x1
 5741 1cef 50       		.byte	0x50
 5742 1cf0 03       		.uleb128 0x3
 5743 1cf1 91       		.byte	0x91
 5744 1cf2 F47D     		.sleb128 -268
 5745 1cf4 00       		.byte	0
 5746 1cf5 23       		.uleb128 0x23
 5747 1cf6 38020000 		.4byte	.LVL162
 5748 1cfa AD1D0000 		.4byte	0x1dad
 5749 1cfe 0A1D0000 		.4byte	0x1d0a
 5750 1d02 24       		.uleb128 0x24
 5751 1d03 01       		.uleb128 0x1
 5752 1d04 50       		.byte	0x50
 5753 1d05 03       		.uleb128 0x3
 5754 1d06 91       		.byte	0x91
 5755 1d07 E07E     		.sleb128 -160
 5756 1d09 00       		.byte	0
 5757 1d0a 23       		.uleb128 0x23
 5758 1d0b 42020000 		.4byte	.LVL163
 5759 1d0f AD1D0000 		.4byte	0x1dad
 5760 1d13 1F1D0000 		.4byte	0x1d1f
 5761 1d17 24       		.uleb128 0x24
 5762 1d18 01       		.uleb128 0x1
 5763 1d19 50       		.byte	0x50
 5764 1d1a 03       		.uleb128 0x3
 5765 1d1b 91       		.byte	0x91
 5766 1d1c F87E     		.sleb128 -136
 5767 1d1e 00       		.byte	0
 5768 1d1f 23       		.uleb128 0x23
 5769 1d20 48020000 		.4byte	.LVL164
 5770 1d24 A11D0000 		.4byte	0x1da1
 5771 1d28 361D0000 		.4byte	0x1d36
 5772 1d2c 24       		.uleb128 0x24
 5773 1d2d 01       		.uleb128 0x1
 5774 1d2e 50       		.byte	0x50
 5775 1d2f 05       		.uleb128 0x5
 5776 1d30 91       		.byte	0x91
 5777 1d31 BC7D     		.sleb128 -324
 5778 1d33 94       		.byte	0x94
 5779 1d34 02       		.byte	0x2
 5780 1d35 00       		.byte	0
 5781 1d36 23       		.uleb128 0x23
ARM GAS  C:\Users\haske\AppData\Local\Temp\ccxlcgkV.s 			page 116


 5782 1d37 4E020000 		.4byte	.LVL165
 5783 1d3b A11D0000 		.4byte	0x1da1
 5784 1d3f 4D1D0000 		.4byte	0x1d4d
 5785 1d43 24       		.uleb128 0x24
 5786 1d44 01       		.uleb128 0x1
 5787 1d45 50       		.byte	0x50
 5788 1d46 05       		.uleb128 0x5
 5789 1d47 91       		.byte	0x91
 5790 1d48 B47D     		.sleb128 -332
 5791 1d4a 94       		.byte	0x94
 5792 1d4b 02       		.byte	0x2
 5793 1d4c 00       		.byte	0
 5794 1d4d 2D       		.uleb128 0x2d
 5795 1d4e 5A020000 		.4byte	.LVL166
 5796 1d52 A11D0000 		.4byte	0x1da1
 5797 1d56 24       		.uleb128 0x24
 5798 1d57 01       		.uleb128 0x1
 5799 1d58 50       		.byte	0x50
 5800 1d59 02       		.uleb128 0x2
 5801 1d5a 7B       		.byte	0x7b
 5802 1d5b 00       		.sleb128 0
 5803 1d5c 00       		.byte	0
 5804 1d5d 00       		.byte	0
 5805 1d5e 33       		.uleb128 0x33
 5806 1d5f F10A0000 		.4byte	.LASF258
 5807 1d63 08       		.byte	0x8
 5808 1d64 94       		.byte	0x94
 5809 1d65 8E090000 		.4byte	0x98e
 5810 1d69 34       		.uleb128 0x34
 5811 1d6a F2000000 		.4byte	.LASF244
 5812 1d6e F2000000 		.4byte	.LASF244
 5813 1d72 15       		.byte	0x15
 5814 1d73 2F       		.byte	0x2f
 5815 1d74 34       		.uleb128 0x34
 5816 1d75 32040000 		.4byte	.LASF245
 5817 1d79 32040000 		.4byte	.LASF245
 5818 1d7d 02       		.byte	0x2
 5819 1d7e B2       		.byte	0xb2
 5820 1d7f 34       		.uleb128 0x34
 5821 1d80 C2080000 		.4byte	.LASF246
 5822 1d84 C2080000 		.4byte	.LASF246
 5823 1d88 0E       		.byte	0xe
 5824 1d89 56       		.byte	0x56
 5825 1d8a 35       		.uleb128 0x35
 5826 1d8b 310A0000 		.4byte	.LASF247
 5827 1d8f 310A0000 		.4byte	.LASF247
 5828 1d93 0C       		.byte	0xc
 5829 1d94 6701     		.2byte	0x167
 5830 1d96 34       		.uleb128 0x34
 5831 1d97 D3060000 		.4byte	.LASF248
 5832 1d9b D3060000 		.4byte	.LASF248
 5833 1d9f 0C       		.byte	0xc
 5834 1da0 E5       		.byte	0xe5
 5835 1da1 35       		.uleb128 0x35
 5836 1da2 A5060000 		.4byte	.LASF249
 5837 1da6 A5060000 		.4byte	.LASF249
 5838 1daa 0C       		.byte	0xc
ARM GAS  C:\Users\haske\AppData\Local\Temp\ccxlcgkV.s 			page 117


 5839 1dab 0F01     		.2byte	0x10f
 5840 1dad 35       		.uleb128 0x35
 5841 1dae FF0C0000 		.4byte	.LASF250
 5842 1db2 FF0C0000 		.4byte	.LASF250
 5843 1db6 0C       		.byte	0xc
 5844 1db7 2001     		.2byte	0x120
 5845 1db9 34       		.uleb128 0x34
 5846 1dba 80040000 		.4byte	.LASF251
 5847 1dbe 80040000 		.4byte	.LASF251
 5848 1dc2 0E       		.byte	0xe
 5849 1dc3 4D       		.byte	0x4d
 5850 1dc4 35       		.uleb128 0x35
 5851 1dc5 B2040000 		.4byte	.LASF252
 5852 1dc9 B2040000 		.4byte	.LASF252
 5853 1dcd 0C       		.byte	0xc
 5854 1dce 5D01     		.2byte	0x15d
 5855 1dd0 00       		.byte	0
 5856              		.section	.debug_abbrev,"",%progbits
 5857              	.Ldebug_abbrev0:
 5858 0000 01       		.uleb128 0x1
 5859 0001 11       		.uleb128 0x11
 5860 0002 01       		.byte	0x1
 5861 0003 25       		.uleb128 0x25
 5862 0004 0E       		.uleb128 0xe
 5863 0005 13       		.uleb128 0x13
 5864 0006 0B       		.uleb128 0xb
 5865 0007 03       		.uleb128 0x3
 5866 0008 0E       		.uleb128 0xe
 5867 0009 1B       		.uleb128 0x1b
 5868 000a 0E       		.uleb128 0xe
 5869 000b 55       		.uleb128 0x55
 5870 000c 17       		.uleb128 0x17
 5871 000d 11       		.uleb128 0x11
 5872 000e 01       		.uleb128 0x1
 5873 000f 10       		.uleb128 0x10
 5874 0010 17       		.uleb128 0x17
 5875 0011 00       		.byte	0
 5876 0012 00       		.byte	0
 5877 0013 02       		.uleb128 0x2
 5878 0014 16       		.uleb128 0x16
 5879 0015 00       		.byte	0
 5880 0016 03       		.uleb128 0x3
 5881 0017 0E       		.uleb128 0xe
 5882 0018 3A       		.uleb128 0x3a
 5883 0019 0B       		.uleb128 0xb
 5884 001a 3B       		.uleb128 0x3b
 5885 001b 0B       		.uleb128 0xb
 5886 001c 49       		.uleb128 0x49
 5887 001d 13       		.uleb128 0x13
 5888 001e 00       		.byte	0
 5889 001f 00       		.byte	0
 5890 0020 03       		.uleb128 0x3
 5891 0021 24       		.uleb128 0x24
 5892 0022 00       		.byte	0
 5893 0023 0B       		.uleb128 0xb
 5894 0024 0B       		.uleb128 0xb
 5895 0025 3E       		.uleb128 0x3e
ARM GAS  C:\Users\haske\AppData\Local\Temp\ccxlcgkV.s 			page 118


 5896 0026 0B       		.uleb128 0xb
 5897 0027 03       		.uleb128 0x3
 5898 0028 0E       		.uleb128 0xe
 5899 0029 00       		.byte	0
 5900 002a 00       		.byte	0
 5901 002b 04       		.uleb128 0x4
 5902 002c 24       		.uleb128 0x24
 5903 002d 00       		.byte	0
 5904 002e 0B       		.uleb128 0xb
 5905 002f 0B       		.uleb128 0xb
 5906 0030 3E       		.uleb128 0x3e
 5907 0031 0B       		.uleb128 0xb
 5908 0032 03       		.uleb128 0x3
 5909 0033 08       		.uleb128 0x8
 5910 0034 00       		.byte	0
 5911 0035 00       		.byte	0
 5912 0036 05       		.uleb128 0x5
 5913 0037 0F       		.uleb128 0xf
 5914 0038 00       		.byte	0
 5915 0039 0B       		.uleb128 0xb
 5916 003a 0B       		.uleb128 0xb
 5917 003b 00       		.byte	0
 5918 003c 00       		.byte	0
 5919 003d 06       		.uleb128 0x6
 5920 003e 04       		.uleb128 0x4
 5921 003f 01       		.byte	0x1
 5922 0040 0B       		.uleb128 0xb
 5923 0041 0B       		.uleb128 0xb
 5924 0042 49       		.uleb128 0x49
 5925 0043 13       		.uleb128 0x13
 5926 0044 3A       		.uleb128 0x3a
 5927 0045 0B       		.uleb128 0xb
 5928 0046 3B       		.uleb128 0x3b
 5929 0047 0B       		.uleb128 0xb
 5930 0048 01       		.uleb128 0x1
 5931 0049 13       		.uleb128 0x13
 5932 004a 00       		.byte	0
 5933 004b 00       		.byte	0
 5934 004c 07       		.uleb128 0x7
 5935 004d 28       		.uleb128 0x28
 5936 004e 00       		.byte	0
 5937 004f 03       		.uleb128 0x3
 5938 0050 0E       		.uleb128 0xe
 5939 0051 1C       		.uleb128 0x1c
 5940 0052 0B       		.uleb128 0xb
 5941 0053 00       		.byte	0
 5942 0054 00       		.byte	0
 5943 0055 08       		.uleb128 0x8
 5944 0056 13       		.uleb128 0x13
 5945 0057 01       		.byte	0x1
 5946 0058 0B       		.uleb128 0xb
 5947 0059 0B       		.uleb128 0xb
 5948 005a 3A       		.uleb128 0x3a
 5949 005b 0B       		.uleb128 0xb
 5950 005c 3B       		.uleb128 0x3b
 5951 005d 0B       		.uleb128 0xb
 5952 005e 01       		.uleb128 0x1
ARM GAS  C:\Users\haske\AppData\Local\Temp\ccxlcgkV.s 			page 119


 5953 005f 13       		.uleb128 0x13
 5954 0060 00       		.byte	0
 5955 0061 00       		.byte	0
 5956 0062 09       		.uleb128 0x9
 5957 0063 0D       		.uleb128 0xd
 5958 0064 00       		.byte	0
 5959 0065 03       		.uleb128 0x3
 5960 0066 0E       		.uleb128 0xe
 5961 0067 3A       		.uleb128 0x3a
 5962 0068 0B       		.uleb128 0xb
 5963 0069 3B       		.uleb128 0x3b
 5964 006a 0B       		.uleb128 0xb
 5965 006b 49       		.uleb128 0x49
 5966 006c 13       		.uleb128 0x13
 5967 006d 0B       		.uleb128 0xb
 5968 006e 0B       		.uleb128 0xb
 5969 006f 0D       		.uleb128 0xd
 5970 0070 0B       		.uleb128 0xb
 5971 0071 0C       		.uleb128 0xc
 5972 0072 0B       		.uleb128 0xb
 5973 0073 38       		.uleb128 0x38
 5974 0074 0B       		.uleb128 0xb
 5975 0075 00       		.byte	0
 5976 0076 00       		.byte	0
 5977 0077 0A       		.uleb128 0xa
 5978 0078 0D       		.uleb128 0xd
 5979 0079 00       		.byte	0
 5980 007a 03       		.uleb128 0x3
 5981 007b 08       		.uleb128 0x8
 5982 007c 3A       		.uleb128 0x3a
 5983 007d 0B       		.uleb128 0xb
 5984 007e 3B       		.uleb128 0x3b
 5985 007f 0B       		.uleb128 0xb
 5986 0080 49       		.uleb128 0x49
 5987 0081 13       		.uleb128 0x13
 5988 0082 0B       		.uleb128 0xb
 5989 0083 0B       		.uleb128 0xb
 5990 0084 0D       		.uleb128 0xd
 5991 0085 0B       		.uleb128 0xb
 5992 0086 0C       		.uleb128 0xc
 5993 0087 0B       		.uleb128 0xb
 5994 0088 38       		.uleb128 0x38
 5995 0089 0B       		.uleb128 0xb
 5996 008a 00       		.byte	0
 5997 008b 00       		.byte	0
 5998 008c 0B       		.uleb128 0xb
 5999 008d 17       		.uleb128 0x17
 6000 008e 01       		.byte	0x1
 6001 008f 0B       		.uleb128 0xb
 6002 0090 0B       		.uleb128 0xb
 6003 0091 3A       		.uleb128 0x3a
 6004 0092 0B       		.uleb128 0xb
 6005 0093 3B       		.uleb128 0x3b
 6006 0094 0B       		.uleb128 0xb
 6007 0095 01       		.uleb128 0x1
 6008 0096 13       		.uleb128 0x13
 6009 0097 00       		.byte	0
ARM GAS  C:\Users\haske\AppData\Local\Temp\ccxlcgkV.s 			page 120


 6010 0098 00       		.byte	0
 6011 0099 0C       		.uleb128 0xc
 6012 009a 0D       		.uleb128 0xd
 6013 009b 00       		.byte	0
 6014 009c 03       		.uleb128 0x3
 6015 009d 08       		.uleb128 0x8
 6016 009e 3A       		.uleb128 0x3a
 6017 009f 0B       		.uleb128 0xb
 6018 00a0 3B       		.uleb128 0x3b
 6019 00a1 0B       		.uleb128 0xb
 6020 00a2 49       		.uleb128 0x49
 6021 00a3 13       		.uleb128 0x13
 6022 00a4 00       		.byte	0
 6023 00a5 00       		.byte	0
 6024 00a6 0D       		.uleb128 0xd
 6025 00a7 0D       		.uleb128 0xd
 6026 00a8 00       		.byte	0
 6027 00a9 03       		.uleb128 0x3
 6028 00aa 0E       		.uleb128 0xe
 6029 00ab 3A       		.uleb128 0x3a
 6030 00ac 0B       		.uleb128 0xb
 6031 00ad 3B       		.uleb128 0x3b
 6032 00ae 0B       		.uleb128 0xb
 6033 00af 49       		.uleb128 0x49
 6034 00b0 13       		.uleb128 0x13
 6035 00b1 00       		.byte	0
 6036 00b2 00       		.byte	0
 6037 00b3 0E       		.uleb128 0xe
 6038 00b4 0D       		.uleb128 0xd
 6039 00b5 00       		.byte	0
 6040 00b6 03       		.uleb128 0x3
 6041 00b7 08       		.uleb128 0x8
 6042 00b8 3A       		.uleb128 0x3a
 6043 00b9 0B       		.uleb128 0xb
 6044 00ba 3B       		.uleb128 0x3b
 6045 00bb 0B       		.uleb128 0xb
 6046 00bc 49       		.uleb128 0x49
 6047 00bd 13       		.uleb128 0x13
 6048 00be 38       		.uleb128 0x38
 6049 00bf 0B       		.uleb128 0xb
 6050 00c0 00       		.byte	0
 6051 00c1 00       		.byte	0
 6052 00c2 0F       		.uleb128 0xf
 6053 00c3 0D       		.uleb128 0xd
 6054 00c4 00       		.byte	0
 6055 00c5 03       		.uleb128 0x3
 6056 00c6 0E       		.uleb128 0xe
 6057 00c7 3A       		.uleb128 0x3a
 6058 00c8 0B       		.uleb128 0xb
 6059 00c9 3B       		.uleb128 0x3b
 6060 00ca 0B       		.uleb128 0xb
 6061 00cb 49       		.uleb128 0x49
 6062 00cc 13       		.uleb128 0x13
 6063 00cd 38       		.uleb128 0x38
 6064 00ce 0B       		.uleb128 0xb
 6065 00cf 00       		.byte	0
 6066 00d0 00       		.byte	0
ARM GAS  C:\Users\haske\AppData\Local\Temp\ccxlcgkV.s 			page 121


 6067 00d1 10       		.uleb128 0x10
 6068 00d2 13       		.uleb128 0x13
 6069 00d3 01       		.byte	0x1
 6070 00d4 03       		.uleb128 0x3
 6071 00d5 0E       		.uleb128 0xe
 6072 00d6 0B       		.uleb128 0xb
 6073 00d7 0B       		.uleb128 0xb
 6074 00d8 3A       		.uleb128 0x3a
 6075 00d9 0B       		.uleb128 0xb
 6076 00da 3B       		.uleb128 0x3b
 6077 00db 0B       		.uleb128 0xb
 6078 00dc 01       		.uleb128 0x1
 6079 00dd 13       		.uleb128 0x13
 6080 00de 00       		.byte	0
 6081 00df 00       		.byte	0
 6082 00e0 11       		.uleb128 0x11
 6083 00e1 0F       		.uleb128 0xf
 6084 00e2 00       		.byte	0
 6085 00e3 0B       		.uleb128 0xb
 6086 00e4 0B       		.uleb128 0xb
 6087 00e5 49       		.uleb128 0x49
 6088 00e6 13       		.uleb128 0x13
 6089 00e7 00       		.byte	0
 6090 00e8 00       		.byte	0
 6091 00e9 12       		.uleb128 0x12
 6092 00ea 26       		.uleb128 0x26
 6093 00eb 00       		.byte	0
 6094 00ec 49       		.uleb128 0x49
 6095 00ed 13       		.uleb128 0x13
 6096 00ee 00       		.byte	0
 6097 00ef 00       		.byte	0
 6098 00f0 13       		.uleb128 0x13
 6099 00f1 15       		.uleb128 0x15
 6100 00f2 01       		.byte	0x1
 6101 00f3 27       		.uleb128 0x27
 6102 00f4 19       		.uleb128 0x19
 6103 00f5 49       		.uleb128 0x49
 6104 00f6 13       		.uleb128 0x13
 6105 00f7 01       		.uleb128 0x1
 6106 00f8 13       		.uleb128 0x13
 6107 00f9 00       		.byte	0
 6108 00fa 00       		.byte	0
 6109 00fb 14       		.uleb128 0x14
 6110 00fc 05       		.uleb128 0x5
 6111 00fd 00       		.byte	0
 6112 00fe 49       		.uleb128 0x49
 6113 00ff 13       		.uleb128 0x13
 6114 0100 00       		.byte	0
 6115 0101 00       		.byte	0
 6116 0102 15       		.uleb128 0x15
 6117 0103 26       		.uleb128 0x26
 6118 0104 00       		.byte	0
 6119 0105 00       		.byte	0
 6120 0106 00       		.byte	0
 6121 0107 16       		.uleb128 0x16
 6122 0108 01       		.uleb128 0x1
 6123 0109 01       		.byte	0x1
ARM GAS  C:\Users\haske\AppData\Local\Temp\ccxlcgkV.s 			page 122


 6124 010a 49       		.uleb128 0x49
 6125 010b 13       		.uleb128 0x13
 6126 010c 01       		.uleb128 0x1
 6127 010d 13       		.uleb128 0x13
 6128 010e 00       		.byte	0
 6129 010f 00       		.byte	0
 6130 0110 17       		.uleb128 0x17
 6131 0111 21       		.uleb128 0x21
 6132 0112 00       		.byte	0
 6133 0113 49       		.uleb128 0x49
 6134 0114 13       		.uleb128 0x13
 6135 0115 2F       		.uleb128 0x2f
 6136 0116 0B       		.uleb128 0xb
 6137 0117 00       		.byte	0
 6138 0118 00       		.byte	0
 6139 0119 18       		.uleb128 0x18
 6140 011a 15       		.uleb128 0x15
 6141 011b 01       		.byte	0x1
 6142 011c 27       		.uleb128 0x27
 6143 011d 19       		.uleb128 0x19
 6144 011e 01       		.uleb128 0x1
 6145 011f 13       		.uleb128 0x13
 6146 0120 00       		.byte	0
 6147 0121 00       		.byte	0
 6148 0122 19       		.uleb128 0x19
 6149 0123 2E       		.uleb128 0x2e
 6150 0124 01       		.byte	0x1
 6151 0125 03       		.uleb128 0x3
 6152 0126 0E       		.uleb128 0xe
 6153 0127 3A       		.uleb128 0x3a
 6154 0128 0B       		.uleb128 0xb
 6155 0129 3B       		.uleb128 0x3b
 6156 012a 0B       		.uleb128 0xb
 6157 012b 27       		.uleb128 0x27
 6158 012c 19       		.uleb128 0x19
 6159 012d 49       		.uleb128 0x49
 6160 012e 13       		.uleb128 0x13
 6161 012f 20       		.uleb128 0x20
 6162 0130 0B       		.uleb128 0xb
 6163 0131 01       		.uleb128 0x1
 6164 0132 13       		.uleb128 0x13
 6165 0133 00       		.byte	0
 6166 0134 00       		.byte	0
 6167 0135 1A       		.uleb128 0x1a
 6168 0136 05       		.uleb128 0x5
 6169 0137 00       		.byte	0
 6170 0138 03       		.uleb128 0x3
 6171 0139 0E       		.uleb128 0xe
 6172 013a 3A       		.uleb128 0x3a
 6173 013b 0B       		.uleb128 0xb
 6174 013c 3B       		.uleb128 0x3b
 6175 013d 0B       		.uleb128 0xb
 6176 013e 49       		.uleb128 0x49
 6177 013f 13       		.uleb128 0x13
 6178 0140 00       		.byte	0
 6179 0141 00       		.byte	0
 6180 0142 1B       		.uleb128 0x1b
ARM GAS  C:\Users\haske\AppData\Local\Temp\ccxlcgkV.s 			page 123


 6181 0143 2E       		.uleb128 0x2e
 6182 0144 01       		.byte	0x1
 6183 0145 03       		.uleb128 0x3
 6184 0146 0E       		.uleb128 0xe
 6185 0147 3A       		.uleb128 0x3a
 6186 0148 0B       		.uleb128 0xb
 6187 0149 3B       		.uleb128 0x3b
 6188 014a 0B       		.uleb128 0xb
 6189 014b 27       		.uleb128 0x27
 6190 014c 19       		.uleb128 0x19
 6191 014d 20       		.uleb128 0x20
 6192 014e 0B       		.uleb128 0xb
 6193 014f 01       		.uleb128 0x1
 6194 0150 13       		.uleb128 0x13
 6195 0151 00       		.byte	0
 6196 0152 00       		.byte	0
 6197 0153 1C       		.uleb128 0x1c
 6198 0154 05       		.uleb128 0x5
 6199 0155 00       		.byte	0
 6200 0156 03       		.uleb128 0x3
 6201 0157 08       		.uleb128 0x8
 6202 0158 3A       		.uleb128 0x3a
 6203 0159 0B       		.uleb128 0xb
 6204 015a 3B       		.uleb128 0x3b
 6205 015b 0B       		.uleb128 0xb
 6206 015c 49       		.uleb128 0x49
 6207 015d 13       		.uleb128 0x13
 6208 015e 00       		.byte	0
 6209 015f 00       		.byte	0
 6210 0160 1D       		.uleb128 0x1d
 6211 0161 2E       		.uleb128 0x2e
 6212 0162 01       		.byte	0x1
 6213 0163 03       		.uleb128 0x3
 6214 0164 0E       		.uleb128 0xe
 6215 0165 3A       		.uleb128 0x3a
 6216 0166 0B       		.uleb128 0xb
 6217 0167 3B       		.uleb128 0x3b
 6218 0168 0B       		.uleb128 0xb
 6219 0169 27       		.uleb128 0x27
 6220 016a 19       		.uleb128 0x19
 6221 016b 11       		.uleb128 0x11
 6222 016c 01       		.uleb128 0x1
 6223 016d 12       		.uleb128 0x12
 6224 016e 06       		.uleb128 0x6
 6225 016f 40       		.uleb128 0x40
 6226 0170 18       		.uleb128 0x18
 6227 0171 9742     		.uleb128 0x2117
 6228 0173 19       		.uleb128 0x19
 6229 0174 01       		.uleb128 0x1
 6230 0175 13       		.uleb128 0x13
 6231 0176 00       		.byte	0
 6232 0177 00       		.byte	0
 6233 0178 1E       		.uleb128 0x1e
 6234 0179 05       		.uleb128 0x5
 6235 017a 00       		.byte	0
 6236 017b 03       		.uleb128 0x3
 6237 017c 08       		.uleb128 0x8
ARM GAS  C:\Users\haske\AppData\Local\Temp\ccxlcgkV.s 			page 124


 6238 017d 3A       		.uleb128 0x3a
 6239 017e 0B       		.uleb128 0xb
 6240 017f 3B       		.uleb128 0x3b
 6241 0180 0B       		.uleb128 0xb
 6242 0181 49       		.uleb128 0x49
 6243 0182 13       		.uleb128 0x13
 6244 0183 02       		.uleb128 0x2
 6245 0184 17       		.uleb128 0x17
 6246 0185 00       		.byte	0
 6247 0186 00       		.byte	0
 6248 0187 1F       		.uleb128 0x1f
 6249 0188 34       		.uleb128 0x34
 6250 0189 00       		.byte	0
 6251 018a 03       		.uleb128 0x3
 6252 018b 0E       		.uleb128 0xe
 6253 018c 3A       		.uleb128 0x3a
 6254 018d 0B       		.uleb128 0xb
 6255 018e 3B       		.uleb128 0x3b
 6256 018f 0B       		.uleb128 0xb
 6257 0190 49       		.uleb128 0x49
 6258 0191 13       		.uleb128 0x13
 6259 0192 02       		.uleb128 0x2
 6260 0193 18       		.uleb128 0x18
 6261 0194 00       		.byte	0
 6262 0195 00       		.byte	0
 6263 0196 20       		.uleb128 0x20
 6264 0197 0B       		.uleb128 0xb
 6265 0198 01       		.byte	0x1
 6266 0199 11       		.uleb128 0x11
 6267 019a 01       		.uleb128 0x1
 6268 019b 12       		.uleb128 0x12
 6269 019c 06       		.uleb128 0x6
 6270 019d 01       		.uleb128 0x1
 6271 019e 13       		.uleb128 0x13
 6272 019f 00       		.byte	0
 6273 01a0 00       		.byte	0
 6274 01a1 21       		.uleb128 0x21
 6275 01a2 34       		.uleb128 0x34
 6276 01a3 00       		.byte	0
 6277 01a4 03       		.uleb128 0x3
 6278 01a5 08       		.uleb128 0x8
 6279 01a6 3A       		.uleb128 0x3a
 6280 01a7 0B       		.uleb128 0xb
 6281 01a8 3B       		.uleb128 0x3b
 6282 01a9 0B       		.uleb128 0xb
 6283 01aa 49       		.uleb128 0x49
 6284 01ab 13       		.uleb128 0x13
 6285 01ac 02       		.uleb128 0x2
 6286 01ad 17       		.uleb128 0x17
 6287 01ae 00       		.byte	0
 6288 01af 00       		.byte	0
 6289 01b0 22       		.uleb128 0x22
 6290 01b1 898201   		.uleb128 0x4109
 6291 01b4 00       		.byte	0
 6292 01b5 11       		.uleb128 0x11
 6293 01b6 01       		.uleb128 0x1
 6294 01b7 31       		.uleb128 0x31
ARM GAS  C:\Users\haske\AppData\Local\Temp\ccxlcgkV.s 			page 125


 6295 01b8 13       		.uleb128 0x13
 6296 01b9 00       		.byte	0
 6297 01ba 00       		.byte	0
 6298 01bb 23       		.uleb128 0x23
 6299 01bc 898201   		.uleb128 0x4109
 6300 01bf 01       		.byte	0x1
 6301 01c0 11       		.uleb128 0x11
 6302 01c1 01       		.uleb128 0x1
 6303 01c2 31       		.uleb128 0x31
 6304 01c3 13       		.uleb128 0x13
 6305 01c4 01       		.uleb128 0x1
 6306 01c5 13       		.uleb128 0x13
 6307 01c6 00       		.byte	0
 6308 01c7 00       		.byte	0
 6309 01c8 24       		.uleb128 0x24
 6310 01c9 8A8201   		.uleb128 0x410a
 6311 01cc 00       		.byte	0
 6312 01cd 02       		.uleb128 0x2
 6313 01ce 18       		.uleb128 0x18
 6314 01cf 9142     		.uleb128 0x2111
 6315 01d1 18       		.uleb128 0x18
 6316 01d2 00       		.byte	0
 6317 01d3 00       		.byte	0
 6318 01d4 25       		.uleb128 0x25
 6319 01d5 34       		.uleb128 0x34
 6320 01d6 00       		.byte	0
 6321 01d7 03       		.uleb128 0x3
 6322 01d8 08       		.uleb128 0x8
 6323 01d9 3A       		.uleb128 0x3a
 6324 01da 0B       		.uleb128 0xb
 6325 01db 3B       		.uleb128 0x3b
 6326 01dc 05       		.uleb128 0x5
 6327 01dd 49       		.uleb128 0x49
 6328 01de 13       		.uleb128 0x13
 6329 01df 02       		.uleb128 0x2
 6330 01e0 17       		.uleb128 0x17
 6331 01e1 00       		.byte	0
 6332 01e2 00       		.byte	0
 6333 01e3 26       		.uleb128 0x26
 6334 01e4 0B       		.uleb128 0xb
 6335 01e5 01       		.byte	0x1
 6336 01e6 11       		.uleb128 0x11
 6337 01e7 01       		.uleb128 0x1
 6338 01e8 12       		.uleb128 0x12
 6339 01e9 06       		.uleb128 0x6
 6340 01ea 00       		.byte	0
 6341 01eb 00       		.byte	0
 6342 01ec 27       		.uleb128 0x27
 6343 01ed 2E       		.uleb128 0x2e
 6344 01ee 01       		.byte	0x1
 6345 01ef 03       		.uleb128 0x3
 6346 01f0 0E       		.uleb128 0xe
 6347 01f1 3A       		.uleb128 0x3a
 6348 01f2 0B       		.uleb128 0xb
 6349 01f3 3B       		.uleb128 0x3b
 6350 01f4 05       		.uleb128 0x5
 6351 01f5 27       		.uleb128 0x27
ARM GAS  C:\Users\haske\AppData\Local\Temp\ccxlcgkV.s 			page 126


 6352 01f6 19       		.uleb128 0x19
 6353 01f7 11       		.uleb128 0x11
 6354 01f8 01       		.uleb128 0x1
 6355 01f9 12       		.uleb128 0x12
 6356 01fa 06       		.uleb128 0x6
 6357 01fb 40       		.uleb128 0x40
 6358 01fc 18       		.uleb128 0x18
 6359 01fd 9742     		.uleb128 0x2117
 6360 01ff 19       		.uleb128 0x19
 6361 0200 01       		.uleb128 0x1
 6362 0201 13       		.uleb128 0x13
 6363 0202 00       		.byte	0
 6364 0203 00       		.byte	0
 6365 0204 28       		.uleb128 0x28
 6366 0205 05       		.uleb128 0x5
 6367 0206 00       		.byte	0
 6368 0207 03       		.uleb128 0x3
 6369 0208 08       		.uleb128 0x8
 6370 0209 3A       		.uleb128 0x3a
 6371 020a 0B       		.uleb128 0xb
 6372 020b 3B       		.uleb128 0x3b
 6373 020c 05       		.uleb128 0x5
 6374 020d 49       		.uleb128 0x49
 6375 020e 13       		.uleb128 0x13
 6376 020f 02       		.uleb128 0x2
 6377 0210 17       		.uleb128 0x17
 6378 0211 00       		.byte	0
 6379 0212 00       		.byte	0
 6380 0213 29       		.uleb128 0x29
 6381 0214 34       		.uleb128 0x34
 6382 0215 00       		.byte	0
 6383 0216 03       		.uleb128 0x3
 6384 0217 0E       		.uleb128 0xe
 6385 0218 3A       		.uleb128 0x3a
 6386 0219 0B       		.uleb128 0xb
 6387 021a 3B       		.uleb128 0x3b
 6388 021b 05       		.uleb128 0x5
 6389 021c 49       		.uleb128 0x49
 6390 021d 13       		.uleb128 0x13
 6391 021e 02       		.uleb128 0x2
 6392 021f 18       		.uleb128 0x18
 6393 0220 00       		.byte	0
 6394 0221 00       		.byte	0
 6395 0222 2A       		.uleb128 0x2a
 6396 0223 05       		.uleb128 0x5
 6397 0224 00       		.byte	0
 6398 0225 03       		.uleb128 0x3
 6399 0226 0E       		.uleb128 0xe
 6400 0227 3A       		.uleb128 0x3a
 6401 0228 0B       		.uleb128 0xb
 6402 0229 3B       		.uleb128 0x3b
 6403 022a 05       		.uleb128 0x5
 6404 022b 49       		.uleb128 0x49
 6405 022c 13       		.uleb128 0x13
 6406 022d 02       		.uleb128 0x2
 6407 022e 17       		.uleb128 0x17
 6408 022f 00       		.byte	0
ARM GAS  C:\Users\haske\AppData\Local\Temp\ccxlcgkV.s 			page 127


 6409 0230 00       		.byte	0
 6410 0231 2B       		.uleb128 0x2b
 6411 0232 34       		.uleb128 0x34
 6412 0233 00       		.byte	0
 6413 0234 03       		.uleb128 0x3
 6414 0235 08       		.uleb128 0x8
 6415 0236 3A       		.uleb128 0x3a
 6416 0237 0B       		.uleb128 0xb
 6417 0238 3B       		.uleb128 0x3b
 6418 0239 05       		.uleb128 0x5
 6419 023a 49       		.uleb128 0x49
 6420 023b 13       		.uleb128 0x13
 6421 023c 1C       		.uleb128 0x1c
 6422 023d 0B       		.uleb128 0xb
 6423 023e 00       		.byte	0
 6424 023f 00       		.byte	0
 6425 0240 2C       		.uleb128 0x2c
 6426 0241 34       		.uleb128 0x34
 6427 0242 00       		.byte	0
 6428 0243 03       		.uleb128 0x3
 6429 0244 0E       		.uleb128 0xe
 6430 0245 3A       		.uleb128 0x3a
 6431 0246 0B       		.uleb128 0xb
 6432 0247 3B       		.uleb128 0x3b
 6433 0248 05       		.uleb128 0x5
 6434 0249 49       		.uleb128 0x49
 6435 024a 13       		.uleb128 0x13
 6436 024b 02       		.uleb128 0x2
 6437 024c 17       		.uleb128 0x17
 6438 024d 00       		.byte	0
 6439 024e 00       		.byte	0
 6440 024f 2D       		.uleb128 0x2d
 6441 0250 898201   		.uleb128 0x4109
 6442 0253 01       		.byte	0x1
 6443 0254 11       		.uleb128 0x11
 6444 0255 01       		.uleb128 0x1
 6445 0256 31       		.uleb128 0x31
 6446 0257 13       		.uleb128 0x13
 6447 0258 00       		.byte	0
 6448 0259 00       		.byte	0
 6449 025a 2E       		.uleb128 0x2e
 6450 025b 2E       		.uleb128 0x2e
 6451 025c 01       		.byte	0x1
 6452 025d 3F       		.uleb128 0x3f
 6453 025e 19       		.uleb128 0x19
 6454 025f 03       		.uleb128 0x3
 6455 0260 0E       		.uleb128 0xe
 6456 0261 3A       		.uleb128 0x3a
 6457 0262 0B       		.uleb128 0xb
 6458 0263 3B       		.uleb128 0x3b
 6459 0264 0B       		.uleb128 0xb
 6460 0265 27       		.uleb128 0x27
 6461 0266 19       		.uleb128 0x19
 6462 0267 11       		.uleb128 0x11
 6463 0268 01       		.uleb128 0x1
 6464 0269 12       		.uleb128 0x12
 6465 026a 06       		.uleb128 0x6
ARM GAS  C:\Users\haske\AppData\Local\Temp\ccxlcgkV.s 			page 128


 6466 026b 40       		.uleb128 0x40
 6467 026c 18       		.uleb128 0x18
 6468 026d 9742     		.uleb128 0x2117
 6469 026f 19       		.uleb128 0x19
 6470 0270 01       		.uleb128 0x1
 6471 0271 13       		.uleb128 0x13
 6472 0272 00       		.byte	0
 6473 0273 00       		.byte	0
 6474 0274 2F       		.uleb128 0x2f
 6475 0275 05       		.uleb128 0x5
 6476 0276 00       		.byte	0
 6477 0277 03       		.uleb128 0x3
 6478 0278 0E       		.uleb128 0xe
 6479 0279 3A       		.uleb128 0x3a
 6480 027a 0B       		.uleb128 0xb
 6481 027b 3B       		.uleb128 0x3b
 6482 027c 0B       		.uleb128 0xb
 6483 027d 49       		.uleb128 0x49
 6484 027e 13       		.uleb128 0x13
 6485 027f 02       		.uleb128 0x2
 6486 0280 17       		.uleb128 0x17
 6487 0281 00       		.byte	0
 6488 0282 00       		.byte	0
 6489 0283 30       		.uleb128 0x30
 6490 0284 34       		.uleb128 0x34
 6491 0285 00       		.byte	0
 6492 0286 03       		.uleb128 0x3
 6493 0287 0E       		.uleb128 0xe
 6494 0288 3A       		.uleb128 0x3a
 6495 0289 0B       		.uleb128 0xb
 6496 028a 3B       		.uleb128 0x3b
 6497 028b 0B       		.uleb128 0xb
 6498 028c 49       		.uleb128 0x49
 6499 028d 13       		.uleb128 0x13
 6500 028e 02       		.uleb128 0x2
 6501 028f 17       		.uleb128 0x17
 6502 0290 00       		.byte	0
 6503 0291 00       		.byte	0
 6504 0292 31       		.uleb128 0x31
 6505 0293 1D       		.uleb128 0x1d
 6506 0294 01       		.byte	0x1
 6507 0295 31       		.uleb128 0x31
 6508 0296 13       		.uleb128 0x13
 6509 0297 11       		.uleb128 0x11
 6510 0298 01       		.uleb128 0x1
 6511 0299 12       		.uleb128 0x12
 6512 029a 06       		.uleb128 0x6
 6513 029b 58       		.uleb128 0x58
 6514 029c 0B       		.uleb128 0xb
 6515 029d 59       		.uleb128 0x59
 6516 029e 0B       		.uleb128 0xb
 6517 029f 01       		.uleb128 0x1
 6518 02a0 13       		.uleb128 0x13
 6519 02a1 00       		.byte	0
 6520 02a2 00       		.byte	0
 6521 02a3 32       		.uleb128 0x32
 6522 02a4 05       		.uleb128 0x5
ARM GAS  C:\Users\haske\AppData\Local\Temp\ccxlcgkV.s 			page 129


 6523 02a5 00       		.byte	0
 6524 02a6 31       		.uleb128 0x31
 6525 02a7 13       		.uleb128 0x13
 6526 02a8 02       		.uleb128 0x2
 6527 02a9 17       		.uleb128 0x17
 6528 02aa 00       		.byte	0
 6529 02ab 00       		.byte	0
 6530 02ac 33       		.uleb128 0x33
 6531 02ad 34       		.uleb128 0x34
 6532 02ae 00       		.byte	0
 6533 02af 03       		.uleb128 0x3
 6534 02b0 0E       		.uleb128 0xe
 6535 02b1 3A       		.uleb128 0x3a
 6536 02b2 0B       		.uleb128 0xb
 6537 02b3 3B       		.uleb128 0x3b
 6538 02b4 0B       		.uleb128 0xb
 6539 02b5 49       		.uleb128 0x49
 6540 02b6 13       		.uleb128 0x13
 6541 02b7 3F       		.uleb128 0x3f
 6542 02b8 19       		.uleb128 0x19
 6543 02b9 3C       		.uleb128 0x3c
 6544 02ba 19       		.uleb128 0x19
 6545 02bb 00       		.byte	0
 6546 02bc 00       		.byte	0
 6547 02bd 34       		.uleb128 0x34
 6548 02be 2E       		.uleb128 0x2e
 6549 02bf 00       		.byte	0
 6550 02c0 3F       		.uleb128 0x3f
 6551 02c1 19       		.uleb128 0x19
 6552 02c2 3C       		.uleb128 0x3c
 6553 02c3 19       		.uleb128 0x19
 6554 02c4 6E       		.uleb128 0x6e
 6555 02c5 0E       		.uleb128 0xe
 6556 02c6 03       		.uleb128 0x3
 6557 02c7 0E       		.uleb128 0xe
 6558 02c8 3A       		.uleb128 0x3a
 6559 02c9 0B       		.uleb128 0xb
 6560 02ca 3B       		.uleb128 0x3b
 6561 02cb 0B       		.uleb128 0xb
 6562 02cc 00       		.byte	0
 6563 02cd 00       		.byte	0
 6564 02ce 35       		.uleb128 0x35
 6565 02cf 2E       		.uleb128 0x2e
 6566 02d0 00       		.byte	0
 6567 02d1 3F       		.uleb128 0x3f
 6568 02d2 19       		.uleb128 0x19
 6569 02d3 3C       		.uleb128 0x3c
 6570 02d4 19       		.uleb128 0x19
 6571 02d5 6E       		.uleb128 0x6e
 6572 02d6 0E       		.uleb128 0xe
 6573 02d7 03       		.uleb128 0x3
 6574 02d8 0E       		.uleb128 0xe
 6575 02d9 3A       		.uleb128 0x3a
 6576 02da 0B       		.uleb128 0xb
 6577 02db 3B       		.uleb128 0x3b
 6578 02dc 05       		.uleb128 0x5
 6579 02dd 00       		.byte	0
ARM GAS  C:\Users\haske\AppData\Local\Temp\ccxlcgkV.s 			page 130


 6580 02de 00       		.byte	0
 6581 02df 00       		.byte	0
 6582              		.section	.debug_loc,"",%progbits
 6583              	.Ldebug_loc0:
 6584              	.LLST0:
 6585 0000 00000000 		.4byte	.LVL0
 6586 0004 18000000 		.4byte	.LVL2
 6587 0008 0100     		.2byte	0x1
 6588 000a 50       		.byte	0x50
 6589 000b 18000000 		.4byte	.LVL2
 6590 000f 3C020000 		.4byte	.LFE57
 6591 0013 0100     		.2byte	0x1
 6592 0015 54       		.byte	0x54
 6593 0016 00000000 		.4byte	0
 6594 001a 00000000 		.4byte	0
 6595              	.LLST1:
 6596 001e AE000000 		.4byte	.LVL7
 6597 0022 C0000000 		.4byte	.LVL8
 6598 0026 0100     		.2byte	0x1
 6599 0028 50       		.byte	0x50
 6600 0029 00000000 		.4byte	0
 6601 002d 00000000 		.4byte	0
 6602              	.LLST2:
 6603 0031 36010000 		.4byte	.LVL12
 6604 0035 44010000 		.4byte	.LVL13
 6605 0039 0100     		.2byte	0x1
 6606 003b 50       		.byte	0x50
 6607 003c 00000000 		.4byte	0
 6608 0040 00000000 		.4byte	0
 6609              	.LLST3:
 6610 0044 B2010000 		.4byte	.LVL17
 6611 0048 C2010000 		.4byte	.LVL18
 6612 004c 0100     		.2byte	0x1
 6613 004e 50       		.byte	0x50
 6614 004f 00000000 		.4byte	0
 6615 0053 00000000 		.4byte	0
 6616              	.LLST4:
 6617 0057 22020000 		.4byte	.LVL20
 6618 005b 30020000 		.4byte	.LVL21
 6619 005f 0100     		.2byte	0x1
 6620 0061 50       		.byte	0x50
 6621 0062 00000000 		.4byte	0
 6622 0066 00000000 		.4byte	0
 6623              	.LLST5:
 6624 006a 00000000 		.4byte	.LVL23
 6625 006e 18000000 		.4byte	.LVL25
 6626 0072 0100     		.2byte	0x1
 6627 0074 50       		.byte	0x50
 6628 0075 18000000 		.4byte	.LVL25
 6629 0079 40020000 		.4byte	.LFE58
 6630 007d 0100     		.2byte	0x1
 6631 007f 54       		.byte	0x54
 6632 0080 00000000 		.4byte	0
 6633 0084 00000000 		.4byte	0
 6634              	.LLST6:
 6635 0088 AE000000 		.4byte	.LVL30
 6636 008c C0000000 		.4byte	.LVL31
ARM GAS  C:\Users\haske\AppData\Local\Temp\ccxlcgkV.s 			page 131


 6637 0090 0100     		.2byte	0x1
 6638 0092 50       		.byte	0x50
 6639 0093 00000000 		.4byte	0
 6640 0097 00000000 		.4byte	0
 6641              	.LLST7:
 6642 009b 38010000 		.4byte	.LVL35
 6643 009f 46010000 		.4byte	.LVL36
 6644 00a3 0100     		.2byte	0x1
 6645 00a5 50       		.byte	0x50
 6646 00a6 00000000 		.4byte	0
 6647 00aa 00000000 		.4byte	0
 6648              	.LLST8:
 6649 00ae B6010000 		.4byte	.LVL40
 6650 00b2 C6010000 		.4byte	.LVL41
 6651 00b6 0100     		.2byte	0x1
 6652 00b8 50       		.byte	0x50
 6653 00b9 00000000 		.4byte	0
 6654 00bd 00000000 		.4byte	0
 6655              	.LLST9:
 6656 00c1 26020000 		.4byte	.LVL43
 6657 00c5 34020000 		.4byte	.LVL44
 6658 00c9 0100     		.2byte	0x1
 6659 00cb 50       		.byte	0x50
 6660 00cc 00000000 		.4byte	0
 6661 00d0 00000000 		.4byte	0
 6662              	.LLST10:
 6663 00d4 00000000 		.4byte	.LVL46
 6664 00d8 18000000 		.4byte	.LVL48
 6665 00dc 0100     		.2byte	0x1
 6666 00de 50       		.byte	0x50
 6667 00df 18000000 		.4byte	.LVL48
 6668 00e3 42020000 		.4byte	.LFE59
 6669 00e7 0100     		.2byte	0x1
 6670 00e9 54       		.byte	0x54
 6671 00ea 00000000 		.4byte	0
 6672 00ee 00000000 		.4byte	0
 6673              	.LLST11:
 6674 00f2 AE000000 		.4byte	.LVL53
 6675 00f6 C0000000 		.4byte	.LVL54
 6676 00fa 0100     		.2byte	0x1
 6677 00fc 50       		.byte	0x50
 6678 00fd 00000000 		.4byte	0
 6679 0101 00000000 		.4byte	0
 6680              	.LLST12:
 6681 0105 3A010000 		.4byte	.LVL58
 6682 0109 48010000 		.4byte	.LVL59
 6683 010d 0100     		.2byte	0x1
 6684 010f 50       		.byte	0x50
 6685 0110 00000000 		.4byte	0
 6686 0114 00000000 		.4byte	0
 6687              	.LLST13:
 6688 0118 B8010000 		.4byte	.LVL63
 6689 011c C8010000 		.4byte	.LVL64
 6690 0120 0100     		.2byte	0x1
 6691 0122 50       		.byte	0x50
 6692 0123 00000000 		.4byte	0
 6693 0127 00000000 		.4byte	0
ARM GAS  C:\Users\haske\AppData\Local\Temp\ccxlcgkV.s 			page 132


 6694              	.LLST14:
 6695 012b 28020000 		.4byte	.LVL66
 6696 012f 36020000 		.4byte	.LVL67
 6697 0133 0100     		.2byte	0x1
 6698 0135 50       		.byte	0x50
 6699 0136 00000000 		.4byte	0
 6700 013a 00000000 		.4byte	0
 6701              	.LLST15:
 6702 013e 00000000 		.4byte	.LVL69
 6703 0142 18000000 		.4byte	.LVL71
 6704 0146 0100     		.2byte	0x1
 6705 0148 50       		.byte	0x50
 6706 0149 18000000 		.4byte	.LVL71
 6707 014d 3E020000 		.4byte	.LFE60
 6708 0151 0100     		.2byte	0x1
 6709 0153 54       		.byte	0x54
 6710 0154 00000000 		.4byte	0
 6711 0158 00000000 		.4byte	0
 6712              	.LLST16:
 6713 015c AE000000 		.4byte	.LVL76
 6714 0160 C0000000 		.4byte	.LVL77
 6715 0164 0100     		.2byte	0x1
 6716 0166 50       		.byte	0x50
 6717 0167 00000000 		.4byte	0
 6718 016b 00000000 		.4byte	0
 6719              	.LLST17:
 6720 016f 3A010000 		.4byte	.LVL81
 6721 0173 48010000 		.4byte	.LVL82
 6722 0177 0100     		.2byte	0x1
 6723 0179 50       		.byte	0x50
 6724 017a 00000000 		.4byte	0
 6725 017e 00000000 		.4byte	0
 6726              	.LLST18:
 6727 0182 B6010000 		.4byte	.LVL86
 6728 0186 C6010000 		.4byte	.LVL87
 6729 018a 0100     		.2byte	0x1
 6730 018c 50       		.byte	0x50
 6731 018d 00000000 		.4byte	0
 6732 0191 00000000 		.4byte	0
 6733              	.LLST19:
 6734 0195 24020000 		.4byte	.LVL89
 6735 0199 32020000 		.4byte	.LVL90
 6736 019d 0100     		.2byte	0x1
 6737 019f 50       		.byte	0x50
 6738 01a0 00000000 		.4byte	0
 6739 01a4 00000000 		.4byte	0
 6740              	.LLST20:
 6741 01a8 00000000 		.4byte	.LVL92
 6742 01ac 1A000000 		.4byte	.LVL97
 6743 01b0 0100     		.2byte	0x1
 6744 01b2 50       		.byte	0x50
 6745 01b3 1A000000 		.4byte	.LVL97
 6746 01b7 8C000000 		.4byte	.LFE61
 6747 01bb 0400     		.2byte	0x4
 6748 01bd F3       		.byte	0xf3
 6749 01be 01       		.uleb128 0x1
 6750 01bf 50       		.byte	0x50
ARM GAS  C:\Users\haske\AppData\Local\Temp\ccxlcgkV.s 			page 133


 6751 01c0 9F       		.byte	0x9f
 6752 01c1 00000000 		.4byte	0
 6753 01c5 00000000 		.4byte	0
 6754              	.LLST21:
 6755 01c9 00000000 		.4byte	.LVL92
 6756 01cd 1F000000 		.4byte	.LVL98-1
 6757 01d1 0100     		.2byte	0x1
 6758 01d3 51       		.byte	0x51
 6759 01d4 1F000000 		.4byte	.LVL98-1
 6760 01d8 8C000000 		.4byte	.LFE61
 6761 01dc 0400     		.2byte	0x4
 6762 01de F3       		.byte	0xf3
 6763 01df 01       		.uleb128 0x1
 6764 01e0 51       		.byte	0x51
 6765 01e1 9F       		.byte	0x9f
 6766 01e2 00000000 		.4byte	0
 6767 01e6 00000000 		.4byte	0
 6768              	.LLST22:
 6769 01ea 00000000 		.4byte	.LVL92
 6770 01ee 0E000000 		.4byte	.LVL95
 6771 01f2 0100     		.2byte	0x1
 6772 01f4 52       		.byte	0x52
 6773 01f5 0E000000 		.4byte	.LVL95
 6774 01f9 8C000000 		.4byte	.LFE61
 6775 01fd 0400     		.2byte	0x4
 6776 01ff F3       		.byte	0xf3
 6777 0200 01       		.uleb128 0x1
 6778 0201 52       		.byte	0x52
 6779 0202 9F       		.byte	0x9f
 6780 0203 00000000 		.4byte	0
 6781 0207 00000000 		.4byte	0
 6782              	.LLST23:
 6783 020b 00000000 		.4byte	.LVL92
 6784 020f 1F000000 		.4byte	.LVL98-1
 6785 0213 0100     		.2byte	0x1
 6786 0215 53       		.byte	0x53
 6787 0216 1F000000 		.4byte	.LVL98-1
 6788 021a 8C000000 		.4byte	.LFE61
 6789 021e 0100     		.2byte	0x1
 6790 0220 57       		.byte	0x57
 6791 0221 00000000 		.4byte	0
 6792 0225 00000000 		.4byte	0
 6793              	.LLST24:
 6794 0229 0A000000 		.4byte	.LVL94
 6795 022d 68000000 		.4byte	.LVL109
 6796 0231 0100     		.2byte	0x1
 6797 0233 55       		.byte	0x55
 6798 0234 76000000 		.4byte	.LVL111
 6799 0238 7E000000 		.4byte	.LVL114
 6800 023c 0100     		.2byte	0x1
 6801 023e 55       		.byte	0x55
 6802 023f 00000000 		.4byte	0
 6803 0243 00000000 		.4byte	0
 6804              	.LLST25:
 6805 0247 12000000 		.4byte	.LVL96
 6806 024b 6C000000 		.4byte	.LVL110
 6807 024f 0100     		.2byte	0x1
ARM GAS  C:\Users\haske\AppData\Local\Temp\ccxlcgkV.s 			page 134


 6808 0251 56       		.byte	0x56
 6809 0252 76000000 		.4byte	.LVL111
 6810 0256 86000000 		.4byte	.LVL115
 6811 025a 0100     		.2byte	0x1
 6812 025c 56       		.byte	0x56
 6813 025d 00000000 		.4byte	0
 6814 0261 00000000 		.4byte	0
 6815              	.LLST26:
 6816 0265 26000000 		.4byte	.LVL99
 6817 0269 38000000 		.4byte	.LVL102
 6818 026d 0100     		.2byte	0x1
 6819 026f 54       		.byte	0x54
 6820 0270 38000000 		.4byte	.LVL102
 6821 0274 3C000000 		.4byte	.LVL103
 6822 0278 0500     		.2byte	0x5
 6823 027a 74       		.byte	0x74
 6824 027b 00       		.sleb128 0
 6825 027c 38       		.byte	0x38
 6826 027d 26       		.byte	0x26
 6827 027e 9F       		.byte	0x9f
 6828 027f 4A000000 		.4byte	.LVL104
 6829 0283 4C000000 		.4byte	.LVL105
 6830 0287 0100     		.2byte	0x1
 6831 0289 54       		.byte	0x54
 6832 028a 4C000000 		.4byte	.LVL105
 6833 028e 50000000 		.4byte	.LVL106
 6834 0292 0500     		.2byte	0x5
 6835 0294 74       		.byte	0x74
 6836 0295 00       		.sleb128 0
 6837 0296 38       		.byte	0x38
 6838 0297 26       		.byte	0x26
 6839 0298 9F       		.byte	0x9f
 6840 0299 00000000 		.4byte	0
 6841 029d 00000000 		.4byte	0
 6842              	.LLST27:
 6843 02a1 32000000 		.4byte	.LVL101
 6844 02a5 62000000 		.4byte	.LVL107
 6845 02a9 0100     		.2byte	0x1
 6846 02ab 50       		.byte	0x50
 6847 02ac 62000000 		.4byte	.LVL107
 6848 02b0 66000000 		.4byte	.LVL108
 6849 02b4 0500     		.2byte	0x5
 6850 02b6 70       		.byte	0x70
 6851 02b7 00       		.sleb128 0
 6852 02b8 38       		.byte	0x38
 6853 02b9 26       		.byte	0x26
 6854 02ba 9F       		.byte	0x9f
 6855 02bb 76000000 		.4byte	.LVL111
 6856 02bf 78000000 		.4byte	.LVL112
 6857 02c3 0100     		.2byte	0x1
 6858 02c5 50       		.byte	0x50
 6859 02c6 78000000 		.4byte	.LVL112
 6860 02ca 7C000000 		.4byte	.LVL113
 6861 02ce 0500     		.2byte	0x5
 6862 02d0 70       		.byte	0x70
 6863 02d1 00       		.sleb128 0
 6864 02d2 38       		.byte	0x38
ARM GAS  C:\Users\haske\AppData\Local\Temp\ccxlcgkV.s 			page 135


 6865 02d3 26       		.byte	0x26
 6866 02d4 9F       		.byte	0x9f
 6867 02d5 00000000 		.4byte	0
 6868 02d9 00000000 		.4byte	0
 6869              	.LLST28:
 6870 02dd 00000000 		.4byte	.LVL116
 6871 02e1 3A000000 		.4byte	.LVL119
 6872 02e5 0100     		.2byte	0x1
 6873 02e7 50       		.byte	0x50
 6874 02e8 3A000000 		.4byte	.LVL119
 6875 02ec 68030000 		.4byte	.LVL184
 6876 02f0 0100     		.2byte	0x1
 6877 02f2 59       		.byte	0x59
 6878 02f3 68030000 		.4byte	.LVL184
 6879 02f7 74030000 		.4byte	.LFE56
 6880 02fb 0400     		.2byte	0x4
 6881 02fd F3       		.byte	0xf3
 6882 02fe 01       		.uleb128 0x1
 6883 02ff 50       		.byte	0x50
 6884 0300 9F       		.byte	0x9f
 6885 0301 00000000 		.4byte	0
 6886 0305 00000000 		.4byte	0
 6887              	.LLST29:
 6888 0309 00000000 		.4byte	.LVL116
 6889 030d 3D000000 		.4byte	.LVL120-1
 6890 0311 0100     		.2byte	0x1
 6891 0313 51       		.byte	0x51
 6892 0314 3D000000 		.4byte	.LVL120-1
 6893 0318 68030000 		.4byte	.LVL184
 6894 031c 0100     		.2byte	0x1
 6895 031e 56       		.byte	0x56
 6896 031f 68030000 		.4byte	.LVL184
 6897 0323 74030000 		.4byte	.LFE56
 6898 0327 0400     		.2byte	0x4
 6899 0329 F3       		.byte	0xf3
 6900 032a 01       		.uleb128 0x1
 6901 032b 51       		.byte	0x51
 6902 032c 9F       		.byte	0x9f
 6903 032d 00000000 		.4byte	0
 6904 0331 00000000 		.4byte	0
 6905              	.LLST30:
 6906 0335 00000000 		.4byte	.LVL116
 6907 0339 3D000000 		.4byte	.LVL120-1
 6908 033d 0100     		.2byte	0x1
 6909 033f 52       		.byte	0x52
 6910 0340 3D000000 		.4byte	.LVL120-1
 6911 0344 68030000 		.4byte	.LVL184
 6912 0348 0100     		.2byte	0x1
 6913 034a 58       		.byte	0x58
 6914 034b 68030000 		.4byte	.LVL184
 6915 034f 74030000 		.4byte	.LFE56
 6916 0353 0400     		.2byte	0x4
 6917 0355 F3       		.byte	0xf3
 6918 0356 01       		.uleb128 0x1
 6919 0357 52       		.byte	0x52
 6920 0358 9F       		.byte	0x9f
 6921 0359 00000000 		.4byte	0
ARM GAS  C:\Users\haske\AppData\Local\Temp\ccxlcgkV.s 			page 136


 6922 035d 00000000 		.4byte	0
 6923              	.LLST31:
 6924 0361 00000000 		.4byte	.LVL116
 6925 0365 3D000000 		.4byte	.LVL120-1
 6926 0369 0100     		.2byte	0x1
 6927 036b 53       		.byte	0x53
 6928 036c 3D000000 		.4byte	.LVL120-1
 6929 0370 74030000 		.4byte	.LFE56
 6930 0374 0400     		.2byte	0x4
 6931 0376 F3       		.byte	0xf3
 6932 0377 01       		.uleb128 0x1
 6933 0378 53       		.byte	0x53
 6934 0379 9F       		.byte	0x9f
 6935 037a 00000000 		.4byte	0
 6936 037e 00000000 		.4byte	0
 6937              	.LLST32:
 6938 0382 00000000 		.4byte	.LVL116
 6939 0386 70010000 		.4byte	.LVL138
 6940 038a 0200     		.2byte	0x2
 6941 038c 91       		.byte	0x91
 6942 038d 00       		.sleb128 0
 6943 038e 70010000 		.4byte	.LVL138
 6944 0392 74010000 		.4byte	.LVL139
 6945 0396 0100     		.2byte	0x1
 6946 0398 55       		.byte	0x55
 6947 0399 76010000 		.4byte	.LVL140
 6948 039d 68030000 		.4byte	.LVL184
 6949 03a1 0100     		.2byte	0x1
 6950 03a3 55       		.byte	0x55
 6951 03a4 00000000 		.4byte	0
 6952 03a8 00000000 		.4byte	0
 6953              	.LLST33:
 6954 03ac 00000000 		.4byte	.LVL116
 6955 03b0 7E010000 		.4byte	.LVL141
 6956 03b4 0200     		.2byte	0x2
 6957 03b6 91       		.byte	0x91
 6958 03b7 04       		.sleb128 4
 6959 03b8 7E010000 		.4byte	.LVL141
 6960 03bc 82010000 		.4byte	.LVL142
 6961 03c0 0100     		.2byte	0x1
 6962 03c2 54       		.byte	0x54
 6963 03c3 84010000 		.4byte	.LVL143
 6964 03c7 EC010000 		.4byte	.LVL153
 6965 03cb 0100     		.2byte	0x1
 6966 03cd 54       		.byte	0x54
 6967 03ce EC010000 		.4byte	.LVL153
 6968 03d2 0D020000 		.4byte	.LVL154-1
 6969 03d6 0300     		.2byte	0x3
 6970 03d8 91       		.byte	0x91
 6971 03d9 E07D     		.sleb128 -288
 6972 03db 0D020000 		.4byte	.LVL154-1
 6973 03df 22020000 		.4byte	.LVL158
 6974 03e3 0300     		.2byte	0x3
 6975 03e5 91       		.byte	0x91
 6976 03e6 C47D     		.sleb128 -316
 6977 03e8 22020000 		.4byte	.LVL158
 6978 03ec 2C020000 		.4byte	.LVL160
ARM GAS  C:\Users\haske\AppData\Local\Temp\ccxlcgkV.s 			page 137


 6979 03f0 0100     		.2byte	0x1
 6980 03f2 54       		.byte	0x54
 6981 03f3 2C020000 		.4byte	.LVL160
 6982 03f7 68030000 		.4byte	.LVL184
 6983 03fb 0300     		.2byte	0x3
 6984 03fd 91       		.byte	0x91
 6985 03fe C47D     		.sleb128 -316
 6986 0400 00000000 		.4byte	0
 6987 0404 00000000 		.4byte	0
 6988              	.LLST34:
 6989 0408 28000000 		.4byte	.LVL117
 6990 040c 6A020000 		.4byte	.LVL167
 6991 0410 0100     		.2byte	0x1
 6992 0412 5A       		.byte	0x5a
 6993 0413 00000000 		.4byte	0
 6994 0417 00000000 		.4byte	0
 6995              	.LLST35:
 6996 041b C8000000 		.4byte	.LVL121
 6997 041f F6000000 		.4byte	.LVL127
 6998 0423 0300     		.2byte	0x3
 6999 0425 09       		.byte	0x9
 7000 0426 FF       		.byte	0xff
 7001 0427 9F       		.byte	0x9f
 7002 0428 F6000000 		.4byte	.LVL127
 7003 042c FC000000 		.4byte	.LVL128
 7004 0430 0100     		.2byte	0x1
 7005 0432 5B       		.byte	0x5b
 7006 0433 FC000000 		.4byte	.LVL128
 7007 0437 0E010000 		.4byte	.LVL129
 7008 043b 0300     		.2byte	0x3
 7009 043d 09       		.byte	0x9
 7010 043e FF       		.byte	0xff
 7011 043f 9F       		.byte	0x9f
 7012 0440 0E010000 		.4byte	.LVL129
 7013 0444 68030000 		.4byte	.LVL184
 7014 0448 0100     		.2byte	0x1
 7015 044a 5B       		.byte	0x5b
 7016 044b 00000000 		.4byte	0
 7017 044f 00000000 		.4byte	0
 7018              	.LLST36:
 7019 0453 C8000000 		.4byte	.LVL121
 7020 0457 EC000000 		.4byte	.LVL125
 7021 045b 0200     		.2byte	0x2
 7022 045d 30       		.byte	0x30
 7023 045e 9F       		.byte	0x9f
 7024 045f EC000000 		.4byte	.LVL125
 7025 0463 FC000000 		.4byte	.LVL128
 7026 0467 0200     		.2byte	0x2
 7027 0469 31       		.byte	0x31
 7028 046a 9F       		.byte	0x9f
 7029 046b FC000000 		.4byte	.LVL128
 7030 046f 0E010000 		.4byte	.LVL129
 7031 0473 0200     		.2byte	0x2
 7032 0475 30       		.byte	0x30
 7033 0476 9F       		.byte	0x9f
 7034 0477 0E010000 		.4byte	.LVL129
 7035 047b 68030000 		.4byte	.LVL184
ARM GAS  C:\Users\haske\AppData\Local\Temp\ccxlcgkV.s 			page 138


 7036 047f 0300     		.2byte	0x3
 7037 0481 91       		.byte	0x91
 7038 0482 B07D     		.sleb128 -336
 7039 0484 00000000 		.4byte	0
 7040 0488 00000000 		.4byte	0
 7041              	.LLST37:
 7042 048c 26010000 		.4byte	.LVL132
 7043 0490 68030000 		.4byte	.LVL184
 7044 0494 0300     		.2byte	0x3
 7045 0496 91       		.byte	0x91
 7046 0497 B47D     		.sleb128 -332
 7047 0499 00000000 		.4byte	0
 7048 049d 00000000 		.4byte	0
 7049              	.LLST38:
 7050 04a1 AE010000 		.4byte	.LVL146
 7051 04a5 68030000 		.4byte	.LVL184
 7052 04a9 0300     		.2byte	0x3
 7053 04ab 91       		.byte	0x91
 7054 04ac BC7D     		.sleb128 -324
 7055 04ae 00000000 		.4byte	0
 7056 04b2 00000000 		.4byte	0
 7057              	.LLST39:
 7058 04b6 B8010000 		.4byte	.LVL147
 7059 04ba BA010000 		.4byte	.LVL148
 7060 04be 0100     		.2byte	0x1
 7061 04c0 53       		.byte	0x53
 7062 04c1 BC010000 		.4byte	.LVL149
 7063 04c5 DE010000 		.4byte	.LVL152
 7064 04c9 0100     		.2byte	0x1
 7065 04cb 53       		.byte	0x53
 7066 04cc 22020000 		.4byte	.LVL158
 7067 04d0 2B020000 		.4byte	.LVL160-1
 7068 04d4 0100     		.2byte	0x1
 7069 04d6 53       		.byte	0x53
 7070 04d7 00000000 		.4byte	0
 7071 04db 00000000 		.4byte	0
 7072              	.LLST40:
 7073 04df C2010000 		.4byte	.LVL150
 7074 04e3 DC010000 		.4byte	.LVL151
 7075 04e7 0100     		.2byte	0x1
 7076 04e9 52       		.byte	0x52
 7077 04ea DC010000 		.4byte	.LVL151
 7078 04ee 22020000 		.4byte	.LVL158
 7079 04f2 0300     		.2byte	0x3
 7080 04f4 91       		.byte	0x91
 7081 04f5 B87D     		.sleb128 -328
 7082 04f7 22020000 		.4byte	.LVL158
 7083 04fb 24020000 		.4byte	.LVL159
 7084 04ff 0100     		.2byte	0x1
 7085 0501 52       		.byte	0x52
 7086 0502 24020000 		.4byte	.LVL159
 7087 0506 2B020000 		.4byte	.LVL160-1
 7088 050a 0200     		.2byte	0x2
 7089 050c 79       		.byte	0x79
 7090 050d 08       		.sleb128 8
 7091 050e 2B020000 		.4byte	.LVL160-1
 7092 0512 68030000 		.4byte	.LVL184
ARM GAS  C:\Users\haske\AppData\Local\Temp\ccxlcgkV.s 			page 139


 7093 0516 0300     		.2byte	0x3
 7094 0518 91       		.byte	0x91
 7095 0519 B87D     		.sleb128 -328
 7096 051b 00000000 		.4byte	0
 7097 051f 00000000 		.4byte	0
 7098              	.LLST41:
 7099 0523 C8000000 		.4byte	.LVL121
 7100 0527 D0000000 		.4byte	.LVL122
 7101 052b 0400     		.2byte	0x4
 7102 052d 91       		.byte	0x91
 7103 052e 907F     		.sleb128 -112
 7104 0530 9F       		.byte	0x9f
 7105 0531 00000000 		.4byte	0
 7106 0535 00000000 		.4byte	0
 7107              	.LLST42:
 7108 0539 D4000000 		.4byte	.LVL123
 7109 053d DA000000 		.4byte	.LVL124
 7110 0541 0400     		.2byte	0x4
 7111 0543 91       		.byte	0x91
 7112 0544 907F     		.sleb128 -112
 7113 0546 9F       		.byte	0x9f
 7114 0547 00000000 		.4byte	0
 7115 054b 00000000 		.4byte	0
 7116              	.LLST43:
 7117 054f CA020000 		.4byte	.LVL172
 7118 0553 E6020000 		.4byte	.LVL175
 7119 0557 0100     		.2byte	0x1
 7120 0559 54       		.byte	0x54
 7121 055a 00000000 		.4byte	0
 7122 055e 00000000 		.4byte	0
 7123              	.LLST44:
 7124 0562 46030000 		.4byte	.LVL180
 7125 0566 62030000 		.4byte	.LVL183
 7126 056a 0100     		.2byte	0x1
 7127 056c 54       		.byte	0x54
 7128 056d 00000000 		.4byte	0
 7129 0571 00000000 		.4byte	0
 7130              		.section	.debug_aranges,"",%progbits
 7131 0000 44000000 		.4byte	0x44
 7132 0004 0200     		.2byte	0x2
 7133 0006 00000000 		.4byte	.Ldebug_info0
 7134 000a 04       		.byte	0x4
 7135 000b 00       		.byte	0
 7136 000c 0000     		.2byte	0
 7137 000e 0000     		.2byte	0
 7138 0010 00000000 		.4byte	.LFB57
 7139 0014 3C020000 		.4byte	.LFE57-.LFB57
 7140 0018 00000000 		.4byte	.LFB58
 7141 001c 40020000 		.4byte	.LFE58-.LFB58
 7142 0020 00000000 		.4byte	.LFB59
 7143 0024 42020000 		.4byte	.LFE59-.LFB59
 7144 0028 00000000 		.4byte	.LFB60
 7145 002c 3E020000 		.4byte	.LFE60-.LFB60
 7146 0030 00000000 		.4byte	.LFB61
 7147 0034 8C000000 		.4byte	.LFE61-.LFB61
 7148 0038 00000000 		.4byte	.LFB56
 7149 003c 74030000 		.4byte	.LFE56-.LFB56
ARM GAS  C:\Users\haske\AppData\Local\Temp\ccxlcgkV.s 			page 140


 7150 0040 00000000 		.4byte	0
 7151 0044 00000000 		.4byte	0
 7152              		.section	.debug_ranges,"",%progbits
 7153              	.Ldebug_ranges0:
 7154 0000 00000000 		.4byte	.LFB57
 7155 0004 3C020000 		.4byte	.LFE57
 7156 0008 00000000 		.4byte	.LFB58
 7157 000c 40020000 		.4byte	.LFE58
 7158 0010 00000000 		.4byte	.LFB59
 7159 0014 42020000 		.4byte	.LFE59
 7160 0018 00000000 		.4byte	.LFB60
 7161 001c 3E020000 		.4byte	.LFE60
 7162 0020 00000000 		.4byte	.LFB61
 7163 0024 8C000000 		.4byte	.LFE61
 7164 0028 00000000 		.4byte	.LFB56
 7165 002c 74030000 		.4byte	.LFE56
 7166 0030 00000000 		.4byte	0
 7167 0034 00000000 		.4byte	0
 7168              		.section	.debug_line,"",%progbits
 7169              	.Ldebug_line0:
 7170 0000 70060000 		.section	.debug_str,"MS",%progbits,1
 7170      0200BE03 
 7170      00000201 
 7170      FB0E0D00 
 7170      01010101 
 7171              	.LASF15:
 7172 0000 696E7438 		.ascii	"int8_t\000"
 7172      5F7400
 7173              	.LASF22:
 7174 0007 73697A65 		.ascii	"size_t\000"
 7174      5F7400
 7175              	.LASF49:
 7176 000e 6164765F 		.ascii	"adv_w\000"
 7176      7700
 7177              	.LASF24:
 7178 0014 73697A65 		.ascii	"sizetype\000"
 7178      74797065 
 7178      00
 7179              	.LASF239:
 7180 001d 715F6473 		.ascii	"q_dsc\000"
 7180      6300
 7181              	.LASF195:
 7182 0023 64726177 		.ascii	"draw_bg\000"
 7182      5F626700 
 7183              	.LASF44:
 7184 002b 6C765F6F 		.ascii	"lv_opa_t\000"
 7184      70615F74 
 7184      00
 7185              	.LASF165:
 7186 0034 7261775F 		.ascii	"raw_end\000"
 7186      656E6400 
 7187              	.LASF19:
 7188 003c 696E7433 		.ascii	"int32_t\000"
 7188      325F7400 
 7189              	.LASF222:
 7190 0044 74686963 		.ascii	"thickness\000"
 7190      6B6E6573 
ARM GAS  C:\Users\haske\AppData\Local\Temp\ccxlcgkV.s 			page 141


 7190      7300
 7191              	.LASF46:
 7192 004e 6C765F70 		.ascii	"lv_point_t\000"
 7192      6F696E74 
 7192      5F7400
 7193              	.LASF216:
 7194 0059 71756172 		.ascii	"quarter_area\000"
 7194      7465725F 
 7194      61726561 
 7194      00
 7195              	.LASF107:
 7196 0066 72616469 		.ascii	"radius\000"
 7196      757300
 7197              	.LASF116:
 7198 006d 62675F63 		.ascii	"bg_color\000"
 7198      6F6C6F72 
 7198      00
 7199              	.LASF57:
 7200 0076 6C696E65 		.ascii	"line_height\000"
 7200      5F686569 
 7200      67687400 
 7201              	.LASF70:
 7202 0082 6C765F62 		.ascii	"lv_blend_mode_t\000"
 7202      6C656E64 
 7202      5F6D6F64 
 7202      655F7400 
 7203              	.LASF147:
 7204 0092 62696469 		.ascii	"bidi_dir\000"
 7204      5F646972 
 7204      00
 7205              	.LASF171:
 7206 009b 4C565F44 		.ascii	"LV_DRAW_LAYER_FLAG_HAS_ALPHA\000"
 7206      5241575F 
 7206      4C415945 
 7206      525F464C 
 7206      41475F48 
 7207              	.LASF153:
 7208 00b8 7A6F6F6D 		.ascii	"zoom\000"
 7208      00
 7209              	.LASF82:
 7210 00bd 6C765F64 		.ascii	"lv_draw_mask_res_t\000"
 7210      7261775F 
 7210      6D61736B 
 7210      5F726573 
 7210      5F7400
 7211              	.LASF187:
 7212 00d0 64726177 		.ascii	"draw_rect\000"
 7212      5F726563 
 7212      7400
 7213              	.LASF207:
 7214 00da 64726177 		.ascii	"draw_dsc\000"
 7214      5F647363 
 7214      00
 7215              	.LASF218:
 7216 00e3 64726177 		.ascii	"draw_quarter_1\000"
 7216      5F717561 
 7216      72746572 
ARM GAS  C:\Users\haske\AppData\Local\Temp\ccxlcgkV.s 			page 142


 7216      5F3100
 7217              	.LASF244:
 7218 00f2 6C765F74 		.ascii	"lv_trigo_sin\000"
 7218      7269676F 
 7218      5F73696E 
 7218      00
 7219              	.LASF186:
 7220 00ff 696E6974 		.ascii	"init_buf\000"
 7220      5F627566 
 7220      00
 7221              	.LASF103:
 7222 0108 785F7374 		.ascii	"x_start_on_y\000"
 7222      6172745F 
 7222      6F6E5F79 
 7222      00
 7223              	.LASF185:
 7224 0115 5F6C765F 		.ascii	"_lv_draw_ctx_t\000"
 7224      64726177 
 7224      5F637478 
 7224      5F7400
 7225              	.LASF86:
 7226 0124 74797065 		.ascii	"type\000"
 7226      00
 7227              	.LASF118:
 7228 0129 62675F69 		.ascii	"bg_img_src\000"
 7228      6D675F73 
 7228      726300
 7229              	.LASF144:
 7230 0134 73656C5F 		.ascii	"sel_bg_color\000"
 7230      62675F63 
 7230      6F6C6F72 
 7230      00
 7231              	.LASF128:
 7232 0141 626F7264 		.ascii	"border_side\000"
 7232      65725F73 
 7232      69646500 
 7233              	.LASF1:
 7234 014d 5F5F7569 		.ascii	"__uint8_t\000"
 7234      6E74385F 
 7234      7400
 7235              	.LASF114:
 7236 0157 626C656E 		.ascii	"blend_mode\000"
 7236      645F6D6F 
 7236      646500
 7237              	.LASF100:
 7238 0162 64656C74 		.ascii	"delta_deg\000"
 7238      615F6465 
 7238      6700
 7239              	.LASF91:
 7240 016c 79785F73 		.ascii	"yx_steep\000"
 7240      74656570 
 7240      00
 7241              	.LASF9:
 7242 0175 6C6F6E67 		.ascii	"long int\000"
 7242      20696E74 
 7242      00
 7243              	.LASF115:
ARM GAS  C:\Users\haske\AppData\Local\Temp\ccxlcgkV.s 			page 143


 7244 017e 62675F6F 		.ascii	"bg_opa\000"
 7244      706100
 7245              	.LASF151:
 7246 0185 6C765F64 		.ascii	"lv_draw_label_dsc_t\000"
 7246      7261775F 
 7246      6C616265 
 7246      6C5F6473 
 7246      635F7400 
 7247              	.LASF208:
 7248 0199 64726177 		.ascii	"draw_area\000"
 7248      5F617265 
 7248      6100
 7249              	.LASF254:
 7250 01a3 2E2E5C2E 		.ascii	"..\\..\\..\\arduinoLCD\\test\\Pain Drain\\libraries"
 7250      2E5C2E2E 
 7250      5C617264 
 7250      75696E6F 
 7250      4C43445C 
 7251 01d0 5C6C7667 		.ascii	"\\lvgl\\src\\draw\\sw\\lv_draw_sw_arc.c\000"
 7251      6C5C7372 
 7251      635C6472 
 7251      61775C73 
 7251      775C6C76 
 7252              	.LASF105:
 7253 01f3 6C696665 		.ascii	"life\000"
 7253      00
 7254              	.LASF211:
 7255 01f8 61726561 		.ascii	"area_p\000"
 7255      5F7000
 7256              	.LASF197:
 7257 01ff 62756666 		.ascii	"buffer_copy\000"
 7257      65725F63 
 7257      6F707900 
 7258              	.LASF129:
 7259 020b 6F75746C 		.ascii	"outline_color\000"
 7259      696E655F 
 7259      636F6C6F 
 7259      7200
 7260              	.LASF2:
 7261 0219 7369676E 		.ascii	"signed char\000"
 7261      65642063 
 7261      68617200 
 7262              	.LASF205:
 7263 0225 73746172 		.ascii	"start_quarter\000"
 7263      745F7175 
 7263      61727465 
 7263      7200
 7264              	.LASF16:
 7265 0233 75696E74 		.ascii	"uint8_t\000"
 7265      385F7400 
 7266              	.LASF192:
 7267 023b 64726177 		.ascii	"draw_line\000"
 7267      5F6C696E 
 7267      6500
 7268              	.LASF123:
 7269 0245 62675F69 		.ascii	"bg_img_tiled\000"
 7269      6D675F74 
ARM GAS  C:\Users\haske\AppData\Local\Temp\ccxlcgkV.s 			page 144


 7269      696C6564 
 7269      00
 7270              	.LASF56:
 7271 0252 6765745F 		.ascii	"get_glyph_bitmap\000"
 7271      676C7970 
 7271      685F6269 
 7271      746D6170 
 7271      00
 7272              	.LASF224:
 7273 0263 74686963 		.ascii	"thick_half\000"
 7273      6B5F6861 
 7273      6C6600
 7274              	.LASF97:
 7275 026e 656E645F 		.ascii	"end_angle\000"
 7275      616E676C 
 7275      6500
 7276              	.LASF39:
 7277 0278 626C7565 		.ascii	"blue\000"
 7277      00
 7278              	.LASF110:
 7279 027d 6F757465 		.ascii	"outer\000"
 7279      7200
 7280              	.LASF112:
 7281 0283 6C765F64 		.ascii	"lv_draw_mask_radius_param_t\000"
 7281      7261775F 
 7281      6D61736B 
 7281      5F726164 
 7281      6975735F 
 7282              	.LASF3:
 7283 029f 756E7369 		.ascii	"unsigned char\000"
 7283      676E6564 
 7283      20636861 
 7283      7200
 7284              	.LASF238:
 7285 02ad 616E676C 		.ascii	"angle_gap\000"
 7285      655F6761 
 7285      7000
 7286              	.LASF108:
 7287 02b7 5F6C765F 		.ascii	"_lv_draw_mask_radius_circle_dsc_t\000"
 7287      64726177 
 7287      5F6D6173 
 7287      6B5F7261 
 7287      64697573 
 7288              	.LASF166:
 7289 02d9 6C765F64 		.ascii	"lv_draw_line_dsc_t\000"
 7289      7261775F 
 7289      6C696E65 
 7289      5F647363 
 7289      5F7400
 7290              	.LASF180:
 7291 02ec 61726561 		.ascii	"area_act\000"
 7291      5F616374 
 7291      00
 7292              	.LASF52:
 7293 02f5 6F66735F 		.ascii	"ofs_x\000"
 7293      7800
 7294              	.LASF53:
ARM GAS  C:\Users\haske\AppData\Local\Temp\ccxlcgkV.s 			page 145


 7295 02fb 6F66735F 		.ascii	"ofs_y\000"
 7295      7900
 7296              	.LASF69:
 7297 0301 6C765F62 		.ascii	"lv_base_dir_t\000"
 7297      6173655F 
 7297      6469725F 
 7297      7400
 7298              	.LASF65:
 7299 030f 5F426F6F 		.ascii	"_Bool\000"
 7299      6C00
 7300              	.LASF183:
 7301 0315 6F726967 		.ascii	"original\000"
 7301      696E616C 
 7301      00
 7302              	.LASF173:
 7303 031e 6C765F64 		.ascii	"lv_draw_layer_flags_t\000"
 7303      7261775F 
 7303      6C617965 
 7303      725F666C 
 7303      6167735F 
 7304              	.LASF242:
 7305 0334 636C6970 		.ascii	"clip_area2\000"
 7305      5F617265 
 7305      613200
 7306              	.LASF25:
 7307 033f 63686172 		.ascii	"char\000"
 7307      00
 7308              	.LASF159:
 7309 0344 6C765F64 		.ascii	"lv_draw_img_dsc_t\000"
 7309      7261775F 
 7309      696D675F 
 7309      6473635F 
 7309      7400
 7310              	.LASF256:
 7311 0356 6C765F61 		.ascii	"lv_area_copy\000"
 7311      7265615F 
 7311      636F7079 
 7311      00
 7312              	.LASF60:
 7313 0363 756E6465 		.ascii	"underline_position\000"
 7313      726C696E 
 7313      655F706F 
 7313      73697469 
 7313      6F6E00
 7314              	.LASF202:
 7315 0376 6C617965 		.ascii	"layer_instance_size\000"
 7315      725F696E 
 7315      7374616E 
 7315      63655F73 
 7315      697A6500 
 7316              	.LASF228:
 7317 038a 6369725F 		.ascii	"cir_dsc\000"
 7317      64736300 
 7318              	.LASF162:
 7319 0392 64617368 		.ascii	"dash_gap\000"
 7319      5F676170 
 7319      00
ARM GAS  C:\Users\haske\AppData\Local\Temp\ccxlcgkV.s 			page 146


 7320              	.LASF194:
 7321 039b 64726177 		.ascii	"draw_transform\000"
 7321      5F747261 
 7321      6E73666F 
 7321      726D00
 7322              	.LASF79:
 7323 03aa 73746F70 		.ascii	"stops_count\000"
 7323      735F636F 
 7323      756E7400 
 7324              	.LASF6:
 7325 03b6 5F5F7569 		.ascii	"__uint16_t\000"
 7325      6E743136 
 7325      5F7400
 7326              	.LASF131:
 7327 03c1 6F75746C 		.ascii	"outline_pad\000"
 7327      696E655F 
 7327      70616400 
 7328              	.LASF203:
 7329 03cd 6C765F64 		.ascii	"lv_draw_ctx_t\000"
 7329      7261775F 
 7329      6374785F 
 7329      7400
 7330              	.LASF101:
 7331 03db 6C765F64 		.ascii	"lv_draw_mask_angle_param_t\000"
 7331      7261775F 
 7331      6D61736B 
 7331      5F616E67 
 7331      6C655F70 
 7332              	.LASF233:
 7333 03f6 6D61736B 		.ascii	"mask_in_param_valid\000"
 7333      5F696E5F 
 7333      70617261 
 7333      6D5F7661 
 7333      6C696400 
 7334              	.LASF127:
 7335 040a 626F7264 		.ascii	"border_post\000"
 7335      65725F70 
 7335      6F737400 
 7336              	.LASF204:
 7337 0416 63656E74 		.ascii	"center\000"
 7337      657200
 7338              	.LASF163:
 7339 041d 726F756E 		.ascii	"round_start\000"
 7339      645F7374 
 7339      61727400 
 7340              	.LASF62:
 7341 0429 66616C6C 		.ascii	"fallback\000"
 7341      6261636B 
 7341      00
 7342              	.LASF245:
 7343 0432 5F6C765F 		.ascii	"_lv_area_intersect\000"
 7343      61726561 
 7343      5F696E74 
 7343      65727365 
 7343      637400
 7344              	.LASF47:
 7345 0445 6C765F61 		.ascii	"lv_area_t\000"
ARM GAS  C:\Users\haske\AppData\Local\Temp\ccxlcgkV.s 			page 147


 7345      7265615F 
 7345      7400
 7346              	.LASF198:
 7347 044f 6C617965 		.ascii	"layer_init\000"
 7347      725F696E 
 7347      697400
 7348              	.LASF243:
 7349 045a 6D61736B 		.ascii	"mask_end_id\000"
 7349      5F656E64 
 7349      5F696400 
 7350              	.LASF164:
 7351 0466 726F756E 		.ascii	"round_end\000"
 7351      645F656E 
 7351      6400
 7352              	.LASF167:
 7353 0470 696D675F 		.ascii	"img_src\000"
 7353      73726300 
 7354              	.LASF230:
 7355 0478 61726561 		.ascii	"area_in\000"
 7355      5F696E00 
 7356              	.LASF251:
 7357 0480 6C765F64 		.ascii	"lv_draw_rect_dsc_init\000"
 7357      7261775F 
 7357      72656374 
 7357      5F647363 
 7357      5F696E69 
 7358              	.LASF137:
 7359 0496 73686164 		.ascii	"shadow_spread\000"
 7359      6F775F73 
 7359      70726561 
 7359      6400
 7360              	.LASF102:
 7361 04a4 6369725F 		.ascii	"cir_opa\000"
 7361      6F706100 
 7362              	.LASF92:
 7363 04ac 73746565 		.ascii	"steep\000"
 7363      7000
 7364              	.LASF252:
 7365 04b2 6C765F64 		.ascii	"lv_draw_mask_angle_init\000"
 7365      7261775F 
 7365      6D61736B 
 7365      5F616E67 
 7365      6C655F69 
 7366              	.LASF119:
 7367 04ca 62675F69 		.ascii	"bg_img_symbol_font\000"
 7367      6D675F73 
 7367      796D626F 
 7367      6C5F666F 
 7367      6E7400
 7368              	.LASF11:
 7369 04dd 6C6F6E67 		.ascii	"long unsigned int\000"
 7369      20756E73 
 7369      69676E65 
 7369      6420696E 
 7369      7400
 7370              	.LASF113:
 7371 04ef 6C765F69 		.ascii	"lv_img_cf_t\000"
ARM GAS  C:\Users\haske\AppData\Local\Temp\ccxlcgkV.s 			page 148


 7371      6D675F63 
 7371      665F7400 
 7372              	.LASF226:
 7373 04fb 6369725F 		.ascii	"cir_x\000"
 7373      7800
 7374              	.LASF96:
 7375 0501 73746172 		.ascii	"start_angle\000"
 7375      745F616E 
 7375      676C6500 
 7376              	.LASF201:
 7377 050d 6C617965 		.ascii	"layer_destroy\000"
 7377      725F6465 
 7377      7374726F 
 7377      7900
 7378              	.LASF161:
 7379 051b 64617368 		.ascii	"dash_width\000"
 7379      5F776964 
 7379      746800
 7380              	.LASF48:
 7381 0526 7265736F 		.ascii	"resolved_font\000"
 7381      6C766564 
 7381      5F666F6E 
 7381      7400
 7382              	.LASF188:
 7383 0534 64726177 		.ascii	"draw_arc\000"
 7383      5F617263 
 7383      00
 7384              	.LASF253:
 7385 053d 474E5520 		.ascii	"GNU C11 5.4.1 20160609 (release) [ARM/embedded-5-br"
 7385      43313120 
 7385      352E342E 
 7385      31203230 
 7385      31363036 
 7386 0570 616E6368 		.ascii	"anch revision 237715] -mcpu=cortex-m4 -mfloat-abi=s"
 7386      20726576 
 7386      6973696F 
 7386      6E203233 
 7386      37373135 
 7387 05a3 6F667466 		.ascii	"oftfp -mfpu=fpv4-sp-d16 -mthumb -g -Og -ffunction-s"
 7387      70202D6D 
 7387      6670753D 
 7387      66707634 
 7387      2D73702D 
 7388 05d6 65637469 		.ascii	"ections -ffat-lto-objects\000"
 7388      6F6E7320 
 7388      2D666661 
 7388      742D6C74 
 7388      6F2D6F62 
 7389              	.LASF27:
 7390 05f0 4C565F4F 		.ascii	"LV_OPA_0\000"
 7390      50415F30 
 7390      00
 7391              	.LASF175:
 7392 05f9 6275665F 		.ascii	"buf_area\000"
 7392      61726561 
 7392      00
 7393              	.LASF155:
ARM GAS  C:\Users\haske\AppData\Local\Temp\ccxlcgkV.s 			page 149


 7394 0602 7265636F 		.ascii	"recolor\000"
 7394      6C6F7200 
 7395              	.LASF223:
 7396 060a 7265735F 		.ascii	"res_area\000"
 7396      61726561 
 7396      00
 7397              	.LASF152:
 7398 0613 616E676C 		.ascii	"angle\000"
 7398      6500
 7399              	.LASF189:
 7400 0619 64726177 		.ascii	"draw_img_decoded\000"
 7400      5F696D67 
 7400      5F646563 
 7400      6F646564 
 7400      00
 7401              	.LASF210:
 7402 062a 71756172 		.ascii	"quarter_draw_dsc_t\000"
 7402      7465725F 
 7402      64726177 
 7402      5F647363 
 7402      5F7400
 7403              	.LASF177:
 7404 063d 5F6C765F 		.ascii	"_lv_font_t\000"
 7404      666F6E74 
 7404      5F7400
 7405              	.LASF235:
 7406 0648 6D61736B 		.ascii	"mask_out_id\000"
 7406      5F6F7574 
 7406      5F696400 
 7407              	.LASF10:
 7408 0654 5F5F7569 		.ascii	"__uint32_t\000"
 7408      6E743332 
 7408      5F7400
 7409              	.LASF95:
 7410 065f 76657274 		.ascii	"vertex_p\000"
 7410      65785F70 
 7410      00
 7411              	.LASF71:
 7412 0668 6C765F74 		.ascii	"lv_text_decor_t\000"
 7412      6578745F 
 7412      6465636F 
 7412      725F7400 
 7413              	.LASF12:
 7414 0678 6C6F6E67 		.ascii	"long long int\000"
 7414      206C6F6E 
 7414      6720696E 
 7414      7400
 7415              	.LASF206:
 7416 0686 656E645F 		.ascii	"end_quarter\000"
 7416      71756172 
 7416      74657200 
 7417              	.LASF133:
 7418 0692 73686164 		.ascii	"shadow_color\000"
 7418      6F775F63 
 7418      6F6C6F72 
 7418      00
 7419              	.LASF160:
ARM GAS  C:\Users\haske\AppData\Local\Temp\ccxlcgkV.s 			page 150


 7420 069f 77696474 		.ascii	"width\000"
 7420      6800
 7421              	.LASF249:
 7422 06a5 6C765F64 		.ascii	"lv_draw_mask_remove_id\000"
 7422      7261775F 
 7422      6D61736B 
 7422      5F72656D 
 7422      6F76655F 
 7423              	.LASF111:
 7424 06bc 63697263 		.ascii	"circle\000"
 7424      6C6500
 7425              	.LASF196:
 7426 06c3 77616974 		.ascii	"wait_for_finish\000"
 7426      5F666F72 
 7426      5F66696E 
 7426      69736800 
 7427              	.LASF248:
 7428 06d3 6C765F64 		.ascii	"lv_draw_mask_add\000"
 7428      7261775F 
 7428      6D61736B 
 7428      5F616464 
 7428      00
 7429              	.LASF170:
 7430 06e4 4C565F44 		.ascii	"LV_DRAW_LAYER_FLAG_NONE\000"
 7430      5241575F 
 7430      4C415945 
 7430      525F464C 
 7430      41475F4E 
 7431              	.LASF68:
 7432 06fc 6C765F74 		.ascii	"lv_text_align_t\000"
 7432      6578745F 
 7432      616C6967 
 7432      6E5F7400 
 7433              	.LASF61:
 7434 070c 756E6465 		.ascii	"underline_thickness\000"
 7434      726C696E 
 7434      655F7468 
 7434      69636B6E 
 7434      65737300 
 7435              	.LASF148:
 7436 0720 616C6967 		.ascii	"align\000"
 7436      6E00
 7437              	.LASF26:
 7438 0726 4C565F4F 		.ascii	"LV_OPA_TRANSP\000"
 7438      50415F54 
 7438      52414E53 
 7438      5000
 7439              	.LASF90:
 7440 0734 78795F73 		.ascii	"xy_steep\000"
 7440      74656570 
 7440      00
 7441              	.LASF89:
 7442 073d 6F726967 		.ascii	"origo\000"
 7442      6F00
 7443              	.LASF14:
 7444 0743 756E7369 		.ascii	"unsigned int\000"
 7444      676E6564 
ARM GAS  C:\Users\haske\AppData\Local\Temp\ccxlcgkV.s 			page 151


 7444      20696E74 
 7444      00
 7445              	.LASF174:
 7446 0750 636C6970 		.ascii	"clip_area\000"
 7446      5F617265 
 7446      6100
 7447              	.LASF142:
 7448 075a 73656C5F 		.ascii	"sel_end\000"
 7448      656E6400 
 7449              	.LASF257:
 7450 0762 6C765F64 		.ascii	"lv_draw_sw_arc\000"
 7450      7261775F 
 7450      73775F61 
 7450      726300
 7451              	.LASF179:
 7452 0771 61726561 		.ascii	"area_full\000"
 7452      5F66756C 
 7452      6C00
 7453              	.LASF149:
 7454 077b 666C6167 		.ascii	"flag\000"
 7454      00
 7455              	.LASF178:
 7456 0780 5F6C765F 		.ascii	"_lv_draw_layer_ctx_t\000"
 7456      64726177 
 7456      5F6C6179 
 7456      65725F63 
 7456      74785F74 
 7457              	.LASF132:
 7458 0795 6F75746C 		.ascii	"outline_opa\000"
 7458      696E655F 
 7458      6F706100 
 7459              	.LASF93:
 7460 07a1 666C6174 		.ascii	"flat\000"
 7460      00
 7461              	.LASF181:
 7462 07a6 6D61785F 		.ascii	"max_row_with_alpha\000"
 7462      726F775F 
 7462      77697468 
 7462      5F616C70 
 7462      686100
 7463              	.LASF157:
 7464 07b9 6672616D 		.ascii	"frame_id\000"
 7464      655F6964 
 7464      00
 7465              	.LASF156:
 7466 07c2 7265636F 		.ascii	"recolor_opa\000"
 7466      6C6F725F 
 7466      6F706100 
 7467              	.LASF232:
 7468 07ce 6D61736B 		.ascii	"mask_in_param\000"
 7468      5F696E5F 
 7468      70617261 
 7468      6D00
 7469              	.LASF64:
 7470 07dc 6C765F66 		.ascii	"lv_font_glyph_dsc_t\000"
 7470      6F6E745F 
 7470      676C7970 
ARM GAS  C:\Users\haske\AppData\Local\Temp\ccxlcgkV.s 			page 152


 7470      685F6473 
 7470      635F7400 
 7471              	.LASF130:
 7472 07f0 6F75746C 		.ascii	"outline_width\000"
 7472      696E655F 
 7472      77696474 
 7472      6800
 7473              	.LASF85:
 7474 07fe 6C765F64 		.ascii	"lv_draw_mask_line_side_t\000"
 7474      7261775F 
 7474      6D61736B 
 7474      5F6C696E 
 7474      655F7369 
 7475              	.LASF158:
 7476 0817 616E7469 		.ascii	"antialias\000"
 7476      616C6961 
 7476      7300
 7477              	.LASF37:
 7478 0821 4C565F4F 		.ascii	"LV_OPA_100\000"
 7478      50415F31 
 7478      303000
 7479              	.LASF109:
 7480 082c 72656374 		.ascii	"rect\000"
 7480      00
 7481              	.LASF215:
 7482 0831 636C6970 		.ascii	"clip_area_ori\000"
 7482      5F617265 
 7482      615F6F72 
 7482      6900
 7483              	.LASF21:
 7484 083f 6C765F72 		.ascii	"lv_res_t\000"
 7484      65735F74 
 7484      00
 7485              	.LASF23:
 7486 0848 6C6F6E67 		.ascii	"long double\000"
 7486      20646F75 
 7486      626C6500 
 7487              	.LASF74:
 7488 0854 6C765F64 		.ascii	"lv_dither_mode_t\000"
 7488      69746865 
 7488      725F6D6F 
 7488      64655F74 
 7488      00
 7489              	.LASF229:
 7490 0865 61726561 		.ascii	"area_out\000"
 7490      5F6F7574 
 7490      00
 7491              	.LASF59:
 7492 086e 73756270 		.ascii	"subpx\000"
 7492      7800
 7493              	.LASF38:
 7494 0874 4C565F4F 		.ascii	"LV_OPA_COVER\000"
 7494      50415F43 
 7494      4F564552 
 7494      00
 7495              	.LASF124:
 7496 0881 626F7264 		.ascii	"border_color\000"
ARM GAS  C:\Users\haske\AppData\Local\Temp\ccxlcgkV.s 			page 153


 7496      65725F63 
 7496      6F6C6F72 
 7496      00
 7497              	.LASF122:
 7498 088e 62675F69 		.ascii	"bg_img_recolor_opa\000"
 7498      6D675F72 
 7498      65636F6C 
 7498      6F725F6F 
 7498      706100
 7499              	.LASF172:
 7500 08a1 4C565F44 		.ascii	"LV_DRAW_LAYER_FLAG_CAN_SUBDIVIDE\000"
 7500      5241575F 
 7500      4C415945 
 7500      525F464C 
 7500      41475F43 
 7501              	.LASF246:
 7502 08c2 6C765F64 		.ascii	"lv_draw_rect\000"
 7502      7261775F 
 7502      72656374 
 7502      00
 7503              	.LASF0:
 7504 08cf 5F5F696E 		.ascii	"__int8_t\000"
 7504      74385F74 
 7504      00
 7505              	.LASF182:
 7506 08d8 6D61785F 		.ascii	"max_row_with_no_alpha\000"
 7506      726F775F 
 7506      77697468 
 7506      5F6E6F5F 
 7506      616C7068 
 7507              	.LASF13:
 7508 08ee 6C6F6E67 		.ascii	"long long unsigned int\000"
 7508      206C6F6E 
 7508      6720756E 
 7508      7369676E 
 7508      65642069 
 7509              	.LASF139:
 7510 0905 6C765F64 		.ascii	"lv_draw_rect_dsc_t\000"
 7510      7261775F 
 7510      72656374 
 7510      5F647363 
 7510      5F7400
 7511              	.LASF18:
 7512 0918 75696E74 		.ascii	"uint16_t\000"
 7512      31365F74 
 7512      00
 7513              	.LASF240:
 7514 0921 6D61736B 		.ascii	"mask_end_param\000"
 7514      5F656E64 
 7514      5F706172 
 7514      616D00
 7515              	.LASF43:
 7516 0930 6C765F63 		.ascii	"lv_color_t\000"
 7516      6F6C6F72 
 7516      5F7400
 7517              	.LASF84:
 7518 093b 6C765F64 		.ascii	"lv_draw_mask_xcb_t\000"
ARM GAS  C:\Users\haske\AppData\Local\Temp\ccxlcgkV.s 			page 154


 7518      7261775F 
 7518      6D61736B 
 7518      5F786362 
 7518      5F7400
 7519              	.LASF191:
 7520 094e 64726177 		.ascii	"draw_letter\000"
 7520      5F6C6574 
 7520      74657200 
 7521              	.LASF225:
 7522 095a 74686963 		.ascii	"thick_corr\000"
 7522      6B5F636F 
 7522      727200
 7523              	.LASF214:
 7524 0965 6C765F61 		.ascii	"lv_area_get_height\000"
 7524      7265615F 
 7524      6765745F 
 7524      68656967 
 7524      687400
 7525              	.LASF125:
 7526 0978 626F7264 		.ascii	"border_width\000"
 7526      65725F77 
 7526      69647468 
 7526      00
 7527              	.LASF67:
 7528 0985 6C765F74 		.ascii	"lv_text_flag_t\000"
 7528      6578745F 
 7528      666C6167 
 7528      5F7400
 7529              	.LASF28:
 7530 0994 4C565F4F 		.ascii	"LV_OPA_10\000"
 7530      50415F31 
 7530      3000
 7531              	.LASF154:
 7532 099e 7069766F 		.ascii	"pivot\000"
 7532      7400
 7533              	.LASF241:
 7534 09a4 726F756E 		.ascii	"round_area\000"
 7534      645F6172 
 7534      656100
 7535              	.LASF150:
 7536 09af 6465636F 		.ascii	"decor\000"
 7536      7200
 7537              	.LASF94:
 7538 09b5 6C765F64 		.ascii	"lv_draw_mask_line_param_t\000"
 7538      7261775F 
 7538      6D61736B 
 7538      5F6C696E 
 7538      655F7061 
 7539              	.LASF4:
 7540 09cf 5F5F696E 		.ascii	"__int16_t\000"
 7540      7431365F 
 7540      7400
 7541              	.LASF199:
 7542 09d9 6C617965 		.ascii	"layer_adjust\000"
 7542      725F6164 
 7542      6A757374 
 7542      00
ARM GAS  C:\Users\haske\AppData\Local\Temp\ccxlcgkV.s 			page 155


 7543              	.LASF212:
 7544 09e6 64657374 		.ascii	"dest\000"
 7544      00
 7545              	.LASF41:
 7546 09eb 66756C6C 		.ascii	"full\000"
 7546      00
 7547              	.LASF184:
 7548 09f0 6C765F64 		.ascii	"lv_draw_layer_ctx_t\000"
 7548      7261775F 
 7548      6C617965 
 7548      725F6374 
 7548      785F7400 
 7549              	.LASF29:
 7550 0a04 4C565F4F 		.ascii	"LV_OPA_20\000"
 7550      50415F32 
 7550      3000
 7551              	.LASF75:
 7552 0a0e 636F6C6F 		.ascii	"color\000"
 7552      7200
 7553              	.LASF78:
 7554 0a14 73746F70 		.ascii	"stops\000"
 7554      7300
 7555              	.LASF145:
 7556 0a1a 6C696E65 		.ascii	"line_space\000"
 7556      5F737061 
 7556      636500
 7557              	.LASF200:
 7558 0a25 6C617965 		.ascii	"layer_blend\000"
 7558      725F626C 
 7558      656E6400 
 7559              	.LASF247:
 7560 0a31 6C765F64 		.ascii	"lv_draw_mask_radius_init\000"
 7560      7261775F 
 7560      6D61736B 
 7560      5F726164 
 7560      6975735F 
 7561              	.LASF72:
 7562 0a4a 6C765F62 		.ascii	"lv_border_side_t\000"
 7562      6F726465 
 7562      725F7369 
 7562      64655F74 
 7562      00
 7563              	.LASF76:
 7564 0a5b 66726163 		.ascii	"frac\000"
 7564      00
 7565              	.LASF140:
 7566 0a60 666F6E74 		.ascii	"font\000"
 7566      00
 7567              	.LASF146:
 7568 0a65 6C657474 		.ascii	"letter_space\000"
 7568      65725F73 
 7568      70616365 
 7568      00
 7569              	.LASF30:
 7570 0a72 4C565F4F 		.ascii	"LV_OPA_30\000"
 7570      50415F33 
 7570      3000
ARM GAS  C:\Users\haske\AppData\Local\Temp\ccxlcgkV.s 			page 156


 7571              	.LASF169:
 7572 0a7c 6C765F64 		.ascii	"lv_draw_arc_dsc_t\000"
 7572      7261775F 
 7572      6172635F 
 7572      6473635F 
 7572      7400
 7573              	.LASF104:
 7574 0a8e 6F70615F 		.ascii	"opa_start_on_y\000"
 7574      73746172 
 7574      745F6F6E 
 7574      5F7900
 7575              	.LASF51:
 7576 0a9d 626F785F 		.ascii	"box_h\000"
 7576      6800
 7577              	.LASF120:
 7578 0aa3 62675F69 		.ascii	"bg_img_recolor\000"
 7578      6D675F72 
 7578      65636F6C 
 7578      6F7200
 7579              	.LASF234:
 7580 0ab2 6D61736B 		.ascii	"mask_out_param\000"
 7580      5F6F7574 
 7580      5F706172 
 7580      616D00
 7581              	.LASF42:
 7582 0ac1 6C765F63 		.ascii	"lv_color16_t\000"
 7582      6F6C6F72 
 7582      31365F74 
 7582      00
 7583              	.LASF50:
 7584 0ace 626F785F 		.ascii	"box_w\000"
 7584      7700
 7585              	.LASF99:
 7586 0ad4 656E645F 		.ascii	"end_line\000"
 7586      6C696E65 
 7586      00
 7587              	.LASF5:
 7588 0add 73686F72 		.ascii	"short int\000"
 7588      7420696E 
 7588      7400
 7589              	.LASF58:
 7590 0ae7 62617365 		.ascii	"base_line\000"
 7590      5F6C696E 
 7590      6500
 7591              	.LASF258:
 7592 0af1 6C765F66 		.ascii	"lv_font_montserrat_14\000"
 7592      6F6E745F 
 7592      6D6F6E74 
 7592      73657272 
 7592      61745F31 
 7593              	.LASF121:
 7594 0b07 62675F69 		.ascii	"bg_img_opa\000"
 7594      6D675F6F 
 7594      706100
 7595              	.LASF138:
 7596 0b12 73686164 		.ascii	"shadow_opa\000"
 7596      6F775F6F 
ARM GAS  C:\Users\haske\AppData\Local\Temp\ccxlcgkV.s 			page 157


 7596      706100
 7597              	.LASF31:
 7598 0b1d 4C565F4F 		.ascii	"LV_OPA_40\000"
 7598      50415F34 
 7598      3000
 7599              	.LASF17:
 7600 0b27 696E7431 		.ascii	"int16_t\000"
 7600      365F7400 
 7601              	.LASF237:
 7602 0b2f 6D61736B 		.ascii	"mask_angle_id\000"
 7602      5F616E67 
 7602      6C655F69 
 7602      6400
 7603              	.LASF168:
 7604 0b3d 726F756E 		.ascii	"rounded\000"
 7604      64656400 
 7605              	.LASF176:
 7606 0b45 73637265 		.ascii	"screen_transp\000"
 7606      656E5F74 
 7606      72616E73 
 7606      7000
 7607              	.LASF32:
 7608 0b53 4C565F4F 		.ascii	"LV_OPA_50\000"
 7608      50415F35 
 7608      3000
 7609              	.LASF213:
 7610 0b5d 6C765F61 		.ascii	"lv_area_get_width\000"
 7610      7265615F 
 7610      6765745F 
 7610      77696474 
 7610      6800
 7611              	.LASF255:
 7612 0b6f 433A5C50 		.ascii	"C:\\Projects\\PainDrain\\firmware\\PainDrain\\PainD"
 7612      726F6A65 
 7612      6374735C 
 7612      5061696E 
 7612      44726169 
 7613 0b9d 7261696E 		.ascii	"rain.cydsn\000"
 7613      2E637964 
 7613      736E00
 7614              	.LASF126:
 7615 0ba8 626F7264 		.ascii	"border_opa\000"
 7615      65725F6F 
 7615      706100
 7616              	.LASF117:
 7617 0bb3 62675F67 		.ascii	"bg_grad\000"
 7617      72616400 
 7618              	.LASF209:
 7619 0bbb 64726177 		.ascii	"draw_ctx\000"
 7619      5F637478 
 7619      00
 7620              	.LASF190:
 7621 0bc4 64726177 		.ascii	"draw_img\000"
 7621      5F696D67 
 7621      00
 7622              	.LASF77:
 7623 0bcd 6C765F67 		.ascii	"lv_gradient_stop_t\000"
ARM GAS  C:\Users\haske\AppData\Local\Temp\ccxlcgkV.s 			page 158


 7623      72616469 
 7623      656E745F 
 7623      73746F70 
 7623      5F7400
 7624              	.LASF33:
 7625 0be0 4C565F4F 		.ascii	"LV_OPA_60\000"
 7625      50415F36 
 7625      3000
 7626              	.LASF193:
 7627 0bea 64726177 		.ascii	"draw_polygon\000"
 7627      5F706F6C 
 7627      79676F6E 
 7627      00
 7628              	.LASF83:
 7629 0bf7 6C765F64 		.ascii	"lv_draw_mask_type_t\000"
 7629      7261775F 
 7629      6D61736B 
 7629      5F747970 
 7629      655F7400 
 7630              	.LASF141:
 7631 0c0b 73656C5F 		.ascii	"sel_start\000"
 7631      73746172 
 7631      7400
 7632              	.LASF20:
 7633 0c15 75696E74 		.ascii	"uint32_t\000"
 7633      33325F74 
 7633      00
 7634              	.LASF134:
 7635 0c1e 73686164 		.ascii	"shadow_width\000"
 7635      6F775F77 
 7635      69647468 
 7635      00
 7636              	.LASF40:
 7637 0c2b 67726565 		.ascii	"green\000"
 7637      6E00
 7638              	.LASF66:
 7639 0c31 6C765F66 		.ascii	"lv_font_t\000"
 7639      6F6E745F 
 7639      7400
 7640              	.LASF217:
 7641 0c3b 64726177 		.ascii	"draw_quarter_0\000"
 7641      5F717561 
 7641      72746572 
 7641      5F3000
 7642              	.LASF98:
 7643 0c4a 73746172 		.ascii	"start_line\000"
 7643      745F6C69 
 7643      6E6500
 7644              	.LASF219:
 7645 0c55 64726177 		.ascii	"draw_quarter_2\000"
 7645      5F717561 
 7645      72746572 
 7645      5F3200
 7646              	.LASF220:
 7647 0c64 64726177 		.ascii	"draw_quarter_3\000"
 7647      5F717561 
 7647      72746572 
ARM GAS  C:\Users\haske\AppData\Local\Temp\ccxlcgkV.s 			page 159


 7647      5F3300
 7648              	.LASF80:
 7649 0c73 64697468 		.ascii	"dither\000"
 7649      657200
 7650              	.LASF34:
 7651 0c7a 4C565F4F 		.ascii	"LV_OPA_70\000"
 7651      50415F37 
 7651      3000
 7652              	.LASF7:
 7653 0c84 73686F72 		.ascii	"short unsigned int\000"
 7653      7420756E 
 7653      7369676E 
 7653      65642069 
 7653      6E7400
 7654              	.LASF236:
 7655 0c97 6D61736B 		.ascii	"mask_angle_param\000"
 7655      5F616E67 
 7655      6C655F70 
 7655      6172616D 
 7655      00
 7656              	.LASF221:
 7657 0ca8 6765745F 		.ascii	"get_rounded_area\000"
 7657      726F756E 
 7657      6465645F 
 7657      61726561 
 7657      00
 7658              	.LASF45:
 7659 0cb9 6C765F63 		.ascii	"lv_coord_t\000"
 7659      6F6F7264 
 7659      5F7400
 7660              	.LASF63:
 7661 0cc4 75736572 		.ascii	"user_data\000"
 7661      5F646174 
 7661      6100
 7662              	.LASF55:
 7663 0cce 6765745F 		.ascii	"get_glyph_dsc\000"
 7663      676C7970 
 7663      685F6473 
 7663      6300
 7664              	.LASF8:
 7665 0cdc 5F5F696E 		.ascii	"__int32_t\000"
 7665      7433325F 
 7665      7400
 7666              	.LASF73:
 7667 0ce6 6C765F67 		.ascii	"lv_grad_dir_t\000"
 7667      7261645F 
 7667      6469725F 
 7667      7400
 7668              	.LASF231:
 7669 0cf4 6D61736B 		.ascii	"mask_in_id\000"
 7669      5F696E5F 
 7669      696400
 7670              	.LASF250:
 7671 0cff 6C765F64 		.ascii	"lv_draw_mask_free_param\000"
 7671      7261775F 
 7671      6D61736B 
 7671      5F667265 
ARM GAS  C:\Users\haske\AppData\Local\Temp\ccxlcgkV.s 			page 160


 7671      655F7061 
 7672              	.LASF35:
 7673 0d17 4C565F4F 		.ascii	"LV_OPA_80\000"
 7673      50415F38 
 7673      3000
 7674              	.LASF88:
 7675 0d21 73696465 		.ascii	"side\000"
 7675      00
 7676              	.LASF106:
 7677 0d26 75736564 		.ascii	"used_cnt\000"
 7677      5F636E74 
 7677      00
 7678              	.LASF143:
 7679 0d2f 73656C5F 		.ascii	"sel_color\000"
 7679      636F6C6F 
 7679      7200
 7680              	.LASF87:
 7681 0d39 5F6C765F 		.ascii	"_lv_draw_mask_common_dsc_t\000"
 7681      64726177 
 7681      5F6D6173 
 7681      6B5F636F 
 7681      6D6D6F6E 
 7682              	.LASF135:
 7683 0d54 73686164 		.ascii	"shadow_ofs_x\000"
 7683      6F775F6F 
 7683      66735F78 
 7683      00
 7684              	.LASF136:
 7685 0d61 73686164 		.ascii	"shadow_ofs_y\000"
 7685      6F775F6F 
 7685      66735F79 
 7685      00
 7686              	.LASF81:
 7687 0d6e 6C765F67 		.ascii	"lv_grad_dsc_t\000"
 7687      7261645F 
 7687      6473635F 
 7687      7400
 7688              	.LASF227:
 7689 0d7c 6369725F 		.ascii	"cir_y\000"
 7689      7900
 7690              	.LASF54:
 7691 0d82 69735F70 		.ascii	"is_placeholder\000"
 7691      6C616365 
 7691      686F6C64 
 7691      657200
 7692              	.LASF36:
 7693 0d91 4C565F4F 		.ascii	"LV_OPA_90\000"
 7693      50415F39 
 7693      3000
 7694              		.ident	"GCC: (GNU Tools for ARM Embedded Processors) 5.4.1 20160609 (release) [ARM/embedded-5-bran
