ARM GAS  C:\Users\haske\AppData\Local\Temp\cct2dzUE.s 			page 1


   1              		.syntax unified
   2              		.cpu cortex-m4
   3              		.eabi_attribute 27, 1
   4              		.fpu fpv4-sp-d16
   5              		.eabi_attribute 20, 1
   6              		.eabi_attribute 21, 1
   7              		.eabi_attribute 23, 3
   8              		.eabi_attribute 24, 1
   9              		.eabi_attribute 25, 1
  10              		.eabi_attribute 26, 1
  11              		.eabi_attribute 30, 1
  12              		.eabi_attribute 34, 1
  13              		.eabi_attribute 18, 4
  14              		.thumb
  15              		.syntax unified
  16              		.file	"lv_disp.c"
  17              		.text
  18              	.Ltext0:
  19              		.cfi_sections	.debug_frame
  20              		.section	.text.is_out_anim,"ax",%progbits
  21              		.align	2
  22              		.thumb
  23              		.thumb_func
  24              		.type	is_out_anim, %function
  25              	is_out_anim:
  26              	.LFB188:
  27              		.file 1 "..\\..\\..\\arduinoLCD\\test\\Pain Drain\\libraries\\lvgl\\src\\core\\lv_disp.c"
   1:..\..\..\arduinoLCD\test\Pain Drain\libraries\lvgl\src\core/lv_disp.c **** /**
   2:..\..\..\arduinoLCD\test\Pain Drain\libraries\lvgl\src\core/lv_disp.c ****  * @file lv_disp.c
   3:..\..\..\arduinoLCD\test\Pain Drain\libraries\lvgl\src\core/lv_disp.c ****  *
   4:..\..\..\arduinoLCD\test\Pain Drain\libraries\lvgl\src\core/lv_disp.c ****  */
   5:..\..\..\arduinoLCD\test\Pain Drain\libraries\lvgl\src\core/lv_disp.c **** 
   6:..\..\..\arduinoLCD\test\Pain Drain\libraries\lvgl\src\core/lv_disp.c **** /*********************
   7:..\..\..\arduinoLCD\test\Pain Drain\libraries\lvgl\src\core/lv_disp.c ****  *      INCLUDES
   8:..\..\..\arduinoLCD\test\Pain Drain\libraries\lvgl\src\core/lv_disp.c ****  *********************/
   9:..\..\..\arduinoLCD\test\Pain Drain\libraries\lvgl\src\core/lv_disp.c **** #include "lv_disp.h"
  10:..\..\..\arduinoLCD\test\Pain Drain\libraries\lvgl\src\core/lv_disp.c **** #include "../misc/lv_math.h"
  11:..\..\..\arduinoLCD\test\Pain Drain\libraries\lvgl\src\core/lv_disp.c **** #include "../core/lv_refr.h"
  12:..\..\..\arduinoLCD\test\Pain Drain\libraries\lvgl\src\core/lv_disp.c **** 
  13:..\..\..\arduinoLCD\test\Pain Drain\libraries\lvgl\src\core/lv_disp.c **** /*********************
  14:..\..\..\arduinoLCD\test\Pain Drain\libraries\lvgl\src\core/lv_disp.c ****  *      DEFINES
  15:..\..\..\arduinoLCD\test\Pain Drain\libraries\lvgl\src\core/lv_disp.c ****  *********************/
  16:..\..\..\arduinoLCD\test\Pain Drain\libraries\lvgl\src\core/lv_disp.c **** 
  17:..\..\..\arduinoLCD\test\Pain Drain\libraries\lvgl\src\core/lv_disp.c **** /**********************
  18:..\..\..\arduinoLCD\test\Pain Drain\libraries\lvgl\src\core/lv_disp.c ****  *      TYPEDEFS
  19:..\..\..\arduinoLCD\test\Pain Drain\libraries\lvgl\src\core/lv_disp.c ****  **********************/
  20:..\..\..\arduinoLCD\test\Pain Drain\libraries\lvgl\src\core/lv_disp.c **** 
  21:..\..\..\arduinoLCD\test\Pain Drain\libraries\lvgl\src\core/lv_disp.c **** /**********************
  22:..\..\..\arduinoLCD\test\Pain Drain\libraries\lvgl\src\core/lv_disp.c ****  *  STATIC PROTOTYPES
  23:..\..\..\arduinoLCD\test\Pain Drain\libraries\lvgl\src\core/lv_disp.c ****  **********************/
  24:..\..\..\arduinoLCD\test\Pain Drain\libraries\lvgl\src\core/lv_disp.c **** static void scr_load_internal(lv_obj_t * scr);
  25:..\..\..\arduinoLCD\test\Pain Drain\libraries\lvgl\src\core/lv_disp.c **** static void scr_load_anim_start(lv_anim_t * a);
  26:..\..\..\arduinoLCD\test\Pain Drain\libraries\lvgl\src\core/lv_disp.c **** static void opa_scale_anim(void * obj, int32_t v);
  27:..\..\..\arduinoLCD\test\Pain Drain\libraries\lvgl\src\core/lv_disp.c **** static void set_x_anim(void * obj, int32_t v);
  28:..\..\..\arduinoLCD\test\Pain Drain\libraries\lvgl\src\core/lv_disp.c **** static void set_y_anim(void * obj, int32_t v);
  29:..\..\..\arduinoLCD\test\Pain Drain\libraries\lvgl\src\core/lv_disp.c **** static void scr_anim_ready(lv_anim_t * a);
  30:..\..\..\arduinoLCD\test\Pain Drain\libraries\lvgl\src\core/lv_disp.c **** static bool is_out_anim(lv_scr_load_anim_t a);
ARM GAS  C:\Users\haske\AppData\Local\Temp\cct2dzUE.s 			page 2


  31:..\..\..\arduinoLCD\test\Pain Drain\libraries\lvgl\src\core/lv_disp.c **** 
  32:..\..\..\arduinoLCD\test\Pain Drain\libraries\lvgl\src\core/lv_disp.c **** /**********************
  33:..\..\..\arduinoLCD\test\Pain Drain\libraries\lvgl\src\core/lv_disp.c ****  *  STATIC VARIABLES
  34:..\..\..\arduinoLCD\test\Pain Drain\libraries\lvgl\src\core/lv_disp.c ****  **********************/
  35:..\..\..\arduinoLCD\test\Pain Drain\libraries\lvgl\src\core/lv_disp.c **** 
  36:..\..\..\arduinoLCD\test\Pain Drain\libraries\lvgl\src\core/lv_disp.c **** /**********************
  37:..\..\..\arduinoLCD\test\Pain Drain\libraries\lvgl\src\core/lv_disp.c ****  *      MACROS
  38:..\..\..\arduinoLCD\test\Pain Drain\libraries\lvgl\src\core/lv_disp.c ****  **********************/
  39:..\..\..\arduinoLCD\test\Pain Drain\libraries\lvgl\src\core/lv_disp.c **** 
  40:..\..\..\arduinoLCD\test\Pain Drain\libraries\lvgl\src\core/lv_disp.c **** /**********************
  41:..\..\..\arduinoLCD\test\Pain Drain\libraries\lvgl\src\core/lv_disp.c ****  *   GLOBAL FUNCTIONS
  42:..\..\..\arduinoLCD\test\Pain Drain\libraries\lvgl\src\core/lv_disp.c ****  **********************/
  43:..\..\..\arduinoLCD\test\Pain Drain\libraries\lvgl\src\core/lv_disp.c **** 
  44:..\..\..\arduinoLCD\test\Pain Drain\libraries\lvgl\src\core/lv_disp.c **** /**
  45:..\..\..\arduinoLCD\test\Pain Drain\libraries\lvgl\src\core/lv_disp.c ****  * Return with a pointer to the active screen
  46:..\..\..\arduinoLCD\test\Pain Drain\libraries\lvgl\src\core/lv_disp.c ****  * @param disp pointer to display which active screen should be get. (NULL to use the default
  47:..\..\..\arduinoLCD\test\Pain Drain\libraries\lvgl\src\core/lv_disp.c ****  * screen)
  48:..\..\..\arduinoLCD\test\Pain Drain\libraries\lvgl\src\core/lv_disp.c ****  * @return pointer to the active screen object (loaded by 'lv_scr_load()')
  49:..\..\..\arduinoLCD\test\Pain Drain\libraries\lvgl\src\core/lv_disp.c ****  */
  50:..\..\..\arduinoLCD\test\Pain Drain\libraries\lvgl\src\core/lv_disp.c **** lv_obj_t * lv_disp_get_scr_act(lv_disp_t * disp)
  51:..\..\..\arduinoLCD\test\Pain Drain\libraries\lvgl\src\core/lv_disp.c **** {
  52:..\..\..\arduinoLCD\test\Pain Drain\libraries\lvgl\src\core/lv_disp.c ****     if(!disp) disp = lv_disp_get_default();
  53:..\..\..\arduinoLCD\test\Pain Drain\libraries\lvgl\src\core/lv_disp.c ****     if(!disp) {
  54:..\..\..\arduinoLCD\test\Pain Drain\libraries\lvgl\src\core/lv_disp.c ****         LV_LOG_WARN("no display registered to get its active screen");
  55:..\..\..\arduinoLCD\test\Pain Drain\libraries\lvgl\src\core/lv_disp.c ****         return NULL;
  56:..\..\..\arduinoLCD\test\Pain Drain\libraries\lvgl\src\core/lv_disp.c ****     }
  57:..\..\..\arduinoLCD\test\Pain Drain\libraries\lvgl\src\core/lv_disp.c **** 
  58:..\..\..\arduinoLCD\test\Pain Drain\libraries\lvgl\src\core/lv_disp.c ****     return disp->act_scr;
  59:..\..\..\arduinoLCD\test\Pain Drain\libraries\lvgl\src\core/lv_disp.c **** }
  60:..\..\..\arduinoLCD\test\Pain Drain\libraries\lvgl\src\core/lv_disp.c **** 
  61:..\..\..\arduinoLCD\test\Pain Drain\libraries\lvgl\src\core/lv_disp.c **** /**
  62:..\..\..\arduinoLCD\test\Pain Drain\libraries\lvgl\src\core/lv_disp.c ****  * Return with a pointer to the previous screen. Only used during screen transitions.
  63:..\..\..\arduinoLCD\test\Pain Drain\libraries\lvgl\src\core/lv_disp.c ****  * @param disp pointer to display which previous screen should be get. (NULL to use the default
  64:..\..\..\arduinoLCD\test\Pain Drain\libraries\lvgl\src\core/lv_disp.c ****  * screen)
  65:..\..\..\arduinoLCD\test\Pain Drain\libraries\lvgl\src\core/lv_disp.c ****  * @return pointer to the previous screen object or NULL if not used now
  66:..\..\..\arduinoLCD\test\Pain Drain\libraries\lvgl\src\core/lv_disp.c ****  */
  67:..\..\..\arduinoLCD\test\Pain Drain\libraries\lvgl\src\core/lv_disp.c **** lv_obj_t * lv_disp_get_scr_prev(lv_disp_t * disp)
  68:..\..\..\arduinoLCD\test\Pain Drain\libraries\lvgl\src\core/lv_disp.c **** {
  69:..\..\..\arduinoLCD\test\Pain Drain\libraries\lvgl\src\core/lv_disp.c ****     if(!disp) disp = lv_disp_get_default();
  70:..\..\..\arduinoLCD\test\Pain Drain\libraries\lvgl\src\core/lv_disp.c ****     if(!disp) {
  71:..\..\..\arduinoLCD\test\Pain Drain\libraries\lvgl\src\core/lv_disp.c ****         LV_LOG_WARN("no display registered to get its previous screen");
  72:..\..\..\arduinoLCD\test\Pain Drain\libraries\lvgl\src\core/lv_disp.c ****         return NULL;
  73:..\..\..\arduinoLCD\test\Pain Drain\libraries\lvgl\src\core/lv_disp.c ****     }
  74:..\..\..\arduinoLCD\test\Pain Drain\libraries\lvgl\src\core/lv_disp.c **** 
  75:..\..\..\arduinoLCD\test\Pain Drain\libraries\lvgl\src\core/lv_disp.c ****     return disp->prev_scr;
  76:..\..\..\arduinoLCD\test\Pain Drain\libraries\lvgl\src\core/lv_disp.c **** }
  77:..\..\..\arduinoLCD\test\Pain Drain\libraries\lvgl\src\core/lv_disp.c **** 
  78:..\..\..\arduinoLCD\test\Pain Drain\libraries\lvgl\src\core/lv_disp.c **** /**
  79:..\..\..\arduinoLCD\test\Pain Drain\libraries\lvgl\src\core/lv_disp.c ****  * Make a screen active
  80:..\..\..\arduinoLCD\test\Pain Drain\libraries\lvgl\src\core/lv_disp.c ****  * @param scr pointer to a screen
  81:..\..\..\arduinoLCD\test\Pain Drain\libraries\lvgl\src\core/lv_disp.c ****  */
  82:..\..\..\arduinoLCD\test\Pain Drain\libraries\lvgl\src\core/lv_disp.c **** void lv_disp_load_scr(lv_obj_t * scr)
  83:..\..\..\arduinoLCD\test\Pain Drain\libraries\lvgl\src\core/lv_disp.c **** {
  84:..\..\..\arduinoLCD\test\Pain Drain\libraries\lvgl\src\core/lv_disp.c ****     lv_scr_load_anim(scr, LV_SCR_LOAD_ANIM_NONE, 0, 0, false);
  85:..\..\..\arduinoLCD\test\Pain Drain\libraries\lvgl\src\core/lv_disp.c **** }
  86:..\..\..\arduinoLCD\test\Pain Drain\libraries\lvgl\src\core/lv_disp.c **** 
  87:..\..\..\arduinoLCD\test\Pain Drain\libraries\lvgl\src\core/lv_disp.c **** /**
ARM GAS  C:\Users\haske\AppData\Local\Temp\cct2dzUE.s 			page 3


  88:..\..\..\arduinoLCD\test\Pain Drain\libraries\lvgl\src\core/lv_disp.c ****  * Return with the top layer. (Same on every screen and it is above the normal screen layer)
  89:..\..\..\arduinoLCD\test\Pain Drain\libraries\lvgl\src\core/lv_disp.c ****  * @param disp pointer to display which top layer should be get. (NULL to use the default screen)
  90:..\..\..\arduinoLCD\test\Pain Drain\libraries\lvgl\src\core/lv_disp.c ****  * @return pointer to the top layer object (transparent screen sized lv_obj)
  91:..\..\..\arduinoLCD\test\Pain Drain\libraries\lvgl\src\core/lv_disp.c ****  */
  92:..\..\..\arduinoLCD\test\Pain Drain\libraries\lvgl\src\core/lv_disp.c **** lv_obj_t * lv_disp_get_layer_top(lv_disp_t * disp)
  93:..\..\..\arduinoLCD\test\Pain Drain\libraries\lvgl\src\core/lv_disp.c **** {
  94:..\..\..\arduinoLCD\test\Pain Drain\libraries\lvgl\src\core/lv_disp.c ****     if(!disp) disp = lv_disp_get_default();
  95:..\..\..\arduinoLCD\test\Pain Drain\libraries\lvgl\src\core/lv_disp.c ****     if(!disp) {
  96:..\..\..\arduinoLCD\test\Pain Drain\libraries\lvgl\src\core/lv_disp.c ****         LV_LOG_WARN("lv_layer_top: no display registered to get its top layer");
  97:..\..\..\arduinoLCD\test\Pain Drain\libraries\lvgl\src\core/lv_disp.c ****         return NULL;
  98:..\..\..\arduinoLCD\test\Pain Drain\libraries\lvgl\src\core/lv_disp.c ****     }
  99:..\..\..\arduinoLCD\test\Pain Drain\libraries\lvgl\src\core/lv_disp.c **** 
 100:..\..\..\arduinoLCD\test\Pain Drain\libraries\lvgl\src\core/lv_disp.c ****     return disp->top_layer;
 101:..\..\..\arduinoLCD\test\Pain Drain\libraries\lvgl\src\core/lv_disp.c **** }
 102:..\..\..\arduinoLCD\test\Pain Drain\libraries\lvgl\src\core/lv_disp.c **** 
 103:..\..\..\arduinoLCD\test\Pain Drain\libraries\lvgl\src\core/lv_disp.c **** /**
 104:..\..\..\arduinoLCD\test\Pain Drain\libraries\lvgl\src\core/lv_disp.c ****  * Return with the sys. layer. (Same on every screen and it is above the normal screen and the top
 105:..\..\..\arduinoLCD\test\Pain Drain\libraries\lvgl\src\core/lv_disp.c ****  * layer)
 106:..\..\..\arduinoLCD\test\Pain Drain\libraries\lvgl\src\core/lv_disp.c ****  * @param disp pointer to display which sys. layer should be retrieved. (NULL to use the default sc
 107:..\..\..\arduinoLCD\test\Pain Drain\libraries\lvgl\src\core/lv_disp.c ****  * @return pointer to the sys layer object (transparent screen sized lv_obj)
 108:..\..\..\arduinoLCD\test\Pain Drain\libraries\lvgl\src\core/lv_disp.c ****  */
 109:..\..\..\arduinoLCD\test\Pain Drain\libraries\lvgl\src\core/lv_disp.c **** lv_obj_t * lv_disp_get_layer_sys(lv_disp_t * disp)
 110:..\..\..\arduinoLCD\test\Pain Drain\libraries\lvgl\src\core/lv_disp.c **** {
 111:..\..\..\arduinoLCD\test\Pain Drain\libraries\lvgl\src\core/lv_disp.c ****     if(!disp) disp = lv_disp_get_default();
 112:..\..\..\arduinoLCD\test\Pain Drain\libraries\lvgl\src\core/lv_disp.c ****     if(!disp) {
 113:..\..\..\arduinoLCD\test\Pain Drain\libraries\lvgl\src\core/lv_disp.c ****         LV_LOG_WARN("lv_layer_sys: no display registered to get its sys. layer");
 114:..\..\..\arduinoLCD\test\Pain Drain\libraries\lvgl\src\core/lv_disp.c ****         return NULL;
 115:..\..\..\arduinoLCD\test\Pain Drain\libraries\lvgl\src\core/lv_disp.c ****     }
 116:..\..\..\arduinoLCD\test\Pain Drain\libraries\lvgl\src\core/lv_disp.c **** 
 117:..\..\..\arduinoLCD\test\Pain Drain\libraries\lvgl\src\core/lv_disp.c ****     return disp->sys_layer;
 118:..\..\..\arduinoLCD\test\Pain Drain\libraries\lvgl\src\core/lv_disp.c **** }
 119:..\..\..\arduinoLCD\test\Pain Drain\libraries\lvgl\src\core/lv_disp.c **** 
 120:..\..\..\arduinoLCD\test\Pain Drain\libraries\lvgl\src\core/lv_disp.c **** /**
 121:..\..\..\arduinoLCD\test\Pain Drain\libraries\lvgl\src\core/lv_disp.c ****  * Set the theme of a display
 122:..\..\..\arduinoLCD\test\Pain Drain\libraries\lvgl\src\core/lv_disp.c ****  * @param disp pointer to a display
 123:..\..\..\arduinoLCD\test\Pain Drain\libraries\lvgl\src\core/lv_disp.c ****  */
 124:..\..\..\arduinoLCD\test\Pain Drain\libraries\lvgl\src\core/lv_disp.c **** void lv_disp_set_theme(lv_disp_t * disp, lv_theme_t * th)
 125:..\..\..\arduinoLCD\test\Pain Drain\libraries\lvgl\src\core/lv_disp.c **** {
 126:..\..\..\arduinoLCD\test\Pain Drain\libraries\lvgl\src\core/lv_disp.c ****     if(!disp) disp = lv_disp_get_default();
 127:..\..\..\arduinoLCD\test\Pain Drain\libraries\lvgl\src\core/lv_disp.c ****     if(!disp) {
 128:..\..\..\arduinoLCD\test\Pain Drain\libraries\lvgl\src\core/lv_disp.c ****         LV_LOG_WARN("no display registered");
 129:..\..\..\arduinoLCD\test\Pain Drain\libraries\lvgl\src\core/lv_disp.c ****         return;
 130:..\..\..\arduinoLCD\test\Pain Drain\libraries\lvgl\src\core/lv_disp.c ****     }
 131:..\..\..\arduinoLCD\test\Pain Drain\libraries\lvgl\src\core/lv_disp.c **** 
 132:..\..\..\arduinoLCD\test\Pain Drain\libraries\lvgl\src\core/lv_disp.c ****     disp->theme = th;
 133:..\..\..\arduinoLCD\test\Pain Drain\libraries\lvgl\src\core/lv_disp.c **** 
 134:..\..\..\arduinoLCD\test\Pain Drain\libraries\lvgl\src\core/lv_disp.c ****     if(disp->screen_cnt == 3 &&
 135:..\..\..\arduinoLCD\test\Pain Drain\libraries\lvgl\src\core/lv_disp.c ****        lv_obj_get_child_cnt(disp->screens[0]) == 0 &&
 136:..\..\..\arduinoLCD\test\Pain Drain\libraries\lvgl\src\core/lv_disp.c ****        lv_obj_get_child_cnt(disp->screens[1]) == 0 &&
 137:..\..\..\arduinoLCD\test\Pain Drain\libraries\lvgl\src\core/lv_disp.c ****        lv_obj_get_child_cnt(disp->screens[2]) == 0) {
 138:..\..\..\arduinoLCD\test\Pain Drain\libraries\lvgl\src\core/lv_disp.c ****         lv_theme_apply(disp->screens[0]);
 139:..\..\..\arduinoLCD\test\Pain Drain\libraries\lvgl\src\core/lv_disp.c ****     }
 140:..\..\..\arduinoLCD\test\Pain Drain\libraries\lvgl\src\core/lv_disp.c **** }
 141:..\..\..\arduinoLCD\test\Pain Drain\libraries\lvgl\src\core/lv_disp.c **** /**
 142:..\..\..\arduinoLCD\test\Pain Drain\libraries\lvgl\src\core/lv_disp.c ****  * Get the theme of a display
 143:..\..\..\arduinoLCD\test\Pain Drain\libraries\lvgl\src\core/lv_disp.c ****  * @param disp pointer to a display
 144:..\..\..\arduinoLCD\test\Pain Drain\libraries\lvgl\src\core/lv_disp.c ****  * @return the display's theme (can be NULL)
ARM GAS  C:\Users\haske\AppData\Local\Temp\cct2dzUE.s 			page 4


 145:..\..\..\arduinoLCD\test\Pain Drain\libraries\lvgl\src\core/lv_disp.c ****  */
 146:..\..\..\arduinoLCD\test\Pain Drain\libraries\lvgl\src\core/lv_disp.c **** lv_theme_t * lv_disp_get_theme(lv_disp_t * disp)
 147:..\..\..\arduinoLCD\test\Pain Drain\libraries\lvgl\src\core/lv_disp.c **** {
 148:..\..\..\arduinoLCD\test\Pain Drain\libraries\lvgl\src\core/lv_disp.c ****     if(disp == NULL) disp = lv_disp_get_default();
 149:..\..\..\arduinoLCD\test\Pain Drain\libraries\lvgl\src\core/lv_disp.c ****     return disp->theme;
 150:..\..\..\arduinoLCD\test\Pain Drain\libraries\lvgl\src\core/lv_disp.c **** }
 151:..\..\..\arduinoLCD\test\Pain Drain\libraries\lvgl\src\core/lv_disp.c **** 
 152:..\..\..\arduinoLCD\test\Pain Drain\libraries\lvgl\src\core/lv_disp.c **** /**
 153:..\..\..\arduinoLCD\test\Pain Drain\libraries\lvgl\src\core/lv_disp.c ****  * Set the background color of a display
 154:..\..\..\arduinoLCD\test\Pain Drain\libraries\lvgl\src\core/lv_disp.c ****  * @param disp pointer to a display
 155:..\..\..\arduinoLCD\test\Pain Drain\libraries\lvgl\src\core/lv_disp.c ****  * @param color color of the background
 156:..\..\..\arduinoLCD\test\Pain Drain\libraries\lvgl\src\core/lv_disp.c ****  */
 157:..\..\..\arduinoLCD\test\Pain Drain\libraries\lvgl\src\core/lv_disp.c **** void lv_disp_set_bg_color(lv_disp_t * disp, lv_color_t color)
 158:..\..\..\arduinoLCD\test\Pain Drain\libraries\lvgl\src\core/lv_disp.c **** {
 159:..\..\..\arduinoLCD\test\Pain Drain\libraries\lvgl\src\core/lv_disp.c ****     if(!disp) disp = lv_disp_get_default();
 160:..\..\..\arduinoLCD\test\Pain Drain\libraries\lvgl\src\core/lv_disp.c ****     if(!disp) {
 161:..\..\..\arduinoLCD\test\Pain Drain\libraries\lvgl\src\core/lv_disp.c ****         LV_LOG_WARN("no display registered");
 162:..\..\..\arduinoLCD\test\Pain Drain\libraries\lvgl\src\core/lv_disp.c ****         return;
 163:..\..\..\arduinoLCD\test\Pain Drain\libraries\lvgl\src\core/lv_disp.c ****     }
 164:..\..\..\arduinoLCD\test\Pain Drain\libraries\lvgl\src\core/lv_disp.c **** 
 165:..\..\..\arduinoLCD\test\Pain Drain\libraries\lvgl\src\core/lv_disp.c ****     disp->bg_color = color;
 166:..\..\..\arduinoLCD\test\Pain Drain\libraries\lvgl\src\core/lv_disp.c **** 
 167:..\..\..\arduinoLCD\test\Pain Drain\libraries\lvgl\src\core/lv_disp.c ****     lv_area_t a;
 168:..\..\..\arduinoLCD\test\Pain Drain\libraries\lvgl\src\core/lv_disp.c ****     lv_area_set(&a, 0, 0, lv_disp_get_hor_res(disp) - 1, lv_disp_get_ver_res(disp) - 1);
 169:..\..\..\arduinoLCD\test\Pain Drain\libraries\lvgl\src\core/lv_disp.c ****     _lv_inv_area(disp, &a);
 170:..\..\..\arduinoLCD\test\Pain Drain\libraries\lvgl\src\core/lv_disp.c **** 
 171:..\..\..\arduinoLCD\test\Pain Drain\libraries\lvgl\src\core/lv_disp.c **** }
 172:..\..\..\arduinoLCD\test\Pain Drain\libraries\lvgl\src\core/lv_disp.c **** 
 173:..\..\..\arduinoLCD\test\Pain Drain\libraries\lvgl\src\core/lv_disp.c **** /**
 174:..\..\..\arduinoLCD\test\Pain Drain\libraries\lvgl\src\core/lv_disp.c ****  * Set the background image of a display
 175:..\..\..\arduinoLCD\test\Pain Drain\libraries\lvgl\src\core/lv_disp.c ****  * @param disp pointer to a display
 176:..\..\..\arduinoLCD\test\Pain Drain\libraries\lvgl\src\core/lv_disp.c ****  * @param img_src path to file or pointer to an `lv_img_dsc_t` variable
 177:..\..\..\arduinoLCD\test\Pain Drain\libraries\lvgl\src\core/lv_disp.c ****  */
 178:..\..\..\arduinoLCD\test\Pain Drain\libraries\lvgl\src\core/lv_disp.c **** void lv_disp_set_bg_image(lv_disp_t * disp, const void  * img_src)
 179:..\..\..\arduinoLCD\test\Pain Drain\libraries\lvgl\src\core/lv_disp.c **** {
 180:..\..\..\arduinoLCD\test\Pain Drain\libraries\lvgl\src\core/lv_disp.c ****     if(!disp) disp = lv_disp_get_default();
 181:..\..\..\arduinoLCD\test\Pain Drain\libraries\lvgl\src\core/lv_disp.c ****     if(!disp) {
 182:..\..\..\arduinoLCD\test\Pain Drain\libraries\lvgl\src\core/lv_disp.c ****         LV_LOG_WARN("no display registered");
 183:..\..\..\arduinoLCD\test\Pain Drain\libraries\lvgl\src\core/lv_disp.c ****         return;
 184:..\..\..\arduinoLCD\test\Pain Drain\libraries\lvgl\src\core/lv_disp.c ****     }
 185:..\..\..\arduinoLCD\test\Pain Drain\libraries\lvgl\src\core/lv_disp.c **** 
 186:..\..\..\arduinoLCD\test\Pain Drain\libraries\lvgl\src\core/lv_disp.c ****     disp->bg_img = img_src;
 187:..\..\..\arduinoLCD\test\Pain Drain\libraries\lvgl\src\core/lv_disp.c **** 
 188:..\..\..\arduinoLCD\test\Pain Drain\libraries\lvgl\src\core/lv_disp.c ****     lv_area_t a;
 189:..\..\..\arduinoLCD\test\Pain Drain\libraries\lvgl\src\core/lv_disp.c ****     lv_area_set(&a, 0, 0, lv_disp_get_hor_res(disp) - 1, lv_disp_get_ver_res(disp) - 1);
 190:..\..\..\arduinoLCD\test\Pain Drain\libraries\lvgl\src\core/lv_disp.c ****     _lv_inv_area(disp, &a);
 191:..\..\..\arduinoLCD\test\Pain Drain\libraries\lvgl\src\core/lv_disp.c **** }
 192:..\..\..\arduinoLCD\test\Pain Drain\libraries\lvgl\src\core/lv_disp.c **** 
 193:..\..\..\arduinoLCD\test\Pain Drain\libraries\lvgl\src\core/lv_disp.c **** /**
 194:..\..\..\arduinoLCD\test\Pain Drain\libraries\lvgl\src\core/lv_disp.c ****  * Set opacity of the background
 195:..\..\..\arduinoLCD\test\Pain Drain\libraries\lvgl\src\core/lv_disp.c ****  * @param disp pointer to a display
 196:..\..\..\arduinoLCD\test\Pain Drain\libraries\lvgl\src\core/lv_disp.c ****  * @param opa opacity (0..255)
 197:..\..\..\arduinoLCD\test\Pain Drain\libraries\lvgl\src\core/lv_disp.c ****  */
 198:..\..\..\arduinoLCD\test\Pain Drain\libraries\lvgl\src\core/lv_disp.c **** void lv_disp_set_bg_opa(lv_disp_t * disp, lv_opa_t opa)
 199:..\..\..\arduinoLCD\test\Pain Drain\libraries\lvgl\src\core/lv_disp.c **** {
 200:..\..\..\arduinoLCD\test\Pain Drain\libraries\lvgl\src\core/lv_disp.c ****     if(!disp) disp = lv_disp_get_default();
 201:..\..\..\arduinoLCD\test\Pain Drain\libraries\lvgl\src\core/lv_disp.c ****     if(!disp) {
ARM GAS  C:\Users\haske\AppData\Local\Temp\cct2dzUE.s 			page 5


 202:..\..\..\arduinoLCD\test\Pain Drain\libraries\lvgl\src\core/lv_disp.c ****         LV_LOG_WARN("no display registered");
 203:..\..\..\arduinoLCD\test\Pain Drain\libraries\lvgl\src\core/lv_disp.c ****         return;
 204:..\..\..\arduinoLCD\test\Pain Drain\libraries\lvgl\src\core/lv_disp.c ****     }
 205:..\..\..\arduinoLCD\test\Pain Drain\libraries\lvgl\src\core/lv_disp.c **** 
 206:..\..\..\arduinoLCD\test\Pain Drain\libraries\lvgl\src\core/lv_disp.c ****     disp->bg_opa = opa;
 207:..\..\..\arduinoLCD\test\Pain Drain\libraries\lvgl\src\core/lv_disp.c **** 
 208:..\..\..\arduinoLCD\test\Pain Drain\libraries\lvgl\src\core/lv_disp.c ****     lv_area_t a;
 209:..\..\..\arduinoLCD\test\Pain Drain\libraries\lvgl\src\core/lv_disp.c ****     lv_area_set(&a, 0, 0, lv_disp_get_hor_res(disp) - 1, lv_disp_get_ver_res(disp) - 1);
 210:..\..\..\arduinoLCD\test\Pain Drain\libraries\lvgl\src\core/lv_disp.c ****     _lv_inv_area(disp, &a);
 211:..\..\..\arduinoLCD\test\Pain Drain\libraries\lvgl\src\core/lv_disp.c **** }
 212:..\..\..\arduinoLCD\test\Pain Drain\libraries\lvgl\src\core/lv_disp.c **** 
 213:..\..\..\arduinoLCD\test\Pain Drain\libraries\lvgl\src\core/lv_disp.c **** /**
 214:..\..\..\arduinoLCD\test\Pain Drain\libraries\lvgl\src\core/lv_disp.c ****  * Switch screen with animation
 215:..\..\..\arduinoLCD\test\Pain Drain\libraries\lvgl\src\core/lv_disp.c ****  * @param scr pointer to the new screen to load
 216:..\..\..\arduinoLCD\test\Pain Drain\libraries\lvgl\src\core/lv_disp.c ****  * @param anim_type type of the animation from `lv_scr_load_anim_t`, e.g. `LV_SCR_LOAD_ANIM_MOVE_LE
 217:..\..\..\arduinoLCD\test\Pain Drain\libraries\lvgl\src\core/lv_disp.c ****  * @param time time of the animation
 218:..\..\..\arduinoLCD\test\Pain Drain\libraries\lvgl\src\core/lv_disp.c ****  * @param delay delay before the transition
 219:..\..\..\arduinoLCD\test\Pain Drain\libraries\lvgl\src\core/lv_disp.c ****  * @param auto_del true: automatically delete the old screen
 220:..\..\..\arduinoLCD\test\Pain Drain\libraries\lvgl\src\core/lv_disp.c ****  */
 221:..\..\..\arduinoLCD\test\Pain Drain\libraries\lvgl\src\core/lv_disp.c **** void lv_scr_load_anim(lv_obj_t * new_scr, lv_scr_load_anim_t anim_type, uint32_t time, uint32_t del
 222:..\..\..\arduinoLCD\test\Pain Drain\libraries\lvgl\src\core/lv_disp.c **** {
 223:..\..\..\arduinoLCD\test\Pain Drain\libraries\lvgl\src\core/lv_disp.c **** 
 224:..\..\..\arduinoLCD\test\Pain Drain\libraries\lvgl\src\core/lv_disp.c ****     lv_disp_t * d = lv_obj_get_disp(new_scr);
 225:..\..\..\arduinoLCD\test\Pain Drain\libraries\lvgl\src\core/lv_disp.c ****     lv_obj_t * act_scr = lv_scr_act();
 226:..\..\..\arduinoLCD\test\Pain Drain\libraries\lvgl\src\core/lv_disp.c **** 
 227:..\..\..\arduinoLCD\test\Pain Drain\libraries\lvgl\src\core/lv_disp.c ****     /*If an other screen load animation is in progress
 228:..\..\..\arduinoLCD\test\Pain Drain\libraries\lvgl\src\core/lv_disp.c ****      *make target screen loaded immediately. */
 229:..\..\..\arduinoLCD\test\Pain Drain\libraries\lvgl\src\core/lv_disp.c ****     if(d->scr_to_load && act_scr != d->scr_to_load) {
 230:..\..\..\arduinoLCD\test\Pain Drain\libraries\lvgl\src\core/lv_disp.c ****         scr_load_internal(d->scr_to_load);
 231:..\..\..\arduinoLCD\test\Pain Drain\libraries\lvgl\src\core/lv_disp.c ****         lv_anim_del(d->scr_to_load, NULL);
 232:..\..\..\arduinoLCD\test\Pain Drain\libraries\lvgl\src\core/lv_disp.c ****         lv_obj_set_pos(d->scr_to_load, 0, 0);
 233:..\..\..\arduinoLCD\test\Pain Drain\libraries\lvgl\src\core/lv_disp.c ****         lv_obj_remove_local_style_prop(d->scr_to_load, LV_STYLE_OPA, 0);
 234:..\..\..\arduinoLCD\test\Pain Drain\libraries\lvgl\src\core/lv_disp.c **** 
 235:..\..\..\arduinoLCD\test\Pain Drain\libraries\lvgl\src\core/lv_disp.c ****         if(d->del_prev) {
 236:..\..\..\arduinoLCD\test\Pain Drain\libraries\lvgl\src\core/lv_disp.c ****             lv_obj_del(act_scr);
 237:..\..\..\arduinoLCD\test\Pain Drain\libraries\lvgl\src\core/lv_disp.c ****         }
 238:..\..\..\arduinoLCD\test\Pain Drain\libraries\lvgl\src\core/lv_disp.c ****         act_scr = d->scr_to_load;
 239:..\..\..\arduinoLCD\test\Pain Drain\libraries\lvgl\src\core/lv_disp.c ****     }
 240:..\..\..\arduinoLCD\test\Pain Drain\libraries\lvgl\src\core/lv_disp.c **** 
 241:..\..\..\arduinoLCD\test\Pain Drain\libraries\lvgl\src\core/lv_disp.c ****     d->scr_to_load = new_scr;
 242:..\..\..\arduinoLCD\test\Pain Drain\libraries\lvgl\src\core/lv_disp.c **** 
 243:..\..\..\arduinoLCD\test\Pain Drain\libraries\lvgl\src\core/lv_disp.c ****     if(d->prev_scr && d->del_prev) {
 244:..\..\..\arduinoLCD\test\Pain Drain\libraries\lvgl\src\core/lv_disp.c ****         lv_obj_del(d->prev_scr);
 245:..\..\..\arduinoLCD\test\Pain Drain\libraries\lvgl\src\core/lv_disp.c ****         d->prev_scr = NULL;
 246:..\..\..\arduinoLCD\test\Pain Drain\libraries\lvgl\src\core/lv_disp.c ****     }
 247:..\..\..\arduinoLCD\test\Pain Drain\libraries\lvgl\src\core/lv_disp.c **** 
 248:..\..\..\arduinoLCD\test\Pain Drain\libraries\lvgl\src\core/lv_disp.c ****     d->draw_prev_over_act = is_out_anim(anim_type);
 249:..\..\..\arduinoLCD\test\Pain Drain\libraries\lvgl\src\core/lv_disp.c ****     d->del_prev = auto_del;
 250:..\..\..\arduinoLCD\test\Pain Drain\libraries\lvgl\src\core/lv_disp.c **** 
 251:..\..\..\arduinoLCD\test\Pain Drain\libraries\lvgl\src\core/lv_disp.c ****     /*Be sure there is no other animation on the screens*/
 252:..\..\..\arduinoLCD\test\Pain Drain\libraries\lvgl\src\core/lv_disp.c ****     lv_anim_del(new_scr, NULL);
 253:..\..\..\arduinoLCD\test\Pain Drain\libraries\lvgl\src\core/lv_disp.c ****     lv_anim_del(lv_scr_act(), NULL);
 254:..\..\..\arduinoLCD\test\Pain Drain\libraries\lvgl\src\core/lv_disp.c **** 
 255:..\..\..\arduinoLCD\test\Pain Drain\libraries\lvgl\src\core/lv_disp.c ****     /*Be sure both screens are in a normal position*/
 256:..\..\..\arduinoLCD\test\Pain Drain\libraries\lvgl\src\core/lv_disp.c ****     lv_obj_set_pos(new_scr, 0, 0);
 257:..\..\..\arduinoLCD\test\Pain Drain\libraries\lvgl\src\core/lv_disp.c ****     lv_obj_set_pos(lv_scr_act(), 0, 0);
 258:..\..\..\arduinoLCD\test\Pain Drain\libraries\lvgl\src\core/lv_disp.c ****     lv_obj_remove_local_style_prop(new_scr, LV_STYLE_OPA, 0);
ARM GAS  C:\Users\haske\AppData\Local\Temp\cct2dzUE.s 			page 6


 259:..\..\..\arduinoLCD\test\Pain Drain\libraries\lvgl\src\core/lv_disp.c ****     lv_obj_remove_local_style_prop(lv_scr_act(), LV_STYLE_OPA, 0);
 260:..\..\..\arduinoLCD\test\Pain Drain\libraries\lvgl\src\core/lv_disp.c **** 
 261:..\..\..\arduinoLCD\test\Pain Drain\libraries\lvgl\src\core/lv_disp.c **** 
 262:..\..\..\arduinoLCD\test\Pain Drain\libraries\lvgl\src\core/lv_disp.c ****     /*Shortcut for immediate load*/
 263:..\..\..\arduinoLCD\test\Pain Drain\libraries\lvgl\src\core/lv_disp.c ****     if(time == 0 && delay == 0) {
 264:..\..\..\arduinoLCD\test\Pain Drain\libraries\lvgl\src\core/lv_disp.c ****         scr_load_internal(new_scr);
 265:..\..\..\arduinoLCD\test\Pain Drain\libraries\lvgl\src\core/lv_disp.c ****         return;
 266:..\..\..\arduinoLCD\test\Pain Drain\libraries\lvgl\src\core/lv_disp.c ****     }
 267:..\..\..\arduinoLCD\test\Pain Drain\libraries\lvgl\src\core/lv_disp.c **** 
 268:..\..\..\arduinoLCD\test\Pain Drain\libraries\lvgl\src\core/lv_disp.c ****     lv_anim_t a_new;
 269:..\..\..\arduinoLCD\test\Pain Drain\libraries\lvgl\src\core/lv_disp.c ****     lv_anim_init(&a_new);
 270:..\..\..\arduinoLCD\test\Pain Drain\libraries\lvgl\src\core/lv_disp.c ****     lv_anim_set_var(&a_new, new_scr);
 271:..\..\..\arduinoLCD\test\Pain Drain\libraries\lvgl\src\core/lv_disp.c ****     lv_anim_set_start_cb(&a_new, scr_load_anim_start);
 272:..\..\..\arduinoLCD\test\Pain Drain\libraries\lvgl\src\core/lv_disp.c ****     lv_anim_set_ready_cb(&a_new, scr_anim_ready);
 273:..\..\..\arduinoLCD\test\Pain Drain\libraries\lvgl\src\core/lv_disp.c ****     lv_anim_set_time(&a_new, time);
 274:..\..\..\arduinoLCD\test\Pain Drain\libraries\lvgl\src\core/lv_disp.c ****     lv_anim_set_delay(&a_new, delay);
 275:..\..\..\arduinoLCD\test\Pain Drain\libraries\lvgl\src\core/lv_disp.c **** 
 276:..\..\..\arduinoLCD\test\Pain Drain\libraries\lvgl\src\core/lv_disp.c ****     lv_anim_t a_old;
 277:..\..\..\arduinoLCD\test\Pain Drain\libraries\lvgl\src\core/lv_disp.c ****     lv_anim_init(&a_old);
 278:..\..\..\arduinoLCD\test\Pain Drain\libraries\lvgl\src\core/lv_disp.c ****     lv_anim_set_var(&a_old, d->act_scr);
 279:..\..\..\arduinoLCD\test\Pain Drain\libraries\lvgl\src\core/lv_disp.c ****     lv_anim_set_time(&a_old, time);
 280:..\..\..\arduinoLCD\test\Pain Drain\libraries\lvgl\src\core/lv_disp.c ****     lv_anim_set_delay(&a_old, delay);
 281:..\..\..\arduinoLCD\test\Pain Drain\libraries\lvgl\src\core/lv_disp.c **** 
 282:..\..\..\arduinoLCD\test\Pain Drain\libraries\lvgl\src\core/lv_disp.c ****     switch(anim_type) {
 283:..\..\..\arduinoLCD\test\Pain Drain\libraries\lvgl\src\core/lv_disp.c ****         case LV_SCR_LOAD_ANIM_NONE:
 284:..\..\..\arduinoLCD\test\Pain Drain\libraries\lvgl\src\core/lv_disp.c ****             /*Create a dummy animation to apply the delay*/
 285:..\..\..\arduinoLCD\test\Pain Drain\libraries\lvgl\src\core/lv_disp.c ****             lv_anim_set_exec_cb(&a_new, set_x_anim);
 286:..\..\..\arduinoLCD\test\Pain Drain\libraries\lvgl\src\core/lv_disp.c ****             lv_anim_set_values(&a_new, 0, 0);
 287:..\..\..\arduinoLCD\test\Pain Drain\libraries\lvgl\src\core/lv_disp.c ****             break;
 288:..\..\..\arduinoLCD\test\Pain Drain\libraries\lvgl\src\core/lv_disp.c ****         case LV_SCR_LOAD_ANIM_OVER_LEFT:
 289:..\..\..\arduinoLCD\test\Pain Drain\libraries\lvgl\src\core/lv_disp.c ****             lv_anim_set_exec_cb(&a_new, set_x_anim);
 290:..\..\..\arduinoLCD\test\Pain Drain\libraries\lvgl\src\core/lv_disp.c ****             lv_anim_set_values(&a_new, lv_disp_get_hor_res(d), 0);
 291:..\..\..\arduinoLCD\test\Pain Drain\libraries\lvgl\src\core/lv_disp.c ****             break;
 292:..\..\..\arduinoLCD\test\Pain Drain\libraries\lvgl\src\core/lv_disp.c ****         case LV_SCR_LOAD_ANIM_OVER_RIGHT:
 293:..\..\..\arduinoLCD\test\Pain Drain\libraries\lvgl\src\core/lv_disp.c ****             lv_anim_set_exec_cb(&a_new, set_x_anim);
 294:..\..\..\arduinoLCD\test\Pain Drain\libraries\lvgl\src\core/lv_disp.c ****             lv_anim_set_values(&a_new, -lv_disp_get_hor_res(d), 0);
 295:..\..\..\arduinoLCD\test\Pain Drain\libraries\lvgl\src\core/lv_disp.c ****             break;
 296:..\..\..\arduinoLCD\test\Pain Drain\libraries\lvgl\src\core/lv_disp.c ****         case LV_SCR_LOAD_ANIM_OVER_TOP:
 297:..\..\..\arduinoLCD\test\Pain Drain\libraries\lvgl\src\core/lv_disp.c ****             lv_anim_set_exec_cb(&a_new, set_y_anim);
 298:..\..\..\arduinoLCD\test\Pain Drain\libraries\lvgl\src\core/lv_disp.c ****             lv_anim_set_values(&a_new, lv_disp_get_ver_res(d), 0);
 299:..\..\..\arduinoLCD\test\Pain Drain\libraries\lvgl\src\core/lv_disp.c ****             break;
 300:..\..\..\arduinoLCD\test\Pain Drain\libraries\lvgl\src\core/lv_disp.c ****         case LV_SCR_LOAD_ANIM_OVER_BOTTOM:
 301:..\..\..\arduinoLCD\test\Pain Drain\libraries\lvgl\src\core/lv_disp.c ****             lv_anim_set_exec_cb(&a_new, set_y_anim);
 302:..\..\..\arduinoLCD\test\Pain Drain\libraries\lvgl\src\core/lv_disp.c ****             lv_anim_set_values(&a_new, -lv_disp_get_ver_res(d), 0);
 303:..\..\..\arduinoLCD\test\Pain Drain\libraries\lvgl\src\core/lv_disp.c ****             break;
 304:..\..\..\arduinoLCD\test\Pain Drain\libraries\lvgl\src\core/lv_disp.c ****         case LV_SCR_LOAD_ANIM_MOVE_LEFT:
 305:..\..\..\arduinoLCD\test\Pain Drain\libraries\lvgl\src\core/lv_disp.c ****             lv_anim_set_exec_cb(&a_new, set_x_anim);
 306:..\..\..\arduinoLCD\test\Pain Drain\libraries\lvgl\src\core/lv_disp.c ****             lv_anim_set_values(&a_new, lv_disp_get_hor_res(d), 0);
 307:..\..\..\arduinoLCD\test\Pain Drain\libraries\lvgl\src\core/lv_disp.c **** 
 308:..\..\..\arduinoLCD\test\Pain Drain\libraries\lvgl\src\core/lv_disp.c ****             lv_anim_set_exec_cb(&a_old, set_x_anim);
 309:..\..\..\arduinoLCD\test\Pain Drain\libraries\lvgl\src\core/lv_disp.c ****             lv_anim_set_values(&a_old, 0, -lv_disp_get_hor_res(d));
 310:..\..\..\arduinoLCD\test\Pain Drain\libraries\lvgl\src\core/lv_disp.c ****             break;
 311:..\..\..\arduinoLCD\test\Pain Drain\libraries\lvgl\src\core/lv_disp.c ****         case LV_SCR_LOAD_ANIM_MOVE_RIGHT:
 312:..\..\..\arduinoLCD\test\Pain Drain\libraries\lvgl\src\core/lv_disp.c ****             lv_anim_set_exec_cb(&a_new, set_x_anim);
 313:..\..\..\arduinoLCD\test\Pain Drain\libraries\lvgl\src\core/lv_disp.c ****             lv_anim_set_values(&a_new, -lv_disp_get_hor_res(d), 0);
 314:..\..\..\arduinoLCD\test\Pain Drain\libraries\lvgl\src\core/lv_disp.c **** 
 315:..\..\..\arduinoLCD\test\Pain Drain\libraries\lvgl\src\core/lv_disp.c ****             lv_anim_set_exec_cb(&a_old, set_x_anim);
ARM GAS  C:\Users\haske\AppData\Local\Temp\cct2dzUE.s 			page 7


 316:..\..\..\arduinoLCD\test\Pain Drain\libraries\lvgl\src\core/lv_disp.c ****             lv_anim_set_values(&a_old, 0, lv_disp_get_hor_res(d));
 317:..\..\..\arduinoLCD\test\Pain Drain\libraries\lvgl\src\core/lv_disp.c ****             break;
 318:..\..\..\arduinoLCD\test\Pain Drain\libraries\lvgl\src\core/lv_disp.c ****         case LV_SCR_LOAD_ANIM_MOVE_TOP:
 319:..\..\..\arduinoLCD\test\Pain Drain\libraries\lvgl\src\core/lv_disp.c ****             lv_anim_set_exec_cb(&a_new, set_y_anim);
 320:..\..\..\arduinoLCD\test\Pain Drain\libraries\lvgl\src\core/lv_disp.c ****             lv_anim_set_values(&a_new, lv_disp_get_ver_res(d), 0);
 321:..\..\..\arduinoLCD\test\Pain Drain\libraries\lvgl\src\core/lv_disp.c **** 
 322:..\..\..\arduinoLCD\test\Pain Drain\libraries\lvgl\src\core/lv_disp.c ****             lv_anim_set_exec_cb(&a_old, set_y_anim);
 323:..\..\..\arduinoLCD\test\Pain Drain\libraries\lvgl\src\core/lv_disp.c ****             lv_anim_set_values(&a_old, 0, -lv_disp_get_ver_res(d));
 324:..\..\..\arduinoLCD\test\Pain Drain\libraries\lvgl\src\core/lv_disp.c ****             break;
 325:..\..\..\arduinoLCD\test\Pain Drain\libraries\lvgl\src\core/lv_disp.c ****         case LV_SCR_LOAD_ANIM_MOVE_BOTTOM:
 326:..\..\..\arduinoLCD\test\Pain Drain\libraries\lvgl\src\core/lv_disp.c ****             lv_anim_set_exec_cb(&a_new, set_y_anim);
 327:..\..\..\arduinoLCD\test\Pain Drain\libraries\lvgl\src\core/lv_disp.c ****             lv_anim_set_values(&a_new, -lv_disp_get_ver_res(d), 0);
 328:..\..\..\arduinoLCD\test\Pain Drain\libraries\lvgl\src\core/lv_disp.c **** 
 329:..\..\..\arduinoLCD\test\Pain Drain\libraries\lvgl\src\core/lv_disp.c ****             lv_anim_set_exec_cb(&a_old, set_y_anim);
 330:..\..\..\arduinoLCD\test\Pain Drain\libraries\lvgl\src\core/lv_disp.c ****             lv_anim_set_values(&a_old, 0, lv_disp_get_ver_res(d));
 331:..\..\..\arduinoLCD\test\Pain Drain\libraries\lvgl\src\core/lv_disp.c ****             break;
 332:..\..\..\arduinoLCD\test\Pain Drain\libraries\lvgl\src\core/lv_disp.c ****         case LV_SCR_LOAD_ANIM_FADE_IN:
 333:..\..\..\arduinoLCD\test\Pain Drain\libraries\lvgl\src\core/lv_disp.c ****             lv_anim_set_exec_cb(&a_new, opa_scale_anim);
 334:..\..\..\arduinoLCD\test\Pain Drain\libraries\lvgl\src\core/lv_disp.c ****             lv_anim_set_values(&a_new, LV_OPA_TRANSP, LV_OPA_COVER);
 335:..\..\..\arduinoLCD\test\Pain Drain\libraries\lvgl\src\core/lv_disp.c ****             break;
 336:..\..\..\arduinoLCD\test\Pain Drain\libraries\lvgl\src\core/lv_disp.c ****         case LV_SCR_LOAD_ANIM_FADE_OUT:
 337:..\..\..\arduinoLCD\test\Pain Drain\libraries\lvgl\src\core/lv_disp.c ****             lv_anim_set_exec_cb(&a_old, opa_scale_anim);
 338:..\..\..\arduinoLCD\test\Pain Drain\libraries\lvgl\src\core/lv_disp.c ****             lv_anim_set_values(&a_old, LV_OPA_COVER, LV_OPA_TRANSP);
 339:..\..\..\arduinoLCD\test\Pain Drain\libraries\lvgl\src\core/lv_disp.c ****             break;
 340:..\..\..\arduinoLCD\test\Pain Drain\libraries\lvgl\src\core/lv_disp.c ****         case LV_SCR_LOAD_ANIM_OUT_LEFT:
 341:..\..\..\arduinoLCD\test\Pain Drain\libraries\lvgl\src\core/lv_disp.c ****             lv_anim_set_exec_cb(&a_old, set_x_anim);
 342:..\..\..\arduinoLCD\test\Pain Drain\libraries\lvgl\src\core/lv_disp.c ****             lv_anim_set_values(&a_old, 0, -lv_disp_get_hor_res(d));
 343:..\..\..\arduinoLCD\test\Pain Drain\libraries\lvgl\src\core/lv_disp.c ****             break;
 344:..\..\..\arduinoLCD\test\Pain Drain\libraries\lvgl\src\core/lv_disp.c ****         case LV_SCR_LOAD_ANIM_OUT_RIGHT:
 345:..\..\..\arduinoLCD\test\Pain Drain\libraries\lvgl\src\core/lv_disp.c ****             lv_anim_set_exec_cb(&a_old, set_x_anim);
 346:..\..\..\arduinoLCD\test\Pain Drain\libraries\lvgl\src\core/lv_disp.c ****             lv_anim_set_values(&a_old, 0, lv_disp_get_hor_res(d));
 347:..\..\..\arduinoLCD\test\Pain Drain\libraries\lvgl\src\core/lv_disp.c ****             break;
 348:..\..\..\arduinoLCD\test\Pain Drain\libraries\lvgl\src\core/lv_disp.c ****         case LV_SCR_LOAD_ANIM_OUT_TOP:
 349:..\..\..\arduinoLCD\test\Pain Drain\libraries\lvgl\src\core/lv_disp.c ****             lv_anim_set_exec_cb(&a_old, set_y_anim);
 350:..\..\..\arduinoLCD\test\Pain Drain\libraries\lvgl\src\core/lv_disp.c ****             lv_anim_set_values(&a_old, 0, -lv_disp_get_ver_res(d));
 351:..\..\..\arduinoLCD\test\Pain Drain\libraries\lvgl\src\core/lv_disp.c ****             break;
 352:..\..\..\arduinoLCD\test\Pain Drain\libraries\lvgl\src\core/lv_disp.c ****         case LV_SCR_LOAD_ANIM_OUT_BOTTOM:
 353:..\..\..\arduinoLCD\test\Pain Drain\libraries\lvgl\src\core/lv_disp.c ****             lv_anim_set_exec_cb(&a_old, set_y_anim);
 354:..\..\..\arduinoLCD\test\Pain Drain\libraries\lvgl\src\core/lv_disp.c ****             lv_anim_set_values(&a_old, 0, lv_disp_get_ver_res(d));
 355:..\..\..\arduinoLCD\test\Pain Drain\libraries\lvgl\src\core/lv_disp.c ****             break;
 356:..\..\..\arduinoLCD\test\Pain Drain\libraries\lvgl\src\core/lv_disp.c ****     }
 357:..\..\..\arduinoLCD\test\Pain Drain\libraries\lvgl\src\core/lv_disp.c **** 
 358:..\..\..\arduinoLCD\test\Pain Drain\libraries\lvgl\src\core/lv_disp.c ****     lv_event_send(act_scr, LV_EVENT_SCREEN_UNLOAD_START, NULL);
 359:..\..\..\arduinoLCD\test\Pain Drain\libraries\lvgl\src\core/lv_disp.c **** 
 360:..\..\..\arduinoLCD\test\Pain Drain\libraries\lvgl\src\core/lv_disp.c ****     lv_anim_start(&a_new);
 361:..\..\..\arduinoLCD\test\Pain Drain\libraries\lvgl\src\core/lv_disp.c ****     lv_anim_start(&a_old);
 362:..\..\..\arduinoLCD\test\Pain Drain\libraries\lvgl\src\core/lv_disp.c **** }
 363:..\..\..\arduinoLCD\test\Pain Drain\libraries\lvgl\src\core/lv_disp.c **** 
 364:..\..\..\arduinoLCD\test\Pain Drain\libraries\lvgl\src\core/lv_disp.c **** /**
 365:..\..\..\arduinoLCD\test\Pain Drain\libraries\lvgl\src\core/lv_disp.c ****  * Get elapsed time since last user activity on a display (e.g. click)
 366:..\..\..\arduinoLCD\test\Pain Drain\libraries\lvgl\src\core/lv_disp.c ****  * @param disp pointer to a display (NULL to get the overall smallest inactivity)
 367:..\..\..\arduinoLCD\test\Pain Drain\libraries\lvgl\src\core/lv_disp.c ****  * @return elapsed ticks (milliseconds) since the last activity
 368:..\..\..\arduinoLCD\test\Pain Drain\libraries\lvgl\src\core/lv_disp.c ****  */
 369:..\..\..\arduinoLCD\test\Pain Drain\libraries\lvgl\src\core/lv_disp.c **** uint32_t lv_disp_get_inactive_time(const lv_disp_t * disp)
 370:..\..\..\arduinoLCD\test\Pain Drain\libraries\lvgl\src\core/lv_disp.c **** {
 371:..\..\..\arduinoLCD\test\Pain Drain\libraries\lvgl\src\core/lv_disp.c ****     if(disp) return lv_tick_elaps(disp->last_activity_time);
 372:..\..\..\arduinoLCD\test\Pain Drain\libraries\lvgl\src\core/lv_disp.c **** 
ARM GAS  C:\Users\haske\AppData\Local\Temp\cct2dzUE.s 			page 8


 373:..\..\..\arduinoLCD\test\Pain Drain\libraries\lvgl\src\core/lv_disp.c ****     lv_disp_t * d;
 374:..\..\..\arduinoLCD\test\Pain Drain\libraries\lvgl\src\core/lv_disp.c ****     uint32_t t = UINT32_MAX;
 375:..\..\..\arduinoLCD\test\Pain Drain\libraries\lvgl\src\core/lv_disp.c ****     d          = lv_disp_get_next(NULL);
 376:..\..\..\arduinoLCD\test\Pain Drain\libraries\lvgl\src\core/lv_disp.c ****     while(d) {
 377:..\..\..\arduinoLCD\test\Pain Drain\libraries\lvgl\src\core/lv_disp.c ****         uint32_t elaps = lv_tick_elaps(d->last_activity_time);
 378:..\..\..\arduinoLCD\test\Pain Drain\libraries\lvgl\src\core/lv_disp.c ****         t = LV_MIN(t, elaps);
 379:..\..\..\arduinoLCD\test\Pain Drain\libraries\lvgl\src\core/lv_disp.c ****         d = lv_disp_get_next(d);
 380:..\..\..\arduinoLCD\test\Pain Drain\libraries\lvgl\src\core/lv_disp.c ****     }
 381:..\..\..\arduinoLCD\test\Pain Drain\libraries\lvgl\src\core/lv_disp.c **** 
 382:..\..\..\arduinoLCD\test\Pain Drain\libraries\lvgl\src\core/lv_disp.c ****     return t;
 383:..\..\..\arduinoLCD\test\Pain Drain\libraries\lvgl\src\core/lv_disp.c **** }
 384:..\..\..\arduinoLCD\test\Pain Drain\libraries\lvgl\src\core/lv_disp.c **** 
 385:..\..\..\arduinoLCD\test\Pain Drain\libraries\lvgl\src\core/lv_disp.c **** /**
 386:..\..\..\arduinoLCD\test\Pain Drain\libraries\lvgl\src\core/lv_disp.c ****  * Manually trigger an activity on a display
 387:..\..\..\arduinoLCD\test\Pain Drain\libraries\lvgl\src\core/lv_disp.c ****  * @param disp pointer to a display (NULL to use the default display)
 388:..\..\..\arduinoLCD\test\Pain Drain\libraries\lvgl\src\core/lv_disp.c ****  */
 389:..\..\..\arduinoLCD\test\Pain Drain\libraries\lvgl\src\core/lv_disp.c **** void lv_disp_trig_activity(lv_disp_t * disp)
 390:..\..\..\arduinoLCD\test\Pain Drain\libraries\lvgl\src\core/lv_disp.c **** {
 391:..\..\..\arduinoLCD\test\Pain Drain\libraries\lvgl\src\core/lv_disp.c ****     if(!disp) disp = lv_disp_get_default();
 392:..\..\..\arduinoLCD\test\Pain Drain\libraries\lvgl\src\core/lv_disp.c ****     if(!disp) {
 393:..\..\..\arduinoLCD\test\Pain Drain\libraries\lvgl\src\core/lv_disp.c ****         LV_LOG_WARN("lv_disp_trig_activity: no display registered");
 394:..\..\..\arduinoLCD\test\Pain Drain\libraries\lvgl\src\core/lv_disp.c ****         return;
 395:..\..\..\arduinoLCD\test\Pain Drain\libraries\lvgl\src\core/lv_disp.c ****     }
 396:..\..\..\arduinoLCD\test\Pain Drain\libraries\lvgl\src\core/lv_disp.c **** 
 397:..\..\..\arduinoLCD\test\Pain Drain\libraries\lvgl\src\core/lv_disp.c ****     disp->last_activity_time = lv_tick_get();
 398:..\..\..\arduinoLCD\test\Pain Drain\libraries\lvgl\src\core/lv_disp.c **** }
 399:..\..\..\arduinoLCD\test\Pain Drain\libraries\lvgl\src\core/lv_disp.c **** 
 400:..\..\..\arduinoLCD\test\Pain Drain\libraries\lvgl\src\core/lv_disp.c **** /**
 401:..\..\..\arduinoLCD\test\Pain Drain\libraries\lvgl\src\core/lv_disp.c ****  * Clean any CPU cache that is related to the display.
 402:..\..\..\arduinoLCD\test\Pain Drain\libraries\lvgl\src\core/lv_disp.c ****  * @param disp pointer to a display (NULL to use the default display)
 403:..\..\..\arduinoLCD\test\Pain Drain\libraries\lvgl\src\core/lv_disp.c ****  */
 404:..\..\..\arduinoLCD\test\Pain Drain\libraries\lvgl\src\core/lv_disp.c **** void lv_disp_clean_dcache(lv_disp_t * disp)
 405:..\..\..\arduinoLCD\test\Pain Drain\libraries\lvgl\src\core/lv_disp.c **** {
 406:..\..\..\arduinoLCD\test\Pain Drain\libraries\lvgl\src\core/lv_disp.c ****     if(!disp) disp = lv_disp_get_default();
 407:..\..\..\arduinoLCD\test\Pain Drain\libraries\lvgl\src\core/lv_disp.c ****     if(!disp) {
 408:..\..\..\arduinoLCD\test\Pain Drain\libraries\lvgl\src\core/lv_disp.c ****         LV_LOG_WARN("lv_disp_clean_dcache: no display registered");
 409:..\..\..\arduinoLCD\test\Pain Drain\libraries\lvgl\src\core/lv_disp.c ****         return;
 410:..\..\..\arduinoLCD\test\Pain Drain\libraries\lvgl\src\core/lv_disp.c ****     }
 411:..\..\..\arduinoLCD\test\Pain Drain\libraries\lvgl\src\core/lv_disp.c **** 
 412:..\..\..\arduinoLCD\test\Pain Drain\libraries\lvgl\src\core/lv_disp.c ****     if(disp->driver->clean_dcache_cb)
 413:..\..\..\arduinoLCD\test\Pain Drain\libraries\lvgl\src\core/lv_disp.c ****         disp->driver->clean_dcache_cb(disp->driver);
 414:..\..\..\arduinoLCD\test\Pain Drain\libraries\lvgl\src\core/lv_disp.c **** }
 415:..\..\..\arduinoLCD\test\Pain Drain\libraries\lvgl\src\core/lv_disp.c **** 
 416:..\..\..\arduinoLCD\test\Pain Drain\libraries\lvgl\src\core/lv_disp.c **** /**
 417:..\..\..\arduinoLCD\test\Pain Drain\libraries\lvgl\src\core/lv_disp.c ****  * Temporarily enable and disable the invalidation of the display.
 418:..\..\..\arduinoLCD\test\Pain Drain\libraries\lvgl\src\core/lv_disp.c ****  * @param disp pointer to a display (NULL to use the default display)
 419:..\..\..\arduinoLCD\test\Pain Drain\libraries\lvgl\src\core/lv_disp.c ****  * @param en true: enable invalidation; false: invalidation
 420:..\..\..\arduinoLCD\test\Pain Drain\libraries\lvgl\src\core/lv_disp.c ****  */
 421:..\..\..\arduinoLCD\test\Pain Drain\libraries\lvgl\src\core/lv_disp.c **** void lv_disp_enable_invalidation(lv_disp_t * disp, bool en)
 422:..\..\..\arduinoLCD\test\Pain Drain\libraries\lvgl\src\core/lv_disp.c **** {
 423:..\..\..\arduinoLCD\test\Pain Drain\libraries\lvgl\src\core/lv_disp.c ****     if(!disp) disp = lv_disp_get_default();
 424:..\..\..\arduinoLCD\test\Pain Drain\libraries\lvgl\src\core/lv_disp.c ****     if(!disp) {
 425:..\..\..\arduinoLCD\test\Pain Drain\libraries\lvgl\src\core/lv_disp.c ****         LV_LOG_WARN("no display registered");
 426:..\..\..\arduinoLCD\test\Pain Drain\libraries\lvgl\src\core/lv_disp.c ****         return;
 427:..\..\..\arduinoLCD\test\Pain Drain\libraries\lvgl\src\core/lv_disp.c ****     }
 428:..\..\..\arduinoLCD\test\Pain Drain\libraries\lvgl\src\core/lv_disp.c **** 
 429:..\..\..\arduinoLCD\test\Pain Drain\libraries\lvgl\src\core/lv_disp.c ****     disp->inv_en_cnt += en ? 1 : -1;
ARM GAS  C:\Users\haske\AppData\Local\Temp\cct2dzUE.s 			page 9


 430:..\..\..\arduinoLCD\test\Pain Drain\libraries\lvgl\src\core/lv_disp.c **** }
 431:..\..\..\arduinoLCD\test\Pain Drain\libraries\lvgl\src\core/lv_disp.c **** 
 432:..\..\..\arduinoLCD\test\Pain Drain\libraries\lvgl\src\core/lv_disp.c **** /**
 433:..\..\..\arduinoLCD\test\Pain Drain\libraries\lvgl\src\core/lv_disp.c ****  * Get display invalidation is enabled.
 434:..\..\..\arduinoLCD\test\Pain Drain\libraries\lvgl\src\core/lv_disp.c ****  * @param disp pointer to a display (NULL to use the default display)
 435:..\..\..\arduinoLCD\test\Pain Drain\libraries\lvgl\src\core/lv_disp.c ****  * @return return true if invalidation is enabled
 436:..\..\..\arduinoLCD\test\Pain Drain\libraries\lvgl\src\core/lv_disp.c ****  */
 437:..\..\..\arduinoLCD\test\Pain Drain\libraries\lvgl\src\core/lv_disp.c **** bool lv_disp_is_invalidation_enabled(lv_disp_t * disp)
 438:..\..\..\arduinoLCD\test\Pain Drain\libraries\lvgl\src\core/lv_disp.c **** {
 439:..\..\..\arduinoLCD\test\Pain Drain\libraries\lvgl\src\core/lv_disp.c ****     if(!disp) disp = lv_disp_get_default();
 440:..\..\..\arduinoLCD\test\Pain Drain\libraries\lvgl\src\core/lv_disp.c ****     if(!disp) {
 441:..\..\..\arduinoLCD\test\Pain Drain\libraries\lvgl\src\core/lv_disp.c ****         LV_LOG_WARN("no display registered");
 442:..\..\..\arduinoLCD\test\Pain Drain\libraries\lvgl\src\core/lv_disp.c ****         return false;
 443:..\..\..\arduinoLCD\test\Pain Drain\libraries\lvgl\src\core/lv_disp.c ****     }
 444:..\..\..\arduinoLCD\test\Pain Drain\libraries\lvgl\src\core/lv_disp.c **** 
 445:..\..\..\arduinoLCD\test\Pain Drain\libraries\lvgl\src\core/lv_disp.c ****     return (disp->inv_en_cnt > 0);
 446:..\..\..\arduinoLCD\test\Pain Drain\libraries\lvgl\src\core/lv_disp.c **** }
 447:..\..\..\arduinoLCD\test\Pain Drain\libraries\lvgl\src\core/lv_disp.c **** 
 448:..\..\..\arduinoLCD\test\Pain Drain\libraries\lvgl\src\core/lv_disp.c **** /**
 449:..\..\..\arduinoLCD\test\Pain Drain\libraries\lvgl\src\core/lv_disp.c ****  * Get a pointer to the screen refresher timer to
 450:..\..\..\arduinoLCD\test\Pain Drain\libraries\lvgl\src\core/lv_disp.c ****  * modify its parameters with `lv_timer_...` functions.
 451:..\..\..\arduinoLCD\test\Pain Drain\libraries\lvgl\src\core/lv_disp.c ****  * @param disp pointer to a display
 452:..\..\..\arduinoLCD\test\Pain Drain\libraries\lvgl\src\core/lv_disp.c ****  * @return pointer to the display refresher timer. (NULL on error)
 453:..\..\..\arduinoLCD\test\Pain Drain\libraries\lvgl\src\core/lv_disp.c ****  */
 454:..\..\..\arduinoLCD\test\Pain Drain\libraries\lvgl\src\core/lv_disp.c **** lv_timer_t * _lv_disp_get_refr_timer(lv_disp_t * disp)
 455:..\..\..\arduinoLCD\test\Pain Drain\libraries\lvgl\src\core/lv_disp.c **** {
 456:..\..\..\arduinoLCD\test\Pain Drain\libraries\lvgl\src\core/lv_disp.c ****     if(!disp) disp = lv_disp_get_default();
 457:..\..\..\arduinoLCD\test\Pain Drain\libraries\lvgl\src\core/lv_disp.c ****     if(!disp) {
 458:..\..\..\arduinoLCD\test\Pain Drain\libraries\lvgl\src\core/lv_disp.c ****         LV_LOG_WARN("lv_disp_get_refr_timer: no display registered");
 459:..\..\..\arduinoLCD\test\Pain Drain\libraries\lvgl\src\core/lv_disp.c ****         return NULL;
 460:..\..\..\arduinoLCD\test\Pain Drain\libraries\lvgl\src\core/lv_disp.c ****     }
 461:..\..\..\arduinoLCD\test\Pain Drain\libraries\lvgl\src\core/lv_disp.c **** 
 462:..\..\..\arduinoLCD\test\Pain Drain\libraries\lvgl\src\core/lv_disp.c ****     return disp->refr_timer;
 463:..\..\..\arduinoLCD\test\Pain Drain\libraries\lvgl\src\core/lv_disp.c **** }
 464:..\..\..\arduinoLCD\test\Pain Drain\libraries\lvgl\src\core/lv_disp.c **** 
 465:..\..\..\arduinoLCD\test\Pain Drain\libraries\lvgl\src\core/lv_disp.c **** /**********************
 466:..\..\..\arduinoLCD\test\Pain Drain\libraries\lvgl\src\core/lv_disp.c ****  *   STATIC FUNCTIONS
 467:..\..\..\arduinoLCD\test\Pain Drain\libraries\lvgl\src\core/lv_disp.c ****  **********************/
 468:..\..\..\arduinoLCD\test\Pain Drain\libraries\lvgl\src\core/lv_disp.c **** 
 469:..\..\..\arduinoLCD\test\Pain Drain\libraries\lvgl\src\core/lv_disp.c **** static void scr_load_internal(lv_obj_t * scr)
 470:..\..\..\arduinoLCD\test\Pain Drain\libraries\lvgl\src\core/lv_disp.c **** {
 471:..\..\..\arduinoLCD\test\Pain Drain\libraries\lvgl\src\core/lv_disp.c ****     lv_disp_t * d = lv_obj_get_disp(scr);
 472:..\..\..\arduinoLCD\test\Pain Drain\libraries\lvgl\src\core/lv_disp.c ****     if(!d) return;  /*Shouldn't happen, just to be sure*/
 473:..\..\..\arduinoLCD\test\Pain Drain\libraries\lvgl\src\core/lv_disp.c **** 
 474:..\..\..\arduinoLCD\test\Pain Drain\libraries\lvgl\src\core/lv_disp.c ****     lv_obj_t * old_scr = d->act_scr;
 475:..\..\..\arduinoLCD\test\Pain Drain\libraries\lvgl\src\core/lv_disp.c **** 
 476:..\..\..\arduinoLCD\test\Pain Drain\libraries\lvgl\src\core/lv_disp.c ****     if(d->act_scr) lv_event_send(old_scr, LV_EVENT_SCREEN_UNLOAD_START, NULL);
 477:..\..\..\arduinoLCD\test\Pain Drain\libraries\lvgl\src\core/lv_disp.c ****     if(d->act_scr) lv_event_send(scr, LV_EVENT_SCREEN_LOAD_START, NULL);
 478:..\..\..\arduinoLCD\test\Pain Drain\libraries\lvgl\src\core/lv_disp.c **** 
 479:..\..\..\arduinoLCD\test\Pain Drain\libraries\lvgl\src\core/lv_disp.c ****     d->act_scr = scr;
 480:..\..\..\arduinoLCD\test\Pain Drain\libraries\lvgl\src\core/lv_disp.c **** 
 481:..\..\..\arduinoLCD\test\Pain Drain\libraries\lvgl\src\core/lv_disp.c ****     if(d->act_scr) lv_event_send(scr, LV_EVENT_SCREEN_LOADED, NULL);
 482:..\..\..\arduinoLCD\test\Pain Drain\libraries\lvgl\src\core/lv_disp.c ****     if(d->act_scr) lv_event_send(old_scr, LV_EVENT_SCREEN_UNLOADED, NULL);
 483:..\..\..\arduinoLCD\test\Pain Drain\libraries\lvgl\src\core/lv_disp.c **** 
 484:..\..\..\arduinoLCD\test\Pain Drain\libraries\lvgl\src\core/lv_disp.c ****     lv_obj_invalidate(scr);
 485:..\..\..\arduinoLCD\test\Pain Drain\libraries\lvgl\src\core/lv_disp.c **** }
 486:..\..\..\arduinoLCD\test\Pain Drain\libraries\lvgl\src\core/lv_disp.c **** 
ARM GAS  C:\Users\haske\AppData\Local\Temp\cct2dzUE.s 			page 10


 487:..\..\..\arduinoLCD\test\Pain Drain\libraries\lvgl\src\core/lv_disp.c **** static void scr_load_anim_start(lv_anim_t * a)
 488:..\..\..\arduinoLCD\test\Pain Drain\libraries\lvgl\src\core/lv_disp.c **** {
 489:..\..\..\arduinoLCD\test\Pain Drain\libraries\lvgl\src\core/lv_disp.c ****     lv_disp_t * d = lv_obj_get_disp(a->var);
 490:..\..\..\arduinoLCD\test\Pain Drain\libraries\lvgl\src\core/lv_disp.c **** 
 491:..\..\..\arduinoLCD\test\Pain Drain\libraries\lvgl\src\core/lv_disp.c ****     d->prev_scr = lv_scr_act();
 492:..\..\..\arduinoLCD\test\Pain Drain\libraries\lvgl\src\core/lv_disp.c ****     d->act_scr = a->var;
 493:..\..\..\arduinoLCD\test\Pain Drain\libraries\lvgl\src\core/lv_disp.c **** 
 494:..\..\..\arduinoLCD\test\Pain Drain\libraries\lvgl\src\core/lv_disp.c ****     lv_event_send(d->act_scr, LV_EVENT_SCREEN_LOAD_START, NULL);
 495:..\..\..\arduinoLCD\test\Pain Drain\libraries\lvgl\src\core/lv_disp.c **** }
 496:..\..\..\arduinoLCD\test\Pain Drain\libraries\lvgl\src\core/lv_disp.c **** 
 497:..\..\..\arduinoLCD\test\Pain Drain\libraries\lvgl\src\core/lv_disp.c **** static void opa_scale_anim(void * obj, int32_t v)
 498:..\..\..\arduinoLCD\test\Pain Drain\libraries\lvgl\src\core/lv_disp.c **** {
 499:..\..\..\arduinoLCD\test\Pain Drain\libraries\lvgl\src\core/lv_disp.c ****     lv_obj_set_style_opa(obj, v, 0);
 500:..\..\..\arduinoLCD\test\Pain Drain\libraries\lvgl\src\core/lv_disp.c **** }
 501:..\..\..\arduinoLCD\test\Pain Drain\libraries\lvgl\src\core/lv_disp.c **** 
 502:..\..\..\arduinoLCD\test\Pain Drain\libraries\lvgl\src\core/lv_disp.c **** static void set_x_anim(void * obj, int32_t v)
 503:..\..\..\arduinoLCD\test\Pain Drain\libraries\lvgl\src\core/lv_disp.c **** {
 504:..\..\..\arduinoLCD\test\Pain Drain\libraries\lvgl\src\core/lv_disp.c ****     lv_obj_set_x(obj, v);
 505:..\..\..\arduinoLCD\test\Pain Drain\libraries\lvgl\src\core/lv_disp.c **** }
 506:..\..\..\arduinoLCD\test\Pain Drain\libraries\lvgl\src\core/lv_disp.c **** 
 507:..\..\..\arduinoLCD\test\Pain Drain\libraries\lvgl\src\core/lv_disp.c **** static void set_y_anim(void * obj, int32_t v)
 508:..\..\..\arduinoLCD\test\Pain Drain\libraries\lvgl\src\core/lv_disp.c **** {
 509:..\..\..\arduinoLCD\test\Pain Drain\libraries\lvgl\src\core/lv_disp.c ****     lv_obj_set_y(obj, v);
 510:..\..\..\arduinoLCD\test\Pain Drain\libraries\lvgl\src\core/lv_disp.c **** }
 511:..\..\..\arduinoLCD\test\Pain Drain\libraries\lvgl\src\core/lv_disp.c **** 
 512:..\..\..\arduinoLCD\test\Pain Drain\libraries\lvgl\src\core/lv_disp.c **** static void scr_anim_ready(lv_anim_t * a)
 513:..\..\..\arduinoLCD\test\Pain Drain\libraries\lvgl\src\core/lv_disp.c **** {
 514:..\..\..\arduinoLCD\test\Pain Drain\libraries\lvgl\src\core/lv_disp.c ****     lv_disp_t * d = lv_obj_get_disp(a->var);
 515:..\..\..\arduinoLCD\test\Pain Drain\libraries\lvgl\src\core/lv_disp.c **** 
 516:..\..\..\arduinoLCD\test\Pain Drain\libraries\lvgl\src\core/lv_disp.c ****     lv_event_send(d->act_scr, LV_EVENT_SCREEN_LOADED, NULL);
 517:..\..\..\arduinoLCD\test\Pain Drain\libraries\lvgl\src\core/lv_disp.c ****     lv_event_send(d->prev_scr, LV_EVENT_SCREEN_UNLOADED, NULL);
 518:..\..\..\arduinoLCD\test\Pain Drain\libraries\lvgl\src\core/lv_disp.c **** 
 519:..\..\..\arduinoLCD\test\Pain Drain\libraries\lvgl\src\core/lv_disp.c ****     if(d->prev_scr && d->del_prev) lv_obj_del(d->prev_scr);
 520:..\..\..\arduinoLCD\test\Pain Drain\libraries\lvgl\src\core/lv_disp.c ****     d->prev_scr = NULL;
 521:..\..\..\arduinoLCD\test\Pain Drain\libraries\lvgl\src\core/lv_disp.c ****     d->draw_prev_over_act = false;
 522:..\..\..\arduinoLCD\test\Pain Drain\libraries\lvgl\src\core/lv_disp.c ****     d->scr_to_load = NULL;
 523:..\..\..\arduinoLCD\test\Pain Drain\libraries\lvgl\src\core/lv_disp.c ****     lv_obj_remove_local_style_prop(a->var, LV_STYLE_OPA, 0);
 524:..\..\..\arduinoLCD\test\Pain Drain\libraries\lvgl\src\core/lv_disp.c ****     lv_obj_invalidate(d->act_scr);
 525:..\..\..\arduinoLCD\test\Pain Drain\libraries\lvgl\src\core/lv_disp.c **** }
 526:..\..\..\arduinoLCD\test\Pain Drain\libraries\lvgl\src\core/lv_disp.c **** 
 527:..\..\..\arduinoLCD\test\Pain Drain\libraries\lvgl\src\core/lv_disp.c **** static bool is_out_anim(lv_scr_load_anim_t anim_type)
 528:..\..\..\arduinoLCD\test\Pain Drain\libraries\lvgl\src\core/lv_disp.c **** {
  28              		.loc 1 528 0
  29              		.cfi_startproc
  30              		@ args = 0, pretend = 0, frame = 0
  31              		@ frame_needed = 0, uses_anonymous_args = 0
  32              		@ link register save eliminated.
  33              	.LVL0:
 529:..\..\..\arduinoLCD\test\Pain Drain\libraries\lvgl\src\core/lv_disp.c ****     return anim_type == LV_SCR_LOAD_ANIM_FADE_OUT  ||
 530:..\..\..\arduinoLCD\test\Pain Drain\libraries\lvgl\src\core/lv_disp.c ****            anim_type == LV_SCR_LOAD_ANIM_OUT_LEFT  ||
 531:..\..\..\arduinoLCD\test\Pain Drain\libraries\lvgl\src\core/lv_disp.c ****            anim_type == LV_SCR_LOAD_ANIM_OUT_RIGHT ||
 532:..\..\..\arduinoLCD\test\Pain Drain\libraries\lvgl\src\core/lv_disp.c ****            anim_type == LV_SCR_LOAD_ANIM_OUT_TOP   ||
  34              		.loc 1 532 0
  35 0000 0A38     		subs	r0, r0, #10
  36              	.LVL1:
  37 0002 C0B2     		uxtb	r0, r0
 533:..\..\..\arduinoLCD\test\Pain Drain\libraries\lvgl\src\core/lv_disp.c ****            anim_type == LV_SCR_LOAD_ANIM_OUT_BOTTOM;
ARM GAS  C:\Users\haske\AppData\Local\Temp\cct2dzUE.s 			page 11


 534:..\..\..\arduinoLCD\test\Pain Drain\libraries\lvgl\src\core/lv_disp.c **** }
  38              		.loc 1 534 0
  39 0004 0428     		cmp	r0, #4
  40 0006 8CBF     		ite	hi
  41 0008 0020     		movhi	r0, #0
  42 000a 0120     		movls	r0, #1
  43 000c 7047     		bx	lr
  44              		.cfi_endproc
  45              	.LFE188:
  46              		.size	is_out_anim, .-is_out_anim
  47 000e 00BF     		.section	.text.opa_scale_anim,"ax",%progbits
  48              		.align	2
  49              		.thumb
  50              		.thumb_func
  51              		.type	opa_scale_anim, %function
  52              	opa_scale_anim:
  53              	.LFB184:
 498:..\..\..\arduinoLCD\test\Pain Drain\libraries\lvgl\src\core/lv_disp.c ****     lv_obj_set_style_opa(obj, v, 0);
  54              		.loc 1 498 0
  55              		.cfi_startproc
  56              		@ args = 0, pretend = 0, frame = 0
  57              		@ frame_needed = 0, uses_anonymous_args = 0
  58              	.LVL2:
  59 0000 08B5     		push	{r3, lr}
  60              		.cfi_def_cfa_offset 8
  61              		.cfi_offset 3, -8
  62              		.cfi_offset 14, -4
 499:..\..\..\arduinoLCD\test\Pain Drain\libraries\lvgl\src\core/lv_disp.c **** }
  63              		.loc 1 499 0
  64 0002 0022     		movs	r2, #0
  65 0004 C9B2     		uxtb	r1, r1
  66              	.LVL3:
  67 0006 FFF7FEFF 		bl	lv_obj_set_style_opa
  68              	.LVL4:
  69 000a 08BD     		pop	{r3, pc}
  70              		.cfi_endproc
  71              	.LFE184:
  72              		.size	opa_scale_anim, .-opa_scale_anim
  73              		.section	.text.set_y_anim,"ax",%progbits
  74              		.align	2
  75              		.thumb
  76              		.thumb_func
  77              		.type	set_y_anim, %function
  78              	set_y_anim:
  79              	.LFB186:
 508:..\..\..\arduinoLCD\test\Pain Drain\libraries\lvgl\src\core/lv_disp.c ****     lv_obj_set_y(obj, v);
  80              		.loc 1 508 0
  81              		.cfi_startproc
  82              		@ args = 0, pretend = 0, frame = 0
  83              		@ frame_needed = 0, uses_anonymous_args = 0
  84              	.LVL5:
  85 0000 08B5     		push	{r3, lr}
  86              		.cfi_def_cfa_offset 8
  87              		.cfi_offset 3, -8
  88              		.cfi_offset 14, -4
 509:..\..\..\arduinoLCD\test\Pain Drain\libraries\lvgl\src\core/lv_disp.c **** }
  89              		.loc 1 509 0
ARM GAS  C:\Users\haske\AppData\Local\Temp\cct2dzUE.s 			page 12


  90 0002 09B2     		sxth	r1, r1
  91              	.LVL6:
  92 0004 FFF7FEFF 		bl	lv_obj_set_y
  93              	.LVL7:
  94 0008 08BD     		pop	{r3, pc}
  95              		.cfi_endproc
  96              	.LFE186:
  97              		.size	set_y_anim, .-set_y_anim
  98 000a 00BF     		.section	.text.set_x_anim,"ax",%progbits
  99              		.align	2
 100              		.thumb
 101              		.thumb_func
 102              		.type	set_x_anim, %function
 103              	set_x_anim:
 104              	.LFB185:
 503:..\..\..\arduinoLCD\test\Pain Drain\libraries\lvgl\src\core/lv_disp.c ****     lv_obj_set_x(obj, v);
 105              		.loc 1 503 0
 106              		.cfi_startproc
 107              		@ args = 0, pretend = 0, frame = 0
 108              		@ frame_needed = 0, uses_anonymous_args = 0
 109              	.LVL8:
 110 0000 08B5     		push	{r3, lr}
 111              		.cfi_def_cfa_offset 8
 112              		.cfi_offset 3, -8
 113              		.cfi_offset 14, -4
 504:..\..\..\arduinoLCD\test\Pain Drain\libraries\lvgl\src\core/lv_disp.c **** }
 114              		.loc 1 504 0
 115 0002 09B2     		sxth	r1, r1
 116              	.LVL9:
 117 0004 FFF7FEFF 		bl	lv_obj_set_x
 118              	.LVL10:
 119 0008 08BD     		pop	{r3, pc}
 120              		.cfi_endproc
 121              	.LFE185:
 122              		.size	set_x_anim, .-set_x_anim
 123 000a 00BF     		.section	.text.scr_anim_ready,"ax",%progbits
 124              		.align	2
 125              		.thumb
 126              		.thumb_func
 127              		.type	scr_anim_ready, %function
 128              	scr_anim_ready:
 129              	.LFB187:
 513:..\..\..\arduinoLCD\test\Pain Drain\libraries\lvgl\src\core/lv_disp.c ****     lv_disp_t * d = lv_obj_get_disp(a->var);
 130              		.loc 1 513 0
 131              		.cfi_startproc
 132              		@ args = 0, pretend = 0, frame = 0
 133              		@ frame_needed = 0, uses_anonymous_args = 0
 134              	.LVL11:
 135 0000 38B5     		push	{r3, r4, r5, lr}
 136              		.cfi_def_cfa_offset 16
 137              		.cfi_offset 3, -16
 138              		.cfi_offset 4, -12
 139              		.cfi_offset 5, -8
 140              		.cfi_offset 14, -4
 141 0002 0546     		mov	r5, r0
 514:..\..\..\arduinoLCD\test\Pain Drain\libraries\lvgl\src\core/lv_disp.c **** 
 142              		.loc 1 514 0
ARM GAS  C:\Users\haske\AppData\Local\Temp\cct2dzUE.s 			page 13


 143 0004 0068     		ldr	r0, [r0]
 144              	.LVL12:
 145 0006 FFF7FEFF 		bl	lv_obj_get_disp
 146              	.LVL13:
 147 000a 0446     		mov	r4, r0
 148              	.LVL14:
 516:..\..\..\arduinoLCD\test\Pain Drain\libraries\lvgl\src\core/lv_disp.c ****     lv_event_send(d->prev_scr, LV_EVENT_SCREEN_UNLOADED, NULL);
 149              		.loc 1 516 0
 150 000c 0022     		movs	r2, #0
 151 000e 2721     		movs	r1, #39
 152 0010 0069     		ldr	r0, [r0, #16]
 153              	.LVL15:
 154 0012 FFF7FEFF 		bl	lv_event_send
 155              	.LVL16:
 517:..\..\..\arduinoLCD\test\Pain Drain\libraries\lvgl\src\core/lv_disp.c **** 
 156              		.loc 1 517 0
 157 0016 0022     		movs	r2, #0
 158 0018 2821     		movs	r1, #40
 159 001a 6069     		ldr	r0, [r4, #20]
 160 001c FFF7FEFF 		bl	lv_event_send
 161              	.LVL17:
 519:..\..\..\arduinoLCD\test\Pain Drain\libraries\lvgl\src\core/lv_disp.c ****     d->prev_scr = NULL;
 162              		.loc 1 519 0
 163 0020 6069     		ldr	r0, [r4, #20]
 164 0022 30B1     		cbz	r0, .L9
 519:..\..\..\arduinoLCD\test\Pain Drain\libraries\lvgl\src\core/lv_disp.c ****     d->prev_scr = NULL;
 165              		.loc 1 519 0 is_stmt 0 discriminator 1
 166 0024 94F82830 		ldrb	r3, [r4, #40]	@ zero_extendqisi2
 167 0028 13F0020F 		tst	r3, #2
 168 002c 01D0     		beq	.L9
 519:..\..\..\arduinoLCD\test\Pain Drain\libraries\lvgl\src\core/lv_disp.c ****     d->prev_scr = NULL;
 169              		.loc 1 519 0 discriminator 2
 170 002e FFF7FEFF 		bl	lv_obj_del
 171              	.LVL18:
 172              	.L9:
 520:..\..\..\arduinoLCD\test\Pain Drain\libraries\lvgl\src\core/lv_disp.c ****     d->draw_prev_over_act = false;
 173              		.loc 1 520 0 is_stmt 1
 174 0032 0022     		movs	r2, #0
 175 0034 6261     		str	r2, [r4, #20]
 521:..\..\..\arduinoLCD\test\Pain Drain\libraries\lvgl\src\core/lv_disp.c ****     d->scr_to_load = NULL;
 176              		.loc 1 521 0
 177 0036 94F82830 		ldrb	r3, [r4, #40]	@ zero_extendqisi2
 178 003a 62F30003 		bfi	r3, r2, #0, #1
 179 003e 84F82830 		strb	r3, [r4, #40]
 522:..\..\..\arduinoLCD\test\Pain Drain\libraries\lvgl\src\core/lv_disp.c ****     lv_obj_remove_local_style_prop(a->var, LV_STYLE_OPA, 0);
 180              		.loc 1 522 0
 181 0042 A261     		str	r2, [r4, #24]
 523:..\..\..\arduinoLCD\test\Pain Drain\libraries\lvgl\src\core/lv_disp.c ****     lv_obj_invalidate(d->act_scr);
 182              		.loc 1 523 0
 183 0044 6021     		movs	r1, #96
 184 0046 2868     		ldr	r0, [r5]
 185 0048 FFF7FEFF 		bl	lv_obj_remove_local_style_prop
 186              	.LVL19:
 524:..\..\..\arduinoLCD\test\Pain Drain\libraries\lvgl\src\core/lv_disp.c **** }
 187              		.loc 1 524 0
 188 004c 2069     		ldr	r0, [r4, #16]
 189 004e FFF7FEFF 		bl	lv_obj_invalidate
ARM GAS  C:\Users\haske\AppData\Local\Temp\cct2dzUE.s 			page 14


 190              	.LVL20:
 191 0052 38BD     		pop	{r3, r4, r5, pc}
 192              		.cfi_endproc
 193              	.LFE187:
 194              		.size	scr_anim_ready, .-scr_anim_ready
 195              		.section	.text.scr_load_internal,"ax",%progbits
 196              		.align	2
 197              		.thumb
 198              		.thumb_func
 199              		.type	scr_load_internal, %function
 200              	scr_load_internal:
 201              	.LFB182:
 470:..\..\..\arduinoLCD\test\Pain Drain\libraries\lvgl\src\core/lv_disp.c ****     lv_disp_t * d = lv_obj_get_disp(scr);
 202              		.loc 1 470 0
 203              		.cfi_startproc
 204              		@ args = 0, pretend = 0, frame = 0
 205              		@ frame_needed = 0, uses_anonymous_args = 0
 206              	.LVL21:
 207 0000 70B5     		push	{r4, r5, r6, lr}
 208              		.cfi_def_cfa_offset 16
 209              		.cfi_offset 4, -16
 210              		.cfi_offset 5, -12
 211              		.cfi_offset 6, -8
 212              		.cfi_offset 14, -4
 213 0002 0446     		mov	r4, r0
 471:..\..\..\arduinoLCD\test\Pain Drain\libraries\lvgl\src\core/lv_disp.c ****     if(!d) return;  /*Shouldn't happen, just to be sure*/
 214              		.loc 1 471 0
 215 0004 FFF7FEFF 		bl	lv_obj_get_disp
 216              	.LVL22:
 472:..\..\..\arduinoLCD\test\Pain Drain\libraries\lvgl\src\core/lv_disp.c **** 
 217              		.loc 1 472 0
 218 0008 F8B1     		cbz	r0, .L11
 219 000a 0546     		mov	r5, r0
 474:..\..\..\arduinoLCD\test\Pain Drain\libraries\lvgl\src\core/lv_disp.c **** 
 220              		.loc 1 474 0
 221 000c 0669     		ldr	r6, [r0, #16]
 222              	.LVL23:
 476:..\..\..\arduinoLCD\test\Pain Drain\libraries\lvgl\src\core/lv_disp.c ****     if(d->act_scr) lv_event_send(scr, LV_EVENT_SCREEN_LOAD_START, NULL);
 223              		.loc 1 476 0
 224 000e 26B1     		cbz	r6, .L13
 476:..\..\..\arduinoLCD\test\Pain Drain\libraries\lvgl\src\core/lv_disp.c ****     if(d->act_scr) lv_event_send(scr, LV_EVENT_SCREEN_LOAD_START, NULL);
 225              		.loc 1 476 0 is_stmt 0 discriminator 1
 226 0010 0022     		movs	r2, #0
 227 0012 2521     		movs	r1, #37
 228 0014 3046     		mov	r0, r6
 229              	.LVL24:
 230 0016 FFF7FEFF 		bl	lv_event_send
 231              	.LVL25:
 232              	.L13:
 477:..\..\..\arduinoLCD\test\Pain Drain\libraries\lvgl\src\core/lv_disp.c **** 
 233              		.loc 1 477 0 is_stmt 1
 234 001a 2B69     		ldr	r3, [r5, #16]
 235 001c 23B1     		cbz	r3, .L14
 477:..\..\..\arduinoLCD\test\Pain Drain\libraries\lvgl\src\core/lv_disp.c **** 
 236              		.loc 1 477 0 is_stmt 0 discriminator 1
 237 001e 0022     		movs	r2, #0
 238 0020 2621     		movs	r1, #38
ARM GAS  C:\Users\haske\AppData\Local\Temp\cct2dzUE.s 			page 15


 239 0022 2046     		mov	r0, r4
 240 0024 FFF7FEFF 		bl	lv_event_send
 241              	.LVL26:
 242              	.L14:
 479:..\..\..\arduinoLCD\test\Pain Drain\libraries\lvgl\src\core/lv_disp.c **** 
 243              		.loc 1 479 0 is_stmt 1
 244 0028 2C61     		str	r4, [r5, #16]
 481:..\..\..\arduinoLCD\test\Pain Drain\libraries\lvgl\src\core/lv_disp.c ****     if(d->act_scr) lv_event_send(old_scr, LV_EVENT_SCREEN_UNLOADED, NULL);
 245              		.loc 1 481 0
 246 002a 24B1     		cbz	r4, .L15
 481:..\..\..\arduinoLCD\test\Pain Drain\libraries\lvgl\src\core/lv_disp.c ****     if(d->act_scr) lv_event_send(old_scr, LV_EVENT_SCREEN_UNLOADED, NULL);
 247              		.loc 1 481 0 is_stmt 0 discriminator 1
 248 002c 0022     		movs	r2, #0
 249 002e 2721     		movs	r1, #39
 250 0030 2046     		mov	r0, r4
 251 0032 FFF7FEFF 		bl	lv_event_send
 252              	.LVL27:
 253              	.L15:
 482:..\..\..\arduinoLCD\test\Pain Drain\libraries\lvgl\src\core/lv_disp.c **** 
 254              		.loc 1 482 0 is_stmt 1
 255 0036 2B69     		ldr	r3, [r5, #16]
 256 0038 23B1     		cbz	r3, .L16
 482:..\..\..\arduinoLCD\test\Pain Drain\libraries\lvgl\src\core/lv_disp.c **** 
 257              		.loc 1 482 0 is_stmt 0 discriminator 1
 258 003a 0022     		movs	r2, #0
 259 003c 2821     		movs	r1, #40
 260 003e 3046     		mov	r0, r6
 261 0040 FFF7FEFF 		bl	lv_event_send
 262              	.LVL28:
 263              	.L16:
 484:..\..\..\arduinoLCD\test\Pain Drain\libraries\lvgl\src\core/lv_disp.c **** }
 264              		.loc 1 484 0 is_stmt 1
 265 0044 2046     		mov	r0, r4
 266 0046 FFF7FEFF 		bl	lv_obj_invalidate
 267              	.LVL29:
 268              	.L11:
 269 004a 70BD     		pop	{r4, r5, r6, pc}
 270              		.cfi_endproc
 271              	.LFE182:
 272              		.size	scr_load_internal, .-scr_load_internal
 273              		.section	.text.lv_disp_get_scr_act,"ax",%progbits
 274              		.align	2
 275              		.global	lv_disp_get_scr_act
 276              		.thumb
 277              		.thumb_func
 278              		.type	lv_disp_get_scr_act, %function
 279              	lv_disp_get_scr_act:
 280              	.LFB165:
  51:..\..\..\arduinoLCD\test\Pain Drain\libraries\lvgl\src\core/lv_disp.c ****     if(!disp) disp = lv_disp_get_default();
 281              		.loc 1 51 0
 282              		.cfi_startproc
 283              		@ args = 0, pretend = 0, frame = 0
 284              		@ frame_needed = 0, uses_anonymous_args = 0
 285              	.LVL30:
 286 0000 08B5     		push	{r3, lr}
 287              		.cfi_def_cfa_offset 8
 288              		.cfi_offset 3, -8
ARM GAS  C:\Users\haske\AppData\Local\Temp\cct2dzUE.s 			page 16


 289              		.cfi_offset 14, -4
  52:..\..\..\arduinoLCD\test\Pain Drain\libraries\lvgl\src\core/lv_disp.c ****     if(!disp) {
 290              		.loc 1 52 0
 291 0002 0346     		mov	r3, r0
 292 0004 10B9     		cbnz	r0, .L19
  52:..\..\..\arduinoLCD\test\Pain Drain\libraries\lvgl\src\core/lv_disp.c ****     if(!disp) {
 293              		.loc 1 52 0 is_stmt 0 discriminator 1
 294 0006 FFF7FEFF 		bl	lv_disp_get_default
 295              	.LVL31:
 296 000a 0346     		mov	r3, r0
 297              	.LVL32:
 298              	.L19:
  53:..\..\..\arduinoLCD\test\Pain Drain\libraries\lvgl\src\core/lv_disp.c ****         LV_LOG_WARN("no display registered to get its active screen");
 299              		.loc 1 53 0 is_stmt 1
 300 000c 0BB1     		cbz	r3, .L21
  58:..\..\..\arduinoLCD\test\Pain Drain\libraries\lvgl\src\core/lv_disp.c **** }
 301              		.loc 1 58 0
 302 000e 1869     		ldr	r0, [r3, #16]
 303              	.LVL33:
 304 0010 08BD     		pop	{r3, pc}
 305              	.LVL34:
 306              	.L21:
  55:..\..\..\arduinoLCD\test\Pain Drain\libraries\lvgl\src\core/lv_disp.c ****     }
 307              		.loc 1 55 0
 308 0012 0020     		movs	r0, #0
 309              	.LVL35:
  59:..\..\..\arduinoLCD\test\Pain Drain\libraries\lvgl\src\core/lv_disp.c **** 
 310              		.loc 1 59 0
 311 0014 08BD     		pop	{r3, pc}
 312              		.cfi_endproc
 313              	.LFE165:
 314              		.size	lv_disp_get_scr_act, .-lv_disp_get_scr_act
 315 0016 00BF     		.section	.text.scr_load_anim_start,"ax",%progbits
 316              		.align	2
 317              		.thumb
 318              		.thumb_func
 319              		.type	scr_load_anim_start, %function
 320              	scr_load_anim_start:
 321              	.LFB183:
 488:..\..\..\arduinoLCD\test\Pain Drain\libraries\lvgl\src\core/lv_disp.c ****     lv_disp_t * d = lv_obj_get_disp(a->var);
 322              		.loc 1 488 0
 323              		.cfi_startproc
 324              		@ args = 0, pretend = 0, frame = 0
 325              		@ frame_needed = 0, uses_anonymous_args = 0
 326              	.LVL36:
 327 0000 38B5     		push	{r3, r4, r5, lr}
 328              		.cfi_def_cfa_offset 16
 329              		.cfi_offset 3, -16
 330              		.cfi_offset 4, -12
 331              		.cfi_offset 5, -8
 332              		.cfi_offset 14, -4
 333 0002 0546     		mov	r5, r0
 489:..\..\..\arduinoLCD\test\Pain Drain\libraries\lvgl\src\core/lv_disp.c **** 
 334              		.loc 1 489 0
 335 0004 0068     		ldr	r0, [r0]
 336              	.LVL37:
 337 0006 FFF7FEFF 		bl	lv_obj_get_disp
ARM GAS  C:\Users\haske\AppData\Local\Temp\cct2dzUE.s 			page 17


 338              	.LVL38:
 339 000a 0446     		mov	r4, r0
 340              	.LVL39:
 341              	.LBB104:
 342              	.LBB105:
 343              		.file 2 "..\\..\\..\\arduinoLCD\\test\\Pain Drain\\libraries\\lvgl\\src\\core\\lv_disp.h"
   1:..\..\..\arduinoLCD\test\Pain Drain\libraries\lvgl\src\core/lv_disp.h **** /**
   2:..\..\..\arduinoLCD\test\Pain Drain\libraries\lvgl\src\core/lv_disp.h ****  * @file lv_disp.h
   3:..\..\..\arduinoLCD\test\Pain Drain\libraries\lvgl\src\core/lv_disp.h ****  *
   4:..\..\..\arduinoLCD\test\Pain Drain\libraries\lvgl\src\core/lv_disp.h ****  */
   5:..\..\..\arduinoLCD\test\Pain Drain\libraries\lvgl\src\core/lv_disp.h **** 
   6:..\..\..\arduinoLCD\test\Pain Drain\libraries\lvgl\src\core/lv_disp.h **** #ifndef LV_DISP_H
   7:..\..\..\arduinoLCD\test\Pain Drain\libraries\lvgl\src\core/lv_disp.h **** #define LV_DISP_H
   8:..\..\..\arduinoLCD\test\Pain Drain\libraries\lvgl\src\core/lv_disp.h **** 
   9:..\..\..\arduinoLCD\test\Pain Drain\libraries\lvgl\src\core/lv_disp.h **** #ifdef __cplusplus
  10:..\..\..\arduinoLCD\test\Pain Drain\libraries\lvgl\src\core/lv_disp.h **** extern "C" {
  11:..\..\..\arduinoLCD\test\Pain Drain\libraries\lvgl\src\core/lv_disp.h **** #endif
  12:..\..\..\arduinoLCD\test\Pain Drain\libraries\lvgl\src\core/lv_disp.h **** 
  13:..\..\..\arduinoLCD\test\Pain Drain\libraries\lvgl\src\core/lv_disp.h **** /*********************
  14:..\..\..\arduinoLCD\test\Pain Drain\libraries\lvgl\src\core/lv_disp.h ****  *      INCLUDES
  15:..\..\..\arduinoLCD\test\Pain Drain\libraries\lvgl\src\core/lv_disp.h ****  *********************/
  16:..\..\..\arduinoLCD\test\Pain Drain\libraries\lvgl\src\core/lv_disp.h **** #include "../hal/lv_hal.h"
  17:..\..\..\arduinoLCD\test\Pain Drain\libraries\lvgl\src\core/lv_disp.h **** #include "lv_obj.h"
  18:..\..\..\arduinoLCD\test\Pain Drain\libraries\lvgl\src\core/lv_disp.h **** #include "lv_theme.h"
  19:..\..\..\arduinoLCD\test\Pain Drain\libraries\lvgl\src\core/lv_disp.h **** 
  20:..\..\..\arduinoLCD\test\Pain Drain\libraries\lvgl\src\core/lv_disp.h **** /*********************
  21:..\..\..\arduinoLCD\test\Pain Drain\libraries\lvgl\src\core/lv_disp.h ****  *      DEFINES
  22:..\..\..\arduinoLCD\test\Pain Drain\libraries\lvgl\src\core/lv_disp.h ****  *********************/
  23:..\..\..\arduinoLCD\test\Pain Drain\libraries\lvgl\src\core/lv_disp.h **** 
  24:..\..\..\arduinoLCD\test\Pain Drain\libraries\lvgl\src\core/lv_disp.h **** /**********************
  25:..\..\..\arduinoLCD\test\Pain Drain\libraries\lvgl\src\core/lv_disp.h ****  *      TYPEDEFS
  26:..\..\..\arduinoLCD\test\Pain Drain\libraries\lvgl\src\core/lv_disp.h ****  **********************/
  27:..\..\..\arduinoLCD\test\Pain Drain\libraries\lvgl\src\core/lv_disp.h **** 
  28:..\..\..\arduinoLCD\test\Pain Drain\libraries\lvgl\src\core/lv_disp.h **** typedef enum {
  29:..\..\..\arduinoLCD\test\Pain Drain\libraries\lvgl\src\core/lv_disp.h ****     LV_SCR_LOAD_ANIM_NONE,
  30:..\..\..\arduinoLCD\test\Pain Drain\libraries\lvgl\src\core/lv_disp.h ****     LV_SCR_LOAD_ANIM_OVER_LEFT,
  31:..\..\..\arduinoLCD\test\Pain Drain\libraries\lvgl\src\core/lv_disp.h ****     LV_SCR_LOAD_ANIM_OVER_RIGHT,
  32:..\..\..\arduinoLCD\test\Pain Drain\libraries\lvgl\src\core/lv_disp.h ****     LV_SCR_LOAD_ANIM_OVER_TOP,
  33:..\..\..\arduinoLCD\test\Pain Drain\libraries\lvgl\src\core/lv_disp.h ****     LV_SCR_LOAD_ANIM_OVER_BOTTOM,
  34:..\..\..\arduinoLCD\test\Pain Drain\libraries\lvgl\src\core/lv_disp.h ****     LV_SCR_LOAD_ANIM_MOVE_LEFT,
  35:..\..\..\arduinoLCD\test\Pain Drain\libraries\lvgl\src\core/lv_disp.h ****     LV_SCR_LOAD_ANIM_MOVE_RIGHT,
  36:..\..\..\arduinoLCD\test\Pain Drain\libraries\lvgl\src\core/lv_disp.h ****     LV_SCR_LOAD_ANIM_MOVE_TOP,
  37:..\..\..\arduinoLCD\test\Pain Drain\libraries\lvgl\src\core/lv_disp.h ****     LV_SCR_LOAD_ANIM_MOVE_BOTTOM,
  38:..\..\..\arduinoLCD\test\Pain Drain\libraries\lvgl\src\core/lv_disp.h ****     LV_SCR_LOAD_ANIM_FADE_IN,
  39:..\..\..\arduinoLCD\test\Pain Drain\libraries\lvgl\src\core/lv_disp.h ****     LV_SCR_LOAD_ANIM_FADE_ON = LV_SCR_LOAD_ANIM_FADE_IN, /*For backward compatibility*/
  40:..\..\..\arduinoLCD\test\Pain Drain\libraries\lvgl\src\core/lv_disp.h ****     LV_SCR_LOAD_ANIM_FADE_OUT,
  41:..\..\..\arduinoLCD\test\Pain Drain\libraries\lvgl\src\core/lv_disp.h ****     LV_SCR_LOAD_ANIM_OUT_LEFT,
  42:..\..\..\arduinoLCD\test\Pain Drain\libraries\lvgl\src\core/lv_disp.h ****     LV_SCR_LOAD_ANIM_OUT_RIGHT,
  43:..\..\..\arduinoLCD\test\Pain Drain\libraries\lvgl\src\core/lv_disp.h ****     LV_SCR_LOAD_ANIM_OUT_TOP,
  44:..\..\..\arduinoLCD\test\Pain Drain\libraries\lvgl\src\core/lv_disp.h ****     LV_SCR_LOAD_ANIM_OUT_BOTTOM,
  45:..\..\..\arduinoLCD\test\Pain Drain\libraries\lvgl\src\core/lv_disp.h **** } lv_scr_load_anim_t;
  46:..\..\..\arduinoLCD\test\Pain Drain\libraries\lvgl\src\core/lv_disp.h **** 
  47:..\..\..\arduinoLCD\test\Pain Drain\libraries\lvgl\src\core/lv_disp.h **** /**********************
  48:..\..\..\arduinoLCD\test\Pain Drain\libraries\lvgl\src\core/lv_disp.h ****  * GLOBAL PROTOTYPES
  49:..\..\..\arduinoLCD\test\Pain Drain\libraries\lvgl\src\core/lv_disp.h ****  **********************/
  50:..\..\..\arduinoLCD\test\Pain Drain\libraries\lvgl\src\core/lv_disp.h **** 
  51:..\..\..\arduinoLCD\test\Pain Drain\libraries\lvgl\src\core/lv_disp.h **** /**
ARM GAS  C:\Users\haske\AppData\Local\Temp\cct2dzUE.s 			page 18


  52:..\..\..\arduinoLCD\test\Pain Drain\libraries\lvgl\src\core/lv_disp.h ****  * Return with a pointer to the active screen
  53:..\..\..\arduinoLCD\test\Pain Drain\libraries\lvgl\src\core/lv_disp.h ****  * @param disp pointer to display which active screen should be get. (NULL to use the default
  54:..\..\..\arduinoLCD\test\Pain Drain\libraries\lvgl\src\core/lv_disp.h ****  * screen)
  55:..\..\..\arduinoLCD\test\Pain Drain\libraries\lvgl\src\core/lv_disp.h ****  * @return pointer to the active screen object (loaded by 'lv_scr_load()')
  56:..\..\..\arduinoLCD\test\Pain Drain\libraries\lvgl\src\core/lv_disp.h ****  */
  57:..\..\..\arduinoLCD\test\Pain Drain\libraries\lvgl\src\core/lv_disp.h **** lv_obj_t * lv_disp_get_scr_act(lv_disp_t * disp);
  58:..\..\..\arduinoLCD\test\Pain Drain\libraries\lvgl\src\core/lv_disp.h **** 
  59:..\..\..\arduinoLCD\test\Pain Drain\libraries\lvgl\src\core/lv_disp.h **** /**
  60:..\..\..\arduinoLCD\test\Pain Drain\libraries\lvgl\src\core/lv_disp.h ****  * Return with a pointer to the previous screen. Only used during screen transitions.
  61:..\..\..\arduinoLCD\test\Pain Drain\libraries\lvgl\src\core/lv_disp.h ****  * @param disp pointer to display which previous screen should be get. (NULL to use the default
  62:..\..\..\arduinoLCD\test\Pain Drain\libraries\lvgl\src\core/lv_disp.h ****  * screen)
  63:..\..\..\arduinoLCD\test\Pain Drain\libraries\lvgl\src\core/lv_disp.h ****  * @return pointer to the previous screen object or NULL if not used now
  64:..\..\..\arduinoLCD\test\Pain Drain\libraries\lvgl\src\core/lv_disp.h ****  */
  65:..\..\..\arduinoLCD\test\Pain Drain\libraries\lvgl\src\core/lv_disp.h **** lv_obj_t * lv_disp_get_scr_prev(lv_disp_t * disp);
  66:..\..\..\arduinoLCD\test\Pain Drain\libraries\lvgl\src\core/lv_disp.h **** 
  67:..\..\..\arduinoLCD\test\Pain Drain\libraries\lvgl\src\core/lv_disp.h **** /**
  68:..\..\..\arduinoLCD\test\Pain Drain\libraries\lvgl\src\core/lv_disp.h ****  * Make a screen active
  69:..\..\..\arduinoLCD\test\Pain Drain\libraries\lvgl\src\core/lv_disp.h ****  * @param scr pointer to a screen
  70:..\..\..\arduinoLCD\test\Pain Drain\libraries\lvgl\src\core/lv_disp.h ****  */
  71:..\..\..\arduinoLCD\test\Pain Drain\libraries\lvgl\src\core/lv_disp.h **** void lv_disp_load_scr(lv_obj_t * scr);
  72:..\..\..\arduinoLCD\test\Pain Drain\libraries\lvgl\src\core/lv_disp.h **** 
  73:..\..\..\arduinoLCD\test\Pain Drain\libraries\lvgl\src\core/lv_disp.h **** /**
  74:..\..\..\arduinoLCD\test\Pain Drain\libraries\lvgl\src\core/lv_disp.h ****  * Return with the top layer. (Same on every screen and it is above the normal screen layer)
  75:..\..\..\arduinoLCD\test\Pain Drain\libraries\lvgl\src\core/lv_disp.h ****  * @param disp pointer to display which top layer should be get. (NULL to use the default screen)
  76:..\..\..\arduinoLCD\test\Pain Drain\libraries\lvgl\src\core/lv_disp.h ****  * @return pointer to the top layer object (transparent screen sized lv_obj)
  77:..\..\..\arduinoLCD\test\Pain Drain\libraries\lvgl\src\core/lv_disp.h ****  */
  78:..\..\..\arduinoLCD\test\Pain Drain\libraries\lvgl\src\core/lv_disp.h **** lv_obj_t * lv_disp_get_layer_top(lv_disp_t * disp);
  79:..\..\..\arduinoLCD\test\Pain Drain\libraries\lvgl\src\core/lv_disp.h **** 
  80:..\..\..\arduinoLCD\test\Pain Drain\libraries\lvgl\src\core/lv_disp.h **** /**
  81:..\..\..\arduinoLCD\test\Pain Drain\libraries\lvgl\src\core/lv_disp.h ****  * Return with the sys. layer. (Same on every screen and it is above the normal screen and the top
  82:..\..\..\arduinoLCD\test\Pain Drain\libraries\lvgl\src\core/lv_disp.h ****  * layer)
  83:..\..\..\arduinoLCD\test\Pain Drain\libraries\lvgl\src\core/lv_disp.h ****  * @param disp pointer to display which sys. layer should be retrieved. (NULL to use the default sc
  84:..\..\..\arduinoLCD\test\Pain Drain\libraries\lvgl\src\core/lv_disp.h ****  * @return pointer to the sys layer object (transparent screen sized lv_obj)
  85:..\..\..\arduinoLCD\test\Pain Drain\libraries\lvgl\src\core/lv_disp.h ****  */
  86:..\..\..\arduinoLCD\test\Pain Drain\libraries\lvgl\src\core/lv_disp.h **** lv_obj_t * lv_disp_get_layer_sys(lv_disp_t * disp);
  87:..\..\..\arduinoLCD\test\Pain Drain\libraries\lvgl\src\core/lv_disp.h **** 
  88:..\..\..\arduinoLCD\test\Pain Drain\libraries\lvgl\src\core/lv_disp.h **** /**
  89:..\..\..\arduinoLCD\test\Pain Drain\libraries\lvgl\src\core/lv_disp.h ****  * Set the theme of a display
  90:..\..\..\arduinoLCD\test\Pain Drain\libraries\lvgl\src\core/lv_disp.h ****  * @param disp pointer to a display
  91:..\..\..\arduinoLCD\test\Pain Drain\libraries\lvgl\src\core/lv_disp.h ****  */
  92:..\..\..\arduinoLCD\test\Pain Drain\libraries\lvgl\src\core/lv_disp.h **** void lv_disp_set_theme(lv_disp_t * disp, lv_theme_t * th);
  93:..\..\..\arduinoLCD\test\Pain Drain\libraries\lvgl\src\core/lv_disp.h **** 
  94:..\..\..\arduinoLCD\test\Pain Drain\libraries\lvgl\src\core/lv_disp.h **** /**
  95:..\..\..\arduinoLCD\test\Pain Drain\libraries\lvgl\src\core/lv_disp.h ****  * Get the theme of a display
  96:..\..\..\arduinoLCD\test\Pain Drain\libraries\lvgl\src\core/lv_disp.h ****  * @param disp pointer to a display
  97:..\..\..\arduinoLCD\test\Pain Drain\libraries\lvgl\src\core/lv_disp.h ****  * @return the display's theme (can be NULL)
  98:..\..\..\arduinoLCD\test\Pain Drain\libraries\lvgl\src\core/lv_disp.h ****  */
  99:..\..\..\arduinoLCD\test\Pain Drain\libraries\lvgl\src\core/lv_disp.h **** lv_theme_t * lv_disp_get_theme(lv_disp_t * disp);
 100:..\..\..\arduinoLCD\test\Pain Drain\libraries\lvgl\src\core/lv_disp.h **** 
 101:..\..\..\arduinoLCD\test\Pain Drain\libraries\lvgl\src\core/lv_disp.h **** /**
 102:..\..\..\arduinoLCD\test\Pain Drain\libraries\lvgl\src\core/lv_disp.h ****  * Set the background color of a display
 103:..\..\..\arduinoLCD\test\Pain Drain\libraries\lvgl\src\core/lv_disp.h ****  * @param disp pointer to a display
 104:..\..\..\arduinoLCD\test\Pain Drain\libraries\lvgl\src\core/lv_disp.h ****  * @param color color of the background
 105:..\..\..\arduinoLCD\test\Pain Drain\libraries\lvgl\src\core/lv_disp.h ****  */
 106:..\..\..\arduinoLCD\test\Pain Drain\libraries\lvgl\src\core/lv_disp.h **** void lv_disp_set_bg_color(lv_disp_t * disp, lv_color_t color);
 107:..\..\..\arduinoLCD\test\Pain Drain\libraries\lvgl\src\core/lv_disp.h **** 
 108:..\..\..\arduinoLCD\test\Pain Drain\libraries\lvgl\src\core/lv_disp.h **** /**
ARM GAS  C:\Users\haske\AppData\Local\Temp\cct2dzUE.s 			page 19


 109:..\..\..\arduinoLCD\test\Pain Drain\libraries\lvgl\src\core/lv_disp.h ****  * Set the background image of a display
 110:..\..\..\arduinoLCD\test\Pain Drain\libraries\lvgl\src\core/lv_disp.h ****  * @param disp pointer to a display
 111:..\..\..\arduinoLCD\test\Pain Drain\libraries\lvgl\src\core/lv_disp.h ****  * @param img_src path to file or pointer to an `lv_img_dsc_t` variable
 112:..\..\..\arduinoLCD\test\Pain Drain\libraries\lvgl\src\core/lv_disp.h ****  */
 113:..\..\..\arduinoLCD\test\Pain Drain\libraries\lvgl\src\core/lv_disp.h **** void lv_disp_set_bg_image(lv_disp_t * disp, const void  * img_src);
 114:..\..\..\arduinoLCD\test\Pain Drain\libraries\lvgl\src\core/lv_disp.h **** 
 115:..\..\..\arduinoLCD\test\Pain Drain\libraries\lvgl\src\core/lv_disp.h **** /**
 116:..\..\..\arduinoLCD\test\Pain Drain\libraries\lvgl\src\core/lv_disp.h ****  * Set opacity of the background
 117:..\..\..\arduinoLCD\test\Pain Drain\libraries\lvgl\src\core/lv_disp.h ****  * @param disp pointer to a display
 118:..\..\..\arduinoLCD\test\Pain Drain\libraries\lvgl\src\core/lv_disp.h ****  * @param opa opacity (0..255)
 119:..\..\..\arduinoLCD\test\Pain Drain\libraries\lvgl\src\core/lv_disp.h ****  */
 120:..\..\..\arduinoLCD\test\Pain Drain\libraries\lvgl\src\core/lv_disp.h **** void lv_disp_set_bg_opa(lv_disp_t * disp, lv_opa_t opa);
 121:..\..\..\arduinoLCD\test\Pain Drain\libraries\lvgl\src\core/lv_disp.h **** 
 122:..\..\..\arduinoLCD\test\Pain Drain\libraries\lvgl\src\core/lv_disp.h **** /**
 123:..\..\..\arduinoLCD\test\Pain Drain\libraries\lvgl\src\core/lv_disp.h ****  * Switch screen with animation
 124:..\..\..\arduinoLCD\test\Pain Drain\libraries\lvgl\src\core/lv_disp.h ****  * @param scr pointer to the new screen to load
 125:..\..\..\arduinoLCD\test\Pain Drain\libraries\lvgl\src\core/lv_disp.h ****  * @param anim_type type of the animation from `lv_scr_load_anim_t`, e.g. `LV_SCR_LOAD_ANIM_MOVE_LE
 126:..\..\..\arduinoLCD\test\Pain Drain\libraries\lvgl\src\core/lv_disp.h ****  * @param time time of the animation
 127:..\..\..\arduinoLCD\test\Pain Drain\libraries\lvgl\src\core/lv_disp.h ****  * @param delay delay before the transition
 128:..\..\..\arduinoLCD\test\Pain Drain\libraries\lvgl\src\core/lv_disp.h ****  * @param auto_del true: automatically delete the old screen
 129:..\..\..\arduinoLCD\test\Pain Drain\libraries\lvgl\src\core/lv_disp.h ****  */
 130:..\..\..\arduinoLCD\test\Pain Drain\libraries\lvgl\src\core/lv_disp.h **** void lv_scr_load_anim(lv_obj_t * scr, lv_scr_load_anim_t anim_type, uint32_t time, uint32_t delay, 
 131:..\..\..\arduinoLCD\test\Pain Drain\libraries\lvgl\src\core/lv_disp.h **** 
 132:..\..\..\arduinoLCD\test\Pain Drain\libraries\lvgl\src\core/lv_disp.h **** /**
 133:..\..\..\arduinoLCD\test\Pain Drain\libraries\lvgl\src\core/lv_disp.h ****  * Get elapsed time since last user activity on a display (e.g. click)
 134:..\..\..\arduinoLCD\test\Pain Drain\libraries\lvgl\src\core/lv_disp.h ****  * @param disp pointer to a display (NULL to get the overall smallest inactivity)
 135:..\..\..\arduinoLCD\test\Pain Drain\libraries\lvgl\src\core/lv_disp.h ****  * @return elapsed ticks (milliseconds) since the last activity
 136:..\..\..\arduinoLCD\test\Pain Drain\libraries\lvgl\src\core/lv_disp.h ****  */
 137:..\..\..\arduinoLCD\test\Pain Drain\libraries\lvgl\src\core/lv_disp.h **** uint32_t lv_disp_get_inactive_time(const lv_disp_t * disp);
 138:..\..\..\arduinoLCD\test\Pain Drain\libraries\lvgl\src\core/lv_disp.h **** 
 139:..\..\..\arduinoLCD\test\Pain Drain\libraries\lvgl\src\core/lv_disp.h **** /**
 140:..\..\..\arduinoLCD\test\Pain Drain\libraries\lvgl\src\core/lv_disp.h ****  * Manually trigger an activity on a display
 141:..\..\..\arduinoLCD\test\Pain Drain\libraries\lvgl\src\core/lv_disp.h ****  * @param disp pointer to a display (NULL to use the default display)
 142:..\..\..\arduinoLCD\test\Pain Drain\libraries\lvgl\src\core/lv_disp.h ****  */
 143:..\..\..\arduinoLCD\test\Pain Drain\libraries\lvgl\src\core/lv_disp.h **** void lv_disp_trig_activity(lv_disp_t * disp);
 144:..\..\..\arduinoLCD\test\Pain Drain\libraries\lvgl\src\core/lv_disp.h **** 
 145:..\..\..\arduinoLCD\test\Pain Drain\libraries\lvgl\src\core/lv_disp.h **** /**
 146:..\..\..\arduinoLCD\test\Pain Drain\libraries\lvgl\src\core/lv_disp.h ****  * Clean any CPU cache that is related to the display.
 147:..\..\..\arduinoLCD\test\Pain Drain\libraries\lvgl\src\core/lv_disp.h ****  * @param disp pointer to a display (NULL to use the default display)
 148:..\..\..\arduinoLCD\test\Pain Drain\libraries\lvgl\src\core/lv_disp.h ****  */
 149:..\..\..\arduinoLCD\test\Pain Drain\libraries\lvgl\src\core/lv_disp.h **** void lv_disp_clean_dcache(lv_disp_t * disp);
 150:..\..\..\arduinoLCD\test\Pain Drain\libraries\lvgl\src\core/lv_disp.h **** 
 151:..\..\..\arduinoLCD\test\Pain Drain\libraries\lvgl\src\core/lv_disp.h **** /**
 152:..\..\..\arduinoLCD\test\Pain Drain\libraries\lvgl\src\core/lv_disp.h ****  * Temporarily enable and disable the invalidation of the display.
 153:..\..\..\arduinoLCD\test\Pain Drain\libraries\lvgl\src\core/lv_disp.h ****  * @param disp pointer to a display (NULL to use the default display)
 154:..\..\..\arduinoLCD\test\Pain Drain\libraries\lvgl\src\core/lv_disp.h ****  * @param en true: enable invalidation; false: invalidation
 155:..\..\..\arduinoLCD\test\Pain Drain\libraries\lvgl\src\core/lv_disp.h ****  */
 156:..\..\..\arduinoLCD\test\Pain Drain\libraries\lvgl\src\core/lv_disp.h **** void lv_disp_enable_invalidation(lv_disp_t * disp, bool en);
 157:..\..\..\arduinoLCD\test\Pain Drain\libraries\lvgl\src\core/lv_disp.h **** 
 158:..\..\..\arduinoLCD\test\Pain Drain\libraries\lvgl\src\core/lv_disp.h **** /**
 159:..\..\..\arduinoLCD\test\Pain Drain\libraries\lvgl\src\core/lv_disp.h ****  * Get display invalidation is enabled.
 160:..\..\..\arduinoLCD\test\Pain Drain\libraries\lvgl\src\core/lv_disp.h ****  * @param disp pointer to a display (NULL to use the default display)
 161:..\..\..\arduinoLCD\test\Pain Drain\libraries\lvgl\src\core/lv_disp.h ****  * @return return true if invalidation is enabled
 162:..\..\..\arduinoLCD\test\Pain Drain\libraries\lvgl\src\core/lv_disp.h ****  */
 163:..\..\..\arduinoLCD\test\Pain Drain\libraries\lvgl\src\core/lv_disp.h **** bool lv_disp_is_invalidation_enabled(lv_disp_t * disp);
 164:..\..\..\arduinoLCD\test\Pain Drain\libraries\lvgl\src\core/lv_disp.h **** 
 165:..\..\..\arduinoLCD\test\Pain Drain\libraries\lvgl\src\core/lv_disp.h **** /**
ARM GAS  C:\Users\haske\AppData\Local\Temp\cct2dzUE.s 			page 20


 166:..\..\..\arduinoLCD\test\Pain Drain\libraries\lvgl\src\core/lv_disp.h ****  * Get a pointer to the screen refresher timer to
 167:..\..\..\arduinoLCD\test\Pain Drain\libraries\lvgl\src\core/lv_disp.h ****  * modify its parameters with `lv_timer_...` functions.
 168:..\..\..\arduinoLCD\test\Pain Drain\libraries\lvgl\src\core/lv_disp.h ****  * @param disp pointer to a display
 169:..\..\..\arduinoLCD\test\Pain Drain\libraries\lvgl\src\core/lv_disp.h ****  * @return pointer to the display refresher timer. (NULL on error)
 170:..\..\..\arduinoLCD\test\Pain Drain\libraries\lvgl\src\core/lv_disp.h ****  */
 171:..\..\..\arduinoLCD\test\Pain Drain\libraries\lvgl\src\core/lv_disp.h **** lv_timer_t * _lv_disp_get_refr_timer(lv_disp_t * disp);
 172:..\..\..\arduinoLCD\test\Pain Drain\libraries\lvgl\src\core/lv_disp.h **** 
 173:..\..\..\arduinoLCD\test\Pain Drain\libraries\lvgl\src\core/lv_disp.h **** /*------------------------------------------------
 174:..\..\..\arduinoLCD\test\Pain Drain\libraries\lvgl\src\core/lv_disp.h ****  * To improve backward compatibility
 175:..\..\..\arduinoLCD\test\Pain Drain\libraries\lvgl\src\core/lv_disp.h ****  * Recommended only if you have one display
 176:..\..\..\arduinoLCD\test\Pain Drain\libraries\lvgl\src\core/lv_disp.h ****  *------------------------------------------------*/
 177:..\..\..\arduinoLCD\test\Pain Drain\libraries\lvgl\src\core/lv_disp.h **** 
 178:..\..\..\arduinoLCD\test\Pain Drain\libraries\lvgl\src\core/lv_disp.h **** /**
 179:..\..\..\arduinoLCD\test\Pain Drain\libraries\lvgl\src\core/lv_disp.h ****  * Get the active screen of the default display
 180:..\..\..\arduinoLCD\test\Pain Drain\libraries\lvgl\src\core/lv_disp.h ****  * @return pointer to the active screen
 181:..\..\..\arduinoLCD\test\Pain Drain\libraries\lvgl\src\core/lv_disp.h ****  */
 182:..\..\..\arduinoLCD\test\Pain Drain\libraries\lvgl\src\core/lv_disp.h **** static inline lv_obj_t * lv_scr_act(void)
 183:..\..\..\arduinoLCD\test\Pain Drain\libraries\lvgl\src\core/lv_disp.h **** {
 184:..\..\..\arduinoLCD\test\Pain Drain\libraries\lvgl\src\core/lv_disp.h ****     return lv_disp_get_scr_act(lv_disp_get_default());
 344              		.loc 2 184 0
 345 000c FFF7FEFF 		bl	lv_disp_get_default
 346              	.LVL40:
 347 0010 FFF7FEFF 		bl	lv_disp_get_scr_act
 348              	.LVL41:
 349              	.LBE105:
 350              	.LBE104:
 491:..\..\..\arduinoLCD\test\Pain Drain\libraries\lvgl\src\core/lv_disp.c ****     d->act_scr = a->var;
 351              		.loc 1 491 0
 352 0014 6061     		str	r0, [r4, #20]
 492:..\..\..\arduinoLCD\test\Pain Drain\libraries\lvgl\src\core/lv_disp.c **** 
 353              		.loc 1 492 0
 354 0016 2868     		ldr	r0, [r5]
 355 0018 2061     		str	r0, [r4, #16]
 494:..\..\..\arduinoLCD\test\Pain Drain\libraries\lvgl\src\core/lv_disp.c **** }
 356              		.loc 1 494 0
 357 001a 0022     		movs	r2, #0
 358 001c 2621     		movs	r1, #38
 359 001e FFF7FEFF 		bl	lv_event_send
 360              	.LVL42:
 361 0022 38BD     		pop	{r3, r4, r5, pc}
 362              		.cfi_endproc
 363              	.LFE183:
 364              		.size	scr_load_anim_start, .-scr_load_anim_start
 365              		.section	.text.lv_disp_get_scr_prev,"ax",%progbits
 366              		.align	2
 367              		.global	lv_disp_get_scr_prev
 368              		.thumb
 369              		.thumb_func
 370              		.type	lv_disp_get_scr_prev, %function
 371              	lv_disp_get_scr_prev:
 372              	.LFB166:
  68:..\..\..\arduinoLCD\test\Pain Drain\libraries\lvgl\src\core/lv_disp.c ****     if(!disp) disp = lv_disp_get_default();
 373              		.loc 1 68 0
 374              		.cfi_startproc
 375              		@ args = 0, pretend = 0, frame = 0
 376              		@ frame_needed = 0, uses_anonymous_args = 0
 377              	.LVL43:
ARM GAS  C:\Users\haske\AppData\Local\Temp\cct2dzUE.s 			page 21


 378 0000 08B5     		push	{r3, lr}
 379              		.cfi_def_cfa_offset 8
 380              		.cfi_offset 3, -8
 381              		.cfi_offset 14, -4
  69:..\..\..\arduinoLCD\test\Pain Drain\libraries\lvgl\src\core/lv_disp.c ****     if(!disp) {
 382              		.loc 1 69 0
 383 0002 0346     		mov	r3, r0
 384 0004 10B9     		cbnz	r0, .L26
  69:..\..\..\arduinoLCD\test\Pain Drain\libraries\lvgl\src\core/lv_disp.c ****     if(!disp) {
 385              		.loc 1 69 0 is_stmt 0 discriminator 1
 386 0006 FFF7FEFF 		bl	lv_disp_get_default
 387              	.LVL44:
 388 000a 0346     		mov	r3, r0
 389              	.LVL45:
 390              	.L26:
  70:..\..\..\arduinoLCD\test\Pain Drain\libraries\lvgl\src\core/lv_disp.c ****         LV_LOG_WARN("no display registered to get its previous screen");
 391              		.loc 1 70 0 is_stmt 1
 392 000c 0BB1     		cbz	r3, .L28
  75:..\..\..\arduinoLCD\test\Pain Drain\libraries\lvgl\src\core/lv_disp.c **** }
 393              		.loc 1 75 0
 394 000e 5869     		ldr	r0, [r3, #20]
 395              	.LVL46:
 396 0010 08BD     		pop	{r3, pc}
 397              	.LVL47:
 398              	.L28:
  72:..\..\..\arduinoLCD\test\Pain Drain\libraries\lvgl\src\core/lv_disp.c ****     }
 399              		.loc 1 72 0
 400 0012 0020     		movs	r0, #0
 401              	.LVL48:
  76:..\..\..\arduinoLCD\test\Pain Drain\libraries\lvgl\src\core/lv_disp.c **** 
 402              		.loc 1 76 0
 403 0014 08BD     		pop	{r3, pc}
 404              		.cfi_endproc
 405              	.LFE166:
 406              		.size	lv_disp_get_scr_prev, .-lv_disp_get_scr_prev
 407 0016 00BF     		.section	.text.lv_disp_get_layer_top,"ax",%progbits
 408              		.align	2
 409              		.global	lv_disp_get_layer_top
 410              		.thumb
 411              		.thumb_func
 412              		.type	lv_disp_get_layer_top, %function
 413              	lv_disp_get_layer_top:
 414              	.LFB168:
  93:..\..\..\arduinoLCD\test\Pain Drain\libraries\lvgl\src\core/lv_disp.c ****     if(!disp) disp = lv_disp_get_default();
 415              		.loc 1 93 0
 416              		.cfi_startproc
 417              		@ args = 0, pretend = 0, frame = 0
 418              		@ frame_needed = 0, uses_anonymous_args = 0
 419              	.LVL49:
 420 0000 08B5     		push	{r3, lr}
 421              		.cfi_def_cfa_offset 8
 422              		.cfi_offset 3, -8
 423              		.cfi_offset 14, -4
  94:..\..\..\arduinoLCD\test\Pain Drain\libraries\lvgl\src\core/lv_disp.c ****     if(!disp) {
 424              		.loc 1 94 0
 425 0002 0346     		mov	r3, r0
 426 0004 10B9     		cbnz	r0, .L31
ARM GAS  C:\Users\haske\AppData\Local\Temp\cct2dzUE.s 			page 22


  94:..\..\..\arduinoLCD\test\Pain Drain\libraries\lvgl\src\core/lv_disp.c ****     if(!disp) {
 427              		.loc 1 94 0 is_stmt 0 discriminator 1
 428 0006 FFF7FEFF 		bl	lv_disp_get_default
 429              	.LVL50:
 430 000a 0346     		mov	r3, r0
 431              	.LVL51:
 432              	.L31:
  95:..\..\..\arduinoLCD\test\Pain Drain\libraries\lvgl\src\core/lv_disp.c ****         LV_LOG_WARN("lv_layer_top: no display registered to get its top layer");
 433              		.loc 1 95 0 is_stmt 1
 434 000c 0BB1     		cbz	r3, .L33
 100:..\..\..\arduinoLCD\test\Pain Drain\libraries\lvgl\src\core/lv_disp.c **** }
 435              		.loc 1 100 0
 436 000e D869     		ldr	r0, [r3, #28]
 437              	.LVL52:
 438 0010 08BD     		pop	{r3, pc}
 439              	.LVL53:
 440              	.L33:
  97:..\..\..\arduinoLCD\test\Pain Drain\libraries\lvgl\src\core/lv_disp.c ****     }
 441              		.loc 1 97 0
 442 0012 0020     		movs	r0, #0
 443              	.LVL54:
 101:..\..\..\arduinoLCD\test\Pain Drain\libraries\lvgl\src\core/lv_disp.c **** 
 444              		.loc 1 101 0
 445 0014 08BD     		pop	{r3, pc}
 446              		.cfi_endproc
 447              	.LFE168:
 448              		.size	lv_disp_get_layer_top, .-lv_disp_get_layer_top
 449 0016 00BF     		.section	.text.lv_disp_get_layer_sys,"ax",%progbits
 450              		.align	2
 451              		.global	lv_disp_get_layer_sys
 452              		.thumb
 453              		.thumb_func
 454              		.type	lv_disp_get_layer_sys, %function
 455              	lv_disp_get_layer_sys:
 456              	.LFB169:
 110:..\..\..\arduinoLCD\test\Pain Drain\libraries\lvgl\src\core/lv_disp.c ****     if(!disp) disp = lv_disp_get_default();
 457              		.loc 1 110 0
 458              		.cfi_startproc
 459              		@ args = 0, pretend = 0, frame = 0
 460              		@ frame_needed = 0, uses_anonymous_args = 0
 461              	.LVL55:
 462 0000 08B5     		push	{r3, lr}
 463              		.cfi_def_cfa_offset 8
 464              		.cfi_offset 3, -8
 465              		.cfi_offset 14, -4
 111:..\..\..\arduinoLCD\test\Pain Drain\libraries\lvgl\src\core/lv_disp.c ****     if(!disp) {
 466              		.loc 1 111 0
 467 0002 0346     		mov	r3, r0
 468 0004 10B9     		cbnz	r0, .L36
 111:..\..\..\arduinoLCD\test\Pain Drain\libraries\lvgl\src\core/lv_disp.c ****     if(!disp) {
 469              		.loc 1 111 0 is_stmt 0 discriminator 1
 470 0006 FFF7FEFF 		bl	lv_disp_get_default
 471              	.LVL56:
 472 000a 0346     		mov	r3, r0
 473              	.LVL57:
 474              	.L36:
 112:..\..\..\arduinoLCD\test\Pain Drain\libraries\lvgl\src\core/lv_disp.c ****         LV_LOG_WARN("lv_layer_sys: no display registered to get its sys. layer");
ARM GAS  C:\Users\haske\AppData\Local\Temp\cct2dzUE.s 			page 23


 475              		.loc 1 112 0 is_stmt 1
 476 000c 0BB1     		cbz	r3, .L38
 117:..\..\..\arduinoLCD\test\Pain Drain\libraries\lvgl\src\core/lv_disp.c **** }
 477              		.loc 1 117 0
 478 000e 186A     		ldr	r0, [r3, #32]
 479              	.LVL58:
 480 0010 08BD     		pop	{r3, pc}
 481              	.LVL59:
 482              	.L38:
 114:..\..\..\arduinoLCD\test\Pain Drain\libraries\lvgl\src\core/lv_disp.c ****     }
 483              		.loc 1 114 0
 484 0012 0020     		movs	r0, #0
 485              	.LVL60:
 118:..\..\..\arduinoLCD\test\Pain Drain\libraries\lvgl\src\core/lv_disp.c **** 
 486              		.loc 1 118 0
 487 0014 08BD     		pop	{r3, pc}
 488              		.cfi_endproc
 489              	.LFE169:
 490              		.size	lv_disp_get_layer_sys, .-lv_disp_get_layer_sys
 491 0016 00BF     		.section	.text.lv_disp_set_theme,"ax",%progbits
 492              		.align	2
 493              		.global	lv_disp_set_theme
 494              		.thumb
 495              		.thumb_func
 496              		.type	lv_disp_set_theme, %function
 497              	lv_disp_set_theme:
 498              	.LFB170:
 125:..\..\..\arduinoLCD\test\Pain Drain\libraries\lvgl\src\core/lv_disp.c ****     if(!disp) disp = lv_disp_get_default();
 499              		.loc 1 125 0
 500              		.cfi_startproc
 501              		@ args = 0, pretend = 0, frame = 0
 502              		@ frame_needed = 0, uses_anonymous_args = 0
 503              	.LVL61:
 504 0000 38B5     		push	{r3, r4, r5, lr}
 505              		.cfi_def_cfa_offset 16
 506              		.cfi_offset 3, -16
 507              		.cfi_offset 4, -12
 508              		.cfi_offset 5, -8
 509              		.cfi_offset 14, -4
 510 0002 0D46     		mov	r5, r1
 126:..\..\..\arduinoLCD\test\Pain Drain\libraries\lvgl\src\core/lv_disp.c ****     if(!disp) {
 511              		.loc 1 126 0
 512 0004 0446     		mov	r4, r0
 513 0006 10B9     		cbnz	r0, .L41
 126:..\..\..\arduinoLCD\test\Pain Drain\libraries\lvgl\src\core/lv_disp.c ****     if(!disp) {
 514              		.loc 1 126 0 is_stmt 0 discriminator 1
 515 0008 FFF7FEFF 		bl	lv_disp_get_default
 516              	.LVL62:
 517 000c 0446     		mov	r4, r0
 518              	.LVL63:
 519              	.L41:
 127:..\..\..\arduinoLCD\test\Pain Drain\libraries\lvgl\src\core/lv_disp.c ****         LV_LOG_WARN("no display registered");
 520              		.loc 1 127 0 is_stmt 1
 521 000e B4B1     		cbz	r4, .L40
 132:..\..\..\arduinoLCD\test\Pain Drain\libraries\lvgl\src\core/lv_disp.c **** 
 522              		.loc 1 132 0
 523 0010 A560     		str	r5, [r4, #8]
ARM GAS  C:\Users\haske\AppData\Local\Temp\cct2dzUE.s 			page 24


 134:..\..\..\arduinoLCD\test\Pain Drain\libraries\lvgl\src\core/lv_disp.c ****        lv_obj_get_child_cnt(disp->screens[0]) == 0 &&
 524              		.loc 1 134 0
 525 0012 636A     		ldr	r3, [r4, #36]
 526 0014 032B     		cmp	r3, #3
 527 0016 12D1     		bne	.L40
 135:..\..\..\arduinoLCD\test\Pain Drain\libraries\lvgl\src\core/lv_disp.c ****        lv_obj_get_child_cnt(disp->screens[1]) == 0 &&
 528              		.loc 1 135 0 discriminator 1
 529 0018 E368     		ldr	r3, [r4, #12]
 530 001a 1868     		ldr	r0, [r3]
 531              	.LVL64:
 532 001c FFF7FEFF 		bl	lv_obj_get_child_cnt
 533              	.LVL65:
 134:..\..\..\arduinoLCD\test\Pain Drain\libraries\lvgl\src\core/lv_disp.c ****        lv_obj_get_child_cnt(disp->screens[0]) == 0 &&
 534              		.loc 1 134 0 discriminator 1
 535 0020 68B9     		cbnz	r0, .L40
 136:..\..\..\arduinoLCD\test\Pain Drain\libraries\lvgl\src\core/lv_disp.c ****        lv_obj_get_child_cnt(disp->screens[2]) == 0) {
 536              		.loc 1 136 0
 537 0022 E368     		ldr	r3, [r4, #12]
 538 0024 5868     		ldr	r0, [r3, #4]
 539 0026 FFF7FEFF 		bl	lv_obj_get_child_cnt
 540              	.LVL66:
 135:..\..\..\arduinoLCD\test\Pain Drain\libraries\lvgl\src\core/lv_disp.c ****        lv_obj_get_child_cnt(disp->screens[1]) == 0 &&
 541              		.loc 1 135 0
 542 002a 40B9     		cbnz	r0, .L40
 137:..\..\..\arduinoLCD\test\Pain Drain\libraries\lvgl\src\core/lv_disp.c ****         lv_theme_apply(disp->screens[0]);
 543              		.loc 1 137 0
 544 002c E368     		ldr	r3, [r4, #12]
 545 002e 9868     		ldr	r0, [r3, #8]
 546 0030 FFF7FEFF 		bl	lv_obj_get_child_cnt
 547              	.LVL67:
 136:..\..\..\arduinoLCD\test\Pain Drain\libraries\lvgl\src\core/lv_disp.c ****        lv_obj_get_child_cnt(disp->screens[2]) == 0) {
 548              		.loc 1 136 0
 549 0034 18B9     		cbnz	r0, .L40
 138:..\..\..\arduinoLCD\test\Pain Drain\libraries\lvgl\src\core/lv_disp.c ****     }
 550              		.loc 1 138 0
 551 0036 E368     		ldr	r3, [r4, #12]
 552 0038 1868     		ldr	r0, [r3]
 553 003a FFF7FEFF 		bl	lv_theme_apply
 554              	.LVL68:
 555              	.L40:
 556 003e 38BD     		pop	{r3, r4, r5, pc}
 557              		.cfi_endproc
 558              	.LFE170:
 559              		.size	lv_disp_set_theme, .-lv_disp_set_theme
 560              		.section	.text.lv_disp_get_theme,"ax",%progbits
 561              		.align	2
 562              		.global	lv_disp_get_theme
 563              		.thumb
 564              		.thumb_func
 565              		.type	lv_disp_get_theme, %function
 566              	lv_disp_get_theme:
 567              	.LFB171:
 147:..\..\..\arduinoLCD\test\Pain Drain\libraries\lvgl\src\core/lv_disp.c ****     if(disp == NULL) disp = lv_disp_get_default();
 568              		.loc 1 147 0
 569              		.cfi_startproc
 570              		@ args = 0, pretend = 0, frame = 0
 571              		@ frame_needed = 0, uses_anonymous_args = 0
ARM GAS  C:\Users\haske\AppData\Local\Temp\cct2dzUE.s 			page 25


 572              	.LVL69:
 573 0000 08B5     		push	{r3, lr}
 574              		.cfi_def_cfa_offset 8
 575              		.cfi_offset 3, -8
 576              		.cfi_offset 14, -4
 148:..\..\..\arduinoLCD\test\Pain Drain\libraries\lvgl\src\core/lv_disp.c ****     return disp->theme;
 577              		.loc 1 148 0
 578 0002 0346     		mov	r3, r0
 579 0004 10B9     		cbnz	r0, .L45
 148:..\..\..\arduinoLCD\test\Pain Drain\libraries\lvgl\src\core/lv_disp.c ****     return disp->theme;
 580              		.loc 1 148 0 is_stmt 0 discriminator 1
 581 0006 FFF7FEFF 		bl	lv_disp_get_default
 582              	.LVL70:
 583 000a 0346     		mov	r3, r0
 584              	.LVL71:
 585              	.L45:
 150:..\..\..\arduinoLCD\test\Pain Drain\libraries\lvgl\src\core/lv_disp.c **** 
 586              		.loc 1 150 0 is_stmt 1
 587 000c 9868     		ldr	r0, [r3, #8]
 588              	.LVL72:
 589 000e 08BD     		pop	{r3, pc}
 590              		.cfi_endproc
 591              	.LFE171:
 592              		.size	lv_disp_get_theme, .-lv_disp_get_theme
 593              		.section	.text.lv_disp_set_bg_color,"ax",%progbits
 594              		.align	2
 595              		.global	lv_disp_set_bg_color
 596              		.thumb
 597              		.thumb_func
 598              		.type	lv_disp_set_bg_color, %function
 599              	lv_disp_set_bg_color:
 600              	.LFB172:
 158:..\..\..\arduinoLCD\test\Pain Drain\libraries\lvgl\src\core/lv_disp.c ****     if(!disp) disp = lv_disp_get_default();
 601              		.loc 1 158 0
 602              		.cfi_startproc
 603              		@ args = 0, pretend = 0, frame = 8
 604              		@ frame_needed = 0, uses_anonymous_args = 0
 605              	.LVL73:
 606 0000 30B5     		push	{r4, r5, lr}
 607              		.cfi_def_cfa_offset 12
 608              		.cfi_offset 4, -12
 609              		.cfi_offset 5, -8
 610              		.cfi_offset 14, -4
 611 0002 85B0     		sub	sp, sp, #20
 612              		.cfi_def_cfa_offset 32
 613 0004 0D46     		mov	r5, r1	@ movhi
 159:..\..\..\arduinoLCD\test\Pain Drain\libraries\lvgl\src\core/lv_disp.c ****     if(!disp) {
 614              		.loc 1 159 0
 615 0006 0446     		mov	r4, r0
 616 0008 10B9     		cbnz	r0, .L48
 159:..\..\..\arduinoLCD\test\Pain Drain\libraries\lvgl\src\core/lv_disp.c ****     if(!disp) {
 617              		.loc 1 159 0 is_stmt 0 discriminator 1
 618 000a FFF7FEFF 		bl	lv_disp_get_default
 619              	.LVL74:
 620 000e 0446     		mov	r4, r0
 621              	.LVL75:
 622              	.L48:
ARM GAS  C:\Users\haske\AppData\Local\Temp\cct2dzUE.s 			page 26


 160:..\..\..\arduinoLCD\test\Pain Drain\libraries\lvgl\src\core/lv_disp.c ****         LV_LOG_WARN("no display registered");
 623              		.loc 1 160 0 is_stmt 1
 624 0010 ACB1     		cbz	r4, .L47
 165:..\..\..\arduinoLCD\test\Pain Drain\libraries\lvgl\src\core/lv_disp.c **** 
 625              		.loc 1 165 0
 626 0012 6585     		strh	r5, [r4, #42]	@ movhi
 168:..\..\..\arduinoLCD\test\Pain Drain\libraries\lvgl\src\core/lv_disp.c ****     _lv_inv_area(disp, &a);
 627              		.loc 1 168 0
 628 0014 2046     		mov	r0, r4
 629 0016 FFF7FEFF 		bl	lv_disp_get_hor_res
 630              	.LVL76:
 631 001a 0546     		mov	r5, r0
 632              	.LVL77:
 633 001c 2046     		mov	r0, r4
 634 001e FFF7FEFF 		bl	lv_disp_get_ver_res
 635              	.LVL78:
 636 0022 6B1E     		subs	r3, r5, #1
 637 0024 0138     		subs	r0, r0, #1
 638 0026 00B2     		sxth	r0, r0
 639 0028 0090     		str	r0, [sp]
 640 002a 1BB2     		sxth	r3, r3
 641 002c 0022     		movs	r2, #0
 642 002e 1146     		mov	r1, r2
 643 0030 02A8     		add	r0, sp, #8
 644 0032 FFF7FEFF 		bl	lv_area_set
 645              	.LVL79:
 169:..\..\..\arduinoLCD\test\Pain Drain\libraries\lvgl\src\core/lv_disp.c **** 
 646              		.loc 1 169 0
 647 0036 02A9     		add	r1, sp, #8
 648 0038 2046     		mov	r0, r4
 649 003a FFF7FEFF 		bl	_lv_inv_area
 650              	.LVL80:
 651              	.L47:
 171:..\..\..\arduinoLCD\test\Pain Drain\libraries\lvgl\src\core/lv_disp.c **** 
 652              		.loc 1 171 0
 653 003e 05B0     		add	sp, sp, #20
 654              		.cfi_def_cfa_offset 12
 655              		@ sp needed
 656 0040 30BD     		pop	{r4, r5, pc}
 657              		.cfi_endproc
 658              	.LFE172:
 659              		.size	lv_disp_set_bg_color, .-lv_disp_set_bg_color
 660 0042 00BF     		.section	.text.lv_disp_set_bg_image,"ax",%progbits
 661              		.align	2
 662              		.global	lv_disp_set_bg_image
 663              		.thumb
 664              		.thumb_func
 665              		.type	lv_disp_set_bg_image, %function
 666              	lv_disp_set_bg_image:
 667              	.LFB173:
 179:..\..\..\arduinoLCD\test\Pain Drain\libraries\lvgl\src\core/lv_disp.c ****     if(!disp) disp = lv_disp_get_default();
 668              		.loc 1 179 0
 669              		.cfi_startproc
 670              		@ args = 0, pretend = 0, frame = 8
 671              		@ frame_needed = 0, uses_anonymous_args = 0
 672              	.LVL81:
 673 0000 30B5     		push	{r4, r5, lr}
ARM GAS  C:\Users\haske\AppData\Local\Temp\cct2dzUE.s 			page 27


 674              		.cfi_def_cfa_offset 12
 675              		.cfi_offset 4, -12
 676              		.cfi_offset 5, -8
 677              		.cfi_offset 14, -4
 678 0002 85B0     		sub	sp, sp, #20
 679              		.cfi_def_cfa_offset 32
 680 0004 0D46     		mov	r5, r1
 180:..\..\..\arduinoLCD\test\Pain Drain\libraries\lvgl\src\core/lv_disp.c ****     if(!disp) {
 681              		.loc 1 180 0
 682 0006 0446     		mov	r4, r0
 683 0008 10B9     		cbnz	r0, .L53
 180:..\..\..\arduinoLCD\test\Pain Drain\libraries\lvgl\src\core/lv_disp.c ****     if(!disp) {
 684              		.loc 1 180 0 is_stmt 0 discriminator 1
 685 000a FFF7FEFF 		bl	lv_disp_get_default
 686              	.LVL82:
 687 000e 0446     		mov	r4, r0
 688              	.LVL83:
 689              	.L53:
 181:..\..\..\arduinoLCD\test\Pain Drain\libraries\lvgl\src\core/lv_disp.c ****         LV_LOG_WARN("no display registered");
 690              		.loc 1 181 0 is_stmt 1
 691 0010 ACB1     		cbz	r4, .L52
 186:..\..\..\arduinoLCD\test\Pain Drain\libraries\lvgl\src\core/lv_disp.c **** 
 692              		.loc 1 186 0
 693 0012 E562     		str	r5, [r4, #44]
 189:..\..\..\arduinoLCD\test\Pain Drain\libraries\lvgl\src\core/lv_disp.c ****     _lv_inv_area(disp, &a);
 694              		.loc 1 189 0
 695 0014 2046     		mov	r0, r4
 696 0016 FFF7FEFF 		bl	lv_disp_get_hor_res
 697              	.LVL84:
 698 001a 0546     		mov	r5, r0
 699              	.LVL85:
 700 001c 2046     		mov	r0, r4
 701 001e FFF7FEFF 		bl	lv_disp_get_ver_res
 702              	.LVL86:
 703 0022 6B1E     		subs	r3, r5, #1
 704 0024 0138     		subs	r0, r0, #1
 705 0026 00B2     		sxth	r0, r0
 706 0028 0090     		str	r0, [sp]
 707 002a 1BB2     		sxth	r3, r3
 708 002c 0022     		movs	r2, #0
 709 002e 1146     		mov	r1, r2
 710 0030 02A8     		add	r0, sp, #8
 711 0032 FFF7FEFF 		bl	lv_area_set
 712              	.LVL87:
 190:..\..\..\arduinoLCD\test\Pain Drain\libraries\lvgl\src\core/lv_disp.c **** }
 713              		.loc 1 190 0
 714 0036 02A9     		add	r1, sp, #8
 715 0038 2046     		mov	r0, r4
 716 003a FFF7FEFF 		bl	_lv_inv_area
 717              	.LVL88:
 718              	.L52:
 191:..\..\..\arduinoLCD\test\Pain Drain\libraries\lvgl\src\core/lv_disp.c **** 
 719              		.loc 1 191 0
 720 003e 05B0     		add	sp, sp, #20
 721              		.cfi_def_cfa_offset 12
 722              		@ sp needed
 723 0040 30BD     		pop	{r4, r5, pc}
ARM GAS  C:\Users\haske\AppData\Local\Temp\cct2dzUE.s 			page 28


 724              		.cfi_endproc
 725              	.LFE173:
 726              		.size	lv_disp_set_bg_image, .-lv_disp_set_bg_image
 727 0042 00BF     		.section	.text.lv_disp_set_bg_opa,"ax",%progbits
 728              		.align	2
 729              		.global	lv_disp_set_bg_opa
 730              		.thumb
 731              		.thumb_func
 732              		.type	lv_disp_set_bg_opa, %function
 733              	lv_disp_set_bg_opa:
 734              	.LFB174:
 199:..\..\..\arduinoLCD\test\Pain Drain\libraries\lvgl\src\core/lv_disp.c ****     if(!disp) disp = lv_disp_get_default();
 735              		.loc 1 199 0
 736              		.cfi_startproc
 737              		@ args = 0, pretend = 0, frame = 8
 738              		@ frame_needed = 0, uses_anonymous_args = 0
 739              	.LVL89:
 740 0000 30B5     		push	{r4, r5, lr}
 741              		.cfi_def_cfa_offset 12
 742              		.cfi_offset 4, -12
 743              		.cfi_offset 5, -8
 744              		.cfi_offset 14, -4
 745 0002 85B0     		sub	sp, sp, #20
 746              		.cfi_def_cfa_offset 32
 747 0004 0D46     		mov	r5, r1
 200:..\..\..\arduinoLCD\test\Pain Drain\libraries\lvgl\src\core/lv_disp.c ****     if(!disp) {
 748              		.loc 1 200 0
 749 0006 0446     		mov	r4, r0
 750 0008 10B9     		cbnz	r0, .L58
 200:..\..\..\arduinoLCD\test\Pain Drain\libraries\lvgl\src\core/lv_disp.c ****     if(!disp) {
 751              		.loc 1 200 0 is_stmt 0 discriminator 1
 752 000a FFF7FEFF 		bl	lv_disp_get_default
 753              	.LVL90:
 754 000e 0446     		mov	r4, r0
 755              	.LVL91:
 756              	.L58:
 201:..\..\..\arduinoLCD\test\Pain Drain\libraries\lvgl\src\core/lv_disp.c ****         LV_LOG_WARN("no display registered");
 757              		.loc 1 201 0 is_stmt 1
 758 0010 B4B1     		cbz	r4, .L57
 206:..\..\..\arduinoLCD\test\Pain Drain\libraries\lvgl\src\core/lv_disp.c **** 
 759              		.loc 1 206 0
 760 0012 84F82950 		strb	r5, [r4, #41]
 209:..\..\..\arduinoLCD\test\Pain Drain\libraries\lvgl\src\core/lv_disp.c ****     _lv_inv_area(disp, &a);
 761              		.loc 1 209 0
 762 0016 2046     		mov	r0, r4
 763 0018 FFF7FEFF 		bl	lv_disp_get_hor_res
 764              	.LVL92:
 765 001c 0546     		mov	r5, r0
 766 001e 2046     		mov	r0, r4
 767 0020 FFF7FEFF 		bl	lv_disp_get_ver_res
 768              	.LVL93:
 769 0024 6B1E     		subs	r3, r5, #1
 770 0026 0138     		subs	r0, r0, #1
 771 0028 00B2     		sxth	r0, r0
 772 002a 0090     		str	r0, [sp]
 773 002c 1BB2     		sxth	r3, r3
 774 002e 0022     		movs	r2, #0
ARM GAS  C:\Users\haske\AppData\Local\Temp\cct2dzUE.s 			page 29


 775 0030 1146     		mov	r1, r2
 776 0032 02A8     		add	r0, sp, #8
 777 0034 FFF7FEFF 		bl	lv_area_set
 778              	.LVL94:
 210:..\..\..\arduinoLCD\test\Pain Drain\libraries\lvgl\src\core/lv_disp.c **** }
 779              		.loc 1 210 0
 780 0038 02A9     		add	r1, sp, #8
 781 003a 2046     		mov	r0, r4
 782 003c FFF7FEFF 		bl	_lv_inv_area
 783              	.LVL95:
 784              	.L57:
 211:..\..\..\arduinoLCD\test\Pain Drain\libraries\lvgl\src\core/lv_disp.c **** 
 785              		.loc 1 211 0
 786 0040 05B0     		add	sp, sp, #20
 787              		.cfi_def_cfa_offset 12
 788              		@ sp needed
 789 0042 30BD     		pop	{r4, r5, pc}
 790              		.cfi_endproc
 791              	.LFE174:
 792              		.size	lv_disp_set_bg_opa, .-lv_disp_set_bg_opa
 793              		.section	.text.lv_scr_load_anim,"ax",%progbits
 794              		.align	2
 795              		.global	lv_scr_load_anim
 796              		.thumb
 797              		.thumb_func
 798              		.type	lv_scr_load_anim, %function
 799              	lv_scr_load_anim:
 800              	.LFB175:
 222:..\..\..\arduinoLCD\test\Pain Drain\libraries\lvgl\src\core/lv_disp.c **** 
 801              		.loc 1 222 0
 802              		.cfi_startproc
 803              		@ args = 4, pretend = 0, frame = 136
 804              		@ frame_needed = 0, uses_anonymous_args = 0
 805              	.LVL96:
 806 0000 2DE9F043 		push	{r4, r5, r6, r7, r8, r9, lr}
 807              		.cfi_def_cfa_offset 28
 808              		.cfi_offset 4, -28
 809              		.cfi_offset 5, -24
 810              		.cfi_offset 6, -20
 811              		.cfi_offset 7, -16
 812              		.cfi_offset 8, -12
 813              		.cfi_offset 9, -8
 814              		.cfi_offset 14, -4
 815 0004 A3B0     		sub	sp, sp, #140
 816              		.cfi_def_cfa_offset 168
 817 0006 0546     		mov	r5, r0
 818 0008 0F46     		mov	r7, r1
 819 000a 9046     		mov	r8, r2
 820 000c 1E46     		mov	r6, r3
 224:..\..\..\arduinoLCD\test\Pain Drain\libraries\lvgl\src\core/lv_disp.c ****     lv_obj_t * act_scr = lv_scr_act();
 821              		.loc 1 224 0
 822 000e FFF7FEFF 		bl	lv_obj_get_disp
 823              	.LVL97:
 824 0012 0446     		mov	r4, r0
 825              	.LVL98:
 826              	.LBB106:
 827              	.LBB107:
ARM GAS  C:\Users\haske\AppData\Local\Temp\cct2dzUE.s 			page 30


 828              		.loc 2 184 0
 829 0014 FFF7FEFF 		bl	lv_disp_get_default
 830              	.LVL99:
 831 0018 FFF7FEFF 		bl	lv_disp_get_scr_act
 832              	.LVL100:
 833 001c 8146     		mov	r9, r0
 834              	.LBE107:
 835              	.LBE106:
 229:..\..\..\arduinoLCD\test\Pain Drain\libraries\lvgl\src\core/lv_disp.c ****         scr_load_internal(d->scr_to_load);
 836              		.loc 1 229 0
 837 001e A069     		ldr	r0, [r4, #24]
 838 0020 D8B1     		cbz	r0, .L63
 229:..\..\..\arduinoLCD\test\Pain Drain\libraries\lvgl\src\core/lv_disp.c ****         scr_load_internal(d->scr_to_load);
 839              		.loc 1 229 0 is_stmt 0 discriminator 1
 840 0022 4845     		cmp	r0, r9
 841 0024 19D0     		beq	.L63
 230:..\..\..\arduinoLCD\test\Pain Drain\libraries\lvgl\src\core/lv_disp.c ****         lv_anim_del(d->scr_to_load, NULL);
 842              		.loc 1 230 0 is_stmt 1
 843 0026 FFF7FEFF 		bl	scr_load_internal
 844              	.LVL101:
 231:..\..\..\arduinoLCD\test\Pain Drain\libraries\lvgl\src\core/lv_disp.c ****         lv_obj_set_pos(d->scr_to_load, 0, 0);
 845              		.loc 1 231 0
 846 002a 0021     		movs	r1, #0
 847 002c A069     		ldr	r0, [r4, #24]
 848 002e FFF7FEFF 		bl	lv_anim_del
 849              	.LVL102:
 232:..\..\..\arduinoLCD\test\Pain Drain\libraries\lvgl\src\core/lv_disp.c ****         lv_obj_remove_local_style_prop(d->scr_to_load, LV_STYLE_OPA, 0);
 850              		.loc 1 232 0
 851 0032 0022     		movs	r2, #0
 852 0034 1146     		mov	r1, r2
 853 0036 A069     		ldr	r0, [r4, #24]
 854 0038 FFF7FEFF 		bl	lv_obj_set_pos
 855              	.LVL103:
 233:..\..\..\arduinoLCD\test\Pain Drain\libraries\lvgl\src\core/lv_disp.c **** 
 856              		.loc 1 233 0
 857 003c 0022     		movs	r2, #0
 858 003e 6021     		movs	r1, #96
 859 0040 A069     		ldr	r0, [r4, #24]
 860 0042 FFF7FEFF 		bl	lv_obj_remove_local_style_prop
 861              	.LVL104:
 235:..\..\..\arduinoLCD\test\Pain Drain\libraries\lvgl\src\core/lv_disp.c ****             lv_obj_del(act_scr);
 862              		.loc 1 235 0
 863 0046 94F82830 		ldrb	r3, [r4, #40]	@ zero_extendqisi2
 864 004a 13F0020F 		tst	r3, #2
 865 004e 02D0     		beq	.L64
 236:..\..\..\arduinoLCD\test\Pain Drain\libraries\lvgl\src\core/lv_disp.c ****         }
 866              		.loc 1 236 0
 867 0050 4846     		mov	r0, r9
 868 0052 FFF7FEFF 		bl	lv_obj_del
 869              	.LVL105:
 870              	.L64:
 238:..\..\..\arduinoLCD\test\Pain Drain\libraries\lvgl\src\core/lv_disp.c ****     }
 871              		.loc 1 238 0
 872 0056 D4F81890 		ldr	r9, [r4, #24]
 873              	.LVL106:
 874              	.L63:
 241:..\..\..\arduinoLCD\test\Pain Drain\libraries\lvgl\src\core/lv_disp.c **** 
ARM GAS  C:\Users\haske\AppData\Local\Temp\cct2dzUE.s 			page 31


 875              		.loc 1 241 0
 876 005a A561     		str	r5, [r4, #24]
 243:..\..\..\arduinoLCD\test\Pain Drain\libraries\lvgl\src\core/lv_disp.c ****         lv_obj_del(d->prev_scr);
 877              		.loc 1 243 0
 878 005c 6069     		ldr	r0, [r4, #20]
 879 005e 40B1     		cbz	r0, .L65
 243:..\..\..\arduinoLCD\test\Pain Drain\libraries\lvgl\src\core/lv_disp.c ****         lv_obj_del(d->prev_scr);
 880              		.loc 1 243 0 is_stmt 0 discriminator 1
 881 0060 94F82830 		ldrb	r3, [r4, #40]	@ zero_extendqisi2
 882 0064 13F0020F 		tst	r3, #2
 883 0068 03D0     		beq	.L65
 244:..\..\..\arduinoLCD\test\Pain Drain\libraries\lvgl\src\core/lv_disp.c ****         d->prev_scr = NULL;
 884              		.loc 1 244 0 is_stmt 1
 885 006a FFF7FEFF 		bl	lv_obj_del
 886              	.LVL107:
 245:..\..\..\arduinoLCD\test\Pain Drain\libraries\lvgl\src\core/lv_disp.c ****     }
 887              		.loc 1 245 0
 888 006e 0023     		movs	r3, #0
 889 0070 6361     		str	r3, [r4, #20]
 890              	.L65:
 248:..\..\..\arduinoLCD\test\Pain Drain\libraries\lvgl\src\core/lv_disp.c ****     d->del_prev = auto_del;
 891              		.loc 1 248 0
 892 0072 3846     		mov	r0, r7
 893 0074 FFF7FEFF 		bl	is_out_anim
 894              	.LVL108:
 895 0078 94F82830 		ldrb	r3, [r4, #40]	@ zero_extendqisi2
 896 007c 60F30003 		bfi	r3, r0, #0, #1
 249:..\..\..\arduinoLCD\test\Pain Drain\libraries\lvgl\src\core/lv_disp.c **** 
 897              		.loc 1 249 0
 898 0080 9DF8A820 		ldrb	r2, [sp, #168]	@ zero_extendqisi2
 899 0084 62F34103 		bfi	r3, r2, #1, #1
 900 0088 84F82830 		strb	r3, [r4, #40]
 252:..\..\..\arduinoLCD\test\Pain Drain\libraries\lvgl\src\core/lv_disp.c ****     lv_anim_del(lv_scr_act(), NULL);
 901              		.loc 1 252 0
 902 008c 0021     		movs	r1, #0
 903 008e 2846     		mov	r0, r5
 904 0090 FFF7FEFF 		bl	lv_anim_del
 905              	.LVL109:
 906              	.LBB108:
 907              	.LBB109:
 908              		.loc 2 184 0
 909 0094 FFF7FEFF 		bl	lv_disp_get_default
 910              	.LVL110:
 911 0098 FFF7FEFF 		bl	lv_disp_get_scr_act
 912              	.LVL111:
 913              	.LBE109:
 914              	.LBE108:
 253:..\..\..\arduinoLCD\test\Pain Drain\libraries\lvgl\src\core/lv_disp.c **** 
 915              		.loc 1 253 0
 916 009c 0021     		movs	r1, #0
 917 009e FFF7FEFF 		bl	lv_anim_del
 918              	.LVL112:
 256:..\..\..\arduinoLCD\test\Pain Drain\libraries\lvgl\src\core/lv_disp.c ****     lv_obj_set_pos(lv_scr_act(), 0, 0);
 919              		.loc 1 256 0
 920 00a2 0022     		movs	r2, #0
 921 00a4 1146     		mov	r1, r2
 922 00a6 2846     		mov	r0, r5
ARM GAS  C:\Users\haske\AppData\Local\Temp\cct2dzUE.s 			page 32


 923 00a8 FFF7FEFF 		bl	lv_obj_set_pos
 924              	.LVL113:
 925              	.LBB110:
 926              	.LBB111:
 927              		.loc 2 184 0
 928 00ac FFF7FEFF 		bl	lv_disp_get_default
 929              	.LVL114:
 930 00b0 FFF7FEFF 		bl	lv_disp_get_scr_act
 931              	.LVL115:
 932              	.LBE111:
 933              	.LBE110:
 257:..\..\..\arduinoLCD\test\Pain Drain\libraries\lvgl\src\core/lv_disp.c ****     lv_obj_remove_local_style_prop(new_scr, LV_STYLE_OPA, 0);
 934              		.loc 1 257 0
 935 00b4 0022     		movs	r2, #0
 936 00b6 1146     		mov	r1, r2
 937 00b8 FFF7FEFF 		bl	lv_obj_set_pos
 938              	.LVL116:
 258:..\..\..\arduinoLCD\test\Pain Drain\libraries\lvgl\src\core/lv_disp.c ****     lv_obj_remove_local_style_prop(lv_scr_act(), LV_STYLE_OPA, 0);
 939              		.loc 1 258 0
 940 00bc 0022     		movs	r2, #0
 941 00be 6021     		movs	r1, #96
 942 00c0 2846     		mov	r0, r5
 943 00c2 FFF7FEFF 		bl	lv_obj_remove_local_style_prop
 944              	.LVL117:
 945              	.LBB112:
 946              	.LBB113:
 947              		.loc 2 184 0
 948 00c6 FFF7FEFF 		bl	lv_disp_get_default
 949              	.LVL118:
 950 00ca FFF7FEFF 		bl	lv_disp_get_scr_act
 951              	.LVL119:
 952              	.LBE113:
 953              	.LBE112:
 259:..\..\..\arduinoLCD\test\Pain Drain\libraries\lvgl\src\core/lv_disp.c **** 
 954              		.loc 1 259 0
 955 00ce 0022     		movs	r2, #0
 956 00d0 6021     		movs	r1, #96
 957 00d2 FFF7FEFF 		bl	lv_obj_remove_local_style_prop
 958              	.LVL120:
 263:..\..\..\arduinoLCD\test\Pain Drain\libraries\lvgl\src\core/lv_disp.c ****         scr_load_internal(new_scr);
 959              		.loc 1 263 0
 960 00d6 B8F1000F 		cmp	r8, #0
 961 00da 04D1     		bne	.L66
 263:..\..\..\arduinoLCD\test\Pain Drain\libraries\lvgl\src\core/lv_disp.c ****         scr_load_internal(new_scr);
 962              		.loc 1 263 0 is_stmt 0 discriminator 1
 963 00dc 1EB9     		cbnz	r6, .L66
 264:..\..\..\arduinoLCD\test\Pain Drain\libraries\lvgl\src\core/lv_disp.c ****         return;
 964              		.loc 1 264 0 is_stmt 1
 965 00de 2846     		mov	r0, r5
 966 00e0 FFF7FEFF 		bl	scr_load_internal
 967              	.LVL121:
 968 00e4 E4E0     		b	.L62
 969              	.L66:
 269:..\..\..\arduinoLCD\test\Pain Drain\libraries\lvgl\src\core/lv_disp.c ****     lv_anim_set_var(&a_new, new_scr);
 970              		.loc 1 269 0
 971 00e6 11A8     		add	r0, sp, #68
 972 00e8 FFF7FEFF 		bl	lv_anim_init
ARM GAS  C:\Users\haske\AppData\Local\Temp\cct2dzUE.s 			page 33


 973              	.LVL122:
 974              	.LBB114:
 975              	.LBB115:
 976              		.file 3 "c:\\projects\\paindrain\\arduinolcd\\test\\pain drain\\libraries\\lvgl\\src\\misc\\lv_ani
   1:c:\projects\paindrain\arduinolcd\test\pain drain\libraries\lvgl\src\misc\lv_anim.h **** /**
   2:c:\projects\paindrain\arduinolcd\test\pain drain\libraries\lvgl\src\misc\lv_anim.h ****  * @file lv_anim.h
   3:c:\projects\paindrain\arduinolcd\test\pain drain\libraries\lvgl\src\misc\lv_anim.h ****  *
   4:c:\projects\paindrain\arduinolcd\test\pain drain\libraries\lvgl\src\misc\lv_anim.h ****  */
   5:c:\projects\paindrain\arduinolcd\test\pain drain\libraries\lvgl\src\misc\lv_anim.h **** 
   6:c:\projects\paindrain\arduinolcd\test\pain drain\libraries\lvgl\src\misc\lv_anim.h **** #ifndef LV_ANIM_H
   7:c:\projects\paindrain\arduinolcd\test\pain drain\libraries\lvgl\src\misc\lv_anim.h **** #define LV_ANIM_H
   8:c:\projects\paindrain\arduinolcd\test\pain drain\libraries\lvgl\src\misc\lv_anim.h **** 
   9:c:\projects\paindrain\arduinolcd\test\pain drain\libraries\lvgl\src\misc\lv_anim.h **** #ifdef __cplusplus
  10:c:\projects\paindrain\arduinolcd\test\pain drain\libraries\lvgl\src\misc\lv_anim.h **** extern "C" {
  11:c:\projects\paindrain\arduinolcd\test\pain drain\libraries\lvgl\src\misc\lv_anim.h **** #endif
  12:c:\projects\paindrain\arduinolcd\test\pain drain\libraries\lvgl\src\misc\lv_anim.h **** 
  13:c:\projects\paindrain\arduinolcd\test\pain drain\libraries\lvgl\src\misc\lv_anim.h **** /*********************
  14:c:\projects\paindrain\arduinolcd\test\pain drain\libraries\lvgl\src\misc\lv_anim.h ****  *      INCLUDES
  15:c:\projects\paindrain\arduinolcd\test\pain drain\libraries\lvgl\src\misc\lv_anim.h ****  *********************/
  16:c:\projects\paindrain\arduinolcd\test\pain drain\libraries\lvgl\src\misc\lv_anim.h **** #include "../lv_conf_internal.h"
  17:c:\projects\paindrain\arduinolcd\test\pain drain\libraries\lvgl\src\misc\lv_anim.h **** 
  18:c:\projects\paindrain\arduinolcd\test\pain drain\libraries\lvgl\src\misc\lv_anim.h **** #include <stdint.h>
  19:c:\projects\paindrain\arduinolcd\test\pain drain\libraries\lvgl\src\misc\lv_anim.h **** #include <stdbool.h>
  20:c:\projects\paindrain\arduinolcd\test\pain drain\libraries\lvgl\src\misc\lv_anim.h **** #include <stddef.h>
  21:c:\projects\paindrain\arduinolcd\test\pain drain\libraries\lvgl\src\misc\lv_anim.h **** 
  22:c:\projects\paindrain\arduinolcd\test\pain drain\libraries\lvgl\src\misc\lv_anim.h **** /*********************
  23:c:\projects\paindrain\arduinolcd\test\pain drain\libraries\lvgl\src\misc\lv_anim.h ****  *      DEFINES
  24:c:\projects\paindrain\arduinolcd\test\pain drain\libraries\lvgl\src\misc\lv_anim.h ****  *********************/
  25:c:\projects\paindrain\arduinolcd\test\pain drain\libraries\lvgl\src\misc\lv_anim.h **** 
  26:c:\projects\paindrain\arduinolcd\test\pain drain\libraries\lvgl\src\misc\lv_anim.h **** #define LV_ANIM_REPEAT_INFINITE      0xFFFF
  27:c:\projects\paindrain\arduinolcd\test\pain drain\libraries\lvgl\src\misc\lv_anim.h **** #define LV_ANIM_PLAYTIME_INFINITE    0xFFFFFFFF
  28:c:\projects\paindrain\arduinolcd\test\pain drain\libraries\lvgl\src\misc\lv_anim.h **** 
  29:c:\projects\paindrain\arduinolcd\test\pain drain\libraries\lvgl\src\misc\lv_anim.h **** LV_EXPORT_CONST_INT(LV_ANIM_REPEAT_INFINITE);
  30:c:\projects\paindrain\arduinolcd\test\pain drain\libraries\lvgl\src\misc\lv_anim.h **** LV_EXPORT_CONST_INT(LV_ANIM_PLAYTIME_INFINITE);
  31:c:\projects\paindrain\arduinolcd\test\pain drain\libraries\lvgl\src\misc\lv_anim.h **** 
  32:c:\projects\paindrain\arduinolcd\test\pain drain\libraries\lvgl\src\misc\lv_anim.h **** /**********************
  33:c:\projects\paindrain\arduinolcd\test\pain drain\libraries\lvgl\src\misc\lv_anim.h ****  *      TYPEDEFS
  34:c:\projects\paindrain\arduinolcd\test\pain drain\libraries\lvgl\src\misc\lv_anim.h ****  **********************/
  35:c:\projects\paindrain\arduinolcd\test\pain drain\libraries\lvgl\src\misc\lv_anim.h **** 
  36:c:\projects\paindrain\arduinolcd\test\pain drain\libraries\lvgl\src\misc\lv_anim.h **** /** Can be used to indicate if animations are enabled or disabled in a case*/
  37:c:\projects\paindrain\arduinolcd\test\pain drain\libraries\lvgl\src\misc\lv_anim.h **** typedef enum {
  38:c:\projects\paindrain\arduinolcd\test\pain drain\libraries\lvgl\src\misc\lv_anim.h ****     LV_ANIM_OFF,
  39:c:\projects\paindrain\arduinolcd\test\pain drain\libraries\lvgl\src\misc\lv_anim.h ****     LV_ANIM_ON,
  40:c:\projects\paindrain\arduinolcd\test\pain drain\libraries\lvgl\src\misc\lv_anim.h **** } lv_anim_enable_t;
  41:c:\projects\paindrain\arduinolcd\test\pain drain\libraries\lvgl\src\misc\lv_anim.h **** 
  42:c:\projects\paindrain\arduinolcd\test\pain drain\libraries\lvgl\src\misc\lv_anim.h **** struct _lv_anim_t;
  43:c:\projects\paindrain\arduinolcd\test\pain drain\libraries\lvgl\src\misc\lv_anim.h **** struct _lv_timer_t;
  44:c:\projects\paindrain\arduinolcd\test\pain drain\libraries\lvgl\src\misc\lv_anim.h **** 
  45:c:\projects\paindrain\arduinolcd\test\pain drain\libraries\lvgl\src\misc\lv_anim.h **** /** Get the current value during an animation*/
  46:c:\projects\paindrain\arduinolcd\test\pain drain\libraries\lvgl\src\misc\lv_anim.h **** typedef int32_t (*lv_anim_path_cb_t)(const struct _lv_anim_t *);
  47:c:\projects\paindrain\arduinolcd\test\pain drain\libraries\lvgl\src\misc\lv_anim.h **** 
  48:c:\projects\paindrain\arduinolcd\test\pain drain\libraries\lvgl\src\misc\lv_anim.h **** /** Generic prototype of "animator" functions.
  49:c:\projects\paindrain\arduinolcd\test\pain drain\libraries\lvgl\src\misc\lv_anim.h ****  * First parameter is the variable to animate.
  50:c:\projects\paindrain\arduinolcd\test\pain drain\libraries\lvgl\src\misc\lv_anim.h ****  * Second parameter is the value to set.
  51:c:\projects\paindrain\arduinolcd\test\pain drain\libraries\lvgl\src\misc\lv_anim.h ****  * Compatible with `lv_xxx_set_yyy(obj, value)` functions
  52:c:\projects\paindrain\arduinolcd\test\pain drain\libraries\lvgl\src\misc\lv_anim.h ****  * The `x` in `_xcb_t` means it's not a fully generic prototype because
  53:c:\projects\paindrain\arduinolcd\test\pain drain\libraries\lvgl\src\misc\lv_anim.h ****  * it doesn't receive `lv_anim_t *` as its first argument*/
ARM GAS  C:\Users\haske\AppData\Local\Temp\cct2dzUE.s 			page 34


  54:c:\projects\paindrain\arduinolcd\test\pain drain\libraries\lvgl\src\misc\lv_anim.h **** typedef void (*lv_anim_exec_xcb_t)(void *, int32_t);
  55:c:\projects\paindrain\arduinolcd\test\pain drain\libraries\lvgl\src\misc\lv_anim.h **** 
  56:c:\projects\paindrain\arduinolcd\test\pain drain\libraries\lvgl\src\misc\lv_anim.h **** /** Same as `lv_anim_exec_xcb_t` but receives `lv_anim_t *` as the first parameter.
  57:c:\projects\paindrain\arduinolcd\test\pain drain\libraries\lvgl\src\misc\lv_anim.h ****  * It's more consistent but less convenient. Might be used by binding generator functions.*/
  58:c:\projects\paindrain\arduinolcd\test\pain drain\libraries\lvgl\src\misc\lv_anim.h **** typedef void (*lv_anim_custom_exec_cb_t)(struct _lv_anim_t *, int32_t);
  59:c:\projects\paindrain\arduinolcd\test\pain drain\libraries\lvgl\src\misc\lv_anim.h **** 
  60:c:\projects\paindrain\arduinolcd\test\pain drain\libraries\lvgl\src\misc\lv_anim.h **** /** Callback to call when the animation is ready*/
  61:c:\projects\paindrain\arduinolcd\test\pain drain\libraries\lvgl\src\misc\lv_anim.h **** typedef void (*lv_anim_ready_cb_t)(struct _lv_anim_t *);
  62:c:\projects\paindrain\arduinolcd\test\pain drain\libraries\lvgl\src\misc\lv_anim.h **** 
  63:c:\projects\paindrain\arduinolcd\test\pain drain\libraries\lvgl\src\misc\lv_anim.h **** /** Callback to call when the animation really stars (considering `delay`)*/
  64:c:\projects\paindrain\arduinolcd\test\pain drain\libraries\lvgl\src\misc\lv_anim.h **** typedef void (*lv_anim_start_cb_t)(struct _lv_anim_t *);
  65:c:\projects\paindrain\arduinolcd\test\pain drain\libraries\lvgl\src\misc\lv_anim.h **** 
  66:c:\projects\paindrain\arduinolcd\test\pain drain\libraries\lvgl\src\misc\lv_anim.h **** /** Callback used when the animation values are relative to get the current value*/
  67:c:\projects\paindrain\arduinolcd\test\pain drain\libraries\lvgl\src\misc\lv_anim.h **** typedef int32_t (*lv_anim_get_value_cb_t)(struct _lv_anim_t *);
  68:c:\projects\paindrain\arduinolcd\test\pain drain\libraries\lvgl\src\misc\lv_anim.h **** 
  69:c:\projects\paindrain\arduinolcd\test\pain drain\libraries\lvgl\src\misc\lv_anim.h **** /** Callback used when the animation is deleted*/
  70:c:\projects\paindrain\arduinolcd\test\pain drain\libraries\lvgl\src\misc\lv_anim.h **** typedef void (*lv_anim_deleted_cb_t)(struct _lv_anim_t *);
  71:c:\projects\paindrain\arduinolcd\test\pain drain\libraries\lvgl\src\misc\lv_anim.h **** 
  72:c:\projects\paindrain\arduinolcd\test\pain drain\libraries\lvgl\src\misc\lv_anim.h **** /** Describes an animation*/
  73:c:\projects\paindrain\arduinolcd\test\pain drain\libraries\lvgl\src\misc\lv_anim.h **** typedef struct _lv_anim_t {
  74:c:\projects\paindrain\arduinolcd\test\pain drain\libraries\lvgl\src\misc\lv_anim.h ****     void * var;                          /**<Variable to animate*/
  75:c:\projects\paindrain\arduinolcd\test\pain drain\libraries\lvgl\src\misc\lv_anim.h ****     lv_anim_exec_xcb_t exec_cb;          /**< Function to execute to animate*/
  76:c:\projects\paindrain\arduinolcd\test\pain drain\libraries\lvgl\src\misc\lv_anim.h ****     lv_anim_start_cb_t start_cb;         /**< Call it when the animation is starts (considering `de
  77:c:\projects\paindrain\arduinolcd\test\pain drain\libraries\lvgl\src\misc\lv_anim.h ****     lv_anim_ready_cb_t ready_cb;         /**< Call it when the animation is ready*/
  78:c:\projects\paindrain\arduinolcd\test\pain drain\libraries\lvgl\src\misc\lv_anim.h ****     lv_anim_deleted_cb_t deleted_cb;     /**< Call it when the animation is deleted*/
  79:c:\projects\paindrain\arduinolcd\test\pain drain\libraries\lvgl\src\misc\lv_anim.h ****     lv_anim_get_value_cb_t get_value_cb; /**< Get the current value in relative mode*/
  80:c:\projects\paindrain\arduinolcd\test\pain drain\libraries\lvgl\src\misc\lv_anim.h **** #if LV_USE_USER_DATA
  81:c:\projects\paindrain\arduinolcd\test\pain drain\libraries\lvgl\src\misc\lv_anim.h ****     void * user_data; /**< Custom user data*/
  82:c:\projects\paindrain\arduinolcd\test\pain drain\libraries\lvgl\src\misc\lv_anim.h **** #endif
  83:c:\projects\paindrain\arduinolcd\test\pain drain\libraries\lvgl\src\misc\lv_anim.h ****     lv_anim_path_cb_t path_cb;         /**< Describe the path (curve) of animations*/
  84:c:\projects\paindrain\arduinolcd\test\pain drain\libraries\lvgl\src\misc\lv_anim.h ****     int32_t start_value;               /**< Start value*/
  85:c:\projects\paindrain\arduinolcd\test\pain drain\libraries\lvgl\src\misc\lv_anim.h ****     int32_t current_value;             /**< Current value*/
  86:c:\projects\paindrain\arduinolcd\test\pain drain\libraries\lvgl\src\misc\lv_anim.h ****     int32_t end_value;                 /**< End value*/
  87:c:\projects\paindrain\arduinolcd\test\pain drain\libraries\lvgl\src\misc\lv_anim.h ****     int32_t time;                /**< Animation time in ms*/
  88:c:\projects\paindrain\arduinolcd\test\pain drain\libraries\lvgl\src\misc\lv_anim.h ****     int32_t act_time;            /**< Current time in animation. Set to negative to make delay.*/
  89:c:\projects\paindrain\arduinolcd\test\pain drain\libraries\lvgl\src\misc\lv_anim.h ****     uint32_t playback_delay;     /**< Wait before play back*/
  90:c:\projects\paindrain\arduinolcd\test\pain drain\libraries\lvgl\src\misc\lv_anim.h ****     uint32_t playback_time;      /**< Duration of playback animation*/
  91:c:\projects\paindrain\arduinolcd\test\pain drain\libraries\lvgl\src\misc\lv_anim.h ****     uint32_t repeat_delay;       /**< Wait before repeat*/
  92:c:\projects\paindrain\arduinolcd\test\pain drain\libraries\lvgl\src\misc\lv_anim.h ****     uint16_t repeat_cnt;         /**< Repeat count for the animation*/
  93:c:\projects\paindrain\arduinolcd\test\pain drain\libraries\lvgl\src\misc\lv_anim.h ****     uint8_t early_apply  : 1;    /**< 1: Apply start value immediately even is there is `delay`*/
  94:c:\projects\paindrain\arduinolcd\test\pain drain\libraries\lvgl\src\misc\lv_anim.h **** 
  95:c:\projects\paindrain\arduinolcd\test\pain drain\libraries\lvgl\src\misc\lv_anim.h ****     /*Animation system use these - user shouldn't set*/
  96:c:\projects\paindrain\arduinolcd\test\pain drain\libraries\lvgl\src\misc\lv_anim.h ****     uint8_t playback_now : 1; /**< Play back is in progress*/
  97:c:\projects\paindrain\arduinolcd\test\pain drain\libraries\lvgl\src\misc\lv_anim.h ****     uint8_t run_round : 1;    /**< Indicates the animation has run in this round*/
  98:c:\projects\paindrain\arduinolcd\test\pain drain\libraries\lvgl\src\misc\lv_anim.h ****     uint8_t start_cb_called : 1;    /**< Indicates that the `start_cb` was already called*/
  99:c:\projects\paindrain\arduinolcd\test\pain drain\libraries\lvgl\src\misc\lv_anim.h **** } lv_anim_t;
 100:c:\projects\paindrain\arduinolcd\test\pain drain\libraries\lvgl\src\misc\lv_anim.h **** 
 101:c:\projects\paindrain\arduinolcd\test\pain drain\libraries\lvgl\src\misc\lv_anim.h **** /**********************
 102:c:\projects\paindrain\arduinolcd\test\pain drain\libraries\lvgl\src\misc\lv_anim.h ****  * GLOBAL PROTOTYPES
 103:c:\projects\paindrain\arduinolcd\test\pain drain\libraries\lvgl\src\misc\lv_anim.h ****  **********************/
 104:c:\projects\paindrain\arduinolcd\test\pain drain\libraries\lvgl\src\misc\lv_anim.h **** 
 105:c:\projects\paindrain\arduinolcd\test\pain drain\libraries\lvgl\src\misc\lv_anim.h **** /**
 106:c:\projects\paindrain\arduinolcd\test\pain drain\libraries\lvgl\src\misc\lv_anim.h ****  * Init. the animation module
 107:c:\projects\paindrain\arduinolcd\test\pain drain\libraries\lvgl\src\misc\lv_anim.h ****  */
 108:c:\projects\paindrain\arduinolcd\test\pain drain\libraries\lvgl\src\misc\lv_anim.h **** void _lv_anim_core_init(void);
 109:c:\projects\paindrain\arduinolcd\test\pain drain\libraries\lvgl\src\misc\lv_anim.h **** 
 110:c:\projects\paindrain\arduinolcd\test\pain drain\libraries\lvgl\src\misc\lv_anim.h **** /**
ARM GAS  C:\Users\haske\AppData\Local\Temp\cct2dzUE.s 			page 35


 111:c:\projects\paindrain\arduinolcd\test\pain drain\libraries\lvgl\src\misc\lv_anim.h ****  * Initialize an animation variable.
 112:c:\projects\paindrain\arduinolcd\test\pain drain\libraries\lvgl\src\misc\lv_anim.h ****  * E.g.:
 113:c:\projects\paindrain\arduinolcd\test\pain drain\libraries\lvgl\src\misc\lv_anim.h ****  * lv_anim_t a;
 114:c:\projects\paindrain\arduinolcd\test\pain drain\libraries\lvgl\src\misc\lv_anim.h ****  * lv_anim_init(&a);
 115:c:\projects\paindrain\arduinolcd\test\pain drain\libraries\lvgl\src\misc\lv_anim.h ****  * lv_anim_set_...(&a);
 116:c:\projects\paindrain\arduinolcd\test\pain drain\libraries\lvgl\src\misc\lv_anim.h ****  * lv_anim_start(&a);
 117:c:\projects\paindrain\arduinolcd\test\pain drain\libraries\lvgl\src\misc\lv_anim.h ****  * @param a     pointer to an `lv_anim_t` variable to initialize
 118:c:\projects\paindrain\arduinolcd\test\pain drain\libraries\lvgl\src\misc\lv_anim.h ****  */
 119:c:\projects\paindrain\arduinolcd\test\pain drain\libraries\lvgl\src\misc\lv_anim.h **** void lv_anim_init(lv_anim_t * a);
 120:c:\projects\paindrain\arduinolcd\test\pain drain\libraries\lvgl\src\misc\lv_anim.h **** 
 121:c:\projects\paindrain\arduinolcd\test\pain drain\libraries\lvgl\src\misc\lv_anim.h **** /**
 122:c:\projects\paindrain\arduinolcd\test\pain drain\libraries\lvgl\src\misc\lv_anim.h ****  * Set a variable to animate
 123:c:\projects\paindrain\arduinolcd\test\pain drain\libraries\lvgl\src\misc\lv_anim.h ****  * @param a     pointer to an initialized `lv_anim_t` variable
 124:c:\projects\paindrain\arduinolcd\test\pain drain\libraries\lvgl\src\misc\lv_anim.h ****  * @param var   pointer to a variable to animate
 125:c:\projects\paindrain\arduinolcd\test\pain drain\libraries\lvgl\src\misc\lv_anim.h ****  */
 126:c:\projects\paindrain\arduinolcd\test\pain drain\libraries\lvgl\src\misc\lv_anim.h **** static inline void lv_anim_set_var(lv_anim_t * a, void * var)
 127:c:\projects\paindrain\arduinolcd\test\pain drain\libraries\lvgl\src\misc\lv_anim.h **** {
 128:c:\projects\paindrain\arduinolcd\test\pain drain\libraries\lvgl\src\misc\lv_anim.h ****     a->var = var;
 977              		.loc 3 128 0
 978 00ec 1195     		str	r5, [sp, #68]
 979              	.LVL123:
 980              	.LBE115:
 981              	.LBE114:
 982              	.LBB116:
 983              	.LBB117:
 129:c:\projects\paindrain\arduinolcd\test\pain drain\libraries\lvgl\src\misc\lv_anim.h **** }
 130:c:\projects\paindrain\arduinolcd\test\pain drain\libraries\lvgl\src\misc\lv_anim.h **** 
 131:c:\projects\paindrain\arduinolcd\test\pain drain\libraries\lvgl\src\misc\lv_anim.h **** /**
 132:c:\projects\paindrain\arduinolcd\test\pain drain\libraries\lvgl\src\misc\lv_anim.h ****  * Set a function to animate `var`
 133:c:\projects\paindrain\arduinolcd\test\pain drain\libraries\lvgl\src\misc\lv_anim.h ****  * @param a         pointer to an initialized `lv_anim_t` variable
 134:c:\projects\paindrain\arduinolcd\test\pain drain\libraries\lvgl\src\misc\lv_anim.h ****  * @param exec_cb   a function to execute during animation
 135:c:\projects\paindrain\arduinolcd\test\pain drain\libraries\lvgl\src\misc\lv_anim.h ****  *                  LVGL's built-in functions can be used.
 136:c:\projects\paindrain\arduinolcd\test\pain drain\libraries\lvgl\src\misc\lv_anim.h ****  *                  E.g. lv_obj_set_x
 137:c:\projects\paindrain\arduinolcd\test\pain drain\libraries\lvgl\src\misc\lv_anim.h ****  */
 138:c:\projects\paindrain\arduinolcd\test\pain drain\libraries\lvgl\src\misc\lv_anim.h **** static inline void lv_anim_set_exec_cb(lv_anim_t * a, lv_anim_exec_xcb_t exec_cb)
 139:c:\projects\paindrain\arduinolcd\test\pain drain\libraries\lvgl\src\misc\lv_anim.h **** {
 140:c:\projects\paindrain\arduinolcd\test\pain drain\libraries\lvgl\src\misc\lv_anim.h ****     a->exec_cb = exec_cb;
 141:c:\projects\paindrain\arduinolcd\test\pain drain\libraries\lvgl\src\misc\lv_anim.h **** }
 142:c:\projects\paindrain\arduinolcd\test\pain drain\libraries\lvgl\src\misc\lv_anim.h **** 
 143:c:\projects\paindrain\arduinolcd\test\pain drain\libraries\lvgl\src\misc\lv_anim.h **** /**
 144:c:\projects\paindrain\arduinolcd\test\pain drain\libraries\lvgl\src\misc\lv_anim.h ****  * Set the duration of an animation
 145:c:\projects\paindrain\arduinolcd\test\pain drain\libraries\lvgl\src\misc\lv_anim.h ****  * @param a         pointer to an initialized `lv_anim_t` variable
 146:c:\projects\paindrain\arduinolcd\test\pain drain\libraries\lvgl\src\misc\lv_anim.h ****  * @param duration  duration of the animation in milliseconds
 147:c:\projects\paindrain\arduinolcd\test\pain drain\libraries\lvgl\src\misc\lv_anim.h ****  */
 148:c:\projects\paindrain\arduinolcd\test\pain drain\libraries\lvgl\src\misc\lv_anim.h **** static inline void lv_anim_set_time(lv_anim_t * a, uint32_t duration)
 149:c:\projects\paindrain\arduinolcd\test\pain drain\libraries\lvgl\src\misc\lv_anim.h **** {
 150:c:\projects\paindrain\arduinolcd\test\pain drain\libraries\lvgl\src\misc\lv_anim.h ****     a->time = duration;
 151:c:\projects\paindrain\arduinolcd\test\pain drain\libraries\lvgl\src\misc\lv_anim.h **** }
 152:c:\projects\paindrain\arduinolcd\test\pain drain\libraries\lvgl\src\misc\lv_anim.h **** 
 153:c:\projects\paindrain\arduinolcd\test\pain drain\libraries\lvgl\src\misc\lv_anim.h **** /**
 154:c:\projects\paindrain\arduinolcd\test\pain drain\libraries\lvgl\src\misc\lv_anim.h ****  * Set a delay before starting the animation
 155:c:\projects\paindrain\arduinolcd\test\pain drain\libraries\lvgl\src\misc\lv_anim.h ****  * @param a         pointer to an initialized `lv_anim_t` variable
 156:c:\projects\paindrain\arduinolcd\test\pain drain\libraries\lvgl\src\misc\lv_anim.h ****  * @param delay     delay before the animation in milliseconds
 157:c:\projects\paindrain\arduinolcd\test\pain drain\libraries\lvgl\src\misc\lv_anim.h ****  */
 158:c:\projects\paindrain\arduinolcd\test\pain drain\libraries\lvgl\src\misc\lv_anim.h **** static inline void lv_anim_set_delay(lv_anim_t * a, uint32_t delay)
 159:c:\projects\paindrain\arduinolcd\test\pain drain\libraries\lvgl\src\misc\lv_anim.h **** {
 160:c:\projects\paindrain\arduinolcd\test\pain drain\libraries\lvgl\src\misc\lv_anim.h ****     a->act_time = -(int32_t)(delay);
ARM GAS  C:\Users\haske\AppData\Local\Temp\cct2dzUE.s 			page 36


 161:c:\projects\paindrain\arduinolcd\test\pain drain\libraries\lvgl\src\misc\lv_anim.h **** }
 162:c:\projects\paindrain\arduinolcd\test\pain drain\libraries\lvgl\src\misc\lv_anim.h **** 
 163:c:\projects\paindrain\arduinolcd\test\pain drain\libraries\lvgl\src\misc\lv_anim.h **** /**
 164:c:\projects\paindrain\arduinolcd\test\pain drain\libraries\lvgl\src\misc\lv_anim.h ****  * Set the start and end values of an animation
 165:c:\projects\paindrain\arduinolcd\test\pain drain\libraries\lvgl\src\misc\lv_anim.h ****  * @param a         pointer to an initialized `lv_anim_t` variable
 166:c:\projects\paindrain\arduinolcd\test\pain drain\libraries\lvgl\src\misc\lv_anim.h ****  * @param start     the start value
 167:c:\projects\paindrain\arduinolcd\test\pain drain\libraries\lvgl\src\misc\lv_anim.h ****  * @param end       the end value
 168:c:\projects\paindrain\arduinolcd\test\pain drain\libraries\lvgl\src\misc\lv_anim.h ****  */
 169:c:\projects\paindrain\arduinolcd\test\pain drain\libraries\lvgl\src\misc\lv_anim.h **** static inline void lv_anim_set_values(lv_anim_t * a, int32_t start, int32_t end)
 170:c:\projects\paindrain\arduinolcd\test\pain drain\libraries\lvgl\src\misc\lv_anim.h **** {
 171:c:\projects\paindrain\arduinolcd\test\pain drain\libraries\lvgl\src\misc\lv_anim.h ****     a->start_value = start;
 172:c:\projects\paindrain\arduinolcd\test\pain drain\libraries\lvgl\src\misc\lv_anim.h ****     a->current_value = start;
 173:c:\projects\paindrain\arduinolcd\test\pain drain\libraries\lvgl\src\misc\lv_anim.h ****     a->end_value = end;
 174:c:\projects\paindrain\arduinolcd\test\pain drain\libraries\lvgl\src\misc\lv_anim.h **** }
 175:c:\projects\paindrain\arduinolcd\test\pain drain\libraries\lvgl\src\misc\lv_anim.h **** 
 176:c:\projects\paindrain\arduinolcd\test\pain drain\libraries\lvgl\src\misc\lv_anim.h **** /**
 177:c:\projects\paindrain\arduinolcd\test\pain drain\libraries\lvgl\src\misc\lv_anim.h ****  * Similar to `lv_anim_set_exec_cb` but `lv_anim_custom_exec_cb_t` receives
 178:c:\projects\paindrain\arduinolcd\test\pain drain\libraries\lvgl\src\misc\lv_anim.h ****  * `lv_anim_t * ` as its first parameter instead of `void *`.
 179:c:\projects\paindrain\arduinolcd\test\pain drain\libraries\lvgl\src\misc\lv_anim.h ****  * This function might be used when LVGL is bound to other languages because
 180:c:\projects\paindrain\arduinolcd\test\pain drain\libraries\lvgl\src\misc\lv_anim.h ****  * it's more consistent to have `lv_anim_t *` as first parameter.
 181:c:\projects\paindrain\arduinolcd\test\pain drain\libraries\lvgl\src\misc\lv_anim.h ****  * The variable to animate can be stored in the animation's `user_data`
 182:c:\projects\paindrain\arduinolcd\test\pain drain\libraries\lvgl\src\misc\lv_anim.h ****  * @param a         pointer to an initialized `lv_anim_t` variable
 183:c:\projects\paindrain\arduinolcd\test\pain drain\libraries\lvgl\src\misc\lv_anim.h ****  * @param exec_cb   a function to execute.
 184:c:\projects\paindrain\arduinolcd\test\pain drain\libraries\lvgl\src\misc\lv_anim.h ****  */
 185:c:\projects\paindrain\arduinolcd\test\pain drain\libraries\lvgl\src\misc\lv_anim.h **** static inline void lv_anim_set_custom_exec_cb(lv_anim_t * a, lv_anim_custom_exec_cb_t exec_cb)
 186:c:\projects\paindrain\arduinolcd\test\pain drain\libraries\lvgl\src\misc\lv_anim.h **** {
 187:c:\projects\paindrain\arduinolcd\test\pain drain\libraries\lvgl\src\misc\lv_anim.h ****     a->var     = a;
 188:c:\projects\paindrain\arduinolcd\test\pain drain\libraries\lvgl\src\misc\lv_anim.h ****     a->exec_cb = (lv_anim_exec_xcb_t)exec_cb;
 189:c:\projects\paindrain\arduinolcd\test\pain drain\libraries\lvgl\src\misc\lv_anim.h **** }
 190:c:\projects\paindrain\arduinolcd\test\pain drain\libraries\lvgl\src\misc\lv_anim.h **** 
 191:c:\projects\paindrain\arduinolcd\test\pain drain\libraries\lvgl\src\misc\lv_anim.h **** /**
 192:c:\projects\paindrain\arduinolcd\test\pain drain\libraries\lvgl\src\misc\lv_anim.h ****  * Set the path (curve) of the animation.
 193:c:\projects\paindrain\arduinolcd\test\pain drain\libraries\lvgl\src\misc\lv_anim.h ****  * @param a         pointer to an initialized `lv_anim_t` variable
 194:c:\projects\paindrain\arduinolcd\test\pain drain\libraries\lvgl\src\misc\lv_anim.h ****  * @param path_cb a function to set the current value of the animation.
 195:c:\projects\paindrain\arduinolcd\test\pain drain\libraries\lvgl\src\misc\lv_anim.h ****  */
 196:c:\projects\paindrain\arduinolcd\test\pain drain\libraries\lvgl\src\misc\lv_anim.h **** static inline void lv_anim_set_path_cb(lv_anim_t * a, lv_anim_path_cb_t path_cb)
 197:c:\projects\paindrain\arduinolcd\test\pain drain\libraries\lvgl\src\misc\lv_anim.h **** {
 198:c:\projects\paindrain\arduinolcd\test\pain drain\libraries\lvgl\src\misc\lv_anim.h ****     a->path_cb = path_cb;
 199:c:\projects\paindrain\arduinolcd\test\pain drain\libraries\lvgl\src\misc\lv_anim.h **** }
 200:c:\projects\paindrain\arduinolcd\test\pain drain\libraries\lvgl\src\misc\lv_anim.h **** 
 201:c:\projects\paindrain\arduinolcd\test\pain drain\libraries\lvgl\src\misc\lv_anim.h **** /**
 202:c:\projects\paindrain\arduinolcd\test\pain drain\libraries\lvgl\src\misc\lv_anim.h ****  * Set a function call when the animation really starts (considering `delay`)
 203:c:\projects\paindrain\arduinolcd\test\pain drain\libraries\lvgl\src\misc\lv_anim.h ****  * @param a         pointer to an initialized `lv_anim_t` variable
 204:c:\projects\paindrain\arduinolcd\test\pain drain\libraries\lvgl\src\misc\lv_anim.h ****  * @param start_cb  a function call when the animation starts
 205:c:\projects\paindrain\arduinolcd\test\pain drain\libraries\lvgl\src\misc\lv_anim.h ****  */
 206:c:\projects\paindrain\arduinolcd\test\pain drain\libraries\lvgl\src\misc\lv_anim.h **** static inline void lv_anim_set_start_cb(lv_anim_t * a, lv_anim_start_cb_t start_cb)
 207:c:\projects\paindrain\arduinolcd\test\pain drain\libraries\lvgl\src\misc\lv_anim.h **** {
 208:c:\projects\paindrain\arduinolcd\test\pain drain\libraries\lvgl\src\misc\lv_anim.h ****     a->start_cb = start_cb;
 984              		.loc 3 208 0
 985 00ee 724B     		ldr	r3, .L86
 986 00f0 1393     		str	r3, [sp, #76]
 987              	.LVL124:
 988              	.LBE117:
 989              	.LBE116:
 990              	.LBB118:
 991              	.LBB119:
 209:c:\projects\paindrain\arduinolcd\test\pain drain\libraries\lvgl\src\misc\lv_anim.h **** }
ARM GAS  C:\Users\haske\AppData\Local\Temp\cct2dzUE.s 			page 37


 210:c:\projects\paindrain\arduinolcd\test\pain drain\libraries\lvgl\src\misc\lv_anim.h **** 
 211:c:\projects\paindrain\arduinolcd\test\pain drain\libraries\lvgl\src\misc\lv_anim.h **** /**
 212:c:\projects\paindrain\arduinolcd\test\pain drain\libraries\lvgl\src\misc\lv_anim.h ****  * Set a function to use the current value of the variable and make start and end value
 213:c:\projects\paindrain\arduinolcd\test\pain drain\libraries\lvgl\src\misc\lv_anim.h ****  * relative to the returned current value.
 214:c:\projects\paindrain\arduinolcd\test\pain drain\libraries\lvgl\src\misc\lv_anim.h ****  * @param a             pointer to an initialized `lv_anim_t` variable
 215:c:\projects\paindrain\arduinolcd\test\pain drain\libraries\lvgl\src\misc\lv_anim.h ****  * @param get_value_cb  a function call when the animation starts
 216:c:\projects\paindrain\arduinolcd\test\pain drain\libraries\lvgl\src\misc\lv_anim.h ****  */
 217:c:\projects\paindrain\arduinolcd\test\pain drain\libraries\lvgl\src\misc\lv_anim.h **** static inline void lv_anim_set_get_value_cb(lv_anim_t * a, lv_anim_get_value_cb_t get_value_cb)
 218:c:\projects\paindrain\arduinolcd\test\pain drain\libraries\lvgl\src\misc\lv_anim.h **** {
 219:c:\projects\paindrain\arduinolcd\test\pain drain\libraries\lvgl\src\misc\lv_anim.h ****     a->get_value_cb = get_value_cb;
 220:c:\projects\paindrain\arduinolcd\test\pain drain\libraries\lvgl\src\misc\lv_anim.h **** }
 221:c:\projects\paindrain\arduinolcd\test\pain drain\libraries\lvgl\src\misc\lv_anim.h **** 
 222:c:\projects\paindrain\arduinolcd\test\pain drain\libraries\lvgl\src\misc\lv_anim.h **** /**
 223:c:\projects\paindrain\arduinolcd\test\pain drain\libraries\lvgl\src\misc\lv_anim.h ****  * Set a function call when the animation is ready
 224:c:\projects\paindrain\arduinolcd\test\pain drain\libraries\lvgl\src\misc\lv_anim.h ****  * @param a         pointer to an initialized `lv_anim_t` variable
 225:c:\projects\paindrain\arduinolcd\test\pain drain\libraries\lvgl\src\misc\lv_anim.h ****  * @param ready_cb  a function call when the animation is ready
 226:c:\projects\paindrain\arduinolcd\test\pain drain\libraries\lvgl\src\misc\lv_anim.h ****  */
 227:c:\projects\paindrain\arduinolcd\test\pain drain\libraries\lvgl\src\misc\lv_anim.h **** static inline void lv_anim_set_ready_cb(lv_anim_t * a, lv_anim_ready_cb_t ready_cb)
 228:c:\projects\paindrain\arduinolcd\test\pain drain\libraries\lvgl\src\misc\lv_anim.h **** {
 229:c:\projects\paindrain\arduinolcd\test\pain drain\libraries\lvgl\src\misc\lv_anim.h ****     a->ready_cb = ready_cb;
 992              		.loc 3 229 0
 993 00f2 724B     		ldr	r3, .L86+4
 994 00f4 1493     		str	r3, [sp, #80]
 995              	.LVL125:
 996              	.LBE119:
 997              	.LBE118:
 998              	.LBB120:
 999              	.LBB121:
 150:c:\projects\paindrain\arduinolcd\test\pain drain\libraries\lvgl\src\misc\lv_anim.h **** }
 1000              		.loc 3 150 0
 1001 00f6 CDF87080 		str	r8, [sp, #112]
 1002              	.LVL126:
 1003              	.LBE121:
 1004              	.LBE120:
 1005              	.LBB122:
 1006              	.LBB123:
 160:c:\projects\paindrain\arduinolcd\test\pain drain\libraries\lvgl\src\misc\lv_anim.h **** }
 1007              		.loc 3 160 0
 1008 00fa 7642     		negs	r6, r6
 1009              	.LVL127:
 1010 00fc 1D96     		str	r6, [sp, #116]
 1011              	.LVL128:
 1012              	.LBE123:
 1013              	.LBE122:
 277:..\..\..\arduinoLCD\test\Pain Drain\libraries\lvgl\src\core/lv_disp.c ****     lv_anim_set_var(&a_old, d->act_scr);
 1014              		.loc 1 277 0
 1015 00fe 6846     		mov	r0, sp
 1016 0100 FFF7FEFF 		bl	lv_anim_init
 1017              	.LVL129:
 278:..\..\..\arduinoLCD\test\Pain Drain\libraries\lvgl\src\core/lv_disp.c ****     lv_anim_set_time(&a_old, time);
 1018              		.loc 1 278 0
 1019 0104 2369     		ldr	r3, [r4, #16]
 1020              	.LVL130:
 1021              	.LBB124:
 1022              	.LBB125:
 128:c:\projects\paindrain\arduinolcd\test\pain drain\libraries\lvgl\src\misc\lv_anim.h **** }
 1023              		.loc 3 128 0
ARM GAS  C:\Users\haske\AppData\Local\Temp\cct2dzUE.s 			page 38


 1024 0106 0093     		str	r3, [sp]
 1025              	.LVL131:
 1026              	.LBE125:
 1027              	.LBE124:
 1028              	.LBB126:
 1029              	.LBB127:
 150:c:\projects\paindrain\arduinolcd\test\pain drain\libraries\lvgl\src\misc\lv_anim.h **** }
 1030              		.loc 3 150 0
 1031 0108 CDF82C80 		str	r8, [sp, #44]
 1032              	.LVL132:
 1033              	.LBE127:
 1034              	.LBE126:
 1035              	.LBB128:
 1036              	.LBB129:
 160:c:\projects\paindrain\arduinolcd\test\pain drain\libraries\lvgl\src\misc\lv_anim.h **** }
 1037              		.loc 3 160 0
 1038 010c 0C96     		str	r6, [sp, #48]
 1039              	.LVL133:
 1040              	.LBE129:
 1041              	.LBE128:
 282:..\..\..\arduinoLCD\test\Pain Drain\libraries\lvgl\src\core/lv_disp.c ****         case LV_SCR_LOAD_ANIM_NONE:
 1042              		.loc 1 282 0
 1043 010e 0E2F     		cmp	r7, #14
 1044 0110 00F2C380 		bhi	.L68
 1045 0114 DFE817F0 		tbh	[pc, r7, lsl #1]
 1046              	.L70:
 1047 0118 0F00     		.2byte	(.L69-.L70)/2
 1048 011a 1600     		.2byte	(.L71-.L70)/2
 1049 011c 2000     		.2byte	(.L72-.L70)/2
 1050 011e 2B00     		.2byte	(.L73-.L70)/2
 1051 0120 3500     		.2byte	(.L74-.L70)/2
 1052 0122 4000     		.2byte	(.L75-.L70)/2
 1053 0124 5200     		.2byte	(.L76-.L70)/2
 1054 0126 6400     		.2byte	(.L77-.L70)/2
 1055 0128 7600     		.2byte	(.L78-.L70)/2
 1056 012a 8800     		.2byte	(.L79-.L70)/2
 1057 012c 9000     		.2byte	(.L80-.L70)/2
 1058 012e 9800     		.2byte	(.L81-.L70)/2
 1059 0130 A300     		.2byte	(.L82-.L70)/2
 1060 0132 AD00     		.2byte	(.L83-.L70)/2
 1061 0134 B800     		.2byte	(.L84-.L70)/2
 1062              		.p2align 1
 1063              	.L69:
 1064              	.LVL134:
 1065              	.LBB130:
 1066              	.LBB131:
 140:c:\projects\paindrain\arduinolcd\test\pain drain\libraries\lvgl\src\misc\lv_anim.h **** }
 1067              		.loc 3 140 0
 1068 0136 624B     		ldr	r3, .L86+8
 1069 0138 1293     		str	r3, [sp, #72]
 1070              	.LVL135:
 1071              	.LBE131:
 1072              	.LBE130:
 1073              	.LBB132:
 1074              	.LBB133:
 171:c:\projects\paindrain\arduinolcd\test\pain drain\libraries\lvgl\src\misc\lv_anim.h ****     a->current_value = start;
 1075              		.loc 3 171 0
ARM GAS  C:\Users\haske\AppData\Local\Temp\cct2dzUE.s 			page 39


 1076 013a 0023     		movs	r3, #0
 1077 013c 1993     		str	r3, [sp, #100]
 172:c:\projects\paindrain\arduinolcd\test\pain drain\libraries\lvgl\src\misc\lv_anim.h ****     a->end_value = end;
 1078              		.loc 3 172 0
 1079 013e 1A93     		str	r3, [sp, #104]
 173:c:\projects\paindrain\arduinolcd\test\pain drain\libraries\lvgl\src\misc\lv_anim.h **** }
 1080              		.loc 3 173 0
 1081 0140 1B93     		str	r3, [sp, #108]
 1082 0142 AAE0     		b	.L68
 1083              	.LVL136:
 1084              	.L71:
 1085              	.LBE133:
 1086              	.LBE132:
 1087              	.LBB134:
 1088              	.LBB135:
 140:c:\projects\paindrain\arduinolcd\test\pain drain\libraries\lvgl\src\misc\lv_anim.h **** }
 1089              		.loc 3 140 0
 1090 0144 5E4B     		ldr	r3, .L86+8
 1091 0146 1293     		str	r3, [sp, #72]
 1092              	.LVL137:
 1093              	.LBE135:
 1094              	.LBE134:
 290:..\..\..\arduinoLCD\test\Pain Drain\libraries\lvgl\src\core/lv_disp.c ****             break;
 1095              		.loc 1 290 0
 1096 0148 2046     		mov	r0, r4
 1097 014a FFF7FEFF 		bl	lv_disp_get_hor_res
 1098              	.LVL138:
 1099              	.LBB136:
 1100              	.LBB137:
 171:c:\projects\paindrain\arduinolcd\test\pain drain\libraries\lvgl\src\misc\lv_anim.h ****     a->current_value = start;
 1101              		.loc 3 171 0
 1102 014e 1990     		str	r0, [sp, #100]
 172:c:\projects\paindrain\arduinolcd\test\pain drain\libraries\lvgl\src\misc\lv_anim.h ****     a->end_value = end;
 1103              		.loc 3 172 0
 1104 0150 1A90     		str	r0, [sp, #104]
 173:c:\projects\paindrain\arduinolcd\test\pain drain\libraries\lvgl\src\misc\lv_anim.h **** }
 1105              		.loc 3 173 0
 1106 0152 0023     		movs	r3, #0
 1107 0154 1B93     		str	r3, [sp, #108]
 1108 0156 A0E0     		b	.L68
 1109              	.LVL139:
 1110              	.L72:
 1111              	.LBE137:
 1112              	.LBE136:
 1113              	.LBB138:
 1114              	.LBB139:
 140:c:\projects\paindrain\arduinolcd\test\pain drain\libraries\lvgl\src\misc\lv_anim.h **** }
 1115              		.loc 3 140 0
 1116 0158 594B     		ldr	r3, .L86+8
 1117 015a 1293     		str	r3, [sp, #72]
 1118              	.LVL140:
 1119              	.LBE139:
 1120              	.LBE138:
 294:..\..\..\arduinoLCD\test\Pain Drain\libraries\lvgl\src\core/lv_disp.c ****             break;
 1121              		.loc 1 294 0
 1122 015c 2046     		mov	r0, r4
 1123 015e FFF7FEFF 		bl	lv_disp_get_hor_res
ARM GAS  C:\Users\haske\AppData\Local\Temp\cct2dzUE.s 			page 40


 1124              	.LVL141:
 1125 0162 4042     		negs	r0, r0
 1126              	.LVL142:
 1127              	.LBB140:
 1128              	.LBB141:
 171:c:\projects\paindrain\arduinolcd\test\pain drain\libraries\lvgl\src\misc\lv_anim.h ****     a->current_value = start;
 1129              		.loc 3 171 0
 1130 0164 1990     		str	r0, [sp, #100]
 172:c:\projects\paindrain\arduinolcd\test\pain drain\libraries\lvgl\src\misc\lv_anim.h ****     a->end_value = end;
 1131              		.loc 3 172 0
 1132 0166 1A90     		str	r0, [sp, #104]
 173:c:\projects\paindrain\arduinolcd\test\pain drain\libraries\lvgl\src\misc\lv_anim.h **** }
 1133              		.loc 3 173 0
 1134 0168 0023     		movs	r3, #0
 1135 016a 1B93     		str	r3, [sp, #108]
 1136 016c 95E0     		b	.L68
 1137              	.LVL143:
 1138              	.L73:
 1139              	.LBE141:
 1140              	.LBE140:
 1141              	.LBB142:
 1142              	.LBB143:
 140:c:\projects\paindrain\arduinolcd\test\pain drain\libraries\lvgl\src\misc\lv_anim.h **** }
 1143              		.loc 3 140 0
 1144 016e 554B     		ldr	r3, .L86+12
 1145 0170 1293     		str	r3, [sp, #72]
 1146              	.LVL144:
 1147              	.LBE143:
 1148              	.LBE142:
 298:..\..\..\arduinoLCD\test\Pain Drain\libraries\lvgl\src\core/lv_disp.c ****             break;
 1149              		.loc 1 298 0
 1150 0172 2046     		mov	r0, r4
 1151 0174 FFF7FEFF 		bl	lv_disp_get_ver_res
 1152              	.LVL145:
 1153              	.LBB144:
 1154              	.LBB145:
 171:c:\projects\paindrain\arduinolcd\test\pain drain\libraries\lvgl\src\misc\lv_anim.h ****     a->current_value = start;
 1155              		.loc 3 171 0
 1156 0178 1990     		str	r0, [sp, #100]
 172:c:\projects\paindrain\arduinolcd\test\pain drain\libraries\lvgl\src\misc\lv_anim.h ****     a->end_value = end;
 1157              		.loc 3 172 0
 1158 017a 1A90     		str	r0, [sp, #104]
 173:c:\projects\paindrain\arduinolcd\test\pain drain\libraries\lvgl\src\misc\lv_anim.h **** }
 1159              		.loc 3 173 0
 1160 017c 0023     		movs	r3, #0
 1161 017e 1B93     		str	r3, [sp, #108]
 1162 0180 8BE0     		b	.L68
 1163              	.LVL146:
 1164              	.L74:
 1165              	.LBE145:
 1166              	.LBE144:
 1167              	.LBB146:
 1168              	.LBB147:
 140:c:\projects\paindrain\arduinolcd\test\pain drain\libraries\lvgl\src\misc\lv_anim.h **** }
 1169              		.loc 3 140 0
 1170 0182 504B     		ldr	r3, .L86+12
 1171 0184 1293     		str	r3, [sp, #72]
ARM GAS  C:\Users\haske\AppData\Local\Temp\cct2dzUE.s 			page 41


 1172              	.LVL147:
 1173              	.LBE147:
 1174              	.LBE146:
 302:..\..\..\arduinoLCD\test\Pain Drain\libraries\lvgl\src\core/lv_disp.c ****             break;
 1175              		.loc 1 302 0
 1176 0186 2046     		mov	r0, r4
 1177 0188 FFF7FEFF 		bl	lv_disp_get_ver_res
 1178              	.LVL148:
 1179 018c 4042     		negs	r0, r0
 1180              	.LVL149:
 1181              	.LBB148:
 1182              	.LBB149:
 171:c:\projects\paindrain\arduinolcd\test\pain drain\libraries\lvgl\src\misc\lv_anim.h ****     a->current_value = start;
 1183              		.loc 3 171 0
 1184 018e 1990     		str	r0, [sp, #100]
 172:c:\projects\paindrain\arduinolcd\test\pain drain\libraries\lvgl\src\misc\lv_anim.h ****     a->end_value = end;
 1185              		.loc 3 172 0
 1186 0190 1A90     		str	r0, [sp, #104]
 173:c:\projects\paindrain\arduinolcd\test\pain drain\libraries\lvgl\src\misc\lv_anim.h **** }
 1187              		.loc 3 173 0
 1188 0192 0023     		movs	r3, #0
 1189 0194 1B93     		str	r3, [sp, #108]
 1190 0196 80E0     		b	.L68
 1191              	.LVL150:
 1192              	.L75:
 1193              	.LBE149:
 1194              	.LBE148:
 1195              	.LBB150:
 1196              	.LBB151:
 140:c:\projects\paindrain\arduinolcd\test\pain drain\libraries\lvgl\src\misc\lv_anim.h **** }
 1197              		.loc 3 140 0
 1198 0198 494E     		ldr	r6, .L86+8
 1199              	.LVL151:
 1200 019a 1296     		str	r6, [sp, #72]
 1201              	.LVL152:
 1202              	.LBE151:
 1203              	.LBE150:
 306:..\..\..\arduinoLCD\test\Pain Drain\libraries\lvgl\src\core/lv_disp.c **** 
 1204              		.loc 1 306 0
 1205 019c 2046     		mov	r0, r4
 1206 019e FFF7FEFF 		bl	lv_disp_get_hor_res
 1207              	.LVL153:
 1208              	.LBB152:
 1209              	.LBB153:
 171:c:\projects\paindrain\arduinolcd\test\pain drain\libraries\lvgl\src\misc\lv_anim.h ****     a->current_value = start;
 1210              		.loc 3 171 0
 1211 01a2 1990     		str	r0, [sp, #100]
 172:c:\projects\paindrain\arduinolcd\test\pain drain\libraries\lvgl\src\misc\lv_anim.h ****     a->end_value = end;
 1212              		.loc 3 172 0
 1213 01a4 1A90     		str	r0, [sp, #104]
 173:c:\projects\paindrain\arduinolcd\test\pain drain\libraries\lvgl\src\misc\lv_anim.h **** }
 1214              		.loc 3 173 0
 1215 01a6 0025     		movs	r5, #0
 1216              	.LVL154:
 1217 01a8 1B95     		str	r5, [sp, #108]
 1218              	.LVL155:
 1219              	.LBE153:
ARM GAS  C:\Users\haske\AppData\Local\Temp\cct2dzUE.s 			page 42


 1220              	.LBE152:
 1221              	.LBB154:
 1222              	.LBB155:
 140:c:\projects\paindrain\arduinolcd\test\pain drain\libraries\lvgl\src\misc\lv_anim.h **** }
 1223              		.loc 3 140 0
 1224 01aa 0196     		str	r6, [sp, #4]
 1225              	.LVL156:
 1226              	.LBE155:
 1227              	.LBE154:
 309:..\..\..\arduinoLCD\test\Pain Drain\libraries\lvgl\src\core/lv_disp.c ****             break;
 1228              		.loc 1 309 0
 1229 01ac 2046     		mov	r0, r4
 1230 01ae FFF7FEFF 		bl	lv_disp_get_hor_res
 1231              	.LVL157:
 1232 01b2 4042     		negs	r0, r0
 1233              	.LVL158:
 1234              	.LBB156:
 1235              	.LBB157:
 171:c:\projects\paindrain\arduinolcd\test\pain drain\libraries\lvgl\src\misc\lv_anim.h ****     a->current_value = start;
 1236              		.loc 3 171 0
 1237 01b4 0895     		str	r5, [sp, #32]
 172:c:\projects\paindrain\arduinolcd\test\pain drain\libraries\lvgl\src\misc\lv_anim.h ****     a->end_value = end;
 1238              		.loc 3 172 0
 1239 01b6 0995     		str	r5, [sp, #36]
 173:c:\projects\paindrain\arduinolcd\test\pain drain\libraries\lvgl\src\misc\lv_anim.h **** }
 1240              		.loc 3 173 0
 1241 01b8 0A90     		str	r0, [sp, #40]
 1242 01ba 6EE0     		b	.L68
 1243              	.LVL159:
 1244              	.L76:
 1245              	.LBE157:
 1246              	.LBE156:
 1247              	.LBB158:
 1248              	.LBB159:
 140:c:\projects\paindrain\arduinolcd\test\pain drain\libraries\lvgl\src\misc\lv_anim.h **** }
 1249              		.loc 3 140 0
 1250 01bc 404E     		ldr	r6, .L86+8
 1251 01be 1296     		str	r6, [sp, #72]
 1252              	.LVL160:
 1253              	.LBE159:
 1254              	.LBE158:
 313:..\..\..\arduinoLCD\test\Pain Drain\libraries\lvgl\src\core/lv_disp.c **** 
 1255              		.loc 1 313 0
 1256 01c0 2046     		mov	r0, r4
 1257 01c2 FFF7FEFF 		bl	lv_disp_get_hor_res
 1258              	.LVL161:
 1259 01c6 4042     		negs	r0, r0
 1260              	.LVL162:
 1261              	.LBB160:
 1262              	.LBB161:
 171:c:\projects\paindrain\arduinolcd\test\pain drain\libraries\lvgl\src\misc\lv_anim.h ****     a->current_value = start;
 1263              		.loc 3 171 0
 1264 01c8 1990     		str	r0, [sp, #100]
 172:c:\projects\paindrain\arduinolcd\test\pain drain\libraries\lvgl\src\misc\lv_anim.h ****     a->end_value = end;
 1265              		.loc 3 172 0
 1266 01ca 1A90     		str	r0, [sp, #104]
 173:c:\projects\paindrain\arduinolcd\test\pain drain\libraries\lvgl\src\misc\lv_anim.h **** }
ARM GAS  C:\Users\haske\AppData\Local\Temp\cct2dzUE.s 			page 43


 1267              		.loc 3 173 0
 1268 01cc 0025     		movs	r5, #0
 1269              	.LVL163:
 1270 01ce 1B95     		str	r5, [sp, #108]
 1271              	.LVL164:
 1272              	.LBE161:
 1273              	.LBE160:
 1274              	.LBB162:
 1275              	.LBB163:
 140:c:\projects\paindrain\arduinolcd\test\pain drain\libraries\lvgl\src\misc\lv_anim.h **** }
 1276              		.loc 3 140 0
 1277 01d0 0196     		str	r6, [sp, #4]
 1278              	.LVL165:
 1279              	.LBE163:
 1280              	.LBE162:
 316:..\..\..\arduinoLCD\test\Pain Drain\libraries\lvgl\src\core/lv_disp.c ****             break;
 1281              		.loc 1 316 0
 1282 01d2 2046     		mov	r0, r4
 1283 01d4 FFF7FEFF 		bl	lv_disp_get_hor_res
 1284              	.LVL166:
 1285              	.LBB164:
 1286              	.LBB165:
 171:c:\projects\paindrain\arduinolcd\test\pain drain\libraries\lvgl\src\misc\lv_anim.h ****     a->current_value = start;
 1287              		.loc 3 171 0
 1288 01d8 0895     		str	r5, [sp, #32]
 172:c:\projects\paindrain\arduinolcd\test\pain drain\libraries\lvgl\src\misc\lv_anim.h ****     a->end_value = end;
 1289              		.loc 3 172 0
 1290 01da 0995     		str	r5, [sp, #36]
 173:c:\projects\paindrain\arduinolcd\test\pain drain\libraries\lvgl\src\misc\lv_anim.h **** }
 1291              		.loc 3 173 0
 1292 01dc 0A90     		str	r0, [sp, #40]
 1293 01de 5CE0     		b	.L68
 1294              	.LVL167:
 1295              	.L77:
 1296              	.LBE165:
 1297              	.LBE164:
 1298              	.LBB166:
 1299              	.LBB167:
 140:c:\projects\paindrain\arduinolcd\test\pain drain\libraries\lvgl\src\misc\lv_anim.h **** }
 1300              		.loc 3 140 0
 1301 01e0 384E     		ldr	r6, .L86+12
 1302 01e2 1296     		str	r6, [sp, #72]
 1303              	.LVL168:
 1304              	.LBE167:
 1305              	.LBE166:
 320:..\..\..\arduinoLCD\test\Pain Drain\libraries\lvgl\src\core/lv_disp.c **** 
 1306              		.loc 1 320 0
 1307 01e4 2046     		mov	r0, r4
 1308 01e6 FFF7FEFF 		bl	lv_disp_get_ver_res
 1309              	.LVL169:
 1310              	.LBB168:
 1311              	.LBB169:
 171:c:\projects\paindrain\arduinolcd\test\pain drain\libraries\lvgl\src\misc\lv_anim.h ****     a->current_value = start;
 1312              		.loc 3 171 0
 1313 01ea 1990     		str	r0, [sp, #100]
 172:c:\projects\paindrain\arduinolcd\test\pain drain\libraries\lvgl\src\misc\lv_anim.h ****     a->end_value = end;
 1314              		.loc 3 172 0
ARM GAS  C:\Users\haske\AppData\Local\Temp\cct2dzUE.s 			page 44


 1315 01ec 1A90     		str	r0, [sp, #104]
 173:c:\projects\paindrain\arduinolcd\test\pain drain\libraries\lvgl\src\misc\lv_anim.h **** }
 1316              		.loc 3 173 0
 1317 01ee 0025     		movs	r5, #0
 1318              	.LVL170:
 1319 01f0 1B95     		str	r5, [sp, #108]
 1320              	.LVL171:
 1321              	.LBE169:
 1322              	.LBE168:
 1323              	.LBB170:
 1324              	.LBB171:
 140:c:\projects\paindrain\arduinolcd\test\pain drain\libraries\lvgl\src\misc\lv_anim.h **** }
 1325              		.loc 3 140 0
 1326 01f2 0196     		str	r6, [sp, #4]
 1327              	.LVL172:
 1328              	.LBE171:
 1329              	.LBE170:
 323:..\..\..\arduinoLCD\test\Pain Drain\libraries\lvgl\src\core/lv_disp.c ****             break;
 1330              		.loc 1 323 0
 1331 01f4 2046     		mov	r0, r4
 1332 01f6 FFF7FEFF 		bl	lv_disp_get_ver_res
 1333              	.LVL173:
 1334 01fa 4042     		negs	r0, r0
 1335              	.LVL174:
 1336              	.LBB172:
 1337              	.LBB173:
 171:c:\projects\paindrain\arduinolcd\test\pain drain\libraries\lvgl\src\misc\lv_anim.h ****     a->current_value = start;
 1338              		.loc 3 171 0
 1339 01fc 0895     		str	r5, [sp, #32]
 172:c:\projects\paindrain\arduinolcd\test\pain drain\libraries\lvgl\src\misc\lv_anim.h ****     a->end_value = end;
 1340              		.loc 3 172 0
 1341 01fe 0995     		str	r5, [sp, #36]
 173:c:\projects\paindrain\arduinolcd\test\pain drain\libraries\lvgl\src\misc\lv_anim.h **** }
 1342              		.loc 3 173 0
 1343 0200 0A90     		str	r0, [sp, #40]
 1344 0202 4AE0     		b	.L68
 1345              	.LVL175:
 1346              	.L78:
 1347              	.LBE173:
 1348              	.LBE172:
 1349              	.LBB174:
 1350              	.LBB175:
 140:c:\projects\paindrain\arduinolcd\test\pain drain\libraries\lvgl\src\misc\lv_anim.h **** }
 1351              		.loc 3 140 0
 1352 0204 2F4E     		ldr	r6, .L86+12
 1353 0206 1296     		str	r6, [sp, #72]
 1354              	.LVL176:
 1355              	.LBE175:
 1356              	.LBE174:
 327:..\..\..\arduinoLCD\test\Pain Drain\libraries\lvgl\src\core/lv_disp.c **** 
 1357              		.loc 1 327 0
 1358 0208 2046     		mov	r0, r4
 1359 020a FFF7FEFF 		bl	lv_disp_get_ver_res
 1360              	.LVL177:
 1361 020e 4042     		negs	r0, r0
 1362              	.LVL178:
 1363              	.LBB176:
ARM GAS  C:\Users\haske\AppData\Local\Temp\cct2dzUE.s 			page 45


 1364              	.LBB177:
 171:c:\projects\paindrain\arduinolcd\test\pain drain\libraries\lvgl\src\misc\lv_anim.h ****     a->current_value = start;
 1365              		.loc 3 171 0
 1366 0210 1990     		str	r0, [sp, #100]
 172:c:\projects\paindrain\arduinolcd\test\pain drain\libraries\lvgl\src\misc\lv_anim.h ****     a->end_value = end;
 1367              		.loc 3 172 0
 1368 0212 1A90     		str	r0, [sp, #104]
 173:c:\projects\paindrain\arduinolcd\test\pain drain\libraries\lvgl\src\misc\lv_anim.h **** }
 1369              		.loc 3 173 0
 1370 0214 0025     		movs	r5, #0
 1371              	.LVL179:
 1372 0216 1B95     		str	r5, [sp, #108]
 1373              	.LVL180:
 1374              	.LBE177:
 1375              	.LBE176:
 1376              	.LBB178:
 1377              	.LBB179:
 140:c:\projects\paindrain\arduinolcd\test\pain drain\libraries\lvgl\src\misc\lv_anim.h **** }
 1378              		.loc 3 140 0
 1379 0218 0196     		str	r6, [sp, #4]
 1380              	.LVL181:
 1381              	.LBE179:
 1382              	.LBE178:
 330:..\..\..\arduinoLCD\test\Pain Drain\libraries\lvgl\src\core/lv_disp.c ****             break;
 1383              		.loc 1 330 0
 1384 021a 2046     		mov	r0, r4
 1385 021c FFF7FEFF 		bl	lv_disp_get_ver_res
 1386              	.LVL182:
 1387              	.LBB180:
 1388              	.LBB181:
 171:c:\projects\paindrain\arduinolcd\test\pain drain\libraries\lvgl\src\misc\lv_anim.h ****     a->current_value = start;
 1389              		.loc 3 171 0
 1390 0220 0895     		str	r5, [sp, #32]
 172:c:\projects\paindrain\arduinolcd\test\pain drain\libraries\lvgl\src\misc\lv_anim.h ****     a->end_value = end;
 1391              		.loc 3 172 0
 1392 0222 0995     		str	r5, [sp, #36]
 173:c:\projects\paindrain\arduinolcd\test\pain drain\libraries\lvgl\src\misc\lv_anim.h **** }
 1393              		.loc 3 173 0
 1394 0224 0A90     		str	r0, [sp, #40]
 1395 0226 38E0     		b	.L68
 1396              	.LVL183:
 1397              	.L79:
 1398              	.LBE181:
 1399              	.LBE180:
 1400              	.LBB182:
 1401              	.LBB183:
 140:c:\projects\paindrain\arduinolcd\test\pain drain\libraries\lvgl\src\misc\lv_anim.h **** }
 1402              		.loc 3 140 0
 1403 0228 274B     		ldr	r3, .L86+16
 1404 022a 1293     		str	r3, [sp, #72]
 1405              	.LVL184:
 1406              	.LBE183:
 1407              	.LBE182:
 1408              	.LBB184:
 1409              	.LBB185:
 171:c:\projects\paindrain\arduinolcd\test\pain drain\libraries\lvgl\src\misc\lv_anim.h ****     a->current_value = start;
 1410              		.loc 3 171 0
ARM GAS  C:\Users\haske\AppData\Local\Temp\cct2dzUE.s 			page 46


 1411 022c 0023     		movs	r3, #0
 1412 022e 1993     		str	r3, [sp, #100]
 172:c:\projects\paindrain\arduinolcd\test\pain drain\libraries\lvgl\src\misc\lv_anim.h ****     a->end_value = end;
 1413              		.loc 3 172 0
 1414 0230 1A93     		str	r3, [sp, #104]
 173:c:\projects\paindrain\arduinolcd\test\pain drain\libraries\lvgl\src\misc\lv_anim.h **** }
 1415              		.loc 3 173 0
 1416 0232 FF23     		movs	r3, #255
 1417 0234 1B93     		str	r3, [sp, #108]
 1418 0236 30E0     		b	.L68
 1419              	.LVL185:
 1420              	.L80:
 1421              	.LBE185:
 1422              	.LBE184:
 1423              	.LBB186:
 1424              	.LBB187:
 140:c:\projects\paindrain\arduinolcd\test\pain drain\libraries\lvgl\src\misc\lv_anim.h **** }
 1425              		.loc 3 140 0
 1426 0238 234B     		ldr	r3, .L86+16
 1427 023a 0193     		str	r3, [sp, #4]
 1428              	.LVL186:
 1429              	.LBE187:
 1430              	.LBE186:
 1431              	.LBB188:
 1432              	.LBB189:
 171:c:\projects\paindrain\arduinolcd\test\pain drain\libraries\lvgl\src\misc\lv_anim.h ****     a->current_value = start;
 1433              		.loc 3 171 0
 1434 023c FF23     		movs	r3, #255
 1435 023e 0893     		str	r3, [sp, #32]
 172:c:\projects\paindrain\arduinolcd\test\pain drain\libraries\lvgl\src\misc\lv_anim.h ****     a->end_value = end;
 1436              		.loc 3 172 0
 1437 0240 0993     		str	r3, [sp, #36]
 173:c:\projects\paindrain\arduinolcd\test\pain drain\libraries\lvgl\src\misc\lv_anim.h **** }
 1438              		.loc 3 173 0
 1439 0242 0023     		movs	r3, #0
 1440 0244 0A93     		str	r3, [sp, #40]
 1441 0246 28E0     		b	.L68
 1442              	.LVL187:
 1443              	.L81:
 1444              	.LBE189:
 1445              	.LBE188:
 1446              	.LBB190:
 1447              	.LBB191:
 140:c:\projects\paindrain\arduinolcd\test\pain drain\libraries\lvgl\src\misc\lv_anim.h **** }
 1448              		.loc 3 140 0
 1449 0248 1D4B     		ldr	r3, .L86+8
 1450 024a 0193     		str	r3, [sp, #4]
 1451              	.LVL188:
 1452              	.LBE191:
 1453              	.LBE190:
 342:..\..\..\arduinoLCD\test\Pain Drain\libraries\lvgl\src\core/lv_disp.c ****             break;
 1454              		.loc 1 342 0
 1455 024c 2046     		mov	r0, r4
 1456 024e FFF7FEFF 		bl	lv_disp_get_hor_res
 1457              	.LVL189:
 1458 0252 4042     		negs	r0, r0
 1459              	.LVL190:
ARM GAS  C:\Users\haske\AppData\Local\Temp\cct2dzUE.s 			page 47


 1460              	.LBB192:
 1461              	.LBB193:
 171:c:\projects\paindrain\arduinolcd\test\pain drain\libraries\lvgl\src\misc\lv_anim.h ****     a->current_value = start;
 1462              		.loc 3 171 0
 1463 0254 0023     		movs	r3, #0
 1464 0256 0893     		str	r3, [sp, #32]
 172:c:\projects\paindrain\arduinolcd\test\pain drain\libraries\lvgl\src\misc\lv_anim.h ****     a->end_value = end;
 1465              		.loc 3 172 0
 1466 0258 0993     		str	r3, [sp, #36]
 173:c:\projects\paindrain\arduinolcd\test\pain drain\libraries\lvgl\src\misc\lv_anim.h **** }
 1467              		.loc 3 173 0
 1468 025a 0A90     		str	r0, [sp, #40]
 1469 025c 1DE0     		b	.L68
 1470              	.LVL191:
 1471              	.L82:
 1472              	.LBE193:
 1473              	.LBE192:
 1474              	.LBB194:
 1475              	.LBB195:
 140:c:\projects\paindrain\arduinolcd\test\pain drain\libraries\lvgl\src\misc\lv_anim.h **** }
 1476              		.loc 3 140 0
 1477 025e 184B     		ldr	r3, .L86+8
 1478 0260 0193     		str	r3, [sp, #4]
 1479              	.LVL192:
 1480              	.LBE195:
 1481              	.LBE194:
 346:..\..\..\arduinoLCD\test\Pain Drain\libraries\lvgl\src\core/lv_disp.c ****             break;
 1482              		.loc 1 346 0
 1483 0262 2046     		mov	r0, r4
 1484 0264 FFF7FEFF 		bl	lv_disp_get_hor_res
 1485              	.LVL193:
 1486              	.LBB196:
 1487              	.LBB197:
 171:c:\projects\paindrain\arduinolcd\test\pain drain\libraries\lvgl\src\misc\lv_anim.h ****     a->current_value = start;
 1488              		.loc 3 171 0
 1489 0268 0023     		movs	r3, #0
 1490 026a 0893     		str	r3, [sp, #32]
 172:c:\projects\paindrain\arduinolcd\test\pain drain\libraries\lvgl\src\misc\lv_anim.h ****     a->end_value = end;
 1491              		.loc 3 172 0
 1492 026c 0993     		str	r3, [sp, #36]
 173:c:\projects\paindrain\arduinolcd\test\pain drain\libraries\lvgl\src\misc\lv_anim.h **** }
 1493              		.loc 3 173 0
 1494 026e 0A90     		str	r0, [sp, #40]
 1495 0270 13E0     		b	.L68
 1496              	.LVL194:
 1497              	.L83:
 1498              	.LBE197:
 1499              	.LBE196:
 1500              	.LBB198:
 1501              	.LBB199:
 140:c:\projects\paindrain\arduinolcd\test\pain drain\libraries\lvgl\src\misc\lv_anim.h **** }
 1502              		.loc 3 140 0
 1503 0272 144B     		ldr	r3, .L86+12
 1504 0274 0193     		str	r3, [sp, #4]
 1505              	.LVL195:
 1506              	.LBE199:
 1507              	.LBE198:
ARM GAS  C:\Users\haske\AppData\Local\Temp\cct2dzUE.s 			page 48


 350:..\..\..\arduinoLCD\test\Pain Drain\libraries\lvgl\src\core/lv_disp.c ****             break;
 1508              		.loc 1 350 0
 1509 0276 2046     		mov	r0, r4
 1510 0278 FFF7FEFF 		bl	lv_disp_get_ver_res
 1511              	.LVL196:
 1512 027c 4042     		negs	r0, r0
 1513              	.LVL197:
 1514              	.LBB200:
 1515              	.LBB201:
 171:c:\projects\paindrain\arduinolcd\test\pain drain\libraries\lvgl\src\misc\lv_anim.h ****     a->current_value = start;
 1516              		.loc 3 171 0
 1517 027e 0023     		movs	r3, #0
 1518 0280 0893     		str	r3, [sp, #32]
 172:c:\projects\paindrain\arduinolcd\test\pain drain\libraries\lvgl\src\misc\lv_anim.h ****     a->end_value = end;
 1519              		.loc 3 172 0
 1520 0282 0993     		str	r3, [sp, #36]
 173:c:\projects\paindrain\arduinolcd\test\pain drain\libraries\lvgl\src\misc\lv_anim.h **** }
 1521              		.loc 3 173 0
 1522 0284 0A90     		str	r0, [sp, #40]
 1523 0286 08E0     		b	.L68
 1524              	.LVL198:
 1525              	.L84:
 1526              	.LBE201:
 1527              	.LBE200:
 1528              	.LBB202:
 1529              	.LBB203:
 140:c:\projects\paindrain\arduinolcd\test\pain drain\libraries\lvgl\src\misc\lv_anim.h **** }
 1530              		.loc 3 140 0
 1531 0288 0E4B     		ldr	r3, .L86+12
 1532 028a 0193     		str	r3, [sp, #4]
 1533              	.LVL199:
 1534              	.LBE203:
 1535              	.LBE202:
 354:..\..\..\arduinoLCD\test\Pain Drain\libraries\lvgl\src\core/lv_disp.c ****             break;
 1536              		.loc 1 354 0
 1537 028c 2046     		mov	r0, r4
 1538 028e FFF7FEFF 		bl	lv_disp_get_ver_res
 1539              	.LVL200:
 1540              	.LBB204:
 1541              	.LBB205:
 171:c:\projects\paindrain\arduinolcd\test\pain drain\libraries\lvgl\src\misc\lv_anim.h ****     a->current_value = start;
 1542              		.loc 3 171 0
 1543 0292 0023     		movs	r3, #0
 1544 0294 0893     		str	r3, [sp, #32]
 172:c:\projects\paindrain\arduinolcd\test\pain drain\libraries\lvgl\src\misc\lv_anim.h ****     a->end_value = end;
 1545              		.loc 3 172 0
 1546 0296 0993     		str	r3, [sp, #36]
 173:c:\projects\paindrain\arduinolcd\test\pain drain\libraries\lvgl\src\misc\lv_anim.h **** }
 1547              		.loc 3 173 0
 1548 0298 0A90     		str	r0, [sp, #40]
 1549              	.LVL201:
 1550              	.L68:
 1551              	.LBE205:
 1552              	.LBE204:
 358:..\..\..\arduinoLCD\test\Pain Drain\libraries\lvgl\src\core/lv_disp.c **** 
 1553              		.loc 1 358 0
 1554 029a 0022     		movs	r2, #0
ARM GAS  C:\Users\haske\AppData\Local\Temp\cct2dzUE.s 			page 49


 1555 029c 2521     		movs	r1, #37
 1556 029e 4846     		mov	r0, r9
 1557 02a0 FFF7FEFF 		bl	lv_event_send
 1558              	.LVL202:
 360:..\..\..\arduinoLCD\test\Pain Drain\libraries\lvgl\src\core/lv_disp.c ****     lv_anim_start(&a_old);
 1559              		.loc 1 360 0
 1560 02a4 11A8     		add	r0, sp, #68
 1561 02a6 FFF7FEFF 		bl	lv_anim_start
 1562              	.LVL203:
 361:..\..\..\arduinoLCD\test\Pain Drain\libraries\lvgl\src\core/lv_disp.c **** }
 1563              		.loc 1 361 0
 1564 02aa 6846     		mov	r0, sp
 1565 02ac FFF7FEFF 		bl	lv_anim_start
 1566              	.LVL204:
 1567              	.L62:
 362:..\..\..\arduinoLCD\test\Pain Drain\libraries\lvgl\src\core/lv_disp.c **** 
 1568              		.loc 1 362 0
 1569 02b0 23B0     		add	sp, sp, #140
 1570              		.cfi_def_cfa_offset 28
 1571              		@ sp needed
 1572 02b2 BDE8F083 		pop	{r4, r5, r6, r7, r8, r9, pc}
 1573              	.LVL205:
 1574              	.L87:
 1575 02b6 00BF     		.align	2
 1576              	.L86:
 1577 02b8 00000000 		.word	scr_load_anim_start
 1578 02bc 00000000 		.word	scr_anim_ready
 1579 02c0 00000000 		.word	set_x_anim
 1580 02c4 00000000 		.word	set_y_anim
 1581 02c8 00000000 		.word	opa_scale_anim
 1582              		.cfi_endproc
 1583              	.LFE175:
 1584              		.size	lv_scr_load_anim, .-lv_scr_load_anim
 1585              		.section	.text.lv_disp_load_scr,"ax",%progbits
 1586              		.align	2
 1587              		.global	lv_disp_load_scr
 1588              		.thumb
 1589              		.thumb_func
 1590              		.type	lv_disp_load_scr, %function
 1591              	lv_disp_load_scr:
 1592              	.LFB167:
  83:..\..\..\arduinoLCD\test\Pain Drain\libraries\lvgl\src\core/lv_disp.c ****     lv_scr_load_anim(scr, LV_SCR_LOAD_ANIM_NONE, 0, 0, false);
 1593              		.loc 1 83 0
 1594              		.cfi_startproc
 1595              		@ args = 0, pretend = 0, frame = 0
 1596              		@ frame_needed = 0, uses_anonymous_args = 0
 1597              	.LVL206:
 1598 0000 00B5     		push	{lr}
 1599              		.cfi_def_cfa_offset 4
 1600              		.cfi_offset 14, -4
 1601 0002 83B0     		sub	sp, sp, #12
 1602              		.cfi_def_cfa_offset 16
  84:..\..\..\arduinoLCD\test\Pain Drain\libraries\lvgl\src\core/lv_disp.c **** }
 1603              		.loc 1 84 0
 1604 0004 0021     		movs	r1, #0
 1605 0006 0091     		str	r1, [sp]
 1606 0008 0B46     		mov	r3, r1
ARM GAS  C:\Users\haske\AppData\Local\Temp\cct2dzUE.s 			page 50


 1607 000a 0A46     		mov	r2, r1
 1608 000c FFF7FEFF 		bl	lv_scr_load_anim
 1609              	.LVL207:
  85:..\..\..\arduinoLCD\test\Pain Drain\libraries\lvgl\src\core/lv_disp.c **** 
 1610              		.loc 1 85 0
 1611 0010 03B0     		add	sp, sp, #12
 1612              		.cfi_def_cfa_offset 4
 1613              		@ sp needed
 1614 0012 5DF804FB 		ldr	pc, [sp], #4
 1615              		.cfi_endproc
 1616              	.LFE167:
 1617              		.size	lv_disp_load_scr, .-lv_disp_load_scr
 1618 0016 00BF     		.section	.text.lv_disp_get_inactive_time,"ax",%progbits
 1619              		.align	2
 1620              		.global	lv_disp_get_inactive_time
 1621              		.thumb
 1622              		.thumb_func
 1623              		.type	lv_disp_get_inactive_time, %function
 1624              	lv_disp_get_inactive_time:
 1625              	.LFB176:
 370:..\..\..\arduinoLCD\test\Pain Drain\libraries\lvgl\src\core/lv_disp.c ****     if(disp) return lv_tick_elaps(disp->last_activity_time);
 1626              		.loc 1 370 0
 1627              		.cfi_startproc
 1628              		@ args = 0, pretend = 0, frame = 0
 1629              		@ frame_needed = 0, uses_anonymous_args = 0
 1630              	.LVL208:
 1631 0000 38B5     		push	{r3, r4, r5, lr}
 1632              		.cfi_def_cfa_offset 16
 1633              		.cfi_offset 3, -16
 1634              		.cfi_offset 4, -12
 1635              		.cfi_offset 5, -8
 1636              		.cfi_offset 14, -4
 371:..\..\..\arduinoLCD\test\Pain Drain\libraries\lvgl\src\core/lv_disp.c **** 
 1637              		.loc 1 371 0
 1638 0002 20B1     		cbz	r0, .L91
 371:..\..\..\arduinoLCD\test\Pain Drain\libraries\lvgl\src\core/lv_disp.c **** 
 1639              		.loc 1 371 0 is_stmt 0 discriminator 1
 1640 0004 D0F85801 		ldr	r0, [r0, #344]
 1641              	.LVL209:
 1642 0008 FFF7FEFF 		bl	lv_tick_elaps
 1643              	.LVL210:
 1644 000c 38BD     		pop	{r3, r4, r5, pc}
 1645              	.LVL211:
 1646              	.L91:
 375:..\..\..\arduinoLCD\test\Pain Drain\libraries\lvgl\src\core/lv_disp.c ****     while(d) {
 1647              		.loc 1 375 0 is_stmt 1
 1648 000e 0020     		movs	r0, #0
 1649              	.LVL212:
 1650 0010 FFF7FEFF 		bl	lv_disp_get_next
 1651              	.LVL213:
 1652 0014 0446     		mov	r4, r0
 1653              	.LVL214:
 374:..\..\..\arduinoLCD\test\Pain Drain\libraries\lvgl\src\core/lv_disp.c ****     d          = lv_disp_get_next(NULL);
 1654              		.loc 1 374 0
 1655 0016 4FF0FF35 		mov	r5, #-1
 376:..\..\..\arduinoLCD\test\Pain Drain\libraries\lvgl\src\core/lv_disp.c ****         uint32_t elaps = lv_tick_elaps(d->last_activity_time);
 1656              		.loc 1 376 0
ARM GAS  C:\Users\haske\AppData\Local\Temp\cct2dzUE.s 			page 51


 1657 001a 0AE0     		b	.L93
 1658              	.LVL215:
 1659              	.L94:
 1660              	.LBB206:
 377:..\..\..\arduinoLCD\test\Pain Drain\libraries\lvgl\src\core/lv_disp.c ****         t = LV_MIN(t, elaps);
 1661              		.loc 1 377 0
 1662 001c D4F85801 		ldr	r0, [r4, #344]
 1663              	.LVL216:
 1664 0020 FFF7FEFF 		bl	lv_tick_elaps
 1665              	.LVL217:
 378:..\..\..\arduinoLCD\test\Pain Drain\libraries\lvgl\src\core/lv_disp.c ****         d = lv_disp_get_next(d);
 1666              		.loc 1 378 0
 1667 0024 8542     		cmp	r5, r0
 1668 0026 28BF     		it	cs
 1669 0028 0546     		movcs	r5, r0
 1670              	.LVL218:
 379:..\..\..\arduinoLCD\test\Pain Drain\libraries\lvgl\src\core/lv_disp.c ****     }
 1671              		.loc 1 379 0
 1672 002a 2046     		mov	r0, r4
 1673              	.LVL219:
 1674 002c FFF7FEFF 		bl	lv_disp_get_next
 1675              	.LVL220:
 1676 0030 0446     		mov	r4, r0
 1677              	.LVL221:
 1678              	.L93:
 1679              	.LBE206:
 376:..\..\..\arduinoLCD\test\Pain Drain\libraries\lvgl\src\core/lv_disp.c ****         uint32_t elaps = lv_tick_elaps(d->last_activity_time);
 1680              		.loc 1 376 0
 1681 0032 002C     		cmp	r4, #0
 1682 0034 F2D1     		bne	.L94
 382:..\..\..\arduinoLCD\test\Pain Drain\libraries\lvgl\src\core/lv_disp.c **** }
 1683              		.loc 1 382 0
 1684 0036 2846     		mov	r0, r5
 1685              	.LVL222:
 383:..\..\..\arduinoLCD\test\Pain Drain\libraries\lvgl\src\core/lv_disp.c **** 
 1686              		.loc 1 383 0
 1687 0038 38BD     		pop	{r3, r4, r5, pc}
 1688              		.cfi_endproc
 1689              	.LFE176:
 1690              		.size	lv_disp_get_inactive_time, .-lv_disp_get_inactive_time
 1691 003a 00BF     		.section	.text.lv_disp_trig_activity,"ax",%progbits
 1692              		.align	2
 1693              		.global	lv_disp_trig_activity
 1694              		.thumb
 1695              		.thumb_func
 1696              		.type	lv_disp_trig_activity, %function
 1697              	lv_disp_trig_activity:
 1698              	.LFB177:
 390:..\..\..\arduinoLCD\test\Pain Drain\libraries\lvgl\src\core/lv_disp.c ****     if(!disp) disp = lv_disp_get_default();
 1699              		.loc 1 390 0
 1700              		.cfi_startproc
 1701              		@ args = 0, pretend = 0, frame = 0
 1702              		@ frame_needed = 0, uses_anonymous_args = 0
 1703              	.LVL223:
 1704 0000 10B5     		push	{r4, lr}
 1705              		.cfi_def_cfa_offset 8
 1706              		.cfi_offset 4, -8
ARM GAS  C:\Users\haske\AppData\Local\Temp\cct2dzUE.s 			page 52


 1707              		.cfi_offset 14, -4
 391:..\..\..\arduinoLCD\test\Pain Drain\libraries\lvgl\src\core/lv_disp.c ****     if(!disp) {
 1708              		.loc 1 391 0
 1709 0002 0446     		mov	r4, r0
 1710 0004 10B9     		cbnz	r0, .L97
 391:..\..\..\arduinoLCD\test\Pain Drain\libraries\lvgl\src\core/lv_disp.c ****     if(!disp) {
 1711              		.loc 1 391 0 is_stmt 0 discriminator 1
 1712 0006 FFF7FEFF 		bl	lv_disp_get_default
 1713              	.LVL224:
 1714 000a 0446     		mov	r4, r0
 1715              	.LVL225:
 1716              	.L97:
 392:..\..\..\arduinoLCD\test\Pain Drain\libraries\lvgl\src\core/lv_disp.c ****         LV_LOG_WARN("lv_disp_trig_activity: no display registered");
 1717              		.loc 1 392 0 is_stmt 1
 1718 000c 1CB1     		cbz	r4, .L96
 397:..\..\..\arduinoLCD\test\Pain Drain\libraries\lvgl\src\core/lv_disp.c **** }
 1719              		.loc 1 397 0
 1720 000e FFF7FEFF 		bl	lv_tick_get
 1721              	.LVL226:
 1722 0012 C4F85801 		str	r0, [r4, #344]
 1723              	.L96:
 1724 0016 10BD     		pop	{r4, pc}
 1725              		.cfi_endproc
 1726              	.LFE177:
 1727              		.size	lv_disp_trig_activity, .-lv_disp_trig_activity
 1728              		.section	.text.lv_disp_clean_dcache,"ax",%progbits
 1729              		.align	2
 1730              		.global	lv_disp_clean_dcache
 1731              		.thumb
 1732              		.thumb_func
 1733              		.type	lv_disp_clean_dcache, %function
 1734              	lv_disp_clean_dcache:
 1735              	.LFB178:
 405:..\..\..\arduinoLCD\test\Pain Drain\libraries\lvgl\src\core/lv_disp.c ****     if(!disp) disp = lv_disp_get_default();
 1736              		.loc 1 405 0
 1737              		.cfi_startproc
 1738              		@ args = 0, pretend = 0, frame = 0
 1739              		@ frame_needed = 0, uses_anonymous_args = 0
 1740              	.LVL227:
 1741 0000 08B5     		push	{r3, lr}
 1742              		.cfi_def_cfa_offset 8
 1743              		.cfi_offset 3, -8
 1744              		.cfi_offset 14, -4
 406:..\..\..\arduinoLCD\test\Pain Drain\libraries\lvgl\src\core/lv_disp.c ****     if(!disp) {
 1745              		.loc 1 406 0
 1746 0002 0346     		mov	r3, r0
 1747 0004 10B9     		cbnz	r0, .L101
 406:..\..\..\arduinoLCD\test\Pain Drain\libraries\lvgl\src\core/lv_disp.c ****     if(!disp) {
 1748              		.loc 1 406 0 is_stmt 0 discriminator 1
 1749 0006 FFF7FEFF 		bl	lv_disp_get_default
 1750              	.LVL228:
 1751 000a 0346     		mov	r3, r0
 1752              	.LVL229:
 1753              	.L101:
 407:..\..\..\arduinoLCD\test\Pain Drain\libraries\lvgl\src\core/lv_disp.c ****         LV_LOG_WARN("lv_disp_clean_dcache: no display registered");
 1754              		.loc 1 407 0 is_stmt 1
 1755 000c 1BB1     		cbz	r3, .L100
ARM GAS  C:\Users\haske\AppData\Local\Temp\cct2dzUE.s 			page 53


 412:..\..\..\arduinoLCD\test\Pain Drain\libraries\lvgl\src\core/lv_disp.c ****         disp->driver->clean_dcache_cb(disp->driver);
 1756              		.loc 1 412 0
 1757 000e 1868     		ldr	r0, [r3]
 1758              	.LVL230:
 1759 0010 C36A     		ldr	r3, [r0, #44]
 1760              	.LVL231:
 1761 0012 03B1     		cbz	r3, .L100
 413:..\..\..\arduinoLCD\test\Pain Drain\libraries\lvgl\src\core/lv_disp.c **** }
 1762              		.loc 1 413 0
 1763 0014 9847     		blx	r3
 1764              	.LVL232:
 1765              	.L100:
 1766 0016 08BD     		pop	{r3, pc}
 1767              		.cfi_endproc
 1768              	.LFE178:
 1769              		.size	lv_disp_clean_dcache, .-lv_disp_clean_dcache
 1770              		.section	.text.lv_disp_enable_invalidation,"ax",%progbits
 1771              		.align	2
 1772              		.global	lv_disp_enable_invalidation
 1773              		.thumb
 1774              		.thumb_func
 1775              		.type	lv_disp_enable_invalidation, %function
 1776              	lv_disp_enable_invalidation:
 1777              	.LFB179:
 422:..\..\..\arduinoLCD\test\Pain Drain\libraries\lvgl\src\core/lv_disp.c ****     if(!disp) disp = lv_disp_get_default();
 1778              		.loc 1 422 0
 1779              		.cfi_startproc
 1780              		@ args = 0, pretend = 0, frame = 0
 1781              		@ frame_needed = 0, uses_anonymous_args = 0
 1782              	.LVL233:
 1783 0000 10B5     		push	{r4, lr}
 1784              		.cfi_def_cfa_offset 8
 1785              		.cfi_offset 4, -8
 1786              		.cfi_offset 14, -4
 1787 0002 0C46     		mov	r4, r1
 423:..\..\..\arduinoLCD\test\Pain Drain\libraries\lvgl\src\core/lv_disp.c ****     if(!disp) {
 1788              		.loc 1 423 0
 1789 0004 0346     		mov	r3, r0
 1790 0006 10B9     		cbnz	r0, .L105
 423:..\..\..\arduinoLCD\test\Pain Drain\libraries\lvgl\src\core/lv_disp.c ****     if(!disp) {
 1791              		.loc 1 423 0 is_stmt 0 discriminator 1
 1792 0008 FFF7FEFF 		bl	lv_disp_get_default
 1793              	.LVL234:
 1794 000c 0346     		mov	r3, r0
 1795              	.LVL235:
 1796              	.L105:
 424:..\..\..\arduinoLCD\test\Pain Drain\libraries\lvgl\src\core/lv_disp.c ****         LV_LOG_WARN("no display registered");
 1797              		.loc 1 424 0 is_stmt 1
 1798 000e 4BB1     		cbz	r3, .L104
 429:..\..\..\arduinoLCD\test\Pain Drain\libraries\lvgl\src\core/lv_disp.c **** }
 1799              		.loc 1 429 0
 1800 0010 D3F85421 		ldr	r2, [r3, #340]
 1801 0014 0CB1     		cbz	r4, .L108
 1802 0016 0121     		movs	r1, #1
 1803 0018 01E0     		b	.L107
 1804              	.L108:
 1805 001a 4FF0FF31 		mov	r1, #-1
ARM GAS  C:\Users\haske\AppData\Local\Temp\cct2dzUE.s 			page 54


 1806              	.L107:
 429:..\..\..\arduinoLCD\test\Pain Drain\libraries\lvgl\src\core/lv_disp.c **** }
 1807              		.loc 1 429 0 is_stmt 0 discriminator 4
 1808 001e 0A44     		add	r2, r2, r1
 1809 0020 C3F85421 		str	r2, [r3, #340]
 1810              	.L104:
 1811 0024 10BD     		pop	{r4, pc}
 1812              		.cfi_endproc
 1813              	.LFE179:
 1814              		.size	lv_disp_enable_invalidation, .-lv_disp_enable_invalidation
 1815 0026 00BF     		.section	.text.lv_disp_is_invalidation_enabled,"ax",%progbits
 1816              		.align	2
 1817              		.global	lv_disp_is_invalidation_enabled
 1818              		.thumb
 1819              		.thumb_func
 1820              		.type	lv_disp_is_invalidation_enabled, %function
 1821              	lv_disp_is_invalidation_enabled:
 1822              	.LFB180:
 438:..\..\..\arduinoLCD\test\Pain Drain\libraries\lvgl\src\core/lv_disp.c ****     if(!disp) disp = lv_disp_get_default();
 1823              		.loc 1 438 0 is_stmt 1
 1824              		.cfi_startproc
 1825              		@ args = 0, pretend = 0, frame = 0
 1826              		@ frame_needed = 0, uses_anonymous_args = 0
 1827              	.LVL236:
 1828 0000 08B5     		push	{r3, lr}
 1829              		.cfi_def_cfa_offset 8
 1830              		.cfi_offset 3, -8
 1831              		.cfi_offset 14, -4
 439:..\..\..\arduinoLCD\test\Pain Drain\libraries\lvgl\src\core/lv_disp.c ****     if(!disp) {
 1832              		.loc 1 439 0
 1833 0002 0346     		mov	r3, r0
 1834 0004 10B9     		cbnz	r0, .L111
 439:..\..\..\arduinoLCD\test\Pain Drain\libraries\lvgl\src\core/lv_disp.c ****     if(!disp) {
 1835              		.loc 1 439 0 is_stmt 0 discriminator 1
 1836 0006 FFF7FEFF 		bl	lv_disp_get_default
 1837              	.LVL237:
 1838 000a 0346     		mov	r3, r0
 1839              	.LVL238:
 1840              	.L111:
 440:..\..\..\arduinoLCD\test\Pain Drain\libraries\lvgl\src\core/lv_disp.c ****         LV_LOG_WARN("no display registered");
 1841              		.loc 1 440 0 is_stmt 1
 1842 000c 33B1     		cbz	r3, .L113
 445:..\..\..\arduinoLCD\test\Pain Drain\libraries\lvgl\src\core/lv_disp.c **** }
 1843              		.loc 1 445 0
 1844 000e D3F85401 		ldr	r0, [r3, #340]
 1845              	.LVL239:
 1846 0012 0028     		cmp	r0, #0
 1847 0014 D4BF     		ite	le
 1848 0016 0020     		movle	r0, #0
 1849 0018 0120     		movgt	r0, #1
 1850 001a 08BD     		pop	{r3, pc}
 1851              	.LVL240:
 1852              	.L113:
 442:..\..\..\arduinoLCD\test\Pain Drain\libraries\lvgl\src\core/lv_disp.c ****     }
 1853              		.loc 1 442 0
 1854 001c 0020     		movs	r0, #0
 1855              	.LVL241:
ARM GAS  C:\Users\haske\AppData\Local\Temp\cct2dzUE.s 			page 55


 446:..\..\..\arduinoLCD\test\Pain Drain\libraries\lvgl\src\core/lv_disp.c **** 
 1856              		.loc 1 446 0
 1857 001e 08BD     		pop	{r3, pc}
 1858              		.cfi_endproc
 1859              	.LFE180:
 1860              		.size	lv_disp_is_invalidation_enabled, .-lv_disp_is_invalidation_enabled
 1861              		.section	.text._lv_disp_get_refr_timer,"ax",%progbits
 1862              		.align	2
 1863              		.global	_lv_disp_get_refr_timer
 1864              		.thumb
 1865              		.thumb_func
 1866              		.type	_lv_disp_get_refr_timer, %function
 1867              	_lv_disp_get_refr_timer:
 1868              	.LFB181:
 455:..\..\..\arduinoLCD\test\Pain Drain\libraries\lvgl\src\core/lv_disp.c ****     if(!disp) disp = lv_disp_get_default();
 1869              		.loc 1 455 0
 1870              		.cfi_startproc
 1871              		@ args = 0, pretend = 0, frame = 0
 1872              		@ frame_needed = 0, uses_anonymous_args = 0
 1873              	.LVL242:
 1874 0000 08B5     		push	{r3, lr}
 1875              		.cfi_def_cfa_offset 8
 1876              		.cfi_offset 3, -8
 1877              		.cfi_offset 14, -4
 456:..\..\..\arduinoLCD\test\Pain Drain\libraries\lvgl\src\core/lv_disp.c ****     if(!disp) {
 1878              		.loc 1 456 0
 1879 0002 0346     		mov	r3, r0
 1880 0004 10B9     		cbnz	r0, .L116
 456:..\..\..\arduinoLCD\test\Pain Drain\libraries\lvgl\src\core/lv_disp.c ****     if(!disp) {
 1881              		.loc 1 456 0 is_stmt 0 discriminator 1
 1882 0006 FFF7FEFF 		bl	lv_disp_get_default
 1883              	.LVL243:
 1884 000a 0346     		mov	r3, r0
 1885              	.LVL244:
 1886              	.L116:
 457:..\..\..\arduinoLCD\test\Pain Drain\libraries\lvgl\src\core/lv_disp.c ****         LV_LOG_WARN("lv_disp_get_refr_timer: no display registered");
 1887              		.loc 1 457 0 is_stmt 1
 1888 000c 0BB1     		cbz	r3, .L118
 462:..\..\..\arduinoLCD\test\Pain Drain\libraries\lvgl\src\core/lv_disp.c **** }
 1889              		.loc 1 462 0
 1890 000e 5868     		ldr	r0, [r3, #4]
 1891              	.LVL245:
 1892 0010 08BD     		pop	{r3, pc}
 1893              	.LVL246:
 1894              	.L118:
 459:..\..\..\arduinoLCD\test\Pain Drain\libraries\lvgl\src\core/lv_disp.c ****     }
 1895              		.loc 1 459 0
 1896 0012 0020     		movs	r0, #0
 1897              	.LVL247:
 463:..\..\..\arduinoLCD\test\Pain Drain\libraries\lvgl\src\core/lv_disp.c **** 
 1898              		.loc 1 463 0
 1899 0014 08BD     		pop	{r3, pc}
 1900              		.cfi_endproc
 1901              	.LFE181:
 1902              		.size	_lv_disp_get_refr_timer, .-_lv_disp_get_refr_timer
 1903 0016 00BF     		.text
 1904              	.Letext0:
ARM GAS  C:\Users\haske\AppData\Local\Temp\cct2dzUE.s 			page 56


 1905              		.file 4 "c:\\program files (x86)\\cypress\\psoc creator\\4.4\\psoc creator\\import\\gnu\\arm\\5.4.
 1906              		.file 5 "c:\\program files (x86)\\cypress\\psoc creator\\4.4\\psoc creator\\import\\gnu\\arm\\5.4.
 1907              		.file 6 "c:\\program files (x86)\\cypress\\psoc creator\\4.4\\psoc creator\\import\\gnu\\arm\\5.4.
 1908              		.file 7 "c:\\projects\\paindrain\\arduinolcd\\test\\pain drain\\libraries\\lvgl\\src\\misc\\lv_are
 1909              		.file 8 "c:\\projects\\paindrain\\arduinolcd\\test\\pain drain\\libraries\\lvgl\\src\\font\\lv_fon
 1910              		.file 9 "c:\\projects\\paindrain\\arduinolcd\\test\\pain drain\\libraries\\lvgl\\src\\misc\\lv_typ
 1911              		.file 10 "c:\\projects\\paindrain\\arduinolcd\\test\\pain drain\\libraries\\lvgl\\src\\misc\\lv_co
 1912              		.file 11 "c:\\projects\\paindrain\\arduinolcd\\test\\pain drain\\libraries\\lvgl\\src\\misc\\lv_tx
 1913              		.file 12 "c:\\projects\\paindrain\\arduinolcd\\test\\pain drain\\libraries\\lvgl\\src\\misc\\lv_bi
 1914              		.file 13 "c:\\projects\\paindrain\\arduinolcd\\test\\pain drain\\libraries\\lvgl\\src\\misc\\lv_st
 1915              		.file 14 "c:\\projects\\paindrain\\arduinolcd\\test\\pain drain\\libraries\\lvgl\\src\\draw\\lv_im
 1916              		.file 15 "..\\..\\..\\arduinoLCD\\test\\Pain Drain\\libraries\\lvgl\\src\\core\\lv_obj.h"
 1917              		.file 16 "c:\\projects\\paindrain\\arduinolcd\\test\\pain drain\\libraries\\lvgl\\src\\draw\\lv_dr
 1918              		.file 17 "c:\\projects\\paindrain\\arduinolcd\\test\\pain drain\\libraries\\lvgl\\src\\draw\\lv_dr
 1919              		.file 18 "c:\\projects\\paindrain\\arduinolcd\\test\\pain drain\\libraries\\lvgl\\src\\draw\\lv_dr
 1920              		.file 19 "c:\\projects\\paindrain\\arduinolcd\\test\\pain drain\\libraries\\lvgl\\src\\draw\\lv_dr
 1921              		.file 20 "c:\\projects\\paindrain\\arduinolcd\\test\\pain drain\\libraries\\lvgl\\src\\draw\\lv_dr
 1922              		.file 21 "c:\\projects\\paindrain\\arduinolcd\\test\\pain drain\\libraries\\lvgl\\src\\draw\\lv_dr
 1923              		.file 22 "c:\\projects\\paindrain\\arduinolcd\\test\\pain drain\\libraries\\lvgl\\src\\draw\\lv_dr
 1924              		.file 23 "c:\\projects\\paindrain\\arduinolcd\\test\\pain drain\\libraries\\lvgl\\src\\misc\\lv_ll
 1925              		.file 24 "c:\\projects\\paindrain\\arduinolcd\\test\\pain drain\\libraries\\lvgl\\src\\misc\\lv_ti
 1926              		.file 25 "..\\..\\..\\arduinoLCD\\test\\Pain Drain\\libraries\\lvgl\\src\\core\\../hal/lv_hal_disp
 1927              		.file 26 "..\\..\\..\\arduinoLCD\\test\\Pain Drain\\libraries\\lvgl\\src\\core\\lv_theme.h"
 1928              		.file 27 "..\\..\\..\\arduinoLCD\\test\\Pain Drain\\libraries\\lvgl\\src\\core\\lv_group.h"
 1929              		.file 28 "..\\..\\..\\arduinoLCD\\test\\Pain Drain\\libraries\\lvgl\\src\\core\\lv_obj_scroll.h"
 1930              		.file 29 "..\\..\\..\\arduinoLCD\\test\\Pain Drain\\libraries\\lvgl\\src\\core\\lv_obj_style.h"
 1931              		.file 30 "..\\..\\..\\arduinoLCD\\test\\Pain Drain\\libraries\\lvgl\\src\\core\\lv_obj_class.h"
 1932              		.file 31 "..\\..\\..\\arduinoLCD\\test\\Pain Drain\\libraries\\lvgl\\src\\core\\lv_event.h"
 1933              		.file 32 "..\\..\\..\\arduinoLCD\\test\\Pain Drain\\libraries\\lvgl\\src\\core\\lv_obj_style_gen.h
 1934              		.file 33 "c:\\projects\\paindrain\\arduinolcd\\test\\pain drain\\libraries\\lvgl\\src\\core\\lv_ob
 1935              		.file 34 "..\\..\\..\\arduinoLCD\\test\\Pain Drain\\libraries\\lvgl\\src\\core\\lv_obj_tree.h"
 1936              		.file 35 "..\\..\\..\\arduinoLCD\\test\\Pain Drain\\libraries\\lvgl\\src\\core\\../core/lv_refr.h"
 1937              		.file 36 "c:\\projects\\paindrain\\arduinolcd\\test\\pain drain\\libraries\\lvgl\\src\\hal\\lv_hal