ARM GAS  C:\Users\haske\AppData\Local\Temp\cc0Ajg5z.s 			page 1


   1              		.syntax unified
   2              		.cpu cortex-m4
   3              		.eabi_attribute 27, 1
   4              		.fpu fpv4-sp-d16
   5              		.eabi_attribute 20, 1
   6              		.eabi_attribute 21, 1
   7              		.eabi_attribute 23, 3
   8              		.eabi_attribute 24, 1
   9              		.eabi_attribute 25, 1
  10              		.eabi_attribute 26, 1
  11              		.eabi_attribute 30, 1
  12              		.eabi_attribute 34, 1
  13              		.eabi_attribute 18, 4
  14              		.thumb
  15              		.syntax unified
  16              		.file	"lv_draw_layer.c"
  17              		.text
  18              	.Ltext0:
  19              		.cfi_sections	.debug_frame
  20              		.section	.text.lv_draw_layer_create,"ax",%progbits
  21              		.align	2
  22              		.global	lv_draw_layer_create
  23              		.thumb
  24              		.thumb_func
  25              		.type	lv_draw_layer_create, %function
  26              	lv_draw_layer_create:
  27              	.LFB159:
  28              		.file 1 "..\\..\\..\\arduinoLCD\\test\\Pain Drain\\libraries\\lvgl\\src\\draw\\lv_draw_layer.c"
   1:..\..\..\arduinoLCD\test\Pain Drain\libraries\lvgl\src\draw/lv_draw_layer.c **** /**
   2:..\..\..\arduinoLCD\test\Pain Drain\libraries\lvgl\src\draw/lv_draw_layer.c ****  * @file lv_draw_layer.c
   3:..\..\..\arduinoLCD\test\Pain Drain\libraries\lvgl\src\draw/lv_draw_layer.c ****  *
   4:..\..\..\arduinoLCD\test\Pain Drain\libraries\lvgl\src\draw/lv_draw_layer.c ****  */
   5:..\..\..\arduinoLCD\test\Pain Drain\libraries\lvgl\src\draw/lv_draw_layer.c **** 
   6:..\..\..\arduinoLCD\test\Pain Drain\libraries\lvgl\src\draw/lv_draw_layer.c **** /*********************
   7:..\..\..\arduinoLCD\test\Pain Drain\libraries\lvgl\src\draw/lv_draw_layer.c ****  *      INCLUDES
   8:..\..\..\arduinoLCD\test\Pain Drain\libraries\lvgl\src\draw/lv_draw_layer.c ****  *********************/
   9:..\..\..\arduinoLCD\test\Pain Drain\libraries\lvgl\src\draw/lv_draw_layer.c **** #include "lv_draw.h"
  10:..\..\..\arduinoLCD\test\Pain Drain\libraries\lvgl\src\draw/lv_draw_layer.c **** #include "lv_draw_arc.h"
  11:..\..\..\arduinoLCD\test\Pain Drain\libraries\lvgl\src\draw/lv_draw_layer.c **** #include "../core/lv_refr.h"
  12:..\..\..\arduinoLCD\test\Pain Drain\libraries\lvgl\src\draw/lv_draw_layer.c **** 
  13:..\..\..\arduinoLCD\test\Pain Drain\libraries\lvgl\src\draw/lv_draw_layer.c **** /*********************
  14:..\..\..\arduinoLCD\test\Pain Drain\libraries\lvgl\src\draw/lv_draw_layer.c ****  *      DEFINES
  15:..\..\..\arduinoLCD\test\Pain Drain\libraries\lvgl\src\draw/lv_draw_layer.c ****  *********************/
  16:..\..\..\arduinoLCD\test\Pain Drain\libraries\lvgl\src\draw/lv_draw_layer.c **** 
  17:..\..\..\arduinoLCD\test\Pain Drain\libraries\lvgl\src\draw/lv_draw_layer.c **** /**********************
  18:..\..\..\arduinoLCD\test\Pain Drain\libraries\lvgl\src\draw/lv_draw_layer.c ****  *      TYPEDEFS
  19:..\..\..\arduinoLCD\test\Pain Drain\libraries\lvgl\src\draw/lv_draw_layer.c ****  **********************/
  20:..\..\..\arduinoLCD\test\Pain Drain\libraries\lvgl\src\draw/lv_draw_layer.c **** 
  21:..\..\..\arduinoLCD\test\Pain Drain\libraries\lvgl\src\draw/lv_draw_layer.c **** /**********************
  22:..\..\..\arduinoLCD\test\Pain Drain\libraries\lvgl\src\draw/lv_draw_layer.c ****  *  STATIC PROTOTYPES
  23:..\..\..\arduinoLCD\test\Pain Drain\libraries\lvgl\src\draw/lv_draw_layer.c ****  **********************/
  24:..\..\..\arduinoLCD\test\Pain Drain\libraries\lvgl\src\draw/lv_draw_layer.c **** 
  25:..\..\..\arduinoLCD\test\Pain Drain\libraries\lvgl\src\draw/lv_draw_layer.c **** /**********************
  26:..\..\..\arduinoLCD\test\Pain Drain\libraries\lvgl\src\draw/lv_draw_layer.c ****  *  STATIC VARIABLES
  27:..\..\..\arduinoLCD\test\Pain Drain\libraries\lvgl\src\draw/lv_draw_layer.c ****  **********************/
  28:..\..\..\arduinoLCD\test\Pain Drain\libraries\lvgl\src\draw/lv_draw_layer.c **** 
  29:..\..\..\arduinoLCD\test\Pain Drain\libraries\lvgl\src\draw/lv_draw_layer.c **** /**********************
ARM GAS  C:\Users\haske\AppData\Local\Temp\cc0Ajg5z.s 			page 2


  30:..\..\..\arduinoLCD\test\Pain Drain\libraries\lvgl\src\draw/lv_draw_layer.c ****  *      MACROS
  31:..\..\..\arduinoLCD\test\Pain Drain\libraries\lvgl\src\draw/lv_draw_layer.c ****  **********************/
  32:..\..\..\arduinoLCD\test\Pain Drain\libraries\lvgl\src\draw/lv_draw_layer.c **** 
  33:..\..\..\arduinoLCD\test\Pain Drain\libraries\lvgl\src\draw/lv_draw_layer.c **** /**********************
  34:..\..\..\arduinoLCD\test\Pain Drain\libraries\lvgl\src\draw/lv_draw_layer.c ****  *   GLOBAL FUNCTIONS
  35:..\..\..\arduinoLCD\test\Pain Drain\libraries\lvgl\src\draw/lv_draw_layer.c ****  **********************/
  36:..\..\..\arduinoLCD\test\Pain Drain\libraries\lvgl\src\draw/lv_draw_layer.c **** 
  37:..\..\..\arduinoLCD\test\Pain Drain\libraries\lvgl\src\draw/lv_draw_layer.c **** lv_draw_layer_ctx_t * lv_draw_layer_create(lv_draw_ctx_t * draw_ctx, const lv_area_t * layer_area,
  38:..\..\..\arduinoLCD\test\Pain Drain\libraries\lvgl\src\draw/lv_draw_layer.c ****                                            lv_draw_layer_flags_t flags)
  39:..\..\..\arduinoLCD\test\Pain Drain\libraries\lvgl\src\draw/lv_draw_layer.c **** {
  29              		.loc 1 39 0
  30              		.cfi_startproc
  31              		@ args = 0, pretend = 0, frame = 0
  32              		@ frame_needed = 0, uses_anonymous_args = 0
  33              	.LVL0:
  34 0000 F8B5     		push	{r3, r4, r5, r6, r7, lr}
  35              		.cfi_def_cfa_offset 24
  36              		.cfi_offset 3, -24
  37              		.cfi_offset 4, -20
  38              		.cfi_offset 5, -16
  39              		.cfi_offset 6, -12
  40              		.cfi_offset 7, -8
  41              		.cfi_offset 14, -4
  40:..\..\..\arduinoLCD\test\Pain Drain\libraries\lvgl\src\draw/lv_draw_layer.c ****     if(draw_ctx->layer_init == NULL) return NULL;
  42              		.loc 1 40 0
  43 0002 C36B     		ldr	r3, [r0, #60]
  44 0004 53B3     		cbz	r3, .L5
  45 0006 1746     		mov	r7, r2
  46 0008 0E46     		mov	r6, r1
  47 000a 0446     		mov	r4, r0
  41:..\..\..\arduinoLCD\test\Pain Drain\libraries\lvgl\src\draw/lv_draw_layer.c **** 
  42:..\..\..\arduinoLCD\test\Pain Drain\libraries\lvgl\src\draw/lv_draw_layer.c ****     lv_draw_layer_ctx_t * layer_ctx = lv_mem_alloc(draw_ctx->layer_instance_size);
  48              		.loc 1 42 0
  49 000c C06C     		ldr	r0, [r0, #76]
  50              	.LVL1:
  51 000e FFF7FEFF 		bl	lv_mem_alloc
  52              	.LVL2:
  43:..\..\..\arduinoLCD\test\Pain Drain\libraries\lvgl\src\draw/lv_draw_layer.c ****     LV_ASSERT_MALLOC(layer_ctx);
  53              		.loc 1 43 0
  54 0012 0546     		mov	r5, r0
  55 0014 00B9     		cbnz	r0, .L3
  56              	.L4:
  57 0016 FEE7     		b	.L4
  58              	.L3:
  44:..\..\..\arduinoLCD\test\Pain Drain\libraries\lvgl\src\draw/lv_draw_layer.c ****     if(layer_ctx == NULL) {
  59              		.loc 1 44 0
  60 0018 10B3     		cbz	r0, .L6
  45:..\..\..\arduinoLCD\test\Pain Drain\libraries\lvgl\src\draw/lv_draw_layer.c ****         LV_LOG_WARN("Couldn't allocate a new layer context");
  46:..\..\..\arduinoLCD\test\Pain Drain\libraries\lvgl\src\draw/lv_draw_layer.c ****         return NULL;
  47:..\..\..\arduinoLCD\test\Pain Drain\libraries\lvgl\src\draw/lv_draw_layer.c ****     }
  48:..\..\..\arduinoLCD\test\Pain Drain\libraries\lvgl\src\draw/lv_draw_layer.c **** 
  49:..\..\..\arduinoLCD\test\Pain Drain\libraries\lvgl\src\draw/lv_draw_layer.c ****     lv_memset_00(layer_ctx, draw_ctx->layer_instance_size);
  61              		.loc 1 49 0
  62 001a E16C     		ldr	r1, [r4, #76]
  63 001c FFF7FEFF 		bl	lv_memset_00
  64              	.LVL3:
  50:..\..\..\arduinoLCD\test\Pain Drain\libraries\lvgl\src\draw/lv_draw_layer.c **** 
ARM GAS  C:\Users\haske\AppData\Local\Temp\cc0Ajg5z.s 			page 3


  51:..\..\..\arduinoLCD\test\Pain Drain\libraries\lvgl\src\draw/lv_draw_layer.c ****     lv_disp_t * disp_refr = _lv_refr_get_disp_refreshing();
  65              		.loc 1 51 0
  66 0020 FFF7FEFF 		bl	_lv_refr_get_disp_refreshing
  67              	.LVL4:
  52:..\..\..\arduinoLCD\test\Pain Drain\libraries\lvgl\src\draw/lv_draw_layer.c ****     layer_ctx->original.buf = draw_ctx->buf;
  68              		.loc 1 52 0
  69 0024 2368     		ldr	r3, [r4]
  70 0026 2B62     		str	r3, [r5, #32]
  53:..\..\..\arduinoLCD\test\Pain Drain\libraries\lvgl\src\draw/lv_draw_layer.c ****     layer_ctx->original.buf_area = draw_ctx->buf_area;
  71              		.loc 1 53 0
  72 0028 6368     		ldr	r3, [r4, #4]
  73 002a EB61     		str	r3, [r5, #28]
  54:..\..\..\arduinoLCD\test\Pain Drain\libraries\lvgl\src\draw/lv_draw_layer.c ****     layer_ctx->original.clip_area = draw_ctx->clip_area;
  74              		.loc 1 54 0
  75 002c A368     		ldr	r3, [r4, #8]
  76 002e AB61     		str	r3, [r5, #24]
  55:..\..\..\arduinoLCD\test\Pain Drain\libraries\lvgl\src\draw/lv_draw_layer.c ****     layer_ctx->original.screen_transp = disp_refr->driver->screen_transp;
  77              		.loc 1 55 0
  78 0030 0368     		ldr	r3, [r0]
  79 0032 1B7C     		ldrb	r3, [r3, #16]	@ zero_extendqisi2
  80 0034 C3F38013 		ubfx	r3, r3, #6, #1
  81 0038 85F82430 		strb	r3, [r5, #36]
  56:..\..\..\arduinoLCD\test\Pain Drain\libraries\lvgl\src\draw/lv_draw_layer.c ****     layer_ctx->area_full = *layer_area;
  82              		.loc 1 56 0
  83 003c 2B46     		mov	r3, r5
  84 003e 3068     		ldr	r0, [r6]	@ unaligned
  85              	.LVL5:
  86 0040 7168     		ldr	r1, [r6, #4]	@ unaligned
  87 0042 03C3     		stmia	r3!, {r0, r1}
  57:..\..\..\arduinoLCD\test\Pain Drain\libraries\lvgl\src\draw/lv_draw_layer.c **** 
  58:..\..\..\arduinoLCD\test\Pain Drain\libraries\lvgl\src\draw/lv_draw_layer.c ****     lv_draw_layer_ctx_t * init_layer_ctx =  draw_ctx->layer_init(draw_ctx, layer_ctx, flags);
  88              		.loc 1 58 0
  89 0044 E36B     		ldr	r3, [r4, #60]
  90 0046 3A46     		mov	r2, r7
  91 0048 2946     		mov	r1, r5
  92 004a 2046     		mov	r0, r4
  93 004c 9847     		blx	r3
  94              	.LVL6:
  59:..\..\..\arduinoLCD\test\Pain Drain\libraries\lvgl\src\draw/lv_draw_layer.c ****     if(NULL == init_layer_ctx) {
  95              		.loc 1 59 0
  96 004e 0446     		mov	r4, r0
  97              	.LVL7:
  98 0050 40B9     		cbnz	r0, .L7
  60:..\..\..\arduinoLCD\test\Pain Drain\libraries\lvgl\src\draw/lv_draw_layer.c ****         lv_mem_free(layer_ctx);
  99              		.loc 1 60 0
 100 0052 2846     		mov	r0, r5
 101              	.LVL8:
 102 0054 FFF7FEFF 		bl	lv_mem_free
 103              	.LVL9:
  61:..\..\..\arduinoLCD\test\Pain Drain\libraries\lvgl\src\draw/lv_draw_layer.c ****     }
  62:..\..\..\arduinoLCD\test\Pain Drain\libraries\lvgl\src\draw/lv_draw_layer.c ****     return init_layer_ctx;
 104              		.loc 1 62 0
 105 0058 2046     		mov	r0, r4
 106 005a F8BD     		pop	{r3, r4, r5, r6, r7, pc}
 107              	.LVL10:
 108              	.L5:
  40:..\..\..\arduinoLCD\test\Pain Drain\libraries\lvgl\src\draw/lv_draw_layer.c **** 
ARM GAS  C:\Users\haske\AppData\Local\Temp\cc0Ajg5z.s 			page 4


 109              		.loc 1 40 0
 110 005c 0020     		movs	r0, #0
 111              	.LVL11:
 112 005e F8BD     		pop	{r3, r4, r5, r6, r7, pc}
 113              	.LVL12:
 114              	.L6:
  46:..\..\..\arduinoLCD\test\Pain Drain\libraries\lvgl\src\draw/lv_draw_layer.c ****     }
 115              		.loc 1 46 0
 116 0060 0020     		movs	r0, #0
 117              	.LVL13:
 118 0062 F8BD     		pop	{r3, r4, r5, r6, r7, pc}
 119              	.LVL14:
 120              	.L7:
  63:..\..\..\arduinoLCD\test\Pain Drain\libraries\lvgl\src\draw/lv_draw_layer.c **** }
 121              		.loc 1 63 0
 122 0064 F8BD     		pop	{r3, r4, r5, r6, r7, pc}
 123              		.cfi_endproc
 124              	.LFE159:
 125              		.size	lv_draw_layer_create, .-lv_draw_layer_create
 126 0066 00BF     		.section	.text.lv_draw_layer_adjust,"ax",%progbits
 127              		.align	2
 128              		.global	lv_draw_layer_adjust
 129              		.thumb
 130              		.thumb_func
 131              		.type	lv_draw_layer_adjust, %function
 132              	lv_draw_layer_adjust:
 133              	.LFB160:
  64:..\..\..\arduinoLCD\test\Pain Drain\libraries\lvgl\src\draw/lv_draw_layer.c **** 
  65:..\..\..\arduinoLCD\test\Pain Drain\libraries\lvgl\src\draw/lv_draw_layer.c **** void lv_draw_layer_adjust(struct _lv_draw_ctx_t * draw_ctx, struct _lv_draw_layer_ctx_t * layer_ctx
  66:..\..\..\arduinoLCD\test\Pain Drain\libraries\lvgl\src\draw/lv_draw_layer.c ****                           lv_draw_layer_flags_t flags)
  67:..\..\..\arduinoLCD\test\Pain Drain\libraries\lvgl\src\draw/lv_draw_layer.c **** {
 134              		.loc 1 67 0
 135              		.cfi_startproc
 136              		@ args = 0, pretend = 0, frame = 0
 137              		@ frame_needed = 0, uses_anonymous_args = 0
 138              	.LVL15:
 139 0000 08B5     		push	{r3, lr}
 140              		.cfi_def_cfa_offset 8
 141              		.cfi_offset 3, -8
 142              		.cfi_offset 14, -4
  68:..\..\..\arduinoLCD\test\Pain Drain\libraries\lvgl\src\draw/lv_draw_layer.c ****     if(draw_ctx->layer_adjust) draw_ctx->layer_adjust(draw_ctx, layer_ctx, flags);
 143              		.loc 1 68 0
 144 0002 036C     		ldr	r3, [r0, #64]
 145 0004 03B1     		cbz	r3, .L9
 146              		.loc 1 68 0 is_stmt 0 discriminator 1
 147 0006 9847     		blx	r3
 148              	.LVL16:
 149              	.L9:
 150 0008 08BD     		pop	{r3, pc}
 151              		.cfi_endproc
 152              	.LFE160:
 153              		.size	lv_draw_layer_adjust, .-lv_draw_layer_adjust
 154 000a 00BF     		.section	.text.lv_draw_layer_blend,"ax",%progbits
 155              		.align	2
 156              		.global	lv_draw_layer_blend
 157              		.thumb
 158              		.thumb_func
ARM GAS  C:\Users\haske\AppData\Local\Temp\cc0Ajg5z.s 			page 5


 159              		.type	lv_draw_layer_blend, %function
 160              	lv_draw_layer_blend:
 161              	.LFB161:
  69:..\..\..\arduinoLCD\test\Pain Drain\libraries\lvgl\src\draw/lv_draw_layer.c **** }
  70:..\..\..\arduinoLCD\test\Pain Drain\libraries\lvgl\src\draw/lv_draw_layer.c **** 
  71:..\..\..\arduinoLCD\test\Pain Drain\libraries\lvgl\src\draw/lv_draw_layer.c **** void lv_draw_layer_blend(struct _lv_draw_ctx_t * draw_ctx, struct _lv_draw_layer_ctx_t * layer_ctx,
  72:..\..\..\arduinoLCD\test\Pain Drain\libraries\lvgl\src\draw/lv_draw_layer.c ****                          lv_draw_img_dsc_t * draw_dsc)
  73:..\..\..\arduinoLCD\test\Pain Drain\libraries\lvgl\src\draw/lv_draw_layer.c **** {
 162              		.loc 1 73 0 is_stmt 1
 163              		.cfi_startproc
 164              		@ args = 0, pretend = 0, frame = 0
 165              		@ frame_needed = 0, uses_anonymous_args = 0
 166              	.LVL17:
 167 0000 08B5     		push	{r3, lr}
 168              		.cfi_def_cfa_offset 8
 169              		.cfi_offset 3, -8
 170              		.cfi_offset 14, -4
  74:..\..\..\arduinoLCD\test\Pain Drain\libraries\lvgl\src\draw/lv_draw_layer.c ****     if(draw_ctx->layer_blend) draw_ctx->layer_blend(draw_ctx, layer_ctx, draw_dsc);
 171              		.loc 1 74 0
 172 0002 436C     		ldr	r3, [r0, #68]
 173 0004 03B1     		cbz	r3, .L12
 174              		.loc 1 74 0 is_stmt 0 discriminator 1
 175 0006 9847     		blx	r3
 176              	.LVL18:
 177              	.L12:
 178 0008 08BD     		pop	{r3, pc}
 179              		.cfi_endproc
 180              	.LFE161:
 181              		.size	lv_draw_layer_blend, .-lv_draw_layer_blend
 182 000a 00BF     		.section	.text.lv_draw_layer_destroy,"ax",%progbits
 183              		.align	2
 184              		.global	lv_draw_layer_destroy
 185              		.thumb
 186              		.thumb_func
 187              		.type	lv_draw_layer_destroy, %function
 188              	lv_draw_layer_destroy:
 189              	.LFB162:
  75:..\..\..\arduinoLCD\test\Pain Drain\libraries\lvgl\src\draw/lv_draw_layer.c **** }
  76:..\..\..\arduinoLCD\test\Pain Drain\libraries\lvgl\src\draw/lv_draw_layer.c **** 
  77:..\..\..\arduinoLCD\test\Pain Drain\libraries\lvgl\src\draw/lv_draw_layer.c **** void lv_draw_layer_destroy(lv_draw_ctx_t * draw_ctx, lv_draw_layer_ctx_t * layer_ctx)
  78:..\..\..\arduinoLCD\test\Pain Drain\libraries\lvgl\src\draw/lv_draw_layer.c **** {
 190              		.loc 1 78 0 is_stmt 1
 191              		.cfi_startproc
 192              		@ args = 0, pretend = 0, frame = 0
 193              		@ frame_needed = 0, uses_anonymous_args = 0
 194              	.LVL19:
 195 0000 38B5     		push	{r3, r4, r5, lr}
 196              		.cfi_def_cfa_offset 16
 197              		.cfi_offset 3, -16
 198              		.cfi_offset 4, -12
 199              		.cfi_offset 5, -8
 200              		.cfi_offset 14, -4
 201 0002 0546     		mov	r5, r0
 202 0004 0C46     		mov	r4, r1
  79:..\..\..\arduinoLCD\test\Pain Drain\libraries\lvgl\src\draw/lv_draw_layer.c **** 
  80:..\..\..\arduinoLCD\test\Pain Drain\libraries\lvgl\src\draw/lv_draw_layer.c ****     lv_draw_wait_for_finish(draw_ctx);
 203              		.loc 1 80 0
ARM GAS  C:\Users\haske\AppData\Local\Temp\cc0Ajg5z.s 			page 6


 204 0006 FFF7FEFF 		bl	lv_draw_wait_for_finish
 205              	.LVL20:
  81:..\..\..\arduinoLCD\test\Pain Drain\libraries\lvgl\src\draw/lv_draw_layer.c ****     draw_ctx->buf = layer_ctx->original.buf;
 206              		.loc 1 81 0
 207 000a 236A     		ldr	r3, [r4, #32]
 208 000c 2B60     		str	r3, [r5]
  82:..\..\..\arduinoLCD\test\Pain Drain\libraries\lvgl\src\draw/lv_draw_layer.c ****     draw_ctx->buf_area = layer_ctx->original.buf_area;
 209              		.loc 1 82 0
 210 000e E369     		ldr	r3, [r4, #28]
 211 0010 6B60     		str	r3, [r5, #4]
  83:..\..\..\arduinoLCD\test\Pain Drain\libraries\lvgl\src\draw/lv_draw_layer.c ****     draw_ctx->clip_area = layer_ctx->original.clip_area;
 212              		.loc 1 83 0
 213 0012 A369     		ldr	r3, [r4, #24]
 214 0014 AB60     		str	r3, [r5, #8]
  84:..\..\..\arduinoLCD\test\Pain Drain\libraries\lvgl\src\draw/lv_draw_layer.c ****     lv_disp_t * disp_refr = _lv_refr_get_disp_refreshing();
 215              		.loc 1 84 0
 216 0016 FFF7FEFF 		bl	_lv_refr_get_disp_refreshing
 217              	.LVL21:
  85:..\..\..\arduinoLCD\test\Pain Drain\libraries\lvgl\src\draw/lv_draw_layer.c ****     disp_refr->driver->screen_transp = layer_ctx->original.screen_transp;
 218              		.loc 1 85 0
 219 001a 0368     		ldr	r3, [r0]
 220 001c 94F82410 		ldrb	r1, [r4, #36]	@ zero_extendqisi2
 221 0020 1A7C     		ldrb	r2, [r3, #16]	@ zero_extendqisi2
 222 0022 61F38612 		bfi	r2, r1, #6, #1
 223 0026 1A74     		strb	r2, [r3, #16]
  86:..\..\..\arduinoLCD\test\Pain Drain\libraries\lvgl\src\draw/lv_draw_layer.c **** 
  87:..\..\..\arduinoLCD\test\Pain Drain\libraries\lvgl\src\draw/lv_draw_layer.c ****     if(draw_ctx->layer_destroy) draw_ctx->layer_destroy(draw_ctx, layer_ctx);
 224              		.loc 1 87 0
 225 0028 AB6C     		ldr	r3, [r5, #72]
 226 002a 13B1     		cbz	r3, .L16
 227              		.loc 1 87 0 is_stmt 0 discriminator 1
 228 002c 2146     		mov	r1, r4
 229 002e 2846     		mov	r0, r5
 230              	.LVL22:
 231 0030 9847     		blx	r3
 232              	.LVL23:
 233              	.L16:
  88:..\..\..\arduinoLCD\test\Pain Drain\libraries\lvgl\src\draw/lv_draw_layer.c ****     lv_mem_free(layer_ctx);
 234              		.loc 1 88 0 is_stmt 1
 235 0032 2046     		mov	r0, r4
 236 0034 FFF7FEFF 		bl	lv_mem_free
 237              	.LVL24:
 238 0038 38BD     		pop	{r3, r4, r5, pc}
 239              		.cfi_endproc
 240              	.LFE162:
 241              		.size	lv_draw_layer_destroy, .-lv_draw_layer_destroy
 242 003a 00BF     		.text
 243              	.Letext0:
 244              		.file 2 "c:\\program files (x86)\\cypress\\psoc creator\\4.4\\psoc creator\\import\\gnu\\arm\\5.4.
 245              		.file 3 "c:\\program files (x86)\\cypress\\psoc creator\\4.4\\psoc creator\\import\\gnu\\arm\\5.4.
 246              		.file 4 "c:\\program files (x86)\\cypress\\psoc creator\\4.4\\psoc creator\\import\\gnu\\arm\\5.4.
 247              		.file 5 "c:\\projects\\paindrain\\arduinolcd\\test\\pain drain\\libraries\\lvgl\\src\\misc\\lv_are
 248              		.file 6 "c:\\projects\\paindrain\\arduinolcd\\test\\pain drain\\libraries\\lvgl\\src\\font\\lv_fon
 249              		.file 7 "..\\..\\..\\arduinoLCD\\test\\Pain Drain\\libraries\\lvgl\\src\\draw\\../misc/lv_types.h"
 250              		.file 8 "..\\..\\..\\arduinoLCD\\test\\Pain Drain\\libraries\\lvgl\\src\\draw\\../misc/lv_color.h"
 251              		.file 9 "..\\..\\..\\arduinoLCD\\test\\Pain Drain\\libraries\\lvgl\\src\\draw\\../misc/lv_txt.h"
 252              		.file 10 "..\\..\\..\\arduinoLCD\\test\\Pain Drain\\libraries\\lvgl\\src\\draw\\../misc/lv_bidi.h"
ARM GAS  C:\Users\haske\AppData\Local\Temp\cc0Ajg5z.s 			page 7


 253              		.file 11 "..\\..\\..\\arduinoLCD\\test\\Pain Drain\\libraries\\lvgl\\src\\draw\\../misc/lv_style.h
 254              		.file 12 "..\\..\\..\\arduinoLCD\\test\\Pain Drain\\libraries\\lvgl\\src\\draw\\lv_img_buf.h"
 255              		.file 13 "..\\..\\..\\arduinoLCD\\test\\Pain Drain\\libraries\\lvgl\\src\\draw\\../core/lv_obj.h"
 256              		.file 14 "..\\..\\..\\arduinoLCD\\test\\Pain Drain\\libraries\\lvgl\\src\\draw\\lv_draw_rect.h"
 257              		.file 15 "..\\..\\..\\arduinoLCD\\test\\Pain Drain\\libraries\\lvgl\\src\\draw\\lv_draw_label.h"
 258              		.file 16 "..\\..\\..\\arduinoLCD\\test\\Pain Drain\\libraries\\lvgl\\src\\draw\\lv_draw_img.h"
 259              		.file 17 "..\\..\\..\\arduinoLCD\\test\\Pain Drain\\libraries\\lvgl\\src\\draw\\lv_draw_line.h"
 260              		.file 18 "..\\..\\..\\arduinoLCD\\test\\Pain Drain\\libraries\\lvgl\\src\\draw\\lv_draw_arc.h"
 261              		.file 19 "..\\..\\..\\arduinoLCD\\test\\Pain Drain\\libraries\\lvgl\\src\\draw\\lv_draw_layer.h"
 262              		.file 20 "..\\..\\..\\arduinoLCD\\test\\Pain Drain\\libraries\\lvgl\\src\\draw\\lv_draw.h"
 263              		.file 21 "c:\\projects\\paindrain\\arduinolcd\\test\\pain drain\\libraries\\lvgl\\src\\misc\\lv_ll
 264              		.file 22 "c:\\projects\\paindrain\\arduinolcd\\test\\pain drain\\libraries\\lvgl\\src\\misc\\lv_ti
 265              		.file 23 "c:\\projects\\paindrain\\arduinolcd\\test\\pain drain\\libraries\\lvgl\\src\\hal\\lv_hal
 266              		.file 24 "..\\..\\..\\arduinoLCD\\test\\Pain Drain\\libraries\\lvgl\\src\\draw\\../core/lv_group.h
 267              		.file 25 "..\\..\\..\\arduinoLCD\\test\\Pain Drain\\libraries\\lvgl\\src\\draw\\../core/lv_obj_scr
 268              		.file 26 "..\\..\\..\\arduinoLCD\\test\\Pain Drain\\libraries\\lvgl\\src\\draw\\../core/lv_obj_sty
 269              		.file 27 "..\\..\\..\\arduinoLCD\\test\\Pain Drain\\libraries\\lvgl\\src\\draw\\../core/lv_obj_cla
 270              		.file 28 "..\\..\\..\\arduinoLCD\\test\\Pain Drain\\libraries\\lvgl\\src\\draw\\../core/lv_event.h
 271              		.file 29 "..\\..\\..\\arduinoLCD\\test\\Pain Drain\\libraries\\lvgl\\src\\draw\\../misc/lv_mem.h"
 272              		.file 30 "..\\..\\..\\arduinoLCD\\test\\Pain Drain\\libraries\\lvgl\\src\\draw\\../core/lv_refr.h"