ARM GAS  C:\Users\haske\AppData\Local\Temp\ccnNTYZ7.s 			page 1


   1              		.syntax unified
   2              		.cpu cortex-m4
   3              		.eabi_attribute 27, 1
   4              		.fpu fpv4-sp-d16
   5              		.eabi_attribute 20, 1
   6              		.eabi_attribute 21, 1
   7              		.eabi_attribute 23, 3
   8              		.eabi_attribute 24, 1
   9              		.eabi_attribute 25, 1
  10              		.eabi_attribute 26, 1
  11              		.eabi_attribute 30, 1
  12              		.eabi_attribute 34, 1
  13              		.eabi_attribute 18, 4
  14              		.thumb
  15              		.syntax unified
  16              		.file	"lv_event.c"
  17              		.text
  18              	.Ltext0:
  19              		.cfi_sections	.debug_frame
  20              		.section	.text.lv_obj_get_event_dsc,"ax",%progbits
  21              		.align	2
  22              		.thumb
  23              		.thumb_func
  24              		.type	lv_obj_get_event_dsc, %function
  25              	lv_obj_get_event_dsc:
  26              	.LFB186:
  27              		.file 1 "..\\..\\..\\arduinoLCD\\test\\Pain Drain\\libraries\\lvgl\\src\\core\\lv_event.c"
   1:..\..\..\arduinoLCD\test\Pain Drain\libraries\lvgl\src\core/lv_event.c **** /**
   2:..\..\..\arduinoLCD\test\Pain Drain\libraries\lvgl\src\core/lv_event.c ****  * @file lv_event.c
   3:..\..\..\arduinoLCD\test\Pain Drain\libraries\lvgl\src\core/lv_event.c ****  *
   4:..\..\..\arduinoLCD\test\Pain Drain\libraries\lvgl\src\core/lv_event.c ****  */
   5:..\..\..\arduinoLCD\test\Pain Drain\libraries\lvgl\src\core/lv_event.c **** 
   6:..\..\..\arduinoLCD\test\Pain Drain\libraries\lvgl\src\core/lv_event.c **** /*********************
   7:..\..\..\arduinoLCD\test\Pain Drain\libraries\lvgl\src\core/lv_event.c ****  *      INCLUDES
   8:..\..\..\arduinoLCD\test\Pain Drain\libraries\lvgl\src\core/lv_event.c ****  *********************/
   9:..\..\..\arduinoLCD\test\Pain Drain\libraries\lvgl\src\core/lv_event.c **** #include "lv_obj.h"
  10:..\..\..\arduinoLCD\test\Pain Drain\libraries\lvgl\src\core/lv_event.c **** #include "lv_indev.h"
  11:..\..\..\arduinoLCD\test\Pain Drain\libraries\lvgl\src\core/lv_event.c **** 
  12:..\..\..\arduinoLCD\test\Pain Drain\libraries\lvgl\src\core/lv_event.c **** /*********************
  13:..\..\..\arduinoLCD\test\Pain Drain\libraries\lvgl\src\core/lv_event.c ****  *      DEFINES
  14:..\..\..\arduinoLCD\test\Pain Drain\libraries\lvgl\src\core/lv_event.c ****  *********************/
  15:..\..\..\arduinoLCD\test\Pain Drain\libraries\lvgl\src\core/lv_event.c **** #define MY_CLASS &lv_obj_class
  16:..\..\..\arduinoLCD\test\Pain Drain\libraries\lvgl\src\core/lv_event.c **** 
  17:..\..\..\arduinoLCD\test\Pain Drain\libraries\lvgl\src\core/lv_event.c **** /**********************
  18:..\..\..\arduinoLCD\test\Pain Drain\libraries\lvgl\src\core/lv_event.c ****  *      TYPEDEFS
  19:..\..\..\arduinoLCD\test\Pain Drain\libraries\lvgl\src\core/lv_event.c ****  **********************/
  20:..\..\..\arduinoLCD\test\Pain Drain\libraries\lvgl\src\core/lv_event.c **** typedef struct _lv_event_dsc_t {
  21:..\..\..\arduinoLCD\test\Pain Drain\libraries\lvgl\src\core/lv_event.c ****     lv_event_cb_t cb;
  22:..\..\..\arduinoLCD\test\Pain Drain\libraries\lvgl\src\core/lv_event.c ****     void * user_data;
  23:..\..\..\arduinoLCD\test\Pain Drain\libraries\lvgl\src\core/lv_event.c ****     lv_event_code_t filter : 8;
  24:..\..\..\arduinoLCD\test\Pain Drain\libraries\lvgl\src\core/lv_event.c **** } lv_event_dsc_t;
  25:..\..\..\arduinoLCD\test\Pain Drain\libraries\lvgl\src\core/lv_event.c **** 
  26:..\..\..\arduinoLCD\test\Pain Drain\libraries\lvgl\src\core/lv_event.c **** /**********************
  27:..\..\..\arduinoLCD\test\Pain Drain\libraries\lvgl\src\core/lv_event.c ****  *  STATIC PROTOTYPES
  28:..\..\..\arduinoLCD\test\Pain Drain\libraries\lvgl\src\core/lv_event.c ****  **********************/
  29:..\..\..\arduinoLCD\test\Pain Drain\libraries\lvgl\src\core/lv_event.c **** static lv_event_dsc_t * lv_obj_get_event_dsc(const lv_obj_t * obj, uint32_t id);
  30:..\..\..\arduinoLCD\test\Pain Drain\libraries\lvgl\src\core/lv_event.c **** static lv_res_t event_send_core(lv_event_t * e);
ARM GAS  C:\Users\haske\AppData\Local\Temp\ccnNTYZ7.s 			page 2


  31:..\..\..\arduinoLCD\test\Pain Drain\libraries\lvgl\src\core/lv_event.c **** static bool event_is_bubbled(lv_event_t * e);
  32:..\..\..\arduinoLCD\test\Pain Drain\libraries\lvgl\src\core/lv_event.c **** 
  33:..\..\..\arduinoLCD\test\Pain Drain\libraries\lvgl\src\core/lv_event.c **** 
  34:..\..\..\arduinoLCD\test\Pain Drain\libraries\lvgl\src\core/lv_event.c **** /**********************
  35:..\..\..\arduinoLCD\test\Pain Drain\libraries\lvgl\src\core/lv_event.c ****  *  STATIC VARIABLES
  36:..\..\..\arduinoLCD\test\Pain Drain\libraries\lvgl\src\core/lv_event.c ****  **********************/
  37:..\..\..\arduinoLCD\test\Pain Drain\libraries\lvgl\src\core/lv_event.c **** static lv_event_t * event_head;
  38:..\..\..\arduinoLCD\test\Pain Drain\libraries\lvgl\src\core/lv_event.c **** 
  39:..\..\..\arduinoLCD\test\Pain Drain\libraries\lvgl\src\core/lv_event.c **** /**********************
  40:..\..\..\arduinoLCD\test\Pain Drain\libraries\lvgl\src\core/lv_event.c ****  *      MACROS
  41:..\..\..\arduinoLCD\test\Pain Drain\libraries\lvgl\src\core/lv_event.c ****  **********************/
  42:..\..\..\arduinoLCD\test\Pain Drain\libraries\lvgl\src\core/lv_event.c **** #if LV_LOG_TRACE_EVENT
  43:..\..\..\arduinoLCD\test\Pain Drain\libraries\lvgl\src\core/lv_event.c ****     #define EVENT_TRACE(...) LV_LOG_TRACE(__VA_ARGS__)
  44:..\..\..\arduinoLCD\test\Pain Drain\libraries\lvgl\src\core/lv_event.c **** #else
  45:..\..\..\arduinoLCD\test\Pain Drain\libraries\lvgl\src\core/lv_event.c ****     #define EVENT_TRACE(...)
  46:..\..\..\arduinoLCD\test\Pain Drain\libraries\lvgl\src\core/lv_event.c **** #endif
  47:..\..\..\arduinoLCD\test\Pain Drain\libraries\lvgl\src\core/lv_event.c **** 
  48:..\..\..\arduinoLCD\test\Pain Drain\libraries\lvgl\src\core/lv_event.c **** /**********************
  49:..\..\..\arduinoLCD\test\Pain Drain\libraries\lvgl\src\core/lv_event.c ****  *   GLOBAL FUNCTIONS
  50:..\..\..\arduinoLCD\test\Pain Drain\libraries\lvgl\src\core/lv_event.c ****  **********************/
  51:..\..\..\arduinoLCD\test\Pain Drain\libraries\lvgl\src\core/lv_event.c **** 
  52:..\..\..\arduinoLCD\test\Pain Drain\libraries\lvgl\src\core/lv_event.c **** lv_res_t lv_event_send(lv_obj_t * obj, lv_event_code_t event_code, void * param)
  53:..\..\..\arduinoLCD\test\Pain Drain\libraries\lvgl\src\core/lv_event.c **** {
  54:..\..\..\arduinoLCD\test\Pain Drain\libraries\lvgl\src\core/lv_event.c ****     if(obj == NULL) return LV_RES_OK;
  55:..\..\..\arduinoLCD\test\Pain Drain\libraries\lvgl\src\core/lv_event.c **** 
  56:..\..\..\arduinoLCD\test\Pain Drain\libraries\lvgl\src\core/lv_event.c ****     LV_ASSERT_OBJ(obj, MY_CLASS);
  57:..\..\..\arduinoLCD\test\Pain Drain\libraries\lvgl\src\core/lv_event.c **** 
  58:..\..\..\arduinoLCD\test\Pain Drain\libraries\lvgl\src\core/lv_event.c ****     lv_event_t e;
  59:..\..\..\arduinoLCD\test\Pain Drain\libraries\lvgl\src\core/lv_event.c ****     e.target = obj;
  60:..\..\..\arduinoLCD\test\Pain Drain\libraries\lvgl\src\core/lv_event.c ****     e.current_target = obj;
  61:..\..\..\arduinoLCD\test\Pain Drain\libraries\lvgl\src\core/lv_event.c ****     e.code = event_code;
  62:..\..\..\arduinoLCD\test\Pain Drain\libraries\lvgl\src\core/lv_event.c ****     e.user_data = NULL;
  63:..\..\..\arduinoLCD\test\Pain Drain\libraries\lvgl\src\core/lv_event.c ****     e.param = param;
  64:..\..\..\arduinoLCD\test\Pain Drain\libraries\lvgl\src\core/lv_event.c ****     e.deleted = 0;
  65:..\..\..\arduinoLCD\test\Pain Drain\libraries\lvgl\src\core/lv_event.c ****     e.stop_bubbling = 0;
  66:..\..\..\arduinoLCD\test\Pain Drain\libraries\lvgl\src\core/lv_event.c ****     e.stop_processing = 0;
  67:..\..\..\arduinoLCD\test\Pain Drain\libraries\lvgl\src\core/lv_event.c **** 
  68:..\..\..\arduinoLCD\test\Pain Drain\libraries\lvgl\src\core/lv_event.c ****     /*Build a simple linked list from the objects used in the events
  69:..\..\..\arduinoLCD\test\Pain Drain\libraries\lvgl\src\core/lv_event.c ****      *It's important to know if this object was deleted by a nested event
  70:..\..\..\arduinoLCD\test\Pain Drain\libraries\lvgl\src\core/lv_event.c ****      *called from this `event_cb`.*/
  71:..\..\..\arduinoLCD\test\Pain Drain\libraries\lvgl\src\core/lv_event.c ****     e.prev = event_head;
  72:..\..\..\arduinoLCD\test\Pain Drain\libraries\lvgl\src\core/lv_event.c ****     event_head = &e;
  73:..\..\..\arduinoLCD\test\Pain Drain\libraries\lvgl\src\core/lv_event.c **** 
  74:..\..\..\arduinoLCD\test\Pain Drain\libraries\lvgl\src\core/lv_event.c ****     /*Send the event*/
  75:..\..\..\arduinoLCD\test\Pain Drain\libraries\lvgl\src\core/lv_event.c ****     lv_res_t res = event_send_core(&e);
  76:..\..\..\arduinoLCD\test\Pain Drain\libraries\lvgl\src\core/lv_event.c **** 
  77:..\..\..\arduinoLCD\test\Pain Drain\libraries\lvgl\src\core/lv_event.c ****     /*Remove this element from the list*/
  78:..\..\..\arduinoLCD\test\Pain Drain\libraries\lvgl\src\core/lv_event.c ****     event_head = e.prev;
  79:..\..\..\arduinoLCD\test\Pain Drain\libraries\lvgl\src\core/lv_event.c **** 
  80:..\..\..\arduinoLCD\test\Pain Drain\libraries\lvgl\src\core/lv_event.c ****     return res;
  81:..\..\..\arduinoLCD\test\Pain Drain\libraries\lvgl\src\core/lv_event.c **** }
  82:..\..\..\arduinoLCD\test\Pain Drain\libraries\lvgl\src\core/lv_event.c **** 
  83:..\..\..\arduinoLCD\test\Pain Drain\libraries\lvgl\src\core/lv_event.c **** 
  84:..\..\..\arduinoLCD\test\Pain Drain\libraries\lvgl\src\core/lv_event.c **** lv_res_t lv_obj_event_base(const lv_obj_class_t * class_p, lv_event_t * e)
  85:..\..\..\arduinoLCD\test\Pain Drain\libraries\lvgl\src\core/lv_event.c **** {
  86:..\..\..\arduinoLCD\test\Pain Drain\libraries\lvgl\src\core/lv_event.c ****     const lv_obj_class_t * base;
  87:..\..\..\arduinoLCD\test\Pain Drain\libraries\lvgl\src\core/lv_event.c ****     if(class_p == NULL) base = e->current_target->class_p;
ARM GAS  C:\Users\haske\AppData\Local\Temp\ccnNTYZ7.s 			page 3


  88:..\..\..\arduinoLCD\test\Pain Drain\libraries\lvgl\src\core/lv_event.c ****     else base = class_p->base_class;
  89:..\..\..\arduinoLCD\test\Pain Drain\libraries\lvgl\src\core/lv_event.c **** 
  90:..\..\..\arduinoLCD\test\Pain Drain\libraries\lvgl\src\core/lv_event.c ****     /*Find a base in which call the ancestor's event handler_cb if set*/
  91:..\..\..\arduinoLCD\test\Pain Drain\libraries\lvgl\src\core/lv_event.c ****     while(base && base->event_cb == NULL) base = base->base_class;
  92:..\..\..\arduinoLCD\test\Pain Drain\libraries\lvgl\src\core/lv_event.c **** 
  93:..\..\..\arduinoLCD\test\Pain Drain\libraries\lvgl\src\core/lv_event.c ****     if(base == NULL) return LV_RES_OK;
  94:..\..\..\arduinoLCD\test\Pain Drain\libraries\lvgl\src\core/lv_event.c ****     if(base->event_cb == NULL) return LV_RES_OK;
  95:..\..\..\arduinoLCD\test\Pain Drain\libraries\lvgl\src\core/lv_event.c **** 
  96:..\..\..\arduinoLCD\test\Pain Drain\libraries\lvgl\src\core/lv_event.c ****     /*Call the actual event callback*/
  97:..\..\..\arduinoLCD\test\Pain Drain\libraries\lvgl\src\core/lv_event.c ****     e->user_data = NULL;
  98:..\..\..\arduinoLCD\test\Pain Drain\libraries\lvgl\src\core/lv_event.c ****     base->event_cb(base, e);
  99:..\..\..\arduinoLCD\test\Pain Drain\libraries\lvgl\src\core/lv_event.c **** 
 100:..\..\..\arduinoLCD\test\Pain Drain\libraries\lvgl\src\core/lv_event.c ****     lv_res_t res = LV_RES_OK;
 101:..\..\..\arduinoLCD\test\Pain Drain\libraries\lvgl\src\core/lv_event.c ****     /*Stop if the object is deleted*/
 102:..\..\..\arduinoLCD\test\Pain Drain\libraries\lvgl\src\core/lv_event.c ****     if(e->deleted) res = LV_RES_INV;
 103:..\..\..\arduinoLCD\test\Pain Drain\libraries\lvgl\src\core/lv_event.c **** 
 104:..\..\..\arduinoLCD\test\Pain Drain\libraries\lvgl\src\core/lv_event.c ****     return res;
 105:..\..\..\arduinoLCD\test\Pain Drain\libraries\lvgl\src\core/lv_event.c **** }
 106:..\..\..\arduinoLCD\test\Pain Drain\libraries\lvgl\src\core/lv_event.c **** 
 107:..\..\..\arduinoLCD\test\Pain Drain\libraries\lvgl\src\core/lv_event.c **** 
 108:..\..\..\arduinoLCD\test\Pain Drain\libraries\lvgl\src\core/lv_event.c **** lv_obj_t * lv_event_get_target(lv_event_t * e)
 109:..\..\..\arduinoLCD\test\Pain Drain\libraries\lvgl\src\core/lv_event.c **** {
 110:..\..\..\arduinoLCD\test\Pain Drain\libraries\lvgl\src\core/lv_event.c ****     return e->target;
 111:..\..\..\arduinoLCD\test\Pain Drain\libraries\lvgl\src\core/lv_event.c **** }
 112:..\..\..\arduinoLCD\test\Pain Drain\libraries\lvgl\src\core/lv_event.c **** 
 113:..\..\..\arduinoLCD\test\Pain Drain\libraries\lvgl\src\core/lv_event.c **** lv_obj_t * lv_event_get_current_target(lv_event_t * e)
 114:..\..\..\arduinoLCD\test\Pain Drain\libraries\lvgl\src\core/lv_event.c **** {
 115:..\..\..\arduinoLCD\test\Pain Drain\libraries\lvgl\src\core/lv_event.c ****     return e->current_target;
 116:..\..\..\arduinoLCD\test\Pain Drain\libraries\lvgl\src\core/lv_event.c **** }
 117:..\..\..\arduinoLCD\test\Pain Drain\libraries\lvgl\src\core/lv_event.c **** 
 118:..\..\..\arduinoLCD\test\Pain Drain\libraries\lvgl\src\core/lv_event.c **** lv_event_code_t lv_event_get_code(lv_event_t * e)
 119:..\..\..\arduinoLCD\test\Pain Drain\libraries\lvgl\src\core/lv_event.c **** {
 120:..\..\..\arduinoLCD\test\Pain Drain\libraries\lvgl\src\core/lv_event.c ****     return e->code & ~LV_EVENT_PREPROCESS;
 121:..\..\..\arduinoLCD\test\Pain Drain\libraries\lvgl\src\core/lv_event.c **** }
 122:..\..\..\arduinoLCD\test\Pain Drain\libraries\lvgl\src\core/lv_event.c **** 
 123:..\..\..\arduinoLCD\test\Pain Drain\libraries\lvgl\src\core/lv_event.c **** void * lv_event_get_param(lv_event_t * e)
 124:..\..\..\arduinoLCD\test\Pain Drain\libraries\lvgl\src\core/lv_event.c **** {
 125:..\..\..\arduinoLCD\test\Pain Drain\libraries\lvgl\src\core/lv_event.c ****     return e->param;
 126:..\..\..\arduinoLCD\test\Pain Drain\libraries\lvgl\src\core/lv_event.c **** }
 127:..\..\..\arduinoLCD\test\Pain Drain\libraries\lvgl\src\core/lv_event.c **** 
 128:..\..\..\arduinoLCD\test\Pain Drain\libraries\lvgl\src\core/lv_event.c **** void * lv_event_get_user_data(lv_event_t * e)
 129:..\..\..\arduinoLCD\test\Pain Drain\libraries\lvgl\src\core/lv_event.c **** {
 130:..\..\..\arduinoLCD\test\Pain Drain\libraries\lvgl\src\core/lv_event.c ****     return e->user_data;
 131:..\..\..\arduinoLCD\test\Pain Drain\libraries\lvgl\src\core/lv_event.c **** }
 132:..\..\..\arduinoLCD\test\Pain Drain\libraries\lvgl\src\core/lv_event.c **** 
 133:..\..\..\arduinoLCD\test\Pain Drain\libraries\lvgl\src\core/lv_event.c **** void lv_event_stop_bubbling(lv_event_t * e)
 134:..\..\..\arduinoLCD\test\Pain Drain\libraries\lvgl\src\core/lv_event.c **** {
 135:..\..\..\arduinoLCD\test\Pain Drain\libraries\lvgl\src\core/lv_event.c ****     e->stop_bubbling = 1;
 136:..\..\..\arduinoLCD\test\Pain Drain\libraries\lvgl\src\core/lv_event.c **** }
 137:..\..\..\arduinoLCD\test\Pain Drain\libraries\lvgl\src\core/lv_event.c **** 
 138:..\..\..\arduinoLCD\test\Pain Drain\libraries\lvgl\src\core/lv_event.c **** void lv_event_stop_processing(lv_event_t * e)
 139:..\..\..\arduinoLCD\test\Pain Drain\libraries\lvgl\src\core/lv_event.c **** {
 140:..\..\..\arduinoLCD\test\Pain Drain\libraries\lvgl\src\core/lv_event.c ****     e->stop_processing = 1;
 141:..\..\..\arduinoLCD\test\Pain Drain\libraries\lvgl\src\core/lv_event.c **** }
 142:..\..\..\arduinoLCD\test\Pain Drain\libraries\lvgl\src\core/lv_event.c **** 
 143:..\..\..\arduinoLCD\test\Pain Drain\libraries\lvgl\src\core/lv_event.c **** 
 144:..\..\..\arduinoLCD\test\Pain Drain\libraries\lvgl\src\core/lv_event.c **** uint32_t lv_event_register_id(void)
ARM GAS  C:\Users\haske\AppData\Local\Temp\ccnNTYZ7.s 			page 4


 145:..\..\..\arduinoLCD\test\Pain Drain\libraries\lvgl\src\core/lv_event.c **** {
 146:..\..\..\arduinoLCD\test\Pain Drain\libraries\lvgl\src\core/lv_event.c ****     static uint32_t last_id = _LV_EVENT_LAST;
 147:..\..\..\arduinoLCD\test\Pain Drain\libraries\lvgl\src\core/lv_event.c ****     last_id ++;
 148:..\..\..\arduinoLCD\test\Pain Drain\libraries\lvgl\src\core/lv_event.c ****     return last_id;
 149:..\..\..\arduinoLCD\test\Pain Drain\libraries\lvgl\src\core/lv_event.c **** }
 150:..\..\..\arduinoLCD\test\Pain Drain\libraries\lvgl\src\core/lv_event.c **** 
 151:..\..\..\arduinoLCD\test\Pain Drain\libraries\lvgl\src\core/lv_event.c **** void _lv_event_mark_deleted(lv_obj_t * obj)
 152:..\..\..\arduinoLCD\test\Pain Drain\libraries\lvgl\src\core/lv_event.c **** {
 153:..\..\..\arduinoLCD\test\Pain Drain\libraries\lvgl\src\core/lv_event.c ****     lv_event_t * e = event_head;
 154:..\..\..\arduinoLCD\test\Pain Drain\libraries\lvgl\src\core/lv_event.c **** 
 155:..\..\..\arduinoLCD\test\Pain Drain\libraries\lvgl\src\core/lv_event.c ****     while(e) {
 156:..\..\..\arduinoLCD\test\Pain Drain\libraries\lvgl\src\core/lv_event.c ****         if(e->current_target == obj || e->target == obj) e->deleted = 1;
 157:..\..\..\arduinoLCD\test\Pain Drain\libraries\lvgl\src\core/lv_event.c ****         e = e->prev;
 158:..\..\..\arduinoLCD\test\Pain Drain\libraries\lvgl\src\core/lv_event.c ****     }
 159:..\..\..\arduinoLCD\test\Pain Drain\libraries\lvgl\src\core/lv_event.c **** }
 160:..\..\..\arduinoLCD\test\Pain Drain\libraries\lvgl\src\core/lv_event.c **** 
 161:..\..\..\arduinoLCD\test\Pain Drain\libraries\lvgl\src\core/lv_event.c **** 
 162:..\..\..\arduinoLCD\test\Pain Drain\libraries\lvgl\src\core/lv_event.c **** struct _lv_event_dsc_t * lv_obj_add_event_cb(lv_obj_t * obj, lv_event_cb_t event_cb, lv_event_code_
 163:..\..\..\arduinoLCD\test\Pain Drain\libraries\lvgl\src\core/lv_event.c ****                                              void * user_data)
 164:..\..\..\arduinoLCD\test\Pain Drain\libraries\lvgl\src\core/lv_event.c **** {
 165:..\..\..\arduinoLCD\test\Pain Drain\libraries\lvgl\src\core/lv_event.c ****     LV_ASSERT_OBJ(obj, MY_CLASS);
 166:..\..\..\arduinoLCD\test\Pain Drain\libraries\lvgl\src\core/lv_event.c ****     lv_obj_allocate_spec_attr(obj);
 167:..\..\..\arduinoLCD\test\Pain Drain\libraries\lvgl\src\core/lv_event.c **** 
 168:..\..\..\arduinoLCD\test\Pain Drain\libraries\lvgl\src\core/lv_event.c ****     obj->spec_attr->event_dsc_cnt++;
 169:..\..\..\arduinoLCD\test\Pain Drain\libraries\lvgl\src\core/lv_event.c ****     obj->spec_attr->event_dsc = lv_mem_realloc(obj->spec_attr->event_dsc,
 170:..\..\..\arduinoLCD\test\Pain Drain\libraries\lvgl\src\core/lv_event.c ****                                                obj->spec_attr->event_dsc_cnt * sizeof(lv_event_dsc_
 171:..\..\..\arduinoLCD\test\Pain Drain\libraries\lvgl\src\core/lv_event.c ****     LV_ASSERT_MALLOC(obj->spec_attr->event_dsc);
 172:..\..\..\arduinoLCD\test\Pain Drain\libraries\lvgl\src\core/lv_event.c **** 
 173:..\..\..\arduinoLCD\test\Pain Drain\libraries\lvgl\src\core/lv_event.c ****     obj->spec_attr->event_dsc[obj->spec_attr->event_dsc_cnt - 1].cb = event_cb;
 174:..\..\..\arduinoLCD\test\Pain Drain\libraries\lvgl\src\core/lv_event.c ****     obj->spec_attr->event_dsc[obj->spec_attr->event_dsc_cnt - 1].filter = filter;
 175:..\..\..\arduinoLCD\test\Pain Drain\libraries\lvgl\src\core/lv_event.c ****     obj->spec_attr->event_dsc[obj->spec_attr->event_dsc_cnt - 1].user_data = user_data;
 176:..\..\..\arduinoLCD\test\Pain Drain\libraries\lvgl\src\core/lv_event.c **** 
 177:..\..\..\arduinoLCD\test\Pain Drain\libraries\lvgl\src\core/lv_event.c ****     return &obj->spec_attr->event_dsc[obj->spec_attr->event_dsc_cnt - 1];
 178:..\..\..\arduinoLCD\test\Pain Drain\libraries\lvgl\src\core/lv_event.c **** }
 179:..\..\..\arduinoLCD\test\Pain Drain\libraries\lvgl\src\core/lv_event.c **** 
 180:..\..\..\arduinoLCD\test\Pain Drain\libraries\lvgl\src\core/lv_event.c **** bool lv_obj_remove_event_cb(lv_obj_t * obj, lv_event_cb_t event_cb)
 181:..\..\..\arduinoLCD\test\Pain Drain\libraries\lvgl\src\core/lv_event.c **** {
 182:..\..\..\arduinoLCD\test\Pain Drain\libraries\lvgl\src\core/lv_event.c ****     LV_ASSERT_OBJ(obj, MY_CLASS);
 183:..\..\..\arduinoLCD\test\Pain Drain\libraries\lvgl\src\core/lv_event.c ****     if(obj->spec_attr == NULL) return false;
 184:..\..\..\arduinoLCD\test\Pain Drain\libraries\lvgl\src\core/lv_event.c **** 
 185:..\..\..\arduinoLCD\test\Pain Drain\libraries\lvgl\src\core/lv_event.c ****     int32_t i = 0;
 186:..\..\..\arduinoLCD\test\Pain Drain\libraries\lvgl\src\core/lv_event.c ****     for(i = 0; i < obj->spec_attr->event_dsc_cnt; i++) {
 187:..\..\..\arduinoLCD\test\Pain Drain\libraries\lvgl\src\core/lv_event.c ****         if(event_cb == NULL || obj->spec_attr->event_dsc[i].cb == event_cb) {
 188:..\..\..\arduinoLCD\test\Pain Drain\libraries\lvgl\src\core/lv_event.c ****             /*Shift the remaining event handlers forward*/
 189:..\..\..\arduinoLCD\test\Pain Drain\libraries\lvgl\src\core/lv_event.c ****             for(; i < (obj->spec_attr->event_dsc_cnt - 1); i++) {
 190:..\..\..\arduinoLCD\test\Pain Drain\libraries\lvgl\src\core/lv_event.c ****                 obj->spec_attr->event_dsc[i] = obj->spec_attr->event_dsc[i + 1];
 191:..\..\..\arduinoLCD\test\Pain Drain\libraries\lvgl\src\core/lv_event.c ****             }
 192:..\..\..\arduinoLCD\test\Pain Drain\libraries\lvgl\src\core/lv_event.c ****             obj->spec_attr->event_dsc_cnt--;
 193:..\..\..\arduinoLCD\test\Pain Drain\libraries\lvgl\src\core/lv_event.c ****             obj->spec_attr->event_dsc = lv_mem_realloc(obj->spec_attr->event_dsc,
 194:..\..\..\arduinoLCD\test\Pain Drain\libraries\lvgl\src\core/lv_event.c ****                                                        obj->spec_attr->event_dsc_cnt * sizeof(lv_ev
 195:..\..\..\arduinoLCD\test\Pain Drain\libraries\lvgl\src\core/lv_event.c ****             LV_ASSERT_MALLOC(obj->spec_attr->event_dsc);
 196:..\..\..\arduinoLCD\test\Pain Drain\libraries\lvgl\src\core/lv_event.c ****             return true;
 197:..\..\..\arduinoLCD\test\Pain Drain\libraries\lvgl\src\core/lv_event.c ****         }
 198:..\..\..\arduinoLCD\test\Pain Drain\libraries\lvgl\src\core/lv_event.c ****     }
 199:..\..\..\arduinoLCD\test\Pain Drain\libraries\lvgl\src\core/lv_event.c **** 
 200:..\..\..\arduinoLCD\test\Pain Drain\libraries\lvgl\src\core/lv_event.c ****     /*No event handler found*/
 201:..\..\..\arduinoLCD\test\Pain Drain\libraries\lvgl\src\core/lv_event.c ****     return false;
ARM GAS  C:\Users\haske\AppData\Local\Temp\ccnNTYZ7.s 			page 5


 202:..\..\..\arduinoLCD\test\Pain Drain\libraries\lvgl\src\core/lv_event.c **** }
 203:..\..\..\arduinoLCD\test\Pain Drain\libraries\lvgl\src\core/lv_event.c **** 
 204:..\..\..\arduinoLCD\test\Pain Drain\libraries\lvgl\src\core/lv_event.c **** bool lv_obj_remove_event_cb_with_user_data(lv_obj_t * obj, lv_event_cb_t event_cb, const void * use
 205:..\..\..\arduinoLCD\test\Pain Drain\libraries\lvgl\src\core/lv_event.c **** {
 206:..\..\..\arduinoLCD\test\Pain Drain\libraries\lvgl\src\core/lv_event.c ****     LV_ASSERT_OBJ(obj, MY_CLASS);
 207:..\..\..\arduinoLCD\test\Pain Drain\libraries\lvgl\src\core/lv_event.c ****     if(obj->spec_attr == NULL) return false;
 208:..\..\..\arduinoLCD\test\Pain Drain\libraries\lvgl\src\core/lv_event.c **** 
 209:..\..\..\arduinoLCD\test\Pain Drain\libraries\lvgl\src\core/lv_event.c ****     int32_t i = 0;
 210:..\..\..\arduinoLCD\test\Pain Drain\libraries\lvgl\src\core/lv_event.c ****     for(i = 0; i < obj->spec_attr->event_dsc_cnt; i++) {
 211:..\..\..\arduinoLCD\test\Pain Drain\libraries\lvgl\src\core/lv_event.c ****         if((event_cb == NULL || obj->spec_attr->event_dsc[i].cb == event_cb) &&
 212:..\..\..\arduinoLCD\test\Pain Drain\libraries\lvgl\src\core/lv_event.c ****            obj->spec_attr->event_dsc[i].user_data == user_data) {
 213:..\..\..\arduinoLCD\test\Pain Drain\libraries\lvgl\src\core/lv_event.c ****             /*Shift the remaining event handlers forward*/
 214:..\..\..\arduinoLCD\test\Pain Drain\libraries\lvgl\src\core/lv_event.c ****             for(; i < (obj->spec_attr->event_dsc_cnt - 1); i++) {
 215:..\..\..\arduinoLCD\test\Pain Drain\libraries\lvgl\src\core/lv_event.c ****                 obj->spec_attr->event_dsc[i] = obj->spec_attr->event_dsc[i + 1];
 216:..\..\..\arduinoLCD\test\Pain Drain\libraries\lvgl\src\core/lv_event.c ****             }
 217:..\..\..\arduinoLCD\test\Pain Drain\libraries\lvgl\src\core/lv_event.c ****             obj->spec_attr->event_dsc_cnt--;
 218:..\..\..\arduinoLCD\test\Pain Drain\libraries\lvgl\src\core/lv_event.c ****             obj->spec_attr->event_dsc = lv_mem_realloc(obj->spec_attr->event_dsc,
 219:..\..\..\arduinoLCD\test\Pain Drain\libraries\lvgl\src\core/lv_event.c ****                                                        obj->spec_attr->event_dsc_cnt * sizeof(lv_ev
 220:..\..\..\arduinoLCD\test\Pain Drain\libraries\lvgl\src\core/lv_event.c ****             LV_ASSERT_MALLOC(obj->spec_attr->event_dsc);
 221:..\..\..\arduinoLCD\test\Pain Drain\libraries\lvgl\src\core/lv_event.c ****             return true;
 222:..\..\..\arduinoLCD\test\Pain Drain\libraries\lvgl\src\core/lv_event.c ****         }
 223:..\..\..\arduinoLCD\test\Pain Drain\libraries\lvgl\src\core/lv_event.c ****     }
 224:..\..\..\arduinoLCD\test\Pain Drain\libraries\lvgl\src\core/lv_event.c **** 
 225:..\..\..\arduinoLCD\test\Pain Drain\libraries\lvgl\src\core/lv_event.c ****     /*No event handler found*/
 226:..\..\..\arduinoLCD\test\Pain Drain\libraries\lvgl\src\core/lv_event.c ****     return false;
 227:..\..\..\arduinoLCD\test\Pain Drain\libraries\lvgl\src\core/lv_event.c **** }
 228:..\..\..\arduinoLCD\test\Pain Drain\libraries\lvgl\src\core/lv_event.c **** 
 229:..\..\..\arduinoLCD\test\Pain Drain\libraries\lvgl\src\core/lv_event.c **** 
 230:..\..\..\arduinoLCD\test\Pain Drain\libraries\lvgl\src\core/lv_event.c **** bool lv_obj_remove_event_dsc(lv_obj_t * obj, struct _lv_event_dsc_t * event_dsc)
 231:..\..\..\arduinoLCD\test\Pain Drain\libraries\lvgl\src\core/lv_event.c **** {
 232:..\..\..\arduinoLCD\test\Pain Drain\libraries\lvgl\src\core/lv_event.c ****     LV_ASSERT_OBJ(obj, MY_CLASS);
 233:..\..\..\arduinoLCD\test\Pain Drain\libraries\lvgl\src\core/lv_event.c ****     if(obj->spec_attr == NULL) return false;
 234:..\..\..\arduinoLCD\test\Pain Drain\libraries\lvgl\src\core/lv_event.c **** 
 235:..\..\..\arduinoLCD\test\Pain Drain\libraries\lvgl\src\core/lv_event.c ****     int32_t i = 0;
 236:..\..\..\arduinoLCD\test\Pain Drain\libraries\lvgl\src\core/lv_event.c ****     for(i = 0; i < obj->spec_attr->event_dsc_cnt; i++) {
 237:..\..\..\arduinoLCD\test\Pain Drain\libraries\lvgl\src\core/lv_event.c ****         if(&obj->spec_attr->event_dsc[i] == event_dsc) {
 238:..\..\..\arduinoLCD\test\Pain Drain\libraries\lvgl\src\core/lv_event.c ****             /*Shift the remaining event handlers forward*/
 239:..\..\..\arduinoLCD\test\Pain Drain\libraries\lvgl\src\core/lv_event.c ****             for(; i < (obj->spec_attr->event_dsc_cnt - 1); i++) {
 240:..\..\..\arduinoLCD\test\Pain Drain\libraries\lvgl\src\core/lv_event.c ****                 obj->spec_attr->event_dsc[i] = obj->spec_attr->event_dsc[i + 1];
 241:..\..\..\arduinoLCD\test\Pain Drain\libraries\lvgl\src\core/lv_event.c ****             }
 242:..\..\..\arduinoLCD\test\Pain Drain\libraries\lvgl\src\core/lv_event.c ****             obj->spec_attr->event_dsc_cnt--;
 243:..\..\..\arduinoLCD\test\Pain Drain\libraries\lvgl\src\core/lv_event.c ****             obj->spec_attr->event_dsc = lv_mem_realloc(obj->spec_attr->event_dsc,
 244:..\..\..\arduinoLCD\test\Pain Drain\libraries\lvgl\src\core/lv_event.c ****                                                        obj->spec_attr->event_dsc_cnt * sizeof(lv_ev
 245:..\..\..\arduinoLCD\test\Pain Drain\libraries\lvgl\src\core/lv_event.c ****             LV_ASSERT_MALLOC(obj->spec_attr->event_dsc);
 246:..\..\..\arduinoLCD\test\Pain Drain\libraries\lvgl\src\core/lv_event.c ****             return true;
 247:..\..\..\arduinoLCD\test\Pain Drain\libraries\lvgl\src\core/lv_event.c ****         }
 248:..\..\..\arduinoLCD\test\Pain Drain\libraries\lvgl\src\core/lv_event.c ****     }
 249:..\..\..\arduinoLCD\test\Pain Drain\libraries\lvgl\src\core/lv_event.c **** 
 250:..\..\..\arduinoLCD\test\Pain Drain\libraries\lvgl\src\core/lv_event.c ****     /*No event handler found*/
 251:..\..\..\arduinoLCD\test\Pain Drain\libraries\lvgl\src\core/lv_event.c ****     return false;
 252:..\..\..\arduinoLCD\test\Pain Drain\libraries\lvgl\src\core/lv_event.c **** }
 253:..\..\..\arduinoLCD\test\Pain Drain\libraries\lvgl\src\core/lv_event.c **** 
 254:..\..\..\arduinoLCD\test\Pain Drain\libraries\lvgl\src\core/lv_event.c **** void * lv_obj_get_event_user_data(struct _lv_obj_t * obj, lv_event_cb_t event_cb)
 255:..\..\..\arduinoLCD\test\Pain Drain\libraries\lvgl\src\core/lv_event.c **** {
 256:..\..\..\arduinoLCD\test\Pain Drain\libraries\lvgl\src\core/lv_event.c ****     LV_ASSERT_OBJ(obj, MY_CLASS);
 257:..\..\..\arduinoLCD\test\Pain Drain\libraries\lvgl\src\core/lv_event.c ****     if(obj->spec_attr == NULL) return NULL;
 258:..\..\..\arduinoLCD\test\Pain Drain\libraries\lvgl\src\core/lv_event.c **** 
ARM GAS  C:\Users\haske\AppData\Local\Temp\ccnNTYZ7.s 			page 6


 259:..\..\..\arduinoLCD\test\Pain Drain\libraries\lvgl\src\core/lv_event.c ****     int32_t i = 0;
 260:..\..\..\arduinoLCD\test\Pain Drain\libraries\lvgl\src\core/lv_event.c ****     for(i = 0; i < obj->spec_attr->event_dsc_cnt; i++) {
 261:..\..\..\arduinoLCD\test\Pain Drain\libraries\lvgl\src\core/lv_event.c ****         if(event_cb == obj->spec_attr->event_dsc[i].cb) return obj->spec_attr->event_dsc[i].user_da
 262:..\..\..\arduinoLCD\test\Pain Drain\libraries\lvgl\src\core/lv_event.c ****     }
 263:..\..\..\arduinoLCD\test\Pain Drain\libraries\lvgl\src\core/lv_event.c ****     return NULL;
 264:..\..\..\arduinoLCD\test\Pain Drain\libraries\lvgl\src\core/lv_event.c **** }
 265:..\..\..\arduinoLCD\test\Pain Drain\libraries\lvgl\src\core/lv_event.c **** 
 266:..\..\..\arduinoLCD\test\Pain Drain\libraries\lvgl\src\core/lv_event.c **** lv_indev_t * lv_event_get_indev(lv_event_t * e)
 267:..\..\..\arduinoLCD\test\Pain Drain\libraries\lvgl\src\core/lv_event.c **** {
 268:..\..\..\arduinoLCD\test\Pain Drain\libraries\lvgl\src\core/lv_event.c **** 
 269:..\..\..\arduinoLCD\test\Pain Drain\libraries\lvgl\src\core/lv_event.c ****     if(e->code == LV_EVENT_PRESSED ||
 270:..\..\..\arduinoLCD\test\Pain Drain\libraries\lvgl\src\core/lv_event.c ****        e->code == LV_EVENT_PRESSING ||
 271:..\..\..\arduinoLCD\test\Pain Drain\libraries\lvgl\src\core/lv_event.c ****        e->code == LV_EVENT_PRESS_LOST ||
 272:..\..\..\arduinoLCD\test\Pain Drain\libraries\lvgl\src\core/lv_event.c ****        e->code == LV_EVENT_SHORT_CLICKED ||
 273:..\..\..\arduinoLCD\test\Pain Drain\libraries\lvgl\src\core/lv_event.c ****        e->code == LV_EVENT_LONG_PRESSED ||
 274:..\..\..\arduinoLCD\test\Pain Drain\libraries\lvgl\src\core/lv_event.c ****        e->code == LV_EVENT_LONG_PRESSED_REPEAT ||
 275:..\..\..\arduinoLCD\test\Pain Drain\libraries\lvgl\src\core/lv_event.c ****        e->code == LV_EVENT_CLICKED ||
 276:..\..\..\arduinoLCD\test\Pain Drain\libraries\lvgl\src\core/lv_event.c ****        e->code == LV_EVENT_RELEASED ||
 277:..\..\..\arduinoLCD\test\Pain Drain\libraries\lvgl\src\core/lv_event.c ****        e->code == LV_EVENT_SCROLL_BEGIN ||
 278:..\..\..\arduinoLCD\test\Pain Drain\libraries\lvgl\src\core/lv_event.c ****        e->code == LV_EVENT_SCROLL_END ||
 279:..\..\..\arduinoLCD\test\Pain Drain\libraries\lvgl\src\core/lv_event.c ****        e->code == LV_EVENT_SCROLL ||
 280:..\..\..\arduinoLCD\test\Pain Drain\libraries\lvgl\src\core/lv_event.c ****        e->code == LV_EVENT_GESTURE ||
 281:..\..\..\arduinoLCD\test\Pain Drain\libraries\lvgl\src\core/lv_event.c ****        e->code == LV_EVENT_KEY ||
 282:..\..\..\arduinoLCD\test\Pain Drain\libraries\lvgl\src\core/lv_event.c ****        e->code == LV_EVENT_FOCUSED ||
 283:..\..\..\arduinoLCD\test\Pain Drain\libraries\lvgl\src\core/lv_event.c ****        e->code == LV_EVENT_DEFOCUSED ||
 284:..\..\..\arduinoLCD\test\Pain Drain\libraries\lvgl\src\core/lv_event.c ****        e->code == LV_EVENT_LEAVE) {
 285:..\..\..\arduinoLCD\test\Pain Drain\libraries\lvgl\src\core/lv_event.c ****         return lv_event_get_param(e);
 286:..\..\..\arduinoLCD\test\Pain Drain\libraries\lvgl\src\core/lv_event.c ****     }
 287:..\..\..\arduinoLCD\test\Pain Drain\libraries\lvgl\src\core/lv_event.c ****     else {
 288:..\..\..\arduinoLCD\test\Pain Drain\libraries\lvgl\src\core/lv_event.c ****         LV_LOG_WARN("Not interpreted with this event code");
 289:..\..\..\arduinoLCD\test\Pain Drain\libraries\lvgl\src\core/lv_event.c ****         return NULL;
 290:..\..\..\arduinoLCD\test\Pain Drain\libraries\lvgl\src\core/lv_event.c ****     }
 291:..\..\..\arduinoLCD\test\Pain Drain\libraries\lvgl\src\core/lv_event.c **** }
 292:..\..\..\arduinoLCD\test\Pain Drain\libraries\lvgl\src\core/lv_event.c **** 
 293:..\..\..\arduinoLCD\test\Pain Drain\libraries\lvgl\src\core/lv_event.c **** lv_obj_draw_part_dsc_t * lv_event_get_draw_part_dsc(lv_event_t * e)
 294:..\..\..\arduinoLCD\test\Pain Drain\libraries\lvgl\src\core/lv_event.c **** {
 295:..\..\..\arduinoLCD\test\Pain Drain\libraries\lvgl\src\core/lv_event.c ****     if(e->code == LV_EVENT_DRAW_PART_BEGIN ||
 296:..\..\..\arduinoLCD\test\Pain Drain\libraries\lvgl\src\core/lv_event.c ****        e->code == LV_EVENT_DRAW_PART_END) {
 297:..\..\..\arduinoLCD\test\Pain Drain\libraries\lvgl\src\core/lv_event.c ****         return lv_event_get_param(e);
 298:..\..\..\arduinoLCD\test\Pain Drain\libraries\lvgl\src\core/lv_event.c ****     }
 299:..\..\..\arduinoLCD\test\Pain Drain\libraries\lvgl\src\core/lv_event.c ****     else {
 300:..\..\..\arduinoLCD\test\Pain Drain\libraries\lvgl\src\core/lv_event.c ****         LV_LOG_WARN("Not interpreted with this event code");
 301:..\..\..\arduinoLCD\test\Pain Drain\libraries\lvgl\src\core/lv_event.c ****         return NULL;
 302:..\..\..\arduinoLCD\test\Pain Drain\libraries\lvgl\src\core/lv_event.c ****     }
 303:..\..\..\arduinoLCD\test\Pain Drain\libraries\lvgl\src\core/lv_event.c **** }
 304:..\..\..\arduinoLCD\test\Pain Drain\libraries\lvgl\src\core/lv_event.c **** 
 305:..\..\..\arduinoLCD\test\Pain Drain\libraries\lvgl\src\core/lv_event.c **** lv_draw_ctx_t * lv_event_get_draw_ctx(lv_event_t * e)
 306:..\..\..\arduinoLCD\test\Pain Drain\libraries\lvgl\src\core/lv_event.c **** {
 307:..\..\..\arduinoLCD\test\Pain Drain\libraries\lvgl\src\core/lv_event.c ****     if(e->code == LV_EVENT_DRAW_MAIN ||
 308:..\..\..\arduinoLCD\test\Pain Drain\libraries\lvgl\src\core/lv_event.c ****        e->code == LV_EVENT_DRAW_MAIN_BEGIN ||
 309:..\..\..\arduinoLCD\test\Pain Drain\libraries\lvgl\src\core/lv_event.c ****        e->code == LV_EVENT_DRAW_MAIN_END ||
 310:..\..\..\arduinoLCD\test\Pain Drain\libraries\lvgl\src\core/lv_event.c ****        e->code == LV_EVENT_DRAW_POST ||
 311:..\..\..\arduinoLCD\test\Pain Drain\libraries\lvgl\src\core/lv_event.c ****        e->code == LV_EVENT_DRAW_POST_BEGIN ||
 312:..\..\..\arduinoLCD\test\Pain Drain\libraries\lvgl\src\core/lv_event.c ****        e->code == LV_EVENT_DRAW_POST_END) {
 313:..\..\..\arduinoLCD\test\Pain Drain\libraries\lvgl\src\core/lv_event.c ****         return lv_event_get_param(e);
 314:..\..\..\arduinoLCD\test\Pain Drain\libraries\lvgl\src\core/lv_event.c ****     }
 315:..\..\..\arduinoLCD\test\Pain Drain\libraries\lvgl\src\core/lv_event.c ****     else {
ARM GAS  C:\Users\haske\AppData\Local\Temp\ccnNTYZ7.s 			page 7


 316:..\..\..\arduinoLCD\test\Pain Drain\libraries\lvgl\src\core/lv_event.c ****         LV_LOG_WARN("Not interpreted with this event code");
 317:..\..\..\arduinoLCD\test\Pain Drain\libraries\lvgl\src\core/lv_event.c ****         return NULL;
 318:..\..\..\arduinoLCD\test\Pain Drain\libraries\lvgl\src\core/lv_event.c ****     }
 319:..\..\..\arduinoLCD\test\Pain Drain\libraries\lvgl\src\core/lv_event.c **** }
 320:..\..\..\arduinoLCD\test\Pain Drain\libraries\lvgl\src\core/lv_event.c **** 
 321:..\..\..\arduinoLCD\test\Pain Drain\libraries\lvgl\src\core/lv_event.c **** const lv_area_t * lv_event_get_old_size(lv_event_t * e)
 322:..\..\..\arduinoLCD\test\Pain Drain\libraries\lvgl\src\core/lv_event.c **** {
 323:..\..\..\arduinoLCD\test\Pain Drain\libraries\lvgl\src\core/lv_event.c ****     if(e->code == LV_EVENT_SIZE_CHANGED) {
 324:..\..\..\arduinoLCD\test\Pain Drain\libraries\lvgl\src\core/lv_event.c ****         return lv_event_get_param(e);
 325:..\..\..\arduinoLCD\test\Pain Drain\libraries\lvgl\src\core/lv_event.c ****     }
 326:..\..\..\arduinoLCD\test\Pain Drain\libraries\lvgl\src\core/lv_event.c ****     else {
 327:..\..\..\arduinoLCD\test\Pain Drain\libraries\lvgl\src\core/lv_event.c ****         LV_LOG_WARN("Not interpreted with this event code");
 328:..\..\..\arduinoLCD\test\Pain Drain\libraries\lvgl\src\core/lv_event.c ****         return NULL;
 329:..\..\..\arduinoLCD\test\Pain Drain\libraries\lvgl\src\core/lv_event.c ****     }
 330:..\..\..\arduinoLCD\test\Pain Drain\libraries\lvgl\src\core/lv_event.c **** }
 331:..\..\..\arduinoLCD\test\Pain Drain\libraries\lvgl\src\core/lv_event.c **** 
 332:..\..\..\arduinoLCD\test\Pain Drain\libraries\lvgl\src\core/lv_event.c **** uint32_t lv_event_get_key(lv_event_t * e)
 333:..\..\..\arduinoLCD\test\Pain Drain\libraries\lvgl\src\core/lv_event.c **** {
 334:..\..\..\arduinoLCD\test\Pain Drain\libraries\lvgl\src\core/lv_event.c ****     if(e->code == LV_EVENT_KEY) {
 335:..\..\..\arduinoLCD\test\Pain Drain\libraries\lvgl\src\core/lv_event.c ****         uint32_t * k = lv_event_get_param(e);
 336:..\..\..\arduinoLCD\test\Pain Drain\libraries\lvgl\src\core/lv_event.c ****         if(k) return *k;
 337:..\..\..\arduinoLCD\test\Pain Drain\libraries\lvgl\src\core/lv_event.c ****         else return 0;
 338:..\..\..\arduinoLCD\test\Pain Drain\libraries\lvgl\src\core/lv_event.c ****     }
 339:..\..\..\arduinoLCD\test\Pain Drain\libraries\lvgl\src\core/lv_event.c ****     else {
 340:..\..\..\arduinoLCD\test\Pain Drain\libraries\lvgl\src\core/lv_event.c ****         LV_LOG_WARN("Not interpreted with this event code");
 341:..\..\..\arduinoLCD\test\Pain Drain\libraries\lvgl\src\core/lv_event.c ****         return 0;
 342:..\..\..\arduinoLCD\test\Pain Drain\libraries\lvgl\src\core/lv_event.c ****     }
 343:..\..\..\arduinoLCD\test\Pain Drain\libraries\lvgl\src\core/lv_event.c **** }
 344:..\..\..\arduinoLCD\test\Pain Drain\libraries\lvgl\src\core/lv_event.c **** 
 345:..\..\..\arduinoLCD\test\Pain Drain\libraries\lvgl\src\core/lv_event.c **** lv_anim_t * lv_event_get_scroll_anim(lv_event_t * e)
 346:..\..\..\arduinoLCD\test\Pain Drain\libraries\lvgl\src\core/lv_event.c **** {
 347:..\..\..\arduinoLCD\test\Pain Drain\libraries\lvgl\src\core/lv_event.c ****     if(e->code == LV_EVENT_SCROLL_BEGIN) {
 348:..\..\..\arduinoLCD\test\Pain Drain\libraries\lvgl\src\core/lv_event.c ****         return lv_event_get_param(e);
 349:..\..\..\arduinoLCD\test\Pain Drain\libraries\lvgl\src\core/lv_event.c ****     }
 350:..\..\..\arduinoLCD\test\Pain Drain\libraries\lvgl\src\core/lv_event.c ****     else {
 351:..\..\..\arduinoLCD\test\Pain Drain\libraries\lvgl\src\core/lv_event.c ****         LV_LOG_WARN("Not interpreted with this event code");
 352:..\..\..\arduinoLCD\test\Pain Drain\libraries\lvgl\src\core/lv_event.c ****         return 0;
 353:..\..\..\arduinoLCD\test\Pain Drain\libraries\lvgl\src\core/lv_event.c ****     }
 354:..\..\..\arduinoLCD\test\Pain Drain\libraries\lvgl\src\core/lv_event.c **** }
 355:..\..\..\arduinoLCD\test\Pain Drain\libraries\lvgl\src\core/lv_event.c **** 
 356:..\..\..\arduinoLCD\test\Pain Drain\libraries\lvgl\src\core/lv_event.c **** void lv_event_set_ext_draw_size(lv_event_t * e, lv_coord_t size)
 357:..\..\..\arduinoLCD\test\Pain Drain\libraries\lvgl\src\core/lv_event.c **** {
 358:..\..\..\arduinoLCD\test\Pain Drain\libraries\lvgl\src\core/lv_event.c ****     if(e->code == LV_EVENT_REFR_EXT_DRAW_SIZE) {
 359:..\..\..\arduinoLCD\test\Pain Drain\libraries\lvgl\src\core/lv_event.c ****         lv_coord_t * cur_size = lv_event_get_param(e);
 360:..\..\..\arduinoLCD\test\Pain Drain\libraries\lvgl\src\core/lv_event.c ****         *cur_size = LV_MAX(*cur_size, size);
 361:..\..\..\arduinoLCD\test\Pain Drain\libraries\lvgl\src\core/lv_event.c ****     }
 362:..\..\..\arduinoLCD\test\Pain Drain\libraries\lvgl\src\core/lv_event.c ****     else {
 363:..\..\..\arduinoLCD\test\Pain Drain\libraries\lvgl\src\core/lv_event.c ****         LV_LOG_WARN("Not interpreted with this event code");
 364:..\..\..\arduinoLCD\test\Pain Drain\libraries\lvgl\src\core/lv_event.c ****     }
 365:..\..\..\arduinoLCD\test\Pain Drain\libraries\lvgl\src\core/lv_event.c **** }
 366:..\..\..\arduinoLCD\test\Pain Drain\libraries\lvgl\src\core/lv_event.c **** 
 367:..\..\..\arduinoLCD\test\Pain Drain\libraries\lvgl\src\core/lv_event.c **** lv_point_t * lv_event_get_self_size_info(lv_event_t * e)
 368:..\..\..\arduinoLCD\test\Pain Drain\libraries\lvgl\src\core/lv_event.c **** {
 369:..\..\..\arduinoLCD\test\Pain Drain\libraries\lvgl\src\core/lv_event.c ****     if(e->code == LV_EVENT_GET_SELF_SIZE) {
 370:..\..\..\arduinoLCD\test\Pain Drain\libraries\lvgl\src\core/lv_event.c ****         return lv_event_get_param(e);
 371:..\..\..\arduinoLCD\test\Pain Drain\libraries\lvgl\src\core/lv_event.c ****     }
 372:..\..\..\arduinoLCD\test\Pain Drain\libraries\lvgl\src\core/lv_event.c ****     else {
ARM GAS  C:\Users\haske\AppData\Local\Temp\ccnNTYZ7.s 			page 8


 373:..\..\..\arduinoLCD\test\Pain Drain\libraries\lvgl\src\core/lv_event.c ****         LV_LOG_WARN("Not interpreted with this event code");
 374:..\..\..\arduinoLCD\test\Pain Drain\libraries\lvgl\src\core/lv_event.c ****         return 0;
 375:..\..\..\arduinoLCD\test\Pain Drain\libraries\lvgl\src\core/lv_event.c ****     }
 376:..\..\..\arduinoLCD\test\Pain Drain\libraries\lvgl\src\core/lv_event.c **** }
 377:..\..\..\arduinoLCD\test\Pain Drain\libraries\lvgl\src\core/lv_event.c **** 
 378:..\..\..\arduinoLCD\test\Pain Drain\libraries\lvgl\src\core/lv_event.c **** lv_hit_test_info_t * lv_event_get_hit_test_info(lv_event_t * e)
 379:..\..\..\arduinoLCD\test\Pain Drain\libraries\lvgl\src\core/lv_event.c **** {
 380:..\..\..\arduinoLCD\test\Pain Drain\libraries\lvgl\src\core/lv_event.c ****     if(e->code == LV_EVENT_HIT_TEST) {
 381:..\..\..\arduinoLCD\test\Pain Drain\libraries\lvgl\src\core/lv_event.c ****         return lv_event_get_param(e);
 382:..\..\..\arduinoLCD\test\Pain Drain\libraries\lvgl\src\core/lv_event.c ****     }
 383:..\..\..\arduinoLCD\test\Pain Drain\libraries\lvgl\src\core/lv_event.c ****     else {
 384:..\..\..\arduinoLCD\test\Pain Drain\libraries\lvgl\src\core/lv_event.c ****         LV_LOG_WARN("Not interpreted with this event code");
 385:..\..\..\arduinoLCD\test\Pain Drain\libraries\lvgl\src\core/lv_event.c ****         return 0;
 386:..\..\..\arduinoLCD\test\Pain Drain\libraries\lvgl\src\core/lv_event.c ****     }
 387:..\..\..\arduinoLCD\test\Pain Drain\libraries\lvgl\src\core/lv_event.c **** }
 388:..\..\..\arduinoLCD\test\Pain Drain\libraries\lvgl\src\core/lv_event.c **** 
 389:..\..\..\arduinoLCD\test\Pain Drain\libraries\lvgl\src\core/lv_event.c **** const lv_area_t * lv_event_get_cover_area(lv_event_t * e)
 390:..\..\..\arduinoLCD\test\Pain Drain\libraries\lvgl\src\core/lv_event.c **** {
 391:..\..\..\arduinoLCD\test\Pain Drain\libraries\lvgl\src\core/lv_event.c ****     if(e->code == LV_EVENT_COVER_CHECK) {
 392:..\..\..\arduinoLCD\test\Pain Drain\libraries\lvgl\src\core/lv_event.c ****         lv_cover_check_info_t * p = lv_event_get_param(e);
 393:..\..\..\arduinoLCD\test\Pain Drain\libraries\lvgl\src\core/lv_event.c ****         return p->area;
 394:..\..\..\arduinoLCD\test\Pain Drain\libraries\lvgl\src\core/lv_event.c ****     }
 395:..\..\..\arduinoLCD\test\Pain Drain\libraries\lvgl\src\core/lv_event.c ****     else {
 396:..\..\..\arduinoLCD\test\Pain Drain\libraries\lvgl\src\core/lv_event.c ****         LV_LOG_WARN("Not interpreted with this event code");
 397:..\..\..\arduinoLCD\test\Pain Drain\libraries\lvgl\src\core/lv_event.c ****         return NULL;
 398:..\..\..\arduinoLCD\test\Pain Drain\libraries\lvgl\src\core/lv_event.c ****     }
 399:..\..\..\arduinoLCD\test\Pain Drain\libraries\lvgl\src\core/lv_event.c **** }
 400:..\..\..\arduinoLCD\test\Pain Drain\libraries\lvgl\src\core/lv_event.c **** 
 401:..\..\..\arduinoLCD\test\Pain Drain\libraries\lvgl\src\core/lv_event.c **** void lv_event_set_cover_res(lv_event_t * e, lv_cover_res_t res)
 402:..\..\..\arduinoLCD\test\Pain Drain\libraries\lvgl\src\core/lv_event.c **** {
 403:..\..\..\arduinoLCD\test\Pain Drain\libraries\lvgl\src\core/lv_event.c ****     if(e->code == LV_EVENT_COVER_CHECK) {
 404:..\..\..\arduinoLCD\test\Pain Drain\libraries\lvgl\src\core/lv_event.c ****         lv_cover_check_info_t * p = lv_event_get_param(e);
 405:..\..\..\arduinoLCD\test\Pain Drain\libraries\lvgl\src\core/lv_event.c ****         if(res > p->res) p->res = res;  /*Save only "stronger" results*/
 406:..\..\..\arduinoLCD\test\Pain Drain\libraries\lvgl\src\core/lv_event.c ****     }
 407:..\..\..\arduinoLCD\test\Pain Drain\libraries\lvgl\src\core/lv_event.c ****     else {
 408:..\..\..\arduinoLCD\test\Pain Drain\libraries\lvgl\src\core/lv_event.c ****         LV_LOG_WARN("Not interpreted with this event code");
 409:..\..\..\arduinoLCD\test\Pain Drain\libraries\lvgl\src\core/lv_event.c ****     }
 410:..\..\..\arduinoLCD\test\Pain Drain\libraries\lvgl\src\core/lv_event.c **** }
 411:..\..\..\arduinoLCD\test\Pain Drain\libraries\lvgl\src\core/lv_event.c **** 
 412:..\..\..\arduinoLCD\test\Pain Drain\libraries\lvgl\src\core/lv_event.c **** /**********************
 413:..\..\..\arduinoLCD\test\Pain Drain\libraries\lvgl\src\core/lv_event.c ****  *   STATIC FUNCTIONS
 414:..\..\..\arduinoLCD\test\Pain Drain\libraries\lvgl\src\core/lv_event.c ****  **********************/
 415:..\..\..\arduinoLCD\test\Pain Drain\libraries\lvgl\src\core/lv_event.c **** 
 416:..\..\..\arduinoLCD\test\Pain Drain\libraries\lvgl\src\core/lv_event.c **** static lv_event_dsc_t * lv_obj_get_event_dsc(const lv_obj_t * obj, uint32_t id)
 417:..\..\..\arduinoLCD\test\Pain Drain\libraries\lvgl\src\core/lv_event.c **** {
  28              		.loc 1 417 0
  29              		.cfi_startproc
  30              		@ args = 0, pretend = 0, frame = 0
  31              		@ frame_needed = 0, uses_anonymous_args = 0
  32              		@ link register save eliminated.
  33              	.LVL0:
 418:..\..\..\arduinoLCD\test\Pain Drain\libraries\lvgl\src\core/lv_event.c ****     LV_ASSERT_OBJ(obj, MY_CLASS);
 419:..\..\..\arduinoLCD\test\Pain Drain\libraries\lvgl\src\core/lv_event.c **** 
 420:..\..\..\arduinoLCD\test\Pain Drain\libraries\lvgl\src\core/lv_event.c ****     if(!obj->spec_attr) return NULL;
  34              		.loc 1 420 0
  35 0000 8268     		ldr	r2, [r0, #8]
  36 0002 52B1     		cbz	r2, .L3
ARM GAS  C:\Users\haske\AppData\Local\Temp\ccnNTYZ7.s 			page 9


 421:..\..\..\arduinoLCD\test\Pain Drain\libraries\lvgl\src\core/lv_event.c ****     if(id >= obj->spec_attr->event_dsc_cnt) return NULL;
  37              		.loc 1 421 0
  38 0004 937E     		ldrb	r3, [r2, #26]	@ zero_extendqisi2
  39 0006 03F03F03 		and	r3, r3, #63
  40 000a 8B42     		cmp	r3, r1
  41 000c 07D9     		bls	.L4
 422:..\..\..\arduinoLCD\test\Pain Drain\libraries\lvgl\src\core/lv_event.c **** 
 423:..\..\..\arduinoLCD\test\Pain Drain\libraries\lvgl\src\core/lv_event.c ****     return &obj->spec_attr->event_dsc[id];
  42              		.loc 1 423 0
  43 000e D068     		ldr	r0, [r2, #12]
  44              	.LVL1:
  45 0010 01EB4101 		add	r1, r1, r1, lsl #1
  46              	.LVL2:
  47 0014 8B00     		lsls	r3, r1, #2
  48 0016 1844     		add	r0, r0, r3
  49 0018 7047     		bx	lr
  50              	.LVL3:
  51              	.L3:
 420:..\..\..\arduinoLCD\test\Pain Drain\libraries\lvgl\src\core/lv_event.c ****     if(id >= obj->spec_attr->event_dsc_cnt) return NULL;
  52              		.loc 1 420 0
  53 001a 0020     		movs	r0, #0
  54              	.LVL4:
  55 001c 7047     		bx	lr
  56              	.LVL5:
  57              	.L4:
 421:..\..\..\arduinoLCD\test\Pain Drain\libraries\lvgl\src\core/lv_event.c ****     if(id >= obj->spec_attr->event_dsc_cnt) return NULL;
  58              		.loc 1 421 0
  59 001e 0020     		movs	r0, #0
  60              	.LVL6:
 424:..\..\..\arduinoLCD\test\Pain Drain\libraries\lvgl\src\core/lv_event.c **** }
  61              		.loc 1 424 0
  62 0020 7047     		bx	lr
  63              		.cfi_endproc
  64              	.LFE186:
  65              		.size	lv_obj_get_event_dsc, .-lv_obj_get_event_dsc
  66 0022 00BF     		.section	.text.event_is_bubbled,"ax",%progbits
  67              		.align	2
  68              		.thumb
  69              		.thumb_func
  70              		.type	event_is_bubbled, %function
  71              	event_is_bubbled:
  72              	.LFB188:
 425:..\..\..\arduinoLCD\test\Pain Drain\libraries\lvgl\src\core/lv_event.c **** 
 426:..\..\..\arduinoLCD\test\Pain Drain\libraries\lvgl\src\core/lv_event.c **** static lv_res_t event_send_core(lv_event_t * e)
 427:..\..\..\arduinoLCD\test\Pain Drain\libraries\lvgl\src\core/lv_event.c **** {
 428:..\..\..\arduinoLCD\test\Pain Drain\libraries\lvgl\src\core/lv_event.c ****     EVENT_TRACE("Sending event %d to %p with %p param", e->code, (void *)e->current_target, e->para
 429:..\..\..\arduinoLCD\test\Pain Drain\libraries\lvgl\src\core/lv_event.c **** 
 430:..\..\..\arduinoLCD\test\Pain Drain\libraries\lvgl\src\core/lv_event.c ****     /*Call the input device's feedback callback if set*/
 431:..\..\..\arduinoLCD\test\Pain Drain\libraries\lvgl\src\core/lv_event.c ****     lv_indev_t * indev_act = lv_indev_get_act();
 432:..\..\..\arduinoLCD\test\Pain Drain\libraries\lvgl\src\core/lv_event.c ****     if(indev_act) {
 433:..\..\..\arduinoLCD\test\Pain Drain\libraries\lvgl\src\core/lv_event.c ****         if(indev_act->driver->feedback_cb) indev_act->driver->feedback_cb(indev_act->driver, e->cod
 434:..\..\..\arduinoLCD\test\Pain Drain\libraries\lvgl\src\core/lv_event.c ****         if(e->stop_processing) return LV_RES_OK;
 435:..\..\..\arduinoLCD\test\Pain Drain\libraries\lvgl\src\core/lv_event.c ****         if(e->deleted) return LV_RES_INV;
 436:..\..\..\arduinoLCD\test\Pain Drain\libraries\lvgl\src\core/lv_event.c ****     }
 437:..\..\..\arduinoLCD\test\Pain Drain\libraries\lvgl\src\core/lv_event.c **** 
 438:..\..\..\arduinoLCD\test\Pain Drain\libraries\lvgl\src\core/lv_event.c ****     lv_res_t res = LV_RES_OK;
 439:..\..\..\arduinoLCD\test\Pain Drain\libraries\lvgl\src\core/lv_event.c ****     lv_event_dsc_t * event_dsc = lv_obj_get_event_dsc(e->current_target, 0);
ARM GAS  C:\Users\haske\AppData\Local\Temp\ccnNTYZ7.s 			page 10


 440:..\..\..\arduinoLCD\test\Pain Drain\libraries\lvgl\src\core/lv_event.c **** 
 441:..\..\..\arduinoLCD\test\Pain Drain\libraries\lvgl\src\core/lv_event.c ****     uint32_t i = 0;
 442:..\..\..\arduinoLCD\test\Pain Drain\libraries\lvgl\src\core/lv_event.c ****     while(event_dsc && res == LV_RES_OK) {
 443:..\..\..\arduinoLCD\test\Pain Drain\libraries\lvgl\src\core/lv_event.c ****         if(event_dsc->cb  && ((event_dsc->filter & LV_EVENT_PREPROCESS) == LV_EVENT_PREPROCESS)
 444:..\..\..\arduinoLCD\test\Pain Drain\libraries\lvgl\src\core/lv_event.c ****            && (event_dsc->filter == (LV_EVENT_ALL | LV_EVENT_PREPROCESS) ||
 445:..\..\..\arduinoLCD\test\Pain Drain\libraries\lvgl\src\core/lv_event.c ****                (event_dsc->filter & ~LV_EVENT_PREPROCESS) == e->code)) {
 446:..\..\..\arduinoLCD\test\Pain Drain\libraries\lvgl\src\core/lv_event.c ****             e->user_data = event_dsc->user_data;
 447:..\..\..\arduinoLCD\test\Pain Drain\libraries\lvgl\src\core/lv_event.c ****             event_dsc->cb(e);
 448:..\..\..\arduinoLCD\test\Pain Drain\libraries\lvgl\src\core/lv_event.c **** 
 449:..\..\..\arduinoLCD\test\Pain Drain\libraries\lvgl\src\core/lv_event.c ****             if(e->stop_processing) return LV_RES_OK;
 450:..\..\..\arduinoLCD\test\Pain Drain\libraries\lvgl\src\core/lv_event.c ****             /*Stop if the object is deleted*/
 451:..\..\..\arduinoLCD\test\Pain Drain\libraries\lvgl\src\core/lv_event.c ****             if(e->deleted) return LV_RES_INV;
 452:..\..\..\arduinoLCD\test\Pain Drain\libraries\lvgl\src\core/lv_event.c ****         }
 453:..\..\..\arduinoLCD\test\Pain Drain\libraries\lvgl\src\core/lv_event.c **** 
 454:..\..\..\arduinoLCD\test\Pain Drain\libraries\lvgl\src\core/lv_event.c ****         i++;
 455:..\..\..\arduinoLCD\test\Pain Drain\libraries\lvgl\src\core/lv_event.c ****         event_dsc = lv_obj_get_event_dsc(e->current_target, i);
 456:..\..\..\arduinoLCD\test\Pain Drain\libraries\lvgl\src\core/lv_event.c ****     }
 457:..\..\..\arduinoLCD\test\Pain Drain\libraries\lvgl\src\core/lv_event.c **** 
 458:..\..\..\arduinoLCD\test\Pain Drain\libraries\lvgl\src\core/lv_event.c ****     res = lv_obj_event_base(NULL, e);
 459:..\..\..\arduinoLCD\test\Pain Drain\libraries\lvgl\src\core/lv_event.c **** 
 460:..\..\..\arduinoLCD\test\Pain Drain\libraries\lvgl\src\core/lv_event.c ****     event_dsc = res == LV_RES_INV ? NULL : lv_obj_get_event_dsc(e->current_target, 0);
 461:..\..\..\arduinoLCD\test\Pain Drain\libraries\lvgl\src\core/lv_event.c **** 
 462:..\..\..\arduinoLCD\test\Pain Drain\libraries\lvgl\src\core/lv_event.c ****     i = 0;
 463:..\..\..\arduinoLCD\test\Pain Drain\libraries\lvgl\src\core/lv_event.c ****     while(event_dsc && res == LV_RES_OK) {
 464:..\..\..\arduinoLCD\test\Pain Drain\libraries\lvgl\src\core/lv_event.c ****         if(event_dsc->cb && ((event_dsc->filter & LV_EVENT_PREPROCESS) == 0)
 465:..\..\..\arduinoLCD\test\Pain Drain\libraries\lvgl\src\core/lv_event.c ****            && (event_dsc->filter == LV_EVENT_ALL || event_dsc->filter == e->code)) {
 466:..\..\..\arduinoLCD\test\Pain Drain\libraries\lvgl\src\core/lv_event.c ****             e->user_data = event_dsc->user_data;
 467:..\..\..\arduinoLCD\test\Pain Drain\libraries\lvgl\src\core/lv_event.c ****             event_dsc->cb(e);
 468:..\..\..\arduinoLCD\test\Pain Drain\libraries\lvgl\src\core/lv_event.c **** 
 469:..\..\..\arduinoLCD\test\Pain Drain\libraries\lvgl\src\core/lv_event.c ****             if(e->stop_processing) return LV_RES_OK;
 470:..\..\..\arduinoLCD\test\Pain Drain\libraries\lvgl\src\core/lv_event.c ****             /*Stop if the object is deleted*/
 471:..\..\..\arduinoLCD\test\Pain Drain\libraries\lvgl\src\core/lv_event.c ****             if(e->deleted) return LV_RES_INV;
 472:..\..\..\arduinoLCD\test\Pain Drain\libraries\lvgl\src\core/lv_event.c ****         }
 473:..\..\..\arduinoLCD\test\Pain Drain\libraries\lvgl\src\core/lv_event.c **** 
 474:..\..\..\arduinoLCD\test\Pain Drain\libraries\lvgl\src\core/lv_event.c ****         i++;
 475:..\..\..\arduinoLCD\test\Pain Drain\libraries\lvgl\src\core/lv_event.c ****         event_dsc = lv_obj_get_event_dsc(e->current_target, i);
 476:..\..\..\arduinoLCD\test\Pain Drain\libraries\lvgl\src\core/lv_event.c ****     }
 477:..\..\..\arduinoLCD\test\Pain Drain\libraries\lvgl\src\core/lv_event.c **** 
 478:..\..\..\arduinoLCD\test\Pain Drain\libraries\lvgl\src\core/lv_event.c ****     if(res == LV_RES_OK && e->current_target->parent && event_is_bubbled(e)) {
 479:..\..\..\arduinoLCD\test\Pain Drain\libraries\lvgl\src\core/lv_event.c ****         e->current_target = e->current_target->parent;
 480:..\..\..\arduinoLCD\test\Pain Drain\libraries\lvgl\src\core/lv_event.c ****         res = event_send_core(e);
 481:..\..\..\arduinoLCD\test\Pain Drain\libraries\lvgl\src\core/lv_event.c ****         if(res != LV_RES_OK) return LV_RES_INV;
 482:..\..\..\arduinoLCD\test\Pain Drain\libraries\lvgl\src\core/lv_event.c ****     }
 483:..\..\..\arduinoLCD\test\Pain Drain\libraries\lvgl\src\core/lv_event.c **** 
 484:..\..\..\arduinoLCD\test\Pain Drain\libraries\lvgl\src\core/lv_event.c ****     return res;
 485:..\..\..\arduinoLCD\test\Pain Drain\libraries\lvgl\src\core/lv_event.c **** }
 486:..\..\..\arduinoLCD\test\Pain Drain\libraries\lvgl\src\core/lv_event.c **** 
 487:..\..\..\arduinoLCD\test\Pain Drain\libraries\lvgl\src\core/lv_event.c **** static bool event_is_bubbled(lv_event_t * e)
 488:..\..\..\arduinoLCD\test\Pain Drain\libraries\lvgl\src\core/lv_event.c **** {
  73              		.loc 1 488 0
  74              		.cfi_startproc
  75              		@ args = 0, pretend = 0, frame = 0
  76              		@ frame_needed = 0, uses_anonymous_args = 0
  77              	.LVL7:
 489:..\..\..\arduinoLCD\test\Pain Drain\libraries\lvgl\src\core/lv_event.c ****     if(e->stop_bubbling) return false;
  78              		.loc 1 489 0
  79 0000 037E     		ldrb	r3, [r0, #24]	@ zero_extendqisi2
ARM GAS  C:\Users\haske\AppData\Local\Temp\ccnNTYZ7.s 			page 11


  80 0002 13F0040F 		tst	r3, #4
  81 0006 22D1     		bne	.L10
 490:..\..\..\arduinoLCD\test\Pain Drain\libraries\lvgl\src\core/lv_event.c **** 
 491:..\..\..\arduinoLCD\test\Pain Drain\libraries\lvgl\src\core/lv_event.c ****     /*Event codes that always bubble*/
 492:..\..\..\arduinoLCD\test\Pain Drain\libraries\lvgl\src\core/lv_event.c ****     switch(e->code) {
  82              		.loc 1 492 0
  83 0008 037A     		ldrb	r3, [r0, #8]	@ zero_extendqisi2
  84 000a 233B     		subs	r3, r3, #35
  85 000c 012B     		cmp	r3, #1
  86 000e 20D9     		bls	.L12
 488:..\..\..\arduinoLCD\test\Pain Drain\libraries\lvgl\src\core/lv_event.c ****     if(e->stop_bubbling) return false;
  87              		.loc 1 488 0
  88 0010 10B5     		push	{r4, lr}
  89              		.cfi_def_cfa_offset 8
  90              		.cfi_offset 4, -8
  91              		.cfi_offset 14, -4
  92 0012 0446     		mov	r4, r0
 493:..\..\..\arduinoLCD\test\Pain Drain\libraries\lvgl\src\core/lv_event.c ****         case LV_EVENT_CHILD_CREATED:
 494:..\..\..\arduinoLCD\test\Pain Drain\libraries\lvgl\src\core/lv_event.c ****         case LV_EVENT_CHILD_DELETED:
 495:..\..\..\arduinoLCD\test\Pain Drain\libraries\lvgl\src\core/lv_event.c ****             return true;
 496:..\..\..\arduinoLCD\test\Pain Drain\libraries\lvgl\src\core/lv_event.c ****         default:
 497:..\..\..\arduinoLCD\test\Pain Drain\libraries\lvgl\src\core/lv_event.c ****             break;
 498:..\..\..\arduinoLCD\test\Pain Drain\libraries\lvgl\src\core/lv_event.c ****     }
 499:..\..\..\arduinoLCD\test\Pain Drain\libraries\lvgl\src\core/lv_event.c **** 
 500:..\..\..\arduinoLCD\test\Pain Drain\libraries\lvgl\src\core/lv_event.c ****     /*Check other codes only if bubbling is enabled*/
 501:..\..\..\arduinoLCD\test\Pain Drain\libraries\lvgl\src\core/lv_event.c ****     if(lv_obj_has_flag(e->current_target, LV_OBJ_FLAG_EVENT_BUBBLE) == false) return false;
  93              		.loc 1 501 0
  94 0014 4FF48041 		mov	r1, #16384
  95 0018 4068     		ldr	r0, [r0, #4]
  96              	.LVL8:
  97 001a FFF7FEFF 		bl	lv_obj_has_flag
  98              	.LVL9:
  99 001e 0346     		mov	r3, r0
 100 0020 D0B1     		cbz	r0, .L6
 502:..\..\..\arduinoLCD\test\Pain Drain\libraries\lvgl\src\core/lv_event.c **** 
 503:..\..\..\arduinoLCD\test\Pain Drain\libraries\lvgl\src\core/lv_event.c ****     switch(e->code) {
 101              		.loc 1 503 0
 102 0022 227A     		ldrb	r2, [r4, #8]	@ zero_extendqisi2
 103 0024 113A     		subs	r2, r2, #17
 104 0026 1B2A     		cmp	r2, #27
 105 0028 16D8     		bhi	.L6
 106 002a DFE802F0 		tbb	[pc, r2]
 107              	.L9:
 108 002e 0E       		.byte	(.L8-.L9)/2
 109 002f 0E       		.byte	(.L8-.L9)/2
 110 0030 0E       		.byte	(.L8-.L9)/2
 111 0031 0E       		.byte	(.L8-.L9)/2
 112 0032 0E       		.byte	(.L8-.L9)/2
 113 0033 0E       		.byte	(.L8-.L9)/2
 114 0034 0E       		.byte	(.L8-.L9)/2
 115 0035 0E       		.byte	(.L8-.L9)/2
 116 0036 0E       		.byte	(.L8-.L9)/2
 117 0037 0E       		.byte	(.L8-.L9)/2
 118 0038 0E       		.byte	(.L8-.L9)/2
 119 0039 15       		.byte	(.L6-.L9)/2
 120 003a 15       		.byte	(.L6-.L9)/2
 121 003b 0E       		.byte	(.L8-.L9)/2
ARM GAS  C:\Users\haske\AppData\Local\Temp\ccnNTYZ7.s 			page 12


 122 003c 15       		.byte	(.L6-.L9)/2
 123 003d 15       		.byte	(.L6-.L9)/2
 124 003e 0E       		.byte	(.L8-.L9)/2
 125 003f 0E       		.byte	(.L8-.L9)/2
 126 0040 0E       		.byte	(.L8-.L9)/2
 127 0041 0E       		.byte	(.L8-.L9)/2
 128 0042 15       		.byte	(.L6-.L9)/2
 129 0043 15       		.byte	(.L6-.L9)/2
 130 0044 15       		.byte	(.L6-.L9)/2
 131 0045 15       		.byte	(.L6-.L9)/2
 132 0046 0E       		.byte	(.L8-.L9)/2
 133 0047 0E       		.byte	(.L8-.L9)/2
 134 0048 15       		.byte	(.L6-.L9)/2
 135 0049 0E       		.byte	(.L8-.L9)/2
 136              		.p2align 1
 137              	.L8:
 504:..\..\..\arduinoLCD\test\Pain Drain\libraries\lvgl\src\core/lv_event.c ****         case LV_EVENT_HIT_TEST:
 505:..\..\..\arduinoLCD\test\Pain Drain\libraries\lvgl\src\core/lv_event.c ****         case LV_EVENT_COVER_CHECK:
 506:..\..\..\arduinoLCD\test\Pain Drain\libraries\lvgl\src\core/lv_event.c ****         case LV_EVENT_REFR_EXT_DRAW_SIZE:
 507:..\..\..\arduinoLCD\test\Pain Drain\libraries\lvgl\src\core/lv_event.c ****         case LV_EVENT_DRAW_MAIN_BEGIN:
 508:..\..\..\arduinoLCD\test\Pain Drain\libraries\lvgl\src\core/lv_event.c ****         case LV_EVENT_DRAW_MAIN:
 509:..\..\..\arduinoLCD\test\Pain Drain\libraries\lvgl\src\core/lv_event.c ****         case LV_EVENT_DRAW_MAIN_END:
 510:..\..\..\arduinoLCD\test\Pain Drain\libraries\lvgl\src\core/lv_event.c ****         case LV_EVENT_DRAW_POST_BEGIN:
 511:..\..\..\arduinoLCD\test\Pain Drain\libraries\lvgl\src\core/lv_event.c ****         case LV_EVENT_DRAW_POST:
 512:..\..\..\arduinoLCD\test\Pain Drain\libraries\lvgl\src\core/lv_event.c ****         case LV_EVENT_DRAW_POST_END:
 513:..\..\..\arduinoLCD\test\Pain Drain\libraries\lvgl\src\core/lv_event.c ****         case LV_EVENT_DRAW_PART_BEGIN:
 514:..\..\..\arduinoLCD\test\Pain Drain\libraries\lvgl\src\core/lv_event.c ****         case LV_EVENT_DRAW_PART_END:
 515:..\..\..\arduinoLCD\test\Pain Drain\libraries\lvgl\src\core/lv_event.c ****         case LV_EVENT_REFRESH:
 516:..\..\..\arduinoLCD\test\Pain Drain\libraries\lvgl\src\core/lv_event.c ****         case LV_EVENT_DELETE:
 517:..\..\..\arduinoLCD\test\Pain Drain\libraries\lvgl\src\core/lv_event.c ****         case LV_EVENT_CHILD_CREATED:
 518:..\..\..\arduinoLCD\test\Pain Drain\libraries\lvgl\src\core/lv_event.c ****         case LV_EVENT_CHILD_DELETED:
 519:..\..\..\arduinoLCD\test\Pain Drain\libraries\lvgl\src\core/lv_event.c ****         case LV_EVENT_CHILD_CHANGED:
 520:..\..\..\arduinoLCD\test\Pain Drain\libraries\lvgl\src\core/lv_event.c ****         case LV_EVENT_SIZE_CHANGED:
 521:..\..\..\arduinoLCD\test\Pain Drain\libraries\lvgl\src\core/lv_event.c ****         case LV_EVENT_STYLE_CHANGED:
 522:..\..\..\arduinoLCD\test\Pain Drain\libraries\lvgl\src\core/lv_event.c ****         case LV_EVENT_GET_SELF_SIZE:
 523:..\..\..\arduinoLCD\test\Pain Drain\libraries\lvgl\src\core/lv_event.c ****             return false;
 138              		.loc 1 523 0
 139 004a 0023     		movs	r3, #0
 140 004c 04E0     		b	.L6
 141              	.LVL10:
 142              	.L10:
 143              		.cfi_def_cfa_offset 0
 144              		.cfi_restore 4
 145              		.cfi_restore 14
 489:..\..\..\arduinoLCD\test\Pain Drain\libraries\lvgl\src\core/lv_event.c **** 
 146              		.loc 1 489 0
 147 004e 0023     		movs	r3, #0
 148 0050 00E0     		b	.L14
 149              	.L12:
 495:..\..\..\arduinoLCD\test\Pain Drain\libraries\lvgl\src\core/lv_event.c ****         default:
 150              		.loc 1 495 0
 151 0052 0123     		movs	r3, #1
 152              	.L14:
 524:..\..\..\arduinoLCD\test\Pain Drain\libraries\lvgl\src\core/lv_event.c ****         default:
 525:..\..\..\arduinoLCD\test\Pain Drain\libraries\lvgl\src\core/lv_event.c ****             return true;
 526:..\..\..\arduinoLCD\test\Pain Drain\libraries\lvgl\src\core/lv_event.c ****     }
 527:..\..\..\arduinoLCD\test\Pain Drain\libraries\lvgl\src\core/lv_event.c **** }
ARM GAS  C:\Users\haske\AppData\Local\Temp\ccnNTYZ7.s 			page 13


 153              		.loc 1 527 0
 154 0054 1846     		mov	r0, r3
 155              	.LVL11:
 156 0056 7047     		bx	lr
 157              	.LVL12:
 158              	.L6:
 159              		.cfi_def_cfa_offset 8
 160              		.cfi_offset 4, -8
 161              		.cfi_offset 14, -4
 162 0058 1846     		mov	r0, r3
 163 005a 10BD     		pop	{r4, pc}
 164              		.cfi_endproc
 165              	.LFE188:
 166              		.size	event_is_bubbled, .-event_is_bubbled
 167              		.section	.text.lv_obj_event_base,"ax",%progbits
 168              		.align	2
 169              		.global	lv_obj_event_base
 170              		.thumb
 171              		.thumb_func
 172              		.type	lv_obj_event_base, %function
 173              	lv_obj_event_base:
 174              	.LFB160:
  85:..\..\..\arduinoLCD\test\Pain Drain\libraries\lvgl\src\core/lv_event.c ****     const lv_obj_class_t * base;
 175              		.loc 1 85 0
 176              		.cfi_startproc
 177              		@ args = 0, pretend = 0, frame = 0
 178              		@ frame_needed = 0, uses_anonymous_args = 0
 179              	.LVL13:
  87:..\..\..\arduinoLCD\test\Pain Drain\libraries\lvgl\src\core/lv_event.c ****     else base = class_p->base_class;
 180              		.loc 1 87 0
 181 0000 10B9     		cbnz	r0, .L16
  87:..\..\..\arduinoLCD\test\Pain Drain\libraries\lvgl\src\core/lv_event.c ****     else base = class_p->base_class;
 182              		.loc 1 87 0 is_stmt 0 discriminator 1
 183 0002 4B68     		ldr	r3, [r1, #4]
 184 0004 1868     		ldr	r0, [r3]
 185              	.LVL14:
 186 0006 02E0     		b	.L17
 187              	.LVL15:
 188              	.L16:
  88:..\..\..\arduinoLCD\test\Pain Drain\libraries\lvgl\src\core/lv_event.c **** 
 189              		.loc 1 88 0 is_stmt 1
 190 0008 0068     		ldr	r0, [r0]
 191              	.LVL16:
 192 000a 00E0     		b	.L17
 193              	.L20:
  91:..\..\..\arduinoLCD\test\Pain Drain\libraries\lvgl\src\core/lv_event.c **** 
 194              		.loc 1 91 0 discriminator 3
 195 000c 0068     		ldr	r0, [r0]
 196              	.LVL17:
 197              	.L17:
  91:..\..\..\arduinoLCD\test\Pain Drain\libraries\lvgl\src\core/lv_event.c **** 
 198              		.loc 1 91 0 is_stmt 0 discriminator 1
 199 000e 10B1     		cbz	r0, .L19
  91:..\..\..\arduinoLCD\test\Pain Drain\libraries\lvgl\src\core/lv_event.c **** 
 200              		.loc 1 91 0 discriminator 2
 201 0010 0369     		ldr	r3, [r0, #16]
 202 0012 002B     		cmp	r3, #0
ARM GAS  C:\Users\haske\AppData\Local\Temp\ccnNTYZ7.s 			page 14


 203 0014 FAD0     		beq	.L20
 204              	.L19:
  93:..\..\..\arduinoLCD\test\Pain Drain\libraries\lvgl\src\core/lv_event.c ****     if(base->event_cb == NULL) return LV_RES_OK;
 205              		.loc 1 93 0 is_stmt 1
 206 0016 68B1     		cbz	r0, .L22
  94:..\..\..\arduinoLCD\test\Pain Drain\libraries\lvgl\src\core/lv_event.c **** 
 207              		.loc 1 94 0
 208 0018 0369     		ldr	r3, [r0, #16]
 209 001a 6BB1     		cbz	r3, .L23
  85:..\..\..\arduinoLCD\test\Pain Drain\libraries\lvgl\src\core/lv_event.c ****     const lv_obj_class_t * base;
 210              		.loc 1 85 0
 211 001c 10B5     		push	{r4, lr}
 212              		.cfi_def_cfa_offset 8
 213              		.cfi_offset 4, -8
 214              		.cfi_offset 14, -4
 215 001e 0C46     		mov	r4, r1
  97:..\..\..\arduinoLCD\test\Pain Drain\libraries\lvgl\src\core/lv_event.c ****     base->event_cb(base, e);
 216              		.loc 1 97 0
 217 0020 0023     		movs	r3, #0
 218 0022 CB60     		str	r3, [r1, #12]
  98:..\..\..\arduinoLCD\test\Pain Drain\libraries\lvgl\src\core/lv_event.c **** 
 219              		.loc 1 98 0
 220 0024 0369     		ldr	r3, [r0, #16]
 221 0026 9847     		blx	r3
 222              	.LVL18:
 102:..\..\..\arduinoLCD\test\Pain Drain\libraries\lvgl\src\core/lv_event.c **** 
 223              		.loc 1 102 0
 224 0028 237E     		ldrb	r3, [r4, #24]	@ zero_extendqisi2
 225 002a 13F0010F 		tst	r3, #1
 226 002e 05D1     		bne	.L24
 100:..\..\..\arduinoLCD\test\Pain Drain\libraries\lvgl\src\core/lv_event.c ****     /*Stop if the object is deleted*/
 227              		.loc 1 100 0
 228 0030 0120     		movs	r0, #1
 229 0032 10BD     		pop	{r4, pc}
 230              	.LVL19:
 231              	.L22:
 232              		.cfi_def_cfa_offset 0
 233              		.cfi_restore 4
 234              		.cfi_restore 14
  93:..\..\..\arduinoLCD\test\Pain Drain\libraries\lvgl\src\core/lv_event.c ****     if(base->event_cb == NULL) return LV_RES_OK;
 235              		.loc 1 93 0
 236 0034 0120     		movs	r0, #1
 237              	.LVL20:
 105:..\..\..\arduinoLCD\test\Pain Drain\libraries\lvgl\src\core/lv_event.c **** 
 238              		.loc 1 105 0
 239 0036 7047     		bx	lr
 240              	.LVL21:
 241              	.L23:
  94:..\..\..\arduinoLCD\test\Pain Drain\libraries\lvgl\src\core/lv_event.c **** 
 242              		.loc 1 94 0
 243 0038 0120     		movs	r0, #1
 244              	.LVL22:
 245 003a 7047     		bx	lr
 246              	.LVL23:
 247              	.L24:
 248              		.cfi_def_cfa_offset 8
 249              		.cfi_offset 4, -8
ARM GAS  C:\Users\haske\AppData\Local\Temp\ccnNTYZ7.s 			page 15


 250              		.cfi_offset 14, -4
 102:..\..\..\arduinoLCD\test\Pain Drain\libraries\lvgl\src\core/lv_event.c **** 
 251              		.loc 1 102 0
 252 003c 0020     		movs	r0, #0
 105:..\..\..\arduinoLCD\test\Pain Drain\libraries\lvgl\src\core/lv_event.c **** 
 253              		.loc 1 105 0
 254 003e 10BD     		pop	{r4, pc}
 255              		.cfi_endproc
 256              	.LFE160:
 257              		.size	lv_obj_event_base, .-lv_obj_event_base
 258              		.section	.text.event_send_core,"ax",%progbits
 259              		.align	2
 260              		.thumb
 261              		.thumb_func
 262              		.type	event_send_core, %function
 263              	event_send_core:
 264              	.LFB187:
 427:..\..\..\arduinoLCD\test\Pain Drain\libraries\lvgl\src\core/lv_event.c ****     EVENT_TRACE("Sending event %d to %p with %p param", e->code, (void *)e->current_target, e->para
 265              		.loc 1 427 0
 266              		.cfi_startproc
 267              		@ args = 0, pretend = 0, frame = 0
 268              		@ frame_needed = 0, uses_anonymous_args = 0
 269              	.LVL24:
 270 0000 F8B5     		push	{r3, r4, r5, r6, r7, lr}
 271              		.cfi_def_cfa_offset 24
 272              		.cfi_offset 3, -24
 273              		.cfi_offset 4, -20
 274              		.cfi_offset 5, -16
 275              		.cfi_offset 6, -12
 276              		.cfi_offset 7, -8
 277              		.cfi_offset 14, -4
 278 0002 0646     		mov	r6, r0
 431:..\..\..\arduinoLCD\test\Pain Drain\libraries\lvgl\src\core/lv_event.c ****     if(indev_act) {
 279              		.loc 1 431 0
 280 0004 FFF7FEFF 		bl	lv_indev_get_act
 281              	.LVL25:
 432:..\..\..\arduinoLCD\test\Pain Drain\libraries\lvgl\src\core/lv_event.c ****         if(indev_act->driver->feedback_cb) indev_act->driver->feedback_cb(indev_act->driver, e->cod
 282              		.loc 1 432 0
 283 0008 70B1     		cbz	r0, .L28
 433:..\..\..\arduinoLCD\test\Pain Drain\libraries\lvgl\src\core/lv_event.c ****         if(e->stop_processing) return LV_RES_OK;
 284              		.loc 1 433 0
 285 000a 0068     		ldr	r0, [r0]
 286              	.LVL26:
 287 000c 8368     		ldr	r3, [r0, #8]
 288 000e 0BB1     		cbz	r3, .L29
 433:..\..\..\arduinoLCD\test\Pain Drain\libraries\lvgl\src\core/lv_event.c ****         if(e->stop_processing) return LV_RES_OK;
 289              		.loc 1 433 0 is_stmt 0 discriminator 1
 290 0010 317A     		ldrb	r1, [r6, #8]	@ zero_extendqisi2
 291 0012 9847     		blx	r3
 292              	.LVL27:
 293              	.L29:
 434:..\..\..\arduinoLCD\test\Pain Drain\libraries\lvgl\src\core/lv_event.c ****         if(e->deleted) return LV_RES_INV;
 294              		.loc 1 434 0 is_stmt 1
 295 0014 327E     		ldrb	r2, [r6, #24]	@ zero_extendqisi2
 296 0016 02F00203 		and	r3, r2, #2
 297 001a 03F0FF00 		and	r0, r3, #255
 298 001e 002B     		cmp	r3, #0
ARM GAS  C:\Users\haske\AppData\Local\Temp\ccnNTYZ7.s 			page 16


 299 0020 6ED1     		bne	.L41
 435:..\..\..\arduinoLCD\test\Pain Drain\libraries\lvgl\src\core/lv_event.c ****     }
 300              		.loc 1 435 0
 301 0022 12F0010F 		tst	r2, #1
 302 0026 76D1     		bne	.L30
 303              	.L28:
 304              	.LVL28:
 439:..\..\..\arduinoLCD\test\Pain Drain\libraries\lvgl\src\core/lv_event.c **** 
 305              		.loc 1 439 0
 306 0028 0021     		movs	r1, #0
 307 002a 7068     		ldr	r0, [r6, #4]
 308 002c FFF7FEFF 		bl	lv_obj_get_event_dsc
 309              	.LVL29:
 310 0030 0446     		mov	r4, r0
 311              	.LVL30:
 441:..\..\..\arduinoLCD\test\Pain Drain\libraries\lvgl\src\core/lv_event.c ****     while(event_dsc && res == LV_RES_OK) {
 312              		.loc 1 441 0
 313 0032 0025     		movs	r5, #0
 442:..\..\..\arduinoLCD\test\Pain Drain\libraries\lvgl\src\core/lv_event.c ****         if(event_dsc->cb  && ((event_dsc->filter & LV_EVENT_PREPROCESS) == LV_EVENT_PREPROCESS)
 314              		.loc 1 442 0
 315 0034 21E0     		b	.L31
 316              	.LVL31:
 317              	.L34:
 443:..\..\..\arduinoLCD\test\Pain Drain\libraries\lvgl\src\core/lv_event.c ****            && (event_dsc->filter == (LV_EVENT_ALL | LV_EVENT_PREPROCESS) ||
 318              		.loc 1 443 0
 319 0036 2368     		ldr	r3, [r4]
 320 0038 CBB1     		cbz	r3, .L32
 443:..\..\..\arduinoLCD\test\Pain Drain\libraries\lvgl\src\core/lv_event.c ****            && (event_dsc->filter == (LV_EVENT_ALL | LV_EVENT_PREPROCESS) ||
 321              		.loc 1 443 0 is_stmt 0 discriminator 1
 322 003a 237A     		ldrb	r3, [r4, #8]	@ zero_extendqisi2
 323 003c 13F0800F 		tst	r3, #128
 324 0040 15D0     		beq	.L32
 444:..\..\..\arduinoLCD\test\Pain Drain\libraries\lvgl\src\core/lv_event.c ****                (event_dsc->filter & ~LV_EVENT_PREPROCESS) == e->code)) {
 325              		.loc 1 444 0 is_stmt 1
 326 0042 802B     		cmp	r3, #128
 327 0044 04D0     		beq	.L33
 445:..\..\..\arduinoLCD\test\Pain Drain\libraries\lvgl\src\core/lv_event.c ****             e->user_data = event_dsc->user_data;
 328              		.loc 1 445 0 discriminator 1
 329 0046 23F08003 		bic	r3, r3, #128
 330 004a 327A     		ldrb	r2, [r6, #8]	@ zero_extendqisi2
 444:..\..\..\arduinoLCD\test\Pain Drain\libraries\lvgl\src\core/lv_event.c ****                (event_dsc->filter & ~LV_EVENT_PREPROCESS) == e->code)) {
 331              		.loc 1 444 0 discriminator 1
 332 004c 9342     		cmp	r3, r2
 333 004e 0ED1     		bne	.L32
 334              	.L33:
 446:..\..\..\arduinoLCD\test\Pain Drain\libraries\lvgl\src\core/lv_event.c ****             event_dsc->cb(e);
 335              		.loc 1 446 0
 336 0050 6368     		ldr	r3, [r4, #4]
 337 0052 F360     		str	r3, [r6, #12]
 447:..\..\..\arduinoLCD\test\Pain Drain\libraries\lvgl\src\core/lv_event.c **** 
 338              		.loc 1 447 0
 339 0054 2368     		ldr	r3, [r4]
 340 0056 3046     		mov	r0, r6
 341              	.LVL32:
 342 0058 9847     		blx	r3
 343              	.LVL33:
 449:..\..\..\arduinoLCD\test\Pain Drain\libraries\lvgl\src\core/lv_event.c ****             /*Stop if the object is deleted*/
ARM GAS  C:\Users\haske\AppData\Local\Temp\ccnNTYZ7.s 			page 17


 344              		.loc 1 449 0
 345 005a 327E     		ldrb	r2, [r6, #24]	@ zero_extendqisi2
 346 005c 02F00203 		and	r3, r2, #2
 347 0060 03F0FF00 		and	r0, r3, #255
 348 0064 002B     		cmp	r3, #0
 349 0066 4DD1     		bne	.L42
 451:..\..\..\arduinoLCD\test\Pain Drain\libraries\lvgl\src\core/lv_event.c ****         }
 350              		.loc 1 451 0
 351 0068 12F0010F 		tst	r2, #1
 352 006c 53D1     		bne	.L30
 353              	.L32:
 454:..\..\..\arduinoLCD\test\Pain Drain\libraries\lvgl\src\core/lv_event.c ****         event_dsc = lv_obj_get_event_dsc(e->current_target, i);
 354              		.loc 1 454 0
 355 006e 0135     		adds	r5, r5, #1
 356              	.LVL34:
 455:..\..\..\arduinoLCD\test\Pain Drain\libraries\lvgl\src\core/lv_event.c ****     }
 357              		.loc 1 455 0
 358 0070 2946     		mov	r1, r5
 359 0072 7068     		ldr	r0, [r6, #4]
 360 0074 FFF7FEFF 		bl	lv_obj_get_event_dsc
 361              	.LVL35:
 362 0078 0446     		mov	r4, r0
 363              	.LVL36:
 364              	.L31:
 442:..\..\..\arduinoLCD\test\Pain Drain\libraries\lvgl\src\core/lv_event.c ****         if(event_dsc->cb  && ((event_dsc->filter & LV_EVENT_PREPROCESS) == LV_EVENT_PREPROCESS)
 365              		.loc 1 442 0
 366 007a 002C     		cmp	r4, #0
 367 007c DBD1     		bne	.L34
 458:..\..\..\arduinoLCD\test\Pain Drain\libraries\lvgl\src\core/lv_event.c **** 
 368              		.loc 1 458 0
 369 007e 3146     		mov	r1, r6
 370 0080 0020     		movs	r0, #0
 371              	.LVL37:
 372 0082 FFF7FEFF 		bl	lv_obj_event_base
 373              	.LVL38:
 460:..\..\..\arduinoLCD\test\Pain Drain\libraries\lvgl\src\core/lv_event.c **** 
 374              		.loc 1 460 0
 375 0086 0746     		mov	r7, r0
 376 0088 20B1     		cbz	r0, .L35
 460:..\..\..\arduinoLCD\test\Pain Drain\libraries\lvgl\src\core/lv_event.c **** 
 377              		.loc 1 460 0 is_stmt 0 discriminator 1
 378 008a 0021     		movs	r1, #0
 379 008c 7068     		ldr	r0, [r6, #4]
 380              	.LVL39:
 381 008e FFF7FEFF 		bl	lv_obj_get_event_dsc
 382              	.LVL40:
 383 0092 0446     		mov	r4, r0
 384              	.LVL41:
 385              	.L35:
 441:..\..\..\arduinoLCD\test\Pain Drain\libraries\lvgl\src\core/lv_event.c ****     while(event_dsc && res == LV_RES_OK) {
 386              		.loc 1 441 0 is_stmt 1
 387 0094 0025     		movs	r5, #0
 388              	.LVL42:
 389 0096 1DE0     		b	.L36
 390              	.LVL43:
 391              	.L40:
 464:..\..\..\arduinoLCD\test\Pain Drain\libraries\lvgl\src\core/lv_event.c ****            && (event_dsc->filter == LV_EVENT_ALL || event_dsc->filter == e->code)) {
ARM GAS  C:\Users\haske\AppData\Local\Temp\ccnNTYZ7.s 			page 18


 392              		.loc 1 464 0
 393 0098 2368     		ldr	r3, [r4]
 394 009a ABB1     		cbz	r3, .L37
 464:..\..\..\arduinoLCD\test\Pain Drain\libraries\lvgl\src\core/lv_event.c ****            && (event_dsc->filter == LV_EVENT_ALL || event_dsc->filter == e->code)) {
 395              		.loc 1 464 0 is_stmt 0 discriminator 1
 396 009c 237A     		ldrb	r3, [r4, #8]	@ zero_extendqisi2
 397 009e 13F0800F 		tst	r3, #128
 398 00a2 11D1     		bne	.L37
 465:..\..\..\arduinoLCD\test\Pain Drain\libraries\lvgl\src\core/lv_event.c ****             e->user_data = event_dsc->user_data;
 399              		.loc 1 465 0 is_stmt 1
 400 00a4 13B1     		cbz	r3, .L38
 465:..\..\..\arduinoLCD\test\Pain Drain\libraries\lvgl\src\core/lv_event.c ****             e->user_data = event_dsc->user_data;
 401              		.loc 1 465 0 is_stmt 0 discriminator 1
 402 00a6 327A     		ldrb	r2, [r6, #8]	@ zero_extendqisi2
 403 00a8 9342     		cmp	r3, r2
 404 00aa 0DD1     		bne	.L37
 405              	.L38:
 466:..\..\..\arduinoLCD\test\Pain Drain\libraries\lvgl\src\core/lv_event.c ****             event_dsc->cb(e);
 406              		.loc 1 466 0 is_stmt 1
 407 00ac 6368     		ldr	r3, [r4, #4]
 408 00ae F360     		str	r3, [r6, #12]
 467:..\..\..\arduinoLCD\test\Pain Drain\libraries\lvgl\src\core/lv_event.c **** 
 409              		.loc 1 467 0
 410 00b0 2368     		ldr	r3, [r4]
 411 00b2 3046     		mov	r0, r6
 412 00b4 9847     		blx	r3
 413              	.LVL44:
 469:..\..\..\arduinoLCD\test\Pain Drain\libraries\lvgl\src\core/lv_event.c ****             /*Stop if the object is deleted*/
 414              		.loc 1 469 0
 415 00b6 327E     		ldrb	r2, [r6, #24]	@ zero_extendqisi2
 416 00b8 02F00203 		and	r3, r2, #2
 417 00bc 03F0FF00 		and	r0, r3, #255
 418 00c0 13BB     		cbnz	r3, .L43
 471:..\..\..\arduinoLCD\test\Pain Drain\libraries\lvgl\src\core/lv_event.c ****         }
 419              		.loc 1 471 0
 420 00c2 12F0010F 		tst	r2, #1
 421 00c6 26D1     		bne	.L30
 422              	.L37:
 474:..\..\..\arduinoLCD\test\Pain Drain\libraries\lvgl\src\core/lv_event.c ****         event_dsc = lv_obj_get_event_dsc(e->current_target, i);
 423              		.loc 1 474 0
 424 00c8 0135     		adds	r5, r5, #1
 425              	.LVL45:
 475:..\..\..\arduinoLCD\test\Pain Drain\libraries\lvgl\src\core/lv_event.c ****     }
 426              		.loc 1 475 0
 427 00ca 2946     		mov	r1, r5
 428 00cc 7068     		ldr	r0, [r6, #4]
 429 00ce FFF7FEFF 		bl	lv_obj_get_event_dsc
 430              	.LVL46:
 431 00d2 0446     		mov	r4, r0
 432              	.LVL47:
 433              	.L36:
 463:..\..\..\arduinoLCD\test\Pain Drain\libraries\lvgl\src\core/lv_event.c ****         if(event_dsc->cb && ((event_dsc->filter & LV_EVENT_PREPROCESS) == 0)
 434              		.loc 1 463 0
 435 00d4 0CB1     		cbz	r4, .L39
 463:..\..\..\arduinoLCD\test\Pain Drain\libraries\lvgl\src\core/lv_event.c ****         if(event_dsc->cb && ((event_dsc->filter & LV_EVENT_PREPROCESS) == 0)
 436              		.loc 1 463 0 is_stmt 0 discriminator 1
 437 00d6 012F     		cmp	r7, #1
ARM GAS  C:\Users\haske\AppData\Local\Temp\ccnNTYZ7.s 			page 19


 438 00d8 DED0     		beq	.L40
 439              	.L39:
 478:..\..\..\arduinoLCD\test\Pain Drain\libraries\lvgl\src\core/lv_event.c ****         e->current_target = e->current_target->parent;
 440              		.loc 1 478 0 is_stmt 1
 441 00da 012F     		cmp	r7, #1
 442 00dc 16D1     		bne	.L44
 478:..\..\..\arduinoLCD\test\Pain Drain\libraries\lvgl\src\core/lv_event.c ****         e->current_target = e->current_target->parent;
 443              		.loc 1 478 0 is_stmt 0 discriminator 1
 444 00de 7368     		ldr	r3, [r6, #4]
 445 00e0 5B68     		ldr	r3, [r3, #4]
 446 00e2 ABB1     		cbz	r3, .L45
 478:..\..\..\arduinoLCD\test\Pain Drain\libraries\lvgl\src\core/lv_event.c ****         e->current_target = e->current_target->parent;
 447              		.loc 1 478 0 discriminator 2
 448 00e4 3046     		mov	r0, r6
 449 00e6 FFF7FEFF 		bl	event_is_bubbled
 450              	.LVL48:
 451 00ea 98B1     		cbz	r0, .L46
 479:..\..\..\arduinoLCD\test\Pain Drain\libraries\lvgl\src\core/lv_event.c ****         res = event_send_core(e);
 452              		.loc 1 479 0 is_stmt 1
 453 00ec 7368     		ldr	r3, [r6, #4]
 454 00ee 5B68     		ldr	r3, [r3, #4]
 455 00f0 7360     		str	r3, [r6, #4]
 480:..\..\..\arduinoLCD\test\Pain Drain\libraries\lvgl\src\core/lv_event.c ****         if(res != LV_RES_OK) return LV_RES_INV;
 456              		.loc 1 480 0
 457 00f2 3046     		mov	r0, r6
 458 00f4 FFF784FF 		bl	event_send_core
 459              	.LVL49:
 481:..\..\..\arduinoLCD\test\Pain Drain\libraries\lvgl\src\core/lv_event.c ****     }
 460              		.loc 1 481 0
 461 00f8 0128     		cmp	r0, #1
 462 00fa 0CD0     		beq	.L30
 463 00fc 0020     		movs	r0, #0
 464              	.LVL50:
 465 00fe F8BD     		pop	{r3, r4, r5, r6, r7, pc}
 466              	.LVL51:
 467              	.L41:
 434:..\..\..\arduinoLCD\test\Pain Drain\libraries\lvgl\src\core/lv_event.c ****         if(e->deleted) return LV_RES_INV;
 468              		.loc 1 434 0
 469 0100 0120     		movs	r0, #1
 470 0102 F8BD     		pop	{r3, r4, r5, r6, r7, pc}
 471              	.LVL52:
 472              	.L42:
 449:..\..\..\arduinoLCD\test\Pain Drain\libraries\lvgl\src\core/lv_event.c ****             /*Stop if the object is deleted*/
 473              		.loc 1 449 0
 474 0104 0120     		movs	r0, #1
 475 0106 F8BD     		pop	{r3, r4, r5, r6, r7, pc}
 476              	.LVL53:
 477              	.L43:
 469:..\..\..\arduinoLCD\test\Pain Drain\libraries\lvgl\src\core/lv_event.c ****             /*Stop if the object is deleted*/
 478              		.loc 1 469 0
 479 0108 0120     		movs	r0, #1
 480 010a F8BD     		pop	{r3, r4, r5, r6, r7, pc}
 481              	.LVL54:
 482              	.L44:
 458:..\..\..\arduinoLCD\test\Pain Drain\libraries\lvgl\src\core/lv_event.c **** 
 483              		.loc 1 458 0
 484 010c 3846     		mov	r0, r7
ARM GAS  C:\Users\haske\AppData\Local\Temp\ccnNTYZ7.s 			page 20


 485 010e F8BD     		pop	{r3, r4, r5, r6, r7, pc}
 486              	.LVL55:
 487              	.L45:
 488 0110 3846     		mov	r0, r7
 489 0112 F8BD     		pop	{r3, r4, r5, r6, r7, pc}
 490              	.LVL56:
 491              	.L46:
 492 0114 3846     		mov	r0, r7
 493              	.LVL57:
 494              	.L30:
 485:..\..\..\arduinoLCD\test\Pain Drain\libraries\lvgl\src\core/lv_event.c **** 
 495              		.loc 1 485 0
 496 0116 F8BD     		pop	{r3, r4, r5, r6, r7, pc}
 497              		.cfi_endproc
 498              	.LFE187:
 499              		.size	event_send_core, .-event_send_core
 500              		.section	.text.lv_event_send,"ax",%progbits
 501              		.align	2
 502              		.global	lv_event_send
 503              		.thumb
 504              		.thumb_func
 505              		.type	lv_event_send, %function
 506              	lv_event_send:
 507              	.LFB159:
  53:..\..\..\arduinoLCD\test\Pain Drain\libraries\lvgl\src\core/lv_event.c ****     if(obj == NULL) return LV_RES_OK;
 508              		.loc 1 53 0
 509              		.cfi_startproc
 510              		@ args = 0, pretend = 0, frame = 32
 511              		@ frame_needed = 0, uses_anonymous_args = 0
 512              	.LVL58:
  54:..\..\..\arduinoLCD\test\Pain Drain\libraries\lvgl\src\core/lv_event.c **** 
 513              		.loc 1 54 0
 514 0000 D0B1     		cbz	r0, .L51
  53:..\..\..\arduinoLCD\test\Pain Drain\libraries\lvgl\src\core/lv_event.c ****     if(obj == NULL) return LV_RES_OK;
 515              		.loc 1 53 0
 516 0002 10B5     		push	{r4, lr}
 517              		.cfi_def_cfa_offset 8
 518              		.cfi_offset 4, -8
 519              		.cfi_offset 14, -4
 520 0004 88B0     		sub	sp, sp, #32
 521              		.cfi_def_cfa_offset 40
  59:..\..\..\arduinoLCD\test\Pain Drain\libraries\lvgl\src\core/lv_event.c ****     e.current_target = obj;
 522              		.loc 1 59 0
 523 0006 0190     		str	r0, [sp, #4]
  60:..\..\..\arduinoLCD\test\Pain Drain\libraries\lvgl\src\core/lv_event.c ****     e.code = event_code;
 524              		.loc 1 60 0
 525 0008 0290     		str	r0, [sp, #8]
  61:..\..\..\arduinoLCD\test\Pain Drain\libraries\lvgl\src\core/lv_event.c ****     e.user_data = NULL;
 526              		.loc 1 61 0
 527 000a 8DF80C10 		strb	r1, [sp, #12]
  62:..\..\..\arduinoLCD\test\Pain Drain\libraries\lvgl\src\core/lv_event.c ****     e.param = param;
 528              		.loc 1 62 0
 529 000e 0021     		movs	r1, #0
 530              	.LVL59:
 531 0010 0491     		str	r1, [sp, #16]
  63:..\..\..\arduinoLCD\test\Pain Drain\libraries\lvgl\src\core/lv_event.c ****     e.deleted = 0;
 532              		.loc 1 63 0
ARM GAS  C:\Users\haske\AppData\Local\Temp\ccnNTYZ7.s 			page 21


 533 0012 0592     		str	r2, [sp, #20]
  64:..\..\..\arduinoLCD\test\Pain Drain\libraries\lvgl\src\core/lv_event.c ****     e.stop_bubbling = 0;
 534              		.loc 1 64 0
 535 0014 9DF81C30 		ldrb	r3, [sp, #28]	@ zero_extendqisi2
  66:..\..\..\arduinoLCD\test\Pain Drain\libraries\lvgl\src\core/lv_event.c **** 
 536              		.loc 1 66 0
 537 0018 03F0FA03 		and	r3, r3, #250
 538 001c 61F34103 		bfi	r3, r1, #1, #1
 539 0020 8DF81C30 		strb	r3, [sp, #28]
  71:..\..\..\arduinoLCD\test\Pain Drain\libraries\lvgl\src\core/lv_event.c ****     event_head = &e;
 540              		.loc 1 71 0
 541 0024 064C     		ldr	r4, .L54
 542 0026 2368     		ldr	r3, [r4]
 543 0028 0693     		str	r3, [sp, #24]
  72:..\..\..\arduinoLCD\test\Pain Drain\libraries\lvgl\src\core/lv_event.c **** 
 544              		.loc 1 72 0
 545 002a 01A8     		add	r0, sp, #4
 546              	.LVL60:
 547 002c 2060     		str	r0, [r4]
  75:..\..\..\arduinoLCD\test\Pain Drain\libraries\lvgl\src\core/lv_event.c **** 
 548              		.loc 1 75 0
 549 002e FFF7FEFF 		bl	event_send_core
 550              	.LVL61:
  78:..\..\..\arduinoLCD\test\Pain Drain\libraries\lvgl\src\core/lv_event.c **** 
 551              		.loc 1 78 0
 552 0032 069B     		ldr	r3, [sp, #24]
 553 0034 2360     		str	r3, [r4]
  80:..\..\..\arduinoLCD\test\Pain Drain\libraries\lvgl\src\core/lv_event.c **** }
 554              		.loc 1 80 0
 555 0036 01E0     		b	.L50
 556              	.LVL62:
 557              	.L51:
 558              		.cfi_def_cfa_offset 0
 559              		.cfi_restore 4
 560              		.cfi_restore 14
  54:..\..\..\arduinoLCD\test\Pain Drain\libraries\lvgl\src\core/lv_event.c **** 
 561              		.loc 1 54 0
 562 0038 0120     		movs	r0, #1
 563              	.LVL63:
 564 003a 7047     		bx	lr
 565              	.LVL64:
 566              	.L50:
 567              		.cfi_def_cfa_offset 40
 568              		.cfi_offset 4, -8
 569              		.cfi_offset 14, -4
  81:..\..\..\arduinoLCD\test\Pain Drain\libraries\lvgl\src\core/lv_event.c **** 
 570              		.loc 1 81 0
 571 003c 08B0     		add	sp, sp, #32
 572              		.cfi_def_cfa_offset 8
 573              		@ sp needed
 574 003e 10BD     		pop	{r4, pc}
 575              	.L55:
 576              		.align	2
 577              	.L54:
 578 0040 00000000 		.word	.LANCHOR0
 579              		.cfi_endproc
 580              	.LFE159:
ARM GAS  C:\Users\haske\AppData\Local\Temp\ccnNTYZ7.s 			page 22


 581              		.size	lv_event_send, .-lv_event_send
 582              		.section	.text.lv_event_get_target,"ax",%progbits
 583              		.align	2
 584              		.global	lv_event_get_target
 585              		.thumb
 586              		.thumb_func
 587              		.type	lv_event_get_target, %function
 588              	lv_event_get_target:
 589              	.LFB161:
 109:..\..\..\arduinoLCD\test\Pain Drain\libraries\lvgl\src\core/lv_event.c ****     return e->target;
 590              		.loc 1 109 0
 591              		.cfi_startproc
 592              		@ args = 0, pretend = 0, frame = 0
 593              		@ frame_needed = 0, uses_anonymous_args = 0
 594              		@ link register save eliminated.
 595              	.LVL65:
 111:..\..\..\arduinoLCD\test\Pain Drain\libraries\lvgl\src\core/lv_event.c **** 
 596              		.loc 1 111 0
 597 0000 0068     		ldr	r0, [r0]
 598              	.LVL66:
 599 0002 7047     		bx	lr
 600              		.cfi_endproc
 601              	.LFE161:
 602              		.size	lv_event_get_target, .-lv_event_get_target
 603              		.section	.text.lv_event_get_current_target,"ax",%progbits
 604              		.align	2
 605              		.global	lv_event_get_current_target
 606              		.thumb
 607              		.thumb_func
 608              		.type	lv_event_get_current_target, %function
 609              	lv_event_get_current_target:
 610              	.LFB162:
 114:..\..\..\arduinoLCD\test\Pain Drain\libraries\lvgl\src\core/lv_event.c ****     return e->current_target;
 611              		.loc 1 114 0
 612              		.cfi_startproc
 613              		@ args = 0, pretend = 0, frame = 0
 614              		@ frame_needed = 0, uses_anonymous_args = 0
 615              		@ link register save eliminated.
 616              	.LVL67:
 116:..\..\..\arduinoLCD\test\Pain Drain\libraries\lvgl\src\core/lv_event.c **** 
 617              		.loc 1 116 0
 618 0000 4068     		ldr	r0, [r0, #4]
 619              	.LVL68:
 620 0002 7047     		bx	lr
 621              		.cfi_endproc
 622              	.LFE162:
 623              		.size	lv_event_get_current_target, .-lv_event_get_current_target
 624              		.section	.text.lv_event_get_code,"ax",%progbits
 625              		.align	2
 626              		.global	lv_event_get_code
 627              		.thumb
 628              		.thumb_func
 629              		.type	lv_event_get_code, %function
 630              	lv_event_get_code:
 631              	.LFB163:
 119:..\..\..\arduinoLCD\test\Pain Drain\libraries\lvgl\src\core/lv_event.c ****     return e->code & ~LV_EVENT_PREPROCESS;
 632              		.loc 1 119 0
ARM GAS  C:\Users\haske\AppData\Local\Temp\ccnNTYZ7.s 			page 23


 633              		.cfi_startproc
 634              		@ args = 0, pretend = 0, frame = 0
 635              		@ frame_needed = 0, uses_anonymous_args = 0
 636              		@ link register save eliminated.
 637              	.LVL69:
 120:..\..\..\arduinoLCD\test\Pain Drain\libraries\lvgl\src\core/lv_event.c **** }
 638              		.loc 1 120 0
 639 0000 007A     		ldrb	r0, [r0, #8]	@ zero_extendqisi2
 640              	.LVL70:
 121:..\..\..\arduinoLCD\test\Pain Drain\libraries\lvgl\src\core/lv_event.c **** 
 641              		.loc 1 121 0
 642 0002 00F07F00 		and	r0, r0, #127
 643 0006 7047     		bx	lr
 644              		.cfi_endproc
 645              	.LFE163:
 646              		.size	lv_event_get_code, .-lv_event_get_code
 647              		.section	.text.lv_event_get_param,"ax",%progbits
 648              		.align	2
 649              		.global	lv_event_get_param
 650              		.thumb
 651              		.thumb_func
 652              		.type	lv_event_get_param, %function
 653              	lv_event_get_param:
 654              	.LFB164:
 124:..\..\..\arduinoLCD\test\Pain Drain\libraries\lvgl\src\core/lv_event.c ****     return e->param;
 655              		.loc 1 124 0
 656              		.cfi_startproc
 657              		@ args = 0, pretend = 0, frame = 0
 658              		@ frame_needed = 0, uses_anonymous_args = 0
 659              		@ link register save eliminated.
 660              	.LVL71:
 126:..\..\..\arduinoLCD\test\Pain Drain\libraries\lvgl\src\core/lv_event.c **** 
 661              		.loc 1 126 0
 662 0000 0069     		ldr	r0, [r0, #16]
 663              	.LVL72:
 664 0002 7047     		bx	lr
 665              		.cfi_endproc
 666              	.LFE164:
 667              		.size	lv_event_get_param, .-lv_event_get_param
 668              		.section	.text.lv_event_get_user_data,"ax",%progbits
 669              		.align	2
 670              		.global	lv_event_get_user_data
 671              		.thumb
 672              		.thumb_func
 673              		.type	lv_event_get_user_data, %function
 674              	lv_event_get_user_data:
 675              	.LFB165:
 129:..\..\..\arduinoLCD\test\Pain Drain\libraries\lvgl\src\core/lv_event.c ****     return e->user_data;
 676              		.loc 1 129 0
 677              		.cfi_startproc
 678              		@ args = 0, pretend = 0, frame = 0
 679              		@ frame_needed = 0, uses_anonymous_args = 0
 680              		@ link register save eliminated.
 681              	.LVL73:
 131:..\..\..\arduinoLCD\test\Pain Drain\libraries\lvgl\src\core/lv_event.c **** 
 682              		.loc 1 131 0
 683 0000 C068     		ldr	r0, [r0, #12]
ARM GAS  C:\Users\haske\AppData\Local\Temp\ccnNTYZ7.s 			page 24


 684              	.LVL74:
 685 0002 7047     		bx	lr
 686              		.cfi_endproc
 687              	.LFE165:
 688              		.size	lv_event_get_user_data, .-lv_event_get_user_data
 689              		.section	.text.lv_event_stop_bubbling,"ax",%progbits
 690              		.align	2
 691              		.global	lv_event_stop_bubbling
 692              		.thumb
 693              		.thumb_func
 694              		.type	lv_event_stop_bubbling, %function
 695              	lv_event_stop_bubbling:
 696              	.LFB166:
 134:..\..\..\arduinoLCD\test\Pain Drain\libraries\lvgl\src\core/lv_event.c ****     e->stop_bubbling = 1;
 697              		.loc 1 134 0
 698              		.cfi_startproc
 699              		@ args = 0, pretend = 0, frame = 0
 700              		@ frame_needed = 0, uses_anonymous_args = 0
 701              		@ link register save eliminated.
 702              	.LVL75:
 135:..\..\..\arduinoLCD\test\Pain Drain\libraries\lvgl\src\core/lv_event.c **** }
 703              		.loc 1 135 0
 704 0000 037E     		ldrb	r3, [r0, #24]	@ zero_extendqisi2
 705 0002 43F00403 		orr	r3, r3, #4
 706 0006 0376     		strb	r3, [r0, #24]
 707 0008 7047     		bx	lr
 708              		.cfi_endproc
 709              	.LFE166:
 710              		.size	lv_event_stop_bubbling, .-lv_event_stop_bubbling
 711 000a 00BF     		.section	.text.lv_event_stop_processing,"ax",%progbits
 712              		.align	2
 713              		.global	lv_event_stop_processing
 714              		.thumb
 715              		.thumb_func
 716              		.type	lv_event_stop_processing, %function
 717              	lv_event_stop_processing:
 718              	.LFB167:
 139:..\..\..\arduinoLCD\test\Pain Drain\libraries\lvgl\src\core/lv_event.c ****     e->stop_processing = 1;
 719              		.loc 1 139 0
 720              		.cfi_startproc
 721              		@ args = 0, pretend = 0, frame = 0
 722              		@ frame_needed = 0, uses_anonymous_args = 0
 723              		@ link register save eliminated.
 724              	.LVL76:
 140:..\..\..\arduinoLCD\test\Pain Drain\libraries\lvgl\src\core/lv_event.c **** }
 725              		.loc 1 140 0
 726 0000 037E     		ldrb	r3, [r0, #24]	@ zero_extendqisi2
 727 0002 43F00203 		orr	r3, r3, #2
 728 0006 0376     		strb	r3, [r0, #24]
 729 0008 7047     		bx	lr
 730              		.cfi_endproc
 731              	.LFE167:
 732              		.size	lv_event_stop_processing, .-lv_event_stop_processing
 733 000a 00BF     		.section	.text.lv_event_register_id,"ax",%progbits
 734              		.align	2
 735              		.global	lv_event_register_id
 736              		.thumb
ARM GAS  C:\Users\haske\AppData\Local\Temp\ccnNTYZ7.s 			page 25


 737              		.thumb_func
 738              		.type	lv_event_register_id, %function
 739              	lv_event_register_id:
 740              	.LFB168:
 145:..\..\..\arduinoLCD\test\Pain Drain\libraries\lvgl\src\core/lv_event.c ****     static uint32_t last_id = _LV_EVENT_LAST;
 741              		.loc 1 145 0
 742              		.cfi_startproc
 743              		@ args = 0, pretend = 0, frame = 0
 744              		@ frame_needed = 0, uses_anonymous_args = 0
 745              		@ link register save eliminated.
 147:..\..\..\arduinoLCD\test\Pain Drain\libraries\lvgl\src\core/lv_event.c ****     return last_id;
 746              		.loc 1 147 0
 747 0000 024B     		ldr	r3, .L64
 748 0002 1868     		ldr	r0, [r3]
 749 0004 0130     		adds	r0, r0, #1
 750 0006 1860     		str	r0, [r3]
 149:..\..\..\arduinoLCD\test\Pain Drain\libraries\lvgl\src\core/lv_event.c **** 
 751              		.loc 1 149 0
 752 0008 7047     		bx	lr
 753              	.L65:
 754 000a 00BF     		.align	2
 755              	.L64:
 756 000c 00000000 		.word	.LANCHOR1
 757              		.cfi_endproc
 758              	.LFE168:
 759              		.size	lv_event_register_id, .-lv_event_register_id
 760              		.section	.text._lv_event_mark_deleted,"ax",%progbits
 761              		.align	2
 762              		.global	_lv_event_mark_deleted
 763              		.thumb
 764              		.thumb_func
 765              		.type	_lv_event_mark_deleted, %function
 766              	_lv_event_mark_deleted:
 767              	.LFB169:
 152:..\..\..\arduinoLCD\test\Pain Drain\libraries\lvgl\src\core/lv_event.c ****     lv_event_t * e = event_head;
 768              		.loc 1 152 0
 769              		.cfi_startproc
 770              		@ args = 0, pretend = 0, frame = 0
 771              		@ frame_needed = 0, uses_anonymous_args = 0
 772              		@ link register save eliminated.
 773              	.LVL77:
 153:..\..\..\arduinoLCD\test\Pain Drain\libraries\lvgl\src\core/lv_event.c **** 
 774              		.loc 1 153 0
 775 0000 084B     		ldr	r3, .L71
 776 0002 1B68     		ldr	r3, [r3]
 777              	.LVL78:
 155:..\..\..\arduinoLCD\test\Pain Drain\libraries\lvgl\src\core/lv_event.c ****         if(e->current_target == obj || e->target == obj) e->deleted = 1;
 778              		.loc 1 155 0
 779 0004 0AE0     		b	.L67
 780              	.L70:
 156:..\..\..\arduinoLCD\test\Pain Drain\libraries\lvgl\src\core/lv_event.c ****         e = e->prev;
 781              		.loc 1 156 0
 782 0006 5A68     		ldr	r2, [r3, #4]
 783 0008 8242     		cmp	r2, r0
 784 000a 02D0     		beq	.L68
 156:..\..\..\arduinoLCD\test\Pain Drain\libraries\lvgl\src\core/lv_event.c ****         e = e->prev;
 785              		.loc 1 156 0 is_stmt 0 discriminator 2
ARM GAS  C:\Users\haske\AppData\Local\Temp\ccnNTYZ7.s 			page 26


 786 000c 1A68     		ldr	r2, [r3]
 787 000e 9042     		cmp	r0, r2
 788 0010 03D1     		bne	.L69
 789              	.L68:
 156:..\..\..\arduinoLCD\test\Pain Drain\libraries\lvgl\src\core/lv_event.c ****         e = e->prev;
 790              		.loc 1 156 0 discriminator 3
 791 0012 1A7E     		ldrb	r2, [r3, #24]	@ zero_extendqisi2
 792 0014 42F00102 		orr	r2, r2, #1
 793 0018 1A76     		strb	r2, [r3, #24]
 794              	.L69:
 157:..\..\..\arduinoLCD\test\Pain Drain\libraries\lvgl\src\core/lv_event.c ****     }
 795              		.loc 1 157 0 is_stmt 1
 796 001a 5B69     		ldr	r3, [r3, #20]
 797              	.LVL79:
 798              	.L67:
 155:..\..\..\arduinoLCD\test\Pain Drain\libraries\lvgl\src\core/lv_event.c ****         if(e->current_target == obj || e->target == obj) e->deleted = 1;
 799              		.loc 1 155 0
 800 001c 002B     		cmp	r3, #0
 801 001e F2D1     		bne	.L70
 159:..\..\..\arduinoLCD\test\Pain Drain\libraries\lvgl\src\core/lv_event.c **** 
 802              		.loc 1 159 0
 803 0020 7047     		bx	lr
 804              	.L72:
 805 0022 00BF     		.align	2
 806              	.L71:
 807 0024 00000000 		.word	.LANCHOR0
 808              		.cfi_endproc
 809              	.LFE169:
 810              		.size	_lv_event_mark_deleted, .-_lv_event_mark_deleted
 811              		.section	.text.lv_obj_add_event_cb,"ax",%progbits
 812              		.align	2
 813              		.global	lv_obj_add_event_cb
 814              		.thumb
 815              		.thumb_func
 816              		.type	lv_obj_add_event_cb, %function
 817              	lv_obj_add_event_cb:
 818              	.LFB170:
 164:..\..\..\arduinoLCD\test\Pain Drain\libraries\lvgl\src\core/lv_event.c ****     LV_ASSERT_OBJ(obj, MY_CLASS);
 819              		.loc 1 164 0
 820              		.cfi_startproc
 821              		@ args = 0, pretend = 0, frame = 0
 822              		@ frame_needed = 0, uses_anonymous_args = 0
 823              	.LVL80:
 824 0000 2DE9F041 		push	{r4, r5, r6, r7, r8, lr}
 825              		.cfi_def_cfa_offset 24
 826              		.cfi_offset 4, -24
 827              		.cfi_offset 5, -20
 828              		.cfi_offset 6, -16
 829              		.cfi_offset 7, -12
 830              		.cfi_offset 8, -8
 831              		.cfi_offset 14, -4
 832 0004 0446     		mov	r4, r0
 833 0006 0F46     		mov	r7, r1
 834 0008 1646     		mov	r6, r2
 835 000a 1D46     		mov	r5, r3
 166:..\..\..\arduinoLCD\test\Pain Drain\libraries\lvgl\src\core/lv_event.c **** 
 836              		.loc 1 166 0
ARM GAS  C:\Users\haske\AppData\Local\Temp\ccnNTYZ7.s 			page 27


 837 000c FFF7FEFF 		bl	lv_obj_allocate_spec_attr
 838              	.LVL81:
 168:..\..\..\arduinoLCD\test\Pain Drain\libraries\lvgl\src\core/lv_event.c ****     obj->spec_attr->event_dsc = lv_mem_realloc(obj->spec_attr->event_dsc,
 839              		.loc 1 168 0
 840 0010 A168     		ldr	r1, [r4, #8]
 841 0012 8B7E     		ldrb	r3, [r1, #26]	@ zero_extendqisi2
 842 0014 03F03F02 		and	r2, r3, #63
 843 0018 0132     		adds	r2, r2, #1
 844 001a 62F30503 		bfi	r3, r2, #0, #6
 845 001e 8B76     		strb	r3, [r1, #26]
 169:..\..\..\arduinoLCD\test\Pain Drain\libraries\lvgl\src\core/lv_event.c ****                                                obj->spec_attr->event_dsc_cnt * sizeof(lv_event_dsc_
 846              		.loc 1 169 0
 847 0020 D4F80880 		ldr	r8, [r4, #8]
 170:..\..\..\arduinoLCD\test\Pain Drain\libraries\lvgl\src\core/lv_event.c ****     LV_ASSERT_MALLOC(obj->spec_attr->event_dsc);
 848              		.loc 1 170 0
 849 0024 98F81A30 		ldrb	r3, [r8, #26]	@ zero_extendqisi2
 850 0028 03F03F03 		and	r3, r3, #63
 169:..\..\..\arduinoLCD\test\Pain Drain\libraries\lvgl\src\core/lv_event.c ****                                                obj->spec_attr->event_dsc_cnt * sizeof(lv_event_dsc_
 851              		.loc 1 169 0
 852 002c 03EB4303 		add	r3, r3, r3, lsl #1
 853 0030 9900     		lsls	r1, r3, #2
 854 0032 D8F80C00 		ldr	r0, [r8, #12]
 855 0036 FFF7FEFF 		bl	lv_mem_realloc
 856              	.LVL82:
 857 003a C8F80C00 		str	r0, [r8, #12]
 171:..\..\..\arduinoLCD\test\Pain Drain\libraries\lvgl\src\core/lv_event.c **** 
 858              		.loc 1 171 0
 859 003e A368     		ldr	r3, [r4, #8]
 860 0040 D968     		ldr	r1, [r3, #12]
 861 0042 01B9     		cbnz	r1, .L74
 862              	.L75:
 863 0044 FEE7     		b	.L75
 864              	.L74:
 173:..\..\..\arduinoLCD\test\Pain Drain\libraries\lvgl\src\core/lv_event.c ****     obj->spec_attr->event_dsc[obj->spec_attr->event_dsc_cnt - 1].filter = filter;
 865              		.loc 1 173 0
 866 0046 9B7E     		ldrb	r3, [r3, #26]	@ zero_extendqisi2
 867 0048 03F03F03 		and	r3, r3, #63
 868 004c 03EB4303 		add	r3, r3, r3, lsl #1
 869 0050 9A00     		lsls	r2, r3, #2
 870 0052 0C3A     		subs	r2, r2, #12
 871 0054 8F50     		str	r7, [r1, r2]
 174:..\..\..\arduinoLCD\test\Pain Drain\libraries\lvgl\src\core/lv_event.c ****     obj->spec_attr->event_dsc[obj->spec_attr->event_dsc_cnt - 1].user_data = user_data;
 872              		.loc 1 174 0
 873 0056 A268     		ldr	r2, [r4, #8]
 874 0058 D168     		ldr	r1, [r2, #12]
 875 005a 937E     		ldrb	r3, [r2, #26]	@ zero_extendqisi2
 876 005c 03F03F03 		and	r3, r3, #63
 877 0060 03EB4303 		add	r3, r3, r3, lsl #1
 878 0064 9A00     		lsls	r2, r3, #2
 879 0066 0C3A     		subs	r2, r2, #12
 880 0068 8B18     		adds	r3, r1, r2
 881 006a 1E72     		strb	r6, [r3, #8]
 175:..\..\..\arduinoLCD\test\Pain Drain\libraries\lvgl\src\core/lv_event.c **** 
 882              		.loc 1 175 0
 883 006c A268     		ldr	r2, [r4, #8]
 884 006e D168     		ldr	r1, [r2, #12]
 885 0070 937E     		ldrb	r3, [r2, #26]	@ zero_extendqisi2
ARM GAS  C:\Users\haske\AppData\Local\Temp\ccnNTYZ7.s 			page 28


 886 0072 03F03F03 		and	r3, r3, #63
 887 0076 03EB4303 		add	r3, r3, r3, lsl #1
 888 007a 9A00     		lsls	r2, r3, #2
 889 007c 0C3A     		subs	r2, r2, #12
 890 007e 8B18     		adds	r3, r1, r2
 891 0080 5D60     		str	r5, [r3, #4]
 177:..\..\..\arduinoLCD\test\Pain Drain\libraries\lvgl\src\core/lv_event.c **** }
 892              		.loc 1 177 0
 893 0082 A368     		ldr	r3, [r4, #8]
 894 0084 D868     		ldr	r0, [r3, #12]
 895 0086 9B7E     		ldrb	r3, [r3, #26]	@ zero_extendqisi2
 896 0088 03F03F03 		and	r3, r3, #63
 897 008c 03EB4303 		add	r3, r3, r3, lsl #1
 898 0090 9A00     		lsls	r2, r3, #2
 899 0092 0C3A     		subs	r2, r2, #12
 178:..\..\..\arduinoLCD\test\Pain Drain\libraries\lvgl\src\core/lv_event.c **** 
 900              		.loc 1 178 0
 901 0094 1044     		add	r0, r0, r2
 902 0096 BDE8F081 		pop	{r4, r5, r6, r7, r8, pc}
 903              		.cfi_endproc
 904              	.LFE170:
 905              		.size	lv_obj_add_event_cb, .-lv_obj_add_event_cb
 906 009a 00BF     		.section	.text.lv_obj_remove_event_cb,"ax",%progbits
 907              		.align	2
 908              		.global	lv_obj_remove_event_cb
 909              		.thumb
 910              		.thumb_func
 911              		.type	lv_obj_remove_event_cb, %function
 912              	lv_obj_remove_event_cb:
 913              	.LFB171:
 181:..\..\..\arduinoLCD\test\Pain Drain\libraries\lvgl\src\core/lv_event.c ****     LV_ASSERT_OBJ(obj, MY_CLASS);
 914              		.loc 1 181 0
 915              		.cfi_startproc
 916              		@ args = 0, pretend = 0, frame = 0
 917              		@ frame_needed = 0, uses_anonymous_args = 0
 918              	.LVL83:
 919 0000 70B5     		push	{r4, r5, r6, lr}
 920              		.cfi_def_cfa_offset 16
 921              		.cfi_offset 4, -16
 922              		.cfi_offset 5, -12
 923              		.cfi_offset 6, -8
 924              		.cfi_offset 14, -4
 183:..\..\..\arduinoLCD\test\Pain Drain\libraries\lvgl\src\core/lv_event.c **** 
 925              		.loc 1 183 0
 926 0002 8468     		ldr	r4, [r0, #8]
 927 0004 002C     		cmp	r4, #0
 928 0006 3BD0     		beq	.L85
 929 0008 0546     		mov	r5, r0
 930 000a 0023     		movs	r3, #0
 931 000c 31E0     		b	.L79
 932              	.LVL84:
 933              	.L84:
 187:..\..\..\arduinoLCD\test\Pain Drain\libraries\lvgl\src\core/lv_event.c ****             /*Shift the remaining event handlers forward*/
 934              		.loc 1 187 0
 935 000e A1B1     		cbz	r1, .L80
 187:..\..\..\arduinoLCD\test\Pain Drain\libraries\lvgl\src\core/lv_event.c ****             /*Shift the remaining event handlers forward*/
 936              		.loc 1 187 0 is_stmt 0 discriminator 1
ARM GAS  C:\Users\haske\AppData\Local\Temp\ccnNTYZ7.s 			page 29


 937 0010 E668     		ldr	r6, [r4, #12]
 938 0012 03EB4300 		add	r0, r3, r3, lsl #1
 939 0016 8200     		lsls	r2, r0, #2
 940 0018 B258     		ldr	r2, [r6, r2]
 941 001a 9142     		cmp	r1, r2
 942 001c 28D1     		bne	.L87
 943 001e 0CE0     		b	.L80
 944              	.LVL85:
 945              	.L82:
 190:..\..\..\arduinoLCD\test\Pain Drain\libraries\lvgl\src\core/lv_event.c ****             }
 946              		.loc 1 190 0 is_stmt 1 discriminator 2
 947 0020 C968     		ldr	r1, [r1, #12]
 948 0022 03EB4302 		add	r2, r3, r3, lsl #1
 949 0026 9400     		lsls	r4, r2, #2
 950 0028 0C44     		add	r4, r4, r1
 951 002a 0133     		adds	r3, r3, #1
 952              	.LVL86:
 953 002c 03EB4300 		add	r0, r3, r3, lsl #1
 954 0030 8200     		lsls	r2, r0, #2
 955 0032 0A44     		add	r2, r2, r1
 956 0034 07CA     		ldmia	r2, {r0, r1, r2}
 957 0036 84E80700 		stmia	r4, {r0, r1, r2}
 958              	.LVL87:
 959              	.L80:
 189:..\..\..\arduinoLCD\test\Pain Drain\libraries\lvgl\src\core/lv_event.c ****                 obj->spec_attr->event_dsc[i] = obj->spec_attr->event_dsc[i + 1];
 960              		.loc 1 189 0 discriminator 1
 961 003a A968     		ldr	r1, [r5, #8]
 962 003c 8A7E     		ldrb	r2, [r1, #26]	@ zero_extendqisi2
 963 003e 02F03F02 		and	r2, r2, #63
 964 0042 501E     		subs	r0, r2, #1
 965 0044 8342     		cmp	r3, r0
 966 0046 EBDB     		blt	.L82
 192:..\..\..\arduinoLCD\test\Pain Drain\libraries\lvgl\src\core/lv_event.c ****             obj->spec_attr->event_dsc = lv_mem_realloc(obj->spec_attr->event_dsc,
 967              		.loc 1 192 0
 968 0048 3F32     		adds	r2, r2, #63
 969 004a 8B7E     		ldrb	r3, [r1, #26]	@ zero_extendqisi2
 970              	.LVL88:
 971 004c 62F30503 		bfi	r3, r2, #0, #6
 972 0050 8B76     		strb	r3, [r1, #26]
 193:..\..\..\arduinoLCD\test\Pain Drain\libraries\lvgl\src\core/lv_event.c ****                                                        obj->spec_attr->event_dsc_cnt * sizeof(lv_ev
 973              		.loc 1 193 0
 974 0052 AC68     		ldr	r4, [r5, #8]
 194:..\..\..\arduinoLCD\test\Pain Drain\libraries\lvgl\src\core/lv_event.c ****             LV_ASSERT_MALLOC(obj->spec_attr->event_dsc);
 975              		.loc 1 194 0
 976 0054 A37E     		ldrb	r3, [r4, #26]	@ zero_extendqisi2
 977 0056 03F03F03 		and	r3, r3, #63
 193:..\..\..\arduinoLCD\test\Pain Drain\libraries\lvgl\src\core/lv_event.c ****                                                        obj->spec_attr->event_dsc_cnt * sizeof(lv_ev
 978              		.loc 1 193 0
 979 005a 03EB4303 		add	r3, r3, r3, lsl #1
 980 005e 9900     		lsls	r1, r3, #2
 981 0060 E068     		ldr	r0, [r4, #12]
 982 0062 FFF7FEFF 		bl	lv_mem_realloc
 983              	.LVL89:
 984 0066 E060     		str	r0, [r4, #12]
 195:..\..\..\arduinoLCD\test\Pain Drain\libraries\lvgl\src\core/lv_event.c ****             return true;
 985              		.loc 1 195 0
 986 0068 AB68     		ldr	r3, [r5, #8]
ARM GAS  C:\Users\haske\AppData\Local\Temp\ccnNTYZ7.s 			page 30


 987 006a DB68     		ldr	r3, [r3, #12]
 988 006c 53B9     		cbnz	r3, .L86
 989              	.L83:
 990 006e FEE7     		b	.L83
 991              	.LVL90:
 992              	.L87:
 186:..\..\..\arduinoLCD\test\Pain Drain\libraries\lvgl\src\core/lv_event.c ****         if(event_cb == NULL || obj->spec_attr->event_dsc[i].cb == event_cb) {
 993              		.loc 1 186 0 discriminator 2
 994 0070 0133     		adds	r3, r3, #1
 995              	.LVL91:
 996              	.L79:
 186:..\..\..\arduinoLCD\test\Pain Drain\libraries\lvgl\src\core/lv_event.c ****         if(event_cb == NULL || obj->spec_attr->event_dsc[i].cb == event_cb) {
 997              		.loc 1 186 0 is_stmt 0 discriminator 1
 998 0072 A27E     		ldrb	r2, [r4, #26]	@ zero_extendqisi2
 999 0074 02F03F02 		and	r2, r2, #63
 1000 0078 9342     		cmp	r3, r2
 1001 007a C8DB     		blt	.L84
 201:..\..\..\arduinoLCD\test\Pain Drain\libraries\lvgl\src\core/lv_event.c **** }
 1002              		.loc 1 201 0 is_stmt 1
 1003 007c 0020     		movs	r0, #0
 1004 007e 70BD     		pop	{r4, r5, r6, pc}
 1005              	.LVL92:
 1006              	.L85:
 183:..\..\..\arduinoLCD\test\Pain Drain\libraries\lvgl\src\core/lv_event.c **** 
 1007              		.loc 1 183 0
 1008 0080 0020     		movs	r0, #0
 1009              	.LVL93:
 1010 0082 70BD     		pop	{r4, r5, r6, pc}
 1011              	.LVL94:
 1012              	.L86:
 196:..\..\..\arduinoLCD\test\Pain Drain\libraries\lvgl\src\core/lv_event.c ****         }
 1013              		.loc 1 196 0
 1014 0084 0120     		movs	r0, #1
 202:..\..\..\arduinoLCD\test\Pain Drain\libraries\lvgl\src\core/lv_event.c **** 
 1015              		.loc 1 202 0
 1016 0086 70BD     		pop	{r4, r5, r6, pc}
 1017              		.cfi_endproc
 1018              	.LFE171:
 1019              		.size	lv_obj_remove_event_cb, .-lv_obj_remove_event_cb
 1020              		.section	.text.lv_obj_remove_event_cb_with_user_data,"ax",%progbits
 1021              		.align	2
 1022              		.global	lv_obj_remove_event_cb_with_user_data
 1023              		.thumb
 1024              		.thumb_func
 1025              		.type	lv_obj_remove_event_cb_with_user_data, %function
 1026              	lv_obj_remove_event_cb_with_user_data:
 1027              	.LFB172:
 205:..\..\..\arduinoLCD\test\Pain Drain\libraries\lvgl\src\core/lv_event.c ****     LV_ASSERT_OBJ(obj, MY_CLASS);
 1028              		.loc 1 205 0
 1029              		.cfi_startproc
 1030              		@ args = 0, pretend = 0, frame = 0
 1031              		@ frame_needed = 0, uses_anonymous_args = 0
 1032              	.LVL95:
 1033 0000 F8B5     		push	{r3, r4, r5, r6, r7, lr}
 1034              		.cfi_def_cfa_offset 24
 1035              		.cfi_offset 3, -24
 1036              		.cfi_offset 4, -20
ARM GAS  C:\Users\haske\AppData\Local\Temp\ccnNTYZ7.s 			page 31


 1037              		.cfi_offset 5, -16
 1038              		.cfi_offset 6, -12
 1039              		.cfi_offset 7, -8
 1040              		.cfi_offset 14, -4
 207:..\..\..\arduinoLCD\test\Pain Drain\libraries\lvgl\src\core/lv_event.c **** 
 1041              		.loc 1 207 0
 1042 0002 8568     		ldr	r5, [r0, #8]
 1043 0004 002D     		cmp	r5, #0
 1044 0006 43D0     		beq	.L98
 1045 0008 0746     		mov	r7, r0
 1046 000a 0023     		movs	r3, #0
 1047 000c 39E0     		b	.L91
 1048              	.LVL96:
 1049              	.L97:
 211:..\..\..\arduinoLCD\test\Pain Drain\libraries\lvgl\src\core/lv_event.c ****            obj->spec_attr->event_dsc[i].user_data == user_data) {
 1050              		.loc 1 211 0
 1051 000e 31B1     		cbz	r1, .L92
 211:..\..\..\arduinoLCD\test\Pain Drain\libraries\lvgl\src\core/lv_event.c ****            obj->spec_attr->event_dsc[i].user_data == user_data) {
 1052              		.loc 1 211 0 is_stmt 0 discriminator 2
 1053 0010 EE68     		ldr	r6, [r5, #12]
 1054 0012 03EB4304 		add	r4, r3, r3, lsl #1
 1055 0016 A000     		lsls	r0, r4, #2
 1056 0018 3058     		ldr	r0, [r6, r0]
 1057 001a 8142     		cmp	r1, r0
 1058 001c 30D1     		bne	.L93
 1059              	.L92:
 212:..\..\..\arduinoLCD\test\Pain Drain\libraries\lvgl\src\core/lv_event.c ****             /*Shift the remaining event handlers forward*/
 1060              		.loc 1 212 0 is_stmt 1 discriminator 3
 1061 001e EE68     		ldr	r6, [r5, #12]
 1062 0020 03EB4304 		add	r4, r3, r3, lsl #1
 1063 0024 A000     		lsls	r0, r4, #2
 1064 0026 3044     		add	r0, r0, r6
 1065 0028 4068     		ldr	r0, [r0, #4]
 211:..\..\..\arduinoLCD\test\Pain Drain\libraries\lvgl\src\core/lv_event.c ****            obj->spec_attr->event_dsc[i].user_data == user_data) {
 1066              		.loc 1 211 0 discriminator 3
 1067 002a 9042     		cmp	r0, r2
 1068 002c 28D1     		bne	.L93
 1069 002e 0CE0     		b	.L94
 1070              	.LVL97:
 1071              	.L95:
 215:..\..\..\arduinoLCD\test\Pain Drain\libraries\lvgl\src\core/lv_event.c ****             }
 1072              		.loc 1 215 0 discriminator 2
 1073 0030 C968     		ldr	r1, [r1, #12]
 1074 0032 03EB4302 		add	r2, r3, r3, lsl #1
 1075 0036 9400     		lsls	r4, r2, #2
 1076 0038 0C44     		add	r4, r4, r1
 1077 003a 0133     		adds	r3, r3, #1
 1078              	.LVL98:
 1079 003c 03EB4300 		add	r0, r3, r3, lsl #1
 1080 0040 8200     		lsls	r2, r0, #2
 1081 0042 0A44     		add	r2, r2, r1
 1082 0044 07CA     		ldmia	r2, {r0, r1, r2}
 1083 0046 84E80700 		stmia	r4, {r0, r1, r2}
 1084              	.LVL99:
 1085              	.L94:
 214:..\..\..\arduinoLCD\test\Pain Drain\libraries\lvgl\src\core/lv_event.c ****                 obj->spec_attr->event_dsc[i] = obj->spec_attr->event_dsc[i + 1];
 1086              		.loc 1 214 0 discriminator 1
ARM GAS  C:\Users\haske\AppData\Local\Temp\ccnNTYZ7.s 			page 32


 1087 004a B968     		ldr	r1, [r7, #8]
 1088 004c 8A7E     		ldrb	r2, [r1, #26]	@ zero_extendqisi2
 1089 004e 02F03F02 		and	r2, r2, #63
 1090 0052 501E     		subs	r0, r2, #1
 1091 0054 8342     		cmp	r3, r0
 1092 0056 EBDB     		blt	.L95
 217:..\..\..\arduinoLCD\test\Pain Drain\libraries\lvgl\src\core/lv_event.c ****             obj->spec_attr->event_dsc = lv_mem_realloc(obj->spec_attr->event_dsc,
 1093              		.loc 1 217 0
 1094 0058 3F32     		adds	r2, r2, #63
 1095 005a 8B7E     		ldrb	r3, [r1, #26]	@ zero_extendqisi2
 1096              	.LVL100:
 1097 005c 62F30503 		bfi	r3, r2, #0, #6
 1098 0060 8B76     		strb	r3, [r1, #26]
 218:..\..\..\arduinoLCD\test\Pain Drain\libraries\lvgl\src\core/lv_event.c ****                                                        obj->spec_attr->event_dsc_cnt * sizeof(lv_ev
 1099              		.loc 1 218 0
 1100 0062 BC68     		ldr	r4, [r7, #8]
 219:..\..\..\arduinoLCD\test\Pain Drain\libraries\lvgl\src\core/lv_event.c ****             LV_ASSERT_MALLOC(obj->spec_attr->event_dsc);
 1101              		.loc 1 219 0
 1102 0064 A37E     		ldrb	r3, [r4, #26]	@ zero_extendqisi2
 1103 0066 03F03F03 		and	r3, r3, #63
 218:..\..\..\arduinoLCD\test\Pain Drain\libraries\lvgl\src\core/lv_event.c ****                                                        obj->spec_attr->event_dsc_cnt * sizeof(lv_ev
 1104              		.loc 1 218 0
 1105 006a 03EB4303 		add	r3, r3, r3, lsl #1
 1106 006e 9900     		lsls	r1, r3, #2
 1107 0070 E068     		ldr	r0, [r4, #12]
 1108 0072 FFF7FEFF 		bl	lv_mem_realloc
 1109              	.LVL101:
 1110 0076 E060     		str	r0, [r4, #12]
 220:..\..\..\arduinoLCD\test\Pain Drain\libraries\lvgl\src\core/lv_event.c ****             return true;
 1111              		.loc 1 220 0
 1112 0078 BB68     		ldr	r3, [r7, #8]
 1113 007a DB68     		ldr	r3, [r3, #12]
 1114 007c 53B9     		cbnz	r3, .L99
 1115              	.L96:
 1116 007e FEE7     		b	.L96
 1117              	.LVL102:
 1118              	.L93:
 210:..\..\..\arduinoLCD\test\Pain Drain\libraries\lvgl\src\core/lv_event.c ****         if((event_cb == NULL || obj->spec_attr->event_dsc[i].cb == event_cb) &&
 1119              		.loc 1 210 0 discriminator 2
 1120 0080 0133     		adds	r3, r3, #1
 1121              	.LVL103:
 1122              	.L91:
 210:..\..\..\arduinoLCD\test\Pain Drain\libraries\lvgl\src\core/lv_event.c ****         if((event_cb == NULL || obj->spec_attr->event_dsc[i].cb == event_cb) &&
 1123              		.loc 1 210 0 is_stmt 0 discriminator 1
 1124 0082 A87E     		ldrb	r0, [r5, #26]	@ zero_extendqisi2
 1125 0084 00F03F00 		and	r0, r0, #63
 1126 0088 8342     		cmp	r3, r0
 1127 008a C0DB     		blt	.L97
 226:..\..\..\arduinoLCD\test\Pain Drain\libraries\lvgl\src\core/lv_event.c **** }
 1128              		.loc 1 226 0 is_stmt 1
 1129 008c 0020     		movs	r0, #0
 1130 008e F8BD     		pop	{r3, r4, r5, r6, r7, pc}
 1131              	.LVL104:
 1132              	.L98:
 207:..\..\..\arduinoLCD\test\Pain Drain\libraries\lvgl\src\core/lv_event.c **** 
 1133              		.loc 1 207 0
 1134 0090 0020     		movs	r0, #0
ARM GAS  C:\Users\haske\AppData\Local\Temp\ccnNTYZ7.s 			page 33


 1135              	.LVL105:
 1136 0092 F8BD     		pop	{r3, r4, r5, r6, r7, pc}
 1137              	.LVL106:
 1138              	.L99:
 221:..\..\..\arduinoLCD\test\Pain Drain\libraries\lvgl\src\core/lv_event.c ****         }
 1139              		.loc 1 221 0
 1140 0094 0120     		movs	r0, #1
 227:..\..\..\arduinoLCD\test\Pain Drain\libraries\lvgl\src\core/lv_event.c **** 
 1141              		.loc 1 227 0
 1142 0096 F8BD     		pop	{r3, r4, r5, r6, r7, pc}
 1143              		.cfi_endproc
 1144              	.LFE172:
 1145              		.size	lv_obj_remove_event_cb_with_user_data, .-lv_obj_remove_event_cb_with_user_data
 1146              		.section	.text.lv_obj_remove_event_dsc,"ax",%progbits
 1147              		.align	2
 1148              		.global	lv_obj_remove_event_dsc
 1149              		.thumb
 1150              		.thumb_func
 1151              		.type	lv_obj_remove_event_dsc, %function
 1152              	lv_obj_remove_event_dsc:
 1153              	.LFB173:
 231:..\..\..\arduinoLCD\test\Pain Drain\libraries\lvgl\src\core/lv_event.c ****     LV_ASSERT_OBJ(obj, MY_CLASS);
 1154              		.loc 1 231 0
 1155              		.cfi_startproc
 1156              		@ args = 0, pretend = 0, frame = 0
 1157              		@ frame_needed = 0, uses_anonymous_args = 0
 1158              	.LVL107:
 1159 0000 70B5     		push	{r4, r5, r6, lr}
 1160              		.cfi_def_cfa_offset 16
 1161              		.cfi_offset 4, -16
 1162              		.cfi_offset 5, -12
 1163              		.cfi_offset 6, -8
 1164              		.cfi_offset 14, -4
 233:..\..\..\arduinoLCD\test\Pain Drain\libraries\lvgl\src\core/lv_event.c **** 
 1165              		.loc 1 233 0
 1166 0002 8468     		ldr	r4, [r0, #8]
 1167 0004 002C     		cmp	r4, #0
 1168 0006 3AD0     		beq	.L109
 1169 0008 0546     		mov	r5, r0
 1170 000a 0023     		movs	r3, #0
 1171 000c 30E0     		b	.L103
 1172              	.LVL108:
 1173              	.L108:
 237:..\..\..\arduinoLCD\test\Pain Drain\libraries\lvgl\src\core/lv_event.c ****             /*Shift the remaining event handlers forward*/
 1174              		.loc 1 237 0
 1175 000e E668     		ldr	r6, [r4, #12]
 1176 0010 03EB4300 		add	r0, r3, r3, lsl #1
 1177 0014 8200     		lsls	r2, r0, #2
 1178 0016 3244     		add	r2, r2, r6
 1179 0018 8A42     		cmp	r2, r1
 1180 001a 28D1     		bne	.L111
 1181 001c 0CE0     		b	.L104
 1182              	.LVL109:
 1183              	.L106:
 240:..\..\..\arduinoLCD\test\Pain Drain\libraries\lvgl\src\core/lv_event.c ****             }
 1184              		.loc 1 240 0 discriminator 2
 1185 001e C968     		ldr	r1, [r1, #12]
ARM GAS  C:\Users\haske\AppData\Local\Temp\ccnNTYZ7.s 			page 34


 1186 0020 03EB4302 		add	r2, r3, r3, lsl #1
 1187 0024 9400     		lsls	r4, r2, #2
 1188 0026 0C44     		add	r4, r4, r1
 1189 0028 0133     		adds	r3, r3, #1
 1190              	.LVL110:
 1191 002a 03EB4300 		add	r0, r3, r3, lsl #1
 1192 002e 8200     		lsls	r2, r0, #2
 1193 0030 0A44     		add	r2, r2, r1
 1194 0032 07CA     		ldmia	r2, {r0, r1, r2}
 1195 0034 84E80700 		stmia	r4, {r0, r1, r2}
 1196              	.LVL111:
 1197              	.L104:
 239:..\..\..\arduinoLCD\test\Pain Drain\libraries\lvgl\src\core/lv_event.c ****                 obj->spec_attr->event_dsc[i] = obj->spec_attr->event_dsc[i + 1];
 1198              		.loc 1 239 0 discriminator 1
 1199 0038 A968     		ldr	r1, [r5, #8]
 1200 003a 8A7E     		ldrb	r2, [r1, #26]	@ zero_extendqisi2
 1201 003c 02F03F02 		and	r2, r2, #63
 1202 0040 501E     		subs	r0, r2, #1
 1203 0042 8342     		cmp	r3, r0
 1204 0044 EBDB     		blt	.L106
 242:..\..\..\arduinoLCD\test\Pain Drain\libraries\lvgl\src\core/lv_event.c ****             obj->spec_attr->event_dsc = lv_mem_realloc(obj->spec_attr->event_dsc,
 1205              		.loc 1 242 0
 1206 0046 3F32     		adds	r2, r2, #63
 1207 0048 8B7E     		ldrb	r3, [r1, #26]	@ zero_extendqisi2
 1208              	.LVL112:
 1209 004a 62F30503 		bfi	r3, r2, #0, #6
 1210 004e 8B76     		strb	r3, [r1, #26]
 243:..\..\..\arduinoLCD\test\Pain Drain\libraries\lvgl\src\core/lv_event.c ****                                                        obj->spec_attr->event_dsc_cnt * sizeof(lv_ev
 1211              		.loc 1 243 0
 1212 0050 AC68     		ldr	r4, [r5, #8]
 244:..\..\..\arduinoLCD\test\Pain Drain\libraries\lvgl\src\core/lv_event.c ****             LV_ASSERT_MALLOC(obj->spec_attr->event_dsc);
 1213              		.loc 1 244 0
 1214 0052 A37E     		ldrb	r3, [r4, #26]	@ zero_extendqisi2
 1215 0054 03F03F03 		and	r3, r3, #63
 243:..\..\..\arduinoLCD\test\Pain Drain\libraries\lvgl\src\core/lv_event.c ****                                                        obj->spec_attr->event_dsc_cnt * sizeof(lv_ev
 1216              		.loc 1 243 0
 1217 0058 03EB4303 		add	r3, r3, r3, lsl #1
 1218 005c 9900     		lsls	r1, r3, #2
 1219 005e E068     		ldr	r0, [r4, #12]
 1220 0060 FFF7FEFF 		bl	lv_mem_realloc
 1221              	.LVL113:
 1222 0064 E060     		str	r0, [r4, #12]
 245:..\..\..\arduinoLCD\test\Pain Drain\libraries\lvgl\src\core/lv_event.c ****             return true;
 1223              		.loc 1 245 0
 1224 0066 AB68     		ldr	r3, [r5, #8]
 1225 0068 DB68     		ldr	r3, [r3, #12]
 1226 006a 53B9     		cbnz	r3, .L110
 1227              	.L107:
 1228 006c FEE7     		b	.L107
 1229              	.LVL114:
 1230              	.L111:
 236:..\..\..\arduinoLCD\test\Pain Drain\libraries\lvgl\src\core/lv_event.c ****         if(&obj->spec_attr->event_dsc[i] == event_dsc) {
 1231              		.loc 1 236 0 discriminator 2
 1232 006e 0133     		adds	r3, r3, #1
 1233              	.LVL115:
 1234              	.L103:
 236:..\..\..\arduinoLCD\test\Pain Drain\libraries\lvgl\src\core/lv_event.c ****         if(&obj->spec_attr->event_dsc[i] == event_dsc) {
ARM GAS  C:\Users\haske\AppData\Local\Temp\ccnNTYZ7.s 			page 35


 1235              		.loc 1 236 0 is_stmt 0 discriminator 1
 1236 0070 A27E     		ldrb	r2, [r4, #26]	@ zero_extendqisi2
 1237 0072 02F03F02 		and	r2, r2, #63
 1238 0076 9342     		cmp	r3, r2
 1239 0078 C9DB     		blt	.L108
 251:..\..\..\arduinoLCD\test\Pain Drain\libraries\lvgl\src\core/lv_event.c **** }
 1240              		.loc 1 251 0 is_stmt 1
 1241 007a 0020     		movs	r0, #0
 1242 007c 70BD     		pop	{r4, r5, r6, pc}
 1243              	.LVL116:
 1244              	.L109:
 233:..\..\..\arduinoLCD\test\Pain Drain\libraries\lvgl\src\core/lv_event.c **** 
 1245              		.loc 1 233 0
 1246 007e 0020     		movs	r0, #0
 1247              	.LVL117:
 1248 0080 70BD     		pop	{r4, r5, r6, pc}
 1249              	.LVL118:
 1250              	.L110:
 246:..\..\..\arduinoLCD\test\Pain Drain\libraries\lvgl\src\core/lv_event.c ****         }
 1251              		.loc 1 246 0
 1252 0082 0120     		movs	r0, #1
 252:..\..\..\arduinoLCD\test\Pain Drain\libraries\lvgl\src\core/lv_event.c **** 
 1253              		.loc 1 252 0
 1254 0084 70BD     		pop	{r4, r5, r6, pc}
 1255              		.cfi_endproc
 1256              	.LFE173:
 1257              		.size	lv_obj_remove_event_dsc, .-lv_obj_remove_event_dsc
 1258 0086 00BF     		.section	.text.lv_obj_get_event_user_data,"ax",%progbits
 1259              		.align	2
 1260              		.global	lv_obj_get_event_user_data
 1261              		.thumb
 1262              		.thumb_func
 1263              		.type	lv_obj_get_event_user_data, %function
 1264              	lv_obj_get_event_user_data:
 1265              	.LFB174:
 255:..\..\..\arduinoLCD\test\Pain Drain\libraries\lvgl\src\core/lv_event.c ****     LV_ASSERT_OBJ(obj, MY_CLASS);
 1266              		.loc 1 255 0
 1267              		.cfi_startproc
 1268              		@ args = 0, pretend = 0, frame = 0
 1269              		@ frame_needed = 0, uses_anonymous_args = 0
 1270              		@ link register save eliminated.
 1271              	.LVL119:
 1272 0000 30B4     		push	{r4, r5}
 1273              		.cfi_def_cfa_offset 8
 1274              		.cfi_offset 4, -8
 1275              		.cfi_offset 5, -4
 257:..\..\..\arduinoLCD\test\Pain Drain\libraries\lvgl\src\core/lv_event.c **** 
 1276              		.loc 1 257 0
 1277 0002 8568     		ldr	r5, [r0, #8]
 1278 0004 9DB1     		cbz	r5, .L118
 1279 0006 0023     		movs	r3, #0
 1280 0008 0AE0     		b	.L115
 1281              	.LVL120:
 1282              	.L117:
 261:..\..\..\arduinoLCD\test\Pain Drain\libraries\lvgl\src\core/lv_event.c ****     }
 1283              		.loc 1 261 0
 1284 000a E868     		ldr	r0, [r5, #12]
ARM GAS  C:\Users\haske\AppData\Local\Temp\ccnNTYZ7.s 			page 36


 1285 000c 03EB4304 		add	r4, r3, r3, lsl #1
 1286 0010 A200     		lsls	r2, r4, #2
 1287 0012 8418     		adds	r4, r0, r2
 1288 0014 8258     		ldr	r2, [r0, r2]
 1289 0016 8A42     		cmp	r2, r1
 1290 0018 01D1     		bne	.L116
 261:..\..\..\arduinoLCD\test\Pain Drain\libraries\lvgl\src\core/lv_event.c ****     }
 1291              		.loc 1 261 0 is_stmt 0 discriminator 1
 1292 001a 6068     		ldr	r0, [r4, #4]
 1293 001c 08E0     		b	.L114
 1294              	.L116:
 260:..\..\..\arduinoLCD\test\Pain Drain\libraries\lvgl\src\core/lv_event.c ****         if(event_cb == obj->spec_attr->event_dsc[i].cb) return obj->spec_attr->event_dsc[i].user_da
 1295              		.loc 1 260 0 is_stmt 1 discriminator 2
 1296 001e 0133     		adds	r3, r3, #1
 1297              	.LVL121:
 1298              	.L115:
 260:..\..\..\arduinoLCD\test\Pain Drain\libraries\lvgl\src\core/lv_event.c ****         if(event_cb == obj->spec_attr->event_dsc[i].cb) return obj->spec_attr->event_dsc[i].user_da
 1299              		.loc 1 260 0 is_stmt 0 discriminator 1
 1300 0020 AA7E     		ldrb	r2, [r5, #26]	@ zero_extendqisi2
 1301 0022 02F03F02 		and	r2, r2, #63
 1302 0026 9342     		cmp	r3, r2
 1303 0028 EFDB     		blt	.L117
 263:..\..\..\arduinoLCD\test\Pain Drain\libraries\lvgl\src\core/lv_event.c **** }
 1304              		.loc 1 263 0 is_stmt 1
 1305 002a 0020     		movs	r0, #0
 1306 002c 00E0     		b	.L114
 1307              	.LVL122:
 1308              	.L118:
 257:..\..\..\arduinoLCD\test\Pain Drain\libraries\lvgl\src\core/lv_event.c **** 
 1309              		.loc 1 257 0
 1310 002e 0020     		movs	r0, #0
 1311              	.LVL123:
 1312              	.L114:
 264:..\..\..\arduinoLCD\test\Pain Drain\libraries\lvgl\src\core/lv_event.c **** 
 1313              		.loc 1 264 0
 1314 0030 30BC     		pop	{r4, r5}
 1315              		.cfi_restore 5
 1316              		.cfi_restore 4
 1317              		.cfi_def_cfa_offset 0
 1318 0032 7047     		bx	lr
 1319              		.cfi_endproc
 1320              	.LFE174:
 1321              		.size	lv_obj_get_event_user_data, .-lv_obj_get_event_user_data
 1322              		.section	.text.lv_event_get_indev,"ax",%progbits
 1323              		.align	2
 1324              		.global	lv_event_get_indev
 1325              		.thumb
 1326              		.thumb_func
 1327              		.type	lv_event_get_indev, %function
 1328              	lv_event_get_indev:
 1329              	.LFB175:
 267:..\..\..\arduinoLCD\test\Pain Drain\libraries\lvgl\src\core/lv_event.c **** 
 1330              		.loc 1 267 0
 1331              		.cfi_startproc
 1332              		@ args = 0, pretend = 0, frame = 0
 1333              		@ frame_needed = 0, uses_anonymous_args = 0
 1334              	.LVL124:
ARM GAS  C:\Users\haske\AppData\Local\Temp\ccnNTYZ7.s 			page 37


 1335 0000 08B5     		push	{r3, lr}
 1336              		.cfi_def_cfa_offset 8
 1337              		.cfi_offset 3, -8
 1338              		.cfi_offset 14, -4
 269:..\..\..\arduinoLCD\test\Pain Drain\libraries\lvgl\src\core/lv_event.c ****        e->code == LV_EVENT_PRESSING ||
 1339              		.loc 1 269 0
 1340 0002 037A     		ldrb	r3, [r0, #8]	@ zero_extendqisi2
 283:..\..\..\arduinoLCD\test\Pain Drain\libraries\lvgl\src\core/lv_event.c ****        e->code == LV_EVENT_LEAVE) {
 1341              		.loc 1 283 0
 1342 0004 013B     		subs	r3, r3, #1
 1343 0006 DBB2     		uxtb	r3, r3
 269:..\..\..\arduinoLCD\test\Pain Drain\libraries\lvgl\src\core/lv_event.c ****        e->code == LV_EVENT_PRESSING ||
 1344              		.loc 1 269 0
 1345 0008 0F2B     		cmp	r3, #15
 1346 000a 02D8     		bhi	.L122
 285:..\..\..\arduinoLCD\test\Pain Drain\libraries\lvgl\src\core/lv_event.c ****     }
 1347              		.loc 1 285 0
 1348 000c FFF7FEFF 		bl	lv_event_get_param
 1349              	.LVL125:
 1350 0010 08BD     		pop	{r3, pc}
 1351              	.LVL126:
 1352              	.L122:
 289:..\..\..\arduinoLCD\test\Pain Drain\libraries\lvgl\src\core/lv_event.c ****     }
 1353              		.loc 1 289 0
 1354 0012 0020     		movs	r0, #0
 1355              	.LVL127:
 291:..\..\..\arduinoLCD\test\Pain Drain\libraries\lvgl\src\core/lv_event.c **** 
 1356              		.loc 1 291 0
 1357 0014 08BD     		pop	{r3, pc}
 1358              		.cfi_endproc
 1359              	.LFE175:
 1360              		.size	lv_event_get_indev, .-lv_event_get_indev
 1361 0016 00BF     		.section	.text.lv_event_get_draw_part_dsc,"ax",%progbits
 1362              		.align	2
 1363              		.global	lv_event_get_draw_part_dsc
 1364              		.thumb
 1365              		.thumb_func
 1366              		.type	lv_event_get_draw_part_dsc, %function
 1367              	lv_event_get_draw_part_dsc:
 1368              	.LFB176:
 294:..\..\..\arduinoLCD\test\Pain Drain\libraries\lvgl\src\core/lv_event.c ****     if(e->code == LV_EVENT_DRAW_PART_BEGIN ||
 1369              		.loc 1 294 0
 1370              		.cfi_startproc
 1371              		@ args = 0, pretend = 0, frame = 0
 1372              		@ frame_needed = 0, uses_anonymous_args = 0
 1373              	.LVL128:
 1374 0000 08B5     		push	{r3, lr}
 1375              		.cfi_def_cfa_offset 8
 1376              		.cfi_offset 3, -8
 1377              		.cfi_offset 14, -4
 295:..\..\..\arduinoLCD\test\Pain Drain\libraries\lvgl\src\core/lv_event.c ****        e->code == LV_EVENT_DRAW_PART_END) {
 1378              		.loc 1 295 0
 1379 0002 037A     		ldrb	r3, [r0, #8]	@ zero_extendqisi2
 1380 0004 1A3B     		subs	r3, r3, #26
 1381 0006 DBB2     		uxtb	r3, r3
 1382 0008 012B     		cmp	r3, #1
 1383 000a 02D8     		bhi	.L126
ARM GAS  C:\Users\haske\AppData\Local\Temp\ccnNTYZ7.s 			page 38


 297:..\..\..\arduinoLCD\test\Pain Drain\libraries\lvgl\src\core/lv_event.c ****     }
 1384              		.loc 1 297 0
 1385 000c FFF7FEFF 		bl	lv_event_get_param
 1386              	.LVL129:
 1387 0010 08BD     		pop	{r3, pc}
 1388              	.LVL130:
 1389              	.L126:
 301:..\..\..\arduinoLCD\test\Pain Drain\libraries\lvgl\src\core/lv_event.c ****     }
 1390              		.loc 1 301 0
 1391 0012 0020     		movs	r0, #0
 1392              	.LVL131:
 303:..\..\..\arduinoLCD\test\Pain Drain\libraries\lvgl\src\core/lv_event.c **** 
 1393              		.loc 1 303 0
 1394 0014 08BD     		pop	{r3, pc}
 1395              		.cfi_endproc
 1396              	.LFE176:
 1397              		.size	lv_event_get_draw_part_dsc, .-lv_event_get_draw_part_dsc
 1398 0016 00BF     		.section	.text.lv_event_get_draw_ctx,"ax",%progbits
 1399              		.align	2
 1400              		.global	lv_event_get_draw_ctx
 1401              		.thumb
 1402              		.thumb_func
 1403              		.type	lv_event_get_draw_ctx, %function
 1404              	lv_event_get_draw_ctx:
 1405              	.LFB177:
 306:..\..\..\arduinoLCD\test\Pain Drain\libraries\lvgl\src\core/lv_event.c ****     if(e->code == LV_EVENT_DRAW_MAIN ||
 1406              		.loc 1 306 0
 1407              		.cfi_startproc
 1408              		@ args = 0, pretend = 0, frame = 0
 1409              		@ frame_needed = 0, uses_anonymous_args = 0
 1410              	.LVL132:
 1411 0000 08B5     		push	{r3, lr}
 1412              		.cfi_def_cfa_offset 8
 1413              		.cfi_offset 3, -8
 1414              		.cfi_offset 14, -4
 307:..\..\..\arduinoLCD\test\Pain Drain\libraries\lvgl\src\core/lv_event.c ****        e->code == LV_EVENT_DRAW_MAIN_BEGIN ||
 1415              		.loc 1 307 0
 1416 0002 027A     		ldrb	r2, [r0, #8]	@ zero_extendqisi2
 308:..\..\..\arduinoLCD\test\Pain Drain\libraries\lvgl\src\core/lv_event.c ****        e->code == LV_EVENT_DRAW_MAIN_END ||
 1417              		.loc 1 308 0
 1418 0004 A2F11403 		sub	r3, r2, #20
 1419 0008 DBB2     		uxtb	r3, r3
 307:..\..\..\arduinoLCD\test\Pain Drain\libraries\lvgl\src\core/lv_event.c ****        e->code == LV_EVENT_DRAW_MAIN_BEGIN ||
 1420              		.loc 1 307 0
 1421 000a 022B     		cmp	r3, #2
 1422 000c 05D9     		bls	.L129
 309:..\..\..\arduinoLCD\test\Pain Drain\libraries\lvgl\src\core/lv_event.c ****        e->code == LV_EVENT_DRAW_POST ||
 1423              		.loc 1 309 0
 1424 000e 182A     		cmp	r2, #24
 1425 0010 03D0     		beq	.L129
 310:..\..\..\arduinoLCD\test\Pain Drain\libraries\lvgl\src\core/lv_event.c ****        e->code == LV_EVENT_DRAW_POST_BEGIN ||
 1426              		.loc 1 310 0
 1427 0012 172A     		cmp	r2, #23
 1428 0014 01D0     		beq	.L129
 311:..\..\..\arduinoLCD\test\Pain Drain\libraries\lvgl\src\core/lv_event.c ****        e->code == LV_EVENT_DRAW_POST_END) {
 1429              		.loc 1 311 0
 1430 0016 192A     		cmp	r2, #25
ARM GAS  C:\Users\haske\AppData\Local\Temp\ccnNTYZ7.s 			page 39


 1431 0018 02D1     		bne	.L131
 1432              	.L129:
 313:..\..\..\arduinoLCD\test\Pain Drain\libraries\lvgl\src\core/lv_event.c ****     }
 1433              		.loc 1 313 0
 1434 001a FFF7FEFF 		bl	lv_event_get_param
 1435              	.LVL133:
 1436 001e 08BD     		pop	{r3, pc}
 1437              	.LVL134:
 1438              	.L131:
 317:..\..\..\arduinoLCD\test\Pain Drain\libraries\lvgl\src\core/lv_event.c ****     }
 1439              		.loc 1 317 0
 1440 0020 0020     		movs	r0, #0
 1441              	.LVL135:
 319:..\..\..\arduinoLCD\test\Pain Drain\libraries\lvgl\src\core/lv_event.c **** 
 1442              		.loc 1 319 0
 1443 0022 08BD     		pop	{r3, pc}
 1444              		.cfi_endproc
 1445              	.LFE177:
 1446              		.size	lv_event_get_draw_ctx, .-lv_event_get_draw_ctx
 1447              		.section	.text.lv_event_get_old_size,"ax",%progbits
 1448              		.align	2
 1449              		.global	lv_event_get_old_size
 1450              		.thumb
 1451              		.thumb_func
 1452              		.type	lv_event_get_old_size, %function
 1453              	lv_event_get_old_size:
 1454              	.LFB178:
 322:..\..\..\arduinoLCD\test\Pain Drain\libraries\lvgl\src\core/lv_event.c ****     if(e->code == LV_EVENT_SIZE_CHANGED) {
 1455              		.loc 1 322 0
 1456              		.cfi_startproc
 1457              		@ args = 0, pretend = 0, frame = 0
 1458              		@ frame_needed = 0, uses_anonymous_args = 0
 1459              	.LVL136:
 1460 0000 08B5     		push	{r3, lr}
 1461              		.cfi_def_cfa_offset 8
 1462              		.cfi_offset 3, -8
 1463              		.cfi_offset 14, -4
 323:..\..\..\arduinoLCD\test\Pain Drain\libraries\lvgl\src\core/lv_event.c ****         return lv_event_get_param(e);
 1464              		.loc 1 323 0
 1465 0002 037A     		ldrb	r3, [r0, #8]	@ zero_extendqisi2
 1466 0004 292B     		cmp	r3, #41
 1467 0006 02D1     		bne	.L135
 324:..\..\..\arduinoLCD\test\Pain Drain\libraries\lvgl\src\core/lv_event.c ****     }
 1468              		.loc 1 324 0
 1469 0008 FFF7FEFF 		bl	lv_event_get_param
 1470              	.LVL137:
 1471 000c 08BD     		pop	{r3, pc}
 1472              	.LVL138:
 1473              	.L135:
 328:..\..\..\arduinoLCD\test\Pain Drain\libraries\lvgl\src\core/lv_event.c ****     }
 1474              		.loc 1 328 0
 1475 000e 0020     		movs	r0, #0
 1476              	.LVL139:
 330:..\..\..\arduinoLCD\test\Pain Drain\libraries\lvgl\src\core/lv_event.c **** 
 1477              		.loc 1 330 0
 1478 0010 08BD     		pop	{r3, pc}
 1479              		.cfi_endproc
ARM GAS  C:\Users\haske\AppData\Local\Temp\ccnNTYZ7.s 			page 40


 1480              	.LFE178:
 1481              		.size	lv_event_get_old_size, .-lv_event_get_old_size
 1482 0012 00BF     		.section	.text.lv_event_get_key,"ax",%progbits
 1483              		.align	2
 1484              		.global	lv_event_get_key
 1485              		.thumb
 1486              		.thumb_func
 1487              		.type	lv_event_get_key, %function
 1488              	lv_event_get_key:
 1489              	.LFB179:
 333:..\..\..\arduinoLCD\test\Pain Drain\libraries\lvgl\src\core/lv_event.c ****     if(e->code == LV_EVENT_KEY) {
 1490              		.loc 1 333 0
 1491              		.cfi_startproc
 1492              		@ args = 0, pretend = 0, frame = 0
 1493              		@ frame_needed = 0, uses_anonymous_args = 0
 1494              	.LVL140:
 1495 0000 08B5     		push	{r3, lr}
 1496              		.cfi_def_cfa_offset 8
 1497              		.cfi_offset 3, -8
 1498              		.cfi_offset 14, -4
 334:..\..\..\arduinoLCD\test\Pain Drain\libraries\lvgl\src\core/lv_event.c ****         uint32_t * k = lv_event_get_param(e);
 1499              		.loc 1 334 0
 1500 0002 037A     		ldrb	r3, [r0, #8]	@ zero_extendqisi2
 1501 0004 0D2B     		cmp	r3, #13
 1502 0006 04D1     		bne	.L139
 1503              	.LBB2:
 335:..\..\..\arduinoLCD\test\Pain Drain\libraries\lvgl\src\core/lv_event.c ****         if(k) return *k;
 1504              		.loc 1 335 0
 1505 0008 FFF7FEFF 		bl	lv_event_get_param
 1506              	.LVL141:
 336:..\..\..\arduinoLCD\test\Pain Drain\libraries\lvgl\src\core/lv_event.c ****         else return 0;
 1507              		.loc 1 336 0
 1508 000c 18B1     		cbz	r0, .L140
 336:..\..\..\arduinoLCD\test\Pain Drain\libraries\lvgl\src\core/lv_event.c ****         else return 0;
 1509              		.loc 1 336 0 is_stmt 0 discriminator 1
 1510 000e 0068     		ldr	r0, [r0]
 1511              	.LVL142:
 1512 0010 08BD     		pop	{r3, pc}
 1513              	.LVL143:
 1514              	.L139:
 1515              	.LBE2:
 341:..\..\..\arduinoLCD\test\Pain Drain\libraries\lvgl\src\core/lv_event.c ****     }
 1516              		.loc 1 341 0 is_stmt 1
 1517 0012 0020     		movs	r0, #0
 1518              	.LVL144:
 1519 0014 08BD     		pop	{r3, pc}
 1520              	.LVL145:
 1521              	.L140:
 1522              	.LBB3:
 337:..\..\..\arduinoLCD\test\Pain Drain\libraries\lvgl\src\core/lv_event.c ****     }
 1523              		.loc 1 337 0
 1524 0016 0020     		movs	r0, #0
 1525              	.LVL146:
 1526              	.LBE3:
 343:..\..\..\arduinoLCD\test\Pain Drain\libraries\lvgl\src\core/lv_event.c **** 
 1527              		.loc 1 343 0
 1528 0018 08BD     		pop	{r3, pc}
ARM GAS  C:\Users\haske\AppData\Local\Temp\ccnNTYZ7.s 			page 41


 1529              		.cfi_endproc
 1530              	.LFE179:
 1531              		.size	lv_event_get_key, .-lv_event_get_key
 1532 001a 00BF     		.section	.text.lv_event_get_scroll_anim,"ax",%progbits
 1533              		.align	2
 1534              		.global	lv_event_get_scroll_anim
 1535              		.thumb
 1536              		.thumb_func
 1537              		.type	lv_event_get_scroll_anim, %function
 1538              	lv_event_get_scroll_anim:
 1539              	.LFB180:
 346:..\..\..\arduinoLCD\test\Pain Drain\libraries\lvgl\src\core/lv_event.c ****     if(e->code == LV_EVENT_SCROLL_BEGIN) {
 1540              		.loc 1 346 0
 1541              		.cfi_startproc
 1542              		@ args = 0, pretend = 0, frame = 0
 1543              		@ frame_needed = 0, uses_anonymous_args = 0
 1544              	.LVL147:
 1545 0000 08B5     		push	{r3, lr}
 1546              		.cfi_def_cfa_offset 8
 1547              		.cfi_offset 3, -8
 1548              		.cfi_offset 14, -4
 347:..\..\..\arduinoLCD\test\Pain Drain\libraries\lvgl\src\core/lv_event.c ****         return lv_event_get_param(e);
 1549              		.loc 1 347 0
 1550 0002 037A     		ldrb	r3, [r0, #8]	@ zero_extendqisi2
 1551 0004 092B     		cmp	r3, #9
 1552 0006 02D1     		bne	.L144
 348:..\..\..\arduinoLCD\test\Pain Drain\libraries\lvgl\src\core/lv_event.c ****     }
 1553              		.loc 1 348 0
 1554 0008 FFF7FEFF 		bl	lv_event_get_param
 1555              	.LVL148:
 1556 000c 08BD     		pop	{r3, pc}
 1557              	.LVL149:
 1558              	.L144:
 352:..\..\..\arduinoLCD\test\Pain Drain\libraries\lvgl\src\core/lv_event.c ****     }
 1559              		.loc 1 352 0
 1560 000e 0020     		movs	r0, #0
 1561              	.LVL150:
 354:..\..\..\arduinoLCD\test\Pain Drain\libraries\lvgl\src\core/lv_event.c **** 
 1562              		.loc 1 354 0
 1563 0010 08BD     		pop	{r3, pc}
 1564              		.cfi_endproc
 1565              	.LFE180:
 1566              		.size	lv_event_get_scroll_anim, .-lv_event_get_scroll_anim
 1567 0012 00BF     		.section	.text.lv_event_set_ext_draw_size,"ax",%progbits
 1568              		.align	2
 1569              		.global	lv_event_set_ext_draw_size
 1570              		.thumb
 1571              		.thumb_func
 1572              		.type	lv_event_set_ext_draw_size, %function
 1573              	lv_event_set_ext_draw_size:
 1574              	.LFB181:
 357:..\..\..\arduinoLCD\test\Pain Drain\libraries\lvgl\src\core/lv_event.c ****     if(e->code == LV_EVENT_REFR_EXT_DRAW_SIZE) {
 1575              		.loc 1 357 0
 1576              		.cfi_startproc
 1577              		@ args = 0, pretend = 0, frame = 0
 1578              		@ frame_needed = 0, uses_anonymous_args = 0
 1579              	.LVL151:
ARM GAS  C:\Users\haske\AppData\Local\Temp\ccnNTYZ7.s 			page 42


 358:..\..\..\arduinoLCD\test\Pain Drain\libraries\lvgl\src\core/lv_event.c ****         lv_coord_t * cur_size = lv_event_get_param(e);
 1580              		.loc 1 358 0
 1581 0000 037A     		ldrb	r3, [r0, #8]	@ zero_extendqisi2
 1582 0002 132B     		cmp	r3, #19
 1583 0004 0AD1     		bne	.L149
 357:..\..\..\arduinoLCD\test\Pain Drain\libraries\lvgl\src\core/lv_event.c ****     if(e->code == LV_EVENT_REFR_EXT_DRAW_SIZE) {
 1584              		.loc 1 357 0
 1585 0006 10B5     		push	{r4, lr}
 1586              		.cfi_def_cfa_offset 8
 1587              		.cfi_offset 4, -8
 1588              		.cfi_offset 14, -4
 1589 0008 0C46     		mov	r4, r1
 1590              	.LBB4:
 359:..\..\..\arduinoLCD\test\Pain Drain\libraries\lvgl\src\core/lv_event.c ****         *cur_size = LV_MAX(*cur_size, size);
 1591              		.loc 1 359 0
 1592 000a FFF7FEFF 		bl	lv_event_get_param
 1593              	.LVL152:
 360:..\..\..\arduinoLCD\test\Pain Drain\libraries\lvgl\src\core/lv_event.c ****     }
 1594              		.loc 1 360 0
 1595 000e B0F90010 		ldrsh	r1, [r0]
 1596 0012 A142     		cmp	r1, r4
 1597 0014 B8BF     		it	lt
 1598 0016 2146     		movlt	r1, r4
 1599 0018 0180     		strh	r1, [r0]	@ movhi
 1600 001a 10BD     		pop	{r4, pc}
 1601              	.LVL153:
 1602              	.L149:
 1603              		.cfi_def_cfa_offset 0
 1604              		.cfi_restore 4
 1605              		.cfi_restore 14
 1606 001c 7047     		bx	lr
 1607              	.LBE4:
 1608              		.cfi_endproc
 1609              	.LFE181:
 1610              		.size	lv_event_set_ext_draw_size, .-lv_event_set_ext_draw_size
 1611 001e 00BF     		.section	.text.lv_event_get_self_size_info,"ax",%progbits
 1612              		.align	2
 1613              		.global	lv_event_get_self_size_info
 1614              		.thumb
 1615              		.thumb_func
 1616              		.type	lv_event_get_self_size_info, %function
 1617              	lv_event_get_self_size_info:
 1618              	.LFB182:
 368:..\..\..\arduinoLCD\test\Pain Drain\libraries\lvgl\src\core/lv_event.c ****     if(e->code == LV_EVENT_GET_SELF_SIZE) {
 1619              		.loc 1 368 0
 1620              		.cfi_startproc
 1621              		@ args = 0, pretend = 0, frame = 0
 1622              		@ frame_needed = 0, uses_anonymous_args = 0
 1623              	.LVL154:
 1624 0000 08B5     		push	{r3, lr}
 1625              		.cfi_def_cfa_offset 8
 1626              		.cfi_offset 3, -8
 1627              		.cfi_offset 14, -4
 369:..\..\..\arduinoLCD\test\Pain Drain\libraries\lvgl\src\core/lv_event.c ****         return lv_event_get_param(e);
 1628              		.loc 1 369 0
 1629 0002 037A     		ldrb	r3, [r0, #8]	@ zero_extendqisi2
 1630 0004 2C2B     		cmp	r3, #44
ARM GAS  C:\Users\haske\AppData\Local\Temp\ccnNTYZ7.s 			page 43


 1631 0006 02D1     		bne	.L152
 370:..\..\..\arduinoLCD\test\Pain Drain\libraries\lvgl\src\core/lv_event.c ****     }
 1632              		.loc 1 370 0
 1633 0008 FFF7FEFF 		bl	lv_event_get_param
 1634              	.LVL155:
 1635 000c 08BD     		pop	{r3, pc}
 1636              	.LVL156:
 1637              	.L152:
 374:..\..\..\arduinoLCD\test\Pain Drain\libraries\lvgl\src\core/lv_event.c ****     }
 1638              		.loc 1 374 0
 1639 000e 0020     		movs	r0, #0
 1640              	.LVL157:
 376:..\..\..\arduinoLCD\test\Pain Drain\libraries\lvgl\src\core/lv_event.c **** 
 1641              		.loc 1 376 0
 1642 0010 08BD     		pop	{r3, pc}
 1643              		.cfi_endproc
 1644              	.LFE182:
 1645              		.size	lv_event_get_self_size_info, .-lv_event_get_self_size_info
 1646 0012 00BF     		.section	.text.lv_event_get_hit_test_info,"ax",%progbits
 1647              		.align	2
 1648              		.global	lv_event_get_hit_test_info
 1649              		.thumb
 1650              		.thumb_func
 1651              		.type	lv_event_get_hit_test_info, %function
 1652              	lv_event_get_hit_test_info:
 1653              	.LFB183:
 379:..\..\..\arduinoLCD\test\Pain Drain\libraries\lvgl\src\core/lv_event.c ****     if(e->code == LV_EVENT_HIT_TEST) {
 1654              		.loc 1 379 0
 1655              		.cfi_startproc
 1656              		@ args = 0, pretend = 0, frame = 0
 1657              		@ frame_needed = 0, uses_anonymous_args = 0
 1658              	.LVL158:
 1659 0000 08B5     		push	{r3, lr}
 1660              		.cfi_def_cfa_offset 8
 1661              		.cfi_offset 3, -8
 1662              		.cfi_offset 14, -4
 380:..\..\..\arduinoLCD\test\Pain Drain\libraries\lvgl\src\core/lv_event.c ****         return lv_event_get_param(e);
 1663              		.loc 1 380 0
 1664 0002 037A     		ldrb	r3, [r0, #8]	@ zero_extendqisi2
 1665 0004 112B     		cmp	r3, #17
 1666 0006 02D1     		bne	.L156
 381:..\..\..\arduinoLCD\test\Pain Drain\libraries\lvgl\src\core/lv_event.c ****     }
 1667              		.loc 1 381 0
 1668 0008 FFF7FEFF 		bl	lv_event_get_param
 1669              	.LVL159:
 1670 000c 08BD     		pop	{r3, pc}
 1671              	.LVL160:
 1672              	.L156:
 385:..\..\..\arduinoLCD\test\Pain Drain\libraries\lvgl\src\core/lv_event.c ****     }
 1673              		.loc 1 385 0
 1674 000e 0020     		movs	r0, #0
 1675              	.LVL161:
 387:..\..\..\arduinoLCD\test\Pain Drain\libraries\lvgl\src\core/lv_event.c **** 
 1676              		.loc 1 387 0
 1677 0010 08BD     		pop	{r3, pc}
 1678              		.cfi_endproc
 1679              	.LFE183:
ARM GAS  C:\Users\haske\AppData\Local\Temp\ccnNTYZ7.s 			page 44


 1680              		.size	lv_event_get_hit_test_info, .-lv_event_get_hit_test_info
 1681 0012 00BF     		.section	.text.lv_event_get_cover_area,"ax",%progbits
 1682              		.align	2
 1683              		.global	lv_event_get_cover_area
 1684              		.thumb
 1685              		.thumb_func
 1686              		.type	lv_event_get_cover_area, %function
 1687              	lv_event_get_cover_area:
 1688              	.LFB184:
 390:..\..\..\arduinoLCD\test\Pain Drain\libraries\lvgl\src\core/lv_event.c ****     if(e->code == LV_EVENT_COVER_CHECK) {
 1689              		.loc 1 390 0
 1690              		.cfi_startproc
 1691              		@ args = 0, pretend = 0, frame = 0
 1692              		@ frame_needed = 0, uses_anonymous_args = 0
 1693              	.LVL162:
 1694 0000 08B5     		push	{r3, lr}
 1695              		.cfi_def_cfa_offset 8
 1696              		.cfi_offset 3, -8
 1697              		.cfi_offset 14, -4
 391:..\..\..\arduinoLCD\test\Pain Drain\libraries\lvgl\src\core/lv_event.c ****         lv_cover_check_info_t * p = lv_event_get_param(e);
 1698              		.loc 1 391 0
 1699 0002 037A     		ldrb	r3, [r0, #8]	@ zero_extendqisi2
 1700 0004 122B     		cmp	r3, #18
 1701 0006 03D1     		bne	.L160
 1702              	.LBB5:
 392:..\..\..\arduinoLCD\test\Pain Drain\libraries\lvgl\src\core/lv_event.c ****         return p->area;
 1703              		.loc 1 392 0
 1704 0008 FFF7FEFF 		bl	lv_event_get_param
 1705              	.LVL163:
 393:..\..\..\arduinoLCD\test\Pain Drain\libraries\lvgl\src\core/lv_event.c ****     }
 1706              		.loc 1 393 0
 1707 000c 4068     		ldr	r0, [r0, #4]
 1708              	.LVL164:
 1709 000e 08BD     		pop	{r3, pc}
 1710              	.LVL165:
 1711              	.L160:
 1712              	.LBE5:
 397:..\..\..\arduinoLCD\test\Pain Drain\libraries\lvgl\src\core/lv_event.c ****     }
 1713              		.loc 1 397 0
 1714 0010 0020     		movs	r0, #0
 1715              	.LVL166:
 399:..\..\..\arduinoLCD\test\Pain Drain\libraries\lvgl\src\core/lv_event.c **** 
 1716              		.loc 1 399 0
 1717 0012 08BD     		pop	{r3, pc}
 1718              		.cfi_endproc
 1719              	.LFE184:
 1720              		.size	lv_event_get_cover_area, .-lv_event_get_cover_area
 1721              		.section	.text.lv_event_set_cover_res,"ax",%progbits
 1722              		.align	2
 1723              		.global	lv_event_set_cover_res
 1724              		.thumb
 1725              		.thumb_func
 1726              		.type	lv_event_set_cover_res, %function
 1727              	lv_event_set_cover_res:
 1728              	.LFB185:
 402:..\..\..\arduinoLCD\test\Pain Drain\libraries\lvgl\src\core/lv_event.c ****     if(e->code == LV_EVENT_COVER_CHECK) {
 1729              		.loc 1 402 0
ARM GAS  C:\Users\haske\AppData\Local\Temp\ccnNTYZ7.s 			page 45


 1730              		.cfi_startproc
 1731              		@ args = 0, pretend = 0, frame = 0
 1732              		@ frame_needed = 0, uses_anonymous_args = 0
 1733              	.LVL167:
 403:..\..\..\arduinoLCD\test\Pain Drain\libraries\lvgl\src\core/lv_event.c ****         lv_cover_check_info_t * p = lv_event_get_param(e);
 1734              		.loc 1 403 0
 1735 0000 037A     		ldrb	r3, [r0, #8]	@ zero_extendqisi2
 1736 0002 122B     		cmp	r3, #18
 1737 0004 08D1     		bne	.L165
 402:..\..\..\arduinoLCD\test\Pain Drain\libraries\lvgl\src\core/lv_event.c ****     if(e->code == LV_EVENT_COVER_CHECK) {
 1738              		.loc 1 402 0
 1739 0006 10B5     		push	{r4, lr}
 1740              		.cfi_def_cfa_offset 8
 1741              		.cfi_offset 4, -8
 1742              		.cfi_offset 14, -4
 1743 0008 0C46     		mov	r4, r1
 1744              	.LBB6:
 404:..\..\..\arduinoLCD\test\Pain Drain\libraries\lvgl\src\core/lv_event.c ****         if(res > p->res) p->res = res;  /*Save only "stronger" results*/
 1745              		.loc 1 404 0
 1746 000a FFF7FEFF 		bl	lv_event_get_param
 1747              	.LVL168:
 405:..\..\..\arduinoLCD\test\Pain Drain\libraries\lvgl\src\core/lv_event.c ****     }
 1748              		.loc 1 405 0
 1749 000e 0378     		ldrb	r3, [r0]	@ zero_extendqisi2
 1750 0010 A342     		cmp	r3, r4
 1751 0012 00D2     		bcs	.L162
 405:..\..\..\arduinoLCD\test\Pain Drain\libraries\lvgl\src\core/lv_event.c ****     }
 1752              		.loc 1 405 0 is_stmt 0 discriminator 1
 1753 0014 0470     		strb	r4, [r0]
 1754              	.L162:
 1755 0016 10BD     		pop	{r4, pc}
 1756              	.LVL169:
 1757              	.L165:
 1758              		.cfi_def_cfa_offset 0
 1759              		.cfi_restore 4
 1760              		.cfi_restore 14
 1761 0018 7047     		bx	lr
 1762              	.LBE6:
 1763              		.cfi_endproc
 1764              	.LFE185:
 1765              		.size	lv_event_set_cover_res, .-lv_event_set_cover_res
 1766 001a 00BF     		.data
 1767              		.align	2
 1768              		.set	.LANCHOR1,. + 0
 1769              		.type	last_id.8886, %object
 1770              		.size	last_id.8886, 4
 1771              	last_id.8886:
 1772 0000 2D000000 		.word	45
 1773              		.bss
 1774              		.align	2
 1775              		.set	.LANCHOR0,. + 0
 1776              		.type	event_head, %object
 1777              		.size	event_head, 4
 1778              	event_head:
 1779 0000 00000000 		.space	4
 1780              		.text
 1781              	.Letext0:
ARM GAS  C:\Users\haske\AppData\Local\Temp\ccnNTYZ7.s 			page 46


 1782              		.file 2 "c:\\program files (x86)\\cypress\\psoc creator\\4.4\\psoc creator\\import\\gnu\\arm\\5.4.
 1783              		.file 3 "c:\\program files (x86)\\cypress\\psoc creator\\4.4\\psoc creator\\import\\gnu\\arm\\5.4.
 1784              		.file 4 "c:\\program files (x86)\\cypress\\psoc creator\\4.4\\psoc creator\\import\\gnu\\arm\\5.4.
 1785              		.file 5 "c:\\projects\\paindrain\\arduinolcd\\test\\pain drain\\libraries\\lvgl\\src\\misc\\lv_are
 1786              		.file 6 "c:\\projects\\paindrain\\arduinolcd\\test\\pain drain\\libraries\\lvgl\\src\\font\\lv_fon
 1787              		.file 7 "..\\..\\..\\arduinoLCD\\test\\Pain Drain\\libraries\\lvgl\\src\\core\\../misc/lv_types.h"
 1788              		.file 8 "..\\..\\..\\arduinoLCD\\test\\Pain Drain\\libraries\\lvgl\\src\\core\\../misc/lv_color.h"
 1789              		.file 9 "..\\..\\..\\arduinoLCD\\test\\Pain Drain\\libraries\\lvgl\\src\\core\\../misc/lv_anim.h"
 1790              		.file 10 "..\\..\\..\\arduinoLCD\\test\\Pain Drain\\libraries\\lvgl\\src\\core\\../misc/lv_txt.h"
 1791              		.file 11 "..\\..\\..\\arduinoLCD\\test\\Pain Drain\\libraries\\lvgl\\src\\core\\../misc/lv_bidi.h"
 1792              		.file 12 "..\\..\\..\\arduinoLCD\\test\\Pain Drain\\libraries\\lvgl\\src\\core\\../misc/lv_style.h
 1793              		.file 13 "c:\\projects\\paindrain\\arduinolcd\\test\\pain drain\\libraries\\lvgl\\src\\draw\\lv_im
 1794              		.file 14 "..\\..\\..\\arduinoLCD\\test\\Pain Drain\\libraries\\lvgl\\src\\core\\lv_obj.h"
 1795              		.file 15 "c:\\projects\\paindrain\\arduinolcd\\test\\pain drain\\libraries\\lvgl\\src\\draw\\lv_dr
 1796              		.file 16 "c:\\projects\\paindrain\\arduinolcd\\test\\pain drain\\libraries\\lvgl\\src\\draw\\lv_dr
 1797              		.file 17 "c:\\projects\\paindrain\\arduinolcd\\test\\pain drain\\libraries\\lvgl\\src\\draw\\lv_dr
 1798              		.file 18 "c:\\projects\\paindrain\\arduinolcd\\test\\pain drain\\libraries\\lvgl\\src\\draw\\lv_dr
 1799              		.file 19 "c:\\projects\\paindrain\\arduinolcd\\test\\pain drain\\libraries\\lvgl\\src\\draw\\lv_dr
 1800              		.file 20 "c:\\projects\\paindrain\\arduinolcd\\test\\pain drain\\libraries\\lvgl\\src\\draw\\lv_dr
 1801              		.file 21 "c:\\projects\\paindrain\\arduinolcd\\test\\pain drain\\libraries\\lvgl\\src\\draw\\lv_dr
 1802              		.file 22 "c:\\projects\\paindrain\\arduinolcd\\test\\pain drain\\libraries\\lvgl\\src\\misc\\lv_ll
 1803              		.file 23 "c:\\projects\\paindrain\\arduinolcd\\test\\pain drain\\libraries\\lvgl\\src\\misc\\lv_ti
 1804              		.file 24 "..\\..\\..\\arduinoLCD\\test\\Pain Drain\\libraries\\lvgl\\src\\core\\../hal/lv_hal_disp
 1805              		.file 25 "..\\..\\..\\arduinoLCD\\test\\Pain Drain\\libraries\\lvgl\\src\\core\\../hal/lv_hal_inde
 1806              		.file 26 "..\\..\\..\\arduinoLCD\\test\\Pain Drain\\libraries\\lvgl\\src\\core\\lv_group.h"
 1807              		.file 27 "..\\..\\..\\arduinoLCD\\test\\Pain Drain\\libraries\\lvgl\\src\\core\\lv_obj_scroll.h"
 1808              		.file 28 "..\\..\\..\\arduinoLCD\\test\\Pain Drain\\libraries\\lvgl\\src\\core\\lv_obj_style.h"
 1809              		.file 29 "..\\..\\..\\arduinoLCD\\test\\Pain Drain\\libraries\\lvgl\\src\\core\\lv_obj_draw.h"
 1810              		.file 30 "..\\..\\..\\arduinoLCD\\test\\Pain Drain\\libraries\\lvgl\\src\\core\\lv_obj_class.h"
 1811              		.file 31 "..\\..\\..\\arduinoLCD\\test\\Pain Drain\\libraries\\lvgl\\src\\core\\lv_event.h"
 1812              		.file 32 "..\\..\\..\\arduinoLCD\\test\\Pain Drain\\libraries\\lvgl\\src\\core\\lv_indev.h"
 1813              		.file 33 "..\\..\\..\\arduinoLCD\\test\\Pain Drain\\libraries\\lvgl\\src\\core\\../misc/lv_mem.h"