ARM GAS  C:\Users\haske\AppData\Local\Temp\ccnNTYZ7.s 			page 1


   1              		.syntax unified
   2              		.cpu cortex-m4
   3              		.eabi_attribute 27, 1
   4              		.fpu fpv4-sp-d16
   5              		.eabi_attribute 20, 1
   6              		.eabi_attribute 21, 1
   7              		.eabi_attribute 23, 3
   8              		.eabi_attribute 24, 1
   9              		.eabi_attribute 25, 1
  10              		.eabi_attribute 26, 1
  11              		.eabi_attribute 30, 1
  12              		.eabi_attribute 34, 1
  13              		.eabi_attribute 18, 4
  14              		.thumb
  15              		.syntax unified
  16              		.file	"lv_event.c"
  17              		.text
  18              	.Ltext0:
  19              		.cfi_sections	.debug_frame
  20              		.section	.text.lv_obj_get_event_dsc,"ax",%progbits
  21              		.align	2
  22              		.thumb
  23              		.thumb_func
  24              		.type	lv_obj_get_event_dsc, %function
  25              	lv_obj_get_event_dsc:
  26              	.LFB186:
  27              		.file 1 "..\\..\\..\\arduinoLCD\\test\\Pain Drain\\libraries\\lvgl\\src\\core\\lv_event.c"
   1:..\..\..\arduinoLCD\test\Pain Drain\libraries\lvgl\src\core/lv_event.c **** /**
   2:..\..\..\arduinoLCD\test\Pain Drain\libraries\lvgl\src\core/lv_event.c ****  * @file lv_event.c
   3:..\..\..\arduinoLCD\test\Pain Drain\libraries\lvgl\src\core/lv_event.c ****  *
   4:..\..\..\arduinoLCD\test\Pain Drain\libraries\lvgl\src\core/lv_event.c ****  */
   5:..\..\..\arduinoLCD\test\Pain Drain\libraries\lvgl\src\core/lv_event.c **** 
   6:..\..\..\arduinoLCD\test\Pain Drain\libraries\lvgl\src\core/lv_event.c **** /*********************
   7:..\..\..\arduinoLCD\test\Pain Drain\libraries\lvgl\src\core/lv_event.c ****  *      INCLUDES
   8:..\..\..\arduinoLCD\test\Pain Drain\libraries\lvgl\src\core/lv_event.c ****  *********************/
   9:..\..\..\arduinoLCD\test\Pain Drain\libraries\lvgl\src\core/lv_event.c **** #include "lv_obj.h"
  10:..\..\..\arduinoLCD\test\Pain Drain\libraries\lvgl\src\core/lv_event.c **** #include "lv_indev.h"
  11:..\..\..\arduinoLCD\test\Pain Drain\libraries\lvgl\src\core/lv_event.c **** 
  12:..\..\..\arduinoLCD\test\Pain Drain\libraries\lvgl\src\core/lv_event.c **** /*********************
  13:..\..\..\arduinoLCD\test\Pain Drain\libraries\lvgl\src\core/lv_event.c ****  *      DEFINES
  14:..\..\..\arduinoLCD\test\Pain Drain\libraries\lvgl\src\core/lv_event.c ****  *********************/
  15:..\..\..\arduinoLCD\test\Pain Drain\libraries\lvgl\src\core/lv_event.c **** #define MY_CLASS &lv_obj_class
  16:..\..\..\arduinoLCD\test\Pain Drain\libraries\lvgl\src\core/lv_event.c **** 
  17:..\..\..\arduinoLCD\test\Pain Drain\libraries\lvgl\src\core/lv_event.c **** /**********************
  18:..\..\..\arduinoLCD\test\Pain Drain\libraries\lvgl\src\core/lv_event.c ****  *      TYPEDEFS
  19:..\..\..\arduinoLCD\test\Pain Drain\libraries\lvgl\src\core/lv_event.c ****  **********************/
  20:..\..\..\arduinoLCD\test\Pain Drain\libraries\lvgl\src\core/lv_event.c **** typedef struct _lv_event_dsc_t {
  21:..\..\..\arduinoLCD\test\Pain Drain\libraries\lvgl\src\core/lv_event.c ****     lv_event_cb_t cb;
  22:..\..\..\arduinoLCD\test\Pain Drain\libraries\lvgl\src\core/lv_event.c ****     void * user_data;
  23:..\..\..\arduinoLCD\test\Pain Drain\libraries\lvgl\src\core/lv_event.c ****     lv_event_code_t filter : 8;
  24:..\..\..\arduinoLCD\test\Pain Drain\libraries\lvgl\src\core/lv_event.c **** } lv_event_dsc_t;
  25:..\..\..\arduinoLCD\test\Pain Drain\libraries\lvgl\src\core/lv_event.c **** 
  26:..\..\..\arduinoLCD\test\Pain Drain\libraries\lvgl\src\core/lv_event.c **** /**********************
  27:..\..\..\arduinoLCD\test\Pain Drain\libraries\lvgl\src\core/lv_event.c ****  *  STATIC PROTOTYPES
  28:..\..\..\arduinoLCD\test\Pain Drain\libraries\lvgl\src\core/lv_event.c ****  **********************/
  29:..\..\..\arduinoLCD\test\Pain Drain\libraries\lvgl\src\core/lv_event.c **** static lv_event_dsc_t * lv_obj_get_event_dsc(const lv_obj_t * obj, uint32_t id);
  30:..\..\..\arduinoLCD\test\Pain Drain\libraries\lvgl\src\core/lv_event.c **** static lv_res_t event_send_core(lv_event_t * e);
ARM GAS  C:\Users\haske\AppData\Local\Temp\ccnNTYZ7.s 			page 2


  31:..\..\..\arduinoLCD\test\Pain Drain\libraries\lvgl\src\core/lv_event.c **** static bool event_is_bubbled(lv_event_t * e);
  32:..\..\..\arduinoLCD\test\Pain Drain\libraries\lvgl\src\core/lv_event.c **** 
  33:..\..\..\arduinoLCD\test\Pain Drain\libraries\lvgl\src\core/lv_event.c **** 
  34:..\..\..\arduinoLCD\test\Pain Drain\libraries\lvgl\src\core/lv_event.c **** /**********************
  35:..\..\..\arduinoLCD\test\Pain Drain\libraries\lvgl\src\core/lv_event.c ****  *  STATIC VARIABLES
  36:..\..\..\arduinoLCD\test\Pain Drain\libraries\lvgl\src\core/lv_event.c ****  **********************/
  37:..\..\..\arduinoLCD\test\Pain Drain\libraries\lvgl\src\core/lv_event.c **** static lv_event_t * event_head;
  38:..\..\..\arduinoLCD\test\Pain Drain\libraries\lvgl\src\core/lv_event.c **** 
  39:..\..\..\arduinoLCD\test\Pain Drain\libraries\lvgl\src\core/lv_event.c **** /**********************
  40:..\..\..\arduinoLCD\test\Pain Drain\libraries\lvgl\src\core/lv_event.c ****  *      MACROS
  41:..\..\..\arduinoLCD\test\Pain Drain\libraries\lvgl\src\core/lv_event.c ****  **********************/
  42:..\..\..\arduinoLCD\test\Pain Drain\libraries\lvgl\src\core/lv_event.c **** #if LV_LOG_TRACE_EVENT
  43:..\..\..\arduinoLCD\test\Pain Drain\libraries\lvgl\src\core/lv_event.c ****     #define EVENT_TRACE(...) LV_LOG_TRACE(__VA_ARGS__)
  44:..\..\..\arduinoLCD\test\Pain Drain\libraries\lvgl\src\core/lv_event.c **** #else
  45:..\..\..\arduinoLCD\test\Pain Drain\libraries\lvgl\src\core/lv_event.c ****     #define EVENT_TRACE(...)
  46:..\..\..\arduinoLCD\test\Pain Drain\libraries\lvgl\src\core/lv_event.c **** #endif
  47:..\..\..\arduinoLCD\test\Pain Drain\libraries\lvgl\src\core/lv_event.c **** 
  48:..\..\..\arduinoLCD\test\Pain Drain\libraries\lvgl\src\core/lv_event.c **** /**********************
  49:..\..\..\arduinoLCD\test\Pain Drain\libraries\lvgl\src\core/lv_event.c ****  *   GLOBAL FUNCTIONS
  50:..\..\..\arduinoLCD\test\Pain Drain\libraries\lvgl\src\core/lv_event.c ****  **********************/
  51:..\..\..\arduinoLCD\test\Pain Drain\libraries\lvgl\src\core/lv_event.c **** 
  52:..\..\..\arduinoLCD\test\Pain Drain\libraries\lvgl\src\core/lv_event.c **** lv_res_t lv_event_send(lv_obj_t * obj, lv_event_code_t event_code, void * param)
  53:..\..\..\arduinoLCD\test\Pain Drain\libraries\lvgl\src\core/lv_event.c **** {
  54:..\..\..\arduinoLCD\test\Pain Drain\libraries\lvgl\src\core/lv_event.c ****     if(obj == NULL) return LV_RES_OK;
  55:..\..\..\arduinoLCD\test\Pain Drain\libraries\lvgl\src\core/lv_event.c **** 
  56:..\..\..\arduinoLCD\test\Pain Drain\libraries\lvgl\src\core/lv_event.c ****     LV_ASSERT_OBJ(obj, MY_CLASS);
  57:..\..\..\arduinoLCD\test\Pain Drain\libraries\lvgl\src\core/lv_event.c **** 
  58:..\..\..\arduinoLCD\test\Pain Drain\libraries\lvgl\src\core/lv_event.c ****     lv_event_t e;
  59:..\..\..\arduinoLCD\test\Pain Drain\libraries\lvgl\src\core/lv_event.c ****     e.target = obj;
  60:..\..\..\arduinoLCD\test\Pain Drain\libraries\lvgl\src\core/lv_event.c ****     e.current_target = obj;
  61:..\..\..\arduinoLCD\test\Pain Drain\libraries\lvgl\src\core/lv_event.c ****     e.code = event_code;
  62:..\..\..\arduinoLCD\test\Pain Drain\libraries\lvgl\src\core/lv_event.c ****     e.user_data = NULL;
  63:..\..\..\arduinoLCD\test\Pain Drain\libraries\lvgl\src\core/lv_event.c ****     e.param = param;
  64:..\..\..\arduinoLCD\test\Pain Drain\libraries\lvgl\src\core/lv_event.c ****     e.deleted = 0;
  65:..\..\..\arduinoLCD\test\Pain Drain\libraries\lvgl\src\core/lv_event.c ****     e.stop_bubbling = 0;
  66:..\..\..\arduinoLCD\test\Pain Drain\libraries\lvgl\src\core/lv_event.c ****     e.stop_processing = 0;
  67:..\..\..\arduinoLCD\test\Pain Drain\libraries\lvgl\src\core/lv_event.c **** 
  68:..\..\..\arduinoLCD\test\Pain Drain\libraries\lvgl\src\core/lv_event.c ****     /*Build a simple linked list from the objects used in the events
  69:..\..\..\arduinoLCD\test\Pain Drain\libraries\lvgl\src\core/lv_event.c ****      *It's important to know if this object was deleted by a nested event
  70:..\..\..\arduinoLCD\test\Pain Drain\libraries\lvgl\src\core/lv_event.c ****      *called from this `event_cb`.*/
  71:..\..\..\arduinoLCD\test\Pain Drain\libraries\lvgl\src\core/lv_event.c ****     e.prev = event_head;
  72:..\..\..\arduinoLCD\test\Pain Drain\libraries\lvgl\src\core/lv_event.c ****     event_head = &e;
  73:..\..\..\arduinoLCD\test\Pain Drain\libraries\lvgl\src\core/lv_event.c **** 
  74:..\..\..\arduinoLCD\test\Pain Drain\libraries\lvgl\src\core/lv_event.c ****     /*Send the event*/
  75:..\..\..\arduinoLCD\test\Pain Drain\libraries\lvgl\src\core/lv_event.c ****     lv_res_t res = event_send_core(&e);
  76:..\..\..\arduinoLCD\test\Pain Drain\libraries\lvgl\src\core/lv_event.c **** 
  77:..\..\..\arduinoLCD\test\Pain Drain\libraries\lvgl\src\core/lv_event.c ****     /*Remove this element from the list*/
  78:..\..\..\arduinoLCD\test\Pain Drain\libraries\lvgl\src\core/lv_event.c ****     event_head = e.prev;
  79:..\..\..\arduinoLCD\test\Pain Drain\libraries\lvgl\src\core/lv_event.c **** 
  80:..\..\..\arduinoLCD\test\Pain Drain\libraries\lvgl\src\core/lv_event.c ****     return res;
  81:..\..\..\arduinoLCD\test\Pain Drain\libraries\lvgl\src\core/lv_event.c **** }
  82:..\..\..\arduinoLCD\test\Pain Drain\libraries\lvgl\src\core/lv_event.c **** 
  83:..\..\..\arduinoLCD\test\Pain Drain\libraries\lvgl\src\core/lv_event.c **** 
  84:..\..\..\arduinoLCD\test\Pain Drain\libraries\lvgl\src\core/lv_event.c **** lv_res_t lv_obj_event_base(const lv_obj_class_t * class_p, lv_event_t * e)
  85:..\..\..\arduinoLCD\test\Pain Drain\libraries\lvgl\src\core/lv_event.c **** {
  86:..\..\..\arduinoLCD\test\Pain Drain\libraries\lvgl\src\core/lv_event.c ****     const lv_obj_class_t * base;
  87:..\..\..\arduinoLCD\test\Pain Drain\libraries\lvgl\src\core/lv_event.c ****     if(class_p == NULL) base = e->current_target->class_p;
ARM GAS  C:\Users\haske\AppData\Local\Temp\ccnNTYZ7.s 			page 3


  88:..\..\..\arduinoLCD\test\Pain Drain\libraries\lvgl\src\core/lv_event.c ****     else base = class_p->base_class;
  89:..\..\..\arduinoLCD\test\Pain Drain\libraries\lvgl\src\core/lv_event.c **** 
  90:..\..\..\arduinoLCD\test\Pain Drain\libraries\lvgl\src\core/lv_event.c ****     /*Find a base in which call the ancestor's event handler_cb if set*/
  91:..\..\..\arduinoLCD\test\Pain Drain\libraries\lvgl\src\core/lv_event.c ****     while(base && base->event_cb == NULL) base = base->base_class;
  92:..\..\..\arduinoLCD\test\Pain Drain\libraries\lvgl\src\core/lv_event.c **** 
  93:..\..\..\arduinoLCD\test\Pain Drain\libraries\lvgl\src\core/lv_event.c ****     if(base == NULL) return LV_RES_OK;
  94:..\..\..\arduinoLCD\test\Pain Drain\libraries\lvgl\src\core/lv_event.c ****     if(base->event_cb == NULL) return LV_RES_OK;
  95:..\..\..\arduinoLCD\test\Pain Drain\libraries\lvgl\src\core/lv_event.c **** 
  96:..\..\..\arduinoLCD\test\Pain Drain\libraries\lvgl\src\core/lv_event.c ****     /*Call the actual event callback*/
  97:..\..\..\arduinoLCD\test\Pain Drain\libraries\lvgl\src\core/lv_event.c ****     e->user_data = NULL;
  98:..\..\..\arduinoLCD\test\Pain Drain\libraries\lvgl\src\core/lv_event.c ****     base->event_cb(base, e);
  99:..\..\..\arduinoLCD\test\Pain Drain\libraries\lvgl\src\core/lv_event.c **** 
 100:..\..\..\arduinoLCD\test\Pain Drain\libraries\lvgl\src\core/lv_event.c ****     lv_res_t res = LV_RES_OK;
 101:..\..\..\arduinoLCD\test\Pain Drain\libraries\lvgl\src\core/lv_event.c ****     /*Stop if the object is deleted*/
 102:..\..\..\arduinoLCD\test\Pain Drain\libraries\lvgl\src\core/lv_event.c ****     if(e->deleted) res = LV_RES_INV;
 103:..\..\..\arduinoLCD\test\Pain Drain\libraries\lvgl\src\core/lv_event.c **** 
 104:..\..\..\arduinoLCD\test\Pain Drain\libraries\lvgl\src\core/lv_event.c ****     return res;
 105:..\..\..\arduinoLCD\test\Pain Drain\libraries\lvgl\src\core/lv_event.c **** }
 106:..\..\..\arduinoLCD\test\Pain Drain\libraries\lvgl\src\core/lv_event.c **** 
 107:..\..\..\arduinoLCD\test\Pain Drain\libraries\lvgl\src\core/lv_event.c **** 
 108:..\..\..\arduinoLCD\test\Pain Drain\libraries\lvgl\src\core/lv_event.c **** lv_obj_t * lv_event_get_target(lv_event_t * e)
 109:..\..\..\arduinoLCD\test\Pain Drain\libraries\lvgl\src\core/lv_event.c **** {
 110:..\..\..\arduinoLCD\test\Pain Drain\libraries\lvgl\src\core/lv_event.c ****     return e->target;
 111:..\..\..\arduinoLCD\test\Pain Drain\libraries\lvgl\src\core/lv_event.c **** }
 112:..\..\..\arduinoLCD\test\Pain Drain\libraries\lvgl\src\core/lv_event.c **** 
 113:..\..\..\arduinoLCD\test\Pain Drain\libraries\lvgl\src\core/lv_event.c **** lv_obj_t * lv_event_get_current_target(lv_event_t * e)
 114:..\..\..\arduinoLCD\test\Pain Drain\libraries\lvgl\src\core/lv_event.c **** {
 115:..\..\..\arduinoLCD\test\Pain Drain\libraries\lvgl\src\core/lv_event.c ****     return e->current_target;
 116:..\..\..\arduinoLCD\test\Pain Drain\libraries\lvgl\src\core/lv_event.c **** }
 117:..\..\..\arduinoLCD\test\Pain Drain\libraries\lvgl\src\core/lv_event.c **** 
 118:..\..\..\arduinoLCD\test\Pain Drain\libraries\lvgl\src\core/lv_event.c **** lv_event_code_t lv_event_get_code(lv_event_t * e)
 119:..\..\..\arduinoLCD\test\Pain Drain\libraries\lvgl\src\core/lv_event.c **** {
 120:..\..\..\arduinoLCD\test\Pain Drain\libraries\lvgl\src\core/lv_event.c ****     return e->code & ~LV_EVENT_PREPROCESS;
 121:..\..\..\arduinoLCD\test\Pain Drain\libraries\lvgl\src\core/lv_event.c **** }
 122:..\..\..\arduinoLCD\test\Pain Drain\libraries\lvgl\src\core/lv_event.c **** 
 123:..\..\..\arduinoLCD\test\Pain Drain\libraries\lvgl\src\core/lv_event.c **** void * lv_event_get_param(lv_event_t * e)
 124:..\..\..\arduinoLCD\test\Pain Drain\libraries\lvgl\src\core/lv_event.c **** {
 125:..\..\..\arduinoLCD\test\Pain Drain\libraries\lvgl\src\core/lv_event.c ****     return e->param;
 126:..\..\..\arduinoLCD\test\Pain Drain\libraries\lvgl\src\core/lv_event.c **** }
 127:..\..\..\arduinoLCD\test\Pain Drain\libraries\lvgl\src\core/lv_event.c **** 
 128:..\..\..\arduinoLCD\test\Pain Drain\libraries\lvgl\src\core/lv_event.c **** void * lv_event_get_user_data(lv_event_t * e)
 129:..\..\..\arduinoLCD\test\Pain Drain\libraries\lvgl\src\core/lv_event.c **** {
 130:..\..\..\arduinoLCD\test\Pain Drain\libraries\lvgl\src\core/lv_event.c ****     return e->user_data;
 131:..\..\..\arduinoLCD\test\Pain Drain\libraries\lvgl\src\core/lv_event.c **** }
 132:..\..\..\arduinoLCD\test\Pain Drain\libraries\lvgl\src\core/lv_event.c **** 
 133:..\..\..\arduinoLCD\test\Pain Drain\libraries\lvgl\src\core/lv_event.c **** void lv_event_stop_bubbling(lv_event_t * e)
 134:..\..\..\arduinoLCD\test\Pain Drain\libraries\lvgl\src\core/lv_event.c **** {
 135:..\..\..\arduinoLCD\test\Pain Drain\libraries\lvgl\src\core/lv_event.c ****     e->stop_bubbling = 1;
 136:..\..\..\arduinoLCD\test\Pain Drain\libraries\lvgl\src\core/lv_event.c **** }
 137:..\..\..\arduinoLCD\test\Pain Drain\libraries\lvgl\src\core/lv_event.c **** 
 138:..\..\..\arduinoLCD\test\Pain Drain\libraries\lvgl\src\core/lv_event.c **** void lv_event_stop_processing(lv_event_t * e)
 139:..\..\..\arduinoLCD\test\Pain Drain\libraries\lvgl\src\core/lv_event.c **** {
 140:..\..\..\arduinoLCD\test\Pain Drain\libraries\lvgl\src\core/lv_event.c ****     e->stop_processing = 1;
 141:..\..\..\arduinoLCD\test\Pain Drain\libraries\lvgl\src\core/lv_event.c **** }
 142:..\..\..\arduinoLCD\test\Pain Drain\libraries\lvgl\src\core/lv_event.c **** 
 143:..\..\..\arduinoLCD\test\Pain Drain\libraries\lvgl\src\core/lv_event.c **** 
 144:..\..\..\arduinoLCD\test\Pain Drain\libraries\lvgl\src\core/lv_event.c **** uint32_t lv_event_register_id(void)
ARM GAS  C:\Users\haske\AppData\Local\Temp\ccnNTYZ7.s 			page 4


 145:..\..\..\arduinoLCD\test\Pain Drain\libraries\lvgl\src\core/lv_event.c **** {
 146:..\..\..\arduinoLCD\test\Pain Drain\libraries\lvgl\src\core/lv_event.c ****     static uint32_t last_id = _LV_EVENT_LAST;
 147:..\..\..\arduinoLCD\test\Pain Drain\libraries\lvgl\src\core/lv_event.c ****     last_id ++;
 148:..\..\..\arduinoLCD\test\Pain Drain\libraries\lvgl\src\core/lv_event.c ****     return last_id;
 149:..\..\..\arduinoLCD\test\Pain Drain\libraries\lvgl\src\core/lv_event.c **** }
 150:..\..\..\arduinoLCD\test\Pain Drain\libraries\lvgl\src\core/lv_event.c **** 
 151:..\..\..\arduinoLCD\test\Pain Drain\libraries\lvgl\src\core/lv_event.c **** void _lv_event_mark_deleted(lv_obj_t * obj)
 152:..\..\..\arduinoLCD\test\Pain Drain\libraries\lvgl\src\core/lv_event.c **** {
 153:..\..\..\arduinoLCD\test\Pain Drain\libraries\lvgl\src\core/lv_event.c ****     lv_event_t * e = event_head;
 154:..\..\..\arduinoLCD\test\Pain Drain\libraries\lvgl\src\core/lv_event.c **** 
 155:..\..\..\arduinoLCD\test\Pain Drain\libraries\lvgl\src\core/lv_event.c ****     while(e) {
 156:..\..\..\arduinoLCD\test\Pain Drain\libraries\lvgl\src\core/lv_event.c ****         if(e->current_target == obj || e->target == obj) e->deleted = 1;
 157:..\..\..\arduinoLCD\test\Pain Drain\libraries\lvgl\src\core/lv_event.c ****         e = e->prev;
 158:..\..\..\arduinoLCD\test\Pain Drain\libraries\lvgl\src\core/lv_event.c ****     }
 159:..\..\..\arduinoLCD\test\Pain Drain\libraries\lvgl\src\core/lv_event.c **** }
 160:..\..\..\arduinoLCD\test\Pain Drain\libraries\lvgl\src\core/lv_event.c **** 
 161:..\..\..\arduinoLCD\test\Pain Drain\libraries\lvgl\src\core/lv_event.c **** 
 162:..\..\..\arduinoLCD\test\Pain Drain\libraries\lvgl\src\core/lv_event.c **** struct _lv_event_dsc_t * lv_obj_add_event_cb(lv_obj_t * obj, lv_event_cb_t event_cb, lv_event_code_
 163:..\..\..\arduinoLCD\test\Pain Drain\libraries\lvgl\src\core/lv_event.c ****                                              void * user_data)
 164:..\..\..\arduinoLCD\test\Pain Drain\libraries\lvgl\src\core/lv_event.c **** {
 165:..\..\..\arduinoLCD\test\Pain Drain\libraries\lvgl\src\core/lv_event.c ****     LV_ASSERT_OBJ(obj, MY_CLASS);
 166:..\..\..\arduinoLCD\test\Pain Drain\libraries\lvgl\src\core/lv_event.c ****     lv_obj_allocate_spec_attr(obj);
 167:..\..\..\arduinoLCD\test\Pain Drain\libraries\lvgl\src\core/lv_event.c **** 
 168:..\..\..\arduinoLCD\test\Pain Drain\libraries\lvgl\src\core/lv_event.c ****     obj->spec_attr->event_dsc_cnt++;
 169:..\..\..\arduinoLCD\test\Pain Drain\libraries\lvgl\src\core/lv_event.c ****     obj->spec_attr->event_dsc = lv_mem_realloc(obj->spec_attr->event_dsc,
 170:..\..\..\arduinoLCD\test\Pain Drain\libraries\lvgl\src\core/lv_event.c ****                                                obj->spec_attr->event_dsc_cnt * sizeof(lv_event_dsc_
 171:..\..\..\arduinoLCD\test\Pain Drain\libraries\lvgl\src\core/lv_event.c ****     LV_ASSERT_MALLOC(obj->spec_attr->event_dsc);
 172:..\..\..\arduinoLCD\test\Pain Drain\libraries\lvgl\src\core/lv_event.c **** 
 173:..\..\..\arduinoLCD\test\Pain Drain\libraries\lvgl\src\core/lv_event.c ****     obj->spec_attr->event_dsc[obj->spec_attr->event_dsc_cnt - 1].cb = event_cb;
 174:..\..\..\arduinoLCD\test\Pain Drain\libraries\lvgl\src\core/lv_event.c ****     obj->spec_attr->event_dsc[obj->spec_attr->event_dsc_cnt - 1].filter = filter;
 175:..\..\..\arduinoLCD\test\Pain Drain\libraries\lvgl\src\core/lv_event.c ****     obj->spec_attr->event_dsc[obj->spec_attr->event_dsc_cnt - 1].user_data = user_data;
 176:..\..\..\arduinoLCD\test\Pain Drain\libraries\lvgl\src\core/lv_event.c **** 
 177:..\..\..\arduinoLCD\test\Pain Drain\libraries\lvgl\src\core/lv_event.c ****     return &obj->spec_attr->event_dsc[obj->spec_attr->event_dsc_cnt - 1];
 178:..\..\..\arduinoLCD\test\Pain Drain\libraries\lvgl\src\core/lv_event.c **** }
 179:..\..\..\arduinoLCD\test\Pain Drain\libraries\lvgl\src\core/lv_event.c **** 
 180:..\..\..\arduinoLCD\test\Pain Drain\libraries\lvgl\src\core/lv_event.c **** bool lv_obj_remove_event_cb(lv_obj_t * obj, lv_event_cb_t event_cb)
 181:..\..\..\arduinoLCD\test\Pain Drain\libraries\lvgl\src\core/lv_event.c **** {
 182:..\..\..\arduinoLCD\test\Pain Drain\libraries\lvgl\src\core/lv_event.c ****     LV_ASSERT_OBJ(obj, MY_CLASS);
 183:..\..\..\arduinoLCD\test\Pain Drain\libraries\lvgl\src\core/lv_event.c ****     if(obj->spec_attr == NULL) return false;
 184:..\..\..\arduinoLCD\test\Pain Drain\libraries\lvgl\src\core/lv_event.c **** 
 185:..\..\..\arduinoLCD\test\Pain Drain\libraries\lvgl\src\core/lv_event.c ****     int32_t i = 0;
 186:..\..\..\arduinoLCD\test\Pain Drain\libraries\lvgl\src\core/lv_event.c ****     for(i = 0; i < obj->spec_attr->event_dsc_cnt; i++) {
 187:..\..\..\arduinoLCD\test\Pain Drain\libraries\lvgl\src\core/lv_event.c ****         if(event_cb == NULL || obj->spec_attr->event_dsc[i].cb == event_cb) {
 188:..\..\..\arduinoLCD\test\Pain Drain\libraries\lvgl\src\core/lv_event.c ****             /*Shift the remaining event handlers forward*/
 189:..\..\..\arduinoLCD\test\Pain Drain\libraries\lvgl\src\core/lv_event.c ****             for(; i < (obj->spec_attr->event_dsc_cnt - 1); i++) {
 190:..\..\..\arduinoLCD\test\Pain Drain\libraries\lvgl\src\core/lv_event.c ****                 obj->spec_attr->event_dsc[i] = obj->spec_attr->event_dsc[i + 1];
 191:..\..\..\arduinoLCD\test\Pain Drain\libraries\lvgl\src\core/lv_event.c ****             }
 192:..\..\..\arduinoLCD\test\Pain Drain\libraries\lvgl\src\core/lv_event.c ****             obj->spec_attr->event_dsc_cnt--;
 193:..\..\..\arduinoLCD\test\Pain Drain\libraries\lvgl\src\core/lv_event.c ****             obj->spec_attr->event_dsc = lv_mem_realloc(obj->spec_attr->event_dsc,
 194:..\..\..\arduinoLCD\test\Pain Drain\libraries\lvgl\src\core/lv_event.c ****                                                        obj->spec_attr->event_dsc_cnt * sizeof(lv_ev
 195:..\..\..\arduinoLCD\test\Pain Drain\libraries\lvgl\src\core/lv_event.c ****             LV_ASSERT_MALLOC(obj->spec_attr->event_dsc);
 196:..\..\..\arduinoLCD\test\Pain Drain\libraries\lvgl\src\core/lv_event.c ****             return true;
 197:..\..\..\arduinoLCD\test\Pain Drain\libraries\lvgl\src\core/lv_event.c ****         }
 198:..\..\..\arduinoLCD\test\Pain Drain\libraries\lvgl\src\core/lv_event.c ****     }
 199:..\..\..\arduinoLCD\test\Pain Drain\libraries\lvgl\src\core/lv_event.c **** 
 200:..\..\..\arduinoLCD\test\Pain Drain\libraries\lvgl\src\core/lv_event.c ****     /*No event handler found*/
 201:..\..\..\arduinoLCD\test\Pain Drain\libraries\lvgl\src\core/lv_event.c ****     return false;
ARM GAS  C:\Users\haske\AppData\Local\Temp\ccnNTYZ7.s 			page 5


 202:..\..\..\arduinoLCD\test\Pain Drain\libraries\lvgl\src\core/lv_event.c **** }
 203:..\..\..\arduinoLCD\test\Pain Drain\libraries\lvgl\src\core/lv_event.c **** 
 204:..\..\..\arduinoLCD\test\Pain Drain\libraries\lvgl\src\core/lv_event.c **** bool lv_obj_remove_event_cb_with_user_data(lv_obj_t * obj, lv_event_cb_t event_cb, const void * use
 205:..\..\..\arduinoLCD\test\Pain Drain\libraries\lvgl\src\core/lv_event.c **** {
 206:..\..\..\arduinoLCD\test\Pain Drain\libraries\lvgl\src\core/lv_event.c ****     LV_ASSERT_OBJ(obj, MY_CLASS);
 207:..\..\..\arduinoLCD\test\Pain Drain\libraries\lvgl\src\core/lv_event.c ****     if(obj->spec_attr == NULL) return false;
 208:..\..\..\arduinoLCD\test\Pain Drain\libraries\lvgl\src\core/lv_event.c **** 
 209:..\..\..\arduinoLCD\test\Pain Drain\libraries\lvgl\src\core/lv_event.c ****     int32_t i = 0;
 210:..\..\..\arduinoLCD\test\Pain Drain\libraries\lvgl\src\core/lv_event.c ****     for(i = 0; i < obj->spec_attr->event_dsc_cnt; i++) {
 211:..\..\..\arduinoLCD\test\Pain Drain\libraries\lvgl\src\core/lv_event.c ****         if((event_cb == NULL || obj->spec_attr->event_dsc[i].cb == event_cb) &&
 212:..\..\..\arduinoLCD\test\Pain Drain\libraries\lvgl\src\core/lv_event.c ****            obj->spec_attr->event_dsc[i].user_data == user_data) {
 213:..\..\..\arduinoLCD\test\Pain Drain\libraries\lvgl\src\core/lv_event.c ****             /*Shift the remaining event handlers forward*/
 214:..\..\..\arduinoLCD\test\Pain Drain\libraries\lvgl\src\core/lv_event.c ****             for(; i < (obj->spec_attr->event_dsc_cnt - 1); i++) {
 215:..\..\..\arduinoLCD\test\Pain Drain\libraries\lvgl\src\core/lv_event.c ****                 obj->spec_attr->event_dsc[i] = obj->spec_attr->event_dsc[i + 1];
 216:..\..\..\arduinoLCD\test\Pain Drain\libraries\lvgl\src\core/lv_event.c ****             }
 217:..\..\..\arduinoLCD\test\Pain Drain\libraries\lvgl\src\core/lv_event.c ****             obj->spec_attr->event_dsc_cnt--;
 218:..\..\..\arduinoLCD\test\Pain Drain\libraries\lvgl\src\core/lv_event.c ****             obj->spec_attr->event_dsc = lv_mem_realloc(obj->spec_attr->event_dsc,
 219:..\..\..\arduinoLCD\test\Pain Drain\libraries\lvgl\src\core/lv_event.c ****                                                        obj->spec_attr->event_dsc_cnt * sizeof(lv_ev
 220:..\..\..\arduinoLCD\test\Pain Drain\libraries\lvgl\src\core/lv_event.c ****             LV_ASSERT_MALLOC(obj->spec_attr->event_dsc);
 221:..\..\..\arduinoLCD\test\Pain Drain\libraries\lvgl\src\core/lv_event.c ****             return true;
 222:..\..\..\arduinoLCD\test\Pain Drain\libraries\lvgl\src\core/lv_event.c ****         }
 223:..\..\..\arduinoLCD\test\Pain Drain\libraries\lvgl\src\core/lv_event.c ****     }
 224:..\..\..\arduinoLCD\test\Pain Drain\libraries\lvgl\src\core/lv_event.c **** 
 225:..\..\..\arduinoLCD\test\Pain Drain\libraries\lvgl\src\core/lv_event.c ****     /*No event handler found*/
 226:..\..\..\arduinoLCD\test\Pain Drain\libraries\lvgl\src\core/lv_event.c ****     return false;
 227:..\..\..\arduinoLCD\test\Pain Drain\libraries\lvgl\src\core/lv_event.c **** }
 228:..\..\..\arduinoLCD\test\Pain Drain\libraries\lvgl\src\core/lv_event.c **** 
 229:..\..\..\arduinoLCD\test\Pain Drain\libraries\lvgl\src\core/lv_event.c **** 
 230:..\..\..\arduinoLCD\test\Pain Drain\libraries\lvgl\src\core/lv_event.c **** bool lv_obj_remove_event_dsc(lv_obj_t * obj, struct _lv_event_dsc_t * event_dsc)
 231:..\..\..\arduinoLCD\test\Pain Drain\libraries\lvgl\src\core/lv_event.c **** {
 232:..\..\..\arduinoLCD\test\Pain Drain\libraries\lvgl\src\core/lv_event.c ****     LV_ASSERT_OBJ(obj, MY_CLASS);
 233:..\..\..\arduinoLCD\test\Pain Drain\libraries\lvgl\src\core/lv_event.c ****     if(obj->spec_attr == NULL) return false;
 234:..\..\..\arduinoLCD\test\Pain Drain\libraries\lvgl\src\core/lv_event.c **** 
 235:..\..\..\arduinoLCD\test\Pain Drain\libraries\lvgl\src\core/lv_event.c ****     int32_t i = 0;
 236:..\..\..\arduinoLCD\test\Pain Drain\libraries\lvgl\src\core/lv_event.c ****     for(i = 0; i < obj->spec_attr->event_dsc_cnt; i++) {
 237:..\..\..\arduinoLCD\test\Pain Drain\libraries\lvgl\src\core/lv_event.c ****         if(&obj->spec_attr->event_dsc[i] == event_dsc) {
 238:..\..\..\arduinoLCD\test\Pain Drain\libraries\lvgl\src\core/lv_event.c ****             /*Shift the remaining event handlers forward*/
 239:..\..\..\arduinoLCD\test\Pain Drain\libraries\lvgl\src\core/lv_event.c ****             for(; i < (obj->spec_attr->event_dsc_cnt - 1); i++) {
 240:..\..\..\arduinoLCD\test\Pain Drain\libraries\lvgl\src\core/lv_event.c ****                 obj->spec_attr->event_dsc[i] = obj->spec_attr->event_dsc[i + 1];
 241:..\..\..\arduinoLCD\test\Pain Drain\libraries\lvgl\src\core/lv_event.c ****             }
 242:..\..\..\arduinoLCD\test\Pain Drain\libraries\lvgl\src\core/lv_event.c ****             obj->spec_attr->event_dsc_cnt--;
 243:..\..\..\arduinoLCD\test\Pain Drain\libraries\lvgl\src\core/lv_event.c ****             obj->spec_attr->event_dsc = lv_mem_realloc(obj->spec_attr->event_dsc,
 244:..\..\..\arduinoLCD\test\Pain Drain\libraries\lvgl\src\core/lv_event.c ****                                                        obj->spec_attr->event_dsc_cnt * sizeof(lv_ev
 245:..\..\..\arduinoLCD\test\Pain Drain\libraries\lvgl\src\core/lv_event.c ****             LV_ASSERT_MALLOC(obj->spec_attr->event_dsc);
 246:..\..\..\arduinoLCD\test\Pain Drain\libraries\lvgl\src\core/lv_event.c ****             return true;
 247:..\..\..\arduinoLCD\test\Pain Drain\libraries\lvgl\src\core/lv_event.c ****         }
 248:..\..\..\arduinoLCD\test\Pain Drain\libraries\lvgl\src\core/lv_event.c ****     }
 249:..\..\..\arduinoLCD\test\Pain Drain\libraries\lvgl\src\core/lv_event.c **** 
 250:..\..\..\arduinoLCD\test\Pain Drain\libraries\lvgl\src\core/lv_event.c ****     /*No event handler found*/
 251:..\..\..\arduinoLCD\test\Pain Drain\libraries\lvgl\src\core/lv_event.c ****     return false;
 252:..\..\..\arduinoLCD\test\Pain Drain\libraries\lvgl\src\core/lv_event.c **** }
 253:..\..\..\arduinoLCD\test\Pain Drain\libraries\lvgl\src\core/lv_event.c **** 
 254:..\..\..\arduinoLCD\test\Pain Drain\libraries\lvgl\src\core/lv_event.c **** void * lv_obj_get_event_user_data(struct _lv_obj_t * obj, lv_event_cb_t event_cb)
 255:..\..\..\arduinoLCD\test\Pain Drain\libraries\lvgl\src\core/lv_event.c **** {
 256:..\..\..\arduinoLCD\test\Pain Drain\libraries\lvgl\src\core/lv_event.c ****     LV_ASSERT_OBJ(obj, MY_CLASS);
 257:..\..\..\arduinoLCD\test\Pain Drain\libraries\lvgl\src\core/lv_event.c ****     if(obj->spec_attr == NULL) return NULL;
 258:..\..\..\arduinoLCD\test\Pain Drain\libraries\lvgl\src\core/lv_event.c **** 
ARM GAS  C:\Users\haske\AppData\Local\Temp\ccnNTYZ7.s 			page 6


 259:..\..\..\arduinoLCD\test\Pain Drain\libraries\lvgl\src\core/lv_event.c ****     int32_t i = 0;
 260:..\..\..\arduinoLCD\test\Pain Drain\libraries\lvgl\src\core/lv_event.c ****     for(i = 0; i < obj->spec_attr->event_dsc_cnt; i++) {
 261:..\..\..\arduinoLCD\test\Pain Drain\libraries\lvgl\src\core/lv_event.c ****         if(event_cb == obj->spec_attr->event_dsc[i].cb) return obj->spec_attr->event_dsc[i].user_da
 262:..\..\..\arduinoLCD\test\Pain Drain\libraries\lvgl\src\core/lv_event.c ****     }
 263:..\..\..\arduinoLCD\test\Pain Drain\libraries\lvgl\src\core/lv_event.c ****     return NULL;
 264:..\..\..\arduinoLCD\test\Pain Drain\libraries\lvgl\src\core/lv_event.c **** }
 265:..\..\..\arduinoLCD\test\Pain Drain\libraries\lvgl\src\core/lv_event.c **** 
 266:..\..\..\arduinoLCD\test\Pain Drain\libraries\lvgl\src\core/lv_event.c **** lv_indev_t * lv_event_get_indev(lv_event_t * e)
 267:..\..\..\arduinoLCD\test\Pain Drain\libraries\lvgl\src\core/lv_event.c **** {
 268:..\..\..\arduinoLCD\test\Pain Drain\libraries\lvgl\src\core/lv_event.c **** 
 269:..\..\..\arduinoLCD\test\Pain Drain\libraries\lvgl\src\core/lv_event.c ****     if(e->code == LV_EVENT_PRESSED ||
 270:..\..\..\arduinoLCD\test\Pain Drain\libraries\lvgl\src\core/lv_event.c ****        e->code == LV_EVENT_PRESSING ||
 271:..\..\..\arduinoLCD\test\Pain Drain\libraries\lvgl\src\core/lv_event.c ****        e->code == LV_EVENT_PRESS_LOST ||
 272:..\..\..\arduinoLCD\test\Pain Drain\libraries\lvgl\src\core/lv_event.c ****        e->code == LV_EVENT_SHORT_CLICKED ||
 273:..\..\..\arduinoLCD\test\Pain Drain\libraries\lvgl\src\core/lv_event.c ****        e->code == LV_EVENT_LONG_PRESSED ||
 274:..\..\..\arduinoLCD\test\Pain Drain\libraries\lvgl\src\core/lv_event.c ****        e->code == LV_EVENT_LONG_PRESSED_REPEAT ||
 275:..\..\..\arduinoLCD\test\Pain Drain\libraries\lvgl\src\core/lv_event.c ****        e->code == LV_EVENT_CLICKED ||
 276:..\..\..\arduinoLCD\test\Pain Drain\libraries\lvgl\src\core/lv_event.c ****        e->code == LV_EVENT_RELEASED ||
 277:..\..\..\arduinoLCD\test\Pain Drain\libraries\lvgl\src\core/lv_event.c ****        e->code == LV_EVENT_SCROLL_BEGIN ||
 278:..\..\..\arduinoLCD\test\Pain Drain\libraries\lvgl\src\core/lv_event.c ****        e->code == LV_EVENT_SCROLL_END ||
 279:..\..\..\arduinoLCD\test\Pain Drain\libraries\lvgl\src\core/lv_event.c ****        e->code == LV_EVENT_SCROLL ||
 280:..\..\..\arduinoLCD\test\Pain Drain\libraries\lvgl\src\core/lv_event.c ****        e->code == LV_EVENT_GESTURE ||
 281:..\..\..\arduinoLCD\test\Pain Drain\libraries\lvgl\src\core/lv_event.c ****        e->code == LV_EVENT_KEY ||
 282:..\..\..\arduinoLCD\test\Pain Drain\libraries\lvgl\src\core/lv_event.c ****        e->code == LV_EVENT_FOCUSED ||
 283:..\..\..\arduinoLCD\test\Pain Drain\libraries\lvgl\src\core/lv_event.c ****        e->code == LV_EVENT_DEFOCUSED ||
 284:..\..\..\arduinoLCD\test\Pain Drain\libraries\lvgl\src\core/lv_event.c ****        e->code == LV_EVENT_LEAVE) {
 285:..\..\..\arduinoLCD\test\Pain Drain\libraries\lvgl\src\core/lv_event.c ****         return lv_event_get_param(e);
 286:..\..\..\arduinoLCD\test\Pain Drain\libraries\lvgl\src\core/lv_event.c ****     }
 287:..\..\..\arduinoLCD\test\Pain Drain\libraries\lvgl\src\core/lv_event.c ****     else {
 288:..\..\..\arduinoLCD\test\Pain Drain\libraries\lvgl\src\core/lv_event.c ****         LV_LOG_WARN("Not interpreted with this event code");
 289:..\..\..\arduinoLCD\test\Pain Drain\libraries\lvgl\src\core/lv_event.c ****         return NULL;
 290:..\..\..\arduinoLCD\test\Pain Drain\libraries\lvgl\src\core/lv_event.c ****     }
 291:..\..\..\arduinoLCD\test\Pain Drain\libraries\lvgl\src\core/lv_event.c **** }
 292:..\..\..\arduinoLCD\test\Pain Drain\libraries\lvgl\src\core/lv_event.c **** 
 293:..\..\..\arduinoLCD\test\Pain Drain\libraries\lvgl\src\core/lv_event.c **** lv_obj_draw_part_dsc_t * lv_event_get_draw_part_dsc(lv_event_t * e)
 294:..\..\..\arduinoLCD\test\Pain Drain\libraries\lvgl\src\core/lv_event.c **** {
 295:..\..\..\arduinoLCD\test\Pain Drain\libraries\lvgl\src\core/lv_event.c ****     if(e->code == LV_EVENT_DRAW_PART_BEGIN ||
 296:..\..\..\arduinoLCD\test\Pain Drain\libraries\lvgl\src\core/lv_event.c ****        e->code == LV_EVENT_DRAW_PART_END) {
 297:..\..\..\arduinoLCD\test\Pain Drain\libraries\lvgl\src\core/lv_event.c ****         return lv_event_get_param(e);
 298:..\..\..\arduinoLCD\test\Pain Drain\libraries\lvgl\src\core/lv_event.c ****     }
 299:..\..\..\arduinoLCD\test\Pain Drain\libraries\lvgl\src\core/lv_event.c ****     else {
 300:..\..\..\arduinoLCD\test\Pain Drain\libraries\lvgl\src\core/lv_event.c ****         LV_LOG_WARN("Not interpreted with this event code");
 301:..\..\..\arduinoLCD\test\Pain Drain\libraries\lvgl\src\core/lv_event.c ****         return NULL;
 302:..\..\..\arduinoLCD\test\Pain Drain\libraries\lvgl\src\core/lv_event.c ****     }
 303:..\..\..\arduinoLCD\test\Pain Drain\libraries\lvgl\src\core/lv_event.c **** }
 304:..\..\..\arduinoLCD\test\Pain Drain\libraries\lvgl\src\core/lv_event.c **** 
 305:..\..\..\arduinoLCD\test\Pain Drain\libraries\lvgl\src\core/lv_event.c **** lv_draw_ctx_t * lv_event_get_draw_ctx(lv_event_t * e)
 306:..\..\..\arduinoLCD\test\Pain Drain\libraries\lvgl\src\core/lv_event.c **** {
 307:..\..\..\arduinoLCD\test\Pain Drain\libraries\lvgl\src\core/lv_event.c ****     if(e->code == LV_EVENT_DRAW_MAIN ||
 308:..\..\..\arduinoLCD\test\Pain Drain\libraries\lvgl\src\core/lv_event.c ****        e->code == LV_EVENT_DRAW_MAIN_BEGIN ||
 309:..\..\..\arduinoLCD\test\Pain Drain\libraries\lvgl\src\core/lv_event.c ****        e->code == LV_EVENT_DRAW_MAIN_END ||
 310:..\..\..\arduinoLCD\test\Pain Drain\libraries\lvgl\src\core/lv_event.c ****        e->code == LV_EVENT_DRAW_POST ||
 311:..\..\..\arduinoLCD\test\Pain Drain\libraries\lvgl\src\core/lv_event.c ****        e->code == LV_EVENT_DRAW_POST_BEGIN ||
 312:..\..\..\arduinoLCD\test\Pain Drain\libraries\lvgl\src\core/lv_event.c ****        e->code == LV_EVENT_DRAW_POST_END) {
 313:..\..\..\arduinoLCD\test\Pain Drain\libraries\lvgl\src\core/lv_event.c ****         return lv_event_get_param(e);
 314:..\..\..\arduinoLCD\test\Pain Drain\libraries\lvgl\src\core/lv_event.c ****     }
 315:..\..\..\arduinoLCD\test\Pain Drain\libraries\lvgl\src\core/lv_event.c ****     else {
ARM GAS  C:\Users\haske\AppData\Local\Temp\ccnNTYZ7.s 			page 7


 316:..\..\..\arduinoLCD\test\Pain Drain\libraries\lvgl\src\core/lv_event.c ****         LV_LOG_WARN("Not interpreted with this event code");
 317:..\..\..\arduinoLCD\test\Pain Drain\libraries\lvgl\src\core/lv_event.c ****         return NULL;
 318:..\..\..\arduinoLCD\test\Pain Drain\libraries\lvgl\src\core/lv_event.c ****     }
 319:..\..\..\arduinoLCD\test\Pain Drain\libraries\lvgl\src\core/lv_event.c **** }
 320:..\..\..\arduinoLCD\test\Pain Drain\libraries\lvgl\src\core/lv_event.c **** 
 321:..\..\..\arduinoLCD\test\Pain Drain\libraries\lvgl\src\core/lv_event.c **** const lv_area_t * lv_event_get_old_size(lv_event_t * e)
 322:..\..\..\arduinoLCD\test\Pain Drain\libraries\lvgl\src\core/lv_event.c **** {
 323:..\..\..\arduinoLCD\test\Pain Drain\libraries\lvgl\src\core/lv_event.c ****     if(e->code == LV_EVENT_SIZE_CHANGED) {
 324:..\..\..\arduinoLCD\test\Pain Drain\libraries\lvgl\src\core/lv_event.c ****         return lv_event_get_param(e);
 325:..\..\..\arduinoLCD\test\Pain Drain\libraries\lvgl\src\core/lv_event.c ****     }
 326:..\..\..\arduinoLCD\test\Pain Drain\libraries\lvgl\src\core/lv_event.c ****     else {
 327:..\..\..\arduinoLCD\test\Pain Drain\libraries\lvgl\src\core/lv_event.c ****         LV_LOG_WARN("Not interpreted with this event code");
 328:..\..\..\arduinoLCD\test\Pain Drain\libraries\lvgl\src\core/lv_event.c ****         return NULL;
 329:..\..\..\arduinoLCD\test\Pain Drain\libraries\lvgl\src\core/lv_event.c ****     }
 330:..\..\..\arduinoLCD\test\Pain Drain\libraries\lvgl\src\core/lv_event.c **** }
 331:..\..\..\arduinoLCD\test\Pain Drain\libraries\lvgl\src\core/lv_event.c **** 
 332:..\..\..\arduinoLCD\test\Pain Drain\libraries\lvgl\src\core/lv_event.c **** uint32_t lv_event_get_key(lv_event_t * e)
 333:..\..\..\arduinoLCD\test\Pain Drain\libraries\lvgl\src\core/lv_event.c **** {
 334:..\..\..\arduinoLCD\test\Pain Drain\libraries\lvgl\src\core/lv_event.c ****     if(e->code == LV_EVENT_KEY) {
 335:..\..\..\arduinoLCD\test\Pain Drain\libraries\lvgl\src\core/lv_event.c ****         uint32_t * k = lv_event_get_param(e);
 336:..\..\..\arduinoLCD\test\Pain Drain\libraries\lvgl\src\core/lv_event.c ****         if(k) return *k;
 337:..\..\..\arduinoLCD\test\Pain Drain\libraries\lvgl\src\core/lv_event.c ****         else return 0;
 338:..\..\..\arduinoLCD\test\Pain Drain\libraries\lvgl\src\core/lv_event.c ****     }
 339:..\..\..\arduinoLCD\test\Pain Drain\libraries\lvgl\src\core/lv_event.c ****     else {
 340:..\..\..\arduinoLCD\test\Pain Drain\libraries\lvgl\src\core/lv_event.c ****         LV_LOG_WARN("Not interpreted with this event code");
 341:..\..\..\arduinoLCD\test\Pain Drain\libraries\lvgl\src\core/lv_event.c ****         return 0;
 342:..\..\..\arduinoLCD\test\Pain Drain\libraries\lvgl\src\core/lv_event.c ****     }
 343:..\..\..\arduinoLCD\test\Pain Drain\libraries\lvgl\src\core/lv_event.c **** }
 344:..\..\..\arduinoLCD\test\Pain Drain\libraries\lvgl\src\core/lv_event.c **** 
 345:..\..\..\arduinoLCD\test\Pain Drain\libraries\lvgl\src\core/lv_event.c **** lv_anim_t * lv_event_get_scroll_anim(lv_event_t * e)
 346:..\..\..\arduinoLCD\test\Pain Drain\libraries\lvgl\src\core/lv_event.c **** {
 347:..\..\..\arduinoLCD\test\Pain Drain\libraries\lvgl\src\core/lv_event.c ****     if(e->code == LV_EVENT_SCROLL_BEGIN) {
 348:..\..\..\arduinoLCD\test\Pain Drain\libraries\lvgl\src\core/lv_event.c ****         return lv_event_get_param(e);
 349:..\..\..\arduinoLCD\test\Pain Drain\libraries\lvgl\src\core/lv_event.c ****     }
 350:..\..\..\arduinoLCD\test\Pain Drain\libraries\lvgl\src\core/lv_event.c ****     else {
 351:..\..\..\arduinoLCD\test\Pain Drain\libraries\lvgl\src\core/lv_event.c ****         LV_LOG_WARN("Not interpreted with this event code");
 352:..\..\..\arduinoLCD\test\Pain Drain\libraries\lvgl\src\core/lv_event.c ****         return 0;
 353:..\..\..\arduinoLCD\test\Pain Drain\libraries\lvgl\src\core/lv_event.c ****     }
 354:..\..\..\arduinoLCD\test\Pain Drain\libraries\lvgl\src\core/lv_event.c **** }
 355:..\..\..\arduinoLCD\test\Pain Drain\libraries\lvgl\src\core/lv_event.c **** 
 356:..\..\..\arduinoLCD\test\Pain Drain\libraries\lvgl\src\core/lv_event.c **** void lv_event_set_ext_draw_size(lv_event_t * e, lv_coord_t size)
 357:..\..\..\arduinoLCD\test\Pain Drain\libraries\lvgl\src\core/lv_event.c **** {
 358:..\..\..\arduinoLCD\test\Pain Drain\libraries\lvgl\src\core/lv_event.c ****     if(e->code == LV_EVENT_REFR_EXT_DRAW_SIZE) {
 359:..\..\..\arduinoLCD\test\Pain Drain\libraries\lvgl\src\core/lv_event.c ****         lv_coord_t * cur_size = lv_event_get_param(e);
 360:..\..\..\arduinoLCD\test\Pain Drain\libraries\lvgl\src\core/lv_event.c ****         *cur_size = LV_MAX(*cur_size, size);
 361:..\..\..\arduinoLCD\test\Pain Drain\libraries\lvgl\src\core/lv_event.c ****     }
 362:..\..\..\arduinoLCD\test\Pain Drain\libraries\lvgl\src\core/lv_event.c ****     else {
 363:..\..\..\arduinoLCD\test\Pain Drain\libraries\lvgl\src\core/lv_event.c ****         LV_LOG_WARN("Not interpreted with this event code");
 364:..\..\..\arduinoLCD\test\Pain Drain\libraries\lvgl\src\core/lv_event.c ****     }
 365:..\..\..\arduinoLCD\test\Pain Drain\libraries\lvgl\src\core/lv_event.c **** }
 366:..\..\..\arduinoLCD\test\Pain Drain\libraries\lvgl\src\core/lv_event.c **** 
 367:..\..\..\arduinoLCD\test\Pain Drain\libraries\lvgl\src\core/lv_event.c **** lv_point_t * lv_event_get_self_size_info(lv_event_t * e)
 368:..\..\..\arduinoLCD\test\Pain Drain\libraries\lvgl\src\core/lv_event.c **** {
 369:..\..\..\arduinoLCD\test\Pain Drain\libraries\lvgl\src\core/lv_event.c ****     if(e->code == LV_EVENT_GET_SELF_SIZE) {
 370:..\..\..\arduinoLCD\test\Pain Drain\libraries\lvgl\src\core/lv_event.c ****         return lv_event_get_param(e);
 371:..\..\..\arduinoLCD\test\Pain Drain\libraries\lvgl\src\core/lv_event.c ****     }
 372:..\..\..\arduinoLCD\test\Pain Drain\libraries\lvgl\src\core/lv_event.c ****     else {
ARM GAS  C:\Users\haske\AppData\Local\Temp\ccnNTYZ7.s 			page 8


 373:..\..\..\arduinoLCD\test\Pain Drain\libraries\lvgl\src\core/lv_event.c ****         LV_LOG_WARN("Not interpreted with this event code");
 374:..\..\..\arduinoLCD\test\Pain Drain\libraries\lvgl\src\core/lv_event.c ****         return 0;
 375:..\..\..\arduinoLCD\test\Pain Drain\libraries\lvgl\src\core/lv_event.c ****     }
 376:..\..\..\arduinoLCD\test\Pain Drain\libraries\lvgl\src\core/lv_event.c **** }
 377:..\..\..\arduinoLCD\test\Pain Drain\libraries\lvgl\src\core/lv_event.c **** 
 378:..\..\..\arduinoLCD\test\Pain Drain\libraries\lvgl\src\core/lv_event.c **** lv_hit_test_info_t * lv_event_get_hit_test_info(lv_event_t * e)
 379:..\..\..\arduinoLCD\test\Pain Drain\libraries\lvgl\src\core/lv_event.c **** {
 380:..\..\..\arduinoLCD\test\Pain Drain\libraries\lvgl\src\core/lv_event.c ****     if(e->code == LV_EVENT_HIT_TEST) {
 381:..\..\..\arduinoLCD\test\Pain Drain\libraries\lvgl\src\core/lv_event.c ****         return lv_event_get_param(e);
 382:..\..\..\arduinoLCD\test\Pain Drain\libraries\lvgl\src\core/lv_event.c ****     }
 383:..\..\..\arduinoLCD\test\Pain Drain\libraries\lvgl\src\core/lv_event.c ****     else {
 384:..\..\..\arduinoLCD\test\Pain Drain\libraries\lvgl\src\core/lv_event.c ****         LV_LOG_WARN("Not interpreted with this event code");
 385:..\..\..\arduinoLCD\test\Pain Drain\libraries\lvgl\src\core/lv_event.c ****         return 0;
 386:..\..\..\arduinoLCD\test\Pain Drain\libraries\lvgl\src\core/lv_event.c ****     }
 387:..\..\..\arduinoLCD\test\Pain Drain\libraries\lvgl\src\core/lv_event.c **** }
 388:..\..\..\arduinoLCD\test\Pain Drain\libraries\lvgl\src\core/lv_event.c **** 
 389:..\..\..\arduinoLCD\test\Pain Drain\libraries\lvgl\src\core/lv_event.c **** const lv_area_t * lv_event_get_cover_area(lv_event_t * e)
 390:..\..\..\arduinoLCD\test\Pain Drain\libraries\lvgl\src\core/lv_event.c **** {
 391:..\..\..\arduinoLCD\test\Pain Drain\libraries\lvgl\src\core/lv_event.c ****     if(e->code == LV_EVENT_COVER_CHECK) {
 392:..\..\..\arduinoLCD\test\Pain Drain\libraries\lvgl\src\core/lv_event.c ****         lv_cover_check_info_t * p = lv_event_get_param(e);
 393:..\..\..\arduinoLCD\test\Pain Drain\libraries\lvgl\src\core/lv_event.c ****         return p->area;
 394:..\..\..\arduinoLCD\test\Pain Drain\libraries\lvgl\src\core/lv_event.c ****     }
 395:..\..\..\arduinoLCD\test\Pain Drain\libraries\lvgl\src\core/lv_event.c ****     else {
 396:..\..\..\arduinoLCD\test\Pain Drain\libraries\lvgl\src\core/lv_event.c ****         LV_LOG_WARN("Not interpreted with this event code");
 397:..\..\..\arduinoLCD\test\Pain Drain\libraries\lvgl\src\core/lv_event.c ****         return NULL;
 398:..\..\..\arduinoLCD\test\Pain Drain\libraries\lvgl\src\core/lv_event.c ****     }
 399:..\..\..\arduinoLCD\test\Pain Drain\libraries\lvgl\src\core/lv_event.c **** }
 400:..\..\..\arduinoLCD\test\Pain Drain\libraries\lvgl\src\core/lv_event.c **** 
 401:..\..\..\arduinoLCD\test\Pain Drain\libraries\lvgl\src\core/lv_event.c **** void lv_event_set_cover_res(lv_event_t * e, lv_cover_res_t res)
 402:..\..\..\arduinoLCD\test\Pain Drain\libraries\lvgl\src\core/lv_event.c **** {
 403:..\..\..\arduinoLCD\test\Pain Drain\libraries\lvgl\src\core/lv_event.c ****     if(e->code == LV_EVENT_COVER_CHECK) {
 404:..\..\..\arduinoLCD\test\Pain Drain\libraries\lvgl\src\core/lv_event.c ****         lv_cover_check_info_t * p = lv_event_get_param(e);
 405:..\..\..\arduinoLCD\test\Pain Drain\libraries\lvgl\src\core/lv_event.c ****         if(res > p->res) p->res = res;  /*Save only "stronger" results*/
 406:..\..\..\arduinoLCD\test\Pain Drain\libraries\lvgl\src\core/lv_event.c ****     }
 407:..\..\..\arduinoLCD\test\Pain Drain\libraries\lvgl\src\core/lv_event.c ****     else {
 408:..\..\..\arduinoLCD\test\Pain Drain\libraries\lvgl\src\core/lv_event.c ****         LV_LOG_WARN("Not interpreted with this event code");
 409:..\..\..\arduinoLCD\test\Pain Drain\libraries\lvgl\src\core/lv_event.c ****     }
 410:..\..\..\arduinoLCD\test\Pain Drain\libraries\lvgl\src\core/lv_event.c **** }
 411:..\..\..\arduinoLCD\test\Pain Drain\libraries\lvgl\src\core/lv_event.c **** 
 412:..\..\..\arduinoLCD\test\Pain Drain\libraries\lvgl\src\core/lv_event.c **** /**********************
 413:..\..\..\arduinoLCD\test\Pain Drain\libraries\lvgl\src\core/lv_event.c ****  *   STATIC FUNCTIONS
 414:..\..\..\arduinoLCD\test\Pain Drain\libraries\lvgl\src\core/lv_event.c ****  **********************/
 415:..\..\..\arduinoLCD\test\Pain Drain\libraries\lvgl\src\core/lv_event.c **** 
 416:..\..\..\arduinoLCD\test\Pain Drain\libraries\lvgl\src\core/lv_event.c **** static lv_event_dsc_t * lv_obj_get_event_dsc(const lv_obj_t * obj, uint32_t id)
 417:..\..\..\arduinoLCD\test\Pain Drain\libraries\lvgl\src\core/lv_event.c **** {
  28              		.loc 1 417 0
  29              		.cfi_startproc
  30              		@ args = 0, pretend = 0, frame = 0
  31              		@ frame_needed = 0, uses_anonymous_args = 0
  32              		@ link register save eliminated.
  33              	.LVL0:
 418:..\..\..\arduinoLCD\test\Pain Drain\libraries\lvgl\src\core/lv_event.c ****     LV_ASSERT_OBJ(obj, MY_CLASS);
 419:..\..\..\arduinoLCD\test\Pain Drain\libraries\lvgl\src\core/lv_event.c **** 
 420:..\..\..\arduinoLCD\test\Pain Drain\libraries\lvgl\src\core/lv_event.c ****     if(!obj->spec_attr) return NULL;
  34              		.loc 1 420 0
  35 0000 8268     		ldr	r2, [r0, #8]
  36 0002 52B1     		cbz	r2, .L3
ARM GAS  C:\Users\haske\AppData\Local\Temp\ccnNTYZ7.s 			page 9


 421:..\..\..\arduinoLCD\test\Pain Drain\libraries\lvgl\src\core/lv_event.c ****     if(id >= obj->spec_attr->event_dsc_cnt) return NULL;
  37              		.loc 1 421 0
  38 0004 937E     		ldrb	r3, [r2, #26]	@ zero_extendqisi2
  39 0006 03F03F03 		and	r3, r3, #63
  40 000a 8B42     		cmp	r3, r1
  41 000c 07D9     		bls	.L4
 422:..\..\..\arduinoLCD\test\Pain Drain\libraries\lvgl\src\core/lv_event.c **** 
 423:..\..\..\arduinoLCD\test\Pain Drain\libraries\lvgl\src\core/lv_event.c ****     return &obj->spec_attr->event_dsc[id];
  42              		.loc 1 423 0
  43 000e D068     		ldr	r0, [r2, #12]
  44              	.LVL1:
  45 0010 01EB4101 		add	r1, r1, r1, lsl #1
  46              	.LVL2:
  47 0014 8B00     		lsls	r3, r1, #2
  48 0016 1844     		add	r0, r0, r3
  49 0018 7047     		bx	lr
  50              	.LVL3:
  51              	.L3:
 420:..\..\..\arduinoLCD\test\Pain Drain\libraries\lvgl\src\core/lv_event.c ****     if(id >= obj->spec_attr->event_dsc_cnt) return NULL;
  52              		.loc 1 420 0
  53 001a 0020     		movs	r0, #0
  54              	.LVL4:
  55 001c 7047     		bx	lr
  56              	.LVL5:
  57              	.L4:
 421:..\..\..\arduinoLCD\test\Pain Drain\libraries\lvgl\src\core/lv_event.c ****     if(id >= obj->spec_attr->event_dsc_cnt) return NULL;
  58              		.loc 1 421 0
  59 001e 0020     		movs	r0, #0
  60              	.LVL6:
 424:..\..\..\arduinoLCD\test\Pain Drain\libraries\lvgl\src\core/lv_event.c **** }
  61              		.loc 1 424 0
  62 0020 7047     		bx	lr
  63              		.cfi_endproc
  64              	.LFE186:
  65              		.size	lv_obj_get_event_dsc, .-lv_obj_get_event_dsc
  66 0022 00BF     		.section	.text.event_is_bubbled,"ax",%progbits
  67              		.align	2
  68              		.thumb
  69              		.thumb_func
  70              		.type	event_is_bubbled, %function
  71              	event_is_bubbled:
  72              	.LFB188:
 425:..\..\..\arduinoLCD\test\Pain Drain\libraries\lvgl\src\core/lv_event.c **** 
 426:..\..\..\arduinoLCD\test\Pain Drain\libraries\lvgl\src\core/lv_event.c **** static lv_res_t event_send_core(lv_event_t * e)
 427:..\..\..\arduinoLCD\test\Pain Drain\libraries\lvgl\src\core/lv_event.c **** {
 428:..\..\..\arduinoLCD\test\Pain Drain\libraries\lvgl\src\core/lv_event.c ****     EVENT_TRACE("Sending event %d to %p with %p param", e->code, (void *)e->current_target, e->para
 429:..\..\..\arduinoLCD\test\Pain Drain\libraries\lvgl\src\core/lv_event.c **** 
 430:..\..\..\arduinoLCD\test\Pain Drain\libraries\lvgl\src\core/lv_event.c ****     /*Call the input device's feedback callback if set*/
 431:..\..\..\arduinoLCD\test\Pain Drain\libraries\lvgl\src\core/lv_event.c ****     lv_indev_t * indev_act = lv_indev_get_act();
 432:..\..\..\arduinoLCD\test\Pain Drain\libraries\lvgl\src\core/lv_event.c ****     if(indev_act) {
 433:..\..\..\arduinoLCD\test\Pain Drain\libraries\lvgl\src\core/lv_event.c ****         if(indev_act->driver->feedback_cb) indev_act->driver->feedback_cb(indev_act->driver, e->cod
 434:..\..\..\arduinoLCD\test\Pain Drain\libraries\lvgl\src\core/lv_event.c ****         if(e->stop_processing) return LV_RES_OK;
 435:..\..\..\arduinoLCD\test\Pain Drain\libraries\lvgl\src\core/lv_event.c ****         if(e->deleted) return LV_RES_INV;
 436:..\..\..\arduinoLCD\test\Pain Drain\libraries\lvgl\src\core/lv_event.c ****     }
 437:..\..\..\arduinoLCD\test\Pain Drain\libraries\lvgl\src\core/lv_event.c **** 
 438:..\..\..\arduinoLCD\test\Pain Drain\libraries\lvgl\src\core/lv_event.c ****     lv_res_t res = LV_RES_OK;
 439:..\..\..\arduinoLCD\test\Pain Drain\libraries\lvgl\src\core/lv_event.c ****     lv_event_dsc_t * event_dsc = lv_obj_get_event_dsc(e->current_target, 0);
ARM GAS  C:\Users\haske\AppData\Local\Temp\ccnNTYZ7.s 			page 10


 440:..\..\..\arduinoLCD\test\Pain Drain\libraries\lvgl\src\core/lv_event.c **** 
 441:..\..\..\arduinoLCD\test\Pain Drain\libraries\lvgl\src\core/lv_event.c ****     uint32_t i = 0;
 442:..\..\..\arduinoLCD\test\Pain Drain\libraries\lvgl\src\core/lv_event.c ****     while(event_dsc && res == LV_RES_OK) {
 443:..\..\..\arduinoLCD\test\Pain Drain\libraries\lvgl\src\core/lv_event.c ****         if(event_dsc->cb  && ((event_dsc->filter & LV_EVENT_PREPROCESS) == LV_EVENT_PREPROCESS)
 444:..\..\..\arduinoLCD\test\Pain Drain\libraries\lvgl\src\core/lv_event.c ****            && (event_dsc->filter == (LV_EVENT_ALL | LV_EVENT_PREPROCESS) ||
 445:..\..\..\arduinoLCD\test\Pain Drain\libraries\lvgl\src\core/lv_event.c ****                (event_dsc->filter & ~LV_EVENT_PREPROCESS) == e->code)) {
 446:..\..\..\arduinoLCD\test\Pain Drain\libraries\lvgl\src\core/lv_event.c ****             e->user_data = event_dsc->user_data;
 447:..\..\..\arduinoLCD\test\Pain Drain\libraries\lvgl\src\core/lv_event.c ****             event_dsc->cb(e);
 448:..\..\..\arduinoLCD\test\Pain Drain\libraries\lvgl\src\core/lv_event.c **** 
 449:..\..\..\arduinoLCD\test\Pain Drain\libraries\lvgl\src\core/lv_event.c ****             if(e->stop_processing) return LV_RES_OK;
 450:..\..\..\arduinoLCD\test\Pain Drain\libraries\lvgl\src\core/lv_event.c ****             /*Stop if the object is deleted*/
 451:..\..\..\arduinoLCD\test\Pain Drain\libraries\lvgl\src\core/lv_event.c ****             if(e->deleted) return LV_RES_INV;
 452:..\..\..\arduinoLCD\test\Pain Drain\libraries\lvgl\src\core/lv_event.c ****         }
 453:..\..\..\arduinoLCD\test\Pain Drain\libraries\lvgl\src\core/lv_event.c **** 
 454:..\..\..\arduinoLCD\test\Pain Drain\libraries\lvgl\src\core/lv_event.c ****         i++;
 455:..\..\..\arduinoLCD\test\Pain Drain\libraries\lvgl\src\core/lv_event.c ****         event_dsc = lv_obj_get_event_dsc(e->current_target, i);
 456:..\..\..\arduinoLCD\test\Pain Drain\libraries\lvgl\src\core/lv_event.c ****     }
 457:..\..\..\arduinoLCD\test\Pain Drain\libraries\lvgl\src\core/lv_event.c **** 
 458:..\..\..\arduinoLCD\test\Pain Drain\libraries\lvgl\src\core/lv_event.c ****     res = lv_obj_event_base(NULL, e);
 459:..\..\..\arduinoLCD\test\Pain Drain\libraries\lvgl\src\core/lv_event.c **** 
 460:..\..\..\arduinoLCD\test\Pain Drain\libraries\lvgl\src\core/lv_event.c ****     event_dsc = res == LV_RES_INV ? NULL : lv_obj_get_event_dsc(e->current_target, 0);
 461:..\..\..\arduinoLCD\test\Pain Drain\libraries\lvgl\src\core/lv_event.c **** 
 462:..\..\..\arduinoLCD\test\Pain Drain\libraries\lvgl\src\core/lv_event.c ****     i = 0;
 463:..\..\..\arduinoLCD\test\Pain Drain\libraries\lvgl\src\core/lv_event.c ****     while(event_dsc && res == LV_RES_OK) {
 464:..\..\..\arduinoLCD\test\Pain Drain\libraries\lvgl\src\core/lv_event.c ****         if(event_dsc->cb && ((event_dsc->filter & LV_EVENT_PREPROCESS) == 0)
 465:..\..\..\arduinoLCD\test\Pain Drain\libraries\lvgl\src\core/lv_event.c ****            && (event_dsc->filter == LV_EVENT_ALL || event_dsc->filter == e->code)) {
 466:..\..\..\arduinoLCD\test\Pain Drain\libraries\lvgl\src\core/lv_event.c ****             e->user_data = event_dsc->user_data;
 467:..\..\..\arduinoLCD\test\Pain Drain\libraries\lvgl\src\core/lv_event.c ****             event_dsc->cb(e);
 468:..\..\..\arduinoLCD\test\Pain Drain\libraries\lvgl\src\core/lv_event.c **** 
 469:..\..\..\arduinoLCD\test\Pain Drain\libraries\lvgl\src\core/lv_event.c ****             if(e->stop_processing) return LV_RES_OK;
 470:..\..\..\arduinoLCD\test\Pain Drain\libraries\lvgl\src\core/lv_event.c ****             /*Stop if the object is deleted*/
 471:..\..\..\arduinoLCD\test\Pain Drain\libraries\lvgl\src\core/lv_event.c ****             if(e->deleted) return LV_RES_INV;
 472:..\..\..\arduinoLCD\test\Pain Drain\libraries\lvgl\src\core/lv_event.c ****         }
 473:..\..\..\arduinoLCD\test\Pain Drain\libraries\lvgl\src\core/lv_event.c **** 
 474:..\..\..\arduinoLCD\test\Pain Drain\libraries\lvgl\src\core/lv_event.c ****         i++;
 475:..\..\..\arduinoLCD\test\Pain Drain\libraries\lvgl\src\core/lv_event.c ****         event_dsc = lv_obj_get_event_dsc(e->current_target, i);
 476:..\..\..\arduinoLCD\test\Pain Drain\libraries\lvgl\src\core/lv_event.c ****     }
 477:..\..\..\arduinoLCD\test\Pain Drain\libraries\lvgl\src\core/lv_event.c **** 
 478:..\..\..\arduinoLCD\test\Pain Drain\libraries\lvgl\src\core/lv_event.c ****     if(res == LV_RES_OK && e->current_target->parent && event_is_bubbled(e)) {
 479:..\..\..\arduinoLCD\test\Pain Drain\libraries\lvgl\src\core/lv_event.c ****         e->current_target = e->current_target->parent;
 480:..\..\..\arduinoLCD\test\Pain Drain\libraries\lvgl\src\core/lv_event.c ****         res = event_send_core(e);
 481:..\..\..\arduinoLCD\test\Pain Drain\libraries\lvgl\src\core/lv_event.c ****         if(res != LV_RES_OK) return LV_RES_INV;
 482:..\..\..\arduinoLCD\test\Pain Drain\libraries\lvgl\src\core/lv_event.c ****     }
 483:..\..\..\arduinoLCD\test\Pain Drain\libraries\lvgl\src\core/lv_event.c **** 
 484:..\..\..\arduinoLCD\test\Pain Drain\libraries\lvgl\src\core/lv_event.c ****     return res;
 485:..\..\..\arduinoLCD\test\Pain Drain\libraries\lvgl\src\core/lv_event.c **** }
 486:..\..\..\arduinoLCD\test\Pain Drain\libraries\lvgl\src\core/lv_event.c **** 
 487:..\..\..\arduinoLCD\test\Pain Drain\libraries\lvgl\src\core/lv_event.c **** static bool event_is_bubbled(lv_event_t * e)
 488:..\..\..\arduinoLCD\test\Pain Drain\libraries\lvgl\src\core/lv_event.c **** {
  73              		.loc 1 488 0
  74              		.cfi_startproc
  75              		@ args = 0, pretend = 0, frame = 0
  76              		@ frame_needed = 0, uses_anonymous_args = 0
  77              	.LVL7:
 489:..\..\..\arduinoLCD\test\Pain Drain\libraries\lvgl\src\core/lv_event.c ****     if(e->stop_bubbling) return false;
  78              		.loc 1 489 0
  79 0000 037E     		ldrb	r3, [r0, #24]	@ zero_extendqisi2
ARM GAS  C:\Users\haske\AppData\Local\Temp\ccnNTYZ7.s 			page 11


  80 0002 13F0040F 		tst	r3, #4
  81 0006 22D1     		bne	.L10
 490:..\..\..\arduinoLCD\test\Pain Drain\libraries\lvgl\src\core/lv_event.c **** 
 491:..\..\..\arduinoLCD\test\Pain Drain\libraries\lvgl\src\core/lv_event.c ****     /*Event codes that always bubble*/
 492:..\..\..\arduinoLCD\test\Pain Drain\libraries\lvgl\src\core/lv_event.c ****     switch(e->code) {
  82              		.loc 1 492 0
  83 0008 037A     		ldrb	r3, [r0, #8]	@ zero_extendqisi2
  84 000a 233B     		subs	r3, r3, #35
  85 000c 012B     		cmp	r3, #1
  86 000e 20D9     		bls	.L12
 488:..\..\..\arduinoLCD\test\Pain Drain\libraries\lvgl\src\core/lv_event.c ****     if(e->stop_bubbling) return false;
  87              		.loc 1 488 0
  88 0010 10B5     		push	{r4, lr}
  89              		.cfi_def_cfa_offset 8
  90              		.cfi_offset 4, -8
  91              		.cfi_offset 14, -4
  92 0012 0446     		mov	r4, r0
 493:..\..\..\arduinoLCD\test\Pain Drain\libraries\lvgl\src\core/lv_event.c ****         case LV_EVENT_CHILD_CREATED:
 494:..\..\..\arduinoLCD\test\Pain Drain\libraries\lvgl\src\core/lv_event.c ****         case LV_EVENT_CHILD_DELETED:
 495:..\..\..\arduinoLCD\test\Pain Drain\libraries\lvgl\src\core/lv_event.c ****             return true;
 496:..\..\..\arduinoLCD\test\Pain Drain\libraries\lvgl\src\core/lv_event.c ****         default:
 497:..\..\..\arduinoLCD\test\Pain Drain\libraries\lvgl\src\core/lv_event.c ****             break;
 498:..\..\..\arduinoLCD\test\Pain Drain\libraries\lvgl\src\core/lv_event.c ****     }
 499:..\..\..\arduinoLCD\test\Pain Drain\libraries\lvgl\src\core/lv_event.c **** 
 500:..\..\..\arduinoLCD\test\Pain Drain\libraries\lvgl\src\core/lv_event.c ****     /*Check other codes only if bubbling is enabled*/
 501:..\..\..\arduinoLCD\test\Pain Drain\libraries\lvgl\src\core/lv_event.c ****     if(lv_obj_has_flag(e->current_target, LV_OBJ_FLAG_EVENT_BUBBLE) == false) return false;
  93              		.loc 1 501 0
  94 0014 4FF48041 		mov	r1, #16384
  95 0018 4068     		ldr	r0, [r0, #4]
  96              	.LVL8:
  97 001a FFF7FEFF 		bl	lv_obj_has_flag
  98              	.LVL9:
  99 001e 0346     		mov	r3, r0
 100 0020 D0B1     		cbz	r0, .L6
 502:..\..\..\arduinoLCD\test\Pain Drain\libraries\lvgl\src\core/lv_event.c **** 
 503:..\..\..\arduinoLCD\test\Pain Drain\libraries\lvgl\src\core/lv_event.c ****     switch(e->code) {
 101              		.loc 1 503 0
 102 0022 227A     		ldrb	r2, [r4, #8]	@ zero_extendqisi2
 103 0024 113A     		subs	r2, r2, #17
 104 0026 1B2A     		cmp	r2, #27
 105 0028 16D8     		bhi	.L6
 106 002a DFE802F0 		tbb	[pc, r2]
 107              	.L9:
 108 002e 0E       		.byte	(.L8-.L9)/2
 109 002f 0E       		.byte	(.L8-.L9)/2
 110 0030 0E       		.byte	(.L8-.L9)/2
 111 0031 0E       		.byte	(.L8-.L9)/2
 112 0032 0E       		.byte	(.L8-.L9)/2
 113 0033 0E       		.byte	(.L8-.L9)/2
 114 0034 0E       		.byte	(.L8-.L9)/2
 115 0035 0E       		.byte	(.L8-.L9)/2
 116 0036 0E       		.byte	(.L8-.L9)/2
 117 0037 0E       		.byte	(.L8-.L9)/2
 118 0038 0E       		.byte	(.L8-.L9)/2
 119 0039 15       		.byte	(.L6-.L9)/2
 120 003a 15       		.byte	(.L6-.L9)/2
 121 003b 0E       		.byte	(.L8-.L9)/2
ARM GAS  C:\Users\haske\AppData\Local\Temp\ccnNTYZ7.s 			page 12


 122 003c 15       		.byte	(.L6-.L9)/2
 123 003d 15       		.byte	(.L6-.L9)/2
 124 003e 0E       		.byte	(.L8-.L9)/2
 125 003f 0E       		.byte	(.L8-.L9)/2
 126 0040 0E       		.byte	(.L8-.L9)/2
 127 0041 0E       		.byte	(.L8-.L9)/2
 128 0042 15       		.byte	(.L6-.L9)/2
 129 0043 15       		.byte	(.L6-.L9)/2
 130 0044 15       		.byte	(.L6-.L9)/2
 131 0045 15       		.byte	(.L6-.L9)/2
 132 0046 0E       		.byte	(.L8-.L9)/2
 133 0047 0E       		.byte	(.L8-.L9)/2
 134 0048 15       		.byte	(.L6-.L9)/2
 135 0049 0E       		.byte	(.L8-.L9)/2
 136              		.p2align 1
 137              	.L8:
 504:..\..\..\arduinoLCD\test\Pain Drain\libraries\lvgl\src\core/lv_event.c ****         case LV_EVENT_HIT_TEST:
 505:..\..\..\arduinoLCD\test\Pain Drain\libraries\lvgl\src\core/lv_event.c ****         case LV_EVENT_COVER_CHECK:
 506:..\..\..\arduinoLCD\test\Pain Drain\libraries\lvgl\src\core/lv_event.c ****         case LV_EVENT_REFR_EXT_DRAW_SIZE:
 507:..\..\..\arduinoLCD\test\Pain Drain\libraries\lvgl\src\core/lv_event.c ****         case LV_EVENT_DRAW_MAIN_BEGIN:
 508:..\..\..\arduinoLCD\test\Pain Drain\libraries\lvgl\src\core/lv_event.c ****         case LV_EVENT_DRAW_MAIN:
 509:..\..\..\arduinoLCD\test\Pain Drain\libraries\lvgl\src\core/lv_event.c ****         case LV_EVENT_DRAW_MAIN_END:
 510:..\..\..\arduinoLCD\test\Pain Drain\libraries\lvgl\src\core/lv_event.c ****         case LV_EVENT_DRAW_POST_BEGIN:
 511:..\..\..\arduinoLCD\test\Pain Drain\libraries\lvgl\src\core/lv_event.c ****         case LV_EVENT_DRAW_POST:
 512:..\..\..\arduinoLCD\test\Pain Drain\libraries\lvgl\src\core/lv_event.c ****         case LV_EVENT_DRAW_POST_END:
 513:..\..\..\arduinoLCD\test\Pain Drain\libraries\lvgl\src\core/lv_event.c ****         case LV_EVENT_DRAW_PART_BEGIN:
 514:..\..\..\arduinoLCD\test\Pain Drain\libraries\lvgl\src\core/lv_event.c ****         case LV_EVENT_DRAW_PART_END:
 515:..\..\..\arduinoLCD\test\Pain Drain\libraries\lvgl\src\core/lv_event.c ****         case LV_EVENT_REFRESH:
 516:..\..\..\arduinoLCD\test\Pain Drain\libraries\lvgl\src\core/lv_event.c ****         case LV_EVENT_DELETE:
 517:..\..\..\arduinoLCD\test\Pain Drain\libraries\lvgl\src\core/lv_event.c ****         case LV_EVENT_CHILD_CREATED:
 518:..\..\..\arduinoLCD\test\Pain Drain\libraries\lvgl\src\core/lv_event.c ****         case LV_EVENT_CHILD_DELETED:
 519:..\..\..\arduinoLCD\test\Pain Drain\libraries\lvgl\src\core/lv_event.c ****         case LV_EVENT_CHILD_CHANGED:
 520:..\..\..\arduinoLCD\test\Pain Drain\libraries\lvgl\src\core/lv_event.c ****         case LV_EVENT_SIZE_CHANGED:
 521:..\..\..\arduinoLCD\test\Pain Drain\libraries\lvgl\src\core/lv_event.c ****         case LV_EVENT_STYLE_CHANGED:
 522:..\..\..\arduinoLCD\test\Pain Drain\libraries\lvgl\src\core/lv_event.c ****         case LV_EVENT_GET_SELF_SIZE:
 523:..\..\..\arduinoLCD\test\Pain Drain\libraries\lvgl\src\core/lv_event.c ****             return false;
 138              		.loc 1 523 0
 139 004a 0023     		movs	r3, #0
 140 004c 04E0     		b	.L6
 141              	.LVL10:
 142              	.L10:
 143              		.cfi_def_cfa_offset 0
 144              		.cfi_restore 4
 145              		.cfi_restore 14
 489:..\..\..\arduinoLCD\test\Pain Drain\libraries\lvgl\src\core/lv_event.c **** 
 146              		.loc 1 489 0
 147 004e 0023     		movs	r3, #0
 148 0050 00E0     		b	.L14
 149              	.L12:
 495:..\..\..\arduinoLCD\test\Pain Drain\libraries\lvgl\src\core/lv_event.c ****         default:
 150              		.loc 1 495 0
 151 0052 0123     		movs	r3, #1
 152              	.L14:
 524:..\..\..\arduinoLCD\test\Pain Drain\libraries\lvgl\src\core/lv_event.c ****         default:
 525:..\..\..\arduinoLCD\test\Pain Drain\libraries\lvgl\src\core/lv_event.c ****             return true;
 526:..\..\..\arduinoLCD\test\Pain Drain\libraries\lvgl\src\core/lv_event.c ****     }
 527:..\..\..\arduinoLCD\test\Pain Drain\libraries\lvgl\src\core/lv_event.c **** }
ARM GAS  C:\Users\haske\AppData\Local\Temp\ccnNTYZ7.s 			page 13


 153              		.loc 1 527 0
 154 0054 1846     		mov	r0, r3
 155              	.LVL11:
 156 0056 7047     		bx	lr
 157              	.LVL12:
 158              	.L6:
 159              		.cfi_def_cfa_offset 8
 160              		.cfi_offset 4, -8
 161              		.cfi_offset 14, -4
 162 0058 1846     		mov	r0, r3
 163 005a 10BD     		pop	{r4, pc}
 164              		.cfi_endproc
 165              	.LFE188:
 166              		.size	event_is_bubbled, .-event_is_bubbled
 167              		.section	.text.lv_obj_event_base,"ax",%progbits
 168              		.align	2
 169              		.global	lv_obj_event_base
 170              		.thumb
 171              		.thumb_func
 172              		.type	lv_obj_event_base, %function
 173              	lv_obj_event_base:
 174              	.LFB160:
  85:..\..\..\arduinoLCD\test\Pain Drain\libraries\lvgl\src\core/lv_event.c ****     const lv_obj_class_t * base;
 175              		.loc 1 85 0
 176              		.cfi_startproc
 177              		@ args = 0, pretend = 0, frame = 0
 178              		@ frame_needed = 0, uses_anonymous_args = 0
 179              	.LVL13:
  87:..\..\..\arduinoLCD\test\Pain Drain\libraries\lvgl\src\core/lv_event.c ****     else base = class_p->base_class;
 180              		.loc 1 87 0
 181 0000 10B9     		cbnz	r0, .L16
  87:..\..\..\arduinoLCD\test\Pain Drain\libraries\lvgl\src\core/lv_event.c ****     else base = class_p->base_class;
 182              		.loc 1 87 0 is_stmt 0 discriminator 1
 183 0002 4B68     		ldr	r3, [r1, #4]
 184 0004 1868     		ldr	r0, [r3]
 185              	.LVL14:
 186 0006 02E0     		b	.L17
 187              	.LVL15:
 188              	.L16:
  88:..\..\..\arduinoLCD\test\Pain Drain\libraries\lvgl\src\core/lv_event.c **** 
 189              		.loc 1 88 0 is_stmt 1
 190 0008 0068     		ldr	r0, [r0]
 191              	.LVL16:
 192 000a 00E0     		b	.L17
 193              	.L20:
  91:..\..\..\arduinoLCD\test\Pain Drain\libraries\lvgl\src\core/lv_event.c **** 
 194              		.loc 1 91 0 discriminator 3
 195 000c 0068     		ldr	r0, [r0]
 196              	.LVL17:
 197              	.L17:
  91:..\..\..\arduinoLCD\test\Pain Drain\libraries\lvgl\src\core/lv_event.c **** 
 198              		.loc 1 91 0 is_stmt 0 discriminator 1
 199 000e 10B1     		cbz	r0, .L19
  91:..\..\..\arduinoLCD\test\Pain Drain\libraries\lvgl\src\core/lv_event.c **** 
 200              		.loc 1 91 0 discriminator 2
 201 0010 0369     		ldr	r3, [r0, #16]
 202 0012 002B     		cmp	r3, #0
ARM GAS  C:\Users\haske\AppData\Local\Temp\ccnNTYZ7.s 			page 14


 203 0014 FAD0     		beq	.L20
 204              	.L19:
  93:..\..\..\arduinoLCD\test\Pain Drain\libraries\lvgl\src\core/lv_event.c ****     if(base->event_cb == NULL) return LV_RES_OK;
 205              		.loc 1 93 0 is_stmt 1
 206 0016 68B1     		cbz	r0, .L22
  94:..\..\..\arduinoLCD\test\Pain Drain\libraries\lvgl\src\core/lv_event.c **** 
 207              		.loc 1 94 0
 208 0018 0369     		ldr	r3, [r0, #16]
 209 001a 6BB1     		cbz	r3, .L23
  85:..\..\..\arduinoLCD\test\Pain Drain\libraries\lvgl\src\core/lv_event.c ****     const lv_obj_class_t * base;
 210              		.loc 1 85 0
 211 001c 10B5     		push	{r4, lr}
 212              		.cfi_def_cfa_offset 8
 213              		.cfi_offset 4, -8
 214              		.cfi_offset 14, -4
 215 001e 0C46     		mov	r4, r1
  97:..\..\..\arduinoLCD\test\Pain Drain\libraries\lvgl\src\core/lv_event.c ****     base->event_cb(base, e);
 216              		.loc 1 97 0
 217 0020 0023     		movs	r3, #0
 218 0022 CB60     		str	r3, [r1, #12]
  98:..\..\..\arduinoLCD\test\Pain Drain\libraries\lvgl\src\core/lv_event.c **** 
 219              		.loc 1 98 0
 220 0024 0369     		ldr	r3, [r0, #16]
 221 0026 9847     		blx	r3
 222              	.LVL18:
 102:..\..\..\arduinoLCD\test\Pain Drain\libraries\lvgl\src\core/lv_event.c **** 
 223              		.loc 1 102 0
 224 0028 237E     		ldrb	r3, [r4, #24]	@ zero_extendqisi2
 225 002a 13F0010F 		tst	r3, #1
 226 002e 05D1     		bne	.L24
 100:..\..\..\arduinoLCD\test\Pain Drain\libraries\lvgl\src\core/lv_event.c ****     /*Stop if the object is deleted*/
 227              		.loc 1 100 0
 228 0030 0120     		movs	r0, #1
 229 0032 10BD     		pop	{r4, pc}
 230              	.LVL19:
 231              	.L22:
 232              		.cfi_def_cfa_offset 0
 233              		.cfi_restore 4
 234              		.cfi_restore 14
  93:..\..\..\arduinoLCD\test\Pain Drain\libraries\lvgl\src\core/lv_event.c ****     if(base->event_cb == NULL) return LV_RES_OK;
 235              		.loc 1 93 0
 236 0034 0120     		movs	r0, #1
 237              	.LVL20:
 105:..\..\..\arduinoLCD\test\Pain Drain\libraries\lvgl\src\core/lv_event.c **** 
 238              		.loc 1 105 0
 239 0036 7047     		bx	lr
 240              	.LVL21:
 241              	.L23:
  94:..\..\..\arduinoLCD\test\Pain Drain\libraries\lvgl\src\core/lv_event.c **** 
 242              		.loc 1 94 0
 243 0038 0120     		movs	r0, #1
 244              	.LVL22:
 245 003a 7047     		bx	lr
 246              	.LVL23:
 247              	.L24:
 248              		.cfi_def_cfa_offset 8
 249              		.cfi_offset 4, -8
ARM GAS  C:\Users\haske\AppData\Local\Temp\ccnNTYZ7.s 			page 15


 250              		.cfi_offset 14, -4
 102:..\..\..\arduinoLCD\test\Pain Drain\libraries\lvgl\src\core/lv_event.c **** 
 251              		.loc 1 102 0
 252 003c 0020     		movs	r0, #0
 105:..\..\..\arduinoLCD\test\Pain Drain\libraries\lvgl\src\core/lv_event.c **** 
 253              		.loc 1 105 0
 254 003e 10BD     		pop	{r4, pc}
 255              		.cfi_endproc
 256              	.LFE160:
 257              		.size	lv_obj_event_base, .-lv_obj_event_base
 258              		.section	.text.event_send_core,"ax",%progbits
 259              		.align	2
 260              		.thumb
 261              		.thumb_func
 262              		.type	event_send_core, %function
 263              	event_send_core:
 264              	.LFB187:
 427:..\..\..\arduinoLCD\test\Pain Drain\libraries\lvgl\src\core/lv_event.c ****     EVENT_TRACE("Sending event %d to %p with %p param", e->code, (void *)e->current_target, e->para
 265              		.loc 1 427 0
 266              		.cfi_startproc
 267              		@ args = 0, pretend = 0, frame = 0
 268              		@ frame_needed = 0, uses_anonymous_args = 0
 269              	.LVL24:
 270 0000 F8B5     		push	{r3, r4, r5, r6, r7, lr}
 271              		.cfi_def_cfa_offset 24
 272              		.cfi_offset 3, -24
 273              		.cfi_offset 4, -20
 274              		.cfi_offset 5, -16
 275              		.cfi_offset 6, -12
 276              		.cfi_offset 7, -8
 277              		.cfi_offset 14, -4
 278 0002 0646     		mov	r6, r0
 431:..\..\..\arduinoLCD\test\Pain Drain\libraries\lvgl\src\core/lv_event.c ****     if(indev_act) {
 279              		.loc 1 431 0
 280 0004 FFF7FEFF 		bl	lv_indev_get_act
 281              	.LVL25:
 432:..\..\..\arduinoLCD\test\Pain Drain\libraries\lvgl\src\core/lv_event.c ****         if(indev_act->driver->feedback_cb) indev_act->driver->feedback_cb(indev_act->driver, e->cod
 282              		.loc 1 432 0
 283 0008 70B1     		cbz	r0, .L28
 433:..\..\..\arduinoLCD\test\Pain Drain\libraries\lvgl\src\core/lv_event.c ****         if(e->stop_processing) return LV_RES_OK;
 284              		.loc 1 433 0
 285 000a 0068     		ldr	r0, [r0]
 286              	.LVL26:
 287 000c 8368     		ldr	r3, [r0, #8]
 288 000e 0BB1     		cbz	r3, .L29
 433:..\..\..\arduinoLCD\test\Pain Drain\libraries\lvgl\src\core/lv_event.c ****         if(e->stop_processing) return LV_RES_OK;
 289              		.loc 1 433 0 is_stmt 0 discriminator 1
 290 0010 317A     		ldrb	r1, [r6, #8]	@ zero_extendqisi2
 291 0012 9847     		blx	r3
 292              	.LVL27:
 293              	.L29:
 434:..\..\..\arduinoLCD\test\Pain Drain\libraries\lvgl\src\core/lv_event.c ****         if(e->deleted) return LV_RES_INV;
 294              		.loc 1 434 0 is_stmt 1
 295 0014 327E     		ldrb	r2, [r6, #24]	@ zero_extendqisi2
 296 0016 02F00203 		and	r3, r2, #2
 297 001a 03F0FF00 		and	r0, r3, #255
 298 001e 002B     		cmp	r3, #0
ARM GAS  C:\Users\haske\AppData\Local\Temp\ccnNTYZ7.s 			page 16


 299 0020 6ED1     		bne	.L41
 435:..\..\..\arduinoLCD\test\Pain Drain\libraries\lvgl\src\core/lv_event.c ****     }
 300              		.loc 1 435 0
 301 0022 12F0010F 		tst	r2, #1
 302 0026 76D1     		bne	.L30
 303              	.L28:
 304              	.LVL28:
 439:..\..\..\arduinoLCD\test\Pain Drain\libraries\lvgl\src\core/lv_event.c **** 
 305              		.loc 1 439 0
 306 0028 0021     		movs	r1, #0
 307 002a 7068     		ldr	r0, [r6, #4]
 308 002c FFF7FEFF 		bl	lv_obj_get_event_dsc
 309              	.LVL29:
 310 0030 0446     		mov	r4, r0
 311              	.LVL30:
 441:..\..\..\arduinoLCD\test\Pain Drain\libraries\lvgl\src\core/lv_event.c ****     while(event_dsc && res == LV_RES_OK) {
 312              		.loc 1 441 0
 313 0032 0025     		movs	r5, #0
 442:..\..\..\arduinoLCD\test\Pain Drain\libraries\lvgl\src\core/lv_event.c ****         if(event_dsc->cb  && ((event_dsc->filter & LV_EVENT_PREPROCESS) == LV_EVENT_PREPROCESS)
 314              		.loc 1 442 0
 315 0034 21E0     		b	.L31
 316              	.LVL31:
 317              	.L34:
 443:..\..\..\arduinoLCD\test\Pain Drain\libraries\lvgl\src\core/lv_event.c ****            && (event_dsc->filter == (LV_EVENT_ALL | LV_EVENT_PREPROCESS) ||
 318              		.loc 1 443 0
 319 0036 2368     		ldr	r3, [r4]
 320 0038 CBB1     		cbz	r3, .L32
 443:..\..\..\arduinoLCD\test\Pain Drain\libraries\lvgl\src\core/lv_event.c ****            && (event_dsc->filter == (LV_EVENT_ALL | LV_EVENT_PREPROCESS) ||
 321              		.loc 1 443 0 is_stmt 0 discriminator 1
 322 003a 237A     		ldrb	r3, [r4, #8]	@ zero_extendqisi2
 323 003c 13F0800F 		tst	r3, #128
 324 0040 15D0     		beq	.L32
 444:..\..\..\arduinoLCD\test\Pain Drain\libraries\lvgl\src\core/lv_event.c ****                (event_dsc->filter & ~LV_EVENT_PREPROCESS) == e->code)) {
 325              		.loc 1 444 0 is_stmt 1
 326 0042 802B     		cmp	r3, #128
 327 0044 04D0     		beq	.L33
 445:..\..\..\arduinoLCD\test\Pain Drain\libraries\lvgl\src\core/lv_event.c ****             e->user_data = event_dsc->user_data;
 328              		.loc 1 445 0 discriminator 1
 329 0046 23F08003 		bic	r3, r3, #128
 330 004a 327A     		ldrb	r2, [r6, #8]	@ zero_extendqisi2
 444:..\..\..\arduinoLCD\test\Pain Drain\libraries\lvgl\src\core/lv_event.c ****                (event_dsc->filter & ~LV_EVENT_PREPROCESS) == e->code)) {
 331              		.loc 1 444 0 discriminator 1
 332 004c 9342     		cmp	r3, r2
 333 004e 0ED1     		bne	.L32
 334              	.L33:
 446:..\..\..\arduinoLCD\test\Pain Drain\libraries\lvgl\src\core/lv_event.c ****             event_dsc->cb(e);
 335              		.loc 1 446 0
 336 0050 6368     		ldr	r3, [r4, #4]
 337 0052 F360     		str	r3, [r6, #12]
 447:..\..\..\arduinoLCD\test\Pain Drain\libraries\lvgl\src\core/lv_event.c **** 
 338              		.loc 1 447 0
 339 0054 2368     		ldr	r3, [r4]
 340 0056 3046     		mov	r0, r6
 341              	.LVL32:
 342 0058 9847     		blx	r3
 343              	.LVL33:
 449:..\..\..\arduinoLCD\test\Pain Drain\libraries\lvgl\src\core/lv_event.c ****             /*Stop if the object is deleted*/
ARM GAS  C:\Users\haske\AppData\Local\Temp\ccnNTYZ7.s 			page 17


 344              		.loc 1 449 0
 345 005a 327E     		ldrb	r2, [r6, #24]	@ zero_extendqisi2
 346 005c 02F00203 		and	r3, r2, #2
 347 0060 03F0FF00 		and	r0, r3, #255
 348 0064 002B     		cmp	r3, #0
 349 0066 4DD1     		bne	.L42
 451:..\..\..\arduinoLCD\test\Pain Drain\libraries\lvgl\src\core/lv_event.c ****         }
 350              		.loc 1 451 0
 351 0068 12F0010F 		tst	r2, #1
 352 006c 53D1     		bne	.L30
 353              	.L32:
 454:..\..\..\arduinoLCD\test\Pain Drain\libraries\lvgl\src\core/lv_event.c ****         event_dsc = lv_obj_get_event_dsc(e->current_target, i);
 354              		.loc 1 454 0
 355 006e 0135     		adds	r5, r5, #1
 356              	.LVL34:
 455:..\..\..\arduinoLCD\test\Pain Drain\libraries\lvgl\src\core/lv_event.c ****     }
 357              		.loc 1 455 0
 358 0070 2946     		mov	r1, r5
 359 0072 7068     		ldr	r0, [r6, #4]
 360 0074 FFF7FEFF 		bl	lv_obj_get_event_dsc
 361              	.LVL35:
 362 0078 0446     		mov	r4, r0
 363              	.LVL36:
 364              	.L31:
 442:..\..\..\arduinoLCD\test\Pain Drain\libraries\lvgl\src\core/lv_event.c ****         if(event_dsc->cb  && ((event_dsc->filter & LV_EVENT_PREPROCESS) == LV_EVENT_PREPROCESS)
 365              		.loc 1 442 0
 366 007a 002C     		cmp	r4, #0
 367 007c DBD1     		bne	.L34
 458:..\..\..\arduinoLCD\test\Pain Drain\libraries\lvgl\src\core/lv_event.c **** 
 368              		.loc 1 458 0
 369 007e 3146     		mov	r1, r6
 370 0080 0020     		movs	r0, #0
 371              	.LVL37:
 372 0082 FFF7FEFF 		bl	lv_obj_event_base
 373              	.LVL38:
 460:..\..\..\arduinoLCD\test\Pain Drain\libraries\lvgl\src\core/lv_event.c **** 
 374              		.loc 1 460 0
 375 0086 0746     		mov	r7, r0
 376 0088 20B1     		cbz	r0, .L35
 460:..\..\..\arduinoLCD\test\Pain Drain\libraries\lvgl\src\core/lv_event.c **** 
 377              		.loc 1 460 0 is_stmt 0 discriminator 1
 378 008a 0021     		movs	r1, #0
 379 008c 7068     		ldr	r0, [r6, #4]
 380              	.LVL39:
 381 008e FFF7FEFF 		bl	lv_obj_get_event_dsc
 382              	.LVL40:
 383 0092 0446     		mov	r4, r0
 384              	.LVL41:
 385              	.L35:
 441:..\..\..\arduinoLCD\test\Pain Drain\libraries\lvgl\src\core/lv_event.c ****     while(event_dsc && res == LV_RES_OK) {
 386              		.loc 1 441 0 is_stmt 1
 387 0094 0025     		movs	r5, #0
 388              	.LVL42:
 389 0096 1DE0     		b	.L36
 390              	.LVL43:
 391              	.L40:
 464:..\..\..\arduinoLCD\test\Pain Drain\libraries\lvgl\src\core/lv_event.c ****            && (event_dsc->filter == LV_EVENT_ALL || event_dsc->filter == e->code)) {
ARM GAS  C:\Users\haske\AppData\Local\Temp\ccnNTYZ7.s 			page 18


 392              		.loc 1 464 0
 393 0098 2368     		ldr	r3, [r4]
 394 009a ABB1     		cbz	r3, .L37
 464:..\..\..\arduinoLCD\test\Pain Drain\libraries\lvgl\src\core/lv_event.c ****            && (event_dsc->filter == LV_EVENT_ALL || event_dsc->filter == e->code)) {
 395              		.loc 1 464 0 is_stmt 0 discriminator 1
 396 009c 237A     		ldrb	r3, [r4, #8]	@ zero_extendqisi2
 397 009e 13F0800F 		tst	r3, #128
 398 00a2 11D1     		bne	.L37
 465:..\..\..\arduinoLCD\test\Pain Drain\libraries\lvgl\src\core/lv_event.c ****             e->user_data = event_dsc->user_data;
 399              		.loc 1 465 0 is_stmt 1
 400 00a4 13B1     		cbz	r3, .L38
 465:..\..\..\arduinoLCD\test\Pain Drain\libraries\lvgl\src\core/lv_event.c ****             e->user_data = event_dsc->user_data;
 401              		.loc 1 465 0 is_stmt 0 discriminator 1
 402 00a6 327A     		ldrb	r2, [r6, #8]	@ zero_extendqisi2
 403 00a8 9342     		cmp	r3, r2
 404 00aa 0DD1     		bne	.L37
 405              	.L38:
 466:..\..\..\arduinoLCD\test\Pain Drain\libraries\lvgl\src\core/lv_event.c ****             event_dsc->cb(e);
 406              		.loc 1 466 0 is_stmt 1
 407 00ac 6368     		ldr	r3, [r4, #4]
 408 00ae F360     		str	r3, [r6, #12]
 467:..\..\..\arduinoLCD\test\Pain Drain\libraries\lvgl\src\core/lv_event.c **** 
 409              		.loc 1 467 0
 410 00b0 2368     		ldr	r3, [r4]
 411 00b2 3046     		mov	r0, r6
 412 00b4 9847     		blx	r3
 413              	.LVL44:
 469:..\..\..\arduinoLCD\test\Pain Drain\libraries\lvgl\src\core/lv_event.c ****             /*Stop if the object is deleted*/
 414              		.loc 1 469 0
 415 00b6 327E     		ldrb	r2, [r6, #24]	@ zero_extendqisi2
 416 00b8 02F00203 		and	r3, r2, #2
 417 00bc 03F0FF00 		and	r0, r3, #255
 418 00c0 13BB     		cbnz	r3, .L43
 471:..\..\..\arduinoLCD\test\Pain Drain\libraries\lvgl\src\core/lv_event.c ****         }
 419              		.loc 1 471 0
 420 00c2 12F0010F 		tst	r2, #1
 421 00c6 26D1     		bne	.L30
 422              	.L37:
 474:..\..\..\arduinoLCD\test\Pain Drain\libraries\lvgl\src\core/lv_event.c ****         event_dsc = lv_obj_get_event_dsc(e->current_target, i);
 423              		.loc 1 474 0
 424 00c8 0135     		adds	r5, r5, #1
 425              	.LVL45:
 475:..\..\..\arduinoLCD\test\Pain Drain\libraries\lvgl\src\core/lv_event.c ****     }
 426              		.loc 1 475 0
 427 00ca 2946     		mov	r1, r5
 428 00cc 7068     		ldr	r0, [r6, #4]
 429 00ce FFF7FEFF 		bl	lv_obj_get_event_dsc
 430              	.LVL46:
 431 00d2 0446     		mov	r4, r0
 432              	.LVL47:
 433              	.L36:
 463:..\..\..\arduinoLCD\test\Pain Drain\libraries\lvgl\src\core/lv_event.c ****         if(event_dsc->cb && ((event_dsc->filter & LV_EVENT_PREPROCESS) == 0)
 434              		.loc 1 463 0
 435 00d4 0CB1     		cbz	r4, .L39
 463:..\..\..\arduinoLCD\test\Pain Drain\libraries\lvgl\src\core/lv_event.c ****         if(event_dsc->cb && ((event_dsc->filter & LV_EVENT_PREPROCESS) == 0)
 436              		.loc 1 463 0 is_stmt 0 discriminator 1
 437 00d6 012F     		cmp	r7, #1
ARM GAS  C:\Users\haske\AppData\Local\Temp\ccnNTYZ7.s 			page 19


 438 00d8 DED0     		beq	.L40
 439              	.L39:
 478:..\..\..\arduinoLCD\test\Pain Drain\libraries\lvgl\src\core/lv_event.c ****         e->current_target = e->current_target->parent;
 440              		.loc 1 478 0 is_stmt 1
 441 00da 012F     		cmp	r7, #1
 442 00dc 16D1     		bne	.L44
 478:..\..\..\arduinoLCD\test\Pain Drain\libraries\lvgl\src\core/lv_event.c ****         e->current_target = e->current_target->parent;
 443              		.loc 1 478 0 is_stmt 0 discriminator 1
 444 00de 7368     		ldr	r3, [r6, #4]
 445 00e0 5B68     		ldr	r3, [r3, #4]
 446 00e2 ABB1     		cbz	r3, .L45
 478:..\..\..\arduinoLCD\test\Pain Drain\libraries\lvgl\src\core/lv_event.c ****         e->current_target = e->current_target->parent;
 447              		.loc 1 478 0 discriminator 2
 448 00e4 3046     		mov	r0, r6
 449 00e6 FFF7FEFF 		bl	event_is_bubbled
 450              	.LVL48:
 451 00ea 98B1     		cbz	r0, .L46
 479:..\..\..\arduinoLCD\test\Pain Drain\libraries\lvgl\src\core/lv_event.c ****         res = event_send_core(e);
 452              		.loc 1 479 0 is_stmt 1
 453 00ec 7368     		ldr	r3, [r6, #4]
 454 00ee 5B68     		ldr	r3, [r3, #4]
 455 00f0 7360     		str	r3, [r6, #4]
 480:..\..\..\arduinoLCD\test\Pain Drain\libraries\lvgl\src\core/lv_event.c ****         if(res != LV_RES_OK) return LV_RES_INV;
 456              		.loc 1 480 0
 457 00f2 3046     		mov	r0, r6
 458 00f4 FFF784FF 		bl	event_send_core
 459              	.LVL49:
 481:..\..\..\arduinoLCD\test\Pain Drain\libraries\lvgl\src\core/lv_event.c ****     }
 460              		.loc 1 481 0
 461 00f8 0128     		cmp	r0, #1
 462 00fa 0CD0     		beq	.L30
 463 00fc 0020     		movs	r0, #0
 464              	.LVL50:
 465 00fe F8BD     		pop	{r3, r4, r5, r6, r7, pc}
 466              	.LVL51:
 467              	.L41:
 434:..\..\..\arduinoLCD\test\Pain Drain\libraries\lvgl\src\core/lv_event.c ****         if(e->deleted) return LV_RES_INV;
 468              		.loc 1 434 0
 469 0100 0120     		movs	r0, #1
 470 0102 F8BD     		pop	{r3, r4, r5, r6, r7, pc}
 471              	.LVL52:
 472              	.L42:
 449:..\..\..\arduinoLCD\test\Pain Drain\libraries\lvgl\src\core/lv_event.c ****             /*Stop if the object is deleted*/
 473              		.loc 1 449 0
 474 0104 0120     		movs	r0, #1
 475 0106 F8BD     		pop	{r3, r4, r5, r6, r7, pc}
 476              	.LVL53:
 477              	.L43:
 469:..\..\..\arduinoLCD\test\Pain Drain\libraries\lvgl\src\core/lv_event.c ****             /*Stop if the object is deleted*/
 478              		.loc 1 469 0
 479 0108 0120     		movs	r0, #1
 480 010a F8BD     		pop	{r3, r4, r5, r6, r7, pc}
 481              	.LVL54:
 482              	.L44:
 458:..\..\..\arduinoLCD\test\Pain Drain\libraries\lvgl\src\core/lv_event.c **** 
 483              		.loc 1 458 0
 484 010c 3846     		mov	r0, r7
ARM GAS  C:\Users\haske\AppData\Local\Temp\ccnNTYZ7.s 			page 20


 485 010e F8BD     		pop	{r3, r4, r5, r6, r7, pc}
 486              	.LVL55:
 487              	.L45:
 488 0110 3846     		mov	r0, r7
 489 0112 F8BD     		pop	{r3, r4, r5, r6, r7, pc}
 490              	.LVL56:
 491              	.L46:
 492 0114 3846     		mov	r0, r7
 493              	.LVL57:
 494              	.L30:
 485:..\..\..\arduinoLCD\test\Pain Drain\libraries\lvgl\src\core/lv_event.c **** 
 495              		.loc 1 485 0
 496 0116 F8BD     		pop	{r3, r4, r5, r6, r7, pc}
 497              		.cfi_endproc
 498              	.LFE187:
 499              		.size	event_send_core, .-event_send_core
 500              		.section	.text.lv_event_send,"ax",%progbits
 501              		.align	2
 502              		.global	lv_event_send
 503              		.thumb
 504              		.thumb_func
 505              		.type	lv_event_send, %function
 506              	lv_event_send:
 507              	.LFB159:
  53:..\..\..\arduinoLCD\test\Pain Drain\libraries\lvgl\src\core/lv_event.c ****     if(obj == NULL) return LV_RES_OK;
 508              		.loc 1 53 0
 509              		.cfi_startproc
 510              		@ args = 0, pretend = 0, frame = 32
 511              		@ frame_needed = 0, uses_anonymous_args = 0
 512              	.LVL58:
  54:..\..\..\arduinoLCD\test\Pain Drain\libraries\lvgl\src\core/lv_event.c **** 
 513              		.loc 1 54 0
 514 0000 D0B1     		cbz	r0, .L51
  53:..\..\..\arduinoLCD\test\Pain Drain\libraries\lvgl\src\core/lv_event.c ****     if(obj == NULL) return LV_RES_OK;
 515              		.loc 1 53 0
 516 0002 10B5     		push	{r4, lr}
 517              		.cfi_def_cfa_offset 8
 518              		.cfi_offset 4, -8
 519              		.cfi_offset 14, -4
 520 0004 88B0     		sub	sp, sp, #32
 521              		.cfi_def_cfa_offset 40
  59:..\..\..\arduinoLCD\test\Pain Drain\libraries\lvgl\src\core/lv_event.c ****     e.current_target = obj;
 522              		.loc 1 59 0
 523 0006 0190     		str	r0, [sp, #4]
  60:..\..\..\arduinoLCD\test\Pain Drain\libraries\lvgl\src\core/lv_event.c ****     e.code = event_code;
 524              		.loc 1 60 0
 525 0008 0290     		str	r0, [sp, #8]
  61:..\..\..\arduinoLCD\test\Pain Drain\libraries\lvgl\src\core/lv_event.c ****     e.user_data = NULL;
 526              		.loc 1 61 0
 527 000a 8DF80C10 		strb	r1, [sp, #12]
  62:..\..\..\arduinoLCD\test\Pain Drain\libraries\lvgl\src\core/lv_event.c ****     e.param = param;
 528              		.loc 1 62 0
 529 000e 0021     		movs	r1, #0
 530              	.LVL59:
 531 0010 0491     		str	r1, [sp, #16]
  63:..\..\..\arduinoLCD\test\Pain Drain\libraries\lvgl\src\core/lv_event.c ****     e.deleted = 0;
 532              		.loc 1 63 0
ARM GAS  C:\Users\haske\AppData\Local\Temp\ccnNTYZ7.s 			page 21


 533 0012 0592     		str	r2, [sp, #20]
  64:..\..\..\arduinoLCD\test\Pain Drain\libraries\lvgl\src\core/lv_event.c ****     e.stop_bubbling = 0;
 534              		.loc 1 64 0
 535 0014 9DF81C30 		ldrb	r3, [sp, #28]	@ zero_extendqisi2
  66:..\..\..\arduinoLCD\test\Pain Drain\libraries\lvgl\src\core/lv_event.c **** 
 536              		.loc 1 66 0
 537 0018 03F0FA03 		and	r3, r3, #250
 538 001c 61F34103 		bfi	r3, r1, #1, #1
 539 0020 8DF81C30 		strb	r3, [sp, #28]
  71:..\..\..\arduinoLCD\test\Pain Drain\libraries\lvgl\src\core/lv_event.c ****     event_head = &e;
 540              		.loc 1 71 0
 541 0024 064C     		ldr	r4, .L54
 542 0026 2368     		ldr	r3, [r4]
 543 0028 0693     		str	r3, [sp, #24]
  72:..\..\..\arduinoLCD\test\Pain Drain\libraries\lvgl\src\core/lv_event.c **** 
 544              		.loc 1 72 0
 545 002a 01A8     		add	r0, sp, #4
 546              	.LVL60:
 547 002c 2060     		str	r0, [r4]
  75:..\..\..\arduinoLCD\test\Pain Drain\libraries\lvgl\src\core/lv_event.c **** 
 548              		.loc 1 75 0
 549 002e FFF7FEFF 		bl	event_send_core
 550              	.LVL61:
  78:..\..\..\arduinoLCD\test\Pain Drain\libraries\lvgl\src\core/lv_event.c **** 
 551              		.loc 1 78 0
 552 0032 069B     		ldr	r3, [sp, #24]
 553 0034 2360     		str	r3, [r4]
  80:..\..\..\arduinoLCD\test\Pain Drain\libraries\lvgl\src\core/lv_event.c **** }
 554              		.loc 1 80 0
 555 0036 01E0     		b	.L50
 556              	.LVL62:
 557              	.L51:
 558              		.cfi_def_cfa_offset 0
 559              		.cfi_restore 4
 560              		.cfi_restore 14
  54:..\..\..\arduinoLCD\test\Pain Drain\libraries\lvgl\src\core/lv_event.c **** 
 561              		.loc 1 54 0
 562 0038 0120     		movs	r0, #1
 563              	.LVL63:
 564 003a 7047     		bx	lr
 565              	.LVL64:
 566              	.L50:
 567              		.cfi_def_cfa_offset 40
 568              		.cfi_offset 4, -8
 569              		.cfi_offset 14, -4
  81:..\..\..\arduinoLCD\test\Pain Drain\libraries\lvgl\src\core/lv_event.c **** 
 570              		.loc 1 81 0
 571 003c 08B0     		add	sp, sp, #32
 572              		.cfi_def_cfa_offset 8
 573              		@ sp needed
 574 003e 10BD     		pop	{r4, pc}
 575              	.L55:
 576              		.align	2
 577              	.L54:
 578 0040 00000000 		.word	.LANCHOR0
 579              		.cfi_endproc
 580              	.LFE159:
ARM GAS  C:\Users\haske\AppData\Local\Temp\ccnNTYZ7.s 			page 22


 581              		.size	lv_event_send, .-lv_event_send
 582              		.section	.text.lv_event_get_target,"ax",%progbits
 583              		.align	2
 584              		.global	lv_event_get_target
 585              		.thumb
 586              		.thumb_func
 587              		.type	lv_event_get_target, %function
 588              	lv_event_get_target:
 589              	.LFB161:
 109:..\..\..\arduinoLCD\test\Pain Drain\libraries\lvgl\src\core/lv_event.c ****     return e->target;
 590              		.loc 1 109 0
 591              		.cfi_startproc
 592              		@ args = 0, pretend = 0, frame = 0
 593              		@ frame_needed = 0, uses_anonymous_args = 0
 594              		@ link register save eliminated.
 595              	.LVL65:
 111:..\..\..\arduinoLCD\test\Pain Drain\libraries\lvgl\src\core/lv_event.c **** 
 596              		.loc 1 111 0
 597 0000 0068     		ldr	r0, [r0]
 598              	.LVL66:
 599 0002 7047     		bx	lr
 600              		.cfi_endproc
 601              	.LFE161:
 602              		.size	lv_event_get_target, .-lv_event_get_target
 603              		.section	.text.lv_event_get_current_target,"ax",%progbits
 604              		.align	2
 605              		.global	lv_event_get_current_target
 606              		.thumb
 607              		.thumb_func
 608              		.type	lv_event_get_current_target, %function
 609              	lv_event_get_current_target:
 610              	.LFB162:
 114:..\..\..\arduinoLCD\test\Pain Drain\libraries\lvgl\src\core/lv_event.c ****     return e->current_target;
 611              		.loc 1 114 0
 612              		.cfi_startproc
 613              		@ args = 0, pretend = 0, frame = 0
 614              		@ frame_needed = 0, uses_anonymous_args = 0
 615              		@ link register save eliminated.
 616              	.LVL67:
 116:..\..\..\arduinoLCD\test\Pain Drain\libraries\lvgl\src\core/lv_event.c **** 
 617              		.loc 1 116 0
 618 0000 4068     		ldr	r0, [r0, #4]
 619              	.LVL68:
 620 0002 7047     		bx	lr
 621              		.cfi_endproc
 622              	.LFE162:
 623              		.size	lv_event_get_current_target, .-lv_event_get_current_target
 624              		.section	.text.lv_event_get_code,"ax",%progbits
 625              		.align	2
 626              		.global	lv_event_get_code
 627              		.thumb
 628              		.thumb_func
 629              		.type	lv_event_get_code, %function
 630              	lv_event_get_code:
 631              	.LFB163:
 119:..\..\..\arduinoLCD\test\Pain Drain\libraries\lvgl\src\core/lv_event.c ****     return e->code & ~LV_EVENT_PREPROCESS;
 632              		.loc 1 119 0
ARM GAS  C:\Users\haske\AppData\Local\Temp\ccnNTYZ7.s 			page 23


 633              		.cfi_startproc
 634              		@ args = 0, pretend = 0, frame = 0
 635              		@ frame_needed = 0, uses_anonymous_args = 0
 636              		@ link register save eliminated.
 637              	.LVL69:
 120:..\..\..\arduinoLCD\test\Pain Drain\libraries\lvgl\src\core/lv_event.c **** }
 638              		.loc 1 120 0
 639 0000 007A     		ldrb	r0, [r0, #8]	@ zero_extendqisi2
 640              	.LVL70:
 121:..\..\..\arduinoLCD\test\Pain Drain\libraries\lvgl\src\core/lv_event.c **** 
 641              		.loc 1 121 0
 642 0002 00F07F00 		and	r0, r0, #127
 643 0006 7047     		bx	lr
 644              		.cfi_endproc
 645              	.LFE163:
 646              		.size	lv_event_get_code, .-lv_event_get_code
 647              		.section	.text.lv_event_get_param,"ax",%progbits
 648              		.align	2
 649              		.global	lv_event_get_param
 650              		.thumb
 651              		.thumb_func
 652              		.type	lv_event_get_param, %function
 653              	lv_event_get_param:
 654              	.LFB164:
 124:..\..\..\arduinoLCD\test\Pain Drain\libraries\lvgl\src\core/lv_event.c ****     return e->param;
 655              		.loc 1 124 0
 656              		.cfi_startproc
 657              		@ args = 0, pretend = 0, frame = 0
 658              		@ frame_needed = 0, uses_anonymous_args = 0
 659              		@ link register save eliminated.
 660              	.LVL71:
 126:..\..\..\arduinoLCD\test\Pain Drain\libraries\lvgl\src\core/lv_event.c **** 
 661              		.loc 1 126 0
 662 0000 0069     		ldr	r0, [r0, #16]
 663              	.LVL72:
 664 0002 7047     		bx	lr
 665              		.cfi_endproc
 666              	.LFE164:
 667              		.size	lv_event_get_param, .-lv_event_get_param
 668              		.section	.text.lv_event_get_user_data,"ax",%progbits
 669              		.align	2
 670              		.global	lv_event_get_user_data
 671              		.thumb
 672              		.thumb_func
 673              		.type	lv_event_get_user_data, %function
 674              	lv_event_get_user_data:
 675              	.LFB165:
 129:..\..\..\arduinoLCD\test\Pain Drain\libraries\lvgl\src\core/lv_event.c ****     return e->user_data;
 676              		.loc 1 129 0
 677              		.cfi_startproc
 678              		@ args = 0, pretend = 0, frame = 0
 679              		@ frame_needed = 0, uses_anonymous_args = 0
 680              		@ link register save eliminated.
 681              	.LVL73:
 131:..\..\..\arduinoLCD\test\Pain Drain\libraries\lvgl\src\core/lv_event.c **** 
 682              		.loc 1 131 0
 683 0000 C068     		ldr	r0, [r0, #12]
ARM GAS  C:\Users\haske\AppData\Local\Temp\ccnNTYZ7.s 			page 24


 684              	.LVL74:
 685 0002 7047     		bx	lr
 686              		.cfi_endproc
 687              	.LFE165:
 688              		.size	lv_event_get_user_data, .-lv_event_get_user_data
 689              		.section	.text.lv_event_stop_bubbling,"ax",%progbits
 690              		.align	2
 691              		.global	lv_event_stop_bubbling
 692              		.thumb
 693              		.thumb_func
 694              		.type	lv_event_stop_bubbling, %function
 695              	lv_event_stop_bubbling:
 696              	.LFB166:
 134:..\..\..\arduinoLCD\test\Pain Drain\libraries\lvgl\src\core/lv_event.c ****     e->stop_bubbling = 1;
 697              		.loc 1 134 0
 698              		.cfi_startproc
 699              		@ args = 0, pretend = 0, frame = 0
 700              		@ frame_needed = 0, uses_anonymous_args = 0
 701              		@ link register save eliminated.
 702              	.LVL75:
 135:..\..\..\arduinoLCD\test\Pain Drain\libraries\lvgl\src\core/lv_event.c **** }
 703              		.loc 1 135 0
 704 0000 037E     		ldrb	r3, [r0, #24]	@ zero_extendqisi2
 705 0002 43F00403 		orr	r3, r3, #4
 706 0006 0376     		strb	r3, [r0, #24]
 707 0008 7047     		bx	lr
 708              		.cfi_endproc
 709              	.LFE166:
 710              		.size	lv_event_stop_bubbling, .-lv_event_stop_bubbling
 711 000a 00BF     		.section	.text.lv_event_stop_processing,"ax",%progbits
 712              		.align	2
 713              		.global	lv_event_stop_processing
 714              		.thumb
 715              		.thumb_func
 716              		.type	lv_event_stop_processing, %function
 717              	lv_event_stop_processing:
 718              	.LFB167:
 139:..\..\..\arduinoLCD\test\Pain Drain\libraries\lvgl\src\core/lv_event.c ****     e->stop_processing = 1;
 719              		.loc 1 139 0
 720              		.cfi_startproc
 721              		@ args = 0, pretend = 0, frame = 0
 722              		@ frame_needed = 0, uses_anonymous_args = 0
 723              		@ link register save eliminated.
 724              	.LVL76:
 140:..\..\..\arduinoLCD\test\Pain Drain\libraries\lvgl\src\core/lv_event.c **** }
 725              		.loc 1 140 0
 726 0000 037E     		ldrb	r3, [r0, #24]	@ zero_extendqisi2
 727 0002 43F00203 		orr	r3, r3, #2
 728 0006 0376     		strb	r3, [r0, #24]
 729 0008 7047     		bx	lr
 730              		.cfi_endproc
 731              	.LFE167:
 732              		.size	lv_event_stop_processing, .-lv_event_stop_processing
 733 000a 00BF     		.section	.text.lv_event_register_id,"ax",%progbits
 734              		.align	2
 735              		.global	lv_event_register_id
 736              		.thumb
ARM GAS  C:\Users\haske\AppData\Local\Temp\ccnNTYZ7.s 			page 25


 737              		.thumb_func
 738              		.type	lv_event_register_id, %function
 739              	lv_event_register_id:
 740              	.LFB168:
 145:..\..\..\arduinoLCD\test\Pain Drain\libraries\lvgl\src\core/lv_event.c ****     static uint32_t last_id = _LV_EVENT_LAST;
 741              		.loc 1 145 0
 742              		.cfi_startproc
 743              		@ args = 0, pretend = 0, frame = 0
 744              		@ frame_needed = 0, uses_anonymous_args = 0
 745              		@ link register save eliminated.
 147:..\..\..\arduinoLCD\test\Pain Drain\libraries\lvgl\src\core/lv_event.c ****     return last_id;
 746              		.loc 1 147 0
 747 0000 024B     		ldr	r3, .L64
 748 0002 1868     		ldr	r0, [r3]
 749 0004 0130     		adds	r0, r0, #1
 750 0006 1860     		str	r0, [r3]
 149:..\..\..\arduinoLCD\test\Pain Drain\libraries\lvgl\src\core/lv_event.c **** 
 751              		.loc 1 149 0
 752 0008 7047     		bx	lr
 753              	.L65:
 754 000a 00BF     		.align	2
 755              	.L64:
 756 000c 00000000 		.word	.LANCHOR1
 757              		.cfi_endproc
 758              	.LFE168:
 759              		.size	lv_event_register_id, .-lv_event_register_id
 760              		.section	.text._lv_event_mark_deleted,"ax",%progbits
 761              		.align	2
 762              		.global	_lv_event_mark_deleted
 763              		.thumb
 764              		.thumb_func
 765              		.type	_lv_event_mark_deleted, %function
 766              	_lv_event_mark_deleted:
 767              	.LFB169:
 152:..\..\..\arduinoLCD\test\Pain Drain\libraries\lvgl\src\core/lv_event.c ****     lv_event_t * e = event_head;
 768              		.loc 1 152 0
 769              		.cfi_startproc
 770              		@ args = 0, pretend = 0, frame = 0
 771              		@ frame_needed = 0, uses_anonymous_args = 0
 772              		@ link register save eliminated.
 773              	.LVL77:
 153:..\..\..\arduinoLCD\test\Pain Drain\libraries\lvgl\src\core/lv_event.c **** 
 774              		.loc 1 153 0
 775 0000 084B     		ldr	r3, .L71
 776 0002 1B68     		ldr	r3, [r3]
 777              	.LVL78:
 155:..\..\..\arduinoLCD\test\Pain Drain\libraries\lvgl\src\core/lv_event.c ****         if(e->current_target == obj || e->target == obj) e->deleted = 1;
 778              		.loc 1 155 0
 779 0004 0AE0     		b	.L67
 780              	.L70:
 156:..\..\..\arduinoLCD\test\Pain Drain\libraries\lvgl\src\core/lv_event.c ****         e = e->prev;
 781              		.loc 1 156 0
 782 0006 5A68     		ldr	r2, [r3, #4]
 783 0008 8242     		cmp	r2, r0
 784 000a 02D0     		beq	.L68
 156:..\..\..\arduinoLCD\test\Pain Drain\libraries\lvgl\src\core/lv_event.c ****         e = e->prev;
 785              		.loc 1 156 0 is_stmt 0 discriminator 2
ARM GAS  C:\Users\haske\AppData\Local\Temp\ccnNTYZ7.s 			page 26


 786 000c 1A68     		ldr	r2, [r3]
 787 000e 9042     		cmp	r0, r2
 788 0010 03D1     		bne	.L69
 789              	.L68:
 156:..\..\..\arduinoLCD\test\Pain Drain\libraries\lvgl\src\core/lv_event.c ****         e = e->prev;
 790              		.loc 1 156 0 discriminator 3
 791 0012 1A7E     		ldrb	r2, [r3, #24]	@ zero_extendqisi2
 792 0014 42F00102 		orr	r2, r2, #1
 793 0018 1A76     		strb	r2, [r3, #24]
 794              	.L69:
 157:..\..\..\arduinoLCD\test\Pain Drain\libraries\lvgl\src\core/lv_event.c ****     }
 795              		.loc 1 157 0 is_stmt 1
 796 001a 5B69     		ldr	r3, [r3, #20]
 797              	.LVL79:
 798              	.L67:
 155:..\..\..\arduinoLCD\test\Pain Drain\libraries\lvgl\src\core/lv_event.c ****         if(e->current_target == obj || e->target == obj) e->deleted = 1;
 799              		.loc 1 155 0
 800 001c 002B     		cmp	r3, #0
 801 001e F2D1     		bne	.L70
 159:..\..\..\arduinoLCD\test\Pain Drain\libraries\lvgl\src\core/lv_event.c **** 
 802              		.loc 1 159 0
 803 0020 7047     		bx	lr
 804              	.L72:
 805 0022 00BF     		.align	2
 806              	.L71:
 807 0024 00000000 		.word	.LANCHOR0
 808              		.cfi_endproc
 809              	.LFE169:
 810              		.size	_lv_event_mark_deleted, .-_lv_event_mark_deleted
 811              		.section	.text.lv_obj_add_event_cb,"ax",%progbits
 812              		.align	2
 813              		.global	lv_obj_add_event_cb
 814              		.thumb
 815              		.thumb_func
 816              		.type	lv_obj_add_event_cb, %function
 817              	lv_obj_add_event_cb:
 818              	.LFB170:
 164:..\..\..\arduinoLCD\test\Pain Drain\libraries\lvgl\src\core/lv_event.c ****     LV_ASSERT_OBJ(obj, MY_CLASS);
 819              		.loc 1 164 0
 820              		.cfi_startproc
 821              		@ args = 0, pretend = 0, frame = 0
 822              		@ frame_needed = 0, uses_anonymous_args = 0
 823              	.LVL80:
 824 0000 2DE9F041 		push	{r4, r5, r6, r7, r8, lr}
 825              		.cfi_def_cfa_offset 24
 826              		.cfi_offset 4, -24
 827              		.cfi_offset 5, -20
 828              		.cfi_offset 6, -16
 829              		.cfi_offset 7, -12
 830              		.cfi_offset 8, -8
 831              		.cfi_offset 14, -4
 832 0004 0446     		mov	r4, r0
 833 0006 0F46     		mov	r7, r1
 834 0008 1646     		mov	r6, r2
 835 000a 1D46     		mov	r5, r3
 166:..\..\..\arduinoLCD\test\Pain Drain\libraries\lvgl\src\core/lv_event.c **** 
 836              		.loc 1 166 0
ARM GAS  C:\Users\haske\AppData\Local\Temp\ccnNTYZ7.s 			page 27


 837 000c FFF7FEFF 		bl	lv_obj_allocate_spec_attr
 838              	.LVL81:
 168:..\..\..\arduinoLCD\test\Pain Drain\libraries\lvgl\src\core/lv_event.c ****     obj->spec_attr->event_dsc = lv_mem_realloc(obj->spec_attr->event_dsc,
 839              		.loc 1 168 0
 840 0010 A168     		ldr	r1, [r4, #8]
 841 0012 8B7E     		ldrb	r3, [r1, #26]	@ zero_extendqisi2
 842 0014 03F03F02 		and	r2, r3, #63
 843 0018 0132     		adds	r2, r2, #1
 844 001a 62F30503 		bfi	r3, r2, #0, #6
 845 001e 8B76     		strb	r3, [r1, #26]
 169:..\..\..\arduinoLCD\test\Pain Drain\libraries\lvgl\src\core/lv_event.c ****                                                obj->spec_attr->event_dsc_cnt * sizeof(lv_event_dsc_
 846              		.loc 1 169 0
 847 0020 D4F80880 		ldr	r8, [r4, #8]
 170:..\..\..\arduinoLCD\test\Pain Drain\libraries\lvgl\src\core/lv_event.c ****     LV_ASSERT_MALLOC(obj->spec_attr->event_dsc);
 848              		.loc 1 170 0
 849 0024 98F81A30 		ldrb	r3, [r8, #26]	@ zero_extendqisi2
 850 0028 03F03F03 		and	r3, r3, #63
 169:..\..\..\arduinoLCD\test\Pain Drain\libraries\lvgl\src\core/lv_event.c ****                                                obj->spec_attr->event_dsc_cnt * sizeof(lv_event_dsc_
 851              		.loc 1 169 0
 852 002c 03EB4303 		add	r3, r3, r3, lsl #1
 853 0030 9900     		lsls	r1, r3, #2
 854 0032 D8F80C00 		ldr	r0, [r8, #12]
 855 0036 FFF7FEFF 		bl	lv_mem_realloc
 856              	.LVL82:
 857 003a C8F80C00 		str	r0, [r8, #12]
 171:..\..\..\arduinoLCD\test\Pain Drain\libraries\lvgl\src\core/lv_event.c **** 
 858              		.loc 1 171 0
 859 003e A368     		ldr	r3, [r4, #8]
 860 0040 D968     		ldr	r1, [r3, #12]
 861 0042 01B9     		cbnz	r1, .L74
 862              	.L75:
 863 0044 FEE7     		b	.L75
 864              	.L74:
 173:..\..\..\arduinoLCD\test\Pain Drain\libraries\lvgl\src\core/lv_event.c ****     obj->spec_attr->event_dsc[obj->spec_attr->event_dsc_cnt - 1].filter = filter;
 865              		.loc 1 173 0
 866 0046 9B7E     		ldrb	r3, [r3, #26]	@ zero_extendqisi2
 867 0048 03F03F03 		and	r3, r3, #63
 868 004c 03EB4303 		add	r3, r3, r3, lsl #1
 869 0050 9A00     		lsls	r2, r3, #2
 870 0052 0C3A     		subs	r2, r2, #12
 871 0054 8F50     		str	r7, [r1, r2]
 174:..\..\..\arduinoLCD\test\Pain Drain\libraries\lvgl\src\core/lv_event.c ****     obj->spec_attr->event_dsc[obj->spec_attr->event_dsc_cnt - 1].user_data = user_data;
 872              		.loc 1 174 0
 873 0056 A268     		ldr	r2, [r4, #8]
 874 0058 D168     		ldr	r1, [r2, #12]
 875 005a 937E     		ldrb	r3, [r2, #26]	@ zero_extendqisi2
 876 005c 03F03F03 		and	r3, r3, #63
 877 0060 03EB4303 		add	r3, r3, r3, lsl #1
 878 0064 9A00     		lsls	r2, r3, #2
 879 0066 0C3A     		subs	r2, r2, #12
 880 0068 8B18     		adds	r3, r1, r2
 881 006a 1E72     		strb	r6, [r3, #8]
 175:..\..\..\arduinoLCD\test\Pain Drain\libraries\lvgl\src\core/lv_event.c **** 
 882              		.loc 1 175 0
 883 006c A268     		ldr	r2, [r4, #8]
 884 006e D168     		ldr	r1, [r2, #12]
 885 0070 937E     		ldrb	r3, [r2, #26]	@ zero_extendqisi2
ARM GAS  C:\Users\haske\AppData\Local\Temp\ccnNTYZ7.s 			page 28


 886 0072 03F03F03 		and	r3, r3, #63
 887 0076 03EB4303 		add	r3, r3, r3, lsl #1
 888 007a 9A00     		lsls	r2, r3, #2
 889 007c 0C3A     		subs	r2, r2, #12
 890 007e 8B18     		adds	r3, r1, r2
 891 0080 5D60     		str	r5, [r3, #4]
 177:..\..\..\arduinoLCD\test\Pain Drain\libraries\lvgl\src\core/lv_event.c **** }
 892              		.loc 1 177 0
 893 0082 A368     		ldr	r3, [r4, #8]
 894 0084 D868     		ldr	r0, [r3, #12]
 895 0086 9B7E     		ldrb	r3, [r3, #26]	@ zero_extendqisi2
 896 0088 03F03F03 		and	r3, r3, #63
 897 008c 03EB4303 		add	r3, r3, r3, lsl #1
 898 0090 9A00     		lsls	r2, r3, #2
 899 0092 0C3A     		subs	r2, r2, #12
 178:..\..\..\arduinoLCD\test\Pain Drain\libraries\lvgl\src\core/lv_event.c **** 
 900              		.loc 1 178 0
 901 0094 1044     		add	r0, r0, r2
 902 0096 BDE8F081 		pop	{r4, r5, r6, r7, r8, pc}
 903              		.cfi_endproc
 904              	.LFE170:
 905              		.size	lv_obj_add_event_cb, .-lv_obj_add_event_cb
 906 009a 00BF     		.section	.text.lv_obj_remove_event_cb,"ax",%progbits
 907              		.align	2
 908              		.global	lv_obj_remove_event_cb
 909              		.thumb
 910              		.thumb_func
 911              		.type	lv_obj_remove_event_cb, %function
 912              	lv_obj_remove_event_cb:
 913              	.LFB171:
 181:..\..\..\arduinoLCD\test\Pain Drain\libraries\lvgl\src\core/lv_event.c ****     LV_ASSERT_OBJ(obj, MY_CLASS);
 914              		.loc 1 181 0
 915              		.cfi_startproc
 916              		@ args = 0, pretend = 0, frame = 0
 917              		@ frame_needed = 0, uses_anonymous_args = 0
 918              	.LVL83:
 919 0000 70B5     		push	{r4, r5, r6, lr}
 920              		.cfi_def_cfa_offset 16
 921              		.cfi_offset 4, -16
 922              		.cfi_offset 5, -12
 923              		.cfi_offset 6, -8
 924              		.cfi_offset 14, -4
 183:..\..\..\arduinoLCD\test\Pain Drain\libraries\lvgl\src\core/lv_event.c **** 
 925              		.loc 1 183 0
 926 0002 8468     		ldr	r4, [r0, #8]
 927 0004 002C     		cmp	r4, #0
 928 0006 3BD0     		beq	.L85
 929 0008 0546     		mov	r5, r0
 930 000a 0023     		movs	r3, #0
 931 000c 31E0     		b	.L79
 932              	.LVL84:
 933              	.L84:
 187:..\..\..\arduinoLCD\test\Pain Drain\libraries\lvgl\src\core/lv_event.c ****             /*Shift the remaining event handlers forward*/
 934              		.loc 1 187 0
 935 000e A1B1     		cbz	r1, .L80
 187:..\..\..\arduinoLCD\test\Pain Drain\libraries\lvgl\src\core/lv_event.c ****             /*Shift the remaining event handlers forward*/
 936              		.loc 1 187 0 is_stmt 0 discriminator 1
ARM GAS  C:\Users\haske\AppData\Local\Temp\ccnNTYZ7.s 			page 29


 937 0010 E668     		ldr	r6, [r4, #12]
 938 0012 03EB4300 		add	r0, r3, r3, lsl #1
 939 0016 8200     		lsls	r2, r0, #2
 940 0018 B258     		ldr	r2, [r6, r2]
 941 001a 9142     		cmp	r1, r2
 942 001c 28D1     		bne	.L87
 943 001e 0CE0     		b	.L80
 944              	.LVL85:
 945              	.L82:
 190:..\..\..\arduinoLCD\test\Pain Drain\libraries\lvgl\src\core/lv_event.c ****             }
 946              		.loc 1 190 0 is_stmt 1 discriminator 2
 947 0020 C968     		ldr	r1, [r1, #12]
 948 0022 03EB4302 		add	r2, r3, r3, lsl #1
 949 0026 9400     		lsls	r4, r2, #2
 950 0028 0C44     		add	r4, r4, r1
 951 002a 0133     		adds	r3, r3, #1
 952              	.LVL86:
 953 002c 03EB4300 		add	r0, r3, r3, lsl #1
 954 0030 8200     		lsls	r2, r0, #2
 955 0032 0A44     		add	r2, r2, r1
 956 0034 07CA     		ldmia	r2, {r0, r1, r2}
 957 0036 84E80700 		stmia	r4, {r0, r1, r2}
 958              	.LVL87:
 959              	.L80:
 189:..\..\..\arduinoLCD\test\Pain Drain\libraries\lvgl\src\core/lv_event.c ****                 obj->spec_attr->event_dsc[i] = obj->spec_attr->event_dsc[i + 1];
 960              		.loc 1 189 0 discriminator 1
 961 003a A968     		ldr	r1, [r5, #8]
 962 003c 8A7E     		ldrb	r2, [r1, #26]	@ zero_extendqisi2
 963 003e 02F03F02 		and	r2, r2, #63
 964 0042 501E     		subs	r0, r2, #1
 965 0044 8342     		cmp	r3, r0
 966 0046 EBDB     		blt	.L82
 192:..\..\..\arduinoLCD\test\Pain Drain\libraries\lvgl\src\core/lv_event.c ****             obj->spec_attr->event_dsc = lv_mem_realloc(obj->spec_attr->event_dsc,
 967              		.loc 1 192 0
 968 0048 3F32     		adds	r2, r2, #63
 969 004a 8B7E     		ldrb	r3, [r1, #26]	@ zero_extendqisi2
 970              	.LVL88:
 971 004c 62F30503 		bfi	r3, r2, #0, #6
 972 0050 8B76     		strb	r3, [r1, #26]
 193:..\..\..\arduinoLCD\test\Pain Drain\libraries\lvgl\src\core/lv_event.c ****                                                        obj->spec_attr->event_dsc_cnt * sizeof(lv_ev
 973              		.loc 1 193 0
 974 0052 AC68     		ldr	r4, [r5, #8]
 194:..\..\..\arduinoLCD\test\Pain Drain\libraries\lvgl\src\core/lv_event.c ****             LV_ASSERT_MALLOC(obj->spec_attr->event_dsc);
 975              		.loc 1 194 0
 976 0054 A37E     		ldrb	r3, [r4, #26]	@ zero_extendqisi2
 977 0056 03F03F03 		and	r3, r3, #63
 193:..\..\..\arduinoLCD\test\Pain Drain\libraries\lvgl\src\core/lv_event.c ****                                                        obj->spec_attr->event_dsc_cnt * sizeof(lv_ev
 978              		.loc 1 193 0
 979 005a 03EB4303 		add	r3, r3, r3, lsl #1
 980 005e 9900     		lsls	r1, r3, #2
 981 0060 E068     		ldr	r0, [r4, #12]
 982 0062 FFF7FEFF 		bl	lv_mem_realloc
 983              	.LVL89:
 984 0066 E060     		str	r0, [r4, #12]
 195:..\..\..\arduinoLCD\test\Pain Drain\libraries\lvgl\src\core/lv_event.c ****             return true;
 985              		.loc 1 195 0
 986 0068 AB68     		ldr	r3, [r5, #8]
ARM GAS  C:\Users\haske\AppData\Local\Temp\ccnNTYZ7.s 			page 30


 987 006a DB68     		ldr	r3, [r3, #12]
 988 006c 53B9     		cbnz	r3, .L86
 989              	.L83:
 990 006e FEE7     		b	.L83
 991              	.LVL90:
 992              	.L87:
 186:..\..\..\arduinoLCD\test\Pain Drain\libraries\lvgl\src\core/lv_event.c ****         if(event_cb == NULL || obj->spec_attr->event_dsc[i].cb == event_cb) {
 993              		.loc 1 186 0 discriminator 2
 994 0070 0133     		adds	r3, r3, #1
 995              	.LVL91:
 996              	.L79:
 186:..\..\..\arduinoLCD\test\Pain Drain\libraries\lvgl\src\core/lv_event.c ****         if(event_cb == NULL || obj->spec_attr->event_dsc[i].cb == event_cb) {
 997              		.loc 1 186 0 is_stmt 0 discriminator 1
 998 0072 A27E     		ldrb	r2, [r4, #26]	@ zero_extendqisi2
 999 0074 02F03F02 		and	r2, r2, #63
 1000 0078 9342     		cmp	r3, r2
 1001 007a C8DB     		blt	.L84
 201:..\..\..\arduinoLCD\test\Pain Drain\libraries\lvgl\src\core/lv_event.c **** }
 1002              		.loc 1 201 0 is_stmt 1
 1003 007c 0020     		movs	r0, #0
 1004 007e 70BD     		pop	{r4, r5, r6, pc}
 1005              	.LVL92:
 1006              	.L85:
 183:..\..\..\arduinoLCD\test\Pain Drain\libraries\lvgl\src\core/lv_event.c **** 
 1007              		.loc 1 183 0
 1008 0080 0020     		movs	r0, #0
 1009              	.LVL93:
 1010 0082 70BD     		pop	{r4, r5, r6, pc}
 1011              	.LVL94:
 1012              	.L86:
 196:..\..\..\arduinoLCD\test\Pain Drain\libraries\lvgl\src\core/lv_event.c ****         }
 1013              		.loc 1 196 0
 1014 0084 0120     		movs	r0, #1
 202:..\..\..\arduinoLCD\test\Pain Drain\libraries\lvgl\src\core/lv_event.c **** 
 1015              		.loc 1 202 0
 1016 0086 70BD     		pop	{r4, r5, r6, pc}
 1017              		.cfi_endproc
 1018              	.LFE171:
 1019              		.size	lv_obj_remove_event_cb, .-lv_obj_remove_event_cb
 1020              		.section	.text.lv_obj_remove_event_cb_with_user_data,"ax",%progbits
 1021              		.align	2
 1022              		.global	lv_obj_remove_event_cb_with_user_data
 1023              		.thumb
 1024              		.thumb_func
 1025              		.type	lv_obj_remove_event_cb_with_user_data, %function
 1026              	lv_obj_remove_event_cb_with_user_data:
 1027              	.LFB172:
 205:..\..\..\arduinoLCD\test\Pain Drain\libraries\lvgl\src\core/lv_event.c ****     LV_ASSERT_OBJ(obj, MY_CLASS);
 1028              		.loc 1 205 0
 1029              		.cfi_startproc
 1030              		@ args = 0, pretend = 0, frame = 0
 1031              		@ frame_needed = 0, uses_anonymous_args = 0
 1032              	.LVL95:
 1033 0000 F8B5     		push	{r3, r4, r5, r6, r7, lr}
 1034              		.cfi_def_cfa_offset 24
 1035              		.cfi_offset 3, -24
 1036              		.cfi_offset 4, -20
ARM GAS  C:\Users\haske\AppData\Local\Temp\ccnNTYZ7.s 			page 31


 1037              		.cfi_offset 5, -16
 1038              		.cfi_offset 6, -12
 1039              		.cfi_offset 7, -8
 1040              		.cfi_offset 14, -4
 207:..\..\..\arduinoLCD\test\Pain Drain\libraries\lvgl\src\core/lv_event.c **** 
 1041              		.loc 1 207 0
 1042 0002 8568     		ldr	r5, [r0, #8]
 1043 0004 002D     		cmp	r5, #0
 1044 0006 43D0     		beq	.L98
 1045 0008 0746     		mov	r7, r0
 1046 000a 0023     		movs	r3, #0
 1047 000c 39E0     		b	.L91
 1048              	.LVL96:
 1049              	.L97:
 211:..\..\..\arduinoLCD\test\Pain Drain\libraries\lvgl\src\core/lv_event.c ****            obj->spec_attr->event_dsc[i].user_data == user_data) {
 1050              		.loc 1 211 0
 1051 000e 31B1     		cbz	r1, .L92
 211:..\..\..\arduinoLCD\test\Pain Drain\libraries\lvgl\src\core/lv_event.c ****            obj->spec_attr->event_dsc[i].user_data == user_data) {
 1052              		.loc 1 211 0 is_stmt 0 discriminator 2
 1053 0010 EE68     		ldr	r6, [r5, #12]
 1054 0012 03EB4304 		add	r4, r3, r3, lsl #1
 1055 0016 A000     		lsls	r0, r4, #2
 1056 0018 3058     		ldr	r0, [r6, r0]
 1057 001a 8142     		cmp	r1, r0
 1058 001c 30D1     		bne	.L93
 1059              	.L92:
 212:..\..\..\arduinoLCD\test\Pain Drain\libraries\lvgl\src\core/lv_event.c ****             /*Shift the remaining event handlers forward*/
 1060              		.loc 1 212 0 is_stmt 1 discriminator 3
 1061 001e EE68     		ldr	r6, [r5, #12]
 1062 0020 03EB4304 		add	r4, r3, r3, lsl #1
 1063 0024 A000     		lsls	r0, r4, #2
 1064 0026 3044     		add	r0, r0, r6
 1065 0028 4068     		ldr	r0, [r0, #4]
 211:..\..\..\arduinoLCD\test\Pain Drain\libraries\lvgl\src\core/lv_event.c ****            obj->spec_attr->event_dsc[i].user_data == user_data) {
 1066              		.loc 1 211 0 discriminator 3
 1067 002a 9042     		cmp	r0, r2
 1068 002c 28D1     		bne	.L93
 1069 002e 0CE0     		b	.L94
 1070              	.LVL97:
 1071              	.L95:
 215:..\..\..\arduinoLCD\test\Pain Drain\libraries\lvgl\src\core/lv_event.c ****             }
 1072              		.loc 1 215 0 discriminator 2
 1073 0030 C968     		ldr	r1, [r1, #12]
 1074 0032 03EB4302 		add	r2, r3, r3, lsl #1
 1075 0036 9400     		lsls	r4, r2, #2
 1076 0038 0C44     		add	r4, r4, r1
 1077 003a 0133     		adds	r3, r3, #1
 1078              	.LVL98:
 1079 003c 03EB4300 		add	r0, r3, r3, lsl #1
 1080 0040 8200     		lsls	r2, r0, #2
 1081 0042 0A44     		add	r2, r2, r1
 1082 0044 07CA     		ldmia	r2, {r0, r1, r2}
 1083 0046 84E80700 		stmia	r4, {r0, r1, r2}
 1084              	.LVL99:
 1085              	.L94:
 214:..\..\..\arduinoLCD\test\Pain Drain\libraries\lvgl\src\core/lv_event.c ****                 obj->spec_attr->event_dsc[i] = obj->spec_attr->event_dsc[i + 1];
 1086              		.loc 1 214 0 discriminator 1
ARM GAS  C:\Users\haske\AppData\Local\Temp\ccnNTYZ7.s 			page 32


 1087 004a B968     		ldr	r1, [r7, #8]
 1088 004c 8A7E     		ldrb	r2, [r1, #26]	@ zero_extendqisi2
 1089 004e 02F03F02 		and	r2, r2, #63
 1090 0052 501E     		subs	r0, r2, #1
 1091 0054 8342     		cmp	r3, r0
 1092 0056 EBDB     		blt	.L95
 217:..\..\..\arduinoLCD\test\Pain Drain\libraries\lvgl\src\core/lv_event.c ****             obj->spec_attr->event_dsc = lv_mem_realloc(obj->spec_attr->event_dsc,
 1093              		.loc 1 217 0
 1094 0058 3F32     		adds	r2, r2, #63
 1095 005a 8B7E     		ldrb	r3, [r1, #26]	@ zero_extendqisi2
 1096              	.LVL100:
 1097 005c 62F30503 		bfi	r3, r2, #0, #6
 1098 0060 8B76     		strb	r3, [r1, #26]
 218:..\..\..\arduinoLCD\test\Pain Drain\libraries\lvgl\src\core/lv_event.c ****                                                        obj->spec_attr->event_dsc_cnt * sizeof(lv_ev
 1099              		.loc 1 218 0
 1100 0062 BC68     		ldr	r4, [r7, #8]
 219:..\..\..\arduinoLCD\test\Pain Drain\libraries\lvgl\src\core/lv_event.c ****             LV_ASSERT_MALLOC(obj->spec_attr->event_dsc);
 1101              		.loc 1 219 0
 1102 0064 A37E     		ldrb	r3, [r4, #26]	@ zero_extendqisi2
 1103 0066 03F03F03 		and	r3, r3, #63
 218:..\..\..\arduinoLCD\test\Pain Drain\libraries\lvgl\src\core/lv_event.c ****                                                        obj->spec_attr->event_dsc_cnt * sizeof(lv_ev
 1104              		.loc 1 218 0
 1105 006a 03EB4303 		add	r3, r3, r3, lsl #1
 1106 006e 9900     		lsls	r1, r3, #2
 1107 0070 E068     		ldr	r0, [r4, #12]
 1108 0072 FFF7FEFF 		bl	lv_mem_realloc
 1109              	.LVL101:
 1110 0076 E060     		str	r0, [r4, #12]
 220:..\..\..\arduinoLCD\test\Pain Drain\libraries\lvgl\src\core/lv_event.c ****             return true;
 1111              		.loc 1 220 0
 1112 0078 BB68     		ldr	r3, [r7, #8]
 1113 007a DB68     		ldr	r3, [r3, #12]
 1114 007c 53B9     		cbnz	r3, .L99
 1115              	.L96:
 1116 007e FEE7     		b	.L96
 1117              	.LVL102:
 1118              	.L93:
 210:..\..\..\arduinoLCD\test\Pain Drain\libraries\lvgl\src\core/lv_event.c ****         if((event_cb == NULL || obj->spec_attr->event_dsc[i].cb == event_cb) &&
 1119              		.loc 1 210 0 discriminator 2
 1120 0080 0133     		adds	r3, r3, #1
 1121              	.LVL103:
 1122              	.L91:
 210:..\..\..\arduinoLCD\test\Pain Drain\libraries\lvgl\src\core/lv_event.c ****         if((event_cb == NULL || obj->spec_attr->event_dsc[i].cb == event_cb) &&
 1123              		.loc 1 210 0 is_stmt 0 discriminator 1
 1124 0082 A87E     		ldrb	r0, [r5, #26]	@ zero_extendqisi2
 1125 0084 00F03F00 		and	r0, r0, #63
 1126 0088 8342     		cmp	r3, r0
 1127 008a C0DB     		blt	.L97
 226:..\..\..\arduinoLCD\test\Pain Drain\libraries\lvgl\src\core/lv_event.c **** }
 1128              		.loc 1 226 0 is_stmt 1
 1129 008c 0020     		movs	r0, #0
 1130 008e F8BD     		pop	{r3, r4, r5, r6, r7, pc}
 1131              	.LVL104:
 1132              	.L98:
 207:..\..\..\arduinoLCD\test\Pain Drain\libraries\lvgl\src\core/lv_event.c **** 
 1133              		.loc 1 207 0
 1134 0090 0020     		movs	r0, #0
ARM GAS  C:\Users\haske\AppData\Local\Temp\ccnNTYZ7.s 			page 33


 1135              	.LVL105:
 1136 0092 F8BD     		pop	{r3, r4, r5, r6, r7, pc}
 1137              	.LVL106:
 1138              	.L99:
 221:..\..\..\arduinoLCD\test\Pain Drain\libraries\lvgl\src\core/lv_event.c ****         }
 1139              		.loc 1 221 0
 1140 0094 0120     		movs	r0, #1
 227:..\..\..\arduinoLCD\test\Pain Drain\libraries\lvgl\src\core/lv_event.c **** 
 1141              		.loc 1 227 0
 1142 0096 F8BD     		pop	{r3, r4, r5, r6, r7, pc}
 1143              		.cfi_endproc
 1144              	.LFE172:
 1145              		.size	lv_obj_remove_event_cb_with_user_data, .-lv_obj_remove_event_cb_with_user_data
 1146              		.section	.text.lv_obj_remove_event_dsc,"ax",%progbits
 1147              		.align	2
 1148              		.global	lv_obj_remove_event_dsc
 1149              		.thumb
 1150              		.thumb_func
 1151              		.type	lv_obj_remove_event_dsc, %function
 1152              	lv_obj_remove_event_dsc:
 1153              	.LFB173:
 231:..\..\..\arduinoLCD\test\Pain Drain\libraries\lvgl\src\core/lv_event.c ****     LV_ASSERT_OBJ(obj, MY_CLASS);
 1154              		.loc 1 231 0
 1155              		.cfi_startproc
 1156              		@ args = 0, pretend = 0, frame = 0
 1157              		@ frame_needed = 0, uses_anonymous_args = 0
 1158              	.LVL107:
 1159 0000 70B5     		push	{r4, r5, r6, lr}
 1160              		.cfi_def_cfa_offset 16
 1161              		.cfi_offset 4, -16
 1162              		.cfi_offset 5, -12
 1163              		.cfi_offset 6, -8
 1164              		.cfi_offset 14, -4
 233:..\..\..\arduinoLCD\test\Pain Drain\libraries\lvgl\src\core/lv_event.c **** 
 1165              		.loc 1 233 0
 1166 0002 8468     		ldr	r4, [r0, #8]
 1167 0004 002C     		cmp	r4, #0
 1168 0006 3AD0     		beq	.L109
 1169 0008 0546     		mov	r5, r0
 1170 000a 0023     		movs	r3, #0
 1171 000c 30E0     		b	.L103
 1172              	.LVL108:
 1173              	.L108:
 237:..\..\..\arduinoLCD\test\Pain Drain\libraries\lvgl\src\core/lv_event.c ****             /*Shift the remaining event handlers forward*/
 1174              		.loc 1 237 0
 1175 000e E668     		ldr	r6, [r4, #12]
 1176 0010 03EB4300 		add	r0, r3, r3, lsl #1
 1177 0014 8200     		lsls	r2, r0, #2
 1178 0016 3244     		add	r2, r2, r6
 1179 0018 8A42     		cmp	r2, r1
 1180 001a 28D1     		bne	.L111
 1181 001c 0CE0     		b	.L104
 1182              	.LVL109:
 1183              	.L106:
 240:..\..\..\arduinoLCD\test\Pain Drain\libraries\lvgl\src\core/lv_event.c ****             }
 1184              		.loc 1 240 0 discriminator 2
 1185 001e C968     		ldr	r1, [r1, #12]
ARM GAS  C:\Users\haske\AppData\Local\Temp\ccnNTYZ7.s 			page 34


 1186 0020 03EB4302 		add	r2, r3, r3, lsl #1
 1187 0024 9400     		lsls	r4, r2, #2
 1188 0026 0C44     		add	r4, r4, r1
 1189 0028 0133     		adds	r3, r3, #1
 1190              	.LVL110:
 1191 002a 03EB4300 		add	r0, r3, r3, lsl #1
 1192 002e 8200     		lsls	r2, r0, #2
 1193 0030 0A44     		add	r2, r2, r1
 1194 0032 07CA     		ldmia	r2, {r0, r1, r2}
 1195 0034 84E80700 		stmia	r4, {r0, r1, r2}
 1196              	.LVL111:
 1197              	.L104:
 239:..\..\..\arduinoLCD\test\Pain Drain\libraries\lvgl\src\core/lv_event.c ****                 obj->spec_attr->event_dsc[i] = obj->spec_attr->event_dsc[i + 1];
 1198              		.loc 1 239 0 discriminator 1
 1199 0038 A968     		ldr	r1, [r5, #8]
 1200 003a 8A7E     		ldrb	r2, [r1, #26]	@ zero_extendqisi2
 1201 003c 02F03F02 		and	r2, r2, #63
 1202 0040 501E     		subs	r0, r2, #1
 1203 0042 8342     		cmp	r3, r0
 1204 0044 EBDB     		blt	.L106
 242:..\..\..\arduinoLCD\test\Pain Drain\libraries\lvgl\src\core/lv_event.c ****             obj->spec_attr->event_dsc = lv_mem_realloc(obj->spec_attr->event_dsc,
 1205              		.loc 1 242 0
 1206 0046 3F32     		adds	r2, r2, #63
 1207 0048 8B7E     		ldrb	r3, [r1, #26]	@ zero_extendqisi2
 1208              	.LVL112:
 1209 004a 62F30503 		bfi	r3, r2, #0, #6
 1210 004e 8B76     		strb	r3, [r1, #26]
 243:..\..\..\arduinoLCD\test\Pain Drain\libraries\lvgl\src\core/lv_event.c ****                                                        obj->spec_attr->event_dsc_cnt * sizeof(lv_ev
 1211              		.loc 1 243 0
 1212 0050 AC68     		ldr	r4, [r5, #8]
 244:..\..\..\arduinoLCD\test\Pain Drain\libraries\lvgl\src\core/lv_event.c ****             LV_ASSERT_MALLOC(obj->spec_attr->event_dsc);
 1213              		.loc 1 244 0
 1214 0052 A37E     		ldrb	r3, [r4, #26]	@ zero_extendqisi2
 1215 0054 03F03F03 		and	r3, r3, #63
 243:..\..\..\arduinoLCD\test\Pain Drain\libraries\lvgl\src\core/lv_event.c ****                                                        obj->spec_attr->event_dsc_cnt * sizeof(lv_ev
 1216              		.loc 1 243 0
 1217 0058 03EB4303 		add	r3, r3, r3, lsl #1
 1218 005c 9900     		lsls	r1, r3, #2
 1219 005e E068     		ldr	r0, [r4, #12]
 1220 0060 FFF7FEFF 		bl	lv_mem_realloc
 1221              	.LVL113:
 1222 0064 E060     		str	r0, [r4, #12]
 245:..\..\..\arduinoLCD\test\Pain Drain\libraries\lvgl\src\core/lv_event.c ****             return true;
 1223              		.loc 1 245 0
 1224 0066 AB68     		ldr	r3, [r5, #8]
 1225 0068 DB68     		ldr	r3, [r3, #12]
 1226 006a 53B9     		cbnz	r3, .L110
 1227              	.L107:
 1228 006c FEE7     		b	.L107
 1229              	.LVL114:
 1230              	.L111:
 236:..\..\..\arduinoLCD\test\Pain Drain\libraries\lvgl\src\core/lv_event.c ****         if(&obj->spec_attr->event_dsc[i] == event_dsc) {
 1231              		.loc 1 236 0 discriminator 2
 1232 006e 0133     		adds	r3, r3, #1
 1233              	.LVL115:
 1234              	.L103:
 236:..\..\..\arduinoLCD\test\Pain Drain\libraries\lvgl\src\core/lv_event.c ****         if(&obj->spec_attr->event_dsc[i] == event_dsc) {
ARM GAS  C:\Users\haske\AppData\Local\Temp\ccnNTYZ7.s 			page 35


 1235              		.loc 1 236 0 is_stmt 0 discriminator 1
 1236 0070 A27E     		ldrb	r2, [r4, #26]	@ zero_extendqisi2
 1237 0072 02F03F02 		and	r2, r2, #63
 1238 0076 9342     		cmp	r3, r2
 1239 0078 C9DB     		blt	.L108
 251:..\..\..\arduinoLCD\test\Pain Drain\libraries\lvgl\src\core/lv_event.c **** }
 1240              		.loc 1 251 0 is_stmt 1
 1241 007a 0020     		movs	r0, #0
 1242 007c 70BD     		pop	{r4, r5, r6, pc}
 1243              	.LVL116:
 1244              	.L109:
 233:..\..\..\arduinoLCD\test\Pain Drain\libraries\lvgl\src\core/lv_event.c **** 
 1245              		.loc 1 233 0
 1246 007e 0020     		movs	r0, #0
 1247              	.LVL117:
 1248 0080 70BD     		pop	{r4, r5, r6, pc}
 1249              	.LVL118:
 1250              	.L110:
 246:..\..\..\arduinoLCD\test\Pain Drain\libraries\lvgl\src\core/lv_event.c ****         }
 1251              		.loc 1 246 0
 1252 0082 0120     		movs	r0, #1
 252:..\..\..\arduinoLCD\test\Pain Drain\libraries\lvgl\src\core/lv_event.c **** 
 1253              		.loc 1 252 0
 1254 0084 70BD     		pop	{r4, r5, r6, pc}
 1255              		.cfi_endproc
 1256              	.LFE173:
 1257              		.size	lv_obj_remove_event_dsc, .-lv_obj_remove_event_dsc
 1258 0086 00BF     		.section	.text.lv_obj_get_event_user_data,"ax",%progbits
 1259              		.align	2
 1260              		.global	lv_obj_get_event_user_data
 1261              		.thumb
 1262              		.thumb_func
 1263              		.type	lv_obj_get_event_user_data, %function
 1264              	lv_obj_get_event_user_data:
 1265              	.LFB174:
 255:..\..\..\arduinoLCD\test\Pain Drain\libraries\lvgl\src\core/lv_event.c ****     LV_ASSERT_OBJ(obj, MY_CLASS);
 1266              		.loc 1 255 0
 1267              		.cfi_startproc
 1268              		@ args = 0, pretend = 0, frame = 0
 1269              		@ frame_needed = 0, uses_anonymous_args = 0
 1270              		@ link register save eliminated.
 1271              	.LVL119:
 1272 0000 30B4     		push	{r4, r5}
 1273              		.cfi_def_cfa_offset 8
 1274              		.cfi_offset 4, -8
 1275              		.cfi_offset 5, -4
 257:..\..\..\arduinoLCD\test\Pain Drain\libraries\lvgl\src\core/lv_event.c **** 
 1276              		.loc 1 257 0
 1277 0002 8568     		ldr	r5, [r0, #8]
 1278 0004 9DB1     		cbz	r5, .L118
 1279 0006 0023     		movs	r3, #0
 1280 0008 0AE0     		b	.L115
 1281              	.LVL120:
 1282              	.L117:
 261:..\..\..\arduinoLCD\test\Pain Drain\libraries\lvgl\src\core/lv_event.c ****     }
 1283              		.loc 1 261 0
 1284 000a E868     		ldr	r0, [r5, #12]
ARM GAS  C:\Users\haske\AppData\Local\Temp\ccnNTYZ7.s 			page 36


 1285 000c 03EB4304 		add	r4, r3, r3, lsl #1
 1286 0010 A200     		lsls	r2, r4, #2
 1287 0012 8418     		adds	r4, r0, r2
 1288 0014 8258     		ldr	r2, [r0, r2]
 1289 0016 8A42     		cmp	r2, r1
 1290 0018 01D1     		bne	.L116
 261:..\..\..\arduinoLCD\test\Pain Drain\libraries\lvgl\src\core/lv_event.c ****     }
 1291              		.loc 1 261 0 is_stmt 0 discriminator 1
 1292 001a 6068     		ldr	r0, [r4, #4]
 1293 001c 08E0     		b	.L114
 1294              	.L116:
 260:..\..\..\arduinoLCD\test\Pain Drain\libraries\lvgl\src\core/lv_event.c ****         if(event_cb == obj->spec_attr->event_dsc[i].cb) return obj->spec_attr->event_dsc[i].user_da
 1295              		.loc 1 260 0 is_stmt 1 discriminator 2
 1296 001e 0133     		adds	r3, r3, #1
 1297              	.LVL121:
 1298              	.L115:
 260:..\..\..\arduinoLCD\test\Pain Drain\libraries\lvgl\src\core/lv_event.c ****         if(event_cb == obj->spec_attr->event_dsc[i].cb) return obj->spec_attr->event_dsc[i].user_da
 1299              		.loc 1 260 0 is_stmt 0 discriminator 1
 1300 0020 AA7E     		ldrb	r2, [r5, #26]	@ zero_extendqisi2
 1301 0022 02F03F02 		and	r2, r2, #63
 1302 0026 9342     		cmp	r3, r2
 1303 0028 EFDB     		blt	.L117
 263:..\..\..\arduinoLCD\test\Pain Drain\libraries\lvgl\src\core/lv_event.c **** }
 1304              		.loc 1 263 0 is_stmt 1
 1305 002a 0020     		movs	r0, #0
 1306 002c 00E0     		b	.L114
 1307              	.LVL122:
 1308              	.L118:
 257:..\..\..\arduinoLCD\test\Pain Drain\libraries\lvgl\src\core/lv_event.c **** 
 1309              		.loc 1 257 0
 1310 002e 0020     		movs	r0, #0
 1311              	.LVL123:
 1312              	.L114:
 264:..\..\..\arduinoLCD\test\Pain Drain\libraries\lvgl\src\core/lv_event.c **** 
 1313              		.loc 1 264 0
 1314 0030 30BC     		pop	{r4, r5}
 1315              		.cfi_restore 5
 1316              		.cfi_restore 4
 1317              		.cfi_def_cfa_offset 0
 1318 0032 7047     		bx	lr
 1319              		.cfi_endproc
 1320              	.LFE174:
 1321              		.size	lv_obj_get_event_user_data, .-lv_obj_get_event_user_data
 1322              		.section	.text.lv_event_get_indev,"ax",%progbits
 1323              		.align	2
 1324              		.global	lv_event_get_indev
 1325              		.thumb
 1326              		.thumb_func
 1327              		.type	lv_event_get_indev, %function
 1328              	lv_event_get_indev:
 1329              	.LFB175:
 267:..\..\..\arduinoLCD\test\Pain Drain\libraries\lvgl\src\core/lv_event.c **** 
 1330              		.loc 1 267 0
 1331              		.cfi_startproc
 1332              		@ args = 0, pretend = 0, frame = 0
 1333              		@ frame_needed = 0, uses_anonymous_args = 0
 1334              	.LVL124:
ARM GAS  C:\Users\haske\AppData\Local\Temp\ccnNTYZ7.s 			page 37


 1335 0000 08B5     		push	{r3, lr}
 1336              		.cfi_def_cfa_offset 8
 1337              		.cfi_offset 3, -8
 1338              		.cfi_offset 14, -4
 269:..\..\..\arduinoLCD\test\Pain Drain\libraries\lvgl\src\core/lv_event.c ****        e->code == LV_EVENT_PRESSING ||
 1339              		.loc 1 269 0
 1340 0002 037A     		ldrb	r3, [r0, #8]	@ zero_extendqisi2
 283:..\..\..\arduinoLCD\test\Pain Drain\libraries\lvgl\src\core/lv_event.c ****        e->code == LV_EVENT_LEAVE) {
 1341              		.loc 1 283 0
 1342 0004 013B     		subs	r3, r3, #1
 1343 0006 DBB2     		uxtb	r3, r3
 269:..\..\..\arduinoLCD\test\Pain Drain\libraries\lvgl\src\core/lv_event.c ****        e->code == LV_EVENT_PRESSING ||
 1344              		.loc 1 269 0
 1345 0008 0F2B     		cmp	r3, #15
 1346 000a 02D8     		bhi	.L122
 285:..\..\..\arduinoLCD\test\Pain Drain\libraries\lvgl\src\core/lv_event.c ****     }
 1347              		.loc 1 285 0
 1348 000c FFF7FEFF 		bl	lv_event_get_param
 1349              	.LVL125:
 1350 0010 08BD     		pop	{r3, pc}
 1351              	.LVL126:
 1352              	.L122:
 289:..\..\..\arduinoLCD\test\Pain Drain\libraries\lvgl\src\core/lv_event.c ****     }
 1353              		.loc 1 289 0
 1354 0012 0020     		movs	r0, #0
 1355              	.LVL127:
 291:..\..\..\arduinoLCD\test\Pain Drain\libraries\lvgl\src\core/lv_event.c **** 
 1356              		.loc 1 291 0
 1357 0014 08BD     		pop	{r3, pc}
 1358              		.cfi_endproc
 1359              	.LFE175:
 1360              		.size	lv_event_get_indev, .-lv_event_get_indev
 1361 0016 00BF     		.section	.text.lv_event_get_draw_part_dsc,"ax",%progbits
 1362              		.align	2
 1363              		.global	lv_event_get_draw_part_dsc
 1364              		.thumb
 1365              		.thumb_func
 1366              		.type	lv_event_get_draw_part_dsc, %function
 1367              	lv_event_get_draw_part_dsc:
 1368              	.LFB176:
 294:..\..\..\arduinoLCD\test\Pain Drain\libraries\lvgl\src\core/lv_event.c ****     if(e->code == LV_EVENT_DRAW_PART_BEGIN ||
 1369              		.loc 1 294 0
 1370              		.cfi_startproc
 1371              		@ args = 0, pretend = 0, frame = 0
 1372              		@ frame_needed = 0, uses_anonymous_args = 0
 1373              	.LVL128:
 1374 0000 08B5     		push	{r3, lr}
 1375              		.cfi_def_cfa_offset 8
 1376              		.cfi_offset 3, -8
 1377              		.cfi_offset 14, -4
 295:..\..\..\arduinoLCD\test\Pain Drain\libraries\lvgl\src\core/lv_event.c ****        e->code == LV_EVENT_DRAW_PART_END) {
 1378              		.loc 1 295 0
 1379 0002 037A     		ldrb	r3, [r0, #8]	@ zero_extendqisi2
 1380 0004 1A3B     		subs	r3, r3, #26
 1381 0006 DBB2     		uxtb	r3, r3
 1382 0008 012B     		cmp	r3, #1
 1383 000a 02D8     		bhi	.L126
ARM GAS  C:\Users\haske\AppData\Local\Temp\ccnNTYZ7.s 			page 38


 297:..\..\..\arduinoLCD\test\Pain Drain\libraries\lvgl\src\core/lv_event.c ****     }
 1384              		.loc 1 297 0
 1385 000c FFF7FEFF 		bl	lv_event_get_param
 1386              	.LVL129:
 1387 0010 08BD     		pop	{r3, pc}
 1388              	.LVL130:
 1389              	.L126:
 301:..\..\..\arduinoLCD\test\Pain Drain\libraries\lvgl\src\core/lv_event.c ****     }
 1390              		.loc 1 301 0
 1391 0012 0020     		movs	r0, #0
 1392              	.LVL131:
 303:..\..\..\arduinoLCD\test\Pain Drain\libraries\lvgl\src\core/lv_event.c **** 
 1393              		.loc 1 303 0
 1394 0014 08BD     		pop	{r3, pc}
 1395              		.cfi_endproc
 1396              	.LFE176:
 1397              		.size	lv_event_get_draw_part_dsc, .-lv_event_get_draw_part_dsc
 1398 0016 00BF     		.section	.text.lv_event_get_draw_ctx,"ax",%progbits
 1399              		.align	2
 1400              		.global	lv_event_get_draw_ctx
 1401              		.thumb
 1402              		.thumb_func
 1403              		.type	lv_event_get_draw_ctx, %function
 1404              	lv_event_get_draw_ctx:
 1405              	.LFB177:
 306:..\..\..\arduinoLCD\test\Pain Drain\libraries\lvgl\src\core/lv_event.c ****     if(e->code == LV_EVENT_DRAW_MAIN ||
 1406              		.loc 1 306 0
 1407              		.cfi_startproc
 1408              		@ args = 0, pretend = 0, frame = 0
 1409              		@ frame_needed = 0, uses_anonymous_args = 0
 1410              	.LVL132:
 1411 0000 08B5     		push	{r3, lr}
 1412              		.cfi_def_cfa_offset 8
 1413              		.cfi_offset 3, -8
 1414              		.cfi_offset 14, -4
 307:..\..\..\arduinoLCD\test\Pain Drain\libraries\lvgl\src\core/lv_event.c ****        e->code == LV_EVENT_DRAW_MAIN_BEGIN ||
 1415              		.loc 1 307 0
 1416 0002 027A     		ldrb	r2, [r0, #8]	@ zero_extendqisi2
 308:..\..\..\arduinoLCD\test\Pain Drain\libraries\lvgl\src\core/lv_event.c ****        e->code == LV_EVENT_DRAW_MAIN_END ||
 1417              		.loc 1 308 0
 1418 0004 A2F11403 		sub	r3, r2, #20
 1419 0008 DBB2     		uxtb	r3, r3
 307:..\..\..\arduinoLCD\test\Pain Drain\libraries\lvgl\src\core/lv_event.c ****        e->code == LV_EVENT_DRAW_MAIN_BEGIN ||
 1420              		.loc 1 307 0
 1421 000a 022B     		cmp	r3, #2
 1422 000c 05D9     		bls	.L129
 309:..\..\..\arduinoLCD\test\Pain Drain\libraries\lvgl\src\core/lv_event.c ****        e->code == LV_EVENT_DRAW_POST ||
 1423              		.loc 1 309 0
 1424 000e 182A     		cmp	r2, #24
 1425 0010 03D0     		beq	.L129
 310:..\..\..\arduinoLCD\test\Pain Drain\libraries\lvgl\src\core/lv_event.c ****        e->code == LV_EVENT_DRAW_POST_BEGIN ||
 1426              		.loc 1 310 0
 1427 0012 172A     		cmp	r2, #23
 1428 0014 01D0     		beq	.L129
 311:..\..\..\arduinoLCD\test\Pain Drain\libraries\lvgl\src\core/lv_event.c ****        e->code == LV_EVENT_DRAW_POST_END) {
 1429              		.loc 1 311 0
 1430 0016 192A     		cmp	r2, #25
ARM GAS  C:\Users\haske\AppData\Local\Temp\ccnNTYZ7.s 			page 39


 1431 0018 02D1     		bne	.L131
 1432              	.L129:
 313:..\..\..\arduinoLCD\test\Pain Drain\libraries\lvgl\src\core/lv_event.c ****     }
 1433              		.loc 1 313 0
 1434 001a FFF7FEFF 		bl	lv_event_get_param
 1435              	.LVL133:
 1436 001e 08BD     		pop	{r3, pc}
 1437              	.LVL134:
 1438              	.L131:
 317:..\..\..\arduinoLCD\test\Pain Drain\libraries\lvgl\src\core/lv_event.c ****     }
 1439              		.loc 1 317 0
 1440 0020 0020     		movs	r0, #0
 1441              	.LVL135:
 319:..\..\..\arduinoLCD\test\Pain Drain\libraries\lvgl\src\core/lv_event.c **** 
 1442              		.loc 1 319 0
 1443 0022 08BD     		pop	{r3, pc}
 1444              		.cfi_endproc
 1445              	.LFE177:
 1446              		.size	lv_event_get_draw_ctx, .-lv_event_get_draw_ctx
 1447              		.section	.text.lv_event_get_old_size,"ax",%progbits
 1448              		.align	2
 1449              		.global	lv_event_get_old_size
 1450              		.thumb
 1451              		.thumb_func
 1452              		.type	lv_event_get_old_size, %function
 1453              	lv_event_get_old_size:
 1454              	.LFB178:
 322:..\..\..\arduinoLCD\test\Pain Drain\libraries\lvgl\src\core/lv_event.c ****     if(e->code == LV_EVENT_SIZE_CHANGED) {
 1455              		.loc 1 322 0
 1456              		.cfi_startproc
 1457              		@ args = 0, pretend = 0, frame = 0
 1458              		@ frame_needed = 0, uses_anonymous_args = 0
 1459              	.LVL136:
 1460 0000 08B5     		push	{r3, lr}
 1461              		.cfi_def_cfa_offset 8
 1462              		.cfi_offset 3, -8
 1463              		.cfi_offset 14, -4
 323:..\..\..\arduinoLCD\test\Pain Drain\libraries\lvgl\src\core/lv_event.c ****         return lv_event_get_param(e);
 1464              		.loc 1 323 0
 1465 0002 037A     		ldrb	r3, [r0, #8]	@ zero_extendqisi2
 1466 0004 292B     		cmp	r3, #41
 1467 0006 02D1     		bne	.L135
 324:..\..\..\arduinoLCD\test\Pain Drain\libraries\lvgl\src\core/lv_event.c ****     }
 1468              		.loc 1 324 0
 1469 0008 FFF7FEFF 		bl	lv_event_get_param
 1470              	.LVL137:
 1471 000c 08BD     		pop	{r3, pc}
 1472              	.LVL138:
 1473              	.L135:
 328:..\..\..\arduinoLCD\test\Pain Drain\libraries\lvgl\src\core/lv_event.c ****     }
 1474              		.loc 1 328 0
 1475 000e 0020     		movs	r0, #0
 1476              	.LVL139:
 330:..\..\..\arduinoLCD\test\Pain Drain\libraries\lvgl\src\core/lv_event.c **** 
 1477              		.loc 1 330 0
 1478 0010 08BD     		pop	{r3, pc}
 1479              		.cfi_endproc
ARM GAS  C:\Users\haske\AppData\Local\Temp\ccnNTYZ7.s 			page 40


 1480              	.LFE178:
 1481              		.size	lv_event_get_old_size, .-lv_event_get_old_size
 1482 0012 00BF     		.section	.text.lv_event_get_key,"ax",%progbits
 1483              		.align	2
 1484              		.global	lv_event_get_key
 1485              		.thumb
 1486              		.thumb_func
 1487              		.type	lv_event_get_key, %function
 1488              	lv_event_get_key:
 1489              	.LFB179:
 333:..\..\..\arduinoLCD\test\Pain Drain\libraries\lvgl\src\core/lv_event.c ****     if(e->code == LV_EVENT_KEY) {
 1490              		.loc 1 333 0
 1491              		.cfi_startproc
 1492              		@ args = 0, pretend = 0, frame = 0
 1493              		@ frame_needed = 0, uses_anonymous_args = 0
 1494              	.LVL140:
 1495 0000 08B5     		push	{r3, lr}
 1496              		.cfi_def_cfa_offset 8
 1497              		.cfi_offset 3, -8
 1498              		.cfi_offset 14, -4
 334:..\..\..\arduinoLCD\test\Pain Drain\libraries\lvgl\src\core/lv_event.c ****         uint32_t * k = lv_event_get_param(e);
 1499              		.loc 1 334 0
 1500 0002 037A     		ldrb	r3, [r0, #8]	@ zero_extendqisi2
 1501 0004 0D2B     		cmp	r3, #13
 1502 0006 04D1     		bne	.L139
 1503              	.LBB2:
 335:..\..\..\arduinoLCD\test\Pain Drain\libraries\lvgl\src\core/lv_event.c ****         if(k) return *k;
 1504              		.loc 1 335 0
 1505 0008 FFF7FEFF 		bl	lv_event_get_param
 1506              	.LVL141:
 336:..\..\..\arduinoLCD\test\Pain Drain\libraries\lvgl\src\core/lv_event.c ****         else return 0;
 1507              		.loc 1 336 0
 1508 000c 18B1     		cbz	r0, .L140
 336:..\..\..\arduinoLCD\test\Pain Drain\libraries\lvgl\src\core/lv_event.c ****         else return 0;
 1509              		.loc 1 336 0 is_stmt 0 discriminator 1
 1510 000e 0068     		ldr	r0, [r0]
 1511              	.LVL142:
 1512 0010 08BD     		pop	{r3, pc}
 1513              	.LVL143:
 1514              	.L139:
 1515              	.LBE2:
 341:..\..\..\arduinoLCD\test\Pain Drain\libraries\lvgl\src\core/lv_event.c ****     }
 1516              		.loc 1 341 0 is_stmt 1
 1517 0012 0020     		movs	r0, #0
 1518              	.LVL144:
 1519 0014 08BD     		pop	{r3, pc}
 1520              	.LVL145:
 1521              	.L140:
 1522              	.LBB3:
 337:..\..\..\arduinoLCD\test\Pain Drain\libraries\lvgl\src\core/lv_event.c ****     }
 1523              		.loc 1 337 0
 1524 0016 0020     		movs	r0, #0
 1525              	.LVL146:
 1526              	.LBE3:
 343:..\..\..\arduinoLCD\test\Pain Drain\libraries\lvgl\src\core/lv_event.c **** 
 1527              		.loc 1 343 0
 1528 0018 08BD     		pop	{r3, pc}
ARM GAS  C:\Users\haske\AppData\Local\Temp\ccnNTYZ7.s 			page 41


 1529              		.cfi_endproc
 1530              	.LFE179:
 1531              		.size	lv_event_get_key, .-lv_event_get_key
 1532 001a 00BF     		.section	.text.lv_event_get_scroll_anim,"ax",%progbits
 1533              		.align	2
 1534              		.global	lv_event_get_scroll_anim
 1535              		.thumb
 1536              		.thumb_func
 1537              		.type	lv_event_get_scroll_anim, %function
 1538              	lv_event_get_scroll_anim:
 1539              	.LFB180:
 346:..\..\..\arduinoLCD\test\Pain Drain\libraries\lvgl\src\core/lv_event.c ****     if(e->code == LV_EVENT_SCROLL_BEGIN) {
 1540              		.loc 1 346 0
 1541              		.cfi_startproc
 1542              		@ args = 0, pretend = 0, frame = 0
 1543              		@ frame_needed = 0, uses_anonymous_args = 0
 1544              	.LVL147:
 1545 0000 08B5     		push	{r3, lr}
 1546              		.cfi_def_cfa_offset 8
 1547              		.cfi_offset 3, -8
 1548              		.cfi_offset 14, -4
 347:..\..\..\arduinoLCD\test\Pain Drain\libraries\lvgl\src\core/lv_event.c ****         return lv_event_get_param(e);
 1549              		.loc 1 347 0
 1550 0002 037A     		ldrb	r3, [r0, #8]	@ zero_extendqisi2
 1551 0004 092B     		cmp	r3, #9
 1552 0006 02D1     		bne	.L144
 348:..\..\..\arduinoLCD\test\Pain Drain\libraries\lvgl\src\core/lv_event.c ****     }
 1553              		.loc 1 348 0
 1554 0008 FFF7FEFF 		bl	lv_event_get_param
 1555              	.LVL148:
 1556 000c 08BD     		pop	{r3, pc}
 1557              	.LVL149:
 1558              	.L144:
 352:..\..\..\arduinoLCD\test\Pain Drain\libraries\lvgl\src\core/lv_event.c ****     }
 1559              		.loc 1 352 0
 1560 000e 0020     		movs	r0, #0
 1561              	.LVL150:
 354:..\..\..\arduinoLCD\test\Pain Drain\libraries\lvgl\src\core/lv_event.c **** 
 1562              		.loc 1 354 0
 1563 0010 08BD     		pop	{r3, pc}
 1564              		.cfi_endproc
 1565              	.LFE180:
 1566              		.size	lv_event_get_scroll_anim, .-lv_event_get_scroll_anim
 1567 0012 00BF     		.section	.text.lv_event_set_ext_draw_size,"ax",%progbits
 1568              		.align	2
 1569              		.global	lv_event_set_ext_draw_size
 1570              		.thumb
 1571              		.thumb_func
 1572              		.type	lv_event_set_ext_draw_size, %function
 1573              	lv_event_set_ext_draw_size:
 1574              	.LFB181:
 357:..\..\..\arduinoLCD\test\Pain Drain\libraries\lvgl\src\core/lv_event.c ****     if(e->code == LV_EVENT_REFR_EXT_DRAW_SIZE) {
 1575              		.loc 1 357 0
 1576              		.cfi_startproc
 1577              		@ args = 0, pretend = 0, frame = 0
 1578              		@ frame_needed = 0, uses_anonymous_args = 0
 1579              	.LVL151:
ARM GAS  C:\Users\haske\AppData\Local\Temp\ccnNTYZ7.s 			page 42


 358:..\..\..\arduinoLCD\test\Pain Drain\libraries\lvgl\src\core/lv_event.c ****         lv_coord_t * cur_size = lv_event_get_param(e);
 1580              		.loc 1 358 0
 1581 0000 037A     		ldrb	r3, [r0, #8]	@ zero_extendqisi2
 1582 0002 132B     		cmp	r3, #19
 1583 0004 0AD1     		bne	.L149
 357:..\..\..\arduinoLCD\test\Pain Drain\libraries\lvgl\src\core/lv_event.c ****     if(e->code == LV_EVENT_REFR_EXT_DRAW_SIZE) {
 1584              		.loc 1 357 0
 1585 0006 10B5     		push	{r4, lr}
 1586              		.cfi_def_cfa_offset 8
 1587              		.cfi_offset 4, -8
 1588              		.cfi_offset 14, -4
 1589 0008 0C46     		mov	r4, r1
 1590              	.LBB4:
 359:..\..\..\arduinoLCD\test\Pain Drain\libraries\lvgl\src\core/lv_event.c ****         *cur_size = LV_MAX(*cur_size, size);
 1591              		.loc 1 359 0
 1592 000a FFF7FEFF 		bl	lv_event_get_param
 1593              	.LVL152:
 360:..\..\..\arduinoLCD\test\Pain Drain\libraries\lvgl\src\core/lv_event.c ****     }
 1594              		.loc 1 360 0
 1595 000e B0F90010 		ldrsh	r1, [r0]
 1596 0012 A142     		cmp	r1, r4
 1597 0014 B8BF     		it	lt
 1598 0016 2146     		movlt	r1, r4
 1599 0018 0180     		strh	r1, [r0]	@ movhi
 1600 001a 10BD     		pop	{r4, pc}
 1601              	.LVL153:
 1602              	.L149:
 1603              		.cfi_def_cfa_offset 0
 1604              		.cfi_restore 4
 1605              		.cfi_restore 14
 1606 001c 7047     		bx	lr
 1607              	.LBE4:
 1608              		.cfi_endproc
 1609              	.LFE181:
 1610              		.size	lv_event_set_ext_draw_size, .-lv_event_set_ext_draw_size
 1611 001e 00BF     		.section	.text.lv_event_get_self_size_info,"ax",%progbits
 1612              		.align	2
 1613              		.global	lv_event_get_self_size_info
 1614              		.thumb
 1615              		.thumb_func
 1616              		.type	lv_event_get_self_size_info, %function
 1617              	lv_event_get_self_size_info:
 1618              	.LFB182:
 368:..\..\..\arduinoLCD\test\Pain Drain\libraries\lvgl\src\core/lv_event.c ****     if(e->code == LV_EVENT_GET_SELF_SIZE) {
 1619              		.loc 1 368 0
 1620              		.cfi_startproc
 1621              		@ args = 0, pretend = 0, frame = 0
 1622              		@ frame_needed = 0, uses_anonymous_args = 0
 1623              	.LVL154:
 1624 0000 08B5     		push	{r3, lr}
 1625              		.cfi_def_cfa_offset 8
 1626              		.cfi_offset 3, -8
 1627              		.cfi_offset 14, -4
 369:..\..\..\arduinoLCD\test\Pain Drain\libraries\lvgl\src\core/lv_event.c ****         return lv_event_get_param(e);
 1628              		.loc 1 369 0
 1629 0002 037A     		ldrb	r3, [r0, #8]	@ zero_extendqisi2
 1630 0004 2C2B     		cmp	r3, #44
ARM GAS  C:\Users\haske\AppData\Local\Temp\ccnNTYZ7.s 			page 43


 1631 0006 02D1     		bne	.L152
 370:..\..\..\arduinoLCD\test\Pain Drain\libraries\lvgl\src\core/lv_event.c ****     }
 1632              		.loc 1 370 0
 1633 0008 FFF7FEFF 		bl	lv_event_get_param
 1634              	.LVL155:
 1635 000c 08BD     		pop	{r3, pc}
 1636              	.LVL156:
 1637              	.L152:
 374:..\..\..\arduinoLCD\test\Pain Drain\libraries\lvgl\src\core/lv_event.c ****     }
 1638              		.loc 1 374 0
 1639 000e 0020     		movs	r0, #0
 1640              	.LVL157:
 376:..\..\..\arduinoLCD\test\Pain Drain\libraries\lvgl\src\core/lv_event.c **** 
 1641              		.loc 1 376 0
 1642 0010 08BD     		pop	{r3, pc}
 1643              		.cfi_endproc
 1644              	.LFE182:
 1645              		.size	lv_event_get_self_size_info, .-lv_event_get_self_size_info
 1646 0012 00BF     		.section	.text.lv_event_get_hit_test_info,"ax",%progbits
 1647              		.align	2
 1648              		.global	lv_event_get_hit_test_info
 1649              		.thumb
 1650              		.thumb_func
 1651              		.type	lv_event_get_hit_test_info, %function
 1652              	lv_event_get_hit_test_info:
 1653              	.LFB183:
 379:..\..\..\arduinoLCD\test\Pain Drain\libraries\lvgl\src\core/lv_event.c ****     if(e->code == LV_EVENT_HIT_TEST) {
 1654              		.loc 1 379 0
 1655              		.cfi_startproc
 1656              		@ args = 0, pretend = 0, frame = 0
 1657              		@ frame_needed = 0, uses_anonymous_args = 0
 1658              	.LVL158:
 1659 0000 08B5     		push	{r3, lr}
 1660              		.cfi_def_cfa_offset 8
 1661              		.cfi_offset 3, -8
 1662              		.cfi_offset 14, -4
 380:..\..\..\arduinoLCD\test\Pain Drain\libraries\lvgl\src\core/lv_event.c ****         return lv_event_get_param(e);
 1663              		.loc 1 380 0
 1664 0002 037A     		ldrb	r3, [r0, #8]	@ zero_extendqisi2
 1665 0004 112B     		cmp	r3, #17
 1666 0006 02D1     		bne	.L156
 381:..\..\..\arduinoLCD\test\Pain Drain\libraries\lvgl\src\core/lv_event.c ****     }
 1667              		.loc 1 381 0
 1668 0008 FFF7FEFF 		bl	lv_event_get_param
 1669              	.LVL159:
 1670 000c 08BD     		pop	{r3, pc}
 1671              	.LVL160:
 1672              	.L156:
 385:..\..\..\arduinoLCD\test\Pain Drain\libraries\lvgl\src\core/lv_event.c ****     }
 1673              		.loc 1 385 0
 1674 000e 0020     		movs	r0, #0
 1675              	.LVL161:
 387:..\..\..\arduinoLCD\test\Pain Drain\libraries\lvgl\src\core/lv_event.c **** 
 1676              		.loc 1 387 0
 1677 0010 08BD     		pop	{r3, pc}
 1678              		.cfi_endproc
 1679              	.LFE183:
ARM GAS  C:\Users\haske\AppData\Local\Temp\ccnNTYZ7.s 			page 44


 1680              		.size	lv_event_get_hit_test_info, .-lv_event_get_hit_test_info
 1681 0012 00BF     		.section	.text.lv_event_get_cover_area,"ax",%progbits
 1682              		.align	2
 1683              		.global	lv_event_get_cover_area
 1684              		.thumb
 1685              		.thumb_func
 1686              		.type	lv_event_get_cover_area, %function
 1687              	lv_event_get_cover_area:
 1688              	.LFB184:
 390:..\..\..\arduinoLCD\test\Pain Drain\libraries\lvgl\src\core/lv_event.c ****     if(e->code == LV_EVENT_COVER_CHECK) {
 1689              		.loc 1 390 0
 1690              		.cfi_startproc
 1691              		@ args = 0, pretend = 0, frame = 0
 1692              		@ frame_needed = 0, uses_anonymous_args = 0
 1693              	.LVL162:
 1694 0000 08B5     		push	{r3, lr}
 1695              		.cfi_def_cfa_offset 8
 1696              		.cfi_offset 3, -8
 1697              		.cfi_offset 14, -4
 391:..\..\..\arduinoLCD\test\Pain Drain\libraries\lvgl\src\core/lv_event.c ****         lv_cover_check_info_t * p = lv_event_get_param(e);
 1698              		.loc 1 391 0
 1699 0002 037A     		ldrb	r3, [r0, #8]	@ zero_extendqisi2
 1700 0004 122B     		cmp	r3, #18
 1701 0006 03D1     		bne	.L160
 1702              	.LBB5:
 392:..\..\..\arduinoLCD\test\Pain Drain\libraries\lvgl\src\core/lv_event.c ****         return p->area;
 1703              		.loc 1 392 0
 1704 0008 FFF7FEFF 		bl	lv_event_get_param
 1705              	.LVL163:
 393:..\..\..\arduinoLCD\test\Pain Drain\libraries\lvgl\src\core/lv_event.c ****     }
 1706              		.loc 1 393 0
 1707 000c 4068     		ldr	r0, [r0, #4]
 1708              	.LVL164:
 1709 000e 08BD     		pop	{r3, pc}
 1710              	.LVL165:
 1711              	.L160:
 1712              	.LBE5:
 397:..\..\..\arduinoLCD\test\Pain Drain\libraries\lvgl\src\core/lv_event.c ****     }
 1713              		.loc 1 397 0
 1714 0010 0020     		movs	r0, #0
 1715              	.LVL166:
 399:..\..\..\arduinoLCD\test\Pain Drain\libraries\lvgl\src\core/lv_event.c **** 
 1716              		.loc 1 399 0
 1717 0012 08BD     		pop	{r3, pc}
 1718              		.cfi_endproc
 1719              	.LFE184:
 1720              		.size	lv_event_get_cover_area, .-lv_event_get_cover_area
 1721              		.section	.text.lv_event_set_cover_res,"ax",%progbits
 1722              		.align	2
 1723              		.global	lv_event_set_cover_res
 1724              		.thumb
 1725              		.thumb_func
 1726              		.type	lv_event_set_cover_res, %function
 1727              	lv_event_set_cover_res:
 1728              	.LFB185:
 402:..\..\..\arduinoLCD\test\Pain Drain\libraries\lvgl\src\core/lv_event.c ****     if(e->code == LV_EVENT_COVER_CHECK) {
 1729              		.loc 1 402 0
ARM GAS  C:\Users\haske\AppData\Local\Temp\ccnNTYZ7.s 			page 45


 1730              		.cfi_startproc
 1731              		@ args = 0, pretend = 0, frame = 0
 1732              		@ frame_needed = 0, uses_anonymous_args = 0
 1733              	.LVL167:
 403:..\..\..\arduinoLCD\test\Pain Drain\libraries\lvgl\src\core/lv_event.c ****         lv_cover_check_info_t * p = lv_event_get_param(e);
 1734              		.loc 1 403 0
 1735 0000 037A     		ldrb	r3, [r0, #8]	@ zero_extendqisi2
 1736 0002 122B     		cmp	r3, #18
 1737 0004 08D1     		bne	.L165
 402:..\..\..\arduinoLCD\test\Pain Drain\libraries\lvgl\src\core/lv_event.c ****     if(e->code == LV_EVENT_COVER_CHECK) {
 1738              		.loc 1 402 0
 1739 0006 10B5     		push	{r4, lr}
 1740              		.cfi_def_cfa_offset 8
 1741              		.cfi_offset 4, -8
 1742              		.cfi_offset 14, -4
 1743 0008 0C46     		mov	r4, r1
 1744              	.LBB6:
 404:..\..\..\arduinoLCD\test\Pain Drain\libraries\lvgl\src\core/lv_event.c ****         if(res > p->res) p->res = res;  /*Save only "stronger" results*/
 1745              		.loc 1 404 0
 1746 000a FFF7FEFF 		bl	lv_event_get_param
 1747              	.LVL168:
 405:..\..\..\arduinoLCD\test\Pain Drain\libraries\lvgl\src\core/lv_event.c ****     }
 1748              		.loc 1 405 0
 1749 000e 0378     		ldrb	r3, [r0]	@ zero_extendqisi2
 1750 0010 A342     		cmp	r3, r4
 1751 0012 00D2     		bcs	.L162
 405:..\..\..\arduinoLCD\test\Pain Drain\libraries\lvgl\src\core/lv_event.c ****     }
 1752              		.loc 1 405 0 is_stmt 0 discriminator 1
 1753 0014 0470     		strb	r4, [r0]
 1754              	.L162:
 1755 0016 10BD     		pop	{r4, pc}
 1756              	.LVL169:
 1757              	.L165:
 1758              		.cfi_def_cfa_offset 0
 1759              		.cfi_restore 4
 1760              		.cfi_restore 14
 1761 0018 7047     		bx	lr
 1762              	.LBE6:
 1763              		.cfi_endproc
 1764              	.LFE185:
 1765              		.size	lv_event_set_cover_res, .-lv_event_set_cover_res
 1766 001a 00BF     		.data
 1767              		.align	2
 1768              		.set	.LANCHOR1,. + 0
 1769              		.type	last_id.8886, %object
 1770              		.size	last_id.8886, 4
 1771              	last_id.8886:
 1772 0000 2D000000 		.word	45
 1773              		.bss
 1774              		.align	2
 1775              		.set	.LANCHOR0,. + 0
 1776              		.type	event_head, %object
 1777              		.size	event_head, 4
 1778              	event_head:
 1779 0000 00000000 		.space	4
 1780              		.text
 1781              	.Letext0:
ARM GAS  C:\Users\haske\AppData\Local\Temp\ccnNTYZ7.s 			page 46


 1782              		.file 2 "c:\\program files (x86)\\cypress\\psoc creator\\4.4\\psoc creator\\import\\gnu\\arm\\5.4.
 1783              		.file 3 "c:\\program files (x86)\\cypress\\psoc creator\\4.4\\psoc creator\\import\\gnu\\arm\\5.4.
 1784              		.file 4 "c:\\program files (x86)\\cypress\\psoc creator\\4.4\\psoc creator\\import\\gnu\\arm\\5.4.
 1785              		.file 5 "c:\\projects\\paindrain\\arduinolcd\\test\\pain drain\\libraries\\lvgl\\src\\misc\\lv_are
 1786              		.file 6 "c:\\projects\\paindrain\\arduinolcd\\test\\pain drain\\libraries\\lvgl\\src\\font\\lv_fon
 1787              		.file 7 "..\\..\\..\\arduinoLCD\\test\\Pain Drain\\libraries\\lvgl\\src\\core\\../misc/lv_types.h"
 1788              		.file 8 "..\\..\\..\\arduinoLCD\\test\\Pain Drain\\libraries\\lvgl\\src\\core\\../misc/lv_color.h"
 1789              		.file 9 "..\\..\\..\\arduinoLCD\\test\\Pain Drain\\libraries\\lvgl\\src\\core\\../misc/lv_anim.h"
 1790              		.file 10 "..\\..\\..\\arduinoLCD\\test\\Pain Drain\\libraries\\lvgl\\src\\core\\../misc/lv_txt.h"
 1791              		.file 11 "..\\..\\..\\arduinoLCD\\test\\Pain Drain\\libraries\\lvgl\\src\\core\\../misc/lv_bidi.h"
 1792              		.file 12 "..\\..\\..\\arduinoLCD\\test\\Pain Drain\\libraries\\lvgl\\src\\core\\../misc/lv_style.h
 1793              		.file 13 "c:\\projects\\paindrain\\arduinolcd\\test\\pain drain\\libraries\\lvgl\\src\\draw\\lv_im
 1794              		.file 14 "..\\..\\..\\arduinoLCD\\test\\Pain Drain\\libraries\\lvgl\\src\\core\\lv_obj.h"
 1795              		.file 15 "c:\\projects\\paindrain\\arduinolcd\\test\\pain drain\\libraries\\lvgl\\src\\draw\\lv_dr
 1796              		.file 16 "c:\\projects\\paindrain\\arduinolcd\\test\\pain drain\\libraries\\lvgl\\src\\draw\\lv_dr
 1797              		.file 17 "c:\\projects\\paindrain\\arduinolcd\\test\\pain drain\\libraries\\lvgl\\src\\draw\\lv_dr
 1798              		.file 18 "c:\\projects\\paindrain\\arduinolcd\\test\\pain drain\\libraries\\lvgl\\src\\draw\\lv_dr
 1799              		.file 19 "c:\\projects\\paindrain\\arduinolcd\\test\\pain drain\\libraries\\lvgl\\src\\draw\\lv_dr
 1800              		.file 20 "c:\\projects\\paindrain\\arduinolcd\\test\\pain drain\\libraries\\lvgl\\src\\draw\\lv_dr
 1801              		.file 21 "c:\\projects\\paindrain\\arduinolcd\\test\\pain drain\\libraries\\lvgl\\src\\draw\\lv_dr
 1802              		.file 22 "c:\\projects\\paindrain\\arduinolcd\\test\\pain drain\\libraries\\lvgl\\src\\misc\\lv_ll
 1803              		.file 23 "c:\\projects\\paindrain\\arduinolcd\\test\\pain drain\\libraries\\lvgl\\src\\misc\\lv_ti
 1804              		.file 24 "..\\..\\..\\arduinoLCD\\test\\Pain Drain\\libraries\\lvgl\\src\\core\\../hal/lv_hal_disp
 1805              		.file 25 "..\\..\\..\\arduinoLCD\\test\\Pain Drain\\libraries\\lvgl\\src\\core\\../hal/lv_hal_inde
 1806              		.file 26 "..\\..\\..\\arduinoLCD\\test\\Pain Drain\\libraries\\lvgl\\src\\core\\lv_group.h"
 1807              		.file 27 "..\\..\\..\\arduinoLCD\\test\\Pain Drain\\libraries\\lvgl\\src\\core\\lv_obj_scroll.h"
 1808              		.file 28 "..\\..\\..\\arduinoLCD\\test\\Pain Drain\\libraries\\lvgl\\src\\core\\lv_obj_style.h"
 1809              		.file 29 "..\\..\\..\\arduinoLCD\\test\\Pain Drain\\libraries\\lvgl\\src\\core\\lv_obj_draw.h"
 1810              		.file 30 "..\\..\\..\\arduinoLCD\\test\\Pain Drain\\libraries\\lvgl\\src\\core\\lv_obj_class.h"
 1811              		.file 31 "..\\..\\..\\arduinoLCD\\test\\Pain Drain\\libraries\\lvgl\\src\\core\\lv_event.h"
 1812              		.file 32 "..\\..\\..\\arduinoLCD\\test\\Pain Drain\\libraries\\lvgl\\src\\core\\lv_indev.h"
 1813              		.file 33 "..\\..\\..\\arduinoLCD\\test\\Pain Drain\\libraries\\lvgl\\src\\core\\../misc/lv_mem.h"
 1814              		.section	.debug_info,"",%progbits
 1815              	.Ldebug_info0:
 1816 0000 272B0000 		.4byte	0x2b27
 1817 0004 0400     		.2byte	0x4
 1818 0006 00000000 		.4byte	.Ldebug_abbrev0
 1819 000a 04       		.byte	0x4
 1820 000b 01       		.uleb128 0x1
 1821 000c D8110000 		.4byte	.LASF634
 1822 0010 0C       		.byte	0xc
 1823 0011 12050000 		.4byte	.LASF635
 1824 0015 FA200000 		.4byte	.LASF636
 1825 0019 18000000 		.4byte	.Ldebug_ranges0+0x18
 1826 001d 00000000 		.4byte	0
 1827 0021 00000000 		.4byte	.Ldebug_line0
 1828 0025 02       		.uleb128 0x2
 1829 0026 061B0000 		.4byte	.LASF0
 1830 002a 02       		.byte	0x2
 1831 002b 1B       		.byte	0x1b
 1832 002c 30000000 		.4byte	0x30
 1833 0030 03       		.uleb128 0x3
 1834 0031 01       		.byte	0x1
 1835 0032 06       		.byte	0x6
 1836 0033 67070000 		.4byte	.LASF2
 1837 0037 02       		.uleb128 0x2
 1838 0038 12040000 		.4byte	.LASF1
ARM GAS  C:\Users\haske\AppData\Local\Temp\ccnNTYZ7.s 			page 47


 1839 003c 02       		.byte	0x2
 1840 003d 1D       		.byte	0x1d
 1841 003e 42000000 		.4byte	0x42
 1842 0042 03       		.uleb128 0x3
 1843 0043 01       		.byte	0x1
 1844 0044 08       		.byte	0x8
 1845 0045 87080000 		.4byte	.LASF3
 1846 0049 02       		.uleb128 0x2
 1847 004a 961D0000 		.4byte	.LASF4
 1848 004e 02       		.byte	0x2
 1849 004f 29       		.byte	0x29
 1850 0050 54000000 		.4byte	0x54
 1851 0054 03       		.uleb128 0x3
 1852 0055 02       		.byte	0x2
 1853 0056 05       		.byte	0x5
 1854 0057 491F0000 		.4byte	.LASF5
 1855 005b 02       		.uleb128 0x2
 1856 005c 630B0000 		.4byte	.LASF6
 1857 0060 02       		.byte	0x2
 1858 0061 2B       		.byte	0x2b
 1859 0062 66000000 		.4byte	0x66
 1860 0066 03       		.uleb128 0x3
 1861 0067 02       		.byte	0x2
 1862 0068 07       		.byte	0x7
 1863 0069 63230000 		.4byte	.LASF7
 1864 006d 02       		.uleb128 0x2
 1865 006e 26240000 		.4byte	.LASF8
 1866 0072 02       		.byte	0x2
 1867 0073 3F       		.byte	0x3f
 1868 0074 78000000 		.4byte	0x78
 1869 0078 03       		.uleb128 0x3
 1870 0079 04       		.byte	0x4
 1871 007a 05       		.byte	0x5
 1872 007b 6C050000 		.4byte	.LASF9
 1873 007f 02       		.uleb128 0x2
 1874 0080 85140000 		.4byte	.LASF10
 1875 0084 02       		.byte	0x2
 1876 0085 41       		.byte	0x41
 1877 0086 8A000000 		.4byte	0x8a
 1878 008a 03       		.uleb128 0x3
 1879 008b 04       		.byte	0x4
 1880 008c 07       		.byte	0x7
 1881 008d AA100000 		.4byte	.LASF11
 1882 0091 03       		.uleb128 0x3
 1883 0092 08       		.byte	0x8
 1884 0093 05       		.byte	0x5
 1885 0094 C5140000 		.4byte	.LASF12
 1886 0098 03       		.uleb128 0x3
 1887 0099 08       		.byte	0x8
 1888 009a 07       		.byte	0x7
 1889 009b 641B0000 		.4byte	.LASF13
 1890 009f 04       		.uleb128 0x4
 1891 00a0 04       		.byte	0x4
 1892 00a1 05       		.byte	0x5
 1893 00a2 696E7400 		.ascii	"int\000"
 1894 00a6 03       		.uleb128 0x3
 1895 00a7 04       		.byte	0x4
ARM GAS  C:\Users\haske\AppData\Local\Temp\ccnNTYZ7.s 			page 48


 1896 00a8 07       		.byte	0x7
 1897 00a9 DF160000 		.4byte	.LASF14
 1898 00ad 02       		.uleb128 0x2
 1899 00ae 20000000 		.4byte	.LASF15
 1900 00b2 03       		.byte	0x3
 1901 00b3 14       		.byte	0x14
 1902 00b4 25000000 		.4byte	0x25
 1903 00b8 02       		.uleb128 0x2
 1904 00b9 73070000 		.4byte	.LASF16
 1905 00bd 03       		.byte	0x3
 1906 00be 18       		.byte	0x18
 1907 00bf 37000000 		.4byte	0x37
 1908 00c3 02       		.uleb128 0x2
 1909 00c4 1F200000 		.4byte	.LASF17
 1910 00c8 03       		.byte	0x3
 1911 00c9 20       		.byte	0x20
 1912 00ca 49000000 		.4byte	0x49
 1913 00ce 02       		.uleb128 0x2
 1914 00cf 0D1C0000 		.4byte	.LASF18
 1915 00d3 03       		.byte	0x3
 1916 00d4 24       		.byte	0x24
 1917 00d5 5B000000 		.4byte	0x5b
 1918 00d9 02       		.uleb128 0x2
 1919 00da 73010000 		.4byte	.LASF19
 1920 00de 03       		.byte	0x3
 1921 00df 2C       		.byte	0x2c
 1922 00e0 6D000000 		.4byte	0x6d
 1923 00e4 02       		.uleb128 0x2
 1924 00e5 9A220000 		.4byte	.LASF20
 1925 00e9 03       		.byte	0x3
 1926 00ea 30       		.byte	0x30
 1927 00eb 7F000000 		.4byte	0x7f
 1928 00ef 02       		.uleb128 0x2
 1929 00f0 65000000 		.4byte	.LASF21
 1930 00f4 04       		.byte	0x4
 1931 00f5 D8       		.byte	0xd8
 1932 00f6 A6000000 		.4byte	0xa6
 1933 00fa 03       		.uleb128 0x3
 1934 00fb 08       		.byte	0x8
 1935 00fc 04       		.byte	0x4
 1936 00fd BC190000 		.4byte	.LASF22
 1937 0101 02       		.uleb128 0x2
 1938 0102 88230000 		.4byte	.LASF23
 1939 0106 05       		.byte	0x5
 1940 0107 1B       		.byte	0x1b
 1941 0108 C3000000 		.4byte	0xc3
 1942 010c 05       		.uleb128 0x5
 1943 010d 04       		.byte	0x4
 1944 010e 05       		.byte	0x5
 1945 010f 25       		.byte	0x25
 1946 0110 29010000 		.4byte	0x129
 1947 0114 06       		.uleb128 0x6
 1948 0115 7800     		.ascii	"x\000"
 1949 0117 05       		.byte	0x5
 1950 0118 26       		.byte	0x26
 1951 0119 01010000 		.4byte	0x101
 1952 011d 00       		.byte	0
ARM GAS  C:\Users\haske\AppData\Local\Temp\ccnNTYZ7.s 			page 49


 1953 011e 06       		.uleb128 0x6
 1954 011f 7900     		.ascii	"y\000"
 1955 0121 05       		.byte	0x5
 1956 0122 27       		.byte	0x27
 1957 0123 01010000 		.4byte	0x101
 1958 0127 02       		.byte	0x2
 1959 0128 00       		.byte	0
 1960 0129 02       		.uleb128 0x2
 1961 012a BB010000 		.4byte	.LASF24
 1962 012e 05       		.byte	0x5
 1963 012f 28       		.byte	0x28
 1964 0130 0C010000 		.4byte	0x10c
 1965 0134 05       		.uleb128 0x5
 1966 0135 08       		.byte	0x8
 1967 0136 05       		.byte	0x5
 1968 0137 2B       		.byte	0x2b
 1969 0138 69010000 		.4byte	0x169
 1970 013c 06       		.uleb128 0x6
 1971 013d 783100   		.ascii	"x1\000"
 1972 0140 05       		.byte	0x5
 1973 0141 2C       		.byte	0x2c
 1974 0142 01010000 		.4byte	0x101
 1975 0146 00       		.byte	0
 1976 0147 06       		.uleb128 0x6
 1977 0148 793100   		.ascii	"y1\000"
 1978 014b 05       		.byte	0x5
 1979 014c 2D       		.byte	0x2d
 1980 014d 01010000 		.4byte	0x101
 1981 0151 02       		.byte	0x2
 1982 0152 06       		.uleb128 0x6
 1983 0153 783200   		.ascii	"x2\000"
 1984 0156 05       		.byte	0x5
 1985 0157 2E       		.byte	0x2e
 1986 0158 01010000 		.4byte	0x101
 1987 015c 04       		.byte	0x4
 1988 015d 06       		.uleb128 0x6
 1989 015e 793200   		.ascii	"y2\000"
 1990 0161 05       		.byte	0x5
 1991 0162 2F       		.byte	0x2f
 1992 0163 01010000 		.4byte	0x101
 1993 0167 06       		.byte	0x6
 1994 0168 00       		.byte	0
 1995 0169 02       		.uleb128 0x2
 1996 016a A10D0000 		.4byte	.LASF25
 1997 016e 05       		.byte	0x5
 1998 016f 30       		.byte	0x30
 1999 0170 34010000 		.4byte	0x134
 2000 0174 02       		.uleb128 0x2
 2001 0175 270C0000 		.4byte	.LASF26
 2002 0179 05       		.byte	0x5
 2003 017a 59       		.byte	0x59
 2004 017b B8000000 		.4byte	0xb8
 2005 017f 05       		.uleb128 0x5
 2006 0180 10       		.byte	0x10
 2007 0181 06       		.byte	0x6
 2008 0182 29       		.byte	0x29
 2009 0183 EE010000 		.4byte	0x1ee
ARM GAS  C:\Users\haske\AppData\Local\Temp\ccnNTYZ7.s 			page 50


 2010 0187 07       		.uleb128 0x7
 2011 0188 7A110000 		.4byte	.LASF27
 2012 018c 06       		.byte	0x6
 2013 018d 2B       		.byte	0x2b
 2014 018e 76020000 		.4byte	0x276
 2015 0192 00       		.byte	0
 2016 0193 07       		.uleb128 0x7
 2017 0194 6C000000 		.4byte	.LASF28
 2018 0198 06       		.byte	0x6
 2019 0199 2C       		.byte	0x2c
 2020 019a CE000000 		.4byte	0xce
 2021 019e 04       		.byte	0x4
 2022 019f 07       		.uleb128 0x7
 2023 01a0 431F0000 		.4byte	.LASF29
 2024 01a4 06       		.byte	0x6
 2025 01a5 2D       		.byte	0x2d
 2026 01a6 CE000000 		.4byte	0xce
 2027 01aa 06       		.byte	0x6
 2028 01ab 07       		.uleb128 0x7
 2029 01ac 001F0000 		.4byte	.LASF30
 2030 01b0 06       		.byte	0x6
 2031 01b1 2E       		.byte	0x2e
 2032 01b2 CE000000 		.4byte	0xce
 2033 01b6 08       		.byte	0x8
 2034 01b7 07       		.uleb128 0x7
 2035 01b8 76090000 		.4byte	.LASF31
 2036 01bc 06       		.byte	0x6
 2037 01bd 2F       		.byte	0x2f
 2038 01be C3000000 		.4byte	0xc3
 2039 01c2 0A       		.byte	0xa
 2040 01c3 07       		.uleb128 0x7
 2041 01c4 7C090000 		.4byte	.LASF32
 2042 01c8 06       		.byte	0x6
 2043 01c9 30       		.byte	0x30
 2044 01ca C3000000 		.4byte	0xc3
 2045 01ce 0C       		.byte	0xc
 2046 01cf 08       		.uleb128 0x8
 2047 01d0 62707000 		.ascii	"bpp\000"
 2048 01d4 06       		.byte	0x6
 2049 01d5 31       		.byte	0x31
 2050 01d6 B8000000 		.4byte	0xb8
 2051 01da 01       		.byte	0x1
 2052 01db 04       		.byte	0x4
 2053 01dc 04       		.byte	0x4
 2054 01dd 0E       		.byte	0xe
 2055 01de 09       		.uleb128 0x9
 2056 01df AE250000 		.4byte	.LASF33
 2057 01e3 06       		.byte	0x6
 2058 01e4 32       		.byte	0x32
 2059 01e5 B8000000 		.4byte	0xb8
 2060 01e9 01       		.byte	0x1
 2061 01ea 01       		.byte	0x1
 2062 01eb 03       		.byte	0x3
 2063 01ec 0E       		.byte	0xe
 2064 01ed 00       		.byte	0
 2065 01ee 0A       		.uleb128 0xa
 2066 01ef 72140000 		.4byte	.LASF58
ARM GAS  C:\Users\haske\AppData\Local\Temp\ccnNTYZ7.s 			page 51


 2067 01f3 1C       		.byte	0x1c
 2068 01f4 06       		.byte	0x6
 2069 01f5 40       		.byte	0x40
 2070 01f6 76020000 		.4byte	0x276
 2071 01fa 07       		.uleb128 0x7
 2072 01fb 18240000 		.4byte	.LASF34
 2073 01ff 06       		.byte	0x6
 2074 0200 42       		.byte	0x42
 2075 0201 B7020000 		.4byte	0x2b7
 2076 0205 00       		.byte	0
 2077 0206 07       		.uleb128 0x7
 2078 0207 E4070000 		.4byte	.LASF35
 2079 020b 06       		.byte	0x6
 2080 020c 45       		.byte	0x45
 2081 020d DC020000 		.4byte	0x2dc
 2082 0211 04       		.byte	0x4
 2083 0212 07       		.uleb128 0x7
 2084 0213 FD010000 		.4byte	.LASF36
 2085 0217 06       		.byte	0x6
 2086 0218 48       		.byte	0x48
 2087 0219 01010000 		.4byte	0x101
 2088 021d 08       		.byte	0x8
 2089 021e 07       		.uleb128 0x7
 2090 021f 531F0000 		.4byte	.LASF37
 2091 0223 06       		.byte	0x6
 2092 0224 49       		.byte	0x49
 2093 0225 01010000 		.4byte	0x101
 2094 0229 0A       		.byte	0xa
 2095 022a 09       		.uleb128 0x9
 2096 022b 181A0000 		.4byte	.LASF38
 2097 022f 06       		.byte	0x6
 2098 0230 4A       		.byte	0x4a
 2099 0231 B8000000 		.4byte	0xb8
 2100 0235 01       		.byte	0x1
 2101 0236 02       		.byte	0x2
 2102 0237 06       		.byte	0x6
 2103 0238 0C       		.byte	0xc
 2104 0239 07       		.uleb128 0x7
 2105 023a B90A0000 		.4byte	.LASF39
 2106 023e 06       		.byte	0x6
 2107 023f 4C       		.byte	0x4c
 2108 0240 AD000000 		.4byte	0xad
 2109 0244 0D       		.byte	0xd
 2110 0245 07       		.uleb128 0x7
 2111 0246 F7150000 		.4byte	.LASF40
 2112 024a 06       		.byte	0x6
 2113 024b 4D       		.byte	0x4d
 2114 024c AD000000 		.4byte	0xad
 2115 0250 0E       		.byte	0xe
 2116 0251 06       		.uleb128 0x6
 2117 0252 64736300 		.ascii	"dsc\000"
 2118 0256 06       		.byte	0x6
 2119 0257 4F       		.byte	0x4f
 2120 0258 E2020000 		.4byte	0x2e2
 2121 025c 10       		.byte	0x10
 2122 025d 07       		.uleb128 0x7
 2123 025e 3A0D0000 		.4byte	.LASF41
ARM GAS  C:\Users\haske\AppData\Local\Temp\ccnNTYZ7.s 			page 52


 2124 0262 06       		.byte	0x6
 2125 0263 50       		.byte	0x50
 2126 0264 76020000 		.4byte	0x276
 2127 0268 14       		.byte	0x14
 2128 0269 07       		.uleb128 0x7
 2129 026a C6230000 		.4byte	.LASF42
 2130 026e 06       		.byte	0x6
 2131 026f 52       		.byte	0x52
 2132 0270 E9020000 		.4byte	0x2e9
 2133 0274 18       		.byte	0x18
 2134 0275 00       		.byte	0
 2135 0276 0B       		.uleb128 0xb
 2136 0277 04       		.byte	0x4
 2137 0278 7C020000 		.4byte	0x27c
 2138 027c 0C       		.uleb128 0xc
 2139 027d EE010000 		.4byte	0x1ee
 2140 0281 02       		.uleb128 0x2
 2141 0282 5E180000 		.4byte	.LASF43
 2142 0286 06       		.byte	0x6
 2143 0287 33       		.byte	0x33
 2144 0288 7F010000 		.4byte	0x17f
 2145 028c 0D       		.uleb128 0xd
 2146 028d AA020000 		.4byte	0x2aa
 2147 0291 AA020000 		.4byte	0x2aa
 2148 0295 0E       		.uleb128 0xe
 2149 0296 76020000 		.4byte	0x276
 2150 029a 0E       		.uleb128 0xe
 2151 029b B1020000 		.4byte	0x2b1
 2152 029f 0E       		.uleb128 0xe
 2153 02a0 E4000000 		.4byte	0xe4
 2154 02a4 0E       		.uleb128 0xe
 2155 02a5 E4000000 		.4byte	0xe4
 2156 02a9 00       		.byte	0
 2157 02aa 03       		.uleb128 0x3
 2158 02ab 01       		.byte	0x1
 2159 02ac 02       		.byte	0x2
 2160 02ad BD090000 		.4byte	.LASF44
 2161 02b1 0B       		.uleb128 0xb
 2162 02b2 04       		.byte	0x4
 2163 02b3 81020000 		.4byte	0x281
 2164 02b7 0B       		.uleb128 0xb
 2165 02b8 04       		.byte	0x4
 2166 02b9 8C020000 		.4byte	0x28c
 2167 02bd 0D       		.uleb128 0xd
 2168 02be D1020000 		.4byte	0x2d1
 2169 02c2 D1020000 		.4byte	0x2d1
 2170 02c6 0E       		.uleb128 0xe
 2171 02c7 76020000 		.4byte	0x276
 2172 02cb 0E       		.uleb128 0xe
 2173 02cc E4000000 		.4byte	0xe4
 2174 02d0 00       		.byte	0
 2175 02d1 0B       		.uleb128 0xb
 2176 02d2 04       		.byte	0x4
 2177 02d3 D7020000 		.4byte	0x2d7
 2178 02d7 0C       		.uleb128 0xc
 2179 02d8 B8000000 		.4byte	0xb8
 2180 02dc 0B       		.uleb128 0xb
ARM GAS  C:\Users\haske\AppData\Local\Temp\ccnNTYZ7.s 			page 53


 2181 02dd 04       		.byte	0x4
 2182 02de BD020000 		.4byte	0x2bd
 2183 02e2 0B       		.uleb128 0xb
 2184 02e3 04       		.byte	0x4
 2185 02e4 E8020000 		.4byte	0x2e8
 2186 02e8 0F       		.uleb128 0xf
 2187 02e9 10       		.uleb128 0x10
 2188 02ea 04       		.byte	0x4
 2189 02eb 02       		.uleb128 0x2
 2190 02ec 14230000 		.4byte	.LASF45
 2191 02f0 06       		.byte	0x6
 2192 02f1 54       		.byte	0x54
 2193 02f2 EE010000 		.4byte	0x1ee
 2194 02f6 11       		.uleb128 0x11
 2195 02f7 01       		.byte	0x1
 2196 02f8 42000000 		.4byte	0x42
 2197 02fc 07       		.byte	0x7
 2198 02fd 2A       		.byte	0x2a
 2199 02fe 0F030000 		.4byte	0x30f
 2200 0302 12       		.uleb128 0x12
 2201 0303 00030000 		.4byte	.LASF46
 2202 0307 00       		.byte	0
 2203 0308 12       		.uleb128 0x12
 2204 0309 161C0000 		.4byte	.LASF47
 2205 030d 01       		.byte	0x1
 2206 030e 00       		.byte	0
 2207 030f 02       		.uleb128 0x2
 2208 0310 91190000 		.4byte	.LASF48
 2209 0314 07       		.byte	0x7
 2210 0315 2F       		.byte	0x2f
 2211 0316 B8000000 		.4byte	0xb8
 2212 031a 03       		.uleb128 0x3
 2213 031b 04       		.byte	0x4
 2214 031c 07       		.byte	0x7
 2215 031d 88000000 		.4byte	.LASF49
 2216 0321 0B       		.uleb128 0xb
 2217 0322 04       		.byte	0x4
 2218 0323 27030000 		.4byte	0x327
 2219 0327 03       		.uleb128 0x3
 2220 0328 01       		.byte	0x1
 2221 0329 08       		.byte	0x8
 2222 032a 880A0000 		.4byte	.LASF50
 2223 032e 05       		.uleb128 0x5
 2224 032f 02       		.byte	0x2
 2225 0330 08       		.byte	0x8
 2226 0331 D1       		.byte	0xd1
 2227 0332 64030000 		.4byte	0x364
 2228 0336 09       		.uleb128 0x9
 2229 0337 08080000 		.4byte	.LASF51
 2230 033b 08       		.byte	0x8
 2231 033c D3       		.byte	0xd3
 2232 033d CE000000 		.4byte	0xce
 2233 0341 02       		.byte	0x2
 2234 0342 05       		.byte	0x5
 2235 0343 0B       		.byte	0xb
 2236 0344 00       		.byte	0
 2237 0345 09       		.uleb128 0x9
ARM GAS  C:\Users\haske\AppData\Local\Temp\ccnNTYZ7.s 			page 54


 2238 0346 0E230000 		.4byte	.LASF52
 2239 034a 08       		.byte	0x8
 2240 034b D4       		.byte	0xd4
 2241 034c CE000000 		.4byte	0xce
 2242 0350 02       		.byte	0x2
 2243 0351 06       		.byte	0x6
 2244 0352 05       		.byte	0x5
 2245 0353 00       		.byte	0
 2246 0354 08       		.uleb128 0x8
 2247 0355 72656400 		.ascii	"red\000"
 2248 0359 08       		.byte	0x8
 2249 035a D5       		.byte	0xd5
 2250 035b CE000000 		.4byte	0xce
 2251 035f 02       		.byte	0x2
 2252 0360 05       		.byte	0x5
 2253 0361 00       		.byte	0
 2254 0362 00       		.byte	0
 2255 0363 00       		.byte	0
 2256 0364 13       		.uleb128 0x13
 2257 0365 02       		.byte	0x2
 2258 0366 08       		.byte	0x8
 2259 0367 D0       		.byte	0xd0
 2260 0368 82030000 		.4byte	0x382
 2261 036c 14       		.uleb128 0x14
 2262 036d 636800   		.ascii	"ch\000"
 2263 0370 08       		.byte	0x8
 2264 0371 DC       		.byte	0xdc
 2265 0372 2E030000 		.4byte	0x32e
 2266 0376 15       		.uleb128 0x15
 2267 0377 EB1D0000 		.4byte	.LASF53
 2268 037b 08       		.byte	0x8
 2269 037c DD       		.byte	0xdd
 2270 037d CE000000 		.4byte	0xce
 2271 0381 00       		.byte	0
 2272 0382 02       		.uleb128 0x2
 2273 0383 361F0000 		.4byte	.LASF54
 2274 0387 08       		.byte	0x8
 2275 0388 DE       		.byte	0xde
 2276 0389 64030000 		.4byte	0x364
 2277 038d 02       		.uleb128 0x2
 2278 038e 381C0000 		.4byte	.LASF55
 2279 0392 08       		.byte	0x8
 2280 0393 EB       		.byte	0xeb
 2281 0394 82030000 		.4byte	0x382
 2282 0398 02       		.uleb128 0x2
 2283 0399 51010000 		.4byte	.LASF56
 2284 039d 08       		.byte	0x8
 2285 039e F5       		.byte	0xf5
 2286 039f B8000000 		.4byte	0xb8
 2287 03a3 02       		.uleb128 0x2
 2288 03a4 F8160000 		.4byte	.LASF57
 2289 03a8 09       		.byte	0x9
 2290 03a9 2E       		.byte	0x2e
 2291 03aa AE030000 		.4byte	0x3ae
 2292 03ae 0B       		.uleb128 0xb
 2293 03af 04       		.byte	0x4
 2294 03b0 B4030000 		.4byte	0x3b4
ARM GAS  C:\Users\haske\AppData\Local\Temp\ccnNTYZ7.s 			page 55


 2295 03b4 0D       		.uleb128 0xd
 2296 03b5 D9000000 		.4byte	0xd9
 2297 03b9 C3030000 		.4byte	0x3c3
 2298 03bd 0E       		.uleb128 0xe
 2299 03be C3030000 		.4byte	0x3c3
 2300 03c2 00       		.byte	0
 2301 03c3 0B       		.uleb128 0xb
 2302 03c4 04       		.byte	0x4
 2303 03c5 DE040000 		.4byte	0x4de
 2304 03c9 0A       		.uleb128 0xa
 2305 03ca 53250000 		.4byte	.LASF59
 2306 03ce 44       		.byte	0x44
 2307 03cf 09       		.byte	0x9
 2308 03d0 49       		.byte	0x49
 2309 03d1 DE040000 		.4byte	0x4de
 2310 03d5 06       		.uleb128 0x6
 2311 03d6 76617200 		.ascii	"var\000"
 2312 03da 09       		.byte	0x9
 2313 03db 4A       		.byte	0x4a
 2314 03dc E9020000 		.4byte	0x2e9
 2315 03e0 00       		.byte	0
 2316 03e1 07       		.uleb128 0x7
 2317 03e2 0B1D0000 		.4byte	.LASF60
 2318 03e6 09       		.byte	0x9
 2319 03e7 4B       		.byte	0x4b
 2320 03e8 E3040000 		.4byte	0x4e3
 2321 03ec 04       		.byte	0x4
 2322 03ed 07       		.uleb128 0x7
 2323 03ee F5070000 		.4byte	.LASF61
 2324 03f2 09       		.byte	0x9
 2325 03f3 4C       		.byte	0x4c
 2326 03f4 26050000 		.4byte	0x526
 2327 03f8 08       		.byte	0x8
 2328 03f9 07       		.uleb128 0x7
 2329 03fa B70C0000 		.4byte	.LASF62
 2330 03fe 09       		.byte	0x9
 2331 03ff 4D       		.byte	0x4d
 2332 0400 0A050000 		.4byte	0x50a
 2333 0404 0C       		.byte	0xc
 2334 0405 07       		.uleb128 0x7
 2335 0406 39240000 		.4byte	.LASF63
 2336 040a 09       		.byte	0x9
 2337 040b 4E       		.byte	0x4e
 2338 040c 51050000 		.4byte	0x551
 2339 0410 10       		.byte	0x10
 2340 0411 07       		.uleb128 0x7
 2341 0412 79190000 		.4byte	.LASF64
 2342 0416 09       		.byte	0x9
 2343 0417 4F       		.byte	0x4f
 2344 0418 31050000 		.4byte	0x531
 2345 041c 14       		.byte	0x14
 2346 041d 07       		.uleb128 0x7
 2347 041e C6230000 		.4byte	.LASF42
 2348 0422 09       		.byte	0x9
 2349 0423 51       		.byte	0x51
 2350 0424 E9020000 		.4byte	0x2e9
 2351 0428 18       		.byte	0x18
ARM GAS  C:\Users\haske\AppData\Local\Temp\ccnNTYZ7.s 			page 56


 2352 0429 07       		.uleb128 0x7
 2353 042a 09020000 		.4byte	.LASF65
 2354 042e 09       		.byte	0x9
 2355 042f 53       		.byte	0x53
 2356 0430 A3030000 		.4byte	0x3a3
 2357 0434 1C       		.byte	0x1c
 2358 0435 07       		.uleb128 0x7
 2359 0436 6C080000 		.4byte	.LASF66
 2360 043a 09       		.byte	0x9
 2361 043b 54       		.byte	0x54
 2362 043c D9000000 		.4byte	0xd9
 2363 0440 20       		.byte	0x20
 2364 0441 07       		.uleb128 0x7
 2365 0442 D1160000 		.4byte	.LASF67
 2366 0446 09       		.byte	0x9
 2367 0447 55       		.byte	0x55
 2368 0448 D9000000 		.4byte	0xd9
 2369 044c 24       		.byte	0x24
 2370 044d 07       		.uleb128 0x7
 2371 044e 201C0000 		.4byte	.LASF68
 2372 0452 09       		.byte	0x9
 2373 0453 56       		.byte	0x56
 2374 0454 D9000000 		.4byte	0xd9
 2375 0458 28       		.byte	0x28
 2376 0459 07       		.uleb128 0x7
 2377 045a 0A1E0000 		.4byte	.LASF69
 2378 045e 09       		.byte	0x9
 2379 045f 57       		.byte	0x57
 2380 0460 D9000000 		.4byte	0xd9
 2381 0464 2C       		.byte	0x2c
 2382 0465 07       		.uleb128 0x7
 2383 0466 5A210000 		.4byte	.LASF70
 2384 046a 09       		.byte	0x9
 2385 046b 58       		.byte	0x58
 2386 046c D9000000 		.4byte	0xd9
 2387 0470 30       		.byte	0x30
 2388 0471 07       		.uleb128 0x7
 2389 0472 310F0000 		.4byte	.LASF71
 2390 0476 09       		.byte	0x9
 2391 0477 59       		.byte	0x59
 2392 0478 E4000000 		.4byte	0xe4
 2393 047c 34       		.byte	0x34
 2394 047d 07       		.uleb128 0x7
 2395 047e 3C1D0000 		.4byte	.LASF72
 2396 0482 09       		.byte	0x9
 2397 0483 5A       		.byte	0x5a
 2398 0484 E4000000 		.4byte	0xe4
 2399 0488 38       		.byte	0x38
 2400 0489 07       		.uleb128 0x7
 2401 048a 46190000 		.4byte	.LASF73
 2402 048e 09       		.byte	0x9
 2403 048f 5B       		.byte	0x5b
 2404 0490 E4000000 		.4byte	0xe4
 2405 0494 3C       		.byte	0x3c
 2406 0495 07       		.uleb128 0x7
 2407 0496 3E1A0000 		.4byte	.LASF74
 2408 049a 09       		.byte	0x9
ARM GAS  C:\Users\haske\AppData\Local\Temp\ccnNTYZ7.s 			page 57


 2409 049b 5C       		.byte	0x5c
 2410 049c CE000000 		.4byte	0xce
 2411 04a0 40       		.byte	0x40
 2412 04a1 09       		.uleb128 0x9
 2413 04a2 DA060000 		.4byte	.LASF75
 2414 04a6 09       		.byte	0x9
 2415 04a7 5D       		.byte	0x5d
 2416 04a8 B8000000 		.4byte	0xb8
 2417 04ac 01       		.byte	0x1
 2418 04ad 01       		.byte	0x1
 2419 04ae 07       		.byte	0x7
 2420 04af 42       		.byte	0x42
 2421 04b0 09       		.uleb128 0x9
 2422 04b1 E4230000 		.4byte	.LASF76
 2423 04b5 09       		.byte	0x9
 2424 04b6 60       		.byte	0x60
 2425 04b7 B8000000 		.4byte	0xb8
 2426 04bb 01       		.byte	0x1
 2427 04bc 01       		.byte	0x1
 2428 04bd 06       		.byte	0x6
 2429 04be 42       		.byte	0x42
 2430 04bf 09       		.uleb128 0x9
 2431 04c0 6A040000 		.4byte	.LASF77
 2432 04c4 09       		.byte	0x9
 2433 04c5 61       		.byte	0x61
 2434 04c6 B8000000 		.4byte	0xb8
 2435 04ca 01       		.byte	0x1
 2436 04cb 01       		.byte	0x1
 2437 04cc 05       		.byte	0x5
 2438 04cd 42       		.byte	0x42
 2439 04ce 09       		.uleb128 0x9
 2440 04cf E2120000 		.4byte	.LASF78
 2441 04d3 09       		.byte	0x9
 2442 04d4 62       		.byte	0x62
 2443 04d5 B8000000 		.4byte	0xb8
 2444 04d9 01       		.byte	0x1
 2445 04da 01       		.byte	0x1
 2446 04db 04       		.byte	0x4
 2447 04dc 42       		.byte	0x42
 2448 04dd 00       		.byte	0
 2449 04de 0C       		.uleb128 0xc
 2450 04df C9030000 		.4byte	0x3c9
 2451 04e3 02       		.uleb128 0x2
 2452 04e4 A60A0000 		.4byte	.LASF79
 2453 04e8 09       		.byte	0x9
 2454 04e9 36       		.byte	0x36
 2455 04ea EE040000 		.4byte	0x4ee
 2456 04ee 0B       		.uleb128 0xb
 2457 04ef 04       		.byte	0x4
 2458 04f0 F4040000 		.4byte	0x4f4
 2459 04f4 16       		.uleb128 0x16
 2460 04f5 04050000 		.4byte	0x504
 2461 04f9 0E       		.uleb128 0xe
 2462 04fa E9020000 		.4byte	0x2e9
 2463 04fe 0E       		.uleb128 0xe
 2464 04ff D9000000 		.4byte	0xd9
 2465 0503 00       		.byte	0
ARM GAS  C:\Users\haske\AppData\Local\Temp\ccnNTYZ7.s 			page 58


 2466 0504 0B       		.uleb128 0xb
 2467 0505 04       		.byte	0x4
 2468 0506 C9030000 		.4byte	0x3c9
 2469 050a 02       		.uleb128 0x2
 2470 050b CE0E0000 		.4byte	.LASF80
 2471 050f 09       		.byte	0x9
 2472 0510 3D       		.byte	0x3d
 2473 0511 15050000 		.4byte	0x515
 2474 0515 0B       		.uleb128 0xb
 2475 0516 04       		.byte	0x4
 2476 0517 1B050000 		.4byte	0x51b
 2477 051b 16       		.uleb128 0x16
 2478 051c 26050000 		.4byte	0x526
 2479 0520 0E       		.uleb128 0xe
 2480 0521 04050000 		.4byte	0x504
 2481 0525 00       		.byte	0
 2482 0526 02       		.uleb128 0x2
 2483 0527 0F1F0000 		.4byte	.LASF81
 2484 052b 09       		.byte	0x9
 2485 052c 40       		.byte	0x40
 2486 052d 15050000 		.4byte	0x515
 2487 0531 02       		.uleb128 0x2
 2488 0532 3B020000 		.4byte	.LASF82
 2489 0536 09       		.byte	0x9
 2490 0537 43       		.byte	0x43
 2491 0538 3C050000 		.4byte	0x53c
 2492 053c 0B       		.uleb128 0xb
 2493 053d 04       		.byte	0x4
 2494 053e 42050000 		.4byte	0x542
 2495 0542 0D       		.uleb128 0xd
 2496 0543 D9000000 		.4byte	0xd9
 2497 0547 51050000 		.4byte	0x551
 2498 054b 0E       		.uleb128 0xe
 2499 054c 04050000 		.4byte	0x504
 2500 0550 00       		.byte	0
 2501 0551 02       		.uleb128 0x2
 2502 0552 0A170000 		.4byte	.LASF83
 2503 0556 09       		.byte	0x9
 2504 0557 46       		.byte	0x46
 2505 0558 15050000 		.4byte	0x515
 2506 055c 02       		.uleb128 0x2
 2507 055d A0100000 		.4byte	.LASF84
 2508 0561 09       		.byte	0x9
 2509 0562 63       		.byte	0x63
 2510 0563 C9030000 		.4byte	0x3c9
 2511 0567 02       		.uleb128 0x2
 2512 0568 B51C0000 		.4byte	.LASF85
 2513 056c 0A       		.byte	0xa
 2514 056d 30       		.byte	0x30
 2515 056e B8000000 		.4byte	0xb8
 2516 0572 02       		.uleb128 0x2
 2517 0573 B9150000 		.4byte	.LASF86
 2518 0577 0A       		.byte	0xa
 2519 0578 42       		.byte	0x42
 2520 0579 B8000000 		.4byte	0xb8
 2521 057d 02       		.uleb128 0x2
 2522 057e 82090000 		.4byte	.LASF87
ARM GAS  C:\Users\haske\AppData\Local\Temp\ccnNTYZ7.s 			page 59


 2523 0582 0B       		.byte	0xb
 2524 0583 2A       		.byte	0x2a
 2525 0584 B8000000 		.4byte	0xb8
 2526 0588 02       		.uleb128 0x2
 2527 0589 58100000 		.4byte	.LASF88
 2528 058d 0C       		.byte	0xc
 2529 058e 5E       		.byte	0x5e
 2530 058f B8000000 		.4byte	0xb8
 2531 0593 02       		.uleb128 0x2
 2532 0594 A9140000 		.4byte	.LASF89
 2533 0598 0C       		.byte	0xc
 2534 0599 6A       		.byte	0x6a
 2535 059a B8000000 		.4byte	0xb8
 2536 059e 02       		.uleb128 0x2
 2537 059f 681E0000 		.4byte	.LASF90
 2538 05a3 0C       		.byte	0xc
 2539 05a4 79       		.byte	0x79
 2540 05a5 B8000000 		.4byte	0xb8
 2541 05a9 02       		.uleb128 0x2
 2542 05aa 44240000 		.4byte	.LASF91
 2543 05ae 0C       		.byte	0xc
 2544 05af 84       		.byte	0x84
 2545 05b0 B8000000 		.4byte	0xb8
 2546 05b4 02       		.uleb128 0x2
 2547 05b5 CE190000 		.4byte	.LASF92
 2548 05b9 0C       		.byte	0xc
 2549 05ba 90       		.byte	0x90
 2550 05bb B8000000 		.4byte	0xb8
 2551 05bf 05       		.uleb128 0x5
 2552 05c0 04       		.byte	0x4
 2553 05c1 0C       		.byte	0xc
 2554 05c2 95       		.byte	0x95
 2555 05c3 E0050000 		.4byte	0x5e0
 2556 05c7 07       		.uleb128 0x7
 2557 05c8 041E0000 		.4byte	.LASF93
 2558 05cc 0C       		.byte	0xc
 2559 05cd 96       		.byte	0x96
 2560 05ce 8D030000 		.4byte	0x38d
 2561 05d2 00       		.byte	0
 2562 05d3 07       		.uleb128 0x7
 2563 05d4 791E0000 		.4byte	.LASF94
 2564 05d8 0C       		.byte	0xc
 2565 05d9 97       		.byte	0x97
 2566 05da B8000000 		.4byte	0xb8
 2567 05de 02       		.byte	0x2
 2568 05df 00       		.byte	0
 2569 05e0 02       		.uleb128 0x2
 2570 05e1 ED210000 		.4byte	.LASF95
 2571 05e5 0C       		.byte	0xc
 2572 05e6 98       		.byte	0x98
 2573 05e7 BF050000 		.4byte	0x5bf
 2574 05eb 05       		.uleb128 0x5
 2575 05ec 0A       		.byte	0xa
 2576 05ed 0C       		.byte	0xc
 2577 05ee 9B       		.byte	0x9b
 2578 05ef 2A060000 		.4byte	0x62a
 2579 05f3 07       		.uleb128 0x7
ARM GAS  C:\Users\haske\AppData\Local\Temp\ccnNTYZ7.s 			page 60


 2580 05f4 0F1E0000 		.4byte	.LASF96
 2581 05f8 0C       		.byte	0xc
 2582 05f9 9C       		.byte	0x9c
 2583 05fa 2A060000 		.4byte	0x62a
 2584 05fe 00       		.byte	0
 2585 05ff 07       		.uleb128 0x7
 2586 0600 4A0B0000 		.4byte	.LASF97
 2587 0604 0C       		.byte	0xc
 2588 0605 9D       		.byte	0x9d
 2589 0606 B8000000 		.4byte	0xb8
 2590 060a 08       		.byte	0x8
 2591 060b 08       		.uleb128 0x8
 2592 060c 64697200 		.ascii	"dir\000"
 2593 0610 0C       		.byte	0xc
 2594 0611 9E       		.byte	0x9e
 2595 0612 A9050000 		.4byte	0x5a9
 2596 0616 01       		.byte	0x1
 2597 0617 03       		.byte	0x3
 2598 0618 05       		.byte	0x5
 2599 0619 09       		.byte	0x9
 2600 061a 09       		.uleb128 0x9
 2601 061b 5C230000 		.4byte	.LASF98
 2602 061f 0C       		.byte	0xc
 2603 0620 A0       		.byte	0xa0
 2604 0621 B4050000 		.4byte	0x5b4
 2605 0625 01       		.byte	0x1
 2606 0626 03       		.byte	0x3
 2607 0627 02       		.byte	0x2
 2608 0628 09       		.byte	0x9
 2609 0629 00       		.byte	0
 2610 062a 17       		.uleb128 0x17
 2611 062b E0050000 		.4byte	0x5e0
 2612 062f 3A060000 		.4byte	0x63a
 2613 0633 18       		.uleb128 0x18
 2614 0634 1A030000 		.4byte	0x31a
 2615 0638 01       		.byte	0x1
 2616 0639 00       		.byte	0
 2617 063a 02       		.uleb128 0x2
 2618 063b 63250000 		.4byte	.LASF99
 2619 063f 0C       		.byte	0xc
 2620 0640 A2       		.byte	0xa2
 2621 0641 EB050000 		.4byte	0x5eb
 2622 0645 13       		.uleb128 0x13
 2623 0646 04       		.byte	0x4
 2624 0647 0C       		.byte	0xc
 2625 0648 A7       		.byte	0xa7
 2626 0649 6F060000 		.4byte	0x66f
 2627 064d 14       		.uleb128 0x14
 2628 064e 6E756D00 		.ascii	"num\000"
 2629 0652 0C       		.byte	0xc
 2630 0653 A8       		.byte	0xa8
 2631 0654 D9000000 		.4byte	0xd9
 2632 0658 14       		.uleb128 0x14
 2633 0659 70747200 		.ascii	"ptr\000"
 2634 065d 0C       		.byte	0xc
 2635 065e A9       		.byte	0xa9
 2636 065f E2020000 		.4byte	0x2e2
ARM GAS  C:\Users\haske\AppData\Local\Temp\ccnNTYZ7.s 			page 61


 2637 0663 15       		.uleb128 0x15
 2638 0664 041E0000 		.4byte	.LASF93
 2639 0668 0C       		.byte	0xc
 2640 0669 AA       		.byte	0xaa
 2641 066a 8D030000 		.4byte	0x38d
 2642 066e 00       		.byte	0
 2643 066f 02       		.uleb128 0x2
 2644 0670 35170000 		.4byte	.LASF100
 2645 0674 0C       		.byte	0xc
 2646 0675 AB       		.byte	0xab
 2647 0676 45060000 		.4byte	0x645
 2648 067a 11       		.uleb128 0x11
 2649 067b 02       		.byte	0x2
 2650 067c 66000000 		.4byte	0x66
 2651 0680 0C       		.byte	0xc
 2652 0681 B2       		.byte	0xb2
 2653 0682 9F080000 		.4byte	0x89f
 2654 0686 12       		.uleb128 0x12
 2655 0687 410E0000 		.4byte	.LASF101
 2656 068b 00       		.byte	0
 2657 068c 12       		.uleb128 0x12
 2658 068d 741C0000 		.4byte	.LASF102
 2659 0691 01       		.byte	0x1
 2660 0692 12       		.uleb128 0x12
 2661 0693 A21C0000 		.4byte	.LASF103
 2662 0697 02       		.byte	0x2
 2663 0698 12       		.uleb128 0x12
 2664 0699 57040000 		.4byte	.LASF104
 2665 069d 03       		.byte	0x3
 2666 069e 12       		.uleb128 0x12
 2667 069f BF020000 		.4byte	.LASF105
 2668 06a3 04       		.byte	0x4
 2669 06a4 12       		.uleb128 0x12
 2670 06a5 6E210000 		.4byte	.LASF106
 2671 06a9 05       		.byte	0x5
 2672 06aa 12       		.uleb128 0x12
 2673 06ab A71E0000 		.4byte	.LASF107
 2674 06af 06       		.byte	0x6
 2675 06b0 12       		.uleb128 0x12
 2676 06b1 E5130000 		.4byte	.LASF108
 2677 06b5 07       		.byte	0x7
 2678 06b6 12       		.uleb128 0x12
 2679 06b7 00220000 		.4byte	.LASF109
 2680 06bb 08       		.byte	0x8
 2681 06bc 12       		.uleb128 0x12
 2682 06bd 78080000 		.4byte	.LASF110
 2683 06c1 09       		.byte	0x9
 2684 06c2 12       		.uleb128 0x12
 2685 06c3 4E180000 		.4byte	.LASF111
 2686 06c7 0A       		.byte	0xa
 2687 06c8 12       		.uleb128 0x12
 2688 06c9 30040000 		.4byte	.LASF112
 2689 06cd 0B       		.byte	0xb
 2690 06ce 12       		.uleb128 0x12
 2691 06cf 72200000 		.4byte	.LASF113
 2692 06d3 10       		.byte	0x10
 2693 06d4 12       		.uleb128 0x12
ARM GAS  C:\Users\haske\AppData\Local\Temp\ccnNTYZ7.s 			page 62


 2694 06d5 6E0F0000 		.4byte	.LASF114
 2695 06d9 11       		.byte	0x11
 2696 06da 12       		.uleb128 0x12
 2697 06db 32130000 		.4byte	.LASF115
 2698 06df 12       		.byte	0x12
 2699 06e0 12       		.uleb128 0x12
 2700 06e1 F2040000 		.4byte	.LASF116
 2701 06e5 13       		.byte	0x13
 2702 06e6 12       		.uleb128 0x12
 2703 06e7 B4120000 		.4byte	.LASF117
 2704 06eb 14       		.byte	0x14
 2705 06ec 12       		.uleb128 0x12
 2706 06ed BB030000 		.4byte	.LASF118
 2707 06f1 15       		.byte	0x15
 2708 06f2 12       		.uleb128 0x12
 2709 06f3 190B0000 		.4byte	.LASF119
 2710 06f7 16       		.byte	0x16
 2711 06f8 12       		.uleb128 0x12
 2712 06f9 EB180000 		.4byte	.LASF120
 2713 06fd 17       		.byte	0x17
 2714 06fe 12       		.uleb128 0x12
 2715 06ff D60B0000 		.4byte	.LASF121
 2716 0703 20       		.byte	0x20
 2717 0704 12       		.uleb128 0x12
 2718 0705 CC0F0000 		.4byte	.LASF122
 2719 0709 21       		.byte	0x21
 2720 070a 12       		.uleb128 0x12
 2721 070b E01E0000 		.4byte	.LASF123
 2722 070f 22       		.byte	0x22
 2723 0710 12       		.uleb128 0x12
 2724 0711 CF070000 		.4byte	.LASF124
 2725 0715 23       		.byte	0x23
 2726 0716 12       		.uleb128 0x12
 2727 0717 0D100000 		.4byte	.LASF125
 2728 071b 24       		.byte	0x24
 2729 071c 12       		.uleb128 0x12
 2730 071d 851B0000 		.4byte	.LASF126
 2731 0721 25       		.byte	0x25
 2732 0722 12       		.uleb128 0x12
 2733 0723 8B250000 		.4byte	.LASF127
 2734 0727 26       		.byte	0x26
 2735 0728 12       		.uleb128 0x12
 2736 0729 EE030000 		.4byte	.LASF128
 2737 072d 27       		.byte	0x27
 2738 072e 12       		.uleb128 0x12
 2739 072f 281D0000 		.4byte	.LASF129
 2740 0733 28       		.byte	0x28
 2741 0734 12       		.uleb128 0x12
 2742 0735 BF200000 		.4byte	.LASF130
 2743 0739 29       		.byte	0x29
 2744 073a 12       		.uleb128 0x12
 2745 073b 7C040000 		.4byte	.LASF131
 2746 073f 2A       		.byte	0x2a
 2747 0740 12       		.uleb128 0x12
 2748 0741 160A0000 		.4byte	.LASF132
 2749 0745 2B       		.byte	0x2b
 2750 0746 12       		.uleb128 0x12
ARM GAS  C:\Users\haske\AppData\Local\Temp\ccnNTYZ7.s 			page 63


 2751 0747 80060000 		.4byte	.LASF133
 2752 074b 2C       		.byte	0x2c
 2753 074c 12       		.uleb128 0x12
 2754 074d C01A0000 		.4byte	.LASF134
 2755 0751 30       		.byte	0x30
 2756 0752 12       		.uleb128 0x12
 2757 0753 A7060000 		.4byte	.LASF135
 2758 0757 31       		.byte	0x31
 2759 0758 12       		.uleb128 0x12
 2760 0759 8E030000 		.4byte	.LASF136
 2761 075d 32       		.byte	0x32
 2762 075e 12       		.uleb128 0x12
 2763 075f 9B1B0000 		.4byte	.LASF137
 2764 0763 33       		.byte	0x33
 2765 0764 12       		.uleb128 0x12
 2766 0765 AF210000 		.4byte	.LASF138
 2767 0769 34       		.byte	0x34
 2768 076a 12       		.uleb128 0x12
 2769 076b B60D0000 		.4byte	.LASF139
 2770 076f 35       		.byte	0x35
 2771 0770 12       		.uleb128 0x12
 2772 0771 AF230000 		.4byte	.LASF140
 2773 0775 36       		.byte	0x36
 2774 0776 12       		.uleb128 0x12
 2775 0777 350B0000 		.4byte	.LASF141
 2776 077b 37       		.byte	0x37
 2777 077c 12       		.uleb128 0x12
 2778 077d BD250000 		.4byte	.LASF142
 2779 0781 38       		.byte	0x38
 2780 0782 12       		.uleb128 0x12
 2781 0783 A9180000 		.4byte	.LASF143
 2782 0787 40       		.byte	0x40
 2783 0788 12       		.uleb128 0x12
 2784 0789 F51C0000 		.4byte	.LASF144
 2785 078d 41       		.byte	0x41
 2786 078e 12       		.uleb128 0x12
 2787 078f 52130000 		.4byte	.LASF145
 2788 0793 42       		.byte	0x42
 2789 0794 12       		.uleb128 0x12
 2790 0795 01240000 		.4byte	.LASF146
 2791 0799 43       		.byte	0x43
 2792 079a 12       		.uleb128 0x12
 2793 079b 3C070000 		.4byte	.LASF147
 2794 079f 44       		.byte	0x44
 2795 07a0 12       		.uleb128 0x12
 2796 07a1 94040000 		.4byte	.LASF148
 2797 07a5 45       		.byte	0x45
 2798 07a6 12       		.uleb128 0x12
 2799 07a7 68100000 		.4byte	.LASF149
 2800 07ab 46       		.byte	0x46
 2801 07ac 12       		.uleb128 0x12
 2802 07ad 45090000 		.4byte	.LASF150
 2803 07b1 47       		.byte	0x47
 2804 07b2 12       		.uleb128 0x12
 2805 07b3 E80B0000 		.4byte	.LASF151
 2806 07b7 48       		.byte	0x48
 2807 07b8 12       		.uleb128 0x12
ARM GAS  C:\Users\haske\AppData\Local\Temp\ccnNTYZ7.s 			page 64


 2808 07b9 D3200000 		.4byte	.LASF152
 2809 07bd 49       		.byte	0x49
 2810 07be 12       		.uleb128 0x12
 2811 07bf 870C0000 		.4byte	.LASF153
 2812 07c3 4A       		.byte	0x4a
 2813 07c4 12       		.uleb128 0x12
 2814 07c5 C5000000 		.4byte	.LASF154
 2815 07c9 4B       		.byte	0x4b
 2816 07ca 12       		.uleb128 0x12
 2817 07cb 0B220000 		.4byte	.LASF155
 2818 07cf 4C       		.byte	0x4c
 2819 07d0 12       		.uleb128 0x12
 2820 07d1 C4110000 		.4byte	.LASF156
 2821 07d5 4D       		.byte	0x4d
 2822 07d6 12       		.uleb128 0x12
 2823 07d7 DC0F0000 		.4byte	.LASF157
 2824 07db 4E       		.byte	0x4e
 2825 07dc 12       		.uleb128 0x12
 2826 07dd 63090000 		.4byte	.LASF158
 2827 07e1 50       		.byte	0x50
 2828 07e2 12       		.uleb128 0x12
 2829 07e3 3B160000 		.4byte	.LASF159
 2830 07e7 51       		.byte	0x51
 2831 07e8 12       		.uleb128 0x12
 2832 07e9 FD1F0000 		.4byte	.LASF160
 2833 07ed 52       		.byte	0x52
 2834 07ee 12       		.uleb128 0x12
 2835 07ef 5A010000 		.4byte	.LASF161
 2836 07f3 53       		.byte	0x53
 2837 07f4 12       		.uleb128 0x12
 2838 07f5 501D0000 		.4byte	.LASF162
 2839 07f9 54       		.byte	0x54
 2840 07fa 12       		.uleb128 0x12
 2841 07fb 93160000 		.4byte	.LASF163
 2842 07ff 55       		.byte	0x55
 2843 0800 12       		.uleb128 0x12
 2844 0801 F8100000 		.4byte	.LASF164
 2845 0805 56       		.byte	0x56
 2846 0806 12       		.uleb128 0x12
 2847 0807 AD1D0000 		.4byte	.LASF165
 2848 080b 57       		.byte	0x57
 2849 080c 12       		.uleb128 0x12
 2850 080d E1250000 		.4byte	.LASF166
 2851 0811 58       		.byte	0x58
 2852 0812 12       		.uleb128 0x12
 2853 0813 530E0000 		.4byte	.LASF167
 2854 0817 59       		.byte	0x59
 2855 0818 12       		.uleb128 0x12
 2856 0819 0B160000 		.4byte	.LASF168
 2857 081d 5A       		.byte	0x5a
 2858 081e 12       		.uleb128 0x12
 2859 081f 36140000 		.4byte	.LASF169
 2860 0823 5B       		.byte	0x5b
 2861 0824 12       		.uleb128 0x12
 2862 0825 27000000 		.4byte	.LASF170
 2863 0829 60       		.byte	0x60
 2864 082a 12       		.uleb128 0x12
ARM GAS  C:\Users\haske\AppData\Local\Temp\ccnNTYZ7.s 			page 65


 2865 082b 9F150000 		.4byte	.LASF171
 2866 082f 61       		.byte	0x61
 2867 0830 12       		.uleb128 0x12
 2868 0831 9A190000 		.4byte	.LASF172
 2869 0835 62       		.byte	0x62
 2870 0836 12       		.uleb128 0x12
 2871 0837 D7130000 		.4byte	.LASF173
 2872 083b 63       		.byte	0x63
 2873 083c 12       		.uleb128 0x12
 2874 083d 1E0F0000 		.4byte	.LASF174
 2875 0841 64       		.byte	0x64
 2876 0842 12       		.uleb128 0x12
 2877 0843 8D0D0000 		.4byte	.LASF175
 2878 0847 65       		.byte	0x65
 2879 0848 12       		.uleb128 0x12
 2880 0849 75050000 		.4byte	.LASF176
 2881 084d 66       		.byte	0x66
 2882 084e 12       		.uleb128 0x12
 2883 084f 130C0000 		.4byte	.LASF177
 2884 0853 67       		.byte	0x67
 2885 0854 12       		.uleb128 0x12
 2886 0855 D20C0000 		.4byte	.LASF178
 2887 0859 68       		.byte	0x68
 2888 085a 12       		.uleb128 0x12
 2889 085b C1040000 		.4byte	.LASF179
 2890 085f 69       		.byte	0x69
 2891 0860 12       		.uleb128 0x12
 2892 0861 EC090000 		.4byte	.LASF180
 2893 0865 6A       		.byte	0x6a
 2894 0866 12       		.uleb128 0x12
 2895 0867 010A0000 		.4byte	.LASF181
 2896 086b 6B       		.byte	0x6b
 2897 086c 12       		.uleb128 0x12
 2898 086d 79100000 		.4byte	.LASF182
 2899 0871 6C       		.byte	0x6c
 2900 0872 12       		.uleb128 0x12
 2901 0873 47150000 		.4byte	.LASF183
 2902 0877 6D       		.byte	0x6d
 2903 0878 12       		.uleb128 0x12
 2904 0879 EC080000 		.4byte	.LASF184
 2905 087d 6E       		.byte	0x6e
 2906 087e 12       		.uleb128 0x12
 2907 087f 07090000 		.4byte	.LASF185
 2908 0883 6F       		.byte	0x6f
 2909 0884 12       		.uleb128 0x12
 2910 0885 2B030000 		.4byte	.LASF186
 2911 0889 6F       		.byte	0x6f
 2912 088a 12       		.uleb128 0x12
 2913 088b 55200000 		.4byte	.LASF187
 2914 088f 70       		.byte	0x70
 2915 0890 19       		.uleb128 0x19
 2916 0891 D91D0000 		.4byte	.LASF188
 2917 0895 FFFF     		.2byte	0xffff
 2918 0897 19       		.uleb128 0x19
 2919 0898 62170000 		.4byte	.LASF189
 2920 089c FFFF     		.2byte	0xffff
 2921 089e 00       		.byte	0
ARM GAS  C:\Users\haske\AppData\Local\Temp\ccnNTYZ7.s 			page 66


 2922 089f 1A       		.uleb128 0x1a
 2923 08a0 FE0C0000 		.4byte	.LASF190
 2924 08a4 0C       		.byte	0xc
 2925 08a5 1C01     		.2byte	0x11c
 2926 08a7 7A060000 		.4byte	0x67a
 2927 08ab 1B       		.uleb128 0x1b
 2928 08ac 08       		.byte	0x8
 2929 08ad 0C       		.byte	0xc
 2930 08ae 3601     		.2byte	0x136
 2931 08b0 CF080000 		.4byte	0x8cf
 2932 08b4 1C       		.uleb128 0x1c
 2933 08b5 470C0000 		.4byte	.LASF191
 2934 08b9 0C       		.byte	0xc
 2935 08ba 3701     		.2byte	0x137
 2936 08bc 9F080000 		.4byte	0x89f
 2937 08c0 00       		.byte	0
 2938 08c1 1C       		.uleb128 0x1c
 2939 08c2 5E0A0000 		.4byte	.LASF192
 2940 08c6 0C       		.byte	0xc
 2941 08c7 3801     		.2byte	0x138
 2942 08c9 6F060000 		.4byte	0x66f
 2943 08cd 04       		.byte	0x4
 2944 08ce 00       		.byte	0
 2945 08cf 1A       		.uleb128 0x1a
 2946 08d0 7B0E0000 		.4byte	.LASF193
 2947 08d4 0C       		.byte	0xc
 2948 08d5 3901     		.2byte	0x139
 2949 08d7 AB080000 		.4byte	0x8ab
 2950 08db 1D       		.uleb128 0x1d
 2951 08dc 04       		.byte	0x4
 2952 08dd 0C       		.byte	0xc
 2953 08de 4601     		.2byte	0x146
 2954 08e0 09090000 		.4byte	0x909
 2955 08e4 1E       		.uleb128 0x1e
 2956 08e5 651D0000 		.4byte	.LASF194
 2957 08e9 0C       		.byte	0xc
 2958 08ea 4701     		.2byte	0x147
 2959 08ec 6F060000 		.4byte	0x66f
 2960 08f0 1E       		.uleb128 0x1e
 2961 08f1 430D0000 		.4byte	.LASF195
 2962 08f5 0C       		.byte	0xc
 2963 08f6 4801     		.2byte	0x148
 2964 08f8 09090000 		.4byte	0x909
 2965 08fc 1E       		.uleb128 0x1e
 2966 08fd 4C0C0000 		.4byte	.LASF196
 2967 0901 0C       		.byte	0xc
 2968 0902 4901     		.2byte	0x149
 2969 0904 0F090000 		.4byte	0x90f
 2970 0908 00       		.byte	0
 2971 0909 0B       		.uleb128 0xb
 2972 090a 04       		.byte	0x4
 2973 090b B8000000 		.4byte	0xb8
 2974 090f 0B       		.uleb128 0xb
 2975 0910 04       		.byte	0x4
 2976 0911 15090000 		.4byte	0x915
 2977 0915 0C       		.uleb128 0xc
 2978 0916 CF080000 		.4byte	0x8cf
ARM GAS  C:\Users\haske\AppData\Local\Temp\ccnNTYZ7.s 			page 67


 2979 091a 1B       		.uleb128 0x1b
 2980 091b 08       		.byte	0x8
 2981 091c 0C       		.byte	0xc
 2982 091d 3E01     		.2byte	0x13e
 2983 091f 58090000 		.4byte	0x958
 2984 0923 1F       		.uleb128 0x1f
 2985 0924 765F7000 		.ascii	"v_p\000"
 2986 0928 0C       		.byte	0xc
 2987 0929 4A01     		.2byte	0x14a
 2988 092b DB080000 		.4byte	0x8db
 2989 092f 00       		.byte	0
 2990 0930 1C       		.uleb128 0x1c
 2991 0931 33210000 		.4byte	.LASF197
 2992 0935 0C       		.byte	0xc
 2993 0936 4C01     		.2byte	0x14c
 2994 0938 CE000000 		.4byte	0xce
 2995 093c 04       		.byte	0x4
 2996 093d 1C       		.uleb128 0x1c
 2997 093e 9A010000 		.4byte	.LASF198
 2998 0942 0C       		.byte	0xc
 2999 0943 4D01     		.2byte	0x14d
 3000 0945 B8000000 		.4byte	0xb8
 3001 0949 06       		.byte	0x6
 3002 094a 1C       		.uleb128 0x1c
 3003 094b 17000000 		.4byte	.LASF199
 3004 094f 0C       		.byte	0xc
 3005 0950 4E01     		.2byte	0x14e
 3006 0952 B8000000 		.4byte	0xb8
 3007 0956 07       		.byte	0x7
 3008 0957 00       		.byte	0
 3009 0958 1A       		.uleb128 0x1a
 3010 0959 EE0F0000 		.4byte	.LASF200
 3011 095d 0C       		.byte	0xc
 3012 095e 4F01     		.2byte	0x14f
 3013 0960 1A090000 		.4byte	0x91a
 3014 0964 02       		.uleb128 0x2
 3015 0965 D0100000 		.4byte	.LASF201
 3016 0969 0D       		.byte	0xd
 3017 096a 69       		.byte	0x69
 3018 096b B8000000 		.4byte	0xb8
 3019 096f 0B       		.uleb128 0xb
 3020 0970 04       		.byte	0x4
 3021 0971 E4000000 		.4byte	0xe4
 3022 0975 0B       		.uleb128 0xb
 3023 0976 04       		.byte	0x4
 3024 0977 7B090000 		.4byte	0x97b
 3025 097b 0A       		.uleb128 0xa
 3026 097c 7E1E0000 		.4byte	.LASF202
 3027 0980 24       		.byte	0x24
 3028 0981 0E       		.byte	0xe
 3029 0982 AE       		.byte	0xae
 3030 0983 420A0000 		.4byte	0xa42
 3031 0987 07       		.uleb128 0x7
 3032 0988 C9160000 		.4byte	.LASF203
 3033 098c 0E       		.byte	0xe
 3034 098d AF       		.byte	0xaf
 3035 098e 1D220000 		.4byte	0x221d
ARM GAS  C:\Users\haske\AppData\Local\Temp\ccnNTYZ7.s 			page 68


 3036 0992 00       		.byte	0
 3037 0993 07       		.uleb128 0x7
 3038 0994 B00E0000 		.4byte	.LASF204
 3039 0998 0E       		.byte	0xe
 3040 0999 B0       		.byte	0xb0
 3041 099a 75090000 		.4byte	0x975
 3042 099e 04       		.byte	0x4
 3043 099f 07       		.uleb128 0x7
 3044 09a0 2B0B0000 		.4byte	.LASF205
 3045 09a4 0E       		.byte	0xe
 3046 09a5 B1       		.byte	0xb1
 3047 09a6 28220000 		.4byte	0x2228
 3048 09aa 08       		.byte	0x8
 3049 09ab 07       		.uleb128 0x7
 3050 09ac 40100000 		.4byte	.LASF206
 3051 09b0 0E       		.byte	0xe
 3052 09b1 B2       		.byte	0xb2
 3053 09b2 2E220000 		.4byte	0x222e
 3054 09b6 0C       		.byte	0xc
 3055 09b7 07       		.uleb128 0x7
 3056 09b8 C6230000 		.4byte	.LASF42
 3057 09bc 0E       		.byte	0xe
 3058 09bd B4       		.byte	0xb4
 3059 09be E9020000 		.4byte	0x2e9
 3060 09c2 10       		.byte	0x10
 3061 09c3 07       		.uleb128 0x7
 3062 09c4 40200000 		.4byte	.LASF207
 3063 09c8 0E       		.byte	0xe
 3064 09c9 B6       		.byte	0xb6
 3065 09ca 69010000 		.4byte	0x169
 3066 09ce 14       		.byte	0x14
 3067 09cf 07       		.uleb128 0x7
 3068 09d0 640A0000 		.4byte	.LASF208
 3069 09d4 0E       		.byte	0xe
 3070 09d5 B7       		.byte	0xb7
 3071 09d6 201C0000 		.4byte	0x1c20
 3072 09da 1C       		.byte	0x1c
 3073 09db 07       		.uleb128 0x7
 3074 09dc B9020000 		.4byte	.LASF209
 3075 09e0 0E       		.byte	0xe
 3076 09e1 B8       		.byte	0xb8
 3077 09e2 2D1B0000 		.4byte	0x1b2d
 3078 09e6 20       		.byte	0x20
 3079 09e7 09       		.uleb128 0x9
 3080 09e8 5C070000 		.4byte	.LASF210
 3081 09ec 0E       		.byte	0xe
 3082 09ed B9       		.byte	0xb9
 3083 09ee CE000000 		.4byte	0xce
 3084 09f2 02       		.byte	0x2
 3085 09f3 01       		.byte	0x1
 3086 09f4 0F       		.byte	0xf
 3087 09f5 22       		.byte	0x22
 3088 09f6 09       		.uleb128 0x9
 3089 09f7 48040000 		.4byte	.LASF211
 3090 09fb 0E       		.byte	0xe
 3091 09fc BA       		.byte	0xba
 3092 09fd CE000000 		.4byte	0xce
ARM GAS  C:\Users\haske\AppData\Local\Temp\ccnNTYZ7.s 			page 69


 3093 0a01 02       		.byte	0x2
 3094 0a02 01       		.byte	0x1
 3095 0a03 0E       		.byte	0xe
 3096 0a04 22       		.byte	0x22
 3097 0a05 09       		.uleb128 0x9
 3098 0a06 71160000 		.4byte	.LASF212
 3099 0a0a 0E       		.byte	0xe
 3100 0a0b BB       		.byte	0xbb
 3101 0a0c CE000000 		.4byte	0xce
 3102 0a10 02       		.byte	0x2
 3103 0a11 01       		.byte	0x1
 3104 0a12 0D       		.byte	0xd
 3105 0a13 22       		.byte	0x22
 3106 0a14 09       		.uleb128 0x9
 3107 0a15 52070000 		.4byte	.LASF213
 3108 0a19 0E       		.byte	0xe
 3109 0a1a BC       		.byte	0xbc
 3110 0a1b CE000000 		.4byte	0xce
 3111 0a1f 02       		.byte	0x2
 3112 0a20 06       		.byte	0x6
 3113 0a21 07       		.byte	0x7
 3114 0a22 22       		.byte	0x22
 3115 0a23 09       		.uleb128 0x9
 3116 0a24 A6090000 		.4byte	.LASF214
 3117 0a28 0E       		.byte	0xe
 3118 0a29 BD       		.byte	0xbd
 3119 0a2a CE000000 		.4byte	0xce
 3120 0a2e 02       		.byte	0x2
 3121 0a2f 01       		.byte	0x1
 3122 0a30 06       		.byte	0x6
 3123 0a31 22       		.byte	0x22
 3124 0a32 09       		.uleb128 0x9
 3125 0a33 1C040000 		.4byte	.LASF215
 3126 0a37 0E       		.byte	0xe
 3127 0a38 BE       		.byte	0xbe
 3128 0a39 CE000000 		.4byte	0xce
 3129 0a3d 02       		.byte	0x2
 3130 0a3e 01       		.byte	0x1
 3131 0a3f 05       		.byte	0x5
 3132 0a40 22       		.byte	0x22
 3133 0a41 00       		.byte	0
 3134 0a42 0B       		.uleb128 0xb
 3135 0a43 04       		.byte	0x4
 3136 0a44 8D030000 		.4byte	0x38d
 3137 0a48 05       		.uleb128 0x5
 3138 0a49 38       		.byte	0x38
 3139 0a4a 0F       		.byte	0xf
 3140 0a4b 20       		.byte	0x20
 3141 0a4c 8F0B0000 		.4byte	0xb8f
 3142 0a50 07       		.uleb128 0x7
 3143 0a51 ED010000 		.4byte	.LASF216
 3144 0a55 0F       		.byte	0xf
 3145 0a56 21       		.byte	0x21
 3146 0a57 01010000 		.4byte	0x101
 3147 0a5b 00       		.byte	0
 3148 0a5c 07       		.uleb128 0x7
 3149 0a5d 25040000 		.4byte	.LASF217
ARM GAS  C:\Users\haske\AppData\Local\Temp\ccnNTYZ7.s 			page 70


 3150 0a61 0F       		.byte	0xf
 3151 0a62 22       		.byte	0x22
 3152 0a63 88050000 		.4byte	0x588
 3153 0a67 02       		.byte	0x2
 3154 0a68 07       		.uleb128 0x7
 3155 0a69 D2050000 		.4byte	.LASF218
 3156 0a6d 0F       		.byte	0xf
 3157 0a6e 25       		.byte	0x25
 3158 0a6f 98030000 		.4byte	0x398
 3159 0a73 03       		.byte	0x3
 3160 0a74 07       		.uleb128 0x7
 3161 0a75 F4010000 		.4byte	.LASF219
 3162 0a79 0F       		.byte	0xf
 3163 0a7a 26       		.byte	0x26
 3164 0a7b 8D030000 		.4byte	0x38d
 3165 0a7f 04       		.byte	0x4
 3166 0a80 07       		.uleb128 0x7
 3167 0a81 97210000 		.4byte	.LASF220
 3168 0a85 0F       		.byte	0xf
 3169 0a86 27       		.byte	0x27
 3170 0a87 3A060000 		.4byte	0x63a
 3171 0a8b 06       		.byte	0x6
 3172 0a8c 07       		.uleb128 0x7
 3173 0a8d 83030000 		.4byte	.LASF221
 3174 0a91 0F       		.byte	0xf
 3175 0a92 2A       		.byte	0x2a
 3176 0a93 E2020000 		.4byte	0x2e2
 3177 0a97 10       		.byte	0x10
 3178 0a98 07       		.uleb128 0x7
 3179 0a99 33250000 		.4byte	.LASF222
 3180 0a9d 0F       		.byte	0xf
 3181 0a9e 2B       		.byte	0x2b
 3182 0a9f E2020000 		.4byte	0x2e2
 3183 0aa3 14       		.byte	0x14
 3184 0aa4 07       		.uleb128 0x7
 3185 0aa5 221F0000 		.4byte	.LASF223
 3186 0aa9 0F       		.byte	0xf
 3187 0aaa 2C       		.byte	0x2c
 3188 0aab 8D030000 		.4byte	0x38d
 3189 0aaf 18       		.byte	0x18
 3190 0ab0 07       		.uleb128 0x7
 3191 0ab1 26080000 		.4byte	.LASF224
 3192 0ab5 0F       		.byte	0xf
 3193 0ab6 2D       		.byte	0x2d
 3194 0ab7 98030000 		.4byte	0x398
 3195 0abb 1A       		.byte	0x1a
 3196 0abc 07       		.uleb128 0x7
 3197 0abd 491A0000 		.4byte	.LASF225
 3198 0ac1 0F       		.byte	0xf
 3199 0ac2 2E       		.byte	0x2e
 3200 0ac3 98030000 		.4byte	0x398
 3201 0ac7 1B       		.byte	0x1b
 3202 0ac8 07       		.uleb128 0x7
 3203 0ac9 C2070000 		.4byte	.LASF226
 3204 0acd 0F       		.byte	0xf
 3205 0ace 2F       		.byte	0x2f
 3206 0acf B8000000 		.4byte	0xb8
ARM GAS  C:\Users\haske\AppData\Local\Temp\ccnNTYZ7.s 			page 71


 3207 0ad3 1C       		.byte	0x1c
 3208 0ad4 07       		.uleb128 0x7
 3209 0ad5 060C0000 		.4byte	.LASF227
 3210 0ad9 0F       		.byte	0xf
 3211 0ada 32       		.byte	0x32
 3212 0adb 8D030000 		.4byte	0x38d
 3213 0adf 1E       		.byte	0x1e
 3214 0ae0 07       		.uleb128 0x7
 3215 0ae1 951C0000 		.4byte	.LASF228
 3216 0ae5 0F       		.byte	0xf
 3217 0ae6 33       		.byte	0x33
 3218 0ae7 01010000 		.4byte	0x101
 3219 0aeb 20       		.byte	0x20
 3220 0aec 07       		.uleb128 0x7
 3221 0aed 63210000 		.4byte	.LASF229
 3222 0af1 0F       		.byte	0xf
 3223 0af2 34       		.byte	0x34
 3224 0af3 98030000 		.4byte	0x398
 3225 0af7 22       		.byte	0x22
 3226 0af8 09       		.uleb128 0x9
 3227 0af9 680C0000 		.4byte	.LASF230
 3228 0afd 0F       		.byte	0xf
 3229 0afe 35       		.byte	0x35
 3230 0aff B8000000 		.4byte	0xb8
 3231 0b03 01       		.byte	0x1
 3232 0b04 01       		.byte	0x1
 3233 0b05 07       		.byte	0x7
 3234 0b06 23       		.byte	0x23
 3235 0b07 09       		.uleb128 0x9
 3236 0b08 06040000 		.4byte	.LASF231
 3237 0b0c 0F       		.byte	0xf
 3238 0b0d 36       		.byte	0x36
 3239 0b0e 9E050000 		.4byte	0x59e
 3240 0b12 01       		.byte	0x1
 3241 0b13 05       		.byte	0x5
 3242 0b14 02       		.byte	0x2
 3243 0b15 23       		.byte	0x23
 3244 0b16 07       		.uleb128 0x7
 3245 0b17 2E070000 		.4byte	.LASF232
 3246 0b1b 0F       		.byte	0xf
 3247 0b1c 39       		.byte	0x39
 3248 0b1d 8D030000 		.4byte	0x38d
 3249 0b21 24       		.byte	0x24
 3250 0b22 07       		.uleb128 0x7
 3251 0b23 9B180000 		.4byte	.LASF233
 3252 0b27 0F       		.byte	0xf
 3253 0b28 3A       		.byte	0x3a
 3254 0b29 01010000 		.4byte	0x101
 3255 0b2d 26       		.byte	0x26
 3256 0b2e 07       		.uleb128 0x7
 3257 0b2f BC0B0000 		.4byte	.LASF234
 3258 0b33 0F       		.byte	0xf
 3259 0b34 3B       		.byte	0x3b
 3260 0b35 01010000 		.4byte	0x101
 3261 0b39 28       		.byte	0x28
 3262 0b3a 07       		.uleb128 0x7
 3263 0b3b CD170000 		.4byte	.LASF235
ARM GAS  C:\Users\haske\AppData\Local\Temp\ccnNTYZ7.s 			page 72


 3264 0b3f 0F       		.byte	0xf
 3265 0b40 3C       		.byte	0x3c
 3266 0b41 98030000 		.4byte	0x398
 3267 0b45 2A       		.byte	0x2a
 3268 0b46 07       		.uleb128 0x7
 3269 0b47 E8140000 		.4byte	.LASF236
 3270 0b4b 0F       		.byte	0xf
 3271 0b4c 3F       		.byte	0x3f
 3272 0b4d 8D030000 		.4byte	0x38d
 3273 0b51 2C       		.byte	0x2c
 3274 0b52 07       		.uleb128 0x7
 3275 0b53 F8220000 		.4byte	.LASF237
 3276 0b57 0F       		.byte	0xf
 3277 0b58 40       		.byte	0x40
 3278 0b59 01010000 		.4byte	0x101
 3279 0b5d 2E       		.byte	0x2e
 3280 0b5e 07       		.uleb128 0x7
 3281 0b5f C50C0000 		.4byte	.LASF238
 3282 0b63 0F       		.byte	0xf
 3283 0b64 41       		.byte	0x41
 3284 0b65 01010000 		.4byte	0x101
 3285 0b69 30       		.byte	0x30
 3286 0b6a 07       		.uleb128 0x7
 3287 0b6b 46250000 		.4byte	.LASF239
 3288 0b6f 0F       		.byte	0xf
 3289 0b70 42       		.byte	0x42
 3290 0b71 01010000 		.4byte	0x101
 3291 0b75 32       		.byte	0x32
 3292 0b76 07       		.uleb128 0x7
 3293 0b77 100F0000 		.4byte	.LASF240
 3294 0b7b 0F       		.byte	0xf
 3295 0b7c 43       		.byte	0x43
 3296 0b7d 01010000 		.4byte	0x101
 3297 0b81 34       		.byte	0x34
 3298 0b82 07       		.uleb128 0x7
 3299 0b83 F21F0000 		.4byte	.LASF241
 3300 0b87 0F       		.byte	0xf
 3301 0b88 44       		.byte	0x44
 3302 0b89 98030000 		.4byte	0x398
 3303 0b8d 36       		.byte	0x36
 3304 0b8e 00       		.byte	0
 3305 0b8f 02       		.uleb128 0x2
 3306 0b90 DE1B0000 		.4byte	.LASF242
 3307 0b94 0F       		.byte	0xf
 3308 0b95 45       		.byte	0x45
 3309 0b96 480A0000 		.4byte	0xa48
 3310 0b9a 05       		.uleb128 0x5
 3311 0b9b 20       		.byte	0x20
 3312 0b9c 10       		.byte	0x10
 3313 0b9d 1E       		.byte	0x1e
 3314 0b9e 690C0000 		.4byte	0xc69
 3315 0ba2 07       		.uleb128 0x7
 3316 0ba3 881E0000 		.4byte	.LASF243
 3317 0ba7 10       		.byte	0x10
 3318 0ba8 1F       		.byte	0x1f
 3319 0ba9 690C0000 		.4byte	0xc69
 3320 0bad 00       		.byte	0
ARM GAS  C:\Users\haske\AppData\Local\Temp\ccnNTYZ7.s 			page 73


 3321 0bae 07       		.uleb128 0x7
 3322 0baf 7D220000 		.4byte	.LASF244
 3323 0bb3 10       		.byte	0x10
 3324 0bb4 20       		.byte	0x20
 3325 0bb5 E4000000 		.4byte	0xe4
 3326 0bb9 04       		.byte	0x4
 3327 0bba 07       		.uleb128 0x7
 3328 0bbb 5A170000 		.4byte	.LASF245
 3329 0bbf 10       		.byte	0x10
 3330 0bc0 21       		.byte	0x21
 3331 0bc1 E4000000 		.4byte	0xe4
 3332 0bc5 08       		.byte	0x8
 3333 0bc6 07       		.uleb128 0x7
 3334 0bc7 041E0000 		.4byte	.LASF93
 3335 0bcb 10       		.byte	0x10
 3336 0bcc 22       		.byte	0x22
 3337 0bcd 8D030000 		.4byte	0x38d
 3338 0bd1 0C       		.byte	0xc
 3339 0bd2 07       		.uleb128 0x7
 3340 0bd3 F7240000 		.4byte	.LASF246
 3341 0bd7 10       		.byte	0x10
 3342 0bd8 23       		.byte	0x23
 3343 0bd9 8D030000 		.4byte	0x38d
 3344 0bdd 0E       		.byte	0xe
 3345 0bde 07       		.uleb128 0x7
 3346 0bdf 1B060000 		.4byte	.LASF247
 3347 0be3 10       		.byte	0x10
 3348 0be4 24       		.byte	0x24
 3349 0be5 8D030000 		.4byte	0x38d
 3350 0be9 10       		.byte	0x10
 3351 0bea 07       		.uleb128 0x7
 3352 0beb 1E1E0000 		.4byte	.LASF248
 3353 0bef 10       		.byte	0x10
 3354 0bf0 25       		.byte	0x25
 3355 0bf1 01010000 		.4byte	0x101
 3356 0bf5 12       		.byte	0x12
 3357 0bf6 07       		.uleb128 0x7
 3358 0bf7 8D1E0000 		.4byte	.LASF249
 3359 0bfb 10       		.byte	0x10
 3360 0bfc 26       		.byte	0x26
 3361 0bfd 01010000 		.4byte	0x101
 3362 0c01 14       		.byte	0x14
 3363 0c02 07       		.uleb128 0x7
 3364 0c03 76090000 		.4byte	.LASF31
 3365 0c07 10       		.byte	0x10
 3366 0c08 27       		.byte	0x27
 3367 0c09 01010000 		.4byte	0x101
 3368 0c0d 16       		.byte	0x16
 3369 0c0e 07       		.uleb128 0x7
 3370 0c0f 7C090000 		.4byte	.LASF32
 3371 0c13 10       		.byte	0x10
 3372 0c14 28       		.byte	0x28
 3373 0c15 01010000 		.4byte	0x101
 3374 0c19 18       		.byte	0x18
 3375 0c1a 06       		.uleb128 0x6
 3376 0c1b 6F706100 		.ascii	"opa\000"
 3377 0c1f 10       		.byte	0x10
ARM GAS  C:\Users\haske\AppData\Local\Temp\ccnNTYZ7.s 			page 74


 3378 0c20 29       		.byte	0x29
 3379 0c21 98030000 		.4byte	0x398
 3380 0c25 1A       		.byte	0x1a
 3381 0c26 07       		.uleb128 0x7
 3382 0c27 11020000 		.4byte	.LASF250
 3383 0c2b 10       		.byte	0x10
 3384 0c2c 2A       		.byte	0x2a
 3385 0c2d 7D050000 		.4byte	0x57d
 3386 0c31 1B       		.byte	0x1b
 3387 0c32 07       		.uleb128 0x7
 3388 0c33 35160000 		.4byte	.LASF251
 3389 0c37 10       		.byte	0x10
 3390 0c38 2B       		.byte	0x2b
 3391 0c39 72050000 		.4byte	0x572
 3392 0c3d 1C       		.byte	0x1c
 3393 0c3e 07       		.uleb128 0x7
 3394 0c3f 81170000 		.4byte	.LASF252
 3395 0c43 10       		.byte	0x10
 3396 0c44 2C       		.byte	0x2c
 3397 0c45 67050000 		.4byte	0x567
 3398 0c49 1D       		.byte	0x1d
 3399 0c4a 09       		.uleb128 0x9
 3400 0c4b 901D0000 		.4byte	.LASF253
 3401 0c4f 10       		.byte	0x10
 3402 0c50 2D       		.byte	0x2d
 3403 0c51 93050000 		.4byte	0x593
 3404 0c55 01       		.byte	0x1
 3405 0c56 03       		.byte	0x3
 3406 0c57 05       		.byte	0x5
 3407 0c58 1E       		.byte	0x1e
 3408 0c59 09       		.uleb128 0x9
 3409 0c5a 25040000 		.4byte	.LASF217
 3410 0c5e 10       		.byte	0x10
 3411 0c5f 2E       		.byte	0x2e
 3412 0c60 88050000 		.4byte	0x588
 3413 0c64 01       		.byte	0x1
 3414 0c65 03       		.byte	0x3
 3415 0c66 02       		.byte	0x2
 3416 0c67 1E       		.byte	0x1e
 3417 0c68 00       		.byte	0
 3418 0c69 0B       		.uleb128 0xb
 3419 0c6a 04       		.byte	0x4
 3420 0c6b 6F0C0000 		.4byte	0xc6f
 3421 0c6f 0C       		.uleb128 0xc
 3422 0c70 EB020000 		.4byte	0x2eb
 3423 0c74 02       		.uleb128 0x2
 3424 0c75 E4050000 		.4byte	.LASF254
 3425 0c79 10       		.byte	0x10
 3426 0c7a 2F       		.byte	0x2f
 3427 0c7b 9A0B0000 		.4byte	0xb9a
 3428 0c7f 05       		.uleb128 0x5
 3429 0c80 18       		.byte	0x18
 3430 0c81 11       		.byte	0x11
 3431 0c82 20       		.byte	0x20
 3432 0c83 FA0C0000 		.4byte	0xcfa
 3433 0c87 07       		.uleb128 0x7
 3434 0c88 2C130000 		.4byte	.LASF255
ARM GAS  C:\Users\haske\AppData\Local\Temp\ccnNTYZ7.s 			page 75


 3435 0c8c 11       		.byte	0x11
 3436 0c8d 22       		.byte	0x22
 3437 0c8e C3000000 		.4byte	0xc3
 3438 0c92 00       		.byte	0
 3439 0c93 07       		.uleb128 0x7
 3440 0c94 DC020000 		.4byte	.LASF256
 3441 0c98 11       		.byte	0x11
 3442 0c99 23       		.byte	0x23
 3443 0c9a CE000000 		.4byte	0xce
 3444 0c9e 02       		.byte	0x2
 3445 0c9f 07       		.uleb128 0x7
 3446 0ca0 4A1D0000 		.4byte	.LASF257
 3447 0ca4 11       		.byte	0x11
 3448 0ca5 24       		.byte	0x24
 3449 0ca6 29010000 		.4byte	0x129
 3450 0caa 04       		.byte	0x4
 3451 0cab 07       		.uleb128 0x7
 3452 0cac 05130000 		.4byte	.LASF258
 3453 0cb0 11       		.byte	0x11
 3454 0cb1 26       		.byte	0x26
 3455 0cb2 8D030000 		.4byte	0x38d
 3456 0cb6 08       		.byte	0x8
 3457 0cb7 07       		.uleb128 0x7
 3458 0cb8 42180000 		.4byte	.LASF259
 3459 0cbc 11       		.byte	0x11
 3460 0cbd 27       		.byte	0x27
 3461 0cbe 98030000 		.4byte	0x398
 3462 0cc2 0A       		.byte	0xa
 3463 0cc3 06       		.uleb128 0x6
 3464 0cc4 6F706100 		.ascii	"opa\000"
 3465 0cc8 11       		.byte	0x11
 3466 0cc9 29       		.byte	0x29
 3467 0cca 98030000 		.4byte	0x398
 3468 0cce 0B       		.byte	0xb
 3469 0ccf 09       		.uleb128 0x9
 3470 0cd0 25040000 		.4byte	.LASF217
 3471 0cd4 11       		.byte	0x11
 3472 0cd5 2A       		.byte	0x2a
 3473 0cd6 88050000 		.4byte	0x588
 3474 0cda 01       		.byte	0x1
 3475 0cdb 04       		.byte	0x4
 3476 0cdc 04       		.byte	0x4
 3477 0cdd 0C       		.byte	0xc
 3478 0cde 07       		.uleb128 0x7
 3479 0cdf 31180000 		.4byte	.LASF260
 3480 0ce3 11       		.byte	0x11
 3481 0ce4 2C       		.byte	0x2c
 3482 0ce5 D9000000 		.4byte	0xd9
 3483 0ce9 10       		.byte	0x10
 3484 0cea 09       		.uleb128 0x9
 3485 0ceb 0F190000 		.4byte	.LASF261
 3486 0cef 11       		.byte	0x11
 3487 0cf0 2D       		.byte	0x2d
 3488 0cf1 B8000000 		.4byte	0xb8
 3489 0cf5 01       		.byte	0x1
 3490 0cf6 01       		.byte	0x1
 3491 0cf7 07       		.byte	0x7
ARM GAS  C:\Users\haske\AppData\Local\Temp\ccnNTYZ7.s 			page 76


 3492 0cf8 14       		.byte	0x14
 3493 0cf9 00       		.byte	0
 3494 0cfa 02       		.uleb128 0x2
 3495 0cfb 8D0A0000 		.4byte	.LASF262
 3496 0cff 11       		.byte	0x11
 3497 0d00 2E       		.byte	0x2e
 3498 0d01 7F0C0000 		.4byte	0xc7f
 3499 0d05 05       		.uleb128 0x5
 3500 0d06 0A       		.byte	0xa
 3501 0d07 12       		.byte	0x12
 3502 0d08 1C       		.byte	0x1c
 3503 0d09 860D0000 		.4byte	0xd86
 3504 0d0d 07       		.uleb128 0x7
 3505 0d0e 041E0000 		.4byte	.LASF93
 3506 0d12 12       		.byte	0x12
 3507 0d13 1D       		.byte	0x1d
 3508 0d14 8D030000 		.4byte	0x38d
 3509 0d18 00       		.byte	0
 3510 0d19 07       		.uleb128 0x7
 3511 0d1a FD140000 		.4byte	.LASF263
 3512 0d1e 12       		.byte	0x12
 3513 0d1f 1E       		.byte	0x1e
 3514 0d20 01010000 		.4byte	0x101
 3515 0d24 02       		.byte	0x2
 3516 0d25 07       		.uleb128 0x7
 3517 0d26 44110000 		.4byte	.LASF264
 3518 0d2a 12       		.byte	0x12
 3519 0d2b 1F       		.byte	0x1f
 3520 0d2c 01010000 		.4byte	0x101
 3521 0d30 04       		.byte	0x4
 3522 0d31 07       		.uleb128 0x7
 3523 0d32 E00A0000 		.4byte	.LASF265
 3524 0d36 12       		.byte	0x12
 3525 0d37 20       		.byte	0x20
 3526 0d38 01010000 		.4byte	0x101
 3527 0d3c 06       		.byte	0x6
 3528 0d3d 06       		.uleb128 0x6
 3529 0d3e 6F706100 		.ascii	"opa\000"
 3530 0d42 12       		.byte	0x12
 3531 0d43 21       		.byte	0x21
 3532 0d44 98030000 		.4byte	0x398
 3533 0d48 08       		.byte	0x8
 3534 0d49 09       		.uleb128 0x9
 3535 0d4a 25040000 		.4byte	.LASF217
 3536 0d4e 12       		.byte	0x12
 3537 0d4f 22       		.byte	0x22
 3538 0d50 88050000 		.4byte	0x588
 3539 0d54 01       		.byte	0x1
 3540 0d55 02       		.byte	0x2
 3541 0d56 06       		.byte	0x6
 3542 0d57 09       		.byte	0x9
 3543 0d58 09       		.uleb128 0x9
 3544 0d59 270D0000 		.4byte	.LASF266
 3545 0d5d 12       		.byte	0x12
 3546 0d5e 23       		.byte	0x23
 3547 0d5f B8000000 		.4byte	0xb8
 3548 0d63 01       		.byte	0x1
ARM GAS  C:\Users\haske\AppData\Local\Temp\ccnNTYZ7.s 			page 77


 3549 0d64 01       		.byte	0x1
 3550 0d65 05       		.byte	0x5
 3551 0d66 09       		.byte	0x9
 3552 0d67 09       		.uleb128 0x9
 3553 0d68 C40E0000 		.4byte	.LASF267
 3554 0d6c 12       		.byte	0x12
 3555 0d6d 24       		.byte	0x24
 3556 0d6e B8000000 		.4byte	0xb8
 3557 0d72 01       		.byte	0x1
 3558 0d73 01       		.byte	0x1
 3559 0d74 04       		.byte	0x4
 3560 0d75 09       		.byte	0x9
 3561 0d76 09       		.uleb128 0x9
 3562 0d77 6B010000 		.4byte	.LASF268
 3563 0d7b 12       		.byte	0x12
 3564 0d7c 25       		.byte	0x25
 3565 0d7d B8000000 		.4byte	0xb8
 3566 0d81 01       		.byte	0x1
 3567 0d82 01       		.byte	0x1
 3568 0d83 03       		.byte	0x3
 3569 0d84 09       		.byte	0x9
 3570 0d85 00       		.byte	0
 3571 0d86 02       		.uleb128 0x2
 3572 0d87 D9080000 		.4byte	.LASF269
 3573 0d8b 12       		.byte	0x12
 3574 0d8c 26       		.byte	0x26
 3575 0d8d 050D0000 		.4byte	0xd05
 3576 0d91 05       		.uleb128 0x5
 3577 0d92 10       		.byte	0x10
 3578 0d93 13       		.byte	0x13
 3579 0d94 1C       		.byte	0x1c
 3580 0d95 000E0000 		.4byte	0xe00
 3581 0d99 07       		.uleb128 0x7
 3582 0d9a 041E0000 		.4byte	.LASF93
 3583 0d9e 13       		.byte	0x13
 3584 0d9f 1D       		.byte	0x1d
 3585 0da0 8D030000 		.4byte	0x38d
 3586 0da4 00       		.byte	0
 3587 0da5 07       		.uleb128 0x7
 3588 0da6 FD140000 		.4byte	.LASF263
 3589 0daa 13       		.byte	0x13
 3590 0dab 1E       		.byte	0x1e
 3591 0dac 01010000 		.4byte	0x101
 3592 0db0 02       		.byte	0x2
 3593 0db1 07       		.uleb128 0x7
 3594 0db2 0A110000 		.4byte	.LASF270
 3595 0db6 13       		.byte	0x13
 3596 0db7 1F       		.byte	0x1f
 3597 0db8 CE000000 		.4byte	0xce
 3598 0dbc 04       		.byte	0x4
 3599 0dbd 07       		.uleb128 0x7
 3600 0dbe FE070000 		.4byte	.LASF271
 3601 0dc2 13       		.byte	0x13
 3602 0dc3 20       		.byte	0x20
 3603 0dc4 CE000000 		.4byte	0xce
 3604 0dc8 06       		.byte	0x6
 3605 0dc9 07       		.uleb128 0x7
ARM GAS  C:\Users\haske\AppData\Local\Temp\ccnNTYZ7.s 			page 78


 3606 0dca E10E0000 		.4byte	.LASF272
 3607 0dce 13       		.byte	0x13
 3608 0dcf 21       		.byte	0x21
 3609 0dd0 E2020000 		.4byte	0x2e2
 3610 0dd4 08       		.byte	0x8
 3611 0dd5 06       		.uleb128 0x6
 3612 0dd6 6F706100 		.ascii	"opa\000"
 3613 0dda 13       		.byte	0x13
 3614 0ddb 22       		.byte	0x22
 3615 0ddc 98030000 		.4byte	0x398
 3616 0de0 0C       		.byte	0xc
 3617 0de1 09       		.uleb128 0x9
 3618 0de2 25040000 		.4byte	.LASF217
 3619 0de6 13       		.byte	0x13
 3620 0de7 23       		.byte	0x23
 3621 0de8 88050000 		.4byte	0x588
 3622 0dec 01       		.byte	0x1
 3623 0ded 02       		.byte	0x2
 3624 0dee 06       		.byte	0x6
 3625 0def 0D       		.byte	0xd
 3626 0df0 09       		.uleb128 0x9
 3627 0df1 23030000 		.4byte	.LASF273
 3628 0df5 13       		.byte	0x13
 3629 0df6 24       		.byte	0x24
 3630 0df7 B8000000 		.4byte	0xb8
 3631 0dfb 01       		.byte	0x1
 3632 0dfc 01       		.byte	0x1
 3633 0dfd 05       		.byte	0x5
 3634 0dfe 0D       		.byte	0xd
 3635 0dff 00       		.byte	0
 3636 0e00 02       		.uleb128 0x2
 3637 0e01 CE1E0000 		.4byte	.LASF274
 3638 0e05 13       		.byte	0x13
 3639 0e06 25       		.byte	0x25
 3640 0e07 910D0000 		.4byte	0xd91
 3641 0e0b 0B       		.uleb128 0xb
 3642 0e0c 04       		.byte	0x4
 3643 0e0d 98030000 		.4byte	0x398
 3644 0e11 0B       		.uleb128 0xb
 3645 0e12 04       		.byte	0x4
 3646 0e13 29010000 		.4byte	0x129
 3647 0e17 11       		.uleb128 0x11
 3648 0e18 01       		.byte	0x1
 3649 0e19 42000000 		.4byte	0x42
 3650 0e1d 14       		.byte	0x14
 3651 0e1e 1C       		.byte	0x1c
 3652 0e1f 360E0000 		.4byte	0xe36
 3653 0e23 12       		.uleb128 0x12
 3654 0e24 73150000 		.4byte	.LASF275
 3655 0e28 00       		.byte	0
 3656 0e29 12       		.uleb128 0x12
 3657 0e2a 6E020000 		.4byte	.LASF276
 3658 0e2e 01       		.byte	0x1
 3659 0e2f 12       		.uleb128 0x12
 3660 0e30 5C1A0000 		.4byte	.LASF277
 3661 0e34 02       		.byte	0x2
 3662 0e35 00       		.byte	0
ARM GAS  C:\Users\haske\AppData\Local\Temp\ccnNTYZ7.s 			page 79


 3663 0e36 02       		.uleb128 0x2
 3664 0e37 6A0A0000 		.4byte	.LASF278
 3665 0e3b 14       		.byte	0x14
 3666 0e3c 20       		.byte	0x20
 3667 0e3d 170E0000 		.4byte	0xe17
 3668 0e41 05       		.uleb128 0x5
 3669 0e42 10       		.byte	0x10
 3670 0e43 15       		.byte	0x15
 3671 0e44 33       		.byte	0x33
 3672 0e45 7A0E0000 		.4byte	0xe7a
 3673 0e49 07       		.uleb128 0x7
 3674 0e4a 2B170000 		.4byte	.LASF279
 3675 0e4e 15       		.byte	0x15
 3676 0e4f 34       		.byte	0x34
 3677 0e50 7A0E0000 		.4byte	0xe7a
 3678 0e54 00       		.byte	0
 3679 0e55 07       		.uleb128 0x7
 3680 0e56 D9120000 		.4byte	.LASF280
 3681 0e5a 15       		.byte	0x15
 3682 0e5b 35       		.byte	0x35
 3683 0e5c 850E0000 		.4byte	0xe85
 3684 0e60 04       		.byte	0x4
 3685 0e61 06       		.uleb128 0x6
 3686 0e62 62756600 		.ascii	"buf\000"
 3687 0e66 15       		.byte	0x15
 3688 0e67 36       		.byte	0x36
 3689 0e68 E9020000 		.4byte	0x2e9
 3690 0e6c 08       		.byte	0x8
 3691 0e6d 07       		.uleb128 0x7
 3692 0e6e 32200000 		.4byte	.LASF281
 3693 0e72 15       		.byte	0x15
 3694 0e73 37       		.byte	0x37
 3695 0e74 AA020000 		.4byte	0x2aa
 3696 0e78 0C       		.byte	0xc
 3697 0e79 00       		.byte	0
 3698 0e7a 0B       		.uleb128 0xb
 3699 0e7b 04       		.byte	0x4
 3700 0e7c 800E0000 		.4byte	0xe80
 3701 0e80 0C       		.uleb128 0xc
 3702 0e81 69010000 		.4byte	0x169
 3703 0e85 0B       		.uleb128 0xb
 3704 0e86 04       		.byte	0x4
 3705 0e87 69010000 		.4byte	0x169
 3706 0e8b 0A       		.uleb128 0xa
 3707 0e8c B8170000 		.4byte	.LASF282
 3708 0e90 28       		.byte	0x28
 3709 0e91 15       		.byte	0x15
 3710 0e92 2D       		.byte	0x2d
 3711 0e93 E00E0000 		.4byte	0xee0
 3712 0e97 07       		.uleb128 0x7
 3713 0e98 77170000 		.4byte	.LASF283
 3714 0e9c 15       		.byte	0x15
 3715 0e9d 2E       		.byte	0x2e
 3716 0e9e 69010000 		.4byte	0x169
 3717 0ea2 00       		.byte	0
 3718 0ea3 07       		.uleb128 0x7
 3719 0ea4 5A090000 		.4byte	.LASF284
ARM GAS  C:\Users\haske\AppData\Local\Temp\ccnNTYZ7.s 			page 80


 3720 0ea8 15       		.byte	0x15
 3721 0ea9 2F       		.byte	0x2f
 3722 0eaa 69010000 		.4byte	0x169
 3723 0eae 08       		.byte	0x8
 3724 0eaf 07       		.uleb128 0x7
 3725 0eb0 ED170000 		.4byte	.LASF285
 3726 0eb4 15       		.byte	0x15
 3727 0eb5 30       		.byte	0x30
 3728 0eb6 01010000 		.4byte	0x101
 3729 0eba 10       		.byte	0x10
 3730 0ebb 07       		.uleb128 0x7
 3731 0ebc 3E1B0000 		.4byte	.LASF286
 3732 0ec0 15       		.byte	0x15
 3733 0ec1 31       		.byte	0x31
 3734 0ec2 01010000 		.4byte	0x101
 3735 0ec6 12       		.byte	0x12
 3736 0ec7 06       		.uleb128 0x6
 3737 0ec8 62756600 		.ascii	"buf\000"
 3738 0ecc 15       		.byte	0x15
 3739 0ecd 32       		.byte	0x32
 3740 0ece E9020000 		.4byte	0x2e9
 3741 0ed2 14       		.byte	0x14
 3742 0ed3 07       		.uleb128 0x7
 3743 0ed4 E3090000 		.4byte	.LASF287
 3744 0ed8 15       		.byte	0x15
 3745 0ed9 38       		.byte	0x38
 3746 0eda 410E0000 		.4byte	0xe41
 3747 0ede 18       		.byte	0x18
 3748 0edf 00       		.byte	0
 3749 0ee0 02       		.uleb128 0x2
 3750 0ee1 F01D0000 		.4byte	.LASF288
 3751 0ee5 15       		.byte	0x15
 3752 0ee6 39       		.byte	0x39
 3753 0ee7 8B0E0000 		.4byte	0xe8b
 3754 0eeb 0A       		.uleb128 0xa
 3755 0eec 48030000 		.4byte	.LASF289
 3756 0ef0 54       		.byte	0x54
 3757 0ef1 15       		.byte	0x15
 3758 0ef2 3B       		.byte	0x3b
 3759 0ef3 F40F0000 		.4byte	0xff4
 3760 0ef7 06       		.uleb128 0x6
 3761 0ef8 62756600 		.ascii	"buf\000"
 3762 0efc 15       		.byte	0x15
 3763 0efd 3F       		.byte	0x3f
 3764 0efe E9020000 		.4byte	0x2e9
 3765 0f02 00       		.byte	0
 3766 0f03 07       		.uleb128 0x7
 3767 0f04 D9120000 		.4byte	.LASF280
 3768 0f08 15       		.byte	0x15
 3769 0f09 44       		.byte	0x44
 3770 0f0a 850E0000 		.4byte	0xe85
 3771 0f0e 04       		.byte	0x4
 3772 0f0f 07       		.uleb128 0x7
 3773 0f10 2B170000 		.4byte	.LASF279
 3774 0f14 15       		.byte	0x15
 3775 0f15 49       		.byte	0x49
 3776 0f16 7A0E0000 		.4byte	0xe7a
ARM GAS  C:\Users\haske\AppData\Local\Temp\ccnNTYZ7.s 			page 81


 3777 0f1a 08       		.byte	0x8
 3778 0f1b 07       		.uleb128 0x7
 3779 0f1c 0B030000 		.4byte	.LASF290
 3780 0f20 15       		.byte	0x15
 3781 0f21 4B       		.byte	0x4b
 3782 0f22 05100000 		.4byte	0x1005
 3783 0f26 0C       		.byte	0xc
 3784 0f27 07       		.uleb128 0x7
 3785 0f28 EA020000 		.4byte	.LASF291
 3786 0f2c 15       		.byte	0x15
 3787 0f2d 4D       		.byte	0x4d
 3788 0f2e 2B100000 		.4byte	0x102b
 3789 0f32 10       		.byte	0x10
 3790 0f33 07       		.uleb128 0x7
 3791 0f34 BB110000 		.4byte	.LASF292
 3792 0f38 15       		.byte	0x15
 3793 0f39 4F       		.byte	0x4f
 3794 0f3a 6B100000 		.4byte	0x106b
 3795 0f3e 14       		.byte	0x14
 3796 0f3f 07       		.uleb128 0x7
 3797 0f40 B8130000 		.4byte	.LASF293
 3798 0f44 15       		.byte	0x15
 3799 0f45 52       		.byte	0x52
 3800 0f46 9B100000 		.4byte	0x109b
 3801 0f4a 18       		.byte	0x18
 3802 0f4b 07       		.uleb128 0x7
 3803 0f4c E4210000 		.4byte	.LASF294
 3804 0f50 15       		.byte	0x15
 3805 0f51 55       		.byte	0x55
 3806 0f52 BF100000 		.4byte	0x10bf
 3807 0f56 1C       		.byte	0x1c
 3808 0f57 07       		.uleb128 0x7
 3809 0f58 431C0000 		.4byte	.LASF295
 3810 0f5c 15       		.byte	0x15
 3811 0f5d 58       		.byte	0x58
 3812 0f5e EA100000 		.4byte	0x10ea
 3813 0f62 20       		.byte	0x20
 3814 0f63 07       		.uleb128 0x7
 3815 0f64 7B070000 		.4byte	.LASF296
 3816 0f68 15       		.byte	0x15
 3817 0f69 5C       		.byte	0x5c
 3818 0f6a 15110000 		.4byte	0x1115
 3819 0f6e 24       		.byte	0x24
 3820 0f6f 07       		.uleb128 0x7
 3821 0f70 4A220000 		.4byte	.LASF297
 3822 0f74 15       		.byte	0x15
 3823 0f75 60       		.byte	0x60
 3824 0f76 35110000 		.4byte	0x1135
 3825 0f7a 28       		.byte	0x28
 3826 0f7b 07       		.uleb128 0x7
 3827 0f7c E90A0000 		.4byte	.LASF298
 3828 0f80 15       		.byte	0x15
 3829 0f81 71       		.byte	0x71
 3830 0f82 73110000 		.4byte	0x1173
 3831 0f86 2C       		.byte	0x2c
 3832 0f87 07       		.uleb128 0x7
 3833 0f88 0B010000 		.4byte	.LASF299
ARM GAS  C:\Users\haske\AppData\Local\Temp\ccnNTYZ7.s 			page 82


 3834 0f8c 15       		.byte	0x15
 3835 0f8d 78       		.byte	0x78
 3836 0f8e 2B100000 		.4byte	0x102b
 3837 0f92 30       		.byte	0x30
 3838 0f93 07       		.uleb128 0x7
 3839 0f94 2E1A0000 		.4byte	.LASF300
 3840 0f98 15       		.byte	0x15
 3841 0f99 7D       		.byte	0x7d
 3842 0f9a 05100000 		.4byte	0x1005
 3843 0f9e 34       		.byte	0x34
 3844 0f9f 07       		.uleb128 0x7
 3845 0fa0 FC060000 		.4byte	.LASF301
 3846 0fa4 15       		.byte	0x15
 3847 0fa5 8D       		.byte	0x8d
 3848 0fa6 A2110000 		.4byte	0x11a2
 3849 0faa 38       		.byte	0x38
 3850 0fab 07       		.uleb128 0x7
 3851 0fac AB0D0000 		.4byte	.LASF302
 3852 0fb0 15       		.byte	0x15
 3853 0fb1 99       		.byte	0x99
 3854 0fb2 C7110000 		.4byte	0x11c7
 3855 0fb6 3C       		.byte	0x3c
 3856 0fb7 07       		.uleb128 0x7
 3857 0fb8 A01D0000 		.4byte	.LASF303
 3858 0fbc 15       		.byte	0x15
 3859 0fbd A3       		.byte	0xa3
 3860 0fbe E2110000 		.4byte	0x11e2
 3861 0fc2 40       		.byte	0x40
 3862 0fc3 07       		.uleb128 0x7
 3863 0fc4 411E0000 		.4byte	.LASF304
 3864 0fc8 15       		.byte	0x15
 3865 0fc9 AC       		.byte	0xac
 3866 0fca FD110000 		.4byte	0x11fd
 3867 0fce 44       		.byte	0x44
 3868 0fcf 07       		.uleb128 0x7
 3869 0fd0 36110000 		.4byte	.LASF305
 3870 0fd4 15       		.byte	0x15
 3871 0fd5 B5       		.byte	0xb5
 3872 0fd6 19120000 		.4byte	0x1219
 3873 0fda 48       		.byte	0x48
 3874 0fdb 07       		.uleb128 0x7
 3875 0fdc CC0A0000 		.4byte	.LASF306
 3876 0fe0 15       		.byte	0x15
 3877 0fe1 BA       		.byte	0xba
 3878 0fe2 EF000000 		.4byte	0xef
 3879 0fe6 4C       		.byte	0x4c
 3880 0fe7 07       		.uleb128 0x7
 3881 0fe8 C6230000 		.4byte	.LASF42
 3882 0fec 15       		.byte	0x15
 3883 0fed BD       		.byte	0xbd
 3884 0fee E9020000 		.4byte	0x2e9
 3885 0ff2 50       		.byte	0x50
 3886 0ff3 00       		.byte	0
 3887 0ff4 16       		.uleb128 0x16
 3888 0ff5 FF0F0000 		.4byte	0xfff
 3889 0ff9 0E       		.uleb128 0xe
 3890 0ffa FF0F0000 		.4byte	0xfff
ARM GAS  C:\Users\haske\AppData\Local\Temp\ccnNTYZ7.s 			page 83


 3891 0ffe 00       		.byte	0
 3892 0fff 0B       		.uleb128 0xb
 3893 1000 04       		.byte	0x4
 3894 1001 EB0E0000 		.4byte	0xeeb
 3895 1005 0B       		.uleb128 0xb
 3896 1006 04       		.byte	0x4
 3897 1007 F40F0000 		.4byte	0xff4
 3898 100b 16       		.uleb128 0x16
 3899 100c 20100000 		.4byte	0x1020
 3900 1010 0E       		.uleb128 0xe
 3901 1011 FF0F0000 		.4byte	0xfff
 3902 1015 0E       		.uleb128 0xe
 3903 1016 20100000 		.4byte	0x1020
 3904 101a 0E       		.uleb128 0xe
 3905 101b 7A0E0000 		.4byte	0xe7a
 3906 101f 00       		.byte	0
 3907 1020 0B       		.uleb128 0xb
 3908 1021 04       		.byte	0x4
 3909 1022 26100000 		.4byte	0x1026
 3910 1026 0C       		.uleb128 0xc
 3911 1027 8F0B0000 		.4byte	0xb8f
 3912 102b 0B       		.uleb128 0xb
 3913 102c 04       		.byte	0x4
 3914 102d 0B100000 		.4byte	0x100b
 3915 1031 16       		.uleb128 0x16
 3916 1032 55100000 		.4byte	0x1055
 3917 1036 0E       		.uleb128 0xe
 3918 1037 FF0F0000 		.4byte	0xfff
 3919 103b 0E       		.uleb128 0xe
 3920 103c 55100000 		.4byte	0x1055
 3921 1040 0E       		.uleb128 0xe
 3922 1041 60100000 		.4byte	0x1060
 3923 1045 0E       		.uleb128 0xe
 3924 1046 CE000000 		.4byte	0xce
 3925 104a 0E       		.uleb128 0xe
 3926 104b CE000000 		.4byte	0xce
 3927 104f 0E       		.uleb128 0xe
 3928 1050 CE000000 		.4byte	0xce
 3929 1054 00       		.byte	0
 3930 1055 0B       		.uleb128 0xb
 3931 1056 04       		.byte	0x4
 3932 1057 5B100000 		.4byte	0x105b
 3933 105b 0C       		.uleb128 0xc
 3934 105c 000E0000 		.4byte	0xe00
 3935 1060 0B       		.uleb128 0xb
 3936 1061 04       		.byte	0x4
 3937 1062 66100000 		.4byte	0x1066
 3938 1066 0C       		.uleb128 0xc
 3939 1067 29010000 		.4byte	0x129
 3940 106b 0B       		.uleb128 0xb
 3941 106c 04       		.byte	0x4
 3942 106d 31100000 		.4byte	0x1031
 3943 1071 16       		.uleb128 0x16
 3944 1072 90100000 		.4byte	0x1090
 3945 1076 0E       		.uleb128 0xe
 3946 1077 FF0F0000 		.4byte	0xfff
 3947 107b 0E       		.uleb128 0xe
ARM GAS  C:\Users\haske\AppData\Local\Temp\ccnNTYZ7.s 			page 84


 3948 107c 90100000 		.4byte	0x1090
 3949 1080 0E       		.uleb128 0xe
 3950 1081 7A0E0000 		.4byte	0xe7a
 3951 1085 0E       		.uleb128 0xe
 3952 1086 D1020000 		.4byte	0x2d1
 3953 108a 0E       		.uleb128 0xe
 3954 108b 64090000 		.4byte	0x964
 3955 108f 00       		.byte	0
 3956 1090 0B       		.uleb128 0xb
 3957 1091 04       		.byte	0x4
 3958 1092 96100000 		.4byte	0x1096
 3959 1096 0C       		.uleb128 0xc
 3960 1097 FA0C0000 		.4byte	0xcfa
 3961 109b 0B       		.uleb128 0xb
 3962 109c 04       		.byte	0x4
 3963 109d 71100000 		.4byte	0x1071
 3964 10a1 0D       		.uleb128 0xd
 3965 10a2 0F030000 		.4byte	0x30f
 3966 10a6 BF100000 		.4byte	0x10bf
 3967 10aa 0E       		.uleb128 0xe
 3968 10ab FF0F0000 		.4byte	0xfff
 3969 10af 0E       		.uleb128 0xe
 3970 10b0 90100000 		.4byte	0x1090
 3971 10b4 0E       		.uleb128 0xe
 3972 10b5 7A0E0000 		.4byte	0xe7a
 3973 10b9 0E       		.uleb128 0xe
 3974 10ba E2020000 		.4byte	0x2e2
 3975 10be 00       		.byte	0
 3976 10bf 0B       		.uleb128 0xb
 3977 10c0 04       		.byte	0x4
 3978 10c1 A1100000 		.4byte	0x10a1
 3979 10c5 16       		.uleb128 0x16
 3980 10c6 DF100000 		.4byte	0x10df
 3981 10ca 0E       		.uleb128 0xe
 3982 10cb FF0F0000 		.4byte	0xfff
 3983 10cf 0E       		.uleb128 0xe
 3984 10d0 DF100000 		.4byte	0x10df
 3985 10d4 0E       		.uleb128 0xe
 3986 10d5 60100000 		.4byte	0x1060
 3987 10d9 0E       		.uleb128 0xe
 3988 10da E4000000 		.4byte	0xe4
 3989 10de 00       		.byte	0
 3990 10df 0B       		.uleb128 0xb
 3991 10e0 04       		.byte	0x4
 3992 10e1 E5100000 		.4byte	0x10e5
 3993 10e5 0C       		.uleb128 0xc
 3994 10e6 740C0000 		.4byte	0xc74
 3995 10ea 0B       		.uleb128 0xb
 3996 10eb 04       		.byte	0x4
 3997 10ec C5100000 		.4byte	0x10c5
 3998 10f0 16       		.uleb128 0x16
 3999 10f1 0A110000 		.4byte	0x110a
 4000 10f5 0E       		.uleb128 0xe
 4001 10f6 FF0F0000 		.4byte	0xfff
 4002 10fa 0E       		.uleb128 0xe
 4003 10fb 0A110000 		.4byte	0x110a
 4004 10ff 0E       		.uleb128 0xe
ARM GAS  C:\Users\haske\AppData\Local\Temp\ccnNTYZ7.s 			page 85


 4005 1100 60100000 		.4byte	0x1060
 4006 1104 0E       		.uleb128 0xe
 4007 1105 60100000 		.4byte	0x1060
 4008 1109 00       		.byte	0
 4009 110a 0B       		.uleb128 0xb
 4010 110b 04       		.byte	0x4
 4011 110c 10110000 		.4byte	0x1110
 4012 1110 0C       		.uleb128 0xc
 4013 1111 860D0000 		.4byte	0xd86
 4014 1115 0B       		.uleb128 0xb
 4015 1116 04       		.byte	0x4
 4016 1117 F0100000 		.4byte	0x10f0
 4017 111b 16       		.uleb128 0x16
 4018 111c 35110000 		.4byte	0x1135
 4019 1120 0E       		.uleb128 0xe
 4020 1121 FF0F0000 		.4byte	0xfff
 4021 1125 0E       		.uleb128 0xe
 4022 1126 20100000 		.4byte	0x1020
 4023 112a 0E       		.uleb128 0xe
 4024 112b 60100000 		.4byte	0x1060
 4025 112f 0E       		.uleb128 0xe
 4026 1130 CE000000 		.4byte	0xce
 4027 1134 00       		.byte	0
 4028 1135 0B       		.uleb128 0xb
 4029 1136 04       		.byte	0x4
 4030 1137 1B110000 		.4byte	0x111b
 4031 113b 16       		.uleb128 0x16
 4032 113c 73110000 		.4byte	0x1173
 4033 1140 0E       		.uleb128 0xe
 4034 1141 FF0F0000 		.4byte	0xfff
 4035 1145 0E       		.uleb128 0xe
 4036 1146 7A0E0000 		.4byte	0xe7a
 4037 114a 0E       		.uleb128 0xe
 4038 114b E2020000 		.4byte	0x2e2
 4039 114f 0E       		.uleb128 0xe
 4040 1150 01010000 		.4byte	0x101
 4041 1154 0E       		.uleb128 0xe
 4042 1155 01010000 		.4byte	0x101
 4043 1159 0E       		.uleb128 0xe
 4044 115a 01010000 		.4byte	0x101
 4045 115e 0E       		.uleb128 0xe
 4046 115f 90100000 		.4byte	0x1090
 4047 1163 0E       		.uleb128 0xe
 4048 1164 64090000 		.4byte	0x964
 4049 1168 0E       		.uleb128 0xe
 4050 1169 420A0000 		.4byte	0xa42
 4051 116d 0E       		.uleb128 0xe
 4052 116e 0B0E0000 		.4byte	0xe0b
 4053 1172 00       		.byte	0
 4054 1173 0B       		.uleb128 0xb
 4055 1174 04       		.byte	0x4
 4056 1175 3B110000 		.4byte	0x113b
 4057 1179 16       		.uleb128 0x16
 4058 117a A2110000 		.4byte	0x11a2
 4059 117e 0E       		.uleb128 0xe
 4060 117f FF0F0000 		.4byte	0xfff
 4061 1183 0E       		.uleb128 0xe
ARM GAS  C:\Users\haske\AppData\Local\Temp\ccnNTYZ7.s 			page 86


 4062 1184 E9020000 		.4byte	0x2e9
 4063 1188 0E       		.uleb128 0xe
 4064 1189 01010000 		.4byte	0x101
 4065 118d 0E       		.uleb128 0xe
 4066 118e 7A0E0000 		.4byte	0xe7a
 4067 1192 0E       		.uleb128 0xe
 4068 1193 E9020000 		.4byte	0x2e9
 4069 1197 0E       		.uleb128 0xe
 4070 1198 01010000 		.4byte	0x101
 4071 119c 0E       		.uleb128 0xe
 4072 119d 7A0E0000 		.4byte	0xe7a
 4073 11a1 00       		.byte	0
 4074 11a2 0B       		.uleb128 0xb
 4075 11a3 04       		.byte	0x4
 4076 11a4 79110000 		.4byte	0x1179
 4077 11a8 0D       		.uleb128 0xd
 4078 11a9 C1110000 		.4byte	0x11c1
 4079 11ad C1110000 		.4byte	0x11c1
 4080 11b1 0E       		.uleb128 0xe
 4081 11b2 FF0F0000 		.4byte	0xfff
 4082 11b6 0E       		.uleb128 0xe
 4083 11b7 C1110000 		.4byte	0x11c1
 4084 11bb 0E       		.uleb128 0xe
 4085 11bc 360E0000 		.4byte	0xe36
 4086 11c0 00       		.byte	0
 4087 11c1 0B       		.uleb128 0xb
 4088 11c2 04       		.byte	0x4
 4089 11c3 8B0E0000 		.4byte	0xe8b
 4090 11c7 0B       		.uleb128 0xb
 4091 11c8 04       		.byte	0x4
 4092 11c9 A8110000 		.4byte	0x11a8
 4093 11cd 16       		.uleb128 0x16
 4094 11ce E2110000 		.4byte	0x11e2
 4095 11d2 0E       		.uleb128 0xe
 4096 11d3 FF0F0000 		.4byte	0xfff
 4097 11d7 0E       		.uleb128 0xe
 4098 11d8 C1110000 		.4byte	0x11c1
 4099 11dc 0E       		.uleb128 0xe
 4100 11dd 360E0000 		.4byte	0xe36
 4101 11e1 00       		.byte	0
 4102 11e2 0B       		.uleb128 0xb
 4103 11e3 04       		.byte	0x4
 4104 11e4 CD110000 		.4byte	0x11cd
 4105 11e8 16       		.uleb128 0x16
 4106 11e9 FD110000 		.4byte	0x11fd
 4107 11ed 0E       		.uleb128 0xe
 4108 11ee FF0F0000 		.4byte	0xfff
 4109 11f2 0E       		.uleb128 0xe
 4110 11f3 C1110000 		.4byte	0x11c1
 4111 11f7 0E       		.uleb128 0xe
 4112 11f8 90100000 		.4byte	0x1090
 4113 11fc 00       		.byte	0
 4114 11fd 0B       		.uleb128 0xb
 4115 11fe 04       		.byte	0x4
 4116 11ff E8110000 		.4byte	0x11e8
 4117 1203 16       		.uleb128 0x16
 4118 1204 13120000 		.4byte	0x1213
ARM GAS  C:\Users\haske\AppData\Local\Temp\ccnNTYZ7.s 			page 87


 4119 1208 0E       		.uleb128 0xe
 4120 1209 FF0F0000 		.4byte	0xfff
 4121 120d 0E       		.uleb128 0xe
 4122 120e 13120000 		.4byte	0x1213
 4123 1212 00       		.byte	0
 4124 1213 0B       		.uleb128 0xb
 4125 1214 04       		.byte	0x4
 4126 1215 E00E0000 		.4byte	0xee0
 4127 1219 0B       		.uleb128 0xb
 4128 121a 04       		.byte	0x4
 4129 121b 03120000 		.4byte	0x1203
 4130 121f 02       		.uleb128 0x2
 4131 1220 C80B0000 		.4byte	.LASF307
 4132 1224 15       		.byte	0x15
 4133 1225 C0       		.byte	0xc0
 4134 1226 EB0E0000 		.4byte	0xeeb
 4135 122a 02       		.uleb128 0x2
 4136 122b 45000000 		.4byte	.LASF308
 4137 122f 16       		.byte	0x16
 4138 1230 1D       		.byte	0x1d
 4139 1231 B8000000 		.4byte	0xb8
 4140 1235 05       		.uleb128 0x5
 4141 1236 0C       		.byte	0xc
 4142 1237 16       		.byte	0x16
 4143 1238 20       		.byte	0x20
 4144 1239 62120000 		.4byte	0x1262
 4145 123d 07       		.uleb128 0x7
 4146 123e 71250000 		.4byte	.LASF309
 4147 1242 16       		.byte	0x16
 4148 1243 21       		.byte	0x21
 4149 1244 E4000000 		.4byte	0xe4
 4150 1248 00       		.byte	0
 4151 1249 07       		.uleb128 0x7
 4152 124a A2060000 		.4byte	.LASF310
 4153 124e 16       		.byte	0x16
 4154 124f 22       		.byte	0x22
 4155 1250 62120000 		.4byte	0x1262
 4156 1254 04       		.byte	0x4
 4157 1255 07       		.uleb128 0x7
 4158 1256 F3000000 		.4byte	.LASF311
 4159 125a 16       		.byte	0x16
 4160 125b 23       		.byte	0x23
 4161 125c 62120000 		.4byte	0x1262
 4162 1260 08       		.byte	0x8
 4163 1261 00       		.byte	0
 4164 1262 0B       		.uleb128 0xb
 4165 1263 04       		.byte	0x4
 4166 1264 2A120000 		.4byte	0x122a
 4167 1268 02       		.uleb128 0x2
 4168 1269 631F0000 		.4byte	.LASF312
 4169 126d 16       		.byte	0x16
 4170 126e 24       		.byte	0x24
 4171 126f 35120000 		.4byte	0x1235
 4172 1273 02       		.uleb128 0x2
 4173 1274 C9130000 		.4byte	.LASF313
 4174 1278 17       		.byte	0x17
 4175 1279 27       		.byte	0x27
ARM GAS  C:\Users\haske\AppData\Local\Temp\ccnNTYZ7.s 			page 88


 4176 127a 7E120000 		.4byte	0x127e
 4177 127e 0B       		.uleb128 0xb
 4178 127f 04       		.byte	0x4
 4179 1280 84120000 		.4byte	0x1284
 4180 1284 16       		.uleb128 0x16
 4181 1285 8F120000 		.4byte	0x128f
 4182 1289 0E       		.uleb128 0xe
 4183 128a 8F120000 		.4byte	0x128f
 4184 128e 00       		.byte	0
 4185 128f 0B       		.uleb128 0xb
 4186 1290 04       		.byte	0x4
 4187 1291 95120000 		.4byte	0x1295
 4188 1295 0A       		.uleb128 0xa
 4189 1296 F4020000 		.4byte	.LASF314
 4190 129a 18       		.byte	0x18
 4191 129b 17       		.byte	0x17
 4192 129c 2C       		.byte	0x2c
 4193 129d ED120000 		.4byte	0x12ed
 4194 12a1 07       		.uleb128 0x7
 4195 12a2 7E1D0000 		.4byte	.LASF315
 4196 12a6 17       		.byte	0x17
 4197 12a7 2D       		.byte	0x2d
 4198 12a8 E4000000 		.4byte	0xe4
 4199 12ac 00       		.byte	0
 4200 12ad 07       		.uleb128 0x7
 4201 12ae 2A1C0000 		.4byte	.LASF316
 4202 12b2 17       		.byte	0x17
 4203 12b3 2E       		.byte	0x2e
 4204 12b4 E4000000 		.4byte	0xe4
 4205 12b8 04       		.byte	0x4
 4206 12b9 07       		.uleb128 0x7
 4207 12ba 891A0000 		.4byte	.LASF317
 4208 12be 17       		.byte	0x17
 4209 12bf 2F       		.byte	0x2f
 4210 12c0 73120000 		.4byte	0x1273
 4211 12c4 08       		.byte	0x8
 4212 12c5 07       		.uleb128 0x7
 4213 12c6 C6230000 		.4byte	.LASF42
 4214 12ca 17       		.byte	0x17
 4215 12cb 30       		.byte	0x30
 4216 12cc E9020000 		.4byte	0x2e9
 4217 12d0 0C       		.byte	0xc
 4218 12d1 07       		.uleb128 0x7
 4219 12d2 CF020000 		.4byte	.LASF318
 4220 12d6 17       		.byte	0x17
 4221 12d7 31       		.byte	0x31
 4222 12d8 D9000000 		.4byte	0xd9
 4223 12dc 10       		.byte	0x10
 4224 12dd 09       		.uleb128 0x9
 4225 12de 24170000 		.4byte	.LASF319
 4226 12e2 17       		.byte	0x17
 4227 12e3 32       		.byte	0x32
 4228 12e4 E4000000 		.4byte	0xe4
 4229 12e8 04       		.byte	0x4
 4230 12e9 01       		.byte	0x1
 4231 12ea 1F       		.byte	0x1f
 4232 12eb 14       		.byte	0x14
ARM GAS  C:\Users\haske\AppData\Local\Temp\ccnNTYZ7.s 			page 89


 4233 12ec 00       		.byte	0
 4234 12ed 02       		.uleb128 0x2
 4235 12ee EB0C0000 		.4byte	.LASF320
 4236 12f2 17       		.byte	0x17
 4237 12f3 33       		.byte	0x33
 4238 12f4 95120000 		.4byte	0x1295
 4239 12f8 0A       		.uleb128 0xa
 4240 12f9 C5120000 		.4byte	.LASF321
 4241 12fd 1C       		.byte	0x1c
 4242 12fe 18       		.byte	0x18
 4243 12ff 32       		.byte	0x32
 4244 1300 6B130000 		.4byte	0x136b
 4245 1304 07       		.uleb128 0x7
 4246 1305 3D150000 		.4byte	.LASF322
 4247 1309 18       		.byte	0x18
 4248 130a 33       		.byte	0x33
 4249 130b E9020000 		.4byte	0x2e9
 4250 130f 00       		.byte	0
 4251 1310 07       		.uleb128 0x7
 4252 1311 42150000 		.4byte	.LASF323
 4253 1315 18       		.byte	0x18
 4254 1316 34       		.byte	0x34
 4255 1317 E9020000 		.4byte	0x2e9
 4256 131b 04       		.byte	0x4
 4257 131c 07       		.uleb128 0x7
 4258 131d B4190000 		.4byte	.LASF324
 4259 1321 18       		.byte	0x18
 4260 1322 37       		.byte	0x37
 4261 1323 E9020000 		.4byte	0x2e9
 4262 1327 08       		.byte	0x8
 4263 1328 07       		.uleb128 0x7
 4264 1329 391B0000 		.4byte	.LASF325
 4265 132d 18       		.byte	0x18
 4266 132e 38       		.byte	0x38
 4267 132f E4000000 		.4byte	0xe4
 4268 1333 0C       		.byte	0xc
 4269 1334 07       		.uleb128 0x7
 4270 1335 7E0C0000 		.4byte	.LASF326
 4271 1339 18       		.byte	0x18
 4272 133a 3A       		.byte	0x3a
 4273 133b 6B130000 		.4byte	0x136b
 4274 133f 10       		.byte	0x10
 4275 1340 07       		.uleb128 0x7
 4276 1341 AF090000 		.4byte	.LASF327
 4277 1345 18       		.byte	0x18
 4278 1346 3C       		.byte	0x3c
 4279 1347 6B130000 		.4byte	0x136b
 4280 134b 14       		.byte	0x14
 4281 134c 09       		.uleb128 0x9
 4282 134d E6060000 		.4byte	.LASF328
 4283 1351 18       		.byte	0x18
 4284 1352 3D       		.byte	0x3d
 4285 1353 70130000 		.4byte	0x1370
 4286 1357 04       		.byte	0x4
 4287 1358 01       		.byte	0x1
 4288 1359 1F       		.byte	0x1f
 4289 135a 18       		.byte	0x18
ARM GAS  C:\Users\haske\AppData\Local\Temp\ccnNTYZ7.s 			page 90


 4290 135b 09       		.uleb128 0x9
 4291 135c 4F110000 		.4byte	.LASF329
 4292 1360 18       		.byte	0x18
 4293 1361 3E       		.byte	0x3e
 4294 1362 70130000 		.4byte	0x1370
 4295 1366 04       		.byte	0x4
 4296 1367 01       		.byte	0x1
 4297 1368 1E       		.byte	0x1e
 4298 1369 18       		.byte	0x18
 4299 136a 00       		.byte	0
 4300 136b 20       		.uleb128 0x20
 4301 136c 9F000000 		.4byte	0x9f
 4302 1370 20       		.uleb128 0x20
 4303 1371 E4000000 		.4byte	0xe4
 4304 1375 02       		.uleb128 0x2
 4305 1376 52000000 		.4byte	.LASF330
 4306 137a 18       		.byte	0x18
 4307 137b 3F       		.byte	0x3f
 4308 137c F8120000 		.4byte	0x12f8
 4309 1380 0A       		.uleb128 0xa
 4310 1381 87240000 		.4byte	.LASF331
 4311 1385 50       		.byte	0x50
 4312 1386 18       		.byte	0x18
 4313 1387 4D       		.byte	0x4d
 4314 1388 FE140000 		.4byte	0x14fe
 4315 138c 07       		.uleb128 0x7
 4316 138d 85070000 		.4byte	.LASF332
 4317 1391 18       		.byte	0x18
 4318 1392 4F       		.byte	0x4f
 4319 1393 01010000 		.4byte	0x101
 4320 1397 00       		.byte	0
 4321 1398 07       		.uleb128 0x7
 4322 1399 40040000 		.4byte	.LASF333
 4323 139d 18       		.byte	0x18
 4324 139e 50       		.byte	0x50
 4325 139f 01010000 		.4byte	0x101
 4326 13a3 02       		.byte	0x2
 4327 13a4 07       		.uleb128 0x7
 4328 13a5 281B0000 		.4byte	.LASF334
 4329 13a9 18       		.byte	0x18
 4330 13aa 53       		.byte	0x53
 4331 13ab 01010000 		.4byte	0x101
 4332 13af 04       		.byte	0x4
 4333 13b0 07       		.uleb128 0x7
 4334 13b1 D2090000 		.4byte	.LASF335
 4335 13b5 18       		.byte	0x18
 4336 13b6 55       		.byte	0x55
 4337 13b7 01010000 		.4byte	0x101
 4338 13bb 06       		.byte	0x6
 4339 13bc 07       		.uleb128 0x7
 4340 13bd 68110000 		.4byte	.LASF336
 4341 13c1 18       		.byte	0x18
 4342 13c2 57       		.byte	0x57
 4343 13c3 01010000 		.4byte	0x101
 4344 13c7 08       		.byte	0x8
 4345 13c8 07       		.uleb128 0x7
 4346 13c9 71110000 		.4byte	.LASF337
ARM GAS  C:\Users\haske\AppData\Local\Temp\ccnNTYZ7.s 			page 91


 4347 13cd 18       		.byte	0x18
 4348 13ce 58       		.byte	0x58
 4349 13cf 01010000 		.4byte	0x101
 4350 13d3 0A       		.byte	0xa
 4351 13d4 07       		.uleb128 0x7
 4352 13d5 751D0000 		.4byte	.LASF338
 4353 13d9 18       		.byte	0x18
 4354 13da 5C       		.byte	0x5c
 4355 13db FE140000 		.4byte	0x14fe
 4356 13df 0C       		.byte	0xc
 4357 13e0 09       		.uleb128 0x9
 4358 13e1 F80A0000 		.4byte	.LASF339
 4359 13e5 18       		.byte	0x18
 4360 13e6 5E       		.byte	0x5e
 4361 13e7 E4000000 		.4byte	0xe4
 4362 13eb 04       		.byte	0x4
 4363 13ec 01       		.byte	0x1
 4364 13ed 1F       		.byte	0x1f
 4365 13ee 10       		.byte	0x10
 4366 13ef 09       		.uleb128 0x9
 4367 13f0 B70E0000 		.4byte	.LASF340
 4368 13f4 18       		.byte	0x18
 4369 13f5 5F       		.byte	0x5f
 4370 13f6 E4000000 		.4byte	0xe4
 4371 13fa 04       		.byte	0x4
 4372 13fb 01       		.byte	0x1
 4373 13fc 1E       		.byte	0x1e
 4374 13fd 10       		.byte	0x10
 4375 13fe 09       		.uleb128 0x9
 4376 13ff 760D0000 		.4byte	.LASF341
 4377 1403 18       		.byte	0x18
 4378 1404 60       		.byte	0x60
 4379 1405 E4000000 		.4byte	0xe4
 4380 1409 04       		.byte	0x4
 4381 140a 01       		.byte	0x1
 4382 140b 1D       		.byte	0x1d
 4383 140c 10       		.byte	0x10
 4384 140d 09       		.uleb128 0x9
 4385 140e 560B0000 		.4byte	.LASF342
 4386 1412 18       		.byte	0x18
 4387 1413 61       		.byte	0x61
 4388 1414 E4000000 		.4byte	0xe4
 4389 1418 04       		.byte	0x4
 4390 1419 01       		.byte	0x1
 4391 141a 1C       		.byte	0x1c
 4392 141b 10       		.byte	0x10
 4393 141c 09       		.uleb128 0x9
 4394 141d 89050000 		.4byte	.LASF343
 4395 1421 18       		.byte	0x18
 4396 1422 62       		.byte	0x62
 4397 1423 E4000000 		.4byte	0xe4
 4398 1427 04       		.byte	0x4
 4399 1428 02       		.byte	0x2
 4400 1429 1A       		.byte	0x1a
 4401 142a 10       		.byte	0x10
 4402 142b 09       		.uleb128 0x9
 4403 142c 32200000 		.4byte	.LASF281
ARM GAS  C:\Users\haske\AppData\Local\Temp\ccnNTYZ7.s 			page 92


 4404 1430 18       		.byte	0x18
 4405 1431 63       		.byte	0x63
 4406 1432 E4000000 		.4byte	0xe4
 4407 1436 04       		.byte	0x4
 4408 1437 01       		.byte	0x1
 4409 1438 19       		.byte	0x19
 4410 1439 10       		.byte	0x10
 4411 143a 08       		.uleb128 0x8
 4412 143b 64706900 		.ascii	"dpi\000"
 4413 143f 18       		.byte	0x18
 4414 1440 66       		.byte	0x66
 4415 1441 E4000000 		.4byte	0xe4
 4416 1445 04       		.byte	0x4
 4417 1446 0A       		.byte	0xa
 4418 1447 0F       		.byte	0xf
 4419 1448 10       		.byte	0x10
 4420 1449 07       		.uleb128 0x7
 4421 144a A6230000 		.4byte	.LASF344
 4422 144e 18       		.byte	0x18
 4423 144f 6A       		.byte	0x6a
 4424 1450 1F150000 		.4byte	0x151f
 4425 1454 14       		.byte	0x14
 4426 1455 07       		.uleb128 0x7
 4427 1456 851D0000 		.4byte	.LASF345
 4428 145a 18       		.byte	0x18
 4429 145b 6E       		.byte	0x6e
 4430 145c 35150000 		.4byte	0x1535
 4431 1460 18       		.byte	0x18
 4432 1461 07       		.uleb128 0x7
 4433 1462 39210000 		.4byte	.LASF346
 4434 1466 18       		.byte	0x18
 4435 1467 73       		.byte	0x73
 4436 1468 64150000 		.4byte	0x1564
 4437 146c 1C       		.byte	0x1c
 4438 146d 07       		.uleb128 0x7
 4439 146e C30F0000 		.4byte	.LASF347
 4440 1472 18       		.byte	0x18
 4441 1473 76       		.byte	0x76
 4442 1474 7F150000 		.4byte	0x157f
 4443 1478 20       		.byte	0x20
 4444 1479 07       		.uleb128 0x7
 4445 147a 66160000 		.4byte	.LASF348
 4446 147e 18       		.byte	0x18
 4447 147f 7B       		.byte	0x7b
 4448 1480 9A150000 		.4byte	0x159a
 4449 1484 24       		.byte	0x24
 4450 1485 07       		.uleb128 0x7
 4451 1486 7D140000 		.4byte	.LASF349
 4452 148a 18       		.byte	0x18
 4453 148b 80       		.byte	0x80
 4454 148c AB150000 		.4byte	0x15ab
 4455 1490 28       		.byte	0x28
 4456 1491 07       		.uleb128 0x7
 4457 1492 D9240000 		.4byte	.LASF350
 4458 1496 18       		.byte	0x18
 4459 1497 83       		.byte	0x83
 4460 1498 AB150000 		.4byte	0x15ab
ARM GAS  C:\Users\haske\AppData\Local\Temp\ccnNTYZ7.s 			page 93


 4461 149c 2C       		.byte	0x2c
 4462 149d 07       		.uleb128 0x7
 4463 149e E61A0000 		.4byte	.LASF351
 4464 14a2 18       		.byte	0x18
 4465 14a3 86       		.byte	0x86
 4466 14a4 AB150000 		.4byte	0x15ab
 4467 14a8 30       		.byte	0x30
 4468 14a9 07       		.uleb128 0x7
 4469 14aa D61A0000 		.4byte	.LASF352
 4470 14ae 18       		.byte	0x18
 4471 14af 89       		.byte	0x89
 4472 14b0 AB150000 		.4byte	0x15ab
 4473 14b4 34       		.byte	0x34
 4474 14b5 07       		.uleb128 0x7
 4475 14b6 34000000 		.4byte	.LASF353
 4476 14ba 18       		.byte	0x18
 4477 14bb 8D       		.byte	0x8d
 4478 14bc 8D030000 		.4byte	0x38d
 4479 14c0 38       		.byte	0x38
 4480 14c1 07       		.uleb128 0x7
 4481 14c2 C4210000 		.4byte	.LASF354
 4482 14c6 18       		.byte	0x18
 4483 14c7 8F       		.byte	0x8f
 4484 14c8 B1150000 		.4byte	0x15b1
 4485 14cc 3C       		.byte	0x3c
 4486 14cd 07       		.uleb128 0x7
 4487 14ce 44130000 		.4byte	.LASF355
 4488 14d2 18       		.byte	0x18
 4489 14d3 90       		.byte	0x90
 4490 14d4 C7150000 		.4byte	0x15c7
 4491 14d8 40       		.byte	0x40
 4492 14d9 07       		.uleb128 0x7
 4493 14da B7050000 		.4byte	.LASF356
 4494 14de 18       		.byte	0x18
 4495 14df 91       		.byte	0x91
 4496 14e0 C7150000 		.4byte	0x15c7
 4497 14e4 44       		.byte	0x44
 4498 14e5 07       		.uleb128 0x7
 4499 14e6 1A020000 		.4byte	.LASF357
 4500 14ea 18       		.byte	0x18
 4501 14eb 92       		.byte	0x92
 4502 14ec EF000000 		.4byte	0xef
 4503 14f0 48       		.byte	0x48
 4504 14f1 07       		.uleb128 0x7
 4505 14f2 C6230000 		.4byte	.LASF42
 4506 14f6 18       		.byte	0x18
 4507 14f7 95       		.byte	0x95
 4508 14f8 E9020000 		.4byte	0x2e9
 4509 14fc 4C       		.byte	0x4c
 4510 14fd 00       		.byte	0
 4511 14fe 0B       		.uleb128 0xb
 4512 14ff 04       		.byte	0x4
 4513 1500 75130000 		.4byte	0x1375
 4514 1504 16       		.uleb128 0x16
 4515 1505 19150000 		.4byte	0x1519
 4516 1509 0E       		.uleb128 0xe
 4517 150a 19150000 		.4byte	0x1519
ARM GAS  C:\Users\haske\AppData\Local\Temp\ccnNTYZ7.s 			page 94


 4518 150e 0E       		.uleb128 0xe
 4519 150f 7A0E0000 		.4byte	0xe7a
 4520 1513 0E       		.uleb128 0xe
 4521 1514 420A0000 		.4byte	0xa42
 4522 1518 00       		.byte	0
 4523 1519 0B       		.uleb128 0xb
 4524 151a 04       		.byte	0x4
 4525 151b 80130000 		.4byte	0x1380
 4526 151f 0B       		.uleb128 0xb
 4527 1520 04       		.byte	0x4
 4528 1521 04150000 		.4byte	0x1504
 4529 1525 16       		.uleb128 0x16
 4530 1526 35150000 		.4byte	0x1535
 4531 152a 0E       		.uleb128 0xe
 4532 152b 19150000 		.4byte	0x1519
 4533 152f 0E       		.uleb128 0xe
 4534 1530 850E0000 		.4byte	0xe85
 4535 1534 00       		.byte	0
 4536 1535 0B       		.uleb128 0xb
 4537 1536 04       		.byte	0x4
 4538 1537 25150000 		.4byte	0x1525
 4539 153b 16       		.uleb128 0x16
 4540 153c 64150000 		.4byte	0x1564
 4541 1540 0E       		.uleb128 0xe
 4542 1541 19150000 		.4byte	0x1519
 4543 1545 0E       		.uleb128 0xe
 4544 1546 09090000 		.4byte	0x909
 4545 154a 0E       		.uleb128 0xe
 4546 154b 01010000 		.4byte	0x101
 4547 154f 0E       		.uleb128 0xe
 4548 1550 01010000 		.4byte	0x101
 4549 1554 0E       		.uleb128 0xe
 4550 1555 01010000 		.4byte	0x101
 4551 1559 0E       		.uleb128 0xe
 4552 155a 8D030000 		.4byte	0x38d
 4553 155e 0E       		.uleb128 0xe
 4554 155f 98030000 		.4byte	0x398
 4555 1563 00       		.byte	0
 4556 1564 0B       		.uleb128 0xb
 4557 1565 04       		.byte	0x4
 4558 1566 3B150000 		.4byte	0x153b
 4559 156a 16       		.uleb128 0x16
 4560 156b 7F150000 		.4byte	0x157f
 4561 156f 0E       		.uleb128 0xe
 4562 1570 19150000 		.4byte	0x1519
 4563 1574 0E       		.uleb128 0xe
 4564 1575 09090000 		.4byte	0x909
 4565 1579 0E       		.uleb128 0xe
 4566 157a E4000000 		.4byte	0xe4
 4567 157e 00       		.byte	0
 4568 157f 0B       		.uleb128 0xb
 4569 1580 04       		.byte	0x4
 4570 1581 6A150000 		.4byte	0x156a
 4571 1585 16       		.uleb128 0x16
 4572 1586 9A150000 		.4byte	0x159a
 4573 158a 0E       		.uleb128 0xe
 4574 158b 19150000 		.4byte	0x1519
ARM GAS  C:\Users\haske\AppData\Local\Temp\ccnNTYZ7.s 			page 95


 4575 158f 0E       		.uleb128 0xe
 4576 1590 E4000000 		.4byte	0xe4
 4577 1594 0E       		.uleb128 0xe
 4578 1595 E4000000 		.4byte	0xe4
 4579 1599 00       		.byte	0
 4580 159a 0B       		.uleb128 0xb
 4581 159b 04       		.byte	0x4
 4582 159c 85150000 		.4byte	0x1585
 4583 15a0 16       		.uleb128 0x16
 4584 15a1 AB150000 		.4byte	0x15ab
 4585 15a5 0E       		.uleb128 0xe
 4586 15a6 19150000 		.4byte	0x1519
 4587 15aa 00       		.byte	0
 4588 15ab 0B       		.uleb128 0xb
 4589 15ac 04       		.byte	0x4
 4590 15ad A0150000 		.4byte	0x15a0
 4591 15b1 0B       		.uleb128 0xb
 4592 15b2 04       		.byte	0x4
 4593 15b3 1F120000 		.4byte	0x121f
 4594 15b7 16       		.uleb128 0x16
 4595 15b8 C7150000 		.4byte	0x15c7
 4596 15bc 0E       		.uleb128 0xe
 4597 15bd 19150000 		.4byte	0x1519
 4598 15c1 0E       		.uleb128 0xe
 4599 15c2 B1150000 		.4byte	0x15b1
 4600 15c6 00       		.byte	0
 4601 15c7 0B       		.uleb128 0xb
 4602 15c8 04       		.byte	0x4
 4603 15c9 B7150000 		.4byte	0x15b7
 4604 15cd 21       		.uleb128 0x21
 4605 15ce 86170000 		.4byte	.LASF358
 4606 15d2 5C01     		.2byte	0x15c
 4607 15d4 18       		.byte	0x18
 4608 15d5 9E       		.byte	0x9e
 4609 15d6 E4160000 		.4byte	0x16e4
 4610 15da 07       		.uleb128 0x7
 4611 15db BB1E0000 		.4byte	.LASF359
 4612 15df 18       		.byte	0x18
 4613 15e0 A0       		.byte	0xa0
 4614 15e1 19150000 		.4byte	0x1519
 4615 15e5 00       		.byte	0
 4616 15e6 07       		.uleb128 0x7
 4617 15e7 D9050000 		.4byte	.LASF360
 4618 15eb 18       		.byte	0x18
 4619 15ec A3       		.byte	0xa3
 4620 15ed E4160000 		.4byte	0x16e4
 4621 15f1 04       		.byte	0x4
 4622 15f2 07       		.uleb128 0x7
 4623 15f3 62110000 		.4byte	.LASF361
 4624 15f7 18       		.byte	0x18
 4625 15f8 A6       		.byte	0xa6
 4626 15f9 EF160000 		.4byte	0x16ef
 4627 15fd 08       		.byte	0x8
 4628 15fe 07       		.uleb128 0x7
 4629 15ff 74040000 		.4byte	.LASF362
 4630 1603 18       		.byte	0x18
 4631 1604 A9       		.byte	0xa9
ARM GAS  C:\Users\haske\AppData\Local\Temp\ccnNTYZ7.s 			page 96


 4632 1605 F5160000 		.4byte	0x16f5
 4633 1609 0C       		.byte	0xc
 4634 160a 07       		.uleb128 0x7
 4635 160b F8000000 		.4byte	.LASF363
 4636 160f 18       		.byte	0x18
 4637 1610 AA       		.byte	0xaa
 4638 1611 75090000 		.4byte	0x975
 4639 1615 10       		.byte	0x10
 4640 1616 07       		.uleb128 0x7
 4641 1617 F71E0000 		.4byte	.LASF364
 4642 161b 18       		.byte	0x18
 4643 161c AB       		.byte	0xab
 4644 161d 75090000 		.4byte	0x975
 4645 1621 14       		.byte	0x14
 4646 1622 07       		.uleb128 0x7
 4647 1623 96060000 		.4byte	.LASF365
 4648 1627 18       		.byte	0x18
 4649 1628 AC       		.byte	0xac
 4650 1629 75090000 		.4byte	0x975
 4651 162d 18       		.byte	0x18
 4652 162e 07       		.uleb128 0x7
 4653 162f 95080000 		.4byte	.LASF366
 4654 1633 18       		.byte	0x18
 4655 1634 AD       		.byte	0xad
 4656 1635 75090000 		.4byte	0x975
 4657 1639 1C       		.byte	0x1c
 4658 163a 07       		.uleb128 0x7
 4659 163b 7B1B0000 		.4byte	.LASF367
 4660 163f 18       		.byte	0x18
 4661 1640 AE       		.byte	0xae
 4662 1641 75090000 		.4byte	0x975
 4663 1645 20       		.byte	0x20
 4664 1646 07       		.uleb128 0x7
 4665 1647 00010000 		.4byte	.LASF368
 4666 164b 18       		.byte	0x18
 4667 164c AF       		.byte	0xaf
 4668 164d E4000000 		.4byte	0xe4
 4669 1651 24       		.byte	0x24
 4670 1652 09       		.uleb128 0x9
 4671 1653 23110000 		.4byte	.LASF369
 4672 1657 18       		.byte	0x18
 4673 1658 B0       		.byte	0xb0
 4674 1659 B8000000 		.4byte	0xb8
 4675 165d 01       		.byte	0x1
 4676 165e 01       		.byte	0x1
 4677 165f 07       		.byte	0x7
 4678 1660 28       		.byte	0x28
 4679 1661 09       		.uleb128 0x9
 4680 1662 83200000 		.4byte	.LASF370
 4681 1666 18       		.byte	0x18
 4682 1667 B2       		.byte	0xb2
 4683 1668 B8000000 		.4byte	0xb8
 4684 166c 01       		.byte	0x1
 4685 166d 01       		.byte	0x1
 4686 166e 06       		.byte	0x6
 4687 166f 28       		.byte	0x28
 4688 1670 09       		.uleb128 0x9
ARM GAS  C:\Users\haske\AppData\Local\Temp\ccnNTYZ7.s 			page 97


 4689 1671 90090000 		.4byte	.LASF371
 4690 1675 18       		.byte	0x18
 4691 1676 B4       		.byte	0xb4
 4692 1677 B8000000 		.4byte	0xb8
 4693 167b 01       		.byte	0x1
 4694 167c 01       		.byte	0x1
 4695 167d 05       		.byte	0x5
 4696 167e 28       		.byte	0x28
 4697 167f 07       		.uleb128 0x7
 4698 1680 D2050000 		.4byte	.LASF218
 4699 1684 18       		.byte	0x18
 4700 1685 B6       		.byte	0xb6
 4701 1686 98030000 		.4byte	0x398
 4702 168a 29       		.byte	0x29
 4703 168b 07       		.uleb128 0x7
 4704 168c F4010000 		.4byte	.LASF219
 4705 1690 18       		.byte	0x18
 4706 1691 B7       		.byte	0xb7
 4707 1692 8D030000 		.4byte	0x38d
 4708 1696 2A       		.byte	0x2a
 4709 1697 07       		.uleb128 0x7
 4710 1698 B1200000 		.4byte	.LASF372
 4711 169c 18       		.byte	0x18
 4712 169d B8       		.byte	0xb8
 4713 169e E2020000 		.4byte	0x2e2
 4714 16a2 2C       		.byte	0x2c
 4715 16a3 07       		.uleb128 0x7
 4716 16a4 E3170000 		.4byte	.LASF373
 4717 16a8 18       		.byte	0x18
 4718 16a9 BB       		.byte	0xbb
 4719 16aa FB160000 		.4byte	0x16fb
 4720 16ae 30       		.byte	0x30
 4721 16af 22       		.uleb128 0x22
 4722 16b0 70060000 		.4byte	.LASF374
 4723 16b4 18       		.byte	0x18
 4724 16b5 BC       		.byte	0xbc
 4725 16b6 0B170000 		.4byte	0x170b
 4726 16ba 3001     		.2byte	0x130
 4727 16bc 22       		.uleb128 0x22
 4728 16bd 5D1F0000 		.4byte	.LASF375
 4729 16c1 18       		.byte	0x18
 4730 16c2 BD       		.byte	0xbd
 4731 16c3 CE000000 		.4byte	0xce
 4732 16c7 5001     		.2byte	0x150
 4733 16c9 22       		.uleb128 0x22
 4734 16ca 27200000 		.4byte	.LASF376
 4735 16ce 18       		.byte	0x18
 4736 16cf BE       		.byte	0xbe
 4737 16d0 D9000000 		.4byte	0xd9
 4738 16d4 5401     		.2byte	0x154
 4739 16d6 22       		.uleb128 0x22
 4740 16d7 59050000 		.4byte	.LASF377
 4741 16db 18       		.byte	0x18
 4742 16dc C1       		.byte	0xc1
 4743 16dd E4000000 		.4byte	0xe4
 4744 16e1 5801     		.2byte	0x158
 4745 16e3 00       		.byte	0
ARM GAS  C:\Users\haske\AppData\Local\Temp\ccnNTYZ7.s 			page 98


 4746 16e4 0B       		.uleb128 0xb
 4747 16e5 04       		.byte	0x4
 4748 16e6 ED120000 		.4byte	0x12ed
 4749 16ea 23       		.uleb128 0x23
 4750 16eb C21E0000 		.4byte	.LASF637
 4751 16ef 0B       		.uleb128 0xb
 4752 16f0 04       		.byte	0x4
 4753 16f1 EA160000 		.4byte	0x16ea
 4754 16f5 0B       		.uleb128 0xb
 4755 16f6 04       		.byte	0x4
 4756 16f7 75090000 		.4byte	0x975
 4757 16fb 17       		.uleb128 0x17
 4758 16fc 69010000 		.4byte	0x169
 4759 1700 0B170000 		.4byte	0x170b
 4760 1704 18       		.uleb128 0x18
 4761 1705 1A030000 		.4byte	0x31a
 4762 1709 1F       		.byte	0x1f
 4763 170a 00       		.byte	0
 4764 170b 17       		.uleb128 0x17
 4765 170c B8000000 		.4byte	0xb8
 4766 1710 1B170000 		.4byte	0x171b
 4767 1714 18       		.uleb128 0x18
 4768 1715 1A030000 		.4byte	0x31a
 4769 1719 1F       		.byte	0x1f
 4770 171a 00       		.byte	0
 4771 171b 11       		.uleb128 0x11
 4772 171c 01       		.byte	0x1
 4773 171d 42000000 		.4byte	0x42
 4774 1721 19       		.byte	0x19
 4775 1722 3E       		.byte	0x3e
 4776 1723 46170000 		.4byte	0x1746
 4777 1727 12       		.uleb128 0x12
 4778 1728 93230000 		.4byte	.LASF378
 4779 172c 00       		.byte	0
 4780 172d 12       		.uleb128 0x12
 4781 172e F0190000 		.4byte	.LASF379
 4782 1732 01       		.byte	0x1
 4783 1733 12       		.uleb128 0x12
 4784 1734 131D0000 		.4byte	.LASF380
 4785 1738 02       		.byte	0x2
 4786 1739 12       		.uleb128 0x12
 4787 173a 4A140000 		.4byte	.LASF381
 4788 173e 03       		.byte	0x3
 4789 173f 12       		.uleb128 0x12
 4790 1740 72000000 		.4byte	.LASF382
 4791 1744 04       		.byte	0x4
 4792 1745 00       		.byte	0
 4793 1746 02       		.uleb128 0x2
 4794 1747 0F140000 		.4byte	.LASF383
 4795 174b 19       		.byte	0x19
 4796 174c 44       		.byte	0x44
 4797 174d 1B170000 		.4byte	0x171b
 4798 1751 11       		.uleb128 0x11
 4799 1752 01       		.byte	0x1
 4800 1753 42000000 		.4byte	0x42
 4801 1757 19       		.byte	0x19
 4802 1758 47       		.byte	0x47
ARM GAS  C:\Users\haske\AppData\Local\Temp\ccnNTYZ7.s 			page 99


 4803 1759 6A170000 		.4byte	0x176a
 4804 175d 12       		.uleb128 0x12
 4805 175e 2D090000 		.4byte	.LASF384
 4806 1762 00       		.byte	0
 4807 1763 12       		.uleb128 0x12
 4808 1764 A1130000 		.4byte	.LASF385
 4809 1768 01       		.byte	0x1
 4810 1769 00       		.byte	0
 4811 176a 02       		.uleb128 0x2
 4812 176b 650D0000 		.4byte	.LASF386
 4813 176f 19       		.byte	0x19
 4814 1770 4A       		.byte	0x4a
 4815 1771 51170000 		.4byte	0x1751
 4816 1775 05       		.uleb128 0x5
 4817 1776 10       		.byte	0x10
 4818 1777 19       		.byte	0x19
 4819 1778 4D       		.byte	0x4d
 4820 1779 C6170000 		.4byte	0x17c6
 4821 177d 07       		.uleb128 0x7
 4822 177e E8030000 		.4byte	.LASF387
 4823 1782 19       		.byte	0x19
 4824 1783 4E       		.byte	0x4e
 4825 1784 29010000 		.4byte	0x129
 4826 1788 00       		.byte	0
 4827 1789 06       		.uleb128 0x6
 4828 178a 6B657900 		.ascii	"key\000"
 4829 178e 19       		.byte	0x19
 4830 178f 4F       		.byte	0x4f
 4831 1790 E4000000 		.4byte	0xe4
 4832 1794 04       		.byte	0x4
 4833 1795 07       		.uleb128 0x7
 4834 1796 9F0A0000 		.4byte	.LASF388
 4835 179a 19       		.byte	0x19
 4836 179b 50       		.byte	0x50
 4837 179c E4000000 		.4byte	0xe4
 4838 17a0 08       		.byte	0x8
 4839 17a1 07       		.uleb128 0x7
 4840 17a2 51170000 		.4byte	.LASF389
 4841 17a6 19       		.byte	0x19
 4842 17a7 51       		.byte	0x51
 4843 17a8 C3000000 		.4byte	0xc3
 4844 17ac 0C       		.byte	0xc
 4845 17ad 07       		.uleb128 0x7
 4846 17ae B9020000 		.4byte	.LASF209
 4847 17b2 19       		.byte	0x19
 4848 17b3 53       		.byte	0x53
 4849 17b4 6A170000 		.4byte	0x176a
 4850 17b8 0E       		.byte	0xe
 4851 17b9 07       		.uleb128 0x7
 4852 17ba 47100000 		.4byte	.LASF390
 4853 17be 19       		.byte	0x19
 4854 17bf 54       		.byte	0x54
 4855 17c0 AA020000 		.4byte	0x2aa
 4856 17c4 0F       		.byte	0xf
 4857 17c5 00       		.byte	0
 4858 17c6 02       		.uleb128 0x2
 4859 17c7 9F210000 		.4byte	.LASF391
ARM GAS  C:\Users\haske\AppData\Local\Temp\ccnNTYZ7.s 			page 100


 4860 17cb 19       		.byte	0x19
 4861 17cc 55       		.byte	0x55
 4862 17cd 75170000 		.4byte	0x1775
 4863 17d1 0A       		.uleb128 0xa
 4864 17d2 CF030000 		.4byte	.LASF392
 4865 17d6 20       		.byte	0x20
 4866 17d7 19       		.byte	0x19
 4867 17d8 58       		.byte	0x58
 4868 17d9 6E180000 		.4byte	0x186e
 4869 17dd 07       		.uleb128 0x7
 4870 17de 57030000 		.4byte	.LASF393
 4871 17e2 19       		.byte	0x19
 4872 17e3 5B       		.byte	0x5b
 4873 17e4 46170000 		.4byte	0x1746
 4874 17e8 00       		.byte	0
 4875 17e9 07       		.uleb128 0x7
 4876 17ea BB060000 		.4byte	.LASF394
 4877 17ee 19       		.byte	0x19
 4878 17ef 5E       		.byte	0x5e
 4879 17f0 8A180000 		.4byte	0x188a
 4880 17f4 04       		.byte	0x4
 4881 17f5 07       		.uleb128 0x7
 4882 17f6 7D1A0000 		.4byte	.LASF395
 4883 17fa 19       		.byte	0x19
 4884 17fb 62       		.byte	0x62
 4885 17fc A0180000 		.4byte	0x18a0
 4886 1800 08       		.byte	0x8
 4887 1801 07       		.uleb128 0x7
 4888 1802 C6230000 		.4byte	.LASF42
 4889 1806 19       		.byte	0x19
 4890 1807 65       		.byte	0x65
 4891 1808 E9020000 		.4byte	0x2e9
 4892 180c 0C       		.byte	0xc
 4893 180d 07       		.uleb128 0x7
 4894 180e 1F170000 		.4byte	.LASF396
 4895 1812 19       		.byte	0x19
 4896 1813 69       		.byte	0x69
 4897 1814 A6180000 		.4byte	0x18a6
 4898 1818 10       		.byte	0x10
 4899 1819 07       		.uleb128 0x7
 4900 181a 86190000 		.4byte	.LASF397
 4901 181e 19       		.byte	0x19
 4902 181f 6C       		.byte	0x6c
 4903 1820 E4160000 		.4byte	0x16e4
 4904 1824 14       		.byte	0x14
 4905 1825 07       		.uleb128 0x7
 4906 1826 9A1E0000 		.4byte	.LASF398
 4907 182a 19       		.byte	0x19
 4908 182b 6F       		.byte	0x6f
 4909 182c B8000000 		.4byte	0xb8
 4910 1830 18       		.byte	0x18
 4911 1831 07       		.uleb128 0x7
 4912 1832 921A0000 		.4byte	.LASF399
 4913 1836 19       		.byte	0x19
 4914 1837 72       		.byte	0x72
 4915 1838 B8000000 		.4byte	0xb8
 4916 183c 19       		.byte	0x19
ARM GAS  C:\Users\haske\AppData\Local\Temp\ccnNTYZ7.s 			page 101


 4917 183d 07       		.uleb128 0x7
 4918 183e 47230000 		.4byte	.LASF400
 4919 1842 19       		.byte	0x19
 4920 1843 75       		.byte	0x75
 4921 1844 B8000000 		.4byte	0xb8
 4922 1848 1A       		.byte	0x1a
 4923 1849 07       		.uleb128 0x7
 4924 184a E9240000 		.4byte	.LASF401
 4925 184e 19       		.byte	0x19
 4926 184f 78       		.byte	0x78
 4927 1850 B8000000 		.4byte	0xb8
 4928 1854 1B       		.byte	0x1b
 4929 1855 07       		.uleb128 0x7
 4930 1856 541B0000 		.4byte	.LASF402
 4931 185a 19       		.byte	0x19
 4932 185b 7B       		.byte	0x7b
 4933 185c CE000000 		.4byte	0xce
 4934 1860 1C       		.byte	0x1c
 4935 1861 07       		.uleb128 0x7
 4936 1862 43210000 		.4byte	.LASF403
 4937 1866 19       		.byte	0x19
 4938 1867 7E       		.byte	0x7e
 4939 1868 CE000000 		.4byte	0xce
 4940 186c 1E       		.byte	0x1e
 4941 186d 00       		.byte	0
 4942 186e 16       		.uleb128 0x16
 4943 186f 7E180000 		.4byte	0x187e
 4944 1873 0E       		.uleb128 0xe
 4945 1874 7E180000 		.4byte	0x187e
 4946 1878 0E       		.uleb128 0xe
 4947 1879 84180000 		.4byte	0x1884
 4948 187d 00       		.byte	0
 4949 187e 0B       		.uleb128 0xb
 4950 187f 04       		.byte	0x4
 4951 1880 D1170000 		.4byte	0x17d1
 4952 1884 0B       		.uleb128 0xb
 4953 1885 04       		.byte	0x4
 4954 1886 C6170000 		.4byte	0x17c6
 4955 188a 0B       		.uleb128 0xb
 4956 188b 04       		.byte	0x4
 4957 188c 6E180000 		.4byte	0x186e
 4958 1890 16       		.uleb128 0x16
 4959 1891 A0180000 		.4byte	0x18a0
 4960 1895 0E       		.uleb128 0xe
 4961 1896 7E180000 		.4byte	0x187e
 4962 189a 0E       		.uleb128 0xe
 4963 189b B8000000 		.4byte	0xb8
 4964 189f 00       		.byte	0
 4965 18a0 0B       		.uleb128 0xb
 4966 18a1 04       		.byte	0x4
 4967 18a2 90180000 		.4byte	0x1890
 4968 18a6 0B       		.uleb128 0xb
 4969 18a7 04       		.byte	0x4
 4970 18a8 CD150000 		.4byte	0x15cd
 4971 18ac 05       		.uleb128 0x5
 4972 18ad 40       		.byte	0x40
 4973 18ae 19       		.byte	0x19
ARM GAS  C:\Users\haske\AppData\Local\Temp\ccnNTYZ7.s 			page 102


 4974 18af 8D       		.byte	0x8d
 4975 18b0 8A190000 		.4byte	0x198a
 4976 18b4 07       		.uleb128 0x7
 4977 18b5 811F0000 		.4byte	.LASF404
 4978 18b9 19       		.byte	0x19
 4979 18ba 8F       		.byte	0x8f
 4980 18bb 29010000 		.4byte	0x129
 4981 18bf 00       		.byte	0
 4982 18c0 07       		.uleb128 0x7
 4983 18c1 EC160000 		.4byte	.LASF405
 4984 18c5 19       		.byte	0x19
 4985 18c6 90       		.byte	0x90
 4986 18c7 29010000 		.4byte	0x129
 4987 18cb 04       		.byte	0x4
 4988 18cc 07       		.uleb128 0x7
 4989 18cd 60150000 		.4byte	.LASF406
 4990 18d1 19       		.byte	0x19
 4991 18d2 91       		.byte	0x91
 4992 18d3 29010000 		.4byte	0x129
 4993 18d7 08       		.byte	0x8
 4994 18d8 07       		.uleb128 0x7
 4995 18d9 52240000 		.4byte	.LASF407
 4996 18dd 19       		.byte	0x19
 4997 18de 92       		.byte	0x92
 4998 18df 29010000 		.4byte	0x129
 4999 18e3 0C       		.byte	0xc
 5000 18e4 07       		.uleb128 0x7
 5001 18e5 D2250000 		.4byte	.LASF408
 5002 18e9 19       		.byte	0x19
 5003 18ea 93       		.byte	0x93
 5004 18eb 29010000 		.4byte	0x129
 5005 18ef 10       		.byte	0x10
 5006 18f0 07       		.uleb128 0x7
 5007 18f1 46170000 		.4byte	.LASF409
 5008 18f5 19       		.byte	0x19
 5009 18f6 94       		.byte	0x94
 5010 18f7 29010000 		.4byte	0x129
 5011 18fb 14       		.byte	0x14
 5012 18fc 07       		.uleb128 0x7
 5013 18fd F41A0000 		.4byte	.LASF410
 5014 1901 19       		.byte	0x19
 5015 1902 95       		.byte	0x95
 5016 1903 29010000 		.4byte	0x129
 5017 1907 18       		.byte	0x18
 5018 1908 07       		.uleb128 0x7
 5019 1909 C41C0000 		.4byte	.LASF411
 5020 190d 19       		.byte	0x19
 5021 190e 96       		.byte	0x96
 5022 190f 29010000 		.4byte	0x129
 5023 1913 1C       		.byte	0x1c
 5024 1914 07       		.uleb128 0x7
 5025 1915 6B150000 		.4byte	.LASF412
 5026 1919 19       		.byte	0x19
 5027 191a 97       		.byte	0x97
 5028 191b 75090000 		.4byte	0x975
 5029 191f 20       		.byte	0x20
 5030 1920 07       		.uleb128 0x7
ARM GAS  C:\Users\haske\AppData\Local\Temp\ccnNTYZ7.s 			page 103


 5031 1921 F0130000 		.4byte	.LASF413
 5032 1925 19       		.byte	0x19
 5033 1926 98       		.byte	0x98
 5034 1927 75090000 		.4byte	0x975
 5035 192b 24       		.byte	0x24
 5036 192c 07       		.uleb128 0x7
 5037 192d B6040000 		.4byte	.LASF414
 5038 1931 19       		.byte	0x19
 5039 1932 99       		.byte	0x99
 5040 1933 75090000 		.4byte	0x975
 5041 1937 28       		.byte	0x28
 5042 1938 07       		.uleb128 0x7
 5043 1939 08070000 		.4byte	.LASF415
 5044 193d 19       		.byte	0x19
 5045 193e 9A       		.byte	0x9a
 5046 193f 75090000 		.4byte	0x975
 5047 1943 2C       		.byte	0x2c
 5048 1944 07       		.uleb128 0x7
 5049 1945 6E0B0000 		.4byte	.LASF416
 5050 1949 19       		.byte	0x19
 5051 194a 9B       		.byte	0x9b
 5052 194b 69010000 		.4byte	0x169
 5053 194f 30       		.byte	0x30
 5054 1950 07       		.uleb128 0x7
 5055 1951 F0060000 		.4byte	.LASF417
 5056 1955 19       		.byte	0x19
 5057 1956 9D       		.byte	0x9d
 5058 1957 29010000 		.4byte	0x129
 5059 195b 38       		.byte	0x38
 5060 195c 09       		.uleb128 0x9
 5061 195d 91050000 		.4byte	.LASF418
 5062 1961 19       		.byte	0x19
 5063 1962 9F       		.byte	0x9f
 5064 1963 74010000 		.4byte	0x174
 5065 1967 01       		.byte	0x1
 5066 1968 04       		.byte	0x4
 5067 1969 04       		.byte	0x4
 5068 196a 3C       		.byte	0x3c
 5069 196b 09       		.uleb128 0x9
 5070 196c 351E0000 		.4byte	.LASF419
 5071 1970 19       		.byte	0x19
 5072 1971 A0       		.byte	0xa0
 5073 1972 74010000 		.4byte	0x174
 5074 1976 01       		.byte	0x1
 5075 1977 04       		.byte	0x4
 5076 1978 00       		.byte	0
 5077 1979 3C       		.byte	0x3c
 5078 197a 09       		.uleb128 0x9
 5079 197b 4D1E0000 		.4byte	.LASF420
 5080 197f 19       		.byte	0x19
 5081 1980 A1       		.byte	0xa1
 5082 1981 B8000000 		.4byte	0xb8
 5083 1985 01       		.byte	0x1
 5084 1986 01       		.byte	0x1
 5085 1987 07       		.byte	0x7
 5086 1988 3D       		.byte	0x3d
 5087 1989 00       		.byte	0
ARM GAS  C:\Users\haske\AppData\Local\Temp\ccnNTYZ7.s 			page 104


 5088 198a 05       		.uleb128 0x5
 5089 198b 08       		.byte	0x8
 5090 198c 19       		.byte	0x19
 5091 198d A3       		.byte	0xa3
 5092 198e AB190000 		.4byte	0x19ab
 5093 1992 07       		.uleb128 0x7
 5094 1993 C7050000 		.4byte	.LASF421
 5095 1997 19       		.byte	0x19
 5096 1998 A5       		.byte	0xa5
 5097 1999 6A170000 		.4byte	0x176a
 5098 199d 00       		.byte	0
 5099 199e 07       		.uleb128 0x7
 5100 199f 151E0000 		.4byte	.LASF422
 5101 19a3 19       		.byte	0x19
 5102 19a4 A6       		.byte	0xa6
 5103 19a5 E4000000 		.4byte	0xe4
 5104 19a9 04       		.byte	0x4
 5105 19aa 00       		.byte	0
 5106 19ab 13       		.uleb128 0x13
 5107 19ac 40       		.byte	0x40
 5108 19ad 19       		.byte	0x19
 5109 19ae 8C       		.byte	0x8c
 5110 19af CA190000 		.4byte	0x19ca
 5111 19b3 15       		.uleb128 0x15
 5112 19b4 A80E0000 		.4byte	.LASF423
 5113 19b8 19       		.byte	0x19
 5114 19b9 A2       		.byte	0xa2
 5115 19ba AC180000 		.4byte	0x18ac
 5116 19be 15       		.uleb128 0x15
 5117 19bf EB1F0000 		.4byte	.LASF424
 5118 19c3 19       		.byte	0x19
 5119 19c4 A7       		.byte	0xa7
 5120 19c5 8A190000 		.4byte	0x198a
 5121 19c9 00       		.byte	0
 5122 19ca 0A       		.uleb128 0xa
 5123 19cb 0F1B0000 		.4byte	.LASF425
 5124 19cf 4C       		.byte	0x4c
 5125 19d0 19       		.byte	0x19
 5126 19d1 84       		.byte	0x84
 5127 19d2 431A0000 		.4byte	0x1a43
 5128 19d6 07       		.uleb128 0x7
 5129 19d7 B9020000 		.4byte	.LASF209
 5130 19db 19       		.byte	0x19
 5131 19dc 85       		.byte	0x85
 5132 19dd 6A170000 		.4byte	0x176a
 5133 19e1 00       		.byte	0
 5134 19e2 09       		.uleb128 0x9
 5135 19e3 96240000 		.4byte	.LASF426
 5136 19e7 19       		.byte	0x19
 5137 19e8 87       		.byte	0x87
 5138 19e9 B8000000 		.4byte	0xb8
 5139 19ed 01       		.byte	0x1
 5140 19ee 01       		.byte	0x1
 5141 19ef 07       		.byte	0x7
 5142 19f0 01       		.byte	0x1
 5143 19f1 09       		.uleb128 0x9
 5144 19f2 681C0000 		.4byte	.LASF427
ARM GAS  C:\Users\haske\AppData\Local\Temp\ccnNTYZ7.s 			page 105


 5145 19f6 19       		.byte	0x19
 5146 19f7 88       		.byte	0x88
 5147 19f8 B8000000 		.4byte	0xb8
 5148 19fc 01       		.byte	0x1
 5149 19fd 01       		.byte	0x1
 5150 19fe 06       		.byte	0x6
 5151 19ff 01       		.byte	0x1
 5152 1a00 09       		.uleb128 0x9
 5153 1a01 05230000 		.4byte	.LASF428
 5154 1a05 19       		.byte	0x19
 5155 1a06 89       		.byte	0x89
 5156 1a07 B8000000 		.4byte	0xb8
 5157 1a0b 01       		.byte	0x1
 5158 1a0c 01       		.byte	0x1
 5159 1a0d 05       		.byte	0x5
 5160 1a0e 01       		.byte	0x1
 5161 1a0f 09       		.uleb128 0x9
 5162 1a10 400F0000 		.4byte	.LASF429
 5163 1a14 19       		.byte	0x19
 5164 1a15 8A       		.byte	0x8a
 5165 1a16 B8000000 		.4byte	0xb8
 5166 1a1a 01       		.byte	0x1
 5167 1a1b 01       		.byte	0x1
 5168 1a1c 04       		.byte	0x4
 5169 1a1d 01       		.byte	0x1
 5170 1a1e 07       		.uleb128 0x7
 5171 1a1f 9F080000 		.4byte	.LASF430
 5172 1a23 19       		.byte	0x19
 5173 1a24 A8       		.byte	0xa8
 5174 1a25 AB190000 		.4byte	0x19ab
 5175 1a29 04       		.byte	0x4
 5176 1a2a 07       		.uleb128 0x7
 5177 1a2b 061A0000 		.4byte	.LASF431
 5178 1a2f 19       		.byte	0x19
 5179 1a30 AA       		.byte	0xaa
 5180 1a31 E4000000 		.4byte	0xe4
 5181 1a35 44       		.byte	0x44
 5182 1a36 07       		.uleb128 0x7
 5183 1a37 00180000 		.4byte	.LASF432
 5184 1a3b 19       		.byte	0x19
 5185 1a3c AB       		.byte	0xab
 5186 1a3d E4000000 		.4byte	0xe4
 5187 1a41 48       		.byte	0x48
 5188 1a42 00       		.byte	0
 5189 1a43 02       		.uleb128 0x2
 5190 1a44 0F1B0000 		.4byte	.LASF425
 5191 1a48 19       		.byte	0x19
 5192 1a49 AC       		.byte	0xac
 5193 1a4a CA190000 		.4byte	0x19ca
 5194 1a4e 0A       		.uleb128 0xa
 5195 1a4f 291E0000 		.4byte	.LASF433
 5196 1a53 5C       		.byte	0x5c
 5197 1a54 19       		.byte	0x19
 5198 1a55 B0       		.byte	0xb0
 5199 1a56 971A0000 		.4byte	0x1a97
 5200 1a5a 07       		.uleb128 0x7
 5201 1a5b BB1E0000 		.4byte	.LASF359
ARM GAS  C:\Users\haske\AppData\Local\Temp\ccnNTYZ7.s 			page 106


 5202 1a5f 19       		.byte	0x19
 5203 1a60 B1       		.byte	0xb1
 5204 1a61 7E180000 		.4byte	0x187e
 5205 1a65 00       		.byte	0
 5206 1a66 07       		.uleb128 0x7
 5207 1a67 010C0000 		.4byte	.LASF434
 5208 1a6b 19       		.byte	0x19
 5209 1a6c B2       		.byte	0xb2
 5210 1a6d 431A0000 		.4byte	0x1a43
 5211 1a71 04       		.byte	0x4
 5212 1a72 07       		.uleb128 0x7
 5213 1a73 78250000 		.4byte	.LASF435
 5214 1a77 19       		.byte	0x19
 5215 1a78 B3       		.byte	0xb3
 5216 1a79 75090000 		.4byte	0x975
 5217 1a7d 50       		.byte	0x50
 5218 1a7e 07       		.uleb128 0x7
 5219 1a7f 7F130000 		.4byte	.LASF436
 5220 1a83 19       		.byte	0x19
 5221 1a84 B4       		.byte	0xb4
 5222 1a85 1C1B0000 		.4byte	0x1b1c
 5223 1a89 54       		.byte	0x54
 5224 1a8a 07       		.uleb128 0x7
 5225 1a8b FD0E0000 		.4byte	.LASF437
 5226 1a8f 19       		.byte	0x19
 5227 1a90 B5       		.byte	0xb5
 5228 1a91 60100000 		.4byte	0x1060
 5229 1a95 58       		.byte	0x58
 5230 1a96 00       		.byte	0
 5231 1a97 0A       		.uleb128 0xa
 5232 1a98 7F250000 		.4byte	.LASF438
 5233 1a9c 20       		.byte	0x20
 5234 1a9d 1A       		.byte	0x1a
 5235 1a9e 3B       		.byte	0x3b
 5236 1a9f 1C1B0000 		.4byte	0x1b1c
 5237 1aa3 07       		.uleb128 0x7
 5238 1aa4 B4110000 		.4byte	.LASF439
 5239 1aa8 1A       		.byte	0x1a
 5240 1aa9 3C       		.byte	0x3c
 5241 1aaa 68120000 		.4byte	0x1268
 5242 1aae 00       		.byte	0
 5243 1aaf 07       		.uleb128 0x7
 5244 1ab0 D7250000 		.4byte	.LASF440
 5245 1ab4 1A       		.byte	0x1a
 5246 1ab5 3D       		.byte	0x3d
 5247 1ab6 F5160000 		.4byte	0x16f5
 5248 1aba 0C       		.byte	0xc
 5249 1abb 07       		.uleb128 0x7
 5250 1abc 70190000 		.4byte	.LASF441
 5251 1ac0 1A       		.byte	0x1a
 5252 1ac1 3F       		.byte	0x3f
 5253 1ac2 D4200000 		.4byte	0x20d4
 5254 1ac6 10       		.byte	0x10
 5255 1ac7 07       		.uleb128 0x7
 5256 1ac8 68060000 		.4byte	.LASF442
 5257 1acc 1A       		.byte	0x1a
 5258 1acd 40       		.byte	0x40
ARM GAS  C:\Users\haske\AppData\Local\Temp\ccnNTYZ7.s 			page 107


 5259 1ace F0200000 		.4byte	0x20f0
 5260 1ad2 14       		.byte	0x14
 5261 1ad3 07       		.uleb128 0x7
 5262 1ad4 C6230000 		.4byte	.LASF42
 5263 1ad8 1A       		.byte	0x1a
 5264 1ad9 45       		.byte	0x45
 5265 1ada E9020000 		.4byte	0x2e9
 5266 1ade 18       		.byte	0x18
 5267 1adf 09       		.uleb128 0x9
 5268 1ae0 B4010000 		.4byte	.LASF443
 5269 1ae4 1A       		.byte	0x1a
 5270 1ae5 48       		.byte	0x48
 5271 1ae6 B8000000 		.4byte	0xb8
 5272 1aea 01       		.byte	0x1
 5273 1aeb 01       		.byte	0x1
 5274 1aec 07       		.byte	0x7
 5275 1aed 1C       		.byte	0x1c
 5276 1aee 09       		.uleb128 0x9
 5277 1aef 201B0000 		.4byte	.LASF444
 5278 1af3 1A       		.byte	0x1a
 5279 1af4 49       		.byte	0x49
 5280 1af5 B8000000 		.4byte	0xb8
 5281 1af9 01       		.byte	0x1
 5282 1afa 01       		.byte	0x1
 5283 1afb 06       		.byte	0x6
 5284 1afc 1C       		.byte	0x1c
 5285 1afd 09       		.uleb128 0x9
 5286 1afe 61240000 		.4byte	.LASF445
 5287 1b02 1A       		.byte	0x1a
 5288 1b03 4A       		.byte	0x4a
 5289 1b04 B8000000 		.4byte	0xb8
 5290 1b08 01       		.byte	0x1
 5291 1b09 01       		.byte	0x1
 5292 1b0a 05       		.byte	0x5
 5293 1b0b 1C       		.byte	0x1c
 5294 1b0c 09       		.uleb128 0x9
 5295 1b0d 331C0000 		.4byte	.LASF446
 5296 1b11 1A       		.byte	0x1a
 5297 1b12 4C       		.byte	0x4c
 5298 1b13 B8000000 		.4byte	0xb8
 5299 1b17 01       		.byte	0x1
 5300 1b18 01       		.byte	0x1
 5301 1b19 04       		.byte	0x4
 5302 1b1a 1C       		.byte	0x1c
 5303 1b1b 00       		.byte	0
 5304 1b1c 0B       		.uleb128 0xb
 5305 1b1d 04       		.byte	0x4
 5306 1b1e 971A0000 		.4byte	0x1a97
 5307 1b22 02       		.uleb128 0x2
 5308 1b23 F20E0000 		.4byte	.LASF447
 5309 1b27 19       		.byte	0x19
 5310 1b28 B7       		.byte	0xb7
 5311 1b29 4E1A0000 		.4byte	0x1a4e
 5312 1b2d 02       		.uleb128 0x2
 5313 1b2e F8050000 		.4byte	.LASF448
 5314 1b32 0E       		.byte	0xe
 5315 1b33 3C       		.byte	0x3c
ARM GAS  C:\Users\haske\AppData\Local\Temp\ccnNTYZ7.s 			page 108


 5316 1b34 CE000000 		.4byte	0xce
 5317 1b38 11       		.uleb128 0x11
 5318 1b39 04       		.byte	0x4
 5319 1b3a A6000000 		.4byte	0xa6
 5320 1b3e 0E       		.byte	0xe
 5321 1b3f 59       		.byte	0x59
 5322 1b40 201C0000 		.4byte	0x1c20
 5323 1b44 12       		.uleb128 0x12
 5324 1b45 8B120000 		.4byte	.LASF449
 5325 1b49 01       		.byte	0x1
 5326 1b4a 12       		.uleb128 0x12
 5327 1b4b 50160000 		.4byte	.LASF450
 5328 1b4f 02       		.byte	0x2
 5329 1b50 12       		.uleb128 0x12
 5330 1b51 F11B0000 		.4byte	.LASF451
 5331 1b55 04       		.byte	0x4
 5332 1b56 12       		.uleb128 0x12
 5333 1b57 88110000 		.4byte	.LASF452
 5334 1b5b 08       		.byte	0x8
 5335 1b5c 12       		.uleb128 0x12
 5336 1b5d DB040000 		.4byte	.LASF453
 5337 1b61 10       		.byte	0x10
 5338 1b62 12       		.uleb128 0x12
 5339 1b63 DC150000 		.4byte	.LASF454
 5340 1b67 20       		.byte	0x20
 5341 1b68 12       		.uleb128 0x12
 5342 1b69 DC100000 		.4byte	.LASF455
 5343 1b6d 40       		.byte	0x40
 5344 1b6e 12       		.uleb128 0x12
 5345 1b6f 1C250000 		.4byte	.LASF456
 5346 1b73 80       		.byte	0x80
 5347 1b74 19       		.uleb128 0x19
 5348 1b75 A3220000 		.4byte	.LASF457
 5349 1b79 0001     		.2byte	0x100
 5350 1b7b 19       		.uleb128 0x19
 5351 1b7c A60F0000 		.4byte	.LASF458
 5352 1b80 0002     		.2byte	0x200
 5353 1b82 19       		.uleb128 0x19
 5354 1b83 0D080000 		.4byte	.LASF459
 5355 1b87 0003     		.2byte	0x300
 5356 1b89 19       		.uleb128 0x19
 5357 1b8a 15180000 		.4byte	.LASF460
 5358 1b8e 0004     		.2byte	0x400
 5359 1b90 19       		.uleb128 0x19
 5360 1b91 4A060000 		.4byte	.LASF461
 5361 1b95 0008     		.2byte	0x800
 5362 1b97 19       		.uleb128 0x19
 5363 1b98 F9130000 		.4byte	.LASF462
 5364 1b9c 0010     		.2byte	0x1000
 5365 1b9e 19       		.uleb128 0x19
 5366 1b9f 8B1F0000 		.4byte	.LASF463
 5367 1ba3 0020     		.2byte	0x2000
 5368 1ba5 19       		.uleb128 0x19
 5369 1ba6 0E0D0000 		.4byte	.LASF464
 5370 1baa 0040     		.2byte	0x4000
 5371 1bac 19       		.uleb128 0x19
 5372 1bad 13150000 		.4byte	.LASF465
ARM GAS  C:\Users\haske\AppData\Local\Temp\ccnNTYZ7.s 			page 109


 5373 1bb1 0080     		.2byte	0x8000
 5374 1bb3 24       		.uleb128 0x24
 5375 1bb4 03060000 		.4byte	.LASF466
 5376 1bb8 00000100 		.4byte	0x10000
 5377 1bbc 24       		.uleb128 0x24
 5378 1bbd D1180000 		.4byte	.LASF467
 5379 1bc1 00000200 		.4byte	0x20000
 5380 1bc5 24       		.uleb128 0x24
 5381 1bc6 8C0F0000 		.4byte	.LASF468
 5382 1bca 00000400 		.4byte	0x40000
 5383 1bce 24       		.uleb128 0x24
 5384 1bcf 23100000 		.4byte	.LASF469
 5385 1bd3 00000800 		.4byte	0x80000
 5386 1bd7 24       		.uleb128 0x24
 5387 1bd8 98070000 		.4byte	.LASF470
 5388 1bdc 00008000 		.4byte	0x800000
 5389 1be0 24       		.uleb128 0x24
 5390 1be1 AD070000 		.4byte	.LASF471
 5391 1be5 00000001 		.4byte	0x1000000
 5392 1be9 24       		.uleb128 0x24
 5393 1bea 42080000 		.4byte	.LASF472
 5394 1bee 00000002 		.4byte	0x2000000
 5395 1bf2 24       		.uleb128 0x24
 5396 1bf3 57080000 		.4byte	.LASF473
 5397 1bf7 00000004 		.4byte	0x4000000
 5398 1bfb 24       		.uleb128 0x24
 5399 1bfc E40D0000 		.4byte	.LASF474
 5400 1c00 00000008 		.4byte	0x8000000
 5401 1c04 24       		.uleb128 0x24
 5402 1c05 F70D0000 		.4byte	.LASF475
 5403 1c09 00000010 		.4byte	0x10000000
 5404 1c0d 24       		.uleb128 0x24
 5405 1c0e 0A0E0000 		.4byte	.LASF476
 5406 1c12 00000020 		.4byte	0x20000000
 5407 1c16 24       		.uleb128 0x24
 5408 1c17 1D0E0000 		.4byte	.LASF477
 5409 1c1b 00000040 		.4byte	0x40000000
 5410 1c1f 00       		.byte	0
 5411 1c20 02       		.uleb128 0x2
 5412 1c21 C0220000 		.4byte	.LASF478
 5413 1c25 0E       		.byte	0xe
 5414 1c26 7D       		.byte	0x7d
 5415 1c27 E4000000 		.4byte	0xe4
 5416 1c2b 02       		.uleb128 0x2
 5417 1c2c 7B010000 		.4byte	.LASF479
 5418 1c30 1B       		.byte	0x1b
 5419 1c31 26       		.byte	0x26
 5420 1c32 B8000000 		.4byte	0xb8
 5421 1c36 02       		.uleb128 0x2
 5422 1c37 DF190000 		.4byte	.LASF480
 5423 1c3b 1B       		.byte	0x1b
 5424 1c3c 30       		.byte	0x30
 5425 1c3d B8000000 		.4byte	0xb8
 5426 1c41 05       		.uleb128 0x5
 5427 1c42 08       		.byte	0x8
 5428 1c43 1C       		.byte	0x1c
 5429 1c44 27       		.byte	0x27
ARM GAS  C:\Users\haske\AppData\Local\Temp\ccnNTYZ7.s 			page 110


 5430 1c45 831C0000 		.4byte	0x1c83
 5431 1c49 07       		.uleb128 0x7
 5432 1c4a C8190000 		.4byte	.LASF481
 5433 1c4e 1C       		.byte	0x1c
 5434 1c4f 28       		.byte	0x28
 5435 1c50 831C0000 		.4byte	0x1c83
 5436 1c54 00       		.byte	0
 5437 1c55 09       		.uleb128 0x9
 5438 1c56 30240000 		.4byte	.LASF482
 5439 1c5a 1C       		.byte	0x1c
 5440 1c5b 29       		.byte	0x29
 5441 1c5c E4000000 		.4byte	0xe4
 5442 1c60 04       		.byte	0x4
 5443 1c61 18       		.byte	0x18
 5444 1c62 08       		.byte	0x8
 5445 1c63 04       		.byte	0x4
 5446 1c64 09       		.uleb128 0x9
 5447 1c65 E1020000 		.4byte	.LASF483
 5448 1c69 1C       		.byte	0x1c
 5449 1c6a 2A       		.byte	0x2a
 5450 1c6b E4000000 		.4byte	0xe4
 5451 1c6f 04       		.byte	0x4
 5452 1c70 01       		.byte	0x1
 5453 1c71 07       		.byte	0x7
 5454 1c72 04       		.byte	0x4
 5455 1c73 09       		.uleb128 0x9
 5456 1c74 E90E0000 		.4byte	.LASF484
 5457 1c78 1C       		.byte	0x1c
 5458 1c79 2B       		.byte	0x2b
 5459 1c7a E4000000 		.4byte	0xe4
 5460 1c7e 04       		.byte	0x4
 5461 1c7f 01       		.byte	0x1
 5462 1c80 06       		.byte	0x6
 5463 1c81 04       		.byte	0x4
 5464 1c82 00       		.byte	0
 5465 1c83 0B       		.uleb128 0xb
 5466 1c84 04       		.byte	0x4
 5467 1c85 58090000 		.4byte	0x958
 5468 1c89 02       		.uleb128 0x2
 5469 1c8a 580C0000 		.4byte	.LASF485
 5470 1c8e 1C       		.byte	0x1c
 5471 1c8f 2C       		.byte	0x2c
 5472 1c90 411C0000 		.4byte	0x1c41
 5473 1c94 11       		.uleb128 0x11
 5474 1c95 01       		.byte	0x1
 5475 1c96 42000000 		.4byte	0x42
 5476 1c9a 1D       		.byte	0x1d
 5477 1c9b 1E       		.byte	0x1e
 5478 1c9c B31C0000 		.4byte	0x1cb3
 5479 1ca0 12       		.uleb128 0x12
 5480 1ca1 DA010000 		.4byte	.LASF486
 5481 1ca5 00       		.byte	0
 5482 1ca6 12       		.uleb128 0x12
 5483 1ca7 00000000 		.4byte	.LASF487
 5484 1cab 01       		.byte	0x1
 5485 1cac 12       		.uleb128 0x12
 5486 1cad 8B150000 		.4byte	.LASF488
ARM GAS  C:\Users\haske\AppData\Local\Temp\ccnNTYZ7.s 			page 111


 5487 1cb1 02       		.byte	0x2
 5488 1cb2 00       		.byte	0
 5489 1cb3 02       		.uleb128 0x2
 5490 1cb4 2E150000 		.4byte	.LASF489
 5491 1cb8 1D       		.byte	0x1d
 5492 1cb9 22       		.byte	0x22
 5493 1cba 941C0000 		.4byte	0x1c94
 5494 1cbe 05       		.uleb128 0x5
 5495 1cbf 48       		.byte	0x48
 5496 1cc0 1D       		.byte	0x1d
 5497 1cc1 2A       		.byte	0x2a
 5498 1cc2 9C1D0000 		.4byte	0x1d9c
 5499 1cc6 07       		.uleb128 0x7
 5500 1cc7 C4210000 		.4byte	.LASF354
 5501 1ccb 1D       		.byte	0x1d
 5502 1ccc 2B       		.byte	0x2b
 5503 1ccd B1150000 		.4byte	0x15b1
 5504 1cd1 00       		.byte	0
 5505 1cd2 07       		.uleb128 0x7
 5506 1cd3 C9160000 		.4byte	.LASF203
 5507 1cd7 1D       		.byte	0x1d
 5508 1cd8 2C       		.byte	0x2c
 5509 1cd9 2A1E0000 		.4byte	0x1e2a
 5510 1cdd 04       		.byte	0x4
 5511 1cde 07       		.uleb128 0x7
 5512 1cdf 57030000 		.4byte	.LASF393
 5513 1ce3 1D       		.byte	0x1d
 5514 1ce4 2D       		.byte	0x2d
 5515 1ce5 E4000000 		.4byte	0xe4
 5516 1ce9 08       		.byte	0x8
 5517 1cea 07       		.uleb128 0x7
 5518 1ceb 28060000 		.4byte	.LASF490
 5519 1cef 1D       		.byte	0x1d
 5520 1cf0 2E       		.byte	0x2e
 5521 1cf1 850E0000 		.4byte	0xe85
 5522 1cf5 0C       		.byte	0xc
 5523 1cf6 07       		.uleb128 0x7
 5524 1cf7 DB0D0000 		.4byte	.LASF491
 5525 1cfb 1D       		.byte	0x1d
 5526 1cfc 30       		.byte	0x30
 5527 1cfd 351E0000 		.4byte	0x1e35
 5528 1d01 10       		.byte	0x10
 5529 1d02 07       		.uleb128 0x7
 5530 1d03 B01B0000 		.4byte	.LASF492
 5531 1d07 1D       		.byte	0x1d
 5532 1d08 32       		.byte	0x32
 5533 1d09 3B1E0000 		.4byte	0x1e3b
 5534 1d0d 14       		.byte	0x14
 5535 1d0e 07       		.uleb128 0x7
 5536 1d0f 061F0000 		.4byte	.LASF493
 5537 1d13 1D       		.byte	0x1d
 5538 1d14 34       		.byte	0x34
 5539 1d15 411E0000 		.4byte	0x1e41
 5540 1d19 18       		.byte	0x18
 5541 1d1a 07       		.uleb128 0x7
 5542 1d1b 080F0000 		.4byte	.LASF494
 5543 1d1f 1D       		.byte	0x1d
ARM GAS  C:\Users\haske\AppData\Local\Temp\ccnNTYZ7.s 			page 112


 5544 1d20 36       		.byte	0x36
 5545 1d21 471E0000 		.4byte	0x1e47
 5546 1d25 1C       		.byte	0x1c
 5547 1d26 07       		.uleb128 0x7
 5548 1d27 3A180000 		.4byte	.LASF495
 5549 1d2b 1D       		.byte	0x1d
 5550 1d2c 38       		.byte	0x38
 5551 1d2d 4D1E0000 		.4byte	0x1e4d
 5552 1d31 20       		.byte	0x20
 5553 1d32 06       		.uleb128 0x6
 5554 1d33 703100   		.ascii	"p1\000"
 5555 1d36 1D       		.byte	0x1d
 5556 1d37 3A       		.byte	0x3a
 5557 1d38 60100000 		.4byte	0x1060
 5558 1d3c 24       		.byte	0x24
 5559 1d3d 06       		.uleb128 0x6
 5560 1d3e 703200   		.ascii	"p2\000"
 5561 1d41 1D       		.byte	0x1d
 5562 1d42 3B       		.byte	0x3b
 5563 1d43 60100000 		.4byte	0x1060
 5564 1d47 28       		.byte	0x28
 5565 1d48 07       		.uleb128 0x7
 5566 1d49 C00C0000 		.4byte	.LASF496
 5567 1d4d 1D       		.byte	0x1d
 5568 1d4e 3C       		.byte	0x3c
 5569 1d4f 21030000 		.4byte	0x321
 5570 1d53 2C       		.byte	0x2c
 5571 1d54 07       		.uleb128 0x7
 5572 1d55 8B020000 		.4byte	.LASF497
 5573 1d59 1D       		.byte	0x1d
 5574 1d5a 3D       		.byte	0x3d
 5575 1d5b E4000000 		.4byte	0xe4
 5576 1d5f 30       		.byte	0x30
 5577 1d60 07       		.uleb128 0x7
 5578 1d61 76230000 		.4byte	.LASF498
 5579 1d65 1D       		.byte	0x1d
 5580 1d66 3E       		.byte	0x3e
 5581 1d67 E4000000 		.4byte	0xe4
 5582 1d6b 34       		.byte	0x34
 5583 1d6c 06       		.uleb128 0x6
 5584 1d6d 696400   		.ascii	"id\000"
 5585 1d70 1D       		.byte	0x1d
 5586 1d71 3F       		.byte	0x3f
 5587 1d72 E4000000 		.4byte	0xe4
 5588 1d76 38       		.byte	0x38
 5589 1d77 07       		.uleb128 0x7
 5590 1d78 ED010000 		.4byte	.LASF216
 5591 1d7c 1D       		.byte	0x1d
 5592 1d7d 40       		.byte	0x40
 5593 1d7e 01010000 		.4byte	0x101
 5594 1d82 3C       		.byte	0x3c
 5595 1d83 07       		.uleb128 0x7
 5596 1d84 5E0A0000 		.4byte	.LASF192
 5597 1d88 1D       		.byte	0x1d
 5598 1d89 41       		.byte	0x41
 5599 1d8a D9000000 		.4byte	0xd9
 5600 1d8e 40       		.byte	0x40
ARM GAS  C:\Users\haske\AppData\Local\Temp\ccnNTYZ7.s 			page 113


 5601 1d8f 07       		.uleb128 0x7
 5602 1d90 800D0000 		.4byte	.LASF499
 5603 1d94 1D       		.byte	0x1d
 5604 1d95 42       		.byte	0x42
 5605 1d96 E2020000 		.4byte	0x2e2
 5606 1d9a 44       		.byte	0x44
 5607 1d9b 00       		.byte	0
 5608 1d9c 0A       		.uleb128 0xa
 5609 1d9d CE1B0000 		.4byte	.LASF500
 5610 1da1 1C       		.byte	0x1c
 5611 1da2 1E       		.byte	0x1e
 5612 1da3 31       		.byte	0x31
 5613 1da4 2A1E0000 		.4byte	0x1e2a
 5614 1da8 07       		.uleb128 0x7
 5615 1da9 19190000 		.4byte	.LASF501
 5616 1dad 1E       		.byte	0x1e
 5617 1dae 32       		.byte	0x32
 5618 1daf 2A1E0000 		.4byte	0x1e2a
 5619 1db3 00       		.byte	0
 5620 1db4 07       		.uleb128 0x7
 5621 1db5 14030000 		.4byte	.LASF502
 5622 1db9 1E       		.byte	0x1e
 5623 1dba 33       		.byte	0x33
 5624 1dbb F61E0000 		.4byte	0x1ef6
 5625 1dbf 04       		.byte	0x4
 5626 1dc0 07       		.uleb128 0x7
 5627 1dc1 5A1E0000 		.4byte	.LASF503
 5628 1dc5 1E       		.byte	0x1e
 5629 1dc6 34       		.byte	0x34
 5630 1dc7 F61E0000 		.4byte	0x1ef6
 5631 1dcb 08       		.byte	0x8
 5632 1dcc 07       		.uleb128 0x7
 5633 1dcd C6230000 		.4byte	.LASF42
 5634 1dd1 1E       		.byte	0x1e
 5635 1dd2 36       		.byte	0x36
 5636 1dd3 E9020000 		.4byte	0x2e9
 5637 1dd7 0C       		.byte	0xc
 5638 1dd8 07       		.uleb128 0x7
 5639 1dd9 90140000 		.4byte	.LASF504
 5640 1ddd 1E       		.byte	0x1e
 5641 1dde 38       		.byte	0x38
 5642 1ddf 0C1F0000 		.4byte	0x1f0c
 5643 1de3 10       		.byte	0x10
 5644 1de4 07       		.uleb128 0x7
 5645 1de5 820F0000 		.4byte	.LASF505
 5646 1de9 1E       		.byte	0x1e
 5647 1dea 3A       		.byte	0x3a
 5648 1deb 01010000 		.4byte	0x101
 5649 1def 14       		.byte	0x14
 5650 1df0 07       		.uleb128 0x7
 5651 1df1 B1240000 		.4byte	.LASF506
 5652 1df5 1E       		.byte	0x1e
 5653 1df6 3B       		.byte	0x3b
 5654 1df7 01010000 		.4byte	0x101
 5655 1dfb 16       		.byte	0x16
 5656 1dfc 09       		.uleb128 0x9
 5657 1dfd 59110000 		.4byte	.LASF507
ARM GAS  C:\Users\haske\AppData\Local\Temp\ccnNTYZ7.s 			page 114


 5658 1e01 1E       		.byte	0x1e
 5659 1e02 3C       		.byte	0x3c
 5660 1e03 E4000000 		.4byte	0xe4
 5661 1e07 04       		.byte	0x4
 5662 1e08 02       		.byte	0x2
 5663 1e09 1E       		.byte	0x1e
 5664 1e0a 18       		.byte	0x18
 5665 1e0b 09       		.uleb128 0x9
 5666 1e0c 9C050000 		.4byte	.LASF508
 5667 1e10 1E       		.byte	0x1e
 5668 1e11 3D       		.byte	0x3d
 5669 1e12 E4000000 		.4byte	0xe4
 5670 1e16 04       		.byte	0x4
 5671 1e17 02       		.byte	0x2
 5672 1e18 1C       		.byte	0x1c
 5673 1e19 18       		.byte	0x18
 5674 1e1a 09       		.uleb128 0x9
 5675 1e1b 1E130000 		.4byte	.LASF509
 5676 1e1f 1E       		.byte	0x1e
 5677 1e20 3E       		.byte	0x3e
 5678 1e21 E4000000 		.4byte	0xe4
 5679 1e25 04       		.byte	0x4
 5680 1e26 10       		.byte	0x10
 5681 1e27 0C       		.byte	0xc
 5682 1e28 18       		.byte	0x18
 5683 1e29 00       		.byte	0
 5684 1e2a 0B       		.uleb128 0xb
 5685 1e2b 04       		.byte	0x4
 5686 1e2c 301E0000 		.4byte	0x1e30
 5687 1e30 0C       		.uleb128 0xc
 5688 1e31 9C1D0000 		.4byte	0x1d9c
 5689 1e35 0B       		.uleb128 0xb
 5690 1e36 04       		.byte	0x4
 5691 1e37 8F0B0000 		.4byte	0xb8f
 5692 1e3b 0B       		.uleb128 0xb
 5693 1e3c 04       		.byte	0x4
 5694 1e3d 740C0000 		.4byte	0xc74
 5695 1e41 0B       		.uleb128 0xb
 5696 1e42 04       		.byte	0x4
 5697 1e43 860D0000 		.4byte	0xd86
 5698 1e47 0B       		.uleb128 0xb
 5699 1e48 04       		.byte	0x4
 5700 1e49 FA0C0000 		.4byte	0xcfa
 5701 1e4d 0B       		.uleb128 0xb
 5702 1e4e 04       		.byte	0x4
 5703 1e4f 000E0000 		.4byte	0xe00
 5704 1e53 02       		.uleb128 0x2
 5705 1e54 1F140000 		.4byte	.LASF510
 5706 1e58 1D       		.byte	0x1d
 5707 1e59 43       		.byte	0x43
 5708 1e5a BE1C0000 		.4byte	0x1cbe
 5709 1e5e 0B       		.uleb128 0xb
 5710 1e5f 04       		.byte	0x4
 5711 1e60 641E0000 		.4byte	0x1e64
 5712 1e64 0A       		.uleb128 0xa
 5713 1e65 B9140000 		.4byte	.LASF511
 5714 1e69 1C       		.byte	0x1c
ARM GAS  C:\Users\haske\AppData\Local\Temp\ccnNTYZ7.s 			page 115


 5715 1e6a 1F       		.byte	0x1f
 5716 1e6b 5E       		.byte	0x5e
 5717 1e6c E61E0000 		.4byte	0x1ee6
 5718 1e70 07       		.uleb128 0x7
 5719 1e71 1C110000 		.4byte	.LASF512
 5720 1e75 1F       		.byte	0x1f
 5721 1e76 5F       		.byte	0x5f
 5722 1e77 75090000 		.4byte	0x975
 5723 1e7b 00       		.byte	0
 5724 1e7c 07       		.uleb128 0x7
 5725 1e7d 10200000 		.4byte	.LASF513
 5726 1e81 1F       		.byte	0x1f
 5727 1e82 60       		.byte	0x60
 5728 1e83 75090000 		.4byte	0x975
 5729 1e87 04       		.byte	0x4
 5730 1e88 07       		.uleb128 0x7
 5731 1e89 131A0000 		.4byte	.LASF514
 5732 1e8d 1F       		.byte	0x1f
 5733 1e8e 61       		.byte	0x61
 5734 1e8f 44200000 		.4byte	0x2044
 5735 1e93 08       		.byte	0x8
 5736 1e94 07       		.uleb128 0x7
 5737 1e95 C6230000 		.4byte	.LASF42
 5738 1e99 1F       		.byte	0x1f
 5739 1e9a 62       		.byte	0x62
 5740 1e9b E9020000 		.4byte	0x2e9
 5741 1e9f 0C       		.byte	0xc
 5742 1ea0 07       		.uleb128 0x7
 5743 1ea1 16110000 		.4byte	.LASF515
 5744 1ea5 1F       		.byte	0x1f
 5745 1ea6 63       		.byte	0x63
 5746 1ea7 E9020000 		.4byte	0x2e9
 5747 1eab 10       		.byte	0x10
 5748 1eac 07       		.uleb128 0x7
 5749 1ead 5E250000 		.4byte	.LASF516
 5750 1eb1 1F       		.byte	0x1f
 5751 1eb2 64       		.byte	0x64
 5752 1eb3 5E1E0000 		.4byte	0x1e5e
 5753 1eb7 14       		.byte	0x14
 5754 1eb8 09       		.uleb128 0x9
 5755 1eb9 F5140000 		.4byte	.LASF517
 5756 1ebd 1F       		.byte	0x1f
 5757 1ebe 65       		.byte	0x65
 5758 1ebf B8000000 		.4byte	0xb8
 5759 1ec3 01       		.byte	0x1
 5760 1ec4 01       		.byte	0x1
 5761 1ec5 07       		.byte	0x7
 5762 1ec6 18       		.byte	0x18
 5763 1ec7 09       		.uleb128 0x9
 5764 1ec8 4E0A0000 		.4byte	.LASF518
 5765 1ecc 1F       		.byte	0x1f
 5766 1ecd 66       		.byte	0x66
 5767 1ece B8000000 		.4byte	0xb8
 5768 1ed2 01       		.byte	0x1
 5769 1ed3 01       		.byte	0x1
 5770 1ed4 06       		.byte	0x6
 5771 1ed5 18       		.byte	0x18
ARM GAS  C:\Users\haske\AppData\Local\Temp\ccnNTYZ7.s 			page 116


 5772 1ed6 09       		.uleb128 0x9
 5773 1ed7 8D180000 		.4byte	.LASF519
 5774 1edb 1F       		.byte	0x1f
 5775 1edc 67       		.byte	0x67
 5776 1edd B8000000 		.4byte	0xb8
 5777 1ee1 01       		.byte	0x1
 5778 1ee2 01       		.byte	0x1
 5779 1ee3 05       		.byte	0x5
 5780 1ee4 18       		.byte	0x18
 5781 1ee5 00       		.byte	0
 5782 1ee6 16       		.uleb128 0x16
 5783 1ee7 F61E0000 		.4byte	0x1ef6
 5784 1eeb 0E       		.uleb128 0xe
 5785 1eec 2A1E0000 		.4byte	0x1e2a
 5786 1ef0 0E       		.uleb128 0xe
 5787 1ef1 75090000 		.4byte	0x975
 5788 1ef5 00       		.byte	0
 5789 1ef6 0B       		.uleb128 0xb
 5790 1ef7 04       		.byte	0x4
 5791 1ef8 E61E0000 		.4byte	0x1ee6
 5792 1efc 16       		.uleb128 0x16
 5793 1efd 0C1F0000 		.4byte	0x1f0c
 5794 1f01 0E       		.uleb128 0xe
 5795 1f02 2A1E0000 		.4byte	0x1e2a
 5796 1f06 0E       		.uleb128 0xe
 5797 1f07 5E1E0000 		.4byte	0x1e5e
 5798 1f0b 00       		.byte	0
 5799 1f0c 0B       		.uleb128 0xb
 5800 1f0d 04       		.byte	0x4
 5801 1f0e FC1E0000 		.4byte	0x1efc
 5802 1f12 02       		.uleb128 0x2
 5803 1f13 6C0E0000 		.4byte	.LASF520
 5804 1f17 1E       		.byte	0x1e
 5805 1f18 3F       		.byte	0x3f
 5806 1f19 9C1D0000 		.4byte	0x1d9c
 5807 1f1d 11       		.uleb128 0x11
 5808 1f1e 01       		.byte	0x1
 5809 1f1f 42000000 		.4byte	0x42
 5810 1f23 1F       		.byte	0x1f
 5811 1f24 20       		.byte	0x20
 5812 1f25 44200000 		.4byte	0x2044
 5813 1f29 12       		.uleb128 0x12
 5814 1f2a 05050000 		.4byte	.LASF521
 5815 1f2e 00       		.byte	0
 5816 1f2f 12       		.uleb128 0x12
 5817 1f30 9F1A0000 		.4byte	.LASF522
 5818 1f34 01       		.byte	0x1
 5819 1f35 12       		.uleb128 0x12
 5820 1f36 BF180000 		.4byte	.LASF523
 5821 1f3a 02       		.byte	0x2
 5822 1f3b 12       		.uleb128 0x12
 5823 1f3c D0230000 		.4byte	.LASF524
 5824 1f40 03       		.byte	0x3
 5825 1f41 12       		.uleb128 0x12
 5826 1f42 2F190000 		.4byte	.LASF525
 5827 1f46 04       		.byte	0x4
 5828 1f47 12       		.uleb128 0x12
ARM GAS  C:\Users\haske\AppData\Local\Temp\ccnNTYZ7.s 			page 117


 5829 1f48 6D030000 		.4byte	.LASF526
 5830 1f4c 05       		.byte	0x5
 5831 1f4d 12       		.uleb128 0x12
 5832 1f4e 53190000 		.4byte	.LASF527
 5833 1f52 06       		.byte	0x6
 5834 1f53 12       		.uleb128 0x12
 5835 1f54 300E0000 		.4byte	.LASF528
 5836 1f58 07       		.byte	0x7
 5837 1f59 12       		.uleb128 0x12
 5838 1f5a 9C250000 		.4byte	.LASF529
 5839 1f5e 08       		.byte	0x8
 5840 1f5f 12       		.uleb128 0x12
 5841 1f60 1F160000 		.4byte	.LASF530
 5842 1f64 09       		.byte	0x9
 5843 1f65 12       		.uleb128 0x12
 5844 1f66 C6010000 		.4byte	.LASF531
 5845 1f6a 0A       		.byte	0xa
 5846 1f6b 12       		.uleb128 0x12
 5847 1f6c 03150000 		.4byte	.LASF532
 5848 1f70 0B       		.byte	0xb
 5849 1f71 12       		.uleb128 0x12
 5850 1f72 5C030000 		.4byte	.LASF533
 5851 1f76 0C       		.byte	0xc
 5852 1f77 12       		.uleb128 0x12
 5853 1f78 7B230000 		.4byte	.LASF534
 5854 1f7c 0D       		.byte	0xd
 5855 1f7d 12       		.uleb128 0x12
 5856 1f7e 31080000 		.4byte	.LASF535
 5857 1f82 0E       		.byte	0xe
 5858 1f83 12       		.uleb128 0x12
 5859 1f84 E7200000 		.4byte	.LASF536
 5860 1f88 0F       		.byte	0xf
 5861 1f89 12       		.uleb128 0x12
 5862 1f8a 91100000 		.4byte	.LASF537
 5863 1f8e 10       		.byte	0x10
 5864 1f8f 12       		.uleb128 0x12
 5865 1f90 7A0B0000 		.4byte	.LASF538
 5866 1f94 11       		.byte	0x11
 5867 1f95 12       		.uleb128 0x12
 5868 1f96 040B0000 		.4byte	.LASF539
 5869 1f9a 12       		.byte	0x12
 5870 1f9b 12       		.uleb128 0x12
 5871 1f9c 85130000 		.4byte	.LASF540
 5872 1fa0 13       		.byte	0x13
 5873 1fa1 12       		.uleb128 0x12
 5874 1fa2 91000000 		.4byte	.LASF541
 5875 1fa6 14       		.byte	0x14
 5876 1fa7 12       		.uleb128 0x12
 5877 1fa8 BC080000 		.4byte	.LASF542
 5878 1fac 15       		.byte	0x15
 5879 1fad 12       		.uleb128 0x12
 5880 1fae 910E0000 		.4byte	.LASF543
 5881 1fb2 16       		.byte	0x16
 5882 1fb3 12       		.uleb128 0x12
 5883 1fb4 4F1C0000 		.4byte	.LASF544
 5884 1fb8 17       		.byte	0x17
 5885 1fb9 12       		.uleb128 0x12
ARM GAS  C:\Users\haske\AppData\Local\Temp\ccnNTYZ7.s 			page 118


 5886 1fba 87220000 		.4byte	.LASF545
 5887 1fbe 18       		.byte	0x18
 5888 1fbf 12       		.uleb128 0x12
 5889 1fc0 A21F0000 		.4byte	.LASF546
 5890 1fc4 19       		.byte	0x19
 5891 1fc5 12       		.uleb128 0x12
 5892 1fc6 B91F0000 		.4byte	.LASF547
 5893 1fca 1A       		.byte	0x1a
 5894 1fcb 12       		.uleb128 0x12
 5895 1fcc C3060000 		.4byte	.LASF548
 5896 1fd0 1B       		.byte	0x1b
 5897 1fd1 12       		.uleb128 0x12
 5898 1fd2 91170000 		.4byte	.LASF549
 5899 1fd6 1C       		.byte	0x1c
 5900 1fd7 12       		.uleb128 0x12
 5901 1fd8 A4010000 		.4byte	.LASF550
 5902 1fdc 1D       		.byte	0x1d
 5903 1fdd 12       		.uleb128 0x12
 5904 1fde 0D130000 		.4byte	.LASF551
 5905 1fe2 1E       		.byte	0x1e
 5906 1fe3 12       		.uleb128 0x12
 5907 1fe4 6E220000 		.4byte	.LASF552
 5908 1fe8 1F       		.byte	0x1f
 5909 1fe9 12       		.uleb128 0x12
 5910 1fea B01A0000 		.4byte	.LASF553
 5911 1fee 20       		.byte	0x20
 5912 1fef 12       		.uleb128 0x12
 5913 1ff0 B9160000 		.4byte	.LASF554
 5914 1ff4 21       		.byte	0x21
 5915 1ff5 12       		.uleb128 0x12
 5916 1ff6 A2020000 		.4byte	.LASF555
 5917 1ffa 22       		.byte	0x22
 5918 1ffb 12       		.uleb128 0x12
 5919 1ffc A4030000 		.4byte	.LASF556
 5920 2000 23       		.byte	0x23
 5921 2001 12       		.uleb128 0x12
 5922 2002 68130000 		.4byte	.LASF557
 5923 2006 24       		.byte	0x24
 5924 2007 12       		.uleb128 0x12
 5925 2008 BC240000 		.4byte	.LASF558
 5926 200c 25       		.byte	0x25
 5927 200d 12       		.uleb128 0x12
 5928 200e 72180000 		.4byte	.LASF559
 5929 2012 26       		.byte	0x26
 5930 2013 12       		.uleb128 0x12
 5931 2014 300C0000 		.4byte	.LASF560
 5932 2018 27       		.byte	0x27
 5933 2019 12       		.uleb128 0x12
 5934 201a C01D0000 		.4byte	.LASF561
 5935 201e 28       		.byte	0x28
 5936 201f 12       		.uleb128 0x12
 5937 2020 CE220000 		.4byte	.LASF562
 5938 2024 29       		.byte	0x29
 5939 2025 12       		.uleb128 0x12
 5940 2026 57220000 		.4byte	.LASF563
 5941 202a 2A       		.byte	0x2a
 5942 202b 12       		.uleb128 0x12
ARM GAS  C:\Users\haske\AppData\Local\Temp\ccnNTYZ7.s 			page 119


 5943 202c 2F230000 		.4byte	.LASF564
 5944 2030 2B       		.byte	0x2b
 5945 2031 12       		.uleb128 0x12
 5946 2032 A5080000 		.4byte	.LASF565
 5947 2036 2C       		.byte	0x2c
 5948 2037 12       		.uleb128 0x12
 5949 2038 8C200000 		.4byte	.LASF566
 5950 203c 2D       		.byte	0x2d
 5951 203d 12       		.uleb128 0x12
 5952 203e BC100000 		.4byte	.LASF567
 5953 2042 80       		.byte	0x80
 5954 2043 00       		.byte	0
 5955 2044 02       		.uleb128 0x2
 5956 2045 99140000 		.4byte	.LASF568
 5957 2049 1F       		.byte	0x1f
 5958 204a 5C       		.byte	0x5c
 5959 204b 1D1F0000 		.4byte	0x1f1d
 5960 204f 02       		.uleb128 0x2
 5961 2050 97020000 		.4byte	.LASF569
 5962 2054 1F       		.byte	0x1f
 5963 2055 68       		.byte	0x68
 5964 2056 641E0000 		.4byte	0x1e64
 5965 205a 02       		.uleb128 0x2
 5966 205b A3240000 		.4byte	.LASF570
 5967 205f 1F       		.byte	0x1f
 5968 2060 6F       		.byte	0x6f
 5969 2061 65200000 		.4byte	0x2065
 5970 2065 0B       		.uleb128 0xb
 5971 2066 04       		.byte	0x4
 5972 2067 6B200000 		.4byte	0x206b
 5973 206b 16       		.uleb128 0x16
 5974 206c 76200000 		.4byte	0x2076
 5975 2070 0E       		.uleb128 0xe
 5976 2071 76200000 		.4byte	0x2076
 5977 2075 00       		.byte	0
 5978 2076 0B       		.uleb128 0xb
 5979 2077 04       		.byte	0x4
 5980 2078 4F200000 		.4byte	0x204f
 5981 207c 05       		.uleb128 0x5
 5982 207d 08       		.byte	0x8
 5983 207e 1F       		.byte	0x1f
 5984 207f 78       		.byte	0x78
 5985 2080 9D200000 		.4byte	0x209d
 5986 2084 07       		.uleb128 0x7
 5987 2085 E8030000 		.4byte	.LASF387
 5988 2089 1F       		.byte	0x1f
 5989 208a 79       		.byte	0x79
 5990 208b 60100000 		.4byte	0x1060
 5991 208f 00       		.byte	0
 5992 2090 06       		.uleb128 0x6
 5993 2091 72657300 		.ascii	"res\000"
 5994 2095 1F       		.byte	0x1f
 5995 2096 7A       		.byte	0x7a
 5996 2097 AA020000 		.4byte	0x2aa
 5997 209b 04       		.byte	0x4
 5998 209c 00       		.byte	0
 5999 209d 02       		.uleb128 0x2
ARM GAS  C:\Users\haske\AppData\Local\Temp\ccnNTYZ7.s 			page 120


 6000 209e 28020000 		.4byte	.LASF571
 6001 20a2 1F       		.byte	0x1f
 6002 20a3 7B       		.byte	0x7b
 6003 20a4 7C200000 		.4byte	0x207c
 6004 20a8 05       		.uleb128 0x5
 6005 20a9 08       		.byte	0x8
 6006 20aa 1F       		.byte	0x1f
 6007 20ab 82       		.byte	0x82
 6008 20ac C9200000 		.4byte	0x20c9
 6009 20b0 06       		.uleb128 0x6
 6010 20b1 72657300 		.ascii	"res\000"
 6011 20b5 1F       		.byte	0x1f
 6012 20b6 83       		.byte	0x83
 6013 20b7 B31C0000 		.4byte	0x1cb3
 6014 20bb 00       		.byte	0
 6015 20bc 07       		.uleb128 0x7
 6016 20bd A10F0000 		.4byte	.LASF572
 6017 20c1 1F       		.byte	0x1f
 6018 20c2 84       		.byte	0x84
 6019 20c3 7A0E0000 		.4byte	0xe7a
 6020 20c7 04       		.byte	0x4
 6021 20c8 00       		.byte	0
 6022 20c9 02       		.uleb128 0x2
 6023 20ca 9E120000 		.4byte	.LASF573
 6024 20ce 1F       		.byte	0x1f
 6025 20cf 85       		.byte	0x85
 6026 20d0 A8200000 		.4byte	0x20a8
 6027 20d4 02       		.uleb128 0x2
 6028 20d5 BA1B0000 		.4byte	.LASF574
 6029 20d9 1A       		.byte	0x1a
 6030 20da 34       		.byte	0x34
 6031 20db DF200000 		.4byte	0x20df
 6032 20df 0B       		.uleb128 0xb
 6033 20e0 04       		.byte	0x4
 6034 20e1 E5200000 		.4byte	0x20e5
 6035 20e5 16       		.uleb128 0x16
 6036 20e6 F0200000 		.4byte	0x20f0
 6037 20ea 0E       		.uleb128 0xe
 6038 20eb 1C1B0000 		.4byte	0x1b1c
 6039 20ef 00       		.byte	0
 6040 20f0 02       		.uleb128 0x2
 6041 20f1 C9150000 		.4byte	.LASF575
 6042 20f5 1A       		.byte	0x1a
 6043 20f6 35       		.byte	0x35
 6044 20f7 FB200000 		.4byte	0x20fb
 6045 20fb 0B       		.uleb128 0xb
 6046 20fc 04       		.byte	0x4
 6047 20fd 01210000 		.4byte	0x2101
 6048 2101 16       		.uleb128 0x16
 6049 2102 11210000 		.4byte	0x2111
 6050 2106 0E       		.uleb128 0xe
 6051 2107 1C1B0000 		.4byte	0x1b1c
 6052 210b 0E       		.uleb128 0xe
 6053 210c AA020000 		.4byte	0x2aa
 6054 2110 00       		.byte	0
 6055 2111 02       		.uleb128 0x2
 6056 2112 22090000 		.4byte	.LASF576
ARM GAS  C:\Users\haske\AppData\Local\Temp\ccnNTYZ7.s 			page 121


 6057 2116 1A       		.byte	0x1a
 6058 2117 4E       		.byte	0x4e
 6059 2118 971A0000 		.4byte	0x1a97
 6060 211c 05       		.uleb128 0x5
 6061 211d 1C       		.byte	0x1c
 6062 211e 0E       		.byte	0xe
 6063 211f 9B       		.byte	0x9b
 6064 2120 D3210000 		.4byte	0x21d3
 6065 2124 07       		.uleb128 0x7
 6066 2125 DF030000 		.4byte	.LASF577
 6067 2129 0E       		.byte	0xe
 6068 212a 9C       		.byte	0x9c
 6069 212b F5160000 		.4byte	0x16f5
 6070 212f 00       		.byte	0
 6071 2130 07       		.uleb128 0x7
 6072 2131 CF080000 		.4byte	.LASF578
 6073 2135 0E       		.byte	0xe
 6074 2136 9D       		.byte	0x9d
 6075 2137 E4000000 		.4byte	0xe4
 6076 213b 04       		.byte	0x4
 6077 213c 07       		.uleb128 0x7
 6078 213d F60C0000 		.4byte	.LASF579
 6079 2141 0E       		.byte	0xe
 6080 2142 9E       		.byte	0x9e
 6081 2143 D3210000 		.4byte	0x21d3
 6082 2147 08       		.byte	0x8
 6083 2148 07       		.uleb128 0x7
 6084 2149 740C0000 		.4byte	.LASF580
 6085 214d 0E       		.byte	0xe
 6086 214e A0       		.byte	0xa0
 6087 214f 0C220000 		.4byte	0x220c
 6088 2153 0C       		.byte	0xc
 6089 2154 07       		.uleb128 0x7
 6090 2155 330D0000 		.4byte	.LASF581
 6091 2159 0E       		.byte	0xe
 6092 215a A1       		.byte	0xa1
 6093 215b 29010000 		.4byte	0x129
 6094 215f 10       		.byte	0x10
 6095 2160 07       		.uleb128 0x7
 6096 2161 47200000 		.4byte	.LASF582
 6097 2165 0E       		.byte	0xe
 6098 2166 A3       		.byte	0xa3
 6099 2167 01010000 		.4byte	0x101
 6100 216b 14       		.byte	0x14
 6101 216c 07       		.uleb128 0x7
 6102 216d CD0D0000 		.4byte	.LASF583
 6103 2171 0E       		.byte	0xe
 6104 2172 A4       		.byte	0xa4
 6105 2173 01010000 		.4byte	0x101
 6106 2177 16       		.byte	0x16
 6107 2178 09       		.uleb128 0x9
 6108 2179 C3090000 		.4byte	.LASF584
 6109 217d 0E       		.byte	0xe
 6110 217e A6       		.byte	0xa6
 6111 217f 2B1C0000 		.4byte	0x1c2b
 6112 2183 01       		.byte	0x1
 6113 2184 02       		.byte	0x2
ARM GAS  C:\Users\haske\AppData\Local\Temp\ccnNTYZ7.s 			page 122


 6114 2185 06       		.byte	0x6
 6115 2186 18       		.byte	0x18
 6116 2187 09       		.uleb128 0x9
 6117 2188 52020000 		.4byte	.LASF585
 6118 218c 0E       		.byte	0xe
 6119 218d A7       		.byte	0xa7
 6120 218e 361C0000 		.4byte	0x1c36
 6121 2192 01       		.byte	0x1
 6122 2193 02       		.byte	0x2
 6123 2194 04       		.byte	0x4
 6124 2195 18       		.byte	0x18
 6125 2196 09       		.uleb128 0x9
 6126 2197 60020000 		.4byte	.LASF586
 6127 219b 0E       		.byte	0xe
 6128 219c A8       		.byte	0xa8
 6129 219d 361C0000 		.4byte	0x1c36
 6130 21a1 01       		.byte	0x1
 6131 21a2 02       		.byte	0x2
 6132 21a3 02       		.byte	0x2
 6133 21a4 18       		.byte	0x18
 6134 21a5 09       		.uleb128 0x9
 6135 21a6 91050000 		.4byte	.LASF418
 6136 21aa 0E       		.byte	0xe
 6137 21ab A9       		.byte	0xa9
 6138 21ac 74010000 		.4byte	0x174
 6139 21b0 01       		.byte	0x1
 6140 21b1 04       		.byte	0x4
 6141 21b2 04       		.byte	0x4
 6142 21b3 19       		.byte	0x19
 6143 21b4 09       		.uleb128 0x9
 6144 21b5 05260000 		.4byte	.LASF587
 6145 21b9 0E       		.byte	0xe
 6146 21ba AA       		.byte	0xaa
 6147 21bb B8000000 		.4byte	0xb8
 6148 21bf 01       		.byte	0x1
 6149 21c0 06       		.byte	0x6
 6150 21c1 02       		.byte	0x2
 6151 21c2 1A       		.byte	0x1a
 6152 21c3 09       		.uleb128 0x9
 6153 21c4 8F010000 		.4byte	.LASF588
 6154 21c8 0E       		.byte	0xe
 6155 21c9 AB       		.byte	0xab
 6156 21ca B8000000 		.4byte	0xb8
 6157 21ce 01       		.byte	0x1
 6158 21cf 02       		.byte	0x2
 6159 21d0 00       		.byte	0
 6160 21d1 1A       		.byte	0x1a
 6161 21d2 00       		.byte	0
 6162 21d3 0B       		.uleb128 0xb
 6163 21d4 04       		.byte	0x4
 6164 21d5 11210000 		.4byte	0x2111
 6165 21d9 0A       		.uleb128 0xa
 6166 21da F1230000 		.4byte	.LASF589
 6167 21de 0C       		.byte	0xc
 6168 21df 01       		.byte	0x1
 6169 21e0 14       		.byte	0x14
 6170 21e1 0C220000 		.4byte	0x220c
ARM GAS  C:\Users\haske\AppData\Local\Temp\ccnNTYZ7.s 			page 123


 6171 21e5 06       		.uleb128 0x6
 6172 21e6 636200   		.ascii	"cb\000"
 6173 21e9 01       		.byte	0x1
 6174 21ea 15       		.byte	0x15
 6175 21eb 5A200000 		.4byte	0x205a
 6176 21ef 00       		.byte	0
 6177 21f0 07       		.uleb128 0x7
 6178 21f1 C6230000 		.4byte	.LASF42
 6179 21f5 01       		.byte	0x1
 6180 21f6 16       		.byte	0x16
 6181 21f7 E9020000 		.4byte	0x2e9
 6182 21fb 04       		.byte	0x4
 6183 21fc 09       		.uleb128 0x9
 6184 21fd B8200000 		.4byte	.LASF590
 6185 2201 01       		.byte	0x1
 6186 2202 17       		.byte	0x17
 6187 2203 44200000 		.4byte	0x2044
 6188 2207 01       		.byte	0x1
 6189 2208 08       		.byte	0x8
 6190 2209 00       		.byte	0
 6191 220a 08       		.byte	0x8
 6192 220b 00       		.byte	0
 6193 220c 0B       		.uleb128 0xb
 6194 220d 04       		.byte	0x4
 6195 220e D9210000 		.4byte	0x21d9
 6196 2212 02       		.uleb128 0x2
 6197 2213 A80B0000 		.4byte	.LASF591
 6198 2217 0E       		.byte	0xe
 6199 2218 AC       		.byte	0xac
 6200 2219 1C210000 		.4byte	0x211c
 6201 221d 0B       		.uleb128 0xb
 6202 221e 04       		.byte	0x4
 6203 221f 23220000 		.4byte	0x2223
 6204 2223 0C       		.uleb128 0xc
 6205 2224 121F0000 		.4byte	0x1f12
 6206 2228 0B       		.uleb128 0xb
 6207 2229 04       		.byte	0x4
 6208 222a 12220000 		.4byte	0x2212
 6209 222e 0B       		.uleb128 0xb
 6210 222f 04       		.byte	0x4
 6211 2230 891C0000 		.4byte	0x1c89
 6212 2234 02       		.uleb128 0x2
 6213 2235 FC250000 		.4byte	.LASF592
 6214 2239 0E       		.byte	0xe
 6215 223a BF       		.byte	0xbf
 6216 223b 7B090000 		.4byte	0x97b
 6217 223f 02       		.uleb128 0x2
 6218 2240 00190000 		.4byte	.LASF593
 6219 2244 01       		.byte	0x1
 6220 2245 18       		.byte	0x18
 6221 2246 D9210000 		.4byte	0x21d9
 6222 224a 25       		.uleb128 0x25
 6223 224b D3140000 		.4byte	.LASF594
 6224 224f 01       		.byte	0x1
 6225 2250 A001     		.2byte	0x1a0
 6226 2252 84220000 		.4byte	0x2284
 6227 2256 00000000 		.4byte	.LFB186
ARM GAS  C:\Users\haske\AppData\Local\Temp\ccnNTYZ7.s 			page 124


 6228 225a 22000000 		.4byte	.LFE186-.LFB186
 6229 225e 01       		.uleb128 0x1
 6230 225f 9C       		.byte	0x9c
 6231 2260 84220000 		.4byte	0x2284
 6232 2264 26       		.uleb128 0x26
 6233 2265 6F626A00 		.ascii	"obj\000"
 6234 2269 01       		.byte	0x1
 6235 226a A001     		.2byte	0x1a0
 6236 226c 8A220000 		.4byte	0x228a
 6237 2270 00000000 		.4byte	.LLST0
 6238 2274 26       		.uleb128 0x26
 6239 2275 696400   		.ascii	"id\000"
 6240 2278 01       		.byte	0x1
 6241 2279 A001     		.2byte	0x1a0
 6242 227b E4000000 		.4byte	0xe4
 6243 227f 53000000 		.4byte	.LLST1
 6244 2283 00       		.byte	0
 6245 2284 0B       		.uleb128 0xb
 6246 2285 04       		.byte	0x4
 6247 2286 3F220000 		.4byte	0x223f
 6248 228a 0B       		.uleb128 0xb
 6249 228b 04       		.byte	0x4
 6250 228c 90220000 		.4byte	0x2290
 6251 2290 0C       		.uleb128 0xc
 6252 2291 34220000 		.4byte	0x2234
 6253 2295 25       		.uleb128 0x25
 6254 2296 1E230000 		.4byte	.LASF595
 6255 229a 01       		.byte	0x1
 6256 229b E701     		.2byte	0x1e7
 6257 229d AA020000 		.4byte	0x2aa
 6258 22a1 00000000 		.4byte	.LFB188
 6259 22a5 5C000000 		.4byte	.LFE188-.LFB188
 6260 22a9 01       		.uleb128 0x1
 6261 22aa 9C       		.byte	0x9c
 6262 22ab CF220000 		.4byte	0x22cf
 6263 22af 26       		.uleb128 0x26
 6264 22b0 6500     		.ascii	"e\000"
 6265 22b2 01       		.byte	0x1
 6266 22b3 E701     		.2byte	0x1e7
 6267 22b5 76200000 		.4byte	0x2076
 6268 22b9 7F000000 		.4byte	.LLST2
 6269 22bd 27       		.uleb128 0x27
 6270 22be 1E000000 		.4byte	.LVL9
 6271 22c2 FC2A0000 		.4byte	0x2afc
 6272 22c6 28       		.uleb128 0x28
 6273 22c7 01       		.uleb128 0x1
 6274 22c8 51       		.byte	0x51
 6275 22c9 03       		.uleb128 0x3
 6276 22ca 0A       		.byte	0xa
 6277 22cb 0040     		.2byte	0x4000
 6278 22cd 00       		.byte	0
 6279 22ce 00       		.byte	0
 6280 22cf 29       		.uleb128 0x29
 6281 22d0 831C0000 		.4byte	.LASF599
 6282 22d4 01       		.byte	0x1
 6283 22d5 54       		.byte	0x54
 6284 22d6 0F030000 		.4byte	0x30f
ARM GAS  C:\Users\haske\AppData\Local\Temp\ccnNTYZ7.s 			page 125


 6285 22da 00000000 		.4byte	.LFB160
 6286 22de 40000000 		.4byte	.LFE160-.LFB160
 6287 22e2 01       		.uleb128 0x1
 6288 22e3 9C       		.byte	0x9c
 6289 22e4 2F230000 		.4byte	0x232f
 6290 22e8 2A       		.uleb128 0x2a
 6291 22e9 C9160000 		.4byte	.LASF203
 6292 22ed 01       		.byte	0x1
 6293 22ee 54       		.byte	0x54
 6294 22ef 1D220000 		.4byte	0x221d
 6295 22f3 C1000000 		.4byte	.LLST3
 6296 22f7 2B       		.uleb128 0x2b
 6297 22f8 6500     		.ascii	"e\000"
 6298 22fa 01       		.byte	0x1
 6299 22fb 54       		.byte	0x54
 6300 22fc 76200000 		.4byte	0x2076
 6301 2300 FB000000 		.4byte	.LLST4
 6302 2304 2C       		.uleb128 0x2c
 6303 2305 311F0000 		.4byte	.LASF596
 6304 2309 01       		.byte	0x1
 6305 230a 56       		.byte	0x56
 6306 230b 1D220000 		.4byte	0x221d
 6307 230f 2F010000 		.4byte	.LLST5
 6308 2313 2D       		.uleb128 0x2d
 6309 2314 72657300 		.ascii	"res\000"
 6310 2318 01       		.byte	0x1
 6311 2319 64       		.byte	0x64
 6312 231a 0F030000 		.4byte	0x30f
 6313 231e 63010000 		.4byte	.LLST6
 6314 2322 2E       		.uleb128 0x2e
 6315 2323 28000000 		.4byte	.LVL18
 6316 2327 28       		.uleb128 0x28
 6317 2328 01       		.uleb128 0x1
 6318 2329 51       		.byte	0x51
 6319 232a 02       		.uleb128 0x2
 6320 232b 74       		.byte	0x74
 6321 232c 00       		.sleb128 0
 6322 232d 00       		.byte	0
 6323 232e 00       		.byte	0
 6324 232f 2F       		.uleb128 0x2f
 6325 2330 A8170000 		.4byte	.LASF597
 6326 2334 01       		.byte	0x1
 6327 2335 AA01     		.2byte	0x1aa
 6328 2337 0F030000 		.4byte	0x30f
 6329 233b 00000000 		.4byte	.LFB187
 6330 233f 18010000 		.4byte	.LFE187-.LFB187
 6331 2343 01       		.uleb128 0x1
 6332 2344 9C       		.byte	0x9c
 6333 2345 4A240000 		.4byte	0x244a
 6334 2349 26       		.uleb128 0x26
 6335 234a 6500     		.ascii	"e\000"
 6336 234c 01       		.byte	0x1
 6337 234d AA01     		.2byte	0x1aa
 6338 234f 76200000 		.4byte	0x2076
 6339 2353 83010000 		.4byte	.LLST7
 6340 2357 30       		.uleb128 0x30
 6341 2358 D9170000 		.4byte	.LASF598
ARM GAS  C:\Users\haske\AppData\Local\Temp\ccnNTYZ7.s 			page 126


 6342 235c 01       		.byte	0x1
 6343 235d AF01     		.2byte	0x1af
 6344 235f 4A240000 		.4byte	0x244a
 6345 2363 A1010000 		.4byte	.LLST8
 6346 2367 31       		.uleb128 0x31
 6347 2368 72657300 		.ascii	"res\000"
 6348 236c 01       		.byte	0x1
 6349 236d B601     		.2byte	0x1b6
 6350 236f 0F030000 		.4byte	0x30f
 6351 2373 B4010000 		.4byte	.LLST9
 6352 2377 30       		.uleb128 0x30
 6353 2378 740C0000 		.4byte	.LASF580
 6354 237c 01       		.byte	0x1
 6355 237d B701     		.2byte	0x1b7
 6356 237f 84220000 		.4byte	0x2284
 6357 2383 EA010000 		.4byte	.LLST10
 6358 2387 31       		.uleb128 0x31
 6359 2388 6900     		.ascii	"i\000"
 6360 238a 01       		.byte	0x1
 6361 238b B901     		.2byte	0x1b9
 6362 238d E4000000 		.4byte	0xe4
 6363 2391 34020000 		.4byte	.LLST11
 6364 2395 32       		.uleb128 0x32
 6365 2396 08000000 		.4byte	.LVL25
 6366 239a 082B0000 		.4byte	0x2b08
 6367 239e 33       		.uleb128 0x33
 6368 239f 30000000 		.4byte	.LVL29
 6369 23a3 4A220000 		.4byte	0x224a
 6370 23a7 B1230000 		.4byte	0x23b1
 6371 23ab 28       		.uleb128 0x28
 6372 23ac 01       		.uleb128 0x1
 6373 23ad 51       		.byte	0x51
 6374 23ae 01       		.uleb128 0x1
 6375 23af 30       		.byte	0x30
 6376 23b0 00       		.byte	0
 6377 23b1 34       		.uleb128 0x34
 6378 23b2 5A000000 		.4byte	.LVL33
 6379 23b6 C1230000 		.4byte	0x23c1
 6380 23ba 28       		.uleb128 0x28
 6381 23bb 01       		.uleb128 0x1
 6382 23bc 50       		.byte	0x50
 6383 23bd 02       		.uleb128 0x2
 6384 23be 76       		.byte	0x76
 6385 23bf 00       		.sleb128 0
 6386 23c0 00       		.byte	0
 6387 23c1 33       		.uleb128 0x33
 6388 23c2 78000000 		.4byte	.LVL35
 6389 23c6 4A220000 		.4byte	0x224a
 6390 23ca D5230000 		.4byte	0x23d5
 6391 23ce 28       		.uleb128 0x28
 6392 23cf 01       		.uleb128 0x1
 6393 23d0 51       		.byte	0x51
 6394 23d1 02       		.uleb128 0x2
 6395 23d2 75       		.byte	0x75
 6396 23d3 00       		.sleb128 0
 6397 23d4 00       		.byte	0
 6398 23d5 33       		.uleb128 0x33
ARM GAS  C:\Users\haske\AppData\Local\Temp\ccnNTYZ7.s 			page 127


 6399 23d6 86000000 		.4byte	.LVL38
 6400 23da CF220000 		.4byte	0x22cf
 6401 23de EE230000 		.4byte	0x23ee
 6402 23e2 28       		.uleb128 0x28
 6403 23e3 01       		.uleb128 0x1
 6404 23e4 50       		.byte	0x50
 6405 23e5 01       		.uleb128 0x1
 6406 23e6 30       		.byte	0x30
 6407 23e7 28       		.uleb128 0x28
 6408 23e8 01       		.uleb128 0x1
 6409 23e9 51       		.byte	0x51
 6410 23ea 02       		.uleb128 0x2
 6411 23eb 76       		.byte	0x76
 6412 23ec 00       		.sleb128 0
 6413 23ed 00       		.byte	0
 6414 23ee 33       		.uleb128 0x33
 6415 23ef 92000000 		.4byte	.LVL40
 6416 23f3 4A220000 		.4byte	0x224a
 6417 23f7 01240000 		.4byte	0x2401
 6418 23fb 28       		.uleb128 0x28
 6419 23fc 01       		.uleb128 0x1
 6420 23fd 51       		.byte	0x51
 6421 23fe 01       		.uleb128 0x1
 6422 23ff 30       		.byte	0x30
 6423 2400 00       		.byte	0
 6424 2401 34       		.uleb128 0x34
 6425 2402 B6000000 		.4byte	.LVL44
 6426 2406 11240000 		.4byte	0x2411
 6427 240a 28       		.uleb128 0x28
 6428 240b 01       		.uleb128 0x1
 6429 240c 50       		.byte	0x50
 6430 240d 02       		.uleb128 0x2
 6431 240e 76       		.byte	0x76
 6432 240f 00       		.sleb128 0
 6433 2410 00       		.byte	0
 6434 2411 33       		.uleb128 0x33
 6435 2412 D2000000 		.4byte	.LVL46
 6436 2416 4A220000 		.4byte	0x224a
 6437 241a 25240000 		.4byte	0x2425
 6438 241e 28       		.uleb128 0x28
 6439 241f 01       		.uleb128 0x1
 6440 2420 51       		.byte	0x51
 6441 2421 02       		.uleb128 0x2
 6442 2422 75       		.byte	0x75
 6443 2423 00       		.sleb128 0
 6444 2424 00       		.byte	0
 6445 2425 33       		.uleb128 0x33
 6446 2426 EA000000 		.4byte	.LVL48
 6447 242a 95220000 		.4byte	0x2295
 6448 242e 39240000 		.4byte	0x2439
 6449 2432 28       		.uleb128 0x28
 6450 2433 01       		.uleb128 0x1
 6451 2434 50       		.byte	0x50
 6452 2435 02       		.uleb128 0x2
 6453 2436 76       		.byte	0x76
 6454 2437 00       		.sleb128 0
 6455 2438 00       		.byte	0
ARM GAS  C:\Users\haske\AppData\Local\Temp\ccnNTYZ7.s 			page 128


 6456 2439 27       		.uleb128 0x27
 6457 243a F8000000 		.4byte	.LVL49
 6458 243e 2F230000 		.4byte	0x232f
 6459 2442 28       		.uleb128 0x28
 6460 2443 01       		.uleb128 0x1
 6461 2444 50       		.byte	0x50
 6462 2445 02       		.uleb128 0x2
 6463 2446 76       		.byte	0x76
 6464 2447 00       		.sleb128 0
 6465 2448 00       		.byte	0
 6466 2449 00       		.byte	0
 6467 244a 0B       		.uleb128 0xb
 6468 244b 04       		.byte	0x4
 6469 244c 221B0000 		.4byte	0x1b22
 6470 2450 29       		.uleb128 0x29
 6471 2451 A8040000 		.4byte	.LASF600
 6472 2455 01       		.byte	0x1
 6473 2456 34       		.byte	0x34
 6474 2457 0F030000 		.4byte	0x30f
 6475 245b 00000000 		.4byte	.LFB159
 6476 245f 44000000 		.4byte	.LFE159-.LFB159
 6477 2463 01       		.uleb128 0x1
 6478 2464 9C       		.byte	0x9c
 6479 2465 C2240000 		.4byte	0x24c2
 6480 2469 2B       		.uleb128 0x2b
 6481 246a 6F626A00 		.ascii	"obj\000"
 6482 246e 01       		.byte	0x1
 6483 246f 34       		.byte	0x34
 6484 2470 C2240000 		.4byte	0x24c2
 6485 2474 69020000 		.4byte	.LLST12
 6486 2478 2A       		.uleb128 0x2a
 6487 2479 8D070000 		.4byte	.LASF601
 6488 247d 01       		.byte	0x1
 6489 247e 34       		.byte	0x34
 6490 247f 44200000 		.4byte	0x2044
 6491 2483 AF020000 		.4byte	.LLST13
 6492 2487 2A       		.uleb128 0x2a
 6493 2488 16110000 		.4byte	.LASF515
 6494 248c 01       		.byte	0x1
 6495 248d 34       		.byte	0x34
 6496 248e E9020000 		.4byte	0x2e9
 6497 2492 F5020000 		.4byte	.LLST14
 6498 2496 35       		.uleb128 0x35
 6499 2497 6500     		.ascii	"e\000"
 6500 2499 01       		.byte	0x1
 6501 249a 3A       		.byte	0x3a
 6502 249b 4F200000 		.4byte	0x204f
 6503 249f 02       		.uleb128 0x2
 6504 24a0 91       		.byte	0x91
 6505 24a1 5C       		.sleb128 -36
 6506 24a2 2D       		.uleb128 0x2d
 6507 24a3 72657300 		.ascii	"res\000"
 6508 24a7 01       		.byte	0x1
 6509 24a8 4B       		.byte	0x4b
 6510 24a9 0F030000 		.4byte	0x30f
 6511 24ad 2F030000 		.4byte	.LLST15
 6512 24b1 27       		.uleb128 0x27
ARM GAS  C:\Users\haske\AppData\Local\Temp\ccnNTYZ7.s 			page 129


 6513 24b2 32000000 		.4byte	.LVL61
 6514 24b6 2F230000 		.4byte	0x232f
 6515 24ba 28       		.uleb128 0x28
 6516 24bb 01       		.uleb128 0x1
 6517 24bc 50       		.byte	0x50
 6518 24bd 02       		.uleb128 0x2
 6519 24be 91       		.byte	0x91
 6520 24bf 5C       		.sleb128 -36
 6521 24c0 00       		.byte	0
 6522 24c1 00       		.byte	0
 6523 24c2 0B       		.uleb128 0xb
 6524 24c3 04       		.byte	0x4
 6525 24c4 34220000 		.4byte	0x2234
 6526 24c8 29       		.uleb128 0x29
 6527 24c9 F90F0000 		.4byte	.LASF602
 6528 24cd 01       		.byte	0x1
 6529 24ce 6C       		.byte	0x6c
 6530 24cf C2240000 		.4byte	0x24c2
 6531 24d3 00000000 		.4byte	.LFB161
 6532 24d7 04000000 		.4byte	.LFE161-.LFB161
 6533 24db 01       		.uleb128 0x1
 6534 24dc 9C       		.byte	0x9c
 6535 24dd EF240000 		.4byte	0x24ef
 6536 24e1 2B       		.uleb128 0x2b
 6537 24e2 6500     		.ascii	"e\000"
 6538 24e4 01       		.byte	0x1
 6539 24e5 6C       		.byte	0x6c
 6540 24e6 76200000 		.4byte	0x2076
 6541 24ea 4D030000 		.4byte	.LLST16
 6542 24ee 00       		.byte	0
 6543 24ef 29       		.uleb128 0x29
 6544 24f0 8C0B0000 		.4byte	.LASF603
 6545 24f4 01       		.byte	0x1
 6546 24f5 71       		.byte	0x71
 6547 24f6 C2240000 		.4byte	0x24c2
 6548 24fa 00000000 		.4byte	.LFB162
 6549 24fe 04000000 		.4byte	.LFE162-.LFB162
 6550 2502 01       		.uleb128 0x1
 6551 2503 9C       		.byte	0x9c
 6552 2504 16250000 		.4byte	0x2516
 6553 2508 2B       		.uleb128 0x2b
 6554 2509 6500     		.ascii	"e\000"
 6555 250b 01       		.byte	0x1
 6556 250c 71       		.byte	0x71
 6557 250d 76200000 		.4byte	0x2076
 6558 2511 6E030000 		.4byte	.LLST17
 6559 2515 00       		.byte	0
 6560 2516 29       		.uleb128 0x29
 6561 2517 A7160000 		.4byte	.LASF604
 6562 251b 01       		.byte	0x1
 6563 251c 76       		.byte	0x76
 6564 251d 44200000 		.4byte	0x2044
 6565 2521 00000000 		.4byte	.LFB163
 6566 2525 08000000 		.4byte	.LFE163-.LFB163
 6567 2529 01       		.uleb128 0x1
 6568 252a 9C       		.byte	0x9c
 6569 252b 3D250000 		.4byte	0x253d
ARM GAS  C:\Users\haske\AppData\Local\Temp\ccnNTYZ7.s 			page 130


 6570 252f 2B       		.uleb128 0x2b
 6571 2530 6500     		.ascii	"e\000"
 6572 2532 01       		.byte	0x1
 6573 2533 76       		.byte	0x76
 6574 2534 76200000 		.4byte	0x2076
 6575 2538 8F030000 		.4byte	.LLST18
 6576 253c 00       		.byte	0
 6577 253d 29       		.uleb128 0x29
 6578 253e 5F140000 		.4byte	.LASF605
 6579 2542 01       		.byte	0x1
 6580 2543 7B       		.byte	0x7b
 6581 2544 E9020000 		.4byte	0x2e9
 6582 2548 00000000 		.4byte	.LFB164
 6583 254c 04000000 		.4byte	.LFE164-.LFB164
 6584 2550 01       		.uleb128 0x1
 6585 2551 9C       		.byte	0x9c
 6586 2552 64250000 		.4byte	0x2564
 6587 2556 2B       		.uleb128 0x2b
 6588 2557 6500     		.ascii	"e\000"
 6589 2559 01       		.byte	0x1
 6590 255a 7B       		.byte	0x7b
 6591 255b 76200000 		.4byte	0x2076
 6592 255f B0030000 		.4byte	.LLST19
 6593 2563 00       		.byte	0
 6594 2564 29       		.uleb128 0x29
 6595 2565 DC000000 		.4byte	.LASF606
 6596 2569 01       		.byte	0x1
 6597 256a 80       		.byte	0x80
 6598 256b E9020000 		.4byte	0x2e9
 6599 256f 00000000 		.4byte	.LFB165
 6600 2573 04000000 		.4byte	.LFE165-.LFB165
 6601 2577 01       		.uleb128 0x1
 6602 2578 9C       		.byte	0x9c
 6603 2579 8B250000 		.4byte	0x258b
 6604 257d 2B       		.uleb128 0x2b
 6605 257e 6500     		.ascii	"e\000"
 6606 2580 01       		.byte	0x1
 6607 2581 80       		.byte	0x80
 6608 2582 76200000 		.4byte	0x2076
 6609 2586 D1030000 		.4byte	.LLST20
 6610 258a 00       		.byte	0
 6611 258b 36       		.uleb128 0x36
 6612 258c 7C160000 		.4byte	.LASF607
 6613 2590 01       		.byte	0x1
 6614 2591 85       		.byte	0x85
 6615 2592 00000000 		.4byte	.LFB166
 6616 2596 0A000000 		.4byte	.LFE166-.LFB166
 6617 259a 01       		.uleb128 0x1
 6618 259b 9C       		.byte	0x9c
 6619 259c AC250000 		.4byte	0x25ac
 6620 25a0 37       		.uleb128 0x37
 6621 25a1 6500     		.ascii	"e\000"
 6622 25a3 01       		.byte	0x1
 6623 25a4 85       		.byte	0x85
 6624 25a5 76200000 		.4byte	0x2076
 6625 25a9 01       		.uleb128 0x1
 6626 25aa 50       		.byte	0x50
ARM GAS  C:\Users\haske\AppData\Local\Temp\ccnNTYZ7.s 			page 131


 6627 25ab 00       		.byte	0
 6628 25ac 36       		.uleb128 0x36
 6629 25ad D21F0000 		.4byte	.LASF608
 6630 25b1 01       		.byte	0x1
 6631 25b2 8A       		.byte	0x8a
 6632 25b3 00000000 		.4byte	.LFB167
 6633 25b7 0A000000 		.4byte	.LFE167-.LFB167
 6634 25bb 01       		.uleb128 0x1
 6635 25bc 9C       		.byte	0x9c
 6636 25bd CD250000 		.4byte	0x25cd
 6637 25c1 37       		.uleb128 0x37
 6638 25c2 6500     		.ascii	"e\000"
 6639 25c4 01       		.byte	0x1
 6640 25c5 8A       		.byte	0x8a
 6641 25c6 76200000 		.4byte	0x2076
 6642 25ca 01       		.uleb128 0x1
 6643 25cb 50       		.byte	0x50
 6644 25cc 00       		.byte	0
 6645 25cd 29       		.uleb128 0x29
 6646 25ce 82210000 		.4byte	.LASF609
 6647 25d2 01       		.byte	0x1
 6648 25d3 90       		.byte	0x90
 6649 25d4 E4000000 		.4byte	0xe4
 6650 25d8 00000000 		.4byte	.LFB168
 6651 25dc 10000000 		.4byte	.LFE168-.LFB168
 6652 25e0 01       		.uleb128 0x1
 6653 25e1 9C       		.byte	0x9c
 6654 25e2 F8250000 		.4byte	0x25f8
 6655 25e6 38       		.uleb128 0x38
 6656 25e7 800A0000 		.4byte	.LASF610
 6657 25eb 01       		.byte	0x1
 6658 25ec 92       		.byte	0x92
 6659 25ed E4000000 		.4byte	0xe4
 6660 25f1 05       		.uleb128 0x5
 6661 25f2 03       		.byte	0x3
 6662 25f3 00000000 		.4byte	last_id.8886
 6663 25f7 00       		.byte	0
 6664 25f8 36       		.uleb128 0x36
 6665 25f9 CD210000 		.4byte	.LASF611
 6666 25fd 01       		.byte	0x1
 6667 25fe 97       		.byte	0x97
 6668 25ff 00000000 		.4byte	.LFB169
 6669 2603 28000000 		.4byte	.LFE169-.LFB169
 6670 2607 01       		.uleb128 0x1
 6671 2608 9C       		.byte	0x9c
 6672 2609 26260000 		.4byte	0x2626
 6673 260d 37       		.uleb128 0x37
 6674 260e 6F626A00 		.ascii	"obj\000"
 6675 2612 01       		.byte	0x1
 6676 2613 97       		.byte	0x97
 6677 2614 C2240000 		.4byte	0x24c2
 6678 2618 01       		.uleb128 0x1
 6679 2619 50       		.byte	0x50
 6680 261a 35       		.uleb128 0x35
 6681 261b 6500     		.ascii	"e\000"
 6682 261d 01       		.byte	0x1
 6683 261e 99       		.byte	0x99
ARM GAS  C:\Users\haske\AppData\Local\Temp\ccnNTYZ7.s 			page 132


 6684 261f 76200000 		.4byte	0x2076
 6685 2623 01       		.uleb128 0x1
 6686 2624 53       		.byte	0x53
 6687 2625 00       		.byte	0
 6688 2626 29       		.uleb128 0x29
 6689 2627 E4220000 		.4byte	.LASF612
 6690 262b 01       		.byte	0x1
 6691 262c A2       		.byte	0xa2
 6692 262d 0C220000 		.4byte	0x220c
 6693 2631 00000000 		.4byte	.LFB170
 6694 2635 9A000000 		.4byte	.LFE170-.LFB170
 6695 2639 01       		.uleb128 0x1
 6696 263a 9C       		.byte	0x9c
 6697 263b 99260000 		.4byte	0x2699
 6698 263f 2B       		.uleb128 0x2b
 6699 2640 6F626A00 		.ascii	"obj\000"
 6700 2644 01       		.byte	0x1
 6701 2645 A2       		.byte	0xa2
 6702 2646 C2240000 		.4byte	0x24c2
 6703 264a F2030000 		.4byte	.LLST21
 6704 264e 2A       		.uleb128 0x2a
 6705 264f 90140000 		.4byte	.LASF504
 6706 2653 01       		.byte	0x1
 6707 2654 A2       		.byte	0xa2
 6708 2655 5A200000 		.4byte	0x205a
 6709 2659 10040000 		.4byte	.LLST22
 6710 265d 2A       		.uleb128 0x2a
 6711 265e B8200000 		.4byte	.LASF590
 6712 2662 01       		.byte	0x1
 6713 2663 A2       		.byte	0xa2
 6714 2664 44200000 		.4byte	0x2044
 6715 2668 2E040000 		.4byte	.LLST23
 6716 266c 2A       		.uleb128 0x2a
 6717 266d C6230000 		.4byte	.LASF42
 6718 2671 01       		.byte	0x1
 6719 2672 A3       		.byte	0xa3
 6720 2673 E9020000 		.4byte	0x2e9
 6721 2677 4F040000 		.4byte	.LLST24
 6722 267b 33       		.uleb128 0x33
 6723 267c 10000000 		.4byte	.LVL81
 6724 2680 132B0000 		.4byte	0x2b13
 6725 2684 8F260000 		.4byte	0x268f
 6726 2688 28       		.uleb128 0x28
 6727 2689 01       		.uleb128 0x1
 6728 268a 50       		.byte	0x50
 6729 268b 02       		.uleb128 0x2
 6730 268c 74       		.byte	0x74
 6731 268d 00       		.sleb128 0
 6732 268e 00       		.byte	0
 6733 268f 32       		.uleb128 0x32
 6734 2690 3A000000 		.4byte	.LVL82
 6735 2694 1F2B0000 		.4byte	0x2b1f
 6736 2698 00       		.byte	0
 6737 2699 29       		.uleb128 0x29
 6738 269a 70240000 		.4byte	.LASF613
 6739 269e 01       		.byte	0x1
 6740 269f B4       		.byte	0xb4
ARM GAS  C:\Users\haske\AppData\Local\Temp\ccnNTYZ7.s 			page 133


 6741 26a0 AA020000 		.4byte	0x2aa
 6742 26a4 00000000 		.4byte	.LFB171
 6743 26a8 88000000 		.4byte	.LFE171-.LFB171
 6744 26ac 01       		.uleb128 0x1
 6745 26ad 9C       		.byte	0x9c
 6746 26ae E7260000 		.4byte	0x26e7
 6747 26b2 2B       		.uleb128 0x2b
 6748 26b3 6F626A00 		.ascii	"obj\000"
 6749 26b7 01       		.byte	0x1
 6750 26b8 B4       		.byte	0xb4
 6751 26b9 C2240000 		.4byte	0x24c2
 6752 26bd 6D040000 		.4byte	.LLST25
 6753 26c1 2A       		.uleb128 0x2a
 6754 26c2 90140000 		.4byte	.LASF504
 6755 26c6 01       		.byte	0x1
 6756 26c7 B4       		.byte	0xb4
 6757 26c8 5A200000 		.4byte	0x205a
 6758 26cc AF040000 		.4byte	.LLST26
 6759 26d0 2D       		.uleb128 0x2d
 6760 26d1 6900     		.ascii	"i\000"
 6761 26d3 01       		.byte	0x1
 6762 26d4 B9       		.byte	0xb9
 6763 26d5 D9000000 		.4byte	0xd9
 6764 26d9 E9040000 		.4byte	.LLST27
 6765 26dd 32       		.uleb128 0x32
 6766 26de 66000000 		.4byte	.LVL89
 6767 26e2 1F2B0000 		.4byte	0x2b1f
 6768 26e6 00       		.byte	0
 6769 26e7 29       		.uleb128 0x29
 6770 26e8 2B010000 		.4byte	.LASF614
 6771 26ec 01       		.byte	0x1
 6772 26ed CC       		.byte	0xcc
 6773 26ee AA020000 		.4byte	0x2aa
 6774 26f2 00000000 		.4byte	.LFB172
 6775 26f6 98000000 		.4byte	.LFE172-.LFB172
 6776 26fa 01       		.uleb128 0x1
 6777 26fb 9C       		.byte	0x9c
 6778 26fc 44270000 		.4byte	0x2744
 6779 2700 2B       		.uleb128 0x2b
 6780 2701 6F626A00 		.ascii	"obj\000"
 6781 2705 01       		.byte	0x1
 6782 2706 CC       		.byte	0xcc
 6783 2707 C2240000 		.4byte	0x24c2
 6784 270b 1F050000 		.4byte	.LLST28
 6785 270f 2A       		.uleb128 0x2a
 6786 2710 90140000 		.4byte	.LASF504
 6787 2714 01       		.byte	0x1
 6788 2715 CC       		.byte	0xcc
 6789 2716 5A200000 		.4byte	0x205a
 6790 271a 61050000 		.4byte	.LLST29
 6791 271e 2A       		.uleb128 0x2a
 6792 271f C6230000 		.4byte	.LASF42
 6793 2723 01       		.byte	0x1
 6794 2724 CC       		.byte	0xcc
 6795 2725 E2020000 		.4byte	0x2e2
 6796 2729 9B050000 		.4byte	.LLST30
 6797 272d 2D       		.uleb128 0x2d
ARM GAS  C:\Users\haske\AppData\Local\Temp\ccnNTYZ7.s 			page 134


 6798 272e 6900     		.ascii	"i\000"
 6799 2730 01       		.byte	0x1
 6800 2731 D1       		.byte	0xd1
 6801 2732 D9000000 		.4byte	0xd9
 6802 2736 D5050000 		.4byte	.LLST31
 6803 273a 32       		.uleb128 0x32
 6804 273b 76000000 		.4byte	.LVL101
 6805 273f 1F2B0000 		.4byte	0x2b1f
 6806 2743 00       		.byte	0
 6807 2744 29       		.uleb128 0x29
 6808 2745 32060000 		.4byte	.LASF615
 6809 2749 01       		.byte	0x1
 6810 274a E6       		.byte	0xe6
 6811 274b AA020000 		.4byte	0x2aa
 6812 274f 00000000 		.4byte	.LFB173
 6813 2753 86000000 		.4byte	.LFE173-.LFB173
 6814 2757 01       		.uleb128 0x1
 6815 2758 9C       		.byte	0x9c
 6816 2759 92270000 		.4byte	0x2792
 6817 275d 2B       		.uleb128 0x2b
 6818 275e 6F626A00 		.ascii	"obj\000"
 6819 2762 01       		.byte	0x1
 6820 2763 E6       		.byte	0xe6
 6821 2764 C2240000 		.4byte	0x24c2
 6822 2768 0B060000 		.4byte	.LLST32
 6823 276c 2A       		.uleb128 0x2a
 6824 276d 740C0000 		.4byte	.LASF580
 6825 2771 01       		.byte	0x1
 6826 2772 E6       		.byte	0xe6
 6827 2773 0C220000 		.4byte	0x220c
 6828 2777 4D060000 		.4byte	.LLST33
 6829 277b 2D       		.uleb128 0x2d
 6830 277c 6900     		.ascii	"i\000"
 6831 277e 01       		.byte	0x1
 6832 277f EB       		.byte	0xeb
 6833 2780 D9000000 		.4byte	0xd9
 6834 2784 87060000 		.4byte	.LLST34
 6835 2788 32       		.uleb128 0x32
 6836 2789 64000000 		.4byte	.LVL113
 6837 278d 1F2B0000 		.4byte	0x2b1f
 6838 2791 00       		.byte	0
 6839 2792 29       		.uleb128 0x29
 6840 2793 530F0000 		.4byte	.LASF616
 6841 2797 01       		.byte	0x1
 6842 2798 FE       		.byte	0xfe
 6843 2799 E9020000 		.4byte	0x2e9
 6844 279d 00000000 		.4byte	.LFB174
 6845 27a1 34000000 		.4byte	.LFE174-.LFB174
 6846 27a5 01       		.uleb128 0x1
 6847 27a6 9C       		.byte	0x9c
 6848 27a7 D6270000 		.4byte	0x27d6
 6849 27ab 2B       		.uleb128 0x2b
 6850 27ac 6F626A00 		.ascii	"obj\000"
 6851 27b0 01       		.byte	0x1
 6852 27b1 FE       		.byte	0xfe
 6853 27b2 75090000 		.4byte	0x975
 6854 27b6 BD060000 		.4byte	.LLST35
ARM GAS  C:\Users\haske\AppData\Local\Temp\ccnNTYZ7.s 			page 135


 6855 27ba 39       		.uleb128 0x39
 6856 27bb 90140000 		.4byte	.LASF504
 6857 27bf 01       		.byte	0x1
 6858 27c0 FE       		.byte	0xfe
 6859 27c1 5A200000 		.4byte	0x205a
 6860 27c5 01       		.uleb128 0x1
 6861 27c6 51       		.byte	0x51
 6862 27c7 31       		.uleb128 0x31
 6863 27c8 6900     		.ascii	"i\000"
 6864 27ca 01       		.byte	0x1
 6865 27cb 0301     		.2byte	0x103
 6866 27cd D9000000 		.4byte	0xd9
 6867 27d1 F7060000 		.4byte	.LLST36
 6868 27d5 00       		.byte	0
 6869 27d6 3A       		.uleb128 0x3a
 6870 27d7 F2120000 		.4byte	.LASF617
 6871 27db 01       		.byte	0x1
 6872 27dc 0A01     		.2byte	0x10a
 6873 27de 4A240000 		.4byte	0x244a
 6874 27e2 00000000 		.4byte	.LFB175
 6875 27e6 16000000 		.4byte	.LFE175-.LFB175
 6876 27ea 01       		.uleb128 0x1
 6877 27eb 9C       		.byte	0x9c
 6878 27ec 10280000 		.4byte	0x2810
 6879 27f0 26       		.uleb128 0x26
 6880 27f1 6500     		.ascii	"e\000"
 6881 27f3 01       		.byte	0x1
 6882 27f4 0A01     		.2byte	0x10a
 6883 27f6 76200000 		.4byte	0x2076
 6884 27fa 0A070000 		.4byte	.LLST37
 6885 27fe 27       		.uleb128 0x27
 6886 27ff 10000000 		.4byte	.LVL125
 6887 2803 3D250000 		.4byte	0x253d
 6888 2807 28       		.uleb128 0x28
 6889 2808 01       		.uleb128 0x1
 6890 2809 50       		.byte	0x50
 6891 280a 03       		.uleb128 0x3
 6892 280b F3       		.byte	0xf3
 6893 280c 01       		.uleb128 0x1
 6894 280d 50       		.byte	0x50
 6895 280e 00       		.byte	0
 6896 280f 00       		.byte	0
 6897 2810 3A       		.uleb128 0x3a
 6898 2811 AA000000 		.4byte	.LASF618
 6899 2815 01       		.byte	0x1
 6900 2816 2501     		.2byte	0x125
 6901 2818 4A280000 		.4byte	0x284a
 6902 281c 00000000 		.4byte	.LFB176
 6903 2820 16000000 		.4byte	.LFE176-.LFB176
 6904 2824 01       		.uleb128 0x1
 6905 2825 9C       		.byte	0x9c
 6906 2826 4A280000 		.4byte	0x284a
 6907 282a 26       		.uleb128 0x26
 6908 282b 6500     		.ascii	"e\000"
 6909 282d 01       		.byte	0x1
 6910 282e 2501     		.2byte	0x125
 6911 2830 76200000 		.4byte	0x2076
ARM GAS  C:\Users\haske\AppData\Local\Temp\ccnNTYZ7.s 			page 136


 6912 2834 44070000 		.4byte	.LLST38
 6913 2838 27       		.uleb128 0x27
 6914 2839 10000000 		.4byte	.LVL129
 6915 283d 3D250000 		.4byte	0x253d
 6916 2841 28       		.uleb128 0x28
 6917 2842 01       		.uleb128 0x1
 6918 2843 50       		.byte	0x50
 6919 2844 03       		.uleb128 0x3
 6920 2845 F3       		.byte	0xf3
 6921 2846 01       		.uleb128 0x1
 6922 2847 50       		.byte	0x50
 6923 2848 00       		.byte	0
 6924 2849 00       		.byte	0
 6925 284a 0B       		.uleb128 0xb
 6926 284b 04       		.byte	0x4
 6927 284c 531E0000 		.4byte	0x1e53
 6928 2850 3A       		.uleb128 0x3a
 6929 2851 9E110000 		.4byte	.LASF619
 6930 2855 01       		.byte	0x1
 6931 2856 3101     		.2byte	0x131
 6932 2858 B1150000 		.4byte	0x15b1
 6933 285c 00000000 		.4byte	.LFB177
 6934 2860 24000000 		.4byte	.LFE177-.LFB177
 6935 2864 01       		.uleb128 0x1
 6936 2865 9C       		.byte	0x9c
 6937 2866 82280000 		.4byte	0x2882
 6938 286a 26       		.uleb128 0x26
 6939 286b 6500     		.ascii	"e\000"
 6940 286d 01       		.byte	0x1
 6941 286e 3101     		.2byte	0x131
 6942 2870 76200000 		.4byte	0x2076
 6943 2874 7E070000 		.4byte	.LLST39
 6944 2878 32       		.uleb128 0x32
 6945 2879 1E000000 		.4byte	.LVL133
 6946 287d 3D250000 		.4byte	0x253d
 6947 2881 00       		.byte	0
 6948 2882 3A       		.uleb128 0x3a
 6949 2883 9B200000 		.4byte	.LASF620
 6950 2887 01       		.byte	0x1
 6951 2888 4101     		.2byte	0x141
 6952 288a 7A0E0000 		.4byte	0xe7a
 6953 288e 00000000 		.4byte	.LFB178
 6954 2892 12000000 		.4byte	.LFE178-.LFB178
 6955 2896 01       		.uleb128 0x1
 6956 2897 9C       		.byte	0x9c
 6957 2898 BC280000 		.4byte	0x28bc
 6958 289c 26       		.uleb128 0x26
 6959 289d 6500     		.ascii	"e\000"
 6960 289f 01       		.byte	0x1
 6961 28a0 4101     		.2byte	0x141
 6962 28a2 76200000 		.4byte	0x2076
 6963 28a6 B8070000 		.4byte	.LLST40
 6964 28aa 27       		.uleb128 0x27
 6965 28ab 0C000000 		.4byte	.LVL137
 6966 28af 3D250000 		.4byte	0x253d
 6967 28b3 28       		.uleb128 0x28
 6968 28b4 01       		.uleb128 0x1
ARM GAS  C:\Users\haske\AppData\Local\Temp\ccnNTYZ7.s 			page 137


 6969 28b5 50       		.byte	0x50
 6970 28b6 03       		.uleb128 0x3
 6971 28b7 F3       		.byte	0xf3
 6972 28b8 01       		.uleb128 0x1
 6973 28b9 50       		.byte	0x50
 6974 28ba 00       		.byte	0
 6975 28bb 00       		.byte	0
 6976 28bc 3A       		.uleb128 0x3a
 6977 28bd A6050000 		.4byte	.LASF621
 6978 28c1 01       		.byte	0x1
 6979 28c2 4C01     		.2byte	0x14c
 6980 28c4 E4000000 		.4byte	0xe4
 6981 28c8 00000000 		.4byte	.LFB179
 6982 28cc 1A000000 		.4byte	.LFE179-.LFB179
 6983 28d0 01       		.uleb128 0x1
 6984 28d1 9C       		.byte	0x9c
 6985 28d2 0A290000 		.4byte	0x290a
 6986 28d6 26       		.uleb128 0x26
 6987 28d7 6500     		.ascii	"e\000"
 6988 28d9 01       		.byte	0x1
 6989 28da 4C01     		.2byte	0x14c
 6990 28dc 76200000 		.4byte	0x2076
 6991 28e0 F2070000 		.4byte	.LLST41
 6992 28e4 3B       		.uleb128 0x3b
 6993 28e5 00000000 		.4byte	.Ldebug_ranges0+0
 6994 28e9 31       		.uleb128 0x31
 6995 28ea 6B00     		.ascii	"k\000"
 6996 28ec 01       		.byte	0x1
 6997 28ed 4F01     		.2byte	0x14f
 6998 28ef 6F090000 		.4byte	0x96f
 6999 28f3 2C080000 		.4byte	.LLST42
 7000 28f7 27       		.uleb128 0x27
 7001 28f8 0C000000 		.4byte	.LVL141
 7002 28fc 3D250000 		.4byte	0x253d
 7003 2900 28       		.uleb128 0x28
 7004 2901 01       		.uleb128 0x1
 7005 2902 50       		.byte	0x50
 7006 2903 03       		.uleb128 0x3
 7007 2904 F3       		.byte	0xf3
 7008 2905 01       		.uleb128 0x1
 7009 2906 50       		.byte	0x50
 7010 2907 00       		.byte	0
 7011 2908 00       		.byte	0
 7012 2909 00       		.byte	0
 7013 290a 3A       		.uleb128 0x3a
 7014 290b 15070000 		.4byte	.LASF622
 7015 290f 01       		.byte	0x1
 7016 2910 5901     		.2byte	0x159
 7017 2912 44290000 		.4byte	0x2944
 7018 2916 00000000 		.4byte	.LFB180
 7019 291a 12000000 		.4byte	.LFE180-.LFB180
 7020 291e 01       		.uleb128 0x1
 7021 291f 9C       		.byte	0x9c
 7022 2920 44290000 		.4byte	0x2944
 7023 2924 26       		.uleb128 0x26
 7024 2925 6500     		.ascii	"e\000"
 7025 2927 01       		.byte	0x1
ARM GAS  C:\Users\haske\AppData\Local\Temp\ccnNTYZ7.s 			page 138


 7026 2928 5901     		.2byte	0x159
 7027 292a 76200000 		.4byte	0x2076
 7028 292e 4A080000 		.4byte	.LLST43
 7029 2932 27       		.uleb128 0x27
 7030 2933 0C000000 		.4byte	.LVL148
 7031 2937 3D250000 		.4byte	0x253d
 7032 293b 28       		.uleb128 0x28
 7033 293c 01       		.uleb128 0x1
 7034 293d 50       		.byte	0x50
 7035 293e 03       		.uleb128 0x3
 7036 293f F3       		.byte	0xf3
 7037 2940 01       		.uleb128 0x1
 7038 2941 50       		.byte	0x50
 7039 2942 00       		.byte	0
 7040 2943 00       		.byte	0
 7041 2944 0B       		.uleb128 0xb
 7042 2945 04       		.byte	0x4
 7043 2946 5C050000 		.4byte	0x55c
 7044 294a 3C       		.uleb128 0x3c
 7045 294b DA1C0000 		.4byte	.LASF623
 7046 294f 01       		.byte	0x1
 7047 2950 6401     		.2byte	0x164
 7048 2952 00000000 		.4byte	.LFB181
 7049 2956 1E000000 		.4byte	.LFE181-.LFB181
 7050 295a 01       		.uleb128 0x1
 7051 295b 9C       		.byte	0x9c
 7052 295c AA290000 		.4byte	0x29aa
 7053 2960 26       		.uleb128 0x26
 7054 2961 6500     		.ascii	"e\000"
 7055 2963 01       		.byte	0x1
 7056 2964 6401     		.2byte	0x164
 7057 2966 76200000 		.4byte	0x2076
 7058 296a 84080000 		.4byte	.LLST44
 7059 296e 3D       		.uleb128 0x3d
 7060 296f 391B0000 		.4byte	.LASF325
 7061 2973 01       		.byte	0x1
 7062 2974 6401     		.2byte	0x164
 7063 2976 01010000 		.4byte	0x101
 7064 297a B0080000 		.4byte	.LLST45
 7065 297e 3E       		.uleb128 0x3e
 7066 297f 0A000000 		.4byte	.LBB4
 7067 2983 14000000 		.4byte	.LBE4-.LBB4
 7068 2987 30       		.uleb128 0x30
 7069 2988 6C1D0000 		.4byte	.LASF624
 7070 298c 01       		.byte	0x1
 7071 298d 6701     		.2byte	0x167
 7072 298f AA290000 		.4byte	0x29aa
 7073 2993 DC080000 		.4byte	.LLST46
 7074 2997 27       		.uleb128 0x27
 7075 2998 0E000000 		.4byte	.LVL152
 7076 299c 3D250000 		.4byte	0x253d
 7077 29a0 28       		.uleb128 0x28
 7078 29a1 01       		.uleb128 0x1
 7079 29a2 50       		.byte	0x50
 7080 29a3 03       		.uleb128 0x3
 7081 29a4 F3       		.byte	0xf3
 7082 29a5 01       		.uleb128 0x1
ARM GAS  C:\Users\haske\AppData\Local\Temp\ccnNTYZ7.s 			page 139


 7083 29a6 50       		.byte	0x50
 7084 29a7 00       		.byte	0
 7085 29a8 00       		.byte	0
 7086 29a9 00       		.byte	0
 7087 29aa 0B       		.uleb128 0xb
 7088 29ab 04       		.byte	0x4
 7089 29ac 01010000 		.4byte	0x101
 7090 29b0 3A       		.uleb128 0x3a
 7091 29b1 320A0000 		.4byte	.LASF625
 7092 29b5 01       		.byte	0x1
 7093 29b6 6F01     		.2byte	0x16f
 7094 29b8 110E0000 		.4byte	0xe11
 7095 29bc 00000000 		.4byte	.LFB182
 7096 29c0 12000000 		.4byte	.LFE182-.LFB182
 7097 29c4 01       		.uleb128 0x1
 7098 29c5 9C       		.byte	0x9c
 7099 29c6 EA290000 		.4byte	0x29ea
 7100 29ca 26       		.uleb128 0x26
 7101 29cb 6500     		.ascii	"e\000"
 7102 29cd 01       		.byte	0x1
 7103 29ce 6F01     		.2byte	0x16f
 7104 29d0 76200000 		.4byte	0x2076
 7105 29d4 EF080000 		.4byte	.LLST47
 7106 29d8 27       		.uleb128 0x27
 7107 29d9 0C000000 		.4byte	.LVL155
 7108 29dd 3D250000 		.4byte	0x253d
 7109 29e1 28       		.uleb128 0x28
 7110 29e2 01       		.uleb128 0x1
 7111 29e3 50       		.byte	0x50
 7112 29e4 03       		.uleb128 0x3
 7113 29e5 F3       		.byte	0xf3
 7114 29e6 01       		.uleb128 0x1
 7115 29e7 50       		.byte	0x50
 7116 29e8 00       		.byte	0
 7117 29e9 00       		.byte	0
 7118 29ea 3A       		.uleb128 0x3a
 7119 29eb 01250000 		.4byte	.LASF626
 7120 29ef 01       		.byte	0x1
 7121 29f0 7A01     		.2byte	0x17a
 7122 29f2 242A0000 		.4byte	0x2a24
 7123 29f6 00000000 		.4byte	.LFB183
 7124 29fa 12000000 		.4byte	.LFE183-.LFB183
 7125 29fe 01       		.uleb128 0x1
 7126 29ff 9C       		.byte	0x9c
 7127 2a00 242A0000 		.4byte	0x2a24
 7128 2a04 26       		.uleb128 0x26
 7129 2a05 6500     		.ascii	"e\000"
 7130 2a07 01       		.byte	0x1
 7131 2a08 7A01     		.2byte	0x17a
 7132 2a0a 76200000 		.4byte	0x2076
 7133 2a0e 29090000 		.4byte	.LLST48
 7134 2a12 27       		.uleb128 0x27
 7135 2a13 0C000000 		.4byte	.LVL159
 7136 2a17 3D250000 		.4byte	0x253d
 7137 2a1b 28       		.uleb128 0x28
 7138 2a1c 01       		.uleb128 0x1
 7139 2a1d 50       		.byte	0x50
ARM GAS  C:\Users\haske\AppData\Local\Temp\ccnNTYZ7.s 			page 140


 7140 2a1e 03       		.uleb128 0x3
 7141 2a1f F3       		.byte	0xf3
 7142 2a20 01       		.uleb128 0x1
 7143 2a21 50       		.byte	0x50
 7144 2a22 00       		.byte	0
 7145 2a23 00       		.byte	0
 7146 2a24 0B       		.uleb128 0xb
 7147 2a25 04       		.byte	0x4
 7148 2a26 9D200000 		.4byte	0x209d
 7149 2a2a 3A       		.uleb128 0x3a
 7150 2a2b 13010000 		.4byte	.LASF627
 7151 2a2f 01       		.byte	0x1
 7152 2a30 8501     		.2byte	0x185
 7153 2a32 7A0E0000 		.4byte	0xe7a
 7154 2a36 00000000 		.4byte	.LFB184
 7155 2a3a 14000000 		.4byte	.LFE184-.LFB184
 7156 2a3e 01       		.uleb128 0x1
 7157 2a3f 9C       		.byte	0x9c
 7158 2a40 7C2A0000 		.4byte	0x2a7c
 7159 2a44 26       		.uleb128 0x26
 7160 2a45 6500     		.ascii	"e\000"
 7161 2a47 01       		.byte	0x1
 7162 2a48 8501     		.2byte	0x185
 7163 2a4a 76200000 		.4byte	0x2076
 7164 2a4e 63090000 		.4byte	.LLST49
 7165 2a52 3E       		.uleb128 0x3e
 7166 2a53 08000000 		.4byte	.LBB5
 7167 2a57 08000000 		.4byte	.LBE5-.LBB5
 7168 2a5b 31       		.uleb128 0x31
 7169 2a5c 7000     		.ascii	"p\000"
 7170 2a5e 01       		.byte	0x1
 7171 2a5f 8801     		.2byte	0x188
 7172 2a61 7C2A0000 		.4byte	0x2a7c
 7173 2a65 9D090000 		.4byte	.LLST50
 7174 2a69 27       		.uleb128 0x27
 7175 2a6a 0C000000 		.4byte	.LVL163
 7176 2a6e 3D250000 		.4byte	0x253d
 7177 2a72 28       		.uleb128 0x28
 7178 2a73 01       		.uleb128 0x1
 7179 2a74 50       		.byte	0x50
 7180 2a75 03       		.uleb128 0x3
 7181 2a76 F3       		.byte	0xf3
 7182 2a77 01       		.uleb128 0x1
 7183 2a78 50       		.byte	0x50
 7184 2a79 00       		.byte	0
 7185 2a7a 00       		.byte	0
 7186 2a7b 00       		.byte	0
 7187 2a7c 0B       		.uleb128 0xb
 7188 2a7d 04       		.byte	0x4
 7189 2a7e C9200000 		.4byte	0x20c9
 7190 2a82 3C       		.uleb128 0x3c
 7191 2a83 A00C0000 		.4byte	.LASF628
 7192 2a87 01       		.byte	0x1
 7193 2a88 9101     		.2byte	0x191
 7194 2a8a 00000000 		.4byte	.LFB185
 7195 2a8e 1A000000 		.4byte	.LFE185-.LFB185
 7196 2a92 01       		.uleb128 0x1
ARM GAS  C:\Users\haske\AppData\Local\Temp\ccnNTYZ7.s 			page 141


 7197 2a93 9C       		.byte	0x9c
 7198 2a94 E02A0000 		.4byte	0x2ae0
 7199 2a98 26       		.uleb128 0x26
 7200 2a99 6500     		.ascii	"e\000"
 7201 2a9b 01       		.byte	0x1
 7202 2a9c 9101     		.2byte	0x191
 7203 2a9e 76200000 		.4byte	0x2076
 7204 2aa2 B0090000 		.4byte	.LLST51
 7205 2aa6 26       		.uleb128 0x26
 7206 2aa7 72657300 		.ascii	"res\000"
 7207 2aab 01       		.byte	0x1
 7208 2aac 9101     		.2byte	0x191
 7209 2aae B31C0000 		.4byte	0x1cb3
 7210 2ab2 DC090000 		.4byte	.LLST52
 7211 2ab6 3E       		.uleb128 0x3e
 7212 2ab7 0A000000 		.4byte	.LBB6
 7213 2abb 10000000 		.4byte	.LBE6-.LBB6
 7214 2abf 31       		.uleb128 0x31
 7215 2ac0 7000     		.ascii	"p\000"
 7216 2ac2 01       		.byte	0x1
 7217 2ac3 9401     		.2byte	0x194
 7218 2ac5 7C2A0000 		.4byte	0x2a7c
 7219 2ac9 080A0000 		.4byte	.LLST53
 7220 2acd 27       		.uleb128 0x27
 7221 2ace 0E000000 		.4byte	.LVL168
 7222 2ad2 3D250000 		.4byte	0x253d
 7223 2ad6 28       		.uleb128 0x28
 7224 2ad7 01       		.uleb128 0x1
 7225 2ad8 50       		.byte	0x50
 7226 2ad9 03       		.uleb128 0x3
 7227 2ada F3       		.byte	0xf3
 7228 2adb 01       		.uleb128 0x1
 7229 2adc 50       		.byte	0x50
 7230 2add 00       		.byte	0
 7231 2ade 00       		.byte	0
 7232 2adf 00       		.byte	0
 7233 2ae0 38       		.uleb128 0x38
 7234 2ae1 24190000 		.4byte	.LASF629
 7235 2ae5 01       		.byte	0x1
 7236 2ae6 25       		.byte	0x25
 7237 2ae7 76200000 		.4byte	0x2076
 7238 2aeb 05       		.uleb128 0x5
 7239 2aec 03       		.byte	0x3
 7240 2aed 00000000 		.4byte	event_head
 7241 2af1 3F       		.uleb128 0x3f
 7242 2af2 6B1F0000 		.4byte	.LASF638
 7243 2af6 06       		.byte	0x6
 7244 2af7 94       		.byte	0x94
 7245 2af8 6F0C0000 		.4byte	0xc6f
 7246 2afc 40       		.uleb128 0x40
 7247 2afd 1E1A0000 		.4byte	.LASF630
 7248 2b01 1E1A0000 		.4byte	.LASF630
 7249 2b05 0E       		.byte	0xe
 7250 2b06 1C01     		.2byte	0x11c
 7251 2b08 41       		.uleb128 0x41
 7252 2b09 540D0000 		.4byte	.LASF631
 7253 2b0d 540D0000 		.4byte	.LASF631
ARM GAS  C:\Users\haske\AppData\Local\Temp\ccnNTYZ7.s 			page 142


 7254 2b11 20       		.byte	0x20
 7255 2b12 32       		.byte	0x32
 7256 2b13 40       		.uleb128 0x40
 7257 2b14 21220000 		.4byte	.LASF632
 7258 2b18 21220000 		.4byte	.LASF632
 7259 2b1c 0E       		.byte	0xe
 7260 2b1d 5001     		.2byte	0x150
 7261 2b1f 41       		.uleb128 0x41
 7262 2b20 3B220000 		.4byte	.LASF633
 7263 2b24 3B220000 		.4byte	.LASF633
 7264 2b28 21       		.byte	0x21
 7265 2b29 59       		.byte	0x59
 7266 2b2a 00       		.byte	0
 7267              		.section	.debug_abbrev,"",%progbits
 7268              	.Ldebug_abbrev0:
 7269 0000 01       		.uleb128 0x1
 7270 0001 11       		.uleb128 0x11
 7271 0002 01       		.byte	0x1
 7272 0003 25       		.uleb128 0x25
 7273 0004 0E       		.uleb128 0xe
 7274 0005 13       		.uleb128 0x13
 7275 0006 0B       		.uleb128 0xb
 7276 0007 03       		.uleb128 0x3
 7277 0008 0E       		.uleb128 0xe
 7278 0009 1B       		.uleb128 0x1b
 7279 000a 0E       		.uleb128 0xe
 7280 000b 55       		.uleb128 0x55
 7281 000c 17       		.uleb128 0x17
 7282 000d 11       		.uleb128 0x11
 7283 000e 01       		.uleb128 0x1
 7284 000f 10       		.uleb128 0x10
 7285 0010 17       		.uleb128 0x17
 7286 0011 00       		.byte	0
 7287 0012 00       		.byte	0
 7288 0013 02       		.uleb128 0x2
 7289 0014 16       		.uleb128 0x16
 7290 0015 00       		.byte	0
 7291 0016 03       		.uleb128 0x3
 7292 0017 0E       		.uleb128 0xe
 7293 0018 3A       		.uleb128 0x3a
 7294 0019 0B       		.uleb128 0xb
 7295 001a 3B       		.uleb128 0x3b
 7296 001b 0B       		.uleb128 0xb
 7297 001c 49       		.uleb128 0x49
 7298 001d 13       		.uleb128 0x13
 7299 001e 00       		.byte	0
 7300 001f 00       		.byte	0
 7301 0020 03       		.uleb128 0x3
 7302 0021 24       		.uleb128 0x24
 7303 0022 00       		.byte	0
 7304 0023 0B       		.uleb128 0xb
 7305 0024 0B       		.uleb128 0xb
 7306 0025 3E       		.uleb128 0x3e
 7307 0026 0B       		.uleb128 0xb
 7308 0027 03       		.uleb128 0x3
 7309 0028 0E       		.uleb128 0xe
 7310 0029 00       		.byte	0
ARM GAS  C:\Users\haske\AppData\Local\Temp\ccnNTYZ7.s 			page 143


 7311 002a 00       		.byte	0
 7312 002b 04       		.uleb128 0x4
 7313 002c 24       		.uleb128 0x24
 7314 002d 00       		.byte	0
 7315 002e 0B       		.uleb128 0xb
 7316 002f 0B       		.uleb128 0xb
 7317 0030 3E       		.uleb128 0x3e
 7318 0031 0B       		.uleb128 0xb
 7319 0032 03       		.uleb128 0x3
 7320 0033 08       		.uleb128 0x8
 7321 0034 00       		.byte	0
 7322 0035 00       		.byte	0
 7323 0036 05       		.uleb128 0x5
 7324 0037 13       		.uleb128 0x13
 7325 0038 01       		.byte	0x1
 7326 0039 0B       		.uleb128 0xb
 7327 003a 0B       		.uleb128 0xb
 7328 003b 3A       		.uleb128 0x3a
 7329 003c 0B       		.uleb128 0xb
 7330 003d 3B       		.uleb128 0x3b
 7331 003e 0B       		.uleb128 0xb
 7332 003f 01       		.uleb128 0x1
 7333 0040 13       		.uleb128 0x13
 7334 0041 00       		.byte	0
 7335 0042 00       		.byte	0
 7336 0043 06       		.uleb128 0x6
 7337 0044 0D       		.uleb128 0xd
 7338 0045 00       		.byte	0
 7339 0046 03       		.uleb128 0x3
 7340 0047 08       		.uleb128 0x8
 7341 0048 3A       		.uleb128 0x3a
 7342 0049 0B       		.uleb128 0xb
 7343 004a 3B       		.uleb128 0x3b
 7344 004b 0B       		.uleb128 0xb
 7345 004c 49       		.uleb128 0x49
 7346 004d 13       		.uleb128 0x13
 7347 004e 38       		.uleb128 0x38
 7348 004f 0B       		.uleb128 0xb
 7349 0050 00       		.byte	0
 7350 0051 00       		.byte	0
 7351 0052 07       		.uleb128 0x7
 7352 0053 0D       		.uleb128 0xd
 7353 0054 00       		.byte	0
 7354 0055 03       		.uleb128 0x3
 7355 0056 0E       		.uleb128 0xe
 7356 0057 3A       		.uleb128 0x3a
 7357 0058 0B       		.uleb128 0xb
 7358 0059 3B       		.uleb128 0x3b
 7359 005a 0B       		.uleb128 0xb
 7360 005b 49       		.uleb128 0x49
 7361 005c 13       		.uleb128 0x13
 7362 005d 38       		.uleb128 0x38
 7363 005e 0B       		.uleb128 0xb
 7364 005f 00       		.byte	0
 7365 0060 00       		.byte	0
 7366 0061 08       		.uleb128 0x8
 7367 0062 0D       		.uleb128 0xd
ARM GAS  C:\Users\haske\AppData\Local\Temp\ccnNTYZ7.s 			page 144


 7368 0063 00       		.byte	0
 7369 0064 03       		.uleb128 0x3
 7370 0065 08       		.uleb128 0x8
 7371 0066 3A       		.uleb128 0x3a
 7372 0067 0B       		.uleb128 0xb
 7373 0068 3B       		.uleb128 0x3b
 7374 0069 0B       		.uleb128 0xb
 7375 006a 49       		.uleb128 0x49
 7376 006b 13       		.uleb128 0x13
 7377 006c 0B       		.uleb128 0xb
 7378 006d 0B       		.uleb128 0xb
 7379 006e 0D       		.uleb128 0xd
 7380 006f 0B       		.uleb128 0xb
 7381 0070 0C       		.uleb128 0xc
 7382 0071 0B       		.uleb128 0xb
 7383 0072 38       		.uleb128 0x38
 7384 0073 0B       		.uleb128 0xb
 7385 0074 00       		.byte	0
 7386 0075 00       		.byte	0
 7387 0076 09       		.uleb128 0x9
 7388 0077 0D       		.uleb128 0xd
 7389 0078 00       		.byte	0
 7390 0079 03       		.uleb128 0x3
 7391 007a 0E       		.uleb128 0xe
 7392 007b 3A       		.uleb128 0x3a
 7393 007c 0B       		.uleb128 0xb
 7394 007d 3B       		.uleb128 0x3b
 7395 007e 0B       		.uleb128 0xb
 7396 007f 49       		.uleb128 0x49
 7397 0080 13       		.uleb128 0x13
 7398 0081 0B       		.uleb128 0xb
 7399 0082 0B       		.uleb128 0xb
 7400 0083 0D       		.uleb128 0xd
 7401 0084 0B       		.uleb128 0xb
 7402 0085 0C       		.uleb128 0xc
 7403 0086 0B       		.uleb128 0xb
 7404 0087 38       		.uleb128 0x38
 7405 0088 0B       		.uleb128 0xb
 7406 0089 00       		.byte	0
 7407 008a 00       		.byte	0
 7408 008b 0A       		.uleb128 0xa
 7409 008c 13       		.uleb128 0x13
 7410 008d 01       		.byte	0x1
 7411 008e 03       		.uleb128 0x3
 7412 008f 0E       		.uleb128 0xe
 7413 0090 0B       		.uleb128 0xb
 7414 0091 0B       		.uleb128 0xb
 7415 0092 3A       		.uleb128 0x3a
 7416 0093 0B       		.uleb128 0xb
 7417 0094 3B       		.uleb128 0x3b
 7418 0095 0B       		.uleb128 0xb
 7419 0096 01       		.uleb128 0x1
 7420 0097 13       		.uleb128 0x13
 7421 0098 00       		.byte	0
 7422 0099 00       		.byte	0
 7423 009a 0B       		.uleb128 0xb
 7424 009b 0F       		.uleb128 0xf
ARM GAS  C:\Users\haske\AppData\Local\Temp\ccnNTYZ7.s 			page 145


 7425 009c 00       		.byte	0
 7426 009d 0B       		.uleb128 0xb
 7427 009e 0B       		.uleb128 0xb
 7428 009f 49       		.uleb128 0x49
 7429 00a0 13       		.uleb128 0x13
 7430 00a1 00       		.byte	0
 7431 00a2 00       		.byte	0
 7432 00a3 0C       		.uleb128 0xc
 7433 00a4 26       		.uleb128 0x26
 7434 00a5 00       		.byte	0
 7435 00a6 49       		.uleb128 0x49
 7436 00a7 13       		.uleb128 0x13
 7437 00a8 00       		.byte	0
 7438 00a9 00       		.byte	0
 7439 00aa 0D       		.uleb128 0xd
 7440 00ab 15       		.uleb128 0x15
 7441 00ac 01       		.byte	0x1
 7442 00ad 27       		.uleb128 0x27
 7443 00ae 19       		.uleb128 0x19
 7444 00af 49       		.uleb128 0x49
 7445 00b0 13       		.uleb128 0x13
 7446 00b1 01       		.uleb128 0x1
 7447 00b2 13       		.uleb128 0x13
 7448 00b3 00       		.byte	0
 7449 00b4 00       		.byte	0
 7450 00b5 0E       		.uleb128 0xe
 7451 00b6 05       		.uleb128 0x5
 7452 00b7 00       		.byte	0
 7453 00b8 49       		.uleb128 0x49
 7454 00b9 13       		.uleb128 0x13
 7455 00ba 00       		.byte	0
 7456 00bb 00       		.byte	0
 7457 00bc 0F       		.uleb128 0xf
 7458 00bd 26       		.uleb128 0x26
 7459 00be 00       		.byte	0
 7460 00bf 00       		.byte	0
 7461 00c0 00       		.byte	0
 7462 00c1 10       		.uleb128 0x10
 7463 00c2 0F       		.uleb128 0xf
 7464 00c3 00       		.byte	0
 7465 00c4 0B       		.uleb128 0xb
 7466 00c5 0B       		.uleb128 0xb
 7467 00c6 00       		.byte	0
 7468 00c7 00       		.byte	0
 7469 00c8 11       		.uleb128 0x11
 7470 00c9 04       		.uleb128 0x4
 7471 00ca 01       		.byte	0x1
 7472 00cb 0B       		.uleb128 0xb
 7473 00cc 0B       		.uleb128 0xb
 7474 00cd 49       		.uleb128 0x49
 7475 00ce 13       		.uleb128 0x13
 7476 00cf 3A       		.uleb128 0x3a
 7477 00d0 0B       		.uleb128 0xb
 7478 00d1 3B       		.uleb128 0x3b
 7479 00d2 0B       		.uleb128 0xb
 7480 00d3 01       		.uleb128 0x1
 7481 00d4 13       		.uleb128 0x13
ARM GAS  C:\Users\haske\AppData\Local\Temp\ccnNTYZ7.s 			page 146


 7482 00d5 00       		.byte	0
 7483 00d6 00       		.byte	0
 7484 00d7 12       		.uleb128 0x12
 7485 00d8 28       		.uleb128 0x28
 7486 00d9 00       		.byte	0
 7487 00da 03       		.uleb128 0x3
 7488 00db 0E       		.uleb128 0xe
 7489 00dc 1C       		.uleb128 0x1c
 7490 00dd 0B       		.uleb128 0xb
 7491 00de 00       		.byte	0
 7492 00df 00       		.byte	0
 7493 00e0 13       		.uleb128 0x13
 7494 00e1 17       		.uleb128 0x17
 7495 00e2 01       		.byte	0x1
 7496 00e3 0B       		.uleb128 0xb
 7497 00e4 0B       		.uleb128 0xb
 7498 00e5 3A       		.uleb128 0x3a
 7499 00e6 0B       		.uleb128 0xb
 7500 00e7 3B       		.uleb128 0x3b
 7501 00e8 0B       		.uleb128 0xb
 7502 00e9 01       		.uleb128 0x1
 7503 00ea 13       		.uleb128 0x13
 7504 00eb 00       		.byte	0
 7505 00ec 00       		.byte	0
 7506 00ed 14       		.uleb128 0x14
 7507 00ee 0D       		.uleb128 0xd
 7508 00ef 00       		.byte	0
 7509 00f0 03       		.uleb128 0x3
 7510 00f1 08       		.uleb128 0x8
 7511 00f2 3A       		.uleb128 0x3a
 7512 00f3 0B       		.uleb128 0xb
 7513 00f4 3B       		.uleb128 0x3b
 7514 00f5 0B       		.uleb128 0xb
 7515 00f6 49       		.uleb128 0x49
 7516 00f7 13       		.uleb128 0x13
 7517 00f8 00       		.byte	0
 7518 00f9 00       		.byte	0
 7519 00fa 15       		.uleb128 0x15
 7520 00fb 0D       		.uleb128 0xd
 7521 00fc 00       		.byte	0
 7522 00fd 03       		.uleb128 0x3
 7523 00fe 0E       		.uleb128 0xe
 7524 00ff 3A       		.uleb128 0x3a
 7525 0100 0B       		.uleb128 0xb
 7526 0101 3B       		.uleb128 0x3b
 7527 0102 0B       		.uleb128 0xb
 7528 0103 49       		.uleb128 0x49
 7529 0104 13       		.uleb128 0x13
 7530 0105 00       		.byte	0
 7531 0106 00       		.byte	0
 7532 0107 16       		.uleb128 0x16
 7533 0108 15       		.uleb128 0x15
 7534 0109 01       		.byte	0x1
 7535 010a 27       		.uleb128 0x27
 7536 010b 19       		.uleb128 0x19
 7537 010c 01       		.uleb128 0x1
 7538 010d 13       		.uleb128 0x13
ARM GAS  C:\Users\haske\AppData\Local\Temp\ccnNTYZ7.s 			page 147


 7539 010e 00       		.byte	0
 7540 010f 00       		.byte	0
 7541 0110 17       		.uleb128 0x17
 7542 0111 01       		.uleb128 0x1
 7543 0112 01       		.byte	0x1
 7544 0113 49       		.uleb128 0x49
 7545 0114 13       		.uleb128 0x13
 7546 0115 01       		.uleb128 0x1
 7547 0116 13       		.uleb128 0x13
 7548 0117 00       		.byte	0
 7549 0118 00       		.byte	0
 7550 0119 18       		.uleb128 0x18
 7551 011a 21       		.uleb128 0x21
 7552 011b 00       		.byte	0
 7553 011c 49       		.uleb128 0x49
 7554 011d 13       		.uleb128 0x13
 7555 011e 2F       		.uleb128 0x2f
 7556 011f 0B       		.uleb128 0xb
 7557 0120 00       		.byte	0
 7558 0121 00       		.byte	0
 7559 0122 19       		.uleb128 0x19
 7560 0123 28       		.uleb128 0x28
 7561 0124 00       		.byte	0
 7562 0125 03       		.uleb128 0x3
 7563 0126 0E       		.uleb128 0xe
 7564 0127 1C       		.uleb128 0x1c
 7565 0128 05       		.uleb128 0x5
 7566 0129 00       		.byte	0
 7567 012a 00       		.byte	0
 7568 012b 1A       		.uleb128 0x1a
 7569 012c 16       		.uleb128 0x16
 7570 012d 00       		.byte	0
 7571 012e 03       		.uleb128 0x3
 7572 012f 0E       		.uleb128 0xe
 7573 0130 3A       		.uleb128 0x3a
 7574 0131 0B       		.uleb128 0xb
 7575 0132 3B       		.uleb128 0x3b
 7576 0133 05       		.uleb128 0x5
 7577 0134 49       		.uleb128 0x49
 7578 0135 13       		.uleb128 0x13
 7579 0136 00       		.byte	0
 7580 0137 00       		.byte	0
 7581 0138 1B       		.uleb128 0x1b
 7582 0139 13       		.uleb128 0x13
 7583 013a 01       		.byte	0x1
 7584 013b 0B       		.uleb128 0xb
 7585 013c 0B       		.uleb128 0xb
 7586 013d 3A       		.uleb128 0x3a
 7587 013e 0B       		.uleb128 0xb
 7588 013f 3B       		.uleb128 0x3b
 7589 0140 05       		.uleb128 0x5
 7590 0141 01       		.uleb128 0x1
 7591 0142 13       		.uleb128 0x13
 7592 0143 00       		.byte	0
 7593 0144 00       		.byte	0
 7594 0145 1C       		.uleb128 0x1c
 7595 0146 0D       		.uleb128 0xd
ARM GAS  C:\Users\haske\AppData\Local\Temp\ccnNTYZ7.s 			page 148


 7596 0147 00       		.byte	0
 7597 0148 03       		.uleb128 0x3
 7598 0149 0E       		.uleb128 0xe
 7599 014a 3A       		.uleb128 0x3a
 7600 014b 0B       		.uleb128 0xb
 7601 014c 3B       		.uleb128 0x3b
 7602 014d 05       		.uleb128 0x5
 7603 014e 49       		.uleb128 0x49
 7604 014f 13       		.uleb128 0x13
 7605 0150 38       		.uleb128 0x38
 7606 0151 0B       		.uleb128 0xb
 7607 0152 00       		.byte	0
 7608 0153 00       		.byte	0
 7609 0154 1D       		.uleb128 0x1d
 7610 0155 17       		.uleb128 0x17
 7611 0156 01       		.byte	0x1
 7612 0157 0B       		.uleb128 0xb
 7613 0158 0B       		.uleb128 0xb
 7614 0159 3A       		.uleb128 0x3a
 7615 015a 0B       		.uleb128 0xb
 7616 015b 3B       		.uleb128 0x3b
 7617 015c 05       		.uleb128 0x5
 7618 015d 01       		.uleb128 0x1
 7619 015e 13       		.uleb128 0x13
 7620 015f 00       		.byte	0
 7621 0160 00       		.byte	0
 7622 0161 1E       		.uleb128 0x1e
 7623 0162 0D       		.uleb128 0xd
 7624 0163 00       		.byte	0
 7625 0164 03       		.uleb128 0x3
 7626 0165 0E       		.uleb128 0xe
 7627 0166 3A       		.uleb128 0x3a
 7628 0167 0B       		.uleb128 0xb
 7629 0168 3B       		.uleb128 0x3b
 7630 0169 05       		.uleb128 0x5
 7631 016a 49       		.uleb128 0x49
 7632 016b 13       		.uleb128 0x13
 7633 016c 00       		.byte	0
 7634 016d 00       		.byte	0
 7635 016e 1F       		.uleb128 0x1f
 7636 016f 0D       		.uleb128 0xd
 7637 0170 00       		.byte	0
 7638 0171 03       		.uleb128 0x3
 7639 0172 08       		.uleb128 0x8
 7640 0173 3A       		.uleb128 0x3a
 7641 0174 0B       		.uleb128 0xb
 7642 0175 3B       		.uleb128 0x3b
 7643 0176 05       		.uleb128 0x5
 7644 0177 49       		.uleb128 0x49
 7645 0178 13       		.uleb128 0x13
 7646 0179 38       		.uleb128 0x38
 7647 017a 0B       		.uleb128 0xb
 7648 017b 00       		.byte	0
 7649 017c 00       		.byte	0
 7650 017d 20       		.uleb128 0x20
 7651 017e 35       		.uleb128 0x35
 7652 017f 00       		.byte	0
ARM GAS  C:\Users\haske\AppData\Local\Temp\ccnNTYZ7.s 			page 149


 7653 0180 49       		.uleb128 0x49
 7654 0181 13       		.uleb128 0x13
 7655 0182 00       		.byte	0
 7656 0183 00       		.byte	0
 7657 0184 21       		.uleb128 0x21
 7658 0185 13       		.uleb128 0x13
 7659 0186 01       		.byte	0x1
 7660 0187 03       		.uleb128 0x3
 7661 0188 0E       		.uleb128 0xe
 7662 0189 0B       		.uleb128 0xb
 7663 018a 05       		.uleb128 0x5
 7664 018b 3A       		.uleb128 0x3a
 7665 018c 0B       		.uleb128 0xb
 7666 018d 3B       		.uleb128 0x3b
 7667 018e 0B       		.uleb128 0xb
 7668 018f 01       		.uleb128 0x1
 7669 0190 13       		.uleb128 0x13
 7670 0191 00       		.byte	0
 7671 0192 00       		.byte	0
 7672 0193 22       		.uleb128 0x22
 7673 0194 0D       		.uleb128 0xd
 7674 0195 00       		.byte	0
 7675 0196 03       		.uleb128 0x3
 7676 0197 0E       		.uleb128 0xe
 7677 0198 3A       		.uleb128 0x3a
 7678 0199 0B       		.uleb128 0xb
 7679 019a 3B       		.uleb128 0x3b
 7680 019b 0B       		.uleb128 0xb
 7681 019c 49       		.uleb128 0x49
 7682 019d 13       		.uleb128 0x13
 7683 019e 38       		.uleb128 0x38
 7684 019f 05       		.uleb128 0x5
 7685 01a0 00       		.byte	0
 7686 01a1 00       		.byte	0
 7687 01a2 23       		.uleb128 0x23
 7688 01a3 13       		.uleb128 0x13
 7689 01a4 00       		.byte	0
 7690 01a5 03       		.uleb128 0x3
 7691 01a6 0E       		.uleb128 0xe
 7692 01a7 3C       		.uleb128 0x3c
 7693 01a8 19       		.uleb128 0x19
 7694 01a9 00       		.byte	0
 7695 01aa 00       		.byte	0
 7696 01ab 24       		.uleb128 0x24
 7697 01ac 28       		.uleb128 0x28
 7698 01ad 00       		.byte	0
 7699 01ae 03       		.uleb128 0x3
 7700 01af 0E       		.uleb128 0xe
 7701 01b0 1C       		.uleb128 0x1c
 7702 01b1 06       		.uleb128 0x6
 7703 01b2 00       		.byte	0
 7704 01b3 00       		.byte	0
 7705 01b4 25       		.uleb128 0x25
 7706 01b5 2E       		.uleb128 0x2e
 7707 01b6 01       		.byte	0x1
 7708 01b7 03       		.uleb128 0x3
 7709 01b8 0E       		.uleb128 0xe
ARM GAS  C:\Users\haske\AppData\Local\Temp\ccnNTYZ7.s 			page 150


 7710 01b9 3A       		.uleb128 0x3a
 7711 01ba 0B       		.uleb128 0xb
 7712 01bb 3B       		.uleb128 0x3b
 7713 01bc 05       		.uleb128 0x5
 7714 01bd 27       		.uleb128 0x27
 7715 01be 19       		.uleb128 0x19
 7716 01bf 49       		.uleb128 0x49
 7717 01c0 13       		.uleb128 0x13
 7718 01c1 11       		.uleb128 0x11
 7719 01c2 01       		.uleb128 0x1
 7720 01c3 12       		.uleb128 0x12
 7721 01c4 06       		.uleb128 0x6
 7722 01c5 40       		.uleb128 0x40
 7723 01c6 18       		.uleb128 0x18
 7724 01c7 9742     		.uleb128 0x2117
 7725 01c9 19       		.uleb128 0x19
 7726 01ca 01       		.uleb128 0x1
 7727 01cb 13       		.uleb128 0x13
 7728 01cc 00       		.byte	0
 7729 01cd 00       		.byte	0
 7730 01ce 26       		.uleb128 0x26
 7731 01cf 05       		.uleb128 0x5
 7732 01d0 00       		.byte	0
 7733 01d1 03       		.uleb128 0x3
 7734 01d2 08       		.uleb128 0x8
 7735 01d3 3A       		.uleb128 0x3a
 7736 01d4 0B       		.uleb128 0xb
 7737 01d5 3B       		.uleb128 0x3b
 7738 01d6 05       		.uleb128 0x5
 7739 01d7 49       		.uleb128 0x49
 7740 01d8 13       		.uleb128 0x13
 7741 01d9 02       		.uleb128 0x2
 7742 01da 17       		.uleb128 0x17
 7743 01db 00       		.byte	0
 7744 01dc 00       		.byte	0
 7745 01dd 27       		.uleb128 0x27
 7746 01de 898201   		.uleb128 0x4109
 7747 01e1 01       		.byte	0x1
 7748 01e2 11       		.uleb128 0x11
 7749 01e3 01       		.uleb128 0x1
 7750 01e4 31       		.uleb128 0x31
 7751 01e5 13       		.uleb128 0x13
 7752 01e6 00       		.byte	0
 7753 01e7 00       		.byte	0
 7754 01e8 28       		.uleb128 0x28
 7755 01e9 8A8201   		.uleb128 0x410a
 7756 01ec 00       		.byte	0
 7757 01ed 02       		.uleb128 0x2
 7758 01ee 18       		.uleb128 0x18
 7759 01ef 9142     		.uleb128 0x2111
 7760 01f1 18       		.uleb128 0x18
 7761 01f2 00       		.byte	0
 7762 01f3 00       		.byte	0
 7763 01f4 29       		.uleb128 0x29
 7764 01f5 2E       		.uleb128 0x2e
 7765 01f6 01       		.byte	0x1
 7766 01f7 3F       		.uleb128 0x3f
ARM GAS  C:\Users\haske\AppData\Local\Temp\ccnNTYZ7.s 			page 151


 7767 01f8 19       		.uleb128 0x19
 7768 01f9 03       		.uleb128 0x3
 7769 01fa 0E       		.uleb128 0xe
 7770 01fb 3A       		.uleb128 0x3a
 7771 01fc 0B       		.uleb128 0xb
 7772 01fd 3B       		.uleb128 0x3b
 7773 01fe 0B       		.uleb128 0xb
 7774 01ff 27       		.uleb128 0x27
 7775 0200 19       		.uleb128 0x19
 7776 0201 49       		.uleb128 0x49
 7777 0202 13       		.uleb128 0x13
 7778 0203 11       		.uleb128 0x11
 7779 0204 01       		.uleb128 0x1
 7780 0205 12       		.uleb128 0x12
 7781 0206 06       		.uleb128 0x6
 7782 0207 40       		.uleb128 0x40
 7783 0208 18       		.uleb128 0x18
 7784 0209 9742     		.uleb128 0x2117
 7785 020b 19       		.uleb128 0x19
 7786 020c 01       		.uleb128 0x1
 7787 020d 13       		.uleb128 0x13
 7788 020e 00       		.byte	0
 7789 020f 00       		.byte	0
 7790 0210 2A       		.uleb128 0x2a
 7791 0211 05       		.uleb128 0x5
 7792 0212 00       		.byte	0
 7793 0213 03       		.uleb128 0x3
 7794 0214 0E       		.uleb128 0xe
 7795 0215 3A       		.uleb128 0x3a
 7796 0216 0B       		.uleb128 0xb
 7797 0217 3B       		.uleb128 0x3b
 7798 0218 0B       		.uleb128 0xb
 7799 0219 49       		.uleb128 0x49
 7800 021a 13       		.uleb128 0x13
 7801 021b 02       		.uleb128 0x2
 7802 021c 17       		.uleb128 0x17
 7803 021d 00       		.byte	0
 7804 021e 00       		.byte	0
 7805 021f 2B       		.uleb128 0x2b
 7806 0220 05       		.uleb128 0x5
 7807 0221 00       		.byte	0
 7808 0222 03       		.uleb128 0x3
 7809 0223 08       		.uleb128 0x8
 7810 0224 3A       		.uleb128 0x3a
 7811 0225 0B       		.uleb128 0xb
 7812 0226 3B       		.uleb128 0x3b
 7813 0227 0B       		.uleb128 0xb
 7814 0228 49       		.uleb128 0x49
 7815 0229 13       		.uleb128 0x13
 7816 022a 02       		.uleb128 0x2
 7817 022b 17       		.uleb128 0x17
 7818 022c 00       		.byte	0
 7819 022d 00       		.byte	0
 7820 022e 2C       		.uleb128 0x2c
 7821 022f 34       		.uleb128 0x34
 7822 0230 00       		.byte	0
 7823 0231 03       		.uleb128 0x3
ARM GAS  C:\Users\haske\AppData\Local\Temp\ccnNTYZ7.s 			page 152


 7824 0232 0E       		.uleb128 0xe
 7825 0233 3A       		.uleb128 0x3a
 7826 0234 0B       		.uleb128 0xb
 7827 0235 3B       		.uleb128 0x3b
 7828 0236 0B       		.uleb128 0xb
 7829 0237 49       		.uleb128 0x49
 7830 0238 13       		.uleb128 0x13
 7831 0239 02       		.uleb128 0x2
 7832 023a 17       		.uleb128 0x17
 7833 023b 00       		.byte	0
 7834 023c 00       		.byte	0
 7835 023d 2D       		.uleb128 0x2d
 7836 023e 34       		.uleb128 0x34
 7837 023f 00       		.byte	0
 7838 0240 03       		.uleb128 0x3
 7839 0241 08       		.uleb128 0x8
 7840 0242 3A       		.uleb128 0x3a
 7841 0243 0B       		.uleb128 0xb
 7842 0244 3B       		.uleb128 0x3b
 7843 0245 0B       		.uleb128 0xb
 7844 0246 49       		.uleb128 0x49
 7845 0247 13       		.uleb128 0x13
 7846 0248 02       		.uleb128 0x2
 7847 0249 17       		.uleb128 0x17
 7848 024a 00       		.byte	0
 7849 024b 00       		.byte	0
 7850 024c 2E       		.uleb128 0x2e
 7851 024d 898201   		.uleb128 0x4109
 7852 0250 01       		.byte	0x1
 7853 0251 11       		.uleb128 0x11
 7854 0252 01       		.uleb128 0x1
 7855 0253 00       		.byte	0
 7856 0254 00       		.byte	0
 7857 0255 2F       		.uleb128 0x2f
 7858 0256 2E       		.uleb128 0x2e
 7859 0257 01       		.byte	0x1
 7860 0258 03       		.uleb128 0x3
 7861 0259 0E       		.uleb128 0xe
 7862 025a 3A       		.uleb128 0x3a
 7863 025b 0B       		.uleb128 0xb
 7864 025c 3B       		.uleb128 0x3b
 7865 025d 05       		.uleb128 0x5
 7866 025e 27       		.uleb128 0x27
 7867 025f 19       		.uleb128 0x19
 7868 0260 49       		.uleb128 0x49
 7869 0261 13       		.uleb128 0x13
 7870 0262 11       		.uleb128 0x11
 7871 0263 01       		.uleb128 0x1
 7872 0264 12       		.uleb128 0x12
 7873 0265 06       		.uleb128 0x6
 7874 0266 40       		.uleb128 0x40
 7875 0267 18       		.uleb128 0x18
 7876 0268 9642     		.uleb128 0x2116
 7877 026a 19       		.uleb128 0x19
 7878 026b 01       		.uleb128 0x1
 7879 026c 13       		.uleb128 0x13
 7880 026d 00       		.byte	0
ARM GAS  C:\Users\haske\AppData\Local\Temp\ccnNTYZ7.s 			page 153


 7881 026e 00       		.byte	0
 7882 026f 30       		.uleb128 0x30
 7883 0270 34       		.uleb128 0x34
 7884 0271 00       		.byte	0
 7885 0272 03       		.uleb128 0x3
 7886 0273 0E       		.uleb128 0xe
 7887 0274 3A       		.uleb128 0x3a
 7888 0275 0B       		.uleb128 0xb
 7889 0276 3B       		.uleb128 0x3b
 7890 0277 05       		.uleb128 0x5
 7891 0278 49       		.uleb128 0x49
 7892 0279 13       		.uleb128 0x13
 7893 027a 02       		.uleb128 0x2
 7894 027b 17       		.uleb128 0x17
 7895 027c 00       		.byte	0
 7896 027d 00       		.byte	0
 7897 027e 31       		.uleb128 0x31
 7898 027f 34       		.uleb128 0x34
 7899 0280 00       		.byte	0
 7900 0281 03       		.uleb128 0x3
 7901 0282 08       		.uleb128 0x8
 7902 0283 3A       		.uleb128 0x3a
 7903 0284 0B       		.uleb128 0xb
 7904 0285 3B       		.uleb128 0x3b
 7905 0286 05       		.uleb128 0x5
 7906 0287 49       		.uleb128 0x49
 7907 0288 13       		.uleb128 0x13
 7908 0289 02       		.uleb128 0x2
 7909 028a 17       		.uleb128 0x17
 7910 028b 00       		.byte	0
 7911 028c 00       		.byte	0
 7912 028d 32       		.uleb128 0x32
 7913 028e 898201   		.uleb128 0x4109
 7914 0291 00       		.byte	0
 7915 0292 11       		.uleb128 0x11
 7916 0293 01       		.uleb128 0x1
 7917 0294 31       		.uleb128 0x31
 7918 0295 13       		.uleb128 0x13
 7919 0296 00       		.byte	0
 7920 0297 00       		.byte	0
 7921 0298 33       		.uleb128 0x33
 7922 0299 898201   		.uleb128 0x4109
 7923 029c 01       		.byte	0x1
 7924 029d 11       		.uleb128 0x11
 7925 029e 01       		.uleb128 0x1
 7926 029f 31       		.uleb128 0x31
 7927 02a0 13       		.uleb128 0x13
 7928 02a1 01       		.uleb128 0x1
 7929 02a2 13       		.uleb128 0x13
 7930 02a3 00       		.byte	0
 7931 02a4 00       		.byte	0
 7932 02a5 34       		.uleb128 0x34
 7933 02a6 898201   		.uleb128 0x4109
 7934 02a9 01       		.byte	0x1
 7935 02aa 11       		.uleb128 0x11
 7936 02ab 01       		.uleb128 0x1
 7937 02ac 01       		.uleb128 0x1
ARM GAS  C:\Users\haske\AppData\Local\Temp\ccnNTYZ7.s 			page 154


 7938 02ad 13       		.uleb128 0x13
 7939 02ae 00       		.byte	0
 7940 02af 00       		.byte	0
 7941 02b0 35       		.uleb128 0x35
 7942 02b1 34       		.uleb128 0x34
 7943 02b2 00       		.byte	0
 7944 02b3 03       		.uleb128 0x3
 7945 02b4 08       		.uleb128 0x8
 7946 02b5 3A       		.uleb128 0x3a
 7947 02b6 0B       		.uleb128 0xb
 7948 02b7 3B       		.uleb128 0x3b
 7949 02b8 0B       		.uleb128 0xb
 7950 02b9 49       		.uleb128 0x49
 7951 02ba 13       		.uleb128 0x13
 7952 02bb 02       		.uleb128 0x2
 7953 02bc 18       		.uleb128 0x18
 7954 02bd 00       		.byte	0
 7955 02be 00       		.byte	0
 7956 02bf 36       		.uleb128 0x36
 7957 02c0 2E       		.uleb128 0x2e
 7958 02c1 01       		.byte	0x1
 7959 02c2 3F       		.uleb128 0x3f
 7960 02c3 19       		.uleb128 0x19
 7961 02c4 03       		.uleb128 0x3
 7962 02c5 0E       		.uleb128 0xe
 7963 02c6 3A       		.uleb128 0x3a
 7964 02c7 0B       		.uleb128 0xb
 7965 02c8 3B       		.uleb128 0x3b
 7966 02c9 0B       		.uleb128 0xb
 7967 02ca 27       		.uleb128 0x27
 7968 02cb 19       		.uleb128 0x19
 7969 02cc 11       		.uleb128 0x11
 7970 02cd 01       		.uleb128 0x1
 7971 02ce 12       		.uleb128 0x12
 7972 02cf 06       		.uleb128 0x6
 7973 02d0 40       		.uleb128 0x40
 7974 02d1 18       		.uleb128 0x18
 7975 02d2 9742     		.uleb128 0x2117
 7976 02d4 19       		.uleb128 0x19
 7977 02d5 01       		.uleb128 0x1
 7978 02d6 13       		.uleb128 0x13
 7979 02d7 00       		.byte	0
 7980 02d8 00       		.byte	0
 7981 02d9 37       		.uleb128 0x37
 7982 02da 05       		.uleb128 0x5
 7983 02db 00       		.byte	0
 7984 02dc 03       		.uleb128 0x3
 7985 02dd 08       		.uleb128 0x8
 7986 02de 3A       		.uleb128 0x3a
 7987 02df 0B       		.uleb128 0xb
 7988 02e0 3B       		.uleb128 0x3b
 7989 02e1 0B       		.uleb128 0xb
 7990 02e2 49       		.uleb128 0x49
 7991 02e3 13       		.uleb128 0x13
 7992 02e4 02       		.uleb128 0x2
 7993 02e5 18       		.uleb128 0x18
 7994 02e6 00       		.byte	0
ARM GAS  C:\Users\haske\AppData\Local\Temp\ccnNTYZ7.s 			page 155


 7995 02e7 00       		.byte	0
 7996 02e8 38       		.uleb128 0x38
 7997 02e9 34       		.uleb128 0x34
 7998 02ea 00       		.byte	0
 7999 02eb 03       		.uleb128 0x3
 8000 02ec 0E       		.uleb128 0xe
 8001 02ed 3A       		.uleb128 0x3a
 8002 02ee 0B       		.uleb128 0xb
 8003 02ef 3B       		.uleb128 0x3b
 8004 02f0 0B       		.uleb128 0xb
 8005 02f1 49       		.uleb128 0x49
 8006 02f2 13       		.uleb128 0x13
 8007 02f3 02       		.uleb128 0x2
 8008 02f4 18       		.uleb128 0x18
 8009 02f5 00       		.byte	0
 8010 02f6 00       		.byte	0
 8011 02f7 39       		.uleb128 0x39
 8012 02f8 05       		.uleb128 0x5
 8013 02f9 00       		.byte	0
 8014 02fa 03       		.uleb128 0x3
 8015 02fb 0E       		.uleb128 0xe
 8016 02fc 3A       		.uleb128 0x3a
 8017 02fd 0B       		.uleb128 0xb
 8018 02fe 3B       		.uleb128 0x3b
 8019 02ff 0B       		.uleb128 0xb
 8020 0300 49       		.uleb128 0x49
 8021 0301 13       		.uleb128 0x13
 8022 0302 02       		.uleb128 0x2
 8023 0303 18       		.uleb128 0x18
 8024 0304 00       		.byte	0
 8025 0305 00       		.byte	0
 8026 0306 3A       		.uleb128 0x3a
 8027 0307 2E       		.uleb128 0x2e
 8028 0308 01       		.byte	0x1
 8029 0309 3F       		.uleb128 0x3f
 8030 030a 19       		.uleb128 0x19
 8031 030b 03       		.uleb128 0x3
 8032 030c 0E       		.uleb128 0xe
 8033 030d 3A       		.uleb128 0x3a
 8034 030e 0B       		.uleb128 0xb
 8035 030f 3B       		.uleb128 0x3b
 8036 0310 05       		.uleb128 0x5
 8037 0311 27       		.uleb128 0x27
 8038 0312 19       		.uleb128 0x19
 8039 0313 49       		.uleb128 0x49
 8040 0314 13       		.uleb128 0x13
 8041 0315 11       		.uleb128 0x11
 8042 0316 01       		.uleb128 0x1
 8043 0317 12       		.uleb128 0x12
 8044 0318 06       		.uleb128 0x6
 8045 0319 40       		.uleb128 0x40
 8046 031a 18       		.uleb128 0x18
 8047 031b 9742     		.uleb128 0x2117
 8048 031d 19       		.uleb128 0x19
 8049 031e 01       		.uleb128 0x1
 8050 031f 13       		.uleb128 0x13
 8051 0320 00       		.byte	0
ARM GAS  C:\Users\haske\AppData\Local\Temp\ccnNTYZ7.s 			page 156


 8052 0321 00       		.byte	0
 8053 0322 3B       		.uleb128 0x3b
 8054 0323 0B       		.uleb128 0xb
 8055 0324 01       		.byte	0x1
 8056 0325 55       		.uleb128 0x55
 8057 0326 17       		.uleb128 0x17
 8058 0327 00       		.byte	0
 8059 0328 00       		.byte	0
 8060 0329 3C       		.uleb128 0x3c
 8061 032a 2E       		.uleb128 0x2e
 8062 032b 01       		.byte	0x1
 8063 032c 3F       		.uleb128 0x3f
 8064 032d 19       		.uleb128 0x19
 8065 032e 03       		.uleb128 0x3
 8066 032f 0E       		.uleb128 0xe
 8067 0330 3A       		.uleb128 0x3a
 8068 0331 0B       		.uleb128 0xb
 8069 0332 3B       		.uleb128 0x3b
 8070 0333 05       		.uleb128 0x5
 8071 0334 27       		.uleb128 0x27
 8072 0335 19       		.uleb128 0x19
 8073 0336 11       		.uleb128 0x11
 8074 0337 01       		.uleb128 0x1
 8075 0338 12       		.uleb128 0x12
 8076 0339 06       		.uleb128 0x6
 8077 033a 40       		.uleb128 0x40
 8078 033b 18       		.uleb128 0x18
 8079 033c 9742     		.uleb128 0x2117
 8080 033e 19       		.uleb128 0x19
 8081 033f 01       		.uleb128 0x1
 8082 0340 13       		.uleb128 0x13
 8083 0341 00       		.byte	0
 8084 0342 00       		.byte	0
 8085 0343 3D       		.uleb128 0x3d
 8086 0344 05       		.uleb128 0x5
 8087 0345 00       		.byte	0
 8088 0346 03       		.uleb128 0x3
 8089 0347 0E       		.uleb128 0xe
 8090 0348 3A       		.uleb128 0x3a
 8091 0349 0B       		.uleb128 0xb
 8092 034a 3B       		.uleb128 0x3b
 8093 034b 05       		.uleb128 0x5
 8094 034c 49       		.uleb128 0x49
 8095 034d 13       		.uleb128 0x13
 8096 034e 02       		.uleb128 0x2
 8097 034f 17       		.uleb128 0x17
 8098 0350 00       		.byte	0
 8099 0351 00       		.byte	0
 8100 0352 3E       		.uleb128 0x3e
 8101 0353 0B       		.uleb128 0xb
 8102 0354 01       		.byte	0x1
 8103 0355 11       		.uleb128 0x11
 8104 0356 01       		.uleb128 0x1
 8105 0357 12       		.uleb128 0x12
 8106 0358 06       		.uleb128 0x6
 8107 0359 00       		.byte	0
 8108 035a 00       		.byte	0
ARM GAS  C:\Users\haske\AppData\Local\Temp\ccnNTYZ7.s 			page 157


 8109 035b 3F       		.uleb128 0x3f
 8110 035c 34       		.uleb128 0x34
 8111 035d 00       		.byte	0
 8112 035e 03       		.uleb128 0x3
 8113 035f 0E       		.uleb128 0xe
 8114 0360 3A       		.uleb128 0x3a
 8115 0361 0B       		.uleb128 0xb
 8116 0362 3B       		.uleb128 0x3b
 8117 0363 0B       		.uleb128 0xb
 8118 0364 49       		.uleb128 0x49
 8119 0365 13       		.uleb128 0x13
 8120 0366 3F       		.uleb128 0x3f
 8121 0367 19       		.uleb128 0x19
 8122 0368 3C       		.uleb128 0x3c
 8123 0369 19       		.uleb128 0x19
 8124 036a 00       		.byte	0
 8125 036b 00       		.byte	0
 8126 036c 40       		.uleb128 0x40
 8127 036d 2E       		.uleb128 0x2e
 8128 036e 00       		.byte	0
 8129 036f 3F       		.uleb128 0x3f
 8130 0370 19       		.uleb128 0x19
 8131 0371 3C       		.uleb128 0x3c
 8132 0372 19       		.uleb128 0x19
 8133 0373 6E       		.uleb128 0x6e
 8134 0374 0E       		.uleb128 0xe
 8135 0375 03       		.uleb128 0x3
 8136 0376 0E       		.uleb128 0xe
 8137 0377 3A       		.uleb128 0x3a
 8138 0378 0B       		.uleb128 0xb
 8139 0379 3B       		.uleb128 0x3b
 8140 037a 05       		.uleb128 0x5
 8141 037b 00       		.byte	0
 8142 037c 00       		.byte	0
 8143 037d 41       		.uleb128 0x41
 8144 037e 2E       		.uleb128 0x2e
 8145 037f 00       		.byte	0
 8146 0380 3F       		.uleb128 0x3f
 8147 0381 19       		.uleb128 0x19
 8148 0382 3C       		.uleb128 0x3c
 8149 0383 19       		.uleb128 0x19
 8150 0384 6E       		.uleb128 0x6e
 8151 0385 0E       		.uleb128 0xe
 8152 0386 03       		.uleb128 0x3
 8153 0387 0E       		.uleb128 0xe
 8154 0388 3A       		.uleb128 0x3a
 8155 0389 0B       		.uleb128 0xb
 8156 038a 3B       		.uleb128 0x3b
 8157 038b 0B       		.uleb128 0xb
 8158 038c 00       		.byte	0
 8159 038d 00       		.byte	0
 8160 038e 00       		.byte	0
 8161              		.section	.debug_loc,"",%progbits
 8162              	.Ldebug_loc0:
 8163              	.LLST0:
 8164 0000 00000000 		.4byte	.LVL0
 8165 0004 10000000 		.4byte	.LVL1
ARM GAS  C:\Users\haske\AppData\Local\Temp\ccnNTYZ7.s 			page 158


 8166 0008 0100     		.2byte	0x1
 8167 000a 50       		.byte	0x50
 8168 000b 10000000 		.4byte	.LVL1
 8169 000f 1A000000 		.4byte	.LVL3
 8170 0013 0400     		.2byte	0x4
 8171 0015 F3       		.byte	0xf3
 8172 0016 01       		.uleb128 0x1
 8173 0017 50       		.byte	0x50
 8174 0018 9F       		.byte	0x9f
 8175 0019 1A000000 		.4byte	.LVL3
 8176 001d 1C000000 		.4byte	.LVL4
 8177 0021 0100     		.2byte	0x1
 8178 0023 50       		.byte	0x50
 8179 0024 1C000000 		.4byte	.LVL4
 8180 0028 1E000000 		.4byte	.LVL5
 8181 002c 0400     		.2byte	0x4
 8182 002e F3       		.byte	0xf3
 8183 002f 01       		.uleb128 0x1
 8184 0030 50       		.byte	0x50
 8185 0031 9F       		.byte	0x9f
 8186 0032 1E000000 		.4byte	.LVL5
 8187 0036 20000000 		.4byte	.LVL6
 8188 003a 0100     		.2byte	0x1
 8189 003c 50       		.byte	0x50
 8190 003d 20000000 		.4byte	.LVL6
 8191 0041 22000000 		.4byte	.LFE186
 8192 0045 0400     		.2byte	0x4
 8193 0047 F3       		.byte	0xf3
 8194 0048 01       		.uleb128 0x1
 8195 0049 50       		.byte	0x50
 8196 004a 9F       		.byte	0x9f
 8197 004b 00000000 		.4byte	0
 8198 004f 00000000 		.4byte	0
 8199              	.LLST1:
 8200 0053 00000000 		.4byte	.LVL0
 8201 0057 14000000 		.4byte	.LVL2
 8202 005b 0100     		.2byte	0x1
 8203 005d 51       		.byte	0x51
 8204 005e 14000000 		.4byte	.LVL2
 8205 0062 1A000000 		.4byte	.LVL3
 8206 0066 0400     		.2byte	0x4
 8207 0068 F3       		.byte	0xf3
 8208 0069 01       		.uleb128 0x1
 8209 006a 51       		.byte	0x51
 8210 006b 9F       		.byte	0x9f
 8211 006c 1A000000 		.4byte	.LVL3
 8212 0070 22000000 		.4byte	.LFE186
 8213 0074 0100     		.2byte	0x1
 8214 0076 51       		.byte	0x51
 8215 0077 00000000 		.4byte	0
 8216 007b 00000000 		.4byte	0
 8217              	.LLST2:
 8218 007f 00000000 		.4byte	.LVL7
 8219 0083 1A000000 		.4byte	.LVL8
 8220 0087 0100     		.2byte	0x1
 8221 0089 50       		.byte	0x50
 8222 008a 1A000000 		.4byte	.LVL8
ARM GAS  C:\Users\haske\AppData\Local\Temp\ccnNTYZ7.s 			page 159


 8223 008e 4E000000 		.4byte	.LVL10
 8224 0092 0100     		.2byte	0x1
 8225 0094 54       		.byte	0x54
 8226 0095 4E000000 		.4byte	.LVL10
 8227 0099 56000000 		.4byte	.LVL11
 8228 009d 0100     		.2byte	0x1
 8229 009f 50       		.byte	0x50
 8230 00a0 56000000 		.4byte	.LVL11
 8231 00a4 58000000 		.4byte	.LVL12
 8232 00a8 0400     		.2byte	0x4
 8233 00aa F3       		.byte	0xf3
 8234 00ab 01       		.uleb128 0x1
 8235 00ac 50       		.byte	0x50
 8236 00ad 9F       		.byte	0x9f
 8237 00ae 58000000 		.4byte	.LVL12
 8238 00b2 5C000000 		.4byte	.LFE188
 8239 00b6 0100     		.2byte	0x1
 8240 00b8 54       		.byte	0x54
 8241 00b9 00000000 		.4byte	0
 8242 00bd 00000000 		.4byte	0
 8243              	.LLST3:
 8244 00c1 00000000 		.4byte	.LVL13
 8245 00c5 06000000 		.4byte	.LVL14
 8246 00c9 0100     		.2byte	0x1
 8247 00cb 50       		.byte	0x50
 8248 00cc 06000000 		.4byte	.LVL14
 8249 00d0 08000000 		.4byte	.LVL15
 8250 00d4 0400     		.2byte	0x4
 8251 00d6 F3       		.byte	0xf3
 8252 00d7 01       		.uleb128 0x1
 8253 00d8 50       		.byte	0x50
 8254 00d9 9F       		.byte	0x9f
 8255 00da 08000000 		.4byte	.LVL15
 8256 00de 0A000000 		.4byte	.LVL16
 8257 00e2 0100     		.2byte	0x1
 8258 00e4 50       		.byte	0x50
 8259 00e5 0A000000 		.4byte	.LVL16
 8260 00e9 40000000 		.4byte	.LFE160
 8261 00ed 0400     		.2byte	0x4
 8262 00ef F3       		.byte	0xf3
 8263 00f0 01       		.uleb128 0x1
 8264 00f1 50       		.byte	0x50
 8265 00f2 9F       		.byte	0x9f
 8266 00f3 00000000 		.4byte	0
 8267 00f7 00000000 		.4byte	0
 8268              	.LLST4:
 8269 00fb 00000000 		.4byte	.LVL13
 8270 00ff 27000000 		.4byte	.LVL18-1
 8271 0103 0100     		.2byte	0x1
 8272 0105 51       		.byte	0x51
 8273 0106 27000000 		.4byte	.LVL18-1
 8274 010a 34000000 		.4byte	.LVL19
 8275 010e 0100     		.2byte	0x1
 8276 0110 54       		.byte	0x54
 8277 0111 34000000 		.4byte	.LVL19
 8278 0115 3C000000 		.4byte	.LVL23
 8279 0119 0100     		.2byte	0x1
ARM GAS  C:\Users\haske\AppData\Local\Temp\ccnNTYZ7.s 			page 160


 8280 011b 51       		.byte	0x51
 8281 011c 3C000000 		.4byte	.LVL23
 8282 0120 40000000 		.4byte	.LFE160
 8283 0124 0100     		.2byte	0x1
 8284 0126 54       		.byte	0x54
 8285 0127 00000000 		.4byte	0
 8286 012b 00000000 		.4byte	0
 8287              	.LLST5:
 8288 012f 06000000 		.4byte	.LVL14
 8289 0133 08000000 		.4byte	.LVL15
 8290 0137 0100     		.2byte	0x1
 8291 0139 50       		.byte	0x50
 8292 013a 0A000000 		.4byte	.LVL16
 8293 013e 27000000 		.4byte	.LVL18-1
 8294 0142 0100     		.2byte	0x1
 8295 0144 50       		.byte	0x50
 8296 0145 34000000 		.4byte	.LVL19
 8297 0149 36000000 		.4byte	.LVL20
 8298 014d 0100     		.2byte	0x1
 8299 014f 50       		.byte	0x50
 8300 0150 38000000 		.4byte	.LVL21
 8301 0154 3A000000 		.4byte	.LVL22
 8302 0158 0100     		.2byte	0x1
 8303 015a 50       		.byte	0x50
 8304 015b 00000000 		.4byte	0
 8305 015f 00000000 		.4byte	0
 8306              	.LLST6:
 8307 0163 28000000 		.4byte	.LVL18
 8308 0167 34000000 		.4byte	.LVL19
 8309 016b 0200     		.2byte	0x2
 8310 016d 31       		.byte	0x31
 8311 016e 9F       		.byte	0x9f
 8312 016f 3C000000 		.4byte	.LVL23
 8313 0173 40000000 		.4byte	.LFE160
 8314 0177 0200     		.2byte	0x2
 8315 0179 31       		.byte	0x31
 8316 017a 9F       		.byte	0x9f
 8317 017b 00000000 		.4byte	0
 8318 017f 00000000 		.4byte	0
 8319              	.LLST7:
 8320 0183 00000000 		.4byte	.LVL24
 8321 0187 07000000 		.4byte	.LVL25-1
 8322 018b 0100     		.2byte	0x1
 8323 018d 50       		.byte	0x50
 8324 018e 07000000 		.4byte	.LVL25-1
 8325 0192 18010000 		.4byte	.LFE187
 8326 0196 0100     		.2byte	0x1
 8327 0198 56       		.byte	0x56
 8328 0199 00000000 		.4byte	0
 8329 019d 00000000 		.4byte	0
 8330              	.LLST8:
 8331 01a1 08000000 		.4byte	.LVL25
 8332 01a5 0C000000 		.4byte	.LVL26
 8333 01a9 0100     		.2byte	0x1
 8334 01ab 50       		.byte	0x50
 8335 01ac 00000000 		.4byte	0
 8336 01b0 00000000 		.4byte	0
ARM GAS  C:\Users\haske\AppData\Local\Temp\ccnNTYZ7.s 			page 161


 8337              	.LLST9:
 8338 01b4 28000000 		.4byte	.LVL28
 8339 01b8 86000000 		.4byte	.LVL38
 8340 01bc 0200     		.2byte	0x2
 8341 01be 31       		.byte	0x31
 8342 01bf 9F       		.byte	0x9f
 8343 01c0 86000000 		.4byte	.LVL38
 8344 01c4 8E000000 		.4byte	.LVL39
 8345 01c8 0100     		.2byte	0x1
 8346 01ca 50       		.byte	0x50
 8347 01cb F8000000 		.4byte	.LVL49
 8348 01cf FE000000 		.4byte	.LVL50
 8349 01d3 0100     		.2byte	0x1
 8350 01d5 50       		.byte	0x50
 8351 01d6 04010000 		.4byte	.LVL52
 8352 01da 08010000 		.4byte	.LVL53
 8353 01de 0200     		.2byte	0x2
 8354 01e0 31       		.byte	0x31
 8355 01e1 9F       		.byte	0x9f
 8356 01e2 00000000 		.4byte	0
 8357 01e6 00000000 		.4byte	0
 8358              	.LLST10:
 8359 01ea 32000000 		.4byte	.LVL30
 8360 01ee 58000000 		.4byte	.LVL32
 8361 01f2 0100     		.2byte	0x1
 8362 01f4 50       		.byte	0x50
 8363 01f5 58000000 		.4byte	.LVL32
 8364 01f9 7A000000 		.4byte	.LVL36
 8365 01fd 0100     		.2byte	0x1
 8366 01ff 54       		.byte	0x54
 8367 0200 7A000000 		.4byte	.LVL36
 8368 0204 82000000 		.4byte	.LVL37
 8369 0208 0100     		.2byte	0x1
 8370 020a 50       		.byte	0x50
 8371 020b 82000000 		.4byte	.LVL37
 8372 020f 94000000 		.4byte	.LVL41
 8373 0213 0100     		.2byte	0x1
 8374 0215 54       		.byte	0x54
 8375 0216 98000000 		.4byte	.LVL43
 8376 021a 00010000 		.4byte	.LVL51
 8377 021e 0100     		.2byte	0x1
 8378 0220 54       		.byte	0x54
 8379 0221 04010000 		.4byte	.LVL52
 8380 0225 16010000 		.4byte	.LVL57
 8381 0229 0100     		.2byte	0x1
 8382 022b 54       		.byte	0x54
 8383 022c 00000000 		.4byte	0
 8384 0230 00000000 		.4byte	0
 8385              	.LLST11:
 8386 0234 32000000 		.4byte	.LVL30
 8387 0238 36000000 		.4byte	.LVL31
 8388 023c 0200     		.2byte	0x2
 8389 023e 30       		.byte	0x30
 8390 023f 9F       		.byte	0x9f
 8391 0240 36000000 		.4byte	.LVL31
 8392 0244 96000000 		.4byte	.LVL42
 8393 0248 0100     		.2byte	0x1
ARM GAS  C:\Users\haske\AppData\Local\Temp\ccnNTYZ7.s 			page 162


 8394 024a 55       		.byte	0x55
 8395 024b 98000000 		.4byte	.LVL43
 8396 024f 00010000 		.4byte	.LVL51
 8397 0253 0100     		.2byte	0x1
 8398 0255 55       		.byte	0x55
 8399 0256 04010000 		.4byte	.LVL52
 8400 025a 16010000 		.4byte	.LVL57
 8401 025e 0100     		.2byte	0x1
 8402 0260 55       		.byte	0x55
 8403 0261 00000000 		.4byte	0
 8404 0265 00000000 		.4byte	0
 8405              	.LLST12:
 8406 0269 00000000 		.4byte	.LVL58
 8407 026d 2C000000 		.4byte	.LVL60
 8408 0271 0100     		.2byte	0x1
 8409 0273 50       		.byte	0x50
 8410 0274 2C000000 		.4byte	.LVL60
 8411 0278 31000000 		.4byte	.LVL61-1
 8412 027c 0200     		.2byte	0x2
 8413 027e 70       		.byte	0x70
 8414 027f 00       		.sleb128 0
 8415 0280 31000000 		.4byte	.LVL61-1
 8416 0284 38000000 		.4byte	.LVL62
 8417 0288 0400     		.2byte	0x4
 8418 028a F3       		.byte	0xf3
 8419 028b 01       		.uleb128 0x1
 8420 028c 50       		.byte	0x50
 8421 028d 9F       		.byte	0x9f
 8422 028e 38000000 		.4byte	.LVL62
 8423 0292 3A000000 		.4byte	.LVL63
 8424 0296 0100     		.2byte	0x1
 8425 0298 50       		.byte	0x50
 8426 0299 3A000000 		.4byte	.LVL63
 8427 029d 44000000 		.4byte	.LFE159
 8428 02a1 0400     		.2byte	0x4
 8429 02a3 F3       		.byte	0xf3
 8430 02a4 01       		.uleb128 0x1
 8431 02a5 50       		.byte	0x50
 8432 02a6 9F       		.byte	0x9f
 8433 02a7 00000000 		.4byte	0
 8434 02ab 00000000 		.4byte	0
 8435              	.LLST13:
 8436 02af 00000000 		.4byte	.LVL58
 8437 02b3 10000000 		.4byte	.LVL59
 8438 02b7 0100     		.2byte	0x1
 8439 02b9 51       		.byte	0x51
 8440 02ba 10000000 		.4byte	.LVL59
 8441 02be 31000000 		.4byte	.LVL61-1
 8442 02c2 0200     		.2byte	0x2
 8443 02c4 91       		.byte	0x91
 8444 02c5 64       		.sleb128 -28
 8445 02c6 31000000 		.4byte	.LVL61-1
 8446 02ca 38000000 		.4byte	.LVL62
 8447 02ce 0400     		.2byte	0x4
 8448 02d0 F3       		.byte	0xf3
 8449 02d1 01       		.uleb128 0x1
 8450 02d2 51       		.byte	0x51
ARM GAS  C:\Users\haske\AppData\Local\Temp\ccnNTYZ7.s 			page 163


 8451 02d3 9F       		.byte	0x9f
 8452 02d4 38000000 		.4byte	.LVL62
 8453 02d8 3C000000 		.4byte	.LVL64
 8454 02dc 0100     		.2byte	0x1
 8455 02de 51       		.byte	0x51
 8456 02df 3C000000 		.4byte	.LVL64
 8457 02e3 44000000 		.4byte	.LFE159
 8458 02e7 0400     		.2byte	0x4
 8459 02e9 F3       		.byte	0xf3
 8460 02ea 01       		.uleb128 0x1
 8461 02eb 51       		.byte	0x51
 8462 02ec 9F       		.byte	0x9f
 8463 02ed 00000000 		.4byte	0
 8464 02f1 00000000 		.4byte	0
 8465              	.LLST14:
 8466 02f5 00000000 		.4byte	.LVL58
 8467 02f9 31000000 		.4byte	.LVL61-1
 8468 02fd 0100     		.2byte	0x1
 8469 02ff 52       		.byte	0x52
 8470 0300 31000000 		.4byte	.LVL61-1
 8471 0304 38000000 		.4byte	.LVL62
 8472 0308 0400     		.2byte	0x4
 8473 030a F3       		.byte	0xf3
 8474 030b 01       		.uleb128 0x1
 8475 030c 52       		.byte	0x52
 8476 030d 9F       		.byte	0x9f
 8477 030e 38000000 		.4byte	.LVL62
 8478 0312 3C000000 		.4byte	.LVL64
 8479 0316 0100     		.2byte	0x1
 8480 0318 52       		.byte	0x52
 8481 0319 3C000000 		.4byte	.LVL64
 8482 031d 44000000 		.4byte	.LFE159
 8483 0321 0400     		.2byte	0x4
 8484 0323 F3       		.byte	0xf3
 8485 0324 01       		.uleb128 0x1
 8486 0325 52       		.byte	0x52
 8487 0326 9F       		.byte	0x9f
 8488 0327 00000000 		.4byte	0
 8489 032b 00000000 		.4byte	0
 8490              	.LLST15:
 8491 032f 32000000 		.4byte	.LVL61
 8492 0333 38000000 		.4byte	.LVL62
 8493 0337 0100     		.2byte	0x1
 8494 0339 50       		.byte	0x50
 8495 033a 3C000000 		.4byte	.LVL64
 8496 033e 44000000 		.4byte	.LFE159
 8497 0342 0100     		.2byte	0x1
 8498 0344 50       		.byte	0x50
 8499 0345 00000000 		.4byte	0
 8500 0349 00000000 		.4byte	0
 8501              	.LLST16:
 8502 034d 00000000 		.4byte	.LVL65
 8503 0351 02000000 		.4byte	.LVL66
 8504 0355 0100     		.2byte	0x1
 8505 0357 50       		.byte	0x50
 8506 0358 02000000 		.4byte	.LVL66
 8507 035c 04000000 		.4byte	.LFE161
ARM GAS  C:\Users\haske\AppData\Local\Temp\ccnNTYZ7.s 			page 164


 8508 0360 0400     		.2byte	0x4
 8509 0362 F3       		.byte	0xf3
 8510 0363 01       		.uleb128 0x1
 8511 0364 50       		.byte	0x50
 8512 0365 9F       		.byte	0x9f
 8513 0366 00000000 		.4byte	0
 8514 036a 00000000 		.4byte	0
 8515              	.LLST17:
 8516 036e 00000000 		.4byte	.LVL67
 8517 0372 02000000 		.4byte	.LVL68
 8518 0376 0100     		.2byte	0x1
 8519 0378 50       		.byte	0x50
 8520 0379 02000000 		.4byte	.LVL68
 8521 037d 04000000 		.4byte	.LFE162
 8522 0381 0400     		.2byte	0x4
 8523 0383 F3       		.byte	0xf3
 8524 0384 01       		.uleb128 0x1
 8525 0385 50       		.byte	0x50
 8526 0386 9F       		.byte	0x9f
 8527 0387 00000000 		.4byte	0
 8528 038b 00000000 		.4byte	0
 8529              	.LLST18:
 8530 038f 00000000 		.4byte	.LVL69
 8531 0393 02000000 		.4byte	.LVL70
 8532 0397 0100     		.2byte	0x1
 8533 0399 50       		.byte	0x50
 8534 039a 02000000 		.4byte	.LVL70
 8535 039e 08000000 		.4byte	.LFE163
 8536 03a2 0400     		.2byte	0x4
 8537 03a4 F3       		.byte	0xf3
 8538 03a5 01       		.uleb128 0x1
 8539 03a6 50       		.byte	0x50
 8540 03a7 9F       		.byte	0x9f
 8541 03a8 00000000 		.4byte	0
 8542 03ac 00000000 		.4byte	0
 8543              	.LLST19:
 8544 03b0 00000000 		.4byte	.LVL71
 8545 03b4 02000000 		.4byte	.LVL72
 8546 03b8 0100     		.2byte	0x1
 8547 03ba 50       		.byte	0x50
 8548 03bb 02000000 		.4byte	.LVL72
 8549 03bf 04000000 		.4byte	.LFE164
 8550 03c3 0400     		.2byte	0x4
 8551 03c5 F3       		.byte	0xf3
 8552 03c6 01       		.uleb128 0x1
 8553 03c7 50       		.byte	0x50
 8554 03c8 9F       		.byte	0x9f
 8555 03c9 00000000 		.4byte	0
 8556 03cd 00000000 		.4byte	0
 8557              	.LLST20:
 8558 03d1 00000000 		.4byte	.LVL73
 8559 03d5 02000000 		.4byte	.LVL74
 8560 03d9 0100     		.2byte	0x1
 8561 03db 50       		.byte	0x50
 8562 03dc 02000000 		.4byte	.LVL74
 8563 03e0 04000000 		.4byte	.LFE165
 8564 03e4 0400     		.2byte	0x4
ARM GAS  C:\Users\haske\AppData\Local\Temp\ccnNTYZ7.s 			page 165


 8565 03e6 F3       		.byte	0xf3
 8566 03e7 01       		.uleb128 0x1
 8567 03e8 50       		.byte	0x50
 8568 03e9 9F       		.byte	0x9f
 8569 03ea 00000000 		.4byte	0
 8570 03ee 00000000 		.4byte	0
 8571              	.LLST21:
 8572 03f2 00000000 		.4byte	.LVL80
 8573 03f6 0F000000 		.4byte	.LVL81-1
 8574 03fa 0100     		.2byte	0x1
 8575 03fc 50       		.byte	0x50
 8576 03fd 0F000000 		.4byte	.LVL81-1
 8577 0401 9A000000 		.4byte	.LFE170
 8578 0405 0100     		.2byte	0x1
 8579 0407 54       		.byte	0x54
 8580 0408 00000000 		.4byte	0
 8581 040c 00000000 		.4byte	0
 8582              	.LLST22:
 8583 0410 00000000 		.4byte	.LVL80
 8584 0414 0F000000 		.4byte	.LVL81-1
 8585 0418 0100     		.2byte	0x1
 8586 041a 51       		.byte	0x51
 8587 041b 0F000000 		.4byte	.LVL81-1
 8588 041f 9A000000 		.4byte	.LFE170
 8589 0423 0100     		.2byte	0x1
 8590 0425 57       		.byte	0x57
 8591 0426 00000000 		.4byte	0
 8592 042a 00000000 		.4byte	0
 8593              	.LLST23:
 8594 042e 00000000 		.4byte	.LVL80
 8595 0432 0F000000 		.4byte	.LVL81-1
 8596 0436 0100     		.2byte	0x1
 8597 0438 52       		.byte	0x52
 8598 0439 0F000000 		.4byte	.LVL81-1
 8599 043d 9A000000 		.4byte	.LFE170
 8600 0441 0400     		.2byte	0x4
 8601 0443 F3       		.byte	0xf3
 8602 0444 01       		.uleb128 0x1
 8603 0445 52       		.byte	0x52
 8604 0446 9F       		.byte	0x9f
 8605 0447 00000000 		.4byte	0
 8606 044b 00000000 		.4byte	0
 8607              	.LLST24:
 8608 044f 00000000 		.4byte	.LVL80
 8609 0453 0F000000 		.4byte	.LVL81-1
 8610 0457 0100     		.2byte	0x1
 8611 0459 53       		.byte	0x53
 8612 045a 0F000000 		.4byte	.LVL81-1
 8613 045e 9A000000 		.4byte	.LFE170
 8614 0462 0100     		.2byte	0x1
 8615 0464 55       		.byte	0x55
 8616 0465 00000000 		.4byte	0
 8617 0469 00000000 		.4byte	0
 8618              	.LLST25:
 8619 046d 00000000 		.4byte	.LVL83
 8620 0471 0E000000 		.4byte	.LVL84
 8621 0475 0100     		.2byte	0x1
ARM GAS  C:\Users\haske\AppData\Local\Temp\ccnNTYZ7.s 			page 166


 8622 0477 50       		.byte	0x50
 8623 0478 0E000000 		.4byte	.LVL84
 8624 047c 80000000 		.4byte	.LVL92
 8625 0480 0100     		.2byte	0x1
 8626 0482 55       		.byte	0x55
 8627 0483 80000000 		.4byte	.LVL92
 8628 0487 82000000 		.4byte	.LVL93
 8629 048b 0100     		.2byte	0x1
 8630 048d 50       		.byte	0x50
 8631 048e 82000000 		.4byte	.LVL93
 8632 0492 84000000 		.4byte	.LVL94
 8633 0496 0400     		.2byte	0x4
 8634 0498 F3       		.byte	0xf3
 8635 0499 01       		.uleb128 0x1
 8636 049a 50       		.byte	0x50
 8637 049b 9F       		.byte	0x9f
 8638 049c 84000000 		.4byte	.LVL94
 8639 04a0 88000000 		.4byte	.LFE171
 8640 04a4 0100     		.2byte	0x1
 8641 04a6 55       		.byte	0x55
 8642 04a7 00000000 		.4byte	0
 8643 04ab 00000000 		.4byte	0
 8644              	.LLST26:
 8645 04af 00000000 		.4byte	.LVL83
 8646 04b3 20000000 		.4byte	.LVL85
 8647 04b7 0100     		.2byte	0x1
 8648 04b9 51       		.byte	0x51
 8649 04ba 20000000 		.4byte	.LVL85
 8650 04be 70000000 		.4byte	.LVL90
 8651 04c2 0400     		.2byte	0x4
 8652 04c4 F3       		.byte	0xf3
 8653 04c5 01       		.uleb128 0x1
 8654 04c6 51       		.byte	0x51
 8655 04c7 9F       		.byte	0x9f
 8656 04c8 70000000 		.4byte	.LVL90
 8657 04cc 84000000 		.4byte	.LVL94
 8658 04d0 0100     		.2byte	0x1
 8659 04d2 51       		.byte	0x51
 8660 04d3 84000000 		.4byte	.LVL94
 8661 04d7 88000000 		.4byte	.LFE171
 8662 04db 0400     		.2byte	0x4
 8663 04dd F3       		.byte	0xf3
 8664 04de 01       		.uleb128 0x1
 8665 04df 51       		.byte	0x51
 8666 04e0 9F       		.byte	0x9f
 8667 04e1 00000000 		.4byte	0
 8668 04e5 00000000 		.4byte	0
 8669              	.LLST27:
 8670 04e9 0E000000 		.4byte	.LVL84
 8671 04ed 2C000000 		.4byte	.LVL86
 8672 04f1 0100     		.2byte	0x1
 8673 04f3 53       		.byte	0x53
 8674 04f4 2C000000 		.4byte	.LVL86
 8675 04f8 3A000000 		.4byte	.LVL87
 8676 04fc 0300     		.2byte	0x3
 8677 04fe 73       		.byte	0x73
 8678 04ff 7F       		.sleb128 -1
ARM GAS  C:\Users\haske\AppData\Local\Temp\ccnNTYZ7.s 			page 167


 8679 0500 9F       		.byte	0x9f
 8680 0501 3A000000 		.4byte	.LVL87
 8681 0505 4C000000 		.4byte	.LVL88
 8682 0509 0100     		.2byte	0x1
 8683 050b 53       		.byte	0x53
 8684 050c 70000000 		.4byte	.LVL90
 8685 0510 80000000 		.4byte	.LVL92
 8686 0514 0100     		.2byte	0x1
 8687 0516 53       		.byte	0x53
 8688 0517 00000000 		.4byte	0
 8689 051b 00000000 		.4byte	0
 8690              	.LLST28:
 8691 051f 00000000 		.4byte	.LVL95
 8692 0523 0E000000 		.4byte	.LVL96
 8693 0527 0100     		.2byte	0x1
 8694 0529 50       		.byte	0x50
 8695 052a 0E000000 		.4byte	.LVL96
 8696 052e 90000000 		.4byte	.LVL104
 8697 0532 0100     		.2byte	0x1
 8698 0534 57       		.byte	0x57
 8699 0535 90000000 		.4byte	.LVL104
 8700 0539 92000000 		.4byte	.LVL105
 8701 053d 0100     		.2byte	0x1
 8702 053f 50       		.byte	0x50
 8703 0540 92000000 		.4byte	.LVL105
 8704 0544 94000000 		.4byte	.LVL106
 8705 0548 0400     		.2byte	0x4
 8706 054a F3       		.byte	0xf3
 8707 054b 01       		.uleb128 0x1
 8708 054c 50       		.byte	0x50
 8709 054d 9F       		.byte	0x9f
 8710 054e 94000000 		.4byte	.LVL106
 8711 0552 98000000 		.4byte	.LFE172
 8712 0556 0100     		.2byte	0x1
 8713 0558 57       		.byte	0x57
 8714 0559 00000000 		.4byte	0
 8715 055d 00000000 		.4byte	0
 8716              	.LLST29:
 8717 0561 00000000 		.4byte	.LVL95
 8718 0565 30000000 		.4byte	.LVL97
 8719 0569 0100     		.2byte	0x1
 8720 056b 51       		.byte	0x51
 8721 056c 30000000 		.4byte	.LVL97
 8722 0570 80000000 		.4byte	.LVL102
 8723 0574 0400     		.2byte	0x4
 8724 0576 F3       		.byte	0xf3
 8725 0577 01       		.uleb128 0x1
 8726 0578 51       		.byte	0x51
 8727 0579 9F       		.byte	0x9f
 8728 057a 80000000 		.4byte	.LVL102
 8729 057e 94000000 		.4byte	.LVL106
 8730 0582 0100     		.2byte	0x1
 8731 0584 51       		.byte	0x51
 8732 0585 94000000 		.4byte	.LVL106
 8733 0589 98000000 		.4byte	.LFE172
 8734 058d 0400     		.2byte	0x4
 8735 058f F3       		.byte	0xf3
ARM GAS  C:\Users\haske\AppData\Local\Temp\ccnNTYZ7.s 			page 168


 8736 0590 01       		.uleb128 0x1
 8737 0591 51       		.byte	0x51
 8738 0592 9F       		.byte	0x9f
 8739 0593 00000000 		.4byte	0
 8740 0597 00000000 		.4byte	0
 8741              	.LLST30:
 8742 059b 00000000 		.4byte	.LVL95
 8743 059f 30000000 		.4byte	.LVL97
 8744 05a3 0100     		.2byte	0x1
 8745 05a5 52       		.byte	0x52
 8746 05a6 30000000 		.4byte	.LVL97
 8747 05aa 80000000 		.4byte	.LVL102
 8748 05ae 0400     		.2byte	0x4
 8749 05b0 F3       		.byte	0xf3
 8750 05b1 01       		.uleb128 0x1
 8751 05b2 52       		.byte	0x52
 8752 05b3 9F       		.byte	0x9f
 8753 05b4 80000000 		.4byte	.LVL102
 8754 05b8 94000000 		.4byte	.LVL106
 8755 05bc 0100     		.2byte	0x1
 8756 05be 52       		.byte	0x52
 8757 05bf 94000000 		.4byte	.LVL106
 8758 05c3 98000000 		.4byte	.LFE172
 8759 05c7 0400     		.2byte	0x4
 8760 05c9 F3       		.byte	0xf3
 8761 05ca 01       		.uleb128 0x1
 8762 05cb 52       		.byte	0x52
 8763 05cc 9F       		.byte	0x9f
 8764 05cd 00000000 		.4byte	0
 8765 05d1 00000000 		.4byte	0
 8766              	.LLST31:
 8767 05d5 0E000000 		.4byte	.LVL96
 8768 05d9 3C000000 		.4byte	.LVL98
 8769 05dd 0100     		.2byte	0x1
 8770 05df 53       		.byte	0x53
 8771 05e0 3C000000 		.4byte	.LVL98
 8772 05e4 4A000000 		.4byte	.LVL99
 8773 05e8 0300     		.2byte	0x3
 8774 05ea 73       		.byte	0x73
 8775 05eb 7F       		.sleb128 -1
 8776 05ec 9F       		.byte	0x9f
 8777 05ed 4A000000 		.4byte	.LVL99
 8778 05f1 5C000000 		.4byte	.LVL100
 8779 05f5 0100     		.2byte	0x1
 8780 05f7 53       		.byte	0x53
 8781 05f8 80000000 		.4byte	.LVL102
 8782 05fc 90000000 		.4byte	.LVL104
 8783 0600 0100     		.2byte	0x1
 8784 0602 53       		.byte	0x53
 8785 0603 00000000 		.4byte	0
 8786 0607 00000000 		.4byte	0
 8787              	.LLST32:
 8788 060b 00000000 		.4byte	.LVL107
 8789 060f 0E000000 		.4byte	.LVL108
 8790 0613 0100     		.2byte	0x1
 8791 0615 50       		.byte	0x50
 8792 0616 0E000000 		.4byte	.LVL108
ARM GAS  C:\Users\haske\AppData\Local\Temp\ccnNTYZ7.s 			page 169


 8793 061a 7E000000 		.4byte	.LVL116
 8794 061e 0100     		.2byte	0x1
 8795 0620 55       		.byte	0x55
 8796 0621 7E000000 		.4byte	.LVL116
 8797 0625 80000000 		.4byte	.LVL117
 8798 0629 0100     		.2byte	0x1
 8799 062b 50       		.byte	0x50
 8800 062c 80000000 		.4byte	.LVL117
 8801 0630 82000000 		.4byte	.LVL118
 8802 0634 0400     		.2byte	0x4
 8803 0636 F3       		.byte	0xf3
 8804 0637 01       		.uleb128 0x1
 8805 0638 50       		.byte	0x50
 8806 0639 9F       		.byte	0x9f
 8807 063a 82000000 		.4byte	.LVL118
 8808 063e 86000000 		.4byte	.LFE173
 8809 0642 0100     		.2byte	0x1
 8810 0644 55       		.byte	0x55
 8811 0645 00000000 		.4byte	0
 8812 0649 00000000 		.4byte	0
 8813              	.LLST33:
 8814 064d 00000000 		.4byte	.LVL107
 8815 0651 1E000000 		.4byte	.LVL109
 8816 0655 0100     		.2byte	0x1
 8817 0657 51       		.byte	0x51
 8818 0658 1E000000 		.4byte	.LVL109
 8819 065c 6E000000 		.4byte	.LVL114
 8820 0660 0400     		.2byte	0x4
 8821 0662 F3       		.byte	0xf3
 8822 0663 01       		.uleb128 0x1
 8823 0664 51       		.byte	0x51
 8824 0665 9F       		.byte	0x9f
 8825 0666 6E000000 		.4byte	.LVL114
 8826 066a 82000000 		.4byte	.LVL118
 8827 066e 0100     		.2byte	0x1
 8828 0670 51       		.byte	0x51
 8829 0671 82000000 		.4byte	.LVL118
 8830 0675 86000000 		.4byte	.LFE173
 8831 0679 0400     		.2byte	0x4
 8832 067b F3       		.byte	0xf3
 8833 067c 01       		.uleb128 0x1
 8834 067d 51       		.byte	0x51
 8835 067e 9F       		.byte	0x9f
 8836 067f 00000000 		.4byte	0
 8837 0683 00000000 		.4byte	0
 8838              	.LLST34:
 8839 0687 0E000000 		.4byte	.LVL108
 8840 068b 2A000000 		.4byte	.LVL110
 8841 068f 0100     		.2byte	0x1
 8842 0691 53       		.byte	0x53
 8843 0692 2A000000 		.4byte	.LVL110
 8844 0696 38000000 		.4byte	.LVL111
 8845 069a 0300     		.2byte	0x3
 8846 069c 73       		.byte	0x73
 8847 069d 7F       		.sleb128 -1
 8848 069e 9F       		.byte	0x9f
 8849 069f 38000000 		.4byte	.LVL111
ARM GAS  C:\Users\haske\AppData\Local\Temp\ccnNTYZ7.s 			page 170


 8850 06a3 4A000000 		.4byte	.LVL112
 8851 06a7 0100     		.2byte	0x1
 8852 06a9 53       		.byte	0x53
 8853 06aa 6E000000 		.4byte	.LVL114
 8854 06ae 7E000000 		.4byte	.LVL116
 8855 06b2 0100     		.2byte	0x1
 8856 06b4 53       		.byte	0x53
 8857 06b5 00000000 		.4byte	0
 8858 06b9 00000000 		.4byte	0
 8859              	.LLST35:
 8860 06bd 00000000 		.4byte	.LVL119
 8861 06c1 0A000000 		.4byte	.LVL120
 8862 06c5 0100     		.2byte	0x1
 8863 06c7 50       		.byte	0x50
 8864 06c8 0A000000 		.4byte	.LVL120
 8865 06cc 2E000000 		.4byte	.LVL122
 8866 06d0 0400     		.2byte	0x4
 8867 06d2 F3       		.byte	0xf3
 8868 06d3 01       		.uleb128 0x1
 8869 06d4 50       		.byte	0x50
 8870 06d5 9F       		.byte	0x9f
 8871 06d6 2E000000 		.4byte	.LVL122
 8872 06da 30000000 		.4byte	.LVL123
 8873 06de 0100     		.2byte	0x1
 8874 06e0 50       		.byte	0x50
 8875 06e1 30000000 		.4byte	.LVL123
 8876 06e5 34000000 		.4byte	.LFE174
 8877 06e9 0400     		.2byte	0x4
 8878 06eb F3       		.byte	0xf3
 8879 06ec 01       		.uleb128 0x1
 8880 06ed 50       		.byte	0x50
 8881 06ee 9F       		.byte	0x9f
 8882 06ef 00000000 		.4byte	0
 8883 06f3 00000000 		.4byte	0
 8884              	.LLST36:
 8885 06f7 0A000000 		.4byte	.LVL120
 8886 06fb 2E000000 		.4byte	.LVL122
 8887 06ff 0100     		.2byte	0x1
 8888 0701 53       		.byte	0x53
 8889 0702 00000000 		.4byte	0
 8890 0706 00000000 		.4byte	0
 8891              	.LLST37:
 8892 070a 00000000 		.4byte	.LVL124
 8893 070e 0F000000 		.4byte	.LVL125-1
 8894 0712 0100     		.2byte	0x1
 8895 0714 50       		.byte	0x50
 8896 0715 0F000000 		.4byte	.LVL125-1
 8897 0719 12000000 		.4byte	.LVL126
 8898 071d 0400     		.2byte	0x4
 8899 071f F3       		.byte	0xf3
 8900 0720 01       		.uleb128 0x1
 8901 0721 50       		.byte	0x50
 8902 0722 9F       		.byte	0x9f
 8903 0723 12000000 		.4byte	.LVL126
 8904 0727 14000000 		.4byte	.LVL127
 8905 072b 0100     		.2byte	0x1
 8906 072d 50       		.byte	0x50
ARM GAS  C:\Users\haske\AppData\Local\Temp\ccnNTYZ7.s 			page 171


 8907 072e 14000000 		.4byte	.LVL127
 8908 0732 16000000 		.4byte	.LFE175
 8909 0736 0400     		.2byte	0x4
 8910 0738 F3       		.byte	0xf3
 8911 0739 01       		.uleb128 0x1
 8912 073a 50       		.byte	0x50
 8913 073b 9F       		.byte	0x9f
 8914 073c 00000000 		.4byte	0
 8915 0740 00000000 		.4byte	0
 8916              	.LLST38:
 8917 0744 00000000 		.4byte	.LVL128
 8918 0748 0F000000 		.4byte	.LVL129-1
 8919 074c 0100     		.2byte	0x1
 8920 074e 50       		.byte	0x50
 8921 074f 0F000000 		.4byte	.LVL129-1
 8922 0753 12000000 		.4byte	.LVL130
 8923 0757 0400     		.2byte	0x4
 8924 0759 F3       		.byte	0xf3
 8925 075a 01       		.uleb128 0x1
 8926 075b 50       		.byte	0x50
 8927 075c 9F       		.byte	0x9f
 8928 075d 12000000 		.4byte	.LVL130
 8929 0761 14000000 		.4byte	.LVL131
 8930 0765 0100     		.2byte	0x1
 8931 0767 50       		.byte	0x50
 8932 0768 14000000 		.4byte	.LVL131
 8933 076c 16000000 		.4byte	.LFE176
 8934 0770 0400     		.2byte	0x4
 8935 0772 F3       		.byte	0xf3
 8936 0773 01       		.uleb128 0x1
 8937 0774 50       		.byte	0x50
 8938 0775 9F       		.byte	0x9f
 8939 0776 00000000 		.4byte	0
 8940 077a 00000000 		.4byte	0
 8941              	.LLST39:
 8942 077e 00000000 		.4byte	.LVL132
 8943 0782 1D000000 		.4byte	.LVL133-1
 8944 0786 0100     		.2byte	0x1
 8945 0788 50       		.byte	0x50
 8946 0789 1D000000 		.4byte	.LVL133-1
 8947 078d 20000000 		.4byte	.LVL134
 8948 0791 0400     		.2byte	0x4
 8949 0793 F3       		.byte	0xf3
 8950 0794 01       		.uleb128 0x1
 8951 0795 50       		.byte	0x50
 8952 0796 9F       		.byte	0x9f
 8953 0797 20000000 		.4byte	.LVL134
 8954 079b 22000000 		.4byte	.LVL135
 8955 079f 0100     		.2byte	0x1
 8956 07a1 50       		.byte	0x50
 8957 07a2 22000000 		.4byte	.LVL135
 8958 07a6 24000000 		.4byte	.LFE177
 8959 07aa 0400     		.2byte	0x4
 8960 07ac F3       		.byte	0xf3
 8961 07ad 01       		.uleb128 0x1
 8962 07ae 50       		.byte	0x50
 8963 07af 9F       		.byte	0x9f
ARM GAS  C:\Users\haske\AppData\Local\Temp\ccnNTYZ7.s 			page 172


 8964 07b0 00000000 		.4byte	0
 8965 07b4 00000000 		.4byte	0
 8966              	.LLST40:
 8967 07b8 00000000 		.4byte	.LVL136
 8968 07bc 0B000000 		.4byte	.LVL137-1
 8969 07c0 0100     		.2byte	0x1
 8970 07c2 50       		.byte	0x50
 8971 07c3 0B000000 		.4byte	.LVL137-1
 8972 07c7 0E000000 		.4byte	.LVL138
 8973 07cb 0400     		.2byte	0x4
 8974 07cd F3       		.byte	0xf3
 8975 07ce 01       		.uleb128 0x1
 8976 07cf 50       		.byte	0x50
 8977 07d0 9F       		.byte	0x9f
 8978 07d1 0E000000 		.4byte	.LVL138
 8979 07d5 10000000 		.4byte	.LVL139
 8980 07d9 0100     		.2byte	0x1
 8981 07db 50       		.byte	0x50
 8982 07dc 10000000 		.4byte	.LVL139
 8983 07e0 12000000 		.4byte	.LFE178
 8984 07e4 0400     		.2byte	0x4
 8985 07e6 F3       		.byte	0xf3
 8986 07e7 01       		.uleb128 0x1
 8987 07e8 50       		.byte	0x50
 8988 07e9 9F       		.byte	0x9f
 8989 07ea 00000000 		.4byte	0
 8990 07ee 00000000 		.4byte	0
 8991              	.LLST41:
 8992 07f2 00000000 		.4byte	.LVL140
 8993 07f6 0B000000 		.4byte	.LVL141-1
 8994 07fa 0100     		.2byte	0x1
 8995 07fc 50       		.byte	0x50
 8996 07fd 0B000000 		.4byte	.LVL141-1
 8997 0801 12000000 		.4byte	.LVL143
 8998 0805 0400     		.2byte	0x4
 8999 0807 F3       		.byte	0xf3
 9000 0808 01       		.uleb128 0x1
 9001 0809 50       		.byte	0x50
 9002 080a 9F       		.byte	0x9f
 9003 080b 12000000 		.4byte	.LVL143
 9004 080f 14000000 		.4byte	.LVL144
 9005 0813 0100     		.2byte	0x1
 9006 0815 50       		.byte	0x50
 9007 0816 14000000 		.4byte	.LVL144
 9008 081a 1A000000 		.4byte	.LFE179
 9009 081e 0400     		.2byte	0x4
 9010 0820 F3       		.byte	0xf3
 9011 0821 01       		.uleb128 0x1
 9012 0822 50       		.byte	0x50
 9013 0823 9F       		.byte	0x9f
 9014 0824 00000000 		.4byte	0
 9015 0828 00000000 		.4byte	0
 9016              	.LLST42:
 9017 082c 0C000000 		.4byte	.LVL141
 9018 0830 10000000 		.4byte	.LVL142
 9019 0834 0100     		.2byte	0x1
 9020 0836 50       		.byte	0x50
ARM GAS  C:\Users\haske\AppData\Local\Temp\ccnNTYZ7.s 			page 173


 9021 0837 16000000 		.4byte	.LVL145
 9022 083b 18000000 		.4byte	.LVL146
 9023 083f 0100     		.2byte	0x1
 9024 0841 50       		.byte	0x50
 9025 0842 00000000 		.4byte	0
 9026 0846 00000000 		.4byte	0
 9027              	.LLST43:
 9028 084a 00000000 		.4byte	.LVL147
 9029 084e 0B000000 		.4byte	.LVL148-1
 9030 0852 0100     		.2byte	0x1
 9031 0854 50       		.byte	0x50
 9032 0855 0B000000 		.4byte	.LVL148-1
 9033 0859 0E000000 		.4byte	.LVL149
 9034 085d 0400     		.2byte	0x4
 9035 085f F3       		.byte	0xf3
 9036 0860 01       		.uleb128 0x1
 9037 0861 50       		.byte	0x50
 9038 0862 9F       		.byte	0x9f
 9039 0863 0E000000 		.4byte	.LVL149
 9040 0867 10000000 		.4byte	.LVL150
 9041 086b 0100     		.2byte	0x1
 9042 086d 50       		.byte	0x50
 9043 086e 10000000 		.4byte	.LVL150
 9044 0872 12000000 		.4byte	.LFE180
 9045 0876 0400     		.2byte	0x4
 9046 0878 F3       		.byte	0xf3
 9047 0879 01       		.uleb128 0x1
 9048 087a 50       		.byte	0x50
 9049 087b 9F       		.byte	0x9f
 9050 087c 00000000 		.4byte	0
 9051 0880 00000000 		.4byte	0
 9052              	.LLST44:
 9053 0884 00000000 		.4byte	.LVL151
 9054 0888 0D000000 		.4byte	.LVL152-1
 9055 088c 0100     		.2byte	0x1
 9056 088e 50       		.byte	0x50
 9057 088f 0D000000 		.4byte	.LVL152-1
 9058 0893 1C000000 		.4byte	.LVL153
 9059 0897 0400     		.2byte	0x4
 9060 0899 F3       		.byte	0xf3
 9061 089a 01       		.uleb128 0x1
 9062 089b 50       		.byte	0x50
 9063 089c 9F       		.byte	0x9f
 9064 089d 1C000000 		.4byte	.LVL153
 9065 08a1 1E000000 		.4byte	.LFE181
 9066 08a5 0100     		.2byte	0x1
 9067 08a7 50       		.byte	0x50
 9068 08a8 00000000 		.4byte	0
 9069 08ac 00000000 		.4byte	0
 9070              	.LLST45:
 9071 08b0 00000000 		.4byte	.LVL151
 9072 08b4 0D000000 		.4byte	.LVL152-1
 9073 08b8 0100     		.2byte	0x1
 9074 08ba 51       		.byte	0x51
 9075 08bb 0D000000 		.4byte	.LVL152-1
 9076 08bf 1C000000 		.4byte	.LVL153
 9077 08c3 0400     		.2byte	0x4
ARM GAS  C:\Users\haske\AppData\Local\Temp\ccnNTYZ7.s 			page 174


 9078 08c5 F3       		.byte	0xf3
 9079 08c6 01       		.uleb128 0x1
 9080 08c7 51       		.byte	0x51
 9081 08c8 9F       		.byte	0x9f
 9082 08c9 1C000000 		.4byte	.LVL153
 9083 08cd 1E000000 		.4byte	.LFE181
 9084 08d1 0100     		.2byte	0x1
 9085 08d3 51       		.byte	0x51
 9086 08d4 00000000 		.4byte	0
 9087 08d8 00000000 		.4byte	0
 9088              	.LLST46:
 9089 08dc 0E000000 		.4byte	.LVL152
 9090 08e0 1C000000 		.4byte	.LVL153
 9091 08e4 0100     		.2byte	0x1
 9092 08e6 50       		.byte	0x50
 9093 08e7 00000000 		.4byte	0
 9094 08eb 00000000 		.4byte	0
 9095              	.LLST47:
 9096 08ef 00000000 		.4byte	.LVL154
 9097 08f3 0B000000 		.4byte	.LVL155-1
 9098 08f7 0100     		.2byte	0x1
 9099 08f9 50       		.byte	0x50
 9100 08fa 0B000000 		.4byte	.LVL155-1
 9101 08fe 0E000000 		.4byte	.LVL156
 9102 0902 0400     		.2byte	0x4
 9103 0904 F3       		.byte	0xf3
 9104 0905 01       		.uleb128 0x1
 9105 0906 50       		.byte	0x50
 9106 0907 9F       		.byte	0x9f
 9107 0908 0E000000 		.4byte	.LVL156
 9108 090c 10000000 		.4byte	.LVL157
 9109 0910 0100     		.2byte	0x1
 9110 0912 50       		.byte	0x50
 9111 0913 10000000 		.4byte	.LVL157
 9112 0917 12000000 		.4byte	.LFE182
 9113 091b 0400     		.2byte	0x4
 9114 091d F3       		.byte	0xf3
 9115 091e 01       		.uleb128 0x1
 9116 091f 50       		.byte	0x50
 9117 0920 9F       		.byte	0x9f
 9118 0921 00000000 		.4byte	0
 9119 0925 00000000 		.4byte	0
 9120              	.LLST48:
 9121 0929 00000000 		.4byte	.LVL158
 9122 092d 0B000000 		.4byte	.LVL159-1
 9123 0931 0100     		.2byte	0x1
 9124 0933 50       		.byte	0x50
 9125 0934 0B000000 		.4byte	.LVL159-1
 9126 0938 0E000000 		.4byte	.LVL160
 9127 093c 0400     		.2byte	0x4
 9128 093e F3       		.byte	0xf3
 9129 093f 01       		.uleb128 0x1
 9130 0940 50       		.byte	0x50
 9131 0941 9F       		.byte	0x9f
 9132 0942 0E000000 		.4byte	.LVL160
 9133 0946 10000000 		.4byte	.LVL161
 9134 094a 0100     		.2byte	0x1
ARM GAS  C:\Users\haske\AppData\Local\Temp\ccnNTYZ7.s 			page 175


 9135 094c 50       		.byte	0x50
 9136 094d 10000000 		.4byte	.LVL161
 9137 0951 12000000 		.4byte	.LFE183
 9138 0955 0400     		.2byte	0x4
 9139 0957 F3       		.byte	0xf3
 9140 0958 01       		.uleb128 0x1
 9141 0959 50       		.byte	0x50
 9142 095a 9F       		.byte	0x9f
 9143 095b 00000000 		.4byte	0
 9144 095f 00000000 		.4byte	0
 9145              	.LLST49:
 9146 0963 00000000 		.4byte	.LVL162
 9147 0967 0B000000 		.4byte	.LVL163-1
 9148 096b 0100     		.2byte	0x1
 9149 096d 50       		.byte	0x50
 9150 096e 0B000000 		.4byte	.LVL163-1
 9151 0972 10000000 		.4byte	.LVL165
 9152 0976 0400     		.2byte	0x4
 9153 0978 F3       		.byte	0xf3
 9154 0979 01       		.uleb128 0x1
 9155 097a 50       		.byte	0x50
 9156 097b 9F       		.byte	0x9f
 9157 097c 10000000 		.4byte	.LVL165
 9158 0980 12000000 		.4byte	.LVL166
 9159 0984 0100     		.2byte	0x1
 9160 0986 50       		.byte	0x50
 9161 0987 12000000 		.4byte	.LVL166
 9162 098b 14000000 		.4byte	.LFE184
 9163 098f 0400     		.2byte	0x4
 9164 0991 F3       		.byte	0xf3
 9165 0992 01       		.uleb128 0x1
 9166 0993 50       		.byte	0x50
 9167 0994 9F       		.byte	0x9f
 9168 0995 00000000 		.4byte	0
 9169 0999 00000000 		.4byte	0
 9170              	.LLST50:
 9171 099d 0C000000 		.4byte	.LVL163
 9172 09a1 0E000000 		.4byte	.LVL164
 9173 09a5 0100     		.2byte	0x1
 9174 09a7 50       		.byte	0x50
 9175 09a8 00000000 		.4byte	0
 9176 09ac 00000000 		.4byte	0
 9177              	.LLST51:
 9178 09b0 00000000 		.4byte	.LVL167
 9179 09b4 0D000000 		.4byte	.LVL168-1
 9180 09b8 0100     		.2byte	0x1
 9181 09ba 50       		.byte	0x50
 9182 09bb 0D000000 		.4byte	.LVL168-1
 9183 09bf 18000000 		.4byte	.LVL169
 9184 09c3 0400     		.2byte	0x4
 9185 09c5 F3       		.byte	0xf3
 9186 09c6 01       		.uleb128 0x1
 9187 09c7 50       		.byte	0x50
 9188 09c8 9F       		.byte	0x9f
 9189 09c9 18000000 		.4byte	.LVL169
 9190 09cd 1A000000 		.4byte	.LFE185
 9191 09d1 0100     		.2byte	0x1
ARM GAS  C:\Users\haske\AppData\Local\Temp\ccnNTYZ7.s 			page 176


 9192 09d3 50       		.byte	0x50
 9193 09d4 00000000 		.4byte	0
 9194 09d8 00000000 		.4byte	0
 9195              	.LLST52:
 9196 09dc 00000000 		.4byte	.LVL167
 9197 09e0 0D000000 		.4byte	.LVL168-1
 9198 09e4 0100     		.2byte	0x1
 9199 09e6 51       		.byte	0x51
 9200 09e7 0D000000 		.4byte	.LVL168-1
 9201 09eb 18000000 		.4byte	.LVL169
 9202 09ef 0400     		.2byte	0x4
 9203 09f1 F3       		.byte	0xf3
 9204 09f2 01       		.uleb128 0x1
 9205 09f3 51       		.byte	0x51
 9206 09f4 9F       		.byte	0x9f
 9207 09f5 18000000 		.4byte	.LVL169
 9208 09f9 1A000000 		.4byte	.LFE185
 9209 09fd 0100     		.2byte	0x1
 9210 09ff 51       		.byte	0x51
 9211 0a00 00000000 		.4byte	0
 9212 0a04 00000000 		.4byte	0
 9213              	.LLST53:
 9214 0a08 0E000000 		.4byte	.LVL168
 9215 0a0c 18000000 		.4byte	.LVL169
 9216 0a10 0100     		.2byte	0x1
 9217 0a12 50       		.byte	0x50
 9218 0a13 00000000 		.4byte	0
 9219 0a17 00000000 		.4byte	0
 9220              		.section	.debug_aranges,"",%progbits
 9221 0000 04010000 		.4byte	0x104
 9222 0004 0200     		.2byte	0x2
 9223 0006 00000000 		.4byte	.Ldebug_info0
 9224 000a 04       		.byte	0x4
 9225 000b 00       		.byte	0
 9226 000c 0000     		.2byte	0
 9227 000e 0000     		.2byte	0
 9228 0010 00000000 		.4byte	.LFB186
 9229 0014 22000000 		.4byte	.LFE186-.LFB186
 9230 0018 00000000 		.4byte	.LFB188
 9231 001c 5C000000 		.4byte	.LFE188-.LFB188
 9232 0020 00000000 		.4byte	.LFB160
 9233 0024 40000000 		.4byte	.LFE160-.LFB160
 9234 0028 00000000 		.4byte	.LFB187
 9235 002c 18010000 		.4byte	.LFE187-.LFB187
 9236 0030 00000000 		.4byte	.LFB159
 9237 0034 44000000 		.4byte	.LFE159-.LFB159
 9238 0038 00000000 		.4byte	.LFB161
 9239 003c 04000000 		.4byte	.LFE161-.LFB161
 9240 0040 00000000 		.4byte	.LFB162
 9241 0044 04000000 		.4byte	.LFE162-.LFB162
 9242 0048 00000000 		.4byte	.LFB163
 9243 004c 08000000 		.4byte	.LFE163-.LFB163
 9244 0050 00000000 		.4byte	.LFB164
 9245 0054 04000000 		.4byte	.LFE164-.LFB164
 9246 0058 00000000 		.4byte	.LFB165
 9247 005c 04000000 		.4byte	.LFE165-.LFB165
 9248 0060 00000000 		.4byte	.LFB166
ARM GAS  C:\Users\haske\AppData\Local\Temp\ccnNTYZ7.s 			page 177


 9249 0064 0A000000 		.4byte	.LFE166-.LFB166
 9250 0068 00000000 		.4byte	.LFB167
 9251 006c 0A000000 		.4byte	.LFE167-.LFB167
 9252 0070 00000000 		.4byte	.LFB168
 9253 0074 10000000 		.4byte	.LFE168-.LFB168
 9254 0078 00000000 		.4byte	.LFB169
 9255 007c 28000000 		.4byte	.LFE169-.LFB169
 9256 0080 00000000 		.4byte	.LFB170
 9257 0084 9A000000 		.4byte	.LFE170-.LFB170
 9258 0088 00000000 		.4byte	.LFB171
 9259 008c 88000000 		.4byte	.LFE171-.LFB171
 9260 0090 00000000 		.4byte	.LFB172
 9261 0094 98000000 		.4byte	.LFE172-.LFB172
 9262 0098 00000000 		.4byte	.LFB173
 9263 009c 86000000 		.4byte	.LFE173-.LFB173
 9264 00a0 00000000 		.4byte	.LFB174
 9265 00a4 34000000 		.4byte	.LFE174-.LFB174
 9266 00a8 00000000 		.4byte	.LFB175
 9267 00ac 16000000 		.4byte	.LFE175-.LFB175
 9268 00b0 00000000 		.4byte	.LFB176
 9269 00b4 16000000 		.4byte	.LFE176-.LFB176
 9270 00b8 00000000 		.4byte	.LFB177
 9271 00bc 24000000 		.4byte	.LFE177-.LFB177
 9272 00c0 00000000 		.4byte	.LFB178
 9273 00c4 12000000 		.4byte	.LFE178-.LFB178
 9274 00c8 00000000 		.4byte	.LFB179
 9275 00cc 1A000000 		.4byte	.LFE179-.LFB179
 9276 00d0 00000000 		.4byte	.LFB180
 9277 00d4 12000000 		.4byte	.LFE180-.LFB180
 9278 00d8 00000000 		.4byte	.LFB181
 9279 00dc 1E000000 		.4byte	.LFE181-.LFB181
 9280 00e0 00000000 		.4byte	.LFB182
 9281 00e4 12000000 		.4byte	.LFE182-.LFB182
 9282 00e8 00000000 		.4byte	.LFB183
 9283 00ec 12000000 		.4byte	.LFE183-.LFB183
 9284 00f0 00000000 		.4byte	.LFB184
 9285 00f4 14000000 		.4byte	.LFE184-.LFB184
 9286 00f8 00000000 		.4byte	.LFB185
 9287 00fc 1A000000 		.4byte	.LFE185-.LFB185
 9288 0100 00000000 		.4byte	0
 9289 0104 00000000 		.4byte	0
 9290              		.section	.debug_ranges,"",%progbits
 9291              	.Ldebug_ranges0:
 9292 0000 08000000 		.4byte	.LBB2
 9293 0004 12000000 		.4byte	.LBE2
 9294 0008 16000000 		.4byte	.LBB3
 9295 000c 18000000 		.4byte	.LBE3
 9296 0010 00000000 		.4byte	0
 9297 0014 00000000 		.4byte	0
 9298 0018 00000000 		.4byte	.LFB186
 9299 001c 22000000 		.4byte	.LFE186
 9300 0020 00000000 		.4byte	.LFB188
 9301 0024 5C000000 		.4byte	.LFE188
 9302 0028 00000000 		.4byte	.LFB160
 9303 002c 40000000 		.4byte	.LFE160
 9304 0030 00000000 		.4byte	.LFB187
 9305 0034 18010000 		.4byte	.LFE187
ARM GAS  C:\Users\haske\AppData\Local\Temp\ccnNTYZ7.s 			page 178


 9306 0038 00000000 		.4byte	.LFB159
 9307 003c 44000000 		.4byte	.LFE159
 9308 0040 00000000 		.4byte	.LFB161
 9309 0044 04000000 		.4byte	.LFE161
 9310 0048 00000000 		.4byte	.LFB162
 9311 004c 04000000 		.4byte	.LFE162
 9312 0050 00000000 		.4byte	.LFB163
 9313 0054 08000000 		.4byte	.LFE163
 9314 0058 00000000 		.4byte	.LFB164
 9315 005c 04000000 		.4byte	.LFE164
 9316 0060 00000000 		.4byte	.LFB165
 9317 0064 04000000 		.4byte	.LFE165
 9318 0068 00000000 		.4byte	.LFB166
 9319 006c 0A000000 		.4byte	.LFE166
 9320 0070 00000000 		.4byte	.LFB167
 9321 0074 0A000000 		.4byte	.LFE167
 9322 0078 00000000 		.4byte	.LFB168
 9323 007c 10000000 		.4byte	.LFE168
 9324 0080 00000000 		.4byte	.LFB169
 9325 0084 28000000 		.4byte	.LFE169
 9326 0088 00000000 		.4byte	.LFB170
 9327 008c 9A000000 		.4byte	.LFE170
 9328 0090 00000000 		.4byte	.LFB171
 9329 0094 88000000 		.4byte	.LFE171
 9330 0098 00000000 		.4byte	.LFB172
 9331 009c 98000000 		.4byte	.LFE172
 9332 00a0 00000000 		.4byte	.LFB173
 9333 00a4 86000000 		.4byte	.LFE173
 9334 00a8 00000000 		.4byte	.LFB174
 9335 00ac 34000000 		.4byte	.LFE174
 9336 00b0 00000000 		.4byte	.LFB175
 9337 00b4 16000000 		.4byte	.LFE175
 9338 00b8 00000000 		.4byte	.LFB176
 9339 00bc 16000000 		.4byte	.LFE176
 9340 00c0 00000000 		.4byte	.LFB177
 9341 00c4 24000000 		.4byte	.LFE177
 9342 00c8 00000000 		.4byte	.LFB178
 9343 00cc 12000000 		.4byte	.LFE178
 9344 00d0 00000000 		.4byte	.LFB179
 9345 00d4 1A000000 		.4byte	.LFE179
 9346 00d8 00000000 		.4byte	.LFB180
 9347 00dc 12000000 		.4byte	.LFE180
 9348 00e0 00000000 		.4byte	.LFB181
 9349 00e4 1E000000 		.4byte	.LFE181
 9350 00e8 00000000 		.4byte	.LFB182
 9351 00ec 12000000 		.4byte	.LFE182
 9352 00f0 00000000 		.4byte	.LFB183
 9353 00f4 12000000 		.4byte	.LFE183
 9354 00f8 00000000 		.4byte	.LFB184
 9355 00fc 14000000 		.4byte	.LFE184
 9356 0100 00000000 		.4byte	.LFB185
 9357 0104 1A000000 		.4byte	.LFE185
 9358 0108 00000000 		.4byte	0
 9359 010c 00000000 		.4byte	0
 9360              		.section	.debug_line,"",%progbits
 9361              	.Ldebug_line0:
 9362 0000 D1080000 		.section	.debug_str,"MS",%progbits,1
ARM GAS  C:\Users\haske\AppData\Local\Temp\ccnNTYZ7.s 			page 179


 9362      0200F704 
 9362      00000201 
 9362      FB0E0D00 
 9362      01010101 
 9363              	.LASF487:
 9364 0000 4C565F43 		.ascii	"LV_COVER_RES_NOT_COVER\000"
 9364      4F564552 
 9364      5F524553 
 9364      5F4E4F54 
 9364      5F434F56 
 9365              	.LASF199:
 9366 0017 70726F70 		.ascii	"prop_cnt\000"
 9366      5F636E74 
 9366      00
 9367              	.LASF15:
 9368 0020 696E7438 		.ascii	"int8_t\000"
 9368      5F7400
 9369              	.LASF170:
 9370 0027 4C565F53 		.ascii	"LV_STYLE_OPA\000"
 9370      54594C45 
 9370      5F4F5041 
 9370      00
 9371              	.LASF353:
 9372 0034 636F6C6F 		.ascii	"color_chroma_key\000"
 9372      725F6368 
 9372      726F6D61 
 9372      5F6B6579 
 9372      00
 9373              	.LASF308:
 9374 0045 6C765F6C 		.ascii	"lv_ll_node_t\000"
 9374      6C5F6E6F 
 9374      64655F74 
 9374      00
 9375              	.LASF330:
 9376 0052 6C765F64 		.ascii	"lv_disp_draw_buf_t\000"
 9376      6973705F 
 9376      64726177 
 9376      5F627566 
 9376      5F7400
 9377              	.LASF21:
 9378 0065 73697A65 		.ascii	"size_t\000"
 9378      5F7400
 9379              	.LASF28:
 9380 006c 6164765F 		.ascii	"adv_w\000"
 9380      7700
 9381              	.LASF382:
 9382 0072 4C565F49 		.ascii	"LV_INDEV_TYPE_ENCODER\000"
 9382      4E444556 
 9382      5F545950 
 9382      455F454E 
 9382      434F4445 
 9383              	.LASF49:
 9384 0088 73697A65 		.ascii	"sizetype\000"
 9384      74797065 
 9384      00
 9385              	.LASF541:
 9386 0091 4C565F45 		.ascii	"LV_EVENT_DRAW_MAIN_BEGIN\000"
ARM GAS  C:\Users\haske\AppData\Local\Temp\ccnNTYZ7.s 			page 180


 9386      56454E54 
 9386      5F445241 
 9386      575F4D41 
 9386      494E5F42 
 9387              	.LASF618:
 9388 00aa 6C765F65 		.ascii	"lv_event_get_draw_part_dsc\000"
 9388      76656E74 
 9388      5F676574 
 9388      5F647261 
 9388      775F7061 
 9389              	.LASF154:
 9390 00c5 4C565F53 		.ascii	"LV_STYLE_LINE_DASH_GAP\000"
 9390      54594C45 
 9390      5F4C494E 
 9390      455F4441 
 9390      53485F47 
 9391              	.LASF606:
 9392 00dc 6C765F65 		.ascii	"lv_event_get_user_data\000"
 9392      76656E74 
 9392      5F676574 
 9392      5F757365 
 9392      725F6461 
 9393              	.LASF311:
 9394 00f3 7461696C 		.ascii	"tail\000"
 9394      00
 9395              	.LASF363:
 9396 00f8 6163745F 		.ascii	"act_scr\000"
 9396      73637200 
 9397              	.LASF368:
 9398 0100 73637265 		.ascii	"screen_cnt\000"
 9398      656E5F63 
 9398      6E7400
 9399              	.LASF299:
 9400 010b 64726177 		.ascii	"draw_bg\000"
 9400      5F626700 
 9401              	.LASF627:
 9402 0113 6C765F65 		.ascii	"lv_event_get_cover_area\000"
 9402      76656E74 
 9402      5F676574 
 9402      5F636F76 
 9402      65725F61 
 9403              	.LASF614:
 9404 012b 6C765F6F 		.ascii	"lv_obj_remove_event_cb_with_user_data\000"
 9404      626A5F72 
 9404      656D6F76 
 9404      655F6576 
 9404      656E745F 
 9405              	.LASF56:
 9406 0151 6C765F6F 		.ascii	"lv_opa_t\000"
 9406      70615F74 
 9406      00
 9407              	.LASF161:
 9408 015a 4C565F53 		.ascii	"LV_STYLE_ARC_OPA\000"
 9408      54594C45 
 9408      5F415243 
 9408      5F4F5041 
 9408      00
ARM GAS  C:\Users\haske\AppData\Local\Temp\ccnNTYZ7.s 			page 181


 9409              	.LASF268:
 9410 016b 7261775F 		.ascii	"raw_end\000"
 9410      656E6400 
 9411              	.LASF19:
 9412 0173 696E7433 		.ascii	"int32_t\000"
 9412      325F7400 
 9413              	.LASF479:
 9414 017b 6C765F73 		.ascii	"lv_scrollbar_mode_t\000"
 9414      63726F6C 
 9414      6C626172 
 9414      5F6D6F64 
 9414      655F7400 
 9415              	.LASF588:
 9416 018f 6C617965 		.ascii	"layer_type\000"
 9416      725F7479 
 9416      706500
 9417              	.LASF198:
 9418 019a 6861735F 		.ascii	"has_group\000"
 9418      67726F75 
 9418      7000
 9419              	.LASF550:
 9420 01a4 4C565F45 		.ascii	"LV_EVENT_INSERT\000"
 9420      56454E54 
 9420      5F494E53 
 9420      45525400 
 9421              	.LASF443:
 9422 01b4 66726F7A 		.ascii	"frozen\000"
 9422      656E00
 9423              	.LASF24:
 9424 01bb 6C765F70 		.ascii	"lv_point_t\000"
 9424      6F696E74 
 9424      5F7400
 9425              	.LASF531:
 9426 01c6 4C565F45 		.ascii	"LV_EVENT_SCROLL_END\000"
 9426      56454E54 
 9426      5F534352 
 9426      4F4C4C5F 
 9426      454E4400 
 9427              	.LASF486:
 9428 01da 4C565F43 		.ascii	"LV_COVER_RES_COVER\000"
 9428      4F564552 
 9428      5F524553 
 9428      5F434F56 
 9428      455200
 9429              	.LASF216:
 9430 01ed 72616469 		.ascii	"radius\000"
 9430      757300
 9431              	.LASF219:
 9432 01f4 62675F63 		.ascii	"bg_color\000"
 9432      6F6C6F72 
 9432      00
 9433              	.LASF36:
 9434 01fd 6C696E65 		.ascii	"line_height\000"
 9434      5F686569 
 9434      67687400 
 9435              	.LASF65:
 9436 0209 70617468 		.ascii	"path_cb\000"
ARM GAS  C:\Users\haske\AppData\Local\Temp\ccnNTYZ7.s 			page 182


 9436      5F636200 
 9437              	.LASF250:
 9438 0211 62696469 		.ascii	"bidi_dir\000"
 9438      5F646972 
 9438      00
 9439              	.LASF357:
 9440 021a 64726177 		.ascii	"draw_ctx_size\000"
 9440      5F637478 
 9440      5F73697A 
 9440      6500
 9441              	.LASF571:
 9442 0228 6C765F68 		.ascii	"lv_hit_test_info_t\000"
 9442      69745F74 
 9442      6573745F 
 9442      696E666F 
 9442      5F7400
 9443              	.LASF82:
 9444 023b 6C765F61 		.ascii	"lv_anim_get_value_cb_t\000"
 9444      6E696D5F 
 9444      6765745F 
 9444      76616C75 
 9444      655F6362 
 9445              	.LASF585:
 9446 0252 7363726F 		.ascii	"scroll_snap_x\000"
 9446      6C6C5F73 
 9446      6E61705F 
 9446      7800
 9447              	.LASF586:
 9448 0260 7363726F 		.ascii	"scroll_snap_y\000"
 9448      6C6C5F73 
 9448      6E61705F 
 9448      7900
 9449              	.LASF276:
 9450 026e 4C565F44 		.ascii	"LV_DRAW_LAYER_FLAG_HAS_ALPHA\000"
 9450      5241575F 
 9450      4C415945 
 9450      525F464C 
 9450      41475F48 
 9451              	.LASF497:
 9452 028b 74657874 		.ascii	"text_length\000"
 9452      5F6C656E 
 9452      67746800 
 9453              	.LASF569:
 9454 0297 6C765F65 		.ascii	"lv_event_t\000"
 9454      76656E74 
 9454      5F7400
 9455              	.LASF555:
 9456 02a2 4C565F45 		.ascii	"LV_EVENT_CHILD_CHANGED\000"
 9456      56454E54 
 9456      5F434849 
 9456      4C445F43 
 9456      48414E47 
 9457              	.LASF209:
 9458 02b9 73746174 		.ascii	"state\000"
 9458      6500
 9459              	.LASF105:
 9460 02bf 4C565F53 		.ascii	"LV_STYLE_HEIGHT\000"
ARM GAS  C:\Users\haske\AppData\Local\Temp\ccnNTYZ7.s 			page 183


 9460      54594C45 
 9460      5F484549 
 9460      47485400 
 9461              	.LASF318:
 9462 02cf 72657065 		.ascii	"repeat_count\000"
 9462      61745F63 
 9462      6F756E74 
 9462      00
 9463              	.LASF256:
 9464 02dc 7A6F6F6D 		.ascii	"zoom\000"
 9464      00
 9465              	.LASF483:
 9466 02e1 69735F6C 		.ascii	"is_local\000"
 9466      6F63616C 
 9466      00
 9467              	.LASF291:
 9468 02ea 64726177 		.ascii	"draw_rect\000"
 9468      5F726563 
 9468      7400
 9469              	.LASF314:
 9470 02f4 5F6C765F 		.ascii	"_lv_timer_t\000"
 9470      74696D65 
 9470      725F7400 
 9471              	.LASF46:
 9472 0300 4C565F52 		.ascii	"LV_RES_INV\000"
 9472      45535F49 
 9472      4E5600
 9473              	.LASF290:
 9474 030b 696E6974 		.ascii	"init_buf\000"
 9474      5F627566 
 9474      00
 9475              	.LASF502:
 9476 0314 636F6E73 		.ascii	"constructor_cb\000"
 9476      74727563 
 9476      746F725F 
 9476      636200
 9477              	.LASF273:
 9478 0323 726F756E 		.ascii	"rounded\000"
 9478      64656400 
 9479              	.LASF186:
 9480 032b 5F4C565F 		.ascii	"_LV_STYLE_LAST_BUILT_IN_PROP\000"
 9480      5354594C 
 9480      455F4C41 
 9480      53545F42 
 9480      55494C54 
 9481              	.LASF289:
 9482 0348 5F6C765F 		.ascii	"_lv_draw_ctx_t\000"
 9482      64726177 
 9482      5F637478 
 9482      5F7400
 9483              	.LASF393:
 9484 0357 74797065 		.ascii	"type\000"
 9484      00
 9485              	.LASF533:
 9486 035c 4C565F45 		.ascii	"LV_EVENT_GESTURE\000"
 9486      56454E54 
 9486      5F474553 
ARM GAS  C:\Users\haske\AppData\Local\Temp\ccnNTYZ7.s 			page 184


 9486      54555245 
 9486      00
 9487              	.LASF526:
 9488 036d 4C565F45 		.ascii	"LV_EVENT_LONG_PRESSED\000"
 9488      56454E54 
 9488      5F4C4F4E 
 9488      475F5052 
 9488      45535345 
 9489              	.LASF221:
 9490 0383 62675F69 		.ascii	"bg_img_src\000"
 9490      6D675F73 
 9490      726300
 9491              	.LASF136:
 9492 038e 4C565F53 		.ascii	"LV_STYLE_BORDER_WIDTH\000"
 9492      54594C45 
 9492      5F424F52 
 9492      4445525F 
 9492      57494454 
 9493              	.LASF556:
 9494 03a4 4C565F45 		.ascii	"LV_EVENT_CHILD_CREATED\000"
 9494      56454E54 
 9494      5F434849 
 9494      4C445F43 
 9494      52454154 
 9495              	.LASF118:
 9496 03bb 4C565F53 		.ascii	"LV_STYLE_PAD_COLUMN\000"
 9496      54594C45 
 9496      5F504144 
 9496      5F434F4C 
 9496      554D4E00 
 9497              	.LASF392:
 9498 03cf 5F6C765F 		.ascii	"_lv_indev_drv_t\000"
 9498      696E6465 
 9498      765F6472 
 9498      765F7400 
 9499              	.LASF577:
 9500 03df 6368696C 		.ascii	"children\000"
 9500      6472656E 
 9500      00
 9501              	.LASF387:
 9502 03e8 706F696E 		.ascii	"point\000"
 9502      7400
 9503              	.LASF128:
 9504 03ee 4C565F53 		.ascii	"LV_STYLE_BG_DITHER_MODE\000"
 9504      54594C45 
 9504      5F42475F 
 9504      44495448 
 9504      45525F4D 
 9505              	.LASF231:
 9506 0406 626F7264 		.ascii	"border_side\000"
 9506      65725F73 
 9506      69646500 
 9507              	.LASF1:
 9508 0412 5F5F7569 		.ascii	"__uint8_t\000"
 9508      6E74385F 
 9508      7400
 9509              	.LASF215:
ARM GAS  C:\Users\haske\AppData\Local\Temp\ccnNTYZ7.s 			page 185


 9510 041c 775F6C61 		.ascii	"w_layout\000"
 9510      796F7574 
 9510      00
 9511              	.LASF217:
 9512 0425 626C656E 		.ascii	"blend_mode\000"
 9512      645F6D6F 
 9512      646500
 9513              	.LASF112:
 9514 0430 4C565F53 		.ascii	"LV_STYLE_RADIUS\000"
 9514      54594C45 
 9514      5F524144 
 9514      49555300 
 9515              	.LASF333:
 9516 0440 7665725F 		.ascii	"ver_res\000"
 9516      72657300 
 9517              	.LASF211:
 9518 0448 7363725F 		.ascii	"scr_layout_inv\000"
 9518      6C61796F 
 9518      75745F69 
 9518      6E7600
 9519              	.LASF104:
 9520 0457 4C565F53 		.ascii	"LV_STYLE_MAX_WIDTH\000"
 9520      54594C45 
 9520      5F4D4158 
 9520      5F574944 
 9520      544800
 9521              	.LASF77:
 9522 046a 72756E5F 		.ascii	"run_round\000"
 9522      726F756E 
 9522      6400
 9523              	.LASF362:
 9524 0474 73637265 		.ascii	"screens\000"
 9524      656E7300 
 9525              	.LASF131:
 9526 047c 4C565F53 		.ascii	"LV_STYLE_BG_IMG_RECOLOR\000"
 9526      54594C45 
 9526      5F42475F 
 9526      494D475F 
 9526      5245434F 
 9527              	.LASF148:
 9528 0494 4C565F53 		.ascii	"LV_STYLE_SHADOW_OPA\000"
 9528      54594C45 
 9528      5F534841 
 9528      444F575F 
 9528      4F504100 
 9529              	.LASF600:
 9530 04a8 6C765F65 		.ascii	"lv_event_send\000"
 9530      76656E74 
 9530      5F73656E 
 9530      6400
 9531              	.LASF414:
 9532 04b6 7363726F 		.ascii	"scroll_obj\000"
 9532      6C6C5F6F 
 9532      626A00
 9533              	.LASF179:
 9534 04c1 4C565F53 		.ascii	"LV_STYLE_TRANSFORM_HEIGHT\000"
 9534      54594C45 
ARM GAS  C:\Users\haske\AppData\Local\Temp\ccnNTYZ7.s 			page 186


 9534      5F545241 
 9534      4E53464F 
 9534      524D5F48 
 9535              	.LASF453:
 9536 04db 4C565F4F 		.ascii	"LV_OBJ_FLAG_SCROLLABLE\000"
 9536      424A5F46 
 9536      4C41475F 
 9536      5343524F 
 9536      4C4C4142 
 9537              	.LASF116:
 9538 04f2 4C565F53 		.ascii	"LV_STYLE_PAD_RIGHT\000"
 9538      54594C45 
 9538      5F504144 
 9538      5F524947 
 9538      485400
 9539              	.LASF521:
 9540 0505 4C565F45 		.ascii	"LV_EVENT_ALL\000"
 9540      56454E54 
 9540      5F414C4C 
 9540      00
 9541              	.LASF635:
 9542 0512 2E2E5C2E 		.ascii	"..\\..\\..\\arduinoLCD\\test\\Pain Drain\\libraries"
 9542      2E5C2E2E 
 9542      5C617264 
 9542      75696E6F 
 9542      4C43445C 
 9543 053f 5C6C7667 		.ascii	"\\lvgl\\src\\core\\lv_event.c\000"
 9543      6C5C7372 
 9543      635C636F 
 9543      72655C6C 
 9543      765F6576 
 9544              	.LASF377:
 9545 0559 6C617374 		.ascii	"last_activity_time\000"
 9545      5F616374 
 9545      69766974 
 9545      795F7469 
 9545      6D6500
 9546              	.LASF9:
 9547 056c 6C6F6E67 		.ascii	"long int\000"
 9547      20696E74 
 9547      00
 9548              	.LASF176:
 9549 0575 4C565F53 		.ascii	"LV_STYLE_TRANSITION\000"
 9549      54594C45 
 9549      5F545241 
 9549      4E534954 
 9549      494F4E00 
 9550              	.LASF343:
 9551 0589 726F7461 		.ascii	"rotated\000"
 9551      74656400 
 9552              	.LASF418:
 9553 0591 7363726F 		.ascii	"scroll_dir\000"
 9553      6C6C5F64 
 9553      697200
 9554              	.LASF508:
 9555 059c 67726F75 		.ascii	"group_def\000"
 9555      705F6465 
ARM GAS  C:\Users\haske\AppData\Local\Temp\ccnNTYZ7.s 			page 187


 9555      6600
 9556              	.LASF621:
 9557 05a6 6C765F65 		.ascii	"lv_event_get_key\000"
 9557      76656E74 
 9557      5F676574 
 9557      5F6B6579 
 9557      00
 9558              	.LASF356:
 9559 05b7 64726177 		.ascii	"draw_ctx_deinit\000"
 9559      5F637478 
 9559      5F646569 
 9559      6E697400 
 9560              	.LASF421:
 9561 05c7 6C617374 		.ascii	"last_state\000"
 9561      5F737461 
 9561      746500
 9562              	.LASF218:
 9563 05d2 62675F6F 		.ascii	"bg_opa\000"
 9563      706100
 9564              	.LASF360:
 9565 05d9 72656672 		.ascii	"refr_timer\000"
 9565      5F74696D 
 9565      657200
 9566              	.LASF254:
 9567 05e4 6C765F64 		.ascii	"lv_draw_label_dsc_t\000"
 9567      7261775F 
 9567      6C616265 
 9567      6C5F6473 
 9567      635F7400 
 9568              	.LASF448:
 9569 05f8 6C765F73 		.ascii	"lv_state_t\000"
 9569      74617465 
 9569      5F7400
 9570              	.LASF466:
 9571 0603 4C565F4F 		.ascii	"LV_OBJ_FLAG_ADV_HITTEST\000"
 9571      424A5F46 
 9571      4C41475F 
 9571      4144565F 
 9571      48495454 
 9572              	.LASF247:
 9573 061b 73656C5F 		.ascii	"sel_bg_color\000"
 9573      62675F63 
 9573      6F6C6F72 
 9573      00
 9574              	.LASF490:
 9575 0628 64726177 		.ascii	"draw_area\000"
 9575      5F617265 
 9575      6100
 9576              	.LASF615:
 9577 0632 6C765F6F 		.ascii	"lv_obj_remove_event_dsc\000"
 9577      626A5F72 
 9577      656D6F76 
 9577      655F6576 
 9577      656E745F 
 9578              	.LASF461:
 9579 064a 4C565F4F 		.ascii	"LV_OBJ_FLAG_SCROLL_WITH_ARROW\000"
 9579      424A5F46 
ARM GAS  C:\Users\haske\AppData\Local\Temp\ccnNTYZ7.s 			page 188


 9579      4C41475F 
 9579      5343524F 
 9579      4C4C5F57 
 9580              	.LASF442:
 9581 0668 65646765 		.ascii	"edge_cb\000"
 9581      5F636200 
 9582              	.LASF374:
 9583 0670 696E765F 		.ascii	"inv_area_joined\000"
 9583      61726561 
 9583      5F6A6F69 
 9583      6E656400 
 9584              	.LASF133:
 9585 0680 4C565F53 		.ascii	"LV_STYLE_BG_IMG_TILED\000"
 9585      54594C45 
 9585      5F42475F 
 9585      494D475F 
 9585      54494C45 
 9586              	.LASF365:
 9587 0696 7363725F 		.ascii	"scr_to_load\000"
 9587      746F5F6C 
 9587      6F616400 
 9588              	.LASF310:
 9589 06a2 68656164 		.ascii	"head\000"
 9589      00
 9590              	.LASF135:
 9591 06a7 4C565F53 		.ascii	"LV_STYLE_BORDER_OPA\000"
 9591      54594C45 
 9591      5F424F52 
 9591      4445525F 
 9591      4F504100 
 9592              	.LASF394:
 9593 06bb 72656164 		.ascii	"read_cb\000"
 9593      5F636200 
 9594              	.LASF548:
 9595 06c3 4C565F45 		.ascii	"LV_EVENT_DRAW_PART_END\000"
 9595      56454E54 
 9595      5F445241 
 9595      575F5041 
 9595      52545F45 
 9596              	.LASF75:
 9597 06da 6561726C 		.ascii	"early_apply\000"
 9597      795F6170 
 9597      706C7900 
 9598              	.LASF328:
 9599 06e6 6C617374 		.ascii	"last_area\000"
 9599      5F617265 
 9599      6100
 9600              	.LASF417:
 9601 06f0 67657374 		.ascii	"gesture_sum\000"
 9601      7572655F 
 9601      73756D00 
 9602              	.LASF301:
 9603 06fc 62756666 		.ascii	"buffer_copy\000"
 9603      65725F63 
 9603      6F707900 
 9604              	.LASF415:
 9605 0708 6C617374 		.ascii	"last_pressed\000"
ARM GAS  C:\Users\haske\AppData\Local\Temp\ccnNTYZ7.s 			page 189


 9605      5F707265 
 9605      73736564 
 9605      00
 9606              	.LASF622:
 9607 0715 6C765F65 		.ascii	"lv_event_get_scroll_anim\000"
 9607      76656E74 
 9607      5F676574 
 9607      5F736372 
 9607      6F6C6C5F 
 9608              	.LASF232:
 9609 072e 6F75746C 		.ascii	"outline_color\000"
 9609      696E655F 
 9609      636F6C6F 
 9609      7200
 9610              	.LASF147:
 9611 073c 4C565F53 		.ascii	"LV_STYLE_SHADOW_COLOR\000"
 9611      54594C45 
 9611      5F534841 
 9611      444F575F 
 9611      434F4C4F 
 9612              	.LASF213:
 9613 0752 7374796C 		.ascii	"style_cnt\000"
 9613      655F636E 
 9613      7400
 9614              	.LASF210:
 9615 075c 6C61796F 		.ascii	"layout_inv\000"
 9615      75745F69 
 9615      6E7600
 9616              	.LASF2:
 9617 0767 7369676E 		.ascii	"signed char\000"
 9617      65642063 
 9617      68617200 
 9618              	.LASF16:
 9619 0773 75696E74 		.ascii	"uint8_t\000"
 9619      385F7400 
 9620              	.LASF296:
 9621 077b 64726177 		.ascii	"draw_line\000"
 9621      5F6C696E 
 9621      6500
 9622              	.LASF332:
 9623 0785 686F725F 		.ascii	"hor_res\000"
 9623      72657300 
 9624              	.LASF601:
 9625 078d 6576656E 		.ascii	"event_code\000"
 9625      745F636F 
 9625      646500
 9626              	.LASF470:
 9627 0798 4C565F4F 		.ascii	"LV_OBJ_FLAG_LAYOUT_1\000"
 9627      424A5F46 
 9627      4C41475F 
 9627      4C41594F 
 9627      55545F31 
 9628              	.LASF471:
 9629 07ad 4C565F4F 		.ascii	"LV_OBJ_FLAG_LAYOUT_2\000"
 9629      424A5F46 
 9629      4C41475F 
 9629      4C41594F 
ARM GAS  C:\Users\haske\AppData\Local\Temp\ccnNTYZ7.s 			page 190


 9629      55545F32 
 9630              	.LASF226:
 9631 07c2 62675F69 		.ascii	"bg_img_tiled\000"
 9631      6D675F74 
 9631      696C6564 
 9631      00
 9632              	.LASF124:
 9633 07cf 4C565F53 		.ascii	"LV_STYLE_BG_GRAD_DIR\000"
 9633      54594C45 
 9633      5F42475F 
 9633      47524144 
 9633      5F444952 
 9634              	.LASF35:
 9635 07e4 6765745F 		.ascii	"get_glyph_bitmap\000"
 9635      676C7970 
 9635      685F6269 
 9635      746D6170 
 9635      00
 9636              	.LASF61:
 9637 07f5 73746172 		.ascii	"start_cb\000"
 9637      745F6362 
 9637      00
 9638              	.LASF271:
 9639 07fe 656E645F 		.ascii	"end_angle\000"
 9639      616E676C 
 9639      6500
 9640              	.LASF51:
 9641 0808 626C7565 		.ascii	"blue\000"
 9641      00
 9642              	.LASF459:
 9643 080d 4C565F4F 		.ascii	"LV_OBJ_FLAG_SCROLL_CHAIN\000"
 9643      424A5F46 
 9643      4C41475F 
 9643      5343524F 
 9643      4C4C5F43 
 9644              	.LASF224:
 9645 0826 62675F69 		.ascii	"bg_img_opa\000"
 9645      6D675F6F 
 9645      706100
 9646              	.LASF535:
 9647 0831 4C565F45 		.ascii	"LV_EVENT_FOCUSED\000"
 9647      56454E54 
 9647      5F464F43 
 9647      55534544 
 9647      00
 9648              	.LASF472:
 9649 0842 4C565F4F 		.ascii	"LV_OBJ_FLAG_WIDGET_1\000"
 9649      424A5F46 
 9649      4C41475F 
 9649      57494447 
 9649      45545F31 
 9650              	.LASF473:
 9651 0857 4C565F4F 		.ascii	"LV_OBJ_FLAG_WIDGET_2\000"
 9651      424A5F46 
 9651      4C41475F 
 9651      57494447 
 9651      45545F32 
ARM GAS  C:\Users\haske\AppData\Local\Temp\ccnNTYZ7.s 			page 191


 9652              	.LASF66:
 9653 086c 73746172 		.ascii	"start_value\000"
 9653      745F7661 
 9653      6C756500 
 9654              	.LASF110:
 9655 0878 4C565F53 		.ascii	"LV_STYLE_ALIGN\000"
 9655      54594C45 
 9655      5F414C49 
 9655      474E00
 9656              	.LASF3:
 9657 0887 756E7369 		.ascii	"unsigned char\000"
 9657      676E6564 
 9657      20636861 
 9657      7200
 9658              	.LASF366:
 9659 0895 746F705F 		.ascii	"top_layer\000"
 9659      6C617965 
 9659      7200
 9660              	.LASF430:
 9661 089f 74797065 		.ascii	"types\000"
 9661      7300
 9662              	.LASF565:
 9663 08a5 4C565F45 		.ascii	"LV_EVENT_GET_SELF_SIZE\000"
 9663      56454E54 
 9663      5F474554 
 9663      5F53454C 
 9663      465F5349 
 9664              	.LASF542:
 9665 08bc 4C565F45 		.ascii	"LV_EVENT_DRAW_MAIN\000"
 9665      56454E54 
 9665      5F445241 
 9665      575F4D41 
 9665      494E00
 9666              	.LASF578:
 9667 08cf 6368696C 		.ascii	"child_cnt\000"
 9667      645F636E 
 9667      7400
 9668              	.LASF269:
 9669 08d9 6C765F64 		.ascii	"lv_draw_line_dsc_t\000"
 9669      7261775F 
 9669      6C696E65 
 9669      5F647363 
 9669      5F7400
 9670              	.LASF184:
 9671 08ec 4C565F53 		.ascii	"LV_STYLE_TRANSFORM_PIVOT_X\000"
 9671      54594C45 
 9671      5F545241 
 9671      4E53464F 
 9671      524D5F50 
 9672              	.LASF185:
 9673 0907 4C565F53 		.ascii	"LV_STYLE_TRANSFORM_PIVOT_Y\000"
 9673      54594C45 
 9673      5F545241 
 9673      4E53464F 
 9673      524D5F50 
 9674              	.LASF576:
 9675 0922 6C765F67 		.ascii	"lv_group_t\000"
ARM GAS  C:\Users\haske\AppData\Local\Temp\ccnNTYZ7.s 			page 192


 9675      726F7570 
 9675      5F7400
 9676              	.LASF384:
 9677 092d 4C565F49 		.ascii	"LV_INDEV_STATE_RELEASED\000"
 9677      4E444556 
 9677      5F535441 
 9677      54455F52 
 9677      454C4541 
 9678              	.LASF150:
 9679 0945 4C565F53 		.ascii	"LV_STYLE_IMG_RECOLOR\000"
 9679      54594C45 
 9679      5F494D47 
 9679      5F524543 
 9679      4F4C4F52 
 9680              	.LASF284:
 9681 095a 61726561 		.ascii	"area_act\000"
 9681      5F616374 
 9681      00
 9682              	.LASF158:
 9683 0963 4C565F53 		.ascii	"LV_STYLE_ARC_WIDTH\000"
 9683      54594C45 
 9683      5F415243 
 9683      5F574944 
 9683      544800
 9684              	.LASF31:
 9685 0976 6F66735F 		.ascii	"ofs_x\000"
 9685      7800
 9686              	.LASF32:
 9687 097c 6F66735F 		.ascii	"ofs_y\000"
 9687      7900
 9688              	.LASF87:
 9689 0982 6C765F62 		.ascii	"lv_base_dir_t\000"
 9689      6173655F 
 9689      6469725F 
 9689      7400
 9690              	.LASF371:
 9691 0990 72656E64 		.ascii	"rendering_in_progress\000"
 9691      6572696E 
 9691      675F696E 
 9691      5F70726F 
 9691      67726573 
 9692              	.LASF214:
 9693 09a6 685F6C61 		.ascii	"h_layout\000"
 9693      796F7574 
 9693      00
 9694              	.LASF327:
 9695 09af 666C7573 		.ascii	"flushing_last\000"
 9695      68696E67 
 9695      5F6C6173 
 9695      7400
 9696              	.LASF44:
 9697 09bd 5F426F6F 		.ascii	"_Bool\000"
 9697      6C00
 9698              	.LASF584:
 9699 09c3 7363726F 		.ascii	"scrollbar_mode\000"
 9699      6C6C6261 
 9699      725F6D6F 
ARM GAS  C:\Users\haske\AppData\Local\Temp\ccnNTYZ7.s 			page 193


 9699      646500
 9700              	.LASF335:
 9701 09d2 70687973 		.ascii	"physical_ver_res\000"
 9701      6963616C 
 9701      5F766572 
 9701      5F726573 
 9701      00
 9702              	.LASF287:
 9703 09e3 6F726967 		.ascii	"original\000"
 9703      696E616C 
 9703      00
 9704              	.LASF180:
 9705 09ec 4C565F53 		.ascii	"LV_STYLE_TRANSLATE_X\000"
 9705      54594C45 
 9705      5F545241 
 9705      4E534C41 
 9705      54455F58 
 9706              	.LASF181:
 9707 0a01 4C565F53 		.ascii	"LV_STYLE_TRANSLATE_Y\000"
 9707      54594C45 
 9707      5F545241 
 9707      4E534C41 
 9707      54455F59 
 9708              	.LASF132:
 9709 0a16 4C565F53 		.ascii	"LV_STYLE_BG_IMG_RECOLOR_OPA\000"
 9709      54594C45 
 9709      5F42475F 
 9709      494D475F 
 9709      5245434F 
 9710              	.LASF625:
 9711 0a32 6C765F65 		.ascii	"lv_event_get_self_size_info\000"
 9711      76656E74 
 9711      5F676574 
 9711      5F73656C 
 9711      665F7369 
 9712              	.LASF518:
 9713 0a4e 73746F70 		.ascii	"stop_processing\000"
 9713      5F70726F 
 9713      63657373 
 9713      696E6700 
 9714              	.LASF192:
 9715 0a5e 76616C75 		.ascii	"value\000"
 9715      6500
 9716              	.LASF208:
 9717 0a64 666C6167 		.ascii	"flags\000"
 9717      7300
 9718              	.LASF278:
 9719 0a6a 6C765F64 		.ascii	"lv_draw_layer_flags_t\000"
 9719      7261775F 
 9719      6C617965 
 9719      725F666C 
 9719      6167735F 
 9720              	.LASF610:
 9721 0a80 6C617374 		.ascii	"last_id\000"
 9721      5F696400 
 9722              	.LASF50:
 9723 0a88 63686172 		.ascii	"char\000"
ARM GAS  C:\Users\haske\AppData\Local\Temp\ccnNTYZ7.s 			page 194


 9723      00
 9724              	.LASF262:
 9725 0a8d 6C765F64 		.ascii	"lv_draw_img_dsc_t\000"
 9725      7261775F 
 9725      696D675F 
 9725      6473635F 
 9725      7400
 9726              	.LASF388:
 9727 0a9f 62746E5F 		.ascii	"btn_id\000"
 9727      696400
 9728              	.LASF79:
 9729 0aa6 6C765F61 		.ascii	"lv_anim_exec_xcb_t\000"
 9729      6E696D5F 
 9729      65786563 
 9729      5F786362 
 9729      5F7400
 9730              	.LASF39:
 9731 0ab9 756E6465 		.ascii	"underline_position\000"
 9731      726C696E 
 9731      655F706F 
 9731      73697469 
 9731      6F6E00
 9732              	.LASF306:
 9733 0acc 6C617965 		.ascii	"layer_instance_size\000"
 9733      725F696E 
 9733      7374616E 
 9733      63655F73 
 9733      697A6500 
 9734              	.LASF265:
 9735 0ae0 64617368 		.ascii	"dash_gap\000"
 9735      5F676170 
 9735      00
 9736              	.LASF298:
 9737 0ae9 64726177 		.ascii	"draw_transform\000"
 9737      5F747261 
 9737      6E73666F 
 9737      726D00
 9738              	.LASF339:
 9739 0af8 64697265 		.ascii	"direct_mode\000"
 9739      63745F6D 
 9739      6F646500 
 9740              	.LASF539:
 9741 0b04 4C565F45 		.ascii	"LV_EVENT_COVER_CHECK\000"
 9741      56454E54 
 9741      5F434F56 
 9741      45525F43 
 9741      4845434B 
 9742              	.LASF119:
 9743 0b19 4C565F53 		.ascii	"LV_STYLE_BASE_DIR\000"
 9743      54594C45 
 9743      5F424153 
 9743      455F4449 
 9743      5200
 9744              	.LASF205:
 9745 0b2b 73706563 		.ascii	"spec_attr\000"
 9745      5F617474 
 9745      7200
ARM GAS  C:\Users\haske\AppData\Local\Temp\ccnNTYZ7.s 			page 195


 9746              	.LASF141:
 9747 0b35 4C565F53 		.ascii	"LV_STYLE_OUTLINE_OPA\000"
 9747      54594C45 
 9747      5F4F5554 
 9747      4C494E45 
 9747      5F4F5041 
 9748              	.LASF97:
 9749 0b4a 73746F70 		.ascii	"stops_count\000"
 9749      735F636F 
 9749      756E7400 
 9750              	.LASF342:
 9751 0b56 616E7469 		.ascii	"antialiasing\000"
 9751      616C6961 
 9751      73696E67 
 9751      00
 9752              	.LASF6:
 9753 0b63 5F5F7569 		.ascii	"__uint16_t\000"
 9753      6E743136 
 9753      5F7400
 9754              	.LASF416:
 9755 0b6e 7363726F 		.ascii	"scroll_area\000"
 9755      6C6C5F61 
 9755      72656100 
 9756              	.LASF538:
 9757 0b7a 4C565F45 		.ascii	"LV_EVENT_HIT_TEST\000"
 9757      56454E54 
 9757      5F484954 
 9757      5F544553 
 9757      5400
 9758              	.LASF603:
 9759 0b8c 6C765F65 		.ascii	"lv_event_get_current_target\000"
 9759      76656E74 
 9759      5F676574 
 9759      5F637572 
 9759      72656E74 
 9760              	.LASF591:
 9761 0ba8 5F6C765F 		.ascii	"_lv_obj_spec_attr_t\000"
 9761      6F626A5F 
 9761      73706563 
 9761      5F617474 
 9761      725F7400 
 9762              	.LASF234:
 9763 0bbc 6F75746C 		.ascii	"outline_pad\000"
 9763      696E655F 
 9763      70616400 
 9764              	.LASF307:
 9765 0bc8 6C765F64 		.ascii	"lv_draw_ctx_t\000"
 9765      7261775F 
 9765      6374785F 
 9765      7400
 9766              	.LASF121:
 9767 0bd6 4C565F53 		.ascii	"LV_STYLE_BG_COLOR\000"
 9767      54594C45 
 9767      5F42475F 
 9767      434F4C4F 
 9767      5200
 9768              	.LASF151:
ARM GAS  C:\Users\haske\AppData\Local\Temp\ccnNTYZ7.s 			page 196


 9769 0be8 4C565F53 		.ascii	"LV_STYLE_IMG_RECOLOR_OPA\000"
 9769      54594C45 
 9769      5F494D47 
 9769      5F524543 
 9769      4F4C4F52 
 9770              	.LASF434:
 9771 0c01 70726F63 		.ascii	"proc\000"
 9771      00
 9772              	.LASF227:
 9773 0c06 626F7264 		.ascii	"border_color\000"
 9773      65725F63 
 9773      6F6C6F72 
 9773      00
 9774              	.LASF177:
 9775 0c13 4C565F53 		.ascii	"LV_STYLE_BLEND_MODE\000"
 9775      54594C45 
 9775      5F424C45 
 9775      4E445F4D 
 9775      4F444500 
 9776              	.LASF26:
 9777 0c27 6C765F64 		.ascii	"lv_dir_t\000"
 9777      69725F74 
 9777      00
 9778              	.LASF560:
 9779 0c30 4C565F45 		.ascii	"LV_EVENT_SCREEN_LOADED\000"
 9779      56454E54 
 9779      5F534352 
 9779      45454E5F 
 9779      4C4F4144 
 9780              	.LASF191:
 9781 0c47 70726F70 		.ascii	"prop\000"
 9781      00
 9782              	.LASF196:
 9783 0c4c 636F6E73 		.ascii	"const_props\000"
 9783      745F7072 
 9783      6F707300 
 9784              	.LASF485:
 9785 0c58 5F6C765F 		.ascii	"_lv_obj_style_t\000"
 9785      6F626A5F 
 9785      7374796C 
 9785      655F7400 
 9786              	.LASF230:
 9787 0c68 626F7264 		.ascii	"border_post\000"
 9787      65725F70 
 9787      6F737400 
 9788              	.LASF580:
 9789 0c74 6576656E 		.ascii	"event_dsc\000"
 9789      745F6473 
 9789      6300
 9790              	.LASF326:
 9791 0c7e 666C7573 		.ascii	"flushing\000"
 9791      68696E67 
 9791      00
 9792              	.LASF153:
 9793 0c87 4C565F53 		.ascii	"LV_STYLE_LINE_DASH_WIDTH\000"
 9793      54594C45 
 9793      5F4C494E 
ARM GAS  C:\Users\haske\AppData\Local\Temp\ccnNTYZ7.s 			page 197


 9793      455F4441 
 9793      53485F57 
 9794              	.LASF628:
 9795 0ca0 6C765F65 		.ascii	"lv_event_set_cover_res\000"
 9795      76656E74 
 9795      5F736574 
 9795      5F636F76 
 9795      65725F72 
 9796              	.LASF62:
 9797 0cb7 72656164 		.ascii	"ready_cb\000"
 9797      795F6362 
 9797      00
 9798              	.LASF496:
 9799 0cc0 74657874 		.ascii	"text\000"
 9799      00
 9800              	.LASF238:
 9801 0cc5 73686164 		.ascii	"shadow_ofs_x\000"
 9801      6F775F6F 
 9801      66735F78 
 9801      00
 9802              	.LASF178:
 9803 0cd2 4C565F53 		.ascii	"LV_STYLE_TRANSFORM_WIDTH\000"
 9803      54594C45 
 9803      5F545241 
 9803      4E53464F 
 9803      524D5F57 
 9804              	.LASF320:
 9805 0ceb 6C765F74 		.ascii	"lv_timer_t\000"
 9805      696D6572 
 9805      5F7400
 9806              	.LASF579:
 9807 0cf6 67726F75 		.ascii	"group_p\000"
 9807      705F7000 
 9808              	.LASF190:
 9809 0cfe 6C765F73 		.ascii	"lv_style_prop_t\000"
 9809      74796C65 
 9809      5F70726F 
 9809      705F7400 
 9810              	.LASF464:
 9811 0d0e 4C565F4F 		.ascii	"LV_OBJ_FLAG_EVENT_BUBBLE\000"
 9811      424A5F46 
 9811      4C41475F 
 9811      4556454E 
 9811      545F4255 
 9812              	.LASF266:
 9813 0d27 726F756E 		.ascii	"round_start\000"
 9813      645F7374 
 9813      61727400 
 9814              	.LASF581:
 9815 0d33 7363726F 		.ascii	"scroll\000"
 9815      6C6C00
 9816              	.LASF41:
 9817 0d3a 66616C6C 		.ascii	"fallback\000"
 9817      6261636B 
 9817      00
 9818              	.LASF195:
 9819 0d43 76616C75 		.ascii	"values_and_props\000"
ARM GAS  C:\Users\haske\AppData\Local\Temp\ccnNTYZ7.s 			page 198


 9819      65735F61 
 9819      6E645F70 
 9819      726F7073 
 9819      00
 9820              	.LASF631:
 9821 0d54 6C765F69 		.ascii	"lv_indev_get_act\000"
 9821      6E646576 
 9821      5F676574 
 9821      5F616374 
 9821      00
 9822              	.LASF386:
 9823 0d65 6C765F69 		.ascii	"lv_indev_state_t\000"
 9823      6E646576 
 9823      5F737461 
 9823      74655F74 
 9823      00
 9824              	.LASF341:
 9825 0d76 73775F72 		.ascii	"sw_rotate\000"
 9825      6F746174 
 9825      6500
 9826              	.LASF499:
 9827 0d80 7375625F 		.ascii	"sub_part_ptr\000"
 9827      70617274 
 9827      5F707472 
 9827      00
 9828              	.LASF175:
 9829 0d8d 4C565F53 		.ascii	"LV_STYLE_ANIM_SPEED\000"
 9829      54594C45 
 9829      5F414E49 
 9829      4D5F5350 
 9829      45454400 
 9830              	.LASF25:
 9831 0da1 6C765F61 		.ascii	"lv_area_t\000"
 9831      7265615F 
 9831      7400
 9832              	.LASF302:
 9833 0dab 6C617965 		.ascii	"layer_init\000"
 9833      725F696E 
 9833      697400
 9834              	.LASF139:
 9835 0db6 4C565F53 		.ascii	"LV_STYLE_OUTLINE_WIDTH\000"
 9835      54594C45 
 9835      5F4F5554 
 9835      4C494E45 
 9835      5F574944 
 9836              	.LASF583:
 9837 0dcd 6578745F 		.ascii	"ext_draw_size\000"
 9837      64726177 
 9837      5F73697A 
 9837      6500
 9838              	.LASF491:
 9839 0ddb 72656374 		.ascii	"rect_dsc\000"
 9839      5F647363 
 9839      00
 9840              	.LASF474:
 9841 0de4 4C565F4F 		.ascii	"LV_OBJ_FLAG_USER_1\000"
 9841      424A5F46 
ARM GAS  C:\Users\haske\AppData\Local\Temp\ccnNTYZ7.s 			page 199


 9841      4C41475F 
 9841      55534552 
 9841      5F3100
 9842              	.LASF475:
 9843 0df7 4C565F4F 		.ascii	"LV_OBJ_FLAG_USER_2\000"
 9843      424A5F46 
 9843      4C41475F 
 9843      55534552 
 9843      5F3200
 9844              	.LASF476:
 9845 0e0a 4C565F4F 		.ascii	"LV_OBJ_FLAG_USER_3\000"
 9845      424A5F46 
 9845      4C41475F 
 9845      55534552 
 9845      5F3300
 9846              	.LASF477:
 9847 0e1d 4C565F4F 		.ascii	"LV_OBJ_FLAG_USER_4\000"
 9847      424A5F46 
 9847      4C41475F 
 9847      55534552 
 9847      5F3400
 9848              	.LASF528:
 9849 0e30 4C565F45 		.ascii	"LV_EVENT_CLICKED\000"
 9849      56454E54 
 9849      5F434C49 
 9849      434B4544 
 9849      00
 9850              	.LASF101:
 9851 0e41 4C565F53 		.ascii	"LV_STYLE_PROP_INV\000"
 9851      54594C45 
 9851      5F50524F 
 9851      505F494E 
 9851      5600
 9852              	.LASF167:
 9853 0e53 4C565F53 		.ascii	"LV_STYLE_TEXT_LINE_SPACE\000"
 9853      54594C45 
 9853      5F544558 
 9853      545F4C49 
 9853      4E455F53 
 9854              	.LASF520:
 9855 0e6c 6C765F6F 		.ascii	"lv_obj_class_t\000"
 9855      626A5F63 
 9855      6C617373 
 9855      5F7400
 9856              	.LASF193:
 9857 0e7b 6C765F73 		.ascii	"lv_style_const_prop_t\000"
 9857      74796C65 
 9857      5F636F6E 
 9857      73745F70 
 9857      726F705F 
 9858              	.LASF543:
 9859 0e91 4C565F45 		.ascii	"LV_EVENT_DRAW_MAIN_END\000"
 9859      56454E54 
 9859      5F445241 
 9859      575F4D41 
 9859      494E5F45 
 9860              	.LASF423:
ARM GAS  C:\Users\haske\AppData\Local\Temp\ccnNTYZ7.s 			page 200


 9861 0ea8 706F696E 		.ascii	"pointer\000"
 9861      74657200 
 9862              	.LASF204:
 9863 0eb0 70617265 		.ascii	"parent\000"
 9863      6E7400
 9864              	.LASF340:
 9865 0eb7 66756C6C 		.ascii	"full_refresh\000"
 9865      5F726566 
 9865      72657368 
 9865      00
 9866              	.LASF267:
 9867 0ec4 726F756E 		.ascii	"round_end\000"
 9867      645F656E 
 9867      6400
 9868              	.LASF80:
 9869 0ece 6C765F61 		.ascii	"lv_anim_ready_cb_t\000"
 9869      6E696D5F 
 9869      72656164 
 9869      795F6362 
 9869      5F7400
 9870              	.LASF272:
 9871 0ee1 696D675F 		.ascii	"img_src\000"
 9871      73726300 
 9872              	.LASF484:
 9873 0ee9 69735F74 		.ascii	"is_trans\000"
 9873      72616E73 
 9873      00
 9874              	.LASF447:
 9875 0ef2 6C765F69 		.ascii	"lv_indev_t\000"
 9875      6E646576 
 9875      5F7400
 9876              	.LASF437:
 9877 0efd 62746E5F 		.ascii	"btn_points\000"
 9877      706F696E 
 9877      747300
 9878              	.LASF494:
 9879 0f08 696D675F 		.ascii	"img_dsc\000"
 9879      64736300 
 9880              	.LASF240:
 9881 0f10 73686164 		.ascii	"shadow_spread\000"
 9881      6F775F73 
 9881      70726561 
 9881      6400
 9882              	.LASF174:
 9883 0f1e 4C565F53 		.ascii	"LV_STYLE_ANIM_TIME\000"
 9883      54594C45 
 9883      5F414E49 
 9883      4D5F5449 
 9883      4D4500
 9884              	.LASF71:
 9885 0f31 706C6179 		.ascii	"playback_delay\000"
 9885      6261636B 
 9885      5F64656C 
 9885      617900
 9886              	.LASF429:
 9887 0f40 77616974 		.ascii	"wait_until_release\000"
 9887      5F756E74 
ARM GAS  C:\Users\haske\AppData\Local\Temp\ccnNTYZ7.s 			page 201


 9887      696C5F72 
 9887      656C6561 
 9887      736500
 9888              	.LASF616:
 9889 0f53 6C765F6F 		.ascii	"lv_obj_get_event_user_data\000"
 9889      626A5F67 
 9889      65745F65 
 9889      76656E74 
 9889      5F757365 
 9890              	.LASF114:
 9891 0f6e 4C565F53 		.ascii	"LV_STYLE_PAD_BOTTOM\000"
 9891      54594C45 
 9891      5F504144 
 9891      5F424F54 
 9891      544F4D00 
 9892              	.LASF505:
 9893 0f82 77696474 		.ascii	"width_def\000"
 9893      685F6465 
 9893      6600
 9894              	.LASF468:
 9895 0f8c 4C565F4F 		.ascii	"LV_OBJ_FLAG_FLOATING\000"
 9895      424A5F46 
 9895      4C41475F 
 9895      464C4F41 
 9895      54494E47 
 9896              	.LASF572:
 9897 0fa1 61726561 		.ascii	"area\000"
 9897      00
 9898              	.LASF458:
 9899 0fa6 4C565F4F 		.ascii	"LV_OBJ_FLAG_SCROLL_CHAIN_VER\000"
 9899      424A5F46 
 9899      4C41475F 
 9899      5343524F 
 9899      4C4C5F43 
 9900              	.LASF347:
 9901 0fc3 636C6561 		.ascii	"clear_cb\000"
 9901      725F6362 
 9901      00
 9902              	.LASF122:
 9903 0fcc 4C565F53 		.ascii	"LV_STYLE_BG_OPA\000"
 9903      54594C45 
 9903      5F42475F 
 9903      4F504100 
 9904              	.LASF157:
 9905 0fdc 4C565F53 		.ascii	"LV_STYLE_LINE_OPA\000"
 9905      54594C45 
 9905      5F4C494E 
 9905      455F4F50 
 9905      4100
 9906              	.LASF200:
 9907 0fee 6C765F73 		.ascii	"lv_style_t\000"
 9907      74796C65 
 9907      5F7400
 9908              	.LASF602:
 9909 0ff9 6C765F65 		.ascii	"lv_event_get_target\000"
 9909      76656E74 
 9909      5F676574 
ARM GAS  C:\Users\haske\AppData\Local\Temp\ccnNTYZ7.s 			page 202


 9909      5F746172 
 9909      67657400 
 9910              	.LASF125:
 9911 100d 4C565F53 		.ascii	"LV_STYLE_BG_MAIN_STOP\000"
 9911      54594C45 
 9911      5F42475F 
 9911      4D41494E 
 9911      5F53544F 
 9912              	.LASF469:
 9913 1023 4C565F4F 		.ascii	"LV_OBJ_FLAG_OVERFLOW_VISIBLE\000"
 9913      424A5F46 
 9913      4C41475F 
 9913      4F564552 
 9913      464C4F57 
 9914              	.LASF206:
 9915 1040 7374796C 		.ascii	"styles\000"
 9915      657300
 9916              	.LASF390:
 9917 1047 636F6E74 		.ascii	"continue_reading\000"
 9917      696E7565 
 9917      5F726561 
 9917      64696E67 
 9917      00
 9918              	.LASF88:
 9919 1058 6C765F62 		.ascii	"lv_blend_mode_t\000"
 9919      6C656E64 
 9919      5F6D6F64 
 9919      655F7400 
 9920              	.LASF149:
 9921 1068 4C565F53 		.ascii	"LV_STYLE_IMG_OPA\000"
 9921      54594C45 
 9921      5F494D47 
 9921      5F4F5041 
 9921      00
 9922              	.LASF182:
 9923 1079 4C565F53 		.ascii	"LV_STYLE_TRANSFORM_ZOOM\000"
 9923      54594C45 
 9923      5F545241 
 9923      4E53464F 
 9923      524D5F5A 
 9924              	.LASF537:
 9925 1091 4C565F45 		.ascii	"LV_EVENT_LEAVE\000"
 9925      56454E54 
 9925      5F4C4541 
 9925      564500
 9926              	.LASF84:
 9927 10a0 6C765F61 		.ascii	"lv_anim_t\000"
 9927      6E696D5F 
 9927      7400
 9928              	.LASF11:
 9929 10aa 6C6F6E67 		.ascii	"long unsigned int\000"
 9929      20756E73 
 9929      69676E65 
 9929      6420696E 
 9929      7400
 9930              	.LASF567:
 9931 10bc 4C565F45 		.ascii	"LV_EVENT_PREPROCESS\000"
ARM GAS  C:\Users\haske\AppData\Local\Temp\ccnNTYZ7.s 			page 203


 9931      56454E54 
 9931      5F505245 
 9931      50524F43 
 9931      45535300 
 9932              	.LASF201:
 9933 10d0 6C765F69 		.ascii	"lv_img_cf_t\000"
 9933      6D675F63 
 9933      665F7400 
 9934              	.LASF455:
 9935 10dc 4C565F4F 		.ascii	"LV_OBJ_FLAG_SCROLL_MOMENTUM\000"
 9935      424A5F46 
 9935      4C41475F 
 9935      5343524F 
 9935      4C4C5F4D 
 9936              	.LASF164:
 9937 10f8 4C565F53 		.ascii	"LV_STYLE_TEXT_OPA\000"
 9937      54594C45 
 9937      5F544558 
 9937      545F4F50 
 9937      4100
 9938              	.LASF270:
 9939 110a 73746172 		.ascii	"start_angle\000"
 9939      745F616E 
 9939      676C6500 
 9940              	.LASF515:
 9941 1116 70617261 		.ascii	"param\000"
 9941      6D00
 9942              	.LASF512:
 9943 111c 74617267 		.ascii	"target\000"
 9943      657400
 9944              	.LASF369:
 9945 1123 64726177 		.ascii	"draw_prev_over_act\000"
 9945      5F707265 
 9945      765F6F76 
 9945      65725F61 
 9945      637400
 9946              	.LASF305:
 9947 1136 6C617965 		.ascii	"layer_destroy\000"
 9947      725F6465 
 9947      7374726F 
 9947      7900
 9948              	.LASF264:
 9949 1144 64617368 		.ascii	"dash_width\000"
 9949      5F776964 
 9949      746800
 9950              	.LASF329:
 9951 114f 6C617374 		.ascii	"last_part\000"
 9951      5F706172 
 9951      7400
 9952              	.LASF507:
 9953 1159 65646974 		.ascii	"editable\000"
 9953      61626C65 
 9953      00
 9954              	.LASF361:
 9955 1162 7468656D 		.ascii	"theme\000"
 9955      6500
 9956              	.LASF336:
ARM GAS  C:\Users\haske\AppData\Local\Temp\ccnNTYZ7.s 			page 204


 9957 1168 6F666673 		.ascii	"offset_x\000"
 9957      65745F78 
 9957      00
 9958              	.LASF337:
 9959 1171 6F666673 		.ascii	"offset_y\000"
 9959      65745F79 
 9959      00
 9960              	.LASF27:
 9961 117a 7265736F 		.ascii	"resolved_font\000"
 9961      6C766564 
 9961      5F666F6E 
 9961      7400
 9962              	.LASF452:
 9963 1188 4C565F4F 		.ascii	"LV_OBJ_FLAG_CHECKABLE\000"
 9963      424A5F46 
 9963      4C41475F 
 9963      43484543 
 9963      4B41424C 
 9964              	.LASF619:
 9965 119e 6C765F65 		.ascii	"lv_event_get_draw_ctx\000"
 9965      76656E74 
 9965      5F676574 
 9965      5F647261 
 9965      775F6374 
 9966              	.LASF439:
 9967 11b4 6F626A5F 		.ascii	"obj_ll\000"
 9967      6C6C00
 9968              	.LASF292:
 9969 11bb 64726177 		.ascii	"draw_arc\000"
 9969      5F617263 
 9969      00
 9970              	.LASF156:
 9971 11c4 4C565F53 		.ascii	"LV_STYLE_LINE_COLOR\000"
 9971      54594C45 
 9971      5F4C494E 
 9971      455F434F 
 9971      4C4F5200 
 9972              	.LASF634:
 9973 11d8 474E5520 		.ascii	"GNU C11 5.4.1 20160609 (release) [ARM/embedded-5-br"
 9973      43313120 
 9973      352E342E 
 9973      31203230 
 9973      31363036 
 9974 120b 616E6368 		.ascii	"anch revision 237715] -mcpu=cortex-m4 -mfloat-abi=s"
 9974      20726576 
 9974      6973696F 
 9974      6E203233 
 9974      37373135 
 9975 123e 6F667466 		.ascii	"oftfp -mfpu=fpv4-sp-d16 -mthumb -g -Og -ffunction-s"
 9975      70202D6D 
 9975      6670753D 
 9975      66707634 
 9975      2D73702D 
 9976 1271 65637469 		.ascii	"ections -ffat-lto-objects\000"
 9976      6F6E7320 
 9976      2D666661 
 9976      742D6C74 
ARM GAS  C:\Users\haske\AppData\Local\Temp\ccnNTYZ7.s 			page 205


 9976      6F2D6F62 
 9977              	.LASF449:
 9978 128b 4C565F4F 		.ascii	"LV_OBJ_FLAG_HIDDEN\000"
 9978      424A5F46 
 9978      4C41475F 
 9978      48494444 
 9978      454E00
 9979              	.LASF573:
 9980 129e 6C765F63 		.ascii	"lv_cover_check_info_t\000"
 9980      6F766572 
 9980      5F636865 
 9980      636B5F69 
 9980      6E666F5F 
 9981              	.LASF117:
 9982 12b4 4C565F53 		.ascii	"LV_STYLE_PAD_ROW\000"
 9982      54594C45 
 9982      5F504144 
 9982      5F524F57 
 9982      00
 9983              	.LASF321:
 9984 12c5 5F6C765F 		.ascii	"_lv_disp_draw_buf_t\000"
 9984      64697370 
 9984      5F647261 
 9984      775F6275 
 9984      665F7400 
 9985              	.LASF280:
 9986 12d9 6275665F 		.ascii	"buf_area\000"
 9986      61726561 
 9986      00
 9987              	.LASF78:
 9988 12e2 73746172 		.ascii	"start_cb_called\000"
 9988      745F6362 
 9988      5F63616C 
 9988      6C656400 
 9989              	.LASF617:
 9990 12f2 6C765F65 		.ascii	"lv_event_get_indev\000"
 9990      76656E74 
 9990      5F676574 
 9990      5F696E64 
 9990      657600
 9991              	.LASF258:
 9992 1305 7265636F 		.ascii	"recolor\000"
 9992      6C6F7200 
 9993              	.LASF551:
 9994 130d 4C565F45 		.ascii	"LV_EVENT_REFRESH\000"
 9994      56454E54 
 9994      5F524546 
 9994      52455348 
 9994      00
 9995              	.LASF509:
 9996 131e 696E7374 		.ascii	"instance_size\000"
 9996      616E6365 
 9996      5F73697A 
 9996      6500
 9997              	.LASF255:
 9998 132c 616E676C 		.ascii	"angle\000"
 9998      6500
ARM GAS  C:\Users\haske\AppData\Local\Temp\ccnNTYZ7.s 			page 206


 9999              	.LASF115:
 10000 1332 4C565F53 		.ascii	"LV_STYLE_PAD_LEFT\000"
 10000      54594C45 
 10000      5F504144 
 10000      5F4C4546 
 10000      5400
 10001              	.LASF355:
 10002 1344 64726177 		.ascii	"draw_ctx_init\000"
 10002      5F637478 
 10002      5F696E69 
 10002      7400
 10003              	.LASF145:
 10004 1352 4C565F53 		.ascii	"LV_STYLE_SHADOW_OFS_Y\000"
 10004      54594C45 
 10004      5F534841 
 10004      444F575F 
 10004      4F46535F 
 10005              	.LASF557:
 10006 1368 4C565F45 		.ascii	"LV_EVENT_CHILD_DELETED\000"
 10006      56454E54 
 10006      5F434849 
 10006      4C445F44 
 10006      454C4554 
 10007              	.LASF436:
 10008 137f 67726F75 		.ascii	"group\000"
 10008      7000
 10009              	.LASF540:
 10010 1385 4C565F45 		.ascii	"LV_EVENT_REFR_EXT_DRAW_SIZE\000"
 10010      56454E54 
 10010      5F524546 
 10010      525F4558 
 10010      545F4452 
 10011              	.LASF385:
 10012 13a1 4C565F49 		.ascii	"LV_INDEV_STATE_PRESSED\000"
 10012      4E444556 
 10012      5F535441 
 10012      54455F50 
 10012      52455353 
 10013              	.LASF293:
 10014 13b8 64726177 		.ascii	"draw_img_decoded\000"
 10014      5F696D67 
 10014      5F646563 
 10014      6F646564 
 10014      00
 10015              	.LASF313:
 10016 13c9 6C765F74 		.ascii	"lv_timer_cb_t\000"
 10016      696D6572 
 10016      5F63625F 
 10016      7400
 10017              	.LASF173:
 10018 13d7 4C565F53 		.ascii	"LV_STYLE_ANIM\000"
 10018      54594C45 
 10018      5F414E49 
 10018      4D00
 10019              	.LASF108:
 10020 13e5 4C565F53 		.ascii	"LV_STYLE_X\000"
 10020      54594C45 
ARM GAS  C:\Users\haske\AppData\Local\Temp\ccnNTYZ7.s 			page 207


 10020      5F5800
 10021              	.LASF413:
 10022 13f0 6C617374 		.ascii	"last_obj\000"
 10022      5F6F626A 
 10022      00
 10023              	.LASF462:
 10024 13f9 4C565F4F 		.ascii	"LV_OBJ_FLAG_SNAPPABLE\000"
 10024      424A5F46 
 10024      4C41475F 
 10024      534E4150 
 10024      5041424C 
 10025              	.LASF383:
 10026 140f 6C765F69 		.ascii	"lv_indev_type_t\000"
 10026      6E646576 
 10026      5F747970 
 10026      655F7400 
 10027              	.LASF510:
 10028 141f 6C765F6F 		.ascii	"lv_obj_draw_part_dsc_t\000"
 10028      626A5F64 
 10028      7261775F 
 10028      70617274 
 10028      5F647363 
 10029              	.LASF169:
 10030 1436 4C565F53 		.ascii	"LV_STYLE_TEXT_ALIGN\000"
 10030      54594C45 
 10030      5F544558 
 10030      545F414C 
 10030      49474E00 
 10031              	.LASF381:
 10032 144a 4C565F49 		.ascii	"LV_INDEV_TYPE_BUTTON\000"
 10032      4E444556 
 10032      5F545950 
 10032      455F4255 
 10032      54544F4E 
 10033              	.LASF605:
 10034 145f 6C765F65 		.ascii	"lv_event_get_param\000"
 10034      76656E74 
 10034      5F676574 
 10034      5F706172 
 10034      616D00
 10035              	.LASF58:
 10036 1472 5F6C765F 		.ascii	"_lv_font_t\000"
 10036      666F6E74 
 10036      5F7400
 10037              	.LASF349:
 10038 147d 77616974 		.ascii	"wait_cb\000"
 10038      5F636200 
 10039              	.LASF10:
 10040 1485 5F5F7569 		.ascii	"__uint32_t\000"
 10040      6E743332 
 10040      5F7400
 10041              	.LASF504:
 10042 1490 6576656E 		.ascii	"event_cb\000"
 10042      745F6362 
 10042      00
 10043              	.LASF568:
 10044 1499 6C765F65 		.ascii	"lv_event_code_t\000"
ARM GAS  C:\Users\haske\AppData\Local\Temp\ccnNTYZ7.s 			page 208


 10044      76656E74 
 10044      5F636F64 
 10044      655F7400 
 10045              	.LASF89:
 10046 14a9 6C765F74 		.ascii	"lv_text_decor_t\000"
 10046      6578745F 
 10046      6465636F 
 10046      725F7400 
 10047              	.LASF511:
 10048 14b9 5F6C765F 		.ascii	"_lv_event_t\000"
 10048      6576656E 
 10048      745F7400 
 10049              	.LASF12:
 10050 14c5 6C6F6E67 		.ascii	"long long int\000"
 10050      206C6F6E 
 10050      6720696E 
 10050      7400
 10051              	.LASF594:
 10052 14d3 6C765F6F 		.ascii	"lv_obj_get_event_dsc\000"
 10052      626A5F67 
 10052      65745F65 
 10052      76656E74 
 10052      5F647363 
 10053              	.LASF236:
 10054 14e8 73686164 		.ascii	"shadow_color\000"
 10054      6F775F63 
 10054      6F6C6F72 
 10054      00
 10055              	.LASF517:
 10056 14f5 64656C65 		.ascii	"deleted\000"
 10056      74656400 
 10057              	.LASF263:
 10058 14fd 77696474 		.ascii	"width\000"
 10058      6800
 10059              	.LASF532:
 10060 1503 4C565F45 		.ascii	"LV_EVENT_SCROLL\000"
 10060      56454E54 
 10060      5F534352 
 10060      4F4C4C00 
 10061              	.LASF465:
 10062 1513 4C565F4F 		.ascii	"LV_OBJ_FLAG_GESTURE_BUBBLE\000"
 10062      424A5F46 
 10062      4C41475F 
 10062      47455354 
 10062      5552455F 
 10063              	.LASF489:
 10064 152e 6C765F63 		.ascii	"lv_cover_res_t\000"
 10064      6F766572 
 10064      5F726573 
 10064      5F7400
 10065              	.LASF322:
 10066 153d 62756631 		.ascii	"buf1\000"
 10066      00
 10067              	.LASF323:
 10068 1542 62756632 		.ascii	"buf2\000"
 10068      00
 10069              	.LASF183:
ARM GAS  C:\Users\haske\AppData\Local\Temp\ccnNTYZ7.s 			page 209


 10070 1547 4C565F53 		.ascii	"LV_STYLE_TRANSFORM_ANGLE\000"
 10070      54594C45 
 10070      5F545241 
 10070      4E53464F 
 10070      524D5F41 
 10071              	.LASF406:
 10072 1560 6C617374 		.ascii	"last_point\000"
 10072      5F706F69 
 10072      6E7400
 10073              	.LASF412:
 10074 156b 6163745F 		.ascii	"act_obj\000"
 10074      6F626A00 
 10075              	.LASF275:
 10076 1573 4C565F44 		.ascii	"LV_DRAW_LAYER_FLAG_NONE\000"
 10076      5241575F 
 10076      4C415945 
 10076      525F464C 
 10076      41475F4E 
 10077              	.LASF488:
 10078 158b 4C565F43 		.ascii	"LV_COVER_RES_MASKED\000"
 10078      4F564552 
 10078      5F524553 
 10078      5F4D4153 
 10078      4B454400 
 10079              	.LASF171:
 10080 159f 4C565F53 		.ascii	"LV_STYLE_COLOR_FILTER_DSC\000"
 10080      54594C45 
 10080      5F434F4C 
 10080      4F525F46 
 10080      494C5445 
 10081              	.LASF86:
 10082 15b9 6C765F74 		.ascii	"lv_text_align_t\000"
 10082      6578745F 
 10082      616C6967 
 10082      6E5F7400 
 10083              	.LASF575:
 10084 15c9 6C765F67 		.ascii	"lv_group_edge_cb_t\000"
 10084      726F7570 
 10084      5F656467 
 10084      655F6362 
 10084      5F7400
 10085              	.LASF454:
 10086 15dc 4C565F4F 		.ascii	"LV_OBJ_FLAG_SCROLL_ELASTIC\000"
 10086      424A5F46 
 10086      4C41475F 
 10086      5343524F 
 10086      4C4C5F45 
 10087              	.LASF40:
 10088 15f7 756E6465 		.ascii	"underline_thickness\000"
 10088      726C696E 
 10088      655F7468 
 10088      69636B6E 
 10088      65737300 
 10089              	.LASF168:
 10090 160b 4C565F53 		.ascii	"LV_STYLE_TEXT_DECOR\000"
 10090      54594C45 
 10090      5F544558 
ARM GAS  C:\Users\haske\AppData\Local\Temp\ccnNTYZ7.s 			page 210


 10090      545F4445 
 10090      434F5200 
 10091              	.LASF530:
 10092 161f 4C565F45 		.ascii	"LV_EVENT_SCROLL_BEGIN\000"
 10092      56454E54 
 10092      5F534352 
 10092      4F4C4C5F 
 10092      42454749 
 10093              	.LASF251:
 10094 1635 616C6967 		.ascii	"align\000"
 10094      6E00
 10095              	.LASF159:
 10096 163b 4C565F53 		.ascii	"LV_STYLE_ARC_ROUNDED\000"
 10096      54594C45 
 10096      5F415243 
 10096      5F524F55 
 10096      4E444544 
 10097              	.LASF450:
 10098 1650 4C565F4F 		.ascii	"LV_OBJ_FLAG_CLICKABLE\000"
 10098      424A5F46 
 10098      4C41475F 
 10098      434C4943 
 10098      4B41424C 
 10099              	.LASF348:
 10100 1666 6D6F6E69 		.ascii	"monitor_cb\000"
 10100      746F725F 
 10100      636200
 10101              	.LASF212:
 10102 1671 736B6970 		.ascii	"skip_trans\000"
 10102      5F747261 
 10102      6E7300
 10103              	.LASF607:
 10104 167c 6C765F65 		.ascii	"lv_event_stop_bubbling\000"
 10104      76656E74 
 10104      5F73746F 
 10104      705F6275 
 10104      62626C69 
 10105              	.LASF163:
 10106 1693 4C565F53 		.ascii	"LV_STYLE_TEXT_COLOR\000"
 10106      54594C45 
 10106      5F544558 
 10106      545F434F 
 10106      4C4F5200 
 10107              	.LASF604:
 10108 16a7 6C765F65 		.ascii	"lv_event_get_code\000"
 10108      76656E74 
 10108      5F676574 
 10108      5F636F64 
 10108      6500
 10109              	.LASF554:
 10110 16b9 4C565F45 		.ascii	"LV_EVENT_DELETE\000"
 10110      56454E54 
 10110      5F44454C 
 10110      45544500 
 10111              	.LASF203:
 10112 16c9 636C6173 		.ascii	"class_p\000"
 10112      735F7000 
ARM GAS  C:\Users\haske\AppData\Local\Temp\ccnNTYZ7.s 			page 211


 10113              	.LASF67:
 10114 16d1 63757272 		.ascii	"current_value\000"
 10114      656E745F 
 10114      76616C75 
 10114      6500
 10115              	.LASF14:
 10116 16df 756E7369 		.ascii	"unsigned int\000"
 10116      676E6564 
 10116      20696E74 
 10116      00
 10117              	.LASF405:
 10118 16ec 696E6465 		.ascii	"indev_point\000"
 10118      765F706F 
 10118      696E7400 
 10119              	.LASF57:
 10120 16f8 6C765F61 		.ascii	"lv_anim_path_cb_t\000"
 10120      6E696D5F 
 10120      70617468 
 10120      5F63625F 
 10120      7400
 10121              	.LASF83:
 10122 170a 6C765F61 		.ascii	"lv_anim_deleted_cb_t\000"
 10122      6E696D5F 
 10122      64656C65 
 10122      7465645F 
 10122      63625F74 
 10123              	.LASF396:
 10124 171f 64697370 		.ascii	"disp\000"
 10124      00
 10125              	.LASF319:
 10126 1724 70617573 		.ascii	"paused\000"
 10126      656400
 10127              	.LASF279:
 10128 172b 636C6970 		.ascii	"clip_area\000"
 10128      5F617265 
 10128      6100
 10129              	.LASF100:
 10130 1735 6C765F73 		.ascii	"lv_style_value_t\000"
 10130      74796C65 
 10130      5F76616C 
 10130      75655F74 
 10130      00
 10131              	.LASF409:
 10132 1746 7363726F 		.ascii	"scroll_sum\000"
 10132      6C6C5F73 
 10132      756D00
 10133              	.LASF389:
 10134 1751 656E635F 		.ascii	"enc_diff\000"
 10134      64696666 
 10134      00
 10135              	.LASF245:
 10136 175a 73656C5F 		.ascii	"sel_end\000"
 10136      656E6400 
 10137              	.LASF189:
 10138 1762 5F4C565F 		.ascii	"_LV_STYLE_PROP_CONST\000"
 10138      5354594C 
 10138      455F5052 
ARM GAS  C:\Users\haske\AppData\Local\Temp\ccnNTYZ7.s 			page 212


 10138      4F505F43 
 10138      4F4E5354 
 10139              	.LASF283:
 10140 1777 61726561 		.ascii	"area_full\000"
 10140      5F66756C 
 10140      6C00
 10141              	.LASF252:
 10142 1781 666C6167 		.ascii	"flag\000"
 10142      00
 10143              	.LASF358:
 10144 1786 5F6C765F 		.ascii	"_lv_disp_t\000"
 10144      64697370 
 10144      5F7400
 10145              	.LASF549:
 10146 1791 4C565F45 		.ascii	"LV_EVENT_VALUE_CHANGED\000"
 10146      56454E54 
 10146      5F56414C 
 10146      55455F43 
 10146      48414E47 
 10147              	.LASF597:
 10148 17a8 6576656E 		.ascii	"event_send_core\000"
 10148      745F7365 
 10148      6E645F63 
 10148      6F726500 
 10149              	.LASF282:
 10150 17b8 5F6C765F 		.ascii	"_lv_draw_layer_ctx_t\000"
 10150      64726177 
 10150      5F6C6179 
 10150      65725F63 
 10150      74785F74 
 10151              	.LASF235:
 10152 17cd 6F75746C 		.ascii	"outline_opa\000"
 10152      696E655F 
 10152      6F706100 
 10153              	.LASF598:
 10154 17d9 696E6465 		.ascii	"indev_act\000"
 10154      765F6163 
 10154      7400
 10155              	.LASF373:
 10156 17e3 696E765F 		.ascii	"inv_areas\000"
 10156      61726561 
 10156      7300
 10157              	.LASF285:
 10158 17ed 6D61785F 		.ascii	"max_row_with_alpha\000"
 10158      726F775F 
 10158      77697468 
 10158      5F616C70 
 10158      686100
 10159              	.LASF432:
 10160 1800 6C6F6E67 		.ascii	"longpr_rep_timestamp\000"
 10160      70725F72 
 10160      65705F74 
 10160      696D6573 
 10160      74616D70 
 10161              	.LASF460:
 10162 1815 4C565F4F 		.ascii	"LV_OBJ_FLAG_SCROLL_ON_FOCUS\000"
 10162      424A5F46 
ARM GAS  C:\Users\haske\AppData\Local\Temp\ccnNTYZ7.s 			page 213


 10162      4C41475F 
 10162      5343524F 
 10162      4C4C5F4F 
 10163              	.LASF260:
 10164 1831 6672616D 		.ascii	"frame_id\000"
 10164      655F6964 
 10164      00
 10165              	.LASF495:
 10166 183a 6172635F 		.ascii	"arc_dsc\000"
 10166      64736300 
 10167              	.LASF259:
 10168 1842 7265636F 		.ascii	"recolor_opa\000"
 10168      6C6F725F 
 10168      6F706100 
 10169              	.LASF111:
 10170 184e 4C565F53 		.ascii	"LV_STYLE_LAYOUT\000"
 10170      54594C45 
 10170      5F4C4159 
 10170      4F555400 
 10171              	.LASF43:
 10172 185e 6C765F66 		.ascii	"lv_font_glyph_dsc_t\000"
 10172      6F6E745F 
 10172      676C7970 
 10172      685F6473 
 10172      635F7400 
 10173              	.LASF559:
 10174 1872 4C565F45 		.ascii	"LV_EVENT_SCREEN_LOAD_START\000"
 10174      56454E54 
 10174      5F534352 
 10174      45454E5F 
 10174      4C4F4144 
 10175              	.LASF519:
 10176 188d 73746F70 		.ascii	"stop_bubbling\000"
 10176      5F627562 
 10176      626C696E 
 10176      6700
 10177              	.LASF233:
 10178 189b 6F75746C 		.ascii	"outline_width\000"
 10178      696E655F 
 10178      77696474 
 10178      6800
 10179              	.LASF143:
 10180 18a9 4C565F53 		.ascii	"LV_STYLE_SHADOW_WIDTH\000"
 10180      54594C45 
 10180      5F534841 
 10180      444F575F 
 10180      57494454 
 10181              	.LASF523:
 10182 18bf 4C565F45 		.ascii	"LV_EVENT_PRESSING\000"
 10182      56454E54 
 10182      5F505245 
 10182      5353494E 
 10182      4700
 10183              	.LASF467:
 10184 18d1 4C565F4F 		.ascii	"LV_OBJ_FLAG_IGNORE_LAYOUT\000"
 10184      424A5F46 
 10184      4C41475F 
ARM GAS  C:\Users\haske\AppData\Local\Temp\ccnNTYZ7.s 			page 214


 10184      49474E4F 
 10184      52455F4C 
 10185              	.LASF120:
 10186 18eb 4C565F53 		.ascii	"LV_STYLE_CLIP_CORNER\000"
 10186      54594C45 
 10186      5F434C49 
 10186      505F434F 
 10186      524E4552 
 10187              	.LASF593:
 10188 1900 6C765F65 		.ascii	"lv_event_dsc_t\000"
 10188      76656E74 
 10188      5F647363 
 10188      5F7400
 10189              	.LASF261:
 10190 190f 616E7469 		.ascii	"antialias\000"
 10190      616C6961 
 10190      7300
 10191              	.LASF501:
 10192 1919 62617365 		.ascii	"base_class\000"
 10192      5F636C61 
 10192      737300
 10193              	.LASF629:
 10194 1924 6576656E 		.ascii	"event_head\000"
 10194      745F6865 
 10194      616400
 10195              	.LASF525:
 10196 192f 4C565F45 		.ascii	"LV_EVENT_SHORT_CLICKED\000"
 10196      56454E54 
 10196      5F53484F 
 10196      52545F43 
 10196      4C49434B 
 10197              	.LASF73:
 10198 1946 72657065 		.ascii	"repeat_delay\000"
 10198      61745F64 
 10198      656C6179 
 10198      00
 10199              	.LASF527:
 10200 1953 4C565F45 		.ascii	"LV_EVENT_LONG_PRESSED_REPEAT\000"
 10200      56454E54 
 10200      5F4C4F4E 
 10200      475F5052 
 10200      45535345 
 10201              	.LASF441:
 10202 1970 666F6375 		.ascii	"focus_cb\000"
 10202      735F6362 
 10202      00
 10203              	.LASF64:
 10204 1979 6765745F 		.ascii	"get_value_cb\000"
 10204      76616C75 
 10204      655F6362 
 10204      00
 10205              	.LASF397:
 10206 1986 72656164 		.ascii	"read_timer\000"
 10206      5F74696D 
 10206      657200
 10207              	.LASF48:
 10208 1991 6C765F72 		.ascii	"lv_res_t\000"
ARM GAS  C:\Users\haske\AppData\Local\Temp\ccnNTYZ7.s 			page 215


 10208      65735F74 
 10208      00
 10209              	.LASF172:
 10210 199a 4C565F53 		.ascii	"LV_STYLE_COLOR_FILTER_OPA\000"
 10210      54594C45 
 10210      5F434F4C 
 10210      4F525F46 
 10210      494C5445 
 10211              	.LASF324:
 10212 19b4 6275665F 		.ascii	"buf_act\000"
 10212      61637400 
 10213              	.LASF22:
 10214 19bc 6C6F6E67 		.ascii	"long double\000"
 10214      20646F75 
 10214      626C6500 
 10215              	.LASF481:
 10216 19c8 7374796C 		.ascii	"style\000"
 10216      6500
 10217              	.LASF92:
 10218 19ce 6C765F64 		.ascii	"lv_dither_mode_t\000"
 10218      69746865 
 10218      725F6D6F 
 10218      64655F74 
 10218      00
 10219              	.LASF480:
 10220 19df 6C765F73 		.ascii	"lv_scroll_snap_t\000"
 10220      63726F6C 
 10220      6C5F736E 
 10220      61705F74 
 10220      00
 10221              	.LASF379:
 10222 19f0 4C565F49 		.ascii	"LV_INDEV_TYPE_POINTER\000"
 10222      4E444556 
 10222      5F545950 
 10222      455F504F 
 10222      494E5445 
 10223              	.LASF431:
 10224 1a06 70725F74 		.ascii	"pr_timestamp\000"
 10224      696D6573 
 10224      74616D70 
 10224      00
 10225              	.LASF514:
 10226 1a13 636F6465 		.ascii	"code\000"
 10226      00
 10227              	.LASF38:
 10228 1a18 73756270 		.ascii	"subpx\000"
 10228      7800
 10229              	.LASF630:
 10230 1a1e 6C765F6F 		.ascii	"lv_obj_has_flag\000"
 10230      626A5F68 
 10230      61735F66 
 10230      6C616700 
 10231              	.LASF300:
 10232 1a2e 77616974 		.ascii	"wait_for_finish\000"
 10232      5F666F72 
 10232      5F66696E 
 10232      69736800 
ARM GAS  C:\Users\haske\AppData\Local\Temp\ccnNTYZ7.s 			page 216


 10233              	.LASF74:
 10234 1a3e 72657065 		.ascii	"repeat_cnt\000"
 10234      61745F63 
 10234      6E7400
 10235              	.LASF225:
 10236 1a49 62675F69 		.ascii	"bg_img_recolor_opa\000"
 10236      6D675F72 
 10236      65636F6C 
 10236      6F725F6F 
 10236      706100
 10237              	.LASF277:
 10238 1a5c 4C565F44 		.ascii	"LV_DRAW_LAYER_FLAG_CAN_SUBDIVIDE\000"
 10238      5241575F 
 10238      4C415945 
 10238      525F464C 
 10238      41475F43 
 10239              	.LASF395:
 10240 1a7d 66656564 		.ascii	"feedback_cb\000"
 10240      6261636B 
 10240      5F636200 
 10241              	.LASF317:
 10242 1a89 74696D65 		.ascii	"timer_cb\000"
 10242      725F6362 
 10242      00
 10243              	.LASF399:
 10244 1a92 7363726F 		.ascii	"scroll_throw\000"
 10244      6C6C5F74 
 10244      68726F77 
 10244      00
 10245              	.LASF522:
 10246 1a9f 4C565F45 		.ascii	"LV_EVENT_PRESSED\000"
 10246      56454E54 
 10246      5F505245 
 10246      53534544 
 10246      00
 10247              	.LASF553:
 10248 1ab0 4C565F45 		.ascii	"LV_EVENT_CANCEL\000"
 10248      56454E54 
 10248      5F43414E 
 10248      43454C00 
 10249              	.LASF134:
 10250 1ac0 4C565F53 		.ascii	"LV_STYLE_BORDER_COLOR\000"
 10250      54594C45 
 10250      5F424F52 
 10250      4445525F 
 10250      434F4C4F 
 10251              	.LASF352:
 10252 1ad6 72656E64 		.ascii	"render_start_cb\000"
 10252      65725F73 
 10252      74617274 
 10252      5F636200 
 10253              	.LASF351:
 10254 1ae6 6472765F 		.ascii	"drv_update_cb\000"
 10254      75706461 
 10254      74655F63 
 10254      6200
 10255              	.LASF410:
ARM GAS  C:\Users\haske\AppData\Local\Temp\ccnNTYZ7.s 			page 217


 10256 1af4 7363726F 		.ascii	"scroll_throw_vect\000"
 10256      6C6C5F74 
 10256      68726F77 
 10256      5F766563 
 10256      7400
 10257              	.LASF0:
 10258 1b06 5F5F696E 		.ascii	"__int8_t\000"
 10258      74385F74 
 10258      00
 10259              	.LASF425:
 10260 1b0f 5F6C765F 		.ascii	"_lv_indev_proc_t\000"
 10260      696E6465 
 10260      765F7072 
 10260      6F635F74 
 10260      00
 10261              	.LASF444:
 10262 1b20 65646974 		.ascii	"editing\000"
 10262      696E6700 
 10263              	.LASF334:
 10264 1b28 70687973 		.ascii	"physical_hor_res\000"
 10264      6963616C 
 10264      5F686F72 
 10264      5F726573 
 10264      00
 10265              	.LASF325:
 10266 1b39 73697A65 		.ascii	"size\000"
 10266      00
 10267              	.LASF286:
 10268 1b3e 6D61785F 		.ascii	"max_row_with_no_alpha\000"
 10268      726F775F 
 10268      77697468 
 10268      5F6E6F5F 
 10268      616C7068 
 10269              	.LASF402:
 10270 1b54 6C6F6E67 		.ascii	"long_press_time\000"
 10270      5F707265 
 10270      73735F74 
 10270      696D6500 
 10271              	.LASF13:
 10272 1b64 6C6F6E67 		.ascii	"long long unsigned int\000"
 10272      206C6F6E 
 10272      6720756E 
 10272      7369676E 
 10272      65642069 
 10273              	.LASF367:
 10274 1b7b 7379735F 		.ascii	"sys_layer\000"
 10274      6C617965 
 10274      7200
 10275              	.LASF126:
 10276 1b85 4C565F53 		.ascii	"LV_STYLE_BG_GRAD_STOP\000"
 10276      54594C45 
 10276      5F42475F 
 10276      47524144 
 10276      5F53544F 
 10277              	.LASF137:
 10278 1b9b 4C565F53 		.ascii	"LV_STYLE_BORDER_SIDE\000"
 10278      54594C45 
ARM GAS  C:\Users\haske\AppData\Local\Temp\ccnNTYZ7.s 			page 218


 10278      5F424F52 
 10278      4445525F 
 10278      53494445 
 10279              	.LASF492:
 10280 1bb0 6C616265 		.ascii	"label_dsc\000"
 10280      6C5F6473 
 10280      6300
 10281              	.LASF574:
 10282 1bba 6C765F67 		.ascii	"lv_group_focus_cb_t\000"
 10282      726F7570 
 10282      5F666F63 
 10282      75735F63 
 10282      625F7400 
 10283              	.LASF500:
 10284 1bce 5F6C765F 		.ascii	"_lv_obj_class_t\000"
 10284      6F626A5F 
 10284      636C6173 
 10284      735F7400 
 10285              	.LASF242:
 10286 1bde 6C765F64 		.ascii	"lv_draw_rect_dsc_t\000"
 10286      7261775F 
 10286      72656374 
 10286      5F647363 
 10286      5F7400
 10287              	.LASF451:
 10288 1bf1 4C565F4F 		.ascii	"LV_OBJ_FLAG_CLICK_FOCUSABLE\000"
 10288      424A5F46 
 10288      4C41475F 
 10288      434C4943 
 10288      4B5F464F 
 10289              	.LASF18:
 10290 1c0d 75696E74 		.ascii	"uint16_t\000"
 10290      31365F74 
 10290      00
 10291              	.LASF47:
 10292 1c16 4C565F52 		.ascii	"LV_RES_OK\000"
 10292      45535F4F 
 10292      4B00
 10293              	.LASF68:
 10294 1c20 656E645F 		.ascii	"end_value\000"
 10294      76616C75 
 10294      6500
 10295              	.LASF316:
 10296 1c2a 6C617374 		.ascii	"last_run\000"
 10296      5F72756E 
 10296      00
 10297              	.LASF446:
 10298 1c33 77726170 		.ascii	"wrap\000"
 10298      00
 10299              	.LASF55:
 10300 1c38 6C765F63 		.ascii	"lv_color_t\000"
 10300      6F6C6F72 
 10300      5F7400
 10301              	.LASF295:
 10302 1c43 64726177 		.ascii	"draw_letter\000"
 10302      5F6C6574 
 10302      74657200 
ARM GAS  C:\Users\haske\AppData\Local\Temp\ccnNTYZ7.s 			page 219


 10303              	.LASF544:
 10304 1c4f 4C565F45 		.ascii	"LV_EVENT_DRAW_POST_BEGIN\000"
 10304      56454E54 
 10304      5F445241 
 10304      575F504F 
 10304      53545F42 
 10305              	.LASF427:
 10306 1c68 72657365 		.ascii	"reset_query\000"
 10306      745F7175 
 10306      65727900 
 10307              	.LASF102:
 10308 1c74 4C565F53 		.ascii	"LV_STYLE_WIDTH\000"
 10308      54594C45 
 10308      5F574944 
 10308      544800
 10309              	.LASF599:
 10310 1c83 6C765F6F 		.ascii	"lv_obj_event_base\000"
 10310      626A5F65 
 10310      76656E74 
 10310      5F626173 
 10310      6500
 10311              	.LASF228:
 10312 1c95 626F7264 		.ascii	"border_width\000"
 10312      65725F77 
 10312      69647468 
 10312      00
 10313              	.LASF103:
 10314 1ca2 4C565F53 		.ascii	"LV_STYLE_MIN_WIDTH\000"
 10314      54594C45 
 10314      5F4D494E 
 10314      5F574944 
 10314      544800
 10315              	.LASF85:
 10316 1cb5 6C765F74 		.ascii	"lv_text_flag_t\000"
 10316      6578745F 
 10316      666C6167 
 10316      5F7400
 10317              	.LASF411:
 10318 1cc4 7363726F 		.ascii	"scroll_throw_vect_ori\000"
 10318      6C6C5F74 
 10318      68726F77 
 10318      5F766563 
 10318      745F6F72 
 10319              	.LASF623:
 10320 1cda 6C765F65 		.ascii	"lv_event_set_ext_draw_size\000"
 10320      76656E74 
 10320      5F736574 
 10320      5F657874 
 10320      5F647261 
 10321              	.LASF144:
 10322 1cf5 4C565F53 		.ascii	"LV_STYLE_SHADOW_OFS_X\000"
 10322      54594C45 
 10322      5F534841 
 10322      444F575F 
 10322      4F46535F 
 10323              	.LASF60:
 10324 1d0b 65786563 		.ascii	"exec_cb\000"
ARM GAS  C:\Users\haske\AppData\Local\Temp\ccnNTYZ7.s 			page 220


 10324      5F636200 
 10325              	.LASF380:
 10326 1d13 4C565F49 		.ascii	"LV_INDEV_TYPE_KEYPAD\000"
 10326      4E444556 
 10326      5F545950 
 10326      455F4B45 
 10326      59504144 
 10327              	.LASF129:
 10328 1d28 4C565F53 		.ascii	"LV_STYLE_BG_IMG_SRC\000"
 10328      54594C45 
 10328      5F42475F 
 10328      494D475F 
 10328      53524300 
 10329              	.LASF72:
 10330 1d3c 706C6179 		.ascii	"playback_time\000"
 10330      6261636B 
 10330      5F74696D 
 10330      6500
 10331              	.LASF257:
 10332 1d4a 7069766F 		.ascii	"pivot\000"
 10332      7400
 10333              	.LASF162:
 10334 1d50 4C565F53 		.ascii	"LV_STYLE_ARC_IMG_SRC\000"
 10334      54594C45 
 10334      5F415243 
 10334      5F494D47 
 10334      5F535243 
 10335              	.LASF194:
 10336 1d65 76616C75 		.ascii	"value1\000"
 10336      653100
 10337              	.LASF624:
 10338 1d6c 6375725F 		.ascii	"cur_size\000"
 10338      73697A65 
 10338      00
 10339              	.LASF338:
 10340 1d75 64726177 		.ascii	"draw_buf\000"
 10340      5F627566 
 10340      00
 10341              	.LASF315:
 10342 1d7e 70657269 		.ascii	"period\000"
 10342      6F6400
 10343              	.LASF345:
 10344 1d85 726F756E 		.ascii	"rounder_cb\000"
 10344      6465725F 
 10344      636200
 10345              	.LASF253:
 10346 1d90 6465636F 		.ascii	"decor\000"
 10346      7200
 10347              	.LASF4:
 10348 1d96 5F5F696E 		.ascii	"__int16_t\000"
 10348      7431365F 
 10348      7400
 10349              	.LASF303:
 10350 1da0 6C617965 		.ascii	"layer_adjust\000"
 10350      725F6164 
 10350      6A757374 
 10350      00
ARM GAS  C:\Users\haske\AppData\Local\Temp\ccnNTYZ7.s 			page 221


 10351              	.LASF165:
 10352 1dad 4C565F53 		.ascii	"LV_STYLE_TEXT_FONT\000"
 10352      54594C45 
 10352      5F544558 
 10352      545F464F 
 10352      4E5400
 10353              	.LASF561:
 10354 1dc0 4C565F45 		.ascii	"LV_EVENT_SCREEN_UNLOADED\000"
 10354      56454E54 
 10354      5F534352 
 10354      45454E5F 
 10354      554E4C4F 
 10355              	.LASF188:
 10356 1dd9 4C565F53 		.ascii	"LV_STYLE_PROP_ANY\000"
 10356      54594C45 
 10356      5F50524F 
 10356      505F414E 
 10356      5900
 10357              	.LASF53:
 10358 1deb 66756C6C 		.ascii	"full\000"
 10358      00
 10359              	.LASF288:
 10360 1df0 6C765F64 		.ascii	"lv_draw_layer_ctx_t\000"
 10360      7261775F 
 10360      6C617965 
 10360      725F6374 
 10360      785F7400 
 10361              	.LASF93:
 10362 1e04 636F6C6F 		.ascii	"color\000"
 10362      7200
 10363              	.LASF69:
 10364 1e0a 74696D65 		.ascii	"time\000"
 10364      00
 10365              	.LASF96:
 10366 1e0f 73746F70 		.ascii	"stops\000"
 10366      7300
 10367              	.LASF422:
 10368 1e15 6C617374 		.ascii	"last_key\000"
 10368      5F6B6579 
 10368      00
 10369              	.LASF248:
 10370 1e1e 6C696E65 		.ascii	"line_space\000"
 10370      5F737061 
 10370      636500
 10371              	.LASF433:
 10372 1e29 5F6C765F 		.ascii	"_lv_indev_t\000"
 10372      696E6465 
 10372      765F7400 
 10373              	.LASF419:
 10374 1e35 67657374 		.ascii	"gesture_dir\000"
 10374      7572655F 
 10374      64697200 
 10375              	.LASF304:
 10376 1e41 6C617965 		.ascii	"layer_blend\000"
 10376      725F626C 
 10376      656E6400 
 10377              	.LASF420:
ARM GAS  C:\Users\haske\AppData\Local\Temp\ccnNTYZ7.s 			page 222


 10378 1e4d 67657374 		.ascii	"gesture_sent\000"
 10378      7572655F 
 10378      73656E74 
 10378      00
 10379              	.LASF503:
 10380 1e5a 64657374 		.ascii	"destructor_cb\000"
 10380      72756374 
 10380      6F725F63 
 10380      6200
 10381              	.LASF90:
 10382 1e68 6C765F62 		.ascii	"lv_border_side_t\000"
 10382      6F726465 
 10382      725F7369 
 10382      64655F74 
 10382      00
 10383              	.LASF94:
 10384 1e79 66726163 		.ascii	"frac\000"
 10384      00
 10385              	.LASF202:
 10386 1e7e 5F6C765F 		.ascii	"_lv_obj_t\000"
 10386      6F626A5F 
 10386      7400
 10387              	.LASF243:
 10388 1e88 666F6E74 		.ascii	"font\000"
 10388      00
 10389              	.LASF249:
 10390 1e8d 6C657474 		.ascii	"letter_space\000"
 10390      65725F73 
 10390      70616365 
 10390      00
 10391              	.LASF398:
 10392 1e9a 7363726F 		.ascii	"scroll_limit\000"
 10392      6C6C5F6C 
 10392      696D6974 
 10392      00
 10393              	.LASF107:
 10394 1ea7 4C565F53 		.ascii	"LV_STYLE_MAX_HEIGHT\000"
 10394      54594C45 
 10394      5F4D4158 
 10394      5F484549 
 10394      47485400 
 10395              	.LASF359:
 10396 1ebb 64726976 		.ascii	"driver\000"
 10396      657200
 10397              	.LASF637:
 10398 1ec2 5F6C765F 		.ascii	"_lv_theme_t\000"
 10398      7468656D 
 10398      655F7400 
 10399              	.LASF274:
 10400 1ece 6C765F64 		.ascii	"lv_draw_arc_dsc_t\000"
 10400      7261775F 
 10400      6172635F 
 10400      6473635F 
 10400      7400
 10401              	.LASF123:
 10402 1ee0 4C565F53 		.ascii	"LV_STYLE_BG_GRAD_COLOR\000"
 10402      54594C45 
ARM GAS  C:\Users\haske\AppData\Local\Temp\ccnNTYZ7.s 			page 223


 10402      5F42475F 
 10402      47524144 
 10402      5F434F4C 
 10403              	.LASF364:
 10404 1ef7 70726576 		.ascii	"prev_scr\000"
 10404      5F736372 
 10404      00
 10405              	.LASF30:
 10406 1f00 626F785F 		.ascii	"box_h\000"
 10406      6800
 10407              	.LASF493:
 10408 1f06 6C696E65 		.ascii	"line_dsc\000"
 10408      5F647363 
 10408      00
 10409              	.LASF81:
 10410 1f0f 6C765F61 		.ascii	"lv_anim_start_cb_t\000"
 10410      6E696D5F 
 10410      73746172 
 10410      745F6362 
 10410      5F7400
 10411              	.LASF223:
 10412 1f22 62675F69 		.ascii	"bg_img_recolor\000"
 10412      6D675F72 
 10412      65636F6C 
 10412      6F7200
 10413              	.LASF596:
 10414 1f31 62617365 		.ascii	"base\000"
 10414      00
 10415              	.LASF54:
 10416 1f36 6C765F63 		.ascii	"lv_color16_t\000"
 10416      6F6C6F72 
 10416      31365F74 
 10416      00
 10417              	.LASF29:
 10418 1f43 626F785F 		.ascii	"box_w\000"
 10418      7700
 10419              	.LASF5:
 10420 1f49 73686F72 		.ascii	"short int\000"
 10420      7420696E 
 10420      7400
 10421              	.LASF37:
 10422 1f53 62617365 		.ascii	"base_line\000"
 10422      5F6C696E 
 10422      6500
 10423              	.LASF375:
 10424 1f5d 696E765F 		.ascii	"inv_p\000"
 10424      7000
 10425              	.LASF312:
 10426 1f63 6C765F6C 		.ascii	"lv_ll_t\000"
 10426      6C5F7400 
 10427              	.LASF638:
 10428 1f6b 6C765F66 		.ascii	"lv_font_montserrat_14\000"
 10428      6F6E745F 
 10428      6D6F6E74 
 10428      73657272 
 10428      61745F31 
 10429              	.LASF404:
ARM GAS  C:\Users\haske\AppData\Local\Temp\ccnNTYZ7.s 			page 224


 10430 1f81 6163745F 		.ascii	"act_point\000"
 10430      706F696E 
 10430      7400
 10431              	.LASF463:
 10432 1f8b 4C565F4F 		.ascii	"LV_OBJ_FLAG_PRESS_LOCK\000"
 10432      424A5F46 
 10432      4C41475F 
 10432      50524553 
 10432      535F4C4F 
 10433              	.LASF546:
 10434 1fa2 4C565F45 		.ascii	"LV_EVENT_DRAW_POST_END\000"
 10434      56454E54 
 10434      5F445241 
 10434      575F504F 
 10434      53545F45 
 10435              	.LASF547:
 10436 1fb9 4C565F45 		.ascii	"LV_EVENT_DRAW_PART_BEGIN\000"
 10436      56454E54 
 10436      5F445241 
 10436      575F5041 
 10436      52545F42 
 10437              	.LASF608:
 10438 1fd2 6C765F65 		.ascii	"lv_event_stop_processing\000"
 10438      76656E74 
 10438      5F73746F 
 10438      705F7072 
 10438      6F636573 
 10439              	.LASF424:
 10440 1feb 6B657970 		.ascii	"keypad\000"
 10440      616400
 10441              	.LASF241:
 10442 1ff2 73686164 		.ascii	"shadow_opa\000"
 10442      6F775F6F 
 10442      706100
 10443              	.LASF160:
 10444 1ffd 4C565F53 		.ascii	"LV_STYLE_ARC_COLOR\000"
 10444      54594C45 
 10444      5F415243 
 10444      5F434F4C 
 10444      4F5200
 10445              	.LASF513:
 10446 2010 63757272 		.ascii	"current_target\000"
 10446      656E745F 
 10446      74617267 
 10446      657400
 10447              	.LASF17:
 10448 201f 696E7431 		.ascii	"int16_t\000"
 10448      365F7400 
 10449              	.LASF376:
 10450 2027 696E765F 		.ascii	"inv_en_cnt\000"
 10450      656E5F63 
 10450      6E7400
 10451              	.LASF281:
 10452 2032 73637265 		.ascii	"screen_transp\000"
 10452      656E5F74 
 10452      72616E73 
 10452      7000
ARM GAS  C:\Users\haske\AppData\Local\Temp\ccnNTYZ7.s 			page 225


 10453              	.LASF207:
 10454 2040 636F6F72 		.ascii	"coords\000"
 10454      647300
 10455              	.LASF582:
 10456 2047 6578745F 		.ascii	"ext_click_pad\000"
 10456      636C6963 
 10456      6B5F7061 
 10456      6400
 10457              	.LASF187:
 10458 2055 5F4C565F 		.ascii	"_LV_STYLE_NUM_BUILT_IN_PROPS\000"
 10458      5354594C 
 10458      455F4E55 
 10458      4D5F4255 
 10458      494C545F 
 10459              	.LASF113:
 10460 2072 4C565F53 		.ascii	"LV_STYLE_PAD_TOP\000"
 10460      54594C45 
 10460      5F504144 
 10460      5F544F50 
 10460      00
 10461              	.LASF370:
 10462 2083 64656C5F 		.ascii	"del_prev\000"
 10462      70726576 
 10462      00
 10463              	.LASF566:
 10464 208c 5F4C565F 		.ascii	"_LV_EVENT_LAST\000"
 10464      4556454E 
 10464      545F4C41 
 10464      535400
 10465              	.LASF620:
 10466 209b 6C765F65 		.ascii	"lv_event_get_old_size\000"
 10466      76656E74 
 10466      5F676574 
 10466      5F6F6C64 
 10466      5F73697A 
 10467              	.LASF372:
 10468 20b1 62675F69 		.ascii	"bg_img\000"
 10468      6D6700
 10469              	.LASF590:
 10470 20b8 66696C74 		.ascii	"filter\000"
 10470      657200
 10471              	.LASF130:
 10472 20bf 4C565F53 		.ascii	"LV_STYLE_BG_IMG_OPA\000"
 10472      54594C45 
 10472      5F42475F 
 10472      494D475F 
 10472      4F504100 
 10473              	.LASF152:
 10474 20d3 4C565F53 		.ascii	"LV_STYLE_LINE_WIDTH\000"
 10474      54594C45 
 10474      5F4C494E 
 10474      455F5749 
 10474      44544800 
 10475              	.LASF536:
 10476 20e7 4C565F45 		.ascii	"LV_EVENT_DEFOCUSED\000"
 10476      56454E54 
 10476      5F444546 
ARM GAS  C:\Users\haske\AppData\Local\Temp\ccnNTYZ7.s 			page 226


 10476      4F435553 
 10476      454400
 10477              	.LASF636:
 10478 20fa 433A5C50 		.ascii	"C:\\Projects\\PainDrain\\firmware\\PainDrain\\PainD"
 10478      726F6A65 
 10478      6374735C 
 10478      5061696E 
 10478      44726169 
 10479 2128 7261696E 		.ascii	"rain.cydsn\000"
 10479      2E637964 
 10479      736E00
 10480              	.LASF197:
 10481 2133 70726F70 		.ascii	"prop1\000"
 10481      3100
 10482              	.LASF346:
 10483 2139 7365745F 		.ascii	"set_px_cb\000"
 10483      70785F63 
 10483      6200
 10484              	.LASF403:
 10485 2143 6C6F6E67 		.ascii	"long_press_repeat_time\000"
 10485      5F707265 
 10485      73735F72 
 10485      65706561 
 10485      745F7469 
 10486              	.LASF70:
 10487 215a 6163745F 		.ascii	"act_time\000"
 10487      74696D65 
 10487      00
 10488              	.LASF229:
 10489 2163 626F7264 		.ascii	"border_opa\000"
 10489      65725F6F 
 10489      706100
 10490              	.LASF106:
 10491 216e 4C565F53 		.ascii	"LV_STYLE_MIN_HEIGHT\000"
 10491      54594C45 
 10491      5F4D494E 
 10491      5F484549 
 10491      47485400 
 10492              	.LASF609:
 10493 2182 6C765F65 		.ascii	"lv_event_register_id\000"
 10493      76656E74 
 10493      5F726567 
 10493      69737465 
 10493      725F6964 
 10494              	.LASF220:
 10495 2197 62675F67 		.ascii	"bg_grad\000"
 10495      72616400 
 10496              	.LASF391:
 10497 219f 6C765F69 		.ascii	"lv_indev_data_t\000"
 10497      6E646576 
 10497      5F646174 
 10497      615F7400 
 10498              	.LASF138:
 10499 21af 4C565F53 		.ascii	"LV_STYLE_BORDER_POST\000"
 10499      54594C45 
 10499      5F424F52 
 10499      4445525F 
ARM GAS  C:\Users\haske\AppData\Local\Temp\ccnNTYZ7.s 			page 227


 10499      504F5354 
 10500              	.LASF354:
 10501 21c4 64726177 		.ascii	"draw_ctx\000"
 10501      5F637478 
 10501      00
 10502              	.LASF611:
 10503 21cd 5F6C765F 		.ascii	"_lv_event_mark_deleted\000"
 10503      6576656E 
 10503      745F6D61 
 10503      726B5F64 
 10503      656C6574 
 10504              	.LASF294:
 10505 21e4 64726177 		.ascii	"draw_img\000"
 10505      5F696D67 
 10505      00
 10506              	.LASF95:
 10507 21ed 6C765F67 		.ascii	"lv_gradient_stop_t\000"
 10507      72616469 
 10507      656E745F 
 10507      73746F70 
 10507      5F7400
 10508              	.LASF109:
 10509 2200 4C565F53 		.ascii	"LV_STYLE_Y\000"
 10509      54594C45 
 10509      5F5900
 10510              	.LASF155:
 10511 220b 4C565F53 		.ascii	"LV_STYLE_LINE_ROUNDED\000"
 10511      54594C45 
 10511      5F4C494E 
 10511      455F524F 
 10511      554E4445 
 10512              	.LASF632:
 10513 2221 6C765F6F 		.ascii	"lv_obj_allocate_spec_attr\000"
 10513      626A5F61 
 10513      6C6C6F63 
 10513      6174655F 
 10513      73706563 
 10514              	.LASF633:
 10515 223b 6C765F6D 		.ascii	"lv_mem_realloc\000"
 10515      656D5F72 
 10515      65616C6C 
 10515      6F6300
 10516              	.LASF297:
 10517 224a 64726177 		.ascii	"draw_polygon\000"
 10517      5F706F6C 
 10517      79676F6E 
 10517      00
 10518              	.LASF563:
 10519 2257 4C565F45 		.ascii	"LV_EVENT_STYLE_CHANGED\000"
 10519      56454E54 
 10519      5F535459 
 10519      4C455F43 
 10519      48414E47 
 10520              	.LASF552:
 10521 226e 4C565F45 		.ascii	"LV_EVENT_READY\000"
 10521      56454E54 
 10521      5F524541 
ARM GAS  C:\Users\haske\AppData\Local\Temp\ccnNTYZ7.s 			page 228


 10521      445900
 10522              	.LASF244:
 10523 227d 73656C5F 		.ascii	"sel_start\000"
 10523      73746172 
 10523      7400
 10524              	.LASF545:
 10525 2287 4C565F45 		.ascii	"LV_EVENT_DRAW_POST\000"
 10525      56454E54 
 10525      5F445241 
 10525      575F504F 
 10525      535400
 10526              	.LASF20:
 10527 229a 75696E74 		.ascii	"uint32_t\000"
 10527      33325F74 
 10527      00
 10528              	.LASF457:
 10529 22a3 4C565F4F 		.ascii	"LV_OBJ_FLAG_SCROLL_CHAIN_HOR\000"
 10529      424A5F46 
 10529      4C41475F 
 10529      5343524F 
 10529      4C4C5F43 
 10530              	.LASF478:
 10531 22c0 6C765F6F 		.ascii	"lv_obj_flag_t\000"
 10531      626A5F66 
 10531      6C61675F 
 10531      7400
 10532              	.LASF562:
 10533 22ce 4C565F45 		.ascii	"LV_EVENT_SIZE_CHANGED\000"
 10533      56454E54 
 10533      5F53495A 
 10533      455F4348 
 10533      414E4745 
 10534              	.LASF612:
 10535 22e4 6C765F6F 		.ascii	"lv_obj_add_event_cb\000"
 10535      626A5F61 
 10535      64645F65 
 10535      76656E74 
 10535      5F636200 
 10536              	.LASF237:
 10537 22f8 73686164 		.ascii	"shadow_width\000"
 10537      6F775F77 
 10537      69647468 
 10537      00
 10538              	.LASF428:
 10539 2305 64697361 		.ascii	"disabled\000"
 10539      626C6564 
 10539      00
 10540              	.LASF52:
 10541 230e 67726565 		.ascii	"green\000"
 10541      6E00
 10542              	.LASF45:
 10543 2314 6C765F66 		.ascii	"lv_font_t\000"
 10543      6F6E745F 
 10543      7400
 10544              	.LASF595:
 10545 231e 6576656E 		.ascii	"event_is_bubbled\000"
 10545      745F6973 
ARM GAS  C:\Users\haske\AppData\Local\Temp\ccnNTYZ7.s 			page 229


 10545      5F627562 
 10545      626C6564 
 10545      00
 10546              	.LASF564:
 10547 232f 4C565F45 		.ascii	"LV_EVENT_LAYOUT_CHANGED\000"
 10547      56454E54 
 10547      5F4C4159 
 10547      4F55545F 
 10547      4348414E 
 10548              	.LASF400:
 10549 2347 67657374 		.ascii	"gesture_min_velocity\000"
 10549      7572655F 
 10549      6D696E5F 
 10549      76656C6F 
 10549      63697479 
 10550              	.LASF98:
 10551 235c 64697468 		.ascii	"dither\000"
 10551      657200
 10552              	.LASF7:
 10553 2363 73686F72 		.ascii	"short unsigned int\000"
 10553      7420756E 
 10553      7369676E 
 10553      65642069 
 10553      6E7400
 10554              	.LASF498:
 10555 2376 70617274 		.ascii	"part\000"
 10555      00
 10556              	.LASF534:
 10557 237b 4C565F45 		.ascii	"LV_EVENT_KEY\000"
 10557      56454E54 
 10557      5F4B4559 
 10557      00
 10558              	.LASF23:
 10559 2388 6C765F63 		.ascii	"lv_coord_t\000"
 10559      6F6F7264 
 10559      5F7400
 10560              	.LASF378:
 10561 2393 4C565F49 		.ascii	"LV_INDEV_TYPE_NONE\000"
 10561      4E444556 
 10561      5F545950 
 10561      455F4E4F 
 10561      4E4500
 10562              	.LASF344:
 10563 23a6 666C7573 		.ascii	"flush_cb\000"
 10563      685F6362 
 10563      00
 10564              	.LASF140:
 10565 23af 4C565F53 		.ascii	"LV_STYLE_OUTLINE_COLOR\000"
 10565      54594C45 
 10565      5F4F5554 
 10565      4C494E45 
 10565      5F434F4C 
 10566              	.LASF42:
 10567 23c6 75736572 		.ascii	"user_data\000"
 10567      5F646174 
 10567      6100
 10568              	.LASF524:
ARM GAS  C:\Users\haske\AppData\Local\Temp\ccnNTYZ7.s 			page 230


 10569 23d0 4C565F45 		.ascii	"LV_EVENT_PRESS_LOST\000"
 10569      56454E54 
 10569      5F505245 
 10569      53535F4C 
 10569      4F535400 
 10570              	.LASF76:
 10571 23e4 706C6179 		.ascii	"playback_now\000"
 10571      6261636B 
 10571      5F6E6F77 
 10571      00
 10572              	.LASF589:
 10573 23f1 5F6C765F 		.ascii	"_lv_event_dsc_t\000"
 10573      6576656E 
 10573      745F6473 
 10573      635F7400 
 10574              	.LASF146:
 10575 2401 4C565F53 		.ascii	"LV_STYLE_SHADOW_SPREAD\000"
 10575      54594C45 
 10575      5F534841 
 10575      444F575F 
 10575      53505245 
 10576              	.LASF34:
 10577 2418 6765745F 		.ascii	"get_glyph_dsc\000"
 10577      676C7970 
 10577      685F6473 
 10577      6300
 10578              	.LASF8:
 10579 2426 5F5F696E 		.ascii	"__int32_t\000"
 10579      7433325F 
 10579      7400
 10580              	.LASF482:
 10581 2430 73656C65 		.ascii	"selector\000"
 10581      63746F72 
 10581      00
 10582              	.LASF63:
 10583 2439 64656C65 		.ascii	"deleted_cb\000"
 10583      7465645F 
 10583      636200
 10584              	.LASF91:
 10585 2444 6C765F67 		.ascii	"lv_grad_dir_t\000"
 10585      7261645F 
 10585      6469725F 
 10585      7400
 10586              	.LASF407:
 10587 2452 6C617374 		.ascii	"last_raw_point\000"
 10587      5F726177 
 10587      5F706F69 
 10587      6E7400
 10588              	.LASF445:
 10589 2461 7265666F 		.ascii	"refocus_policy\000"
 10589      6375735F 
 10589      706F6C69 
 10589      637900
 10590              	.LASF613:
 10591 2470 6C765F6F 		.ascii	"lv_obj_remove_event_cb\000"
 10591      626A5F72 
 10591      656D6F76 
ARM GAS  C:\Users\haske\AppData\Local\Temp\ccnNTYZ7.s 			page 231


 10591      655F6576 
 10591      656E745F 
 10592              	.LASF331:
 10593 2487 5F6C765F 		.ascii	"_lv_disp_drv_t\000"
 10593      64697370 
 10593      5F647276 
 10593      5F7400
 10594              	.LASF426:
 10595 2496 6C6F6E67 		.ascii	"long_pr_sent\000"
 10595      5F70725F 
 10595      73656E74 
 10595      00
 10596              	.LASF570:
 10597 24a3 6C765F65 		.ascii	"lv_event_cb_t\000"
 10597      76656E74 
 10597      5F63625F 
 10597      7400
 10598              	.LASF506:
 10599 24b1 68656967 		.ascii	"height_def\000"
 10599      68745F64 
 10599      656600
 10600              	.LASF558:
 10601 24bc 4C565F45 		.ascii	"LV_EVENT_SCREEN_UNLOAD_START\000"
 10601      56454E54 
 10601      5F534352 
 10601      45454E5F 
 10601      554E4C4F 
 10602              	.LASF350:
 10603 24d9 636C6561 		.ascii	"clean_dcache_cb\000"
 10603      6E5F6463 
 10603      61636865 
 10603      5F636200 
 10604              	.LASF401:
 10605 24e9 67657374 		.ascii	"gesture_limit\000"
 10605      7572655F 
 10605      6C696D69 
 10605      7400
 10606              	.LASF246:
 10607 24f7 73656C5F 		.ascii	"sel_color\000"
 10607      636F6C6F 
 10607      7200
 10608              	.LASF626:
 10609 2501 6C765F65 		.ascii	"lv_event_get_hit_test_info\000"
 10609      76656E74 
 10609      5F676574 
 10609      5F686974 
 10609      5F746573 
 10610              	.LASF456:
 10611 251c 4C565F4F 		.ascii	"LV_OBJ_FLAG_SCROLL_ONE\000"
 10611      424A5F46 
 10611      4C41475F 
 10611      5343524F 
 10611      4C4C5F4F 
 10612              	.LASF222:
 10613 2533 62675F69 		.ascii	"bg_img_symbol_font\000"
 10613      6D675F73 
 10613      796D626F 
ARM GAS  C:\Users\haske\AppData\Local\Temp\ccnNTYZ7.s 			page 232


 10613      6C5F666F 
 10613      6E7400
 10614              	.LASF239:
 10615 2546 73686164 		.ascii	"shadow_ofs_y\000"
 10615      6F775F6F 
 10615      66735F79 
 10615      00
 10616              	.LASF59:
 10617 2553 5F6C765F 		.ascii	"_lv_anim_t\000"
 10617      616E696D 
 10617      5F7400
 10618              	.LASF516:
 10619 255e 70726576 		.ascii	"prev\000"
 10619      00
 10620              	.LASF99:
 10621 2563 6C765F67 		.ascii	"lv_grad_dsc_t\000"
 10621      7261645F 
 10621      6473635F 
 10621      7400
 10622              	.LASF309:
 10623 2571 6E5F7369 		.ascii	"n_size\000"
 10623      7A6500
 10624              	.LASF435:
 10625 2578 63757273 		.ascii	"cursor\000"
 10625      6F7200
 10626              	.LASF438:
 10627 257f 5F6C765F 		.ascii	"_lv_group_t\000"
 10627      67726F75 
 10627      705F7400 
 10628              	.LASF127:
 10629 258b 4C565F53 		.ascii	"LV_STYLE_BG_GRAD\000"
 10629      54594C45 
 10629      5F42475F 
 10629      47524144 
 10629      00
 10630              	.LASF529:
 10631 259c 4C565F45 		.ascii	"LV_EVENT_RELEASED\000"
 10631      56454E54 
 10631      5F52454C 
 10631      45415345 
 10631      4400
 10632              	.LASF33:
 10633 25ae 69735F70 		.ascii	"is_placeholder\000"
 10633      6C616365 
 10633      686F6C64 
 10633      657200
 10634              	.LASF142:
 10635 25bd 4C565F53 		.ascii	"LV_STYLE_OUTLINE_PAD\000"
 10635      54594C45 
 10635      5F4F5554 
 10635      4C494E45 
 10635      5F504144 
 10636              	.LASF408:
 10637 25d2 76656374 		.ascii	"vect\000"
 10637      00
 10638              	.LASF440:
 10639 25d7 6F626A5F 		.ascii	"obj_focus\000"
ARM GAS  C:\Users\haske\AppData\Local\Temp\ccnNTYZ7.s 			page 233


 10639      666F6375 
 10639      7300
 10640              	.LASF166:
 10641 25e1 4C565F53 		.ascii	"LV_STYLE_TEXT_LETTER_SPACE\000"
 10641      54594C45 
 10641      5F544558 
 10641      545F4C45 
 10641      54544552 
 10642              	.LASF592:
 10643 25fc 6C765F6F 		.ascii	"lv_obj_t\000"
 10643      626A5F74 
 10643      00
 10644              	.LASF587:
 10645 2605 6576656E 		.ascii	"event_dsc_cnt\000"
 10645      745F6473 
 10645      635F636E 
 10645      7400
 10646              		.ident	"GCC: (GNU Tools for ARM Embedded Processors) 5.4.1 20160609 (release) [ARM/embedded-5-bran
