ARM GAS  C:\Users\haske\AppData\Local\Temp\ccHSLozV.s 			page 1


   1              		.syntax unified
   2              		.cpu cortex-m4
   3              		.eabi_attribute 27, 1
   4              		.fpu fpv4-sp-d16
   5              		.eabi_attribute 20, 1
   6              		.eabi_attribute 21, 1
   7              		.eabi_attribute 23, 3
   8              		.eabi_attribute 24, 1
   9              		.eabi_attribute 25, 1
  10              		.eabi_attribute 26, 1
  11              		.eabi_attribute 30, 1
  12              		.eabi_attribute 34, 1
  13              		.eabi_attribute 18, 4
  14              		.thumb
  15              		.syntax unified
  16              		.file	"lv_img_decoder.c"
  17              		.text
  18              	.Ltext0:
  19              		.cfi_sections	.debug_frame
  20              		.section	.text.lv_img_decoder_built_in_info,"ax",%progbits
  21              		.align	2
  22              		.global	lv_img_decoder_built_in_info
  23              		.thumb
  24              		.thumb_func
  25              		.type	lv_img_decoder_built_in_info, %function
  26              	lv_img_decoder_built_in_info:
  27              	.LFB67:
  28              		.file 1 "..\\..\\..\\arduinoLCD\\test\\Pain Drain\\libraries\\lvgl\\src\\draw\\lv_img_decoder.c"
   1:..\..\..\arduinoLCD\test\Pain Drain\libraries\lvgl\src\draw/lv_img_decoder.c **** /**
   2:..\..\..\arduinoLCD\test\Pain Drain\libraries\lvgl\src\draw/lv_img_decoder.c ****  * @file lv_img_decoder.c
   3:..\..\..\arduinoLCD\test\Pain Drain\libraries\lvgl\src\draw/lv_img_decoder.c ****  *
   4:..\..\..\arduinoLCD\test\Pain Drain\libraries\lvgl\src\draw/lv_img_decoder.c ****  */
   5:..\..\..\arduinoLCD\test\Pain Drain\libraries\lvgl\src\draw/lv_img_decoder.c **** 
   6:..\..\..\arduinoLCD\test\Pain Drain\libraries\lvgl\src\draw/lv_img_decoder.c **** /*********************
   7:..\..\..\arduinoLCD\test\Pain Drain\libraries\lvgl\src\draw/lv_img_decoder.c ****  *      INCLUDES
   8:..\..\..\arduinoLCD\test\Pain Drain\libraries\lvgl\src\draw/lv_img_decoder.c ****  *********************/
   9:..\..\..\arduinoLCD\test\Pain Drain\libraries\lvgl\src\draw/lv_img_decoder.c **** #include "lv_img_decoder.h"
  10:..\..\..\arduinoLCD\test\Pain Drain\libraries\lvgl\src\draw/lv_img_decoder.c **** #include "../misc/lv_assert.h"
  11:..\..\..\arduinoLCD\test\Pain Drain\libraries\lvgl\src\draw/lv_img_decoder.c **** #include "../draw/lv_draw_img.h"
  12:..\..\..\arduinoLCD\test\Pain Drain\libraries\lvgl\src\draw/lv_img_decoder.c **** #include "../misc/lv_ll.h"
  13:..\..\..\arduinoLCD\test\Pain Drain\libraries\lvgl\src\draw/lv_img_decoder.c **** #include "../misc/lv_gc.h"
  14:..\..\..\arduinoLCD\test\Pain Drain\libraries\lvgl\src\draw/lv_img_decoder.c **** 
  15:..\..\..\arduinoLCD\test\Pain Drain\libraries\lvgl\src\draw/lv_img_decoder.c **** /*********************
  16:..\..\..\arduinoLCD\test\Pain Drain\libraries\lvgl\src\draw/lv_img_decoder.c ****  *      DEFINES
  17:..\..\..\arduinoLCD\test\Pain Drain\libraries\lvgl\src\draw/lv_img_decoder.c ****  *********************/
  18:..\..\..\arduinoLCD\test\Pain Drain\libraries\lvgl\src\draw/lv_img_decoder.c **** #define CF_BUILT_IN_FIRST   LV_IMG_CF_TRUE_COLOR
  19:..\..\..\arduinoLCD\test\Pain Drain\libraries\lvgl\src\draw/lv_img_decoder.c **** #define CF_BUILT_IN_LAST    LV_IMG_CF_RGB565A8
  20:..\..\..\arduinoLCD\test\Pain Drain\libraries\lvgl\src\draw/lv_img_decoder.c **** 
  21:..\..\..\arduinoLCD\test\Pain Drain\libraries\lvgl\src\draw/lv_img_decoder.c **** /**********************
  22:..\..\..\arduinoLCD\test\Pain Drain\libraries\lvgl\src\draw/lv_img_decoder.c ****  *      TYPEDEFS
  23:..\..\..\arduinoLCD\test\Pain Drain\libraries\lvgl\src\draw/lv_img_decoder.c ****  **********************/
  24:..\..\..\arduinoLCD\test\Pain Drain\libraries\lvgl\src\draw/lv_img_decoder.c **** 
  25:..\..\..\arduinoLCD\test\Pain Drain\libraries\lvgl\src\draw/lv_img_decoder.c **** typedef struct {
  26:..\..\..\arduinoLCD\test\Pain Drain\libraries\lvgl\src\draw/lv_img_decoder.c ****     lv_fs_file_t f;
  27:..\..\..\arduinoLCD\test\Pain Drain\libraries\lvgl\src\draw/lv_img_decoder.c ****     lv_color_t * palette;
  28:..\..\..\arduinoLCD\test\Pain Drain\libraries\lvgl\src\draw/lv_img_decoder.c ****     lv_opa_t * opa;
  29:..\..\..\arduinoLCD\test\Pain Drain\libraries\lvgl\src\draw/lv_img_decoder.c **** } lv_img_decoder_built_in_data_t;
ARM GAS  C:\Users\haske\AppData\Local\Temp\ccHSLozV.s 			page 2


  30:..\..\..\arduinoLCD\test\Pain Drain\libraries\lvgl\src\draw/lv_img_decoder.c **** 
  31:..\..\..\arduinoLCD\test\Pain Drain\libraries\lvgl\src\draw/lv_img_decoder.c **** /**********************
  32:..\..\..\arduinoLCD\test\Pain Drain\libraries\lvgl\src\draw/lv_img_decoder.c ****  *  STATIC PROTOTYPES
  33:..\..\..\arduinoLCD\test\Pain Drain\libraries\lvgl\src\draw/lv_img_decoder.c ****  **********************/
  34:..\..\..\arduinoLCD\test\Pain Drain\libraries\lvgl\src\draw/lv_img_decoder.c **** static lv_res_t lv_img_decoder_built_in_line_true_color(lv_img_decoder_dsc_t * dsc, lv_coord_t x, l
  35:..\..\..\arduinoLCD\test\Pain Drain\libraries\lvgl\src\draw/lv_img_decoder.c ****                                                         lv_coord_t len, uint8_t * buf);
  36:..\..\..\arduinoLCD\test\Pain Drain\libraries\lvgl\src\draw/lv_img_decoder.c **** static lv_res_t lv_img_decoder_built_in_line_alpha(lv_img_decoder_dsc_t * dsc, lv_coord_t x, lv_coo
  37:..\..\..\arduinoLCD\test\Pain Drain\libraries\lvgl\src\draw/lv_img_decoder.c ****                                                    lv_coord_t len, uint8_t * buf);
  38:..\..\..\arduinoLCD\test\Pain Drain\libraries\lvgl\src\draw/lv_img_decoder.c **** static lv_res_t lv_img_decoder_built_in_line_indexed(lv_img_decoder_dsc_t * dsc, lv_coord_t x, lv_c
  39:..\..\..\arduinoLCD\test\Pain Drain\libraries\lvgl\src\draw/lv_img_decoder.c ****                                                      lv_coord_t len, uint8_t * buf);
  40:..\..\..\arduinoLCD\test\Pain Drain\libraries\lvgl\src\draw/lv_img_decoder.c **** 
  41:..\..\..\arduinoLCD\test\Pain Drain\libraries\lvgl\src\draw/lv_img_decoder.c **** /**********************
  42:..\..\..\arduinoLCD\test\Pain Drain\libraries\lvgl\src\draw/lv_img_decoder.c ****  *  STATIC VARIABLES
  43:..\..\..\arduinoLCD\test\Pain Drain\libraries\lvgl\src\draw/lv_img_decoder.c ****  **********************/
  44:..\..\..\arduinoLCD\test\Pain Drain\libraries\lvgl\src\draw/lv_img_decoder.c **** 
  45:..\..\..\arduinoLCD\test\Pain Drain\libraries\lvgl\src\draw/lv_img_decoder.c **** /**********************
  46:..\..\..\arduinoLCD\test\Pain Drain\libraries\lvgl\src\draw/lv_img_decoder.c ****  *      MACROS
  47:..\..\..\arduinoLCD\test\Pain Drain\libraries\lvgl\src\draw/lv_img_decoder.c ****  **********************/
  48:..\..\..\arduinoLCD\test\Pain Drain\libraries\lvgl\src\draw/lv_img_decoder.c **** 
  49:..\..\..\arduinoLCD\test\Pain Drain\libraries\lvgl\src\draw/lv_img_decoder.c **** /**********************
  50:..\..\..\arduinoLCD\test\Pain Drain\libraries\lvgl\src\draw/lv_img_decoder.c ****  *   GLOBAL FUNCTIONS
  51:..\..\..\arduinoLCD\test\Pain Drain\libraries\lvgl\src\draw/lv_img_decoder.c ****  **********************/
  52:..\..\..\arduinoLCD\test\Pain Drain\libraries\lvgl\src\draw/lv_img_decoder.c **** 
  53:..\..\..\arduinoLCD\test\Pain Drain\libraries\lvgl\src\draw/lv_img_decoder.c **** /**
  54:..\..\..\arduinoLCD\test\Pain Drain\libraries\lvgl\src\draw/lv_img_decoder.c ****  * Initialize the image decoder module
  55:..\..\..\arduinoLCD\test\Pain Drain\libraries\lvgl\src\draw/lv_img_decoder.c ****  */
  56:..\..\..\arduinoLCD\test\Pain Drain\libraries\lvgl\src\draw/lv_img_decoder.c **** void _lv_img_decoder_init(void)
  57:..\..\..\arduinoLCD\test\Pain Drain\libraries\lvgl\src\draw/lv_img_decoder.c **** {
  58:..\..\..\arduinoLCD\test\Pain Drain\libraries\lvgl\src\draw/lv_img_decoder.c ****     _lv_ll_init(&LV_GC_ROOT(_lv_img_decoder_ll), sizeof(lv_img_decoder_t));
  59:..\..\..\arduinoLCD\test\Pain Drain\libraries\lvgl\src\draw/lv_img_decoder.c **** 
  60:..\..\..\arduinoLCD\test\Pain Drain\libraries\lvgl\src\draw/lv_img_decoder.c ****     lv_img_decoder_t * decoder;
  61:..\..\..\arduinoLCD\test\Pain Drain\libraries\lvgl\src\draw/lv_img_decoder.c **** 
  62:..\..\..\arduinoLCD\test\Pain Drain\libraries\lvgl\src\draw/lv_img_decoder.c ****     /*Create a decoder for the built in color format*/
  63:..\..\..\arduinoLCD\test\Pain Drain\libraries\lvgl\src\draw/lv_img_decoder.c ****     decoder = lv_img_decoder_create();
  64:..\..\..\arduinoLCD\test\Pain Drain\libraries\lvgl\src\draw/lv_img_decoder.c ****     LV_ASSERT_MALLOC(decoder);
  65:..\..\..\arduinoLCD\test\Pain Drain\libraries\lvgl\src\draw/lv_img_decoder.c ****     if(decoder == NULL) {
  66:..\..\..\arduinoLCD\test\Pain Drain\libraries\lvgl\src\draw/lv_img_decoder.c ****         LV_LOG_WARN("lv_img_decoder_init: out of memory");
  67:..\..\..\arduinoLCD\test\Pain Drain\libraries\lvgl\src\draw/lv_img_decoder.c ****         return;
  68:..\..\..\arduinoLCD\test\Pain Drain\libraries\lvgl\src\draw/lv_img_decoder.c ****     }
  69:..\..\..\arduinoLCD\test\Pain Drain\libraries\lvgl\src\draw/lv_img_decoder.c **** 
  70:..\..\..\arduinoLCD\test\Pain Drain\libraries\lvgl\src\draw/lv_img_decoder.c ****     lv_img_decoder_set_info_cb(decoder, lv_img_decoder_built_in_info);
  71:..\..\..\arduinoLCD\test\Pain Drain\libraries\lvgl\src\draw/lv_img_decoder.c ****     lv_img_decoder_set_open_cb(decoder, lv_img_decoder_built_in_open);
  72:..\..\..\arduinoLCD\test\Pain Drain\libraries\lvgl\src\draw/lv_img_decoder.c ****     lv_img_decoder_set_read_line_cb(decoder, lv_img_decoder_built_in_read_line);
  73:..\..\..\arduinoLCD\test\Pain Drain\libraries\lvgl\src\draw/lv_img_decoder.c ****     lv_img_decoder_set_close_cb(decoder, lv_img_decoder_built_in_close);
  74:..\..\..\arduinoLCD\test\Pain Drain\libraries\lvgl\src\draw/lv_img_decoder.c **** }
  75:..\..\..\arduinoLCD\test\Pain Drain\libraries\lvgl\src\draw/lv_img_decoder.c **** 
  76:..\..\..\arduinoLCD\test\Pain Drain\libraries\lvgl\src\draw/lv_img_decoder.c **** /**
  77:..\..\..\arduinoLCD\test\Pain Drain\libraries\lvgl\src\draw/lv_img_decoder.c ****  * Get information about an image.
  78:..\..\..\arduinoLCD\test\Pain Drain\libraries\lvgl\src\draw/lv_img_decoder.c ****  * Try the created image decoder one by one. Once one is able to get info that info will be used.
  79:..\..\..\arduinoLCD\test\Pain Drain\libraries\lvgl\src\draw/lv_img_decoder.c ****  * @param src the image source. E.g. file name or variable.
  80:..\..\..\arduinoLCD\test\Pain Drain\libraries\lvgl\src\draw/lv_img_decoder.c ****  * @param header the image info will be stored here
  81:..\..\..\arduinoLCD\test\Pain Drain\libraries\lvgl\src\draw/lv_img_decoder.c ****  * @return LV_RES_OK: success; LV_RES_INV: wasn't able to get info about the image
  82:..\..\..\arduinoLCD\test\Pain Drain\libraries\lvgl\src\draw/lv_img_decoder.c ****  */
  83:..\..\..\arduinoLCD\test\Pain Drain\libraries\lvgl\src\draw/lv_img_decoder.c **** lv_res_t lv_img_decoder_get_info(const void * src, lv_img_header_t * header)
  84:..\..\..\arduinoLCD\test\Pain Drain\libraries\lvgl\src\draw/lv_img_decoder.c **** {
  85:..\..\..\arduinoLCD\test\Pain Drain\libraries\lvgl\src\draw/lv_img_decoder.c ****     lv_memset_00(header, sizeof(lv_img_header_t));
  86:..\..\..\arduinoLCD\test\Pain Drain\libraries\lvgl\src\draw/lv_img_decoder.c **** 
ARM GAS  C:\Users\haske\AppData\Local\Temp\ccHSLozV.s 			page 3


  87:..\..\..\arduinoLCD\test\Pain Drain\libraries\lvgl\src\draw/lv_img_decoder.c ****     if(src == NULL) return LV_RES_INV;
  88:..\..\..\arduinoLCD\test\Pain Drain\libraries\lvgl\src\draw/lv_img_decoder.c **** 
  89:..\..\..\arduinoLCD\test\Pain Drain\libraries\lvgl\src\draw/lv_img_decoder.c ****     lv_img_src_t src_type = lv_img_src_get_type(src);
  90:..\..\..\arduinoLCD\test\Pain Drain\libraries\lvgl\src\draw/lv_img_decoder.c ****     if(src_type == LV_IMG_SRC_VARIABLE) {
  91:..\..\..\arduinoLCD\test\Pain Drain\libraries\lvgl\src\draw/lv_img_decoder.c ****         const lv_img_dsc_t * img_dsc = src;
  92:..\..\..\arduinoLCD\test\Pain Drain\libraries\lvgl\src\draw/lv_img_decoder.c ****         if(img_dsc->data == NULL) return LV_RES_INV;
  93:..\..\..\arduinoLCD\test\Pain Drain\libraries\lvgl\src\draw/lv_img_decoder.c ****     }
  94:..\..\..\arduinoLCD\test\Pain Drain\libraries\lvgl\src\draw/lv_img_decoder.c **** 
  95:..\..\..\arduinoLCD\test\Pain Drain\libraries\lvgl\src\draw/lv_img_decoder.c ****     lv_res_t res = LV_RES_INV;
  96:..\..\..\arduinoLCD\test\Pain Drain\libraries\lvgl\src\draw/lv_img_decoder.c ****     lv_img_decoder_t * d;
  97:..\..\..\arduinoLCD\test\Pain Drain\libraries\lvgl\src\draw/lv_img_decoder.c ****     _LV_LL_READ(&LV_GC_ROOT(_lv_img_decoder_ll), d) {
  98:..\..\..\arduinoLCD\test\Pain Drain\libraries\lvgl\src\draw/lv_img_decoder.c ****         if(d->info_cb) {
  99:..\..\..\arduinoLCD\test\Pain Drain\libraries\lvgl\src\draw/lv_img_decoder.c ****             res = d->info_cb(d, src, header);
 100:..\..\..\arduinoLCD\test\Pain Drain\libraries\lvgl\src\draw/lv_img_decoder.c ****             if(res == LV_RES_OK) break;
 101:..\..\..\arduinoLCD\test\Pain Drain\libraries\lvgl\src\draw/lv_img_decoder.c ****         }
 102:..\..\..\arduinoLCD\test\Pain Drain\libraries\lvgl\src\draw/lv_img_decoder.c ****     }
 103:..\..\..\arduinoLCD\test\Pain Drain\libraries\lvgl\src\draw/lv_img_decoder.c **** 
 104:..\..\..\arduinoLCD\test\Pain Drain\libraries\lvgl\src\draw/lv_img_decoder.c ****     return res;
 105:..\..\..\arduinoLCD\test\Pain Drain\libraries\lvgl\src\draw/lv_img_decoder.c **** }
 106:..\..\..\arduinoLCD\test\Pain Drain\libraries\lvgl\src\draw/lv_img_decoder.c **** 
 107:..\..\..\arduinoLCD\test\Pain Drain\libraries\lvgl\src\draw/lv_img_decoder.c **** lv_res_t lv_img_decoder_open(lv_img_decoder_dsc_t * dsc, const void * src, lv_color_t color, int32_
 108:..\..\..\arduinoLCD\test\Pain Drain\libraries\lvgl\src\draw/lv_img_decoder.c **** {
 109:..\..\..\arduinoLCD\test\Pain Drain\libraries\lvgl\src\draw/lv_img_decoder.c ****     lv_memset_00(dsc, sizeof(lv_img_decoder_dsc_t));
 110:..\..\..\arduinoLCD\test\Pain Drain\libraries\lvgl\src\draw/lv_img_decoder.c **** 
 111:..\..\..\arduinoLCD\test\Pain Drain\libraries\lvgl\src\draw/lv_img_decoder.c ****     if(src == NULL) return LV_RES_INV;
 112:..\..\..\arduinoLCD\test\Pain Drain\libraries\lvgl\src\draw/lv_img_decoder.c ****     lv_img_src_t src_type = lv_img_src_get_type(src);
 113:..\..\..\arduinoLCD\test\Pain Drain\libraries\lvgl\src\draw/lv_img_decoder.c ****     if(src_type == LV_IMG_SRC_VARIABLE) {
 114:..\..\..\arduinoLCD\test\Pain Drain\libraries\lvgl\src\draw/lv_img_decoder.c ****         const lv_img_dsc_t * img_dsc = src;
 115:..\..\..\arduinoLCD\test\Pain Drain\libraries\lvgl\src\draw/lv_img_decoder.c ****         if(img_dsc->data == NULL) return LV_RES_INV;
 116:..\..\..\arduinoLCD\test\Pain Drain\libraries\lvgl\src\draw/lv_img_decoder.c ****     }
 117:..\..\..\arduinoLCD\test\Pain Drain\libraries\lvgl\src\draw/lv_img_decoder.c **** 
 118:..\..\..\arduinoLCD\test\Pain Drain\libraries\lvgl\src\draw/lv_img_decoder.c ****     dsc->color    = color;
 119:..\..\..\arduinoLCD\test\Pain Drain\libraries\lvgl\src\draw/lv_img_decoder.c ****     dsc->src_type = src_type;
 120:..\..\..\arduinoLCD\test\Pain Drain\libraries\lvgl\src\draw/lv_img_decoder.c ****     dsc->frame_id = frame_id;
 121:..\..\..\arduinoLCD\test\Pain Drain\libraries\lvgl\src\draw/lv_img_decoder.c **** 
 122:..\..\..\arduinoLCD\test\Pain Drain\libraries\lvgl\src\draw/lv_img_decoder.c ****     if(dsc->src_type == LV_IMG_SRC_FILE) {
 123:..\..\..\arduinoLCD\test\Pain Drain\libraries\lvgl\src\draw/lv_img_decoder.c ****         size_t fnlen = strlen(src);
 124:..\..\..\arduinoLCD\test\Pain Drain\libraries\lvgl\src\draw/lv_img_decoder.c ****         dsc->src = lv_mem_alloc(fnlen + 1);
 125:..\..\..\arduinoLCD\test\Pain Drain\libraries\lvgl\src\draw/lv_img_decoder.c ****         LV_ASSERT_MALLOC(dsc->src);
 126:..\..\..\arduinoLCD\test\Pain Drain\libraries\lvgl\src\draw/lv_img_decoder.c ****         if(dsc->src == NULL) {
 127:..\..\..\arduinoLCD\test\Pain Drain\libraries\lvgl\src\draw/lv_img_decoder.c ****             LV_LOG_WARN("lv_img_decoder_open: out of memory");
 128:..\..\..\arduinoLCD\test\Pain Drain\libraries\lvgl\src\draw/lv_img_decoder.c ****             return LV_RES_INV;
 129:..\..\..\arduinoLCD\test\Pain Drain\libraries\lvgl\src\draw/lv_img_decoder.c ****         }
 130:..\..\..\arduinoLCD\test\Pain Drain\libraries\lvgl\src\draw/lv_img_decoder.c ****         strcpy((char *)dsc->src, src);
 131:..\..\..\arduinoLCD\test\Pain Drain\libraries\lvgl\src\draw/lv_img_decoder.c ****     }
 132:..\..\..\arduinoLCD\test\Pain Drain\libraries\lvgl\src\draw/lv_img_decoder.c ****     else {
 133:..\..\..\arduinoLCD\test\Pain Drain\libraries\lvgl\src\draw/lv_img_decoder.c ****         dsc->src = src;
 134:..\..\..\arduinoLCD\test\Pain Drain\libraries\lvgl\src\draw/lv_img_decoder.c ****     }
 135:..\..\..\arduinoLCD\test\Pain Drain\libraries\lvgl\src\draw/lv_img_decoder.c **** 
 136:..\..\..\arduinoLCD\test\Pain Drain\libraries\lvgl\src\draw/lv_img_decoder.c ****     lv_res_t res = LV_RES_INV;
 137:..\..\..\arduinoLCD\test\Pain Drain\libraries\lvgl\src\draw/lv_img_decoder.c **** 
 138:..\..\..\arduinoLCD\test\Pain Drain\libraries\lvgl\src\draw/lv_img_decoder.c ****     lv_img_decoder_t * decoder;
 139:..\..\..\arduinoLCD\test\Pain Drain\libraries\lvgl\src\draw/lv_img_decoder.c ****     _LV_LL_READ(&LV_GC_ROOT(_lv_img_decoder_ll), decoder) {
 140:..\..\..\arduinoLCD\test\Pain Drain\libraries\lvgl\src\draw/lv_img_decoder.c ****         /*Info and Open callbacks are required*/
 141:..\..\..\arduinoLCD\test\Pain Drain\libraries\lvgl\src\draw/lv_img_decoder.c ****         if(decoder->info_cb == NULL || decoder->open_cb == NULL) continue;
 142:..\..\..\arduinoLCD\test\Pain Drain\libraries\lvgl\src\draw/lv_img_decoder.c **** 
 143:..\..\..\arduinoLCD\test\Pain Drain\libraries\lvgl\src\draw/lv_img_decoder.c ****         res = decoder->info_cb(decoder, src, &dsc->header);
ARM GAS  C:\Users\haske\AppData\Local\Temp\ccHSLozV.s 			page 4


 144:..\..\..\arduinoLCD\test\Pain Drain\libraries\lvgl\src\draw/lv_img_decoder.c ****         if(res != LV_RES_OK) continue;
 145:..\..\..\arduinoLCD\test\Pain Drain\libraries\lvgl\src\draw/lv_img_decoder.c **** 
 146:..\..\..\arduinoLCD\test\Pain Drain\libraries\lvgl\src\draw/lv_img_decoder.c ****         dsc->decoder = decoder;
 147:..\..\..\arduinoLCD\test\Pain Drain\libraries\lvgl\src\draw/lv_img_decoder.c ****         res = decoder->open_cb(decoder, dsc);
 148:..\..\..\arduinoLCD\test\Pain Drain\libraries\lvgl\src\draw/lv_img_decoder.c **** 
 149:..\..\..\arduinoLCD\test\Pain Drain\libraries\lvgl\src\draw/lv_img_decoder.c ****         /*Opened successfully. It is a good decoder for this image source*/
 150:..\..\..\arduinoLCD\test\Pain Drain\libraries\lvgl\src\draw/lv_img_decoder.c ****         if(res == LV_RES_OK) return res;
 151:..\..\..\arduinoLCD\test\Pain Drain\libraries\lvgl\src\draw/lv_img_decoder.c **** 
 152:..\..\..\arduinoLCD\test\Pain Drain\libraries\lvgl\src\draw/lv_img_decoder.c ****         /*Prepare for the next loop*/
 153:..\..\..\arduinoLCD\test\Pain Drain\libraries\lvgl\src\draw/lv_img_decoder.c ****         lv_memset_00(&dsc->header, sizeof(lv_img_header_t));
 154:..\..\..\arduinoLCD\test\Pain Drain\libraries\lvgl\src\draw/lv_img_decoder.c **** 
 155:..\..\..\arduinoLCD\test\Pain Drain\libraries\lvgl\src\draw/lv_img_decoder.c ****         dsc->error_msg = NULL;
 156:..\..\..\arduinoLCD\test\Pain Drain\libraries\lvgl\src\draw/lv_img_decoder.c ****         dsc->img_data  = NULL;
 157:..\..\..\arduinoLCD\test\Pain Drain\libraries\lvgl\src\draw/lv_img_decoder.c ****         dsc->user_data = NULL;
 158:..\..\..\arduinoLCD\test\Pain Drain\libraries\lvgl\src\draw/lv_img_decoder.c ****         dsc->time_to_open = 0;
 159:..\..\..\arduinoLCD\test\Pain Drain\libraries\lvgl\src\draw/lv_img_decoder.c ****     }
 160:..\..\..\arduinoLCD\test\Pain Drain\libraries\lvgl\src\draw/lv_img_decoder.c **** 
 161:..\..\..\arduinoLCD\test\Pain Drain\libraries\lvgl\src\draw/lv_img_decoder.c ****     if(dsc->src_type == LV_IMG_SRC_FILE)
 162:..\..\..\arduinoLCD\test\Pain Drain\libraries\lvgl\src\draw/lv_img_decoder.c ****         lv_mem_free((void *)dsc->src);
 163:..\..\..\arduinoLCD\test\Pain Drain\libraries\lvgl\src\draw/lv_img_decoder.c **** 
 164:..\..\..\arduinoLCD\test\Pain Drain\libraries\lvgl\src\draw/lv_img_decoder.c ****     return res;
 165:..\..\..\arduinoLCD\test\Pain Drain\libraries\lvgl\src\draw/lv_img_decoder.c **** }
 166:..\..\..\arduinoLCD\test\Pain Drain\libraries\lvgl\src\draw/lv_img_decoder.c **** 
 167:..\..\..\arduinoLCD\test\Pain Drain\libraries\lvgl\src\draw/lv_img_decoder.c **** /**
 168:..\..\..\arduinoLCD\test\Pain Drain\libraries\lvgl\src\draw/lv_img_decoder.c ****  * Read a line from an opened image
 169:..\..\..\arduinoLCD\test\Pain Drain\libraries\lvgl\src\draw/lv_img_decoder.c ****  * @param dsc pointer to `lv_img_decoder_dsc_t` used in `lv_img_decoder_open`
 170:..\..\..\arduinoLCD\test\Pain Drain\libraries\lvgl\src\draw/lv_img_decoder.c ****  * @param x start X coordinate (from left)
 171:..\..\..\arduinoLCD\test\Pain Drain\libraries\lvgl\src\draw/lv_img_decoder.c ****  * @param y start Y coordinate (from top)
 172:..\..\..\arduinoLCD\test\Pain Drain\libraries\lvgl\src\draw/lv_img_decoder.c ****  * @param len number of pixels to read
 173:..\..\..\arduinoLCD\test\Pain Drain\libraries\lvgl\src\draw/lv_img_decoder.c ****  * @param buf store the data here
 174:..\..\..\arduinoLCD\test\Pain Drain\libraries\lvgl\src\draw/lv_img_decoder.c ****  * @return LV_RES_OK: success; LV_RES_INV: an error occurred
 175:..\..\..\arduinoLCD\test\Pain Drain\libraries\lvgl\src\draw/lv_img_decoder.c ****  */
 176:..\..\..\arduinoLCD\test\Pain Drain\libraries\lvgl\src\draw/lv_img_decoder.c **** lv_res_t lv_img_decoder_read_line(lv_img_decoder_dsc_t * dsc, lv_coord_t x, lv_coord_t y, lv_coord_
 177:..\..\..\arduinoLCD\test\Pain Drain\libraries\lvgl\src\draw/lv_img_decoder.c **** {
 178:..\..\..\arduinoLCD\test\Pain Drain\libraries\lvgl\src\draw/lv_img_decoder.c ****     lv_res_t res = LV_RES_INV;
 179:..\..\..\arduinoLCD\test\Pain Drain\libraries\lvgl\src\draw/lv_img_decoder.c ****     if(dsc->decoder->read_line_cb) res = dsc->decoder->read_line_cb(dsc->decoder, dsc, x, y, len, b
 180:..\..\..\arduinoLCD\test\Pain Drain\libraries\lvgl\src\draw/lv_img_decoder.c **** 
 181:..\..\..\arduinoLCD\test\Pain Drain\libraries\lvgl\src\draw/lv_img_decoder.c ****     return res;
 182:..\..\..\arduinoLCD\test\Pain Drain\libraries\lvgl\src\draw/lv_img_decoder.c **** }
 183:..\..\..\arduinoLCD\test\Pain Drain\libraries\lvgl\src\draw/lv_img_decoder.c **** 
 184:..\..\..\arduinoLCD\test\Pain Drain\libraries\lvgl\src\draw/lv_img_decoder.c **** /**
 185:..\..\..\arduinoLCD\test\Pain Drain\libraries\lvgl\src\draw/lv_img_decoder.c ****  * Close a decoding session
 186:..\..\..\arduinoLCD\test\Pain Drain\libraries\lvgl\src\draw/lv_img_decoder.c ****  * @param dsc pointer to `lv_img_decoder_dsc_t` used in `lv_img_decoder_open`
 187:..\..\..\arduinoLCD\test\Pain Drain\libraries\lvgl\src\draw/lv_img_decoder.c ****  */
 188:..\..\..\arduinoLCD\test\Pain Drain\libraries\lvgl\src\draw/lv_img_decoder.c **** void lv_img_decoder_close(lv_img_decoder_dsc_t * dsc)
 189:..\..\..\arduinoLCD\test\Pain Drain\libraries\lvgl\src\draw/lv_img_decoder.c **** {
 190:..\..\..\arduinoLCD\test\Pain Drain\libraries\lvgl\src\draw/lv_img_decoder.c ****     if(dsc->decoder) {
 191:..\..\..\arduinoLCD\test\Pain Drain\libraries\lvgl\src\draw/lv_img_decoder.c ****         if(dsc->decoder->close_cb) dsc->decoder->close_cb(dsc->decoder, dsc);
 192:..\..\..\arduinoLCD\test\Pain Drain\libraries\lvgl\src\draw/lv_img_decoder.c **** 
 193:..\..\..\arduinoLCD\test\Pain Drain\libraries\lvgl\src\draw/lv_img_decoder.c ****         if(dsc->src_type == LV_IMG_SRC_FILE) {
 194:..\..\..\arduinoLCD\test\Pain Drain\libraries\lvgl\src\draw/lv_img_decoder.c ****             lv_mem_free((void *)dsc->src);
 195:..\..\..\arduinoLCD\test\Pain Drain\libraries\lvgl\src\draw/lv_img_decoder.c ****             dsc->src = NULL;
 196:..\..\..\arduinoLCD\test\Pain Drain\libraries\lvgl\src\draw/lv_img_decoder.c ****         }
 197:..\..\..\arduinoLCD\test\Pain Drain\libraries\lvgl\src\draw/lv_img_decoder.c ****     }
 198:..\..\..\arduinoLCD\test\Pain Drain\libraries\lvgl\src\draw/lv_img_decoder.c **** }
 199:..\..\..\arduinoLCD\test\Pain Drain\libraries\lvgl\src\draw/lv_img_decoder.c **** 
 200:..\..\..\arduinoLCD\test\Pain Drain\libraries\lvgl\src\draw/lv_img_decoder.c **** /**
ARM GAS  C:\Users\haske\AppData\Local\Temp\ccHSLozV.s 			page 5


 201:..\..\..\arduinoLCD\test\Pain Drain\libraries\lvgl\src\draw/lv_img_decoder.c ****  * Create a new image decoder
 202:..\..\..\arduinoLCD\test\Pain Drain\libraries\lvgl\src\draw/lv_img_decoder.c ****  * @return pointer to the new image decoder
 203:..\..\..\arduinoLCD\test\Pain Drain\libraries\lvgl\src\draw/lv_img_decoder.c ****  */
 204:..\..\..\arduinoLCD\test\Pain Drain\libraries\lvgl\src\draw/lv_img_decoder.c **** lv_img_decoder_t * lv_img_decoder_create(void)
 205:..\..\..\arduinoLCD\test\Pain Drain\libraries\lvgl\src\draw/lv_img_decoder.c **** {
 206:..\..\..\arduinoLCD\test\Pain Drain\libraries\lvgl\src\draw/lv_img_decoder.c ****     lv_img_decoder_t * decoder;
 207:..\..\..\arduinoLCD\test\Pain Drain\libraries\lvgl\src\draw/lv_img_decoder.c ****     decoder = _lv_ll_ins_head(&LV_GC_ROOT(_lv_img_decoder_ll));
 208:..\..\..\arduinoLCD\test\Pain Drain\libraries\lvgl\src\draw/lv_img_decoder.c ****     LV_ASSERT_MALLOC(decoder);
 209:..\..\..\arduinoLCD\test\Pain Drain\libraries\lvgl\src\draw/lv_img_decoder.c ****     if(decoder == NULL) return NULL;
 210:..\..\..\arduinoLCD\test\Pain Drain\libraries\lvgl\src\draw/lv_img_decoder.c **** 
 211:..\..\..\arduinoLCD\test\Pain Drain\libraries\lvgl\src\draw/lv_img_decoder.c ****     lv_memset_00(decoder, sizeof(lv_img_decoder_t));
 212:..\..\..\arduinoLCD\test\Pain Drain\libraries\lvgl\src\draw/lv_img_decoder.c **** 
 213:..\..\..\arduinoLCD\test\Pain Drain\libraries\lvgl\src\draw/lv_img_decoder.c ****     return decoder;
 214:..\..\..\arduinoLCD\test\Pain Drain\libraries\lvgl\src\draw/lv_img_decoder.c **** }
 215:..\..\..\arduinoLCD\test\Pain Drain\libraries\lvgl\src\draw/lv_img_decoder.c **** 
 216:..\..\..\arduinoLCD\test\Pain Drain\libraries\lvgl\src\draw/lv_img_decoder.c **** /**
 217:..\..\..\arduinoLCD\test\Pain Drain\libraries\lvgl\src\draw/lv_img_decoder.c ****  * Delete an image decoder
 218:..\..\..\arduinoLCD\test\Pain Drain\libraries\lvgl\src\draw/lv_img_decoder.c ****  * @param decoder pointer to an image decoder
 219:..\..\..\arduinoLCD\test\Pain Drain\libraries\lvgl\src\draw/lv_img_decoder.c ****  */
 220:..\..\..\arduinoLCD\test\Pain Drain\libraries\lvgl\src\draw/lv_img_decoder.c **** void lv_img_decoder_delete(lv_img_decoder_t * decoder)
 221:..\..\..\arduinoLCD\test\Pain Drain\libraries\lvgl\src\draw/lv_img_decoder.c **** {
 222:..\..\..\arduinoLCD\test\Pain Drain\libraries\lvgl\src\draw/lv_img_decoder.c ****     _lv_ll_remove(&LV_GC_ROOT(_lv_img_decoder_ll), decoder);
 223:..\..\..\arduinoLCD\test\Pain Drain\libraries\lvgl\src\draw/lv_img_decoder.c ****     lv_mem_free(decoder);
 224:..\..\..\arduinoLCD\test\Pain Drain\libraries\lvgl\src\draw/lv_img_decoder.c **** }
 225:..\..\..\arduinoLCD\test\Pain Drain\libraries\lvgl\src\draw/lv_img_decoder.c **** 
 226:..\..\..\arduinoLCD\test\Pain Drain\libraries\lvgl\src\draw/lv_img_decoder.c **** /**
 227:..\..\..\arduinoLCD\test\Pain Drain\libraries\lvgl\src\draw/lv_img_decoder.c ****  * Set a callback to get information about the image
 228:..\..\..\arduinoLCD\test\Pain Drain\libraries\lvgl\src\draw/lv_img_decoder.c ****  * @param decoder pointer to an image decoder
 229:..\..\..\arduinoLCD\test\Pain Drain\libraries\lvgl\src\draw/lv_img_decoder.c ****  * @param info_cb a function to collect info about an image (fill an `lv_img_header_t` struct)
 230:..\..\..\arduinoLCD\test\Pain Drain\libraries\lvgl\src\draw/lv_img_decoder.c ****  */
 231:..\..\..\arduinoLCD\test\Pain Drain\libraries\lvgl\src\draw/lv_img_decoder.c **** void lv_img_decoder_set_info_cb(lv_img_decoder_t * decoder, lv_img_decoder_info_f_t info_cb)
 232:..\..\..\arduinoLCD\test\Pain Drain\libraries\lvgl\src\draw/lv_img_decoder.c **** {
 233:..\..\..\arduinoLCD\test\Pain Drain\libraries\lvgl\src\draw/lv_img_decoder.c ****     decoder->info_cb = info_cb;
 234:..\..\..\arduinoLCD\test\Pain Drain\libraries\lvgl\src\draw/lv_img_decoder.c **** }
 235:..\..\..\arduinoLCD\test\Pain Drain\libraries\lvgl\src\draw/lv_img_decoder.c **** 
 236:..\..\..\arduinoLCD\test\Pain Drain\libraries\lvgl\src\draw/lv_img_decoder.c **** /**
 237:..\..\..\arduinoLCD\test\Pain Drain\libraries\lvgl\src\draw/lv_img_decoder.c ****  * Set a callback to open an image
 238:..\..\..\arduinoLCD\test\Pain Drain\libraries\lvgl\src\draw/lv_img_decoder.c ****  * @param decoder pointer to an image decoder
 239:..\..\..\arduinoLCD\test\Pain Drain\libraries\lvgl\src\draw/lv_img_decoder.c ****  * @param open_cb a function to open an image
 240:..\..\..\arduinoLCD\test\Pain Drain\libraries\lvgl\src\draw/lv_img_decoder.c ****  */
 241:..\..\..\arduinoLCD\test\Pain Drain\libraries\lvgl\src\draw/lv_img_decoder.c **** void lv_img_decoder_set_open_cb(lv_img_decoder_t * decoder, lv_img_decoder_open_f_t open_cb)
 242:..\..\..\arduinoLCD\test\Pain Drain\libraries\lvgl\src\draw/lv_img_decoder.c **** {
 243:..\..\..\arduinoLCD\test\Pain Drain\libraries\lvgl\src\draw/lv_img_decoder.c ****     decoder->open_cb = open_cb;
 244:..\..\..\arduinoLCD\test\Pain Drain\libraries\lvgl\src\draw/lv_img_decoder.c **** }
 245:..\..\..\arduinoLCD\test\Pain Drain\libraries\lvgl\src\draw/lv_img_decoder.c **** 
 246:..\..\..\arduinoLCD\test\Pain Drain\libraries\lvgl\src\draw/lv_img_decoder.c **** /**
 247:..\..\..\arduinoLCD\test\Pain Drain\libraries\lvgl\src\draw/lv_img_decoder.c ****  * Set a callback to a decoded line of an image
 248:..\..\..\arduinoLCD\test\Pain Drain\libraries\lvgl\src\draw/lv_img_decoder.c ****  * @param decoder pointer to an image decoder
 249:..\..\..\arduinoLCD\test\Pain Drain\libraries\lvgl\src\draw/lv_img_decoder.c ****  * @param read_line_cb a function to read a line of an image
 250:..\..\..\arduinoLCD\test\Pain Drain\libraries\lvgl\src\draw/lv_img_decoder.c ****  */
 251:..\..\..\arduinoLCD\test\Pain Drain\libraries\lvgl\src\draw/lv_img_decoder.c **** void lv_img_decoder_set_read_line_cb(lv_img_decoder_t * decoder, lv_img_decoder_read_line_f_t read_
 252:..\..\..\arduinoLCD\test\Pain Drain\libraries\lvgl\src\draw/lv_img_decoder.c **** {
 253:..\..\..\arduinoLCD\test\Pain Drain\libraries\lvgl\src\draw/lv_img_decoder.c ****     decoder->read_line_cb = read_line_cb;
 254:..\..\..\arduinoLCD\test\Pain Drain\libraries\lvgl\src\draw/lv_img_decoder.c **** }
 255:..\..\..\arduinoLCD\test\Pain Drain\libraries\lvgl\src\draw/lv_img_decoder.c **** 
 256:..\..\..\arduinoLCD\test\Pain Drain\libraries\lvgl\src\draw/lv_img_decoder.c **** /**
 257:..\..\..\arduinoLCD\test\Pain Drain\libraries\lvgl\src\draw/lv_img_decoder.c ****  * Set a callback to close a decoding session. E.g. close files and free other resources.
ARM GAS  C:\Users\haske\AppData\Local\Temp\ccHSLozV.s 			page 6


 258:..\..\..\arduinoLCD\test\Pain Drain\libraries\lvgl\src\draw/lv_img_decoder.c ****  * @param decoder pointer to an image decoder
 259:..\..\..\arduinoLCD\test\Pain Drain\libraries\lvgl\src\draw/lv_img_decoder.c ****  * @param close_cb a function to close a decoding session
 260:..\..\..\arduinoLCD\test\Pain Drain\libraries\lvgl\src\draw/lv_img_decoder.c ****  */
 261:..\..\..\arduinoLCD\test\Pain Drain\libraries\lvgl\src\draw/lv_img_decoder.c **** void lv_img_decoder_set_close_cb(lv_img_decoder_t * decoder, lv_img_decoder_close_f_t close_cb)
 262:..\..\..\arduinoLCD\test\Pain Drain\libraries\lvgl\src\draw/lv_img_decoder.c **** {
 263:..\..\..\arduinoLCD\test\Pain Drain\libraries\lvgl\src\draw/lv_img_decoder.c ****     decoder->close_cb = close_cb;
 264:..\..\..\arduinoLCD\test\Pain Drain\libraries\lvgl\src\draw/lv_img_decoder.c **** }
 265:..\..\..\arduinoLCD\test\Pain Drain\libraries\lvgl\src\draw/lv_img_decoder.c **** 
 266:..\..\..\arduinoLCD\test\Pain Drain\libraries\lvgl\src\draw/lv_img_decoder.c **** /**
 267:..\..\..\arduinoLCD\test\Pain Drain\libraries\lvgl\src\draw/lv_img_decoder.c ****  * Get info about a built-in image
 268:..\..\..\arduinoLCD\test\Pain Drain\libraries\lvgl\src\draw/lv_img_decoder.c ****  * @param decoder the decoder where this function belongs
 269:..\..\..\arduinoLCD\test\Pain Drain\libraries\lvgl\src\draw/lv_img_decoder.c ****  * @param src the image source: pointer to an `lv_img_dsc_t` variable, a file path or a symbol
 270:..\..\..\arduinoLCD\test\Pain Drain\libraries\lvgl\src\draw/lv_img_decoder.c ****  * @param header store the image data here
 271:..\..\..\arduinoLCD\test\Pain Drain\libraries\lvgl\src\draw/lv_img_decoder.c ****  * @return LV_RES_OK: the info is successfully stored in `header`; LV_RES_INV: unknown format or ot
 272:..\..\..\arduinoLCD\test\Pain Drain\libraries\lvgl\src\draw/lv_img_decoder.c ****  */
 273:..\..\..\arduinoLCD\test\Pain Drain\libraries\lvgl\src\draw/lv_img_decoder.c **** lv_res_t lv_img_decoder_built_in_info(lv_img_decoder_t * decoder, const void * src, lv_img_header_t
 274:..\..\..\arduinoLCD\test\Pain Drain\libraries\lvgl\src\draw/lv_img_decoder.c **** {
  29              		.loc 1 274 0
  30              		.cfi_startproc
  31              		@ args = 0, pretend = 0, frame = 16
  32              		@ frame_needed = 0, uses_anonymous_args = 0
  33              	.LVL0:
  34 0000 30B5     		push	{r4, r5, lr}
  35              		.cfi_def_cfa_offset 12
  36              		.cfi_offset 4, -12
  37              		.cfi_offset 5, -8
  38              		.cfi_offset 14, -4
  39 0002 85B0     		sub	sp, sp, #20
  40              		.cfi_def_cfa_offset 32
  41 0004 0C46     		mov	r4, r1
  42 0006 1546     		mov	r5, r2
 275:..\..\..\arduinoLCD\test\Pain Drain\libraries\lvgl\src\draw/lv_img_decoder.c ****     LV_UNUSED(decoder); /*Unused*/
 276:..\..\..\arduinoLCD\test\Pain Drain\libraries\lvgl\src\draw/lv_img_decoder.c **** 
 277:..\..\..\arduinoLCD\test\Pain Drain\libraries\lvgl\src\draw/lv_img_decoder.c ****     lv_img_src_t src_type = lv_img_src_get_type(src);
  43              		.loc 1 277 0
  44 0008 0846     		mov	r0, r1
  45              	.LVL1:
  46 000a FFF7FEFF 		bl	lv_img_src_get_type
  47              	.LVL2:
 278:..\..\..\arduinoLCD\test\Pain Drain\libraries\lvgl\src\draw/lv_img_decoder.c ****     if(src_type == LV_IMG_SRC_VARIABLE) {
  48              		.loc 1 278 0
  49 000e D8B9     		cbnz	r0, .L2
  50              	.LBB12:
 279:..\..\..\arduinoLCD\test\Pain Drain\libraries\lvgl\src\draw/lv_img_decoder.c ****         lv_img_cf_t cf = ((lv_img_dsc_t *)src)->header.cf;
  51              		.loc 1 279 0
  52 0010 2378     		ldrb	r3, [r4]	@ zero_extendqisi2
  53 0012 03F01F03 		and	r3, r3, #31
  54              	.LVL3:
 280:..\..\..\arduinoLCD\test\Pain Drain\libraries\lvgl\src\draw/lv_img_decoder.c ****         if(cf < CF_BUILT_IN_FIRST || cf > CF_BUILT_IN_LAST) return LV_RES_INV;
  55              		.loc 1 280 0
  56 0016 043B     		subs	r3, r3, #4
  57 0018 DBB2     		uxtb	r3, r3
  58 001a 102B     		cmp	r3, #16
  59 001c 4ED8     		bhi	.L9
 281:..\..\..\arduinoLCD\test\Pain Drain\libraries\lvgl\src\draw/lv_img_decoder.c **** 
 282:..\..\..\arduinoLCD\test\Pain Drain\libraries\lvgl\src\draw/lv_img_decoder.c ****         header->w  = ((lv_img_dsc_t *)src)->header.w;
  60              		.loc 1 282 0
ARM GAS  C:\Users\haske\AppData\Local\Temp\ccHSLozV.s 			page 7


  61 001e 2368     		ldr	r3, [r4]
  62 0020 C3F38A23 		ubfx	r3, r3, #10, #11
  63 0024 2A68     		ldr	r2, [r5]
  64 0026 63F39422 		bfi	r2, r3, #10, #11
  65 002a 2A60     		str	r2, [r5]
  66              	.LVL4:
 283:..\..\..\arduinoLCD\test\Pain Drain\libraries\lvgl\src\draw/lv_img_decoder.c ****         header->h  = ((lv_img_dsc_t *)src)->header.h;
  67              		.loc 1 283 0
  68 002c 6388     		ldrh	r3, [r4, #2]
  69 002e C3F34A13 		ubfx	r3, r3, #5, #11
  70 0032 6A88     		ldrh	r2, [r5, #2]
  71 0034 63F34F12 		bfi	r2, r3, #5, #11
  72 0038 6A80     		strh	r2, [r5, #2]	@ movhi
 284:..\..\..\arduinoLCD\test\Pain Drain\libraries\lvgl\src\draw/lv_img_decoder.c ****         header->cf = ((lv_img_dsc_t *)src)->header.cf;
  73              		.loc 1 284 0
  74 003a 2278     		ldrb	r2, [r4]	@ zero_extendqisi2
  75 003c 2B78     		ldrb	r3, [r5]	@ zero_extendqisi2
  76 003e 62F30403 		bfi	r3, r2, #0, #5
  77 0042 2B70     		strb	r3, [r5]
  78              	.LBE12:
 285:..\..\..\arduinoLCD\test\Pain Drain\libraries\lvgl\src\draw/lv_img_decoder.c ****     }
 286:..\..\..\arduinoLCD\test\Pain Drain\libraries\lvgl\src\draw/lv_img_decoder.c ****     else if(src_type == LV_IMG_SRC_FILE) {
 287:..\..\..\arduinoLCD\test\Pain Drain\libraries\lvgl\src\draw/lv_img_decoder.c ****         /*Support only "*.bin" files*/
 288:..\..\..\arduinoLCD\test\Pain Drain\libraries\lvgl\src\draw/lv_img_decoder.c ****         if(strcmp(lv_fs_get_ext(src), "bin")) return LV_RES_INV;
 289:..\..\..\arduinoLCD\test\Pain Drain\libraries\lvgl\src\draw/lv_img_decoder.c **** 
 290:..\..\..\arduinoLCD\test\Pain Drain\libraries\lvgl\src\draw/lv_img_decoder.c ****         lv_fs_file_t f;
 291:..\..\..\arduinoLCD\test\Pain Drain\libraries\lvgl\src\draw/lv_img_decoder.c ****         lv_fs_res_t res = lv_fs_open(&f, src, LV_FS_MODE_RD);
 292:..\..\..\arduinoLCD\test\Pain Drain\libraries\lvgl\src\draw/lv_img_decoder.c ****         if(res == LV_FS_RES_OK) {
 293:..\..\..\arduinoLCD\test\Pain Drain\libraries\lvgl\src\draw/lv_img_decoder.c ****             uint32_t rn;
 294:..\..\..\arduinoLCD\test\Pain Drain\libraries\lvgl\src\draw/lv_img_decoder.c ****             res = lv_fs_read(&f, header, sizeof(lv_img_header_t), &rn);
 295:..\..\..\arduinoLCD\test\Pain Drain\libraries\lvgl\src\draw/lv_img_decoder.c ****             lv_fs_close(&f);
 296:..\..\..\arduinoLCD\test\Pain Drain\libraries\lvgl\src\draw/lv_img_decoder.c ****             if(res != LV_FS_RES_OK || rn != sizeof(lv_img_header_t)) {
 297:..\..\..\arduinoLCD\test\Pain Drain\libraries\lvgl\src\draw/lv_img_decoder.c ****                 LV_LOG_WARN("Image get info get read file header");
 298:..\..\..\arduinoLCD\test\Pain Drain\libraries\lvgl\src\draw/lv_img_decoder.c ****                 return LV_RES_INV;
 299:..\..\..\arduinoLCD\test\Pain Drain\libraries\lvgl\src\draw/lv_img_decoder.c ****             }
 300:..\..\..\arduinoLCD\test\Pain Drain\libraries\lvgl\src\draw/lv_img_decoder.c ****         }
 301:..\..\..\arduinoLCD\test\Pain Drain\libraries\lvgl\src\draw/lv_img_decoder.c **** 
 302:..\..\..\arduinoLCD\test\Pain Drain\libraries\lvgl\src\draw/lv_img_decoder.c ****         if(header->cf < CF_BUILT_IN_FIRST || header->cf > CF_BUILT_IN_LAST) return LV_RES_INV;
 303:..\..\..\arduinoLCD\test\Pain Drain\libraries\lvgl\src\draw/lv_img_decoder.c ****     }
 304:..\..\..\arduinoLCD\test\Pain Drain\libraries\lvgl\src\draw/lv_img_decoder.c ****     else if(src_type == LV_IMG_SRC_SYMBOL) {
 305:..\..\..\arduinoLCD\test\Pain Drain\libraries\lvgl\src\draw/lv_img_decoder.c ****         /*The size depend on the font but it is unknown here. It should be handled outside of the
 306:..\..\..\arduinoLCD\test\Pain Drain\libraries\lvgl\src\draw/lv_img_decoder.c ****          *function*/
 307:..\..\..\arduinoLCD\test\Pain Drain\libraries\lvgl\src\draw/lv_img_decoder.c ****         header->w = 1;
 308:..\..\..\arduinoLCD\test\Pain Drain\libraries\lvgl\src\draw/lv_img_decoder.c ****         header->h = 1;
 309:..\..\..\arduinoLCD\test\Pain Drain\libraries\lvgl\src\draw/lv_img_decoder.c ****         /*Symbols always have transparent parts. Important because of cover check in the draw
 310:..\..\..\arduinoLCD\test\Pain Drain\libraries\lvgl\src\draw/lv_img_decoder.c ****          *function. The actual value doesn't matter because lv_draw_label will draw it*/
 311:..\..\..\arduinoLCD\test\Pain Drain\libraries\lvgl\src\draw/lv_img_decoder.c ****         header->cf = LV_IMG_CF_ALPHA_1BIT;
 312:..\..\..\arduinoLCD\test\Pain Drain\libraries\lvgl\src\draw/lv_img_decoder.c ****     }
 313:..\..\..\arduinoLCD\test\Pain Drain\libraries\lvgl\src\draw/lv_img_decoder.c ****     else {
 314:..\..\..\arduinoLCD\test\Pain Drain\libraries\lvgl\src\draw/lv_img_decoder.c ****         LV_LOG_WARN("Image get info found unknown src type");
 315:..\..\..\arduinoLCD\test\Pain Drain\libraries\lvgl\src\draw/lv_img_decoder.c ****         return LV_RES_INV;
 316:..\..\..\arduinoLCD\test\Pain Drain\libraries\lvgl\src\draw/lv_img_decoder.c ****     }
 317:..\..\..\arduinoLCD\test\Pain Drain\libraries\lvgl\src\draw/lv_img_decoder.c ****     return LV_RES_OK;
  79              		.loc 1 317 0
  80 0044 0120     		movs	r0, #1
  81              	.LVL5:
  82 0046 3CE0     		b	.L3
ARM GAS  C:\Users\haske\AppData\Local\Temp\ccHSLozV.s 			page 8


  83              	.LVL6:
  84              	.L2:
 286:..\..\..\arduinoLCD\test\Pain Drain\libraries\lvgl\src\draw/lv_img_decoder.c ****         /*Support only "*.bin" files*/
  85              		.loc 1 286 0
  86 0048 0128     		cmp	r0, #1
  87 004a 27D1     		bne	.L4
  88              	.LBB13:
 288:..\..\..\arduinoLCD\test\Pain Drain\libraries\lvgl\src\draw/lv_img_decoder.c **** 
  89              		.loc 1 288 0
  90 004c 2046     		mov	r0, r4
  91              	.LVL7:
  92 004e FFF7FEFF 		bl	lv_fs_get_ext
  93              	.LVL8:
  94 0052 1D49     		ldr	r1, .L12
  95 0054 FFF7FEFF 		bl	strcmp
  96              	.LVL9:
  97 0058 F0B9     		cbnz	r0, .L5
 291:..\..\..\arduinoLCD\test\Pain Drain\libraries\lvgl\src\draw/lv_img_decoder.c ****         if(res == LV_FS_RES_OK) {
  98              		.loc 1 291 0
  99 005a 0222     		movs	r2, #2
 100 005c 2146     		mov	r1, r4
 101 005e 01A8     		add	r0, sp, #4
 102 0060 FFF7FEFF 		bl	lv_fs_open
 103              	.LVL10:
 292:..\..\..\arduinoLCD\test\Pain Drain\libraries\lvgl\src\draw/lv_img_decoder.c ****             uint32_t rn;
 104              		.loc 1 292 0
 105 0064 70B9     		cbnz	r0, .L6
 106              	.LBB14:
 294:..\..\..\arduinoLCD\test\Pain Drain\libraries\lvgl\src\draw/lv_img_decoder.c ****             lv_fs_close(&f);
 107              		.loc 1 294 0
 108 0066 6B46     		mov	r3, sp
 109 0068 0422     		movs	r2, #4
 110 006a 2946     		mov	r1, r5
 111 006c 0DEB0200 		add	r0, sp, r2
 112              	.LVL11:
 113 0070 FFF7FEFF 		bl	lv_fs_read
 114              	.LVL12:
 115 0074 0446     		mov	r4, r0
 116              	.LVL13:
 295:..\..\..\arduinoLCD\test\Pain Drain\libraries\lvgl\src\draw/lv_img_decoder.c ****             if(res != LV_FS_RES_OK || rn != sizeof(lv_img_header_t)) {
 117              		.loc 1 295 0
 118 0076 01A8     		add	r0, sp, #4
 119 0078 FFF7FEFF 		bl	lv_fs_close
 120              	.LVL14:
 296:..\..\..\arduinoLCD\test\Pain Drain\libraries\lvgl\src\draw/lv_img_decoder.c ****                 LV_LOG_WARN("Image get info get read file header");
 121              		.loc 1 296 0
 122 007c 64B9     		cbnz	r4, .L5
 296:..\..\..\arduinoLCD\test\Pain Drain\libraries\lvgl\src\draw/lv_img_decoder.c ****                 LV_LOG_WARN("Image get info get read file header");
 123              		.loc 1 296 0 is_stmt 0 discriminator 1
 124 007e 009B     		ldr	r3, [sp]
 125 0080 042B     		cmp	r3, #4
 126 0082 09D1     		bne	.L5
 127              	.LVL15:
 128              	.L6:
 129              	.LBE14:
 302:..\..\..\arduinoLCD\test\Pain Drain\libraries\lvgl\src\draw/lv_img_decoder.c ****     }
 130              		.loc 1 302 0 is_stmt 1
ARM GAS  C:\Users\haske\AppData\Local\Temp\ccHSLozV.s 			page 9


 131 0084 2B78     		ldrb	r3, [r5]	@ zero_extendqisi2
 132 0086 03F01F03 		and	r3, r3, #31
 133 008a 1C33     		adds	r3, r3, #28
 134 008c 03F01F03 		and	r3, r3, #31
 135 0090 102B     		cmp	r3, #16
 136 0092 01D8     		bhi	.L5
 137              	.LBE13:
 138              		.loc 1 317 0
 139 0094 0120     		movs	r0, #1
 140 0096 14E0     		b	.L3
 141              	.L5:
 142              	.LBB15:
 288:..\..\..\arduinoLCD\test\Pain Drain\libraries\lvgl\src\draw/lv_img_decoder.c **** 
 143              		.loc 1 288 0 discriminator 2
 144 0098 0020     		movs	r0, #0
 145 009a 12E0     		b	.L3
 146              	.LVL16:
 147              	.L4:
 148              	.LBE15:
 304:..\..\..\arduinoLCD\test\Pain Drain\libraries\lvgl\src\draw/lv_img_decoder.c ****         /*The size depend on the font but it is unknown here. It should be handled outside of the
 149              		.loc 1 304 0
 150 009c 0228     		cmp	r0, #2
 151 009e 0FD1     		bne	.L10
 307:..\..\..\arduinoLCD\test\Pain Drain\libraries\lvgl\src\draw/lv_img_decoder.c ****         header->h = 1;
 152              		.loc 1 307 0
 153 00a0 2B68     		ldr	r3, [r5]
 154 00a2 0120     		movs	r0, #1
 155              	.LVL17:
 156 00a4 60F39423 		bfi	r3, r0, #10, #11
 157 00a8 2B60     		str	r3, [r5]
 308:..\..\..\arduinoLCD\test\Pain Drain\libraries\lvgl\src\draw/lv_img_decoder.c ****         /*Symbols always have transparent parts. Important because of cover check in the draw
 158              		.loc 1 308 0
 159 00aa 1A0C     		lsrs	r2, r3, #16
 160 00ac 60F34F12 		bfi	r2, r0, #5, #11
 161 00b0 6A80     		strh	r2, [r5, #2]	@ movhi
 311:..\..\..\arduinoLCD\test\Pain Drain\libraries\lvgl\src\draw/lv_img_decoder.c ****     }
 162              		.loc 1 311 0
 163 00b2 0B22     		movs	r2, #11
 164 00b4 62F30403 		bfi	r3, r2, #0, #5
 165 00b8 2B70     		strb	r3, [r5]
 166 00ba 02E0     		b	.L3
 167              	.LVL18:
 168              	.L9:
 169              	.LBB16:
 280:..\..\..\arduinoLCD\test\Pain Drain\libraries\lvgl\src\draw/lv_img_decoder.c **** 
 170              		.loc 1 280 0
 171 00bc 0020     		movs	r0, #0
 172              	.LVL19:
 173 00be 00E0     		b	.L3
 174              	.LVL20:
 175              	.L10:
 176              	.LBE16:
 315:..\..\..\arduinoLCD\test\Pain Drain\libraries\lvgl\src\draw/lv_img_decoder.c ****     }
 177              		.loc 1 315 0
 178 00c0 0020     		movs	r0, #0
 179              	.LVL21:
 180              	.L3:
ARM GAS  C:\Users\haske\AppData\Local\Temp\ccHSLozV.s 			page 10


 318:..\..\..\arduinoLCD\test\Pain Drain\libraries\lvgl\src\draw/lv_img_decoder.c **** }
 181              		.loc 1 318 0
 182 00c2 05B0     		add	sp, sp, #20
 183              		.cfi_def_cfa_offset 12
 184              		@ sp needed
 185 00c4 30BD     		pop	{r4, r5, pc}
 186              	.LVL22:
 187              	.L13:
 188 00c6 00BF     		.align	2
 189              	.L12:
 190 00c8 00000000 		.word	.LC2
 191              		.cfi_endproc
 192              	.LFE67:
 193              		.size	lv_img_decoder_built_in_info, .-lv_img_decoder_built_in_info
 194              		.section	.text.lv_img_decoder_built_in_close,"ax",%progbits
 195              		.align	2
 196              		.global	lv_img_decoder_built_in_close
 197              		.thumb
 198              		.thumb_func
 199              		.type	lv_img_decoder_built_in_close, %function
 200              	lv_img_decoder_built_in_close:
 201              	.LFB70:
 319:..\..\..\arduinoLCD\test\Pain Drain\libraries\lvgl\src\draw/lv_img_decoder.c **** 
 320:..\..\..\arduinoLCD\test\Pain Drain\libraries\lvgl\src\draw/lv_img_decoder.c **** /**
 321:..\..\..\arduinoLCD\test\Pain Drain\libraries\lvgl\src\draw/lv_img_decoder.c ****  * Open a built in image
 322:..\..\..\arduinoLCD\test\Pain Drain\libraries\lvgl\src\draw/lv_img_decoder.c ****  * @param decoder the decoder where this function belongs
 323:..\..\..\arduinoLCD\test\Pain Drain\libraries\lvgl\src\draw/lv_img_decoder.c ****  * @param dsc pointer to decoder descriptor. `src`, `color` are already initialized in it.
 324:..\..\..\arduinoLCD\test\Pain Drain\libraries\lvgl\src\draw/lv_img_decoder.c ****  * @return LV_RES_OK: the info is successfully stored in `header`; LV_RES_INV: unknown format or ot
 325:..\..\..\arduinoLCD\test\Pain Drain\libraries\lvgl\src\draw/lv_img_decoder.c ****  */
 326:..\..\..\arduinoLCD\test\Pain Drain\libraries\lvgl\src\draw/lv_img_decoder.c **** lv_res_t lv_img_decoder_built_in_open(lv_img_decoder_t * decoder, lv_img_decoder_dsc_t * dsc)
 327:..\..\..\arduinoLCD\test\Pain Drain\libraries\lvgl\src\draw/lv_img_decoder.c **** {
 328:..\..\..\arduinoLCD\test\Pain Drain\libraries\lvgl\src\draw/lv_img_decoder.c ****     /*Open the file if it's a file*/
 329:..\..\..\arduinoLCD\test\Pain Drain\libraries\lvgl\src\draw/lv_img_decoder.c ****     if(dsc->src_type == LV_IMG_SRC_FILE) {
 330:..\..\..\arduinoLCD\test\Pain Drain\libraries\lvgl\src\draw/lv_img_decoder.c ****         /*Support only "*.bin" files*/
 331:..\..\..\arduinoLCD\test\Pain Drain\libraries\lvgl\src\draw/lv_img_decoder.c ****         if(strcmp(lv_fs_get_ext(dsc->src), "bin")) return LV_RES_INV;
 332:..\..\..\arduinoLCD\test\Pain Drain\libraries\lvgl\src\draw/lv_img_decoder.c **** 
 333:..\..\..\arduinoLCD\test\Pain Drain\libraries\lvgl\src\draw/lv_img_decoder.c ****         lv_fs_file_t f;
 334:..\..\..\arduinoLCD\test\Pain Drain\libraries\lvgl\src\draw/lv_img_decoder.c ****         lv_fs_res_t res = lv_fs_open(&f, dsc->src, LV_FS_MODE_RD);
 335:..\..\..\arduinoLCD\test\Pain Drain\libraries\lvgl\src\draw/lv_img_decoder.c ****         if(res != LV_FS_RES_OK) {
 336:..\..\..\arduinoLCD\test\Pain Drain\libraries\lvgl\src\draw/lv_img_decoder.c ****             LV_LOG_WARN("Built-in image decoder can't open the file");
 337:..\..\..\arduinoLCD\test\Pain Drain\libraries\lvgl\src\draw/lv_img_decoder.c ****             return LV_RES_INV;
 338:..\..\..\arduinoLCD\test\Pain Drain\libraries\lvgl\src\draw/lv_img_decoder.c ****         }
 339:..\..\..\arduinoLCD\test\Pain Drain\libraries\lvgl\src\draw/lv_img_decoder.c **** 
 340:..\..\..\arduinoLCD\test\Pain Drain\libraries\lvgl\src\draw/lv_img_decoder.c ****         /*If the file was open successfully save the file descriptor*/
 341:..\..\..\arduinoLCD\test\Pain Drain\libraries\lvgl\src\draw/lv_img_decoder.c ****         if(dsc->user_data == NULL) {
 342:..\..\..\arduinoLCD\test\Pain Drain\libraries\lvgl\src\draw/lv_img_decoder.c ****             dsc->user_data = lv_mem_alloc(sizeof(lv_img_decoder_built_in_data_t));
 343:..\..\..\arduinoLCD\test\Pain Drain\libraries\lvgl\src\draw/lv_img_decoder.c ****             LV_ASSERT_MALLOC(dsc->user_data);
 344:..\..\..\arduinoLCD\test\Pain Drain\libraries\lvgl\src\draw/lv_img_decoder.c ****             if(dsc->user_data == NULL) {
 345:..\..\..\arduinoLCD\test\Pain Drain\libraries\lvgl\src\draw/lv_img_decoder.c ****                 LV_LOG_ERROR("img_decoder_built_in_open: out of memory");
 346:..\..\..\arduinoLCD\test\Pain Drain\libraries\lvgl\src\draw/lv_img_decoder.c ****                 lv_fs_close(&f);
 347:..\..\..\arduinoLCD\test\Pain Drain\libraries\lvgl\src\draw/lv_img_decoder.c ****                 return LV_RES_INV;
 348:..\..\..\arduinoLCD\test\Pain Drain\libraries\lvgl\src\draw/lv_img_decoder.c ****             }
 349:..\..\..\arduinoLCD\test\Pain Drain\libraries\lvgl\src\draw/lv_img_decoder.c ****             lv_memset_00(dsc->user_data, sizeof(lv_img_decoder_built_in_data_t));
 350:..\..\..\arduinoLCD\test\Pain Drain\libraries\lvgl\src\draw/lv_img_decoder.c ****         }
 351:..\..\..\arduinoLCD\test\Pain Drain\libraries\lvgl\src\draw/lv_img_decoder.c **** 
 352:..\..\..\arduinoLCD\test\Pain Drain\libraries\lvgl\src\draw/lv_img_decoder.c ****         lv_img_decoder_built_in_data_t * user_data = dsc->user_data;
 353:..\..\..\arduinoLCD\test\Pain Drain\libraries\lvgl\src\draw/lv_img_decoder.c ****         lv_memcpy_small(&user_data->f, &f, sizeof(f));
ARM GAS  C:\Users\haske\AppData\Local\Temp\ccHSLozV.s 			page 11


 354:..\..\..\arduinoLCD\test\Pain Drain\libraries\lvgl\src\draw/lv_img_decoder.c ****     }
 355:..\..\..\arduinoLCD\test\Pain Drain\libraries\lvgl\src\draw/lv_img_decoder.c ****     else if(dsc->src_type == LV_IMG_SRC_VARIABLE) {
 356:..\..\..\arduinoLCD\test\Pain Drain\libraries\lvgl\src\draw/lv_img_decoder.c ****         /*The variables should have valid data*/
 357:..\..\..\arduinoLCD\test\Pain Drain\libraries\lvgl\src\draw/lv_img_decoder.c ****         if(((lv_img_dsc_t *)dsc->src)->data == NULL) {
 358:..\..\..\arduinoLCD\test\Pain Drain\libraries\lvgl\src\draw/lv_img_decoder.c ****             return LV_RES_INV;
 359:..\..\..\arduinoLCD\test\Pain Drain\libraries\lvgl\src\draw/lv_img_decoder.c ****         }
 360:..\..\..\arduinoLCD\test\Pain Drain\libraries\lvgl\src\draw/lv_img_decoder.c ****     }
 361:..\..\..\arduinoLCD\test\Pain Drain\libraries\lvgl\src\draw/lv_img_decoder.c **** 
 362:..\..\..\arduinoLCD\test\Pain Drain\libraries\lvgl\src\draw/lv_img_decoder.c ****     lv_img_cf_t cf = dsc->header.cf;
 363:..\..\..\arduinoLCD\test\Pain Drain\libraries\lvgl\src\draw/lv_img_decoder.c ****     /*Process true color formats*/
 364:..\..\..\arduinoLCD\test\Pain Drain\libraries\lvgl\src\draw/lv_img_decoder.c ****     if(cf == LV_IMG_CF_TRUE_COLOR || cf == LV_IMG_CF_TRUE_COLOR_ALPHA ||
 365:..\..\..\arduinoLCD\test\Pain Drain\libraries\lvgl\src\draw/lv_img_decoder.c ****        cf == LV_IMG_CF_TRUE_COLOR_CHROMA_KEYED || cf == LV_IMG_CF_RGB565A8 ||
 366:..\..\..\arduinoLCD\test\Pain Drain\libraries\lvgl\src\draw/lv_img_decoder.c ****        cf == LV_IMG_CF_ALPHA_8BIT) {
 367:..\..\..\arduinoLCD\test\Pain Drain\libraries\lvgl\src\draw/lv_img_decoder.c ****         if(dsc->src_type == LV_IMG_SRC_VARIABLE) {
 368:..\..\..\arduinoLCD\test\Pain Drain\libraries\lvgl\src\draw/lv_img_decoder.c ****             /*In case of uncompressed formats the image stored in the ROM/RAM.
 369:..\..\..\arduinoLCD\test\Pain Drain\libraries\lvgl\src\draw/lv_img_decoder.c ****              *So simply give its pointer*/
 370:..\..\..\arduinoLCD\test\Pain Drain\libraries\lvgl\src\draw/lv_img_decoder.c ****             dsc->img_data = ((lv_img_dsc_t *)dsc->src)->data;
 371:..\..\..\arduinoLCD\test\Pain Drain\libraries\lvgl\src\draw/lv_img_decoder.c ****             return LV_RES_OK;
 372:..\..\..\arduinoLCD\test\Pain Drain\libraries\lvgl\src\draw/lv_img_decoder.c ****         }
 373:..\..\..\arduinoLCD\test\Pain Drain\libraries\lvgl\src\draw/lv_img_decoder.c ****         else {
 374:..\..\..\arduinoLCD\test\Pain Drain\libraries\lvgl\src\draw/lv_img_decoder.c ****             /*If it's a file it need to be read line by line later*/
 375:..\..\..\arduinoLCD\test\Pain Drain\libraries\lvgl\src\draw/lv_img_decoder.c ****             return LV_RES_OK;
 376:..\..\..\arduinoLCD\test\Pain Drain\libraries\lvgl\src\draw/lv_img_decoder.c ****         }
 377:..\..\..\arduinoLCD\test\Pain Drain\libraries\lvgl\src\draw/lv_img_decoder.c ****     }
 378:..\..\..\arduinoLCD\test\Pain Drain\libraries\lvgl\src\draw/lv_img_decoder.c ****     /*Process indexed images. Build a palette*/
 379:..\..\..\arduinoLCD\test\Pain Drain\libraries\lvgl\src\draw/lv_img_decoder.c ****     else if(cf == LV_IMG_CF_INDEXED_1BIT || cf == LV_IMG_CF_INDEXED_2BIT || cf == LV_IMG_CF_INDEXED
 380:..\..\..\arduinoLCD\test\Pain Drain\libraries\lvgl\src\draw/lv_img_decoder.c ****             cf == LV_IMG_CF_INDEXED_8BIT) {
 381:..\..\..\arduinoLCD\test\Pain Drain\libraries\lvgl\src\draw/lv_img_decoder.c ****         uint8_t px_size       = lv_img_cf_get_px_size(cf);
 382:..\..\..\arduinoLCD\test\Pain Drain\libraries\lvgl\src\draw/lv_img_decoder.c ****         uint32_t palette_size = 1 << px_size;
 383:..\..\..\arduinoLCD\test\Pain Drain\libraries\lvgl\src\draw/lv_img_decoder.c **** 
 384:..\..\..\arduinoLCD\test\Pain Drain\libraries\lvgl\src\draw/lv_img_decoder.c ****         /*Allocate the palette*/
 385:..\..\..\arduinoLCD\test\Pain Drain\libraries\lvgl\src\draw/lv_img_decoder.c ****         if(dsc->user_data == NULL) {
 386:..\..\..\arduinoLCD\test\Pain Drain\libraries\lvgl\src\draw/lv_img_decoder.c ****             dsc->user_data = lv_mem_alloc(sizeof(lv_img_decoder_built_in_data_t));
 387:..\..\..\arduinoLCD\test\Pain Drain\libraries\lvgl\src\draw/lv_img_decoder.c ****             LV_ASSERT_MALLOC(dsc->user_data);
 388:..\..\..\arduinoLCD\test\Pain Drain\libraries\lvgl\src\draw/lv_img_decoder.c ****             if(dsc->user_data == NULL) {
 389:..\..\..\arduinoLCD\test\Pain Drain\libraries\lvgl\src\draw/lv_img_decoder.c ****                 LV_LOG_ERROR("img_decoder_built_in_open: out of memory");
 390:..\..\..\arduinoLCD\test\Pain Drain\libraries\lvgl\src\draw/lv_img_decoder.c ****                 return LV_RES_INV;
 391:..\..\..\arduinoLCD\test\Pain Drain\libraries\lvgl\src\draw/lv_img_decoder.c ****             }
 392:..\..\..\arduinoLCD\test\Pain Drain\libraries\lvgl\src\draw/lv_img_decoder.c ****             lv_memset_00(dsc->user_data, sizeof(lv_img_decoder_built_in_data_t));
 393:..\..\..\arduinoLCD\test\Pain Drain\libraries\lvgl\src\draw/lv_img_decoder.c ****         }
 394:..\..\..\arduinoLCD\test\Pain Drain\libraries\lvgl\src\draw/lv_img_decoder.c **** 
 395:..\..\..\arduinoLCD\test\Pain Drain\libraries\lvgl\src\draw/lv_img_decoder.c ****         lv_img_decoder_built_in_data_t * user_data = dsc->user_data;
 396:..\..\..\arduinoLCD\test\Pain Drain\libraries\lvgl\src\draw/lv_img_decoder.c ****         user_data->palette                         = lv_mem_alloc(palette_size * sizeof(lv_color_t)
 397:..\..\..\arduinoLCD\test\Pain Drain\libraries\lvgl\src\draw/lv_img_decoder.c ****         LV_ASSERT_MALLOC(user_data->palette);
 398:..\..\..\arduinoLCD\test\Pain Drain\libraries\lvgl\src\draw/lv_img_decoder.c ****         user_data->opa                             = lv_mem_alloc(palette_size * sizeof(lv_opa_t));
 399:..\..\..\arduinoLCD\test\Pain Drain\libraries\lvgl\src\draw/lv_img_decoder.c ****         LV_ASSERT_MALLOC(user_data->opa);
 400:..\..\..\arduinoLCD\test\Pain Drain\libraries\lvgl\src\draw/lv_img_decoder.c ****         if(user_data->palette == NULL || user_data->opa == NULL) {
 401:..\..\..\arduinoLCD\test\Pain Drain\libraries\lvgl\src\draw/lv_img_decoder.c ****             LV_LOG_ERROR("img_decoder_built_in_open: out of memory");
 402:..\..\..\arduinoLCD\test\Pain Drain\libraries\lvgl\src\draw/lv_img_decoder.c ****             lv_img_decoder_built_in_close(decoder, dsc);
 403:..\..\..\arduinoLCD\test\Pain Drain\libraries\lvgl\src\draw/lv_img_decoder.c ****             return LV_RES_INV;
 404:..\..\..\arduinoLCD\test\Pain Drain\libraries\lvgl\src\draw/lv_img_decoder.c ****         }
 405:..\..\..\arduinoLCD\test\Pain Drain\libraries\lvgl\src\draw/lv_img_decoder.c **** 
 406:..\..\..\arduinoLCD\test\Pain Drain\libraries\lvgl\src\draw/lv_img_decoder.c ****         if(dsc->src_type == LV_IMG_SRC_FILE) {
 407:..\..\..\arduinoLCD\test\Pain Drain\libraries\lvgl\src\draw/lv_img_decoder.c ****             /*Read the palette from file*/
 408:..\..\..\arduinoLCD\test\Pain Drain\libraries\lvgl\src\draw/lv_img_decoder.c ****             lv_fs_seek(&user_data->f, 4, LV_FS_SEEK_SET); /*Skip the header*/
 409:..\..\..\arduinoLCD\test\Pain Drain\libraries\lvgl\src\draw/lv_img_decoder.c ****             lv_color32_t cur_color;
 410:..\..\..\arduinoLCD\test\Pain Drain\libraries\lvgl\src\draw/lv_img_decoder.c ****             uint32_t i;
ARM GAS  C:\Users\haske\AppData\Local\Temp\ccHSLozV.s 			page 12


 411:..\..\..\arduinoLCD\test\Pain Drain\libraries\lvgl\src\draw/lv_img_decoder.c ****             for(i = 0; i < palette_size; i++) {
 412:..\..\..\arduinoLCD\test\Pain Drain\libraries\lvgl\src\draw/lv_img_decoder.c ****                 lv_fs_read(&user_data->f, &cur_color, sizeof(lv_color32_t), NULL);
 413:..\..\..\arduinoLCD\test\Pain Drain\libraries\lvgl\src\draw/lv_img_decoder.c ****                 user_data->palette[i] = lv_color_make(cur_color.ch.red, cur_color.ch.green, cur_col
 414:..\..\..\arduinoLCD\test\Pain Drain\libraries\lvgl\src\draw/lv_img_decoder.c ****                 user_data->opa[i]     = cur_color.ch.alpha;
 415:..\..\..\arduinoLCD\test\Pain Drain\libraries\lvgl\src\draw/lv_img_decoder.c ****             }
 416:..\..\..\arduinoLCD\test\Pain Drain\libraries\lvgl\src\draw/lv_img_decoder.c ****         }
 417:..\..\..\arduinoLCD\test\Pain Drain\libraries\lvgl\src\draw/lv_img_decoder.c ****         else {
 418:..\..\..\arduinoLCD\test\Pain Drain\libraries\lvgl\src\draw/lv_img_decoder.c ****             /*The palette begins in the beginning of the image data. Just point to it.*/
 419:..\..\..\arduinoLCD\test\Pain Drain\libraries\lvgl\src\draw/lv_img_decoder.c ****             lv_color32_t * palette_p = (lv_color32_t *)((lv_img_dsc_t *)dsc->src)->data;
 420:..\..\..\arduinoLCD\test\Pain Drain\libraries\lvgl\src\draw/lv_img_decoder.c **** 
 421:..\..\..\arduinoLCD\test\Pain Drain\libraries\lvgl\src\draw/lv_img_decoder.c ****             uint32_t i;
 422:..\..\..\arduinoLCD\test\Pain Drain\libraries\lvgl\src\draw/lv_img_decoder.c ****             for(i = 0; i < palette_size; i++) {
 423:..\..\..\arduinoLCD\test\Pain Drain\libraries\lvgl\src\draw/lv_img_decoder.c ****                 user_data->palette[i] = lv_color_make(palette_p[i].ch.red, palette_p[i].ch.green, p
 424:..\..\..\arduinoLCD\test\Pain Drain\libraries\lvgl\src\draw/lv_img_decoder.c ****                 user_data->opa[i]     = palette_p[i].ch.alpha;
 425:..\..\..\arduinoLCD\test\Pain Drain\libraries\lvgl\src\draw/lv_img_decoder.c ****             }
 426:..\..\..\arduinoLCD\test\Pain Drain\libraries\lvgl\src\draw/lv_img_decoder.c ****         }
 427:..\..\..\arduinoLCD\test\Pain Drain\libraries\lvgl\src\draw/lv_img_decoder.c **** 
 428:..\..\..\arduinoLCD\test\Pain Drain\libraries\lvgl\src\draw/lv_img_decoder.c ****         return LV_RES_OK;
 429:..\..\..\arduinoLCD\test\Pain Drain\libraries\lvgl\src\draw/lv_img_decoder.c ****     }
 430:..\..\..\arduinoLCD\test\Pain Drain\libraries\lvgl\src\draw/lv_img_decoder.c ****     /*Alpha indexed images.*/
 431:..\..\..\arduinoLCD\test\Pain Drain\libraries\lvgl\src\draw/lv_img_decoder.c ****     else if(cf == LV_IMG_CF_ALPHA_1BIT || cf == LV_IMG_CF_ALPHA_2BIT || cf == LV_IMG_CF_ALPHA_4BIT)
 432:..\..\..\arduinoLCD\test\Pain Drain\libraries\lvgl\src\draw/lv_img_decoder.c ****         return LV_RES_OK; /*Nothing to process*/
 433:..\..\..\arduinoLCD\test\Pain Drain\libraries\lvgl\src\draw/lv_img_decoder.c ****     }
 434:..\..\..\arduinoLCD\test\Pain Drain\libraries\lvgl\src\draw/lv_img_decoder.c ****     /*Unknown format. Can't decode it.*/
 435:..\..\..\arduinoLCD\test\Pain Drain\libraries\lvgl\src\draw/lv_img_decoder.c ****     else {
 436:..\..\..\arduinoLCD\test\Pain Drain\libraries\lvgl\src\draw/lv_img_decoder.c ****         /*Free the potentially allocated memories*/
 437:..\..\..\arduinoLCD\test\Pain Drain\libraries\lvgl\src\draw/lv_img_decoder.c ****         lv_img_decoder_built_in_close(decoder, dsc);
 438:..\..\..\arduinoLCD\test\Pain Drain\libraries\lvgl\src\draw/lv_img_decoder.c **** 
 439:..\..\..\arduinoLCD\test\Pain Drain\libraries\lvgl\src\draw/lv_img_decoder.c ****         LV_LOG_WARN("Image decoder open: unknown color format");
 440:..\..\..\arduinoLCD\test\Pain Drain\libraries\lvgl\src\draw/lv_img_decoder.c ****         return LV_RES_INV;
 441:..\..\..\arduinoLCD\test\Pain Drain\libraries\lvgl\src\draw/lv_img_decoder.c ****     }
 442:..\..\..\arduinoLCD\test\Pain Drain\libraries\lvgl\src\draw/lv_img_decoder.c **** }
 443:..\..\..\arduinoLCD\test\Pain Drain\libraries\lvgl\src\draw/lv_img_decoder.c **** 
 444:..\..\..\arduinoLCD\test\Pain Drain\libraries\lvgl\src\draw/lv_img_decoder.c **** /**
 445:..\..\..\arduinoLCD\test\Pain Drain\libraries\lvgl\src\draw/lv_img_decoder.c ****  * Decode `len` pixels starting from the given `x`, `y` coordinates and store them in `buf`.
 446:..\..\..\arduinoLCD\test\Pain Drain\libraries\lvgl\src\draw/lv_img_decoder.c ****  * Required only if the "open" function can't return with the whole decoded pixel array.
 447:..\..\..\arduinoLCD\test\Pain Drain\libraries\lvgl\src\draw/lv_img_decoder.c ****  * @param decoder pointer to the decoder the function associated with
 448:..\..\..\arduinoLCD\test\Pain Drain\libraries\lvgl\src\draw/lv_img_decoder.c ****  * @param dsc pointer to decoder descriptor
 449:..\..\..\arduinoLCD\test\Pain Drain\libraries\lvgl\src\draw/lv_img_decoder.c ****  * @param x start x coordinate
 450:..\..\..\arduinoLCD\test\Pain Drain\libraries\lvgl\src\draw/lv_img_decoder.c ****  * @param y start y coordinate
 451:..\..\..\arduinoLCD\test\Pain Drain\libraries\lvgl\src\draw/lv_img_decoder.c ****  * @param len number of pixels to decode
 452:..\..\..\arduinoLCD\test\Pain Drain\libraries\lvgl\src\draw/lv_img_decoder.c ****  * @param buf a buffer to store the decoded pixels
 453:..\..\..\arduinoLCD\test\Pain Drain\libraries\lvgl\src\draw/lv_img_decoder.c ****  * @return LV_RES_OK: ok; LV_RES_INV: failed
 454:..\..\..\arduinoLCD\test\Pain Drain\libraries\lvgl\src\draw/lv_img_decoder.c ****  */
 455:..\..\..\arduinoLCD\test\Pain Drain\libraries\lvgl\src\draw/lv_img_decoder.c **** lv_res_t lv_img_decoder_built_in_read_line(lv_img_decoder_t * decoder, lv_img_decoder_dsc_t * dsc, 
 456:..\..\..\arduinoLCD\test\Pain Drain\libraries\lvgl\src\draw/lv_img_decoder.c ****                                            lv_coord_t y, lv_coord_t len, uint8_t * buf)
 457:..\..\..\arduinoLCD\test\Pain Drain\libraries\lvgl\src\draw/lv_img_decoder.c **** {
 458:..\..\..\arduinoLCD\test\Pain Drain\libraries\lvgl\src\draw/lv_img_decoder.c ****     LV_UNUSED(decoder); /*Unused*/
 459:..\..\..\arduinoLCD\test\Pain Drain\libraries\lvgl\src\draw/lv_img_decoder.c **** 
 460:..\..\..\arduinoLCD\test\Pain Drain\libraries\lvgl\src\draw/lv_img_decoder.c ****     lv_res_t res = LV_RES_INV;
 461:..\..\..\arduinoLCD\test\Pain Drain\libraries\lvgl\src\draw/lv_img_decoder.c **** 
 462:..\..\..\arduinoLCD\test\Pain Drain\libraries\lvgl\src\draw/lv_img_decoder.c ****     if(dsc->header.cf == LV_IMG_CF_TRUE_COLOR || dsc->header.cf == LV_IMG_CF_TRUE_COLOR_ALPHA ||
 463:..\..\..\arduinoLCD\test\Pain Drain\libraries\lvgl\src\draw/lv_img_decoder.c ****        dsc->header.cf == LV_IMG_CF_TRUE_COLOR_CHROMA_KEYED) {
 464:..\..\..\arduinoLCD\test\Pain Drain\libraries\lvgl\src\draw/lv_img_decoder.c ****         /*For TRUE_COLOR images read line required only for files.
 465:..\..\..\arduinoLCD\test\Pain Drain\libraries\lvgl\src\draw/lv_img_decoder.c ****          *For variables the image data was returned in `open`*/
 466:..\..\..\arduinoLCD\test\Pain Drain\libraries\lvgl\src\draw/lv_img_decoder.c ****         if(dsc->src_type == LV_IMG_SRC_FILE) {
 467:..\..\..\arduinoLCD\test\Pain Drain\libraries\lvgl\src\draw/lv_img_decoder.c ****             res = lv_img_decoder_built_in_line_true_color(dsc, x, y, len, buf);
ARM GAS  C:\Users\haske\AppData\Local\Temp\ccHSLozV.s 			page 13


 468:..\..\..\arduinoLCD\test\Pain Drain\libraries\lvgl\src\draw/lv_img_decoder.c ****         }
 469:..\..\..\arduinoLCD\test\Pain Drain\libraries\lvgl\src\draw/lv_img_decoder.c ****     }
 470:..\..\..\arduinoLCD\test\Pain Drain\libraries\lvgl\src\draw/lv_img_decoder.c ****     else if(dsc->header.cf == LV_IMG_CF_ALPHA_1BIT || dsc->header.cf == LV_IMG_CF_ALPHA_2BIT ||
 471:..\..\..\arduinoLCD\test\Pain Drain\libraries\lvgl\src\draw/lv_img_decoder.c ****             dsc->header.cf == LV_IMG_CF_ALPHA_4BIT || dsc->header.cf == LV_IMG_CF_ALPHA_8BIT) {
 472:..\..\..\arduinoLCD\test\Pain Drain\libraries\lvgl\src\draw/lv_img_decoder.c ****         res = lv_img_decoder_built_in_line_alpha(dsc, x, y, len, buf);
 473:..\..\..\arduinoLCD\test\Pain Drain\libraries\lvgl\src\draw/lv_img_decoder.c ****     }
 474:..\..\..\arduinoLCD\test\Pain Drain\libraries\lvgl\src\draw/lv_img_decoder.c ****     else if(dsc->header.cf == LV_IMG_CF_INDEXED_1BIT || dsc->header.cf == LV_IMG_CF_INDEXED_2BIT ||
 475:..\..\..\arduinoLCD\test\Pain Drain\libraries\lvgl\src\draw/lv_img_decoder.c ****             dsc->header.cf == LV_IMG_CF_INDEXED_4BIT || dsc->header.cf == LV_IMG_CF_INDEXED_8BIT) {
 476:..\..\..\arduinoLCD\test\Pain Drain\libraries\lvgl\src\draw/lv_img_decoder.c ****         res = lv_img_decoder_built_in_line_indexed(dsc, x, y, len, buf);
 477:..\..\..\arduinoLCD\test\Pain Drain\libraries\lvgl\src\draw/lv_img_decoder.c ****     }
 478:..\..\..\arduinoLCD\test\Pain Drain\libraries\lvgl\src\draw/lv_img_decoder.c ****     else {
 479:..\..\..\arduinoLCD\test\Pain Drain\libraries\lvgl\src\draw/lv_img_decoder.c ****         LV_LOG_WARN("Built-in image decoder read not supports the color format");
 480:..\..\..\arduinoLCD\test\Pain Drain\libraries\lvgl\src\draw/lv_img_decoder.c ****         return LV_RES_INV;
 481:..\..\..\arduinoLCD\test\Pain Drain\libraries\lvgl\src\draw/lv_img_decoder.c ****     }
 482:..\..\..\arduinoLCD\test\Pain Drain\libraries\lvgl\src\draw/lv_img_decoder.c **** 
 483:..\..\..\arduinoLCD\test\Pain Drain\libraries\lvgl\src\draw/lv_img_decoder.c ****     return res;
 484:..\..\..\arduinoLCD\test\Pain Drain\libraries\lvgl\src\draw/lv_img_decoder.c **** }
 485:..\..\..\arduinoLCD\test\Pain Drain\libraries\lvgl\src\draw/lv_img_decoder.c **** 
 486:..\..\..\arduinoLCD\test\Pain Drain\libraries\lvgl\src\draw/lv_img_decoder.c **** /**
 487:..\..\..\arduinoLCD\test\Pain Drain\libraries\lvgl\src\draw/lv_img_decoder.c ****  * Close the pending decoding. Free resources etc.
 488:..\..\..\arduinoLCD\test\Pain Drain\libraries\lvgl\src\draw/lv_img_decoder.c ****  * @param decoder pointer to the decoder the function associated with
 489:..\..\..\arduinoLCD\test\Pain Drain\libraries\lvgl\src\draw/lv_img_decoder.c ****  * @param dsc pointer to decoder descriptor
 490:..\..\..\arduinoLCD\test\Pain Drain\libraries\lvgl\src\draw/lv_img_decoder.c ****  */
 491:..\..\..\arduinoLCD\test\Pain Drain\libraries\lvgl\src\draw/lv_img_decoder.c **** void lv_img_decoder_built_in_close(lv_img_decoder_t * decoder, lv_img_decoder_dsc_t * dsc)
 492:..\..\..\arduinoLCD\test\Pain Drain\libraries\lvgl\src\draw/lv_img_decoder.c **** {
 202              		.loc 1 492 0
 203              		.cfi_startproc
 204              		@ args = 0, pretend = 0, frame = 0
 205              		@ frame_needed = 0, uses_anonymous_args = 0
 206              	.LVL23:
 207 0000 38B5     		push	{r3, r4, r5, lr}
 208              		.cfi_def_cfa_offset 16
 209              		.cfi_offset 3, -16
 210              		.cfi_offset 4, -12
 211              		.cfi_offset 5, -8
 212              		.cfi_offset 14, -4
 493:..\..\..\arduinoLCD\test\Pain Drain\libraries\lvgl\src\draw/lv_img_decoder.c ****     LV_UNUSED(decoder); /*Unused*/
 494:..\..\..\arduinoLCD\test\Pain Drain\libraries\lvgl\src\draw/lv_img_decoder.c **** 
 495:..\..\..\arduinoLCD\test\Pain Drain\libraries\lvgl\src\draw/lv_img_decoder.c ****     lv_img_decoder_built_in_data_t * user_data = dsc->user_data;
 213              		.loc 1 495 0
 214 0002 4D6A     		ldr	r5, [r1, #36]
 215              	.LVL24:
 496:..\..\..\arduinoLCD\test\Pain Drain\libraries\lvgl\src\draw/lv_img_decoder.c ****     if(user_data) {
 216              		.loc 1 496 0
 217 0004 9DB1     		cbz	r5, .L14
 218 0006 0C46     		mov	r4, r1
 497:..\..\..\arduinoLCD\test\Pain Drain\libraries\lvgl\src\draw/lv_img_decoder.c ****         if(dsc->src_type == LV_IMG_SRC_FILE) {
 219              		.loc 1 497 0
 220 0008 0B7C     		ldrb	r3, [r1, #16]	@ zero_extendqisi2
 221 000a 012B     		cmp	r3, #1
 222 000c 02D1     		bne	.L16
 498:..\..\..\arduinoLCD\test\Pain Drain\libraries\lvgl\src\draw/lv_img_decoder.c ****             lv_fs_close(&user_data->f);
 223              		.loc 1 498 0
 224 000e 2846     		mov	r0, r5
 225              	.LVL25:
 226 0010 FFF7FEFF 		bl	lv_fs_close
 227              	.LVL26:
ARM GAS  C:\Users\haske\AppData\Local\Temp\ccHSLozV.s 			page 14


 228              	.L16:
 499:..\..\..\arduinoLCD\test\Pain Drain\libraries\lvgl\src\draw/lv_img_decoder.c ****         }
 500:..\..\..\arduinoLCD\test\Pain Drain\libraries\lvgl\src\draw/lv_img_decoder.c ****         if(user_data->palette) lv_mem_free(user_data->palette);
 229              		.loc 1 500 0
 230 0014 E868     		ldr	r0, [r5, #12]
 231 0016 08B1     		cbz	r0, .L17
 232              		.loc 1 500 0 is_stmt 0 discriminator 1
 233 0018 FFF7FEFF 		bl	lv_mem_free
 234              	.LVL27:
 235              	.L17:
 501:..\..\..\arduinoLCD\test\Pain Drain\libraries\lvgl\src\draw/lv_img_decoder.c ****         if(user_data->opa) lv_mem_free(user_data->opa);
 236              		.loc 1 501 0 is_stmt 1
 237 001c 2869     		ldr	r0, [r5, #16]
 238 001e 08B1     		cbz	r0, .L18
 239              		.loc 1 501 0 is_stmt 0 discriminator 1
 240 0020 FFF7FEFF 		bl	lv_mem_free
 241              	.LVL28:
 242              	.L18:
 502:..\..\..\arduinoLCD\test\Pain Drain\libraries\lvgl\src\draw/lv_img_decoder.c **** 
 503:..\..\..\arduinoLCD\test\Pain Drain\libraries\lvgl\src\draw/lv_img_decoder.c ****         lv_mem_free(user_data);
 243              		.loc 1 503 0 is_stmt 1
 244 0024 2846     		mov	r0, r5
 245 0026 FFF7FEFF 		bl	lv_mem_free
 246              	.LVL29:
 504:..\..\..\arduinoLCD\test\Pain Drain\libraries\lvgl\src\draw/lv_img_decoder.c ****         dsc->user_data = NULL;
 247              		.loc 1 504 0
 248 002a 0023     		movs	r3, #0
 249 002c 6362     		str	r3, [r4, #36]
 250              	.LVL30:
 251              	.L14:
 252 002e 38BD     		pop	{r3, r4, r5, pc}
 253              		.cfi_endproc
 254              	.LFE70:
 255              		.size	lv_img_decoder_built_in_close, .-lv_img_decoder_built_in_close
 256              		.section	.text.lv_img_decoder_built_in_open,"ax",%progbits
 257              		.align	2
 258              		.global	lv_img_decoder_built_in_open
 259              		.thumb
 260              		.thumb_func
 261              		.type	lv_img_decoder_built_in_open, %function
 262              	lv_img_decoder_built_in_open:
 263              	.LFB68:
 327:..\..\..\arduinoLCD\test\Pain Drain\libraries\lvgl\src\draw/lv_img_decoder.c ****     /*Open the file if it's a file*/
 264              		.loc 1 327 0
 265              		.cfi_startproc
 266              		@ args = 0, pretend = 0, frame = 16
 267              		@ frame_needed = 0, uses_anonymous_args = 0
 268              	.LVL31:
 269 0000 2DE9F047 		push	{r4, r5, r6, r7, r8, r9, r10, lr}
 270              		.cfi_def_cfa_offset 32
 271              		.cfi_offset 4, -32
 272              		.cfi_offset 5, -28
 273              		.cfi_offset 6, -24
 274              		.cfi_offset 7, -20
 275              		.cfi_offset 8, -16
 276              		.cfi_offset 9, -12
 277              		.cfi_offset 10, -8
ARM GAS  C:\Users\haske\AppData\Local\Temp\ccHSLozV.s 			page 15


 278              		.cfi_offset 14, -4
 279 0004 84B0     		sub	sp, sp, #16
 280              		.cfi_def_cfa_offset 48
 281 0006 0646     		mov	r6, r0
 282 0008 0C46     		mov	r4, r1
 329:..\..\..\arduinoLCD\test\Pain Drain\libraries\lvgl\src\draw/lv_img_decoder.c ****         /*Support only "*.bin" files*/
 283              		.loc 1 329 0
 284 000a 0D7C     		ldrb	r5, [r1, #16]	@ zero_extendqisi2
 285 000c 012D     		cmp	r5, #1
 286 000e 2AD1     		bne	.L21
 287              	.LBB17:
 331:..\..\..\arduinoLCD\test\Pain Drain\libraries\lvgl\src\draw/lv_img_decoder.c **** 
 288              		.loc 1 331 0
 289 0010 4868     		ldr	r0, [r1, #4]
 290              	.LVL32:
 291 0012 FFF7FEFF 		bl	lv_fs_get_ext
 292              	.LVL33:
 293 0016 6B49     		ldr	r1, .L52
 294 0018 FFF7FEFF 		bl	strcmp
 295              	.LVL34:
 296 001c 08BB     		cbnz	r0, .L22
 334:..\..\..\arduinoLCD\test\Pain Drain\libraries\lvgl\src\draw/lv_img_decoder.c ****         if(res != LV_FS_RES_OK) {
 297              		.loc 1 334 0
 298 001e 0222     		movs	r2, #2
 299 0020 6168     		ldr	r1, [r4, #4]
 300 0022 01A8     		add	r0, sp, #4
 301 0024 FFF7FEFF 		bl	lv_fs_open
 302              	.LVL35:
 335:..\..\..\arduinoLCD\test\Pain Drain\libraries\lvgl\src\draw/lv_img_decoder.c ****             LV_LOG_WARN("Built-in image decoder can't open the file");
 303              		.loc 1 335 0
 304 0028 D8B9     		cbnz	r0, .L22
 341:..\..\..\arduinoLCD\test\Pain Drain\libraries\lvgl\src\draw/lv_img_decoder.c ****             dsc->user_data = lv_mem_alloc(sizeof(lv_img_decoder_built_in_data_t));
 305              		.loc 1 341 0
 306 002a 636A     		ldr	r3, [r4, #36]
 307 002c 6BB9     		cbnz	r3, .L23
 342:..\..\..\arduinoLCD\test\Pain Drain\libraries\lvgl\src\draw/lv_img_decoder.c ****             LV_ASSERT_MALLOC(dsc->user_data);
 308              		.loc 1 342 0
 309 002e 1420     		movs	r0, #20
 310              	.LVL36:
 311 0030 FFF7FEFF 		bl	lv_mem_alloc
 312              	.LVL37:
 313 0034 6062     		str	r0, [r4, #36]
 343:..\..\..\arduinoLCD\test\Pain Drain\libraries\lvgl\src\draw/lv_img_decoder.c ****             if(dsc->user_data == NULL) {
 314              		.loc 1 343 0
 315 0036 00B9     		cbnz	r0, .L24
 316              	.L25:
 317 0038 FEE7     		b	.L25
 318              	.L24:
 344:..\..\..\arduinoLCD\test\Pain Drain\libraries\lvgl\src\draw/lv_img_decoder.c ****                 LV_LOG_ERROR("img_decoder_built_in_open: out of memory");
 319              		.loc 1 344 0
 320 003a 18B9     		cbnz	r0, .L26
 346:..\..\..\arduinoLCD\test\Pain Drain\libraries\lvgl\src\draw/lv_img_decoder.c ****                 return LV_RES_INV;
 321              		.loc 1 346 0
 322 003c 01A8     		add	r0, sp, #4
 323 003e FFF7FEFF 		bl	lv_fs_close
 324              	.LVL38:
 347:..\..\..\arduinoLCD\test\Pain Drain\libraries\lvgl\src\draw/lv_img_decoder.c ****             }
ARM GAS  C:\Users\haske\AppData\Local\Temp\ccHSLozV.s 			page 16


 325              		.loc 1 347 0
 326 0042 0EE0     		b	.L22
 327              	.L26:
 349:..\..\..\arduinoLCD\test\Pain Drain\libraries\lvgl\src\draw/lv_img_decoder.c ****         }
 328              		.loc 1 349 0
 329 0044 1421     		movs	r1, #20
 330 0046 FFF7FEFF 		bl	lv_memset_00
 331              	.LVL39:
 332              	.L23:
 352:..\..\..\arduinoLCD\test\Pain Drain\libraries\lvgl\src\draw/lv_img_decoder.c ****         lv_memcpy_small(&user_data->f, &f, sizeof(f));
 333              		.loc 1 352 0
 334 004a 616A     		ldr	r1, [r4, #36]
 335              	.LVL40:
 336              	.LBB18:
 337              	.LBB19:
 338              		.file 2 "..\\..\\..\\arduinoLCD\\test\\Pain Drain\\libraries\\lvgl\\src\\draw\\../misc/lv_mem.h"
   1:..\..\..\arduinoLCD\test\Pain Drain\libraries\lvgl\src\draw\../misc/lv_mem.h **** /**
   2:..\..\..\arduinoLCD\test\Pain Drain\libraries\lvgl\src\draw\../misc/lv_mem.h ****  * @file lv_mem.h
   3:..\..\..\arduinoLCD\test\Pain Drain\libraries\lvgl\src\draw\../misc/lv_mem.h ****  *
   4:..\..\..\arduinoLCD\test\Pain Drain\libraries\lvgl\src\draw\../misc/lv_mem.h ****  */
   5:..\..\..\arduinoLCD\test\Pain Drain\libraries\lvgl\src\draw\../misc/lv_mem.h **** 
   6:..\..\..\arduinoLCD\test\Pain Drain\libraries\lvgl\src\draw\../misc/lv_mem.h **** #ifndef LV_MEM_H
   7:..\..\..\arduinoLCD\test\Pain Drain\libraries\lvgl\src\draw\../misc/lv_mem.h **** #define LV_MEM_H
   8:..\..\..\arduinoLCD\test\Pain Drain\libraries\lvgl\src\draw\../misc/lv_mem.h **** 
   9:..\..\..\arduinoLCD\test\Pain Drain\libraries\lvgl\src\draw\../misc/lv_mem.h **** #ifdef __cplusplus
  10:..\..\..\arduinoLCD\test\Pain Drain\libraries\lvgl\src\draw\../misc/lv_mem.h **** extern "C" {
  11:..\..\..\arduinoLCD\test\Pain Drain\libraries\lvgl\src\draw\../misc/lv_mem.h **** #endif
  12:..\..\..\arduinoLCD\test\Pain Drain\libraries\lvgl\src\draw\../misc/lv_mem.h **** 
  13:..\..\..\arduinoLCD\test\Pain Drain\libraries\lvgl\src\draw\../misc/lv_mem.h **** /*********************
  14:..\..\..\arduinoLCD\test\Pain Drain\libraries\lvgl\src\draw\../misc/lv_mem.h ****  *      INCLUDES
  15:..\..\..\arduinoLCD\test\Pain Drain\libraries\lvgl\src\draw\../misc/lv_mem.h ****  *********************/
  16:..\..\..\arduinoLCD\test\Pain Drain\libraries\lvgl\src\draw\../misc/lv_mem.h **** #include "../lv_conf_internal.h"
  17:..\..\..\arduinoLCD\test\Pain Drain\libraries\lvgl\src\draw\../misc/lv_mem.h **** 
  18:..\..\..\arduinoLCD\test\Pain Drain\libraries\lvgl\src\draw\../misc/lv_mem.h **** #include <stdint.h>
  19:..\..\..\arduinoLCD\test\Pain Drain\libraries\lvgl\src\draw\../misc/lv_mem.h **** #include <stddef.h>
  20:..\..\..\arduinoLCD\test\Pain Drain\libraries\lvgl\src\draw\../misc/lv_mem.h **** #include <string.h>
  21:..\..\..\arduinoLCD\test\Pain Drain\libraries\lvgl\src\draw\../misc/lv_mem.h **** 
  22:..\..\..\arduinoLCD\test\Pain Drain\libraries\lvgl\src\draw\../misc/lv_mem.h **** #include "lv_types.h"
  23:..\..\..\arduinoLCD\test\Pain Drain\libraries\lvgl\src\draw\../misc/lv_mem.h **** 
  24:..\..\..\arduinoLCD\test\Pain Drain\libraries\lvgl\src\draw\../misc/lv_mem.h **** /*********************
  25:..\..\..\arduinoLCD\test\Pain Drain\libraries\lvgl\src\draw\../misc/lv_mem.h ****  *      DEFINES
  26:..\..\..\arduinoLCD\test\Pain Drain\libraries\lvgl\src\draw\../misc/lv_mem.h ****  *********************/
  27:..\..\..\arduinoLCD\test\Pain Drain\libraries\lvgl\src\draw\../misc/lv_mem.h **** 
  28:..\..\..\arduinoLCD\test\Pain Drain\libraries\lvgl\src\draw\../misc/lv_mem.h **** /**********************
  29:..\..\..\arduinoLCD\test\Pain Drain\libraries\lvgl\src\draw\../misc/lv_mem.h ****  *      TYPEDEFS
  30:..\..\..\arduinoLCD\test\Pain Drain\libraries\lvgl\src\draw\../misc/lv_mem.h ****  **********************/
  31:..\..\..\arduinoLCD\test\Pain Drain\libraries\lvgl\src\draw\../misc/lv_mem.h **** 
  32:..\..\..\arduinoLCD\test\Pain Drain\libraries\lvgl\src\draw\../misc/lv_mem.h **** /**
  33:..\..\..\arduinoLCD\test\Pain Drain\libraries\lvgl\src\draw\../misc/lv_mem.h ****  * Heap information structure.
  34:..\..\..\arduinoLCD\test\Pain Drain\libraries\lvgl\src\draw\../misc/lv_mem.h ****  */
  35:..\..\..\arduinoLCD\test\Pain Drain\libraries\lvgl\src\draw\../misc/lv_mem.h **** typedef struct {
  36:..\..\..\arduinoLCD\test\Pain Drain\libraries\lvgl\src\draw\../misc/lv_mem.h ****     uint32_t total_size; /**< Total heap size*/
  37:..\..\..\arduinoLCD\test\Pain Drain\libraries\lvgl\src\draw\../misc/lv_mem.h ****     uint32_t free_cnt;
  38:..\..\..\arduinoLCD\test\Pain Drain\libraries\lvgl\src\draw\../misc/lv_mem.h ****     uint32_t free_size; /**< Size of available memory*/
  39:..\..\..\arduinoLCD\test\Pain Drain\libraries\lvgl\src\draw\../misc/lv_mem.h ****     uint32_t free_biggest_size;
  40:..\..\..\arduinoLCD\test\Pain Drain\libraries\lvgl\src\draw\../misc/lv_mem.h ****     uint32_t used_cnt;
  41:..\..\..\arduinoLCD\test\Pain Drain\libraries\lvgl\src\draw\../misc/lv_mem.h ****     uint32_t max_used; /**< Max size of Heap memory used*/
ARM GAS  C:\Users\haske\AppData\Local\Temp\ccHSLozV.s 			page 17


  42:..\..\..\arduinoLCD\test\Pain Drain\libraries\lvgl\src\draw\../misc/lv_mem.h ****     uint8_t used_pct; /**< Percentage used*/
  43:..\..\..\arduinoLCD\test\Pain Drain\libraries\lvgl\src\draw\../misc/lv_mem.h ****     uint8_t frag_pct; /**< Amount of fragmentation*/
  44:..\..\..\arduinoLCD\test\Pain Drain\libraries\lvgl\src\draw\../misc/lv_mem.h **** } lv_mem_monitor_t;
  45:..\..\..\arduinoLCD\test\Pain Drain\libraries\lvgl\src\draw\../misc/lv_mem.h **** 
  46:..\..\..\arduinoLCD\test\Pain Drain\libraries\lvgl\src\draw\../misc/lv_mem.h **** typedef struct {
  47:..\..\..\arduinoLCD\test\Pain Drain\libraries\lvgl\src\draw\../misc/lv_mem.h ****     void * p;
  48:..\..\..\arduinoLCD\test\Pain Drain\libraries\lvgl\src\draw\../misc/lv_mem.h ****     uint16_t size;
  49:..\..\..\arduinoLCD\test\Pain Drain\libraries\lvgl\src\draw\../misc/lv_mem.h ****     uint8_t used : 1;
  50:..\..\..\arduinoLCD\test\Pain Drain\libraries\lvgl\src\draw\../misc/lv_mem.h **** } lv_mem_buf_t;
  51:..\..\..\arduinoLCD\test\Pain Drain\libraries\lvgl\src\draw\../misc/lv_mem.h **** 
  52:..\..\..\arduinoLCD\test\Pain Drain\libraries\lvgl\src\draw\../misc/lv_mem.h **** typedef lv_mem_buf_t lv_mem_buf_arr_t[LV_MEM_BUF_MAX_NUM];
  53:..\..\..\arduinoLCD\test\Pain Drain\libraries\lvgl\src\draw\../misc/lv_mem.h **** 
  54:..\..\..\arduinoLCD\test\Pain Drain\libraries\lvgl\src\draw\../misc/lv_mem.h **** /**********************
  55:..\..\..\arduinoLCD\test\Pain Drain\libraries\lvgl\src\draw\../misc/lv_mem.h ****  * GLOBAL PROTOTYPES
  56:..\..\..\arduinoLCD\test\Pain Drain\libraries\lvgl\src\draw\../misc/lv_mem.h ****  **********************/
  57:..\..\..\arduinoLCD\test\Pain Drain\libraries\lvgl\src\draw\../misc/lv_mem.h **** 
  58:..\..\..\arduinoLCD\test\Pain Drain\libraries\lvgl\src\draw\../misc/lv_mem.h **** /**
  59:..\..\..\arduinoLCD\test\Pain Drain\libraries\lvgl\src\draw\../misc/lv_mem.h ****  * Initialize the dyn_mem module (work memory and other variables)
  60:..\..\..\arduinoLCD\test\Pain Drain\libraries\lvgl\src\draw\../misc/lv_mem.h ****  */
  61:..\..\..\arduinoLCD\test\Pain Drain\libraries\lvgl\src\draw\../misc/lv_mem.h **** void lv_mem_init(void);
  62:..\..\..\arduinoLCD\test\Pain Drain\libraries\lvgl\src\draw\../misc/lv_mem.h **** 
  63:..\..\..\arduinoLCD\test\Pain Drain\libraries\lvgl\src\draw\../misc/lv_mem.h **** /**
  64:..\..\..\arduinoLCD\test\Pain Drain\libraries\lvgl\src\draw\../misc/lv_mem.h ****  * Clean up the memory buffer which frees all the allocated memories.
  65:..\..\..\arduinoLCD\test\Pain Drain\libraries\lvgl\src\draw\../misc/lv_mem.h ****  * @note It work only if `LV_MEM_CUSTOM == 0`
  66:..\..\..\arduinoLCD\test\Pain Drain\libraries\lvgl\src\draw\../misc/lv_mem.h ****  */
  67:..\..\..\arduinoLCD\test\Pain Drain\libraries\lvgl\src\draw\../misc/lv_mem.h **** void lv_mem_deinit(void);
  68:..\..\..\arduinoLCD\test\Pain Drain\libraries\lvgl\src\draw\../misc/lv_mem.h **** 
  69:..\..\..\arduinoLCD\test\Pain Drain\libraries\lvgl\src\draw\../misc/lv_mem.h **** /**
  70:..\..\..\arduinoLCD\test\Pain Drain\libraries\lvgl\src\draw\../misc/lv_mem.h ****  * Allocate a memory dynamically
  71:..\..\..\arduinoLCD\test\Pain Drain\libraries\lvgl\src\draw\../misc/lv_mem.h ****  * @param size size of the memory to allocate in bytes
  72:..\..\..\arduinoLCD\test\Pain Drain\libraries\lvgl\src\draw\../misc/lv_mem.h ****  * @return pointer to the allocated memory
  73:..\..\..\arduinoLCD\test\Pain Drain\libraries\lvgl\src\draw\../misc/lv_mem.h ****  */
  74:..\..\..\arduinoLCD\test\Pain Drain\libraries\lvgl\src\draw\../misc/lv_mem.h **** void * lv_mem_alloc(size_t size);
  75:..\..\..\arduinoLCD\test\Pain Drain\libraries\lvgl\src\draw\../misc/lv_mem.h **** 
  76:..\..\..\arduinoLCD\test\Pain Drain\libraries\lvgl\src\draw\../misc/lv_mem.h **** /**
  77:..\..\..\arduinoLCD\test\Pain Drain\libraries\lvgl\src\draw\../misc/lv_mem.h ****  * Free an allocated data
  78:..\..\..\arduinoLCD\test\Pain Drain\libraries\lvgl\src\draw\../misc/lv_mem.h ****  * @param data pointer to an allocated memory
  79:..\..\..\arduinoLCD\test\Pain Drain\libraries\lvgl\src\draw\../misc/lv_mem.h ****  */
  80:..\..\..\arduinoLCD\test\Pain Drain\libraries\lvgl\src\draw\../misc/lv_mem.h **** void lv_mem_free(void * data);
  81:..\..\..\arduinoLCD\test\Pain Drain\libraries\lvgl\src\draw\../misc/lv_mem.h **** 
  82:..\..\..\arduinoLCD\test\Pain Drain\libraries\lvgl\src\draw\../misc/lv_mem.h **** /**
  83:..\..\..\arduinoLCD\test\Pain Drain\libraries\lvgl\src\draw\../misc/lv_mem.h ****  * Reallocate a memory with a new size. The old content will be kept.
  84:..\..\..\arduinoLCD\test\Pain Drain\libraries\lvgl\src\draw\../misc/lv_mem.h ****  * @param data pointer to an allocated memory.
  85:..\..\..\arduinoLCD\test\Pain Drain\libraries\lvgl\src\draw\../misc/lv_mem.h ****  * Its content will be copied to the new memory block and freed
  86:..\..\..\arduinoLCD\test\Pain Drain\libraries\lvgl\src\draw\../misc/lv_mem.h ****  * @param new_size the desired new size in byte
  87:..\..\..\arduinoLCD\test\Pain Drain\libraries\lvgl\src\draw\../misc/lv_mem.h ****  * @return pointer to the new memory, NULL on failure
  88:..\..\..\arduinoLCD\test\Pain Drain\libraries\lvgl\src\draw\../misc/lv_mem.h ****  */
  89:..\..\..\arduinoLCD\test\Pain Drain\libraries\lvgl\src\draw\../misc/lv_mem.h **** void * lv_mem_realloc(void * data_p, size_t new_size);
  90:..\..\..\arduinoLCD\test\Pain Drain\libraries\lvgl\src\draw\../misc/lv_mem.h **** 
  91:..\..\..\arduinoLCD\test\Pain Drain\libraries\lvgl\src\draw\../misc/lv_mem.h **** /**
  92:..\..\..\arduinoLCD\test\Pain Drain\libraries\lvgl\src\draw\../misc/lv_mem.h ****  *
  93:..\..\..\arduinoLCD\test\Pain Drain\libraries\lvgl\src\draw\../misc/lv_mem.h ****  * @return
  94:..\..\..\arduinoLCD\test\Pain Drain\libraries\lvgl\src\draw\../misc/lv_mem.h ****  */
  95:..\..\..\arduinoLCD\test\Pain Drain\libraries\lvgl\src\draw\../misc/lv_mem.h **** lv_res_t lv_mem_test(void);
  96:..\..\..\arduinoLCD\test\Pain Drain\libraries\lvgl\src\draw\../misc/lv_mem.h **** 
  97:..\..\..\arduinoLCD\test\Pain Drain\libraries\lvgl\src\draw\../misc/lv_mem.h **** /**
  98:..\..\..\arduinoLCD\test\Pain Drain\libraries\lvgl\src\draw\../misc/lv_mem.h ****  * Give information about the work memory of dynamic allocation
ARM GAS  C:\Users\haske\AppData\Local\Temp\ccHSLozV.s 			page 18


  99:..\..\..\arduinoLCD\test\Pain Drain\libraries\lvgl\src\draw\../misc/lv_mem.h ****  * @param mon_p pointer to a lv_mem_monitor_t variable,
 100:..\..\..\arduinoLCD\test\Pain Drain\libraries\lvgl\src\draw\../misc/lv_mem.h ****  *              the result of the analysis will be stored here
 101:..\..\..\arduinoLCD\test\Pain Drain\libraries\lvgl\src\draw\../misc/lv_mem.h ****  */
 102:..\..\..\arduinoLCD\test\Pain Drain\libraries\lvgl\src\draw\../misc/lv_mem.h **** void lv_mem_monitor(lv_mem_monitor_t * mon_p);
 103:..\..\..\arduinoLCD\test\Pain Drain\libraries\lvgl\src\draw\../misc/lv_mem.h **** 
 104:..\..\..\arduinoLCD\test\Pain Drain\libraries\lvgl\src\draw\../misc/lv_mem.h **** 
 105:..\..\..\arduinoLCD\test\Pain Drain\libraries\lvgl\src\draw\../misc/lv_mem.h **** /**
 106:..\..\..\arduinoLCD\test\Pain Drain\libraries\lvgl\src\draw\../misc/lv_mem.h ****  * Get a temporal buffer with the given size.
 107:..\..\..\arduinoLCD\test\Pain Drain\libraries\lvgl\src\draw\../misc/lv_mem.h ****  * @param size the required size
 108:..\..\..\arduinoLCD\test\Pain Drain\libraries\lvgl\src\draw\../misc/lv_mem.h ****  */
 109:..\..\..\arduinoLCD\test\Pain Drain\libraries\lvgl\src\draw\../misc/lv_mem.h **** void * lv_mem_buf_get(uint32_t size);
 110:..\..\..\arduinoLCD\test\Pain Drain\libraries\lvgl\src\draw\../misc/lv_mem.h **** 
 111:..\..\..\arduinoLCD\test\Pain Drain\libraries\lvgl\src\draw\../misc/lv_mem.h **** /**
 112:..\..\..\arduinoLCD\test\Pain Drain\libraries\lvgl\src\draw\../misc/lv_mem.h ****  * Release a memory buffer
 113:..\..\..\arduinoLCD\test\Pain Drain\libraries\lvgl\src\draw\../misc/lv_mem.h ****  * @param p buffer to release
 114:..\..\..\arduinoLCD\test\Pain Drain\libraries\lvgl\src\draw\../misc/lv_mem.h ****  */
 115:..\..\..\arduinoLCD\test\Pain Drain\libraries\lvgl\src\draw\../misc/lv_mem.h **** void lv_mem_buf_release(void * p);
 116:..\..\..\arduinoLCD\test\Pain Drain\libraries\lvgl\src\draw\../misc/lv_mem.h **** 
 117:..\..\..\arduinoLCD\test\Pain Drain\libraries\lvgl\src\draw\../misc/lv_mem.h **** /**
 118:..\..\..\arduinoLCD\test\Pain Drain\libraries\lvgl\src\draw\../misc/lv_mem.h ****  * Free all memory buffers
 119:..\..\..\arduinoLCD\test\Pain Drain\libraries\lvgl\src\draw\../misc/lv_mem.h ****  */
 120:..\..\..\arduinoLCD\test\Pain Drain\libraries\lvgl\src\draw\../misc/lv_mem.h **** void lv_mem_buf_free_all(void);
 121:..\..\..\arduinoLCD\test\Pain Drain\libraries\lvgl\src\draw\../misc/lv_mem.h **** 
 122:..\..\..\arduinoLCD\test\Pain Drain\libraries\lvgl\src\draw\../misc/lv_mem.h **** //! @cond Doxygen_Suppress
 123:..\..\..\arduinoLCD\test\Pain Drain\libraries\lvgl\src\draw\../misc/lv_mem.h **** 
 124:..\..\..\arduinoLCD\test\Pain Drain\libraries\lvgl\src\draw\../misc/lv_mem.h **** #if LV_MEMCPY_MEMSET_STD
 125:..\..\..\arduinoLCD\test\Pain Drain\libraries\lvgl\src\draw\../misc/lv_mem.h **** 
 126:..\..\..\arduinoLCD\test\Pain Drain\libraries\lvgl\src\draw\../misc/lv_mem.h **** /**
 127:..\..\..\arduinoLCD\test\Pain Drain\libraries\lvgl\src\draw\../misc/lv_mem.h ****  * Wrapper for the standard memcpy
 128:..\..\..\arduinoLCD\test\Pain Drain\libraries\lvgl\src\draw\../misc/lv_mem.h ****  * @param dst pointer to the destination buffer
 129:..\..\..\arduinoLCD\test\Pain Drain\libraries\lvgl\src\draw\../misc/lv_mem.h ****  * @param src pointer to the source buffer
 130:..\..\..\arduinoLCD\test\Pain Drain\libraries\lvgl\src\draw\../misc/lv_mem.h ****  * @param len number of byte to copy
 131:..\..\..\arduinoLCD\test\Pain Drain\libraries\lvgl\src\draw\../misc/lv_mem.h ****  */
 132:..\..\..\arduinoLCD\test\Pain Drain\libraries\lvgl\src\draw\../misc/lv_mem.h **** static inline void * lv_memcpy(void * dst, const void * src, size_t len)
 133:..\..\..\arduinoLCD\test\Pain Drain\libraries\lvgl\src\draw\../misc/lv_mem.h **** {
 134:..\..\..\arduinoLCD\test\Pain Drain\libraries\lvgl\src\draw\../misc/lv_mem.h ****     return memcpy(dst, src, len);
 135:..\..\..\arduinoLCD\test\Pain Drain\libraries\lvgl\src\draw\../misc/lv_mem.h **** }
 136:..\..\..\arduinoLCD\test\Pain Drain\libraries\lvgl\src\draw\../misc/lv_mem.h **** 
 137:..\..\..\arduinoLCD\test\Pain Drain\libraries\lvgl\src\draw\../misc/lv_mem.h **** /**
 138:..\..\..\arduinoLCD\test\Pain Drain\libraries\lvgl\src\draw\../misc/lv_mem.h ****  * Wrapper for the standard memcpy
 139:..\..\..\arduinoLCD\test\Pain Drain\libraries\lvgl\src\draw\../misc/lv_mem.h ****  * @param dst pointer to the destination buffer
 140:..\..\..\arduinoLCD\test\Pain Drain\libraries\lvgl\src\draw\../misc/lv_mem.h ****  * @param src pointer to the source buffer
 141:..\..\..\arduinoLCD\test\Pain Drain\libraries\lvgl\src\draw\../misc/lv_mem.h ****  * @param len number of byte to copy
 142:..\..\..\arduinoLCD\test\Pain Drain\libraries\lvgl\src\draw\../misc/lv_mem.h ****  */
 143:..\..\..\arduinoLCD\test\Pain Drain\libraries\lvgl\src\draw\../misc/lv_mem.h **** static inline void * lv_memcpy_small(void * dst, const void * src, size_t len)
 144:..\..\..\arduinoLCD\test\Pain Drain\libraries\lvgl\src\draw\../misc/lv_mem.h **** {
 145:..\..\..\arduinoLCD\test\Pain Drain\libraries\lvgl\src\draw\../misc/lv_mem.h ****     return memcpy(dst, src, len);
 146:..\..\..\arduinoLCD\test\Pain Drain\libraries\lvgl\src\draw\../misc/lv_mem.h **** }
 147:..\..\..\arduinoLCD\test\Pain Drain\libraries\lvgl\src\draw\../misc/lv_mem.h **** 
 148:..\..\..\arduinoLCD\test\Pain Drain\libraries\lvgl\src\draw\../misc/lv_mem.h **** /**
 149:..\..\..\arduinoLCD\test\Pain Drain\libraries\lvgl\src\draw\../misc/lv_mem.h ****  * Wrapper for the standard memset
 150:..\..\..\arduinoLCD\test\Pain Drain\libraries\lvgl\src\draw\../misc/lv_mem.h ****  * @param dst pointer to the destination buffer
 151:..\..\..\arduinoLCD\test\Pain Drain\libraries\lvgl\src\draw\../misc/lv_mem.h ****  * @param v value to set [0..255]
 152:..\..\..\arduinoLCD\test\Pain Drain\libraries\lvgl\src\draw\../misc/lv_mem.h ****  * @param len number of byte to set
 153:..\..\..\arduinoLCD\test\Pain Drain\libraries\lvgl\src\draw\../misc/lv_mem.h ****  */
 154:..\..\..\arduinoLCD\test\Pain Drain\libraries\lvgl\src\draw\../misc/lv_mem.h **** static inline void lv_memset(void * dst, uint8_t v, size_t len)
 155:..\..\..\arduinoLCD\test\Pain Drain\libraries\lvgl\src\draw\../misc/lv_mem.h **** {
ARM GAS  C:\Users\haske\AppData\Local\Temp\ccHSLozV.s 			page 19


 156:..\..\..\arduinoLCD\test\Pain Drain\libraries\lvgl\src\draw\../misc/lv_mem.h ****     memset(dst, v, len);
 157:..\..\..\arduinoLCD\test\Pain Drain\libraries\lvgl\src\draw\../misc/lv_mem.h **** }
 158:..\..\..\arduinoLCD\test\Pain Drain\libraries\lvgl\src\draw\../misc/lv_mem.h **** 
 159:..\..\..\arduinoLCD\test\Pain Drain\libraries\lvgl\src\draw\../misc/lv_mem.h **** /**
 160:..\..\..\arduinoLCD\test\Pain Drain\libraries\lvgl\src\draw\../misc/lv_mem.h ****  * Wrapper for the standard memset with fixed 0x00 value
 161:..\..\..\arduinoLCD\test\Pain Drain\libraries\lvgl\src\draw\../misc/lv_mem.h ****  * @param dst pointer to the destination buffer
 162:..\..\..\arduinoLCD\test\Pain Drain\libraries\lvgl\src\draw\../misc/lv_mem.h ****  * @param len number of byte to set
 163:..\..\..\arduinoLCD\test\Pain Drain\libraries\lvgl\src\draw\../misc/lv_mem.h ****  */
 164:..\..\..\arduinoLCD\test\Pain Drain\libraries\lvgl\src\draw\../misc/lv_mem.h **** static inline void lv_memset_00(void * dst, size_t len)
 165:..\..\..\arduinoLCD\test\Pain Drain\libraries\lvgl\src\draw\../misc/lv_mem.h **** {
 166:..\..\..\arduinoLCD\test\Pain Drain\libraries\lvgl\src\draw\../misc/lv_mem.h ****     memset(dst, 0x00, len);
 167:..\..\..\arduinoLCD\test\Pain Drain\libraries\lvgl\src\draw\../misc/lv_mem.h **** }
 168:..\..\..\arduinoLCD\test\Pain Drain\libraries\lvgl\src\draw\../misc/lv_mem.h **** 
 169:..\..\..\arduinoLCD\test\Pain Drain\libraries\lvgl\src\draw\../misc/lv_mem.h **** /**
 170:..\..\..\arduinoLCD\test\Pain Drain\libraries\lvgl\src\draw\../misc/lv_mem.h ****  * Wrapper for the standard memset with fixed 0xFF value
 171:..\..\..\arduinoLCD\test\Pain Drain\libraries\lvgl\src\draw\../misc/lv_mem.h ****  * @param dst pointer to the destination buffer
 172:..\..\..\arduinoLCD\test\Pain Drain\libraries\lvgl\src\draw\../misc/lv_mem.h ****  * @param len number of byte to set
 173:..\..\..\arduinoLCD\test\Pain Drain\libraries\lvgl\src\draw\../misc/lv_mem.h ****  */
 174:..\..\..\arduinoLCD\test\Pain Drain\libraries\lvgl\src\draw\../misc/lv_mem.h **** static inline void lv_memset_ff(void * dst, size_t len)
 175:..\..\..\arduinoLCD\test\Pain Drain\libraries\lvgl\src\draw\../misc/lv_mem.h **** {
 176:..\..\..\arduinoLCD\test\Pain Drain\libraries\lvgl\src\draw\../misc/lv_mem.h ****     memset(dst, 0xFF, len);
 177:..\..\..\arduinoLCD\test\Pain Drain\libraries\lvgl\src\draw\../misc/lv_mem.h **** }
 178:..\..\..\arduinoLCD\test\Pain Drain\libraries\lvgl\src\draw\../misc/lv_mem.h **** 
 179:..\..\..\arduinoLCD\test\Pain Drain\libraries\lvgl\src\draw\../misc/lv_mem.h **** #else
 180:..\..\..\arduinoLCD\test\Pain Drain\libraries\lvgl\src\draw\../misc/lv_mem.h **** /**
 181:..\..\..\arduinoLCD\test\Pain Drain\libraries\lvgl\src\draw\../misc/lv_mem.h ****  * Same as `memcpy` but optimized for 4 byte operation.
 182:..\..\..\arduinoLCD\test\Pain Drain\libraries\lvgl\src\draw\../misc/lv_mem.h ****  * @param dst pointer to the destination buffer
 183:..\..\..\arduinoLCD\test\Pain Drain\libraries\lvgl\src\draw\../misc/lv_mem.h ****  * @param src pointer to the source buffer
 184:..\..\..\arduinoLCD\test\Pain Drain\libraries\lvgl\src\draw\../misc/lv_mem.h ****  * @param len number of byte to copy
 185:..\..\..\arduinoLCD\test\Pain Drain\libraries\lvgl\src\draw\../misc/lv_mem.h ****  */
 186:..\..\..\arduinoLCD\test\Pain Drain\libraries\lvgl\src\draw\../misc/lv_mem.h **** LV_ATTRIBUTE_FAST_MEM void * lv_memcpy(void * dst, const void * src, size_t len);
 187:..\..\..\arduinoLCD\test\Pain Drain\libraries\lvgl\src\draw\../misc/lv_mem.h **** 
 188:..\..\..\arduinoLCD\test\Pain Drain\libraries\lvgl\src\draw\../misc/lv_mem.h **** /**
 189:..\..\..\arduinoLCD\test\Pain Drain\libraries\lvgl\src\draw\../misc/lv_mem.h ****  * Same as `memcpy` but optimized to copy only a few bytes.
 190:..\..\..\arduinoLCD\test\Pain Drain\libraries\lvgl\src\draw\../misc/lv_mem.h ****  * @param dst pointer to the destination buffer
 191:..\..\..\arduinoLCD\test\Pain Drain\libraries\lvgl\src\draw\../misc/lv_mem.h ****  * @param src pointer to the source buffer
 192:..\..\..\arduinoLCD\test\Pain Drain\libraries\lvgl\src\draw\../misc/lv_mem.h ****  * @param len number of byte to copy
 193:..\..\..\arduinoLCD\test\Pain Drain\libraries\lvgl\src\draw\../misc/lv_mem.h ****  */
 194:..\..\..\arduinoLCD\test\Pain Drain\libraries\lvgl\src\draw\../misc/lv_mem.h **** LV_ATTRIBUTE_FAST_MEM static inline void * lv_memcpy_small(void * dst, const void * src, size_t len
 195:..\..\..\arduinoLCD\test\Pain Drain\libraries\lvgl\src\draw\../misc/lv_mem.h **** {
 196:..\..\..\arduinoLCD\test\Pain Drain\libraries\lvgl\src\draw\../misc/lv_mem.h ****     uint8_t * d8 = (uint8_t *)dst;
 197:..\..\..\arduinoLCD\test\Pain Drain\libraries\lvgl\src\draw\../misc/lv_mem.h ****     const uint8_t * s8 = (const uint8_t *)src;
 339              		.loc 2 197 0
 340 004c 01AA     		add	r2, sp, #4
 341              	.LVL41:
 342              	.LBE19:
 343              	.LBE18:
 353:..\..\..\arduinoLCD\test\Pain Drain\libraries\lvgl\src\draw/lv_img_decoder.c ****     }
 344              		.loc 1 353 0
 345 004e 0C23     		movs	r3, #12
 346 0050 04E0     		b	.L27
 347              	.LVL42:
 348              	.L28:
 349              	.LBB21:
 350              	.LBB20:
 198:..\..\..\arduinoLCD\test\Pain Drain\libraries\lvgl\src\draw\../misc/lv_mem.h **** 
 199:..\..\..\arduinoLCD\test\Pain Drain\libraries\lvgl\src\draw\../misc/lv_mem.h ****     while(len) {
ARM GAS  C:\Users\haske\AppData\Local\Temp\ccHSLozV.s 			page 20


 200:..\..\..\arduinoLCD\test\Pain Drain\libraries\lvgl\src\draw\../misc/lv_mem.h ****         *d8 = *s8;
 351              		.loc 2 200 0
 352 0052 12F8010B 		ldrb	r0, [r2], #1	@ zero_extendqisi2
 353              	.LVL43:
 354 0056 01F8010B 		strb	r0, [r1], #1
 355              	.LVL44:
 201:..\..\..\arduinoLCD\test\Pain Drain\libraries\lvgl\src\draw\../misc/lv_mem.h ****         d8++;
 202:..\..\..\arduinoLCD\test\Pain Drain\libraries\lvgl\src\draw\../misc/lv_mem.h ****         s8++;
 203:..\..\..\arduinoLCD\test\Pain Drain\libraries\lvgl\src\draw\../misc/lv_mem.h ****         len--;
 356              		.loc 2 203 0
 357 005a 013B     		subs	r3, r3, #1
 358              	.LVL45:
 359              	.L27:
 199:..\..\..\arduinoLCD\test\Pain Drain\libraries\lvgl\src\draw\../misc/lv_mem.h ****         *d8 = *s8;
 360              		.loc 2 199 0
 361 005c 002B     		cmp	r3, #0
 362 005e F8D1     		bne	.L28
 363 0060 07E0     		b	.L29
 364              	.LVL46:
 365              	.L22:
 366              	.LBE20:
 367              	.LBE21:
 331:..\..\..\arduinoLCD\test\Pain Drain\libraries\lvgl\src\draw/lv_img_decoder.c **** 
 368              		.loc 1 331 0 discriminator 2
 369 0062 0025     		movs	r5, #0
 370 0064 A9E0     		b	.L30
 371              	.LVL47:
 372              	.L21:
 373              	.LBE17:
 355:..\..\..\arduinoLCD\test\Pain Drain\libraries\lvgl\src\draw/lv_img_decoder.c ****         /*The variables should have valid data*/
 374              		.loc 1 355 0
 375 0066 25B9     		cbnz	r5, .L29
 357:..\..\..\arduinoLCD\test\Pain Drain\libraries\lvgl\src\draw/lv_img_decoder.c ****             return LV_RES_INV;
 376              		.loc 1 357 0
 377 0068 4B68     		ldr	r3, [r1, #4]
 378 006a 9B68     		ldr	r3, [r3, #8]
 379 006c 002B     		cmp	r3, #0
 380 006e 00F0A480 		beq	.L30
 381              	.LVL48:
 382              	.L29:
 362:..\..\..\arduinoLCD\test\Pain Drain\libraries\lvgl\src\draw/lv_img_decoder.c ****     /*Process true color formats*/
 383              		.loc 1 362 0
 384 0072 207D     		ldrb	r0, [r4, #20]	@ zero_extendqisi2
 385 0074 00F01F00 		and	r0, r0, #31
 386              	.LVL49:
 364:..\..\..\arduinoLCD\test\Pain Drain\libraries\lvgl\src\draw/lv_img_decoder.c ****        cf == LV_IMG_CF_TRUE_COLOR_CHROMA_KEYED || cf == LV_IMG_CF_RGB565A8 ||
 387              		.loc 1 364 0
 388 0078 031F     		subs	r3, r0, #4
 389 007a DBB2     		uxtb	r3, r3
 390 007c 022B     		cmp	r3, #2
 391 007e 03D9     		bls	.L31
 365:..\..\..\arduinoLCD\test\Pain Drain\libraries\lvgl\src\draw/lv_img_decoder.c ****        cf == LV_IMG_CF_ALPHA_8BIT) {
 392              		.loc 1 365 0
 393 0080 1428     		cmp	r0, #20
 394 0082 01D0     		beq	.L31
 365:..\..\..\arduinoLCD\test\Pain Drain\libraries\lvgl\src\draw/lv_img_decoder.c ****        cf == LV_IMG_CF_ALPHA_8BIT) {
 395              		.loc 1 365 0 is_stmt 0 discriminator 1
ARM GAS  C:\Users\haske\AppData\Local\Temp\ccHSLozV.s 			page 21


 396 0084 0E28     		cmp	r0, #14
 397 0086 08D1     		bne	.L32
 398              	.L31:
 367:..\..\..\arduinoLCD\test\Pain Drain\libraries\lvgl\src\draw/lv_img_decoder.c ****             /*In case of uncompressed formats the image stored in the ROM/RAM.
 399              		.loc 1 367 0 is_stmt 1
 400 0088 237C     		ldrb	r3, [r4, #16]	@ zero_extendqisi2
 401 008a 002B     		cmp	r3, #0
 402 008c 40F09080 		bne	.L48
 370:..\..\..\arduinoLCD\test\Pain Drain\libraries\lvgl\src\draw/lv_img_decoder.c ****             return LV_RES_OK;
 403              		.loc 1 370 0
 404 0090 6368     		ldr	r3, [r4, #4]
 405 0092 9B68     		ldr	r3, [r3, #8]
 406 0094 A361     		str	r3, [r4, #24]
 371:..\..\..\arduinoLCD\test\Pain Drain\libraries\lvgl\src\draw/lv_img_decoder.c ****         }
 407              		.loc 1 371 0
 408 0096 0125     		movs	r5, #1
 409 0098 8FE0     		b	.L30
 410              	.L32:
 379:..\..\..\arduinoLCD\test\Pain Drain\libraries\lvgl\src\draw/lv_img_decoder.c ****             cf == LV_IMG_CF_INDEXED_8BIT) {
 411              		.loc 1 379 0
 412 009a C31F     		subs	r3, r0, #7
 413 009c DBB2     		uxtb	r3, r3
 414 009e 032B     		cmp	r3, #3
 415 00a0 7BD8     		bhi	.L33
 416              	.LBB22:
 381:..\..\..\arduinoLCD\test\Pain Drain\libraries\lvgl\src\draw/lv_img_decoder.c ****         uint32_t palette_size = 1 << px_size;
 417              		.loc 1 381 0
 418 00a2 FFF7FEFF 		bl	lv_img_cf_get_px_size
 419              	.LVL50:
 382:..\..\..\arduinoLCD\test\Pain Drain\libraries\lvgl\src\draw/lv_img_decoder.c **** 
 420              		.loc 1 382 0
 421 00a6 4FF0010A 		mov	r10, #1
 422 00aa 0AFA00FA 		lsl	r10, r10, r0
 423              	.LVL51:
 385:..\..\..\arduinoLCD\test\Pain Drain\libraries\lvgl\src\draw/lv_img_decoder.c ****             dsc->user_data = lv_mem_alloc(sizeof(lv_img_decoder_built_in_data_t));
 424              		.loc 1 385 0
 425 00ae 636A     		ldr	r3, [r4, #36]
 426 00b0 53B9     		cbnz	r3, .L34
 386:..\..\..\arduinoLCD\test\Pain Drain\libraries\lvgl\src\draw/lv_img_decoder.c ****             LV_ASSERT_MALLOC(dsc->user_data);
 427              		.loc 1 386 0
 428 00b2 1420     		movs	r0, #20
 429              	.LVL52:
 430 00b4 FFF7FEFF 		bl	lv_mem_alloc
 431              	.LVL53:
 432 00b8 6062     		str	r0, [r4, #36]
 387:..\..\..\arduinoLCD\test\Pain Drain\libraries\lvgl\src\draw/lv_img_decoder.c ****             if(dsc->user_data == NULL) {
 433              		.loc 1 387 0
 434 00ba 00B9     		cbnz	r0, .L35
 435              	.L36:
 436 00bc FEE7     		b	.L36
 437              	.L35:
 388:..\..\..\arduinoLCD\test\Pain Drain\libraries\lvgl\src\draw/lv_img_decoder.c ****                 LV_LOG_ERROR("img_decoder_built_in_open: out of memory");
 438              		.loc 1 388 0
 439 00be 0028     		cmp	r0, #0
 440 00c0 78D0     		beq	.L49
 392:..\..\..\arduinoLCD\test\Pain Drain\libraries\lvgl\src\draw/lv_img_decoder.c ****         }
 441              		.loc 1 392 0
ARM GAS  C:\Users\haske\AppData\Local\Temp\ccHSLozV.s 			page 22


 442 00c2 1421     		movs	r1, #20
 443 00c4 FFF7FEFF 		bl	lv_memset_00
 444              	.LVL54:
 445              	.L34:
 395:..\..\..\arduinoLCD\test\Pain Drain\libraries\lvgl\src\draw/lv_img_decoder.c ****         user_data->palette                         = lv_mem_alloc(palette_size * sizeof(lv_color_t)
 446              		.loc 1 395 0
 447 00c8 D4F82490 		ldr	r9, [r4, #36]
 448              	.LVL55:
 396:..\..\..\arduinoLCD\test\Pain Drain\libraries\lvgl\src\draw/lv_img_decoder.c ****         LV_ASSERT_MALLOC(user_data->palette);
 449              		.loc 1 396 0
 450 00cc 4FEA4A00 		lsl	r0, r10, #1
 451 00d0 FFF7FEFF 		bl	lv_mem_alloc
 452              	.LVL56:
 453 00d4 C9F80C00 		str	r0, [r9, #12]
 397:..\..\..\arduinoLCD\test\Pain Drain\libraries\lvgl\src\draw/lv_img_decoder.c ****         user_data->opa                             = lv_mem_alloc(palette_size * sizeof(lv_opa_t));
 454              		.loc 1 397 0
 455 00d8 00B9     		cbnz	r0, .L37
 456              	.L38:
 457 00da FEE7     		b	.L38
 458              	.L37:
 398:..\..\..\arduinoLCD\test\Pain Drain\libraries\lvgl\src\draw/lv_img_decoder.c ****         LV_ASSERT_MALLOC(user_data->opa);
 459              		.loc 1 398 0
 460 00dc 5046     		mov	r0, r10
 461 00de FFF7FEFF 		bl	lv_mem_alloc
 462              	.LVL57:
 463 00e2 C9F81000 		str	r0, [r9, #16]
 399:..\..\..\arduinoLCD\test\Pain Drain\libraries\lvgl\src\draw/lv_img_decoder.c ****         if(user_data->palette == NULL || user_data->opa == NULL) {
 464              		.loc 1 399 0
 465 00e6 00B9     		cbnz	r0, .L39
 466              	.L40:
 467 00e8 FEE7     		b	.L40
 468              	.L39:
 400:..\..\..\arduinoLCD\test\Pain Drain\libraries\lvgl\src\draw/lv_img_decoder.c ****             LV_LOG_ERROR("img_decoder_built_in_open: out of memory");
 469              		.loc 1 400 0
 470 00ea D9F80C30 		ldr	r3, [r9, #12]
 471 00ee 03B1     		cbz	r3, .L41
 400:..\..\..\arduinoLCD\test\Pain Drain\libraries\lvgl\src\draw/lv_img_decoder.c ****             LV_LOG_ERROR("img_decoder_built_in_open: out of memory");
 472              		.loc 1 400 0 is_stmt 0 discriminator 1
 473 00f0 28B9     		cbnz	r0, .L42
 474              	.L41:
 402:..\..\..\arduinoLCD\test\Pain Drain\libraries\lvgl\src\draw/lv_img_decoder.c ****             return LV_RES_INV;
 475              		.loc 1 402 0 is_stmt 1
 476 00f2 2146     		mov	r1, r4
 477 00f4 3046     		mov	r0, r6
 478 00f6 FFF7FEFF 		bl	lv_img_decoder_built_in_close
 479              	.LVL58:
 403:..\..\..\arduinoLCD\test\Pain Drain\libraries\lvgl\src\draw/lv_img_decoder.c ****         }
 480              		.loc 1 403 0
 481 00fa 0025     		movs	r5, #0
 482 00fc 5DE0     		b	.L30
 483              	.L42:
 406:..\..\..\arduinoLCD\test\Pain Drain\libraries\lvgl\src\draw/lv_img_decoder.c ****             /*Read the palette from file*/
 484              		.loc 1 406 0
 485 00fe 257C     		ldrb	r5, [r4, #16]	@ zero_extendqisi2
 486 0100 012D     		cmp	r5, #1
 487 0102 2AD1     		bne	.L43
 488              	.LBB23:
ARM GAS  C:\Users\haske\AppData\Local\Temp\ccHSLozV.s 			page 23


 408:..\..\..\arduinoLCD\test\Pain Drain\libraries\lvgl\src\draw/lv_img_decoder.c ****             lv_color32_t cur_color;
 489              		.loc 1 408 0
 490 0104 4E46     		mov	r6, r9
 491              	.LVL59:
 492 0106 0022     		movs	r2, #0
 493 0108 0421     		movs	r1, #4
 494 010a 4846     		mov	r0, r9
 495 010c FFF7FEFF 		bl	lv_fs_seek
 496              	.LVL60:
 411:..\..\..\arduinoLCD\test\Pain Drain\libraries\lvgl\src\draw/lv_img_decoder.c ****                 lv_fs_read(&user_data->f, &cur_color, sizeof(lv_color32_t), NULL);
 497              		.loc 1 411 0
 498 0110 0024     		movs	r4, #0
 499              	.LVL61:
 500 0112 1FE0     		b	.L44
 501              	.LVL62:
 502              	.L45:
 412:..\..\..\arduinoLCD\test\Pain Drain\libraries\lvgl\src\draw/lv_img_decoder.c ****                 user_data->palette[i] = lv_color_make(cur_color.ch.red, cur_color.ch.green, cur_col
 503              		.loc 1 412 0 discriminator 3
 504 0114 0023     		movs	r3, #0
 505 0116 0422     		movs	r2, #4
 506 0118 0DEB0201 		add	r1, sp, r2
 507 011c 3046     		mov	r0, r6
 508 011e FFF7FEFF 		bl	lv_fs_read
 509              	.LVL63:
 413:..\..\..\arduinoLCD\test\Pain Drain\libraries\lvgl\src\draw/lv_img_decoder.c ****                 user_data->opa[i]     = cur_color.ch.alpha;
 510              		.loc 1 413 0 discriminator 3
 511 0122 D9F80C10 		ldr	r1, [r9, #12]
 512 0126 9DF80630 		ldrb	r3, [sp, #6]	@ zero_extendqisi2
 513 012a 9DF80520 		ldrb	r2, [sp, #5]	@ zero_extendqisi2
 514 012e 9DF80400 		ldrb	r0, [sp, #4]	@ zero_extendqisi2
 515              	.LVL64:
 516              	.LBB24:
 517              	.LBB25:
 518              		.file 3 "..\\..\\..\\arduinoLCD\\test\\Pain Drain\\libraries\\lvgl\\src\\draw\\../misc/lv_color.h"
   1:..\..\..\arduinoLCD\test\Pain Drain\libraries\lvgl\src\draw\../misc/lv_color.h **** /**
   2:..\..\..\arduinoLCD\test\Pain Drain\libraries\lvgl\src\draw\../misc/lv_color.h ****  * @file lv_color.h
   3:..\..\..\arduinoLCD\test\Pain Drain\libraries\lvgl\src\draw\../misc/lv_color.h ****  *
   4:..\..\..\arduinoLCD\test\Pain Drain\libraries\lvgl\src\draw\../misc/lv_color.h ****  */
   5:..\..\..\arduinoLCD\test\Pain Drain\libraries\lvgl\src\draw\../misc/lv_color.h **** 
   6:..\..\..\arduinoLCD\test\Pain Drain\libraries\lvgl\src\draw\../misc/lv_color.h **** #ifndef LV_COLOR_H
   7:..\..\..\arduinoLCD\test\Pain Drain\libraries\lvgl\src\draw\../misc/lv_color.h **** #define LV_COLOR_H
   8:..\..\..\arduinoLCD\test\Pain Drain\libraries\lvgl\src\draw\../misc/lv_color.h **** 
   9:..\..\..\arduinoLCD\test\Pain Drain\libraries\lvgl\src\draw\../misc/lv_color.h **** #ifdef __cplusplus
  10:..\..\..\arduinoLCD\test\Pain Drain\libraries\lvgl\src\draw\../misc/lv_color.h **** extern "C" {
  11:..\..\..\arduinoLCD\test\Pain Drain\libraries\lvgl\src\draw\../misc/lv_color.h **** #endif
  12:..\..\..\arduinoLCD\test\Pain Drain\libraries\lvgl\src\draw\../misc/lv_color.h **** 
  13:..\..\..\arduinoLCD\test\Pain Drain\libraries\lvgl\src\draw\../misc/lv_color.h **** /*********************
  14:..\..\..\arduinoLCD\test\Pain Drain\libraries\lvgl\src\draw\../misc/lv_color.h ****  *      INCLUDES
  15:..\..\..\arduinoLCD\test\Pain Drain\libraries\lvgl\src\draw\../misc/lv_color.h ****  *********************/
  16:..\..\..\arduinoLCD\test\Pain Drain\libraries\lvgl\src\draw\../misc/lv_color.h **** #include "../lv_conf_internal.h"
  17:..\..\..\arduinoLCD\test\Pain Drain\libraries\lvgl\src\draw\../misc/lv_color.h **** #include "lv_assert.h"
  18:..\..\..\arduinoLCD\test\Pain Drain\libraries\lvgl\src\draw\../misc/lv_color.h **** #include "lv_math.h"
  19:..\..\..\arduinoLCD\test\Pain Drain\libraries\lvgl\src\draw\../misc/lv_color.h **** #include "lv_types.h"
  20:..\..\..\arduinoLCD\test\Pain Drain\libraries\lvgl\src\draw\../misc/lv_color.h **** 
  21:..\..\..\arduinoLCD\test\Pain Drain\libraries\lvgl\src\draw\../misc/lv_color.h **** /*Error checking*/
  22:..\..\..\arduinoLCD\test\Pain Drain\libraries\lvgl\src\draw\../misc/lv_color.h **** #if LV_COLOR_DEPTH == 24
  23:..\..\..\arduinoLCD\test\Pain Drain\libraries\lvgl\src\draw\../misc/lv_color.h **** #error "LV_COLOR_DEPTH 24 is deprecated. Use LV_COLOR_DEPTH 32 instead (lv_conf.h)"
ARM GAS  C:\Users\haske\AppData\Local\Temp\ccHSLozV.s 			page 24


  24:..\..\..\arduinoLCD\test\Pain Drain\libraries\lvgl\src\draw\../misc/lv_color.h **** #endif
  25:..\..\..\arduinoLCD\test\Pain Drain\libraries\lvgl\src\draw\../misc/lv_color.h **** 
  26:..\..\..\arduinoLCD\test\Pain Drain\libraries\lvgl\src\draw\../misc/lv_color.h **** #if LV_COLOR_DEPTH != 16 && LV_COLOR_16_SWAP != 0
  27:..\..\..\arduinoLCD\test\Pain Drain\libraries\lvgl\src\draw\../misc/lv_color.h **** #error "LV_COLOR_16_SWAP requires LV_COLOR_DEPTH == 16. Set it in lv_conf.h"
  28:..\..\..\arduinoLCD\test\Pain Drain\libraries\lvgl\src\draw\../misc/lv_color.h **** #endif
  29:..\..\..\arduinoLCD\test\Pain Drain\libraries\lvgl\src\draw\../misc/lv_color.h **** 
  30:..\..\..\arduinoLCD\test\Pain Drain\libraries\lvgl\src\draw\../misc/lv_color.h **** #include <stdint.h>
  31:..\..\..\arduinoLCD\test\Pain Drain\libraries\lvgl\src\draw\../misc/lv_color.h **** 
  32:..\..\..\arduinoLCD\test\Pain Drain\libraries\lvgl\src\draw\../misc/lv_color.h **** /*********************
  33:..\..\..\arduinoLCD\test\Pain Drain\libraries\lvgl\src\draw\../misc/lv_color.h ****  *      DEFINES
  34:..\..\..\arduinoLCD\test\Pain Drain\libraries\lvgl\src\draw\../misc/lv_color.h ****  *********************/
  35:..\..\..\arduinoLCD\test\Pain Drain\libraries\lvgl\src\draw\../misc/lv_color.h **** LV_EXPORT_CONST_INT(LV_COLOR_DEPTH);
  36:..\..\..\arduinoLCD\test\Pain Drain\libraries\lvgl\src\draw\../misc/lv_color.h **** LV_EXPORT_CONST_INT(LV_COLOR_16_SWAP);
  37:..\..\..\arduinoLCD\test\Pain Drain\libraries\lvgl\src\draw\../misc/lv_color.h **** 
  38:..\..\..\arduinoLCD\test\Pain Drain\libraries\lvgl\src\draw\../misc/lv_color.h **** /**
  39:..\..\..\arduinoLCD\test\Pain Drain\libraries\lvgl\src\draw\../misc/lv_color.h ****  * Opacity percentages.
  40:..\..\..\arduinoLCD\test\Pain Drain\libraries\lvgl\src\draw\../misc/lv_color.h ****  */
  41:..\..\..\arduinoLCD\test\Pain Drain\libraries\lvgl\src\draw\../misc/lv_color.h **** enum {
  42:..\..\..\arduinoLCD\test\Pain Drain\libraries\lvgl\src\draw\../misc/lv_color.h ****     LV_OPA_TRANSP = 0,
  43:..\..\..\arduinoLCD\test\Pain Drain\libraries\lvgl\src\draw\../misc/lv_color.h ****     LV_OPA_0      = 0,
  44:..\..\..\arduinoLCD\test\Pain Drain\libraries\lvgl\src\draw\../misc/lv_color.h ****     LV_OPA_10     = 25,
  45:..\..\..\arduinoLCD\test\Pain Drain\libraries\lvgl\src\draw\../misc/lv_color.h ****     LV_OPA_20     = 51,
  46:..\..\..\arduinoLCD\test\Pain Drain\libraries\lvgl\src\draw\../misc/lv_color.h ****     LV_OPA_30     = 76,
  47:..\..\..\arduinoLCD\test\Pain Drain\libraries\lvgl\src\draw\../misc/lv_color.h ****     LV_OPA_40     = 102,
  48:..\..\..\arduinoLCD\test\Pain Drain\libraries\lvgl\src\draw\../misc/lv_color.h ****     LV_OPA_50     = 127,
  49:..\..\..\arduinoLCD\test\Pain Drain\libraries\lvgl\src\draw\../misc/lv_color.h ****     LV_OPA_60     = 153,
  50:..\..\..\arduinoLCD\test\Pain Drain\libraries\lvgl\src\draw\../misc/lv_color.h ****     LV_OPA_70     = 178,
  51:..\..\..\arduinoLCD\test\Pain Drain\libraries\lvgl\src\draw\../misc/lv_color.h ****     LV_OPA_80     = 204,
  52:..\..\..\arduinoLCD\test\Pain Drain\libraries\lvgl\src\draw\../misc/lv_color.h ****     LV_OPA_90     = 229,
  53:..\..\..\arduinoLCD\test\Pain Drain\libraries\lvgl\src\draw\../misc/lv_color.h ****     LV_OPA_100    = 255,
  54:..\..\..\arduinoLCD\test\Pain Drain\libraries\lvgl\src\draw\../misc/lv_color.h ****     LV_OPA_COVER  = 255,
  55:..\..\..\arduinoLCD\test\Pain Drain\libraries\lvgl\src\draw\../misc/lv_color.h **** };
  56:..\..\..\arduinoLCD\test\Pain Drain\libraries\lvgl\src\draw\../misc/lv_color.h **** 
  57:..\..\..\arduinoLCD\test\Pain Drain\libraries\lvgl\src\draw\../misc/lv_color.h **** #define LV_OPA_MIN 2    /*Opacities below this will be transparent*/
  58:..\..\..\arduinoLCD\test\Pain Drain\libraries\lvgl\src\draw\../misc/lv_color.h **** #define LV_OPA_MAX 253  /*Opacities above this will fully cover*/
  59:..\..\..\arduinoLCD\test\Pain Drain\libraries\lvgl\src\draw\../misc/lv_color.h **** 
  60:..\..\..\arduinoLCD\test\Pain Drain\libraries\lvgl\src\draw\../misc/lv_color.h **** #if LV_COLOR_DEPTH == 1
  61:..\..\..\arduinoLCD\test\Pain Drain\libraries\lvgl\src\draw\../misc/lv_color.h **** #define LV_COLOR_SIZE 8
  62:..\..\..\arduinoLCD\test\Pain Drain\libraries\lvgl\src\draw\../misc/lv_color.h **** #elif LV_COLOR_DEPTH == 8
  63:..\..\..\arduinoLCD\test\Pain Drain\libraries\lvgl\src\draw\../misc/lv_color.h **** #define LV_COLOR_SIZE 8
  64:..\..\..\arduinoLCD\test\Pain Drain\libraries\lvgl\src\draw\../misc/lv_color.h **** #elif LV_COLOR_DEPTH == 16
  65:..\..\..\arduinoLCD\test\Pain Drain\libraries\lvgl\src\draw\../misc/lv_color.h **** #define LV_COLOR_SIZE 16
  66:..\..\..\arduinoLCD\test\Pain Drain\libraries\lvgl\src\draw\../misc/lv_color.h **** #elif LV_COLOR_DEPTH == 32
  67:..\..\..\arduinoLCD\test\Pain Drain\libraries\lvgl\src\draw\../misc/lv_color.h **** #define LV_COLOR_SIZE 32
  68:..\..\..\arduinoLCD\test\Pain Drain\libraries\lvgl\src\draw\../misc/lv_color.h **** #else
  69:..\..\..\arduinoLCD\test\Pain Drain\libraries\lvgl\src\draw\../misc/lv_color.h **** #error "Invalid LV_COLOR_DEPTH in lv_conf.h! Set it to 1, 8, 16 or 32!"
  70:..\..\..\arduinoLCD\test\Pain Drain\libraries\lvgl\src\draw\../misc/lv_color.h **** #endif
  71:..\..\..\arduinoLCD\test\Pain Drain\libraries\lvgl\src\draw\../misc/lv_color.h **** 
  72:..\..\..\arduinoLCD\test\Pain Drain\libraries\lvgl\src\draw\../misc/lv_color.h **** #if defined(__cplusplus) && !defined(_LV_COLOR_HAS_MODERN_CPP)
  73:..\..\..\arduinoLCD\test\Pain Drain\libraries\lvgl\src\draw\../misc/lv_color.h **** /**
  74:..\..\..\arduinoLCD\test\Pain Drain\libraries\lvgl\src\draw\../misc/lv_color.h **** * MSVC compiler's definition of the __cplusplus indicating 199711L regardless to C++ standard versi
  75:..\..\..\arduinoLCD\test\Pain Drain\libraries\lvgl\src\draw\../misc/lv_color.h **** * see https://devblogs.microsoft.com/cppblog/msvc-now-correctly-reports-cplusplus
  76:..\..\..\arduinoLCD\test\Pain Drain\libraries\lvgl\src\draw\../misc/lv_color.h **** * so we use _MSC_VER macro instead of __cplusplus
  77:..\..\..\arduinoLCD\test\Pain Drain\libraries\lvgl\src\draw\../misc/lv_color.h **** */
  78:..\..\..\arduinoLCD\test\Pain Drain\libraries\lvgl\src\draw\../misc/lv_color.h **** #ifdef _MSC_VER
  79:..\..\..\arduinoLCD\test\Pain Drain\libraries\lvgl\src\draw\../misc/lv_color.h **** #if _MSC_VER >= 1900 /*Visual Studio 2015*/
  80:..\..\..\arduinoLCD\test\Pain Drain\libraries\lvgl\src\draw\../misc/lv_color.h **** #define _LV_COLOR_HAS_MODERN_CPP 1
ARM GAS  C:\Users\haske\AppData\Local\Temp\ccHSLozV.s 			page 25


  81:..\..\..\arduinoLCD\test\Pain Drain\libraries\lvgl\src\draw\../misc/lv_color.h **** #endif
  82:..\..\..\arduinoLCD\test\Pain Drain\libraries\lvgl\src\draw\../misc/lv_color.h **** #else
  83:..\..\..\arduinoLCD\test\Pain Drain\libraries\lvgl\src\draw\../misc/lv_color.h **** #if __cplusplus >= 201103L
  84:..\..\..\arduinoLCD\test\Pain Drain\libraries\lvgl\src\draw\../misc/lv_color.h **** #define _LV_COLOR_HAS_MODERN_CPP 1
  85:..\..\..\arduinoLCD\test\Pain Drain\libraries\lvgl\src\draw\../misc/lv_color.h **** #endif
  86:..\..\..\arduinoLCD\test\Pain Drain\libraries\lvgl\src\draw\../misc/lv_color.h **** #endif
  87:..\..\..\arduinoLCD\test\Pain Drain\libraries\lvgl\src\draw\../misc/lv_color.h **** #endif /*__cplusplus*/
  88:..\..\..\arduinoLCD\test\Pain Drain\libraries\lvgl\src\draw\../misc/lv_color.h **** 
  89:..\..\..\arduinoLCD\test\Pain Drain\libraries\lvgl\src\draw\../misc/lv_color.h **** #ifndef _LV_COLOR_HAS_MODERN_CPP
  90:..\..\..\arduinoLCD\test\Pain Drain\libraries\lvgl\src\draw\../misc/lv_color.h **** #define _LV_COLOR_HAS_MODERN_CPP 0
  91:..\..\..\arduinoLCD\test\Pain Drain\libraries\lvgl\src\draw\../misc/lv_color.h **** #endif
  92:..\..\..\arduinoLCD\test\Pain Drain\libraries\lvgl\src\draw\../misc/lv_color.h **** 
  93:..\..\..\arduinoLCD\test\Pain Drain\libraries\lvgl\src\draw\../misc/lv_color.h **** #if _LV_COLOR_HAS_MODERN_CPP
  94:..\..\..\arduinoLCD\test\Pain Drain\libraries\lvgl\src\draw\../misc/lv_color.h **** /*Fix msvc compiler error C4576 inside C++ code*/
  95:..\..\..\arduinoLCD\test\Pain Drain\libraries\lvgl\src\draw\../misc/lv_color.h **** #define _LV_COLOR_MAKE_TYPE_HELPER lv_color_t
  96:..\..\..\arduinoLCD\test\Pain Drain\libraries\lvgl\src\draw\../misc/lv_color.h **** #else
  97:..\..\..\arduinoLCD\test\Pain Drain\libraries\lvgl\src\draw\../misc/lv_color.h **** #define _LV_COLOR_MAKE_TYPE_HELPER (lv_color_t)
  98:..\..\..\arduinoLCD\test\Pain Drain\libraries\lvgl\src\draw\../misc/lv_color.h **** #endif
  99:..\..\..\arduinoLCD\test\Pain Drain\libraries\lvgl\src\draw\../misc/lv_color.h **** 
 100:..\..\..\arduinoLCD\test\Pain Drain\libraries\lvgl\src\draw\../misc/lv_color.h **** /*---------------------------------------
 101:..\..\..\arduinoLCD\test\Pain Drain\libraries\lvgl\src\draw\../misc/lv_color.h ****  * Macros for all existing color depths
 102:..\..\..\arduinoLCD\test\Pain Drain\libraries\lvgl\src\draw\../misc/lv_color.h ****  * to set/get values of the color channels
 103:..\..\..\arduinoLCD\test\Pain Drain\libraries\lvgl\src\draw\../misc/lv_color.h ****  *------------------------------------------*/
 104:..\..\..\arduinoLCD\test\Pain Drain\libraries\lvgl\src\draw\../misc/lv_color.h **** # define LV_COLOR_SET_R1(c, v) (c).ch.red = (uint8_t)((v) & 0x1)
 105:..\..\..\arduinoLCD\test\Pain Drain\libraries\lvgl\src\draw\../misc/lv_color.h **** # define LV_COLOR_SET_G1(c, v) (c).ch.green = (uint8_t)((v) & 0x1)
 106:..\..\..\arduinoLCD\test\Pain Drain\libraries\lvgl\src\draw\../misc/lv_color.h **** # define LV_COLOR_SET_B1(c, v) (c).ch.blue = (uint8_t)((v) & 0x1)
 107:..\..\..\arduinoLCD\test\Pain Drain\libraries\lvgl\src\draw\../misc/lv_color.h **** # define LV_COLOR_SET_A1(c, v) do {} while(0)
 108:..\..\..\arduinoLCD\test\Pain Drain\libraries\lvgl\src\draw\../misc/lv_color.h **** 
 109:..\..\..\arduinoLCD\test\Pain Drain\libraries\lvgl\src\draw\../misc/lv_color.h **** # define LV_COLOR_GET_R1(c) (c).ch.red
 110:..\..\..\arduinoLCD\test\Pain Drain\libraries\lvgl\src\draw\../misc/lv_color.h **** # define LV_COLOR_GET_G1(c) (c).ch.green
 111:..\..\..\arduinoLCD\test\Pain Drain\libraries\lvgl\src\draw\../misc/lv_color.h **** # define LV_COLOR_GET_B1(c) (c).ch.blue
 112:..\..\..\arduinoLCD\test\Pain Drain\libraries\lvgl\src\draw\../misc/lv_color.h **** # define LV_COLOR_GET_A1(c) 0xFF
 113:..\..\..\arduinoLCD\test\Pain Drain\libraries\lvgl\src\draw\../misc/lv_color.h **** 
 114:..\..\..\arduinoLCD\test\Pain Drain\libraries\lvgl\src\draw\../misc/lv_color.h **** # define _LV_COLOR_ZERO_INITIALIZER1 {0x00}
 115:..\..\..\arduinoLCD\test\Pain Drain\libraries\lvgl\src\draw\../misc/lv_color.h **** # define LV_COLOR_MAKE1(r8, g8, b8)  {(uint8_t)((b8 >> 7) | (g8 >> 7) | (r8 >> 7))}
 116:..\..\..\arduinoLCD\test\Pain Drain\libraries\lvgl\src\draw\../misc/lv_color.h **** 
 117:..\..\..\arduinoLCD\test\Pain Drain\libraries\lvgl\src\draw\../misc/lv_color.h **** # define LV_COLOR_SET_R8(c, v) (c).ch.red = (uint8_t)((v) & 0x7U)
 118:..\..\..\arduinoLCD\test\Pain Drain\libraries\lvgl\src\draw\../misc/lv_color.h **** # define LV_COLOR_SET_G8(c, v) (c).ch.green = (uint8_t)((v) & 0x7U)
 119:..\..\..\arduinoLCD\test\Pain Drain\libraries\lvgl\src\draw\../misc/lv_color.h **** # define LV_COLOR_SET_B8(c, v) (c).ch.blue = (uint8_t)((v) & 0x3U)
 120:..\..\..\arduinoLCD\test\Pain Drain\libraries\lvgl\src\draw\../misc/lv_color.h **** # define LV_COLOR_SET_A8(c, v) do {} while(0)
 121:..\..\..\arduinoLCD\test\Pain Drain\libraries\lvgl\src\draw\../misc/lv_color.h **** 
 122:..\..\..\arduinoLCD\test\Pain Drain\libraries\lvgl\src\draw\../misc/lv_color.h **** # define LV_COLOR_GET_R8(c) (c).ch.red
 123:..\..\..\arduinoLCD\test\Pain Drain\libraries\lvgl\src\draw\../misc/lv_color.h **** # define LV_COLOR_GET_G8(c) (c).ch.green
 124:..\..\..\arduinoLCD\test\Pain Drain\libraries\lvgl\src\draw\../misc/lv_color.h **** # define LV_COLOR_GET_B8(c) (c).ch.blue
 125:..\..\..\arduinoLCD\test\Pain Drain\libraries\lvgl\src\draw\../misc/lv_color.h **** # define LV_COLOR_GET_A8(c) 0xFF
 126:..\..\..\arduinoLCD\test\Pain Drain\libraries\lvgl\src\draw\../misc/lv_color.h **** 
 127:..\..\..\arduinoLCD\test\Pain Drain\libraries\lvgl\src\draw\../misc/lv_color.h **** # define _LV_COLOR_ZERO_INITIALIZER8 {{0x00, 0x00, 0x00}}
 128:..\..\..\arduinoLCD\test\Pain Drain\libraries\lvgl\src\draw\../misc/lv_color.h **** # define LV_COLOR_MAKE8(r8, g8, b8) {{(uint8_t)((b8 >> 6) & 0x3U), (uint8_t)((g8 >> 5) & 0x7U), (ui
 129:..\..\..\arduinoLCD\test\Pain Drain\libraries\lvgl\src\draw\../misc/lv_color.h **** 
 130:..\..\..\arduinoLCD\test\Pain Drain\libraries\lvgl\src\draw\../misc/lv_color.h **** # define LV_COLOR_SET_R16(c, v) (c).ch.red = (uint8_t)((v) & 0x1FU)
 131:..\..\..\arduinoLCD\test\Pain Drain\libraries\lvgl\src\draw\../misc/lv_color.h **** #if LV_COLOR_16_SWAP == 0
 132:..\..\..\arduinoLCD\test\Pain Drain\libraries\lvgl\src\draw\../misc/lv_color.h **** # define LV_COLOR_SET_G16(c, v) (c).ch.green = (uint8_t)((v) & 0x3FU)
 133:..\..\..\arduinoLCD\test\Pain Drain\libraries\lvgl\src\draw\../misc/lv_color.h **** #else
 134:..\..\..\arduinoLCD\test\Pain Drain\libraries\lvgl\src\draw\../misc/lv_color.h **** # define LV_COLOR_SET_G16(c, v) {(c).ch.green_h = (uint8_t)(((v) >> 3) & 0x7); (c).ch.green_l = (ui
 135:..\..\..\arduinoLCD\test\Pain Drain\libraries\lvgl\src\draw\../misc/lv_color.h **** #endif
 136:..\..\..\arduinoLCD\test\Pain Drain\libraries\lvgl\src\draw\../misc/lv_color.h **** # define LV_COLOR_SET_B16(c, v) (c).ch.blue = (uint8_t)((v) & 0x1FU)
 137:..\..\..\arduinoLCD\test\Pain Drain\libraries\lvgl\src\draw\../misc/lv_color.h **** # define LV_COLOR_SET_A16(c, v) do {} while(0)
ARM GAS  C:\Users\haske\AppData\Local\Temp\ccHSLozV.s 			page 26


 138:..\..\..\arduinoLCD\test\Pain Drain\libraries\lvgl\src\draw\../misc/lv_color.h **** 
 139:..\..\..\arduinoLCD\test\Pain Drain\libraries\lvgl\src\draw\../misc/lv_color.h **** # define LV_COLOR_GET_R16(c) (c).ch.red
 140:..\..\..\arduinoLCD\test\Pain Drain\libraries\lvgl\src\draw\../misc/lv_color.h **** #if LV_COLOR_16_SWAP == 0
 141:..\..\..\arduinoLCD\test\Pain Drain\libraries\lvgl\src\draw\../misc/lv_color.h **** # define LV_COLOR_GET_G16(c) (c).ch.green
 142:..\..\..\arduinoLCD\test\Pain Drain\libraries\lvgl\src\draw\../misc/lv_color.h **** #else
 143:..\..\..\arduinoLCD\test\Pain Drain\libraries\lvgl\src\draw\../misc/lv_color.h **** # define LV_COLOR_GET_G16(c) (((c).ch.green_h << 3) + (c).ch.green_l)
 144:..\..\..\arduinoLCD\test\Pain Drain\libraries\lvgl\src\draw\../misc/lv_color.h **** #endif
 145:..\..\..\arduinoLCD\test\Pain Drain\libraries\lvgl\src\draw\../misc/lv_color.h **** # define LV_COLOR_GET_B16(c) (c).ch.blue
 146:..\..\..\arduinoLCD\test\Pain Drain\libraries\lvgl\src\draw\../misc/lv_color.h **** # define LV_COLOR_GET_A16(c) 0xFF
 147:..\..\..\arduinoLCD\test\Pain Drain\libraries\lvgl\src\draw\../misc/lv_color.h **** 
 148:..\..\..\arduinoLCD\test\Pain Drain\libraries\lvgl\src\draw\../misc/lv_color.h **** #if LV_COLOR_16_SWAP == 0
 149:..\..\..\arduinoLCD\test\Pain Drain\libraries\lvgl\src\draw\../misc/lv_color.h **** # define _LV_COLOR_ZERO_INITIALIZER16  {{0x00, 0x00, 0x00}}
 150:..\..\..\arduinoLCD\test\Pain Drain\libraries\lvgl\src\draw\../misc/lv_color.h **** # define LV_COLOR_MAKE16(r8, g8, b8) {{(uint8_t)((b8 >> 3) & 0x1FU), (uint8_t)((g8 >> 2) & 0x3FU), 
 151:..\..\..\arduinoLCD\test\Pain Drain\libraries\lvgl\src\draw\../misc/lv_color.h **** #else
 152:..\..\..\arduinoLCD\test\Pain Drain\libraries\lvgl\src\draw\../misc/lv_color.h **** # define _LV_COLOR_ZERO_INITIALIZER16 {{0x00, 0x00, 0x00, 0x00}}
 153:..\..\..\arduinoLCD\test\Pain Drain\libraries\lvgl\src\draw\../misc/lv_color.h **** # define LV_COLOR_MAKE16(r8, g8, b8) {{(uint8_t)((g8 >> 5) & 0x7U), (uint8_t)((r8 >> 3) & 0x1FU), (
 154:..\..\..\arduinoLCD\test\Pain Drain\libraries\lvgl\src\draw\../misc/lv_color.h **** #endif
 155:..\..\..\arduinoLCD\test\Pain Drain\libraries\lvgl\src\draw\../misc/lv_color.h **** 
 156:..\..\..\arduinoLCD\test\Pain Drain\libraries\lvgl\src\draw\../misc/lv_color.h **** # define LV_COLOR_SET_R32(c, v) (c).ch.red = (uint8_t)((v) & 0xFF)
 157:..\..\..\arduinoLCD\test\Pain Drain\libraries\lvgl\src\draw\../misc/lv_color.h **** # define LV_COLOR_SET_G32(c, v) (c).ch.green = (uint8_t)((v) & 0xFF)
 158:..\..\..\arduinoLCD\test\Pain Drain\libraries\lvgl\src\draw\../misc/lv_color.h **** # define LV_COLOR_SET_B32(c, v) (c).ch.blue = (uint8_t)((v) & 0xFF)
 159:..\..\..\arduinoLCD\test\Pain Drain\libraries\lvgl\src\draw\../misc/lv_color.h **** # define LV_COLOR_SET_A32(c, v) (c).ch.alpha = (uint8_t)((v) & 0xFF)
 160:..\..\..\arduinoLCD\test\Pain Drain\libraries\lvgl\src\draw\../misc/lv_color.h **** 
 161:..\..\..\arduinoLCD\test\Pain Drain\libraries\lvgl\src\draw\../misc/lv_color.h **** # define LV_COLOR_GET_R32(c) (c).ch.red
 162:..\..\..\arduinoLCD\test\Pain Drain\libraries\lvgl\src\draw\../misc/lv_color.h **** # define LV_COLOR_GET_G32(c) (c).ch.green
 163:..\..\..\arduinoLCD\test\Pain Drain\libraries\lvgl\src\draw\../misc/lv_color.h **** # define LV_COLOR_GET_B32(c) (c).ch.blue
 164:..\..\..\arduinoLCD\test\Pain Drain\libraries\lvgl\src\draw\../misc/lv_color.h **** # define LV_COLOR_GET_A32(c) (c).ch.alpha
 165:..\..\..\arduinoLCD\test\Pain Drain\libraries\lvgl\src\draw\../misc/lv_color.h **** 
 166:..\..\..\arduinoLCD\test\Pain Drain\libraries\lvgl\src\draw\../misc/lv_color.h **** # define _LV_COLOR_ZERO_INITIALIZER32  {{0x00, 0x00, 0x00, 0x00}}
 167:..\..\..\arduinoLCD\test\Pain Drain\libraries\lvgl\src\draw\../misc/lv_color.h **** # define LV_COLOR_MAKE32(r8, g8, b8) {{b8, g8, r8, 0xff}} /*Fix 0xff alpha*/
 168:..\..\..\arduinoLCD\test\Pain Drain\libraries\lvgl\src\draw\../misc/lv_color.h **** 
 169:..\..\..\arduinoLCD\test\Pain Drain\libraries\lvgl\src\draw\../misc/lv_color.h **** /*---------------------------------------
 170:..\..\..\arduinoLCD\test\Pain Drain\libraries\lvgl\src\draw\../misc/lv_color.h ****  * Macros for the current color depth
 171:..\..\..\arduinoLCD\test\Pain Drain\libraries\lvgl\src\draw\../misc/lv_color.h ****  * to set/get values of the color channels
 172:..\..\..\arduinoLCD\test\Pain Drain\libraries\lvgl\src\draw\../misc/lv_color.h ****  *------------------------------------------*/
 173:..\..\..\arduinoLCD\test\Pain Drain\libraries\lvgl\src\draw\../misc/lv_color.h **** #define LV_COLOR_SET_R(c, v) LV_CONCAT(LV_COLOR_SET_R, LV_COLOR_DEPTH)(c, v)
 174:..\..\..\arduinoLCD\test\Pain Drain\libraries\lvgl\src\draw\../misc/lv_color.h **** #define LV_COLOR_SET_G(c, v) LV_CONCAT(LV_COLOR_SET_G, LV_COLOR_DEPTH)(c, v)
 175:..\..\..\arduinoLCD\test\Pain Drain\libraries\lvgl\src\draw\../misc/lv_color.h **** #define LV_COLOR_SET_B(c, v) LV_CONCAT(LV_COLOR_SET_B, LV_COLOR_DEPTH)(c, v)
 176:..\..\..\arduinoLCD\test\Pain Drain\libraries\lvgl\src\draw\../misc/lv_color.h **** #define LV_COLOR_SET_A(c, v) LV_CONCAT(LV_COLOR_SET_A, LV_COLOR_DEPTH)(c, v)
 177:..\..\..\arduinoLCD\test\Pain Drain\libraries\lvgl\src\draw\../misc/lv_color.h **** 
 178:..\..\..\arduinoLCD\test\Pain Drain\libraries\lvgl\src\draw\../misc/lv_color.h **** #define LV_COLOR_GET_R(c) LV_CONCAT(LV_COLOR_GET_R, LV_COLOR_DEPTH)(c)
 179:..\..\..\arduinoLCD\test\Pain Drain\libraries\lvgl\src\draw\../misc/lv_color.h **** #define LV_COLOR_GET_G(c) LV_CONCAT(LV_COLOR_GET_G, LV_COLOR_DEPTH)(c)
 180:..\..\..\arduinoLCD\test\Pain Drain\libraries\lvgl\src\draw\../misc/lv_color.h **** #define LV_COLOR_GET_B(c) LV_CONCAT(LV_COLOR_GET_B, LV_COLOR_DEPTH)(c)
 181:..\..\..\arduinoLCD\test\Pain Drain\libraries\lvgl\src\draw\../misc/lv_color.h **** #define LV_COLOR_GET_A(c) LV_CONCAT(LV_COLOR_GET_A, LV_COLOR_DEPTH)(c)
 182:..\..\..\arduinoLCD\test\Pain Drain\libraries\lvgl\src\draw\../misc/lv_color.h **** 
 183:..\..\..\arduinoLCD\test\Pain Drain\libraries\lvgl\src\draw\../misc/lv_color.h **** #define _LV_COLOR_ZERO_INITIALIZER LV_CONCAT(_LV_COLOR_ZERO_INITIALIZER, LV_COLOR_DEPTH)
 184:..\..\..\arduinoLCD\test\Pain Drain\libraries\lvgl\src\draw\../misc/lv_color.h **** #define LV_COLOR_MAKE(r8, g8, b8) LV_CONCAT(LV_COLOR_MAKE, LV_COLOR_DEPTH)(r8, g8, b8)
 185:..\..\..\arduinoLCD\test\Pain Drain\libraries\lvgl\src\draw\../misc/lv_color.h **** 
 186:..\..\..\arduinoLCD\test\Pain Drain\libraries\lvgl\src\draw\../misc/lv_color.h **** /**********************
 187:..\..\..\arduinoLCD\test\Pain Drain\libraries\lvgl\src\draw\../misc/lv_color.h ****  *      TYPEDEFS
 188:..\..\..\arduinoLCD\test\Pain Drain\libraries\lvgl\src\draw\../misc/lv_color.h ****  **********************/
 189:..\..\..\arduinoLCD\test\Pain Drain\libraries\lvgl\src\draw\../misc/lv_color.h **** 
 190:..\..\..\arduinoLCD\test\Pain Drain\libraries\lvgl\src\draw\../misc/lv_color.h **** typedef union {
 191:..\..\..\arduinoLCD\test\Pain Drain\libraries\lvgl\src\draw\../misc/lv_color.h ****     uint8_t full; /*must be declared first to set all bits of byte via initializer list*/
 192:..\..\..\arduinoLCD\test\Pain Drain\libraries\lvgl\src\draw\../misc/lv_color.h ****     union {
 193:..\..\..\arduinoLCD\test\Pain Drain\libraries\lvgl\src\draw\../misc/lv_color.h ****         uint8_t blue : 1;
 194:..\..\..\arduinoLCD\test\Pain Drain\libraries\lvgl\src\draw\../misc/lv_color.h ****         uint8_t green : 1;
ARM GAS  C:\Users\haske\AppData\Local\Temp\ccHSLozV.s 			page 27


 195:..\..\..\arduinoLCD\test\Pain Drain\libraries\lvgl\src\draw\../misc/lv_color.h ****         uint8_t red : 1;
 196:..\..\..\arduinoLCD\test\Pain Drain\libraries\lvgl\src\draw\../misc/lv_color.h ****     } ch;
 197:..\..\..\arduinoLCD\test\Pain Drain\libraries\lvgl\src\draw\../misc/lv_color.h **** } lv_color1_t;
 198:..\..\..\arduinoLCD\test\Pain Drain\libraries\lvgl\src\draw\../misc/lv_color.h **** 
 199:..\..\..\arduinoLCD\test\Pain Drain\libraries\lvgl\src\draw\../misc/lv_color.h **** typedef union {
 200:..\..\..\arduinoLCD\test\Pain Drain\libraries\lvgl\src\draw\../misc/lv_color.h ****     struct {
 201:..\..\..\arduinoLCD\test\Pain Drain\libraries\lvgl\src\draw\../misc/lv_color.h ****         uint8_t blue : 2;
 202:..\..\..\arduinoLCD\test\Pain Drain\libraries\lvgl\src\draw\../misc/lv_color.h ****         uint8_t green : 3;
 203:..\..\..\arduinoLCD\test\Pain Drain\libraries\lvgl\src\draw\../misc/lv_color.h ****         uint8_t red : 3;
 204:..\..\..\arduinoLCD\test\Pain Drain\libraries\lvgl\src\draw\../misc/lv_color.h ****     } ch;
 205:..\..\..\arduinoLCD\test\Pain Drain\libraries\lvgl\src\draw\../misc/lv_color.h ****     uint8_t full;
 206:..\..\..\arduinoLCD\test\Pain Drain\libraries\lvgl\src\draw\../misc/lv_color.h **** } lv_color8_t;
 207:..\..\..\arduinoLCD\test\Pain Drain\libraries\lvgl\src\draw\../misc/lv_color.h **** 
 208:..\..\..\arduinoLCD\test\Pain Drain\libraries\lvgl\src\draw\../misc/lv_color.h **** typedef union {
 209:..\..\..\arduinoLCD\test\Pain Drain\libraries\lvgl\src\draw\../misc/lv_color.h ****     struct {
 210:..\..\..\arduinoLCD\test\Pain Drain\libraries\lvgl\src\draw\../misc/lv_color.h **** #if LV_COLOR_16_SWAP == 0
 211:..\..\..\arduinoLCD\test\Pain Drain\libraries\lvgl\src\draw\../misc/lv_color.h ****         uint16_t blue : 5;
 212:..\..\..\arduinoLCD\test\Pain Drain\libraries\lvgl\src\draw\../misc/lv_color.h ****         uint16_t green : 6;
 213:..\..\..\arduinoLCD\test\Pain Drain\libraries\lvgl\src\draw\../misc/lv_color.h ****         uint16_t red : 5;
 214:..\..\..\arduinoLCD\test\Pain Drain\libraries\lvgl\src\draw\../misc/lv_color.h **** #else
 215:..\..\..\arduinoLCD\test\Pain Drain\libraries\lvgl\src\draw\../misc/lv_color.h ****         uint16_t green_h : 3;
 216:..\..\..\arduinoLCD\test\Pain Drain\libraries\lvgl\src\draw\../misc/lv_color.h ****         uint16_t red : 5;
 217:..\..\..\arduinoLCD\test\Pain Drain\libraries\lvgl\src\draw\../misc/lv_color.h ****         uint16_t blue : 5;
 218:..\..\..\arduinoLCD\test\Pain Drain\libraries\lvgl\src\draw\../misc/lv_color.h ****         uint16_t green_l : 3;
 219:..\..\..\arduinoLCD\test\Pain Drain\libraries\lvgl\src\draw\../misc/lv_color.h **** #endif
 220:..\..\..\arduinoLCD\test\Pain Drain\libraries\lvgl\src\draw\../misc/lv_color.h ****     } ch;
 221:..\..\..\arduinoLCD\test\Pain Drain\libraries\lvgl\src\draw\../misc/lv_color.h ****     uint16_t full;
 222:..\..\..\arduinoLCD\test\Pain Drain\libraries\lvgl\src\draw\../misc/lv_color.h **** } lv_color16_t;
 223:..\..\..\arduinoLCD\test\Pain Drain\libraries\lvgl\src\draw\../misc/lv_color.h **** 
 224:..\..\..\arduinoLCD\test\Pain Drain\libraries\lvgl\src\draw\../misc/lv_color.h **** typedef union {
 225:..\..\..\arduinoLCD\test\Pain Drain\libraries\lvgl\src\draw\../misc/lv_color.h ****     struct {
 226:..\..\..\arduinoLCD\test\Pain Drain\libraries\lvgl\src\draw\../misc/lv_color.h ****         uint8_t blue;
 227:..\..\..\arduinoLCD\test\Pain Drain\libraries\lvgl\src\draw\../misc/lv_color.h ****         uint8_t green;
 228:..\..\..\arduinoLCD\test\Pain Drain\libraries\lvgl\src\draw\../misc/lv_color.h ****         uint8_t red;
 229:..\..\..\arduinoLCD\test\Pain Drain\libraries\lvgl\src\draw\../misc/lv_color.h ****         uint8_t alpha;
 230:..\..\..\arduinoLCD\test\Pain Drain\libraries\lvgl\src\draw\../misc/lv_color.h ****     } ch;
 231:..\..\..\arduinoLCD\test\Pain Drain\libraries\lvgl\src\draw\../misc/lv_color.h ****     uint32_t full;
 232:..\..\..\arduinoLCD\test\Pain Drain\libraries\lvgl\src\draw\../misc/lv_color.h **** } lv_color32_t;
 233:..\..\..\arduinoLCD\test\Pain Drain\libraries\lvgl\src\draw\../misc/lv_color.h **** 
 234:..\..\..\arduinoLCD\test\Pain Drain\libraries\lvgl\src\draw\../misc/lv_color.h **** typedef LV_CONCAT3(uint, LV_COLOR_SIZE, _t) lv_color_int_t;
 235:..\..\..\arduinoLCD\test\Pain Drain\libraries\lvgl\src\draw\../misc/lv_color.h **** typedef LV_CONCAT3(lv_color, LV_COLOR_DEPTH, _t) lv_color_t;
 236:..\..\..\arduinoLCD\test\Pain Drain\libraries\lvgl\src\draw\../misc/lv_color.h **** 
 237:..\..\..\arduinoLCD\test\Pain Drain\libraries\lvgl\src\draw\../misc/lv_color.h **** typedef struct {
 238:..\..\..\arduinoLCD\test\Pain Drain\libraries\lvgl\src\draw\../misc/lv_color.h ****     uint16_t h;
 239:..\..\..\arduinoLCD\test\Pain Drain\libraries\lvgl\src\draw\../misc/lv_color.h ****     uint8_t s;
 240:..\..\..\arduinoLCD\test\Pain Drain\libraries\lvgl\src\draw\../misc/lv_color.h ****     uint8_t v;
 241:..\..\..\arduinoLCD\test\Pain Drain\libraries\lvgl\src\draw\../misc/lv_color.h **** } lv_color_hsv_t;
 242:..\..\..\arduinoLCD\test\Pain Drain\libraries\lvgl\src\draw\../misc/lv_color.h **** 
 243:..\..\..\arduinoLCD\test\Pain Drain\libraries\lvgl\src\draw\../misc/lv_color.h **** //! @cond Doxygen_Suppress
 244:..\..\..\arduinoLCD\test\Pain Drain\libraries\lvgl\src\draw\../misc/lv_color.h **** /*No idea where the guard is required but else throws warnings in the docs*/
 245:..\..\..\arduinoLCD\test\Pain Drain\libraries\lvgl\src\draw\../misc/lv_color.h **** typedef uint8_t lv_opa_t;
 246:..\..\..\arduinoLCD\test\Pain Drain\libraries\lvgl\src\draw\../misc/lv_color.h **** //! @endcond
 247:..\..\..\arduinoLCD\test\Pain Drain\libraries\lvgl\src\draw\../misc/lv_color.h **** 
 248:..\..\..\arduinoLCD\test\Pain Drain\libraries\lvgl\src\draw\../misc/lv_color.h **** struct _lv_color_filter_dsc_t;
 249:..\..\..\arduinoLCD\test\Pain Drain\libraries\lvgl\src\draw\../misc/lv_color.h **** 
 250:..\..\..\arduinoLCD\test\Pain Drain\libraries\lvgl\src\draw\../misc/lv_color.h **** typedef lv_color_t (*lv_color_filter_cb_t)(const struct _lv_color_filter_dsc_t *, lv_color_t, lv_op
 251:..\..\..\arduinoLCD\test\Pain Drain\libraries\lvgl\src\draw\../misc/lv_color.h **** 
ARM GAS  C:\Users\haske\AppData\Local\Temp\ccHSLozV.s 			page 28


 252:..\..\..\arduinoLCD\test\Pain Drain\libraries\lvgl\src\draw\../misc/lv_color.h **** typedef struct _lv_color_filter_dsc_t {
 253:..\..\..\arduinoLCD\test\Pain Drain\libraries\lvgl\src\draw\../misc/lv_color.h ****     lv_color_filter_cb_t filter_cb;
 254:..\..\..\arduinoLCD\test\Pain Drain\libraries\lvgl\src\draw\../misc/lv_color.h ****     void * user_data;
 255:..\..\..\arduinoLCD\test\Pain Drain\libraries\lvgl\src\draw\../misc/lv_color.h **** } lv_color_filter_dsc_t;
 256:..\..\..\arduinoLCD\test\Pain Drain\libraries\lvgl\src\draw\../misc/lv_color.h **** 
 257:..\..\..\arduinoLCD\test\Pain Drain\libraries\lvgl\src\draw\../misc/lv_color.h **** 
 258:..\..\..\arduinoLCD\test\Pain Drain\libraries\lvgl\src\draw\../misc/lv_color.h **** typedef enum {
 259:..\..\..\arduinoLCD\test\Pain Drain\libraries\lvgl\src\draw\../misc/lv_color.h ****     LV_PALETTE_RED,
 260:..\..\..\arduinoLCD\test\Pain Drain\libraries\lvgl\src\draw\../misc/lv_color.h ****     LV_PALETTE_PINK,
 261:..\..\..\arduinoLCD\test\Pain Drain\libraries\lvgl\src\draw\../misc/lv_color.h ****     LV_PALETTE_PURPLE,
 262:..\..\..\arduinoLCD\test\Pain Drain\libraries\lvgl\src\draw\../misc/lv_color.h ****     LV_PALETTE_DEEP_PURPLE,
 263:..\..\..\arduinoLCD\test\Pain Drain\libraries\lvgl\src\draw\../misc/lv_color.h ****     LV_PALETTE_INDIGO,
 264:..\..\..\arduinoLCD\test\Pain Drain\libraries\lvgl\src\draw\../misc/lv_color.h ****     LV_PALETTE_BLUE,
 265:..\..\..\arduinoLCD\test\Pain Drain\libraries\lvgl\src\draw\../misc/lv_color.h ****     LV_PALETTE_LIGHT_BLUE,
 266:..\..\..\arduinoLCD\test\Pain Drain\libraries\lvgl\src\draw\../misc/lv_color.h ****     LV_PALETTE_CYAN,
 267:..\..\..\arduinoLCD\test\Pain Drain\libraries\lvgl\src\draw\../misc/lv_color.h ****     LV_PALETTE_TEAL,
 268:..\..\..\arduinoLCD\test\Pain Drain\libraries\lvgl\src\draw\../misc/lv_color.h ****     LV_PALETTE_GREEN,
 269:..\..\..\arduinoLCD\test\Pain Drain\libraries\lvgl\src\draw\../misc/lv_color.h ****     LV_PALETTE_LIGHT_GREEN,
 270:..\..\..\arduinoLCD\test\Pain Drain\libraries\lvgl\src\draw\../misc/lv_color.h ****     LV_PALETTE_LIME,
 271:..\..\..\arduinoLCD\test\Pain Drain\libraries\lvgl\src\draw\../misc/lv_color.h ****     LV_PALETTE_YELLOW,
 272:..\..\..\arduinoLCD\test\Pain Drain\libraries\lvgl\src\draw\../misc/lv_color.h ****     LV_PALETTE_AMBER,
 273:..\..\..\arduinoLCD\test\Pain Drain\libraries\lvgl\src\draw\../misc/lv_color.h ****     LV_PALETTE_ORANGE,
 274:..\..\..\arduinoLCD\test\Pain Drain\libraries\lvgl\src\draw\../misc/lv_color.h ****     LV_PALETTE_DEEP_ORANGE,
 275:..\..\..\arduinoLCD\test\Pain Drain\libraries\lvgl\src\draw\../misc/lv_color.h ****     LV_PALETTE_BROWN,
 276:..\..\..\arduinoLCD\test\Pain Drain\libraries\lvgl\src\draw\../misc/lv_color.h ****     LV_PALETTE_BLUE_GREY,
 277:..\..\..\arduinoLCD\test\Pain Drain\libraries\lvgl\src\draw\../misc/lv_color.h ****     LV_PALETTE_GREY,
 278:..\..\..\arduinoLCD\test\Pain Drain\libraries\lvgl\src\draw\../misc/lv_color.h ****     _LV_PALETTE_LAST,
 279:..\..\..\arduinoLCD\test\Pain Drain\libraries\lvgl\src\draw\../misc/lv_color.h ****     LV_PALETTE_NONE = 0xff,
 280:..\..\..\arduinoLCD\test\Pain Drain\libraries\lvgl\src\draw\../misc/lv_color.h **** } lv_palette_t;
 281:..\..\..\arduinoLCD\test\Pain Drain\libraries\lvgl\src\draw\../misc/lv_color.h **** 
 282:..\..\..\arduinoLCD\test\Pain Drain\libraries\lvgl\src\draw\../misc/lv_color.h **** /**********************
 283:..\..\..\arduinoLCD\test\Pain Drain\libraries\lvgl\src\draw\../misc/lv_color.h ****  * GLOBAL PROTOTYPES
 284:..\..\..\arduinoLCD\test\Pain Drain\libraries\lvgl\src\draw\../misc/lv_color.h ****  **********************/
 285:..\..\..\arduinoLCD\test\Pain Drain\libraries\lvgl\src\draw\../misc/lv_color.h **** 
 286:..\..\..\arduinoLCD\test\Pain Drain\libraries\lvgl\src\draw\../misc/lv_color.h **** /*In color conversations:
 287:..\..\..\arduinoLCD\test\Pain Drain\libraries\lvgl\src\draw\../misc/lv_color.h ****  * - When converting to bigger color type the LSB weight of 1 LSB is calculated
 288:..\..\..\arduinoLCD\test\Pain Drain\libraries\lvgl\src\draw\../misc/lv_color.h ****  *   E.g. 16 bit Red has 5 bits
 289:..\..\..\arduinoLCD\test\Pain Drain\libraries\lvgl\src\draw\../misc/lv_color.h ****  *         8 bit Red has 3 bits
 290:..\..\..\arduinoLCD\test\Pain Drain\libraries\lvgl\src\draw\../misc/lv_color.h ****  *        ----------------------
 291:..\..\..\arduinoLCD\test\Pain Drain\libraries\lvgl\src\draw\../misc/lv_color.h ****  *        8 bit red LSB = (2^5 - 1) / (2^3 - 1) = 31 / 7 = 4
 292:..\..\..\arduinoLCD\test\Pain Drain\libraries\lvgl\src\draw\../misc/lv_color.h ****  *
 293:..\..\..\arduinoLCD\test\Pain Drain\libraries\lvgl\src\draw\../misc/lv_color.h ****  * - When calculating to smaller color type simply shift out the LSBs
 294:..\..\..\arduinoLCD\test\Pain Drain\libraries\lvgl\src\draw\../misc/lv_color.h ****  *   E.g.  8 bit Red has 3 bits
 295:..\..\..\arduinoLCD\test\Pain Drain\libraries\lvgl\src\draw\../misc/lv_color.h ****  *        16 bit Red has 5 bits
 296:..\..\..\arduinoLCD\test\Pain Drain\libraries\lvgl\src\draw\../misc/lv_color.h ****  *        ----------------------
 297:..\..\..\arduinoLCD\test\Pain Drain\libraries\lvgl\src\draw\../misc/lv_color.h ****  *         Shift right with 5 - 3 = 2
 298:..\..\..\arduinoLCD\test\Pain Drain\libraries\lvgl\src\draw\../misc/lv_color.h ****  */
 299:..\..\..\arduinoLCD\test\Pain Drain\libraries\lvgl\src\draw\../misc/lv_color.h **** static inline uint8_t lv_color_to1(lv_color_t color)
 300:..\..\..\arduinoLCD\test\Pain Drain\libraries\lvgl\src\draw\../misc/lv_color.h **** {
 301:..\..\..\arduinoLCD\test\Pain Drain\libraries\lvgl\src\draw\../misc/lv_color.h **** #if LV_COLOR_DEPTH == 1
 302:..\..\..\arduinoLCD\test\Pain Drain\libraries\lvgl\src\draw\../misc/lv_color.h ****     return color.full;
 303:..\..\..\arduinoLCD\test\Pain Drain\libraries\lvgl\src\draw\../misc/lv_color.h **** #elif LV_COLOR_DEPTH == 8
 304:..\..\..\arduinoLCD\test\Pain Drain\libraries\lvgl\src\draw\../misc/lv_color.h ****     if((LV_COLOR_GET_R(color) & 0x4) || (LV_COLOR_GET_G(color) & 0x4) || (LV_COLOR_GET_B(color) & 0
 305:..\..\..\arduinoLCD\test\Pain Drain\libraries\lvgl\src\draw\../misc/lv_color.h ****         return 1;
 306:..\..\..\arduinoLCD\test\Pain Drain\libraries\lvgl\src\draw\../misc/lv_color.h ****     }
 307:..\..\..\arduinoLCD\test\Pain Drain\libraries\lvgl\src\draw\../misc/lv_color.h ****     else {
 308:..\..\..\arduinoLCD\test\Pain Drain\libraries\lvgl\src\draw\../misc/lv_color.h ****         return 0;
ARM GAS  C:\Users\haske\AppData\Local\Temp\ccHSLozV.s 			page 29


 309:..\..\..\arduinoLCD\test\Pain Drain\libraries\lvgl\src\draw\../misc/lv_color.h ****     }
 310:..\..\..\arduinoLCD\test\Pain Drain\libraries\lvgl\src\draw\../misc/lv_color.h **** #elif LV_COLOR_DEPTH == 16
 311:..\..\..\arduinoLCD\test\Pain Drain\libraries\lvgl\src\draw\../misc/lv_color.h ****     if((LV_COLOR_GET_R(color) & 0x10) || (LV_COLOR_GET_G(color) & 0x20) || (LV_COLOR_GET_B(color) &
 312:..\..\..\arduinoLCD\test\Pain Drain\libraries\lvgl\src\draw\../misc/lv_color.h ****         return 1;
 313:..\..\..\arduinoLCD\test\Pain Drain\libraries\lvgl\src\draw\../misc/lv_color.h ****     }
 314:..\..\..\arduinoLCD\test\Pain Drain\libraries\lvgl\src\draw\../misc/lv_color.h ****     else {
 315:..\..\..\arduinoLCD\test\Pain Drain\libraries\lvgl\src\draw\../misc/lv_color.h ****         return 0;
 316:..\..\..\arduinoLCD\test\Pain Drain\libraries\lvgl\src\draw\../misc/lv_color.h ****     }
 317:..\..\..\arduinoLCD\test\Pain Drain\libraries\lvgl\src\draw\../misc/lv_color.h **** #elif LV_COLOR_DEPTH == 32
 318:..\..\..\arduinoLCD\test\Pain Drain\libraries\lvgl\src\draw\../misc/lv_color.h ****     if((LV_COLOR_GET_R(color) & 0x80) || (LV_COLOR_GET_G(color) & 0x80) || (LV_COLOR_GET_B(color) &
 319:..\..\..\arduinoLCD\test\Pain Drain\libraries\lvgl\src\draw\../misc/lv_color.h ****         return 1;
 320:..\..\..\arduinoLCD\test\Pain Drain\libraries\lvgl\src\draw\../misc/lv_color.h ****     }
 321:..\..\..\arduinoLCD\test\Pain Drain\libraries\lvgl\src\draw\../misc/lv_color.h ****     else {
 322:..\..\..\arduinoLCD\test\Pain Drain\libraries\lvgl\src\draw\../misc/lv_color.h ****         return 0;
 323:..\..\..\arduinoLCD\test\Pain Drain\libraries\lvgl\src\draw\../misc/lv_color.h ****     }
 324:..\..\..\arduinoLCD\test\Pain Drain\libraries\lvgl\src\draw\../misc/lv_color.h **** #endif
 325:..\..\..\arduinoLCD\test\Pain Drain\libraries\lvgl\src\draw\../misc/lv_color.h **** }
 326:..\..\..\arduinoLCD\test\Pain Drain\libraries\lvgl\src\draw\../misc/lv_color.h **** 
 327:..\..\..\arduinoLCD\test\Pain Drain\libraries\lvgl\src\draw\../misc/lv_color.h **** static inline uint8_t lv_color_to8(lv_color_t color)
 328:..\..\..\arduinoLCD\test\Pain Drain\libraries\lvgl\src\draw\../misc/lv_color.h **** {
 329:..\..\..\arduinoLCD\test\Pain Drain\libraries\lvgl\src\draw\../misc/lv_color.h **** #if LV_COLOR_DEPTH == 1
 330:..\..\..\arduinoLCD\test\Pain Drain\libraries\lvgl\src\draw\../misc/lv_color.h ****     if(color.full == 0)
 331:..\..\..\arduinoLCD\test\Pain Drain\libraries\lvgl\src\draw\../misc/lv_color.h ****         return 0;
 332:..\..\..\arduinoLCD\test\Pain Drain\libraries\lvgl\src\draw\../misc/lv_color.h ****     else
 333:..\..\..\arduinoLCD\test\Pain Drain\libraries\lvgl\src\draw\../misc/lv_color.h ****         return 0xFF;
 334:..\..\..\arduinoLCD\test\Pain Drain\libraries\lvgl\src\draw\../misc/lv_color.h **** #elif LV_COLOR_DEPTH == 8
 335:..\..\..\arduinoLCD\test\Pain Drain\libraries\lvgl\src\draw\../misc/lv_color.h ****     return color.full;
 336:..\..\..\arduinoLCD\test\Pain Drain\libraries\lvgl\src\draw\../misc/lv_color.h **** #elif LV_COLOR_DEPTH == 16
 337:..\..\..\arduinoLCD\test\Pain Drain\libraries\lvgl\src\draw\../misc/lv_color.h ****     lv_color8_t ret;
 338:..\..\..\arduinoLCD\test\Pain Drain\libraries\lvgl\src\draw\../misc/lv_color.h ****     LV_COLOR_SET_R8(ret, LV_COLOR_GET_R(color) >> 2); /*5 - 3  = 2*/
 339:..\..\..\arduinoLCD\test\Pain Drain\libraries\lvgl\src\draw\../misc/lv_color.h ****     LV_COLOR_SET_G8(ret, LV_COLOR_GET_G(color) >> 3); /*6 - 3  = 3*/
 340:..\..\..\arduinoLCD\test\Pain Drain\libraries\lvgl\src\draw\../misc/lv_color.h ****     LV_COLOR_SET_B8(ret, LV_COLOR_GET_B(color) >> 3); /*5 - 2  = 3*/
 341:..\..\..\arduinoLCD\test\Pain Drain\libraries\lvgl\src\draw\../misc/lv_color.h ****     return ret.full;
 342:..\..\..\arduinoLCD\test\Pain Drain\libraries\lvgl\src\draw\../misc/lv_color.h **** #elif LV_COLOR_DEPTH == 32
 343:..\..\..\arduinoLCD\test\Pain Drain\libraries\lvgl\src\draw\../misc/lv_color.h ****     lv_color8_t ret;
 344:..\..\..\arduinoLCD\test\Pain Drain\libraries\lvgl\src\draw\../misc/lv_color.h ****     LV_COLOR_SET_R8(ret, LV_COLOR_GET_R(color) >> 5); /*8 - 3  = 5*/
 345:..\..\..\arduinoLCD\test\Pain Drain\libraries\lvgl\src\draw\../misc/lv_color.h ****     LV_COLOR_SET_G8(ret, LV_COLOR_GET_G(color) >> 5); /*8 - 3  = 5*/
 346:..\..\..\arduinoLCD\test\Pain Drain\libraries\lvgl\src\draw\../misc/lv_color.h ****     LV_COLOR_SET_B8(ret, LV_COLOR_GET_B(color) >> 6); /*8 - 2  = 6*/
 347:..\..\..\arduinoLCD\test\Pain Drain\libraries\lvgl\src\draw\../misc/lv_color.h ****     return ret.full;
 348:..\..\..\arduinoLCD\test\Pain Drain\libraries\lvgl\src\draw\../misc/lv_color.h **** #endif
 349:..\..\..\arduinoLCD\test\Pain Drain\libraries\lvgl\src\draw\../misc/lv_color.h **** }
 350:..\..\..\arduinoLCD\test\Pain Drain\libraries\lvgl\src\draw\../misc/lv_color.h **** 
 351:..\..\..\arduinoLCD\test\Pain Drain\libraries\lvgl\src\draw\../misc/lv_color.h **** static inline uint16_t lv_color_to16(lv_color_t color)
 352:..\..\..\arduinoLCD\test\Pain Drain\libraries\lvgl\src\draw\../misc/lv_color.h **** {
 353:..\..\..\arduinoLCD\test\Pain Drain\libraries\lvgl\src\draw\../misc/lv_color.h **** #if LV_COLOR_DEPTH == 1
 354:..\..\..\arduinoLCD\test\Pain Drain\libraries\lvgl\src\draw\../misc/lv_color.h ****     if(color.full == 0)
 355:..\..\..\arduinoLCD\test\Pain Drain\libraries\lvgl\src\draw\../misc/lv_color.h ****         return 0;
 356:..\..\..\arduinoLCD\test\Pain Drain\libraries\lvgl\src\draw\../misc/lv_color.h ****     else
 357:..\..\..\arduinoLCD\test\Pain Drain\libraries\lvgl\src\draw\../misc/lv_color.h ****         return 0xFFFF;
 358:..\..\..\arduinoLCD\test\Pain Drain\libraries\lvgl\src\draw\../misc/lv_color.h **** #elif LV_COLOR_DEPTH == 8
 359:..\..\..\arduinoLCD\test\Pain Drain\libraries\lvgl\src\draw\../misc/lv_color.h ****     lv_color16_t ret;
 360:..\..\..\arduinoLCD\test\Pain Drain\libraries\lvgl\src\draw\../misc/lv_color.h ****     LV_COLOR_SET_R16(ret, LV_COLOR_GET_R(color) * 4);  /*(2^5 - 1)/(2^3 - 1) = 31/7 = 4*/
 361:..\..\..\arduinoLCD\test\Pain Drain\libraries\lvgl\src\draw\../misc/lv_color.h ****     LV_COLOR_SET_G16(ret, LV_COLOR_GET_G(color) * 9);  /*(2^6 - 1)/(2^3 - 1) = 63/7 = 9*/
 362:..\..\..\arduinoLCD\test\Pain Drain\libraries\lvgl\src\draw\../misc/lv_color.h ****     LV_COLOR_SET_B16(ret, LV_COLOR_GET_B(color) * 10); /*(2^5 - 1)/(2^2 - 1) = 31/3 = 10*/
 363:..\..\..\arduinoLCD\test\Pain Drain\libraries\lvgl\src\draw\../misc/lv_color.h ****     return ret.full;
 364:..\..\..\arduinoLCD\test\Pain Drain\libraries\lvgl\src\draw\../misc/lv_color.h **** #elif LV_COLOR_DEPTH == 16
 365:..\..\..\arduinoLCD\test\Pain Drain\libraries\lvgl\src\draw\../misc/lv_color.h ****     return color.full;
ARM GAS  C:\Users\haske\AppData\Local\Temp\ccHSLozV.s 			page 30


 366:..\..\..\arduinoLCD\test\Pain Drain\libraries\lvgl\src\draw\../misc/lv_color.h **** #elif LV_COLOR_DEPTH == 32
 367:..\..\..\arduinoLCD\test\Pain Drain\libraries\lvgl\src\draw\../misc/lv_color.h ****     lv_color16_t ret;
 368:..\..\..\arduinoLCD\test\Pain Drain\libraries\lvgl\src\draw\../misc/lv_color.h ****     LV_COLOR_SET_R16(ret, LV_COLOR_GET_R(color) >> 3); /*8 - 5  = 3*/
 369:..\..\..\arduinoLCD\test\Pain Drain\libraries\lvgl\src\draw\../misc/lv_color.h ****     LV_COLOR_SET_G16(ret, LV_COLOR_GET_G(color) >> 2); /*8 - 6  = 2*/
 370:..\..\..\arduinoLCD\test\Pain Drain\libraries\lvgl\src\draw\../misc/lv_color.h ****     LV_COLOR_SET_B16(ret, LV_COLOR_GET_B(color) >> 3); /*8 - 5  = 3*/
 371:..\..\..\arduinoLCD\test\Pain Drain\libraries\lvgl\src\draw\../misc/lv_color.h ****     return ret.full;
 372:..\..\..\arduinoLCD\test\Pain Drain\libraries\lvgl\src\draw\../misc/lv_color.h **** #endif
 373:..\..\..\arduinoLCD\test\Pain Drain\libraries\lvgl\src\draw\../misc/lv_color.h **** }
 374:..\..\..\arduinoLCD\test\Pain Drain\libraries\lvgl\src\draw\../misc/lv_color.h **** 
 375:..\..\..\arduinoLCD\test\Pain Drain\libraries\lvgl\src\draw\../misc/lv_color.h **** static inline uint32_t lv_color_to32(lv_color_t color)
 376:..\..\..\arduinoLCD\test\Pain Drain\libraries\lvgl\src\draw\../misc/lv_color.h **** {
 377:..\..\..\arduinoLCD\test\Pain Drain\libraries\lvgl\src\draw\../misc/lv_color.h **** #if LV_COLOR_DEPTH == 1
 378:..\..\..\arduinoLCD\test\Pain Drain\libraries\lvgl\src\draw\../misc/lv_color.h ****     if(color.full == 0)
 379:..\..\..\arduinoLCD\test\Pain Drain\libraries\lvgl\src\draw\../misc/lv_color.h ****         return 0xFF000000;
 380:..\..\..\arduinoLCD\test\Pain Drain\libraries\lvgl\src\draw\../misc/lv_color.h ****     else
 381:..\..\..\arduinoLCD\test\Pain Drain\libraries\lvgl\src\draw\../misc/lv_color.h ****         return 0xFFFFFFFF;
 382:..\..\..\arduinoLCD\test\Pain Drain\libraries\lvgl\src\draw\../misc/lv_color.h **** #elif LV_COLOR_DEPTH == 8
 383:..\..\..\arduinoLCD\test\Pain Drain\libraries\lvgl\src\draw\../misc/lv_color.h ****     lv_color32_t ret;
 384:..\..\..\arduinoLCD\test\Pain Drain\libraries\lvgl\src\draw\../misc/lv_color.h ****     LV_COLOR_SET_R32(ret, LV_COLOR_GET_R(color) * 36); /*(2^8 - 1)/(2^3 - 1) = 255/7 = 36*/
 385:..\..\..\arduinoLCD\test\Pain Drain\libraries\lvgl\src\draw\../misc/lv_color.h ****     LV_COLOR_SET_G32(ret, LV_COLOR_GET_G(color) * 36); /*(2^8 - 1)/(2^3 - 1) = 255/7 = 36*/
 386:..\..\..\arduinoLCD\test\Pain Drain\libraries\lvgl\src\draw\../misc/lv_color.h ****     LV_COLOR_SET_B32(ret, LV_COLOR_GET_B(color) * 85); /*(2^8 - 1)/(2^2 - 1) = 255/3 = 85*/
 387:..\..\..\arduinoLCD\test\Pain Drain\libraries\lvgl\src\draw\../misc/lv_color.h ****     LV_COLOR_SET_A32(ret, 0xFF);
 388:..\..\..\arduinoLCD\test\Pain Drain\libraries\lvgl\src\draw\../misc/lv_color.h ****     return ret.full;
 389:..\..\..\arduinoLCD\test\Pain Drain\libraries\lvgl\src\draw\../misc/lv_color.h **** #elif LV_COLOR_DEPTH == 16
 390:..\..\..\arduinoLCD\test\Pain Drain\libraries\lvgl\src\draw\../misc/lv_color.h ****     /**
 391:..\..\..\arduinoLCD\test\Pain Drain\libraries\lvgl\src\draw\../misc/lv_color.h ****      * The floating point math for conversion is:
 392:..\..\..\arduinoLCD\test\Pain Drain\libraries\lvgl\src\draw\../misc/lv_color.h ****      *  valueto = valuefrom * ( (2^bitsto - 1) / (float)(2^bitsfrom - 1) )
 393:..\..\..\arduinoLCD\test\Pain Drain\libraries\lvgl\src\draw\../misc/lv_color.h ****      * The faster integer math for conversion is:
 394:..\..\..\arduinoLCD\test\Pain Drain\libraries\lvgl\src\draw\../misc/lv_color.h ****      *  valueto = ( valuefrom * multiplier + adder ) >> divisor
 395:..\..\..\arduinoLCD\test\Pain Drain\libraries\lvgl\src\draw\../misc/lv_color.h ****      *   multiplier = FLOOR( ( (2^bitsto - 1) << divisor ) / (float)(2^bitsfrom - 1) )
 396:..\..\..\arduinoLCD\test\Pain Drain\libraries\lvgl\src\draw\../misc/lv_color.h ****      *
 397:..\..\..\arduinoLCD\test\Pain Drain\libraries\lvgl\src\draw\../misc/lv_color.h ****      * Find the first divisor where ( adder >> divisor ) <= 0
 398:..\..\..\arduinoLCD\test\Pain Drain\libraries\lvgl\src\draw\../misc/lv_color.h ****      *
 399:..\..\..\arduinoLCD\test\Pain Drain\libraries\lvgl\src\draw\../misc/lv_color.h ****      * 5-bit to 8-bit: ( 31 * multiplier + adder ) >> divisor = 255
 400:..\..\..\arduinoLCD\test\Pain Drain\libraries\lvgl\src\draw\../misc/lv_color.h ****      * divisor  multiplier  adder  min (0)  max (31)
 401:..\..\..\arduinoLCD\test\Pain Drain\libraries\lvgl\src\draw\../misc/lv_color.h ****      *       0           8      7        7       255
 402:..\..\..\arduinoLCD\test\Pain Drain\libraries\lvgl\src\draw\../misc/lv_color.h ****      *       1          16     14        7       255
 403:..\..\..\arduinoLCD\test\Pain Drain\libraries\lvgl\src\draw\../misc/lv_color.h ****      *       2          32     28        7       255
 404:..\..\..\arduinoLCD\test\Pain Drain\libraries\lvgl\src\draw\../misc/lv_color.h ****      *       3          65     25        3       255
 405:..\..\..\arduinoLCD\test\Pain Drain\libraries\lvgl\src\draw\../misc/lv_color.h ****      *       4         131     19        1       255
 406:..\..\..\arduinoLCD\test\Pain Drain\libraries\lvgl\src\draw\../misc/lv_color.h ****      *       5         263      7        0       255
 407:..\..\..\arduinoLCD\test\Pain Drain\libraries\lvgl\src\draw\../misc/lv_color.h ****      *
 408:..\..\..\arduinoLCD\test\Pain Drain\libraries\lvgl\src\draw\../misc/lv_color.h ****      * 6-bit to 8-bit: 255 = ( 63 * multiplier + adder ) >> divisor
 409:..\..\..\arduinoLCD\test\Pain Drain\libraries\lvgl\src\draw\../misc/lv_color.h ****      * divisor  multiplier  adder  min (0)  max (63)
 410:..\..\..\arduinoLCD\test\Pain Drain\libraries\lvgl\src\draw\../misc/lv_color.h ****      *       0           4      3        3       255
 411:..\..\..\arduinoLCD\test\Pain Drain\libraries\lvgl\src\draw\../misc/lv_color.h ****      *       1           8      6        3       255
 412:..\..\..\arduinoLCD\test\Pain Drain\libraries\lvgl\src\draw\../misc/lv_color.h ****      *       2          16     12        3       255
 413:..\..\..\arduinoLCD\test\Pain Drain\libraries\lvgl\src\draw\../misc/lv_color.h ****      *       3          32     24        3       255
 414:..\..\..\arduinoLCD\test\Pain Drain\libraries\lvgl\src\draw\../misc/lv_color.h ****      *       4          64     48        3       255
 415:..\..\..\arduinoLCD\test\Pain Drain\libraries\lvgl\src\draw\../misc/lv_color.h ****      *       5         129     33        1       255
 416:..\..\..\arduinoLCD\test\Pain Drain\libraries\lvgl\src\draw\../misc/lv_color.h ****      *       6         259      3        0       255
 417:..\..\..\arduinoLCD\test\Pain Drain\libraries\lvgl\src\draw\../misc/lv_color.h ****      */
 418:..\..\..\arduinoLCD\test\Pain Drain\libraries\lvgl\src\draw\../misc/lv_color.h **** 
 419:..\..\..\arduinoLCD\test\Pain Drain\libraries\lvgl\src\draw\../misc/lv_color.h ****     lv_color32_t ret;
 420:..\..\..\arduinoLCD\test\Pain Drain\libraries\lvgl\src\draw\../misc/lv_color.h ****     LV_COLOR_SET_R32(ret, (LV_COLOR_GET_R(color) * 263 + 7) >> 5);
 421:..\..\..\arduinoLCD\test\Pain Drain\libraries\lvgl\src\draw\../misc/lv_color.h ****     LV_COLOR_SET_G32(ret, (LV_COLOR_GET_G(color) * 259 + 3) >> 6);
 422:..\..\..\arduinoLCD\test\Pain Drain\libraries\lvgl\src\draw\../misc/lv_color.h ****     LV_COLOR_SET_B32(ret, (LV_COLOR_GET_B(color) * 263 + 7) >> 5);
ARM GAS  C:\Users\haske\AppData\Local\Temp\ccHSLozV.s 			page 31


 423:..\..\..\arduinoLCD\test\Pain Drain\libraries\lvgl\src\draw\../misc/lv_color.h ****     LV_COLOR_SET_A32(ret, 0xFF);
 424:..\..\..\arduinoLCD\test\Pain Drain\libraries\lvgl\src\draw\../misc/lv_color.h ****     return ret.full;
 425:..\..\..\arduinoLCD\test\Pain Drain\libraries\lvgl\src\draw\../misc/lv_color.h **** #elif LV_COLOR_DEPTH == 32
 426:..\..\..\arduinoLCD\test\Pain Drain\libraries\lvgl\src\draw\../misc/lv_color.h ****     return color.full;
 427:..\..\..\arduinoLCD\test\Pain Drain\libraries\lvgl\src\draw\../misc/lv_color.h **** #endif
 428:..\..\..\arduinoLCD\test\Pain Drain\libraries\lvgl\src\draw\../misc/lv_color.h **** }
 429:..\..\..\arduinoLCD\test\Pain Drain\libraries\lvgl\src\draw\../misc/lv_color.h **** 
 430:..\..\..\arduinoLCD\test\Pain Drain\libraries\lvgl\src\draw\../misc/lv_color.h **** //! @cond Doxygen_Suppress
 431:..\..\..\arduinoLCD\test\Pain Drain\libraries\lvgl\src\draw\../misc/lv_color.h **** 
 432:..\..\..\arduinoLCD\test\Pain Drain\libraries\lvgl\src\draw\../misc/lv_color.h **** /**
 433:..\..\..\arduinoLCD\test\Pain Drain\libraries\lvgl\src\draw\../misc/lv_color.h ****  * Mix two colors with a given ratio.
 434:..\..\..\arduinoLCD\test\Pain Drain\libraries\lvgl\src\draw\../misc/lv_color.h ****  * @param c1 the first color to mix (usually the foreground)
 435:..\..\..\arduinoLCD\test\Pain Drain\libraries\lvgl\src\draw\../misc/lv_color.h ****  * @param c2 the second color to mix (usually the background)
 436:..\..\..\arduinoLCD\test\Pain Drain\libraries\lvgl\src\draw\../misc/lv_color.h ****  * @param mix The ratio of the colors. 0: full `c2`, 255: full `c1`, 127: half `c1` and half`c2`
 437:..\..\..\arduinoLCD\test\Pain Drain\libraries\lvgl\src\draw\../misc/lv_color.h ****  * @return the mixed color
 438:..\..\..\arduinoLCD\test\Pain Drain\libraries\lvgl\src\draw\../misc/lv_color.h ****  */
 439:..\..\..\arduinoLCD\test\Pain Drain\libraries\lvgl\src\draw\../misc/lv_color.h **** LV_ATTRIBUTE_FAST_MEM static inline lv_color_t lv_color_mix(lv_color_t c1, lv_color_t c2, uint8_t m
 440:..\..\..\arduinoLCD\test\Pain Drain\libraries\lvgl\src\draw\../misc/lv_color.h **** {
 441:..\..\..\arduinoLCD\test\Pain Drain\libraries\lvgl\src\draw\../misc/lv_color.h ****     lv_color_t ret;
 442:..\..\..\arduinoLCD\test\Pain Drain\libraries\lvgl\src\draw\../misc/lv_color.h **** 
 443:..\..\..\arduinoLCD\test\Pain Drain\libraries\lvgl\src\draw\../misc/lv_color.h **** #if LV_COLOR_DEPTH == 16 && LV_COLOR_16_SWAP == 0 && LV_COLOR_MIX_ROUND_OFS == 0
 444:..\..\..\arduinoLCD\test\Pain Drain\libraries\lvgl\src\draw\../misc/lv_color.h ****     /*Source: https://stackoverflow.com/a/50012418/1999969*/
 445:..\..\..\arduinoLCD\test\Pain Drain\libraries\lvgl\src\draw\../misc/lv_color.h ****     mix = (uint32_t)((uint32_t)mix + 4) >> 3;
 446:..\..\..\arduinoLCD\test\Pain Drain\libraries\lvgl\src\draw\../misc/lv_color.h ****     uint32_t bg = (uint32_t)((uint32_t)c2.full | ((uint32_t)c2.full << 16)) &
 447:..\..\..\arduinoLCD\test\Pain Drain\libraries\lvgl\src\draw\../misc/lv_color.h ****                   0x7E0F81F; /*0b00000111111000001111100000011111*/
 448:..\..\..\arduinoLCD\test\Pain Drain\libraries\lvgl\src\draw\../misc/lv_color.h ****     uint32_t fg = (uint32_t)((uint32_t)c1.full | ((uint32_t)c1.full << 16)) & 0x7E0F81F;
 449:..\..\..\arduinoLCD\test\Pain Drain\libraries\lvgl\src\draw\../misc/lv_color.h ****     uint32_t result = ((((fg - bg) * mix) >> 5) + bg) & 0x7E0F81F;
 450:..\..\..\arduinoLCD\test\Pain Drain\libraries\lvgl\src\draw\../misc/lv_color.h ****     ret.full = (uint16_t)((result >> 16) | result);
 451:..\..\..\arduinoLCD\test\Pain Drain\libraries\lvgl\src\draw\../misc/lv_color.h **** #elif LV_COLOR_DEPTH != 1
 452:..\..\..\arduinoLCD\test\Pain Drain\libraries\lvgl\src\draw\../misc/lv_color.h ****     /*LV_COLOR_DEPTH == 8, 16 or 32*/
 453:..\..\..\arduinoLCD\test\Pain Drain\libraries\lvgl\src\draw\../misc/lv_color.h ****     LV_COLOR_SET_R(ret, LV_UDIV255((uint16_t)LV_COLOR_GET_R(c1) * mix + LV_COLOR_GET_R(c2) *
 454:..\..\..\arduinoLCD\test\Pain Drain\libraries\lvgl\src\draw\../misc/lv_color.h ****                                    (255 - mix) + LV_COLOR_MIX_ROUND_OFS));
 455:..\..\..\arduinoLCD\test\Pain Drain\libraries\lvgl\src\draw\../misc/lv_color.h ****     LV_COLOR_SET_G(ret, LV_UDIV255((uint16_t)LV_COLOR_GET_G(c1) * mix + LV_COLOR_GET_G(c2) *
 456:..\..\..\arduinoLCD\test\Pain Drain\libraries\lvgl\src\draw\../misc/lv_color.h ****                                    (255 - mix) + LV_COLOR_MIX_ROUND_OFS));
 457:..\..\..\arduinoLCD\test\Pain Drain\libraries\lvgl\src\draw\../misc/lv_color.h ****     LV_COLOR_SET_B(ret, LV_UDIV255((uint16_t)LV_COLOR_GET_B(c1) * mix + LV_COLOR_GET_B(c2) *
 458:..\..\..\arduinoLCD\test\Pain Drain\libraries\lvgl\src\draw\../misc/lv_color.h ****                                    (255 - mix) + LV_COLOR_MIX_ROUND_OFS));
 459:..\..\..\arduinoLCD\test\Pain Drain\libraries\lvgl\src\draw\../misc/lv_color.h ****     LV_COLOR_SET_A(ret, 0xFF);
 460:..\..\..\arduinoLCD\test\Pain Drain\libraries\lvgl\src\draw\../misc/lv_color.h **** #else
 461:..\..\..\arduinoLCD\test\Pain Drain\libraries\lvgl\src\draw\../misc/lv_color.h ****     /*LV_COLOR_DEPTH == 1*/
 462:..\..\..\arduinoLCD\test\Pain Drain\libraries\lvgl\src\draw\../misc/lv_color.h ****     ret.full = mix > LV_OPA_50 ? c1.full : c2.full;
 463:..\..\..\arduinoLCD\test\Pain Drain\libraries\lvgl\src\draw\../misc/lv_color.h **** #endif
 464:..\..\..\arduinoLCD\test\Pain Drain\libraries\lvgl\src\draw\../misc/lv_color.h **** 
 465:..\..\..\arduinoLCD\test\Pain Drain\libraries\lvgl\src\draw\../misc/lv_color.h ****     return ret;
 466:..\..\..\arduinoLCD\test\Pain Drain\libraries\lvgl\src\draw\../misc/lv_color.h **** }
 467:..\..\..\arduinoLCD\test\Pain Drain\libraries\lvgl\src\draw\../misc/lv_color.h **** 
 468:..\..\..\arduinoLCD\test\Pain Drain\libraries\lvgl\src\draw\../misc/lv_color.h **** LV_ATTRIBUTE_FAST_MEM static inline void lv_color_premult(lv_color_t c, uint8_t mix, uint16_t * out
 469:..\..\..\arduinoLCD\test\Pain Drain\libraries\lvgl\src\draw\../misc/lv_color.h **** {
 470:..\..\..\arduinoLCD\test\Pain Drain\libraries\lvgl\src\draw\../misc/lv_color.h **** #if LV_COLOR_DEPTH != 1
 471:..\..\..\arduinoLCD\test\Pain Drain\libraries\lvgl\src\draw\../misc/lv_color.h ****     out[0] = (uint16_t)LV_COLOR_GET_R(c) * mix;
 472:..\..\..\arduinoLCD\test\Pain Drain\libraries\lvgl\src\draw\../misc/lv_color.h ****     out[1] = (uint16_t)LV_COLOR_GET_G(c) * mix;
 473:..\..\..\arduinoLCD\test\Pain Drain\libraries\lvgl\src\draw\../misc/lv_color.h ****     out[2] = (uint16_t)LV_COLOR_GET_B(c) * mix;
 474:..\..\..\arduinoLCD\test\Pain Drain\libraries\lvgl\src\draw\../misc/lv_color.h **** #else
 475:..\..\..\arduinoLCD\test\Pain Drain\libraries\lvgl\src\draw\../misc/lv_color.h ****     (void) mix;
 476:..\..\..\arduinoLCD\test\Pain Drain\libraries\lvgl\src\draw\../misc/lv_color.h ****     /*Pre-multiplication can't be used with 1 bpp*/
 477:..\..\..\arduinoLCD\test\Pain Drain\libraries\lvgl\src\draw\../misc/lv_color.h ****     out[0] = LV_COLOR_GET_R(c);
 478:..\..\..\arduinoLCD\test\Pain Drain\libraries\lvgl\src\draw\../misc/lv_color.h ****     out[1] = LV_COLOR_GET_G(c);
 479:..\..\..\arduinoLCD\test\Pain Drain\libraries\lvgl\src\draw\../misc/lv_color.h ****     out[2] = LV_COLOR_GET_B(c);
ARM GAS  C:\Users\haske\AppData\Local\Temp\ccHSLozV.s 			page 32


 480:..\..\..\arduinoLCD\test\Pain Drain\libraries\lvgl\src\draw\../misc/lv_color.h **** #endif
 481:..\..\..\arduinoLCD\test\Pain Drain\libraries\lvgl\src\draw\../misc/lv_color.h **** 
 482:..\..\..\arduinoLCD\test\Pain Drain\libraries\lvgl\src\draw\../misc/lv_color.h **** }
 483:..\..\..\arduinoLCD\test\Pain Drain\libraries\lvgl\src\draw\../misc/lv_color.h **** 
 484:..\..\..\arduinoLCD\test\Pain Drain\libraries\lvgl\src\draw\../misc/lv_color.h **** /**
 485:..\..\..\arduinoLCD\test\Pain Drain\libraries\lvgl\src\draw\../misc/lv_color.h ****  * Mix two colors with a given ratio. It runs faster then `lv_color_mix` but requires some pre comp
 486:..\..\..\arduinoLCD\test\Pain Drain\libraries\lvgl\src\draw\../misc/lv_color.h ****  * @param premult_c1 The first color. Should be preprocessed with `lv_color_premult(c1)`
 487:..\..\..\arduinoLCD\test\Pain Drain\libraries\lvgl\src\draw\../misc/lv_color.h ****  * @param c2 The second color. As it is no pre computation required on it
 488:..\..\..\arduinoLCD\test\Pain Drain\libraries\lvgl\src\draw\../misc/lv_color.h ****  * @param mix The ratio of the colors. 0: full `c1`, 255: full `c2`, 127: half `c1` and half `c2`.
 489:..\..\..\arduinoLCD\test\Pain Drain\libraries\lvgl\src\draw\../misc/lv_color.h ****  *            Should be modified like mix = `255 - mix`
 490:..\..\..\arduinoLCD\test\Pain Drain\libraries\lvgl\src\draw\../misc/lv_color.h ****  * @return the mixed color
 491:..\..\..\arduinoLCD\test\Pain Drain\libraries\lvgl\src\draw\../misc/lv_color.h ****  * @note 255 won't give clearly `c1`.
 492:..\..\..\arduinoLCD\test\Pain Drain\libraries\lvgl\src\draw\../misc/lv_color.h ****  */
 493:..\..\..\arduinoLCD\test\Pain Drain\libraries\lvgl\src\draw\../misc/lv_color.h **** LV_ATTRIBUTE_FAST_MEM static inline lv_color_t lv_color_mix_premult(uint16_t * premult_c1, lv_color
 494:..\..\..\arduinoLCD\test\Pain Drain\libraries\lvgl\src\draw\../misc/lv_color.h **** {
 495:..\..\..\arduinoLCD\test\Pain Drain\libraries\lvgl\src\draw\../misc/lv_color.h ****     lv_color_t ret;
 496:..\..\..\arduinoLCD\test\Pain Drain\libraries\lvgl\src\draw\../misc/lv_color.h **** #if LV_COLOR_DEPTH != 1
 497:..\..\..\arduinoLCD\test\Pain Drain\libraries\lvgl\src\draw\../misc/lv_color.h ****     /*LV_COLOR_DEPTH == 8 or 32*/
 498:..\..\..\arduinoLCD\test\Pain Drain\libraries\lvgl\src\draw\../misc/lv_color.h ****     LV_COLOR_SET_R(ret, LV_UDIV255(premult_c1[0] + LV_COLOR_GET_R(c2) * mix + LV_COLOR_MIX_ROUND_OF
 499:..\..\..\arduinoLCD\test\Pain Drain\libraries\lvgl\src\draw\../misc/lv_color.h ****     LV_COLOR_SET_G(ret, LV_UDIV255(premult_c1[1] + LV_COLOR_GET_G(c2) * mix + LV_COLOR_MIX_ROUND_OF
 500:..\..\..\arduinoLCD\test\Pain Drain\libraries\lvgl\src\draw\../misc/lv_color.h ****     LV_COLOR_SET_B(ret, LV_UDIV255(premult_c1[2] + LV_COLOR_GET_B(c2) * mix + LV_COLOR_MIX_ROUND_OF
 501:..\..\..\arduinoLCD\test\Pain Drain\libraries\lvgl\src\draw\../misc/lv_color.h ****     LV_COLOR_SET_A(ret, 0xFF);
 502:..\..\..\arduinoLCD\test\Pain Drain\libraries\lvgl\src\draw\../misc/lv_color.h **** #else
 503:..\..\..\arduinoLCD\test\Pain Drain\libraries\lvgl\src\draw\../misc/lv_color.h ****     /*LV_COLOR_DEPTH == 1*/
 504:..\..\..\arduinoLCD\test\Pain Drain\libraries\lvgl\src\draw\../misc/lv_color.h ****     /*Restore color1*/
 505:..\..\..\arduinoLCD\test\Pain Drain\libraries\lvgl\src\draw\../misc/lv_color.h ****     lv_color_t c1;
 506:..\..\..\arduinoLCD\test\Pain Drain\libraries\lvgl\src\draw\../misc/lv_color.h ****     LV_COLOR_SET_R(c1, premult_c1[0]);
 507:..\..\..\arduinoLCD\test\Pain Drain\libraries\lvgl\src\draw\../misc/lv_color.h ****     LV_COLOR_SET_G(c1, premult_c1[1]);
 508:..\..\..\arduinoLCD\test\Pain Drain\libraries\lvgl\src\draw\../misc/lv_color.h ****     LV_COLOR_SET_B(c1, premult_c1[2]);
 509:..\..\..\arduinoLCD\test\Pain Drain\libraries\lvgl\src\draw\../misc/lv_color.h ****     ret.full = mix > LV_OPA_50 ? c2.full : c1.full;
 510:..\..\..\arduinoLCD\test\Pain Drain\libraries\lvgl\src\draw\../misc/lv_color.h **** #endif
 511:..\..\..\arduinoLCD\test\Pain Drain\libraries\lvgl\src\draw\../misc/lv_color.h **** 
 512:..\..\..\arduinoLCD\test\Pain Drain\libraries\lvgl\src\draw\../misc/lv_color.h ****     return ret;
 513:..\..\..\arduinoLCD\test\Pain Drain\libraries\lvgl\src\draw\../misc/lv_color.h **** }
 514:..\..\..\arduinoLCD\test\Pain Drain\libraries\lvgl\src\draw\../misc/lv_color.h **** 
 515:..\..\..\arduinoLCD\test\Pain Drain\libraries\lvgl\src\draw\../misc/lv_color.h **** /**
 516:..\..\..\arduinoLCD\test\Pain Drain\libraries\lvgl\src\draw\../misc/lv_color.h ****  * Mix two colors. Both color can have alpha value.
 517:..\..\..\arduinoLCD\test\Pain Drain\libraries\lvgl\src\draw\../misc/lv_color.h ****  * @param bg_color background color
 518:..\..\..\arduinoLCD\test\Pain Drain\libraries\lvgl\src\draw\../misc/lv_color.h ****  * @param bg_opa alpha of the background color
 519:..\..\..\arduinoLCD\test\Pain Drain\libraries\lvgl\src\draw\../misc/lv_color.h ****  * @param fg_color foreground color
 520:..\..\..\arduinoLCD\test\Pain Drain\libraries\lvgl\src\draw\../misc/lv_color.h ****  * @param fg_opa alpha of the foreground color
 521:..\..\..\arduinoLCD\test\Pain Drain\libraries\lvgl\src\draw\../misc/lv_color.h ****  * @param res_color the result color
 522:..\..\..\arduinoLCD\test\Pain Drain\libraries\lvgl\src\draw\../misc/lv_color.h ****  * @param res_opa the result opacity
 523:..\..\..\arduinoLCD\test\Pain Drain\libraries\lvgl\src\draw\../misc/lv_color.h ****  */
 524:..\..\..\arduinoLCD\test\Pain Drain\libraries\lvgl\src\draw\../misc/lv_color.h **** LV_ATTRIBUTE_FAST_MEM static inline void lv_color_mix_with_alpha(lv_color_t bg_color, lv_opa_t bg_o
 525:..\..\..\arduinoLCD\test\Pain Drain\libraries\lvgl\src\draw\../misc/lv_color.h ****                                                                  lv_color_t fg_color, lv_opa_t fg_o
 526:..\..\..\arduinoLCD\test\Pain Drain\libraries\lvgl\src\draw\../misc/lv_color.h ****                                                                  lv_color_t * res_color, lv_opa_t *
 527:..\..\..\arduinoLCD\test\Pain Drain\libraries\lvgl\src\draw\../misc/lv_color.h **** {
 528:..\..\..\arduinoLCD\test\Pain Drain\libraries\lvgl\src\draw\../misc/lv_color.h ****     /*Pick the foreground if it's fully opaque or the Background is fully transparent*/
 529:..\..\..\arduinoLCD\test\Pain Drain\libraries\lvgl\src\draw\../misc/lv_color.h ****     if(fg_opa >= LV_OPA_MAX || bg_opa <= LV_OPA_MIN) {
 530:..\..\..\arduinoLCD\test\Pain Drain\libraries\lvgl\src\draw\../misc/lv_color.h ****         res_color->full = fg_color.full;
 531:..\..\..\arduinoLCD\test\Pain Drain\libraries\lvgl\src\draw\../misc/lv_color.h ****         *res_opa = fg_opa;
 532:..\..\..\arduinoLCD\test\Pain Drain\libraries\lvgl\src\draw\../misc/lv_color.h ****     }
 533:..\..\..\arduinoLCD\test\Pain Drain\libraries\lvgl\src\draw\../misc/lv_color.h ****     /*Transparent foreground: use the Background*/
 534:..\..\..\arduinoLCD\test\Pain Drain\libraries\lvgl\src\draw\../misc/lv_color.h ****     else if(fg_opa <= LV_OPA_MIN) {
 535:..\..\..\arduinoLCD\test\Pain Drain\libraries\lvgl\src\draw\../misc/lv_color.h ****         res_color->full = bg_color.full;
 536:..\..\..\arduinoLCD\test\Pain Drain\libraries\lvgl\src\draw\../misc/lv_color.h ****         *res_opa = bg_opa;
ARM GAS  C:\Users\haske\AppData\Local\Temp\ccHSLozV.s 			page 33


 537:..\..\..\arduinoLCD\test\Pain Drain\libraries\lvgl\src\draw\../misc/lv_color.h ****     }
 538:..\..\..\arduinoLCD\test\Pain Drain\libraries\lvgl\src\draw\../misc/lv_color.h ****     /*Opaque background: use simple mix*/
 539:..\..\..\arduinoLCD\test\Pain Drain\libraries\lvgl\src\draw\../misc/lv_color.h ****     else if(bg_opa >= LV_OPA_MAX) {
 540:..\..\..\arduinoLCD\test\Pain Drain\libraries\lvgl\src\draw\../misc/lv_color.h ****         *res_color = lv_color_mix(fg_color, bg_color, fg_opa);
 541:..\..\..\arduinoLCD\test\Pain Drain\libraries\lvgl\src\draw\../misc/lv_color.h ****         *res_opa = LV_OPA_COVER;
 542:..\..\..\arduinoLCD\test\Pain Drain\libraries\lvgl\src\draw\../misc/lv_color.h ****     }
 543:..\..\..\arduinoLCD\test\Pain Drain\libraries\lvgl\src\draw\../misc/lv_color.h ****     /*Both colors have alpha. Expensive calculation need to be applied*/
 544:..\..\..\arduinoLCD\test\Pain Drain\libraries\lvgl\src\draw\../misc/lv_color.h ****     else {
 545:..\..\..\arduinoLCD\test\Pain Drain\libraries\lvgl\src\draw\../misc/lv_color.h ****         /*Save the parameters and the result. If they will be asked again don't compute again*/
 546:..\..\..\arduinoLCD\test\Pain Drain\libraries\lvgl\src\draw\../misc/lv_color.h ****         static lv_opa_t fg_opa_save     = 0;
 547:..\..\..\arduinoLCD\test\Pain Drain\libraries\lvgl\src\draw\../misc/lv_color.h ****         static lv_opa_t bg_opa_save     = 0;
 548:..\..\..\arduinoLCD\test\Pain Drain\libraries\lvgl\src\draw\../misc/lv_color.h ****         static lv_color_t fg_color_save = _LV_COLOR_ZERO_INITIALIZER;
 549:..\..\..\arduinoLCD\test\Pain Drain\libraries\lvgl\src\draw\../misc/lv_color.h ****         static lv_color_t bg_color_save = _LV_COLOR_ZERO_INITIALIZER;
 550:..\..\..\arduinoLCD\test\Pain Drain\libraries\lvgl\src\draw\../misc/lv_color.h ****         static lv_color_t res_color_saved = _LV_COLOR_ZERO_INITIALIZER;
 551:..\..\..\arduinoLCD\test\Pain Drain\libraries\lvgl\src\draw\../misc/lv_color.h ****         static lv_opa_t res_opa_saved = 0;
 552:..\..\..\arduinoLCD\test\Pain Drain\libraries\lvgl\src\draw\../misc/lv_color.h **** 
 553:..\..\..\arduinoLCD\test\Pain Drain\libraries\lvgl\src\draw\../misc/lv_color.h ****         if(fg_opa != fg_opa_save || bg_opa != bg_opa_save || fg_color.full != fg_color_save.full ||
 554:..\..\..\arduinoLCD\test\Pain Drain\libraries\lvgl\src\draw\../misc/lv_color.h ****            bg_color.full != bg_color_save.full) {
 555:..\..\..\arduinoLCD\test\Pain Drain\libraries\lvgl\src\draw\../misc/lv_color.h ****             fg_opa_save        = fg_opa;
 556:..\..\..\arduinoLCD\test\Pain Drain\libraries\lvgl\src\draw\../misc/lv_color.h ****             bg_opa_save        = bg_opa;
 557:..\..\..\arduinoLCD\test\Pain Drain\libraries\lvgl\src\draw\../misc/lv_color.h ****             fg_color_save.full = fg_color.full;
 558:..\..\..\arduinoLCD\test\Pain Drain\libraries\lvgl\src\draw\../misc/lv_color.h ****             bg_color_save.full = bg_color.full;
 559:..\..\..\arduinoLCD\test\Pain Drain\libraries\lvgl\src\draw\../misc/lv_color.h ****             /*Info:
 560:..\..\..\arduinoLCD\test\Pain Drain\libraries\lvgl\src\draw\../misc/lv_color.h ****              * https://en.wikipedia.org/wiki/Alpha_compositing#Analytical_derivation_of_the_over_op
 561:..\..\..\arduinoLCD\test\Pain Drain\libraries\lvgl\src\draw\../misc/lv_color.h ****             res_opa_saved = 255 - ((uint16_t)((uint16_t)(255 - fg_opa) * (255 - bg_opa)) >> 8);
 562:..\..\..\arduinoLCD\test\Pain Drain\libraries\lvgl\src\draw\../misc/lv_color.h ****             LV_ASSERT(res_opa_saved != 0);
 563:..\..\..\arduinoLCD\test\Pain Drain\libraries\lvgl\src\draw\../misc/lv_color.h ****             lv_opa_t ratio = (uint16_t)((uint16_t)fg_opa * 255) / res_opa_saved;
 564:..\..\..\arduinoLCD\test\Pain Drain\libraries\lvgl\src\draw\../misc/lv_color.h ****             res_color_saved = lv_color_mix(fg_color, bg_color, ratio);
 565:..\..\..\arduinoLCD\test\Pain Drain\libraries\lvgl\src\draw\../misc/lv_color.h **** 
 566:..\..\..\arduinoLCD\test\Pain Drain\libraries\lvgl\src\draw\../misc/lv_color.h ****         }
 567:..\..\..\arduinoLCD\test\Pain Drain\libraries\lvgl\src\draw\../misc/lv_color.h **** 
 568:..\..\..\arduinoLCD\test\Pain Drain\libraries\lvgl\src\draw\../misc/lv_color.h ****         res_color->full = res_color_saved.full;
 569:..\..\..\arduinoLCD\test\Pain Drain\libraries\lvgl\src\draw\../misc/lv_color.h ****         *res_opa = res_opa_saved;
 570:..\..\..\arduinoLCD\test\Pain Drain\libraries\lvgl\src\draw\../misc/lv_color.h ****     }
 571:..\..\..\arduinoLCD\test\Pain Drain\libraries\lvgl\src\draw\../misc/lv_color.h **** }
 572:..\..\..\arduinoLCD\test\Pain Drain\libraries\lvgl\src\draw\../misc/lv_color.h **** 
 573:..\..\..\arduinoLCD\test\Pain Drain\libraries\lvgl\src\draw\../misc/lv_color.h **** //! @endcond
 574:..\..\..\arduinoLCD\test\Pain Drain\libraries\lvgl\src\draw\../misc/lv_color.h **** 
 575:..\..\..\arduinoLCD\test\Pain Drain\libraries\lvgl\src\draw\../misc/lv_color.h **** /**
 576:..\..\..\arduinoLCD\test\Pain Drain\libraries\lvgl\src\draw\../misc/lv_color.h ****  * Get the brightness of a color
 577:..\..\..\arduinoLCD\test\Pain Drain\libraries\lvgl\src\draw\../misc/lv_color.h ****  * @param color a color
 578:..\..\..\arduinoLCD\test\Pain Drain\libraries\lvgl\src\draw\../misc/lv_color.h ****  * @return the brightness [0..255]
 579:..\..\..\arduinoLCD\test\Pain Drain\libraries\lvgl\src\draw\../misc/lv_color.h ****  */
 580:..\..\..\arduinoLCD\test\Pain Drain\libraries\lvgl\src\draw\../misc/lv_color.h **** static inline uint8_t lv_color_brightness(lv_color_t color)
 581:..\..\..\arduinoLCD\test\Pain Drain\libraries\lvgl\src\draw\../misc/lv_color.h **** {
 582:..\..\..\arduinoLCD\test\Pain Drain\libraries\lvgl\src\draw\../misc/lv_color.h ****     lv_color32_t c32;
 583:..\..\..\arduinoLCD\test\Pain Drain\libraries\lvgl\src\draw\../misc/lv_color.h ****     c32.full        = lv_color_to32(color);
 584:..\..\..\arduinoLCD\test\Pain Drain\libraries\lvgl\src\draw\../misc/lv_color.h ****     uint16_t bright = (uint16_t)(3u * LV_COLOR_GET_R32(c32) + LV_COLOR_GET_B32(c32) + 4u * LV_COLOR
 585:..\..\..\arduinoLCD\test\Pain Drain\libraries\lvgl\src\draw\../misc/lv_color.h ****     return (uint8_t)(bright >> 3);
 586:..\..\..\arduinoLCD\test\Pain Drain\libraries\lvgl\src\draw\../misc/lv_color.h **** }
 587:..\..\..\arduinoLCD\test\Pain Drain\libraries\lvgl\src\draw\../misc/lv_color.h **** 
 588:..\..\..\arduinoLCD\test\Pain Drain\libraries\lvgl\src\draw\../misc/lv_color.h **** static inline lv_color_t lv_color_make(uint8_t r, uint8_t g, uint8_t b)
 589:..\..\..\arduinoLCD\test\Pain Drain\libraries\lvgl\src\draw\../misc/lv_color.h **** {
 590:..\..\..\arduinoLCD\test\Pain Drain\libraries\lvgl\src\draw\../misc/lv_color.h ****     return _LV_COLOR_MAKE_TYPE_HELPER LV_COLOR_MAKE(r, g, b);
 519              		.loc 3 590 0 discriminator 3
 520 0132 C008     		lsrs	r0, r0, #3
 521              	.LVL65:
ARM GAS  C:\Users\haske\AppData\Local\Temp\ccHSLozV.s 			page 34


 522 0134 9208     		lsrs	r2, r2, #2
 523              	.LVL66:
 524 0136 DB08     		lsrs	r3, r3, #3
 525              	.LVL67:
 526 0138 60F30408 		bfi	r8, r0, #0, #5
 527 013c 62F34A18 		bfi	r8, r2, #5, #6
 528 0140 63F3CF28 		bfi	r8, r3, #11, #5
 529              	.LVL68:
 530              	.LBE25:
 531              	.LBE24:
 413:..\..\..\arduinoLCD\test\Pain Drain\libraries\lvgl\src\draw/lv_img_decoder.c ****                 user_data->opa[i]     = cur_color.ch.alpha;
 532              		.loc 1 413 0 discriminator 3
 533 0144 21F81480 		strh	r8, [r1, r4, lsl #1]	@ movhi
 414:..\..\..\arduinoLCD\test\Pain Drain\libraries\lvgl\src\draw/lv_img_decoder.c ****             }
 534              		.loc 1 414 0 discriminator 3
 535 0148 D9F81030 		ldr	r3, [r9, #16]
 536 014c 9DF80720 		ldrb	r2, [sp, #7]	@ zero_extendqisi2
 537 0150 1A55     		strb	r2, [r3, r4]
 411:..\..\..\arduinoLCD\test\Pain Drain\libraries\lvgl\src\draw/lv_img_decoder.c ****                 lv_fs_read(&user_data->f, &cur_color, sizeof(lv_color32_t), NULL);
 538              		.loc 1 411 0 discriminator 3
 539 0152 0134     		adds	r4, r4, #1
 540              	.LVL69:
 541              	.L44:
 411:..\..\..\arduinoLCD\test\Pain Drain\libraries\lvgl\src\draw/lv_img_decoder.c ****                 lv_fs_read(&user_data->f, &cur_color, sizeof(lv_color32_t), NULL);
 542              		.loc 1 411 0 is_stmt 0 discriminator 1
 543 0154 5445     		cmp	r4, r10
 544 0156 DDD3     		bcc	.L45
 545 0158 2FE0     		b	.L30
 546              	.LVL70:
 547              	.L43:
 548              	.LBE23:
 549              	.LBB26:
 419:..\..\..\arduinoLCD\test\Pain Drain\libraries\lvgl\src\draw/lv_img_decoder.c **** 
 550              		.loc 1 419 0 is_stmt 1
 551 015a 6368     		ldr	r3, [r4, #4]
 552 015c 9E68     		ldr	r6, [r3, #8]
 553              	.LVL71:
 422:..\..\..\arduinoLCD\test\Pain Drain\libraries\lvgl\src\draw/lv_img_decoder.c ****                 user_data->palette[i] = lv_color_make(palette_p[i].ch.red, palette_p[i].ch.green, p
 554              		.loc 1 422 0
 555 015e 0023     		movs	r3, #0
 556 0160 17E0     		b	.L46
 557              	.LVL72:
 558              	.L47:
 423:..\..\..\arduinoLCD\test\Pain Drain\libraries\lvgl\src\draw/lv_img_decoder.c ****                 user_data->opa[i]     = palette_p[i].ch.alpha;
 559              		.loc 1 423 0 discriminator 3
 560 0162 D9F80C00 		ldr	r0, [r9, #12]
 561 0166 06EB8302 		add	r2, r6, r3, lsl #2
 562 016a 9178     		ldrb	r1, [r2, #2]	@ zero_extendqisi2
 563 016c 5478     		ldrb	r4, [r2, #1]	@ zero_extendqisi2
 564 016e 16F82350 		ldrb	r5, [r6, r3, lsl #2]	@ zero_extendqisi2
 565              	.LVL73:
 566              	.LBB27:
 567              	.LBB28:
 568              		.loc 3 590 0 discriminator 3
 569 0172 ED08     		lsrs	r5, r5, #3
 570              	.LVL74:
 571 0174 A408     		lsrs	r4, r4, #2
ARM GAS  C:\Users\haske\AppData\Local\Temp\ccHSLozV.s 			page 35


 572              	.LVL75:
 573 0176 C908     		lsrs	r1, r1, #3
 574              	.LVL76:
 575 0178 65F30407 		bfi	r7, r5, #0, #5
 576 017c 64F34A17 		bfi	r7, r4, #5, #6
 577 0180 61F3CF27 		bfi	r7, r1, #11, #5
 578              	.LVL77:
 579              	.LBE28:
 580              	.LBE27:
 423:..\..\..\arduinoLCD\test\Pain Drain\libraries\lvgl\src\draw/lv_img_decoder.c ****                 user_data->opa[i]     = palette_p[i].ch.alpha;
 581              		.loc 1 423 0 discriminator 3
 582 0184 20F81370 		strh	r7, [r0, r3, lsl #1]	@ movhi
 424:..\..\..\arduinoLCD\test\Pain Drain\libraries\lvgl\src\draw/lv_img_decoder.c ****             }
 583              		.loc 1 424 0 discriminator 3
 584 0188 D9F81010 		ldr	r1, [r9, #16]
 585 018c D278     		ldrb	r2, [r2, #3]	@ zero_extendqisi2
 586 018e CA54     		strb	r2, [r1, r3]
 422:..\..\..\arduinoLCD\test\Pain Drain\libraries\lvgl\src\draw/lv_img_decoder.c ****                 user_data->palette[i] = lv_color_make(palette_p[i].ch.red, palette_p[i].ch.green, p
 587              		.loc 1 422 0 discriminator 3
 588 0190 0133     		adds	r3, r3, #1
 589              	.LVL78:
 590              	.L46:
 422:..\..\..\arduinoLCD\test\Pain Drain\libraries\lvgl\src\draw/lv_img_decoder.c ****                 user_data->palette[i] = lv_color_make(palette_p[i].ch.red, palette_p[i].ch.green, p
 591              		.loc 1 422 0 is_stmt 0 discriminator 1
 592 0192 5345     		cmp	r3, r10
 593 0194 E5D3     		bcc	.L47
 594              	.LBE26:
 428:..\..\..\arduinoLCD\test\Pain Drain\libraries\lvgl\src\draw/lv_img_decoder.c ****     }
 595              		.loc 1 428 0 is_stmt 1
 596 0196 0125     		movs	r5, #1
 597 0198 0FE0     		b	.L30
 598              	.LVL79:
 599              	.L33:
 600              	.LBE22:
 431:..\..\..\arduinoLCD\test\Pain Drain\libraries\lvgl\src\draw/lv_img_decoder.c ****         return LV_RES_OK; /*Nothing to process*/
 601              		.loc 1 431 0
 602 019a A0F10B03 		sub	r3, r0, #11
 603 019e DBB2     		uxtb	r3, r3
 604 01a0 022B     		cmp	r3, #2
 605 01a2 09D9     		bls	.L50
 437:..\..\..\arduinoLCD\test\Pain Drain\libraries\lvgl\src\draw/lv_img_decoder.c **** 
 606              		.loc 1 437 0
 607 01a4 2146     		mov	r1, r4
 608 01a6 3046     		mov	r0, r6
 609 01a8 FFF7FEFF 		bl	lv_img_decoder_built_in_close
 610              	.LVL80:
 440:..\..\..\arduinoLCD\test\Pain Drain\libraries\lvgl\src\draw/lv_img_decoder.c ****     }
 611              		.loc 1 440 0
 612 01ac 0025     		movs	r5, #0
 613 01ae 04E0     		b	.L30
 614              	.LVL81:
 615              	.L48:
 375:..\..\..\arduinoLCD\test\Pain Drain\libraries\lvgl\src\draw/lv_img_decoder.c ****         }
 616              		.loc 1 375 0
 617 01b0 0125     		movs	r5, #1
 618 01b2 02E0     		b	.L30
 619              	.LVL82:
ARM GAS  C:\Users\haske\AppData\Local\Temp\ccHSLozV.s 			page 36


 620              	.L49:
 621              	.LBB29:
 390:..\..\..\arduinoLCD\test\Pain Drain\libraries\lvgl\src\draw/lv_img_decoder.c ****             }
 622              		.loc 1 390 0
 623 01b4 0025     		movs	r5, #0
 624 01b6 00E0     		b	.L30
 625              	.LVL83:
 626              	.L50:
 627              	.LBE29:
 432:..\..\..\arduinoLCD\test\Pain Drain\libraries\lvgl\src\draw/lv_img_decoder.c ****     }
 628              		.loc 1 432 0
 629 01b8 0125     		movs	r5, #1
 630              	.LVL84:
 631              	.L30:
 442:..\..\..\arduinoLCD\test\Pain Drain\libraries\lvgl\src\draw/lv_img_decoder.c **** 
 632              		.loc 1 442 0
 633 01ba 2846     		mov	r0, r5
 634 01bc 04B0     		add	sp, sp, #16
 635              		.cfi_def_cfa_offset 32
 636              		@ sp needed
 637 01be BDE8F087 		pop	{r4, r5, r6, r7, r8, r9, r10, pc}
 638              	.L53:
 639 01c2 00BF     		.align	2
 640              	.L52:
 641 01c4 00000000 		.word	.LC2
 642              		.cfi_endproc
 643              	.LFE68:
 644              		.size	lv_img_decoder_built_in_open, .-lv_img_decoder_built_in_open
 645              		.section	.text.lv_img_decoder_built_in_line_true_color,"ax",%progbits
 646              		.align	2
 647              		.thumb
 648              		.thumb_func
 649              		.type	lv_img_decoder_built_in_line_true_color, %function
 650              	lv_img_decoder_built_in_line_true_color:
 651              	.LFB71:
 505:..\..\..\arduinoLCD\test\Pain Drain\libraries\lvgl\src\draw/lv_img_decoder.c ****     }
 506:..\..\..\arduinoLCD\test\Pain Drain\libraries\lvgl\src\draw/lv_img_decoder.c **** }
 507:..\..\..\arduinoLCD\test\Pain Drain\libraries\lvgl\src\draw/lv_img_decoder.c **** 
 508:..\..\..\arduinoLCD\test\Pain Drain\libraries\lvgl\src\draw/lv_img_decoder.c **** /**********************
 509:..\..\..\arduinoLCD\test\Pain Drain\libraries\lvgl\src\draw/lv_img_decoder.c ****  *   STATIC FUNCTIONS
 510:..\..\..\arduinoLCD\test\Pain Drain\libraries\lvgl\src\draw/lv_img_decoder.c ****  **********************/
 511:..\..\..\arduinoLCD\test\Pain Drain\libraries\lvgl\src\draw/lv_img_decoder.c **** 
 512:..\..\..\arduinoLCD\test\Pain Drain\libraries\lvgl\src\draw/lv_img_decoder.c **** static lv_res_t lv_img_decoder_built_in_line_true_color(lv_img_decoder_dsc_t * dsc, lv_coord_t x, l
 513:..\..\..\arduinoLCD\test\Pain Drain\libraries\lvgl\src\draw/lv_img_decoder.c ****                                                         lv_coord_t len, uint8_t * buf)
 514:..\..\..\arduinoLCD\test\Pain Drain\libraries\lvgl\src\draw/lv_img_decoder.c **** {
 652              		.loc 1 514 0
 653              		.cfi_startproc
 654              		@ args = 4, pretend = 0, frame = 8
 655              		@ frame_needed = 0, uses_anonymous_args = 0
 656              	.LVL85:
 657 0000 2DE9F043 		push	{r4, r5, r6, r7, r8, r9, lr}
 658              		.cfi_def_cfa_offset 28
 659              		.cfi_offset 4, -28
 660              		.cfi_offset 5, -24
 661              		.cfi_offset 6, -20
 662              		.cfi_offset 7, -16
 663              		.cfi_offset 8, -12
ARM GAS  C:\Users\haske\AppData\Local\Temp\ccHSLozV.s 			page 37


 664              		.cfi_offset 9, -8
 665              		.cfi_offset 14, -4
 666 0004 83B0     		sub	sp, sp, #12
 667              		.cfi_def_cfa_offset 40
 668 0006 8046     		mov	r8, r0
 669 0008 8946     		mov	r9, r1
 670 000a 1446     		mov	r4, r2
 671 000c 1F46     		mov	r7, r3
 515:..\..\..\arduinoLCD\test\Pain Drain\libraries\lvgl\src\draw/lv_img_decoder.c ****     lv_img_decoder_built_in_data_t * user_data = dsc->user_data;
 672              		.loc 1 515 0
 673 000e 466A     		ldr	r6, [r0, #36]
 674              	.LVL86:
 516:..\..\..\arduinoLCD\test\Pain Drain\libraries\lvgl\src\draw/lv_img_decoder.c ****     lv_fs_res_t res;
 517:..\..\..\arduinoLCD\test\Pain Drain\libraries\lvgl\src\draw/lv_img_decoder.c ****     uint8_t px_size = lv_img_cf_get_px_size(dsc->header.cf);
 675              		.loc 1 517 0
 676 0010 007D     		ldrb	r0, [r0, #20]	@ zero_extendqisi2
 677              	.LVL87:
 678 0012 00F01F00 		and	r0, r0, #31
 679 0016 FFF7FEFF 		bl	lv_img_cf_get_px_size
 680              	.LVL88:
 681 001a 0546     		mov	r5, r0
 682              	.LVL89:
 518:..\..\..\arduinoLCD\test\Pain Drain\libraries\lvgl\src\draw/lv_img_decoder.c **** 
 519:..\..\..\arduinoLCD\test\Pain Drain\libraries\lvgl\src\draw/lv_img_decoder.c ****     uint32_t pos = ((y * dsc->header.w + x) * px_size) >> 3;
 683              		.loc 1 519 0
 684 001c D8F81410 		ldr	r1, [r8, #20]
 685 0020 C1F38A21 		ubfx	r1, r1, #10, #11
 686 0024 01FB0491 		mla	r1, r1, r4, r9
 687 0028 01FB00F1 		mul	r1, r1, r0
 688 002c C910     		asrs	r1, r1, #3
 689              	.LVL90:
 520:..\..\..\arduinoLCD\test\Pain Drain\libraries\lvgl\src\draw/lv_img_decoder.c ****     pos += 4; /*Skip the header*/
 521:..\..\..\arduinoLCD\test\Pain Drain\libraries\lvgl\src\draw/lv_img_decoder.c ****     res = lv_fs_seek(&user_data->f, pos, LV_FS_SEEK_SET);
 690              		.loc 1 521 0
 691 002e 0022     		movs	r2, #0
 692 0030 0431     		adds	r1, r1, #4
 693              	.LVL91:
 694 0032 3046     		mov	r0, r6
 695              	.LVL92:
 696 0034 FFF7FEFF 		bl	lv_fs_seek
 697              	.LVL93:
 522:..\..\..\arduinoLCD\test\Pain Drain\libraries\lvgl\src\draw/lv_img_decoder.c ****     if(res != LV_FS_RES_OK) {
 698              		.loc 1 522 0
 699 0038 88B9     		cbnz	r0, .L56
 523:..\..\..\arduinoLCD\test\Pain Drain\libraries\lvgl\src\draw/lv_img_decoder.c ****         LV_LOG_WARN("Built-in image decoder seek failed");
 524:..\..\..\arduinoLCD\test\Pain Drain\libraries\lvgl\src\draw/lv_img_decoder.c ****         return LV_RES_INV;
 525:..\..\..\arduinoLCD\test\Pain Drain\libraries\lvgl\src\draw/lv_img_decoder.c ****     }
 526:..\..\..\arduinoLCD\test\Pain Drain\libraries\lvgl\src\draw/lv_img_decoder.c ****     uint32_t btr = len * (px_size >> 3);
 700              		.loc 1 526 0
 701 003a C5F3C705 		ubfx	r5, r5, #3, #8
 702 003e 05FB07F5 		mul	r5, r5, r7
 703              	.LVL94:
 527:..\..\..\arduinoLCD\test\Pain Drain\libraries\lvgl\src\draw/lv_img_decoder.c ****     uint32_t br  = 0;
 704              		.loc 1 527 0
 705 0042 02AB     		add	r3, sp, #8
 706 0044 0022     		movs	r2, #0
 707 0046 43F8042D 		str	r2, [r3, #-4]!
ARM GAS  C:\Users\haske\AppData\Local\Temp\ccHSLozV.s 			page 38


 528:..\..\..\arduinoLCD\test\Pain Drain\libraries\lvgl\src\draw/lv_img_decoder.c ****     res = lv_fs_read(&user_data->f, buf, btr, &br);
 708              		.loc 1 528 0
 709 004a 2A46     		mov	r2, r5
 710 004c 0A99     		ldr	r1, [sp, #40]
 711 004e 3046     		mov	r0, r6
 712              	.LVL95:
 713 0050 FFF7FEFF 		bl	lv_fs_read
 714              	.LVL96:
 529:..\..\..\arduinoLCD\test\Pain Drain\libraries\lvgl\src\draw/lv_img_decoder.c ****     if(res != LV_FS_RES_OK || btr != br) {
 715              		.loc 1 529 0
 716 0054 28B9     		cbnz	r0, .L57
 717              		.loc 1 529 0 is_stmt 0 discriminator 1
 718 0056 019B     		ldr	r3, [sp, #4]
 719 0058 9D42     		cmp	r5, r3
 720 005a 04D0     		beq	.L58
 721 005c 04E0     		b	.L55
 722              	.LVL97:
 723              	.L56:
 524:..\..\..\arduinoLCD\test\Pain Drain\libraries\lvgl\src\draw/lv_img_decoder.c ****     }
 724              		.loc 1 524 0 is_stmt 1
 725 005e 0020     		movs	r0, #0
 726              	.LVL98:
 727 0060 02E0     		b	.L55
 728              	.LVL99:
 729              	.L57:
 530:..\..\..\arduinoLCD\test\Pain Drain\libraries\lvgl\src\draw/lv_img_decoder.c ****         LV_LOG_WARN("Built-in image decoder read failed");
 531:..\..\..\arduinoLCD\test\Pain Drain\libraries\lvgl\src\draw/lv_img_decoder.c ****         return LV_RES_INV;
 730              		.loc 1 531 0
 731 0062 0020     		movs	r0, #0
 732              	.LVL100:
 733 0064 00E0     		b	.L55
 734              	.LVL101:
 735              	.L58:
 532:..\..\..\arduinoLCD\test\Pain Drain\libraries\lvgl\src\draw/lv_img_decoder.c ****     }
 533:..\..\..\arduinoLCD\test\Pain Drain\libraries\lvgl\src\draw/lv_img_decoder.c **** 
 534:..\..\..\arduinoLCD\test\Pain Drain\libraries\lvgl\src\draw/lv_img_decoder.c ****     return LV_RES_OK;
 736              		.loc 1 534 0
 737 0066 0120     		movs	r0, #1
 738              	.LVL102:
 739              	.L55:
 535:..\..\..\arduinoLCD\test\Pain Drain\libraries\lvgl\src\draw/lv_img_decoder.c **** }
 740              		.loc 1 535 0
 741 0068 03B0     		add	sp, sp, #12
 742              		.cfi_def_cfa_offset 28
 743              		@ sp needed
 744 006a BDE8F083 		pop	{r4, r5, r6, r7, r8, r9, pc}
 745              		.cfi_endproc
 746              	.LFE71:
 747              		.size	lv_img_decoder_built_in_line_true_color, .-lv_img_decoder_built_in_line_true_color
 748 006e 00BF     		.section	.text.lv_img_decoder_built_in_line_alpha,"ax",%progbits
 749              		.align	2
 750              		.thumb
 751              		.thumb_func
 752              		.type	lv_img_decoder_built_in_line_alpha, %function
 753              	lv_img_decoder_built_in_line_alpha:
 754              	.LFB72:
 536:..\..\..\arduinoLCD\test\Pain Drain\libraries\lvgl\src\draw/lv_img_decoder.c **** 
ARM GAS  C:\Users\haske\AppData\Local\Temp\ccHSLozV.s 			page 39


 537:..\..\..\arduinoLCD\test\Pain Drain\libraries\lvgl\src\draw/lv_img_decoder.c **** static lv_res_t lv_img_decoder_built_in_line_alpha(lv_img_decoder_dsc_t * dsc, lv_coord_t x, lv_coo
 538:..\..\..\arduinoLCD\test\Pain Drain\libraries\lvgl\src\draw/lv_img_decoder.c ****                                                    lv_coord_t len, uint8_t * buf)
 539:..\..\..\arduinoLCD\test\Pain Drain\libraries\lvgl\src\draw/lv_img_decoder.c **** {
 755              		.loc 1 539 0
 756              		.cfi_startproc
 757              		@ args = 4, pretend = 0, frame = 40
 758              		@ frame_needed = 0, uses_anonymous_args = 0
 759              	.LVL103:
 760 0000 2DE9F04F 		push	{r4, r5, r6, r7, r8, r9, r10, fp, lr}
 761              		.cfi_def_cfa_offset 36
 762              		.cfi_offset 4, -36
 763              		.cfi_offset 5, -32
 764              		.cfi_offset 6, -28
 765              		.cfi_offset 7, -24
 766              		.cfi_offset 8, -20
 767              		.cfi_offset 9, -16
 768              		.cfi_offset 10, -12
 769              		.cfi_offset 11, -8
 770              		.cfi_offset 14, -4
 771 0004 8BB0     		sub	sp, sp, #44
 772              		.cfi_def_cfa_offset 80
 773 0006 0746     		mov	r7, r0
 774 0008 0C46     		mov	r4, r1
 775 000a 9246     		mov	r10, r2
 776 000c 1E46     		mov	r6, r3
 777 000e 149D     		ldr	r5, [sp, #80]
 540:..\..\..\arduinoLCD\test\Pain Drain\libraries\lvgl\src\draw/lv_img_decoder.c ****     const lv_opa_t alpha1_opa_table[2]  = {0, 255};          /*Opacity mapping with bpp = 1 (Just f
 778              		.loc 1 540 0
 779 0010 4FF0000E 		mov	lr, #0
 780 0014 8DF824E0 		strb	lr, [sp, #36]
 781 0018 FF23     		movs	r3, #255
 782              	.LVL104:
 783 001a 8DF82530 		strb	r3, [sp, #37]
 541:..\..\..\arduinoLCD\test\Pain Drain\libraries\lvgl\src\draw/lv_img_decoder.c ****     const lv_opa_t alpha2_opa_table[4]  = {0, 85, 170, 255}; /*Opacity mapping with bpp = 2*/
 784              		.loc 1 541 0
 785 001e 5D4B     		ldr	r3, .L81
 786 0020 1868     		ldr	r0, [r3]	@ unaligned
 787              	.LVL105:
 788 0022 0890     		str	r0, [sp, #32]	@ unaligned
 542:..\..\..\arduinoLCD\test\Pain Drain\libraries\lvgl\src\draw/lv_img_decoder.c ****     const lv_opa_t alpha4_opa_table[16] = {0,  17, 34,  51,  /*Opacity mapping with bpp = 4*/
 789              		.loc 1 542 0
 790 0024 0DF1100C 		add	ip, sp, #16
 791 0028 53F8040F 		ldr	r0, [r3, #4]!	@ unaligned
 792 002c 5968     		ldr	r1, [r3, #4]	@ unaligned
 793              	.LVL106:
 794 002e 9A68     		ldr	r2, [r3, #8]	@ unaligned
 795              	.LVL107:
 796 0030 DB68     		ldr	r3, [r3, #12]	@ unaligned
 797 0032 ACE80F00 		stmia	ip!, {r0, r1, r2, r3}
 543:..\..\..\arduinoLCD\test\Pain Drain\libraries\lvgl\src\draw/lv_img_decoder.c ****                                            68, 85, 102, 119, 136, 153, 170, 187, 204, 221, 238, 255
 544:..\..\..\arduinoLCD\test\Pain Drain\libraries\lvgl\src\draw/lv_img_decoder.c ****                                           };
 545:..\..\..\arduinoLCD\test\Pain Drain\libraries\lvgl\src\draw/lv_img_decoder.c **** 
 546:..\..\..\arduinoLCD\test\Pain Drain\libraries\lvgl\src\draw/lv_img_decoder.c ****     /*Simply fill the buffer with the color. Later only the alpha value will be modified.*/
 547:..\..\..\arduinoLCD\test\Pain Drain\libraries\lvgl\src\draw/lv_img_decoder.c ****     lv_color_t bg_color = dsc->color;
 798              		.loc 1 547 0
 799 0036 3889     		ldrh	r0, [r7, #8]
 800              	.LVL108:
ARM GAS  C:\Users\haske\AppData\Local\Temp\ccHSLozV.s 			page 40


 548:..\..\..\arduinoLCD\test\Pain Drain\libraries\lvgl\src\draw/lv_img_decoder.c ****     lv_coord_t i;
 549:..\..\..\arduinoLCD\test\Pain Drain\libraries\lvgl\src\draw/lv_img_decoder.c ****     for(i = 0; i < len; i++) {
 801              		.loc 1 549 0
 802 0038 7346     		mov	r3, lr
 803 003a 08E0     		b	.L61
 804              	.LVL109:
 805              	.L62:
 550:..\..\..\arduinoLCD\test\Pain Drain\libraries\lvgl\src\draw/lv_img_decoder.c **** #if LV_COLOR_DEPTH == 8 || LV_COLOR_DEPTH == 1
 551:..\..\..\arduinoLCD\test\Pain Drain\libraries\lvgl\src\draw/lv_img_decoder.c ****         buf[i * LV_IMG_PX_SIZE_ALPHA_BYTE] = bg_color.full;
 552:..\..\..\arduinoLCD\test\Pain Drain\libraries\lvgl\src\draw/lv_img_decoder.c **** #elif LV_COLOR_DEPTH == 16
 553:..\..\..\arduinoLCD\test\Pain Drain\libraries\lvgl\src\draw/lv_img_decoder.c ****         /*Because of Alpha byte 16 bit color can start on odd address which can cause crash*/
 554:..\..\..\arduinoLCD\test\Pain Drain\libraries\lvgl\src\draw/lv_img_decoder.c ****         buf[i * LV_IMG_PX_SIZE_ALPHA_BYTE] = bg_color.full & 0xFF;
 806              		.loc 1 554 0 discriminator 3
 807 003c 03EB4302 		add	r2, r3, r3, lsl #1
 808 0040 81B2     		uxth	r1, r0
 809 0042 A954     		strb	r1, [r5, r2]
 555:..\..\..\arduinoLCD\test\Pain Drain\libraries\lvgl\src\draw/lv_img_decoder.c ****         buf[i * LV_IMG_PX_SIZE_ALPHA_BYTE + 1] = (bg_color.full >> 8) & 0xFF;
 810              		.loc 1 555 0 discriminator 3
 811 0044 0132     		adds	r2, r2, #1
 812 0046 090A     		lsrs	r1, r1, #8
 813 0048 A954     		strb	r1, [r5, r2]
 549:..\..\..\arduinoLCD\test\Pain Drain\libraries\lvgl\src\draw/lv_img_decoder.c **** #if LV_COLOR_DEPTH == 8 || LV_COLOR_DEPTH == 1
 814              		.loc 1 549 0 discriminator 3
 815 004a 0133     		adds	r3, r3, #1
 816              	.LVL110:
 817 004c 1BB2     		sxth	r3, r3
 818              	.LVL111:
 819              	.L61:
 549:..\..\..\arduinoLCD\test\Pain Drain\libraries\lvgl\src\draw/lv_img_decoder.c **** #if LV_COLOR_DEPTH == 8 || LV_COLOR_DEPTH == 1
 820              		.loc 1 549 0 is_stmt 0 discriminator 1
 821 004e B342     		cmp	r3, r6
 822 0050 F4DB     		blt	.L62
 823              	.LVL112:
 556:..\..\..\arduinoLCD\test\Pain Drain\libraries\lvgl\src\draw/lv_img_decoder.c **** #elif LV_COLOR_DEPTH == 32
 557:..\..\..\arduinoLCD\test\Pain Drain\libraries\lvgl\src\draw/lv_img_decoder.c ****         *((uint32_t *)&buf[i * LV_IMG_PX_SIZE_ALPHA_BYTE]) = bg_color.full;
 558:..\..\..\arduinoLCD\test\Pain Drain\libraries\lvgl\src\draw/lv_img_decoder.c **** #else
 559:..\..\..\arduinoLCD\test\Pain Drain\libraries\lvgl\src\draw/lv_img_decoder.c **** #error "Invalid LV_COLOR_DEPTH. Check it in lv_conf.h"
 560:..\..\..\arduinoLCD\test\Pain Drain\libraries\lvgl\src\draw/lv_img_decoder.c **** #endif
 561:..\..\..\arduinoLCD\test\Pain Drain\libraries\lvgl\src\draw/lv_img_decoder.c ****     }
 562:..\..\..\arduinoLCD\test\Pain Drain\libraries\lvgl\src\draw/lv_img_decoder.c **** 
 563:..\..\..\arduinoLCD\test\Pain Drain\libraries\lvgl\src\draw/lv_img_decoder.c ****     const lv_opa_t * opa_table = NULL;
 564:..\..\..\arduinoLCD\test\Pain Drain\libraries\lvgl\src\draw/lv_img_decoder.c ****     uint8_t px_size            = lv_img_cf_get_px_size(dsc->header.cf);
 824              		.loc 1 564 0 is_stmt 1
 825 0052 387D     		ldrb	r0, [r7, #20]	@ zero_extendqisi2
 826              	.LVL113:
 827 0054 00F01F00 		and	r0, r0, #31
 828 0058 FFF7FEFF 		bl	lv_img_cf_get_px_size
 829              	.LVL114:
 830 005c 8146     		mov	r9, r0
 831              	.LVL115:
 565:..\..\..\arduinoLCD\test\Pain Drain\libraries\lvgl\src\draw/lv_img_decoder.c ****     uint16_t mask              = (1 << px_size) - 1; /*E.g. px_size = 2; mask = 0x03*/
 832              		.loc 1 565 0
 833 005e 4FF00108 		mov	r8, #1
 834 0062 08FA00F8 		lsl	r8, r8, r0
 835 0066 08F1FF38 		add	r8, r8, #-1
 836 006a 1FFA88F8 		uxth	r8, r8
 837              	.LVL116:
ARM GAS  C:\Users\haske\AppData\Local\Temp\ccHSLozV.s 			page 41


 566:..\..\..\arduinoLCD\test\Pain Drain\libraries\lvgl\src\draw/lv_img_decoder.c **** 
 567:..\..\..\arduinoLCD\test\Pain Drain\libraries\lvgl\src\draw/lv_img_decoder.c ****     lv_coord_t w = 0;
 568:..\..\..\arduinoLCD\test\Pain Drain\libraries\lvgl\src\draw/lv_img_decoder.c ****     uint32_t ofs = 0;
 569:..\..\..\arduinoLCD\test\Pain Drain\libraries\lvgl\src\draw/lv_img_decoder.c ****     int8_t pos   = 0;
 570:..\..\..\arduinoLCD\test\Pain Drain\libraries\lvgl\src\draw/lv_img_decoder.c ****     switch(dsc->header.cf) {
 838              		.loc 1 570 0
 839 006e 3B7D     		ldrb	r3, [r7, #20]	@ zero_extendqisi2
 840 0070 03F01F03 		and	r3, r3, #31
 841 0074 0B3B     		subs	r3, r3, #11
 842 0076 032B     		cmp	r3, #3
 843 0078 3ED8     		bhi	.L76
 844 007a DFE803F0 		tbb	[pc, r3]
 845              	.L65:
 846 007e 02       		.byte	(.L64-.L65)/2
 847 007f 11       		.byte	(.L66-.L65)/2
 848 0080 22       		.byte	(.L67-.L65)/2
 849 0081 32       		.byte	(.L68-.L65)/2
 850              		.p2align 1
 851              	.L64:
 571:..\..\..\arduinoLCD\test\Pain Drain\libraries\lvgl\src\draw/lv_img_decoder.c ****         case LV_IMG_CF_ALPHA_1BIT:
 572:..\..\..\arduinoLCD\test\Pain Drain\libraries\lvgl\src\draw/lv_img_decoder.c ****             w = (dsc->header.w + 7) >> 3; /*E.g. w = 20 -> w = 2 + 1*/
 852              		.loc 1 572 0
 853 0082 7B69     		ldr	r3, [r7, #20]
 854 0084 C3F38A20 		ubfx	r0, r3, #10, #11
 855              	.LVL117:
 856 0088 0730     		adds	r0, r0, #7
 857 008a C010     		asrs	r0, r0, #3
 858              	.LVL118:
 573:..\..\..\arduinoLCD\test\Pain Drain\libraries\lvgl\src\draw/lv_img_decoder.c ****             ofs += w * y + (x >> 3); /*First pixel*/
 859              		.loc 1 573 0
 860 008c 4FEAE40B 		asr	fp, r4, #3
 861 0090 0AFB00BB 		mla	fp, r10, r0, fp
 862              	.LVL119:
 574:..\..\..\arduinoLCD\test\Pain Drain\libraries\lvgl\src\draw/lv_img_decoder.c ****             pos = 7 - (x & 0x7);
 863              		.loc 1 574 0
 864 0094 E443     		mvns	r4, r4
 865 0096 04F00704 		and	r4, r4, #7
 866              	.LVL120:
 575:..\..\..\arduinoLCD\test\Pain Drain\libraries\lvgl\src\draw/lv_img_decoder.c ****             opa_table = alpha1_opa_table;
 867              		.loc 1 575 0
 868 009a 0DF1240A 		add	r10, sp, #36
 869              	.LVL121:
 576:..\..\..\arduinoLCD\test\Pain Drain\libraries\lvgl\src\draw/lv_img_decoder.c ****             break;
 870              		.loc 1 576 0
 871 009e 33E0     		b	.L63
 872              	.LVL122:
 873              	.L66:
 577:..\..\..\arduinoLCD\test\Pain Drain\libraries\lvgl\src\draw/lv_img_decoder.c ****         case LV_IMG_CF_ALPHA_2BIT:
 578:..\..\..\arduinoLCD\test\Pain Drain\libraries\lvgl\src\draw/lv_img_decoder.c ****             w = (dsc->header.w + 3) >> 2; /*E.g. w = 13 -> w = 3 + 1 (bytes)*/
 874              		.loc 1 578 0
 875 00a0 7B69     		ldr	r3, [r7, #20]
 876 00a2 C3F38A20 		ubfx	r0, r3, #10, #11
 877              	.LVL123:
 878 00a6 0330     		adds	r0, r0, #3
 879 00a8 8010     		asrs	r0, r0, #2
 880              	.LVL124:
 579:..\..\..\arduinoLCD\test\Pain Drain\libraries\lvgl\src\draw/lv_img_decoder.c ****             ofs += w * y + (x >> 2); /*First pixel*/
ARM GAS  C:\Users\haske\AppData\Local\Temp\ccHSLozV.s 			page 42


 881              		.loc 1 579 0
 882 00aa 4FEAA40B 		asr	fp, r4, #2
 883 00ae 0AFB00BB 		mla	fp, r10, r0, fp
 884              	.LVL125:
 580:..\..\..\arduinoLCD\test\Pain Drain\libraries\lvgl\src\draw/lv_img_decoder.c ****             pos = 6 - (x & 0x3) * 2;
 885              		.loc 1 580 0
 886 00b2 A4B2     		uxth	r4, r4
 887 00b4 E443     		mvns	r4, r4
 888 00b6 04F00304 		and	r4, r4, #3
 889 00ba 6400     		lsls	r4, r4, #1
 890              	.LVL126:
 581:..\..\..\arduinoLCD\test\Pain Drain\libraries\lvgl\src\draw/lv_img_decoder.c ****             opa_table = alpha2_opa_table;
 891              		.loc 1 581 0
 892 00bc 0DF1200A 		add	r10, sp, #32
 893              	.LVL127:
 582:..\..\..\arduinoLCD\test\Pain Drain\libraries\lvgl\src\draw/lv_img_decoder.c ****             break;
 894              		.loc 1 582 0
 895 00c0 22E0     		b	.L63
 896              	.LVL128:
 897              	.L67:
 583:..\..\..\arduinoLCD\test\Pain Drain\libraries\lvgl\src\draw/lv_img_decoder.c ****         case LV_IMG_CF_ALPHA_4BIT:
 584:..\..\..\arduinoLCD\test\Pain Drain\libraries\lvgl\src\draw/lv_img_decoder.c ****             w = (dsc->header.w + 1) >> 1; /*E.g. w = 13 -> w = 6 + 1 (bytes)*/
 898              		.loc 1 584 0
 899 00c2 7B69     		ldr	r3, [r7, #20]
 900 00c4 C3F38A20 		ubfx	r0, r3, #10, #11
 901              	.LVL129:
 902 00c8 0130     		adds	r0, r0, #1
 903 00ca 4010     		asrs	r0, r0, #1
 904              	.LVL130:
 585:..\..\..\arduinoLCD\test\Pain Drain\libraries\lvgl\src\draw/lv_img_decoder.c ****             ofs += w * y + (x >> 1); /*First pixel*/
 905              		.loc 1 585 0
 906 00cc 4FEA640B 		asr	fp, r4, #1
 907 00d0 0AFB00BB 		mla	fp, r10, r0, fp
 908              	.LVL131:
 586:..\..\..\arduinoLCD\test\Pain Drain\libraries\lvgl\src\draw/lv_img_decoder.c ****             pos = 4 - (x & 0x1) * 4;
 909              		.loc 1 586 0
 910 00d4 14F0010F 		tst	r4, #1
 911 00d8 13D1     		bne	.L77
 912 00da 0424     		movs	r4, #4
 587:..\..\..\arduinoLCD\test\Pain Drain\libraries\lvgl\src\draw/lv_img_decoder.c ****             opa_table = alpha4_opa_table;
 913              		.loc 1 587 0
 914 00dc 0DF1100A 		add	r10, sp, #16
 915 00e0 12E0     		b	.L63
 916              	.LVL132:
 917              	.L68:
 588:..\..\..\arduinoLCD\test\Pain Drain\libraries\lvgl\src\draw/lv_img_decoder.c ****             break;
 589:..\..\..\arduinoLCD\test\Pain Drain\libraries\lvgl\src\draw/lv_img_decoder.c ****         case LV_IMG_CF_ALPHA_8BIT:
 590:..\..\..\arduinoLCD\test\Pain Drain\libraries\lvgl\src\draw/lv_img_decoder.c ****             w = dsc->header.w; /*E.g. x = 7 -> w = 7 (bytes)*/
 918              		.loc 1 590 0
 919 00e2 7869     		ldr	r0, [r7, #20]
 920              	.LVL133:
 921 00e4 C0F38A20 		ubfx	r0, r0, #10, #11
 922 00e8 1FFA80FB 		uxth	fp, r0
 923 00ec 00B2     		sxth	r0, r0
 924              	.LVL134:
 591:..\..\..\arduinoLCD\test\Pain Drain\libraries\lvgl\src\draw/lv_img_decoder.c ****             ofs += w * y + x;  /*First pixel*/
 925              		.loc 1 591 0
ARM GAS  C:\Users\haske\AppData\Local\Temp\ccHSLozV.s 			page 43


 926 00ee 0AFB0B4B 		mla	fp, r10, fp, r4
 927              	.LVL135:
 592:..\..\..\arduinoLCD\test\Pain Drain\libraries\lvgl\src\draw/lv_img_decoder.c ****             pos = 0;
 928              		.loc 1 592 0
 929 00f2 0024     		movs	r4, #0
 563:..\..\..\arduinoLCD\test\Pain Drain\libraries\lvgl\src\draw/lv_img_decoder.c ****     uint8_t px_size            = lv_img_cf_get_px_size(dsc->header.cf);
 930              		.loc 1 563 0
 931 00f4 A246     		mov	r10, r4
 593:..\..\..\arduinoLCD\test\Pain Drain\libraries\lvgl\src\draw/lv_img_decoder.c ****             break;
 932              		.loc 1 593 0
 933 00f6 07E0     		b	.L63
 934              	.LVL136:
 935              	.L76:
 569:..\..\..\arduinoLCD\test\Pain Drain\libraries\lvgl\src\draw/lv_img_decoder.c ****     switch(dsc->header.cf) {
 936              		.loc 1 569 0
 937 00f8 0024     		movs	r4, #0
 568:..\..\..\arduinoLCD\test\Pain Drain\libraries\lvgl\src\draw/lv_img_decoder.c ****     int8_t pos   = 0;
 938              		.loc 1 568 0
 939 00fa A346     		mov	fp, r4
 567:..\..\..\arduinoLCD\test\Pain Drain\libraries\lvgl\src\draw/lv_img_decoder.c ****     uint32_t ofs = 0;
 940              		.loc 1 567 0
 941 00fc 2046     		mov	r0, r4
 942              	.LVL137:
 563:..\..\..\arduinoLCD\test\Pain Drain\libraries\lvgl\src\draw/lv_img_decoder.c ****     uint8_t px_size            = lv_img_cf_get_px_size(dsc->header.cf);
 943              		.loc 1 563 0
 944 00fe A246     		mov	r10, r4
 945 0100 02E0     		b	.L63
 946              	.LVL138:
 947              	.L77:
 586:..\..\..\arduinoLCD\test\Pain Drain\libraries\lvgl\src\draw/lv_img_decoder.c ****             opa_table = alpha4_opa_table;
 948              		.loc 1 586 0
 949 0102 0024     		movs	r4, #0
 587:..\..\..\arduinoLCD\test\Pain Drain\libraries\lvgl\src\draw/lv_img_decoder.c ****             break;
 950              		.loc 1 587 0
 951 0104 0DF1100A 		add	r10, sp, #16
 952              	.LVL139:
 953              	.L63:
 594:..\..\..\arduinoLCD\test\Pain Drain\libraries\lvgl\src\draw/lv_img_decoder.c ****     }
 595:..\..\..\arduinoLCD\test\Pain Drain\libraries\lvgl\src\draw/lv_img_decoder.c **** 
 596:..\..\..\arduinoLCD\test\Pain Drain\libraries\lvgl\src\draw/lv_img_decoder.c ****     lv_img_decoder_built_in_data_t * user_data = dsc->user_data;
 954              		.loc 1 596 0
 955 0108 7B6A     		ldr	r3, [r7, #36]
 956 010a 0293     		str	r3, [sp, #8]
 957              	.LVL140:
 597:..\..\..\arduinoLCD\test\Pain Drain\libraries\lvgl\src\draw/lv_img_decoder.c ****     uint8_t * fs_buf = lv_mem_buf_get(w);
 958              		.loc 1 597 0
 959 010c 0390     		str	r0, [sp, #12]
 960 010e FFF7FEFF 		bl	lv_mem_buf_get
 961              	.LVL141:
 598:..\..\..\arduinoLCD\test\Pain Drain\libraries\lvgl\src\draw/lv_img_decoder.c ****     if(fs_buf == NULL) return LV_RES_INV;
 962              		.loc 1 598 0
 963 0112 0190     		str	r0, [sp, #4]
 964 0114 0028     		cmp	r0, #0
 965 0116 39D0     		beq	.L78
 966              	.LVL142:
 599:..\..\..\arduinoLCD\test\Pain Drain\libraries\lvgl\src\draw/lv_img_decoder.c **** 
 600:..\..\..\arduinoLCD\test\Pain Drain\libraries\lvgl\src\draw/lv_img_decoder.c ****     const uint8_t * data_tmp = NULL;
ARM GAS  C:\Users\haske\AppData\Local\Temp\ccHSLozV.s 			page 44


 601:..\..\..\arduinoLCD\test\Pain Drain\libraries\lvgl\src\draw/lv_img_decoder.c ****     if(dsc->src_type == LV_IMG_SRC_VARIABLE) {
 967              		.loc 1 601 0
 968 0118 3B7C     		ldrb	r3, [r7, #16]	@ zero_extendqisi2
 969 011a 23B9     		cbnz	r3, .L70
 970              	.LBB30:
 602:..\..\..\arduinoLCD\test\Pain Drain\libraries\lvgl\src\draw/lv_img_decoder.c ****         const lv_img_dsc_t * img_dsc = dsc->src;
 971              		.loc 1 602 0
 972 011c 7B68     		ldr	r3, [r7, #4]
 973              	.LVL143:
 603:..\..\..\arduinoLCD\test\Pain Drain\libraries\lvgl\src\draw/lv_img_decoder.c **** 
 604:..\..\..\arduinoLCD\test\Pain Drain\libraries\lvgl\src\draw/lv_img_decoder.c ****         data_tmp = img_dsc->data + ofs;
 974              		.loc 1 604 0
 975 011e 9B68     		ldr	r3, [r3, #8]
 976              	.LVL144:
 977 0120 9B44     		add	fp, fp, r3
 978              	.LVL145:
 979              	.L72:
 980              	.LBE30:
 981              	.LBB31:
 605:..\..\..\arduinoLCD\test\Pain Drain\libraries\lvgl\src\draw/lv_img_decoder.c ****     }
 606:..\..\..\arduinoLCD\test\Pain Drain\libraries\lvgl\src\draw/lv_img_decoder.c ****     else {
 607:..\..\..\arduinoLCD\test\Pain Drain\libraries\lvgl\src\draw/lv_img_decoder.c ****         lv_fs_seek(&user_data->f, ofs + 4, LV_FS_SEEK_SET); /*+4 to skip the header*/
 608:..\..\..\arduinoLCD\test\Pain Drain\libraries\lvgl\src\draw/lv_img_decoder.c ****         lv_fs_read(&user_data->f, fs_buf, w, NULL);
 609:..\..\..\arduinoLCD\test\Pain Drain\libraries\lvgl\src\draw/lv_img_decoder.c ****         data_tmp = fs_buf;
 610:..\..\..\arduinoLCD\test\Pain Drain\libraries\lvgl\src\draw/lv_img_decoder.c ****     }
 611:..\..\..\arduinoLCD\test\Pain Drain\libraries\lvgl\src\draw/lv_img_decoder.c **** 
 612:..\..\..\arduinoLCD\test\Pain Drain\libraries\lvgl\src\draw/lv_img_decoder.c ****     for(i = 0; i < len; i++) {
 613:..\..\..\arduinoLCD\test\Pain Drain\libraries\lvgl\src\draw/lv_img_decoder.c ****         uint8_t val_act = (*data_tmp >> pos) & mask;
 614:..\..\..\arduinoLCD\test\Pain Drain\libraries\lvgl\src\draw/lv_img_decoder.c **** 
 615:..\..\..\arduinoLCD\test\Pain Drain\libraries\lvgl\src\draw/lv_img_decoder.c ****         buf[i * LV_IMG_PX_SIZE_ALPHA_BYTE + LV_IMG_PX_SIZE_ALPHA_BYTE - 1] =
 982              		.loc 1 615 0 discriminator 1
 983 0122 0022     		movs	r2, #0
 984 0124 2BE0     		b	.L71
 985              	.LVL146:
 986              	.L70:
 987              	.LBE31:
 607:..\..\..\arduinoLCD\test\Pain Drain\libraries\lvgl\src\draw/lv_img_decoder.c ****         lv_fs_read(&user_data->f, fs_buf, w, NULL);
 988              		.loc 1 607 0
 989 0126 0022     		movs	r2, #0
 990 0128 0BF10401 		add	r1, fp, #4
 991 012c 0298     		ldr	r0, [sp, #8]
 992              	.LVL147:
 993 012e FFF7FEFF 		bl	lv_fs_seek
 994              	.LVL148:
 608:..\..\..\arduinoLCD\test\Pain Drain\libraries\lvgl\src\draw/lv_img_decoder.c ****         data_tmp = fs_buf;
 995              		.loc 1 608 0
 996 0132 0023     		movs	r3, #0
 997 0134 039A     		ldr	r2, [sp, #12]
 998 0136 DDF804B0 		ldr	fp, [sp, #4]
 999              	.LVL149:
 1000 013a 5946     		mov	r1, fp
 1001 013c 0298     		ldr	r0, [sp, #8]
 1002 013e FFF7FEFF 		bl	lv_fs_read
 1003              	.LVL150:
 1004 0142 EEE7     		b	.L72
 1005              	.LVL151:
 1006              	.L75:
ARM GAS  C:\Users\haske\AppData\Local\Temp\ccHSLozV.s 			page 45


 1007              	.LBB32:
 613:..\..\..\arduinoLCD\test\Pain Drain\libraries\lvgl\src\draw/lv_img_decoder.c **** 
 1008              		.loc 1 613 0
 1009 0144 9BF80030 		ldrb	r3, [fp]	@ zero_extendqisi2
 1010 0148 2341     		asrs	r3, r3, r4
 1011 014a 03EA0803 		and	r3, r3, r8
 1012 014e DBB2     		uxtb	r3, r3
 1013              	.LVL152:
 1014              		.loc 1 615 0
 1015 0150 02EB4201 		add	r1, r2, r2, lsl #1
 1016 0154 0231     		adds	r1, r1, #2
 616:..\..\..\arduinoLCD\test\Pain Drain\libraries\lvgl\src\draw/lv_img_decoder.c ****             dsc->header.cf == LV_IMG_CF_ALPHA_8BIT ? val_act : opa_table[val_act];
 1017              		.loc 1 616 0
 1018 0156 387D     		ldrb	r0, [r7, #20]	@ zero_extendqisi2
 1019 0158 00F01F00 		and	r0, r0, #31
 615:..\..\..\arduinoLCD\test\Pain Drain\libraries\lvgl\src\draw/lv_img_decoder.c ****             dsc->header.cf == LV_IMG_CF_ALPHA_8BIT ? val_act : opa_table[val_act];
 1020              		.loc 1 615 0
 1021 015c 0E28     		cmp	r0, #14
 1022 015e 01D0     		beq	.L73
 615:..\..\..\arduinoLCD\test\Pain Drain\libraries\lvgl\src\draw/lv_img_decoder.c ****             dsc->header.cf == LV_IMG_CF_ALPHA_8BIT ? val_act : opa_table[val_act];
 1023              		.loc 1 615 0 is_stmt 0 discriminator 1
 1024 0160 1AF80330 		ldrb	r3, [r10, r3]	@ zero_extendqisi2
 1025              	.LVL153:
 1026              	.L73:
 615:..\..\..\arduinoLCD\test\Pain Drain\libraries\lvgl\src\draw/lv_img_decoder.c ****             dsc->header.cf == LV_IMG_CF_ALPHA_8BIT ? val_act : opa_table[val_act];
 1027              		.loc 1 615 0 discriminator 4
 1028 0164 6B54     		strb	r3, [r5, r1]
 1029              	.LVL154:
 617:..\..\..\arduinoLCD\test\Pain Drain\libraries\lvgl\src\draw/lv_img_decoder.c **** 
 618:..\..\..\arduinoLCD\test\Pain Drain\libraries\lvgl\src\draw/lv_img_decoder.c ****         pos -= px_size;
 1030              		.loc 1 618 0 is_stmt 1 discriminator 4
 1031 0166 C9EB0404 		rsb	r4, r9, r4
 1032              	.LVL155:
 1033 016a 64B2     		sxtb	r4, r4
 1034              	.LVL156:
 619:..\..\..\arduinoLCD\test\Pain Drain\libraries\lvgl\src\draw/lv_img_decoder.c ****         if(pos < 0) {
 1035              		.loc 1 619 0 discriminator 4
 1036 016c 002C     		cmp	r4, #0
 1037 016e 04DA     		bge	.L74
 620:..\..\..\arduinoLCD\test\Pain Drain\libraries\lvgl\src\draw/lv_img_decoder.c ****             pos = 8 - px_size;
 1038              		.loc 1 620 0
 1039 0170 C9F10804 		rsb	r4, r9, #8
 1040              	.LVL157:
 1041 0174 64B2     		sxtb	r4, r4
 1042              	.LVL158:
 621:..\..\..\arduinoLCD\test\Pain Drain\libraries\lvgl\src\draw/lv_img_decoder.c ****             data_tmp++;
 1043              		.loc 1 621 0
 1044 0176 0BF1010B 		add	fp, fp, #1
 1045              	.LVL159:
 1046              	.L74:
 1047              	.LBE32:
 612:..\..\..\arduinoLCD\test\Pain Drain\libraries\lvgl\src\draw/lv_img_decoder.c ****         uint8_t val_act = (*data_tmp >> pos) & mask;
 1048              		.loc 1 612 0 discriminator 2
 1049 017a 0132     		adds	r2, r2, #1
 1050              	.LVL160:
 1051 017c 12B2     		sxth	r2, r2
 1052              	.LVL161:
ARM GAS  C:\Users\haske\AppData\Local\Temp\ccHSLozV.s 			page 46


 1053              	.L71:
 612:..\..\..\arduinoLCD\test\Pain Drain\libraries\lvgl\src\draw/lv_img_decoder.c ****         uint8_t val_act = (*data_tmp >> pos) & mask;
 1054              		.loc 1 612 0 is_stmt 0 discriminator 1
 1055 017e B242     		cmp	r2, r6
 1056 0180 E0DB     		blt	.L75
 622:..\..\..\arduinoLCD\test\Pain Drain\libraries\lvgl\src\draw/lv_img_decoder.c ****         }
 623:..\..\..\arduinoLCD\test\Pain Drain\libraries\lvgl\src\draw/lv_img_decoder.c ****     }
 624:..\..\..\arduinoLCD\test\Pain Drain\libraries\lvgl\src\draw/lv_img_decoder.c ****     lv_mem_buf_release(fs_buf);
 1057              		.loc 1 624 0 is_stmt 1
 1058 0182 0198     		ldr	r0, [sp, #4]
 1059 0184 FFF7FEFF 		bl	lv_mem_buf_release
 1060              	.LVL162:
 625:..\..\..\arduinoLCD\test\Pain Drain\libraries\lvgl\src\draw/lv_img_decoder.c ****     return LV_RES_OK;
 1061              		.loc 1 625 0
 1062 0188 0120     		movs	r0, #1
 1063 018a 00E0     		b	.L69
 1064              	.LVL163:
 1065              	.L78:
 598:..\..\..\arduinoLCD\test\Pain Drain\libraries\lvgl\src\draw/lv_img_decoder.c **** 
 1066              		.loc 1 598 0
 1067 018c 0020     		movs	r0, #0
 1068              	.LVL164:
 1069              	.L69:
 626:..\..\..\arduinoLCD\test\Pain Drain\libraries\lvgl\src\draw/lv_img_decoder.c **** }
 1070              		.loc 1 626 0
 1071 018e 0BB0     		add	sp, sp, #44
 1072              		.cfi_def_cfa_offset 36
 1073              		@ sp needed
 1074 0190 BDE8F08F 		pop	{r4, r5, r6, r7, r8, r9, r10, fp, pc}
 1075              	.LVL165:
 1076              	.L82:
 1077              		.align	2
 1078              	.L81:
 1079 0194 00000000 		.word	.LANCHOR0
 1080              		.cfi_endproc
 1081              	.LFE72:
 1082              		.size	lv_img_decoder_built_in_line_alpha, .-lv_img_decoder_built_in_line_alpha
 1083              		.section	.text.lv_img_decoder_built_in_line_indexed,"ax",%progbits
 1084              		.align	2
 1085              		.thumb
 1086              		.thumb_func
 1087              		.type	lv_img_decoder_built_in_line_indexed, %function
 1088              	lv_img_decoder_built_in_line_indexed:
 1089              	.LFB73:
 627:..\..\..\arduinoLCD\test\Pain Drain\libraries\lvgl\src\draw/lv_img_decoder.c **** 
 628:..\..\..\arduinoLCD\test\Pain Drain\libraries\lvgl\src\draw/lv_img_decoder.c **** static lv_res_t lv_img_decoder_built_in_line_indexed(lv_img_decoder_dsc_t * dsc, lv_coord_t x, lv_c
 629:..\..\..\arduinoLCD\test\Pain Drain\libraries\lvgl\src\draw/lv_img_decoder.c ****                                                      lv_coord_t len, uint8_t * buf)
 630:..\..\..\arduinoLCD\test\Pain Drain\libraries\lvgl\src\draw/lv_img_decoder.c **** {
 1090              		.loc 1 630 0
 1091              		.cfi_startproc
 1092              		@ args = 4, pretend = 0, frame = 8
 1093              		@ frame_needed = 0, uses_anonymous_args = 0
 1094              	.LVL166:
 1095 0000 2DE9F04F 		push	{r4, r5, r6, r7, r8, r9, r10, fp, lr}
 1096              		.cfi_def_cfa_offset 36
 1097              		.cfi_offset 4, -36
 1098              		.cfi_offset 5, -32
ARM GAS  C:\Users\haske\AppData\Local\Temp\ccHSLozV.s 			page 47


 1099              		.cfi_offset 6, -28
 1100              		.cfi_offset 7, -24
 1101              		.cfi_offset 8, -20
 1102              		.cfi_offset 9, -16
 1103              		.cfi_offset 10, -12
 1104              		.cfi_offset 11, -8
 1105              		.cfi_offset 14, -4
 1106 0004 83B0     		sub	sp, sp, #12
 1107              		.cfi_def_cfa_offset 48
 1108 0006 8246     		mov	r10, r0
 1109 0008 0C46     		mov	r4, r1
 1110 000a 1646     		mov	r6, r2
 1111 000c 9946     		mov	r9, r3
 1112 000e 0C9D     		ldr	r5, [sp, #48]
 631:..\..\..\arduinoLCD\test\Pain Drain\libraries\lvgl\src\draw/lv_img_decoder.c ****     uint8_t px_size = lv_img_cf_get_px_size(dsc->header.cf);
 1113              		.loc 1 631 0
 1114 0010 007D     		ldrb	r0, [r0, #20]	@ zero_extendqisi2
 1115              	.LVL167:
 1116 0012 00F01F00 		and	r0, r0, #31
 1117 0016 FFF7FEFF 		bl	lv_img_cf_get_px_size
 1118              	.LVL168:
 1119 001a 8046     		mov	r8, r0
 1120              	.LVL169:
 632:..\..\..\arduinoLCD\test\Pain Drain\libraries\lvgl\src\draw/lv_img_decoder.c ****     uint16_t mask   = (1 << px_size) - 1; /*E.g. px_size = 2; mask = 0x03*/
 1121              		.loc 1 632 0
 1122 001c 0127     		movs	r7, #1
 1123 001e 8740     		lsls	r7, r7, r0
 1124 0020 013F     		subs	r7, r7, #1
 1125 0022 BFB2     		uxth	r7, r7
 1126              	.LVL170:
 633:..\..\..\arduinoLCD\test\Pain Drain\libraries\lvgl\src\draw/lv_img_decoder.c **** 
 634:..\..\..\arduinoLCD\test\Pain Drain\libraries\lvgl\src\draw/lv_img_decoder.c ****     lv_coord_t w = 0;
 635:..\..\..\arduinoLCD\test\Pain Drain\libraries\lvgl\src\draw/lv_img_decoder.c ****     int8_t pos   = 0;
 636:..\..\..\arduinoLCD\test\Pain Drain\libraries\lvgl\src\draw/lv_img_decoder.c ****     uint32_t ofs = 0;
 637:..\..\..\arduinoLCD\test\Pain Drain\libraries\lvgl\src\draw/lv_img_decoder.c ****     switch(dsc->header.cf) {
 1127              		.loc 1 637 0
 1128 0024 9AF81430 		ldrb	r3, [r10, #20]	@ zero_extendqisi2
 1129 0028 03F01F03 		and	r3, r3, #31
 1130 002c 073B     		subs	r3, r3, #7
 1131 002e 032B     		cmp	r3, #3
 1132 0030 43D8     		bhi	.L96
 1133 0032 DFE803F0 		tbb	[pc, r3]
 1134              	.L86:
 1135 0036 02       		.byte	(.L85-.L86)/2
 1136 0037 12       		.byte	(.L87-.L86)/2
 1137 0038 24       		.byte	(.L88-.L86)/2
 1138 0039 35       		.byte	(.L89-.L86)/2
 1139              		.p2align 1
 1140              	.L85:
 638:..\..\..\arduinoLCD\test\Pain Drain\libraries\lvgl\src\draw/lv_img_decoder.c ****         case LV_IMG_CF_INDEXED_1BIT:
 639:..\..\..\arduinoLCD\test\Pain Drain\libraries\lvgl\src\draw/lv_img_decoder.c ****             w = (dsc->header.w + 7) >> 3; /*E.g. w = 20 -> w = 2 + 1*/
 1141              		.loc 1 639 0
 1142 003a DAF81430 		ldr	r3, [r10, #20]
 1143 003e C3F38A20 		ubfx	r0, r3, #10, #11
 1144              	.LVL171:
 1145 0042 0730     		adds	r0, r0, #7
 1146 0044 C010     		asrs	r0, r0, #3
ARM GAS  C:\Users\haske\AppData\Local\Temp\ccHSLozV.s 			page 48


 1147              	.LVL172:
 640:..\..\..\arduinoLCD\test\Pain Drain\libraries\lvgl\src\draw/lv_img_decoder.c ****             ofs += w * y + (x >> 3); /*First pixel*/
 1148              		.loc 1 640 0
 1149 0046 4FEAE40B 		asr	fp, r4, #3
 1150 004a 06FB00BB 		mla	fp, r6, r0, fp
 1151              	.LVL173:
 641:..\..\..\arduinoLCD\test\Pain Drain\libraries\lvgl\src\draw/lv_img_decoder.c ****             ofs += 8;                /*Skip the palette*/
 1152              		.loc 1 641 0
 1153 004e 0BF1080B 		add	fp, fp, #8
 1154              	.LVL174:
 642:..\..\..\arduinoLCD\test\Pain Drain\libraries\lvgl\src\draw/lv_img_decoder.c ****             pos = 7 - (x & 0x7);
 1155              		.loc 1 642 0
 1156 0052 E443     		mvns	r4, r4
 1157 0054 04F00704 		and	r4, r4, #7
 1158              	.LVL175:
 643:..\..\..\arduinoLCD\test\Pain Drain\libraries\lvgl\src\draw/lv_img_decoder.c ****             break;
 1159              		.loc 1 643 0
 1160 0058 35E0     		b	.L84
 1161              	.LVL176:
 1162              	.L87:
 644:..\..\..\arduinoLCD\test\Pain Drain\libraries\lvgl\src\draw/lv_img_decoder.c ****         case LV_IMG_CF_INDEXED_2BIT:
 645:..\..\..\arduinoLCD\test\Pain Drain\libraries\lvgl\src\draw/lv_img_decoder.c ****             w = (dsc->header.w + 3) >> 2; /*E.g. w = 13 -> w = 3 + 1 (bytes)*/
 1163              		.loc 1 645 0
 1164 005a DAF81430 		ldr	r3, [r10, #20]
 1165 005e C3F38A20 		ubfx	r0, r3, #10, #11
 1166              	.LVL177:
 1167 0062 0330     		adds	r0, r0, #3
 1168 0064 8010     		asrs	r0, r0, #2
 1169              	.LVL178:
 646:..\..\..\arduinoLCD\test\Pain Drain\libraries\lvgl\src\draw/lv_img_decoder.c ****             ofs += w * y + (x >> 2); /*First pixel*/
 1170              		.loc 1 646 0
 1171 0066 4FEAA40B 		asr	fp, r4, #2
 1172 006a 06FB00BB 		mla	fp, r6, r0, fp
 1173              	.LVL179:
 647:..\..\..\arduinoLCD\test\Pain Drain\libraries\lvgl\src\draw/lv_img_decoder.c ****             ofs += 16;               /*Skip the palette*/
 1174              		.loc 1 647 0
 1175 006e 0BF1100B 		add	fp, fp, #16
 1176              	.LVL180:
 648:..\..\..\arduinoLCD\test\Pain Drain\libraries\lvgl\src\draw/lv_img_decoder.c ****             pos = 6 - (x & 0x3) * 2;
 1177              		.loc 1 648 0
 1178 0072 A4B2     		uxth	r4, r4
 1179 0074 E443     		mvns	r4, r4
 1180 0076 04F00304 		and	r4, r4, #3
 1181 007a 6400     		lsls	r4, r4, #1
 1182              	.LVL181:
 649:..\..\..\arduinoLCD\test\Pain Drain\libraries\lvgl\src\draw/lv_img_decoder.c ****             break;
 1183              		.loc 1 649 0
 1184 007c 23E0     		b	.L84
 1185              	.LVL182:
 1186              	.L88:
 650:..\..\..\arduinoLCD\test\Pain Drain\libraries\lvgl\src\draw/lv_img_decoder.c ****         case LV_IMG_CF_INDEXED_4BIT:
 651:..\..\..\arduinoLCD\test\Pain Drain\libraries\lvgl\src\draw/lv_img_decoder.c ****             w = (dsc->header.w + 1) >> 1; /*E.g. w = 13 -> w = 6 + 1 (bytes)*/
 1187              		.loc 1 651 0
 1188 007e DAF81430 		ldr	r3, [r10, #20]
 1189 0082 C3F38A20 		ubfx	r0, r3, #10, #11
 1190              	.LVL183:
 1191 0086 0130     		adds	r0, r0, #1
ARM GAS  C:\Users\haske\AppData\Local\Temp\ccHSLozV.s 			page 49


 1192 0088 4010     		asrs	r0, r0, #1
 1193              	.LVL184:
 652:..\..\..\arduinoLCD\test\Pain Drain\libraries\lvgl\src\draw/lv_img_decoder.c ****             ofs += w * y + (x >> 1); /*First pixel*/
 1194              		.loc 1 652 0
 1195 008a 4FEA640B 		asr	fp, r4, #1
 1196 008e 06FB00BB 		mla	fp, r6, r0, fp
 1197              	.LVL185:
 653:..\..\..\arduinoLCD\test\Pain Drain\libraries\lvgl\src\draw/lv_img_decoder.c ****             ofs += 64;               /*Skip the palette*/
 1198              		.loc 1 653 0
 1199 0092 0BF1400B 		add	fp, fp, #64
 1200              	.LVL186:
 654:..\..\..\arduinoLCD\test\Pain Drain\libraries\lvgl\src\draw/lv_img_decoder.c ****             pos = 4 - (x & 0x1) * 4;
 1201              		.loc 1 654 0
 1202 0096 14F0010F 		tst	r4, #1
 1203 009a 13D1     		bne	.L97
 1204 009c 0424     		movs	r4, #4
 1205 009e 12E0     		b	.L84
 1206              	.LVL187:
 1207              	.L89:
 655:..\..\..\arduinoLCD\test\Pain Drain\libraries\lvgl\src\draw/lv_img_decoder.c ****             break;
 656:..\..\..\arduinoLCD\test\Pain Drain\libraries\lvgl\src\draw/lv_img_decoder.c ****         case LV_IMG_CF_INDEXED_8BIT:
 657:..\..\..\arduinoLCD\test\Pain Drain\libraries\lvgl\src\draw/lv_img_decoder.c ****             w = dsc->header.w; /*E.g. x = 7 -> w = 7 (bytes)*/
 1208              		.loc 1 657 0
 1209 00a0 DAF81400 		ldr	r0, [r10, #20]
 1210              	.LVL188:
 1211 00a4 C0F38A20 		ubfx	r0, r0, #10, #11
 1212 00a8 1FFA80FB 		uxth	fp, r0
 1213 00ac 00B2     		sxth	r0, r0
 1214              	.LVL189:
 658:..\..\..\arduinoLCD\test\Pain Drain\libraries\lvgl\src\draw/lv_img_decoder.c ****             ofs += w * y + x;  /*First pixel*/
 1215              		.loc 1 658 0
 1216 00ae 06FB0B4B 		mla	fp, r6, fp, r4
 1217              	.LVL190:
 659:..\..\..\arduinoLCD\test\Pain Drain\libraries\lvgl\src\draw/lv_img_decoder.c ****             ofs += 1024;       /*Skip the palette*/
 1218              		.loc 1 659 0
 1219 00b2 0BF5806B 		add	fp, fp, #1024
 1220              	.LVL191:
 660:..\..\..\arduinoLCD\test\Pain Drain\libraries\lvgl\src\draw/lv_img_decoder.c ****             pos = 0;
 1221              		.loc 1 660 0
 1222 00b6 0024     		movs	r4, #0
 661:..\..\..\arduinoLCD\test\Pain Drain\libraries\lvgl\src\draw/lv_img_decoder.c ****             break;
 1223              		.loc 1 661 0
 1224 00b8 05E0     		b	.L84
 1225              	.LVL192:
 1226              	.L96:
 636:..\..\..\arduinoLCD\test\Pain Drain\libraries\lvgl\src\draw/lv_img_decoder.c ****     switch(dsc->header.cf) {
 1227              		.loc 1 636 0
 1228 00ba 4FF0000B 		mov	fp, #0
 635:..\..\..\arduinoLCD\test\Pain Drain\libraries\lvgl\src\draw/lv_img_decoder.c ****     uint32_t ofs = 0;
 1229              		.loc 1 635 0
 1230 00be 5C46     		mov	r4, fp
 634:..\..\..\arduinoLCD\test\Pain Drain\libraries\lvgl\src\draw/lv_img_decoder.c ****     int8_t pos   = 0;
 1231              		.loc 1 634 0
 1232 00c0 5846     		mov	r0, fp
 1233              	.LVL193:
 1234 00c2 00E0     		b	.L84
 1235              	.LVL194:
ARM GAS  C:\Users\haske\AppData\Local\Temp\ccHSLozV.s 			page 50


 1236              	.L97:
 654:..\..\..\arduinoLCD\test\Pain Drain\libraries\lvgl\src\draw/lv_img_decoder.c ****             break;
 1237              		.loc 1 654 0
 1238 00c4 0024     		movs	r4, #0
 1239              	.LVL195:
 1240              	.L84:
 662:..\..\..\arduinoLCD\test\Pain Drain\libraries\lvgl\src\draw/lv_img_decoder.c ****     }
 663:..\..\..\arduinoLCD\test\Pain Drain\libraries\lvgl\src\draw/lv_img_decoder.c **** 
 664:..\..\..\arduinoLCD\test\Pain Drain\libraries\lvgl\src\draw/lv_img_decoder.c ****     lv_img_decoder_built_in_data_t * user_data = dsc->user_data;
 1241              		.loc 1 664 0
 1242 00c6 DAF82460 		ldr	r6, [r10, #36]
 1243              	.LVL196:
 665:..\..\..\arduinoLCD\test\Pain Drain\libraries\lvgl\src\draw/lv_img_decoder.c **** 
 666:..\..\..\arduinoLCD\test\Pain Drain\libraries\lvgl\src\draw/lv_img_decoder.c ****     uint8_t * fs_buf = lv_mem_buf_get(w);
 1244              		.loc 1 666 0
 1245 00ca 0190     		str	r0, [sp, #4]
 1246 00cc FFF7FEFF 		bl	lv_mem_buf_get
 1247              	.LVL197:
 667:..\..\..\arduinoLCD\test\Pain Drain\libraries\lvgl\src\draw/lv_img_decoder.c ****     if(fs_buf == NULL) return LV_RES_INV;
 1248              		.loc 1 667 0
 1249 00d0 0090     		str	r0, [sp]
 1250 00d2 0028     		cmp	r0, #0
 1251 00d4 3ED0     		beq	.L98
 1252              	.LVL198:
 668:..\..\..\arduinoLCD\test\Pain Drain\libraries\lvgl\src\draw/lv_img_decoder.c ****     const uint8_t * data_tmp = NULL;
 669:..\..\..\arduinoLCD\test\Pain Drain\libraries\lvgl\src\draw/lv_img_decoder.c ****     if(dsc->src_type == LV_IMG_SRC_VARIABLE) {
 1253              		.loc 1 669 0
 1254 00d6 9AF81030 		ldrb	r3, [r10, #16]	@ zero_extendqisi2
 1255 00da 2BB9     		cbnz	r3, .L91
 1256              	.LBB33:
 670:..\..\..\arduinoLCD\test\Pain Drain\libraries\lvgl\src\draw/lv_img_decoder.c ****         const lv_img_dsc_t * img_dsc = dsc->src;
 1257              		.loc 1 670 0
 1258 00dc DAF80430 		ldr	r3, [r10, #4]
 1259              	.LVL199:
 671:..\..\..\arduinoLCD\test\Pain Drain\libraries\lvgl\src\draw/lv_img_decoder.c ****         data_tmp                     = img_dsc->data + ofs;
 1260              		.loc 1 671 0
 1261 00e0 9B68     		ldr	r3, [r3, #8]
 1262              	.LVL200:
 1263 00e2 9B44     		add	fp, fp, r3
 1264              	.LVL201:
 1265              	.L93:
 1266              	.LBE33:
 672:..\..\..\arduinoLCD\test\Pain Drain\libraries\lvgl\src\draw/lv_img_decoder.c ****     }
 673:..\..\..\arduinoLCD\test\Pain Drain\libraries\lvgl\src\draw/lv_img_decoder.c ****     else {
 674:..\..\..\arduinoLCD\test\Pain Drain\libraries\lvgl\src\draw/lv_img_decoder.c ****         lv_fs_seek(&user_data->f, ofs + 4, LV_FS_SEEK_SET); /*+4 to skip the header*/
 675:..\..\..\arduinoLCD\test\Pain Drain\libraries\lvgl\src\draw/lv_img_decoder.c ****         lv_fs_read(&user_data->f, fs_buf, w, NULL);
 676:..\..\..\arduinoLCD\test\Pain Drain\libraries\lvgl\src\draw/lv_img_decoder.c ****         data_tmp = fs_buf;
 1267              		.loc 1 676 0 discriminator 1
 1268 00e4 0021     		movs	r1, #0
 1269 00e6 2EE0     		b	.L92
 1270              	.LVL202:
 1271              	.L91:
 674:..\..\..\arduinoLCD\test\Pain Drain\libraries\lvgl\src\draw/lv_img_decoder.c ****         lv_fs_read(&user_data->f, fs_buf, w, NULL);
 1272              		.loc 1 674 0
 1273 00e8 0022     		movs	r2, #0
 1274 00ea 0BF10401 		add	r1, fp, #4
 1275 00ee 3046     		mov	r0, r6
ARM GAS  C:\Users\haske\AppData\Local\Temp\ccHSLozV.s 			page 51


 1276              	.LVL203:
 1277 00f0 FFF7FEFF 		bl	lv_fs_seek
 1278              	.LVL204:
 675:..\..\..\arduinoLCD\test\Pain Drain\libraries\lvgl\src\draw/lv_img_decoder.c ****         data_tmp = fs_buf;
 1279              		.loc 1 675 0
 1280 00f4 0023     		movs	r3, #0
 1281 00f6 019A     		ldr	r2, [sp, #4]
 1282 00f8 DDF800B0 		ldr	fp, [sp]
 1283              	.LVL205:
 1284 00fc 5946     		mov	r1, fp
 1285 00fe 3046     		mov	r0, r6
 1286 0100 FFF7FEFF 		bl	lv_fs_read
 1287              	.LVL206:
 1288 0104 EEE7     		b	.L93
 1289              	.LVL207:
 1290              	.L95:
 1291              	.LBB34:
 677:..\..\..\arduinoLCD\test\Pain Drain\libraries\lvgl\src\draw/lv_img_decoder.c ****     }
 678:..\..\..\arduinoLCD\test\Pain Drain\libraries\lvgl\src\draw/lv_img_decoder.c **** 
 679:..\..\..\arduinoLCD\test\Pain Drain\libraries\lvgl\src\draw/lv_img_decoder.c ****     lv_coord_t i;
 680:..\..\..\arduinoLCD\test\Pain Drain\libraries\lvgl\src\draw/lv_img_decoder.c ****     for(i = 0; i < len; i++) {
 681:..\..\..\arduinoLCD\test\Pain Drain\libraries\lvgl\src\draw/lv_img_decoder.c ****         uint8_t val_act = (*data_tmp >> pos) & mask;
 1292              		.loc 1 681 0
 1293 0106 9BF80030 		ldrb	r3, [fp]	@ zero_extendqisi2
 1294 010a 2341     		asrs	r3, r3, r4
 1295 010c 3B40     		ands	r3, r3, r7
 1296 010e DBB2     		uxtb	r3, r3
 1297              	.LVL208:
 682:..\..\..\arduinoLCD\test\Pain Drain\libraries\lvgl\src\draw/lv_img_decoder.c **** 
 683:..\..\..\arduinoLCD\test\Pain Drain\libraries\lvgl\src\draw/lv_img_decoder.c ****         lv_color_t color = user_data->palette[val_act];
 1298              		.loc 1 683 0
 1299 0110 F068     		ldr	r0, [r6, #12]
 684:..\..\..\arduinoLCD\test\Pain Drain\libraries\lvgl\src\draw/lv_img_decoder.c **** #if LV_COLOR_DEPTH == 8 || LV_COLOR_DEPTH == 1
 685:..\..\..\arduinoLCD\test\Pain Drain\libraries\lvgl\src\draw/lv_img_decoder.c ****         buf[i * LV_IMG_PX_SIZE_ALPHA_BYTE] = color.full;
 686:..\..\..\arduinoLCD\test\Pain Drain\libraries\lvgl\src\draw/lv_img_decoder.c **** #elif LV_COLOR_DEPTH == 16
 687:..\..\..\arduinoLCD\test\Pain Drain\libraries\lvgl\src\draw/lv_img_decoder.c ****         /*Because of Alpha byte 16 bit color can start on odd address which can cause crash*/
 688:..\..\..\arduinoLCD\test\Pain Drain\libraries\lvgl\src\draw/lv_img_decoder.c ****         buf[i * LV_IMG_PX_SIZE_ALPHA_BYTE] = color.full & 0xFF;
 1300              		.loc 1 688 0
 1301 0112 01EB4102 		add	r2, r1, r1, lsl #1
 1302 0116 30F81300 		ldrh	r0, [r0, r3, lsl #1]
 1303 011a A854     		strb	r0, [r5, r2]
 689:..\..\..\arduinoLCD\test\Pain Drain\libraries\lvgl\src\draw/lv_img_decoder.c ****         buf[i * LV_IMG_PX_SIZE_ALPHA_BYTE + 1] = (color.full >> 8) & 0xFF;
 1304              		.loc 1 689 0
 1305 011c 02F1010E 		add	lr, r2, #1
 1306 0120 000A     		lsrs	r0, r0, #8
 1307 0122 05F80E00 		strb	r0, [r5, lr]
 690:..\..\..\arduinoLCD\test\Pain Drain\libraries\lvgl\src\draw/lv_img_decoder.c **** #elif LV_COLOR_DEPTH == 32
 691:..\..\..\arduinoLCD\test\Pain Drain\libraries\lvgl\src\draw/lv_img_decoder.c ****         *((uint32_t *)&buf[i * LV_IMG_PX_SIZE_ALPHA_BYTE]) = color.full;
 692:..\..\..\arduinoLCD\test\Pain Drain\libraries\lvgl\src\draw/lv_img_decoder.c **** #else
 693:..\..\..\arduinoLCD\test\Pain Drain\libraries\lvgl\src\draw/lv_img_decoder.c **** #error "Invalid LV_COLOR_DEPTH. Check it in lv_conf.h"
 694:..\..\..\arduinoLCD\test\Pain Drain\libraries\lvgl\src\draw/lv_img_decoder.c **** #endif
 695:..\..\..\arduinoLCD\test\Pain Drain\libraries\lvgl\src\draw/lv_img_decoder.c ****         buf[i * LV_IMG_PX_SIZE_ALPHA_BYTE + LV_IMG_PX_SIZE_ALPHA_BYTE - 1] = user_data->opa[val_act
 1308              		.loc 1 695 0
 1309 0126 0232     		adds	r2, r2, #2
 1310 0128 3069     		ldr	r0, [r6, #16]
 1311 012a C35C     		ldrb	r3, [r0, r3]	@ zero_extendqisi2
 1312              	.LVL209:
ARM GAS  C:\Users\haske\AppData\Local\Temp\ccHSLozV.s 			page 52


 1313 012c AB54     		strb	r3, [r5, r2]
 696:..\..\..\arduinoLCD\test\Pain Drain\libraries\lvgl\src\draw/lv_img_decoder.c **** 
 697:..\..\..\arduinoLCD\test\Pain Drain\libraries\lvgl\src\draw/lv_img_decoder.c ****         pos -= px_size;
 1314              		.loc 1 697 0
 1315 012e C8EB0404 		rsb	r4, r8, r4
 1316              	.LVL210:
 1317 0132 64B2     		sxtb	r4, r4
 1318              	.LVL211:
 698:..\..\..\arduinoLCD\test\Pain Drain\libraries\lvgl\src\draw/lv_img_decoder.c ****         if(pos < 0) {
 1319              		.loc 1 698 0
 1320 0134 002C     		cmp	r4, #0
 1321 0136 04DA     		bge	.L94
 699:..\..\..\arduinoLCD\test\Pain Drain\libraries\lvgl\src\draw/lv_img_decoder.c ****             pos = 8 - px_size;
 1322              		.loc 1 699 0
 1323 0138 C8F10804 		rsb	r4, r8, #8
 1324              	.LVL212:
 1325 013c 64B2     		sxtb	r4, r4
 1326              	.LVL213:
 700:..\..\..\arduinoLCD\test\Pain Drain\libraries\lvgl\src\draw/lv_img_decoder.c ****             data_tmp++;
 1327              		.loc 1 700 0
 1328 013e 0BF1010B 		add	fp, fp, #1
 1329              	.LVL214:
 1330              	.L94:
 1331              	.LBE34:
 680:..\..\..\arduinoLCD\test\Pain Drain\libraries\lvgl\src\draw/lv_img_decoder.c ****         uint8_t val_act = (*data_tmp >> pos) & mask;
 1332              		.loc 1 680 0 discriminator 2
 1333 0142 0131     		adds	r1, r1, #1
 1334              	.LVL215:
 1335 0144 09B2     		sxth	r1, r1
 1336              	.LVL216:
 1337              	.L92:
 680:..\..\..\arduinoLCD\test\Pain Drain\libraries\lvgl\src\draw/lv_img_decoder.c ****         uint8_t val_act = (*data_tmp >> pos) & mask;
 1338              		.loc 1 680 0 is_stmt 0 discriminator 1
 1339 0146 4945     		cmp	r1, r9
 1340 0148 DDDB     		blt	.L95
 701:..\..\..\arduinoLCD\test\Pain Drain\libraries\lvgl\src\draw/lv_img_decoder.c ****         }
 702:..\..\..\arduinoLCD\test\Pain Drain\libraries\lvgl\src\draw/lv_img_decoder.c ****     }
 703:..\..\..\arduinoLCD\test\Pain Drain\libraries\lvgl\src\draw/lv_img_decoder.c ****     lv_mem_buf_release(fs_buf);
 1341              		.loc 1 703 0 is_stmt 1
 1342 014a 0098     		ldr	r0, [sp]
 1343 014c FFF7FEFF 		bl	lv_mem_buf_release
 1344              	.LVL217:
 704:..\..\..\arduinoLCD\test\Pain Drain\libraries\lvgl\src\draw/lv_img_decoder.c ****     return LV_RES_OK;
 1345              		.loc 1 704 0
 1346 0150 0120     		movs	r0, #1
 1347 0152 00E0     		b	.L90
 1348              	.LVL218:
 1349              	.L98:
 667:..\..\..\arduinoLCD\test\Pain Drain\libraries\lvgl\src\draw/lv_img_decoder.c ****     const uint8_t * data_tmp = NULL;
 1350              		.loc 1 667 0
 1351 0154 0020     		movs	r0, #0
 1352              	.LVL219:
 1353              	.L90:
 705:..\..\..\arduinoLCD\test\Pain Drain\libraries\lvgl\src\draw/lv_img_decoder.c **** }
 1354              		.loc 1 705 0
 1355 0156 03B0     		add	sp, sp, #12
 1356              		.cfi_def_cfa_offset 36
ARM GAS  C:\Users\haske\AppData\Local\Temp\ccHSLozV.s 			page 53


 1357              	.LVL220:
 1358              		@ sp needed
 1359 0158 BDE8F08F 		pop	{r4, r5, r6, r7, r8, r9, r10, fp, pc}
 1360              		.cfi_endproc
 1361              	.LFE73:
 1362              		.size	lv_img_decoder_built_in_line_indexed, .-lv_img_decoder_built_in_line_indexed
 1363              		.section	.text.lv_img_decoder_built_in_read_line,"ax",%progbits
 1364              		.align	2
 1365              		.global	lv_img_decoder_built_in_read_line
 1366              		.thumb
 1367              		.thumb_func
 1368              		.type	lv_img_decoder_built_in_read_line, %function
 1369              	lv_img_decoder_built_in_read_line:
 1370              	.LFB69:
 457:..\..\..\arduinoLCD\test\Pain Drain\libraries\lvgl\src\draw/lv_img_decoder.c ****     LV_UNUSED(decoder); /*Unused*/
 1371              		.loc 1 457 0
 1372              		.cfi_startproc
 1373              		@ args = 8, pretend = 0, frame = 0
 1374              		@ frame_needed = 0, uses_anonymous_args = 0
 1375              	.LVL221:
 1376 0000 30B5     		push	{r4, r5, lr}
 1377              		.cfi_def_cfa_offset 12
 1378              		.cfi_offset 4, -12
 1379              		.cfi_offset 5, -8
 1380              		.cfi_offset 14, -4
 1381 0002 83B0     		sub	sp, sp, #12
 1382              		.cfi_def_cfa_offset 24
 1383 0004 0846     		mov	r0, r1
 1384              	.LVL222:
 1385 0006 1146     		mov	r1, r2
 1386              	.LVL223:
 1387 0008 1A46     		mov	r2, r3
 1388              	.LVL224:
 1389 000a BDF91830 		ldrsh	r3, [sp, #24]
 1390              	.LVL225:
 462:..\..\..\arduinoLCD\test\Pain Drain\libraries\lvgl\src\draw/lv_img_decoder.c ****        dsc->header.cf == LV_IMG_CF_TRUE_COLOR_CHROMA_KEYED) {
 1391              		.loc 1 462 0
 1392 000e 047D     		ldrb	r4, [r0, #20]	@ zero_extendqisi2
 1393 0010 04F01F04 		and	r4, r4, #31
 1394 0014 251F     		subs	r5, r4, #4
 1395 0016 EDB2     		uxtb	r5, r5
 1396 0018 022D     		cmp	r5, #2
 1397 001a 07D8     		bhi	.L101
 466:..\..\..\arduinoLCD\test\Pain Drain\libraries\lvgl\src\draw/lv_img_decoder.c ****             res = lv_img_decoder_built_in_line_true_color(dsc, x, y, len, buf);
 1398              		.loc 1 466 0
 1399 001c 047C     		ldrb	r4, [r0, #16]	@ zero_extendqisi2
 1400 001e 012C     		cmp	r4, #1
 1401 0020 17D1     		bne	.L104
 467:..\..\..\arduinoLCD\test\Pain Drain\libraries\lvgl\src\draw/lv_img_decoder.c ****         }
 1402              		.loc 1 467 0
 1403 0022 079C     		ldr	r4, [sp, #28]
 1404 0024 0094     		str	r4, [sp]
 1405 0026 FFF7FEFF 		bl	lv_img_decoder_built_in_line_true_color
 1406              	.LVL226:
 1407 002a 15E0     		b	.L102
 1408              	.LVL227:
 1409              	.L101:
ARM GAS  C:\Users\haske\AppData\Local\Temp\ccHSLozV.s 			page 54


 471:..\..\..\arduinoLCD\test\Pain Drain\libraries\lvgl\src\draw/lv_img_decoder.c ****         res = lv_img_decoder_built_in_line_alpha(dsc, x, y, len, buf);
 1410              		.loc 1 471 0
 1411 002c A4F10B05 		sub	r5, r4, #11
 1412 0030 EDB2     		uxtb	r5, r5
 470:..\..\..\arduinoLCD\test\Pain Drain\libraries\lvgl\src\draw/lv_img_decoder.c ****             dsc->header.cf == LV_IMG_CF_ALPHA_4BIT || dsc->header.cf == LV_IMG_CF_ALPHA_8BIT) {
 1413              		.loc 1 470 0
 1414 0032 032D     		cmp	r5, #3
 1415 0034 04D8     		bhi	.L103
 472:..\..\..\arduinoLCD\test\Pain Drain\libraries\lvgl\src\draw/lv_img_decoder.c ****     }
 1416              		.loc 1 472 0
 1417 0036 079C     		ldr	r4, [sp, #28]
 1418 0038 0094     		str	r4, [sp]
 1419 003a FFF7FEFF 		bl	lv_img_decoder_built_in_line_alpha
 1420              	.LVL228:
 1421 003e 0BE0     		b	.L102
 1422              	.LVL229:
 1423              	.L103:
 475:..\..\..\arduinoLCD\test\Pain Drain\libraries\lvgl\src\draw/lv_img_decoder.c ****         res = lv_img_decoder_built_in_line_indexed(dsc, x, y, len, buf);
 1424              		.loc 1 475 0
 1425 0040 073C     		subs	r4, r4, #7
 1426 0042 E4B2     		uxtb	r4, r4
 474:..\..\..\arduinoLCD\test\Pain Drain\libraries\lvgl\src\draw/lv_img_decoder.c ****             dsc->header.cf == LV_IMG_CF_INDEXED_4BIT || dsc->header.cf == LV_IMG_CF_INDEXED_8BIT) {
 1427              		.loc 1 474 0
 1428 0044 032C     		cmp	r4, #3
 1429 0046 06D8     		bhi	.L105
 476:..\..\..\arduinoLCD\test\Pain Drain\libraries\lvgl\src\draw/lv_img_decoder.c ****     }
 1430              		.loc 1 476 0
 1431 0048 079C     		ldr	r4, [sp, #28]
 1432 004a 0094     		str	r4, [sp]
 1433 004c FFF7FEFF 		bl	lv_img_decoder_built_in_line_indexed
 1434              	.LVL230:
 1435 0050 02E0     		b	.L102
 1436              	.LVL231:
 1437              	.L104:
 460:..\..\..\arduinoLCD\test\Pain Drain\libraries\lvgl\src\draw/lv_img_decoder.c **** 
 1438              		.loc 1 460 0
 1439 0052 0020     		movs	r0, #0
 1440              	.LVL232:
 1441 0054 00E0     		b	.L102
 1442              	.LVL233:
 1443              	.L105:
 480:..\..\..\arduinoLCD\test\Pain Drain\libraries\lvgl\src\draw/lv_img_decoder.c ****     }
 1444              		.loc 1 480 0
 1445 0056 0020     		movs	r0, #0
 1446              	.LVL234:
 1447              	.L102:
 484:..\..\..\arduinoLCD\test\Pain Drain\libraries\lvgl\src\draw/lv_img_decoder.c **** 
 1448              		.loc 1 484 0
 1449 0058 03B0     		add	sp, sp, #12
 1450              		.cfi_def_cfa_offset 12
 1451              		@ sp needed
 1452 005a 30BD     		pop	{r4, r5, pc}
 1453              		.cfi_endproc
 1454              	.LFE69:
 1455              		.size	lv_img_decoder_built_in_read_line, .-lv_img_decoder_built_in_read_line
 1456              		.section	.text.lv_img_decoder_get_info,"ax",%progbits
 1457              		.align	2
ARM GAS  C:\Users\haske\AppData\Local\Temp\ccHSLozV.s 			page 55


 1458              		.global	lv_img_decoder_get_info
 1459              		.thumb
 1460              		.thumb_func
 1461              		.type	lv_img_decoder_get_info, %function
 1462              	lv_img_decoder_get_info:
 1463              	.LFB57:
  84:..\..\..\arduinoLCD\test\Pain Drain\libraries\lvgl\src\draw/lv_img_decoder.c ****     lv_memset_00(header, sizeof(lv_img_header_t));
 1464              		.loc 1 84 0
 1465              		.cfi_startproc
 1466              		@ args = 0, pretend = 0, frame = 0
 1467              		@ frame_needed = 0, uses_anonymous_args = 0
 1468              	.LVL235:
 1469 0000 F8B5     		push	{r3, r4, r5, r6, r7, lr}
 1470              		.cfi_def_cfa_offset 24
 1471              		.cfi_offset 3, -24
 1472              		.cfi_offset 4, -20
 1473              		.cfi_offset 5, -16
 1474              		.cfi_offset 6, -12
 1475              		.cfi_offset 7, -8
 1476              		.cfi_offset 14, -4
 1477 0002 0646     		mov	r6, r0
 1478 0004 0F46     		mov	r7, r1
  85:..\..\..\arduinoLCD\test\Pain Drain\libraries\lvgl\src\draw/lv_img_decoder.c **** 
 1479              		.loc 1 85 0
 1480 0006 0421     		movs	r1, #4
 1481              	.LVL236:
 1482 0008 3846     		mov	r0, r7
 1483              	.LVL237:
 1484 000a FFF7FEFF 		bl	lv_memset_00
 1485              	.LVL238:
  87:..\..\..\arduinoLCD\test\Pain Drain\libraries\lvgl\src\draw/lv_img_decoder.c **** 
 1486              		.loc 1 87 0
 1487 000e EEB1     		cbz	r6, .L113
  89:..\..\..\arduinoLCD\test\Pain Drain\libraries\lvgl\src\draw/lv_img_decoder.c ****     if(src_type == LV_IMG_SRC_VARIABLE) {
 1488              		.loc 1 89 0
 1489 0010 3046     		mov	r0, r6
 1490 0012 FFF7FEFF 		bl	lv_img_src_get_type
 1491              	.LVL239:
  90:..\..\..\arduinoLCD\test\Pain Drain\libraries\lvgl\src\draw/lv_img_decoder.c ****         const lv_img_dsc_t * img_dsc = src;
 1492              		.loc 1 90 0
 1493 0016 08B9     		cbnz	r0, .L109
 1494              	.LVL240:
 1495              	.LBB35:
  92:..\..\..\arduinoLCD\test\Pain Drain\libraries\lvgl\src\draw/lv_img_decoder.c ****     }
 1496              		.loc 1 92 0
 1497 0018 B368     		ldr	r3, [r6, #8]
 1498 001a CBB1     		cbz	r3, .L114
 1499              	.LVL241:
 1500              	.L109:
 1501              	.LBE35:
  97:..\..\..\arduinoLCD\test\Pain Drain\libraries\lvgl\src\draw/lv_img_decoder.c ****         if(d->info_cb) {
 1502              		.loc 1 97 0
 1503 001c 0E48     		ldr	r0, .L117
 1504              	.LVL242:
 1505 001e FFF7FEFF 		bl	_lv_ll_get_head
 1506              	.LVL243:
 1507 0022 0446     		mov	r4, r0
ARM GAS  C:\Users\haske\AppData\Local\Temp\ccHSLozV.s 			page 56


 1508              	.LVL244:
  95:..\..\..\arduinoLCD\test\Pain Drain\libraries\lvgl\src\draw/lv_img_decoder.c ****     lv_img_decoder_t * d;
 1509              		.loc 1 95 0
 1510 0024 0025     		movs	r5, #0
  97:..\..\..\arduinoLCD\test\Pain Drain\libraries\lvgl\src\draw/lv_img_decoder.c ****         if(d->info_cb) {
 1511              		.loc 1 97 0
 1512 0026 0DE0     		b	.L110
 1513              	.LVL245:
 1514              	.L112:
  98:..\..\..\arduinoLCD\test\Pain Drain\libraries\lvgl\src\draw/lv_img_decoder.c ****             res = d->info_cb(d, src, header);
 1515              		.loc 1 98 0
 1516 0028 2368     		ldr	r3, [r4]
 1517 002a 33B1     		cbz	r3, .L111
  99:..\..\..\arduinoLCD\test\Pain Drain\libraries\lvgl\src\draw/lv_img_decoder.c ****             if(res == LV_RES_OK) break;
 1518              		.loc 1 99 0
 1519 002c 3A46     		mov	r2, r7
 1520 002e 3146     		mov	r1, r6
 1521 0030 2046     		mov	r0, r4
 1522 0032 9847     		blx	r3
 1523              	.LVL246:
 1524 0034 0546     		mov	r5, r0
 1525              	.LVL247:
 100:..\..\..\arduinoLCD\test\Pain Drain\libraries\lvgl\src\draw/lv_img_decoder.c ****         }
 1526              		.loc 1 100 0
 1527 0036 0128     		cmp	r0, #1
 1528 0038 0CD0     		beq	.L115
 1529              	.LVL248:
 1530              	.L111:
  97:..\..\..\arduinoLCD\test\Pain Drain\libraries\lvgl\src\draw/lv_img_decoder.c ****         if(d->info_cb) {
 1531              		.loc 1 97 0 discriminator 2
 1532 003a 2146     		mov	r1, r4
 1533 003c 0648     		ldr	r0, .L117
 1534 003e FFF7FEFF 		bl	_lv_ll_get_next
 1535              	.LVL249:
 1536 0042 0446     		mov	r4, r0
 1537              	.LVL250:
 1538              	.L110:
  97:..\..\..\arduinoLCD\test\Pain Drain\libraries\lvgl\src\draw/lv_img_decoder.c ****         if(d->info_cb) {
 1539              		.loc 1 97 0 is_stmt 0 discriminator 1
 1540 0044 002C     		cmp	r4, #0
 1541 0046 EFD1     		bne	.L112
 1542 0048 2846     		mov	r0, r5
 1543              	.LVL251:
 1544 004a F8BD     		pop	{r3, r4, r5, r6, r7, pc}
 1545              	.LVL252:
 1546              	.L113:
  87:..\..\..\arduinoLCD\test\Pain Drain\libraries\lvgl\src\draw/lv_img_decoder.c **** 
 1547              		.loc 1 87 0 is_stmt 1
 1548 004c 0020     		movs	r0, #0
 1549 004e F8BD     		pop	{r3, r4, r5, r6, r7, pc}
 1550              	.LVL253:
 1551              	.L114:
 1552              	.LBB36:
  92:..\..\..\arduinoLCD\test\Pain Drain\libraries\lvgl\src\draw/lv_img_decoder.c ****     }
 1553              		.loc 1 92 0
 1554 0050 0020     		movs	r0, #0
 1555              	.LVL254:
ARM GAS  C:\Users\haske\AppData\Local\Temp\ccHSLozV.s 			page 57


 1556 0052 F8BD     		pop	{r3, r4, r5, r6, r7, pc}
 1557              	.LVL255:
 1558              	.L115:
 1559              	.LBE36:
 105:..\..\..\arduinoLCD\test\Pain Drain\libraries\lvgl\src\draw/lv_img_decoder.c **** 
 1560              		.loc 1 105 0
 1561 0054 F8BD     		pop	{r3, r4, r5, r6, r7, pc}
 1562              	.LVL256:
 1563              	.L118:
 1564 0056 00BF     		.align	2
 1565              	.L117:
 1566 0058 00000000 		.word	_lv_img_decoder_ll
 1567              		.cfi_endproc
 1568              	.LFE57:
 1569              		.size	lv_img_decoder_get_info, .-lv_img_decoder_get_info
 1570              		.section	.text.lv_img_decoder_open,"ax",%progbits
 1571              		.align	2
 1572              		.global	lv_img_decoder_open
 1573              		.thumb
 1574              		.thumb_func
 1575              		.type	lv_img_decoder_open, %function
 1576              	lv_img_decoder_open:
 1577              	.LFB58:
 108:..\..\..\arduinoLCD\test\Pain Drain\libraries\lvgl\src\draw/lv_img_decoder.c ****     lv_memset_00(dsc, sizeof(lv_img_decoder_dsc_t));
 1578              		.loc 1 108 0
 1579              		.cfi_startproc
 1580              		@ args = 0, pretend = 0, frame = 0
 1581              		@ frame_needed = 0, uses_anonymous_args = 0
 1582              	.LVL257:
 1583 0000 2DE9F041 		push	{r4, r5, r6, r7, r8, lr}
 1584              		.cfi_def_cfa_offset 24
 1585              		.cfi_offset 4, -24
 1586              		.cfi_offset 5, -20
 1587              		.cfi_offset 6, -16
 1588              		.cfi_offset 7, -12
 1589              		.cfi_offset 8, -8
 1590              		.cfi_offset 14, -4
 1591 0004 0646     		mov	r6, r0
 1592 0006 8846     		mov	r8, r1
 1593 0008 1546     		mov	r5, r2	@ movhi
 1594 000a 1C46     		mov	r4, r3
 109:..\..\..\arduinoLCD\test\Pain Drain\libraries\lvgl\src\draw/lv_img_decoder.c **** 
 1595              		.loc 1 109 0
 1596 000c 2821     		movs	r1, #40
 1597              	.LVL258:
 1598 000e FFF7FEFF 		bl	lv_memset_00
 1599              	.LVL259:
 111:..\..\..\arduinoLCD\test\Pain Drain\libraries\lvgl\src\draw/lv_img_decoder.c ****     lv_img_src_t src_type = lv_img_src_get_type(src);
 1600              		.loc 1 111 0
 1601 0012 B8F1000F 		cmp	r8, #0
 1602 0016 52D0     		beq	.L129
 112:..\..\..\arduinoLCD\test\Pain Drain\libraries\lvgl\src\draw/lv_img_decoder.c ****     if(src_type == LV_IMG_SRC_VARIABLE) {
 1603              		.loc 1 112 0
 1604 0018 4046     		mov	r0, r8
 1605 001a FFF7FEFF 		bl	lv_img_src_get_type
 1606              	.LVL260:
 113:..\..\..\arduinoLCD\test\Pain Drain\libraries\lvgl\src\draw/lv_img_decoder.c ****         const lv_img_dsc_t * img_dsc = src;
ARM GAS  C:\Users\haske\AppData\Local\Temp\ccHSLozV.s 			page 58


 1607              		.loc 1 113 0
 1608 001e 0346     		mov	r3, r0
 1609 0020 18B9     		cbnz	r0, .L121
 1610              	.LVL261:
 1611              	.LBB37:
 115:..\..\..\arduinoLCD\test\Pain Drain\libraries\lvgl\src\draw/lv_img_decoder.c ****     }
 1612              		.loc 1 115 0
 1613 0022 D8F80820 		ldr	r2, [r8, #8]
 1614 0026 002A     		cmp	r2, #0
 1615 0028 4CD0     		beq	.L130
 1616              	.LVL262:
 1617              	.L121:
 1618              	.LBE37:
 118:..\..\..\arduinoLCD\test\Pain Drain\libraries\lvgl\src\draw/lv_img_decoder.c ****     dsc->src_type = src_type;
 1619              		.loc 1 118 0
 1620 002a 3581     		strh	r5, [r6, #8]	@ movhi
 119:..\..\..\arduinoLCD\test\Pain Drain\libraries\lvgl\src\draw/lv_img_decoder.c ****     dsc->frame_id = frame_id;
 1621              		.loc 1 119 0
 1622 002c 3374     		strb	r3, [r6, #16]
 120:..\..\..\arduinoLCD\test\Pain Drain\libraries\lvgl\src\draw/lv_img_decoder.c **** 
 1623              		.loc 1 120 0
 1624 002e F460     		str	r4, [r6, #12]
 122:..\..\..\arduinoLCD\test\Pain Drain\libraries\lvgl\src\draw/lv_img_decoder.c ****         size_t fnlen = strlen(src);
 1625              		.loc 1 122 0
 1626 0030 012B     		cmp	r3, #1
 1627 0032 0ED1     		bne	.L122
 1628              	.LBB38:
 123:..\..\..\arduinoLCD\test\Pain Drain\libraries\lvgl\src\draw/lv_img_decoder.c ****         dsc->src = lv_mem_alloc(fnlen + 1);
 1629              		.loc 1 123 0
 1630 0034 4046     		mov	r0, r8
 1631              	.LVL263:
 1632 0036 FFF7FEFF 		bl	strlen
 1633              	.LVL264:
 124:..\..\..\arduinoLCD\test\Pain Drain\libraries\lvgl\src\draw/lv_img_decoder.c ****         LV_ASSERT_MALLOC(dsc->src);
 1634              		.loc 1 124 0
 1635 003a 0130     		adds	r0, r0, #1
 1636              	.LVL265:
 1637 003c FFF7FEFF 		bl	lv_mem_alloc
 1638              	.LVL266:
 1639 0040 7060     		str	r0, [r6, #4]
 125:..\..\..\arduinoLCD\test\Pain Drain\libraries\lvgl\src\draw/lv_img_decoder.c ****         if(dsc->src == NULL) {
 1640              		.loc 1 125 0
 1641 0042 00B9     		cbnz	r0, .L123
 1642              	.L124:
 1643 0044 FEE7     		b	.L124
 1644              	.L123:
 126:..\..\..\arduinoLCD\test\Pain Drain\libraries\lvgl\src\draw/lv_img_decoder.c ****             LV_LOG_WARN("lv_img_decoder_open: out of memory");
 1645              		.loc 1 126 0
 1646 0046 0028     		cmp	r0, #0
 1647 0048 3FD0     		beq	.L131
 130:..\..\..\arduinoLCD\test\Pain Drain\libraries\lvgl\src\draw/lv_img_decoder.c ****     }
 1648              		.loc 1 130 0
 1649 004a 4146     		mov	r1, r8
 1650 004c FFF7FEFF 		bl	strcpy
 1651              	.LVL267:
 1652              	.LBE38:
 1653 0050 01E0     		b	.L125
ARM GAS  C:\Users\haske\AppData\Local\Temp\ccHSLozV.s 			page 59


 1654              	.LVL268:
 1655              	.L122:
 133:..\..\..\arduinoLCD\test\Pain Drain\libraries\lvgl\src\draw/lv_img_decoder.c ****     }
 1656              		.loc 1 133 0
 1657 0052 C6F80480 		str	r8, [r6, #4]
 1658              	.LVL269:
 1659              	.L125:
 139:..\..\..\arduinoLCD\test\Pain Drain\libraries\lvgl\src\draw/lv_img_decoder.c ****         /*Info and Open callbacks are required*/
 1660              		.loc 1 139 0
 1661 0056 2148     		ldr	r0, .L135
 1662 0058 FFF7FEFF 		bl	_lv_ll_get_head
 1663              	.LVL270:
 1664 005c 0446     		mov	r4, r0
 1665              	.LVL271:
 136:..\..\..\arduinoLCD\test\Pain Drain\libraries\lvgl\src\draw/lv_img_decoder.c **** 
 1666              		.loc 1 136 0
 1667 005e 0025     		movs	r5, #0
 1668              	.LVL272:
 139:..\..\..\arduinoLCD\test\Pain Drain\libraries\lvgl\src\draw/lv_img_decoder.c ****         /*Info and Open callbacks are required*/
 1669              		.loc 1 139 0
 1670 0060 22E0     		b	.L126
 1671              	.LVL273:
 1672              	.L128:
 141:..\..\..\arduinoLCD\test\Pain Drain\libraries\lvgl\src\draw/lv_img_decoder.c **** 
 1673              		.loc 1 141 0
 1674 0062 2368     		ldr	r3, [r4]
 1675 0064 DBB1     		cbz	r3, .L127
 141:..\..\..\arduinoLCD\test\Pain Drain\libraries\lvgl\src\draw/lv_img_decoder.c **** 
 1676              		.loc 1 141 0 is_stmt 0 discriminator 2
 1677 0066 6268     		ldr	r2, [r4, #4]
 1678 0068 CAB1     		cbz	r2, .L127
 143:..\..\..\arduinoLCD\test\Pain Drain\libraries\lvgl\src\draw/lv_img_decoder.c ****         if(res != LV_RES_OK) continue;
 1679              		.loc 1 143 0 is_stmt 1
 1680 006a 06F11407 		add	r7, r6, #20
 1681 006e 3A46     		mov	r2, r7
 1682 0070 4146     		mov	r1, r8
 1683 0072 2046     		mov	r0, r4
 1684 0074 9847     		blx	r3
 1685              	.LVL274:
 1686 0076 0546     		mov	r5, r0
 1687              	.LVL275:
 144:..\..\..\arduinoLCD\test\Pain Drain\libraries\lvgl\src\draw/lv_img_decoder.c **** 
 1688              		.loc 1 144 0
 1689 0078 0128     		cmp	r0, #1
 1690 007a 10D1     		bne	.L127
 146:..\..\..\arduinoLCD\test\Pain Drain\libraries\lvgl\src\draw/lv_img_decoder.c ****         res = decoder->open_cb(decoder, dsc);
 1691              		.loc 1 146 0
 1692 007c 3460     		str	r4, [r6]
 147:..\..\..\arduinoLCD\test\Pain Drain\libraries\lvgl\src\draw/lv_img_decoder.c **** 
 1693              		.loc 1 147 0
 1694 007e 6368     		ldr	r3, [r4, #4]
 1695 0080 3146     		mov	r1, r6
 1696 0082 2046     		mov	r0, r4
 1697              	.LVL276:
 1698 0084 9847     		blx	r3
 1699              	.LVL277:
 1700 0086 0546     		mov	r5, r0
ARM GAS  C:\Users\haske\AppData\Local\Temp\ccHSLozV.s 			page 60


 1701              	.LVL278:
 150:..\..\..\arduinoLCD\test\Pain Drain\libraries\lvgl\src\draw/lv_img_decoder.c **** 
 1702              		.loc 1 150 0
 1703 0088 0128     		cmp	r0, #1
 1704 008a 21D0     		beq	.L132
 153:..\..\..\arduinoLCD\test\Pain Drain\libraries\lvgl\src\draw/lv_img_decoder.c **** 
 1705              		.loc 1 153 0
 1706 008c 0421     		movs	r1, #4
 1707 008e 3846     		mov	r0, r7
 1708              	.LVL279:
 1709 0090 FFF7FEFF 		bl	lv_memset_00
 1710              	.LVL280:
 155:..\..\..\arduinoLCD\test\Pain Drain\libraries\lvgl\src\draw/lv_img_decoder.c ****         dsc->img_data  = NULL;
 1711              		.loc 1 155 0
 1712 0094 0023     		movs	r3, #0
 1713 0096 3362     		str	r3, [r6, #32]
 156:..\..\..\arduinoLCD\test\Pain Drain\libraries\lvgl\src\draw/lv_img_decoder.c ****         dsc->user_data = NULL;
 1714              		.loc 1 156 0
 1715 0098 B361     		str	r3, [r6, #24]
 157:..\..\..\arduinoLCD\test\Pain Drain\libraries\lvgl\src\draw/lv_img_decoder.c ****         dsc->time_to_open = 0;
 1716              		.loc 1 157 0
 1717 009a 7362     		str	r3, [r6, #36]
 158:..\..\..\arduinoLCD\test\Pain Drain\libraries\lvgl\src\draw/lv_img_decoder.c ****     }
 1718              		.loc 1 158 0
 1719 009c F361     		str	r3, [r6, #28]
 1720              	.L127:
 1721              	.LVL281:
 139:..\..\..\arduinoLCD\test\Pain Drain\libraries\lvgl\src\draw/lv_img_decoder.c ****         /*Info and Open callbacks are required*/
 1722              		.loc 1 139 0 discriminator 2
 1723 009e 2146     		mov	r1, r4
 1724 00a0 0E48     		ldr	r0, .L135
 1725 00a2 FFF7FEFF 		bl	_lv_ll_get_next
 1726              	.LVL282:
 1727 00a6 0446     		mov	r4, r0
 1728              	.LVL283:
 1729              	.L126:
 139:..\..\..\arduinoLCD\test\Pain Drain\libraries\lvgl\src\draw/lv_img_decoder.c ****         /*Info and Open callbacks are required*/
 1730              		.loc 1 139 0 is_stmt 0 discriminator 1
 1731 00a8 002C     		cmp	r4, #0
 1732 00aa DAD1     		bne	.L128
 161:..\..\..\arduinoLCD\test\Pain Drain\libraries\lvgl\src\draw/lv_img_decoder.c ****         lv_mem_free((void *)dsc->src);
 1733              		.loc 1 161 0 is_stmt 1
 1734 00ac 337C     		ldrb	r3, [r6, #16]	@ zero_extendqisi2
 1735 00ae 012B     		cmp	r3, #1
 1736 00b0 10D1     		bne	.L133
 162:..\..\..\arduinoLCD\test\Pain Drain\libraries\lvgl\src\draw/lv_img_decoder.c **** 
 1737              		.loc 1 162 0
 1738 00b2 7068     		ldr	r0, [r6, #4]
 1739              	.LVL284:
 1740 00b4 FFF7FEFF 		bl	lv_mem_free
 1741              	.LVL285:
 164:..\..\..\arduinoLCD\test\Pain Drain\libraries\lvgl\src\draw/lv_img_decoder.c **** }
 1742              		.loc 1 164 0
 1743 00b8 2846     		mov	r0, r5
 1744 00ba BDE8F081 		pop	{r4, r5, r6, r7, r8, pc}
 1745              	.LVL286:
 1746              	.L129:
ARM GAS  C:\Users\haske\AppData\Local\Temp\ccHSLozV.s 			page 61


 111:..\..\..\arduinoLCD\test\Pain Drain\libraries\lvgl\src\draw/lv_img_decoder.c ****     lv_img_src_t src_type = lv_img_src_get_type(src);
 1747              		.loc 1 111 0
 1748 00be 0020     		movs	r0, #0
 1749 00c0 BDE8F081 		pop	{r4, r5, r6, r7, r8, pc}
 1750              	.LVL287:
 1751              	.L130:
 1752              	.LBB39:
 115:..\..\..\arduinoLCD\test\Pain Drain\libraries\lvgl\src\draw/lv_img_decoder.c ****     }
 1753              		.loc 1 115 0
 1754 00c4 0020     		movs	r0, #0
 1755              	.LVL288:
 1756 00c6 BDE8F081 		pop	{r4, r5, r6, r7, r8, pc}
 1757              	.LVL289:
 1758              	.L131:
 1759              	.LBE39:
 1760              	.LBB40:
 128:..\..\..\arduinoLCD\test\Pain Drain\libraries\lvgl\src\draw/lv_img_decoder.c ****         }
 1761              		.loc 1 128 0
 1762 00ca 0020     		movs	r0, #0
 1763 00cc BDE8F081 		pop	{r4, r5, r6, r7, r8, pc}
 1764              	.LVL290:
 1765              	.L132:
 1766 00d0 BDE8F081 		pop	{r4, r5, r6, r7, r8, pc}
 1767              	.LVL291:
 1768              	.L133:
 1769              	.LBE40:
 164:..\..\..\arduinoLCD\test\Pain Drain\libraries\lvgl\src\draw/lv_img_decoder.c **** }
 1770              		.loc 1 164 0
 1771 00d4 2846     		mov	r0, r5
 1772              	.LVL292:
 165:..\..\..\arduinoLCD\test\Pain Drain\libraries\lvgl\src\draw/lv_img_decoder.c **** 
 1773              		.loc 1 165 0
 1774 00d6 BDE8F081 		pop	{r4, r5, r6, r7, r8, pc}
 1775              	.LVL293:
 1776              	.L136:
 1777 00da 00BF     		.align	2
 1778              	.L135:
 1779 00dc 00000000 		.word	_lv_img_decoder_ll
 1780              		.cfi_endproc
 1781              	.LFE58:
 1782              		.size	lv_img_decoder_open, .-lv_img_decoder_open
 1783              		.section	.text.lv_img_decoder_read_line,"ax",%progbits
 1784              		.align	2
 1785              		.global	lv_img_decoder_read_line
 1786              		.thumb
 1787              		.thumb_func
 1788              		.type	lv_img_decoder_read_line, %function
 1789              	lv_img_decoder_read_line:
 1790              	.LFB59:
 177:..\..\..\arduinoLCD\test\Pain Drain\libraries\lvgl\src\draw/lv_img_decoder.c ****     lv_res_t res = LV_RES_INV;
 1791              		.loc 1 177 0
 1792              		.cfi_startproc
 1793              		@ args = 4, pretend = 0, frame = 0
 1794              		@ frame_needed = 0, uses_anonymous_args = 0
 1795              	.LVL294:
 1796 0000 70B5     		push	{r4, r5, r6, lr}
 1797              		.cfi_def_cfa_offset 16
ARM GAS  C:\Users\haske\AppData\Local\Temp\ccHSLozV.s 			page 62


 1798              		.cfi_offset 4, -16
 1799              		.cfi_offset 5, -12
 1800              		.cfi_offset 6, -8
 1801              		.cfi_offset 14, -4
 1802 0002 82B0     		sub	sp, sp, #8
 1803              		.cfi_def_cfa_offset 24
 1804              	.LVL295:
 179:..\..\..\arduinoLCD\test\Pain Drain\libraries\lvgl\src\draw/lv_img_decoder.c **** 
 1805              		.loc 1 179 0
 1806 0004 0668     		ldr	r6, [r0]
 1807 0006 B468     		ldr	r4, [r6, #8]
 1808 0008 4CB1     		cbz	r4, .L139
 1809 000a 1D46     		mov	r5, r3
 1810 000c 1346     		mov	r3, r2
 1811              	.LVL296:
 1812 000e 0A46     		mov	r2, r1
 1813              	.LVL297:
 1814 0010 0146     		mov	r1, r0
 1815              	.LVL298:
 179:..\..\..\arduinoLCD\test\Pain Drain\libraries\lvgl\src\draw/lv_img_decoder.c **** 
 1816              		.loc 1 179 0 is_stmt 0 discriminator 1
 1817 0012 0698     		ldr	r0, [sp, #24]
 1818              	.LVL299:
 1819 0014 0190     		str	r0, [sp, #4]
 1820 0016 0095     		str	r5, [sp]
 1821 0018 3046     		mov	r0, r6
 1822 001a A047     		blx	r4
 1823              	.LVL300:
 1824 001c 00E0     		b	.L138
 1825              	.LVL301:
 1826              	.L139:
 178:..\..\..\arduinoLCD\test\Pain Drain\libraries\lvgl\src\draw/lv_img_decoder.c ****     if(dsc->decoder->read_line_cb) res = dsc->decoder->read_line_cb(dsc->decoder, dsc, x, y, len, b
 1827              		.loc 1 178 0 is_stmt 1
 1828 001e 0020     		movs	r0, #0
 1829              	.LVL302:
 1830              	.L138:
 182:..\..\..\arduinoLCD\test\Pain Drain\libraries\lvgl\src\draw/lv_img_decoder.c **** 
 1831              		.loc 1 182 0
 1832 0020 02B0     		add	sp, sp, #8
 1833              		.cfi_def_cfa_offset 16
 1834              		@ sp needed
 1835 0022 70BD     		pop	{r4, r5, r6, pc}
 1836              		.cfi_endproc
 1837              	.LFE59:
 1838              		.size	lv_img_decoder_read_line, .-lv_img_decoder_read_line
 1839              		.section	.text.lv_img_decoder_close,"ax",%progbits
 1840              		.align	2
 1841              		.global	lv_img_decoder_close
 1842              		.thumb
 1843              		.thumb_func
 1844              		.type	lv_img_decoder_close, %function
 1845              	lv_img_decoder_close:
 1846              	.LFB60:
 189:..\..\..\arduinoLCD\test\Pain Drain\libraries\lvgl\src\draw/lv_img_decoder.c ****     if(dsc->decoder) {
 1847              		.loc 1 189 0
 1848              		.cfi_startproc
 1849              		@ args = 0, pretend = 0, frame = 0
ARM GAS  C:\Users\haske\AppData\Local\Temp\ccHSLozV.s 			page 63


 1850              		@ frame_needed = 0, uses_anonymous_args = 0
 1851              	.LVL303:
 190:..\..\..\arduinoLCD\test\Pain Drain\libraries\lvgl\src\draw/lv_img_decoder.c ****         if(dsc->decoder->close_cb) dsc->decoder->close_cb(dsc->decoder, dsc);
 1852              		.loc 1 190 0
 1853 0000 0368     		ldr	r3, [r0]
 1854 0002 7BB1     		cbz	r3, .L145
 189:..\..\..\arduinoLCD\test\Pain Drain\libraries\lvgl\src\draw/lv_img_decoder.c ****     if(dsc->decoder) {
 1855              		.loc 1 189 0
 1856 0004 10B5     		push	{r4, lr}
 1857              		.cfi_def_cfa_offset 8
 1858              		.cfi_offset 4, -8
 1859              		.cfi_offset 14, -4
 1860 0006 0446     		mov	r4, r0
 191:..\..\..\arduinoLCD\test\Pain Drain\libraries\lvgl\src\draw/lv_img_decoder.c **** 
 1861              		.loc 1 191 0
 1862 0008 DA68     		ldr	r2, [r3, #12]
 1863 000a 12B1     		cbz	r2, .L143
 191:..\..\..\arduinoLCD\test\Pain Drain\libraries\lvgl\src\draw/lv_img_decoder.c **** 
 1864              		.loc 1 191 0 is_stmt 0 discriminator 1
 1865 000c 0146     		mov	r1, r0
 1866 000e 1846     		mov	r0, r3
 1867              	.LVL304:
 1868 0010 9047     		blx	r2
 1869              	.LVL305:
 1870              	.L143:
 193:..\..\..\arduinoLCD\test\Pain Drain\libraries\lvgl\src\draw/lv_img_decoder.c ****             lv_mem_free((void *)dsc->src);
 1871              		.loc 1 193 0 is_stmt 1
 1872 0012 237C     		ldrb	r3, [r4, #16]	@ zero_extendqisi2
 1873 0014 012B     		cmp	r3, #1
 1874 0016 04D1     		bne	.L141
 194:..\..\..\arduinoLCD\test\Pain Drain\libraries\lvgl\src\draw/lv_img_decoder.c ****             dsc->src = NULL;
 1875              		.loc 1 194 0
 1876 0018 6068     		ldr	r0, [r4, #4]
 1877 001a FFF7FEFF 		bl	lv_mem_free
 1878              	.LVL306:
 195:..\..\..\arduinoLCD\test\Pain Drain\libraries\lvgl\src\draw/lv_img_decoder.c ****         }
 1879              		.loc 1 195 0
 1880 001e 0023     		movs	r3, #0
 1881 0020 6360     		str	r3, [r4, #4]
 1882              	.L141:
 1883 0022 10BD     		pop	{r4, pc}
 1884              	.LVL307:
 1885              	.L145:
 1886              		.cfi_def_cfa_offset 0
 1887              		.cfi_restore 4
 1888              		.cfi_restore 14
 1889 0024 7047     		bx	lr
 1890              		.cfi_endproc
 1891              	.LFE60:
 1892              		.size	lv_img_decoder_close, .-lv_img_decoder_close
 1893 0026 00BF     		.section	.text.lv_img_decoder_create,"ax",%progbits
 1894              		.align	2
 1895              		.global	lv_img_decoder_create
 1896              		.thumb
 1897              		.thumb_func
 1898              		.type	lv_img_decoder_create, %function
 1899              	lv_img_decoder_create:
ARM GAS  C:\Users\haske\AppData\Local\Temp\ccHSLozV.s 			page 64


 1900              	.LFB61:
 205:..\..\..\arduinoLCD\test\Pain Drain\libraries\lvgl\src\draw/lv_img_decoder.c ****     lv_img_decoder_t * decoder;
 1901              		.loc 1 205 0
 1902              		.cfi_startproc
 1903              		@ args = 0, pretend = 0, frame = 0
 1904              		@ frame_needed = 0, uses_anonymous_args = 0
 1905 0000 10B5     		push	{r4, lr}
 1906              		.cfi_def_cfa_offset 8
 1907              		.cfi_offset 4, -8
 1908              		.cfi_offset 14, -4
 207:..\..\..\arduinoLCD\test\Pain Drain\libraries\lvgl\src\draw/lv_img_decoder.c ****     LV_ASSERT_MALLOC(decoder);
 1909              		.loc 1 207 0
 1910 0002 0748     		ldr	r0, .L152
 1911 0004 FFF7FEFF 		bl	_lv_ll_ins_head
 1912              	.LVL308:
 208:..\..\..\arduinoLCD\test\Pain Drain\libraries\lvgl\src\draw/lv_img_decoder.c ****     if(decoder == NULL) return NULL;
 1913              		.loc 1 208 0
 1914 0008 00B9     		cbnz	r0, .L147
 1915              	.L148:
 1916 000a FEE7     		b	.L148
 1917              	.L147:
 1918 000c 0446     		mov	r4, r0
 209:..\..\..\arduinoLCD\test\Pain Drain\libraries\lvgl\src\draw/lv_img_decoder.c **** 
 1919              		.loc 1 209 0
 1920 000e 20B1     		cbz	r0, .L150
 211:..\..\..\arduinoLCD\test\Pain Drain\libraries\lvgl\src\draw/lv_img_decoder.c **** 
 1921              		.loc 1 211 0
 1922 0010 1421     		movs	r1, #20
 1923 0012 FFF7FEFF 		bl	lv_memset_00
 1924              	.LVL309:
 213:..\..\..\arduinoLCD\test\Pain Drain\libraries\lvgl\src\draw/lv_img_decoder.c **** }
 1925              		.loc 1 213 0
 1926 0016 2046     		mov	r0, r4
 1927 0018 10BD     		pop	{r4, pc}
 1928              	.LVL310:
 1929              	.L150:
 209:..\..\..\arduinoLCD\test\Pain Drain\libraries\lvgl\src\draw/lv_img_decoder.c **** 
 1930              		.loc 1 209 0
 1931 001a 0020     		movs	r0, #0
 1932              	.LVL311:
 214:..\..\..\arduinoLCD\test\Pain Drain\libraries\lvgl\src\draw/lv_img_decoder.c **** 
 1933              		.loc 1 214 0
 1934 001c 10BD     		pop	{r4, pc}
 1935              	.LVL312:
 1936              	.L153:
 1937 001e 00BF     		.align	2
 1938              	.L152:
 1939 0020 00000000 		.word	_lv_img_decoder_ll
 1940              		.cfi_endproc
 1941              	.LFE61:
 1942              		.size	lv_img_decoder_create, .-lv_img_decoder_create
 1943              		.section	.text.lv_img_decoder_delete,"ax",%progbits
 1944              		.align	2
 1945              		.global	lv_img_decoder_delete
 1946              		.thumb
 1947              		.thumb_func
 1948              		.type	lv_img_decoder_delete, %function
ARM GAS  C:\Users\haske\AppData\Local\Temp\ccHSLozV.s 			page 65


 1949              	lv_img_decoder_delete:
 1950              	.LFB62:
 221:..\..\..\arduinoLCD\test\Pain Drain\libraries\lvgl\src\draw/lv_img_decoder.c ****     _lv_ll_remove(&LV_GC_ROOT(_lv_img_decoder_ll), decoder);
 1951              		.loc 1 221 0
 1952              		.cfi_startproc
 1953              		@ args = 0, pretend = 0, frame = 0
 1954              		@ frame_needed = 0, uses_anonymous_args = 0
 1955              	.LVL313:
 1956 0000 10B5     		push	{r4, lr}
 1957              		.cfi_def_cfa_offset 8
 1958              		.cfi_offset 4, -8
 1959              		.cfi_offset 14, -4
 1960 0002 0446     		mov	r4, r0
 222:..\..\..\arduinoLCD\test\Pain Drain\libraries\lvgl\src\draw/lv_img_decoder.c ****     lv_mem_free(decoder);
 1961              		.loc 1 222 0
 1962 0004 0146     		mov	r1, r0
 1963 0006 0348     		ldr	r0, .L156
 1964              	.LVL314:
 1965 0008 FFF7FEFF 		bl	_lv_ll_remove
 1966              	.LVL315:
 223:..\..\..\arduinoLCD\test\Pain Drain\libraries\lvgl\src\draw/lv_img_decoder.c **** }
 1967              		.loc 1 223 0
 1968 000c 2046     		mov	r0, r4
 1969 000e FFF7FEFF 		bl	lv_mem_free
 1970              	.LVL316:
 1971 0012 10BD     		pop	{r4, pc}
 1972              	.LVL317:
 1973              	.L157:
 1974              		.align	2
 1975              	.L156:
 1976 0014 00000000 		.word	_lv_img_decoder_ll
 1977              		.cfi_endproc
 1978              	.LFE62:
 1979              		.size	lv_img_decoder_delete, .-lv_img_decoder_delete
 1980              		.section	.text.lv_img_decoder_set_info_cb,"ax",%progbits
 1981              		.align	2
 1982              		.global	lv_img_decoder_set_info_cb
 1983              		.thumb
 1984              		.thumb_func
 1985              		.type	lv_img_decoder_set_info_cb, %function
 1986              	lv_img_decoder_set_info_cb:
 1987              	.LFB63:
 232:..\..\..\arduinoLCD\test\Pain Drain\libraries\lvgl\src\draw/lv_img_decoder.c ****     decoder->info_cb = info_cb;
 1988              		.loc 1 232 0
 1989              		.cfi_startproc
 1990              		@ args = 0, pretend = 0, frame = 0
 1991              		@ frame_needed = 0, uses_anonymous_args = 0
 1992              		@ link register save eliminated.
 1993              	.LVL318:
 233:..\..\..\arduinoLCD\test\Pain Drain\libraries\lvgl\src\draw/lv_img_decoder.c **** }
 1994              		.loc 1 233 0
 1995 0000 0160     		str	r1, [r0]
 1996 0002 7047     		bx	lr
 1997              		.cfi_endproc
 1998              	.LFE63:
 1999              		.size	lv_img_decoder_set_info_cb, .-lv_img_decoder_set_info_cb
 2000              		.section	.text.lv_img_decoder_set_open_cb,"ax",%progbits
ARM GAS  C:\Users\haske\AppData\Local\Temp\ccHSLozV.s 			page 66


 2001              		.align	2
 2002              		.global	lv_img_decoder_set_open_cb
 2003              		.thumb
 2004              		.thumb_func
 2005              		.type	lv_img_decoder_set_open_cb, %function
 2006              	lv_img_decoder_set_open_cb:
 2007              	.LFB64:
 242:..\..\..\arduinoLCD\test\Pain Drain\libraries\lvgl\src\draw/lv_img_decoder.c ****     decoder->open_cb = open_cb;
 2008              		.loc 1 242 0
 2009              		.cfi_startproc
 2010              		@ args = 0, pretend = 0, frame = 0
 2011              		@ frame_needed = 0, uses_anonymous_args = 0
 2012              		@ link register save eliminated.
 2013              	.LVL319:
 243:..\..\..\arduinoLCD\test\Pain Drain\libraries\lvgl\src\draw/lv_img_decoder.c **** }
 2014              		.loc 1 243 0
 2015 0000 4160     		str	r1, [r0, #4]
 2016 0002 7047     		bx	lr
 2017              		.cfi_endproc
 2018              	.LFE64:
 2019              		.size	lv_img_decoder_set_open_cb, .-lv_img_decoder_set_open_cb
 2020              		.section	.text.lv_img_decoder_set_read_line_cb,"ax",%progbits
 2021              		.align	2
 2022              		.global	lv_img_decoder_set_read_line_cb
 2023              		.thumb
 2024              		.thumb_func
 2025              		.type	lv_img_decoder_set_read_line_cb, %function
 2026              	lv_img_decoder_set_read_line_cb:
 2027              	.LFB65:
 252:..\..\..\arduinoLCD\test\Pain Drain\libraries\lvgl\src\draw/lv_img_decoder.c ****     decoder->read_line_cb = read_line_cb;
 2028              		.loc 1 252 0
 2029              		.cfi_startproc
 2030              		@ args = 0, pretend = 0, frame = 0
 2031              		@ frame_needed = 0, uses_anonymous_args = 0
 2032              		@ link register save eliminated.
 2033              	.LVL320:
 253:..\..\..\arduinoLCD\test\Pain Drain\libraries\lvgl\src\draw/lv_img_decoder.c **** }
 2034              		.loc 1 253 0
 2035 0000 8160     		str	r1, [r0, #8]
 2036 0002 7047     		bx	lr
 2037              		.cfi_endproc
 2038              	.LFE65:
 2039              		.size	lv_img_decoder_set_read_line_cb, .-lv_img_decoder_set_read_line_cb
 2040              		.section	.text.lv_img_decoder_set_close_cb,"ax",%progbits
 2041              		.align	2
 2042              		.global	lv_img_decoder_set_close_cb
 2043              		.thumb
 2044              		.thumb_func
 2045              		.type	lv_img_decoder_set_close_cb, %function
 2046              	lv_img_decoder_set_close_cb:
 2047              	.LFB66:
 262:..\..\..\arduinoLCD\test\Pain Drain\libraries\lvgl\src\draw/lv_img_decoder.c ****     decoder->close_cb = close_cb;
 2048              		.loc 1 262 0
 2049              		.cfi_startproc
 2050              		@ args = 0, pretend = 0, frame = 0
 2051              		@ frame_needed = 0, uses_anonymous_args = 0
 2052              		@ link register save eliminated.
ARM GAS  C:\Users\haske\AppData\Local\Temp\ccHSLozV.s 			page 67


 2053              	.LVL321:
 263:..\..\..\arduinoLCD\test\Pain Drain\libraries\lvgl\src\draw/lv_img_decoder.c **** }
 2054              		.loc 1 263 0
 2055 0000 C160     		str	r1, [r0, #12]
 2056 0002 7047     		bx	lr
 2057              		.cfi_endproc
 2058              	.LFE66:
 2059              		.size	lv_img_decoder_set_close_cb, .-lv_img_decoder_set_close_cb
 2060              		.section	.text._lv_img_decoder_init,"ax",%progbits
 2061              		.align	2
 2062              		.global	_lv_img_decoder_init
 2063              		.thumb
 2064              		.thumb_func
 2065              		.type	_lv_img_decoder_init, %function
 2066              	_lv_img_decoder_init:
 2067              	.LFB56:
  57:..\..\..\arduinoLCD\test\Pain Drain\libraries\lvgl\src\draw/lv_img_decoder.c ****     _lv_ll_init(&LV_GC_ROOT(_lv_img_decoder_ll), sizeof(lv_img_decoder_t));
 2068              		.loc 1 57 0
 2069              		.cfi_startproc
 2070              		@ args = 0, pretend = 0, frame = 0
 2071              		@ frame_needed = 0, uses_anonymous_args = 0
 2072 0000 10B5     		push	{r4, lr}
 2073              		.cfi_def_cfa_offset 8
 2074              		.cfi_offset 4, -8
 2075              		.cfi_offset 14, -4
  58:..\..\..\arduinoLCD\test\Pain Drain\libraries\lvgl\src\draw/lv_img_decoder.c **** 
 2076              		.loc 1 58 0
 2077 0002 1421     		movs	r1, #20
 2078 0004 0C48     		ldr	r0, .L167
 2079 0006 FFF7FEFF 		bl	_lv_ll_init
 2080              	.LVL322:
  63:..\..\..\arduinoLCD\test\Pain Drain\libraries\lvgl\src\draw/lv_img_decoder.c ****     LV_ASSERT_MALLOC(decoder);
 2081              		.loc 1 63 0
 2082 000a FFF7FEFF 		bl	lv_img_decoder_create
 2083              	.LVL323:
  64:..\..\..\arduinoLCD\test\Pain Drain\libraries\lvgl\src\draw/lv_img_decoder.c ****     if(decoder == NULL) {
 2084              		.loc 1 64 0
 2085 000e 00B9     		cbnz	r0, .L163
 2086              	.L164:
 2087 0010 FEE7     		b	.L164
 2088              	.L163:
 2089 0012 0446     		mov	r4, r0
  65:..\..\..\arduinoLCD\test\Pain Drain\libraries\lvgl\src\draw/lv_img_decoder.c ****         LV_LOG_WARN("lv_img_decoder_init: out of memory");
 2090              		.loc 1 65 0
 2091 0014 70B1     		cbz	r0, .L162
  70:..\..\..\arduinoLCD\test\Pain Drain\libraries\lvgl\src\draw/lv_img_decoder.c ****     lv_img_decoder_set_open_cb(decoder, lv_img_decoder_built_in_open);
 2092              		.loc 1 70 0
 2093 0016 0949     		ldr	r1, .L167+4
 2094 0018 FFF7FEFF 		bl	lv_img_decoder_set_info_cb
 2095              	.LVL324:
  71:..\..\..\arduinoLCD\test\Pain Drain\libraries\lvgl\src\draw/lv_img_decoder.c ****     lv_img_decoder_set_read_line_cb(decoder, lv_img_decoder_built_in_read_line);
 2096              		.loc 1 71 0
 2097 001c 0849     		ldr	r1, .L167+8
 2098 001e 2046     		mov	r0, r4
 2099 0020 FFF7FEFF 		bl	lv_img_decoder_set_open_cb
 2100              	.LVL325:
  72:..\..\..\arduinoLCD\test\Pain Drain\libraries\lvgl\src\draw/lv_img_decoder.c ****     lv_img_decoder_set_close_cb(decoder, lv_img_decoder_built_in_close);
ARM GAS  C:\Users\haske\AppData\Local\Temp\ccHSLozV.s 			page 68


 2101              		.loc 1 72 0
 2102 0024 0749     		ldr	r1, .L167+12
 2103 0026 2046     		mov	r0, r4
 2104 0028 FFF7FEFF 		bl	lv_img_decoder_set_read_line_cb
 2105              	.LVL326:
  73:..\..\..\arduinoLCD\test\Pain Drain\libraries\lvgl\src\draw/lv_img_decoder.c **** }
 2106              		.loc 1 73 0
 2107 002c 0649     		ldr	r1, .L167+16
 2108 002e 2046     		mov	r0, r4
 2109 0030 FFF7FEFF 		bl	lv_img_decoder_set_close_cb
 2110              	.LVL327:
 2111              	.L162:
 2112 0034 10BD     		pop	{r4, pc}
 2113              	.LVL328:
 2114              	.L168:
 2115 0036 00BF     		.align	2
 2116              	.L167:
 2117 0038 00000000 		.word	_lv_img_decoder_ll
 2118 003c 00000000 		.word	lv_img_decoder_built_in_info
 2119 0040 00000000 		.word	lv_img_decoder_built_in_open
 2120 0044 00000000 		.word	lv_img_decoder_built_in_read_line
 2121 0048 00000000 		.word	lv_img_decoder_built_in_close
 2122              		.cfi_endproc
 2123              	.LFE56:
 2124              		.size	_lv_img_decoder_init, .-_lv_img_decoder_init
 2125              		.section	.rodata
 2126              		.align	2
 2127              		.set	.LANCHOR0,. + 0
 2128              	.LC0:
 2129 0000 00       		.byte	0
 2130 0001 55       		.byte	85
 2131 0002 AA       		.byte	-86
 2132 0003 FF       		.byte	-1
 2133              	.LC1:
 2134 0004 00       		.byte	0
 2135 0005 11       		.byte	17
 2136 0006 22       		.byte	34
 2137 0007 33       		.byte	51
 2138 0008 44       		.byte	68
 2139 0009 55       		.byte	85
 2140 000a 66       		.byte	102
 2141 000b 77       		.byte	119
 2142 000c 88       		.byte	-120
 2143 000d 99       		.byte	-103
 2144 000e AA       		.byte	-86
 2145 000f BB       		.byte	-69
 2146 0010 CC       		.byte	-52
 2147 0011 DD       		.byte	-35
 2148 0012 EE       		.byte	-18
 2149 0013 FF       		.byte	-1
 2150              		.section	.rodata.str1.4,"aMS",%progbits,1
 2151              		.align	2
 2152              	.LC2:
 2153 0000 62696E00 		.ascii	"bin\000"
 2154              		.text
 2155              	.Letext0:
 2156              		.file 4 "c:\\program files (x86)\\cypress\\psoc creator\\4.4\\psoc creator\\import\\gnu\\arm\\5.4.
ARM GAS  C:\Users\haske\AppData\Local\Temp\ccHSLozV.s 			page 69


 2157              		.file 5 "c:\\program files (x86)\\cypress\\psoc creator\\4.4\\psoc creator\\import\\gnu\\arm\\5.4.
 2158              		.file 6 "..\\..\\..\\arduinoLCD\\test\\Pain Drain\\libraries\\lvgl\\src\\draw\\../misc/lv_types.h"
 2159              		.file 7 "c:\\program files (x86)\\cypress\\psoc creator\\4.4\\psoc creator\\import\\gnu\\arm\\5.4.
 2160              		.file 8 "..\\..\\..\\arduinoLCD\\test\\Pain Drain\\libraries\\lvgl\\src\\draw\\../misc/lv_area.h"
 2161              		.file 9 "..\\..\\..\\arduinoLCD\\test\\Pain Drain\\libraries\\lvgl\\src\\draw\\lv_img_buf.h"
 2162              		.file 10 "..\\..\\..\\arduinoLCD\\test\\Pain Drain\\libraries\\lvgl\\src\\draw\\../misc/lv_fs.h"
 2163              		.file 11 "..\\..\\..\\arduinoLCD\\test\\Pain Drain\\libraries\\lvgl\\src\\draw\\lv_img_decoder.h"
 2164              		.file 12 "c:\\projects\\paindrain\\arduinolcd\\test\\pain drain\\libraries\\lvgl\\src\\font\\lv_fo
 2165              		.file 13 "..\\..\\..\\arduinoLCD\\test\\Pain Drain\\libraries\\lvgl\\src\\draw\\../misc/lv_ll.h"
 2166              		.file 14 "..\\..\\..\\arduinoLCD\\test\\Pain Drain\\libraries\\lvgl\\src\\draw\\../misc/lv_gc.h"
 2167              		.file 15 "c:\\program files (x86)\\cypress\\psoc creator\\4.4\\psoc creator\\import\\gnu\\arm\\5.4
 2168              		.file 16 "..\\..\\..\\arduinoLCD\\test\\Pain Drain\\libraries\\lvgl\\src\\draw\\../draw/lv_draw_im
 2169              		.section	.debug_info,"",%progbits
 2170              	.Ldebug_info0:
 2171 0000 C71B0000 		.4byte	0x1bc7
 2172 0004 0400     		.2byte	0x4
 2173 0006 00000000 		.4byte	.Ldebug_abbrev0
 2174 000a 04       		.byte	0x4
 2175 000b 01       		.uleb128 0x1
 2176 000c CE050000 		.4byte	.LASF231
 2177 0010 0C       		.byte	0xc
 2178 0011 560C0000 		.4byte	.LASF232
 2179 0015 440D0000 		.4byte	.LASF233
 2180 0019 C0000000 		.4byte	.Ldebug_ranges0+0xc0
 2181 001d 00000000 		.4byte	0
 2182 0021 00000000 		.4byte	.Ldebug_line0
 2183 0025 02       		.uleb128 0x2
 2184 0026 B70A0000 		.4byte	.LASF0
 2185 002a 04       		.byte	0x4
 2186 002b 1B       		.byte	0x1b
 2187 002c 30000000 		.4byte	0x30
 2188 0030 03       		.uleb128 0x3
 2189 0031 01       		.byte	0x1
 2190 0032 06       		.byte	0x6
 2191 0033 B2020000 		.4byte	.LASF2
 2192 0037 02       		.uleb128 0x2
 2193 0038 D8010000 		.4byte	.LASF1
 2194 003c 04       		.byte	0x4
 2195 003d 1D       		.byte	0x1d
 2196 003e 42000000 		.4byte	0x42
 2197 0042 03       		.uleb128 0x3
 2198 0043 01       		.byte	0x1
 2199 0044 08       		.byte	0x8
 2200 0045 09030000 		.4byte	.LASF3
 2201 0049 02       		.uleb128 0x2
 2202 004a E50B0000 		.4byte	.LASF4
 2203 004e 04       		.byte	0x4
 2204 004f 29       		.byte	0x29
 2205 0050 54000000 		.4byte	0x54
 2206 0054 03       		.uleb128 0x3
 2207 0055 02       		.byte	0x2
 2208 0056 05       		.byte	0x5
 2209 0057 B60C0000 		.4byte	.LASF5
 2210 005b 02       		.uleb128 0x2
 2211 005c DC030000 		.4byte	.LASF6
 2212 0060 04       		.byte	0x4
 2213 0061 2B       		.byte	0x2b
ARM GAS  C:\Users\haske\AppData\Local\Temp\ccHSLozV.s 			page 70


 2214 0062 66000000 		.4byte	0x66
 2215 0066 03       		.uleb128 0x3
 2216 0067 02       		.byte	0x2
 2217 0068 07       		.byte	0x7
 2218 0069 E20D0000 		.4byte	.LASF7
 2219 006d 02       		.uleb128 0x2
 2220 006e 2F0E0000 		.4byte	.LASF8
 2221 0072 04       		.byte	0x4
 2222 0073 3F       		.byte	0x3f
 2223 0074 78000000 		.4byte	0x78
 2224 0078 03       		.uleb128 0x3
 2225 0079 04       		.byte	0x4
 2226 007a 05       		.byte	0x5
 2227 007b 19020000 		.4byte	.LASF9
 2228 007f 02       		.uleb128 0x2
 2229 0080 FC060000 		.4byte	.LASF10
 2230 0084 04       		.byte	0x4
 2231 0085 41       		.byte	0x41
 2232 0086 8A000000 		.4byte	0x8a
 2233 008a 03       		.uleb128 0x3
 2234 008b 04       		.byte	0x4
 2235 008c 07       		.byte	0x7
 2236 008d 6D050000 		.4byte	.LASF11
 2237 0091 03       		.uleb128 0x3
 2238 0092 08       		.byte	0x8
 2239 0093 05       		.byte	0x5
 2240 0094 07070000 		.4byte	.LASF12
 2241 0098 03       		.uleb128 0x3
 2242 0099 08       		.byte	0x8
 2243 009a 07       		.byte	0x7
 2244 009b E20A0000 		.4byte	.LASF13
 2245 009f 04       		.uleb128 0x4
 2246 00a0 04       		.byte	0x4
 2247 00a1 05       		.byte	0x5
 2248 00a2 696E7400 		.ascii	"int\000"
 2249 00a6 03       		.uleb128 0x3
 2250 00a7 04       		.byte	0x4
 2251 00a8 07       		.byte	0x7
 2252 00a9 BF070000 		.4byte	.LASF14
 2253 00ad 02       		.uleb128 0x2
 2254 00ae 14000000 		.4byte	.LASF15
 2255 00b2 05       		.byte	0x5
 2256 00b3 14       		.byte	0x14
 2257 00b4 25000000 		.4byte	0x25
 2258 00b8 02       		.uleb128 0x2
 2259 00b9 BE020000 		.4byte	.LASF16
 2260 00bd 05       		.byte	0x5
 2261 00be 18       		.byte	0x18
 2262 00bf 37000000 		.4byte	0x37
 2263 00c3 02       		.uleb128 0x2
 2264 00c4 1D0D0000 		.4byte	.LASF17
 2265 00c8 05       		.byte	0x5
 2266 00c9 20       		.byte	0x20
 2267 00ca 49000000 		.4byte	0x49
 2268 00ce 02       		.uleb128 0x2
 2269 00cf F90A0000 		.4byte	.LASF18
 2270 00d3 05       		.byte	0x5
ARM GAS  C:\Users\haske\AppData\Local\Temp\ccHSLozV.s 			page 71


 2271 00d4 24       		.byte	0x24
 2272 00d5 5B000000 		.4byte	0x5b
 2273 00d9 02       		.uleb128 0x2
 2274 00da 91000000 		.4byte	.LASF19
 2275 00de 05       		.byte	0x5
 2276 00df 2C       		.byte	0x2c
 2277 00e0 6D000000 		.4byte	0x6d
 2278 00e4 02       		.uleb128 0x2
 2279 00e5 B40D0000 		.4byte	.LASF20
 2280 00e9 05       		.byte	0x5
 2281 00ea 30       		.byte	0x30
 2282 00eb 7F000000 		.4byte	0x7f
 2283 00ef 05       		.uleb128 0x5
 2284 00f0 01       		.byte	0x1
 2285 00f1 42000000 		.4byte	0x42
 2286 00f5 06       		.byte	0x6
 2287 00f6 2A       		.byte	0x2a
 2288 00f7 08010000 		.4byte	0x108
 2289 00fb 06       		.uleb128 0x6
 2290 00fc 94010000 		.4byte	.LASF21
 2291 0100 00       		.byte	0
 2292 0101 06       		.uleb128 0x6
 2293 0102 020B0000 		.4byte	.LASF22
 2294 0106 01       		.byte	0x1
 2295 0107 00       		.byte	0
 2296 0108 02       		.uleb128 0x2
 2297 0109 230A0000 		.4byte	.LASF23
 2298 010d 06       		.byte	0x6
 2299 010e 2F       		.byte	0x2f
 2300 010f B8000000 		.4byte	0xb8
 2301 0113 02       		.uleb128 0x2
 2302 0114 28000000 		.4byte	.LASF24
 2303 0118 07       		.byte	0x7
 2304 0119 D8       		.byte	0xd8
 2305 011a A6000000 		.4byte	0xa6
 2306 011e 03       		.uleb128 0x3
 2307 011f 08       		.byte	0x8
 2308 0120 04       		.byte	0x4
 2309 0121 430A0000 		.4byte	.LASF25
 2310 0125 03       		.uleb128 0x3
 2311 0126 04       		.byte	0x4
 2312 0127 07       		.byte	0x7
 2313 0128 35000000 		.4byte	.LASF26
 2314 012c 07       		.uleb128 0x7
 2315 012d 04       		.byte	0x4
 2316 012e 08       		.uleb128 0x8
 2317 012f 04       		.byte	0x4
 2318 0130 34010000 		.4byte	0x134
 2319 0134 03       		.uleb128 0x3
 2320 0135 01       		.byte	0x1
 2321 0136 08       		.byte	0x8
 2322 0137 85030000 		.4byte	.LASF27
 2323 013b 08       		.uleb128 0x8
 2324 013c 04       		.byte	0x4
 2325 013d 41010000 		.4byte	0x141
 2326 0141 09       		.uleb128 0x9
 2327 0142 34010000 		.4byte	0x134
ARM GAS  C:\Users\haske\AppData\Local\Temp\ccHSLozV.s 			page 72


 2328 0146 0A       		.uleb128 0xa
 2329 0147 02       		.byte	0x2
 2330 0148 03       		.byte	0x3
 2331 0149 D1       		.byte	0xd1
 2332 014a 7C010000 		.4byte	0x17c
 2333 014e 0B       		.uleb128 0xb
 2334 014f F5020000 		.4byte	.LASF28
 2335 0153 03       		.byte	0x3
 2336 0154 D3       		.byte	0xd3
 2337 0155 CE000000 		.4byte	0xce
 2338 0159 02       		.byte	0x2
 2339 015a 05       		.byte	0x5
 2340 015b 0B       		.byte	0xb
 2341 015c 00       		.byte	0
 2342 015d 0B       		.uleb128 0xb
 2343 015e BD0D0000 		.4byte	.LASF29
 2344 0162 03       		.byte	0x3
 2345 0163 D4       		.byte	0xd4
 2346 0164 CE000000 		.4byte	0xce
 2347 0168 02       		.byte	0x2
 2348 0169 06       		.byte	0x6
 2349 016a 05       		.byte	0x5
 2350 016b 00       		.byte	0
 2351 016c 0C       		.uleb128 0xc
 2352 016d 72656400 		.ascii	"red\000"
 2353 0171 03       		.byte	0x3
 2354 0172 D5       		.byte	0xd5
 2355 0173 CE000000 		.4byte	0xce
 2356 0177 02       		.byte	0x2
 2357 0178 05       		.byte	0x5
 2358 0179 00       		.byte	0
 2359 017a 00       		.byte	0
 2360 017b 00       		.byte	0
 2361 017c 0D       		.uleb128 0xd
 2362 017d 02       		.byte	0x2
 2363 017e 03       		.byte	0x3
 2364 017f D0       		.byte	0xd0
 2365 0180 9A010000 		.4byte	0x19a
 2366 0184 0E       		.uleb128 0xe
 2367 0185 636800   		.ascii	"ch\000"
 2368 0188 03       		.byte	0x3
 2369 0189 DC       		.byte	0xdc
 2370 018a 46010000 		.4byte	0x146
 2371 018e 0F       		.uleb128 0xf
 2372 018f 100C0000 		.4byte	.LASF30
 2373 0193 03       		.byte	0x3
 2374 0194 DD       		.byte	0xdd
 2375 0195 CE000000 		.4byte	0xce
 2376 0199 00       		.byte	0
 2377 019a 02       		.uleb128 0x2
 2378 019b A30C0000 		.4byte	.LASF31
 2379 019f 03       		.byte	0x3
 2380 01a0 DE       		.byte	0xde
 2381 01a1 7C010000 		.4byte	0x17c
 2382 01a5 0A       		.uleb128 0xa
 2383 01a6 04       		.byte	0x4
 2384 01a7 03       		.byte	0x3
ARM GAS  C:\Users\haske\AppData\Local\Temp\ccHSLozV.s 			page 73


 2385 01a8 E1       		.byte	0xe1
 2386 01a9 DE010000 		.4byte	0x1de
 2387 01ad 10       		.uleb128 0x10
 2388 01ae F5020000 		.4byte	.LASF28
 2389 01b2 03       		.byte	0x3
 2390 01b3 E2       		.byte	0xe2
 2391 01b4 B8000000 		.4byte	0xb8
 2392 01b8 00       		.byte	0
 2393 01b9 10       		.uleb128 0x10
 2394 01ba BD0D0000 		.4byte	.LASF29
 2395 01be 03       		.byte	0x3
 2396 01bf E3       		.byte	0xe3
 2397 01c0 B8000000 		.4byte	0xb8
 2398 01c4 01       		.byte	0x1
 2399 01c5 11       		.uleb128 0x11
 2400 01c6 72656400 		.ascii	"red\000"
 2401 01ca 03       		.byte	0x3
 2402 01cb E4       		.byte	0xe4
 2403 01cc B8000000 		.4byte	0xb8
 2404 01d0 02       		.byte	0x2
 2405 01d1 10       		.uleb128 0x10
 2406 01d2 E2010000 		.4byte	.LASF32
 2407 01d6 03       		.byte	0x3
 2408 01d7 E5       		.byte	0xe5
 2409 01d8 B8000000 		.4byte	0xb8
 2410 01dc 03       		.byte	0x3
 2411 01dd 00       		.byte	0
 2412 01de 0D       		.uleb128 0xd
 2413 01df 04       		.byte	0x4
 2414 01e0 03       		.byte	0x3
 2415 01e1 E0       		.byte	0xe0
 2416 01e2 FC010000 		.4byte	0x1fc
 2417 01e6 0E       		.uleb128 0xe
 2418 01e7 636800   		.ascii	"ch\000"
 2419 01ea 03       		.byte	0x3
 2420 01eb E6       		.byte	0xe6
 2421 01ec A5010000 		.4byte	0x1a5
 2422 01f0 0F       		.uleb128 0xf
 2423 01f1 100C0000 		.4byte	.LASF30
 2424 01f5 03       		.byte	0x3
 2425 01f6 E7       		.byte	0xe7
 2426 01f7 E4000000 		.4byte	0xe4
 2427 01fb 00       		.byte	0
 2428 01fc 02       		.uleb128 0x2
 2429 01fd 57000000 		.4byte	.LASF33
 2430 0201 03       		.byte	0x3
 2431 0202 E8       		.byte	0xe8
 2432 0203 DE010000 		.4byte	0x1de
 2433 0207 02       		.uleb128 0x2
 2434 0208 340B0000 		.4byte	.LASF34
 2435 020c 03       		.byte	0x3
 2436 020d EB       		.byte	0xeb
 2437 020e 9A010000 		.4byte	0x19a
 2438 0212 02       		.uleb128 0x2
 2439 0213 7E000000 		.4byte	.LASF35
 2440 0217 03       		.byte	0x3
 2441 0218 F5       		.byte	0xf5
ARM GAS  C:\Users\haske\AppData\Local\Temp\ccHSLozV.s 			page 74


 2442 0219 B8000000 		.4byte	0xb8
 2443 021d 02       		.uleb128 0x2
 2444 021e 000E0000 		.4byte	.LASF36
 2445 0222 08       		.byte	0x8
 2446 0223 1B       		.byte	0x1b
 2447 0224 C3000000 		.4byte	0xc3
 2448 0228 05       		.uleb128 0x5
 2449 0229 01       		.byte	0x1
 2450 022a 42000000 		.4byte	0x42
 2451 022e 09       		.byte	0x9
 2452 022f 37       		.byte	0x37
 2453 0230 19030000 		.4byte	0x319
 2454 0234 06       		.uleb128 0x6
 2455 0235 3F0B0000 		.4byte	.LASF37
 2456 0239 00       		.byte	0
 2457 023a 06       		.uleb128 0x6
 2458 023b 24030000 		.4byte	.LASF38
 2459 023f 01       		.byte	0x1
 2460 0240 06       		.uleb128 0x6
 2461 0241 840D0000 		.4byte	.LASF39
 2462 0245 02       		.byte	0x2
 2463 0246 06       		.uleb128 0x6
 2464 0247 FC080000 		.4byte	.LASF40
 2465 024b 03       		.byte	0x3
 2466 024c 06       		.uleb128 0x6
 2467 024d 9A0B0000 		.4byte	.LASF41
 2468 0251 04       		.byte	0x4
 2469 0252 06       		.uleb128 0x6
 2470 0253 D6070000 		.4byte	.LASF42
 2471 0257 05       		.byte	0x5
 2472 0258 06       		.uleb128 0x6
 2473 0259 17090000 		.4byte	.LASF43
 2474 025d 06       		.byte	0x6
 2475 025e 06       		.uleb128 0x6
 2476 025f 7D010000 		.4byte	.LASF44
 2477 0263 07       		.byte	0x7
 2478 0264 06       		.uleb128 0x6
 2479 0265 65080000 		.4byte	.LASF45
 2480 0269 08       		.byte	0x8
 2481 026a 06       		.uleb128 0x6
 2482 026b 91080000 		.4byte	.LASF46
 2483 026f 09       		.byte	0x9
 2484 0270 06       		.uleb128 0x6
 2485 0271 E5080000 		.4byte	.LASF47
 2486 0275 0A       		.byte	0xa
 2487 0276 06       		.uleb128 0x6
 2488 0277 99000000 		.4byte	.LASF48
 2489 027b 0B       		.byte	0xb
 2490 027c 06       		.uleb128 0x6
 2491 027d 88070000 		.4byte	.LASF49
 2492 0281 0C       		.byte	0xc
 2493 0282 06       		.uleb128 0x6
 2494 0283 9D070000 		.4byte	.LASF50
 2495 0287 0D       		.byte	0xd
 2496 0288 06       		.uleb128 0x6
 2497 0289 19080000 		.4byte	.LASF51
 2498 028d 0E       		.byte	0xe
ARM GAS  C:\Users\haske\AppData\Local\Temp\ccHSLozV.s 			page 75


 2499 028e 06       		.uleb128 0x6
 2500 028f A50E0000 		.4byte	.LASF52
 2501 0293 0F       		.byte	0xf
 2502 0294 06       		.uleb128 0x6
 2503 0295 49020000 		.4byte	.LASF53
 2504 0299 10       		.byte	0x10
 2505 029a 06       		.uleb128 0x6
 2506 029b BE080000 		.4byte	.LASF54
 2507 029f 11       		.byte	0x11
 2508 02a0 06       		.uleb128 0x6
 2509 02a1 FA030000 		.4byte	.LASF55
 2510 02a5 12       		.byte	0x12
 2511 02a6 06       		.uleb128 0x6
 2512 02a7 06020000 		.4byte	.LASF56
 2513 02ab 13       		.byte	0x13
 2514 02ac 06       		.uleb128 0x6
 2515 02ad 190B0000 		.4byte	.LASF57
 2516 02b1 14       		.byte	0x14
 2517 02b2 06       		.uleb128 0x6
 2518 02b3 58040000 		.4byte	.LASF58
 2519 02b7 15       		.byte	0x15
 2520 02b8 06       		.uleb128 0x6
 2521 02b9 6E040000 		.4byte	.LASF59
 2522 02bd 16       		.byte	0x16
 2523 02be 06       		.uleb128 0x6
 2524 02bf 84040000 		.4byte	.LASF60
 2525 02c3 17       		.byte	0x17
 2526 02c4 06       		.uleb128 0x6
 2527 02c5 9A040000 		.4byte	.LASF61
 2528 02c9 18       		.byte	0x18
 2529 02ca 06       		.uleb128 0x6
 2530 02cb B0040000 		.4byte	.LASF62
 2531 02cf 19       		.byte	0x19
 2532 02d0 06       		.uleb128 0x6
 2533 02d1 15050000 		.4byte	.LASF63
 2534 02d5 1A       		.byte	0x1a
 2535 02d6 06       		.uleb128 0x6
 2536 02d7 2B050000 		.4byte	.LASF64
 2537 02db 1B       		.byte	0x1b
 2538 02dc 06       		.uleb128 0x6
 2539 02dd 41050000 		.4byte	.LASF65
 2540 02e1 1C       		.byte	0x1c
 2541 02e2 06       		.uleb128 0x6
 2542 02e3 57050000 		.4byte	.LASF66
 2543 02e7 1D       		.byte	0x1d
 2544 02e8 06       		.uleb128 0x6
 2545 02e9 5B090000 		.4byte	.LASF67
 2546 02ed 1E       		.byte	0x1e
 2547 02ee 06       		.uleb128 0x6
 2548 02ef 74090000 		.4byte	.LASF68
 2549 02f3 1F       		.byte	0x1f
 2550 02f4 06       		.uleb128 0x6
 2551 02f5 8D090000 		.4byte	.LASF69
 2552 02f9 20       		.byte	0x20
 2553 02fa 06       		.uleb128 0x6
 2554 02fb A6090000 		.4byte	.LASF70
 2555 02ff 21       		.byte	0x21
ARM GAS  C:\Users\haske\AppData\Local\Temp\ccHSLozV.s 			page 76


 2556 0300 06       		.uleb128 0x6
 2557 0301 BF090000 		.4byte	.LASF71
 2558 0305 22       		.byte	0x22
 2559 0306 06       		.uleb128 0x6
 2560 0307 D8090000 		.4byte	.LASF72
 2561 030b 23       		.byte	0x23
 2562 030c 06       		.uleb128 0x6
 2563 030d F1090000 		.4byte	.LASF73
 2564 0311 24       		.byte	0x24
 2565 0312 06       		.uleb128 0x6
 2566 0313 0A0A0000 		.4byte	.LASF74
 2567 0317 25       		.byte	0x25
 2568 0318 00       		.byte	0
 2569 0319 02       		.uleb128 0x2
 2570 031a 7F050000 		.4byte	.LASF75
 2571 031e 09       		.byte	0x9
 2572 031f 69       		.byte	0x69
 2573 0320 B8000000 		.4byte	0xb8
 2574 0324 0A       		.uleb128 0xa
 2575 0325 04       		.byte	0x4
 2576 0326 09       		.byte	0x9
 2577 0327 7E       		.byte	0x7e
 2578 0328 73030000 		.4byte	0x373
 2579 032c 0C       		.uleb128 0xc
 2580 032d 636600   		.ascii	"cf\000"
 2581 0330 09       		.byte	0x9
 2582 0331 80       		.byte	0x80
 2583 0332 E4000000 		.4byte	0xe4
 2584 0336 04       		.byte	0x4
 2585 0337 05       		.byte	0x5
 2586 0338 1B       		.byte	0x1b
 2587 0339 00       		.byte	0
 2588 033a 0B       		.uleb128 0xb
 2589 033b 150E0000 		.4byte	.LASF76
 2590 033f 09       		.byte	0x9
 2591 0340 81       		.byte	0x81
 2592 0341 E4000000 		.4byte	0xe4
 2593 0345 04       		.byte	0x4
 2594 0346 03       		.byte	0x3
 2595 0347 18       		.byte	0x18
 2596 0348 00       		.byte	0
 2597 0349 0B       		.uleb128 0xb
 2598 034a CD0D0000 		.4byte	.LASF77
 2599 034e 09       		.byte	0x9
 2600 034f 84       		.byte	0x84
 2601 0350 E4000000 		.4byte	0xe4
 2602 0354 04       		.byte	0x4
 2603 0355 02       		.byte	0x2
 2604 0356 16       		.byte	0x16
 2605 0357 00       		.byte	0
 2606 0358 0C       		.uleb128 0xc
 2607 0359 7700     		.ascii	"w\000"
 2608 035b 09       		.byte	0x9
 2609 035c 86       		.byte	0x86
 2610 035d E4000000 		.4byte	0xe4
 2611 0361 04       		.byte	0x4
 2612 0362 0B       		.byte	0xb
ARM GAS  C:\Users\haske\AppData\Local\Temp\ccHSLozV.s 			page 77


 2613 0363 0B       		.byte	0xb
 2614 0364 00       		.byte	0
 2615 0365 0C       		.uleb128 0xc
 2616 0366 6800     		.ascii	"h\000"
 2617 0368 09       		.byte	0x9
 2618 0369 87       		.byte	0x87
 2619 036a E4000000 		.4byte	0xe4
 2620 036e 04       		.byte	0x4
 2621 036f 0B       		.byte	0xb
 2622 0370 00       		.byte	0
 2623 0371 00       		.byte	0
 2624 0372 00       		.byte	0
 2625 0373 02       		.uleb128 0x2
 2626 0374 FA000000 		.4byte	.LASF78
 2627 0378 09       		.byte	0x9
 2628 0379 88       		.byte	0x88
 2629 037a 24030000 		.4byte	0x324
 2630 037e 0A       		.uleb128 0xa
 2631 037f 0C       		.byte	0xc
 2632 0380 09       		.byte	0x9
 2633 0381 8D       		.byte	0x8d
 2634 0382 AB030000 		.4byte	0x3ab
 2635 0386 10       		.uleb128 0x10
 2636 0387 6C030000 		.4byte	.LASF79
 2637 038b 09       		.byte	0x9
 2638 038c 8E       		.byte	0x8e
 2639 038d 73030000 		.4byte	0x373
 2640 0391 00       		.byte	0
 2641 0392 10       		.uleb128 0x10
 2642 0393 81060000 		.4byte	.LASF80
 2643 0397 09       		.byte	0x9
 2644 0398 8F       		.byte	0x8f
 2645 0399 E4000000 		.4byte	0xe4
 2646 039d 04       		.byte	0x4
 2647 039e 10       		.uleb128 0x10
 2648 039f 830E0000 		.4byte	.LASF81
 2649 03a3 09       		.byte	0x9
 2650 03a4 90       		.byte	0x90
 2651 03a5 AB030000 		.4byte	0x3ab
 2652 03a9 08       		.byte	0x8
 2653 03aa 00       		.byte	0
 2654 03ab 08       		.uleb128 0x8
 2655 03ac 04       		.byte	0x4
 2656 03ad B1030000 		.4byte	0x3b1
 2657 03b1 09       		.uleb128 0x9
 2658 03b2 B8000000 		.4byte	0xb8
 2659 03b6 02       		.uleb128 0x2
 2660 03b7 6A0B0000 		.4byte	.LASF82
 2661 03bb 09       		.byte	0x9
 2662 03bc 91       		.byte	0x91
 2663 03bd 7E030000 		.4byte	0x37e
 2664 03c1 05       		.uleb128 0x5
 2665 03c2 01       		.byte	0x1
 2666 03c3 42000000 		.4byte	0x42
 2667 03c7 0A       		.byte	0xa
 2668 03c8 22       		.byte	0x22
 2669 03c9 1C040000 		.4byte	0x41c
ARM GAS  C:\Users\haske\AppData\Local\Temp\ccHSLozV.s 			page 78


 2670 03cd 06       		.uleb128 0x6
 2671 03ce A8080000 		.4byte	.LASF83
 2672 03d2 00       		.byte	0
 2673 03d3 06       		.uleb128 0x6
 2674 03d4 D10A0000 		.4byte	.LASF84
 2675 03d8 01       		.byte	0x1
 2676 03d9 06       		.uleb128 0x6
 2677 03da 6C010000 		.4byte	.LASF85
 2678 03de 02       		.byte	0x2
 2679 03df 06       		.uleb128 0x6
 2680 03e0 38070000 		.4byte	.LASF86
 2681 03e4 03       		.byte	0x3
 2682 03e5 06       		.uleb128 0x6
 2683 03e6 51010000 		.4byte	.LASF87
 2684 03ea 04       		.byte	0x4
 2685 03eb 06       		.uleb128 0x6
 2686 03ec 800A0000 		.4byte	.LASF88
 2687 03f0 05       		.byte	0x5
 2688 03f1 06       		.uleb128 0x6
 2689 03f2 9E060000 		.4byte	.LASF89
 2690 03f6 06       		.byte	0x6
 2691 03f7 06       		.uleb128 0x6
 2692 03f8 CD030000 		.4byte	.LASF90
 2693 03fc 07       		.byte	0x7
 2694 03fd 06       		.uleb128 0x6
 2695 03fe FA020000 		.4byte	.LASF91
 2696 0402 08       		.byte	0x8
 2697 0403 06       		.uleb128 0x6
 2698 0404 AE000000 		.4byte	.LASF92
 2699 0408 09       		.byte	0x9
 2700 0409 06       		.uleb128 0x6
 2701 040a 3B0C0000 		.4byte	.LASF93
 2702 040e 0A       		.byte	0xa
 2703 040f 06       		.uleb128 0x6
 2704 0410 00000000 		.4byte	.LASF94
 2705 0414 0B       		.byte	0xb
 2706 0415 06       		.uleb128 0x6
 2707 0416 C6010000 		.4byte	.LASF95
 2708 041a 0C       		.byte	0xc
 2709 041b 00       		.byte	0
 2710 041c 02       		.uleb128 0x2
 2711 041d D60D0000 		.4byte	.LASF96
 2712 0421 0A       		.byte	0xa
 2713 0422 31       		.byte	0x31
 2714 0423 B8000000 		.4byte	0xb8
 2715 0427 05       		.uleb128 0x5
 2716 0428 01       		.byte	0x1
 2717 0429 42000000 		.4byte	0x42
 2718 042d 0A       		.byte	0xa
 2719 042e 36       		.byte	0x36
 2720 042f 40040000 		.4byte	0x440
 2721 0433 06       		.uleb128 0x6
 2722 0434 1B040000 		.4byte	.LASF97
 2723 0438 01       		.byte	0x1
 2724 0439 06       		.uleb128 0x6
 2725 043a 3B020000 		.4byte	.LASF98
 2726 043e 02       		.byte	0x2
ARM GAS  C:\Users\haske\AppData\Local\Temp\ccHSLozV.s 			page 79


 2727 043f 00       		.byte	0
 2728 0440 02       		.uleb128 0x2
 2729 0441 2B070000 		.4byte	.LASF99
 2730 0445 0A       		.byte	0xa
 2731 0446 3A       		.byte	0x3a
 2732 0447 B8000000 		.4byte	0xb8
 2733 044b 05       		.uleb128 0x5
 2734 044c 01       		.byte	0x1
 2735 044d 42000000 		.4byte	0x42
 2736 0451 0A       		.byte	0xa
 2737 0452 40       		.byte	0x40
 2738 0453 6A040000 		.4byte	0x46a
 2739 0457 06       		.uleb128 0x6
 2740 0458 980D0000 		.4byte	.LASF100
 2741 045c 00       		.byte	0
 2742 045d 06       		.uleb128 0x6
 2743 045e 78020000 		.4byte	.LASF101
 2744 0462 01       		.byte	0x1
 2745 0463 06       		.uleb128 0x6
 2746 0464 32040000 		.4byte	.LASF102
 2747 0468 02       		.byte	0x2
 2748 0469 00       		.byte	0
 2749 046a 02       		.uleb128 0x2
 2750 046b C6040000 		.4byte	.LASF103
 2751 046f 0A       		.byte	0xa
 2752 0470 44       		.byte	0x44
 2753 0471 4B040000 		.4byte	0x44b
 2754 0475 12       		.uleb128 0x12
 2755 0476 8B060000 		.4byte	.LASF132
 2756 047a 30       		.byte	0x30
 2757 047b 0A       		.byte	0xa
 2758 047c 46       		.byte	0x46
 2759 047d 1E050000 		.4byte	0x51e
 2760 0481 10       		.uleb128 0x10
 2761 0482 3D0D0000 		.4byte	.LASF104
 2762 0486 0A       		.byte	0xa
 2763 0487 47       		.byte	0x47
 2764 0488 34010000 		.4byte	0x134
 2765 048c 00       		.byte	0
 2766 048d 10       		.uleb128 0x10
 2767 048e BB010000 		.4byte	.LASF105
 2768 0492 0A       		.byte	0xa
 2769 0493 48       		.byte	0x48
 2770 0494 CE000000 		.4byte	0xce
 2771 0498 02       		.byte	0x2
 2772 0499 10       		.uleb128 0x10
 2773 049a 12040000 		.4byte	.LASF106
 2774 049e 0A       		.byte	0xa
 2775 049f 49       		.byte	0x49
 2776 04a0 3A050000 		.4byte	0x53a
 2777 04a4 04       		.byte	0x4
 2778 04a5 10       		.uleb128 0x10
 2779 04a6 C6020000 		.4byte	.LASF107
 2780 04aa 0A       		.byte	0xa
 2781 04ab 4B       		.byte	0x4b
 2782 04ac 59050000 		.4byte	0x559
 2783 04b0 08       		.byte	0x8
ARM GAS  C:\Users\haske\AppData\Local\Temp\ccHSLozV.s 			page 80


 2784 04b1 10       		.uleb128 0x10
 2785 04b2 6A020000 		.4byte	.LASF108
 2786 04b6 0A       		.byte	0xa
 2787 04b7 4C       		.byte	0x4c
 2788 04b8 73050000 		.4byte	0x573
 2789 04bc 0C       		.byte	0xc
 2790 04bd 10       		.uleb128 0x10
 2791 04be 87020000 		.4byte	.LASF109
 2792 04c2 0A       		.byte	0xa
 2793 04c3 4D       		.byte	0x4d
 2794 04c4 A2050000 		.4byte	0x5a2
 2795 04c8 10       		.byte	0x10
 2796 04c9 10       		.uleb128 0x10
 2797 04ca 910A0000 		.4byte	.LASF110
 2798 04ce 0A       		.byte	0xa
 2799 04cf 4E       		.byte	0x4e
 2800 04d0 D2050000 		.4byte	0x5d2
 2801 04d4 14       		.byte	0x14
 2802 04d5 10       		.uleb128 0x10
 2803 04d6 22020000 		.4byte	.LASF111
 2804 04da 0A       		.byte	0xa
 2805 04db 4F       		.byte	0x4f
 2806 04dc F6050000 		.4byte	0x5f6
 2807 04e0 18       		.byte	0x18
 2808 04e1 10       		.uleb128 0x10
 2809 04e2 39090000 		.4byte	.LASF112
 2810 04e6 0A       		.byte	0xa
 2811 04e7 50       		.byte	0x50
 2812 04e8 15060000 		.4byte	0x615
 2813 04ec 1C       		.byte	0x1c
 2814 04ed 10       		.uleb128 0x10
 2815 04ee 60010000 		.4byte	.LASF113
 2816 04f2 0A       		.byte	0xa
 2817 04f3 52       		.byte	0x52
 2818 04f4 2F060000 		.4byte	0x62f
 2819 04f8 20       		.byte	0x20
 2820 04f9 10       		.uleb128 0x10
 2821 04fa 510B0000 		.4byte	.LASF114
 2822 04fe 0A       		.byte	0xa
 2823 04ff 53       		.byte	0x53
 2824 0500 4E060000 		.4byte	0x64e
 2825 0504 24       		.byte	0x24
 2826 0505 10       		.uleb128 0x10
 2827 0506 B2070000 		.4byte	.LASF115
 2828 050a 0A       		.byte	0xa
 2829 050b 54       		.byte	0x54
 2830 050c 73050000 		.4byte	0x573
 2831 0510 28       		.byte	0x28
 2832 0511 10       		.uleb128 0x10
 2833 0512 0B0E0000 		.4byte	.LASF116
 2834 0516 0A       		.byte	0xa
 2835 0517 57       		.byte	0x57
 2836 0518 2C010000 		.4byte	0x12c
 2837 051c 2C       		.byte	0x2c
 2838 051d 00       		.byte	0
 2839 051e 13       		.uleb128 0x13
 2840 051f 2D050000 		.4byte	0x52d
ARM GAS  C:\Users\haske\AppData\Local\Temp\ccHSLozV.s 			page 81


 2841 0523 2D050000 		.4byte	0x52d
 2842 0527 14       		.uleb128 0x14
 2843 0528 34050000 		.4byte	0x534
 2844 052c 00       		.byte	0
 2845 052d 03       		.uleb128 0x3
 2846 052e 01       		.byte	0x1
 2847 052f 02       		.byte	0x2
 2848 0530 73030000 		.4byte	.LASF117
 2849 0534 08       		.uleb128 0x8
 2850 0535 04       		.byte	0x4
 2851 0536 75040000 		.4byte	0x475
 2852 053a 08       		.uleb128 0x8
 2853 053b 04       		.byte	0x4
 2854 053c 1E050000 		.4byte	0x51e
 2855 0540 13       		.uleb128 0x13
 2856 0541 2C010000 		.4byte	0x12c
 2857 0545 59050000 		.4byte	0x559
 2858 0549 14       		.uleb128 0x14
 2859 054a 34050000 		.4byte	0x534
 2860 054e 14       		.uleb128 0x14
 2861 054f 3B010000 		.4byte	0x13b
 2862 0553 14       		.uleb128 0x14
 2863 0554 40040000 		.4byte	0x440
 2864 0558 00       		.byte	0
 2865 0559 08       		.uleb128 0x8
 2866 055a 04       		.byte	0x4
 2867 055b 40050000 		.4byte	0x540
 2868 055f 13       		.uleb128 0x13
 2869 0560 1C040000 		.4byte	0x41c
 2870 0564 73050000 		.4byte	0x573
 2871 0568 14       		.uleb128 0x14
 2872 0569 34050000 		.4byte	0x534
 2873 056d 14       		.uleb128 0x14
 2874 056e 2C010000 		.4byte	0x12c
 2875 0572 00       		.byte	0
 2876 0573 08       		.uleb128 0x8
 2877 0574 04       		.byte	0x4
 2878 0575 5F050000 		.4byte	0x55f
 2879 0579 13       		.uleb128 0x13
 2880 057a 1C040000 		.4byte	0x41c
 2881 057e 9C050000 		.4byte	0x59c
 2882 0582 14       		.uleb128 0x14
 2883 0583 34050000 		.4byte	0x534
 2884 0587 14       		.uleb128 0x14
 2885 0588 2C010000 		.4byte	0x12c
 2886 058c 14       		.uleb128 0x14
 2887 058d 2C010000 		.4byte	0x12c
 2888 0591 14       		.uleb128 0x14
 2889 0592 E4000000 		.4byte	0xe4
 2890 0596 14       		.uleb128 0x14
 2891 0597 9C050000 		.4byte	0x59c
 2892 059b 00       		.byte	0
 2893 059c 08       		.uleb128 0x8
 2894 059d 04       		.byte	0x4
 2895 059e E4000000 		.4byte	0xe4
 2896 05a2 08       		.uleb128 0x8
 2897 05a3 04       		.byte	0x4
ARM GAS  C:\Users\haske\AppData\Local\Temp\ccHSLozV.s 			page 82


 2898 05a4 79050000 		.4byte	0x579
 2899 05a8 13       		.uleb128 0x13
 2900 05a9 1C040000 		.4byte	0x41c
 2901 05ad CB050000 		.4byte	0x5cb
 2902 05b1 14       		.uleb128 0x14
 2903 05b2 34050000 		.4byte	0x534
 2904 05b6 14       		.uleb128 0x14
 2905 05b7 2C010000 		.4byte	0x12c
 2906 05bb 14       		.uleb128 0x14
 2907 05bc CB050000 		.4byte	0x5cb
 2908 05c0 14       		.uleb128 0x14
 2909 05c1 E4000000 		.4byte	0xe4
 2910 05c5 14       		.uleb128 0x14
 2911 05c6 9C050000 		.4byte	0x59c
 2912 05ca 00       		.byte	0
 2913 05cb 08       		.uleb128 0x8
 2914 05cc 04       		.byte	0x4
 2915 05cd D1050000 		.4byte	0x5d1
 2916 05d1 15       		.uleb128 0x15
 2917 05d2 08       		.uleb128 0x8
 2918 05d3 04       		.byte	0x4
 2919 05d4 A8050000 		.4byte	0x5a8
 2920 05d8 13       		.uleb128 0x13
 2921 05d9 1C040000 		.4byte	0x41c
 2922 05dd F6050000 		.4byte	0x5f6
 2923 05e1 14       		.uleb128 0x14
 2924 05e2 34050000 		.4byte	0x534
 2925 05e6 14       		.uleb128 0x14
 2926 05e7 2C010000 		.4byte	0x12c
 2927 05eb 14       		.uleb128 0x14
 2928 05ec E4000000 		.4byte	0xe4
 2929 05f0 14       		.uleb128 0x14
 2930 05f1 6A040000 		.4byte	0x46a
 2931 05f5 00       		.byte	0
 2932 05f6 08       		.uleb128 0x8
 2933 05f7 04       		.byte	0x4
 2934 05f8 D8050000 		.4byte	0x5d8
 2935 05fc 13       		.uleb128 0x13
 2936 05fd 1C040000 		.4byte	0x41c
 2937 0601 15060000 		.4byte	0x615
 2938 0605 14       		.uleb128 0x14
 2939 0606 34050000 		.4byte	0x534
 2940 060a 14       		.uleb128 0x14
 2941 060b 2C010000 		.4byte	0x12c
 2942 060f 14       		.uleb128 0x14
 2943 0610 9C050000 		.4byte	0x59c
 2944 0614 00       		.byte	0
 2945 0615 08       		.uleb128 0x8
 2946 0616 04       		.byte	0x4
 2947 0617 FC050000 		.4byte	0x5fc
 2948 061b 13       		.uleb128 0x13
 2949 061c 2C010000 		.4byte	0x12c
 2950 0620 2F060000 		.4byte	0x62f
 2951 0624 14       		.uleb128 0x14
 2952 0625 34050000 		.4byte	0x534
 2953 0629 14       		.uleb128 0x14
 2954 062a 3B010000 		.4byte	0x13b
ARM GAS  C:\Users\haske\AppData\Local\Temp\ccHSLozV.s 			page 83


 2955 062e 00       		.byte	0
 2956 062f 08       		.uleb128 0x8
 2957 0630 04       		.byte	0x4
 2958 0631 1B060000 		.4byte	0x61b
 2959 0635 13       		.uleb128 0x13
 2960 0636 1C040000 		.4byte	0x41c
 2961 063a 4E060000 		.4byte	0x64e
 2962 063e 14       		.uleb128 0x14
 2963 063f 34050000 		.4byte	0x534
 2964 0643 14       		.uleb128 0x14
 2965 0644 2C010000 		.4byte	0x12c
 2966 0648 14       		.uleb128 0x14
 2967 0649 2E010000 		.4byte	0x12e
 2968 064d 00       		.byte	0
 2969 064e 08       		.uleb128 0x8
 2970 064f 04       		.byte	0x4
 2971 0650 35060000 		.4byte	0x635
 2972 0654 02       		.uleb128 0x2
 2973 0655 79030000 		.4byte	.LASF118
 2974 0659 0A       		.byte	0xa
 2975 065a 59       		.byte	0x59
 2976 065b 75040000 		.4byte	0x475
 2977 065f 0A       		.uleb128 0xa
 2978 0660 10       		.byte	0x10
 2979 0661 0A       		.byte	0xa
 2980 0662 5B       		.byte	0x5b
 2981 0663 98060000 		.4byte	0x698
 2982 0667 10       		.uleb128 0x10
 2983 0668 3E000000 		.4byte	.LASF119
 2984 066c 0A       		.byte	0xa
 2985 066d 5C       		.byte	0x5c
 2986 066e E4000000 		.4byte	0xe4
 2987 0672 00       		.byte	0
 2988 0673 11       		.uleb128 0x11
 2989 0674 656E6400 		.ascii	"end\000"
 2990 0678 0A       		.byte	0xa
 2991 0679 5D       		.byte	0x5d
 2992 067a E4000000 		.4byte	0xe4
 2993 067e 04       		.byte	0x4
 2994 067f 10       		.uleb128 0x10
 2995 0680 5C020000 		.4byte	.LASF120
 2996 0684 0A       		.byte	0xa
 2997 0685 5E       		.byte	0x5e
 2998 0686 E4000000 		.4byte	0xe4
 2999 068a 08       		.byte	0x8
 3000 068b 10       		.uleb128 0x10
 3001 068c 41040000 		.4byte	.LASF121
 3002 0690 0A       		.byte	0xa
 3003 0691 5F       		.byte	0x5f
 3004 0692 2C010000 		.4byte	0x12c
 3005 0696 0C       		.byte	0xc
 3006 0697 00       		.byte	0
 3007 0698 02       		.uleb128 0x2
 3008 0699 4F0A0000 		.4byte	.LASF122
 3009 069d 0A       		.byte	0xa
 3010 069e 60       		.byte	0x60
 3011 069f 5F060000 		.4byte	0x65f
ARM GAS  C:\Users\haske\AppData\Local\Temp\ccHSLozV.s 			page 84


 3012 06a3 0A       		.uleb128 0xa
 3013 06a4 0C       		.byte	0xc
 3014 06a5 0A       		.byte	0xa
 3015 06a6 62       		.byte	0x62
 3016 06a7 D0060000 		.4byte	0x6d0
 3017 06ab 10       		.uleb128 0x10
 3018 06ac 4D090000 		.4byte	.LASF123
 3019 06b0 0A       		.byte	0xa
 3020 06b1 63       		.byte	0x63
 3021 06b2 2C010000 		.4byte	0x12c
 3022 06b6 00       		.byte	0
 3023 06b7 11       		.uleb128 0x11
 3024 06b8 64727600 		.ascii	"drv\000"
 3025 06bc 0A       		.byte	0xa
 3026 06bd 64       		.byte	0x64
 3027 06be D0060000 		.4byte	0x6d0
 3028 06c2 04       		.byte	0x4
 3029 06c3 10       		.uleb128 0x10
 3030 06c4 2C0A0000 		.4byte	.LASF124
 3031 06c8 0A       		.byte	0xa
 3032 06c9 65       		.byte	0x65
 3033 06ca D6060000 		.4byte	0x6d6
 3034 06ce 08       		.byte	0x8
 3035 06cf 00       		.byte	0
 3036 06d0 08       		.uleb128 0x8
 3037 06d1 04       		.byte	0x4
 3038 06d2 54060000 		.4byte	0x654
 3039 06d6 08       		.uleb128 0x8
 3040 06d7 04       		.byte	0x4
 3041 06d8 98060000 		.4byte	0x698
 3042 06dc 02       		.uleb128 0x2
 3043 06dd 7B070000 		.4byte	.LASF125
 3044 06e1 0A       		.byte	0xa
 3045 06e2 66       		.byte	0x66
 3046 06e3 A3060000 		.4byte	0x6a3
 3047 06e7 05       		.uleb128 0x5
 3048 06e8 01       		.byte	0x1
 3049 06e9 42000000 		.4byte	0x42
 3050 06ed 0B       		.byte	0xb
 3051 06ee 22       		.byte	0x22
 3052 06ef 0C070000 		.4byte	0x70c
 3053 06f3 06       		.uleb128 0x6
 3054 06f4 58030000 		.4byte	.LASF126
 3055 06f8 00       		.byte	0
 3056 06f9 06       		.uleb128 0x6
 3057 06fa 0D0D0000 		.4byte	.LASF127
 3058 06fe 01       		.byte	0x1
 3059 06ff 06       		.uleb128 0x6
 3060 0700 C0000000 		.4byte	.LASF128
 3061 0704 02       		.byte	0x2
 3062 0705 06       		.uleb128 0x6
 3063 0706 E7030000 		.4byte	.LASF129
 3064 070a 03       		.byte	0x3
 3065 070b 00       		.byte	0
 3066 070c 02       		.uleb128 0x2
 3067 070d A70D0000 		.4byte	.LASF130
 3068 0711 0B       		.byte	0xb
ARM GAS  C:\Users\haske\AppData\Local\Temp\ccHSLozV.s 			page 85


 3069 0712 29       		.byte	0x29
 3070 0713 B8000000 		.4byte	0xb8
 3071 0717 02       		.uleb128 0x2
 3072 0718 620E0000 		.4byte	.LASF131
 3073 071c 0B       		.byte	0xb
 3074 071d 36       		.byte	0x36
 3075 071e 22070000 		.4byte	0x722
 3076 0722 08       		.uleb128 0x8
 3077 0723 04       		.byte	0x4
 3078 0724 28070000 		.4byte	0x728
 3079 0728 13       		.uleb128 0x13
 3080 0729 08010000 		.4byte	0x108
 3081 072d 41070000 		.4byte	0x741
 3082 0731 14       		.uleb128 0x14
 3083 0732 41070000 		.4byte	0x741
 3084 0736 14       		.uleb128 0x14
 3085 0737 CB050000 		.4byte	0x5cb
 3086 073b 14       		.uleb128 0x14
 3087 073c 90070000 		.4byte	0x790
 3088 0740 00       		.byte	0
 3089 0741 08       		.uleb128 0x8
 3090 0742 04       		.byte	0x4
 3091 0743 47070000 		.4byte	0x747
 3092 0747 12       		.uleb128 0x12
 3093 0748 07080000 		.4byte	.LASF133
 3094 074c 14       		.byte	0x14
 3095 074d 0B       		.byte	0xb
 3096 074e 56       		.byte	0x56
 3097 074f 90070000 		.4byte	0x790
 3098 0753 10       		.uleb128 0x10
 3099 0754 2C0B0000 		.4byte	.LASF134
 3100 0758 0B       		.byte	0xb
 3101 0759 57       		.byte	0x57
 3102 075a 17070000 		.4byte	0x717
 3103 075e 00       		.byte	0
 3104 075f 10       		.uleb128 0x10
 3105 0760 C6020000 		.4byte	.LASF107
 3106 0764 0B       		.byte	0xb
 3107 0765 58       		.byte	0x58
 3108 0766 96070000 		.4byte	0x796
 3109 076a 04       		.byte	0x4
 3110 076b 10       		.uleb128 0x10
 3111 076c 260C0000 		.4byte	.LASF135
 3112 0770 0B       		.byte	0xb
 3113 0771 59       		.byte	0x59
 3114 0772 46080000 		.4byte	0x846
 3115 0776 08       		.byte	0x8
 3116 0777 10       		.uleb128 0x10
 3117 0778 6A020000 		.4byte	.LASF108
 3118 077c 0B       		.byte	0xb
 3119 077d 5A       		.byte	0x5a
 3120 077e 85080000 		.4byte	0x885
 3121 0782 0C       		.byte	0xc
 3122 0783 10       		.uleb128 0x10
 3123 0784 0B0E0000 		.4byte	.LASF116
 3124 0788 0B       		.byte	0xb
 3125 0789 5D       		.byte	0x5d
ARM GAS  C:\Users\haske\AppData\Local\Temp\ccHSLozV.s 			page 86


 3126 078a 2C010000 		.4byte	0x12c
 3127 078e 10       		.byte	0x10
 3128 078f 00       		.byte	0
 3129 0790 08       		.uleb128 0x8
 3130 0791 04       		.byte	0x4
 3131 0792 73030000 		.4byte	0x373
 3132 0796 02       		.uleb128 0x2
 3133 0797 AF0B0000 		.4byte	.LASF136
 3134 079b 0B       		.byte	0xb
 3135 079c 3E       		.byte	0x3e
 3136 079d A1070000 		.4byte	0x7a1
 3137 07a1 08       		.uleb128 0x8
 3138 07a2 04       		.byte	0x4
 3139 07a3 A7070000 		.4byte	0x7a7
 3140 07a7 13       		.uleb128 0x13
 3141 07a8 08010000 		.4byte	0x108
 3142 07ac BB070000 		.4byte	0x7bb
 3143 07b0 14       		.uleb128 0x14
 3144 07b1 41070000 		.4byte	0x741
 3145 07b5 14       		.uleb128 0x14
 3146 07b6 BB070000 		.4byte	0x7bb
 3147 07ba 00       		.byte	0
 3148 07bb 08       		.uleb128 0x8
 3149 07bc 04       		.byte	0x4
 3150 07bd C1070000 		.4byte	0x7c1
 3151 07c1 12       		.uleb128 0x12
 3152 07c2 D1060000 		.4byte	.LASF137
 3153 07c6 28       		.byte	0x28
 3154 07c7 0B       		.byte	0xb
 3155 07c8 63       		.byte	0x63
 3156 07c9 46080000 		.4byte	0x846
 3157 07cd 10       		.uleb128 0x10
 3158 07ce D2000000 		.4byte	.LASF138
 3159 07d2 0B       		.byte	0xb
 3160 07d3 65       		.byte	0x65
 3161 07d4 B1080000 		.4byte	0x8b1
 3162 07d8 00       		.byte	0
 3163 07d9 11       		.uleb128 0x11
 3164 07da 73726300 		.ascii	"src\000"
 3165 07de 0B       		.byte	0xb
 3166 07df 68       		.byte	0x68
 3167 07e0 CB050000 		.4byte	0x5cb
 3168 07e4 04       		.byte	0x4
 3169 07e5 10       		.uleb128 0x10
 3170 07e6 150C0000 		.4byte	.LASF139
 3171 07ea 0B       		.byte	0xb
 3172 07eb 6B       		.byte	0x6b
 3173 07ec 07020000 		.4byte	0x207
 3174 07f0 08       		.byte	0x8
 3175 07f1 10       		.uleb128 0x10
 3176 07f2 B5080000 		.4byte	.LASF140
 3177 07f6 0B       		.byte	0xb
 3178 07f7 6E       		.byte	0x6e
 3179 07f8 D9000000 		.4byte	0xd9
 3180 07fc 0C       		.byte	0xc
 3181 07fd 10       		.uleb128 0x10
 3182 07fe 7A0E0000 		.4byte	.LASF141
ARM GAS  C:\Users\haske\AppData\Local\Temp\ccHSLozV.s 			page 87


 3183 0802 0B       		.byte	0xb
 3184 0803 71       		.byte	0x71
 3185 0804 0C070000 		.4byte	0x70c
 3186 0808 10       		.byte	0x10
 3187 0809 10       		.uleb128 0x10
 3188 080a 6C030000 		.4byte	.LASF79
 3189 080e 0B       		.byte	0xb
 3190 080f 74       		.byte	0x74
 3191 0810 73030000 		.4byte	0x373
 3192 0814 14       		.byte	0x14
 3193 0815 10       		.uleb128 0x10
 3194 0816 64000000 		.4byte	.LASF142
 3195 081a 0B       		.byte	0xb
 3196 081b 78       		.byte	0x78
 3197 081c AB030000 		.4byte	0x3ab
 3198 0820 18       		.byte	0x18
 3199 0821 10       		.uleb128 0x10
 3200 0822 17030000 		.4byte	.LASF143
 3201 0826 0B       		.byte	0xb
 3202 0827 7C       		.byte	0x7c
 3203 0828 E4000000 		.4byte	0xe4
 3204 082c 1C       		.byte	0x1c
 3205 082d 10       		.uleb128 0x10
 3206 082e E7060000 		.4byte	.LASF144
 3207 0832 0B       		.byte	0xb
 3208 0833 80       		.byte	0x80
 3209 0834 3B010000 		.4byte	0x13b
 3210 0838 20       		.byte	0x20
 3211 0839 10       		.uleb128 0x10
 3212 083a 0B0E0000 		.4byte	.LASF116
 3213 083e 0B       		.byte	0xb
 3214 083f 83       		.byte	0x83
 3215 0840 2C010000 		.4byte	0x12c
 3216 0844 24       		.byte	0x24
 3217 0845 00       		.byte	0
 3218 0846 02       		.uleb128 0x2
 3219 0847 9A0A0000 		.4byte	.LASF145
 3220 084b 0B       		.byte	0xb
 3221 084c 4B       		.byte	0x4b
 3222 084d 51080000 		.4byte	0x851
 3223 0851 08       		.uleb128 0x8
 3224 0852 04       		.byte	0x4
 3225 0853 57080000 		.4byte	0x857
 3226 0857 13       		.uleb128 0x13
 3227 0858 08010000 		.4byte	0x108
 3228 085c 7F080000 		.4byte	0x87f
 3229 0860 14       		.uleb128 0x14
 3230 0861 41070000 		.4byte	0x741
 3231 0865 14       		.uleb128 0x14
 3232 0866 BB070000 		.4byte	0x7bb
 3233 086a 14       		.uleb128 0x14
 3234 086b 1D020000 		.4byte	0x21d
 3235 086f 14       		.uleb128 0x14
 3236 0870 1D020000 		.4byte	0x21d
 3237 0874 14       		.uleb128 0x14
 3238 0875 1D020000 		.4byte	0x21d
 3239 0879 14       		.uleb128 0x14
ARM GAS  C:\Users\haske\AppData\Local\Temp\ccHSLozV.s 			page 88


 3240 087a 7F080000 		.4byte	0x87f
 3241 087e 00       		.byte	0
 3242 087f 08       		.uleb128 0x8
 3243 0880 04       		.byte	0x4
 3244 0881 B8000000 		.4byte	0xb8
 3245 0885 02       		.uleb128 0x2
 3246 0886 490E0000 		.4byte	.LASF146
 3247 088a 0B       		.byte	0xb
 3248 088b 53       		.byte	0x53
 3249 088c 90080000 		.4byte	0x890
 3250 0890 08       		.uleb128 0x8
 3251 0891 04       		.byte	0x4
 3252 0892 96080000 		.4byte	0x896
 3253 0896 16       		.uleb128 0x16
 3254 0897 A6080000 		.4byte	0x8a6
 3255 089b 14       		.uleb128 0x14
 3256 089c 41070000 		.4byte	0x741
 3257 08a0 14       		.uleb128 0x14
 3258 08a1 BB070000 		.4byte	0x7bb
 3259 08a5 00       		.byte	0
 3260 08a6 02       		.uleb128 0x2
 3261 08a7 2A020000 		.4byte	.LASF147
 3262 08ab 0B       		.byte	0xb
 3263 08ac 5F       		.byte	0x5f
 3264 08ad 47070000 		.4byte	0x747
 3265 08b1 08       		.uleb128 0x8
 3266 08b2 04       		.byte	0x4
 3267 08b3 A6080000 		.4byte	0x8a6
 3268 08b7 02       		.uleb128 0x2
 3269 08b8 7C080000 		.4byte	.LASF148
 3270 08bc 0B       		.byte	0xb
 3271 08bd 84       		.byte	0x84
 3272 08be C1070000 		.4byte	0x7c1
 3273 08c2 0A       		.uleb128 0xa
 3274 08c3 10       		.byte	0x10
 3275 08c4 0C       		.byte	0xc
 3276 08c5 29       		.byte	0x29
 3277 08c6 31090000 		.4byte	0x931
 3278 08ca 10       		.uleb128 0x10
 3279 08cb AD050000 		.4byte	.LASF149
 3280 08cf 0C       		.byte	0xc
 3281 08d0 2B       		.byte	0x2b
 3282 08d1 B9090000 		.4byte	0x9b9
 3283 08d5 00       		.byte	0
 3284 08d6 10       		.uleb128 0x10
 3285 08d7 2F000000 		.4byte	.LASF150
 3286 08db 0C       		.byte	0xc
 3287 08dc 2C       		.byte	0x2c
 3288 08dd CE000000 		.4byte	0xce
 3289 08e1 04       		.byte	0x4
 3290 08e2 10       		.uleb128 0x10
 3291 08e3 B00C0000 		.4byte	.LASF151
 3292 08e7 0C       		.byte	0xc
 3293 08e8 2D       		.byte	0x2d
 3294 08e9 CE000000 		.4byte	0xce
 3295 08ed 06       		.byte	0x6
 3296 08ee 10       		.uleb128 0x10
ARM GAS  C:\Users\haske\AppData\Local\Temp\ccHSLozV.s 			page 89


 3297 08ef 500C0000 		.4byte	.LASF152
 3298 08f3 0C       		.byte	0xc
 3299 08f4 2E       		.byte	0x2e
 3300 08f5 CE000000 		.4byte	0xce
 3301 08f9 08       		.byte	0x8
 3302 08fa 10       		.uleb128 0x10
 3303 08fb 4C030000 		.4byte	.LASF153
 3304 08ff 0C       		.byte	0xc
 3305 0900 2F       		.byte	0x2f
 3306 0901 C3000000 		.4byte	0xc3
 3307 0905 0A       		.byte	0xa
 3308 0906 10       		.uleb128 0x10
 3309 0907 52030000 		.4byte	.LASF154
 3310 090b 0C       		.byte	0xc
 3311 090c 30       		.byte	0x30
 3312 090d C3000000 		.4byte	0xc3
 3313 0911 0C       		.byte	0xc
 3314 0912 0C       		.uleb128 0xc
 3315 0913 62707000 		.ascii	"bpp\000"
 3316 0917 0C       		.byte	0xc
 3317 0918 31       		.byte	0x31
 3318 0919 B8000000 		.4byte	0xb8
 3319 091d 01       		.byte	0x1
 3320 091e 04       		.byte	0x4
 3321 091f 04       		.byte	0x4
 3322 0920 0E       		.byte	0xe
 3323 0921 0B       		.uleb128 0xb
 3324 0922 D10E0000 		.4byte	.LASF155
 3325 0926 0C       		.byte	0xc
 3326 0927 32       		.byte	0x32
 3327 0928 B8000000 		.4byte	0xb8
 3328 092c 01       		.byte	0x1
 3329 092d 01       		.byte	0x1
 3330 092e 03       		.byte	0x3
 3331 092f 0E       		.byte	0xe
 3332 0930 00       		.byte	0
 3333 0931 12       		.uleb128 0x12
 3334 0932 F1060000 		.4byte	.LASF156
 3335 0936 1C       		.byte	0x1c
 3336 0937 0C       		.byte	0xc
 3337 0938 40       		.byte	0x40
 3338 0939 B9090000 		.4byte	0x9b9
 3339 093d 10       		.uleb128 0x10
 3340 093e 210E0000 		.4byte	.LASF157
 3341 0942 0C       		.byte	0xc
 3342 0943 42       		.byte	0x42
 3343 0944 F3090000 		.4byte	0x9f3
 3344 0948 00       		.byte	0
 3345 0949 10       		.uleb128 0x10
 3346 094a CE020000 		.4byte	.LASF158
 3347 094e 0C       		.byte	0xc
 3348 094f 45       		.byte	0x45
 3349 0950 0D0A0000 		.4byte	0xa0d
 3350 0954 04       		.byte	0x4
 3351 0955 10       		.uleb128 0x10
 3352 0956 13010000 		.4byte	.LASF159
 3353 095a 0C       		.byte	0xc
ARM GAS  C:\Users\haske\AppData\Local\Temp\ccHSLozV.s 			page 90


 3354 095b 48       		.byte	0x48
 3355 095c 1D020000 		.4byte	0x21d
 3356 0960 08       		.byte	0x8
 3357 0961 10       		.uleb128 0x10
 3358 0962 C00C0000 		.4byte	.LASF160
 3359 0966 0C       		.byte	0xc
 3360 0967 49       		.byte	0x49
 3361 0968 1D020000 		.4byte	0x21d
 3362 096c 0A       		.byte	0xa
 3363 096d 0B       		.uleb128 0xb
 3364 096e 6A0A0000 		.4byte	.LASF161
 3365 0972 0C       		.byte	0xc
 3366 0973 4A       		.byte	0x4a
 3367 0974 B8000000 		.4byte	0xb8
 3368 0978 01       		.byte	0x1
 3369 0979 02       		.byte	0x2
 3370 097a 06       		.byte	0x6
 3371 097b 0C       		.byte	0xc
 3372 097c 10       		.uleb128 0x10
 3373 097d 8A030000 		.4byte	.LASF162
 3374 0981 0C       		.byte	0xc
 3375 0982 4C       		.byte	0x4c
 3376 0983 AD000000 		.4byte	0xad
 3377 0987 0D       		.byte	0xd
 3378 0988 10       		.uleb128 0x10
 3379 0989 67070000 		.4byte	.LASF163
 3380 098d 0C       		.byte	0xc
 3381 098e 4D       		.byte	0x4d
 3382 098f AD000000 		.4byte	0xad
 3383 0993 0E       		.byte	0xe
 3384 0994 11       		.uleb128 0x11
 3385 0995 64736300 		.ascii	"dsc\000"
 3386 0999 0C       		.byte	0xc
 3387 099a 4F       		.byte	0x4f
 3388 099b CB050000 		.4byte	0x5cb
 3389 099f 10       		.byte	0x10
 3390 09a0 10       		.uleb128 0x10
 3391 09a1 29040000 		.4byte	.LASF164
 3392 09a5 0C       		.byte	0xc
 3393 09a6 50       		.byte	0x50
 3394 09a7 B9090000 		.4byte	0x9b9
 3395 09ab 14       		.byte	0x14
 3396 09ac 10       		.uleb128 0x10
 3397 09ad 0B0E0000 		.4byte	.LASF116
 3398 09b1 0C       		.byte	0xc
 3399 09b2 52       		.byte	0x52
 3400 09b3 2C010000 		.4byte	0x12c
 3401 09b7 18       		.byte	0x18
 3402 09b8 00       		.byte	0
 3403 09b9 08       		.uleb128 0x8
 3404 09ba 04       		.byte	0x4
 3405 09bb BF090000 		.4byte	0x9bf
 3406 09bf 09       		.uleb128 0x9
 3407 09c0 31090000 		.4byte	0x931
 3408 09c4 02       		.uleb128 0x2
 3409 09c5 D1080000 		.4byte	.LASF165
 3410 09c9 0C       		.byte	0xc
ARM GAS  C:\Users\haske\AppData\Local\Temp\ccHSLozV.s 			page 91


 3411 09ca 33       		.byte	0x33
 3412 09cb C2080000 		.4byte	0x8c2
 3413 09cf 13       		.uleb128 0x13
 3414 09d0 2D050000 		.4byte	0x52d
 3415 09d4 ED090000 		.4byte	0x9ed
 3416 09d8 14       		.uleb128 0x14
 3417 09d9 B9090000 		.4byte	0x9b9
 3418 09dd 14       		.uleb128 0x14
 3419 09de ED090000 		.4byte	0x9ed
 3420 09e2 14       		.uleb128 0x14
 3421 09e3 E4000000 		.4byte	0xe4
 3422 09e7 14       		.uleb128 0x14
 3423 09e8 E4000000 		.4byte	0xe4
 3424 09ec 00       		.byte	0
 3425 09ed 08       		.uleb128 0x8
 3426 09ee 04       		.byte	0x4
 3427 09ef C4090000 		.4byte	0x9c4
 3428 09f3 08       		.uleb128 0x8
 3429 09f4 04       		.byte	0x4
 3430 09f5 CF090000 		.4byte	0x9cf
 3431 09f9 13       		.uleb128 0x13
 3432 09fa AB030000 		.4byte	0x3ab
 3433 09fe 0D0A0000 		.4byte	0xa0d
 3434 0a02 14       		.uleb128 0x14
 3435 0a03 B9090000 		.4byte	0x9b9
 3436 0a07 14       		.uleb128 0x14
 3437 0a08 E4000000 		.4byte	0xe4
 3438 0a0c 00       		.byte	0
 3439 0a0d 08       		.uleb128 0x8
 3440 0a0e 04       		.byte	0x4
 3441 0a0f F9090000 		.4byte	0x9f9
 3442 0a13 02       		.uleb128 0x2
 3443 0a14 C30D0000 		.4byte	.LASF166
 3444 0a18 0C       		.byte	0xc
 3445 0a19 54       		.byte	0x54
 3446 0a1a 31090000 		.4byte	0x931
 3447 0a1e 02       		.uleb128 0x2
 3448 0a1f 1B000000 		.4byte	.LASF167
 3449 0a23 0D       		.byte	0xd
 3450 0a24 1D       		.byte	0x1d
 3451 0a25 B8000000 		.4byte	0xb8
 3452 0a29 0A       		.uleb128 0xa
 3453 0a2a 0C       		.byte	0xc
 3454 0a2b 0D       		.byte	0xd
 3455 0a2c 20       		.byte	0x20
 3456 0a2d 560A0000 		.4byte	0xa56
 3457 0a31 10       		.uleb128 0x10
 3458 0a32 CA0E0000 		.4byte	.LASF168
 3459 0a36 0D       		.byte	0xd
 3460 0a37 21       		.byte	0x21
 3461 0a38 E4000000 		.4byte	0xe4
 3462 0a3c 00       		.byte	0
 3463 0a3d 10       		.uleb128 0x10
 3464 0a3e 73020000 		.4byte	.LASF169
 3465 0a42 0D       		.byte	0xd
 3466 0a43 22       		.byte	0x22
 3467 0a44 560A0000 		.4byte	0xa56
ARM GAS  C:\Users\haske\AppData\Local\Temp\ccHSLozV.s 			page 92


 3468 0a48 04       		.byte	0x4
 3469 0a49 10       		.uleb128 0x10
 3470 0a4a 6D000000 		.4byte	.LASF170
 3471 0a4e 0D       		.byte	0xd
 3472 0a4f 23       		.byte	0x23
 3473 0a50 560A0000 		.4byte	0xa56
 3474 0a54 08       		.byte	0x8
 3475 0a55 00       		.byte	0
 3476 0a56 08       		.uleb128 0x8
 3477 0a57 04       		.byte	0x4
 3478 0a58 1E0A0000 		.4byte	0xa1e
 3479 0a5c 02       		.uleb128 0x2
 3480 0a5d CA0C0000 		.4byte	.LASF171
 3481 0a61 0D       		.byte	0xd
 3482 0a62 24       		.byte	0x24
 3483 0a63 290A0000 		.4byte	0xa29
 3484 0a67 08       		.uleb128 0x8
 3485 0a68 04       		.byte	0x4
 3486 0a69 12020000 		.4byte	0x212
 3487 0a6d 08       		.uleb128 0x8
 3488 0a6e 04       		.byte	0x4
 3489 0a6f 730A0000 		.4byte	0xa73
 3490 0a73 09       		.uleb128 0x9
 3491 0a74 12020000 		.4byte	0x212
 3492 0a78 0A       		.uleb128 0xa
 3493 0a79 14       		.byte	0x14
 3494 0a7a 01       		.byte	0x1
 3495 0a7b 19       		.byte	0x19
 3496 0a7c A30A0000 		.4byte	0xaa3
 3497 0a80 11       		.uleb128 0x11
 3498 0a81 6600     		.ascii	"f\000"
 3499 0a83 01       		.byte	0x1
 3500 0a84 1A       		.byte	0x1a
 3501 0a85 DC060000 		.4byte	0x6dc
 3502 0a89 00       		.byte	0
 3503 0a8a 10       		.uleb128 0x10
 3504 0a8b 620A0000 		.4byte	.LASF172
 3505 0a8f 01       		.byte	0x1
 3506 0a90 1B       		.byte	0x1b
 3507 0a91 A30A0000 		.4byte	0xaa3
 3508 0a95 0C       		.byte	0xc
 3509 0a96 11       		.uleb128 0x11
 3510 0a97 6F706100 		.ascii	"opa\000"
 3511 0a9b 01       		.byte	0x1
 3512 0a9c 1C       		.byte	0x1c
 3513 0a9d 670A0000 		.4byte	0xa67
 3514 0aa1 10       		.byte	0x10
 3515 0aa2 00       		.byte	0
 3516 0aa3 08       		.uleb128 0x8
 3517 0aa4 04       		.byte	0x4
 3518 0aa5 07020000 		.4byte	0x207
 3519 0aa9 02       		.uleb128 0x2
 3520 0aaa D5040000 		.4byte	.LASF173
 3521 0aae 01       		.byte	0x1
 3522 0aaf 1D       		.byte	0x1d
 3523 0ab0 780A0000 		.4byte	0xa78
 3524 0ab4 17       		.uleb128 0x17
ARM GAS  C:\Users\haske\AppData\Local\Temp\ccHSLozV.s 			page 93


 3525 0ab5 700A0000 		.4byte	.LASF174
 3526 0ab9 02       		.byte	0x2
 3527 0aba C2       		.byte	0xc2
 3528 0abb 2C010000 		.4byte	0x12c
 3529 0abf 03       		.byte	0x3
 3530 0ac0 FA0A0000 		.4byte	0xafa
 3531 0ac4 18       		.uleb128 0x18
 3532 0ac5 64737400 		.ascii	"dst\000"
 3533 0ac9 02       		.byte	0x2
 3534 0aca C2       		.byte	0xc2
 3535 0acb 2C010000 		.4byte	0x12c
 3536 0acf 18       		.uleb128 0x18
 3537 0ad0 73726300 		.ascii	"src\000"
 3538 0ad4 02       		.byte	0x2
 3539 0ad5 C2       		.byte	0xc2
 3540 0ad6 CB050000 		.4byte	0x5cb
 3541 0ada 18       		.uleb128 0x18
 3542 0adb 6C656E00 		.ascii	"len\000"
 3543 0adf 02       		.byte	0x2
 3544 0ae0 C2       		.byte	0xc2
 3545 0ae1 13010000 		.4byte	0x113
 3546 0ae5 19       		.uleb128 0x19
 3547 0ae6 643800   		.ascii	"d8\000"
 3548 0ae9 02       		.byte	0x2
 3549 0aea C4       		.byte	0xc4
 3550 0aeb 7F080000 		.4byte	0x87f
 3551 0aef 19       		.uleb128 0x19
 3552 0af0 733800   		.ascii	"s8\000"
 3553 0af3 02       		.byte	0x2
 3554 0af4 C5       		.byte	0xc5
 3555 0af5 AB030000 		.4byte	0x3ab
 3556 0af9 00       		.byte	0
 3557 0afa 1A       		.uleb128 0x1a
 3558 0afb C70B0000 		.4byte	.LASF175
 3559 0aff 03       		.byte	0x3
 3560 0b00 4C02     		.2byte	0x24c
 3561 0b02 07020000 		.4byte	0x207
 3562 0b06 03       		.byte	0x3
 3563 0b07 2A0B0000 		.4byte	0xb2a
 3564 0b0b 1B       		.uleb128 0x1b
 3565 0b0c 7200     		.ascii	"r\000"
 3566 0b0e 03       		.byte	0x3
 3567 0b0f 4C02     		.2byte	0x24c
 3568 0b11 B8000000 		.4byte	0xb8
 3569 0b15 1B       		.uleb128 0x1b
 3570 0b16 6700     		.ascii	"g\000"
 3571 0b18 03       		.byte	0x3
 3572 0b19 4C02     		.2byte	0x24c
 3573 0b1b B8000000 		.4byte	0xb8
 3574 0b1f 1B       		.uleb128 0x1b
 3575 0b20 6200     		.ascii	"b\000"
 3576 0b22 03       		.byte	0x3
 3577 0b23 4C02     		.2byte	0x24c
 3578 0b25 B8000000 		.4byte	0xb8
 3579 0b29 00       		.byte	0
 3580 0b2a 1C       		.uleb128 0x1c
 3581 0b2b 48080000 		.4byte	.LASF176
ARM GAS  C:\Users\haske\AppData\Local\Temp\ccHSLozV.s 			page 94


 3582 0b2f 01       		.byte	0x1
 3583 0b30 1101     		.2byte	0x111
 3584 0b32 08010000 		.4byte	0x108
 3585 0b36 00000000 		.4byte	.LFB67
 3586 0b3a CC000000 		.4byte	.LFE67-.LFB67
 3587 0b3e 01       		.uleb128 0x1
 3588 0b3f 9C       		.byte	0x9c
 3589 0b40 6C0C0000 		.4byte	0xc6c
 3590 0b44 1D       		.uleb128 0x1d
 3591 0b45 D2000000 		.4byte	.LASF138
 3592 0b49 01       		.byte	0x1
 3593 0b4a 1101     		.2byte	0x111
 3594 0b4c B1080000 		.4byte	0x8b1
 3595 0b50 00000000 		.4byte	.LLST0
 3596 0b54 1E       		.uleb128 0x1e
 3597 0b55 73726300 		.ascii	"src\000"
 3598 0b59 01       		.byte	0x1
 3599 0b5a 1101     		.2byte	0x111
 3600 0b5c CB050000 		.4byte	0x5cb
 3601 0b60 21000000 		.4byte	.LLST1
 3602 0b64 1D       		.uleb128 0x1d
 3603 0b65 6C030000 		.4byte	.LASF79
 3604 0b69 01       		.byte	0x1
 3605 0b6a 1101     		.2byte	0x111
 3606 0b6c 90070000 		.4byte	0x790
 3607 0b70 66000000 		.4byte	.LLST2
 3608 0b74 1F       		.uleb128 0x1f
 3609 0b75 7A0E0000 		.4byte	.LASF141
 3610 0b79 01       		.byte	0x1
 3611 0b7a 1501     		.2byte	0x115
 3612 0b7c 0C070000 		.4byte	0x70c
 3613 0b80 92000000 		.4byte	.LLST3
 3614 0b84 20       		.uleb128 0x20
 3615 0b85 00000000 		.4byte	.Ldebug_ranges0+0
 3616 0b89 9D0B0000 		.4byte	0xb9d
 3617 0b8d 21       		.uleb128 0x21
 3618 0b8e 636600   		.ascii	"cf\000"
 3619 0b91 01       		.byte	0x1
 3620 0b92 1701     		.2byte	0x117
 3621 0b94 19030000 		.4byte	0x319
 3622 0b98 D1000000 		.4byte	.LLST4
 3623 0b9c 00       		.byte	0
 3624 0b9d 20       		.uleb128 0x20
 3625 0b9e 18000000 		.4byte	.Ldebug_ranges0+0x18
 3626 0ba2 5B0C0000 		.4byte	0xc5b
 3627 0ba6 22       		.uleb128 0x22
 3628 0ba7 6600     		.ascii	"f\000"
 3629 0ba9 01       		.byte	0x1
 3630 0baa 2201     		.2byte	0x122
 3631 0bac DC060000 		.4byte	0x6dc
 3632 0bb0 02       		.uleb128 0x2
 3633 0bb1 91       		.byte	0x91
 3634 0bb2 64       		.sleb128 -28
 3635 0bb3 21       		.uleb128 0x21
 3636 0bb4 72657300 		.ascii	"res\000"
 3637 0bb8 01       		.byte	0x1
 3638 0bb9 2301     		.2byte	0x123
ARM GAS  C:\Users\haske\AppData\Local\Temp\ccHSLozV.s 			page 95


 3639 0bbb 1C040000 		.4byte	0x41c
 3640 0bbf 09010000 		.4byte	.LLST5
 3641 0bc3 23       		.uleb128 0x23
 3642 0bc4 66000000 		.4byte	.LBB14
 3643 0bc8 1E000000 		.4byte	.LBE14-.LBB14
 3644 0bcc 140C0000 		.4byte	0xc14
 3645 0bd0 22       		.uleb128 0x22
 3646 0bd1 726E00   		.ascii	"rn\000"
 3647 0bd4 01       		.byte	0x1
 3648 0bd5 2501     		.2byte	0x125
 3649 0bd7 E4000000 		.4byte	0xe4
 3650 0bdb 02       		.uleb128 0x2
 3651 0bdc 91       		.byte	0x91
 3652 0bdd 60       		.sleb128 -32
 3653 0bde 24       		.uleb128 0x24
 3654 0bdf 74000000 		.4byte	.LVL12
 3655 0be3 EE1A0000 		.4byte	0x1aee
 3656 0be7 030C0000 		.4byte	0xc03
 3657 0beb 25       		.uleb128 0x25
 3658 0bec 01       		.uleb128 0x1
 3659 0bed 50       		.byte	0x50
 3660 0bee 02       		.uleb128 0x2
 3661 0bef 91       		.byte	0x91
 3662 0bf0 64       		.sleb128 -28
 3663 0bf1 25       		.uleb128 0x25
 3664 0bf2 01       		.uleb128 0x1
 3665 0bf3 51       		.byte	0x51
 3666 0bf4 02       		.uleb128 0x2
 3667 0bf5 75       		.byte	0x75
 3668 0bf6 00       		.sleb128 0
 3669 0bf7 25       		.uleb128 0x25
 3670 0bf8 01       		.uleb128 0x1
 3671 0bf9 52       		.byte	0x52
 3672 0bfa 01       		.uleb128 0x1
 3673 0bfb 34       		.byte	0x34
 3674 0bfc 25       		.uleb128 0x25
 3675 0bfd 01       		.uleb128 0x1
 3676 0bfe 53       		.byte	0x53
 3677 0bff 02       		.uleb128 0x2
 3678 0c00 7D       		.byte	0x7d
 3679 0c01 00       		.sleb128 0
 3680 0c02 00       		.byte	0
 3681 0c03 26       		.uleb128 0x26
 3682 0c04 7C000000 		.4byte	.LVL14
 3683 0c08 F91A0000 		.4byte	0x1af9
 3684 0c0c 25       		.uleb128 0x25
 3685 0c0d 01       		.uleb128 0x1
 3686 0c0e 50       		.byte	0x50
 3687 0c0f 02       		.uleb128 0x2
 3688 0c10 91       		.byte	0x91
 3689 0c11 64       		.sleb128 -28
 3690 0c12 00       		.byte	0
 3691 0c13 00       		.byte	0
 3692 0c14 24       		.uleb128 0x24
 3693 0c15 52000000 		.4byte	.LVL8
 3694 0c19 041B0000 		.4byte	0x1b04
 3695 0c1d 280C0000 		.4byte	0xc28
ARM GAS  C:\Users\haske\AppData\Local\Temp\ccHSLozV.s 			page 96


 3696 0c21 25       		.uleb128 0x25
 3697 0c22 01       		.uleb128 0x1
 3698 0c23 50       		.byte	0x50
 3699 0c24 02       		.uleb128 0x2
 3700 0c25 74       		.byte	0x74
 3701 0c26 00       		.sleb128 0
 3702 0c27 00       		.byte	0
 3703 0c28 24       		.uleb128 0x24
 3704 0c29 58000000 		.4byte	.LVL9
 3705 0c2d 0F1B0000 		.4byte	0x1b0f
 3706 0c31 3F0C0000 		.4byte	0xc3f
 3707 0c35 25       		.uleb128 0x25
 3708 0c36 01       		.uleb128 0x1
 3709 0c37 51       		.byte	0x51
 3710 0c38 05       		.uleb128 0x5
 3711 0c39 03       		.byte	0x3
 3712 0c3a 00000000 		.4byte	.LC2
 3713 0c3e 00       		.byte	0
 3714 0c3f 26       		.uleb128 0x26
 3715 0c40 64000000 		.4byte	.LVL10
 3716 0c44 1A1B0000 		.4byte	0x1b1a
 3717 0c48 25       		.uleb128 0x25
 3718 0c49 01       		.uleb128 0x1
 3719 0c4a 50       		.byte	0x50
 3720 0c4b 02       		.uleb128 0x2
 3721 0c4c 91       		.byte	0x91
 3722 0c4d 64       		.sleb128 -28
 3723 0c4e 25       		.uleb128 0x25
 3724 0c4f 01       		.uleb128 0x1
 3725 0c50 51       		.byte	0x51
 3726 0c51 02       		.uleb128 0x2
 3727 0c52 74       		.byte	0x74
 3728 0c53 00       		.sleb128 0
 3729 0c54 25       		.uleb128 0x25
 3730 0c55 01       		.uleb128 0x1
 3731 0c56 52       		.byte	0x52
 3732 0c57 01       		.uleb128 0x1
 3733 0c58 32       		.byte	0x32
 3734 0c59 00       		.byte	0
 3735 0c5a 00       		.byte	0
 3736 0c5b 26       		.uleb128 0x26
 3737 0c5c 0E000000 		.4byte	.LVL2
 3738 0c60 251B0000 		.4byte	0x1b25
 3739 0c64 25       		.uleb128 0x25
 3740 0c65 01       		.uleb128 0x1
 3741 0c66 50       		.byte	0x50
 3742 0c67 02       		.uleb128 0x2
 3743 0c68 74       		.byte	0x74
 3744 0c69 00       		.sleb128 0
 3745 0c6a 00       		.byte	0
 3746 0c6b 00       		.byte	0
 3747 0c6c 27       		.uleb128 0x27
 3748 0c6d E8010000 		.4byte	.LASF200
 3749 0c71 01       		.byte	0x1
 3750 0c72 EB01     		.2byte	0x1eb
 3751 0c74 00000000 		.4byte	.LFB70
 3752 0c78 30000000 		.4byte	.LFE70-.LFB70
ARM GAS  C:\Users\haske\AppData\Local\Temp\ccHSLozV.s 			page 97


 3753 0c7c 01       		.uleb128 0x1
 3754 0c7d 9C       		.byte	0x9c
 3755 0c7e E70C0000 		.4byte	0xce7
 3756 0c82 1D       		.uleb128 0x1d
 3757 0c83 D2000000 		.4byte	.LASF138
 3758 0c87 01       		.byte	0x1
 3759 0c88 EB01     		.2byte	0x1eb
 3760 0c8a B1080000 		.4byte	0x8b1
 3761 0c8e 27010000 		.4byte	.LLST6
 3762 0c92 1E       		.uleb128 0x1e
 3763 0c93 64736300 		.ascii	"dsc\000"
 3764 0c97 01       		.byte	0x1
 3765 0c98 EB01     		.2byte	0x1eb
 3766 0c9a E70C0000 		.4byte	0xce7
 3767 0c9e 48010000 		.4byte	.LLST7
 3768 0ca2 28       		.uleb128 0x28
 3769 0ca3 0B0E0000 		.4byte	.LASF116
 3770 0ca7 01       		.byte	0x1
 3771 0ca8 EF01     		.2byte	0x1ef
 3772 0caa ED0C0000 		.4byte	0xced
 3773 0cae 01       		.uleb128 0x1
 3774 0caf 55       		.byte	0x55
 3775 0cb0 24       		.uleb128 0x24
 3776 0cb1 14000000 		.4byte	.LVL26
 3777 0cb5 F91A0000 		.4byte	0x1af9
 3778 0cb9 C40C0000 		.4byte	0xcc4
 3779 0cbd 25       		.uleb128 0x25
 3780 0cbe 01       		.uleb128 0x1
 3781 0cbf 50       		.byte	0x50
 3782 0cc0 02       		.uleb128 0x2
 3783 0cc1 75       		.byte	0x75
 3784 0cc2 00       		.sleb128 0
 3785 0cc3 00       		.byte	0
 3786 0cc4 29       		.uleb128 0x29
 3787 0cc5 1C000000 		.4byte	.LVL27
 3788 0cc9 301B0000 		.4byte	0x1b30
 3789 0ccd 29       		.uleb128 0x29
 3790 0cce 24000000 		.4byte	.LVL28
 3791 0cd2 301B0000 		.4byte	0x1b30
 3792 0cd6 26       		.uleb128 0x26
 3793 0cd7 2A000000 		.4byte	.LVL29
 3794 0cdb 301B0000 		.4byte	0x1b30
 3795 0cdf 25       		.uleb128 0x25
 3796 0ce0 01       		.uleb128 0x1
 3797 0ce1 50       		.byte	0x50
 3798 0ce2 02       		.uleb128 0x2
 3799 0ce3 75       		.byte	0x75
 3800 0ce4 00       		.sleb128 0
 3801 0ce5 00       		.byte	0
 3802 0ce6 00       		.byte	0
 3803 0ce7 08       		.uleb128 0x8
 3804 0ce8 04       		.byte	0x4
 3805 0ce9 B7080000 		.4byte	0x8b7
 3806 0ced 08       		.uleb128 0x8
 3807 0cee 04       		.byte	0x4
 3808 0cef A90A0000 		.4byte	0xaa9
 3809 0cf3 1C       		.uleb128 0x1c
ARM GAS  C:\Users\haske\AppData\Local\Temp\ccHSLozV.s 			page 98


 3810 0cf4 880E0000 		.4byte	.LASF177
 3811 0cf8 01       		.byte	0x1
 3812 0cf9 4601     		.2byte	0x146
 3813 0cfb 08010000 		.4byte	0x108
 3814 0cff 00000000 		.4byte	.LFB68
 3815 0d03 C8010000 		.4byte	.LFE68-.LFB68
 3816 0d07 01       		.uleb128 0x1
 3817 0d08 9C       		.byte	0x9c
 3818 0d09 DB0F0000 		.4byte	0xfdb
 3819 0d0d 1D       		.uleb128 0x1d
 3820 0d0e D2000000 		.4byte	.LASF138
 3821 0d12 01       		.byte	0x1
 3822 0d13 4601     		.2byte	0x146
 3823 0d15 B1080000 		.4byte	0x8b1
 3824 0d19 74010000 		.4byte	.LLST8
 3825 0d1d 1E       		.uleb128 0x1e
 3826 0d1e 64736300 		.ascii	"dsc\000"
 3827 0d22 01       		.byte	0x1
 3828 0d23 4601     		.2byte	0x146
 3829 0d25 E70C0000 		.4byte	0xce7
 3830 0d29 E8010000 		.4byte	.LLST9
 3831 0d2d 21       		.uleb128 0x21
 3832 0d2e 636600   		.ascii	"cf\000"
 3833 0d31 01       		.byte	0x1
 3834 0d32 6A01     		.2byte	0x16a
 3835 0d34 19030000 		.4byte	0x319
 3836 0d38 5C020000 		.4byte	.LLST10
 3837 0d3c 23       		.uleb128 0x23
 3838 0d3d 10000000 		.4byte	.LBB17
 3839 0d41 56000000 		.4byte	.LBE17-.LBB17
 3840 0d45 2A0E0000 		.4byte	0xe2a
 3841 0d49 22       		.uleb128 0x22
 3842 0d4a 6600     		.ascii	"f\000"
 3843 0d4c 01       		.byte	0x1
 3844 0d4d 4D01     		.2byte	0x14d
 3845 0d4f DC060000 		.4byte	0x6dc
 3846 0d53 02       		.uleb128 0x2
 3847 0d54 91       		.byte	0x91
 3848 0d55 54       		.sleb128 -44
 3849 0d56 21       		.uleb128 0x21
 3850 0d57 72657300 		.ascii	"res\000"
 3851 0d5b 01       		.byte	0x1
 3852 0d5c 4E01     		.2byte	0x14e
 3853 0d5e 1C040000 		.4byte	0x41c
 3854 0d62 C4020000 		.4byte	.LLST11
 3855 0d66 2A       		.uleb128 0x2a
 3856 0d67 0B0E0000 		.4byte	.LASF116
 3857 0d6b 01       		.byte	0x1
 3858 0d6c 6001     		.2byte	0x160
 3859 0d6e ED0C0000 		.4byte	0xced
 3860 0d72 2B       		.uleb128 0x2b
 3861 0d73 B40A0000 		.4byte	0xab4
 3862 0d77 4C000000 		.4byte	.LBB18
 3863 0d7b 30000000 		.4byte	.Ldebug_ranges0+0x30
 3864 0d7f 01       		.byte	0x1
 3865 0d80 6101     		.2byte	0x161
 3866 0d82 BA0D0000 		.4byte	0xdba
ARM GAS  C:\Users\haske\AppData\Local\Temp\ccHSLozV.s 			page 99


 3867 0d86 2C       		.uleb128 0x2c
 3868 0d87 DA0A0000 		.4byte	0xada
 3869 0d8b D7020000 		.4byte	.LLST12
 3870 0d8f 2C       		.uleb128 0x2c
 3871 0d90 CF0A0000 		.4byte	0xacf
 3872 0d94 F6020000 		.4byte	.LLST13
 3873 0d98 2C       		.uleb128 0x2c
 3874 0d99 C40A0000 		.4byte	0xac4
 3875 0d9d 23030000 		.4byte	.LLST14
 3876 0da1 2D       		.uleb128 0x2d
 3877 0da2 30000000 		.4byte	.Ldebug_ranges0+0x30
 3878 0da6 2E       		.uleb128 0x2e
 3879 0da7 E50A0000 		.4byte	0xae5
 3880 0dab 36030000 		.4byte	.LLST15
 3881 0daf 2E       		.uleb128 0x2e
 3882 0db0 EF0A0000 		.4byte	0xaef
 3883 0db4 49030000 		.4byte	.LLST16
 3884 0db8 00       		.byte	0
 3885 0db9 00       		.byte	0
 3886 0dba 29       		.uleb128 0x29
 3887 0dbb 16000000 		.4byte	.LVL33
 3888 0dbf 041B0000 		.4byte	0x1b04
 3889 0dc3 24       		.uleb128 0x24
 3890 0dc4 1C000000 		.4byte	.LVL34
 3891 0dc8 0F1B0000 		.4byte	0x1b0f
 3892 0dcc DA0D0000 		.4byte	0xdda
 3893 0dd0 25       		.uleb128 0x25
 3894 0dd1 01       		.uleb128 0x1
 3895 0dd2 51       		.byte	0x51
 3896 0dd3 05       		.uleb128 0x5
 3897 0dd4 03       		.byte	0x3
 3898 0dd5 00000000 		.4byte	.LC2
 3899 0dd9 00       		.byte	0
 3900 0dda 24       		.uleb128 0x24
 3901 0ddb 28000000 		.4byte	.LVL35
 3902 0ddf 1A1B0000 		.4byte	0x1b1a
 3903 0de3 F30D0000 		.4byte	0xdf3
 3904 0de7 25       		.uleb128 0x25
 3905 0de8 01       		.uleb128 0x1
 3906 0de9 50       		.byte	0x50
 3907 0dea 02       		.uleb128 0x2
 3908 0deb 91       		.byte	0x91
 3909 0dec 54       		.sleb128 -44
 3910 0ded 25       		.uleb128 0x25
 3911 0dee 01       		.uleb128 0x1
 3912 0def 52       		.byte	0x52
 3913 0df0 01       		.uleb128 0x1
 3914 0df1 32       		.byte	0x32
 3915 0df2 00       		.byte	0
 3916 0df3 24       		.uleb128 0x24
 3917 0df4 34000000 		.4byte	.LVL37
 3918 0df8 3B1B0000 		.4byte	0x1b3b
 3919 0dfc 060E0000 		.4byte	0xe06
 3920 0e00 25       		.uleb128 0x25
 3921 0e01 01       		.uleb128 0x1
 3922 0e02 50       		.byte	0x50
 3923 0e03 01       		.uleb128 0x1
ARM GAS  C:\Users\haske\AppData\Local\Temp\ccHSLozV.s 			page 100


 3924 0e04 44       		.byte	0x44
 3925 0e05 00       		.byte	0
 3926 0e06 24       		.uleb128 0x24
 3927 0e07 42000000 		.4byte	.LVL38
 3928 0e0b F91A0000 		.4byte	0x1af9
 3929 0e0f 1A0E0000 		.4byte	0xe1a
 3930 0e13 25       		.uleb128 0x25
 3931 0e14 01       		.uleb128 0x1
 3932 0e15 50       		.byte	0x50
 3933 0e16 02       		.uleb128 0x2
 3934 0e17 91       		.byte	0x91
 3935 0e18 54       		.sleb128 -44
 3936 0e19 00       		.byte	0
 3937 0e1a 26       		.uleb128 0x26
 3938 0e1b 4A000000 		.4byte	.LVL39
 3939 0e1f 461B0000 		.4byte	0x1b46
 3940 0e23 25       		.uleb128 0x25
 3941 0e24 01       		.uleb128 0x1
 3942 0e25 51       		.byte	0x51
 3943 0e26 01       		.uleb128 0x1
 3944 0e27 44       		.byte	0x44
 3945 0e28 00       		.byte	0
 3946 0e29 00       		.byte	0
 3947 0e2a 20       		.uleb128 0x20
 3948 0e2b 48000000 		.4byte	.Ldebug_ranges0+0x48
 3949 0e2f C40F0000 		.4byte	0xfc4
 3950 0e33 1F       		.uleb128 0x1f
 3951 0e34 05050000 		.4byte	.LASF178
 3952 0e38 01       		.byte	0x1
 3953 0e39 7D01     		.2byte	0x17d
 3954 0e3b B8000000 		.4byte	0xb8
 3955 0e3f 81030000 		.4byte	.LLST17
 3956 0e43 1F       		.uleb128 0x1f
 3957 0e44 0C0B0000 		.4byte	.LASF179
 3958 0e48 01       		.byte	0x1
 3959 0e49 7E01     		.2byte	0x17e
 3960 0e4b E4000000 		.4byte	0xe4
 3961 0e4f 94030000 		.4byte	.LLST18
 3962 0e53 1F       		.uleb128 0x1f
 3963 0e54 0B0E0000 		.4byte	.LASF116
 3964 0e58 01       		.byte	0x1
 3965 0e59 8B01     		.2byte	0x18b
 3966 0e5b ED0C0000 		.4byte	0xced
 3967 0e5f B2030000 		.4byte	.LLST19
 3968 0e63 23       		.uleb128 0x23
 3969 0e64 04010000 		.4byte	.LBB23
 3970 0e68 56000000 		.4byte	.LBE23-.LBB23
 3971 0e6c FC0E0000 		.4byte	0xefc
 3972 0e70 28       		.uleb128 0x28
 3973 0e71 CC070000 		.4byte	.LASF180
 3974 0e75 01       		.byte	0x1
 3975 0e76 9901     		.2byte	0x199
 3976 0e78 FC010000 		.4byte	0x1fc
 3977 0e7c 02       		.uleb128 0x2
 3978 0e7d 91       		.byte	0x91
 3979 0e7e 54       		.sleb128 -44
 3980 0e7f 21       		.uleb128 0x21
ARM GAS  C:\Users\haske\AppData\Local\Temp\ccHSLozV.s 			page 101


 3981 0e80 6900     		.ascii	"i\000"
 3982 0e82 01       		.byte	0x1
 3983 0e83 9A01     		.2byte	0x19a
 3984 0e85 E4000000 		.4byte	0xe4
 3985 0e89 DB030000 		.4byte	.LLST20
 3986 0e8d 2F       		.uleb128 0x2f
 3987 0e8e FA0A0000 		.4byte	0xafa
 3988 0e92 32010000 		.4byte	.LBB24
 3989 0e96 12000000 		.4byte	.LBE24-.LBB24
 3990 0e9a 01       		.byte	0x1
 3991 0e9b 9D01     		.2byte	0x19d
 3992 0e9d BD0E0000 		.4byte	0xebd
 3993 0ea1 2C       		.uleb128 0x2c
 3994 0ea2 1F0B0000 		.4byte	0xb1f
 3995 0ea6 FA030000 		.4byte	.LLST21
 3996 0eaa 2C       		.uleb128 0x2c
 3997 0eab 150B0000 		.4byte	0xb15
 3998 0eaf 19040000 		.4byte	.LLST22
 3999 0eb3 2C       		.uleb128 0x2c
 4000 0eb4 0B0B0000 		.4byte	0xb0b
 4001 0eb8 38040000 		.4byte	.LLST23
 4002 0ebc 00       		.byte	0
 4003 0ebd 24       		.uleb128 0x24
 4004 0ebe 10010000 		.4byte	.LVL60
 4005 0ec2 511B0000 		.4byte	0x1b51
 4006 0ec6 DB0E0000 		.4byte	0xedb
 4007 0eca 25       		.uleb128 0x25
 4008 0ecb 01       		.uleb128 0x1
 4009 0ecc 50       		.byte	0x50
 4010 0ecd 02       		.uleb128 0x2
 4011 0ece 76       		.byte	0x76
 4012 0ecf 00       		.sleb128 0
 4013 0ed0 25       		.uleb128 0x25
 4014 0ed1 01       		.uleb128 0x1
 4015 0ed2 51       		.byte	0x51
 4016 0ed3 01       		.uleb128 0x1
 4017 0ed4 34       		.byte	0x34
 4018 0ed5 25       		.uleb128 0x25
 4019 0ed6 01       		.uleb128 0x1
 4020 0ed7 52       		.byte	0x52
 4021 0ed8 01       		.uleb128 0x1
 4022 0ed9 30       		.byte	0x30
 4023 0eda 00       		.byte	0
 4024 0edb 26       		.uleb128 0x26
 4025 0edc 22010000 		.4byte	.LVL63
 4026 0ee0 EE1A0000 		.4byte	0x1aee
 4027 0ee4 25       		.uleb128 0x25
 4028 0ee5 01       		.uleb128 0x1
 4029 0ee6 50       		.byte	0x50
 4030 0ee7 02       		.uleb128 0x2
 4031 0ee8 76       		.byte	0x76
 4032 0ee9 00       		.sleb128 0
 4033 0eea 25       		.uleb128 0x25
 4034 0eeb 01       		.uleb128 0x1
 4035 0eec 51       		.byte	0x51
 4036 0eed 02       		.uleb128 0x2
 4037 0eee 91       		.byte	0x91
ARM GAS  C:\Users\haske\AppData\Local\Temp\ccHSLozV.s 			page 102


 4038 0eef 54       		.sleb128 -44
 4039 0ef0 25       		.uleb128 0x25
 4040 0ef1 01       		.uleb128 0x1
 4041 0ef2 52       		.byte	0x52
 4042 0ef3 01       		.uleb128 0x1
 4043 0ef4 34       		.byte	0x34
 4044 0ef5 25       		.uleb128 0x25
 4045 0ef6 01       		.uleb128 0x1
 4046 0ef7 53       		.byte	0x53
 4047 0ef8 01       		.uleb128 0x1
 4048 0ef9 30       		.byte	0x30
 4049 0efa 00       		.byte	0
 4050 0efb 00       		.byte	0
 4051 0efc 23       		.uleb128 0x23
 4052 0efd 5A010000 		.4byte	.LBB26
 4053 0f01 3C000000 		.4byte	.LBE26-.LBB26
 4054 0f05 540F0000 		.4byte	0xf54
 4055 0f09 1F       		.uleb128 0x1f
 4056 0f0a 1F010000 		.4byte	.LASF181
 4057 0f0e 01       		.byte	0x1
 4058 0f0f A301     		.2byte	0x1a3
 4059 0f11 DB0F0000 		.4byte	0xfdb
 4060 0f15 57040000 		.4byte	.LLST24
 4061 0f19 21       		.uleb128 0x21
 4062 0f1a 6900     		.ascii	"i\000"
 4063 0f1c 01       		.byte	0x1
 4064 0f1d A501     		.2byte	0x1a5
 4065 0f1f E4000000 		.4byte	0xe4
 4066 0f23 6A040000 		.4byte	.LLST25
 4067 0f27 30       		.uleb128 0x30
 4068 0f28 FA0A0000 		.4byte	0xafa
 4069 0f2c 72010000 		.4byte	.LBB27
 4070 0f30 12000000 		.4byte	.LBE27-.LBB27
 4071 0f34 01       		.byte	0x1
 4072 0f35 A701     		.2byte	0x1a7
 4073 0f37 2C       		.uleb128 0x2c
 4074 0f38 1F0B0000 		.4byte	0xb1f
 4075 0f3c 89040000 		.4byte	.LLST26
 4076 0f40 2C       		.uleb128 0x2c
 4077 0f41 150B0000 		.4byte	0xb15
 4078 0f45 A8040000 		.4byte	.LLST27
 4079 0f49 2C       		.uleb128 0x2c
 4080 0f4a 0B0B0000 		.4byte	0xb0b
 4081 0f4e C7040000 		.4byte	.LLST28
 4082 0f52 00       		.byte	0
 4083 0f53 00       		.byte	0
 4084 0f54 29       		.uleb128 0x29
 4085 0f55 A6000000 		.4byte	.LVL50
 4086 0f59 5C1B0000 		.4byte	0x1b5c
 4087 0f5d 24       		.uleb128 0x24
 4088 0f5e B8000000 		.4byte	.LVL53
 4089 0f62 3B1B0000 		.4byte	0x1b3b
 4090 0f66 700F0000 		.4byte	0xf70
 4091 0f6a 25       		.uleb128 0x25
 4092 0f6b 01       		.uleb128 0x1
 4093 0f6c 50       		.byte	0x50
 4094 0f6d 01       		.uleb128 0x1
ARM GAS  C:\Users\haske\AppData\Local\Temp\ccHSLozV.s 			page 103


 4095 0f6e 44       		.byte	0x44
 4096 0f6f 00       		.byte	0
 4097 0f70 24       		.uleb128 0x24
 4098 0f71 C8000000 		.4byte	.LVL54
 4099 0f75 461B0000 		.4byte	0x1b46
 4100 0f79 830F0000 		.4byte	0xf83
 4101 0f7d 25       		.uleb128 0x25
 4102 0f7e 01       		.uleb128 0x1
 4103 0f7f 51       		.byte	0x51
 4104 0f80 01       		.uleb128 0x1
 4105 0f81 44       		.byte	0x44
 4106 0f82 00       		.byte	0
 4107 0f83 24       		.uleb128 0x24
 4108 0f84 D4000000 		.4byte	.LVL56
 4109 0f88 3B1B0000 		.4byte	0x1b3b
 4110 0f8c 990F0000 		.4byte	0xf99
 4111 0f90 25       		.uleb128 0x25
 4112 0f91 01       		.uleb128 0x1
 4113 0f92 50       		.byte	0x50
 4114 0f93 04       		.uleb128 0x4
 4115 0f94 7A       		.byte	0x7a
 4116 0f95 00       		.sleb128 0
 4117 0f96 31       		.byte	0x31
 4118 0f97 24       		.byte	0x24
 4119 0f98 00       		.byte	0
 4120 0f99 24       		.uleb128 0x24
 4121 0f9a E2000000 		.4byte	.LVL57
 4122 0f9e 3B1B0000 		.4byte	0x1b3b
 4123 0fa2 AD0F0000 		.4byte	0xfad
 4124 0fa6 25       		.uleb128 0x25
 4125 0fa7 01       		.uleb128 0x1
 4126 0fa8 50       		.byte	0x50
 4127 0fa9 02       		.uleb128 0x2
 4128 0faa 7A       		.byte	0x7a
 4129 0fab 00       		.sleb128 0
 4130 0fac 00       		.byte	0
 4131 0fad 26       		.uleb128 0x26
 4132 0fae FA000000 		.4byte	.LVL58
 4133 0fb2 6C0C0000 		.4byte	0xc6c
 4134 0fb6 25       		.uleb128 0x25
 4135 0fb7 01       		.uleb128 0x1
 4136 0fb8 50       		.byte	0x50
 4137 0fb9 02       		.uleb128 0x2
 4138 0fba 76       		.byte	0x76
 4139 0fbb 00       		.sleb128 0
 4140 0fbc 25       		.uleb128 0x25
 4141 0fbd 01       		.uleb128 0x1
 4142 0fbe 51       		.byte	0x51
 4143 0fbf 02       		.uleb128 0x2
 4144 0fc0 74       		.byte	0x74
 4145 0fc1 00       		.sleb128 0
 4146 0fc2 00       		.byte	0
 4147 0fc3 00       		.byte	0
 4148 0fc4 26       		.uleb128 0x26
 4149 0fc5 AC010000 		.4byte	.LVL80
 4150 0fc9 6C0C0000 		.4byte	0xc6c
 4151 0fcd 25       		.uleb128 0x25
ARM GAS  C:\Users\haske\AppData\Local\Temp\ccHSLozV.s 			page 104


 4152 0fce 01       		.uleb128 0x1
 4153 0fcf 50       		.byte	0x50
 4154 0fd0 02       		.uleb128 0x2
 4155 0fd1 76       		.byte	0x76
 4156 0fd2 00       		.sleb128 0
 4157 0fd3 25       		.uleb128 0x25
 4158 0fd4 01       		.uleb128 0x1
 4159 0fd5 51       		.byte	0x51
 4160 0fd6 02       		.uleb128 0x2
 4161 0fd7 74       		.byte	0x74
 4162 0fd8 00       		.sleb128 0
 4163 0fd9 00       		.byte	0
 4164 0fda 00       		.byte	0
 4165 0fdb 08       		.uleb128 0x8
 4166 0fdc 04       		.byte	0x4
 4167 0fdd FC010000 		.4byte	0x1fc
 4168 0fe1 31       		.uleb128 0x31
 4169 0fe2 29010000 		.4byte	.LASF182
 4170 0fe6 01       		.byte	0x1
 4171 0fe7 0002     		.2byte	0x200
 4172 0fe9 08010000 		.4byte	0x108
 4173 0fed 00000000 		.4byte	.LFB71
 4174 0ff1 6E000000 		.4byte	.LFE71-.LFB71
 4175 0ff5 01       		.uleb128 0x1
 4176 0ff6 9C       		.byte	0x9c
 4177 0ff7 E8100000 		.4byte	0x10e8
 4178 0ffb 1E       		.uleb128 0x1e
 4179 0ffc 64736300 		.ascii	"dsc\000"
 4180 1000 01       		.byte	0x1
 4181 1001 0002     		.2byte	0x200
 4182 1003 E70C0000 		.4byte	0xce7
 4183 1007 E6040000 		.4byte	.LLST29
 4184 100b 1E       		.uleb128 0x1e
 4185 100c 7800     		.ascii	"x\000"
 4186 100e 01       		.byte	0x1
 4187 100f 0002     		.2byte	0x200
 4188 1011 1D020000 		.4byte	0x21d
 4189 1015 04050000 		.4byte	.LLST30
 4190 1019 1E       		.uleb128 0x1e
 4191 101a 7900     		.ascii	"y\000"
 4192 101c 01       		.byte	0x1
 4193 101d 0002     		.2byte	0x200
 4194 101f 1D020000 		.4byte	0x21d
 4195 1023 25050000 		.4byte	.LLST31
 4196 1027 1E       		.uleb128 0x1e
 4197 1028 6C656E00 		.ascii	"len\000"
 4198 102c 01       		.byte	0x1
 4199 102d 0102     		.2byte	0x201
 4200 102f 1D020000 		.4byte	0x21d
 4201 1033 46050000 		.4byte	.LLST32
 4202 1037 32       		.uleb128 0x32
 4203 1038 62756600 		.ascii	"buf\000"
 4204 103c 01       		.byte	0x1
 4205 103d 0102     		.2byte	0x201
 4206 103f 7F080000 		.4byte	0x87f
 4207 1043 02       		.uleb128 0x2
 4208 1044 91       		.byte	0x91
ARM GAS  C:\Users\haske\AppData\Local\Temp\ccHSLozV.s 			page 105


 4209 1045 00       		.sleb128 0
 4210 1046 28       		.uleb128 0x28
 4211 1047 0B0E0000 		.4byte	.LASF116
 4212 104b 01       		.byte	0x1
 4213 104c 0302     		.2byte	0x203
 4214 104e ED0C0000 		.4byte	0xced
 4215 1052 01       		.uleb128 0x1
 4216 1053 56       		.byte	0x56
 4217 1054 21       		.uleb128 0x21
 4218 1055 72657300 		.ascii	"res\000"
 4219 1059 01       		.byte	0x1
 4220 105a 0402     		.2byte	0x204
 4221 105c 1C040000 		.4byte	0x41c
 4222 1060 67050000 		.4byte	.LLST33
 4223 1064 1F       		.uleb128 0x1f
 4224 1065 05050000 		.4byte	.LASF178
 4225 1069 01       		.byte	0x1
 4226 106a 0502     		.2byte	0x205
 4227 106c B8000000 		.4byte	0xb8
 4228 1070 9B050000 		.4byte	.LLST34
 4229 1074 21       		.uleb128 0x21
 4230 1075 706F7300 		.ascii	"pos\000"
 4231 1079 01       		.byte	0x1
 4232 107a 0702     		.2byte	0x207
 4233 107c E4000000 		.4byte	0xe4
 4234 1080 AE050000 		.4byte	.LLST35
 4235 1084 21       		.uleb128 0x21
 4236 1085 62747200 		.ascii	"btr\000"
 4237 1089 01       		.byte	0x1
 4238 108a 0E02     		.2byte	0x20e
 4239 108c E4000000 		.4byte	0xe4
 4240 1090 CE050000 		.4byte	.LLST36
 4241 1094 22       		.uleb128 0x22
 4242 1095 627200   		.ascii	"br\000"
 4243 1098 01       		.byte	0x1
 4244 1099 0F02     		.2byte	0x20f
 4245 109b E4000000 		.4byte	0xe4
 4246 109f 02       		.uleb128 0x2
 4247 10a0 91       		.byte	0x91
 4248 10a1 5C       		.sleb128 -36
 4249 10a2 29       		.uleb128 0x29
 4250 10a3 1A000000 		.4byte	.LVL88
 4251 10a7 5C1B0000 		.4byte	0x1b5c
 4252 10ab 24       		.uleb128 0x24
 4253 10ac 38000000 		.4byte	.LVL93
 4254 10b0 511B0000 		.4byte	0x1b51
 4255 10b4 C4100000 		.4byte	0x10c4
 4256 10b8 25       		.uleb128 0x25
 4257 10b9 01       		.uleb128 0x1
 4258 10ba 50       		.byte	0x50
 4259 10bb 02       		.uleb128 0x2
 4260 10bc 76       		.byte	0x76
 4261 10bd 00       		.sleb128 0
 4262 10be 25       		.uleb128 0x25
 4263 10bf 01       		.uleb128 0x1
 4264 10c0 52       		.byte	0x52
 4265 10c1 01       		.uleb128 0x1
ARM GAS  C:\Users\haske\AppData\Local\Temp\ccHSLozV.s 			page 106


 4266 10c2 30       		.byte	0x30
 4267 10c3 00       		.byte	0
 4268 10c4 26       		.uleb128 0x26
 4269 10c5 54000000 		.4byte	.LVL96
 4270 10c9 EE1A0000 		.4byte	0x1aee
 4271 10cd 25       		.uleb128 0x25
 4272 10ce 01       		.uleb128 0x1
 4273 10cf 50       		.byte	0x50
 4274 10d0 02       		.uleb128 0x2
 4275 10d1 76       		.byte	0x76
 4276 10d2 00       		.sleb128 0
 4277 10d3 25       		.uleb128 0x25
 4278 10d4 01       		.uleb128 0x1
 4279 10d5 51       		.byte	0x51
 4280 10d6 03       		.uleb128 0x3
 4281 10d7 91       		.byte	0x91
 4282 10d8 00       		.sleb128 0
 4283 10d9 06       		.byte	0x6
 4284 10da 25       		.uleb128 0x25
 4285 10db 01       		.uleb128 0x1
 4286 10dc 52       		.byte	0x52
 4287 10dd 02       		.uleb128 0x2
 4288 10de 75       		.byte	0x75
 4289 10df 00       		.sleb128 0
 4290 10e0 25       		.uleb128 0x25
 4291 10e1 01       		.uleb128 0x1
 4292 10e2 53       		.byte	0x53
 4293 10e3 02       		.uleb128 0x2
 4294 10e4 91       		.byte	0x91
 4295 10e5 5C       		.sleb128 -36
 4296 10e6 00       		.byte	0
 4297 10e7 00       		.byte	0
 4298 10e8 31       		.uleb128 0x31
 4299 10e9 770B0000 		.4byte	.LASF183
 4300 10ed 01       		.byte	0x1
 4301 10ee 1902     		.2byte	0x219
 4302 10f0 08010000 		.4byte	0x108
 4303 10f4 00000000 		.4byte	.LFB72
 4304 10f8 98010000 		.4byte	.LFE72-.LFB72
 4305 10fc 01       		.uleb128 0x1
 4306 10fd 9C       		.byte	0x9c
 4307 10fe DB120000 		.4byte	0x12db
 4308 1102 1E       		.uleb128 0x1e
 4309 1103 64736300 		.ascii	"dsc\000"
 4310 1107 01       		.byte	0x1
 4311 1108 1902     		.2byte	0x219
 4312 110a E70C0000 		.4byte	0xce7
 4313 110e EC050000 		.4byte	.LLST37
 4314 1112 1E       		.uleb128 0x1e
 4315 1113 7800     		.ascii	"x\000"
 4316 1115 01       		.byte	0x1
 4317 1116 1902     		.2byte	0x219
 4318 1118 1D020000 		.4byte	0x21d
 4319 111c 18060000 		.4byte	.LLST38
 4320 1120 1E       		.uleb128 0x1e
 4321 1121 7900     		.ascii	"y\000"
 4322 1123 01       		.byte	0x1
ARM GAS  C:\Users\haske\AppData\Local\Temp\ccHSLozV.s 			page 107


 4323 1124 1902     		.2byte	0x219
 4324 1126 1D020000 		.4byte	0x21d
 4325 112a 39060000 		.4byte	.LLST39
 4326 112e 1E       		.uleb128 0x1e
 4327 112f 6C656E00 		.ascii	"len\000"
 4328 1133 01       		.byte	0x1
 4329 1134 1A02     		.2byte	0x21a
 4330 1136 1D020000 		.4byte	0x21d
 4331 113a 5A060000 		.4byte	.LLST40
 4332 113e 1E       		.uleb128 0x1e
 4333 113f 62756600 		.ascii	"buf\000"
 4334 1143 01       		.byte	0x1
 4335 1144 1A02     		.2byte	0x21a
 4336 1146 7F080000 		.4byte	0x87f
 4337 114a 7B060000 		.4byte	.LLST41
 4338 114e 28       		.uleb128 0x28
 4339 114f F4040000 		.4byte	.LASF184
 4340 1153 01       		.byte	0x1
 4341 1154 1C02     		.2byte	0x21c
 4342 1156 EB120000 		.4byte	0x12eb
 4343 115a 02       		.uleb128 0x2
 4344 115b 91       		.byte	0x91
 4345 115c 54       		.sleb128 -44
 4346 115d 28       		.uleb128 0x28
 4347 115e C00A0000 		.4byte	.LASF185
 4348 1162 01       		.byte	0x1
 4349 1163 1D02     		.2byte	0x21d
 4350 1165 00130000 		.4byte	0x1300
 4351 1169 02       		.uleb128 0x2
 4352 116a 91       		.byte	0x91
 4353 116b 50       		.sleb128 -48
 4354 116c 28       		.uleb128 0x28
 4355 116d 320A0000 		.4byte	.LASF186
 4356 1171 01       		.byte	0x1
 4357 1172 1E02     		.2byte	0x21e
 4358 1174 15130000 		.4byte	0x1315
 4359 1178 02       		.uleb128 0x2
 4360 1179 91       		.byte	0x91
 4361 117a 40       		.sleb128 -64
 4362 117b 1F       		.uleb128 0x1f
 4363 117c 0A010000 		.4byte	.LASF187
 4364 1180 01       		.byte	0x1
 4365 1181 2302     		.2byte	0x223
 4366 1183 07020000 		.4byte	0x207
 4367 1187 9B060000 		.4byte	.LLST42
 4368 118b 21       		.uleb128 0x21
 4369 118c 6900     		.ascii	"i\000"
 4370 118e 01       		.byte	0x1
 4371 118f 2402     		.2byte	0x224
 4372 1191 1D020000 		.4byte	0x21d
 4373 1195 AE060000 		.4byte	.LLST43
 4374 1199 1F       		.uleb128 0x1f
 4375 119a 87000000 		.4byte	.LASF188
 4376 119e 01       		.byte	0x1
 4377 119f 3302     		.2byte	0x233
 4378 11a1 6D0A0000 		.4byte	0xa6d
 4379 11a5 EE060000 		.4byte	.LLST44
ARM GAS  C:\Users\haske\AppData\Local\Temp\ccHSLozV.s 			page 108


 4380 11a9 1F       		.uleb128 0x1f
 4381 11aa 05050000 		.4byte	.LASF178
 4382 11ae 01       		.byte	0x1
 4383 11af 3402     		.2byte	0x234
 4384 11b1 B8000000 		.4byte	0xb8
 4385 11b5 55070000 		.4byte	.LLST45
 4386 11b9 1F       		.uleb128 0x1f
 4387 11ba 49070000 		.4byte	.LASF189
 4388 11be 01       		.byte	0x1
 4389 11bf 3502     		.2byte	0x235
 4390 11c1 CE000000 		.4byte	0xce
 4391 11c5 94070000 		.4byte	.LLST46
 4392 11c9 21       		.uleb128 0x21
 4393 11ca 7700     		.ascii	"w\000"
 4394 11cc 01       		.byte	0x1
 4395 11cd 3702     		.2byte	0x237
 4396 11cf 1D020000 		.4byte	0x21d
 4397 11d3 A7070000 		.4byte	.LLST47
 4398 11d7 21       		.uleb128 0x21
 4399 11d8 6F667300 		.ascii	"ofs\000"
 4400 11dc 01       		.byte	0x1
 4401 11dd 3802     		.2byte	0x238
 4402 11df E4000000 		.4byte	0xe4
 4403 11e3 22080000 		.4byte	.LLST48
 4404 11e7 21       		.uleb128 0x21
 4405 11e8 706F7300 		.ascii	"pos\000"
 4406 11ec 01       		.byte	0x1
 4407 11ed 3902     		.2byte	0x239
 4408 11ef AD000000 		.4byte	0xad
 4409 11f3 B3080000 		.4byte	.LLST49
 4410 11f7 1F       		.uleb128 0x1f
 4411 11f8 0B0E0000 		.4byte	.LASF116
 4412 11fc 01       		.byte	0x1
 4413 11fd 5402     		.2byte	0x254
 4414 11ff ED0C0000 		.4byte	0xced
 4415 1203 16090000 		.4byte	.LLST50
 4416 1207 1F       		.uleb128 0x1f
 4417 1208 54090000 		.4byte	.LASF190
 4418 120c 01       		.byte	0x1
 4419 120d 5502     		.2byte	0x255
 4420 120f 7F080000 		.4byte	0x87f
 4421 1213 43090000 		.4byte	.LLST51
 4422 1217 1F       		.uleb128 0x1f
 4423 1218 E00E0000 		.4byte	.LASF191
 4424 121c 01       		.byte	0x1
 4425 121d 5802     		.2byte	0x258
 4426 121f AB030000 		.4byte	0x3ab
 4427 1223 A0090000 		.4byte	.LLST52
 4428 1227 23       		.uleb128 0x23
 4429 1228 1C010000 		.4byte	.LBB30
 4430 122c 06000000 		.4byte	.LBE30-.LBB30
 4431 1230 45120000 		.4byte	0x1245
 4432 1234 1F       		.uleb128 0x1f
 4433 1235 0D050000 		.4byte	.LASF192
 4434 1239 01       		.byte	0x1
 4435 123a 5A02     		.2byte	0x25a
 4436 123c 1A130000 		.4byte	0x131a
ARM GAS  C:\Users\haske\AppData\Local\Temp\ccHSLozV.s 			page 109


 4437 1240 D6090000 		.4byte	.LLST53
 4438 1244 00       		.byte	0
 4439 1245 20       		.uleb128 0x20
 4440 1246 60000000 		.4byte	.Ldebug_ranges0+0x60
 4441 124a 5F120000 		.4byte	0x125f
 4442 124e 1F       		.uleb128 0x1f
 4443 124f 330C0000 		.4byte	.LASF193
 4444 1253 01       		.byte	0x1
 4445 1254 6502     		.2byte	0x265
 4446 1256 B8000000 		.4byte	0xb8
 4447 125a F5090000 		.4byte	.LLST54
 4448 125e 00       		.byte	0
 4449 125f 29       		.uleb128 0x29
 4450 1260 5C000000 		.4byte	.LVL114
 4451 1264 5C1B0000 		.4byte	0x1b5c
 4452 1268 24       		.uleb128 0x24
 4453 1269 12010000 		.4byte	.LVL141
 4454 126d 671B0000 		.4byte	0x1b67
 4455 1271 7E120000 		.4byte	0x127e
 4456 1275 25       		.uleb128 0x25
 4457 1276 01       		.uleb128 0x1
 4458 1277 50       		.byte	0x50
 4459 1278 04       		.uleb128 0x4
 4460 1279 91       		.byte	0x91
 4461 127a BC7F     		.sleb128 -68
 4462 127c 06       		.byte	0x6
 4463 127d 00       		.byte	0
 4464 127e 24       		.uleb128 0x24
 4465 127f 32010000 		.4byte	.LVL148
 4466 1283 511B0000 		.4byte	0x1b51
 4467 1287 9F120000 		.4byte	0x129f
 4468 128b 25       		.uleb128 0x25
 4469 128c 01       		.uleb128 0x1
 4470 128d 50       		.byte	0x50
 4471 128e 04       		.uleb128 0x4
 4472 128f 91       		.byte	0x91
 4473 1290 B87F     		.sleb128 -72
 4474 1292 06       		.byte	0x6
 4475 1293 25       		.uleb128 0x25
 4476 1294 01       		.uleb128 0x1
 4477 1295 51       		.byte	0x51
 4478 1296 02       		.uleb128 0x2
 4479 1297 7B       		.byte	0x7b
 4480 1298 04       		.sleb128 4
 4481 1299 25       		.uleb128 0x25
 4482 129a 01       		.uleb128 0x1
 4483 129b 52       		.byte	0x52
 4484 129c 01       		.uleb128 0x1
 4485 129d 30       		.byte	0x30
 4486 129e 00       		.byte	0
 4487 129f 24       		.uleb128 0x24
 4488 12a0 42010000 		.4byte	.LVL150
 4489 12a4 EE1A0000 		.4byte	0x1aee
 4490 12a8 C8120000 		.4byte	0x12c8
 4491 12ac 25       		.uleb128 0x25
 4492 12ad 01       		.uleb128 0x1
 4493 12ae 50       		.byte	0x50
ARM GAS  C:\Users\haske\AppData\Local\Temp\ccHSLozV.s 			page 110


 4494 12af 04       		.uleb128 0x4
 4495 12b0 91       		.byte	0x91
 4496 12b1 B87F     		.sleb128 -72
 4497 12b3 06       		.byte	0x6
 4498 12b4 25       		.uleb128 0x25
 4499 12b5 01       		.uleb128 0x1
 4500 12b6 51       		.byte	0x51
 4501 12b7 02       		.uleb128 0x2
 4502 12b8 7B       		.byte	0x7b
 4503 12b9 00       		.sleb128 0
 4504 12ba 25       		.uleb128 0x25
 4505 12bb 01       		.uleb128 0x1
 4506 12bc 52       		.byte	0x52
 4507 12bd 04       		.uleb128 0x4
 4508 12be 91       		.byte	0x91
 4509 12bf BC7F     		.sleb128 -68
 4510 12c1 06       		.byte	0x6
 4511 12c2 25       		.uleb128 0x25
 4512 12c3 01       		.uleb128 0x1
 4513 12c4 53       		.byte	0x53
 4514 12c5 01       		.uleb128 0x1
 4515 12c6 30       		.byte	0x30
 4516 12c7 00       		.byte	0
 4517 12c8 26       		.uleb128 0x26
 4518 12c9 88010000 		.4byte	.LVL162
 4519 12cd 721B0000 		.4byte	0x1b72
 4520 12d1 25       		.uleb128 0x25
 4521 12d2 01       		.uleb128 0x1
 4522 12d3 50       		.byte	0x50
 4523 12d4 04       		.uleb128 0x4
 4524 12d5 91       		.byte	0x91
 4525 12d6 B47F     		.sleb128 -76
 4526 12d8 06       		.byte	0x6
 4527 12d9 00       		.byte	0
 4528 12da 00       		.byte	0
 4529 12db 33       		.uleb128 0x33
 4530 12dc 730A0000 		.4byte	0xa73
 4531 12e0 EB120000 		.4byte	0x12eb
 4532 12e4 34       		.uleb128 0x34
 4533 12e5 25010000 		.4byte	0x125
 4534 12e9 01       		.byte	0x1
 4535 12ea 00       		.byte	0
 4536 12eb 09       		.uleb128 0x9
 4537 12ec DB120000 		.4byte	0x12db
 4538 12f0 33       		.uleb128 0x33
 4539 12f1 730A0000 		.4byte	0xa73
 4540 12f5 00130000 		.4byte	0x1300
 4541 12f9 34       		.uleb128 0x34
 4542 12fa 25010000 		.4byte	0x125
 4543 12fe 03       		.byte	0x3
 4544 12ff 00       		.byte	0
 4545 1300 09       		.uleb128 0x9
 4546 1301 F0120000 		.4byte	0x12f0
 4547 1305 33       		.uleb128 0x33
 4548 1306 730A0000 		.4byte	0xa73
 4549 130a 15130000 		.4byte	0x1315
 4550 130e 34       		.uleb128 0x34
ARM GAS  C:\Users\haske\AppData\Local\Temp\ccHSLozV.s 			page 111


 4551 130f 25010000 		.4byte	0x125
 4552 1313 0F       		.byte	0xf
 4553 1314 00       		.byte	0
 4554 1315 09       		.uleb128 0x9
 4555 1316 05130000 		.4byte	0x1305
 4556 131a 08       		.uleb128 0x8
 4557 131b 04       		.byte	0x4
 4558 131c 20130000 		.4byte	0x1320
 4559 1320 09       		.uleb128 0x9
 4560 1321 B6030000 		.4byte	0x3b6
 4561 1325 31       		.uleb128 0x31
 4562 1326 E80C0000 		.4byte	.LASF194
 4563 132a 01       		.byte	0x1
 4564 132b 7402     		.2byte	0x274
 4565 132d 08010000 		.4byte	0x108
 4566 1331 00000000 		.4byte	.LFB73
 4567 1335 5C010000 		.4byte	.LFE73-.LFB73
 4568 1339 01       		.uleb128 0x1
 4569 133a 9C       		.byte	0x9c
 4570 133b CF140000 		.4byte	0x14cf
 4571 133f 1E       		.uleb128 0x1e
 4572 1340 64736300 		.ascii	"dsc\000"
 4573 1344 01       		.byte	0x1
 4574 1345 7402     		.2byte	0x274
 4575 1347 E70C0000 		.4byte	0xce7
 4576 134b 200A0000 		.4byte	.LLST55
 4577 134f 1E       		.uleb128 0x1e
 4578 1350 7800     		.ascii	"x\000"
 4579 1352 01       		.byte	0x1
 4580 1353 7402     		.2byte	0x274
 4581 1355 1D020000 		.4byte	0x21d
 4582 1359 3E0A0000 		.4byte	.LLST56
 4583 135d 1E       		.uleb128 0x1e
 4584 135e 7900     		.ascii	"y\000"
 4585 1360 01       		.byte	0x1
 4586 1361 7402     		.2byte	0x274
 4587 1363 1D020000 		.4byte	0x21d
 4588 1367 5F0A0000 		.4byte	.LLST57
 4589 136b 1E       		.uleb128 0x1e
 4590 136c 6C656E00 		.ascii	"len\000"
 4591 1370 01       		.byte	0x1
 4592 1371 7502     		.2byte	0x275
 4593 1373 1D020000 		.4byte	0x21d
 4594 1377 800A0000 		.4byte	.LLST58
 4595 137b 32       		.uleb128 0x32
 4596 137c 62756600 		.ascii	"buf\000"
 4597 1380 01       		.byte	0x1
 4598 1381 7502     		.2byte	0x275
 4599 1383 7F080000 		.4byte	0x87f
 4600 1387 02       		.uleb128 0x2
 4601 1388 91       		.byte	0x91
 4602 1389 00       		.sleb128 0
 4603 138a 1F       		.uleb128 0x1f
 4604 138b 05050000 		.4byte	.LASF178
 4605 138f 01       		.byte	0x1
 4606 1390 7702     		.2byte	0x277
 4607 1392 B8000000 		.4byte	0xb8
ARM GAS  C:\Users\haske\AppData\Local\Temp\ccHSLozV.s 			page 112


 4608 1396 A10A0000 		.4byte	.LLST59
 4609 139a 28       		.uleb128 0x28
 4610 139b 49070000 		.4byte	.LASF189
 4611 139f 01       		.byte	0x1
 4612 13a0 7802     		.2byte	0x278
 4613 13a2 CE000000 		.4byte	0xce
 4614 13a6 01       		.uleb128 0x1
 4615 13a7 57       		.byte	0x57
 4616 13a8 21       		.uleb128 0x21
 4617 13a9 7700     		.ascii	"w\000"
 4618 13ab 01       		.byte	0x1
 4619 13ac 7A02     		.2byte	0x27a
 4620 13ae 1D020000 		.4byte	0x21d
 4621 13b2 E00A0000 		.4byte	.LLST60
 4622 13b6 21       		.uleb128 0x21
 4623 13b7 706F7300 		.ascii	"pos\000"
 4624 13bb 01       		.byte	0x1
 4625 13bc 7B02     		.2byte	0x27b
 4626 13be AD000000 		.4byte	0xad
 4627 13c2 5B0B0000 		.4byte	.LLST61
 4628 13c6 21       		.uleb128 0x21
 4629 13c7 6F667300 		.ascii	"ofs\000"
 4630 13cb 01       		.byte	0x1
 4631 13cc 7C02     		.2byte	0x27c
 4632 13ce E4000000 		.4byte	0xe4
 4633 13d2 BE0B0000 		.4byte	.LLST62
 4634 13d6 28       		.uleb128 0x28
 4635 13d7 0B0E0000 		.4byte	.LASF116
 4636 13db 01       		.byte	0x1
 4637 13dc 9802     		.2byte	0x298
 4638 13de ED0C0000 		.4byte	0xced
 4639 13e2 01       		.uleb128 0x1
 4640 13e3 56       		.byte	0x56
 4641 13e4 1F       		.uleb128 0x1f
 4642 13e5 54090000 		.4byte	.LASF190
 4643 13e9 01       		.byte	0x1
 4644 13ea 9A02     		.2byte	0x29a
 4645 13ec 7F080000 		.4byte	0x87f
 4646 13f0 4F0C0000 		.4byte	.LLST63
 4647 13f4 1F       		.uleb128 0x1f
 4648 13f5 E00E0000 		.4byte	.LASF191
 4649 13f9 01       		.byte	0x1
 4650 13fa 9C02     		.2byte	0x29c
 4651 13fc AB030000 		.4byte	0x3ab
 4652 1400 A80C0000 		.4byte	.LLST64
 4653 1404 21       		.uleb128 0x21
 4654 1405 6900     		.ascii	"i\000"
 4655 1407 01       		.byte	0x1
 4656 1408 A702     		.2byte	0x2a7
 4657 140a 1D020000 		.4byte	0x21d
 4658 140e DE0C0000 		.4byte	.LLST65
 4659 1412 23       		.uleb128 0x23
 4660 1413 DC000000 		.4byte	.LBB33
 4661 1417 08000000 		.4byte	.LBE33-.LBB33
 4662 141b 30140000 		.4byte	0x1430
 4663 141f 1F       		.uleb128 0x1f
 4664 1420 0D050000 		.4byte	.LASF192
ARM GAS  C:\Users\haske\AppData\Local\Temp\ccHSLozV.s 			page 113


 4665 1424 01       		.byte	0x1
 4666 1425 9E02     		.2byte	0x29e
 4667 1427 1A130000 		.4byte	0x131a
 4668 142b FC0C0000 		.4byte	.LLST66
 4669 142f 00       		.byte	0
 4670 1430 23       		.uleb128 0x23
 4671 1431 06010000 		.4byte	.LBB34
 4672 1435 3C000000 		.4byte	.LBE34-.LBB34
 4673 1439 5A140000 		.4byte	0x145a
 4674 143d 1F       		.uleb128 0x1f
 4675 143e 330C0000 		.4byte	.LASF193
 4676 1442 01       		.byte	0x1
 4677 1443 A902     		.2byte	0x2a9
 4678 1445 B8000000 		.4byte	0xb8
 4679 1449 1B0D0000 		.4byte	.LLST67
 4680 144d 2A       		.uleb128 0x2a
 4681 144e 150C0000 		.4byte	.LASF139
 4682 1452 01       		.byte	0x1
 4683 1453 AB02     		.2byte	0x2ab
 4684 1455 07020000 		.4byte	0x207
 4685 1459 00       		.byte	0
 4686 145a 29       		.uleb128 0x29
 4687 145b 1A000000 		.4byte	.LVL168
 4688 145f 5C1B0000 		.4byte	0x1b5c
 4689 1463 24       		.uleb128 0x24
 4690 1464 D0000000 		.4byte	.LVL197
 4691 1468 671B0000 		.4byte	0x1b67
 4692 146c 78140000 		.4byte	0x1478
 4693 1470 25       		.uleb128 0x25
 4694 1471 01       		.uleb128 0x1
 4695 1472 50       		.byte	0x50
 4696 1473 03       		.uleb128 0x3
 4697 1474 91       		.byte	0x91
 4698 1475 54       		.sleb128 -44
 4699 1476 06       		.byte	0x6
 4700 1477 00       		.byte	0
 4701 1478 24       		.uleb128 0x24
 4702 1479 F4000000 		.4byte	.LVL204
 4703 147d 511B0000 		.4byte	0x1b51
 4704 1481 97140000 		.4byte	0x1497
 4705 1485 25       		.uleb128 0x25
 4706 1486 01       		.uleb128 0x1
 4707 1487 50       		.byte	0x50
 4708 1488 02       		.uleb128 0x2
 4709 1489 76       		.byte	0x76
 4710 148a 00       		.sleb128 0
 4711 148b 25       		.uleb128 0x25
 4712 148c 01       		.uleb128 0x1
 4713 148d 51       		.byte	0x51
 4714 148e 02       		.uleb128 0x2
 4715 148f 7B       		.byte	0x7b
 4716 1490 04       		.sleb128 4
 4717 1491 25       		.uleb128 0x25
 4718 1492 01       		.uleb128 0x1
 4719 1493 52       		.byte	0x52
 4720 1494 01       		.uleb128 0x1
 4721 1495 30       		.byte	0x30
ARM GAS  C:\Users\haske\AppData\Local\Temp\ccHSLozV.s 			page 114


 4722 1496 00       		.byte	0
 4723 1497 24       		.uleb128 0x24
 4724 1498 04010000 		.4byte	.LVL206
 4725 149c EE1A0000 		.4byte	0x1aee
 4726 14a0 BD140000 		.4byte	0x14bd
 4727 14a4 25       		.uleb128 0x25
 4728 14a5 01       		.uleb128 0x1
 4729 14a6 50       		.byte	0x50
 4730 14a7 02       		.uleb128 0x2
 4731 14a8 76       		.byte	0x76
 4732 14a9 00       		.sleb128 0
 4733 14aa 25       		.uleb128 0x25
 4734 14ab 01       		.uleb128 0x1
 4735 14ac 51       		.byte	0x51
 4736 14ad 02       		.uleb128 0x2
 4737 14ae 7B       		.byte	0x7b
 4738 14af 00       		.sleb128 0
 4739 14b0 25       		.uleb128 0x25
 4740 14b1 01       		.uleb128 0x1
 4741 14b2 52       		.byte	0x52
 4742 14b3 03       		.uleb128 0x3
 4743 14b4 91       		.byte	0x91
 4744 14b5 54       		.sleb128 -44
 4745 14b6 06       		.byte	0x6
 4746 14b7 25       		.uleb128 0x25
 4747 14b8 01       		.uleb128 0x1
 4748 14b9 53       		.byte	0x53
 4749 14ba 01       		.uleb128 0x1
 4750 14bb 30       		.byte	0x30
 4751 14bc 00       		.byte	0
 4752 14bd 26       		.uleb128 0x26
 4753 14be 50010000 		.4byte	.LVL217
 4754 14c2 721B0000 		.4byte	0x1b72
 4755 14c6 25       		.uleb128 0x25
 4756 14c7 01       		.uleb128 0x1
 4757 14c8 50       		.byte	0x50
 4758 14c9 03       		.uleb128 0x3
 4759 14ca 7D       		.byte	0x7d
 4760 14cb 00       		.sleb128 0
 4761 14cc 06       		.byte	0x6
 4762 14cd 00       		.byte	0
 4763 14ce 00       		.byte	0
 4764 14cf 1C       		.uleb128 0x1c
 4765 14d0 AF060000 		.4byte	.LASF195
 4766 14d4 01       		.byte	0x1
 4767 14d5 C701     		.2byte	0x1c7
 4768 14d7 08010000 		.4byte	0x108
 4769 14db 00000000 		.4byte	.LFB69
 4770 14df 5C000000 		.4byte	.LFE69-.LFB69
 4771 14e3 01       		.uleb128 0x1
 4772 14e4 9C       		.byte	0x9c
 4773 14e5 9E150000 		.4byte	0x159e
 4774 14e9 1D       		.uleb128 0x1d
 4775 14ea D2000000 		.4byte	.LASF138
 4776 14ee 01       		.byte	0x1
 4777 14ef C701     		.2byte	0x1c7
 4778 14f1 B1080000 		.4byte	0x8b1
ARM GAS  C:\Users\haske\AppData\Local\Temp\ccHSLozV.s 			page 115


 4779 14f5 2E0D0000 		.4byte	.LLST68
 4780 14f9 1E       		.uleb128 0x1e
 4781 14fa 64736300 		.ascii	"dsc\000"
 4782 14fe 01       		.byte	0x1
 4783 14ff C701     		.2byte	0x1c7
 4784 1501 E70C0000 		.4byte	0xce7
 4785 1505 4F0D0000 		.4byte	.LLST69
 4786 1509 1E       		.uleb128 0x1e
 4787 150a 7800     		.ascii	"x\000"
 4788 150c 01       		.byte	0x1
 4789 150d C701     		.2byte	0x1c7
 4790 150f 1D020000 		.4byte	0x21d
 4791 1513 DF0D0000 		.4byte	.LLST70
 4792 1517 1E       		.uleb128 0x1e
 4793 1518 7900     		.ascii	"y\000"
 4794 151a 01       		.byte	0x1
 4795 151b C801     		.2byte	0x1c8
 4796 151d 1D020000 		.4byte	0x21d
 4797 1521 000E0000 		.4byte	.LLST71
 4798 1525 32       		.uleb128 0x32
 4799 1526 6C656E00 		.ascii	"len\000"
 4800 152a 01       		.byte	0x1
 4801 152b C801     		.2byte	0x1c8
 4802 152d 1D020000 		.4byte	0x21d
 4803 1531 02       		.uleb128 0x2
 4804 1532 91       		.byte	0x91
 4805 1533 00       		.sleb128 0
 4806 1534 32       		.uleb128 0x32
 4807 1535 62756600 		.ascii	"buf\000"
 4808 1539 01       		.byte	0x1
 4809 153a C801     		.2byte	0x1c8
 4810 153c 7F080000 		.4byte	0x87f
 4811 1540 02       		.uleb128 0x2
 4812 1541 91       		.byte	0x91
 4813 1542 04       		.sleb128 4
 4814 1543 21       		.uleb128 0x21
 4815 1544 72657300 		.ascii	"res\000"
 4816 1548 01       		.byte	0x1
 4817 1549 CC01     		.2byte	0x1cc
 4818 154b 08010000 		.4byte	0x108
 4819 154f 210E0000 		.4byte	.LLST72
 4820 1553 24       		.uleb128 0x24
 4821 1554 2A000000 		.4byte	.LVL226
 4822 1558 E10F0000 		.4byte	0xfe1
 4823 155c 77150000 		.4byte	0x1577
 4824 1560 25       		.uleb128 0x25
 4825 1561 01       		.uleb128 0x1
 4826 1562 50       		.byte	0x50
 4827 1563 03       		.uleb128 0x3
 4828 1564 F3       		.byte	0xf3
 4829 1565 01       		.uleb128 0x1
 4830 1566 51       		.byte	0x51
 4831 1567 25       		.uleb128 0x25
 4832 1568 01       		.uleb128 0x1
 4833 1569 53       		.byte	0x53
 4834 156a 04       		.uleb128 0x4
 4835 156b 91       		.byte	0x91
ARM GAS  C:\Users\haske\AppData\Local\Temp\ccHSLozV.s 			page 116


 4836 156c 00       		.sleb128 0
 4837 156d 94       		.byte	0x94
 4838 156e 02       		.byte	0x2
 4839 156f 25       		.uleb128 0x25
 4840 1570 02       		.uleb128 0x2
 4841 1571 7D       		.byte	0x7d
 4842 1572 00       		.sleb128 0
 4843 1573 02       		.uleb128 0x2
 4844 1574 74       		.byte	0x74
 4845 1575 00       		.sleb128 0
 4846 1576 00       		.byte	0
 4847 1577 24       		.uleb128 0x24
 4848 1578 3E000000 		.4byte	.LVL228
 4849 157c E8100000 		.4byte	0x10e8
 4850 1580 8C150000 		.4byte	0x158c
 4851 1584 25       		.uleb128 0x25
 4852 1585 02       		.uleb128 0x2
 4853 1586 7D       		.byte	0x7d
 4854 1587 00       		.sleb128 0
 4855 1588 02       		.uleb128 0x2
 4856 1589 74       		.byte	0x74
 4857 158a 00       		.sleb128 0
 4858 158b 00       		.byte	0
 4859 158c 26       		.uleb128 0x26
 4860 158d 50000000 		.4byte	.LVL230
 4861 1591 25130000 		.4byte	0x1325
 4862 1595 25       		.uleb128 0x25
 4863 1596 02       		.uleb128 0x2
 4864 1597 7D       		.byte	0x7d
 4865 1598 00       		.sleb128 0
 4866 1599 02       		.uleb128 0x2
 4867 159a 74       		.byte	0x74
 4868 159b 00       		.sleb128 0
 4869 159c 00       		.byte	0
 4870 159d 00       		.byte	0
 4871 159e 35       		.uleb128 0x35
 4872 159f 250D0000 		.4byte	.LASF196
 4873 15a3 01       		.byte	0x1
 4874 15a4 53       		.byte	0x53
 4875 15a5 08010000 		.4byte	0x108
 4876 15a9 00000000 		.4byte	.LFB57
 4877 15ad 5C000000 		.4byte	.LFE57-.LFB57
 4878 15b1 01       		.uleb128 0x1
 4879 15b2 9C       		.byte	0x9c
 4880 15b3 7C160000 		.4byte	0x167c
 4881 15b7 36       		.uleb128 0x36
 4882 15b8 73726300 		.ascii	"src\000"
 4883 15bc 01       		.byte	0x1
 4884 15bd 53       		.byte	0x53
 4885 15be CB050000 		.4byte	0x5cb
 4886 15c2 7A0E0000 		.4byte	.LLST73
 4887 15c6 37       		.uleb128 0x37
 4888 15c7 6C030000 		.4byte	.LASF79
 4889 15cb 01       		.byte	0x1
 4890 15cc 53       		.byte	0x53
 4891 15cd 90070000 		.4byte	0x790
 4892 15d1 A60E0000 		.4byte	.LLST74
ARM GAS  C:\Users\haske\AppData\Local\Temp\ccHSLozV.s 			page 117


 4893 15d5 38       		.uleb128 0x38
 4894 15d6 7A0E0000 		.4byte	.LASF141
 4895 15da 01       		.byte	0x1
 4896 15db 59       		.byte	0x59
 4897 15dc 0C070000 		.4byte	0x70c
 4898 15e0 D20E0000 		.4byte	.LLST75
 4899 15e4 39       		.uleb128 0x39
 4900 15e5 72657300 		.ascii	"res\000"
 4901 15e9 01       		.byte	0x1
 4902 15ea 5F       		.byte	0x5f
 4903 15eb 08010000 		.4byte	0x108
 4904 15ef F00E0000 		.4byte	.LLST76
 4905 15f3 39       		.uleb128 0x39
 4906 15f4 6400     		.ascii	"d\000"
 4907 15f6 01       		.byte	0x1
 4908 15f7 60       		.byte	0x60
 4909 15f8 B1080000 		.4byte	0x8b1
 4910 15fc 300F0000 		.4byte	.LLST77
 4911 1600 20       		.uleb128 0x20
 4912 1601 78000000 		.4byte	.Ldebug_ranges0+0x78
 4913 1605 19160000 		.4byte	0x1619
 4914 1609 38       		.uleb128 0x38
 4915 160a 0D050000 		.4byte	.LASF192
 4916 160e 01       		.byte	0x1
 4917 160f 5B       		.byte	0x5b
 4918 1610 1A130000 		.4byte	0x131a
 4919 1614 6F0F0000 		.4byte	.LLST78
 4920 1618 00       		.byte	0
 4921 1619 24       		.uleb128 0x24
 4922 161a 0E000000 		.4byte	.LVL238
 4923 161e 461B0000 		.4byte	0x1b46
 4924 1622 32160000 		.4byte	0x1632
 4925 1626 25       		.uleb128 0x25
 4926 1627 01       		.uleb128 0x1
 4927 1628 50       		.byte	0x50
 4928 1629 02       		.uleb128 0x2
 4929 162a 77       		.byte	0x77
 4930 162b 00       		.sleb128 0
 4931 162c 25       		.uleb128 0x25
 4932 162d 01       		.uleb128 0x1
 4933 162e 51       		.byte	0x51
 4934 162f 01       		.uleb128 0x1
 4935 1630 34       		.byte	0x34
 4936 1631 00       		.byte	0
 4937 1632 24       		.uleb128 0x24
 4938 1633 16000000 		.4byte	.LVL239
 4939 1637 251B0000 		.4byte	0x1b25
 4940 163b 46160000 		.4byte	0x1646
 4941 163f 25       		.uleb128 0x25
 4942 1640 01       		.uleb128 0x1
 4943 1641 50       		.byte	0x50
 4944 1642 02       		.uleb128 0x2
 4945 1643 76       		.byte	0x76
 4946 1644 00       		.sleb128 0
 4947 1645 00       		.byte	0
 4948 1646 29       		.uleb128 0x29
 4949 1647 22000000 		.4byte	.LVL243
ARM GAS  C:\Users\haske\AppData\Local\Temp\ccHSLozV.s 			page 118


 4950 164b 7D1B0000 		.4byte	0x1b7d
 4951 164f 3A       		.uleb128 0x3a
 4952 1650 34000000 		.4byte	.LVL246
 4953 1654 6B160000 		.4byte	0x166b
 4954 1658 25       		.uleb128 0x25
 4955 1659 01       		.uleb128 0x1
 4956 165a 50       		.byte	0x50
 4957 165b 02       		.uleb128 0x2
 4958 165c 74       		.byte	0x74
 4959 165d 00       		.sleb128 0
 4960 165e 25       		.uleb128 0x25
 4961 165f 01       		.uleb128 0x1
 4962 1660 51       		.byte	0x51
 4963 1661 02       		.uleb128 0x2
 4964 1662 76       		.byte	0x76
 4965 1663 00       		.sleb128 0
 4966 1664 25       		.uleb128 0x25
 4967 1665 01       		.uleb128 0x1
 4968 1666 52       		.byte	0x52
 4969 1667 02       		.uleb128 0x2
 4970 1668 77       		.byte	0x77
 4971 1669 00       		.sleb128 0
 4972 166a 00       		.byte	0
 4973 166b 26       		.uleb128 0x26
 4974 166c 42000000 		.4byte	.LVL249
 4975 1670 881B0000 		.4byte	0x1b88
 4976 1674 25       		.uleb128 0x25
 4977 1675 01       		.uleb128 0x1
 4978 1676 51       		.byte	0x51
 4979 1677 02       		.uleb128 0x2
 4980 1678 74       		.byte	0x74
 4981 1679 00       		.sleb128 0
 4982 167a 00       		.byte	0
 4983 167b 00       		.byte	0
 4984 167c 35       		.uleb128 0x35
 4985 167d EF0B0000 		.4byte	.LASF197
 4986 1681 01       		.byte	0x1
 4987 1682 6B       		.byte	0x6b
 4988 1683 08010000 		.4byte	0x108
 4989 1687 00000000 		.4byte	.LFB58
 4990 168b E0000000 		.4byte	.LFE58-.LFB58
 4991 168f 01       		.uleb128 0x1
 4992 1690 9C       		.byte	0x9c
 4993 1691 FD170000 		.4byte	0x17fd
 4994 1695 36       		.uleb128 0x36
 4995 1696 64736300 		.ascii	"dsc\000"
 4996 169a 01       		.byte	0x1
 4997 169b 6B       		.byte	0x6b
 4998 169c E70C0000 		.4byte	0xce7
 4999 16a0 8D0F0000 		.4byte	.LLST79
 5000 16a4 36       		.uleb128 0x36
 5001 16a5 73726300 		.ascii	"src\000"
 5002 16a9 01       		.byte	0x1
 5003 16aa 6B       		.byte	0x6b
 5004 16ab CB050000 		.4byte	0x5cb
 5005 16af B90F0000 		.4byte	.LLST80
 5006 16b3 37       		.uleb128 0x37
ARM GAS  C:\Users\haske\AppData\Local\Temp\ccHSLozV.s 			page 119


 5007 16b4 150C0000 		.4byte	.LASF139
 5008 16b8 01       		.byte	0x1
 5009 16b9 6B       		.byte	0x6b
 5010 16ba 07020000 		.4byte	0x207
 5011 16be E50F0000 		.4byte	.LLST81
 5012 16c2 37       		.uleb128 0x37
 5013 16c3 B5080000 		.4byte	.LASF140
 5014 16c7 01       		.byte	0x1
 5015 16c8 6B       		.byte	0x6b
 5016 16c9 D9000000 		.4byte	0xd9
 5017 16cd 0E100000 		.4byte	.LLST82
 5018 16d1 38       		.uleb128 0x38
 5019 16d2 7A0E0000 		.4byte	.LASF141
 5020 16d6 01       		.byte	0x1
 5021 16d7 70       		.byte	0x70
 5022 16d8 0C070000 		.4byte	0x70c
 5023 16dc 53100000 		.4byte	.LLST83
 5024 16e0 39       		.uleb128 0x39
 5025 16e1 72657300 		.ascii	"res\000"
 5026 16e5 01       		.byte	0x1
 5027 16e6 88       		.byte	0x88
 5028 16e7 08010000 		.4byte	0x108
 5029 16eb 7C100000 		.4byte	.LLST84
 5030 16ef 38       		.uleb128 0x38
 5031 16f0 D2000000 		.4byte	.LASF138
 5032 16f4 01       		.byte	0x1
 5033 16f5 8A       		.byte	0x8a
 5034 16f6 B1080000 		.4byte	0x8b1
 5035 16fa D2100000 		.4byte	.LLST85
 5036 16fe 20       		.uleb128 0x20
 5037 16ff 90000000 		.4byte	.Ldebug_ranges0+0x90
 5038 1703 17170000 		.4byte	0x1717
 5039 1707 38       		.uleb128 0x38
 5040 1708 0D050000 		.4byte	.LASF192
 5041 170c 01       		.byte	0x1
 5042 170d 72       		.byte	0x72
 5043 170e 1A130000 		.4byte	0x131a
 5044 1712 27110000 		.4byte	.LLST86
 5045 1716 00       		.byte	0
 5046 1717 20       		.uleb128 0x20
 5047 1718 A8000000 		.4byte	.Ldebug_ranges0+0xa8
 5048 171c 5D170000 		.4byte	0x175d
 5049 1720 38       		.uleb128 0x38
 5050 1721 98060000 		.4byte	.LASF198
 5051 1725 01       		.byte	0x1
 5052 1726 7B       		.byte	0x7b
 5053 1727 13010000 		.4byte	0x113
 5054 172b 45110000 		.4byte	.LLST87
 5055 172f 24       		.uleb128 0x24
 5056 1730 3A000000 		.4byte	.LVL264
 5057 1734 931B0000 		.4byte	0x1b93
 5058 1738 43170000 		.4byte	0x1743
 5059 173c 25       		.uleb128 0x25
 5060 173d 01       		.uleb128 0x1
 5061 173e 50       		.byte	0x50
 5062 173f 02       		.uleb128 0x2
 5063 1740 78       		.byte	0x78
ARM GAS  C:\Users\haske\AppData\Local\Temp\ccHSLozV.s 			page 120


 5064 1741 00       		.sleb128 0
 5065 1742 00       		.byte	0
 5066 1743 29       		.uleb128 0x29
 5067 1744 40000000 		.4byte	.LVL266
 5068 1748 3B1B0000 		.4byte	0x1b3b
 5069 174c 26       		.uleb128 0x26
 5070 174d 50000000 		.4byte	.LVL267
 5071 1751 9E1B0000 		.4byte	0x1b9e
 5072 1755 25       		.uleb128 0x25
 5073 1756 01       		.uleb128 0x1
 5074 1757 51       		.byte	0x51
 5075 1758 02       		.uleb128 0x2
 5076 1759 78       		.byte	0x78
 5077 175a 00       		.sleb128 0
 5078 175b 00       		.byte	0
 5079 175c 00       		.byte	0
 5080 175d 24       		.uleb128 0x24
 5081 175e 12000000 		.4byte	.LVL259
 5082 1762 461B0000 		.4byte	0x1b46
 5083 1766 77170000 		.4byte	0x1777
 5084 176a 25       		.uleb128 0x25
 5085 176b 01       		.uleb128 0x1
 5086 176c 50       		.byte	0x50
 5087 176d 02       		.uleb128 0x2
 5088 176e 76       		.byte	0x76
 5089 176f 00       		.sleb128 0
 5090 1770 25       		.uleb128 0x25
 5091 1771 01       		.uleb128 0x1
 5092 1772 51       		.byte	0x51
 5093 1773 02       		.uleb128 0x2
 5094 1774 08       		.byte	0x8
 5095 1775 28       		.byte	0x28
 5096 1776 00       		.byte	0
 5097 1777 24       		.uleb128 0x24
 5098 1778 1E000000 		.4byte	.LVL260
 5099 177c 251B0000 		.4byte	0x1b25
 5100 1780 8B170000 		.4byte	0x178b
 5101 1784 25       		.uleb128 0x25
 5102 1785 01       		.uleb128 0x1
 5103 1786 50       		.byte	0x50
 5104 1787 02       		.uleb128 0x2
 5105 1788 78       		.byte	0x78
 5106 1789 00       		.sleb128 0
 5107 178a 00       		.byte	0
 5108 178b 29       		.uleb128 0x29
 5109 178c 5C000000 		.4byte	.LVL270
 5110 1790 7D1B0000 		.4byte	0x1b7d
 5111 1794 3A       		.uleb128 0x3a
 5112 1795 76000000 		.4byte	.LVL274
 5113 1799 B0170000 		.4byte	0x17b0
 5114 179d 25       		.uleb128 0x25
 5115 179e 01       		.uleb128 0x1
 5116 179f 50       		.byte	0x50
 5117 17a0 02       		.uleb128 0x2
 5118 17a1 74       		.byte	0x74
 5119 17a2 00       		.sleb128 0
 5120 17a3 25       		.uleb128 0x25
ARM GAS  C:\Users\haske\AppData\Local\Temp\ccHSLozV.s 			page 121


 5121 17a4 01       		.uleb128 0x1
 5122 17a5 51       		.byte	0x51
 5123 17a6 02       		.uleb128 0x2
 5124 17a7 78       		.byte	0x78
 5125 17a8 00       		.sleb128 0
 5126 17a9 25       		.uleb128 0x25
 5127 17aa 01       		.uleb128 0x1
 5128 17ab 52       		.byte	0x52
 5129 17ac 02       		.uleb128 0x2
 5130 17ad 77       		.byte	0x77
 5131 17ae 00       		.sleb128 0
 5132 17af 00       		.byte	0
 5133 17b0 3A       		.uleb128 0x3a
 5134 17b1 86000000 		.4byte	.LVL277
 5135 17b5 C6170000 		.4byte	0x17c6
 5136 17b9 25       		.uleb128 0x25
 5137 17ba 01       		.uleb128 0x1
 5138 17bb 50       		.byte	0x50
 5139 17bc 02       		.uleb128 0x2
 5140 17bd 74       		.byte	0x74
 5141 17be 00       		.sleb128 0
 5142 17bf 25       		.uleb128 0x25
 5143 17c0 01       		.uleb128 0x1
 5144 17c1 51       		.byte	0x51
 5145 17c2 02       		.uleb128 0x2
 5146 17c3 76       		.byte	0x76
 5147 17c4 00       		.sleb128 0
 5148 17c5 00       		.byte	0
 5149 17c6 24       		.uleb128 0x24
 5150 17c7 94000000 		.4byte	.LVL280
 5151 17cb 461B0000 		.4byte	0x1b46
 5152 17cf DF170000 		.4byte	0x17df
 5153 17d3 25       		.uleb128 0x25
 5154 17d4 01       		.uleb128 0x1
 5155 17d5 50       		.byte	0x50
 5156 17d6 02       		.uleb128 0x2
 5157 17d7 77       		.byte	0x77
 5158 17d8 00       		.sleb128 0
 5159 17d9 25       		.uleb128 0x25
 5160 17da 01       		.uleb128 0x1
 5161 17db 51       		.byte	0x51
 5162 17dc 01       		.uleb128 0x1
 5163 17dd 34       		.byte	0x34
 5164 17de 00       		.byte	0
 5165 17df 24       		.uleb128 0x24
 5166 17e0 A6000000 		.4byte	.LVL282
 5167 17e4 881B0000 		.4byte	0x1b88
 5168 17e8 F3170000 		.4byte	0x17f3
 5169 17ec 25       		.uleb128 0x25
 5170 17ed 01       		.uleb128 0x1
 5171 17ee 51       		.byte	0x51
 5172 17ef 02       		.uleb128 0x2
 5173 17f0 74       		.byte	0x74
 5174 17f1 00       		.sleb128 0
 5175 17f2 00       		.byte	0
 5176 17f3 29       		.uleb128 0x29
 5177 17f4 B8000000 		.4byte	.LVL285
ARM GAS  C:\Users\haske\AppData\Local\Temp\ccHSLozV.s 			page 122


 5178 17f8 301B0000 		.4byte	0x1b30
 5179 17fc 00       		.byte	0
 5180 17fd 35       		.uleb128 0x35
 5181 17fe 4E070000 		.4byte	.LASF199
 5182 1802 01       		.byte	0x1
 5183 1803 B0       		.byte	0xb0
 5184 1804 08010000 		.4byte	0x108
 5185 1808 00000000 		.4byte	.LFB59
 5186 180c 24000000 		.4byte	.LFE59-.LFB59
 5187 1810 01       		.uleb128 0x1
 5188 1811 9C       		.byte	0x9c
 5189 1812 91180000 		.4byte	0x1891
 5190 1816 36       		.uleb128 0x36
 5191 1817 64736300 		.ascii	"dsc\000"
 5192 181b 01       		.byte	0x1
 5193 181c B0       		.byte	0xb0
 5194 181d E70C0000 		.4byte	0xce7
 5195 1821 65110000 		.4byte	.LLST88
 5196 1825 36       		.uleb128 0x36
 5197 1826 7800     		.ascii	"x\000"
 5198 1828 01       		.byte	0x1
 5199 1829 B0       		.byte	0xb0
 5200 182a 1D020000 		.4byte	0x21d
 5201 182e AA110000 		.4byte	.LLST89
 5202 1832 36       		.uleb128 0x36
 5203 1833 7900     		.ascii	"y\000"
 5204 1835 01       		.byte	0x1
 5205 1836 B0       		.byte	0xb0
 5206 1837 1D020000 		.4byte	0x21d
 5207 183b E4110000 		.4byte	.LLST90
 5208 183f 36       		.uleb128 0x36
 5209 1840 6C656E00 		.ascii	"len\000"
 5210 1844 01       		.byte	0x1
 5211 1845 B0       		.byte	0xb0
 5212 1846 1D020000 		.4byte	0x21d
 5213 184a 1E120000 		.4byte	.LLST91
 5214 184e 3B       		.uleb128 0x3b
 5215 184f 62756600 		.ascii	"buf\000"
 5216 1853 01       		.byte	0x1
 5217 1854 B0       		.byte	0xb0
 5218 1855 7F080000 		.4byte	0x87f
 5219 1859 02       		.uleb128 0x2
 5220 185a 91       		.byte	0x91
 5221 185b 00       		.sleb128 0
 5222 185c 39       		.uleb128 0x39
 5223 185d 72657300 		.ascii	"res\000"
 5224 1861 01       		.byte	0x1
 5225 1862 B2       		.byte	0xb2
 5226 1863 08010000 		.4byte	0x108
 5227 1867 58120000 		.4byte	.LLST92
 5228 186b 3C       		.uleb128 0x3c
 5229 186c 1C000000 		.4byte	.LVL300
 5230 1870 02       		.uleb128 0x2
 5231 1871 74       		.byte	0x74
 5232 1872 00       		.sleb128 0
 5233 1873 25       		.uleb128 0x25
 5234 1874 01       		.uleb128 0x1
ARM GAS  C:\Users\haske\AppData\Local\Temp\ccHSLozV.s 			page 123


 5235 1875 50       		.byte	0x50
 5236 1876 02       		.uleb128 0x2
 5237 1877 76       		.byte	0x76
 5238 1878 00       		.sleb128 0
 5239 1879 25       		.uleb128 0x25
 5240 187a 01       		.uleb128 0x1
 5241 187b 51       		.byte	0x51
 5242 187c 03       		.uleb128 0x3
 5243 187d F3       		.byte	0xf3
 5244 187e 01       		.uleb128 0x1
 5245 187f 50       		.byte	0x50
 5246 1880 25       		.uleb128 0x25
 5247 1881 02       		.uleb128 0x2
 5248 1882 7D       		.byte	0x7d
 5249 1883 00       		.sleb128 0
 5250 1884 02       		.uleb128 0x2
 5251 1885 75       		.byte	0x75
 5252 1886 00       		.sleb128 0
 5253 1887 25       		.uleb128 0x25
 5254 1888 02       		.uleb128 0x2
 5255 1889 7D       		.byte	0x7d
 5256 188a 04       		.sleb128 4
 5257 188b 03       		.uleb128 0x3
 5258 188c 91       		.byte	0x91
 5259 188d 00       		.sleb128 0
 5260 188e 06       		.byte	0x6
 5261 188f 00       		.byte	0
 5262 1890 00       		.byte	0
 5263 1891 3D       		.uleb128 0x3d
 5264 1892 9D030000 		.4byte	.LASF201
 5265 1896 01       		.byte	0x1
 5266 1897 BC       		.byte	0xbc
 5267 1898 00000000 		.4byte	.LFB60
 5268 189c 26000000 		.4byte	.LFE60-.LFB60
 5269 18a0 01       		.uleb128 0x1
 5270 18a1 9C       		.byte	0x9c
 5271 18a2 CF180000 		.4byte	0x18cf
 5272 18a6 36       		.uleb128 0x36
 5273 18a7 64736300 		.ascii	"dsc\000"
 5274 18ab 01       		.byte	0x1
 5275 18ac BC       		.byte	0xbc
 5276 18ad E70C0000 		.4byte	0xce7
 5277 18b1 8E120000 		.4byte	.LLST93
 5278 18b5 3A       		.uleb128 0x3a
 5279 18b6 12000000 		.4byte	.LVL305
 5280 18ba C5180000 		.4byte	0x18c5
 5281 18be 25       		.uleb128 0x25
 5282 18bf 01       		.uleb128 0x1
 5283 18c0 51       		.byte	0x51
 5284 18c1 02       		.uleb128 0x2
 5285 18c2 74       		.byte	0x74
 5286 18c3 00       		.sleb128 0
 5287 18c4 00       		.byte	0
 5288 18c5 29       		.uleb128 0x29
 5289 18c6 1E000000 		.4byte	.LVL306
 5290 18ca 301B0000 		.4byte	0x1b30
 5291 18ce 00       		.byte	0
ARM GAS  C:\Users\haske\AppData\Local\Temp\ccHSLozV.s 			page 124


 5292 18cf 35       		.uleb128 0x35
 5293 18d0 DF020000 		.4byte	.LASF202
 5294 18d4 01       		.byte	0x1
 5295 18d5 CC       		.byte	0xcc
 5296 18d6 B1080000 		.4byte	0x8b1
 5297 18da 00000000 		.4byte	.LFB61
 5298 18de 24000000 		.4byte	.LFE61-.LFB61
 5299 18e2 01       		.uleb128 0x1
 5300 18e3 9C       		.byte	0x9c
 5301 18e4 16190000 		.4byte	0x1916
 5302 18e8 38       		.uleb128 0x38
 5303 18e9 D2000000 		.4byte	.LASF138
 5304 18ed 01       		.byte	0x1
 5305 18ee CE       		.byte	0xce
 5306 18ef B1080000 		.4byte	0x8b1
 5307 18f3 C2120000 		.4byte	.LLST94
 5308 18f7 29       		.uleb128 0x29
 5309 18f8 08000000 		.4byte	.LVL308
 5310 18fc A91B0000 		.4byte	0x1ba9
 5311 1900 26       		.uleb128 0x26
 5312 1901 16000000 		.4byte	.LVL309
 5313 1905 461B0000 		.4byte	0x1b46
 5314 1909 25       		.uleb128 0x25
 5315 190a 01       		.uleb128 0x1
 5316 190b 50       		.byte	0x50
 5317 190c 02       		.uleb128 0x2
 5318 190d 74       		.byte	0x74
 5319 190e 00       		.sleb128 0
 5320 190f 25       		.uleb128 0x25
 5321 1910 01       		.uleb128 0x1
 5322 1911 51       		.byte	0x51
 5323 1912 01       		.uleb128 0x1
 5324 1913 44       		.byte	0x44
 5325 1914 00       		.byte	0
 5326 1915 00       		.byte	0
 5327 1916 3D       		.uleb128 0x3d
 5328 1917 15070000 		.4byte	.LASF203
 5329 191b 01       		.byte	0x1
 5330 191c DC       		.byte	0xdc
 5331 191d 00000000 		.4byte	.LFB62
 5332 1921 18000000 		.4byte	.LFE62-.LFB62
 5333 1925 01       		.uleb128 0x1
 5334 1926 9C       		.byte	0x9c
 5335 1927 5F190000 		.4byte	0x195f
 5336 192b 37       		.uleb128 0x37
 5337 192c D2000000 		.4byte	.LASF138
 5338 1930 01       		.byte	0x1
 5339 1931 DC       		.byte	0xdc
 5340 1932 B1080000 		.4byte	0x8b1
 5341 1936 F6120000 		.4byte	.LLST95
 5342 193a 24       		.uleb128 0x24
 5343 193b 0C000000 		.4byte	.LVL315
 5344 193f B41B0000 		.4byte	0x1bb4
 5345 1943 4E190000 		.4byte	0x194e
 5346 1947 25       		.uleb128 0x25
 5347 1948 01       		.uleb128 0x1
 5348 1949 51       		.byte	0x51
ARM GAS  C:\Users\haske\AppData\Local\Temp\ccHSLozV.s 			page 125


 5349 194a 02       		.uleb128 0x2
 5350 194b 74       		.byte	0x74
 5351 194c 00       		.sleb128 0
 5352 194d 00       		.byte	0
 5353 194e 26       		.uleb128 0x26
 5354 194f 12000000 		.4byte	.LVL316
 5355 1953 301B0000 		.4byte	0x1b30
 5356 1957 25       		.uleb128 0x25
 5357 1958 01       		.uleb128 0x1
 5358 1959 50       		.byte	0x50
 5359 195a 02       		.uleb128 0x2
 5360 195b 74       		.byte	0x74
 5361 195c 00       		.sleb128 0
 5362 195d 00       		.byte	0
 5363 195e 00       		.byte	0
 5364 195f 3D       		.uleb128 0x3d
 5365 1960 92050000 		.4byte	.LASF204
 5366 1964 01       		.byte	0x1
 5367 1965 E7       		.byte	0xe7
 5368 1966 00000000 		.4byte	.LFB63
 5369 196a 04000000 		.4byte	.LFE63-.LFB63
 5370 196e 01       		.uleb128 0x1
 5371 196f 9C       		.byte	0x9c
 5372 1970 8F190000 		.4byte	0x198f
 5373 1974 3E       		.uleb128 0x3e
 5374 1975 D2000000 		.4byte	.LASF138
 5375 1979 01       		.byte	0x1
 5376 197a E7       		.byte	0xe7
 5377 197b B1080000 		.4byte	0x8b1
 5378 197f 01       		.uleb128 0x1
 5379 1980 50       		.byte	0x50
 5380 1981 3E       		.uleb128 0x3e
 5381 1982 2C0B0000 		.4byte	.LASF134
 5382 1986 01       		.byte	0x1
 5383 1987 E7       		.byte	0xe7
 5384 1988 17070000 		.4byte	0x717
 5385 198c 01       		.uleb128 0x1
 5386 198d 51       		.byte	0x51
 5387 198e 00       		.byte	0
 5388 198f 3D       		.uleb128 0x3d
 5389 1990 B2030000 		.4byte	.LASF205
 5390 1994 01       		.byte	0x1
 5391 1995 F1       		.byte	0xf1
 5392 1996 00000000 		.4byte	.LFB64
 5393 199a 04000000 		.4byte	.LFE64-.LFB64
 5394 199e 01       		.uleb128 0x1
 5395 199f 9C       		.byte	0x9c
 5396 19a0 BF190000 		.4byte	0x19bf
 5397 19a4 3E       		.uleb128 0x3e
 5398 19a5 D2000000 		.4byte	.LASF138
 5399 19a9 01       		.byte	0x1
 5400 19aa F1       		.byte	0xf1
 5401 19ab B1080000 		.4byte	0x8b1
 5402 19af 01       		.uleb128 0x1
 5403 19b0 50       		.byte	0x50
 5404 19b1 3E       		.uleb128 0x3e
 5405 19b2 C6020000 		.4byte	.LASF107
ARM GAS  C:\Users\haske\AppData\Local\Temp\ccHSLozV.s 			page 126


 5406 19b6 01       		.byte	0x1
 5407 19b7 F1       		.byte	0xf1
 5408 19b8 96070000 		.4byte	0x796
 5409 19bc 01       		.uleb128 0x1
 5410 19bd 51       		.byte	0x51
 5411 19be 00       		.byte	0
 5412 19bf 3D       		.uleb128 0x3d
 5413 19c0 DA000000 		.4byte	.LASF206
 5414 19c4 01       		.byte	0x1
 5415 19c5 FB       		.byte	0xfb
 5416 19c6 00000000 		.4byte	.LFB65
 5417 19ca 04000000 		.4byte	.LFE65-.LFB65
 5418 19ce 01       		.uleb128 0x1
 5419 19cf 9C       		.byte	0x9c
 5420 19d0 EF190000 		.4byte	0x19ef
 5421 19d4 3E       		.uleb128 0x3e
 5422 19d5 D2000000 		.4byte	.LASF138
 5423 19d9 01       		.byte	0x1
 5424 19da FB       		.byte	0xfb
 5425 19db B1080000 		.4byte	0x8b1
 5426 19df 01       		.uleb128 0x1
 5427 19e0 50       		.byte	0x50
 5428 19e1 3E       		.uleb128 0x3e
 5429 19e2 260C0000 		.4byte	.LASF135
 5430 19e6 01       		.byte	0x1
 5431 19e7 FB       		.byte	0xfb
 5432 19e8 46080000 		.4byte	0x846
 5433 19ec 01       		.uleb128 0x1
 5434 19ed 51       		.byte	0x51
 5435 19ee 00       		.byte	0
 5436 19ef 27       		.uleb128 0x27
 5437 19f0 9F010000 		.4byte	.LASF207
 5438 19f4 01       		.byte	0x1
 5439 19f5 0501     		.2byte	0x105
 5440 19f7 00000000 		.4byte	.LFB66
 5441 19fb 04000000 		.4byte	.LFE66-.LFB66
 5442 19ff 01       		.uleb128 0x1
 5443 1a00 9C       		.byte	0x9c
 5444 1a01 221A0000 		.4byte	0x1a22
 5445 1a05 3F       		.uleb128 0x3f
 5446 1a06 D2000000 		.4byte	.LASF138
 5447 1a0a 01       		.byte	0x1
 5448 1a0b 0501     		.2byte	0x105
 5449 1a0d B1080000 		.4byte	0x8b1
 5450 1a11 01       		.uleb128 0x1
 5451 1a12 50       		.byte	0x50
 5452 1a13 3F       		.uleb128 0x3f
 5453 1a14 6A020000 		.4byte	.LASF108
 5454 1a18 01       		.byte	0x1
 5455 1a19 0501     		.2byte	0x105
 5456 1a1b 85080000 		.4byte	0x885
 5457 1a1f 01       		.uleb128 0x1
 5458 1a20 51       		.byte	0x51
 5459 1a21 00       		.byte	0
 5460 1a22 3D       		.uleb128 0x3d
 5461 1a23 8F020000 		.4byte	.LASF208
 5462 1a27 01       		.byte	0x1
ARM GAS  C:\Users\haske\AppData\Local\Temp\ccHSLozV.s 			page 127


 5463 1a28 38       		.byte	0x38
 5464 1a29 00000000 		.4byte	.LFB56
 5465 1a2d 4C000000 		.4byte	.LFE56-.LFB56
 5466 1a31 01       		.uleb128 0x1
 5467 1a32 9C       		.byte	0x9c
 5468 1a33 D31A0000 		.4byte	0x1ad3
 5469 1a37 38       		.uleb128 0x38
 5470 1a38 D2000000 		.4byte	.LASF138
 5471 1a3c 01       		.byte	0x1
 5472 1a3d 3C       		.byte	0x3c
 5473 1a3e B1080000 		.4byte	0x8b1
 5474 1a42 2D130000 		.4byte	.LLST96
 5475 1a46 24       		.uleb128 0x24
 5476 1a47 0A000000 		.4byte	.LVL322
 5477 1a4b BF1B0000 		.4byte	0x1bbf
 5478 1a4f 591A0000 		.4byte	0x1a59
 5479 1a53 25       		.uleb128 0x25
 5480 1a54 01       		.uleb128 0x1
 5481 1a55 51       		.byte	0x51
 5482 1a56 01       		.uleb128 0x1
 5483 1a57 44       		.byte	0x44
 5484 1a58 00       		.byte	0
 5485 1a59 29       		.uleb128 0x29
 5486 1a5a 0E000000 		.4byte	.LVL323
 5487 1a5e CF180000 		.4byte	0x18cf
 5488 1a62 24       		.uleb128 0x24
 5489 1a63 1C000000 		.4byte	.LVL324
 5490 1a67 5F190000 		.4byte	0x195f
 5491 1a6b 7F1A0000 		.4byte	0x1a7f
 5492 1a6f 25       		.uleb128 0x25
 5493 1a70 01       		.uleb128 0x1
 5494 1a71 50       		.byte	0x50
 5495 1a72 02       		.uleb128 0x2
 5496 1a73 74       		.byte	0x74
 5497 1a74 00       		.sleb128 0
 5498 1a75 25       		.uleb128 0x25
 5499 1a76 01       		.uleb128 0x1
 5500 1a77 51       		.byte	0x51
 5501 1a78 05       		.uleb128 0x5
 5502 1a79 03       		.byte	0x3
 5503 1a7a 00000000 		.4byte	lv_img_decoder_built_in_info
 5504 1a7e 00       		.byte	0
 5505 1a7f 24       		.uleb128 0x24
 5506 1a80 24000000 		.4byte	.LVL325
 5507 1a84 8F190000 		.4byte	0x198f
 5508 1a88 9C1A0000 		.4byte	0x1a9c
 5509 1a8c 25       		.uleb128 0x25
 5510 1a8d 01       		.uleb128 0x1
 5511 1a8e 50       		.byte	0x50
 5512 1a8f 02       		.uleb128 0x2
 5513 1a90 74       		.byte	0x74
 5514 1a91 00       		.sleb128 0
 5515 1a92 25       		.uleb128 0x25
 5516 1a93 01       		.uleb128 0x1
 5517 1a94 51       		.byte	0x51
 5518 1a95 05       		.uleb128 0x5
 5519 1a96 03       		.byte	0x3
ARM GAS  C:\Users\haske\AppData\Local\Temp\ccHSLozV.s 			page 128


 5520 1a97 00000000 		.4byte	lv_img_decoder_built_in_open
 5521 1a9b 00       		.byte	0
 5522 1a9c 24       		.uleb128 0x24
 5523 1a9d 2C000000 		.4byte	.LVL326
 5524 1aa1 BF190000 		.4byte	0x19bf
 5525 1aa5 B91A0000 		.4byte	0x1ab9
 5526 1aa9 25       		.uleb128 0x25
 5527 1aaa 01       		.uleb128 0x1
 5528 1aab 50       		.byte	0x50
 5529 1aac 02       		.uleb128 0x2
 5530 1aad 74       		.byte	0x74
 5531 1aae 00       		.sleb128 0
 5532 1aaf 25       		.uleb128 0x25
 5533 1ab0 01       		.uleb128 0x1
 5534 1ab1 51       		.byte	0x51
 5535 1ab2 05       		.uleb128 0x5
 5536 1ab3 03       		.byte	0x3
 5537 1ab4 00000000 		.4byte	lv_img_decoder_built_in_read_line
 5538 1ab8 00       		.byte	0
 5539 1ab9 26       		.uleb128 0x26
 5540 1aba 34000000 		.4byte	.LVL327
 5541 1abe EF190000 		.4byte	0x19ef
 5542 1ac2 25       		.uleb128 0x25
 5543 1ac3 01       		.uleb128 0x1
 5544 1ac4 50       		.byte	0x50
 5545 1ac5 02       		.uleb128 0x2
 5546 1ac6 74       		.byte	0x74
 5547 1ac7 00       		.sleb128 0
 5548 1ac8 25       		.uleb128 0x25
 5549 1ac9 01       		.uleb128 0x1
 5550 1aca 51       		.byte	0x51
 5551 1acb 05       		.uleb128 0x5
 5552 1acc 03       		.byte	0x3
 5553 1acd 00000000 		.4byte	lv_img_decoder_built_in_close
 5554 1ad1 00       		.byte	0
 5555 1ad2 00       		.byte	0
 5556 1ad3 40       		.uleb128 0x40
 5557 1ad4 D20C0000 		.4byte	.LASF209
 5558 1ad8 0C       		.byte	0xc
 5559 1ad9 94       		.byte	0x94
 5560 1ada DE1A0000 		.4byte	0x1ade
 5561 1ade 09       		.uleb128 0x9
 5562 1adf 130A0000 		.4byte	0xa13
 5563 1ae3 40       		.uleb128 0x40
 5564 1ae4 44000000 		.4byte	.LASF210
 5565 1ae8 0E       		.byte	0xe
 5566 1ae9 4C       		.byte	0x4c
 5567 1aea 5C0A0000 		.4byte	0xa5c
 5568 1aee 41       		.uleb128 0x41
 5569 1aef F50D0000 		.4byte	.LASF211
 5570 1af3 F50D0000 		.4byte	.LASF211
 5571 1af7 0A       		.byte	0xa
 5572 1af8 AD       		.byte	0xad
 5573 1af9 41       		.uleb128 0x41
 5574 1afa 41090000 		.4byte	.LASF212
 5575 1afe 41090000 		.4byte	.LASF212
 5576 1b02 0A       		.byte	0xa
ARM GAS  C:\Users\haske\AppData\Local\Temp\ccHSLozV.s 			page 129


 5577 1b03 A3       		.byte	0xa3
 5578 1b04 41       		.uleb128 0x41
 5579 1b05 3E030000 		.4byte	.LASF213
 5580 1b09 3E030000 		.4byte	.LASF213
 5581 1b0d 0A       		.byte	0xa
 5582 1b0e EE       		.byte	0xee
 5583 1b0f 41       		.uleb128 0x41
 5584 1b10 0B040000 		.4byte	.LASF214
 5585 1b14 0B040000 		.4byte	.LASF214
 5586 1b18 0F       		.byte	0xf
 5587 1b19 1C       		.byte	0x1c
 5588 1b1a 41       		.uleb128 0x41
 5589 1b1b 1B0C0000 		.4byte	.LASF215
 5590 1b1f 1B0C0000 		.4byte	.LASF215
 5591 1b23 0A       		.byte	0xa
 5592 1b24 9C       		.byte	0x9c
 5593 1b25 41       		.uleb128 0x41
 5594 1b26 B60E0000 		.4byte	.LASF216
 5595 1b2a B60E0000 		.4byte	.LASF216
 5596 1b2e 10       		.byte	0x10
 5597 1b2f 4D       		.byte	0x4d
 5598 1b30 41       		.uleb128 0x41
 5599 1b31 72000000 		.4byte	.LASF217
 5600 1b35 72000000 		.4byte	.LASF217
 5601 1b39 02       		.byte	0x2
 5602 1b3a 50       		.byte	0x50
 5603 1b3b 41       		.uleb128 0x41
 5604 1b3c 030C0000 		.4byte	.LASF218
 5605 1b40 030C0000 		.4byte	.LASF218
 5606 1b44 02       		.byte	0x2
 5607 1b45 4A       		.byte	0x4a
 5608 1b46 41       		.uleb128 0x41
 5609 1b47 5D0B0000 		.4byte	.LASF219
 5610 1b4b 5D0B0000 		.4byte	.LASF219
 5611 1b4f 02       		.byte	0x2
 5612 1b50 DE       		.byte	0xde
 5613 1b51 41       		.uleb128 0x41
 5614 1b52 3D080000 		.4byte	.LASF220
 5615 1b56 3D080000 		.4byte	.LASF220
 5616 1b5a 0A       		.byte	0xa
 5617 1b5b C0       		.byte	0xc0
 5618 1b5c 41       		.uleb128 0x41
 5619 1b5d F1070000 		.4byte	.LASF221
 5620 1b61 F1070000 		.4byte	.LASF221
 5621 1b65 10       		.byte	0x10
 5622 1b66 54       		.byte	0x54
 5623 1b67 41       		.uleb128 0x41
 5624 1b68 2E080000 		.4byte	.LASF222
 5625 1b6c 2E080000 		.4byte	.LASF222
 5626 1b70 02       		.byte	0x2
 5627 1b71 6D       		.byte	0x6d
 5628 1b72 41       		.uleb128 0x41
 5629 1b73 BB050000 		.4byte	.LASF223
 5630 1b77 BB050000 		.4byte	.LASF223
 5631 1b7b 02       		.byte	0x2
 5632 1b7c 73       		.byte	0x73
 5633 1b7d 41       		.uleb128 0x41
ARM GAS  C:\Users\haske\AppData\Local\Temp\ccHSLozV.s 			page 130


 5634 1b7e 390E0000 		.4byte	.LASF224
 5635 1b82 390E0000 		.4byte	.LASF224
 5636 1b86 0D       		.byte	0xd
 5637 1b87 64       		.byte	0x64
 5638 1b88 41       		.uleb128 0x41
 5639 1b89 D50B0000 		.4byte	.LASF225
 5640 1b8d D50B0000 		.4byte	.LASF225
 5641 1b91 0D       		.byte	0xd
 5642 1b92 73       		.byte	0x73
 5643 1b93 41       		.uleb128 0x41
 5644 1b94 7D0D0000 		.4byte	.LASF226
 5645 1b98 7D0D0000 		.4byte	.LASF226
 5646 1b9c 0F       		.byte	0xf
 5647 1b9d 21       		.byte	0x21
 5648 1b9e 41       		.uleb128 0x41
 5649 1b9f 8B050000 		.4byte	.LASF227
 5650 1ba3 8B050000 		.4byte	.LASF227
 5651 1ba7 0F       		.byte	0xf
 5652 1ba8 1E       		.byte	0x1e
 5653 1ba9 41       		.uleb128 0x41
 5654 1baa 48040000 		.4byte	.LASF228
 5655 1bae 48040000 		.4byte	.LASF228
 5656 1bb2 0D       		.byte	0xd
 5657 1bb3 36       		.byte	0x36
 5658 1bb4 41       		.uleb128 0x41
 5659 1bb5 A4020000 		.4byte	.LASF229
 5660 1bb9 A4020000 		.4byte	.LASF229
 5661 1bbd 0D       		.byte	0xd
 5662 1bbe 4D       		.byte	0x4d
 5663 1bbf 41       		.uleb128 0x41
 5664 1bc0 32030000 		.4byte	.LASF230
 5665 1bc4 32030000 		.4byte	.LASF230
 5666 1bc8 0D       		.byte	0xd
 5667 1bc9 2F       		.byte	0x2f
 5668 1bca 00       		.byte	0
 5669              		.section	.debug_abbrev,"",%progbits
 5670              	.Ldebug_abbrev0:
 5671 0000 01       		.uleb128 0x1
 5672 0001 11       		.uleb128 0x11
 5673 0002 01       		.byte	0x1
 5674 0003 25       		.uleb128 0x25
 5675 0004 0E       		.uleb128 0xe
 5676 0005 13       		.uleb128 0x13
 5677 0006 0B       		.uleb128 0xb
 5678 0007 03       		.uleb128 0x3
 5679 0008 0E       		.uleb128 0xe
 5680 0009 1B       		.uleb128 0x1b
 5681 000a 0E       		.uleb128 0xe
 5682 000b 55       		.uleb128 0x55
 5683 000c 17       		.uleb128 0x17
 5684 000d 11       		.uleb128 0x11
 5685 000e 01       		.uleb128 0x1
 5686 000f 10       		.uleb128 0x10
 5687 0010 17       		.uleb128 0x17
 5688 0011 00       		.byte	0
 5689 0012 00       		.byte	0
 5690 0013 02       		.uleb128 0x2
ARM GAS  C:\Users\haske\AppData\Local\Temp\ccHSLozV.s 			page 131


 5691 0014 16       		.uleb128 0x16
 5692 0015 00       		.byte	0
 5693 0016 03       		.uleb128 0x3
 5694 0017 0E       		.uleb128 0xe
 5695 0018 3A       		.uleb128 0x3a
 5696 0019 0B       		.uleb128 0xb
 5697 001a 3B       		.uleb128 0x3b
 5698 001b 0B       		.uleb128 0xb
 5699 001c 49       		.uleb128 0x49
 5700 001d 13       		.uleb128 0x13
 5701 001e 00       		.byte	0
 5702 001f 00       		.byte	0
 5703 0020 03       		.uleb128 0x3
 5704 0021 24       		.uleb128 0x24
 5705 0022 00       		.byte	0
 5706 0023 0B       		.uleb128 0xb
 5707 0024 0B       		.uleb128 0xb
 5708 0025 3E       		.uleb128 0x3e
 5709 0026 0B       		.uleb128 0xb
 5710 0027 03       		.uleb128 0x3
 5711 0028 0E       		.uleb128 0xe
 5712 0029 00       		.byte	0
 5713 002a 00       		.byte	0
 5714 002b 04       		.uleb128 0x4
 5715 002c 24       		.uleb128 0x24
 5716 002d 00       		.byte	0
 5717 002e 0B       		.uleb128 0xb
 5718 002f 0B       		.uleb128 0xb
 5719 0030 3E       		.uleb128 0x3e
 5720 0031 0B       		.uleb128 0xb
 5721 0032 03       		.uleb128 0x3
 5722 0033 08       		.uleb128 0x8
 5723 0034 00       		.byte	0
 5724 0035 00       		.byte	0
 5725 0036 05       		.uleb128 0x5
 5726 0037 04       		.uleb128 0x4
 5727 0038 01       		.byte	0x1
 5728 0039 0B       		.uleb128 0xb
 5729 003a 0B       		.uleb128 0xb
 5730 003b 49       		.uleb128 0x49
 5731 003c 13       		.uleb128 0x13
 5732 003d 3A       		.uleb128 0x3a
 5733 003e 0B       		.uleb128 0xb
 5734 003f 3B       		.uleb128 0x3b
 5735 0040 0B       		.uleb128 0xb
 5736 0041 01       		.uleb128 0x1
 5737 0042 13       		.uleb128 0x13
 5738 0043 00       		.byte	0
 5739 0044 00       		.byte	0
 5740 0045 06       		.uleb128 0x6
 5741 0046 28       		.uleb128 0x28
 5742 0047 00       		.byte	0
 5743 0048 03       		.uleb128 0x3
 5744 0049 0E       		.uleb128 0xe
 5745 004a 1C       		.uleb128 0x1c
 5746 004b 0B       		.uleb128 0xb
 5747 004c 00       		.byte	0
ARM GAS  C:\Users\haske\AppData\Local\Temp\ccHSLozV.s 			page 132


 5748 004d 00       		.byte	0
 5749 004e 07       		.uleb128 0x7
 5750 004f 0F       		.uleb128 0xf
 5751 0050 00       		.byte	0
 5752 0051 0B       		.uleb128 0xb
 5753 0052 0B       		.uleb128 0xb
 5754 0053 00       		.byte	0
 5755 0054 00       		.byte	0
 5756 0055 08       		.uleb128 0x8
 5757 0056 0F       		.uleb128 0xf
 5758 0057 00       		.byte	0
 5759 0058 0B       		.uleb128 0xb
 5760 0059 0B       		.uleb128 0xb
 5761 005a 49       		.uleb128 0x49
 5762 005b 13       		.uleb128 0x13
 5763 005c 00       		.byte	0
 5764 005d 00       		.byte	0
 5765 005e 09       		.uleb128 0x9
 5766 005f 26       		.uleb128 0x26
 5767 0060 00       		.byte	0
 5768 0061 49       		.uleb128 0x49
 5769 0062 13       		.uleb128 0x13
 5770 0063 00       		.byte	0
 5771 0064 00       		.byte	0
 5772 0065 0A       		.uleb128 0xa
 5773 0066 13       		.uleb128 0x13
 5774 0067 01       		.byte	0x1
 5775 0068 0B       		.uleb128 0xb
 5776 0069 0B       		.uleb128 0xb
 5777 006a 3A       		.uleb128 0x3a
 5778 006b 0B       		.uleb128 0xb
 5779 006c 3B       		.uleb128 0x3b
 5780 006d 0B       		.uleb128 0xb
 5781 006e 01       		.uleb128 0x1
 5782 006f 13       		.uleb128 0x13
 5783 0070 00       		.byte	0
 5784 0071 00       		.byte	0
 5785 0072 0B       		.uleb128 0xb
 5786 0073 0D       		.uleb128 0xd
 5787 0074 00       		.byte	0
 5788 0075 03       		.uleb128 0x3
 5789 0076 0E       		.uleb128 0xe
 5790 0077 3A       		.uleb128 0x3a
 5791 0078 0B       		.uleb128 0xb
 5792 0079 3B       		.uleb128 0x3b
 5793 007a 0B       		.uleb128 0xb
 5794 007b 49       		.uleb128 0x49
 5795 007c 13       		.uleb128 0x13
 5796 007d 0B       		.uleb128 0xb
 5797 007e 0B       		.uleb128 0xb
 5798 007f 0D       		.uleb128 0xd
 5799 0080 0B       		.uleb128 0xb
 5800 0081 0C       		.uleb128 0xc
 5801 0082 0B       		.uleb128 0xb
 5802 0083 38       		.uleb128 0x38
 5803 0084 0B       		.uleb128 0xb
 5804 0085 00       		.byte	0
ARM GAS  C:\Users\haske\AppData\Local\Temp\ccHSLozV.s 			page 133


 5805 0086 00       		.byte	0
 5806 0087 0C       		.uleb128 0xc
 5807 0088 0D       		.uleb128 0xd
 5808 0089 00       		.byte	0
 5809 008a 03       		.uleb128 0x3
 5810 008b 08       		.uleb128 0x8
 5811 008c 3A       		.uleb128 0x3a
 5812 008d 0B       		.uleb128 0xb
 5813 008e 3B       		.uleb128 0x3b
 5814 008f 0B       		.uleb128 0xb
 5815 0090 49       		.uleb128 0x49
 5816 0091 13       		.uleb128 0x13
 5817 0092 0B       		.uleb128 0xb
 5818 0093 0B       		.uleb128 0xb
 5819 0094 0D       		.uleb128 0xd
 5820 0095 0B       		.uleb128 0xb
 5821 0096 0C       		.uleb128 0xc
 5822 0097 0B       		.uleb128 0xb
 5823 0098 38       		.uleb128 0x38
 5824 0099 0B       		.uleb128 0xb
 5825 009a 00       		.byte	0
 5826 009b 00       		.byte	0
 5827 009c 0D       		.uleb128 0xd
 5828 009d 17       		.uleb128 0x17
 5829 009e 01       		.byte	0x1
 5830 009f 0B       		.uleb128 0xb
 5831 00a0 0B       		.uleb128 0xb
 5832 00a1 3A       		.uleb128 0x3a
 5833 00a2 0B       		.uleb128 0xb
 5834 00a3 3B       		.uleb128 0x3b
 5835 00a4 0B       		.uleb128 0xb
 5836 00a5 01       		.uleb128 0x1
 5837 00a6 13       		.uleb128 0x13
 5838 00a7 00       		.byte	0
 5839 00a8 00       		.byte	0
 5840 00a9 0E       		.uleb128 0xe
 5841 00aa 0D       		.uleb128 0xd
 5842 00ab 00       		.byte	0
 5843 00ac 03       		.uleb128 0x3
 5844 00ad 08       		.uleb128 0x8
 5845 00ae 3A       		.uleb128 0x3a
 5846 00af 0B       		.uleb128 0xb
 5847 00b0 3B       		.uleb128 0x3b
 5848 00b1 0B       		.uleb128 0xb
 5849 00b2 49       		.uleb128 0x49
 5850 00b3 13       		.uleb128 0x13
 5851 00b4 00       		.byte	0
 5852 00b5 00       		.byte	0
 5853 00b6 0F       		.uleb128 0xf
 5854 00b7 0D       		.uleb128 0xd
 5855 00b8 00       		.byte	0
 5856 00b9 03       		.uleb128 0x3
 5857 00ba 0E       		.uleb128 0xe
 5858 00bb 3A       		.uleb128 0x3a
 5859 00bc 0B       		.uleb128 0xb
 5860 00bd 3B       		.uleb128 0x3b
 5861 00be 0B       		.uleb128 0xb
ARM GAS  C:\Users\haske\AppData\Local\Temp\ccHSLozV.s 			page 134


 5862 00bf 49       		.uleb128 0x49
 5863 00c0 13       		.uleb128 0x13
 5864 00c1 00       		.byte	0
 5865 00c2 00       		.byte	0
 5866 00c3 10       		.uleb128 0x10
 5867 00c4 0D       		.uleb128 0xd
 5868 00c5 00       		.byte	0
 5869 00c6 03       		.uleb128 0x3
 5870 00c7 0E       		.uleb128 0xe
 5871 00c8 3A       		.uleb128 0x3a
 5872 00c9 0B       		.uleb128 0xb
 5873 00ca 3B       		.uleb128 0x3b
 5874 00cb 0B       		.uleb128 0xb
 5875 00cc 49       		.uleb128 0x49
 5876 00cd 13       		.uleb128 0x13
 5877 00ce 38       		.uleb128 0x38
 5878 00cf 0B       		.uleb128 0xb
 5879 00d0 00       		.byte	0
 5880 00d1 00       		.byte	0
 5881 00d2 11       		.uleb128 0x11
 5882 00d3 0D       		.uleb128 0xd
 5883 00d4 00       		.byte	0
 5884 00d5 03       		.uleb128 0x3
 5885 00d6 08       		.uleb128 0x8
 5886 00d7 3A       		.uleb128 0x3a
 5887 00d8 0B       		.uleb128 0xb
 5888 00d9 3B       		.uleb128 0x3b
 5889 00da 0B       		.uleb128 0xb
 5890 00db 49       		.uleb128 0x49
 5891 00dc 13       		.uleb128 0x13
 5892 00dd 38       		.uleb128 0x38
 5893 00de 0B       		.uleb128 0xb
 5894 00df 00       		.byte	0
 5895 00e0 00       		.byte	0
 5896 00e1 12       		.uleb128 0x12
 5897 00e2 13       		.uleb128 0x13
 5898 00e3 01       		.byte	0x1
 5899 00e4 03       		.uleb128 0x3
 5900 00e5 0E       		.uleb128 0xe
 5901 00e6 0B       		.uleb128 0xb
 5902 00e7 0B       		.uleb128 0xb
 5903 00e8 3A       		.uleb128 0x3a
 5904 00e9 0B       		.uleb128 0xb
 5905 00ea 3B       		.uleb128 0x3b
 5906 00eb 0B       		.uleb128 0xb
 5907 00ec 01       		.uleb128 0x1
 5908 00ed 13       		.uleb128 0x13
 5909 00ee 00       		.byte	0
 5910 00ef 00       		.byte	0
 5911 00f0 13       		.uleb128 0x13
 5912 00f1 15       		.uleb128 0x15
 5913 00f2 01       		.byte	0x1
 5914 00f3 27       		.uleb128 0x27
 5915 00f4 19       		.uleb128 0x19
 5916 00f5 49       		.uleb128 0x49
 5917 00f6 13       		.uleb128 0x13
 5918 00f7 01       		.uleb128 0x1
ARM GAS  C:\Users\haske\AppData\Local\Temp\ccHSLozV.s 			page 135


 5919 00f8 13       		.uleb128 0x13
 5920 00f9 00       		.byte	0
 5921 00fa 00       		.byte	0
 5922 00fb 14       		.uleb128 0x14
 5923 00fc 05       		.uleb128 0x5
 5924 00fd 00       		.byte	0
 5925 00fe 49       		.uleb128 0x49
 5926 00ff 13       		.uleb128 0x13
 5927 0100 00       		.byte	0
 5928 0101 00       		.byte	0
 5929 0102 15       		.uleb128 0x15
 5930 0103 26       		.uleb128 0x26
 5931 0104 00       		.byte	0
 5932 0105 00       		.byte	0
 5933 0106 00       		.byte	0
 5934 0107 16       		.uleb128 0x16
 5935 0108 15       		.uleb128 0x15
 5936 0109 01       		.byte	0x1
 5937 010a 27       		.uleb128 0x27
 5938 010b 19       		.uleb128 0x19
 5939 010c 01       		.uleb128 0x1
 5940 010d 13       		.uleb128 0x13
 5941 010e 00       		.byte	0
 5942 010f 00       		.byte	0
 5943 0110 17       		.uleb128 0x17
 5944 0111 2E       		.uleb128 0x2e
 5945 0112 01       		.byte	0x1
 5946 0113 03       		.uleb128 0x3
 5947 0114 0E       		.uleb128 0xe
 5948 0115 3A       		.uleb128 0x3a
 5949 0116 0B       		.uleb128 0xb
 5950 0117 3B       		.uleb128 0x3b
 5951 0118 0B       		.uleb128 0xb
 5952 0119 27       		.uleb128 0x27
 5953 011a 19       		.uleb128 0x19
 5954 011b 49       		.uleb128 0x49
 5955 011c 13       		.uleb128 0x13
 5956 011d 20       		.uleb128 0x20
 5957 011e 0B       		.uleb128 0xb
 5958 011f 01       		.uleb128 0x1
 5959 0120 13       		.uleb128 0x13
 5960 0121 00       		.byte	0
 5961 0122 00       		.byte	0
 5962 0123 18       		.uleb128 0x18
 5963 0124 05       		.uleb128 0x5
 5964 0125 00       		.byte	0
 5965 0126 03       		.uleb128 0x3
 5966 0127 08       		.uleb128 0x8
 5967 0128 3A       		.uleb128 0x3a
 5968 0129 0B       		.uleb128 0xb
 5969 012a 3B       		.uleb128 0x3b
 5970 012b 0B       		.uleb128 0xb
 5971 012c 49       		.uleb128 0x49
 5972 012d 13       		.uleb128 0x13
 5973 012e 00       		.byte	0
 5974 012f 00       		.byte	0
 5975 0130 19       		.uleb128 0x19
ARM GAS  C:\Users\haske\AppData\Local\Temp\ccHSLozV.s 			page 136


 5976 0131 34       		.uleb128 0x34
 5977 0132 00       		.byte	0
 5978 0133 03       		.uleb128 0x3
 5979 0134 08       		.uleb128 0x8
 5980 0135 3A       		.uleb128 0x3a
 5981 0136 0B       		.uleb128 0xb
 5982 0137 3B       		.uleb128 0x3b
 5983 0138 0B       		.uleb128 0xb
 5984 0139 49       		.uleb128 0x49
 5985 013a 13       		.uleb128 0x13
 5986 013b 00       		.byte	0
 5987 013c 00       		.byte	0
 5988 013d 1A       		.uleb128 0x1a
 5989 013e 2E       		.uleb128 0x2e
 5990 013f 01       		.byte	0x1
 5991 0140 03       		.uleb128 0x3
 5992 0141 0E       		.uleb128 0xe
 5993 0142 3A       		.uleb128 0x3a
 5994 0143 0B       		.uleb128 0xb
 5995 0144 3B       		.uleb128 0x3b
 5996 0145 05       		.uleb128 0x5
 5997 0146 27       		.uleb128 0x27
 5998 0147 19       		.uleb128 0x19
 5999 0148 49       		.uleb128 0x49
 6000 0149 13       		.uleb128 0x13
 6001 014a 20       		.uleb128 0x20
 6002 014b 0B       		.uleb128 0xb
 6003 014c 01       		.uleb128 0x1
 6004 014d 13       		.uleb128 0x13
 6005 014e 00       		.byte	0
 6006 014f 00       		.byte	0
 6007 0150 1B       		.uleb128 0x1b
 6008 0151 05       		.uleb128 0x5
 6009 0152 00       		.byte	0
 6010 0153 03       		.uleb128 0x3
 6011 0154 08       		.uleb128 0x8
 6012 0155 3A       		.uleb128 0x3a
 6013 0156 0B       		.uleb128 0xb
 6014 0157 3B       		.uleb128 0x3b
 6015 0158 05       		.uleb128 0x5
 6016 0159 49       		.uleb128 0x49
 6017 015a 13       		.uleb128 0x13
 6018 015b 00       		.byte	0
 6019 015c 00       		.byte	0
 6020 015d 1C       		.uleb128 0x1c
 6021 015e 2E       		.uleb128 0x2e
 6022 015f 01       		.byte	0x1
 6023 0160 3F       		.uleb128 0x3f
 6024 0161 19       		.uleb128 0x19
 6025 0162 03       		.uleb128 0x3
 6026 0163 0E       		.uleb128 0xe
 6027 0164 3A       		.uleb128 0x3a
 6028 0165 0B       		.uleb128 0xb
 6029 0166 3B       		.uleb128 0x3b
 6030 0167 05       		.uleb128 0x5
 6031 0168 27       		.uleb128 0x27
 6032 0169 19       		.uleb128 0x19
ARM GAS  C:\Users\haske\AppData\Local\Temp\ccHSLozV.s 			page 137


 6033 016a 49       		.uleb128 0x49
 6034 016b 13       		.uleb128 0x13
 6035 016c 11       		.uleb128 0x11
 6036 016d 01       		.uleb128 0x1
 6037 016e 12       		.uleb128 0x12
 6038 016f 06       		.uleb128 0x6
 6039 0170 40       		.uleb128 0x40
 6040 0171 18       		.uleb128 0x18
 6041 0172 9742     		.uleb128 0x2117
 6042 0174 19       		.uleb128 0x19
 6043 0175 01       		.uleb128 0x1
 6044 0176 13       		.uleb128 0x13
 6045 0177 00       		.byte	0
 6046 0178 00       		.byte	0
 6047 0179 1D       		.uleb128 0x1d
 6048 017a 05       		.uleb128 0x5
 6049 017b 00       		.byte	0
 6050 017c 03       		.uleb128 0x3
 6051 017d 0E       		.uleb128 0xe
 6052 017e 3A       		.uleb128 0x3a
 6053 017f 0B       		.uleb128 0xb
 6054 0180 3B       		.uleb128 0x3b
 6055 0181 05       		.uleb128 0x5
 6056 0182 49       		.uleb128 0x49
 6057 0183 13       		.uleb128 0x13
 6058 0184 02       		.uleb128 0x2
 6059 0185 17       		.uleb128 0x17
 6060 0186 00       		.byte	0
 6061 0187 00       		.byte	0
 6062 0188 1E       		.uleb128 0x1e
 6063 0189 05       		.uleb128 0x5
 6064 018a 00       		.byte	0
 6065 018b 03       		.uleb128 0x3
 6066 018c 08       		.uleb128 0x8
 6067 018d 3A       		.uleb128 0x3a
 6068 018e 0B       		.uleb128 0xb
 6069 018f 3B       		.uleb128 0x3b
 6070 0190 05       		.uleb128 0x5
 6071 0191 49       		.uleb128 0x49
 6072 0192 13       		.uleb128 0x13
 6073 0193 02       		.uleb128 0x2
 6074 0194 17       		.uleb128 0x17
 6075 0195 00       		.byte	0
 6076 0196 00       		.byte	0
 6077 0197 1F       		.uleb128 0x1f
 6078 0198 34       		.uleb128 0x34
 6079 0199 00       		.byte	0
 6080 019a 03       		.uleb128 0x3
 6081 019b 0E       		.uleb128 0xe
 6082 019c 3A       		.uleb128 0x3a
 6083 019d 0B       		.uleb128 0xb
 6084 019e 3B       		.uleb128 0x3b
 6085 019f 05       		.uleb128 0x5
 6086 01a0 49       		.uleb128 0x49
 6087 01a1 13       		.uleb128 0x13
 6088 01a2 02       		.uleb128 0x2
 6089 01a3 17       		.uleb128 0x17
ARM GAS  C:\Users\haske\AppData\Local\Temp\ccHSLozV.s 			page 138


 6090 01a4 00       		.byte	0
 6091 01a5 00       		.byte	0
 6092 01a6 20       		.uleb128 0x20
 6093 01a7 0B       		.uleb128 0xb
 6094 01a8 01       		.byte	0x1
 6095 01a9 55       		.uleb128 0x55
 6096 01aa 17       		.uleb128 0x17
 6097 01ab 01       		.uleb128 0x1
 6098 01ac 13       		.uleb128 0x13
 6099 01ad 00       		.byte	0
 6100 01ae 00       		.byte	0
 6101 01af 21       		.uleb128 0x21
 6102 01b0 34       		.uleb128 0x34
 6103 01b1 00       		.byte	0
 6104 01b2 03       		.uleb128 0x3
 6105 01b3 08       		.uleb128 0x8
 6106 01b4 3A       		.uleb128 0x3a
 6107 01b5 0B       		.uleb128 0xb
 6108 01b6 3B       		.uleb128 0x3b
 6109 01b7 05       		.uleb128 0x5
 6110 01b8 49       		.uleb128 0x49
 6111 01b9 13       		.uleb128 0x13
 6112 01ba 02       		.uleb128 0x2
 6113 01bb 17       		.uleb128 0x17
 6114 01bc 00       		.byte	0
 6115 01bd 00       		.byte	0
 6116 01be 22       		.uleb128 0x22
 6117 01bf 34       		.uleb128 0x34
 6118 01c0 00       		.byte	0
 6119 01c1 03       		.uleb128 0x3
 6120 01c2 08       		.uleb128 0x8
 6121 01c3 3A       		.uleb128 0x3a
 6122 01c4 0B       		.uleb128 0xb
 6123 01c5 3B       		.uleb128 0x3b
 6124 01c6 05       		.uleb128 0x5
 6125 01c7 49       		.uleb128 0x49
 6126 01c8 13       		.uleb128 0x13
 6127 01c9 02       		.uleb128 0x2
 6128 01ca 18       		.uleb128 0x18
 6129 01cb 00       		.byte	0
 6130 01cc 00       		.byte	0
 6131 01cd 23       		.uleb128 0x23
 6132 01ce 0B       		.uleb128 0xb
 6133 01cf 01       		.byte	0x1
 6134 01d0 11       		.uleb128 0x11
 6135 01d1 01       		.uleb128 0x1
 6136 01d2 12       		.uleb128 0x12
 6137 01d3 06       		.uleb128 0x6
 6138 01d4 01       		.uleb128 0x1
 6139 01d5 13       		.uleb128 0x13
 6140 01d6 00       		.byte	0
 6141 01d7 00       		.byte	0
 6142 01d8 24       		.uleb128 0x24
 6143 01d9 898201   		.uleb128 0x4109
 6144 01dc 01       		.byte	0x1
 6145 01dd 11       		.uleb128 0x11
 6146 01de 01       		.uleb128 0x1
ARM GAS  C:\Users\haske\AppData\Local\Temp\ccHSLozV.s 			page 139


 6147 01df 31       		.uleb128 0x31
 6148 01e0 13       		.uleb128 0x13
 6149 01e1 01       		.uleb128 0x1
 6150 01e2 13       		.uleb128 0x13
 6151 01e3 00       		.byte	0
 6152 01e4 00       		.byte	0
 6153 01e5 25       		.uleb128 0x25
 6154 01e6 8A8201   		.uleb128 0x410a
 6155 01e9 00       		.byte	0
 6156 01ea 02       		.uleb128 0x2
 6157 01eb 18       		.uleb128 0x18
 6158 01ec 9142     		.uleb128 0x2111
 6159 01ee 18       		.uleb128 0x18
 6160 01ef 00       		.byte	0
 6161 01f0 00       		.byte	0
 6162 01f1 26       		.uleb128 0x26
 6163 01f2 898201   		.uleb128 0x4109
 6164 01f5 01       		.byte	0x1
 6165 01f6 11       		.uleb128 0x11
 6166 01f7 01       		.uleb128 0x1
 6167 01f8 31       		.uleb128 0x31
 6168 01f9 13       		.uleb128 0x13
 6169 01fa 00       		.byte	0
 6170 01fb 00       		.byte	0
 6171 01fc 27       		.uleb128 0x27
 6172 01fd 2E       		.uleb128 0x2e
 6173 01fe 01       		.byte	0x1
 6174 01ff 3F       		.uleb128 0x3f
 6175 0200 19       		.uleb128 0x19
 6176 0201 03       		.uleb128 0x3
 6177 0202 0E       		.uleb128 0xe
 6178 0203 3A       		.uleb128 0x3a
 6179 0204 0B       		.uleb128 0xb
 6180 0205 3B       		.uleb128 0x3b
 6181 0206 05       		.uleb128 0x5
 6182 0207 27       		.uleb128 0x27
 6183 0208 19       		.uleb128 0x19
 6184 0209 11       		.uleb128 0x11
 6185 020a 01       		.uleb128 0x1
 6186 020b 12       		.uleb128 0x12
 6187 020c 06       		.uleb128 0x6
 6188 020d 40       		.uleb128 0x40
 6189 020e 18       		.uleb128 0x18
 6190 020f 9742     		.uleb128 0x2117
 6191 0211 19       		.uleb128 0x19
 6192 0212 01       		.uleb128 0x1
 6193 0213 13       		.uleb128 0x13
 6194 0214 00       		.byte	0
 6195 0215 00       		.byte	0
 6196 0216 28       		.uleb128 0x28
 6197 0217 34       		.uleb128 0x34
 6198 0218 00       		.byte	0
 6199 0219 03       		.uleb128 0x3
 6200 021a 0E       		.uleb128 0xe
 6201 021b 3A       		.uleb128 0x3a
 6202 021c 0B       		.uleb128 0xb
 6203 021d 3B       		.uleb128 0x3b
ARM GAS  C:\Users\haske\AppData\Local\Temp\ccHSLozV.s 			page 140


 6204 021e 05       		.uleb128 0x5
 6205 021f 49       		.uleb128 0x49
 6206 0220 13       		.uleb128 0x13
 6207 0221 02       		.uleb128 0x2
 6208 0222 18       		.uleb128 0x18
 6209 0223 00       		.byte	0
 6210 0224 00       		.byte	0
 6211 0225 29       		.uleb128 0x29
 6212 0226 898201   		.uleb128 0x4109
 6213 0229 00       		.byte	0
 6214 022a 11       		.uleb128 0x11
 6215 022b 01       		.uleb128 0x1
 6216 022c 31       		.uleb128 0x31
 6217 022d 13       		.uleb128 0x13
 6218 022e 00       		.byte	0
 6219 022f 00       		.byte	0
 6220 0230 2A       		.uleb128 0x2a
 6221 0231 34       		.uleb128 0x34
 6222 0232 00       		.byte	0
 6223 0233 03       		.uleb128 0x3
 6224 0234 0E       		.uleb128 0xe
 6225 0235 3A       		.uleb128 0x3a
 6226 0236 0B       		.uleb128 0xb
 6227 0237 3B       		.uleb128 0x3b
 6228 0238 05       		.uleb128 0x5
 6229 0239 49       		.uleb128 0x49
 6230 023a 13       		.uleb128 0x13
 6231 023b 00       		.byte	0
 6232 023c 00       		.byte	0
 6233 023d 2B       		.uleb128 0x2b
 6234 023e 1D       		.uleb128 0x1d
 6235 023f 01       		.byte	0x1
 6236 0240 31       		.uleb128 0x31
 6237 0241 13       		.uleb128 0x13
 6238 0242 52       		.uleb128 0x52
 6239 0243 01       		.uleb128 0x1
 6240 0244 55       		.uleb128 0x55
 6241 0245 17       		.uleb128 0x17
 6242 0246 58       		.uleb128 0x58
 6243 0247 0B       		.uleb128 0xb
 6244 0248 59       		.uleb128 0x59
 6245 0249 05       		.uleb128 0x5
 6246 024a 01       		.uleb128 0x1
 6247 024b 13       		.uleb128 0x13
 6248 024c 00       		.byte	0
 6249 024d 00       		.byte	0
 6250 024e 2C       		.uleb128 0x2c
 6251 024f 05       		.uleb128 0x5
 6252 0250 00       		.byte	0
 6253 0251 31       		.uleb128 0x31
 6254 0252 13       		.uleb128 0x13
 6255 0253 02       		.uleb128 0x2
 6256 0254 17       		.uleb128 0x17
 6257 0255 00       		.byte	0
 6258 0256 00       		.byte	0
 6259 0257 2D       		.uleb128 0x2d
 6260 0258 0B       		.uleb128 0xb
ARM GAS  C:\Users\haske\AppData\Local\Temp\ccHSLozV.s 			page 141


 6261 0259 01       		.byte	0x1
 6262 025a 55       		.uleb128 0x55
 6263 025b 17       		.uleb128 0x17
 6264 025c 00       		.byte	0
 6265 025d 00       		.byte	0
 6266 025e 2E       		.uleb128 0x2e
 6267 025f 34       		.uleb128 0x34
 6268 0260 00       		.byte	0
 6269 0261 31       		.uleb128 0x31
 6270 0262 13       		.uleb128 0x13
 6271 0263 02       		.uleb128 0x2
 6272 0264 17       		.uleb128 0x17
 6273 0265 00       		.byte	0
 6274 0266 00       		.byte	0
 6275 0267 2F       		.uleb128 0x2f
 6276 0268 1D       		.uleb128 0x1d
 6277 0269 01       		.byte	0x1
 6278 026a 31       		.uleb128 0x31
 6279 026b 13       		.uleb128 0x13
 6280 026c 11       		.uleb128 0x11
 6281 026d 01       		.uleb128 0x1
 6282 026e 12       		.uleb128 0x12
 6283 026f 06       		.uleb128 0x6
 6284 0270 58       		.uleb128 0x58
 6285 0271 0B       		.uleb128 0xb
 6286 0272 59       		.uleb128 0x59
 6287 0273 05       		.uleb128 0x5
 6288 0274 01       		.uleb128 0x1
 6289 0275 13       		.uleb128 0x13
 6290 0276 00       		.byte	0
 6291 0277 00       		.byte	0
 6292 0278 30       		.uleb128 0x30
 6293 0279 1D       		.uleb128 0x1d
 6294 027a 01       		.byte	0x1
 6295 027b 31       		.uleb128 0x31
 6296 027c 13       		.uleb128 0x13
 6297 027d 11       		.uleb128 0x11
 6298 027e 01       		.uleb128 0x1
 6299 027f 12       		.uleb128 0x12
 6300 0280 06       		.uleb128 0x6
 6301 0281 58       		.uleb128 0x58
 6302 0282 0B       		.uleb128 0xb
 6303 0283 59       		.uleb128 0x59
 6304 0284 05       		.uleb128 0x5
 6305 0285 00       		.byte	0
 6306 0286 00       		.byte	0
 6307 0287 31       		.uleb128 0x31
 6308 0288 2E       		.uleb128 0x2e
 6309 0289 01       		.byte	0x1
 6310 028a 03       		.uleb128 0x3
 6311 028b 0E       		.uleb128 0xe
 6312 028c 3A       		.uleb128 0x3a
 6313 028d 0B       		.uleb128 0xb
 6314 028e 3B       		.uleb128 0x3b
 6315 028f 05       		.uleb128 0x5
 6316 0290 27       		.uleb128 0x27
 6317 0291 19       		.uleb128 0x19
ARM GAS  C:\Users\haske\AppData\Local\Temp\ccHSLozV.s 			page 142


 6318 0292 49       		.uleb128 0x49
 6319 0293 13       		.uleb128 0x13
 6320 0294 11       		.uleb128 0x11
 6321 0295 01       		.uleb128 0x1
 6322 0296 12       		.uleb128 0x12
 6323 0297 06       		.uleb128 0x6
 6324 0298 40       		.uleb128 0x40
 6325 0299 18       		.uleb128 0x18
 6326 029a 9742     		.uleb128 0x2117
 6327 029c 19       		.uleb128 0x19
 6328 029d 01       		.uleb128 0x1
 6329 029e 13       		.uleb128 0x13
 6330 029f 00       		.byte	0
 6331 02a0 00       		.byte	0
 6332 02a1 32       		.uleb128 0x32
 6333 02a2 05       		.uleb128 0x5
 6334 02a3 00       		.byte	0
 6335 02a4 03       		.uleb128 0x3
 6336 02a5 08       		.uleb128 0x8
 6337 02a6 3A       		.uleb128 0x3a
 6338 02a7 0B       		.uleb128 0xb
 6339 02a8 3B       		.uleb128 0x3b
 6340 02a9 05       		.uleb128 0x5
 6341 02aa 49       		.uleb128 0x49
 6342 02ab 13       		.uleb128 0x13
 6343 02ac 02       		.uleb128 0x2
 6344 02ad 18       		.uleb128 0x18
 6345 02ae 00       		.byte	0
 6346 02af 00       		.byte	0
 6347 02b0 33       		.uleb128 0x33
 6348 02b1 01       		.uleb128 0x1
 6349 02b2 01       		.byte	0x1
 6350 02b3 49       		.uleb128 0x49
 6351 02b4 13       		.uleb128 0x13
 6352 02b5 01       		.uleb128 0x1
 6353 02b6 13       		.uleb128 0x13
 6354 02b7 00       		.byte	0
 6355 02b8 00       		.byte	0
 6356 02b9 34       		.uleb128 0x34
 6357 02ba 21       		.uleb128 0x21
 6358 02bb 00       		.byte	0
 6359 02bc 49       		.uleb128 0x49
 6360 02bd 13       		.uleb128 0x13
 6361 02be 2F       		.uleb128 0x2f
 6362 02bf 0B       		.uleb128 0xb
 6363 02c0 00       		.byte	0
 6364 02c1 00       		.byte	0
 6365 02c2 35       		.uleb128 0x35
 6366 02c3 2E       		.uleb128 0x2e
 6367 02c4 01       		.byte	0x1
 6368 02c5 3F       		.uleb128 0x3f
 6369 02c6 19       		.uleb128 0x19
 6370 02c7 03       		.uleb128 0x3
 6371 02c8 0E       		.uleb128 0xe
 6372 02c9 3A       		.uleb128 0x3a
 6373 02ca 0B       		.uleb128 0xb
 6374 02cb 3B       		.uleb128 0x3b
ARM GAS  C:\Users\haske\AppData\Local\Temp\ccHSLozV.s 			page 143


 6375 02cc 0B       		.uleb128 0xb
 6376 02cd 27       		.uleb128 0x27
 6377 02ce 19       		.uleb128 0x19
 6378 02cf 49       		.uleb128 0x49
 6379 02d0 13       		.uleb128 0x13
 6380 02d1 11       		.uleb128 0x11
 6381 02d2 01       		.uleb128 0x1
 6382 02d3 12       		.uleb128 0x12
 6383 02d4 06       		.uleb128 0x6
 6384 02d5 40       		.uleb128 0x40
 6385 02d6 18       		.uleb128 0x18
 6386 02d7 9742     		.uleb128 0x2117
 6387 02d9 19       		.uleb128 0x19
 6388 02da 01       		.uleb128 0x1
 6389 02db 13       		.uleb128 0x13
 6390 02dc 00       		.byte	0
 6391 02dd 00       		.byte	0
 6392 02de 36       		.uleb128 0x36
 6393 02df 05       		.uleb128 0x5
 6394 02e0 00       		.byte	0
 6395 02e1 03       		.uleb128 0x3
 6396 02e2 08       		.uleb128 0x8
 6397 02e3 3A       		.uleb128 0x3a
 6398 02e4 0B       		.uleb128 0xb
 6399 02e5 3B       		.uleb128 0x3b
 6400 02e6 0B       		.uleb128 0xb
 6401 02e7 49       		.uleb128 0x49
 6402 02e8 13       		.uleb128 0x13
 6403 02e9 02       		.uleb128 0x2
 6404 02ea 17       		.uleb128 0x17
 6405 02eb 00       		.byte	0
 6406 02ec 00       		.byte	0
 6407 02ed 37       		.uleb128 0x37
 6408 02ee 05       		.uleb128 0x5
 6409 02ef 00       		.byte	0
 6410 02f0 03       		.uleb128 0x3
 6411 02f1 0E       		.uleb128 0xe
 6412 02f2 3A       		.uleb128 0x3a
 6413 02f3 0B       		.uleb128 0xb
 6414 02f4 3B       		.uleb128 0x3b
 6415 02f5 0B       		.uleb128 0xb
 6416 02f6 49       		.uleb128 0x49
 6417 02f7 13       		.uleb128 0x13
 6418 02f8 02       		.uleb128 0x2
 6419 02f9 17       		.uleb128 0x17
 6420 02fa 00       		.byte	0
 6421 02fb 00       		.byte	0
 6422 02fc 38       		.uleb128 0x38
 6423 02fd 34       		.uleb128 0x34
 6424 02fe 00       		.byte	0
 6425 02ff 03       		.uleb128 0x3
 6426 0300 0E       		.uleb128 0xe
 6427 0301 3A       		.uleb128 0x3a
 6428 0302 0B       		.uleb128 0xb
 6429 0303 3B       		.uleb128 0x3b
 6430 0304 0B       		.uleb128 0xb
 6431 0305 49       		.uleb128 0x49
ARM GAS  C:\Users\haske\AppData\Local\Temp\ccHSLozV.s 			page 144


 6432 0306 13       		.uleb128 0x13
 6433 0307 02       		.uleb128 0x2
 6434 0308 17       		.uleb128 0x17
 6435 0309 00       		.byte	0
 6436 030a 00       		.byte	0
 6437 030b 39       		.uleb128 0x39
 6438 030c 34       		.uleb128 0x34
 6439 030d 00       		.byte	0
 6440 030e 03       		.uleb128 0x3
 6441 030f 08       		.uleb128 0x8
 6442 0310 3A       		.uleb128 0x3a
 6443 0311 0B       		.uleb128 0xb
 6444 0312 3B       		.uleb128 0x3b
 6445 0313 0B       		.uleb128 0xb
 6446 0314 49       		.uleb128 0x49
 6447 0315 13       		.uleb128 0x13
 6448 0316 02       		.uleb128 0x2
 6449 0317 17       		.uleb128 0x17
 6450 0318 00       		.byte	0
 6451 0319 00       		.byte	0
 6452 031a 3A       		.uleb128 0x3a
 6453 031b 898201   		.uleb128 0x4109
 6454 031e 01       		.byte	0x1
 6455 031f 11       		.uleb128 0x11
 6456 0320 01       		.uleb128 0x1
 6457 0321 01       		.uleb128 0x1
 6458 0322 13       		.uleb128 0x13
 6459 0323 00       		.byte	0
 6460 0324 00       		.byte	0
 6461 0325 3B       		.uleb128 0x3b
 6462 0326 05       		.uleb128 0x5
 6463 0327 00       		.byte	0
 6464 0328 03       		.uleb128 0x3
 6465 0329 08       		.uleb128 0x8
 6466 032a 3A       		.uleb128 0x3a
 6467 032b 0B       		.uleb128 0xb
 6468 032c 3B       		.uleb128 0x3b
 6469 032d 0B       		.uleb128 0xb
 6470 032e 49       		.uleb128 0x49
 6471 032f 13       		.uleb128 0x13
 6472 0330 02       		.uleb128 0x2
 6473 0331 18       		.uleb128 0x18
 6474 0332 00       		.byte	0
 6475 0333 00       		.byte	0
 6476 0334 3C       		.uleb128 0x3c
 6477 0335 898201   		.uleb128 0x4109
 6478 0338 01       		.byte	0x1
 6479 0339 11       		.uleb128 0x11
 6480 033a 01       		.uleb128 0x1
 6481 033b 9342     		.uleb128 0x2113
 6482 033d 18       		.uleb128 0x18
 6483 033e 00       		.byte	0
 6484 033f 00       		.byte	0
 6485 0340 3D       		.uleb128 0x3d
 6486 0341 2E       		.uleb128 0x2e
 6487 0342 01       		.byte	0x1
 6488 0343 3F       		.uleb128 0x3f
ARM GAS  C:\Users\haske\AppData\Local\Temp\ccHSLozV.s 			page 145


 6489 0344 19       		.uleb128 0x19
 6490 0345 03       		.uleb128 0x3
 6491 0346 0E       		.uleb128 0xe
 6492 0347 3A       		.uleb128 0x3a
 6493 0348 0B       		.uleb128 0xb
 6494 0349 3B       		.uleb128 0x3b
 6495 034a 0B       		.uleb128 0xb
 6496 034b 27       		.uleb128 0x27
 6497 034c 19       		.uleb128 0x19
 6498 034d 11       		.uleb128 0x11
 6499 034e 01       		.uleb128 0x1
 6500 034f 12       		.uleb128 0x12
 6501 0350 06       		.uleb128 0x6
 6502 0351 40       		.uleb128 0x40
 6503 0352 18       		.uleb128 0x18
 6504 0353 9742     		.uleb128 0x2117
 6505 0355 19       		.uleb128 0x19
 6506 0356 01       		.uleb128 0x1
 6507 0357 13       		.uleb128 0x13
 6508 0358 00       		.byte	0
 6509 0359 00       		.byte	0
 6510 035a 3E       		.uleb128 0x3e
 6511 035b 05       		.uleb128 0x5
 6512 035c 00       		.byte	0
 6513 035d 03       		.uleb128 0x3
 6514 035e 0E       		.uleb128 0xe
 6515 035f 3A       		.uleb128 0x3a
 6516 0360 0B       		.uleb128 0xb
 6517 0361 3B       		.uleb128 0x3b
 6518 0362 0B       		.uleb128 0xb
 6519 0363 49       		.uleb128 0x49
 6520 0364 13       		.uleb128 0x13
 6521 0365 02       		.uleb128 0x2
 6522 0366 18       		.uleb128 0x18
 6523 0367 00       		.byte	0
 6524 0368 00       		.byte	0
 6525 0369 3F       		.uleb128 0x3f
 6526 036a 05       		.uleb128 0x5
 6527 036b 00       		.byte	0
 6528 036c 03       		.uleb128 0x3
 6529 036d 0E       		.uleb128 0xe
 6530 036e 3A       		.uleb128 0x3a
 6531 036f 0B       		.uleb128 0xb
 6532 0370 3B       		.uleb128 0x3b
 6533 0371 05       		.uleb128 0x5
 6534 0372 49       		.uleb128 0x49
 6535 0373 13       		.uleb128 0x13
 6536 0374 02       		.uleb128 0x2
 6537 0375 18       		.uleb128 0x18
 6538 0376 00       		.byte	0
 6539 0377 00       		.byte	0
 6540 0378 40       		.uleb128 0x40
 6541 0379 34       		.uleb128 0x34
 6542 037a 00       		.byte	0
 6543 037b 03       		.uleb128 0x3
 6544 037c 0E       		.uleb128 0xe
 6545 037d 3A       		.uleb128 0x3a
ARM GAS  C:\Users\haske\AppData\Local\Temp\ccHSLozV.s 			page 146


 6546 037e 0B       		.uleb128 0xb
 6547 037f 3B       		.uleb128 0x3b
 6548 0380 0B       		.uleb128 0xb
 6549 0381 49       		.uleb128 0x49
 6550 0382 13       		.uleb128 0x13
 6551 0383 3F       		.uleb128 0x3f
 6552 0384 19       		.uleb128 0x19
 6553 0385 3C       		.uleb128 0x3c
 6554 0386 19       		.uleb128 0x19
 6555 0387 00       		.byte	0
 6556 0388 00       		.byte	0
 6557 0389 41       		.uleb128 0x41
 6558 038a 2E       		.uleb128 0x2e
 6559 038b 00       		.byte	0
 6560 038c 3F       		.uleb128 0x3f
 6561 038d 19       		.uleb128 0x19
 6562 038e 3C       		.uleb128 0x3c
 6563 038f 19       		.uleb128 0x19
 6564 0390 6E       		.uleb128 0x6e
 6565 0391 0E       		.uleb128 0xe
 6566 0392 03       		.uleb128 0x3
 6567 0393 0E       		.uleb128 0xe
 6568 0394 3A       		.uleb128 0x3a
 6569 0395 0B       		.uleb128 0xb
 6570 0396 3B       		.uleb128 0x3b
 6571 0397 0B       		.uleb128 0xb
 6572 0398 00       		.byte	0
 6573 0399 00       		.byte	0
 6574 039a 00       		.byte	0
 6575              		.section	.debug_loc,"",%progbits
 6576              	.Ldebug_loc0:
 6577              	.LLST0:
 6578 0000 00000000 		.4byte	.LVL0
 6579 0004 0A000000 		.4byte	.LVL1
 6580 0008 0100     		.2byte	0x1
 6581 000a 50       		.byte	0x50
 6582 000b 0A000000 		.4byte	.LVL1
 6583 000f CC000000 		.4byte	.LFE67
 6584 0013 0400     		.2byte	0x4
 6585 0015 F3       		.byte	0xf3
 6586 0016 01       		.uleb128 0x1
 6587 0017 50       		.byte	0x50
 6588 0018 9F       		.byte	0x9f
 6589 0019 00000000 		.4byte	0
 6590 001d 00000000 		.4byte	0
 6591              	.LLST1:
 6592 0021 00000000 		.4byte	.LVL0
 6593 0025 0D000000 		.4byte	.LVL2-1
 6594 0029 0100     		.2byte	0x1
 6595 002b 51       		.byte	0x51
 6596 002c 0D000000 		.4byte	.LVL2-1
 6597 0030 76000000 		.4byte	.LVL13
 6598 0034 0100     		.2byte	0x1
 6599 0036 54       		.byte	0x54
 6600 0037 76000000 		.4byte	.LVL13
 6601 003b 9C000000 		.4byte	.LVL16
 6602 003f 0400     		.2byte	0x4
ARM GAS  C:\Users\haske\AppData\Local\Temp\ccHSLozV.s 			page 147


 6603 0041 F3       		.byte	0xf3
 6604 0042 01       		.uleb128 0x1
 6605 0043 51       		.byte	0x51
 6606 0044 9F       		.byte	0x9f
 6607 0045 9C000000 		.4byte	.LVL16
 6608 0049 C2000000 		.4byte	.LVL21
 6609 004d 0100     		.2byte	0x1
 6610 004f 54       		.byte	0x54
 6611 0050 C2000000 		.4byte	.LVL21
 6612 0054 CC000000 		.4byte	.LFE67
 6613 0058 0400     		.2byte	0x4
 6614 005a F3       		.byte	0xf3
 6615 005b 01       		.uleb128 0x1
 6616 005c 51       		.byte	0x51
 6617 005d 9F       		.byte	0x9f
 6618 005e 00000000 		.4byte	0
 6619 0062 00000000 		.4byte	0
 6620              	.LLST2:
 6621 0066 00000000 		.4byte	.LVL0
 6622 006a 0D000000 		.4byte	.LVL2-1
 6623 006e 0100     		.2byte	0x1
 6624 0070 52       		.byte	0x52
 6625 0071 0D000000 		.4byte	.LVL2-1
 6626 0075 C6000000 		.4byte	.LVL22
 6627 0079 0100     		.2byte	0x1
 6628 007b 55       		.byte	0x55
 6629 007c C6000000 		.4byte	.LVL22
 6630 0080 CC000000 		.4byte	.LFE67
 6631 0084 0400     		.2byte	0x4
 6632 0086 F3       		.byte	0xf3
 6633 0087 01       		.uleb128 0x1
 6634 0088 52       		.byte	0x52
 6635 0089 9F       		.byte	0x9f
 6636 008a 00000000 		.4byte	0
 6637 008e 00000000 		.4byte	0
 6638              	.LLST3:
 6639 0092 0E000000 		.4byte	.LVL2
 6640 0096 46000000 		.4byte	.LVL5
 6641 009a 0100     		.2byte	0x1
 6642 009c 50       		.byte	0x50
 6643 009d 48000000 		.4byte	.LVL6
 6644 00a1 4E000000 		.4byte	.LVL7
 6645 00a5 0100     		.2byte	0x1
 6646 00a7 50       		.byte	0x50
 6647 00a8 9C000000 		.4byte	.LVL16
 6648 00ac A4000000 		.4byte	.LVL17
 6649 00b0 0100     		.2byte	0x1
 6650 00b2 50       		.byte	0x50
 6651 00b3 BC000000 		.4byte	.LVL18
 6652 00b7 BE000000 		.4byte	.LVL19
 6653 00bb 0100     		.2byte	0x1
 6654 00bd 50       		.byte	0x50
 6655 00be C0000000 		.4byte	.LVL20
 6656 00c2 C2000000 		.4byte	.LVL21
 6657 00c6 0100     		.2byte	0x1
 6658 00c8 50       		.byte	0x50
 6659 00c9 00000000 		.4byte	0
ARM GAS  C:\Users\haske\AppData\Local\Temp\ccHSLozV.s 			page 148


 6660 00cd 00000000 		.4byte	0
 6661              	.LLST4:
 6662 00d1 16000000 		.4byte	.LVL3
 6663 00d5 2C000000 		.4byte	.LVL4
 6664 00d9 0E00     		.2byte	0xe
 6665 00db 74       		.byte	0x74
 6666 00dc 00       		.sleb128 0
 6667 00dd 94       		.byte	0x94
 6668 00de 01       		.byte	0x1
 6669 00df 08       		.byte	0x8
 6670 00e0 FF       		.byte	0xff
 6671 00e1 1A       		.byte	0x1a
 6672 00e2 09       		.byte	0x9
 6673 00e3 FF       		.byte	0xff
 6674 00e4 24       		.byte	0x24
 6675 00e5 09       		.byte	0x9
 6676 00e6 FF       		.byte	0xff
 6677 00e7 25       		.byte	0x25
 6678 00e8 9F       		.byte	0x9f
 6679 00e9 BC000000 		.4byte	.LVL18
 6680 00ed C0000000 		.4byte	.LVL20
 6681 00f1 0E00     		.2byte	0xe
 6682 00f3 74       		.byte	0x74
 6683 00f4 00       		.sleb128 0
 6684 00f5 94       		.byte	0x94
 6685 00f6 01       		.byte	0x1
 6686 00f7 08       		.byte	0x8
 6687 00f8 FF       		.byte	0xff
 6688 00f9 1A       		.byte	0x1a
 6689 00fa 09       		.byte	0x9
 6690 00fb FF       		.byte	0xff
 6691 00fc 24       		.byte	0x24
 6692 00fd 09       		.byte	0x9
 6693 00fe FF       		.byte	0xff
 6694 00ff 25       		.byte	0x25
 6695 0100 9F       		.byte	0x9f
 6696 0101 00000000 		.4byte	0
 6697 0105 00000000 		.4byte	0
 6698              	.LLST5:
 6699 0109 64000000 		.4byte	.LVL10
 6700 010d 70000000 		.4byte	.LVL11
 6701 0111 0100     		.2byte	0x1
 6702 0113 50       		.byte	0x50
 6703 0114 76000000 		.4byte	.LVL13
 6704 0118 84000000 		.4byte	.LVL15
 6705 011c 0100     		.2byte	0x1
 6706 011e 54       		.byte	0x54
 6707 011f 00000000 		.4byte	0
 6708 0123 00000000 		.4byte	0
 6709              	.LLST6:
 6710 0127 00000000 		.4byte	.LVL23
 6711 012b 10000000 		.4byte	.LVL25
 6712 012f 0100     		.2byte	0x1
 6713 0131 50       		.byte	0x50
 6714 0132 10000000 		.4byte	.LVL25
 6715 0136 30000000 		.4byte	.LFE70
 6716 013a 0400     		.2byte	0x4
ARM GAS  C:\Users\haske\AppData\Local\Temp\ccHSLozV.s 			page 149


 6717 013c F3       		.byte	0xf3
 6718 013d 01       		.uleb128 0x1
 6719 013e 50       		.byte	0x50
 6720 013f 9F       		.byte	0x9f
 6721 0140 00000000 		.4byte	0
 6722 0144 00000000 		.4byte	0
 6723              	.LLST7:
 6724 0148 00000000 		.4byte	.LVL23
 6725 014c 13000000 		.4byte	.LVL26-1
 6726 0150 0100     		.2byte	0x1
 6727 0152 51       		.byte	0x51
 6728 0153 13000000 		.4byte	.LVL26-1
 6729 0157 2E000000 		.4byte	.LVL30
 6730 015b 0100     		.2byte	0x1
 6731 015d 54       		.byte	0x54
 6732 015e 2E000000 		.4byte	.LVL30
 6733 0162 30000000 		.4byte	.LFE70
 6734 0166 0400     		.2byte	0x4
 6735 0168 F3       		.byte	0xf3
 6736 0169 01       		.uleb128 0x1
 6737 016a 51       		.byte	0x51
 6738 016b 9F       		.byte	0x9f
 6739 016c 00000000 		.4byte	0
 6740 0170 00000000 		.4byte	0
 6741              	.LLST8:
 6742 0174 00000000 		.4byte	.LVL31
 6743 0178 12000000 		.4byte	.LVL32
 6744 017c 0100     		.2byte	0x1
 6745 017e 50       		.byte	0x50
 6746 017f 12000000 		.4byte	.LVL32
 6747 0183 66000000 		.4byte	.LVL47
 6748 0187 0100     		.2byte	0x1
 6749 0189 56       		.byte	0x56
 6750 018a 66000000 		.4byte	.LVL47
 6751 018e 72000000 		.4byte	.LVL48
 6752 0192 0100     		.2byte	0x1
 6753 0194 50       		.byte	0x50
 6754 0195 72000000 		.4byte	.LVL48
 6755 0199 06010000 		.4byte	.LVL59
 6756 019d 0100     		.2byte	0x1
 6757 019f 56       		.byte	0x56
 6758 01a0 06010000 		.4byte	.LVL59
 6759 01a4 5A010000 		.4byte	.LVL70
 6760 01a8 0400     		.2byte	0x4
 6761 01aa F3       		.byte	0xf3
 6762 01ab 01       		.uleb128 0x1
 6763 01ac 50       		.byte	0x50
 6764 01ad 9F       		.byte	0x9f
 6765 01ae 5A010000 		.4byte	.LVL70
 6766 01b2 5E010000 		.4byte	.LVL71
 6767 01b6 0100     		.2byte	0x1
 6768 01b8 56       		.byte	0x56
 6769 01b9 5E010000 		.4byte	.LVL71
 6770 01bd 9A010000 		.4byte	.LVL79
 6771 01c1 0400     		.2byte	0x4
 6772 01c3 F3       		.byte	0xf3
 6773 01c4 01       		.uleb128 0x1
ARM GAS  C:\Users\haske\AppData\Local\Temp\ccHSLozV.s 			page 150


 6774 01c5 50       		.byte	0x50
 6775 01c6 9F       		.byte	0x9f
 6776 01c7 9A010000 		.4byte	.LVL79
 6777 01cb BA010000 		.4byte	.LVL84
 6778 01cf 0100     		.2byte	0x1
 6779 01d1 56       		.byte	0x56
 6780 01d2 BA010000 		.4byte	.LVL84
 6781 01d6 C8010000 		.4byte	.LFE68
 6782 01da 0400     		.2byte	0x4
 6783 01dc F3       		.byte	0xf3
 6784 01dd 01       		.uleb128 0x1
 6785 01de 50       		.byte	0x50
 6786 01df 9F       		.byte	0x9f
 6787 01e0 00000000 		.4byte	0
 6788 01e4 00000000 		.4byte	0
 6789              	.LLST9:
 6790 01e8 00000000 		.4byte	.LVL31
 6791 01ec 15000000 		.4byte	.LVL33-1
 6792 01f0 0100     		.2byte	0x1
 6793 01f2 51       		.byte	0x51
 6794 01f3 15000000 		.4byte	.LVL33-1
 6795 01f7 66000000 		.4byte	.LVL47
 6796 01fb 0100     		.2byte	0x1
 6797 01fd 54       		.byte	0x54
 6798 01fe 66000000 		.4byte	.LVL47
 6799 0202 72000000 		.4byte	.LVL48
 6800 0206 0100     		.2byte	0x1
 6801 0208 51       		.byte	0x51
 6802 0209 72000000 		.4byte	.LVL48
 6803 020d 12010000 		.4byte	.LVL61
 6804 0211 0100     		.2byte	0x1
 6805 0213 54       		.byte	0x54
 6806 0214 12010000 		.4byte	.LVL61
 6807 0218 5A010000 		.4byte	.LVL70
 6808 021c 0400     		.2byte	0x4
 6809 021e F3       		.byte	0xf3
 6810 021f 01       		.uleb128 0x1
 6811 0220 51       		.byte	0x51
 6812 0221 9F       		.byte	0x9f
 6813 0222 5A010000 		.4byte	.LVL70
 6814 0226 62010000 		.4byte	.LVL72
 6815 022a 0100     		.2byte	0x1
 6816 022c 54       		.byte	0x54
 6817 022d 62010000 		.4byte	.LVL72
 6818 0231 9A010000 		.4byte	.LVL79
 6819 0235 0400     		.2byte	0x4
 6820 0237 F3       		.byte	0xf3
 6821 0238 01       		.uleb128 0x1
 6822 0239 51       		.byte	0x51
 6823 023a 9F       		.byte	0x9f
 6824 023b 9A010000 		.4byte	.LVL79
 6825 023f BA010000 		.4byte	.LVL84
 6826 0243 0100     		.2byte	0x1
 6827 0245 54       		.byte	0x54
 6828 0246 BA010000 		.4byte	.LVL84
 6829 024a C8010000 		.4byte	.LFE68
 6830 024e 0400     		.2byte	0x4
ARM GAS  C:\Users\haske\AppData\Local\Temp\ccHSLozV.s 			page 151


 6831 0250 F3       		.byte	0xf3
 6832 0251 01       		.uleb128 0x1
 6833 0252 51       		.byte	0x51
 6834 0253 9F       		.byte	0x9f
 6835 0254 00000000 		.4byte	0
 6836 0258 00000000 		.4byte	0
 6837              	.LLST10:
 6838 025c 78000000 		.4byte	.LVL49
 6839 0260 A5000000 		.4byte	.LVL50-1
 6840 0264 0E00     		.2byte	0xe
 6841 0266 74       		.byte	0x74
 6842 0267 14       		.sleb128 20
 6843 0268 94       		.byte	0x94
 6844 0269 01       		.byte	0x1
 6845 026a 08       		.byte	0x8
 6846 026b FF       		.byte	0xff
 6847 026c 1A       		.byte	0x1a
 6848 026d 09       		.byte	0x9
 6849 026e FF       		.byte	0xff
 6850 026f 24       		.byte	0x24
 6851 0270 09       		.byte	0x9
 6852 0271 FF       		.byte	0xff
 6853 0272 25       		.byte	0x25
 6854 0273 9F       		.byte	0x9f
 6855 0274 9A010000 		.4byte	.LVL79
 6856 0278 AB010000 		.4byte	.LVL80-1
 6857 027c 0E00     		.2byte	0xe
 6858 027e 74       		.byte	0x74
 6859 027f 14       		.sleb128 20
 6860 0280 94       		.byte	0x94
 6861 0281 01       		.byte	0x1
 6862 0282 08       		.byte	0x8
 6863 0283 FF       		.byte	0xff
 6864 0284 1A       		.byte	0x1a
 6865 0285 09       		.byte	0x9
 6866 0286 FF       		.byte	0xff
 6867 0287 24       		.byte	0x24
 6868 0288 09       		.byte	0x9
 6869 0289 FF       		.byte	0xff
 6870 028a 25       		.byte	0x25
 6871 028b 9F       		.byte	0x9f
 6872 028c B0010000 		.4byte	.LVL81
 6873 0290 B4010000 		.4byte	.LVL82
 6874 0294 0E00     		.2byte	0xe
 6875 0296 74       		.byte	0x74
 6876 0297 14       		.sleb128 20
 6877 0298 94       		.byte	0x94
 6878 0299 01       		.byte	0x1
 6879 029a 08       		.byte	0x8
 6880 029b FF       		.byte	0xff
 6881 029c 1A       		.byte	0x1a
 6882 029d 09       		.byte	0x9
 6883 029e FF       		.byte	0xff
 6884 029f 24       		.byte	0x24
 6885 02a0 09       		.byte	0x9
 6886 02a1 FF       		.byte	0xff
 6887 02a2 25       		.byte	0x25
ARM GAS  C:\Users\haske\AppData\Local\Temp\ccHSLozV.s 			page 152


 6888 02a3 9F       		.byte	0x9f
 6889 02a4 B8010000 		.4byte	.LVL83
 6890 02a8 BA010000 		.4byte	.LVL84
 6891 02ac 0E00     		.2byte	0xe
 6892 02ae 74       		.byte	0x74
 6893 02af 14       		.sleb128 20
 6894 02b0 94       		.byte	0x94
 6895 02b1 01       		.byte	0x1
 6896 02b2 08       		.byte	0x8
 6897 02b3 FF       		.byte	0xff
 6898 02b4 1A       		.byte	0x1a
 6899 02b5 09       		.byte	0x9
 6900 02b6 FF       		.byte	0xff
 6901 02b7 24       		.byte	0x24
 6902 02b8 09       		.byte	0x9
 6903 02b9 FF       		.byte	0xff
 6904 02ba 25       		.byte	0x25
 6905 02bb 9F       		.byte	0x9f
 6906 02bc 00000000 		.4byte	0
 6907 02c0 00000000 		.4byte	0
 6908              	.LLST11:
 6909 02c4 28000000 		.4byte	.LVL35
 6910 02c8 30000000 		.4byte	.LVL36
 6911 02cc 0100     		.2byte	0x1
 6912 02ce 50       		.byte	0x50
 6913 02cf 00000000 		.4byte	0
 6914 02d3 00000000 		.4byte	0
 6915              	.LLST12:
 6916 02d7 4C000000 		.4byte	.LVL40
 6917 02db 52000000 		.4byte	.LVL42
 6918 02df 0200     		.2byte	0x2
 6919 02e1 3C       		.byte	0x3c
 6920 02e2 9F       		.byte	0x9f
 6921 02e3 52000000 		.4byte	.LVL42
 6922 02e7 62000000 		.4byte	.LVL46
 6923 02eb 0100     		.2byte	0x1
 6924 02ed 53       		.byte	0x53
 6925 02ee 00000000 		.4byte	0
 6926 02f2 00000000 		.4byte	0
 6927              	.LLST13:
 6928 02f6 4C000000 		.4byte	.LVL40
 6929 02fa 4E000000 		.4byte	.LVL41
 6930 02fe 0300     		.2byte	0x3
 6931 0300 91       		.byte	0x91
 6932 0301 54       		.sleb128 -44
 6933 0302 9F       		.byte	0x9f
 6934 0303 4E000000 		.4byte	.LVL41
 6935 0307 52000000 		.4byte	.LVL42
 6936 030b 0100     		.2byte	0x1
 6937 030d 52       		.byte	0x52
 6938 030e 52000000 		.4byte	.LVL42
 6939 0312 62000000 		.4byte	.LVL46
 6940 0316 0300     		.2byte	0x3
 6941 0318 91       		.byte	0x91
 6942 0319 54       		.sleb128 -44
 6943 031a 9F       		.byte	0x9f
 6944 031b 00000000 		.4byte	0
ARM GAS  C:\Users\haske\AppData\Local\Temp\ccHSLozV.s 			page 153


 6945 031f 00000000 		.4byte	0
 6946              	.LLST14:
 6947 0323 4C000000 		.4byte	.LVL40
 6948 0327 52000000 		.4byte	.LVL42
 6949 032b 0100     		.2byte	0x1
 6950 032d 51       		.byte	0x51
 6951 032e 00000000 		.4byte	0
 6952 0332 00000000 		.4byte	0
 6953              	.LLST15:
 6954 0336 4C000000 		.4byte	.LVL40
 6955 033a 62000000 		.4byte	.LVL46
 6956 033e 0100     		.2byte	0x1
 6957 0340 51       		.byte	0x51
 6958 0341 00000000 		.4byte	0
 6959 0345 00000000 		.4byte	0
 6960              	.LLST16:
 6961 0349 4C000000 		.4byte	.LVL40
 6962 034d 4E000000 		.4byte	.LVL41
 6963 0351 0300     		.2byte	0x3
 6964 0353 91       		.byte	0x91
 6965 0354 54       		.sleb128 -44
 6966 0355 9F       		.byte	0x9f
 6967 0356 4E000000 		.4byte	.LVL41
 6968 035a 56000000 		.4byte	.LVL43
 6969 035e 0100     		.2byte	0x1
 6970 0360 52       		.byte	0x52
 6971 0361 56000000 		.4byte	.LVL43
 6972 0365 5A000000 		.4byte	.LVL44
 6973 0369 0300     		.2byte	0x3
 6974 036b 72       		.byte	0x72
 6975 036c 7F       		.sleb128 -1
 6976 036d 9F       		.byte	0x9f
 6977 036e 5A000000 		.4byte	.LVL44
 6978 0372 62000000 		.4byte	.LVL46
 6979 0376 0100     		.2byte	0x1
 6980 0378 52       		.byte	0x52
 6981 0379 00000000 		.4byte	0
 6982 037d 00000000 		.4byte	0
 6983              	.LLST17:
 6984 0381 A6000000 		.4byte	.LVL50
 6985 0385 B4000000 		.4byte	.LVL52
 6986 0389 0100     		.2byte	0x1
 6987 038b 50       		.byte	0x50
 6988 038c 00000000 		.4byte	0
 6989 0390 00000000 		.4byte	0
 6990              	.LLST18:
 6991 0394 AE000000 		.4byte	.LVL51
 6992 0398 9A010000 		.4byte	.LVL79
 6993 039c 0100     		.2byte	0x1
 6994 039e 5A       		.byte	0x5a
 6995 039f B4010000 		.4byte	.LVL82
 6996 03a3 B8010000 		.4byte	.LVL83
 6997 03a7 0100     		.2byte	0x1
 6998 03a9 5A       		.byte	0x5a
 6999 03aa 00000000 		.4byte	0
 7000 03ae 00000000 		.4byte	0
 7001              	.LLST19:
ARM GAS  C:\Users\haske\AppData\Local\Temp\ccHSLozV.s 			page 154


 7002 03b2 CC000000 		.4byte	.LVL55
 7003 03b6 14010000 		.4byte	.LVL62
 7004 03ba 0100     		.2byte	0x1
 7005 03bc 59       		.byte	0x59
 7006 03bd 14010000 		.4byte	.LVL62
 7007 03c1 5A010000 		.4byte	.LVL70
 7008 03c5 0100     		.2byte	0x1
 7009 03c7 56       		.byte	0x56
 7010 03c8 5A010000 		.4byte	.LVL70
 7011 03cc 9A010000 		.4byte	.LVL79
 7012 03d0 0100     		.2byte	0x1
 7013 03d2 59       		.byte	0x59
 7014 03d3 00000000 		.4byte	0
 7015 03d7 00000000 		.4byte	0
 7016              	.LLST20:
 7017 03db 10010000 		.4byte	.LVL60
 7018 03df 14010000 		.4byte	.LVL62
 7019 03e3 0200     		.2byte	0x2
 7020 03e5 30       		.byte	0x30
 7021 03e6 9F       		.byte	0x9f
 7022 03e7 14010000 		.4byte	.LVL62
 7023 03eb 5A010000 		.4byte	.LVL70
 7024 03ef 0100     		.2byte	0x1
 7025 03f1 54       		.byte	0x54
 7026 03f2 00000000 		.4byte	0
 7027 03f6 00000000 		.4byte	0
 7028              	.LLST21:
 7029 03fa 32010000 		.4byte	.LVL64
 7030 03fe 34010000 		.4byte	.LVL65
 7031 0402 0100     		.2byte	0x1
 7032 0404 50       		.byte	0x50
 7033 0405 34010000 		.4byte	.LVL65
 7034 0409 44010000 		.4byte	.LVL68
 7035 040d 0200     		.2byte	0x2
 7036 040f 91       		.byte	0x91
 7037 0410 54       		.sleb128 -44
 7038 0411 00000000 		.4byte	0
 7039 0415 00000000 		.4byte	0
 7040              	.LLST22:
 7041 0419 32010000 		.4byte	.LVL64
 7042 041d 36010000 		.4byte	.LVL66
 7043 0421 0100     		.2byte	0x1
 7044 0423 52       		.byte	0x52
 7045 0424 36010000 		.4byte	.LVL66
 7046 0428 44010000 		.4byte	.LVL68
 7047 042c 0200     		.2byte	0x2
 7048 042e 91       		.byte	0x91
 7049 042f 55       		.sleb128 -43
 7050 0430 00000000 		.4byte	0
 7051 0434 00000000 		.4byte	0
 7052              	.LLST23:
 7053 0438 32010000 		.4byte	.LVL64
 7054 043c 38010000 		.4byte	.LVL67
 7055 0440 0100     		.2byte	0x1
 7056 0442 53       		.byte	0x53
 7057 0443 38010000 		.4byte	.LVL67
 7058 0447 44010000 		.4byte	.LVL68
ARM GAS  C:\Users\haske\AppData\Local\Temp\ccHSLozV.s 			page 155


 7059 044b 0200     		.2byte	0x2
 7060 044d 91       		.byte	0x91
 7061 044e 56       		.sleb128 -42
 7062 044f 00000000 		.4byte	0
 7063 0453 00000000 		.4byte	0
 7064              	.LLST24:
 7065 0457 5E010000 		.4byte	.LVL71
 7066 045b 9A010000 		.4byte	.LVL79
 7067 045f 0100     		.2byte	0x1
 7068 0461 56       		.byte	0x56
 7069 0462 00000000 		.4byte	0
 7070 0466 00000000 		.4byte	0
 7071              	.LLST25:
 7072 046a 5E010000 		.4byte	.LVL71
 7073 046e 62010000 		.4byte	.LVL72
 7074 0472 0200     		.2byte	0x2
 7075 0474 30       		.byte	0x30
 7076 0475 9F       		.byte	0x9f
 7077 0476 62010000 		.4byte	.LVL72
 7078 047a 9A010000 		.4byte	.LVL79
 7079 047e 0100     		.2byte	0x1
 7080 0480 53       		.byte	0x53
 7081 0481 00000000 		.4byte	0
 7082 0485 00000000 		.4byte	0
 7083              	.LLST26:
 7084 0489 72010000 		.4byte	.LVL73
 7085 048d 74010000 		.4byte	.LVL74
 7086 0491 0100     		.2byte	0x1
 7087 0493 55       		.byte	0x55
 7088 0494 74010000 		.4byte	.LVL74
 7089 0498 84010000 		.4byte	.LVL77
 7090 049c 0200     		.2byte	0x2
 7091 049e 72       		.byte	0x72
 7092 049f 00       		.sleb128 0
 7093 04a0 00000000 		.4byte	0
 7094 04a4 00000000 		.4byte	0
 7095              	.LLST27:
 7096 04a8 72010000 		.4byte	.LVL73
 7097 04ac 76010000 		.4byte	.LVL75
 7098 04b0 0100     		.2byte	0x1
 7099 04b2 54       		.byte	0x54
 7100 04b3 76010000 		.4byte	.LVL75
 7101 04b7 84010000 		.4byte	.LVL77
 7102 04bb 0200     		.2byte	0x2
 7103 04bd 72       		.byte	0x72
 7104 04be 01       		.sleb128 1
 7105 04bf 00000000 		.4byte	0
 7106 04c3 00000000 		.4byte	0
 7107              	.LLST28:
 7108 04c7 72010000 		.4byte	.LVL73
 7109 04cb 78010000 		.4byte	.LVL76
 7110 04cf 0100     		.2byte	0x1
 7111 04d1 51       		.byte	0x51
 7112 04d2 78010000 		.4byte	.LVL76
 7113 04d6 84010000 		.4byte	.LVL77
 7114 04da 0200     		.2byte	0x2
 7115 04dc 72       		.byte	0x72
ARM GAS  C:\Users\haske\AppData\Local\Temp\ccHSLozV.s 			page 156


 7116 04dd 02       		.sleb128 2
 7117 04de 00000000 		.4byte	0
 7118 04e2 00000000 		.4byte	0
 7119              	.LLST29:
 7120 04e6 00000000 		.4byte	.LVL85
 7121 04ea 12000000 		.4byte	.LVL87
 7122 04ee 0100     		.2byte	0x1
 7123 04f0 50       		.byte	0x50
 7124 04f1 12000000 		.4byte	.LVL87
 7125 04f5 6E000000 		.4byte	.LFE71
 7126 04f9 0100     		.2byte	0x1
 7127 04fb 58       		.byte	0x58
 7128 04fc 00000000 		.4byte	0
 7129 0500 00000000 		.4byte	0
 7130              	.LLST30:
 7131 0504 00000000 		.4byte	.LVL85
 7132 0508 19000000 		.4byte	.LVL88-1
 7133 050c 0100     		.2byte	0x1
 7134 050e 51       		.byte	0x51
 7135 050f 19000000 		.4byte	.LVL88-1
 7136 0513 6E000000 		.4byte	.LFE71
 7137 0517 0400     		.2byte	0x4
 7138 0519 F3       		.byte	0xf3
 7139 051a 01       		.uleb128 0x1
 7140 051b 51       		.byte	0x51
 7141 051c 9F       		.byte	0x9f
 7142 051d 00000000 		.4byte	0
 7143 0521 00000000 		.4byte	0
 7144              	.LLST31:
 7145 0525 00000000 		.4byte	.LVL85
 7146 0529 19000000 		.4byte	.LVL88-1
 7147 052d 0100     		.2byte	0x1
 7148 052f 52       		.byte	0x52
 7149 0530 19000000 		.4byte	.LVL88-1
 7150 0534 6E000000 		.4byte	.LFE71
 7151 0538 0400     		.2byte	0x4
 7152 053a F3       		.byte	0xf3
 7153 053b 01       		.uleb128 0x1
 7154 053c 52       		.byte	0x52
 7155 053d 9F       		.byte	0x9f
 7156 053e 00000000 		.4byte	0
 7157 0542 00000000 		.4byte	0
 7158              	.LLST32:
 7159 0546 00000000 		.4byte	.LVL85
 7160 054a 19000000 		.4byte	.LVL88-1
 7161 054e 0100     		.2byte	0x1
 7162 0550 53       		.byte	0x53
 7163 0551 19000000 		.4byte	.LVL88-1
 7164 0555 6E000000 		.4byte	.LFE71
 7165 0559 0400     		.2byte	0x4
 7166 055b F3       		.byte	0xf3
 7167 055c 01       		.uleb128 0x1
 7168 055d 53       		.byte	0x53
 7169 055e 9F       		.byte	0x9f
 7170 055f 00000000 		.4byte	0
 7171 0563 00000000 		.4byte	0
 7172              	.LLST33:
ARM GAS  C:\Users\haske\AppData\Local\Temp\ccHSLozV.s 			page 157


 7173 0567 38000000 		.4byte	.LVL93
 7174 056b 50000000 		.4byte	.LVL95
 7175 056f 0100     		.2byte	0x1
 7176 0571 50       		.byte	0x50
 7177 0572 54000000 		.4byte	.LVL96
 7178 0576 60000000 		.4byte	.LVL98
 7179 057a 0100     		.2byte	0x1
 7180 057c 50       		.byte	0x50
 7181 057d 62000000 		.4byte	.LVL99
 7182 0581 64000000 		.4byte	.LVL100
 7183 0585 0100     		.2byte	0x1
 7184 0587 50       		.byte	0x50
 7185 0588 66000000 		.4byte	.LVL101
 7186 058c 68000000 		.4byte	.LVL102
 7187 0590 0100     		.2byte	0x1
 7188 0592 50       		.byte	0x50
 7189 0593 00000000 		.4byte	0
 7190 0597 00000000 		.4byte	0
 7191              	.LLST34:
 7192 059b 1C000000 		.4byte	.LVL89
 7193 059f 34000000 		.4byte	.LVL92
 7194 05a3 0100     		.2byte	0x1
 7195 05a5 50       		.byte	0x50
 7196 05a6 00000000 		.4byte	0
 7197 05aa 00000000 		.4byte	0
 7198              	.LLST35:
 7199 05ae 2E000000 		.4byte	.LVL90
 7200 05b2 32000000 		.4byte	.LVL91
 7201 05b6 0300     		.2byte	0x3
 7202 05b8 71       		.byte	0x71
 7203 05b9 04       		.sleb128 4
 7204 05ba 9F       		.byte	0x9f
 7205 05bb 32000000 		.4byte	.LVL91
 7206 05bf 37000000 		.4byte	.LVL93-1
 7207 05c3 0100     		.2byte	0x1
 7208 05c5 51       		.byte	0x51
 7209 05c6 00000000 		.4byte	0
 7210 05ca 00000000 		.4byte	0
 7211              	.LLST36:
 7212 05ce 42000000 		.4byte	.LVL94
 7213 05d2 5E000000 		.4byte	.LVL97
 7214 05d6 0100     		.2byte	0x1
 7215 05d8 55       		.byte	0x55
 7216 05d9 62000000 		.4byte	.LVL99
 7217 05dd 68000000 		.4byte	.LVL102
 7218 05e1 0100     		.2byte	0x1
 7219 05e3 55       		.byte	0x55
 7220 05e4 00000000 		.4byte	0
 7221 05e8 00000000 		.4byte	0
 7222              	.LLST37:
 7223 05ec 00000000 		.4byte	.LVL103
 7224 05f0 22000000 		.4byte	.LVL105
 7225 05f4 0100     		.2byte	0x1
 7226 05f6 50       		.byte	0x50
 7227 05f7 22000000 		.4byte	.LVL105
 7228 05fb 94010000 		.4byte	.LVL165
 7229 05ff 0100     		.2byte	0x1
ARM GAS  C:\Users\haske\AppData\Local\Temp\ccHSLozV.s 			page 158


 7230 0601 57       		.byte	0x57
 7231 0602 94010000 		.4byte	.LVL165
 7232 0606 98010000 		.4byte	.LFE72
 7233 060a 0400     		.2byte	0x4
 7234 060c F3       		.byte	0xf3
 7235 060d 01       		.uleb128 0x1
 7236 060e 50       		.byte	0x50
 7237 060f 9F       		.byte	0x9f
 7238 0610 00000000 		.4byte	0
 7239 0614 00000000 		.4byte	0
 7240              	.LLST38:
 7241 0618 00000000 		.4byte	.LVL103
 7242 061c 2E000000 		.4byte	.LVL106
 7243 0620 0100     		.2byte	0x1
 7244 0622 51       		.byte	0x51
 7245 0623 2E000000 		.4byte	.LVL106
 7246 0627 98010000 		.4byte	.LFE72
 7247 062b 0400     		.2byte	0x4
 7248 062d F3       		.byte	0xf3
 7249 062e 01       		.uleb128 0x1
 7250 062f 51       		.byte	0x51
 7251 0630 9F       		.byte	0x9f
 7252 0631 00000000 		.4byte	0
 7253 0635 00000000 		.4byte	0
 7254              	.LLST39:
 7255 0639 00000000 		.4byte	.LVL103
 7256 063d 30000000 		.4byte	.LVL107
 7257 0641 0100     		.2byte	0x1
 7258 0643 52       		.byte	0x52
 7259 0644 30000000 		.4byte	.LVL107
 7260 0648 98010000 		.4byte	.LFE72
 7261 064c 0400     		.2byte	0x4
 7262 064e F3       		.byte	0xf3
 7263 064f 01       		.uleb128 0x1
 7264 0650 52       		.byte	0x52
 7265 0651 9F       		.byte	0x9f
 7266 0652 00000000 		.4byte	0
 7267 0656 00000000 		.4byte	0
 7268              	.LLST40:
 7269 065a 00000000 		.4byte	.LVL103
 7270 065e 1A000000 		.4byte	.LVL104
 7271 0662 0100     		.2byte	0x1
 7272 0664 53       		.byte	0x53
 7273 0665 1A000000 		.4byte	.LVL104
 7274 0669 98010000 		.4byte	.LFE72
 7275 066d 0400     		.2byte	0x4
 7276 066f F3       		.byte	0xf3
 7277 0670 01       		.uleb128 0x1
 7278 0671 53       		.byte	0x53
 7279 0672 9F       		.byte	0x9f
 7280 0673 00000000 		.4byte	0
 7281 0677 00000000 		.4byte	0
 7282              	.LLST41:
 7283 067b 00000000 		.4byte	.LVL103
 7284 067f 94010000 		.4byte	.LVL165
 7285 0683 0200     		.2byte	0x2
 7286 0685 91       		.byte	0x91
ARM GAS  C:\Users\haske\AppData\Local\Temp\ccHSLozV.s 			page 159


 7287 0686 00       		.sleb128 0
 7288 0687 94010000 		.4byte	.LVL165
 7289 068b 98010000 		.4byte	.LFE72
 7290 068f 0200     		.2byte	0x2
 7291 0691 7D       		.byte	0x7d
 7292 0692 00       		.sleb128 0
 7293 0693 00000000 		.4byte	0
 7294 0697 00000000 		.4byte	0
 7295              	.LLST42:
 7296 069b 3C000000 		.4byte	.LVL109
 7297 069f 54000000 		.4byte	.LVL113
 7298 06a3 0100     		.2byte	0x1
 7299 06a5 50       		.byte	0x50
 7300 06a6 00000000 		.4byte	0
 7301 06aa 00000000 		.4byte	0
 7302              	.LLST43:
 7303 06ae 38000000 		.4byte	.LVL108
 7304 06b2 3C000000 		.4byte	.LVL109
 7305 06b6 0200     		.2byte	0x2
 7306 06b8 30       		.byte	0x30
 7307 06b9 9F       		.byte	0x9f
 7308 06ba 3C000000 		.4byte	.LVL109
 7309 06be 4C000000 		.4byte	.LVL110
 7310 06c2 0100     		.2byte	0x1
 7311 06c4 53       		.byte	0x53
 7312 06c5 4E000000 		.4byte	.LVL111
 7313 06c9 5B000000 		.4byte	.LVL114-1
 7314 06cd 0100     		.2byte	0x1
 7315 06cf 53       		.byte	0x53
 7316 06d0 44010000 		.4byte	.LVL151
 7317 06d4 7C010000 		.4byte	.LVL160
 7318 06d8 0100     		.2byte	0x1
 7319 06da 52       		.byte	0x52
 7320 06db 7E010000 		.4byte	.LVL161
 7321 06df 87010000 		.4byte	.LVL162-1
 7322 06e3 0100     		.2byte	0x1
 7323 06e5 52       		.byte	0x52
 7324 06e6 00000000 		.4byte	0
 7325 06ea 00000000 		.4byte	0
 7326              	.LLST44:
 7327 06ee 52000000 		.4byte	.LVL112
 7328 06f2 9A000000 		.4byte	.LVL120
 7329 06f6 0200     		.2byte	0x2
 7330 06f8 30       		.byte	0x30
 7331 06f9 9F       		.byte	0x9f
 7332 06fa 9A000000 		.4byte	.LVL120
 7333 06fe 9E000000 		.4byte	.LVL121
 7334 0702 0300     		.2byte	0x3
 7335 0704 91       		.byte	0x91
 7336 0705 54       		.sleb128 -44
 7337 0706 9F       		.byte	0x9f
 7338 0707 9E000000 		.4byte	.LVL121
 7339 070b A0000000 		.4byte	.LVL122
 7340 070f 0100     		.2byte	0x1
 7341 0711 5A       		.byte	0x5a
 7342 0712 A0000000 		.4byte	.LVL122
 7343 0716 BC000000 		.4byte	.LVL126
ARM GAS  C:\Users\haske\AppData\Local\Temp\ccHSLozV.s 			page 160


 7344 071a 0200     		.2byte	0x2
 7345 071c 30       		.byte	0x30
 7346 071d 9F       		.byte	0x9f
 7347 071e BC000000 		.4byte	.LVL126
 7348 0722 C0000000 		.4byte	.LVL127
 7349 0726 0300     		.2byte	0x3
 7350 0728 91       		.byte	0x91
 7351 0729 50       		.sleb128 -48
 7352 072a 9F       		.byte	0x9f
 7353 072b C0000000 		.4byte	.LVL127
 7354 072f C2000000 		.4byte	.LVL128
 7355 0733 0100     		.2byte	0x1
 7356 0735 5A       		.byte	0x5a
 7357 0736 C2000000 		.4byte	.LVL128
 7358 073a 08010000 		.4byte	.LVL139
 7359 073e 0200     		.2byte	0x2
 7360 0740 30       		.byte	0x30
 7361 0741 9F       		.byte	0x9f
 7362 0742 08010000 		.4byte	.LVL139
 7363 0746 94010000 		.4byte	.LVL165
 7364 074a 0100     		.2byte	0x1
 7365 074c 5A       		.byte	0x5a
 7366 074d 00000000 		.4byte	0
 7367 0751 00000000 		.4byte	0
 7368              	.LLST45:
 7369 0755 5E000000 		.4byte	.LVL115
 7370 0759 88000000 		.4byte	.LVL117
 7371 075d 0100     		.2byte	0x1
 7372 075f 50       		.byte	0x50
 7373 0760 A0000000 		.4byte	.LVL122
 7374 0764 A6000000 		.4byte	.LVL123
 7375 0768 0100     		.2byte	0x1
 7376 076a 50       		.byte	0x50
 7377 076b C2000000 		.4byte	.LVL128
 7378 076f C8000000 		.4byte	.LVL129
 7379 0773 0100     		.2byte	0x1
 7380 0775 50       		.byte	0x50
 7381 0776 E2000000 		.4byte	.LVL132
 7382 077a E4000000 		.4byte	.LVL133
 7383 077e 0100     		.2byte	0x1
 7384 0780 50       		.byte	0x50
 7385 0781 F8000000 		.4byte	.LVL136
 7386 0785 FE000000 		.4byte	.LVL137
 7387 0789 0100     		.2byte	0x1
 7388 078b 50       		.byte	0x50
 7389 078c 00000000 		.4byte	0
 7390 0790 00000000 		.4byte	0
 7391              	.LLST46:
 7392 0794 6E000000 		.4byte	.LVL116
 7393 0798 94010000 		.4byte	.LVL165
 7394 079c 0100     		.2byte	0x1
 7395 079e 58       		.byte	0x58
 7396 079f 00000000 		.4byte	0
 7397 07a3 00000000 		.4byte	0
 7398              	.LLST47:
 7399 07a7 6E000000 		.4byte	.LVL116
 7400 07ab 8C000000 		.4byte	.LVL118
ARM GAS  C:\Users\haske\AppData\Local\Temp\ccHSLozV.s 			page 161


 7401 07af 0200     		.2byte	0x2
 7402 07b1 30       		.byte	0x30
 7403 07b2 9F       		.byte	0x9f
 7404 07b3 8C000000 		.4byte	.LVL118
 7405 07b7 A0000000 		.4byte	.LVL122
 7406 07bb 0100     		.2byte	0x1
 7407 07bd 50       		.byte	0x50
 7408 07be A0000000 		.4byte	.LVL122
 7409 07c2 AA000000 		.4byte	.LVL124
 7410 07c6 0200     		.2byte	0x2
 7411 07c8 30       		.byte	0x30
 7412 07c9 9F       		.byte	0x9f
 7413 07ca AA000000 		.4byte	.LVL124
 7414 07ce C2000000 		.4byte	.LVL128
 7415 07d2 0100     		.2byte	0x1
 7416 07d4 50       		.byte	0x50
 7417 07d5 C2000000 		.4byte	.LVL128
 7418 07d9 CC000000 		.4byte	.LVL130
 7419 07dd 0200     		.2byte	0x2
 7420 07df 30       		.byte	0x30
 7421 07e0 9F       		.byte	0x9f
 7422 07e1 CC000000 		.4byte	.LVL130
 7423 07e5 E2000000 		.4byte	.LVL132
 7424 07e9 0100     		.2byte	0x1
 7425 07eb 50       		.byte	0x50
 7426 07ec E2000000 		.4byte	.LVL132
 7427 07f0 EE000000 		.4byte	.LVL134
 7428 07f4 0200     		.2byte	0x2
 7429 07f6 30       		.byte	0x30
 7430 07f7 9F       		.byte	0x9f
 7431 07f8 EE000000 		.4byte	.LVL134
 7432 07fc F8000000 		.4byte	.LVL136
 7433 0800 0100     		.2byte	0x1
 7434 0802 50       		.byte	0x50
 7435 0803 F8000000 		.4byte	.LVL136
 7436 0807 02010000 		.4byte	.LVL138
 7437 080b 0200     		.2byte	0x2
 7438 080d 30       		.byte	0x30
 7439 080e 9F       		.byte	0x9f
 7440 080f 02010000 		.4byte	.LVL138
 7441 0813 11010000 		.4byte	.LVL141-1
 7442 0817 0100     		.2byte	0x1
 7443 0819 50       		.byte	0x50
 7444 081a 00000000 		.4byte	0
 7445 081e 00000000 		.4byte	0
 7446              	.LLST48:
 7447 0822 6E000000 		.4byte	.LVL116
 7448 0826 94000000 		.4byte	.LVL119
 7449 082a 0200     		.2byte	0x2
 7450 082c 30       		.byte	0x30
 7451 082d 9F       		.byte	0x9f
 7452 082e 94000000 		.4byte	.LVL119
 7453 0832 A0000000 		.4byte	.LVL122
 7454 0836 0100     		.2byte	0x1
 7455 0838 5B       		.byte	0x5b
 7456 0839 A0000000 		.4byte	.LVL122
 7457 083d B2000000 		.4byte	.LVL125
ARM GAS  C:\Users\haske\AppData\Local\Temp\ccHSLozV.s 			page 162


 7458 0841 0200     		.2byte	0x2
 7459 0843 30       		.byte	0x30
 7460 0844 9F       		.byte	0x9f
 7461 0845 B2000000 		.4byte	.LVL125
 7462 0849 C2000000 		.4byte	.LVL128
 7463 084d 0100     		.2byte	0x1
 7464 084f 5B       		.byte	0x5b
 7465 0850 C2000000 		.4byte	.LVL128
 7466 0854 D4000000 		.4byte	.LVL131
 7467 0858 0200     		.2byte	0x2
 7468 085a 30       		.byte	0x30
 7469 085b 9F       		.byte	0x9f
 7470 085c D4000000 		.4byte	.LVL131
 7471 0860 E2000000 		.4byte	.LVL132
 7472 0864 0100     		.2byte	0x1
 7473 0866 5B       		.byte	0x5b
 7474 0867 E2000000 		.4byte	.LVL132
 7475 086b F2000000 		.4byte	.LVL135
 7476 086f 0200     		.2byte	0x2
 7477 0871 30       		.byte	0x30
 7478 0872 9F       		.byte	0x9f
 7479 0873 F2000000 		.4byte	.LVL135
 7480 0877 F8000000 		.4byte	.LVL136
 7481 087b 0100     		.2byte	0x1
 7482 087d 5B       		.byte	0x5b
 7483 087e F8000000 		.4byte	.LVL136
 7484 0882 02010000 		.4byte	.LVL138
 7485 0886 0200     		.2byte	0x2
 7486 0888 30       		.byte	0x30
 7487 0889 9F       		.byte	0x9f
 7488 088a 02010000 		.4byte	.LVL138
 7489 088e 22010000 		.4byte	.LVL145
 7490 0892 0100     		.2byte	0x1
 7491 0894 5B       		.byte	0x5b
 7492 0895 26010000 		.4byte	.LVL146
 7493 0899 3A010000 		.4byte	.LVL149
 7494 089d 0100     		.2byte	0x1
 7495 089f 5B       		.byte	0x5b
 7496 08a0 8C010000 		.4byte	.LVL163
 7497 08a4 8E010000 		.4byte	.LVL164
 7498 08a8 0100     		.2byte	0x1
 7499 08aa 5B       		.byte	0x5b
 7500 08ab 00000000 		.4byte	0
 7501 08af 00000000 		.4byte	0
 7502              	.LLST49:
 7503 08b3 6E000000 		.4byte	.LVL116
 7504 08b7 9A000000 		.4byte	.LVL120
 7505 08bb 0200     		.2byte	0x2
 7506 08bd 30       		.byte	0x30
 7507 08be 9F       		.byte	0x9f
 7508 08bf 9A000000 		.4byte	.LVL120
 7509 08c3 A0000000 		.4byte	.LVL122
 7510 08c7 0100     		.2byte	0x1
 7511 08c9 54       		.byte	0x54
 7512 08ca A0000000 		.4byte	.LVL122
 7513 08ce BC000000 		.4byte	.LVL126
 7514 08d2 0200     		.2byte	0x2
ARM GAS  C:\Users\haske\AppData\Local\Temp\ccHSLozV.s 			page 163


 7515 08d4 30       		.byte	0x30
 7516 08d5 9F       		.byte	0x9f
 7517 08d6 BC000000 		.4byte	.LVL126
 7518 08da C2000000 		.4byte	.LVL128
 7519 08de 0100     		.2byte	0x1
 7520 08e0 54       		.byte	0x54
 7521 08e1 C2000000 		.4byte	.LVL128
 7522 08e5 08010000 		.4byte	.LVL139
 7523 08e9 0200     		.2byte	0x2
 7524 08eb 30       		.byte	0x30
 7525 08ec 9F       		.byte	0x9f
 7526 08ed 08010000 		.4byte	.LVL139
 7527 08f1 6A010000 		.4byte	.LVL155
 7528 08f5 0100     		.2byte	0x1
 7529 08f7 54       		.byte	0x54
 7530 08f8 6C010000 		.4byte	.LVL156
 7531 08fc 74010000 		.4byte	.LVL157
 7532 0900 0100     		.2byte	0x1
 7533 0902 54       		.byte	0x54
 7534 0903 76010000 		.4byte	.LVL158
 7535 0907 94010000 		.4byte	.LVL165
 7536 090b 0100     		.2byte	0x1
 7537 090d 54       		.byte	0x54
 7538 090e 00000000 		.4byte	0
 7539 0912 00000000 		.4byte	0
 7540              	.LLST50:
 7541 0916 0C010000 		.4byte	.LVL140
 7542 091a 11010000 		.4byte	.LVL141-1
 7543 091e 0100     		.2byte	0x1
 7544 0920 53       		.byte	0x53
 7545 0921 11010000 		.4byte	.LVL141-1
 7546 0925 94010000 		.4byte	.LVL165
 7547 0929 0300     		.2byte	0x3
 7548 092b 91       		.byte	0x91
 7549 092c B87F     		.sleb128 -72
 7550 092e 94010000 		.4byte	.LVL165
 7551 0932 98010000 		.4byte	.LFE72
 7552 0936 0300     		.2byte	0x3
 7553 0938 7D       		.byte	0x7d
 7554 0939 B87F     		.sleb128 -72
 7555 093b 00000000 		.4byte	0
 7556 093f 00000000 		.4byte	0
 7557              	.LLST51:
 7558 0943 12010000 		.4byte	.LVL141
 7559 0947 22010000 		.4byte	.LVL145
 7560 094b 0100     		.2byte	0x1
 7561 094d 50       		.byte	0x50
 7562 094e 22010000 		.4byte	.LVL145
 7563 0952 26010000 		.4byte	.LVL146
 7564 0956 0300     		.2byte	0x3
 7565 0958 91       		.byte	0x91
 7566 0959 B47F     		.sleb128 -76
 7567 095b 26010000 		.4byte	.LVL146
 7568 095f 2E010000 		.4byte	.LVL147
 7569 0963 0100     		.2byte	0x1
 7570 0965 50       		.byte	0x50
 7571 0966 2E010000 		.4byte	.LVL147
ARM GAS  C:\Users\haske\AppData\Local\Temp\ccHSLozV.s 			page 164


 7572 096a 8C010000 		.4byte	.LVL163
 7573 096e 0300     		.2byte	0x3
 7574 0970 91       		.byte	0x91
 7575 0971 B47F     		.sleb128 -76
 7576 0973 8C010000 		.4byte	.LVL163
 7577 0977 8E010000 		.4byte	.LVL164
 7578 097b 0100     		.2byte	0x1
 7579 097d 50       		.byte	0x50
 7580 097e 8E010000 		.4byte	.LVL164
 7581 0982 94010000 		.4byte	.LVL165
 7582 0986 0300     		.2byte	0x3
 7583 0988 91       		.byte	0x91
 7584 0989 B47F     		.sleb128 -76
 7585 098b 94010000 		.4byte	.LVL165
 7586 098f 98010000 		.4byte	.LFE72
 7587 0993 0300     		.2byte	0x3
 7588 0995 7D       		.byte	0x7d
 7589 0996 B47F     		.sleb128 -76
 7590 0998 00000000 		.4byte	0
 7591 099c 00000000 		.4byte	0
 7592              	.LLST52:
 7593 09a0 18010000 		.4byte	.LVL142
 7594 09a4 22010000 		.4byte	.LVL145
 7595 09a8 0200     		.2byte	0x2
 7596 09aa 30       		.byte	0x30
 7597 09ab 9F       		.byte	0x9f
 7598 09ac 22010000 		.4byte	.LVL145
 7599 09b0 26010000 		.4byte	.LVL146
 7600 09b4 0100     		.2byte	0x1
 7601 09b6 5B       		.byte	0x5b
 7602 09b7 26010000 		.4byte	.LVL146
 7603 09bb 42010000 		.4byte	.LVL150
 7604 09bf 0200     		.2byte	0x2
 7605 09c1 30       		.byte	0x30
 7606 09c2 9F       		.byte	0x9f
 7607 09c3 42010000 		.4byte	.LVL150
 7608 09c7 8C010000 		.4byte	.LVL163
 7609 09cb 0100     		.2byte	0x1
 7610 09cd 5B       		.byte	0x5b
 7611 09ce 00000000 		.4byte	0
 7612 09d2 00000000 		.4byte	0
 7613              	.LLST53:
 7614 09d6 1E010000 		.4byte	.LVL143
 7615 09da 20010000 		.4byte	.LVL144
 7616 09de 0100     		.2byte	0x1
 7617 09e0 53       		.byte	0x53
 7618 09e1 20010000 		.4byte	.LVL144
 7619 09e5 22010000 		.4byte	.LVL145
 7620 09e9 0200     		.2byte	0x2
 7621 09eb 77       		.byte	0x77
 7622 09ec 04       		.sleb128 4
 7623 09ed 00000000 		.4byte	0
 7624 09f1 00000000 		.4byte	0
 7625              	.LLST54:
 7626 09f5 50010000 		.4byte	.LVL152
 7627 09f9 64010000 		.4byte	.LVL153
 7628 09fd 0100     		.2byte	0x1
ARM GAS  C:\Users\haske\AppData\Local\Temp\ccHSLozV.s 			page 165


 7629 09ff 53       		.byte	0x53
 7630 0a00 64010000 		.4byte	.LVL153
 7631 0a04 66010000 		.4byte	.LVL154
 7632 0a08 0E00     		.2byte	0xe
 7633 0a0a 7B       		.byte	0x7b
 7634 0a0b 00       		.sleb128 0
 7635 0a0c 94       		.byte	0x94
 7636 0a0d 01       		.byte	0x1
 7637 0a0e 08       		.byte	0x8
 7638 0a0f FF       		.byte	0xff
 7639 0a10 1A       		.byte	0x1a
 7640 0a11 74       		.byte	0x74
 7641 0a12 00       		.sleb128 0
 7642 0a13 26       		.byte	0x26
 7643 0a14 78       		.byte	0x78
 7644 0a15 00       		.sleb128 0
 7645 0a16 1A       		.byte	0x1a
 7646 0a17 9F       		.byte	0x9f
 7647 0a18 00000000 		.4byte	0
 7648 0a1c 00000000 		.4byte	0
 7649              	.LLST55:
 7650 0a20 00000000 		.4byte	.LVL166
 7651 0a24 12000000 		.4byte	.LVL167
 7652 0a28 0100     		.2byte	0x1
 7653 0a2a 50       		.byte	0x50
 7654 0a2b 12000000 		.4byte	.LVL167
 7655 0a2f 5C010000 		.4byte	.LFE73
 7656 0a33 0100     		.2byte	0x1
 7657 0a35 5A       		.byte	0x5a
 7658 0a36 00000000 		.4byte	0
 7659 0a3a 00000000 		.4byte	0
 7660              	.LLST56:
 7661 0a3e 00000000 		.4byte	.LVL166
 7662 0a42 19000000 		.4byte	.LVL168-1
 7663 0a46 0100     		.2byte	0x1
 7664 0a48 51       		.byte	0x51
 7665 0a49 19000000 		.4byte	.LVL168-1
 7666 0a4d 5C010000 		.4byte	.LFE73
 7667 0a51 0400     		.2byte	0x4
 7668 0a53 F3       		.byte	0xf3
 7669 0a54 01       		.uleb128 0x1
 7670 0a55 51       		.byte	0x51
 7671 0a56 9F       		.byte	0x9f
 7672 0a57 00000000 		.4byte	0
 7673 0a5b 00000000 		.4byte	0
 7674              	.LLST57:
 7675 0a5f 00000000 		.4byte	.LVL166
 7676 0a63 19000000 		.4byte	.LVL168-1
 7677 0a67 0100     		.2byte	0x1
 7678 0a69 52       		.byte	0x52
 7679 0a6a 19000000 		.4byte	.LVL168-1
 7680 0a6e 5C010000 		.4byte	.LFE73
 7681 0a72 0400     		.2byte	0x4
 7682 0a74 F3       		.byte	0xf3
 7683 0a75 01       		.uleb128 0x1
 7684 0a76 52       		.byte	0x52
 7685 0a77 9F       		.byte	0x9f
ARM GAS  C:\Users\haske\AppData\Local\Temp\ccHSLozV.s 			page 166


 7686 0a78 00000000 		.4byte	0
 7687 0a7c 00000000 		.4byte	0
 7688              	.LLST58:
 7689 0a80 00000000 		.4byte	.LVL166
 7690 0a84 19000000 		.4byte	.LVL168-1
 7691 0a88 0100     		.2byte	0x1
 7692 0a8a 53       		.byte	0x53
 7693 0a8b 19000000 		.4byte	.LVL168-1
 7694 0a8f 5C010000 		.4byte	.LFE73
 7695 0a93 0400     		.2byte	0x4
 7696 0a95 F3       		.byte	0xf3
 7697 0a96 01       		.uleb128 0x1
 7698 0a97 53       		.byte	0x53
 7699 0a98 9F       		.byte	0x9f
 7700 0a99 00000000 		.4byte	0
 7701 0a9d 00000000 		.4byte	0
 7702              	.LLST59:
 7703 0aa1 1C000000 		.4byte	.LVL169
 7704 0aa5 42000000 		.4byte	.LVL171
 7705 0aa9 0100     		.2byte	0x1
 7706 0aab 50       		.byte	0x50
 7707 0aac 5A000000 		.4byte	.LVL176
 7708 0ab0 62000000 		.4byte	.LVL177
 7709 0ab4 0100     		.2byte	0x1
 7710 0ab6 50       		.byte	0x50
 7711 0ab7 7E000000 		.4byte	.LVL182
 7712 0abb 86000000 		.4byte	.LVL183
 7713 0abf 0100     		.2byte	0x1
 7714 0ac1 50       		.byte	0x50
 7715 0ac2 A0000000 		.4byte	.LVL187
 7716 0ac6 A4000000 		.4byte	.LVL188
 7717 0aca 0100     		.2byte	0x1
 7718 0acc 50       		.byte	0x50
 7719 0acd BA000000 		.4byte	.LVL192
 7720 0ad1 C2000000 		.4byte	.LVL193
 7721 0ad5 0100     		.2byte	0x1
 7722 0ad7 50       		.byte	0x50
 7723 0ad8 00000000 		.4byte	0
 7724 0adc 00000000 		.4byte	0
 7725              	.LLST60:
 7726 0ae0 24000000 		.4byte	.LVL170
 7727 0ae4 46000000 		.4byte	.LVL172
 7728 0ae8 0200     		.2byte	0x2
 7729 0aea 30       		.byte	0x30
 7730 0aeb 9F       		.byte	0x9f
 7731 0aec 46000000 		.4byte	.LVL172
 7732 0af0 5A000000 		.4byte	.LVL176
 7733 0af4 0100     		.2byte	0x1
 7734 0af6 50       		.byte	0x50
 7735 0af7 5A000000 		.4byte	.LVL176
 7736 0afb 66000000 		.4byte	.LVL178
 7737 0aff 0200     		.2byte	0x2
 7738 0b01 30       		.byte	0x30
 7739 0b02 9F       		.byte	0x9f
 7740 0b03 66000000 		.4byte	.LVL178
 7741 0b07 7E000000 		.4byte	.LVL182
 7742 0b0b 0100     		.2byte	0x1
ARM GAS  C:\Users\haske\AppData\Local\Temp\ccHSLozV.s 			page 167


 7743 0b0d 50       		.byte	0x50
 7744 0b0e 7E000000 		.4byte	.LVL182
 7745 0b12 8A000000 		.4byte	.LVL184
 7746 0b16 0200     		.2byte	0x2
 7747 0b18 30       		.byte	0x30
 7748 0b19 9F       		.byte	0x9f
 7749 0b1a 8A000000 		.4byte	.LVL184
 7750 0b1e A0000000 		.4byte	.LVL187
 7751 0b22 0100     		.2byte	0x1
 7752 0b24 50       		.byte	0x50
 7753 0b25 A0000000 		.4byte	.LVL187
 7754 0b29 AE000000 		.4byte	.LVL189
 7755 0b2d 0200     		.2byte	0x2
 7756 0b2f 30       		.byte	0x30
 7757 0b30 9F       		.byte	0x9f
 7758 0b31 AE000000 		.4byte	.LVL189
 7759 0b35 BA000000 		.4byte	.LVL192
 7760 0b39 0100     		.2byte	0x1
 7761 0b3b 50       		.byte	0x50
 7762 0b3c BA000000 		.4byte	.LVL192
 7763 0b40 C4000000 		.4byte	.LVL194
 7764 0b44 0200     		.2byte	0x2
 7765 0b46 30       		.byte	0x30
 7766 0b47 9F       		.byte	0x9f
 7767 0b48 C4000000 		.4byte	.LVL194
 7768 0b4c CF000000 		.4byte	.LVL197-1
 7769 0b50 0100     		.2byte	0x1
 7770 0b52 50       		.byte	0x50
 7771 0b53 00000000 		.4byte	0
 7772 0b57 00000000 		.4byte	0
 7773              	.LLST61:
 7774 0b5b 24000000 		.4byte	.LVL170
 7775 0b5f 58000000 		.4byte	.LVL175
 7776 0b63 0200     		.2byte	0x2
 7777 0b65 30       		.byte	0x30
 7778 0b66 9F       		.byte	0x9f
 7779 0b67 58000000 		.4byte	.LVL175
 7780 0b6b 5A000000 		.4byte	.LVL176
 7781 0b6f 0100     		.2byte	0x1
 7782 0b71 54       		.byte	0x54
 7783 0b72 5A000000 		.4byte	.LVL176
 7784 0b76 7C000000 		.4byte	.LVL181
 7785 0b7a 0200     		.2byte	0x2
 7786 0b7c 30       		.byte	0x30
 7787 0b7d 9F       		.byte	0x9f
 7788 0b7e 7C000000 		.4byte	.LVL181
 7789 0b82 7E000000 		.4byte	.LVL182
 7790 0b86 0100     		.2byte	0x1
 7791 0b88 54       		.byte	0x54
 7792 0b89 7E000000 		.4byte	.LVL182
 7793 0b8d C6000000 		.4byte	.LVL195
 7794 0b91 0200     		.2byte	0x2
 7795 0b93 30       		.byte	0x30
 7796 0b94 9F       		.byte	0x9f
 7797 0b95 C6000000 		.4byte	.LVL195
 7798 0b99 32010000 		.4byte	.LVL210
 7799 0b9d 0100     		.2byte	0x1
ARM GAS  C:\Users\haske\AppData\Local\Temp\ccHSLozV.s 			page 168


 7800 0b9f 54       		.byte	0x54
 7801 0ba0 34010000 		.4byte	.LVL211
 7802 0ba4 3C010000 		.4byte	.LVL212
 7803 0ba8 0100     		.2byte	0x1
 7804 0baa 54       		.byte	0x54
 7805 0bab 3E010000 		.4byte	.LVL213
 7806 0baf 5C010000 		.4byte	.LFE73
 7807 0bb3 0100     		.2byte	0x1
 7808 0bb5 54       		.byte	0x54
 7809 0bb6 00000000 		.4byte	0
 7810 0bba 00000000 		.4byte	0
 7811              	.LLST62:
 7812 0bbe 24000000 		.4byte	.LVL170
 7813 0bc2 4E000000 		.4byte	.LVL173
 7814 0bc6 0200     		.2byte	0x2
 7815 0bc8 30       		.byte	0x30
 7816 0bc9 9F       		.byte	0x9f
 7817 0bca 4E000000 		.4byte	.LVL173
 7818 0bce 5A000000 		.4byte	.LVL176
 7819 0bd2 0100     		.2byte	0x1
 7820 0bd4 5B       		.byte	0x5b
 7821 0bd5 5A000000 		.4byte	.LVL176
 7822 0bd9 6E000000 		.4byte	.LVL179
 7823 0bdd 0200     		.2byte	0x2
 7824 0bdf 30       		.byte	0x30
 7825 0be0 9F       		.byte	0x9f
 7826 0be1 6E000000 		.4byte	.LVL179
 7827 0be5 7E000000 		.4byte	.LVL182
 7828 0be9 0100     		.2byte	0x1
 7829 0beb 5B       		.byte	0x5b
 7830 0bec 7E000000 		.4byte	.LVL182
 7831 0bf0 92000000 		.4byte	.LVL185
 7832 0bf4 0200     		.2byte	0x2
 7833 0bf6 30       		.byte	0x30
 7834 0bf7 9F       		.byte	0x9f
 7835 0bf8 92000000 		.4byte	.LVL185
 7836 0bfc A0000000 		.4byte	.LVL187
 7837 0c00 0100     		.2byte	0x1
 7838 0c02 5B       		.byte	0x5b
 7839 0c03 A0000000 		.4byte	.LVL187
 7840 0c07 B2000000 		.4byte	.LVL190
 7841 0c0b 0200     		.2byte	0x2
 7842 0c0d 30       		.byte	0x30
 7843 0c0e 9F       		.byte	0x9f
 7844 0c0f B2000000 		.4byte	.LVL190
 7845 0c13 BA000000 		.4byte	.LVL192
 7846 0c17 0100     		.2byte	0x1
 7847 0c19 5B       		.byte	0x5b
 7848 0c1a BA000000 		.4byte	.LVL192
 7849 0c1e C4000000 		.4byte	.LVL194
 7850 0c22 0200     		.2byte	0x2
 7851 0c24 30       		.byte	0x30
 7852 0c25 9F       		.byte	0x9f
 7853 0c26 C4000000 		.4byte	.LVL194
 7854 0c2a E4000000 		.4byte	.LVL201
 7855 0c2e 0100     		.2byte	0x1
 7856 0c30 5B       		.byte	0x5b
ARM GAS  C:\Users\haske\AppData\Local\Temp\ccHSLozV.s 			page 169


 7857 0c31 E8000000 		.4byte	.LVL202
 7858 0c35 FC000000 		.4byte	.LVL205
 7859 0c39 0100     		.2byte	0x1
 7860 0c3b 5B       		.byte	0x5b
 7861 0c3c 54010000 		.4byte	.LVL218
 7862 0c40 56010000 		.4byte	.LVL219
 7863 0c44 0100     		.2byte	0x1
 7864 0c46 5B       		.byte	0x5b
 7865 0c47 00000000 		.4byte	0
 7866 0c4b 00000000 		.4byte	0
 7867              	.LLST63:
 7868 0c4f D0000000 		.4byte	.LVL197
 7869 0c53 E4000000 		.4byte	.LVL201
 7870 0c57 0100     		.2byte	0x1
 7871 0c59 50       		.byte	0x50
 7872 0c5a E4000000 		.4byte	.LVL201
 7873 0c5e E8000000 		.4byte	.LVL202
 7874 0c62 0200     		.2byte	0x2
 7875 0c64 7D       		.byte	0x7d
 7876 0c65 00       		.sleb128 0
 7877 0c66 E8000000 		.4byte	.LVL202
 7878 0c6a F0000000 		.4byte	.LVL203
 7879 0c6e 0100     		.2byte	0x1
 7880 0c70 50       		.byte	0x50
 7881 0c71 F0000000 		.4byte	.LVL203
 7882 0c75 54010000 		.4byte	.LVL218
 7883 0c79 0200     		.2byte	0x2
 7884 0c7b 7D       		.byte	0x7d
 7885 0c7c 00       		.sleb128 0
 7886 0c7d 54010000 		.4byte	.LVL218
 7887 0c81 56010000 		.4byte	.LVL219
 7888 0c85 0100     		.2byte	0x1
 7889 0c87 50       		.byte	0x50
 7890 0c88 56010000 		.4byte	.LVL219
 7891 0c8c 58010000 		.4byte	.LVL220
 7892 0c90 0200     		.2byte	0x2
 7893 0c92 7D       		.byte	0x7d
 7894 0c93 00       		.sleb128 0
 7895 0c94 58010000 		.4byte	.LVL220
 7896 0c98 5C010000 		.4byte	.LFE73
 7897 0c9c 0200     		.2byte	0x2
 7898 0c9e 91       		.byte	0x91
 7899 0c9f 50       		.sleb128 -48
 7900 0ca0 00000000 		.4byte	0
 7901 0ca4 00000000 		.4byte	0
 7902              	.LLST64:
 7903 0ca8 D6000000 		.4byte	.LVL198
 7904 0cac E4000000 		.4byte	.LVL201
 7905 0cb0 0200     		.2byte	0x2
 7906 0cb2 30       		.byte	0x30
 7907 0cb3 9F       		.byte	0x9f
 7908 0cb4 E4000000 		.4byte	.LVL201
 7909 0cb8 E8000000 		.4byte	.LVL202
 7910 0cbc 0100     		.2byte	0x1
 7911 0cbe 5B       		.byte	0x5b
 7912 0cbf E8000000 		.4byte	.LVL202
 7913 0cc3 04010000 		.4byte	.LVL206
ARM GAS  C:\Users\haske\AppData\Local\Temp\ccHSLozV.s 			page 170


 7914 0cc7 0200     		.2byte	0x2
 7915 0cc9 30       		.byte	0x30
 7916 0cca 9F       		.byte	0x9f
 7917 0ccb 04010000 		.4byte	.LVL206
 7918 0ccf 54010000 		.4byte	.LVL218
 7919 0cd3 0100     		.2byte	0x1
 7920 0cd5 5B       		.byte	0x5b
 7921 0cd6 00000000 		.4byte	0
 7922 0cda 00000000 		.4byte	0
 7923              	.LLST65:
 7924 0cde 06010000 		.4byte	.LVL207
 7925 0ce2 44010000 		.4byte	.LVL215
 7926 0ce6 0100     		.2byte	0x1
 7927 0ce8 51       		.byte	0x51
 7928 0ce9 46010000 		.4byte	.LVL216
 7929 0ced 4F010000 		.4byte	.LVL217-1
 7930 0cf1 0100     		.2byte	0x1
 7931 0cf3 51       		.byte	0x51
 7932 0cf4 00000000 		.4byte	0
 7933 0cf8 00000000 		.4byte	0
 7934              	.LLST66:
 7935 0cfc E0000000 		.4byte	.LVL199
 7936 0d00 E2000000 		.4byte	.LVL200
 7937 0d04 0100     		.2byte	0x1
 7938 0d06 53       		.byte	0x53
 7939 0d07 E2000000 		.4byte	.LVL200
 7940 0d0b E4000000 		.4byte	.LVL201
 7941 0d0f 0200     		.2byte	0x2
 7942 0d11 7A       		.byte	0x7a
 7943 0d12 04       		.sleb128 4
 7944 0d13 00000000 		.4byte	0
 7945 0d17 00000000 		.4byte	0
 7946              	.LLST67:
 7947 0d1b 10010000 		.4byte	.LVL208
 7948 0d1f 2C010000 		.4byte	.LVL209
 7949 0d23 0100     		.2byte	0x1
 7950 0d25 53       		.byte	0x53
 7951 0d26 00000000 		.4byte	0
 7952 0d2a 00000000 		.4byte	0
 7953              	.LLST68:
 7954 0d2e 00000000 		.4byte	.LVL221
 7955 0d32 06000000 		.4byte	.LVL222
 7956 0d36 0100     		.2byte	0x1
 7957 0d38 50       		.byte	0x50
 7958 0d39 06000000 		.4byte	.LVL222
 7959 0d3d 5C000000 		.4byte	.LFE69
 7960 0d41 0400     		.2byte	0x4
 7961 0d43 F3       		.byte	0xf3
 7962 0d44 01       		.uleb128 0x1
 7963 0d45 50       		.byte	0x50
 7964 0d46 9F       		.byte	0x9f
 7965 0d47 00000000 		.4byte	0
 7966 0d4b 00000000 		.4byte	0
 7967              	.LLST69:
 7968 0d4f 00000000 		.4byte	.LVL221
 7969 0d53 08000000 		.4byte	.LVL223
 7970 0d57 0100     		.2byte	0x1
ARM GAS  C:\Users\haske\AppData\Local\Temp\ccHSLozV.s 			page 171


 7971 0d59 51       		.byte	0x51
 7972 0d5a 08000000 		.4byte	.LVL223
 7973 0d5e 29000000 		.4byte	.LVL226-1
 7974 0d62 0100     		.2byte	0x1
 7975 0d64 50       		.byte	0x50
 7976 0d65 29000000 		.4byte	.LVL226-1
 7977 0d69 2C000000 		.4byte	.LVL227
 7978 0d6d 0400     		.2byte	0x4
 7979 0d6f F3       		.byte	0xf3
 7980 0d70 01       		.uleb128 0x1
 7981 0d71 51       		.byte	0x51
 7982 0d72 9F       		.byte	0x9f
 7983 0d73 2C000000 		.4byte	.LVL227
 7984 0d77 3D000000 		.4byte	.LVL228-1
 7985 0d7b 0100     		.2byte	0x1
 7986 0d7d 50       		.byte	0x50
 7987 0d7e 3D000000 		.4byte	.LVL228-1
 7988 0d82 40000000 		.4byte	.LVL229
 7989 0d86 0400     		.2byte	0x4
 7990 0d88 F3       		.byte	0xf3
 7991 0d89 01       		.uleb128 0x1
 7992 0d8a 51       		.byte	0x51
 7993 0d8b 9F       		.byte	0x9f
 7994 0d8c 40000000 		.4byte	.LVL229
 7995 0d90 4F000000 		.4byte	.LVL230-1
 7996 0d94 0100     		.2byte	0x1
 7997 0d96 50       		.byte	0x50
 7998 0d97 4F000000 		.4byte	.LVL230-1
 7999 0d9b 52000000 		.4byte	.LVL231
 8000 0d9f 0400     		.2byte	0x4
 8001 0da1 F3       		.byte	0xf3
 8002 0da2 01       		.uleb128 0x1
 8003 0da3 51       		.byte	0x51
 8004 0da4 9F       		.byte	0x9f
 8005 0da5 52000000 		.4byte	.LVL231
 8006 0da9 54000000 		.4byte	.LVL232
 8007 0dad 0100     		.2byte	0x1
 8008 0daf 50       		.byte	0x50
 8009 0db0 54000000 		.4byte	.LVL232
 8010 0db4 56000000 		.4byte	.LVL233
 8011 0db8 0400     		.2byte	0x4
 8012 0dba F3       		.byte	0xf3
 8013 0dbb 01       		.uleb128 0x1
 8014 0dbc 51       		.byte	0x51
 8015 0dbd 9F       		.byte	0x9f
 8016 0dbe 56000000 		.4byte	.LVL233
 8017 0dc2 58000000 		.4byte	.LVL234
 8018 0dc6 0100     		.2byte	0x1
 8019 0dc8 50       		.byte	0x50
 8020 0dc9 58000000 		.4byte	.LVL234
 8021 0dcd 5C000000 		.4byte	.LFE69
 8022 0dd1 0400     		.2byte	0x4
 8023 0dd3 F3       		.byte	0xf3
 8024 0dd4 01       		.uleb128 0x1
 8025 0dd5 51       		.byte	0x51
 8026 0dd6 9F       		.byte	0x9f
 8027 0dd7 00000000 		.4byte	0
ARM GAS  C:\Users\haske\AppData\Local\Temp\ccHSLozV.s 			page 172


 8028 0ddb 00000000 		.4byte	0
 8029              	.LLST70:
 8030 0ddf 00000000 		.4byte	.LVL221
 8031 0de3 0A000000 		.4byte	.LVL224
 8032 0de7 0100     		.2byte	0x1
 8033 0de9 52       		.byte	0x52
 8034 0dea 0A000000 		.4byte	.LVL224
 8035 0dee 5C000000 		.4byte	.LFE69
 8036 0df2 0400     		.2byte	0x4
 8037 0df4 F3       		.byte	0xf3
 8038 0df5 01       		.uleb128 0x1
 8039 0df6 52       		.byte	0x52
 8040 0df7 9F       		.byte	0x9f
 8041 0df8 00000000 		.4byte	0
 8042 0dfc 00000000 		.4byte	0
 8043              	.LLST71:
 8044 0e00 00000000 		.4byte	.LVL221
 8045 0e04 0E000000 		.4byte	.LVL225
 8046 0e08 0100     		.2byte	0x1
 8047 0e0a 53       		.byte	0x53
 8048 0e0b 0E000000 		.4byte	.LVL225
 8049 0e0f 5C000000 		.4byte	.LFE69
 8050 0e13 0400     		.2byte	0x4
 8051 0e15 F3       		.byte	0xf3
 8052 0e16 01       		.uleb128 0x1
 8053 0e17 53       		.byte	0x53
 8054 0e18 9F       		.byte	0x9f
 8055 0e19 00000000 		.4byte	0
 8056 0e1d 00000000 		.4byte	0
 8057              	.LLST72:
 8058 0e21 0E000000 		.4byte	.LVL225
 8059 0e25 2A000000 		.4byte	.LVL226
 8060 0e29 0200     		.2byte	0x2
 8061 0e2b 30       		.byte	0x30
 8062 0e2c 9F       		.byte	0x9f
 8063 0e2d 2A000000 		.4byte	.LVL226
 8064 0e31 2C000000 		.4byte	.LVL227
 8065 0e35 0100     		.2byte	0x1
 8066 0e37 50       		.byte	0x50
 8067 0e38 2C000000 		.4byte	.LVL227
 8068 0e3c 3E000000 		.4byte	.LVL228
 8069 0e40 0200     		.2byte	0x2
 8070 0e42 30       		.byte	0x30
 8071 0e43 9F       		.byte	0x9f
 8072 0e44 3E000000 		.4byte	.LVL228
 8073 0e48 40000000 		.4byte	.LVL229
 8074 0e4c 0100     		.2byte	0x1
 8075 0e4e 50       		.byte	0x50
 8076 0e4f 40000000 		.4byte	.LVL229
 8077 0e53 50000000 		.4byte	.LVL230
 8078 0e57 0200     		.2byte	0x2
 8079 0e59 30       		.byte	0x30
 8080 0e5a 9F       		.byte	0x9f
 8081 0e5b 50000000 		.4byte	.LVL230
 8082 0e5f 52000000 		.4byte	.LVL231
 8083 0e63 0100     		.2byte	0x1
 8084 0e65 50       		.byte	0x50
ARM GAS  C:\Users\haske\AppData\Local\Temp\ccHSLozV.s 			page 173


 8085 0e66 52000000 		.4byte	.LVL231
 8086 0e6a 58000000 		.4byte	.LVL234
 8087 0e6e 0200     		.2byte	0x2
 8088 0e70 30       		.byte	0x30
 8089 0e71 9F       		.byte	0x9f
 8090 0e72 00000000 		.4byte	0
 8091 0e76 00000000 		.4byte	0
 8092              	.LLST73:
 8093 0e7a 00000000 		.4byte	.LVL235
 8094 0e7e 0A000000 		.4byte	.LVL237
 8095 0e82 0100     		.2byte	0x1
 8096 0e84 50       		.byte	0x50
 8097 0e85 0A000000 		.4byte	.LVL237
 8098 0e89 56000000 		.4byte	.LVL256
 8099 0e8d 0100     		.2byte	0x1
 8100 0e8f 56       		.byte	0x56
 8101 0e90 56000000 		.4byte	.LVL256
 8102 0e94 5C000000 		.4byte	.LFE57
 8103 0e98 0400     		.2byte	0x4
 8104 0e9a F3       		.byte	0xf3
 8105 0e9b 01       		.uleb128 0x1
 8106 0e9c 50       		.byte	0x50
 8107 0e9d 9F       		.byte	0x9f
 8108 0e9e 00000000 		.4byte	0
 8109 0ea2 00000000 		.4byte	0
 8110              	.LLST74:
 8111 0ea6 00000000 		.4byte	.LVL235
 8112 0eaa 08000000 		.4byte	.LVL236
 8113 0eae 0100     		.2byte	0x1
 8114 0eb0 51       		.byte	0x51
 8115 0eb1 08000000 		.4byte	.LVL236
 8116 0eb5 56000000 		.4byte	.LVL256
 8117 0eb9 0100     		.2byte	0x1
 8118 0ebb 57       		.byte	0x57
 8119 0ebc 56000000 		.4byte	.LVL256
 8120 0ec0 5C000000 		.4byte	.LFE57
 8121 0ec4 0400     		.2byte	0x4
 8122 0ec6 F3       		.byte	0xf3
 8123 0ec7 01       		.uleb128 0x1
 8124 0ec8 51       		.byte	0x51
 8125 0ec9 9F       		.byte	0x9f
 8126 0eca 00000000 		.4byte	0
 8127 0ece 00000000 		.4byte	0
 8128              	.LLST75:
 8129 0ed2 16000000 		.4byte	.LVL239
 8130 0ed6 1E000000 		.4byte	.LVL242
 8131 0eda 0100     		.2byte	0x1
 8132 0edc 50       		.byte	0x50
 8133 0edd 50000000 		.4byte	.LVL253
 8134 0ee1 52000000 		.4byte	.LVL254
 8135 0ee5 0100     		.2byte	0x1
 8136 0ee7 50       		.byte	0x50
 8137 0ee8 00000000 		.4byte	0
 8138 0eec 00000000 		.4byte	0
 8139              	.LLST76:
 8140 0ef0 1C000000 		.4byte	.LVL241
 8141 0ef4 28000000 		.4byte	.LVL245
ARM GAS  C:\Users\haske\AppData\Local\Temp\ccHSLozV.s 			page 174


 8142 0ef8 0200     		.2byte	0x2
 8143 0efa 30       		.byte	0x30
 8144 0efb 9F       		.byte	0x9f
 8145 0efc 28000000 		.4byte	.LVL245
 8146 0f00 36000000 		.4byte	.LVL247
 8147 0f04 0100     		.2byte	0x1
 8148 0f06 55       		.byte	0x55
 8149 0f07 36000000 		.4byte	.LVL247
 8150 0f0b 3A000000 		.4byte	.LVL248
 8151 0f0f 0100     		.2byte	0x1
 8152 0f11 50       		.byte	0x50
 8153 0f12 3A000000 		.4byte	.LVL248
 8154 0f16 4C000000 		.4byte	.LVL252
 8155 0f1a 0100     		.2byte	0x1
 8156 0f1c 55       		.byte	0x55
 8157 0f1d 54000000 		.4byte	.LVL255
 8158 0f21 5C000000 		.4byte	.LFE57
 8159 0f25 0100     		.2byte	0x1
 8160 0f27 50       		.byte	0x50
 8161 0f28 00000000 		.4byte	0
 8162 0f2c 00000000 		.4byte	0
 8163              	.LLST77:
 8164 0f30 24000000 		.4byte	.LVL244
 8165 0f34 33000000 		.4byte	.LVL246-1
 8166 0f38 0100     		.2byte	0x1
 8167 0f3a 50       		.byte	0x50
 8168 0f3b 33000000 		.4byte	.LVL246-1
 8169 0f3f 44000000 		.4byte	.LVL250
 8170 0f43 0100     		.2byte	0x1
 8171 0f45 54       		.byte	0x54
 8172 0f46 44000000 		.4byte	.LVL250
 8173 0f4a 4A000000 		.4byte	.LVL251
 8174 0f4e 0100     		.2byte	0x1
 8175 0f50 50       		.byte	0x50
 8176 0f51 4A000000 		.4byte	.LVL251
 8177 0f55 4C000000 		.4byte	.LVL252
 8178 0f59 0100     		.2byte	0x1
 8179 0f5b 54       		.byte	0x54
 8180 0f5c 54000000 		.4byte	.LVL255
 8181 0f60 56000000 		.4byte	.LVL256
 8182 0f64 0100     		.2byte	0x1
 8183 0f66 54       		.byte	0x54
 8184 0f67 00000000 		.4byte	0
 8185 0f6b 00000000 		.4byte	0
 8186              	.LLST78:
 8187 0f6f 18000000 		.4byte	.LVL240
 8188 0f73 1C000000 		.4byte	.LVL241
 8189 0f77 0100     		.2byte	0x1
 8190 0f79 56       		.byte	0x56
 8191 0f7a 50000000 		.4byte	.LVL253
 8192 0f7e 54000000 		.4byte	.LVL255
 8193 0f82 0100     		.2byte	0x1
 8194 0f84 56       		.byte	0x56
 8195 0f85 00000000 		.4byte	0
 8196 0f89 00000000 		.4byte	0
 8197              	.LLST79:
 8198 0f8d 00000000 		.4byte	.LVL257
ARM GAS  C:\Users\haske\AppData\Local\Temp\ccHSLozV.s 			page 175


 8199 0f91 11000000 		.4byte	.LVL259-1
 8200 0f95 0100     		.2byte	0x1
 8201 0f97 50       		.byte	0x50
 8202 0f98 11000000 		.4byte	.LVL259-1
 8203 0f9c DA000000 		.4byte	.LVL293
 8204 0fa0 0100     		.2byte	0x1
 8205 0fa2 56       		.byte	0x56
 8206 0fa3 DA000000 		.4byte	.LVL293
 8207 0fa7 E0000000 		.4byte	.LFE58
 8208 0fab 0400     		.2byte	0x4
 8209 0fad F3       		.byte	0xf3
 8210 0fae 01       		.uleb128 0x1
 8211 0faf 50       		.byte	0x50
 8212 0fb0 9F       		.byte	0x9f
 8213 0fb1 00000000 		.4byte	0
 8214 0fb5 00000000 		.4byte	0
 8215              	.LLST80:
 8216 0fb9 00000000 		.4byte	.LVL257
 8217 0fbd 0E000000 		.4byte	.LVL258
 8218 0fc1 0100     		.2byte	0x1
 8219 0fc3 51       		.byte	0x51
 8220 0fc4 0E000000 		.4byte	.LVL258
 8221 0fc8 DA000000 		.4byte	.LVL293
 8222 0fcc 0100     		.2byte	0x1
 8223 0fce 58       		.byte	0x58
 8224 0fcf DA000000 		.4byte	.LVL293
 8225 0fd3 E0000000 		.4byte	.LFE58
 8226 0fd7 0400     		.2byte	0x4
 8227 0fd9 F3       		.byte	0xf3
 8228 0fda 01       		.uleb128 0x1
 8229 0fdb 51       		.byte	0x51
 8230 0fdc 9F       		.byte	0x9f
 8231 0fdd 00000000 		.4byte	0
 8232 0fe1 00000000 		.4byte	0
 8233              	.LLST81:
 8234 0fe5 00000000 		.4byte	.LVL257
 8235 0fe9 11000000 		.4byte	.LVL259-1
 8236 0fed 0100     		.2byte	0x1
 8237 0fef 52       		.byte	0x52
 8238 0ff0 2A000000 		.4byte	.LVL262
 8239 0ff4 60000000 		.4byte	.LVL272
 8240 0ff8 0100     		.2byte	0x1
 8241 0ffa 55       		.byte	0x55
 8242 0ffb CA000000 		.4byte	.LVL289
 8243 0fff D0000000 		.4byte	.LVL290
 8244 1003 0100     		.2byte	0x1
 8245 1005 55       		.byte	0x55
 8246 1006 00000000 		.4byte	0
 8247 100a 00000000 		.4byte	0
 8248              	.LLST82:
 8249 100e 00000000 		.4byte	.LVL257
 8250 1012 11000000 		.4byte	.LVL259-1
 8251 1016 0100     		.2byte	0x1
 8252 1018 53       		.byte	0x53
 8253 1019 11000000 		.4byte	.LVL259-1
 8254 101d 5E000000 		.4byte	.LVL271
 8255 1021 0100     		.2byte	0x1
ARM GAS  C:\Users\haske\AppData\Local\Temp\ccHSLozV.s 			page 176


 8256 1023 54       		.byte	0x54
 8257 1024 5E000000 		.4byte	.LVL271
 8258 1028 BE000000 		.4byte	.LVL286
 8259 102c 0400     		.2byte	0x4
 8260 102e F3       		.byte	0xf3
 8261 102f 01       		.uleb128 0x1
 8262 1030 53       		.byte	0x53
 8263 1031 9F       		.byte	0x9f
 8264 1032 BE000000 		.4byte	.LVL286
 8265 1036 D0000000 		.4byte	.LVL290
 8266 103a 0100     		.2byte	0x1
 8267 103c 54       		.byte	0x54
 8268 103d D0000000 		.4byte	.LVL290
 8269 1041 E0000000 		.4byte	.LFE58
 8270 1045 0400     		.2byte	0x4
 8271 1047 F3       		.byte	0xf3
 8272 1048 01       		.uleb128 0x1
 8273 1049 53       		.byte	0x53
 8274 104a 9F       		.byte	0x9f
 8275 104b 00000000 		.4byte	0
 8276 104f 00000000 		.4byte	0
 8277              	.LLST83:
 8278 1053 1E000000 		.4byte	.LVL260
 8279 1057 36000000 		.4byte	.LVL263
 8280 105b 0100     		.2byte	0x1
 8281 105d 50       		.byte	0x50
 8282 105e 52000000 		.4byte	.LVL268
 8283 1062 56000000 		.4byte	.LVL269
 8284 1066 0100     		.2byte	0x1
 8285 1068 50       		.byte	0x50
 8286 1069 C4000000 		.4byte	.LVL287
 8287 106d C6000000 		.4byte	.LVL288
 8288 1071 0100     		.2byte	0x1
 8289 1073 50       		.byte	0x50
 8290 1074 00000000 		.4byte	0
 8291 1078 00000000 		.4byte	0
 8292              	.LLST84:
 8293 107c 56000000 		.4byte	.LVL269
 8294 1080 62000000 		.4byte	.LVL273
 8295 1084 0200     		.2byte	0x2
 8296 1086 30       		.byte	0x30
 8297 1087 9F       		.byte	0x9f
 8298 1088 62000000 		.4byte	.LVL273
 8299 108c 78000000 		.4byte	.LVL275
 8300 1090 0100     		.2byte	0x1
 8301 1092 55       		.byte	0x55
 8302 1093 78000000 		.4byte	.LVL275
 8303 1097 84000000 		.4byte	.LVL276
 8304 109b 0100     		.2byte	0x1
 8305 109d 50       		.byte	0x50
 8306 109e 88000000 		.4byte	.LVL278
 8307 10a2 90000000 		.4byte	.LVL279
 8308 10a6 0100     		.2byte	0x1
 8309 10a8 50       		.byte	0x50
 8310 10a9 9E000000 		.4byte	.LVL281
 8311 10ad BE000000 		.4byte	.LVL286
 8312 10b1 0100     		.2byte	0x1
ARM GAS  C:\Users\haske\AppData\Local\Temp\ccHSLozV.s 			page 177


 8313 10b3 55       		.byte	0x55
 8314 10b4 D0000000 		.4byte	.LVL290
 8315 10b8 D4000000 		.4byte	.LVL291
 8316 10bc 0100     		.2byte	0x1
 8317 10be 50       		.byte	0x50
 8318 10bf D4000000 		.4byte	.LVL291
 8319 10c3 DA000000 		.4byte	.LVL293
 8320 10c7 0100     		.2byte	0x1
 8321 10c9 55       		.byte	0x55
 8322 10ca 00000000 		.4byte	0
 8323 10ce 00000000 		.4byte	0
 8324              	.LLST85:
 8325 10d2 5E000000 		.4byte	.LVL271
 8326 10d6 75000000 		.4byte	.LVL274-1
 8327 10da 0100     		.2byte	0x1
 8328 10dc 50       		.byte	0x50
 8329 10dd 75000000 		.4byte	.LVL274-1
 8330 10e1 A8000000 		.4byte	.LVL283
 8331 10e5 0100     		.2byte	0x1
 8332 10e7 54       		.byte	0x54
 8333 10e8 A8000000 		.4byte	.LVL283
 8334 10ec B4000000 		.4byte	.LVL284
 8335 10f0 0100     		.2byte	0x1
 8336 10f2 50       		.byte	0x50
 8337 10f3 B4000000 		.4byte	.LVL284
 8338 10f7 BE000000 		.4byte	.LVL286
 8339 10fb 0100     		.2byte	0x1
 8340 10fd 54       		.byte	0x54
 8341 10fe D0000000 		.4byte	.LVL290
 8342 1102 D4000000 		.4byte	.LVL291
 8343 1106 0100     		.2byte	0x1
 8344 1108 54       		.byte	0x54
 8345 1109 D4000000 		.4byte	.LVL291
 8346 110d D6000000 		.4byte	.LVL292
 8347 1111 0100     		.2byte	0x1
 8348 1113 50       		.byte	0x50
 8349 1114 D6000000 		.4byte	.LVL292
 8350 1118 DA000000 		.4byte	.LVL293
 8351 111c 0100     		.2byte	0x1
 8352 111e 54       		.byte	0x54
 8353 111f 00000000 		.4byte	0
 8354 1123 00000000 		.4byte	0
 8355              	.LLST86:
 8356 1127 22000000 		.4byte	.LVL261
 8357 112b 2A000000 		.4byte	.LVL262
 8358 112f 0100     		.2byte	0x1
 8359 1131 58       		.byte	0x58
 8360 1132 C4000000 		.4byte	.LVL287
 8361 1136 CA000000 		.4byte	.LVL289
 8362 113a 0100     		.2byte	0x1
 8363 113c 58       		.byte	0x58
 8364 113d 00000000 		.4byte	0
 8365 1141 00000000 		.4byte	0
 8366              	.LLST87:
 8367 1145 3A000000 		.4byte	.LVL264
 8368 1149 3C000000 		.4byte	.LVL265
 8369 114d 0100     		.2byte	0x1
ARM GAS  C:\Users\haske\AppData\Local\Temp\ccHSLozV.s 			page 178


 8370 114f 50       		.byte	0x50
 8371 1150 3C000000 		.4byte	.LVL265
 8372 1154 3F000000 		.4byte	.LVL266-1
 8373 1158 0300     		.2byte	0x3
 8374 115a 70       		.byte	0x70
 8375 115b 7F       		.sleb128 -1
 8376 115c 9F       		.byte	0x9f
 8377 115d 00000000 		.4byte	0
 8378 1161 00000000 		.4byte	0
 8379              	.LLST88:
 8380 1165 00000000 		.4byte	.LVL294
 8381 1169 14000000 		.4byte	.LVL299
 8382 116d 0100     		.2byte	0x1
 8383 116f 50       		.byte	0x50
 8384 1170 14000000 		.4byte	.LVL299
 8385 1174 1B000000 		.4byte	.LVL300-1
 8386 1178 0100     		.2byte	0x1
 8387 117a 51       		.byte	0x51
 8388 117b 1B000000 		.4byte	.LVL300-1
 8389 117f 1E000000 		.4byte	.LVL301
 8390 1183 0400     		.2byte	0x4
 8391 1185 F3       		.byte	0xf3
 8392 1186 01       		.uleb128 0x1
 8393 1187 50       		.byte	0x50
 8394 1188 9F       		.byte	0x9f
 8395 1189 1E000000 		.4byte	.LVL301
 8396 118d 20000000 		.4byte	.LVL302
 8397 1191 0100     		.2byte	0x1
 8398 1193 50       		.byte	0x50
 8399 1194 20000000 		.4byte	.LVL302
 8400 1198 24000000 		.4byte	.LFE59
 8401 119c 0400     		.2byte	0x4
 8402 119e F3       		.byte	0xf3
 8403 119f 01       		.uleb128 0x1
 8404 11a0 50       		.byte	0x50
 8405 11a1 9F       		.byte	0x9f
 8406 11a2 00000000 		.4byte	0
 8407 11a6 00000000 		.4byte	0
 8408              	.LLST89:
 8409 11aa 00000000 		.4byte	.LVL294
 8410 11ae 12000000 		.4byte	.LVL298
 8411 11b2 0100     		.2byte	0x1
 8412 11b4 51       		.byte	0x51
 8413 11b5 12000000 		.4byte	.LVL298
 8414 11b9 1E000000 		.4byte	.LVL301
 8415 11bd 0400     		.2byte	0x4
 8416 11bf F3       		.byte	0xf3
 8417 11c0 01       		.uleb128 0x1
 8418 11c1 51       		.byte	0x51
 8419 11c2 9F       		.byte	0x9f
 8420 11c3 1E000000 		.4byte	.LVL301
 8421 11c7 20000000 		.4byte	.LVL302
 8422 11cb 0100     		.2byte	0x1
 8423 11cd 51       		.byte	0x51
 8424 11ce 20000000 		.4byte	.LVL302
 8425 11d2 24000000 		.4byte	.LFE59
 8426 11d6 0400     		.2byte	0x4
ARM GAS  C:\Users\haske\AppData\Local\Temp\ccHSLozV.s 			page 179


 8427 11d8 F3       		.byte	0xf3
 8428 11d9 01       		.uleb128 0x1
 8429 11da 51       		.byte	0x51
 8430 11db 9F       		.byte	0x9f
 8431 11dc 00000000 		.4byte	0
 8432 11e0 00000000 		.4byte	0
 8433              	.LLST90:
 8434 11e4 00000000 		.4byte	.LVL294
 8435 11e8 10000000 		.4byte	.LVL297
 8436 11ec 0100     		.2byte	0x1
 8437 11ee 52       		.byte	0x52
 8438 11ef 10000000 		.4byte	.LVL297
 8439 11f3 1E000000 		.4byte	.LVL301
 8440 11f7 0400     		.2byte	0x4
 8441 11f9 F3       		.byte	0xf3
 8442 11fa 01       		.uleb128 0x1
 8443 11fb 52       		.byte	0x52
 8444 11fc 9F       		.byte	0x9f
 8445 11fd 1E000000 		.4byte	.LVL301
 8446 1201 20000000 		.4byte	.LVL302
 8447 1205 0100     		.2byte	0x1
 8448 1207 52       		.byte	0x52
 8449 1208 20000000 		.4byte	.LVL302
 8450 120c 24000000 		.4byte	.LFE59
 8451 1210 0400     		.2byte	0x4
 8452 1212 F3       		.byte	0xf3
 8453 1213 01       		.uleb128 0x1
 8454 1214 52       		.byte	0x52
 8455 1215 9F       		.byte	0x9f
 8456 1216 00000000 		.4byte	0
 8457 121a 00000000 		.4byte	0
 8458              	.LLST91:
 8459 121e 00000000 		.4byte	.LVL294
 8460 1222 0E000000 		.4byte	.LVL296
 8461 1226 0100     		.2byte	0x1
 8462 1228 53       		.byte	0x53
 8463 1229 0E000000 		.4byte	.LVL296
 8464 122d 1E000000 		.4byte	.LVL301
 8465 1231 0400     		.2byte	0x4
 8466 1233 F3       		.byte	0xf3
 8467 1234 01       		.uleb128 0x1
 8468 1235 53       		.byte	0x53
 8469 1236 9F       		.byte	0x9f
 8470 1237 1E000000 		.4byte	.LVL301
 8471 123b 20000000 		.4byte	.LVL302
 8472 123f 0100     		.2byte	0x1
 8473 1241 53       		.byte	0x53
 8474 1242 20000000 		.4byte	.LVL302
 8475 1246 24000000 		.4byte	.LFE59
 8476 124a 0400     		.2byte	0x4
 8477 124c F3       		.byte	0xf3
 8478 124d 01       		.uleb128 0x1
 8479 124e 53       		.byte	0x53
 8480 124f 9F       		.byte	0x9f
 8481 1250 00000000 		.4byte	0
 8482 1254 00000000 		.4byte	0
 8483              	.LLST92:
ARM GAS  C:\Users\haske\AppData\Local\Temp\ccHSLozV.s 			page 180


 8484 1258 04000000 		.4byte	.LVL295
 8485 125c 1C000000 		.4byte	.LVL300
 8486 1260 0200     		.2byte	0x2
 8487 1262 30       		.byte	0x30
 8488 1263 9F       		.byte	0x9f
 8489 1264 1C000000 		.4byte	.LVL300
 8490 1268 1E000000 		.4byte	.LVL301
 8491 126c 0100     		.2byte	0x1
 8492 126e 50       		.byte	0x50
 8493 126f 1E000000 		.4byte	.LVL301
 8494 1273 20000000 		.4byte	.LVL302
 8495 1277 0200     		.2byte	0x2
 8496 1279 30       		.byte	0x30
 8497 127a 9F       		.byte	0x9f
 8498 127b 20000000 		.4byte	.LVL302
 8499 127f 24000000 		.4byte	.LFE59
 8500 1283 0100     		.2byte	0x1
 8501 1285 50       		.byte	0x50
 8502 1286 00000000 		.4byte	0
 8503 128a 00000000 		.4byte	0
 8504              	.LLST93:
 8505 128e 00000000 		.4byte	.LVL303
 8506 1292 10000000 		.4byte	.LVL304
 8507 1296 0100     		.2byte	0x1
 8508 1298 50       		.byte	0x50
 8509 1299 10000000 		.4byte	.LVL304
 8510 129d 11000000 		.4byte	.LVL305-1
 8511 12a1 0100     		.2byte	0x1
 8512 12a3 51       		.byte	0x51
 8513 12a4 11000000 		.4byte	.LVL305-1
 8514 12a8 24000000 		.4byte	.LVL307
 8515 12ac 0100     		.2byte	0x1
 8516 12ae 54       		.byte	0x54
 8517 12af 24000000 		.4byte	.LVL307
 8518 12b3 26000000 		.4byte	.LFE60
 8519 12b7 0100     		.2byte	0x1
 8520 12b9 50       		.byte	0x50
 8521 12ba 00000000 		.4byte	0
 8522 12be 00000000 		.4byte	0
 8523              	.LLST94:
 8524 12c2 08000000 		.4byte	.LVL308
 8525 12c6 15000000 		.4byte	.LVL309-1
 8526 12ca 0100     		.2byte	0x1
 8527 12cc 50       		.byte	0x50
 8528 12cd 15000000 		.4byte	.LVL309-1
 8529 12d1 1A000000 		.4byte	.LVL310
 8530 12d5 0100     		.2byte	0x1
 8531 12d7 54       		.byte	0x54
 8532 12d8 1A000000 		.4byte	.LVL310
 8533 12dc 1C000000 		.4byte	.LVL311
 8534 12e0 0100     		.2byte	0x1
 8535 12e2 50       		.byte	0x50
 8536 12e3 1C000000 		.4byte	.LVL311
 8537 12e7 1E000000 		.4byte	.LVL312
 8538 12eb 0100     		.2byte	0x1
 8539 12ed 54       		.byte	0x54
 8540 12ee 00000000 		.4byte	0
ARM GAS  C:\Users\haske\AppData\Local\Temp\ccHSLozV.s 			page 181


 8541 12f2 00000000 		.4byte	0
 8542              	.LLST95:
 8543 12f6 00000000 		.4byte	.LVL313
 8544 12fa 08000000 		.4byte	.LVL314
 8545 12fe 0100     		.2byte	0x1
 8546 1300 50       		.byte	0x50
 8547 1301 08000000 		.4byte	.LVL314
 8548 1305 0B000000 		.4byte	.LVL315-1
 8549 1309 0100     		.2byte	0x1
 8550 130b 51       		.byte	0x51
 8551 130c 0B000000 		.4byte	.LVL315-1
 8552 1310 14000000 		.4byte	.LVL317
 8553 1314 0100     		.2byte	0x1
 8554 1316 54       		.byte	0x54
 8555 1317 14000000 		.4byte	.LVL317
 8556 131b 18000000 		.4byte	.LFE62
 8557 131f 0400     		.2byte	0x4
 8558 1321 F3       		.byte	0xf3
 8559 1322 01       		.uleb128 0x1
 8560 1323 50       		.byte	0x50
 8561 1324 9F       		.byte	0x9f
 8562 1325 00000000 		.4byte	0
 8563 1329 00000000 		.4byte	0
 8564              	.LLST96:
 8565 132d 0E000000 		.4byte	.LVL323
 8566 1331 1B000000 		.4byte	.LVL324-1
 8567 1335 0100     		.2byte	0x1
 8568 1337 50       		.byte	0x50
 8569 1338 1B000000 		.4byte	.LVL324-1
 8570 133c 36000000 		.4byte	.LVL328
 8571 1340 0100     		.2byte	0x1
 8572 1342 54       		.byte	0x54
 8573 1343 00000000 		.4byte	0
 8574 1347 00000000 		.4byte	0
 8575              		.section	.debug_aranges,"",%progbits
 8576 0000 A4000000 		.4byte	0xa4
 8577 0004 0200     		.2byte	0x2
 8578 0006 00000000 		.4byte	.Ldebug_info0
 8579 000a 04       		.byte	0x4
 8580 000b 00       		.byte	0
 8581 000c 0000     		.2byte	0
 8582 000e 0000     		.2byte	0
 8583 0010 00000000 		.4byte	.LFB67
 8584 0014 CC000000 		.4byte	.LFE67-.LFB67
 8585 0018 00000000 		.4byte	.LFB70
 8586 001c 30000000 		.4byte	.LFE70-.LFB70
 8587 0020 00000000 		.4byte	.LFB68
 8588 0024 C8010000 		.4byte	.LFE68-.LFB68
 8589 0028 00000000 		.4byte	.LFB71
 8590 002c 6E000000 		.4byte	.LFE71-.LFB71
 8591 0030 00000000 		.4byte	.LFB72
 8592 0034 98010000 		.4byte	.LFE72-.LFB72
 8593 0038 00000000 		.4byte	.LFB73
 8594 003c 5C010000 		.4byte	.LFE73-.LFB73
 8595 0040 00000000 		.4byte	.LFB69
 8596 0044 5C000000 		.4byte	.LFE69-.LFB69
 8597 0048 00000000 		.4byte	.LFB57
ARM GAS  C:\Users\haske\AppData\Local\Temp\ccHSLozV.s 			page 182


 8598 004c 5C000000 		.4byte	.LFE57-.LFB57
 8599 0050 00000000 		.4byte	.LFB58
 8600 0054 E0000000 		.4byte	.LFE58-.LFB58
 8601 0058 00000000 		.4byte	.LFB59
 8602 005c 24000000 		.4byte	.LFE59-.LFB59
 8603 0060 00000000 		.4byte	.LFB60
 8604 0064 26000000 		.4byte	.LFE60-.LFB60
 8605 0068 00000000 		.4byte	.LFB61
 8606 006c 24000000 		.4byte	.LFE61-.LFB61
 8607 0070 00000000 		.4byte	.LFB62
 8608 0074 18000000 		.4byte	.LFE62-.LFB62
 8609 0078 00000000 		.4byte	.LFB63
 8610 007c 04000000 		.4byte	.LFE63-.LFB63
 8611 0080 00000000 		.4byte	.LFB64
 8612 0084 04000000 		.4byte	.LFE64-.LFB64
 8613 0088 00000000 		.4byte	.LFB65
 8614 008c 04000000 		.4byte	.LFE65-.LFB65
 8615 0090 00000000 		.4byte	.LFB66
 8616 0094 04000000 		.4byte	.LFE66-.LFB66
 8617 0098 00000000 		.4byte	.LFB56
 8618 009c 4C000000 		.4byte	.LFE56-.LFB56
 8619 00a0 00000000 		.4byte	0
 8620 00a4 00000000 		.4byte	0
 8621              		.section	.debug_ranges,"",%progbits
 8622              	.Ldebug_ranges0:
 8623 0000 10000000 		.4byte	.LBB12
 8624 0004 44000000 		.4byte	.LBE12
 8625 0008 BC000000 		.4byte	.LBB16
 8626 000c C0000000 		.4byte	.LBE16
 8627 0010 00000000 		.4byte	0
 8628 0014 00000000 		.4byte	0
 8629 0018 4C000000 		.4byte	.LBB13
 8630 001c 94000000 		.4byte	.LBE13
 8631 0020 98000000 		.4byte	.LBB15
 8632 0024 9C000000 		.4byte	.LBE15
 8633 0028 00000000 		.4byte	0
 8634 002c 00000000 		.4byte	0
 8635 0030 4C000000 		.4byte	.LBB18
 8636 0034 4E000000 		.4byte	.LBE18
 8637 0038 52000000 		.4byte	.LBB21
 8638 003c 62000000 		.4byte	.LBE21
 8639 0040 00000000 		.4byte	0
 8640 0044 00000000 		.4byte	0
 8641 0048 A2000000 		.4byte	.LBB22
 8642 004c 9A010000 		.4byte	.LBE22
 8643 0050 B4010000 		.4byte	.LBB29
 8644 0054 B8010000 		.4byte	.LBE29
 8645 0058 00000000 		.4byte	0
 8646 005c 00000000 		.4byte	0
 8647 0060 22010000 		.4byte	.LBB31
 8648 0064 26010000 		.4byte	.LBE31
 8649 0068 44010000 		.4byte	.LBB32
 8650 006c 7A010000 		.4byte	.LBE32
 8651 0070 00000000 		.4byte	0
 8652 0074 00000000 		.4byte	0
 8653 0078 18000000 		.4byte	.LBB35
 8654 007c 1C000000 		.4byte	.LBE35
ARM GAS  C:\Users\haske\AppData\Local\Temp\ccHSLozV.s 			page 183


 8655 0080 50000000 		.4byte	.LBB36
 8656 0084 54000000 		.4byte	.LBE36
 8657 0088 00000000 		.4byte	0
 8658 008c 00000000 		.4byte	0
 8659 0090 22000000 		.4byte	.LBB37
 8660 0094 2A000000 		.4byte	.LBE37
 8661 0098 C4000000 		.4byte	.LBB39
 8662 009c CA000000 		.4byte	.LBE39
 8663 00a0 00000000 		.4byte	0
 8664 00a4 00000000 		.4byte	0
 8665 00a8 34000000 		.4byte	.LBB38
 8666 00ac 50000000 		.4byte	.LBE38
 8667 00b0 CA000000 		.4byte	.LBB40
 8668 00b4 D4000000 		.4byte	.LBE40
 8669 00b8 00000000 		.4byte	0
 8670 00bc 00000000 		.4byte	0
 8671 00c0 00000000 		.4byte	.LFB67
 8672 00c4 CC000000 		.4byte	.LFE67
 8673 00c8 00000000 		.4byte	.LFB70
 8674 00cc 30000000 		.4byte	.LFE70
 8675 00d0 00000000 		.4byte	.LFB68
 8676 00d4 C8010000 		.4byte	.LFE68
 8677 00d8 00000000 		.4byte	.LFB71
 8678 00dc 6E000000 		.4byte	.LFE71
 8679 00e0 00000000 		.4byte	.LFB72
 8680 00e4 98010000 		.4byte	.LFE72
 8681 00e8 00000000 		.4byte	.LFB73
 8682 00ec 5C010000 		.4byte	.LFE73
 8683 00f0 00000000 		.4byte	.LFB69
 8684 00f4 5C000000 		.4byte	.LFE69
 8685 00f8 00000000 		.4byte	.LFB57
 8686 00fc 5C000000 		.4byte	.LFE57
 8687 0100 00000000 		.4byte	.LFB58
 8688 0104 E0000000 		.4byte	.LFE58
 8689 0108 00000000 		.4byte	.LFB59
 8690 010c 24000000 		.4byte	.LFE59
 8691 0110 00000000 		.4byte	.LFB60
 8692 0114 26000000 		.4byte	.LFE60
 8693 0118 00000000 		.4byte	.LFB61
 8694 011c 24000000 		.4byte	.LFE61
 8695 0120 00000000 		.4byte	.LFB62
 8696 0124 18000000 		.4byte	.LFE62
 8697 0128 00000000 		.4byte	.LFB63
 8698 012c 04000000 		.4byte	.LFE63
 8699 0130 00000000 		.4byte	.LFB64
 8700 0134 04000000 		.4byte	.LFE64
 8701 0138 00000000 		.4byte	.LFB65
 8702 013c 04000000 		.4byte	.LFE65
 8703 0140 00000000 		.4byte	.LFB66
 8704 0144 04000000 		.4byte	.LFE66
 8705 0148 00000000 		.4byte	.LFB56
 8706 014c 4C000000 		.4byte	.LFE56
 8707 0150 00000000 		.4byte	0
 8708 0154 00000000 		.4byte	0
 8709              		.section	.debug_line,"",%progbits
 8710              	.Ldebug_line0:
 8711 0000 75070000 		.section	.debug_str,"MS",%progbits,1
ARM GAS  C:\Users\haske\AppData\Local\Temp\ccHSLozV.s 			page 184


 8711      0200BF03 
 8711      00000201 
 8711      FB0E0D00 
 8711      01010101 
 8712              	.LASF94:
 8713 0000 4C565F46 		.ascii	"LV_FS_RES_INV_PARAM\000"
 8713      535F5245 
 8713      535F494E 
 8713      565F5041 
 8713      52414D00 
 8714              	.LASF15:
 8715 0014 696E7438 		.ascii	"int8_t\000"
 8715      5F7400
 8716              	.LASF167:
 8717 001b 6C765F6C 		.ascii	"lv_ll_node_t\000"
 8717      6C5F6E6F 
 8717      64655F74 
 8717      00
 8718              	.LASF24:
 8719 0028 73697A65 		.ascii	"size_t\000"
 8719      5F7400
 8720              	.LASF150:
 8721 002f 6164765F 		.ascii	"adv_w\000"
 8721      7700
 8722              	.LASF26:
 8723 0035 73697A65 		.ascii	"sizetype\000"
 8723      74797065 
 8723      00
 8724              	.LASF119:
 8725 003e 73746172 		.ascii	"start\000"
 8725      7400
 8726              	.LASF210:
 8727 0044 5F6C765F 		.ascii	"_lv_img_decoder_ll\000"
 8727      696D675F 
 8727      6465636F 
 8727      6465725F 
 8727      6C6C00
 8728              	.LASF33:
 8729 0057 6C765F63 		.ascii	"lv_color32_t\000"
 8729      6F6C6F72 
 8729      33325F74 
 8729      00
 8730              	.LASF142:
 8731 0064 696D675F 		.ascii	"img_data\000"
 8731      64617461 
 8731      00
 8732              	.LASF170:
 8733 006d 7461696C 		.ascii	"tail\000"
 8733      00
 8734              	.LASF217:
 8735 0072 6C765F6D 		.ascii	"lv_mem_free\000"
 8735      656D5F66 
 8735      72656500 
 8736              	.LASF35:
 8737 007e 6C765F6F 		.ascii	"lv_opa_t\000"
 8737      70615F74 
 8737      00
ARM GAS  C:\Users\haske\AppData\Local\Temp\ccHSLozV.s 			page 185


 8738              	.LASF188:
 8739 0087 6F70615F 		.ascii	"opa_table\000"
 8739      7461626C 
 8739      6500
 8740              	.LASF19:
 8741 0091 696E7433 		.ascii	"int32_t\000"
 8741      325F7400 
 8742              	.LASF48:
 8743 0099 4C565F49 		.ascii	"LV_IMG_CF_ALPHA_1BIT\000"
 8743      4D475F43 
 8743      465F414C 
 8743      5048415F 
 8743      31424954 
 8744              	.LASF92:
 8745 00ae 4C565F46 		.ascii	"LV_FS_RES_NOT_IMP\000"
 8745      535F5245 
 8745      535F4E4F 
 8745      545F494D 
 8745      5000
 8746              	.LASF128:
 8747 00c0 4C565F49 		.ascii	"LV_IMG_SRC_SYMBOL\000"
 8747      4D475F53 
 8747      52435F53 
 8747      594D424F 
 8747      4C00
 8748              	.LASF138:
 8749 00d2 6465636F 		.ascii	"decoder\000"
 8749      64657200 
 8750              	.LASF206:
 8751 00da 6C765F69 		.ascii	"lv_img_decoder_set_read_line_cb\000"
 8751      6D675F64 
 8751      65636F64 
 8751      65725F73 
 8751      65745F72 
 8752              	.LASF78:
 8753 00fa 6C765F69 		.ascii	"lv_img_header_t\000"
 8753      6D675F68 
 8753      65616465 
 8753      725F7400 
 8754              	.LASF187:
 8755 010a 62675F63 		.ascii	"bg_color\000"
 8755      6F6C6F72 
 8755      00
 8756              	.LASF159:
 8757 0113 6C696E65 		.ascii	"line_height\000"
 8757      5F686569 
 8757      67687400 
 8758              	.LASF181:
 8759 011f 70616C65 		.ascii	"palette_p\000"
 8759      7474655F 
 8759      7000
 8760              	.LASF182:
 8761 0129 6C765F69 		.ascii	"lv_img_decoder_built_in_line_true_color\000"
 8761      6D675F64 
 8761      65636F64 
 8761      65725F62 
 8761      75696C74 
ARM GAS  C:\Users\haske\AppData\Local\Temp\ccHSLozV.s 			page 186


 8762              	.LASF87:
 8763 0151 4C565F46 		.ascii	"LV_FS_RES_FULL\000"
 8763      535F5245 
 8763      535F4655 
 8763      4C4C00
 8764              	.LASF113:
 8765 0160 6469725F 		.ascii	"dir_open_cb\000"
 8765      6F70656E 
 8765      5F636200 
 8766              	.LASF85:
 8767 016c 4C565F46 		.ascii	"LV_FS_RES_FS_ERR\000"
 8767      535F5245 
 8767      535F4653 
 8767      5F455252 
 8767      00
 8768              	.LASF44:
 8769 017d 4C565F49 		.ascii	"LV_IMG_CF_INDEXED_1BIT\000"
 8769      4D475F43 
 8769      465F494E 
 8769      44455845 
 8769      445F3142 
 8770              	.LASF21:
 8771 0194 4C565F52 		.ascii	"LV_RES_INV\000"
 8771      45535F49 
 8771      4E5600
 8772              	.LASF207:
 8773 019f 6C765F69 		.ascii	"lv_img_decoder_set_close_cb\000"
 8773      6D675F64 
 8773      65636F64 
 8773      65725F73 
 8773      65745F63 
 8774              	.LASF105:
 8775 01bb 63616368 		.ascii	"cache_size\000"
 8775      655F7369 
 8775      7A6500
 8776              	.LASF95:
 8777 01c6 4C565F46 		.ascii	"LV_FS_RES_UNKNOWN\000"
 8777      535F5245 
 8777      535F554E 
 8777      4B4E4F57 
 8777      4E00
 8778              	.LASF1:
 8779 01d8 5F5F7569 		.ascii	"__uint8_t\000"
 8779      6E74385F 
 8779      7400
 8780              	.LASF32:
 8781 01e2 616C7068 		.ascii	"alpha\000"
 8781      6100
 8782              	.LASF200:
 8783 01e8 6C765F69 		.ascii	"lv_img_decoder_built_in_close\000"
 8783      6D675F64 
 8783      65636F64 
 8783      65725F62 
 8783      75696C74 
 8784              	.LASF56:
 8785 0206 4C565F49 		.ascii	"LV_IMG_CF_RGBA5658\000"
 8785      4D475F43 
ARM GAS  C:\Users\haske\AppData\Local\Temp\ccHSLozV.s 			page 187


 8785      465F5247 
 8785      42413536 
 8785      353800
 8786              	.LASF9:
 8787 0219 6C6F6E67 		.ascii	"long int\000"
 8787      20696E74 
 8787      00
 8788              	.LASF111:
 8789 0222 7365656B 		.ascii	"seek_cb\000"
 8789      5F636200 
 8790              	.LASF147:
 8791 022a 6C765F69 		.ascii	"lv_img_decoder_t\000"
 8791      6D675F64 
 8791      65636F64 
 8791      65725F74 
 8791      00
 8792              	.LASF98:
 8793 023b 4C565F46 		.ascii	"LV_FS_MODE_RD\000"
 8793      535F4D4F 
 8793      44455F52 
 8793      4400
 8794              	.LASF53:
 8795 0249 4C565F49 		.ascii	"LV_IMG_CF_RGBA8888\000"
 8795      4D475F43 
 8795      465F5247 
 8795      42413838 
 8795      383800
 8796              	.LASF120:
 8797 025c 66696C65 		.ascii	"file_position\000"
 8797      5F706F73 
 8797      6974696F 
 8797      6E00
 8798              	.LASF108:
 8799 026a 636C6F73 		.ascii	"close_cb\000"
 8799      655F6362 
 8799      00
 8800              	.LASF169:
 8801 0273 68656164 		.ascii	"head\000"
 8801      00
 8802              	.LASF101:
 8803 0278 4C565F46 		.ascii	"LV_FS_SEEK_CUR\000"
 8803      535F5345 
 8803      454B5F43 
 8803      555200
 8804              	.LASF109:
 8805 0287 72656164 		.ascii	"read_cb\000"
 8805      5F636200 
 8806              	.LASF208:
 8807 028f 5F6C765F 		.ascii	"_lv_img_decoder_init\000"
 8807      696D675F 
 8807      6465636F 
 8807      6465725F 
 8807      696E6974 
 8808              	.LASF229:
 8809 02a4 5F6C765F 		.ascii	"_lv_ll_remove\000"
 8809      6C6C5F72 
 8809      656D6F76 
ARM GAS  C:\Users\haske\AppData\Local\Temp\ccHSLozV.s 			page 188


 8809      6500
 8810              	.LASF2:
 8811 02b2 7369676E 		.ascii	"signed char\000"
 8811      65642063 
 8811      68617200 
 8812              	.LASF16:
 8813 02be 75696E74 		.ascii	"uint8_t\000"
 8813      385F7400 
 8814              	.LASF107:
 8815 02c6 6F70656E 		.ascii	"open_cb\000"
 8815      5F636200 
 8816              	.LASF158:
 8817 02ce 6765745F 		.ascii	"get_glyph_bitmap\000"
 8817      676C7970 
 8817      685F6269 
 8817      746D6170 
 8817      00
 8818              	.LASF202:
 8819 02df 6C765F69 		.ascii	"lv_img_decoder_create\000"
 8819      6D675F64 
 8819      65636F64 
 8819      65725F63 
 8819      72656174 
 8820              	.LASF28:
 8821 02f5 626C7565 		.ascii	"blue\000"
 8821      00
 8822              	.LASF91:
 8823 02fa 4C565F46 		.ascii	"LV_FS_RES_TOUT\000"
 8823      535F5245 
 8823      535F544F 
 8823      555400
 8824              	.LASF3:
 8825 0309 756E7369 		.ascii	"unsigned char\000"
 8825      676E6564 
 8825      20636861 
 8825      7200
 8826              	.LASF143:
 8827 0317 74696D65 		.ascii	"time_to_open\000"
 8827      5F746F5F 
 8827      6F70656E 
 8827      00
 8828              	.LASF38:
 8829 0324 4C565F49 		.ascii	"LV_IMG_CF_RAW\000"
 8829      4D475F43 
 8829      465F5241 
 8829      5700
 8830              	.LASF230:
 8831 0332 5F6C765F 		.ascii	"_lv_ll_init\000"
 8831      6C6C5F69 
 8831      6E697400 
 8832              	.LASF213:
 8833 033e 6C765F66 		.ascii	"lv_fs_get_ext\000"
 8833      735F6765 
 8833      745F6578 
 8833      7400
 8834              	.LASF153:
 8835 034c 6F66735F 		.ascii	"ofs_x\000"
ARM GAS  C:\Users\haske\AppData\Local\Temp\ccHSLozV.s 			page 189


 8835      7800
 8836              	.LASF154:
 8837 0352 6F66735F 		.ascii	"ofs_y\000"
 8837      7900
 8838              	.LASF126:
 8839 0358 4C565F49 		.ascii	"LV_IMG_SRC_VARIABLE\000"
 8839      4D475F53 
 8839      52435F56 
 8839      41524941 
 8839      424C4500 
 8840              	.LASF79:
 8841 036c 68656164 		.ascii	"header\000"
 8841      657200
 8842              	.LASF117:
 8843 0373 5F426F6F 		.ascii	"_Bool\000"
 8843      6C00
 8844              	.LASF118:
 8845 0379 6C765F66 		.ascii	"lv_fs_drv_t\000"
 8845      735F6472 
 8845      765F7400 
 8846              	.LASF27:
 8847 0385 63686172 		.ascii	"char\000"
 8847      00
 8848              	.LASF162:
 8849 038a 756E6465 		.ascii	"underline_position\000"
 8849      726C696E 
 8849      655F706F 
 8849      73697469 
 8849      6F6E00
 8850              	.LASF201:
 8851 039d 6C765F69 		.ascii	"lv_img_decoder_close\000"
 8851      6D675F64 
 8851      65636F64 
 8851      65725F63 
 8851      6C6F7365 
 8852              	.LASF205:
 8853 03b2 6C765F69 		.ascii	"lv_img_decoder_set_open_cb\000"
 8853      6D675F64 
 8853      65636F64 
 8853      65725F73 
 8853      65745F6F 
 8854              	.LASF90:
 8855 03cd 4C565F46 		.ascii	"LV_FS_RES_BUSY\000"
 8855      535F5245 
 8855      535F4255 
 8855      535900
 8856              	.LASF6:
 8857 03dc 5F5F7569 		.ascii	"__uint16_t\000"
 8857      6E743136 
 8857      5F7400
 8858              	.LASF129:
 8859 03e7 4C565F49 		.ascii	"LV_IMG_SRC_UNKNOWN\000"
 8859      4D475F53 
 8859      52435F55 
 8859      4E4B4E4F 
 8859      574E00
 8860              	.LASF55:
ARM GAS  C:\Users\haske\AppData\Local\Temp\ccHSLozV.s 			page 190


 8861 03fa 4C565F49 		.ascii	"LV_IMG_CF_RGB565\000"
 8861      4D475F43 
 8861      465F5247 
 8861      42353635 
 8861      00
 8862              	.LASF214:
 8863 040b 73747263 		.ascii	"strcmp\000"
 8863      6D7000
 8864              	.LASF106:
 8865 0412 72656164 		.ascii	"ready_cb\000"
 8865      795F6362 
 8865      00
 8866              	.LASF97:
 8867 041b 4C565F46 		.ascii	"LV_FS_MODE_WR\000"
 8867      535F4D4F 
 8867      44455F57 
 8867      5200
 8868              	.LASF164:
 8869 0429 66616C6C 		.ascii	"fallback\000"
 8869      6261636B 
 8869      00
 8870              	.LASF102:
 8871 0432 4C565F46 		.ascii	"LV_FS_SEEK_END\000"
 8871      535F5345 
 8871      454B5F45 
 8871      4E4400
 8872              	.LASF121:
 8873 0441 62756666 		.ascii	"buffer\000"
 8873      657200
 8874              	.LASF228:
 8875 0448 5F6C765F 		.ascii	"_lv_ll_ins_head\000"
 8875      6C6C5F69 
 8875      6E735F68 
 8875      65616400 
 8876              	.LASF58:
 8877 0458 4C565F49 		.ascii	"LV_IMG_CF_RESERVED_15\000"
 8877      4D475F43 
 8877      465F5245 
 8877      53455256 
 8877      45445F31 
 8878              	.LASF59:
 8879 046e 4C565F49 		.ascii	"LV_IMG_CF_RESERVED_16\000"
 8879      4D475F43 
 8879      465F5245 
 8879      53455256 
 8879      45445F31 
 8880              	.LASF60:
 8881 0484 4C565F49 		.ascii	"LV_IMG_CF_RESERVED_17\000"
 8881      4D475F43 
 8881      465F5245 
 8881      53455256 
 8881      45445F31 
 8882              	.LASF61:
 8883 049a 4C565F49 		.ascii	"LV_IMG_CF_RESERVED_18\000"
 8883      4D475F43 
 8883      465F5245 
 8883      53455256 
ARM GAS  C:\Users\haske\AppData\Local\Temp\ccHSLozV.s 			page 191


 8883      45445F31 
 8884              	.LASF62:
 8885 04b0 4C565F49 		.ascii	"LV_IMG_CF_RESERVED_19\000"
 8885      4D475F43 
 8885      465F5245 
 8885      53455256 
 8885      45445F31 
 8886              	.LASF103:
 8887 04c6 6C765F66 		.ascii	"lv_fs_whence_t\000"
 8887      735F7768 
 8887      656E6365 
 8887      5F7400
 8888              	.LASF173:
 8889 04d5 6C765F69 		.ascii	"lv_img_decoder_built_in_data_t\000"
 8889      6D675F64 
 8889      65636F64 
 8889      65725F62 
 8889      75696C74 
 8890              	.LASF184:
 8891 04f4 616C7068 		.ascii	"alpha1_opa_table\000"
 8891      61315F6F 
 8891      70615F74 
 8891      61626C65 
 8891      00
 8892              	.LASF178:
 8893 0505 70785F73 		.ascii	"px_size\000"
 8893      697A6500 
 8894              	.LASF192:
 8895 050d 696D675F 		.ascii	"img_dsc\000"
 8895      64736300 
 8896              	.LASF63:
 8897 0515 4C565F49 		.ascii	"LV_IMG_CF_RESERVED_20\000"
 8897      4D475F43 
 8897      465F5245 
 8897      53455256 
 8897      45445F32 
 8898              	.LASF64:
 8899 052b 4C565F49 		.ascii	"LV_IMG_CF_RESERVED_21\000"
 8899      4D475F43 
 8899      465F5245 
 8899      53455256 
 8899      45445F32 
 8900              	.LASF65:
 8901 0541 4C565F49 		.ascii	"LV_IMG_CF_RESERVED_22\000"
 8901      4D475F43 
 8901      465F5245 
 8901      53455256 
 8901      45445F32 
 8902              	.LASF66:
 8903 0557 4C565F49 		.ascii	"LV_IMG_CF_RESERVED_23\000"
 8903      4D475F43 
 8903      465F5245 
 8903      53455256 
 8903      45445F32 
 8904              	.LASF11:
 8905 056d 6C6F6E67 		.ascii	"long unsigned int\000"
 8905      20756E73 
ARM GAS  C:\Users\haske\AppData\Local\Temp\ccHSLozV.s 			page 192


 8905      69676E65 
 8905      6420696E 
 8905      7400
 8906              	.LASF75:
 8907 057f 6C765F69 		.ascii	"lv_img_cf_t\000"
 8907      6D675F63 
 8907      665F7400 
 8908              	.LASF227:
 8909 058b 73747263 		.ascii	"strcpy\000"
 8909      707900
 8910              	.LASF204:
 8911 0592 6C765F69 		.ascii	"lv_img_decoder_set_info_cb\000"
 8911      6D675F64 
 8911      65636F64 
 8911      65725F73 
 8911      65745F69 
 8912              	.LASF149:
 8913 05ad 7265736F 		.ascii	"resolved_font\000"
 8913      6C766564 
 8913      5F666F6E 
 8913      7400
 8914              	.LASF223:
 8915 05bb 6C765F6D 		.ascii	"lv_mem_buf_release\000"
 8915      656D5F62 
 8915      75665F72 
 8915      656C6561 
 8915      736500
 8916              	.LASF231:
 8917 05ce 474E5520 		.ascii	"GNU C11 5.4.1 20160609 (release) [ARM/embedded-5-br"
 8917      43313120 
 8917      352E342E 
 8917      31203230 
 8917      31363036 
 8918 0601 616E6368 		.ascii	"anch revision 237715] -mcpu=cortex-m4 -mfloat-abi=s"
 8918      20726576 
 8918      6973696F 
 8918      6E203233 
 8918      37373135 
 8919 0634 6F667466 		.ascii	"oftfp -mfpu=fpv4-sp-d16 -mthumb -g -Og -ffunction-s"
 8919      70202D6D 
 8919      6670753D 
 8919      66707634 
 8919      2D73702D 
 8920 0667 65637469 		.ascii	"ections -ffat-lto-objects\000"
 8920      6F6E7320 
 8920      2D666661 
 8920      742D6C74 
 8920      6F2D6F62 
 8921              	.LASF80:
 8922 0681 64617461 		.ascii	"data_size\000"
 8922      5F73697A 
 8922      6500
 8923              	.LASF132:
 8924 068b 5F6C765F 		.ascii	"_lv_fs_drv_t\000"
 8924      66735F64 
 8924      72765F74 
 8924      00
ARM GAS  C:\Users\haske\AppData\Local\Temp\ccHSLozV.s 			page 193


 8925              	.LASF198:
 8926 0698 666E6C65 		.ascii	"fnlen\000"
 8926      6E00
 8927              	.LASF89:
 8928 069e 4C565F46 		.ascii	"LV_FS_RES_DENIED\000"
 8928      535F5245 
 8928      535F4445 
 8928      4E494544 
 8928      00
 8929              	.LASF195:
 8930 06af 6C765F69 		.ascii	"lv_img_decoder_built_in_read_line\000"
 8930      6D675F64 
 8930      65636F64 
 8930      65725F62 
 8930      75696C74 
 8931              	.LASF137:
 8932 06d1 5F6C765F 		.ascii	"_lv_img_decoder_dsc_t\000"
 8932      696D675F 
 8932      6465636F 
 8932      6465725F 
 8932      6473635F 
 8933              	.LASF144:
 8934 06e7 6572726F 		.ascii	"error_msg\000"
 8934      725F6D73 
 8934      6700
 8935              	.LASF156:
 8936 06f1 5F6C765F 		.ascii	"_lv_font_t\000"
 8936      666F6E74 
 8936      5F7400
 8937              	.LASF10:
 8938 06fc 5F5F7569 		.ascii	"__uint32_t\000"
 8938      6E743332 
 8938      5F7400
 8939              	.LASF12:
 8940 0707 6C6F6E67 		.ascii	"long long int\000"
 8940      206C6F6E 
 8940      6720696E 
 8940      7400
 8941              	.LASF203:
 8942 0715 6C765F69 		.ascii	"lv_img_decoder_delete\000"
 8942      6D675F64 
 8942      65636F64 
 8942      65725F64 
 8942      656C6574 
 8943              	.LASF99:
 8944 072b 6C765F66 		.ascii	"lv_fs_mode_t\000"
 8944      735F6D6F 
 8944      64655F74 
 8944      00
 8945              	.LASF86:
 8946 0738 4C565F46 		.ascii	"LV_FS_RES_NOT_EX\000"
 8946      535F5245 
 8946      535F4E4F 
 8946      545F4558 
 8946      00
 8947              	.LASF189:
 8948 0749 6D61736B 		.ascii	"mask\000"
ARM GAS  C:\Users\haske\AppData\Local\Temp\ccHSLozV.s 			page 194


 8948      00
 8949              	.LASF199:
 8950 074e 6C765F69 		.ascii	"lv_img_decoder_read_line\000"
 8950      6D675F64 
 8950      65636F64 
 8950      65725F72 
 8950      6561645F 
 8951              	.LASF163:
 8952 0767 756E6465 		.ascii	"underline_thickness\000"
 8952      726C696E 
 8952      655F7468 
 8952      69636B6E 
 8952      65737300 
 8953              	.LASF125:
 8954 077b 6C765F66 		.ascii	"lv_fs_file_t\000"
 8954      735F6669 
 8954      6C655F74 
 8954      00
 8955              	.LASF49:
 8956 0788 4C565F49 		.ascii	"LV_IMG_CF_ALPHA_2BIT\000"
 8956      4D475F43 
 8956      465F414C 
 8956      5048415F 
 8956      32424954 
 8957              	.LASF50:
 8958 079d 4C565F49 		.ascii	"LV_IMG_CF_ALPHA_4BIT\000"
 8958      4D475F43 
 8958      465F414C 
 8958      5048415F 
 8958      34424954 
 8959              	.LASF115:
 8960 07b2 6469725F 		.ascii	"dir_close_cb\000"
 8960      636C6F73 
 8960      655F6362 
 8960      00
 8961              	.LASF14:
 8962 07bf 756E7369 		.ascii	"unsigned int\000"
 8962      676E6564 
 8962      20696E74 
 8962      00
 8963              	.LASF180:
 8964 07cc 6375725F 		.ascii	"cur_color\000"
 8964      636F6C6F 
 8964      7200
 8965              	.LASF42:
 8966 07d6 4C565F49 		.ascii	"LV_IMG_CF_TRUE_COLOR_ALPHA\000"
 8966      4D475F43 
 8966      465F5452 
 8966      55455F43 
 8966      4F4C4F52 
 8967              	.LASF221:
 8968 07f1 6C765F69 		.ascii	"lv_img_cf_get_px_size\000"
 8968      6D675F63 
 8968      665F6765 
 8968      745F7078 
 8968      5F73697A 
 8969              	.LASF133:
ARM GAS  C:\Users\haske\AppData\Local\Temp\ccHSLozV.s 			page 195


 8970 0807 5F6C765F 		.ascii	"_lv_img_decoder_t\000"
 8970      696D675F 
 8970      6465636F 
 8970      6465725F 
 8970      7400
 8971              	.LASF51:
 8972 0819 4C565F49 		.ascii	"LV_IMG_CF_ALPHA_8BIT\000"
 8972      4D475F43 
 8972      465F414C 
 8972      5048415F 
 8972      38424954 
 8973              	.LASF222:
 8974 082e 6C765F6D 		.ascii	"lv_mem_buf_get\000"
 8974      656D5F62 
 8974      75665F67 
 8974      657400
 8975              	.LASF220:
 8976 083d 6C765F66 		.ascii	"lv_fs_seek\000"
 8976      735F7365 
 8976      656B00
 8977              	.LASF176:
 8978 0848 6C765F69 		.ascii	"lv_img_decoder_built_in_info\000"
 8978      6D675F64 
 8978      65636F64 
 8978      65725F62 
 8978      75696C74 
 8979              	.LASF45:
 8980 0865 4C565F49 		.ascii	"LV_IMG_CF_INDEXED_2BIT\000"
 8980      4D475F43 
 8980      465F494E 
 8980      44455845 
 8980      445F3242 
 8981              	.LASF148:
 8982 087c 6C765F69 		.ascii	"lv_img_decoder_dsc_t\000"
 8982      6D675F64 
 8982      65636F64 
 8982      65725F64 
 8982      73635F74 
 8983              	.LASF46:
 8984 0891 4C565F49 		.ascii	"LV_IMG_CF_INDEXED_4BIT\000"
 8984      4D475F43 
 8984      465F494E 
 8984      44455845 
 8984      445F3442 
 8985              	.LASF83:
 8986 08a8 4C565F46 		.ascii	"LV_FS_RES_OK\000"
 8986      535F5245 
 8986      535F4F4B 
 8986      00
 8987              	.LASF140:
 8988 08b5 6672616D 		.ascii	"frame_id\000"
 8988      655F6964 
 8988      00
 8989              	.LASF54:
 8990 08be 4C565F49 		.ascii	"LV_IMG_CF_RGBX8888\000"
 8990      4D475F43 
 8990      465F5247 
ARM GAS  C:\Users\haske\AppData\Local\Temp\ccHSLozV.s 			page 196


 8990      42583838 
 8990      383800
 8991              	.LASF165:
 8992 08d1 6C765F66 		.ascii	"lv_font_glyph_dsc_t\000"
 8992      6F6E745F 
 8992      676C7970 
 8992      685F6473 
 8992      635F7400 
 8993              	.LASF47:
 8994 08e5 4C565F49 		.ascii	"LV_IMG_CF_INDEXED_8BIT\000"
 8994      4D475F43 
 8994      465F494E 
 8994      44455845 
 8994      445F3842 
 8995              	.LASF40:
 8996 08fc 4C565F49 		.ascii	"LV_IMG_CF_RAW_CHROMA_KEYED\000"
 8996      4D475F43 
 8996      465F5241 
 8996      575F4348 
 8996      524F4D41 
 8997              	.LASF43:
 8998 0917 4C565F49 		.ascii	"LV_IMG_CF_TRUE_COLOR_CHROMA_KEYED\000"
 8998      4D475F43 
 8998      465F5452 
 8998      55455F43 
 8998      4F4C4F52 
 8999              	.LASF112:
 9000 0939 74656C6C 		.ascii	"tell_cb\000"
 9000      5F636200 
 9001              	.LASF212:
 9002 0941 6C765F66 		.ascii	"lv_fs_close\000"
 9002      735F636C 
 9002      6F736500 
 9003              	.LASF123:
 9004 094d 66696C65 		.ascii	"file_d\000"
 9004      5F6400
 9005              	.LASF190:
 9006 0954 66735F62 		.ascii	"fs_buf\000"
 9006      756600
 9007              	.LASF67:
 9008 095b 4C565F49 		.ascii	"LV_IMG_CF_USER_ENCODED_0\000"
 9008      4D475F43 
 9008      465F5553 
 9008      45525F45 
 9008      4E434F44 
 9009              	.LASF68:
 9010 0974 4C565F49 		.ascii	"LV_IMG_CF_USER_ENCODED_1\000"
 9010      4D475F43 
 9010      465F5553 
 9010      45525F45 
 9010      4E434F44 
 9011              	.LASF69:
 9012 098d 4C565F49 		.ascii	"LV_IMG_CF_USER_ENCODED_2\000"
 9012      4D475F43 
 9012      465F5553 
 9012      45525F45 
 9012      4E434F44 
ARM GAS  C:\Users\haske\AppData\Local\Temp\ccHSLozV.s 			page 197


 9013              	.LASF70:
 9014 09a6 4C565F49 		.ascii	"LV_IMG_CF_USER_ENCODED_3\000"
 9014      4D475F43 
 9014      465F5553 
 9014      45525F45 
 9014      4E434F44 
 9015              	.LASF71:
 9016 09bf 4C565F49 		.ascii	"LV_IMG_CF_USER_ENCODED_4\000"
 9016      4D475F43 
 9016      465F5553 
 9016      45525F45 
 9016      4E434F44 
 9017              	.LASF72:
 9018 09d8 4C565F49 		.ascii	"LV_IMG_CF_USER_ENCODED_5\000"
 9018      4D475F43 
 9018      465F5553 
 9018      45525F45 
 9018      4E434F44 
 9019              	.LASF73:
 9020 09f1 4C565F49 		.ascii	"LV_IMG_CF_USER_ENCODED_6\000"
 9020      4D475F43 
 9020      465F5553 
 9020      45525F45 
 9020      4E434F44 
 9021              	.LASF74:
 9022 0a0a 4C565F49 		.ascii	"LV_IMG_CF_USER_ENCODED_7\000"
 9022      4D475F43 
 9022      465F5553 
 9022      45525F45 
 9022      4E434F44 
 9023              	.LASF23:
 9024 0a23 6C765F72 		.ascii	"lv_res_t\000"
 9024      65735F74 
 9024      00
 9025              	.LASF124:
 9026 0a2c 63616368 		.ascii	"cache\000"
 9026      6500
 9027              	.LASF186:
 9028 0a32 616C7068 		.ascii	"alpha4_opa_table\000"
 9028      61345F6F 
 9028      70615F74 
 9028      61626C65 
 9028      00
 9029              	.LASF25:
 9030 0a43 6C6F6E67 		.ascii	"long double\000"
 9030      20646F75 
 9030      626C6500 
 9031              	.LASF122:
 9032 0a4f 6C765F66 		.ascii	"lv_fs_file_cache_t\000"
 9032      735F6669 
 9032      6C655F63 
 9032      61636865 
 9032      5F7400
 9033              	.LASF172:
 9034 0a62 70616C65 		.ascii	"palette\000"
 9034      74746500 
 9035              	.LASF161:
ARM GAS  C:\Users\haske\AppData\Local\Temp\ccHSLozV.s 			page 198


 9036 0a6a 73756270 		.ascii	"subpx\000"
 9036      7800
 9037              	.LASF174:
 9038 0a70 6C765F6D 		.ascii	"lv_memcpy_small\000"
 9038      656D6370 
 9038      795F736D 
 9038      616C6C00 
 9039              	.LASF88:
 9040 0a80 4C565F46 		.ascii	"LV_FS_RES_LOCKED\000"
 9040      535F5245 
 9040      535F4C4F 
 9040      434B4544 
 9040      00
 9041              	.LASF110:
 9042 0a91 77726974 		.ascii	"write_cb\000"
 9042      655F6362 
 9042      00
 9043              	.LASF145:
 9044 0a9a 6C765F69 		.ascii	"lv_img_decoder_read_line_f_t\000"
 9044      6D675F64 
 9044      65636F64 
 9044      65725F72 
 9044      6561645F 
 9045              	.LASF0:
 9046 0ab7 5F5F696E 		.ascii	"__int8_t\000"
 9046      74385F74 
 9046      00
 9047              	.LASF185:
 9048 0ac0 616C7068 		.ascii	"alpha2_opa_table\000"
 9048      61325F6F 
 9048      70615F74 
 9048      61626C65 
 9048      00
 9049              	.LASF84:
 9050 0ad1 4C565F46 		.ascii	"LV_FS_RES_HW_ERR\000"
 9050      535F5245 
 9050      535F4857 
 9050      5F455252 
 9050      00
 9051              	.LASF13:
 9052 0ae2 6C6F6E67 		.ascii	"long long unsigned int\000"
 9052      206C6F6E 
 9052      6720756E 
 9052      7369676E 
 9052      65642069 
 9053              	.LASF18:
 9054 0af9 75696E74 		.ascii	"uint16_t\000"
 9054      31365F74 
 9054      00
 9055              	.LASF22:
 9056 0b02 4C565F52 		.ascii	"LV_RES_OK\000"
 9056      45535F4F 
 9056      4B00
 9057              	.LASF179:
 9058 0b0c 70616C65 		.ascii	"palette_size\000"
 9058      7474655F 
 9058      73697A65 
ARM GAS  C:\Users\haske\AppData\Local\Temp\ccHSLozV.s 			page 199


 9058      00
 9059              	.LASF57:
 9060 0b19 4C565F49 		.ascii	"LV_IMG_CF_RGB565A8\000"
 9060      4D475F43 
 9060      465F5247 
 9060      42353635 
 9060      413800
 9061              	.LASF134:
 9062 0b2c 696E666F 		.ascii	"info_cb\000"
 9062      5F636200 
 9063              	.LASF34:
 9064 0b34 6C765F63 		.ascii	"lv_color_t\000"
 9064      6F6C6F72 
 9064      5F7400
 9065              	.LASF37:
 9066 0b3f 4C565F49 		.ascii	"LV_IMG_CF_UNKNOWN\000"
 9066      4D475F43 
 9066      465F554E 
 9066      4B4E4F57 
 9066      4E00
 9067              	.LASF114:
 9068 0b51 6469725F 		.ascii	"dir_read_cb\000"
 9068      72656164 
 9068      5F636200 
 9069              	.LASF219:
 9070 0b5d 6C765F6D 		.ascii	"lv_memset_00\000"
 9070      656D7365 
 9070      745F3030 
 9070      00
 9071              	.LASF82:
 9072 0b6a 6C765F69 		.ascii	"lv_img_dsc_t\000"
 9072      6D675F64 
 9072      73635F74 
 9072      00
 9073              	.LASF183:
 9074 0b77 6C765F69 		.ascii	"lv_img_decoder_built_in_line_alpha\000"
 9074      6D675F64 
 9074      65636F64 
 9074      65725F62 
 9074      75696C74 
 9075              	.LASF41:
 9076 0b9a 4C565F49 		.ascii	"LV_IMG_CF_TRUE_COLOR\000"
 9076      4D475F43 
 9076      465F5452 
 9076      55455F43 
 9076      4F4C4F52 
 9077              	.LASF136:
 9078 0baf 6C765F69 		.ascii	"lv_img_decoder_open_f_t\000"
 9078      6D675F64 
 9078      65636F64 
 9078      65725F6F 
 9078      70656E5F 
 9079              	.LASF175:
 9080 0bc7 6C765F63 		.ascii	"lv_color_make\000"
 9080      6F6C6F72 
 9080      5F6D616B 
 9080      6500
ARM GAS  C:\Users\haske\AppData\Local\Temp\ccHSLozV.s 			page 200


 9081              	.LASF225:
 9082 0bd5 5F6C765F 		.ascii	"_lv_ll_get_next\000"
 9082      6C6C5F67 
 9082      65745F6E 
 9082      65787400 
 9083              	.LASF4:
 9084 0be5 5F5F696E 		.ascii	"__int16_t\000"
 9084      7431365F 
 9084      7400
 9085              	.LASF197:
 9086 0bef 6C765F69 		.ascii	"lv_img_decoder_open\000"
 9086      6D675F64 
 9086      65636F64 
 9086      65725F6F 
 9086      70656E00 
 9087              	.LASF218:
 9088 0c03 6C765F6D 		.ascii	"lv_mem_alloc\000"
 9088      656D5F61 
 9088      6C6C6F63 
 9088      00
 9089              	.LASF30:
 9090 0c10 66756C6C 		.ascii	"full\000"
 9090      00
 9091              	.LASF139:
 9092 0c15 636F6C6F 		.ascii	"color\000"
 9092      7200
 9093              	.LASF215:
 9094 0c1b 6C765F66 		.ascii	"lv_fs_open\000"
 9094      735F6F70 
 9094      656E00
 9095              	.LASF135:
 9096 0c26 72656164 		.ascii	"read_line_cb\000"
 9096      5F6C696E 
 9096      655F6362 
 9096      00
 9097              	.LASF193:
 9098 0c33 76616C5F 		.ascii	"val_act\000"
 9098      61637400 
 9099              	.LASF93:
 9100 0c3b 4C565F46 		.ascii	"LV_FS_RES_OUT_OF_MEM\000"
 9100      535F5245 
 9100      535F4F55 
 9100      545F4F46 
 9100      5F4D454D 
 9101              	.LASF152:
 9102 0c50 626F785F 		.ascii	"box_h\000"
 9102      6800
 9103              	.LASF232:
 9104 0c56 2E2E5C2E 		.ascii	"..\\..\\..\\arduinoLCD\\test\\Pain Drain\\libraries"
 9104      2E5C2E2E 
 9104      5C617264 
 9104      75696E6F 
 9104      4C43445C 
 9105 0c83 5C6C7667 		.ascii	"\\lvgl\\src\\draw\\lv_img_decoder.c\000"
 9105      6C5C7372 
 9105      635C6472 
 9105      61775C6C 
ARM GAS  C:\Users\haske\AppData\Local\Temp\ccHSLozV.s 			page 201


 9105      765F696D 
 9106              	.LASF31:
 9107 0ca3 6C765F63 		.ascii	"lv_color16_t\000"
 9107      6F6C6F72 
 9107      31365F74 
 9107      00
 9108              	.LASF151:
 9109 0cb0 626F785F 		.ascii	"box_w\000"
 9109      7700
 9110              	.LASF5:
 9111 0cb6 73686F72 		.ascii	"short int\000"
 9111      7420696E 
 9111      7400
 9112              	.LASF160:
 9113 0cc0 62617365 		.ascii	"base_line\000"
 9113      5F6C696E 
 9113      6500
 9114              	.LASF171:
 9115 0cca 6C765F6C 		.ascii	"lv_ll_t\000"
 9115      6C5F7400 
 9116              	.LASF209:
 9117 0cd2 6C765F66 		.ascii	"lv_font_montserrat_14\000"
 9117      6F6E745F 
 9117      6D6F6E74 
 9117      73657272 
 9117      61745F31 
 9118              	.LASF194:
 9119 0ce8 6C765F69 		.ascii	"lv_img_decoder_built_in_line_indexed\000"
 9119      6D675F64 
 9119      65636F64 
 9119      65725F62 
 9119      75696C74 
 9120              	.LASF127:
 9121 0d0d 4C565F49 		.ascii	"LV_IMG_SRC_FILE\000"
 9121      4D475F53 
 9121      52435F46 
 9121      494C4500 
 9122              	.LASF17:
 9123 0d1d 696E7431 		.ascii	"int16_t\000"
 9123      365F7400 
 9124              	.LASF196:
 9125 0d25 6C765F69 		.ascii	"lv_img_decoder_get_info\000"
 9125      6D675F64 
 9125      65636F64 
 9125      65725F67 
 9125      65745F69 
 9126              	.LASF104:
 9127 0d3d 6C657474 		.ascii	"letter\000"
 9127      657200
 9128              	.LASF233:
 9129 0d44 433A5C50 		.ascii	"C:\\Projects\\PainDrain\\firmware\\PainDrain\\PainD"
 9129      726F6A65 
 9129      6374735C 
 9129      5061696E 
 9129      44726169 
 9130 0d72 7261696E 		.ascii	"rain.cydsn\000"
 9130      2E637964 
ARM GAS  C:\Users\haske\AppData\Local\Temp\ccHSLozV.s 			page 202


 9130      736E00
 9131              	.LASF226:
 9132 0d7d 7374726C 		.ascii	"strlen\000"
 9132      656E00
 9133              	.LASF39:
 9134 0d84 4C565F49 		.ascii	"LV_IMG_CF_RAW_ALPHA\000"
 9134      4D475F43 
 9134      465F5241 
 9134      575F414C 
 9134      50484100 
 9135              	.LASF100:
 9136 0d98 4C565F46 		.ascii	"LV_FS_SEEK_SET\000"
 9136      535F5345 
 9136      454B5F53 
 9136      455400
 9137              	.LASF130:
 9138 0da7 6C765F69 		.ascii	"lv_img_src_t\000"
 9138      6D675F73 
 9138      72635F74 
 9138      00
 9139              	.LASF20:
 9140 0db4 75696E74 		.ascii	"uint32_t\000"
 9140      33325F74 
 9140      00
 9141              	.LASF29:
 9142 0dbd 67726565 		.ascii	"green\000"
 9142      6E00
 9143              	.LASF166:
 9144 0dc3 6C765F66 		.ascii	"lv_font_t\000"
 9144      6F6E745F 
 9144      7400
 9145              	.LASF77:
 9146 0dcd 72657365 		.ascii	"reserved\000"
 9146      72766564 
 9146      00
 9147              	.LASF96:
 9148 0dd6 6C765F66 		.ascii	"lv_fs_res_t\000"
 9148      735F7265 
 9148      735F7400 
 9149              	.LASF7:
 9150 0de2 73686F72 		.ascii	"short unsigned int\000"
 9150      7420756E 
 9150      7369676E 
 9150      65642069 
 9150      6E7400
 9151              	.LASF211:
 9152 0df5 6C765F66 		.ascii	"lv_fs_read\000"
 9152      735F7265 
 9152      616400
 9153              	.LASF36:
 9154 0e00 6C765F63 		.ascii	"lv_coord_t\000"
 9154      6F6F7264 
 9154      5F7400
 9155              	.LASF116:
 9156 0e0b 75736572 		.ascii	"user_data\000"
 9156      5F646174 
 9156      6100
ARM GAS  C:\Users\haske\AppData\Local\Temp\ccHSLozV.s 			page 203


 9157              	.LASF76:
 9158 0e15 616C7761 		.ascii	"always_zero\000"
 9158      79735F7A 
 9158      65726F00 
 9159              	.LASF157:
 9160 0e21 6765745F 		.ascii	"get_glyph_dsc\000"
 9160      676C7970 
 9160      685F6473 
 9160      6300
 9161              	.LASF8:
 9162 0e2f 5F5F696E 		.ascii	"__int32_t\000"
 9162      7433325F 
 9162      7400
 9163              	.LASF224:
 9164 0e39 5F6C765F 		.ascii	"_lv_ll_get_head\000"
 9164      6C6C5F67 
 9164      65745F68 
 9164      65616400 
 9165              	.LASF146:
 9166 0e49 6C765F69 		.ascii	"lv_img_decoder_close_f_t\000"
 9166      6D675F64 
 9166      65636F64 
 9166      65725F63 
 9166      6C6F7365 
 9167              	.LASF131:
 9168 0e62 6C765F69 		.ascii	"lv_img_decoder_info_f_t\000"
 9168      6D675F64 
 9168      65636F64 
 9168      65725F69 
 9168      6E666F5F 
 9169              	.LASF141:
 9170 0e7a 7372635F 		.ascii	"src_type\000"
 9170      74797065 
 9170      00
 9171              	.LASF81:
 9172 0e83 64617461 		.ascii	"data\000"
 9172      00
 9173              	.LASF177:
 9174 0e88 6C765F69 		.ascii	"lv_img_decoder_built_in_open\000"
 9174      6D675F64 
 9174      65636F64 
 9174      65725F62 
 9174      75696C74 
 9175              	.LASF52:
 9176 0ea5 4C565F49 		.ascii	"LV_IMG_CF_RGB888\000"
 9176      4D475F43 
 9176      465F5247 
 9176      42383838 
 9176      00
 9177              	.LASF216:
 9178 0eb6 6C765F69 		.ascii	"lv_img_src_get_type\000"
 9178      6D675F73 
 9178      72635F67 
 9178      65745F74 
 9178      79706500 
 9179              	.LASF168:
 9180 0eca 6E5F7369 		.ascii	"n_size\000"
ARM GAS  C:\Users\haske\AppData\Local\Temp\ccHSLozV.s 			page 204


 9180      7A6500
 9181              	.LASF155:
 9182 0ed1 69735F70 		.ascii	"is_placeholder\000"
 9182      6C616365 
 9182      686F6C64 
 9182      657200
 9183              	.LASF191:
 9184 0ee0 64617461 		.ascii	"data_tmp\000"
 9184      5F746D70 
 9184      00
 9185              		.ident	"GCC: (GNU Tools for ARM Embedded Processors) 5.4.1 20160609 (release) [ARM/embedded-5-bran
