ARM GAS  C:\Users\haske\AppData\Local\Temp\ccF9IbRI.s 			page 1


   1              		.syntax unified
   2              		.cpu cortex-m4
   3              		.eabi_attribute 27, 1
   4              		.fpu fpv4-sp-d16
   5              		.eabi_attribute 20, 1
   6              		.eabi_attribute 21, 1
   7              		.eabi_attribute 23, 3
   8              		.eabi_attribute 24, 1
   9              		.eabi_attribute 25, 1
  10              		.eabi_attribute 26, 1
  11              		.eabi_attribute 30, 1
  12              		.eabi_attribute 34, 1
  13              		.eabi_attribute 18, 4
  14              		.thumb
  15              		.syntax unified
  16              		.file	"lv_img_buf.c"
  17              		.text
  18              	.Ltext0:
  19              		.cfi_sections	.debug_frame
  20              		.section	.text.lv_img_buf_get_px_color,"ax",%progbits
  21              		.align	2
  22              		.global	lv_img_buf_get_px_color
  23              		.thumb
  24              		.thumb_func
  25              		.type	lv_img_buf_get_px_color, %function
  26              	lv_img_buf_get_px_color:
  27              	.LFB54:
  28              		.file 1 "..\\..\\..\\arduinoLCD\\test\\Pain Drain\\libraries\\lvgl\\src\\draw\\lv_img_buf.c"
   1:..\..\..\arduinoLCD\test\Pain Drain\libraries\lvgl\src\draw/lv_img_buf.c **** /**
   2:..\..\..\arduinoLCD\test\Pain Drain\libraries\lvgl\src\draw/lv_img_buf.c ****  * @file lv_img_buf.c
   3:..\..\..\arduinoLCD\test\Pain Drain\libraries\lvgl\src\draw/lv_img_buf.c ****  *
   4:..\..\..\arduinoLCD\test\Pain Drain\libraries\lvgl\src\draw/lv_img_buf.c ****  */
   5:..\..\..\arduinoLCD\test\Pain Drain\libraries\lvgl\src\draw/lv_img_buf.c **** 
   6:..\..\..\arduinoLCD\test\Pain Drain\libraries\lvgl\src\draw/lv_img_buf.c **** /*********************
   7:..\..\..\arduinoLCD\test\Pain Drain\libraries\lvgl\src\draw/lv_img_buf.c ****  *      INCLUDES
   8:..\..\..\arduinoLCD\test\Pain Drain\libraries\lvgl\src\draw/lv_img_buf.c ****  *********************/
   9:..\..\..\arduinoLCD\test\Pain Drain\libraries\lvgl\src\draw/lv_img_buf.c **** #include <stddef.h>
  10:..\..\..\arduinoLCD\test\Pain Drain\libraries\lvgl\src\draw/lv_img_buf.c **** #include <string.h>
  11:..\..\..\arduinoLCD\test\Pain Drain\libraries\lvgl\src\draw/lv_img_buf.c **** #include "lv_img_buf.h"
  12:..\..\..\arduinoLCD\test\Pain Drain\libraries\lvgl\src\draw/lv_img_buf.c **** #include "lv_draw_img.h"
  13:..\..\..\arduinoLCD\test\Pain Drain\libraries\lvgl\src\draw/lv_img_buf.c **** #include "../misc/lv_math.h"
  14:..\..\..\arduinoLCD\test\Pain Drain\libraries\lvgl\src\draw/lv_img_buf.c **** #include "../misc/lv_log.h"
  15:..\..\..\arduinoLCD\test\Pain Drain\libraries\lvgl\src\draw/lv_img_buf.c **** #include "../misc/lv_mem.h"
  16:..\..\..\arduinoLCD\test\Pain Drain\libraries\lvgl\src\draw/lv_img_buf.c **** 
  17:..\..\..\arduinoLCD\test\Pain Drain\libraries\lvgl\src\draw/lv_img_buf.c **** /*********************
  18:..\..\..\arduinoLCD\test\Pain Drain\libraries\lvgl\src\draw/lv_img_buf.c ****  *      DEFINES
  19:..\..\..\arduinoLCD\test\Pain Drain\libraries\lvgl\src\draw/lv_img_buf.c ****  *********************/
  20:..\..\..\arduinoLCD\test\Pain Drain\libraries\lvgl\src\draw/lv_img_buf.c **** 
  21:..\..\..\arduinoLCD\test\Pain Drain\libraries\lvgl\src\draw/lv_img_buf.c **** /**********************
  22:..\..\..\arduinoLCD\test\Pain Drain\libraries\lvgl\src\draw/lv_img_buf.c ****  *      TYPEDEFS
  23:..\..\..\arduinoLCD\test\Pain Drain\libraries\lvgl\src\draw/lv_img_buf.c ****  **********************/
  24:..\..\..\arduinoLCD\test\Pain Drain\libraries\lvgl\src\draw/lv_img_buf.c **** 
  25:..\..\..\arduinoLCD\test\Pain Drain\libraries\lvgl\src\draw/lv_img_buf.c **** /**********************
  26:..\..\..\arduinoLCD\test\Pain Drain\libraries\lvgl\src\draw/lv_img_buf.c ****  *  STATIC PROTOTYPES
  27:..\..\..\arduinoLCD\test\Pain Drain\libraries\lvgl\src\draw/lv_img_buf.c ****  **********************/
  28:..\..\..\arduinoLCD\test\Pain Drain\libraries\lvgl\src\draw/lv_img_buf.c **** 
  29:..\..\..\arduinoLCD\test\Pain Drain\libraries\lvgl\src\draw/lv_img_buf.c **** /**********************
ARM GAS  C:\Users\haske\AppData\Local\Temp\ccF9IbRI.s 			page 2


  30:..\..\..\arduinoLCD\test\Pain Drain\libraries\lvgl\src\draw/lv_img_buf.c ****  *  STATIC VARIABLES
  31:..\..\..\arduinoLCD\test\Pain Drain\libraries\lvgl\src\draw/lv_img_buf.c ****  **********************/
  32:..\..\..\arduinoLCD\test\Pain Drain\libraries\lvgl\src\draw/lv_img_buf.c **** 
  33:..\..\..\arduinoLCD\test\Pain Drain\libraries\lvgl\src\draw/lv_img_buf.c **** /**********************
  34:..\..\..\arduinoLCD\test\Pain Drain\libraries\lvgl\src\draw/lv_img_buf.c ****  *      MACROS
  35:..\..\..\arduinoLCD\test\Pain Drain\libraries\lvgl\src\draw/lv_img_buf.c ****  **********************/
  36:..\..\..\arduinoLCD\test\Pain Drain\libraries\lvgl\src\draw/lv_img_buf.c **** 
  37:..\..\..\arduinoLCD\test\Pain Drain\libraries\lvgl\src\draw/lv_img_buf.c **** /**********************
  38:..\..\..\arduinoLCD\test\Pain Drain\libraries\lvgl\src\draw/lv_img_buf.c ****  *   GLOBAL FUNCTIONS
  39:..\..\..\arduinoLCD\test\Pain Drain\libraries\lvgl\src\draw/lv_img_buf.c ****  **********************/
  40:..\..\..\arduinoLCD\test\Pain Drain\libraries\lvgl\src\draw/lv_img_buf.c **** 
  41:..\..\..\arduinoLCD\test\Pain Drain\libraries\lvgl\src\draw/lv_img_buf.c **** /**
  42:..\..\..\arduinoLCD\test\Pain Drain\libraries\lvgl\src\draw/lv_img_buf.c ****  * Get the color of an image's pixel
  43:..\..\..\arduinoLCD\test\Pain Drain\libraries\lvgl\src\draw/lv_img_buf.c ****  * @param dsc an image descriptor
  44:..\..\..\arduinoLCD\test\Pain Drain\libraries\lvgl\src\draw/lv_img_buf.c ****  * @param x x coordinate of the point to get
  45:..\..\..\arduinoLCD\test\Pain Drain\libraries\lvgl\src\draw/lv_img_buf.c ****  * @param y x coordinate of the point to get
  46:..\..\..\arduinoLCD\test\Pain Drain\libraries\lvgl\src\draw/lv_img_buf.c ****  * @param color the color of the image. In case of `LV_IMG_CF_ALPHA_1/2/4/8` this color is used.
  47:..\..\..\arduinoLCD\test\Pain Drain\libraries\lvgl\src\draw/lv_img_buf.c ****  * Not used in other cases.
  48:..\..\..\arduinoLCD\test\Pain Drain\libraries\lvgl\src\draw/lv_img_buf.c ****  * @param safe true: check out of bounds
  49:..\..\..\arduinoLCD\test\Pain Drain\libraries\lvgl\src\draw/lv_img_buf.c ****  * @return color of the point
  50:..\..\..\arduinoLCD\test\Pain Drain\libraries\lvgl\src\draw/lv_img_buf.c ****  */
  51:..\..\..\arduinoLCD\test\Pain Drain\libraries\lvgl\src\draw/lv_img_buf.c **** lv_color_t lv_img_buf_get_px_color(lv_img_dsc_t * dsc, lv_coord_t x, lv_coord_t y, lv_color_t color
  52:..\..\..\arduinoLCD\test\Pain Drain\libraries\lvgl\src\draw/lv_img_buf.c **** {
  29              		.loc 1 52 0
  30              		.cfi_startproc
  31              		@ args = 0, pretend = 0, frame = 8
  32              		@ frame_needed = 0, uses_anonymous_args = 0
  33              	.LVL0:
  34 0000 F0B5     		push	{r4, r5, r6, r7, lr}
  35              		.cfi_def_cfa_offset 20
  36              		.cfi_offset 4, -20
  37              		.cfi_offset 5, -16
  38              		.cfi_offset 6, -12
  39              		.cfi_offset 7, -8
  40              		.cfi_offset 14, -4
  41 0002 83B0     		sub	sp, sp, #12
  42              		.cfi_def_cfa_offset 32
  43              	.LVL1:
  44              	.LBB29:
  45              	.LBB30:
  46              	.LBB31:
  47              		.file 2 "..\\..\\..\\arduinoLCD\\test\\Pain Drain\\libraries\\lvgl\\src\\draw\\../misc/lv_color.h"
   1:..\..\..\arduinoLCD\test\Pain Drain\libraries\lvgl\src\draw\../misc/lv_color.h **** /**
   2:..\..\..\arduinoLCD\test\Pain Drain\libraries\lvgl\src\draw\../misc/lv_color.h ****  * @file lv_color.h
   3:..\..\..\arduinoLCD\test\Pain Drain\libraries\lvgl\src\draw\../misc/lv_color.h ****  *
   4:..\..\..\arduinoLCD\test\Pain Drain\libraries\lvgl\src\draw\../misc/lv_color.h ****  */
   5:..\..\..\arduinoLCD\test\Pain Drain\libraries\lvgl\src\draw\../misc/lv_color.h **** 
   6:..\..\..\arduinoLCD\test\Pain Drain\libraries\lvgl\src\draw\../misc/lv_color.h **** #ifndef LV_COLOR_H
   7:..\..\..\arduinoLCD\test\Pain Drain\libraries\lvgl\src\draw\../misc/lv_color.h **** #define LV_COLOR_H
   8:..\..\..\arduinoLCD\test\Pain Drain\libraries\lvgl\src\draw\../misc/lv_color.h **** 
   9:..\..\..\arduinoLCD\test\Pain Drain\libraries\lvgl\src\draw\../misc/lv_color.h **** #ifdef __cplusplus
  10:..\..\..\arduinoLCD\test\Pain Drain\libraries\lvgl\src\draw\../misc/lv_color.h **** extern "C" {
  11:..\..\..\arduinoLCD\test\Pain Drain\libraries\lvgl\src\draw\../misc/lv_color.h **** #endif
  12:..\..\..\arduinoLCD\test\Pain Drain\libraries\lvgl\src\draw\../misc/lv_color.h **** 
  13:..\..\..\arduinoLCD\test\Pain Drain\libraries\lvgl\src\draw\../misc/lv_color.h **** /*********************
  14:..\..\..\arduinoLCD\test\Pain Drain\libraries\lvgl\src\draw\../misc/lv_color.h ****  *      INCLUDES
  15:..\..\..\arduinoLCD\test\Pain Drain\libraries\lvgl\src\draw\../misc/lv_color.h ****  *********************/
ARM GAS  C:\Users\haske\AppData\Local\Temp\ccF9IbRI.s 			page 3


  16:..\..\..\arduinoLCD\test\Pain Drain\libraries\lvgl\src\draw\../misc/lv_color.h **** #include "../lv_conf_internal.h"
  17:..\..\..\arduinoLCD\test\Pain Drain\libraries\lvgl\src\draw\../misc/lv_color.h **** #include "lv_assert.h"
  18:..\..\..\arduinoLCD\test\Pain Drain\libraries\lvgl\src\draw\../misc/lv_color.h **** #include "lv_math.h"
  19:..\..\..\arduinoLCD\test\Pain Drain\libraries\lvgl\src\draw\../misc/lv_color.h **** #include "lv_types.h"
  20:..\..\..\arduinoLCD\test\Pain Drain\libraries\lvgl\src\draw\../misc/lv_color.h **** 
  21:..\..\..\arduinoLCD\test\Pain Drain\libraries\lvgl\src\draw\../misc/lv_color.h **** /*Error checking*/
  22:..\..\..\arduinoLCD\test\Pain Drain\libraries\lvgl\src\draw\../misc/lv_color.h **** #if LV_COLOR_DEPTH == 24
  23:..\..\..\arduinoLCD\test\Pain Drain\libraries\lvgl\src\draw\../misc/lv_color.h **** #error "LV_COLOR_DEPTH 24 is deprecated. Use LV_COLOR_DEPTH 32 instead (lv_conf.h)"
  24:..\..\..\arduinoLCD\test\Pain Drain\libraries\lvgl\src\draw\../misc/lv_color.h **** #endif
  25:..\..\..\arduinoLCD\test\Pain Drain\libraries\lvgl\src\draw\../misc/lv_color.h **** 
  26:..\..\..\arduinoLCD\test\Pain Drain\libraries\lvgl\src\draw\../misc/lv_color.h **** #if LV_COLOR_DEPTH != 16 && LV_COLOR_16_SWAP != 0
  27:..\..\..\arduinoLCD\test\Pain Drain\libraries\lvgl\src\draw\../misc/lv_color.h **** #error "LV_COLOR_16_SWAP requires LV_COLOR_DEPTH == 16. Set it in lv_conf.h"
  28:..\..\..\arduinoLCD\test\Pain Drain\libraries\lvgl\src\draw\../misc/lv_color.h **** #endif
  29:..\..\..\arduinoLCD\test\Pain Drain\libraries\lvgl\src\draw\../misc/lv_color.h **** 
  30:..\..\..\arduinoLCD\test\Pain Drain\libraries\lvgl\src\draw\../misc/lv_color.h **** #include <stdint.h>
  31:..\..\..\arduinoLCD\test\Pain Drain\libraries\lvgl\src\draw\../misc/lv_color.h **** 
  32:..\..\..\arduinoLCD\test\Pain Drain\libraries\lvgl\src\draw\../misc/lv_color.h **** /*********************
  33:..\..\..\arduinoLCD\test\Pain Drain\libraries\lvgl\src\draw\../misc/lv_color.h ****  *      DEFINES
  34:..\..\..\arduinoLCD\test\Pain Drain\libraries\lvgl\src\draw\../misc/lv_color.h ****  *********************/
  35:..\..\..\arduinoLCD\test\Pain Drain\libraries\lvgl\src\draw\../misc/lv_color.h **** LV_EXPORT_CONST_INT(LV_COLOR_DEPTH);
  36:..\..\..\arduinoLCD\test\Pain Drain\libraries\lvgl\src\draw\../misc/lv_color.h **** LV_EXPORT_CONST_INT(LV_COLOR_16_SWAP);
  37:..\..\..\arduinoLCD\test\Pain Drain\libraries\lvgl\src\draw\../misc/lv_color.h **** 
  38:..\..\..\arduinoLCD\test\Pain Drain\libraries\lvgl\src\draw\../misc/lv_color.h **** /**
  39:..\..\..\arduinoLCD\test\Pain Drain\libraries\lvgl\src\draw\../misc/lv_color.h ****  * Opacity percentages.
  40:..\..\..\arduinoLCD\test\Pain Drain\libraries\lvgl\src\draw\../misc/lv_color.h ****  */
  41:..\..\..\arduinoLCD\test\Pain Drain\libraries\lvgl\src\draw\../misc/lv_color.h **** enum {
  42:..\..\..\arduinoLCD\test\Pain Drain\libraries\lvgl\src\draw\../misc/lv_color.h ****     LV_OPA_TRANSP = 0,
  43:..\..\..\arduinoLCD\test\Pain Drain\libraries\lvgl\src\draw\../misc/lv_color.h ****     LV_OPA_0      = 0,
  44:..\..\..\arduinoLCD\test\Pain Drain\libraries\lvgl\src\draw\../misc/lv_color.h ****     LV_OPA_10     = 25,
  45:..\..\..\arduinoLCD\test\Pain Drain\libraries\lvgl\src\draw\../misc/lv_color.h ****     LV_OPA_20     = 51,
  46:..\..\..\arduinoLCD\test\Pain Drain\libraries\lvgl\src\draw\../misc/lv_color.h ****     LV_OPA_30     = 76,
  47:..\..\..\arduinoLCD\test\Pain Drain\libraries\lvgl\src\draw\../misc/lv_color.h ****     LV_OPA_40     = 102,
  48:..\..\..\arduinoLCD\test\Pain Drain\libraries\lvgl\src\draw\../misc/lv_color.h ****     LV_OPA_50     = 127,
  49:..\..\..\arduinoLCD\test\Pain Drain\libraries\lvgl\src\draw\../misc/lv_color.h ****     LV_OPA_60     = 153,
  50:..\..\..\arduinoLCD\test\Pain Drain\libraries\lvgl\src\draw\../misc/lv_color.h ****     LV_OPA_70     = 178,
  51:..\..\..\arduinoLCD\test\Pain Drain\libraries\lvgl\src\draw\../misc/lv_color.h ****     LV_OPA_80     = 204,
  52:..\..\..\arduinoLCD\test\Pain Drain\libraries\lvgl\src\draw\../misc/lv_color.h ****     LV_OPA_90     = 229,
  53:..\..\..\arduinoLCD\test\Pain Drain\libraries\lvgl\src\draw\../misc/lv_color.h ****     LV_OPA_100    = 255,
  54:..\..\..\arduinoLCD\test\Pain Drain\libraries\lvgl\src\draw\../misc/lv_color.h ****     LV_OPA_COVER  = 255,
  55:..\..\..\arduinoLCD\test\Pain Drain\libraries\lvgl\src\draw\../misc/lv_color.h **** };
  56:..\..\..\arduinoLCD\test\Pain Drain\libraries\lvgl\src\draw\../misc/lv_color.h **** 
  57:..\..\..\arduinoLCD\test\Pain Drain\libraries\lvgl\src\draw\../misc/lv_color.h **** #define LV_OPA_MIN 2    /*Opacities below this will be transparent*/
  58:..\..\..\arduinoLCD\test\Pain Drain\libraries\lvgl\src\draw\../misc/lv_color.h **** #define LV_OPA_MAX 253  /*Opacities above this will fully cover*/
  59:..\..\..\arduinoLCD\test\Pain Drain\libraries\lvgl\src\draw\../misc/lv_color.h **** 
  60:..\..\..\arduinoLCD\test\Pain Drain\libraries\lvgl\src\draw\../misc/lv_color.h **** #if LV_COLOR_DEPTH == 1
  61:..\..\..\arduinoLCD\test\Pain Drain\libraries\lvgl\src\draw\../misc/lv_color.h **** #define LV_COLOR_SIZE 8
  62:..\..\..\arduinoLCD\test\Pain Drain\libraries\lvgl\src\draw\../misc/lv_color.h **** #elif LV_COLOR_DEPTH == 8
  63:..\..\..\arduinoLCD\test\Pain Drain\libraries\lvgl\src\draw\../misc/lv_color.h **** #define LV_COLOR_SIZE 8
  64:..\..\..\arduinoLCD\test\Pain Drain\libraries\lvgl\src\draw\../misc/lv_color.h **** #elif LV_COLOR_DEPTH == 16
  65:..\..\..\arduinoLCD\test\Pain Drain\libraries\lvgl\src\draw\../misc/lv_color.h **** #define LV_COLOR_SIZE 16
  66:..\..\..\arduinoLCD\test\Pain Drain\libraries\lvgl\src\draw\../misc/lv_color.h **** #elif LV_COLOR_DEPTH == 32
  67:..\..\..\arduinoLCD\test\Pain Drain\libraries\lvgl\src\draw\../misc/lv_color.h **** #define LV_COLOR_SIZE 32
  68:..\..\..\arduinoLCD\test\Pain Drain\libraries\lvgl\src\draw\../misc/lv_color.h **** #else
  69:..\..\..\arduinoLCD\test\Pain Drain\libraries\lvgl\src\draw\../misc/lv_color.h **** #error "Invalid LV_COLOR_DEPTH in lv_conf.h! Set it to 1, 8, 16 or 32!"
  70:..\..\..\arduinoLCD\test\Pain Drain\libraries\lvgl\src\draw\../misc/lv_color.h **** #endif
  71:..\..\..\arduinoLCD\test\Pain Drain\libraries\lvgl\src\draw\../misc/lv_color.h **** 
  72:..\..\..\arduinoLCD\test\Pain Drain\libraries\lvgl\src\draw\../misc/lv_color.h **** #if defined(__cplusplus) && !defined(_LV_COLOR_HAS_MODERN_CPP)
ARM GAS  C:\Users\haske\AppData\Local\Temp\ccF9IbRI.s 			page 4


  73:..\..\..\arduinoLCD\test\Pain Drain\libraries\lvgl\src\draw\../misc/lv_color.h **** /**
  74:..\..\..\arduinoLCD\test\Pain Drain\libraries\lvgl\src\draw\../misc/lv_color.h **** * MSVC compiler's definition of the __cplusplus indicating 199711L regardless to C++ standard versi
  75:..\..\..\arduinoLCD\test\Pain Drain\libraries\lvgl\src\draw\../misc/lv_color.h **** * see https://devblogs.microsoft.com/cppblog/msvc-now-correctly-reports-cplusplus
  76:..\..\..\arduinoLCD\test\Pain Drain\libraries\lvgl\src\draw\../misc/lv_color.h **** * so we use _MSC_VER macro instead of __cplusplus
  77:..\..\..\arduinoLCD\test\Pain Drain\libraries\lvgl\src\draw\../misc/lv_color.h **** */
  78:..\..\..\arduinoLCD\test\Pain Drain\libraries\lvgl\src\draw\../misc/lv_color.h **** #ifdef _MSC_VER
  79:..\..\..\arduinoLCD\test\Pain Drain\libraries\lvgl\src\draw\../misc/lv_color.h **** #if _MSC_VER >= 1900 /*Visual Studio 2015*/
  80:..\..\..\arduinoLCD\test\Pain Drain\libraries\lvgl\src\draw\../misc/lv_color.h **** #define _LV_COLOR_HAS_MODERN_CPP 1
  81:..\..\..\arduinoLCD\test\Pain Drain\libraries\lvgl\src\draw\../misc/lv_color.h **** #endif
  82:..\..\..\arduinoLCD\test\Pain Drain\libraries\lvgl\src\draw\../misc/lv_color.h **** #else
  83:..\..\..\arduinoLCD\test\Pain Drain\libraries\lvgl\src\draw\../misc/lv_color.h **** #if __cplusplus >= 201103L
  84:..\..\..\arduinoLCD\test\Pain Drain\libraries\lvgl\src\draw\../misc/lv_color.h **** #define _LV_COLOR_HAS_MODERN_CPP 1
  85:..\..\..\arduinoLCD\test\Pain Drain\libraries\lvgl\src\draw\../misc/lv_color.h **** #endif
  86:..\..\..\arduinoLCD\test\Pain Drain\libraries\lvgl\src\draw\../misc/lv_color.h **** #endif
  87:..\..\..\arduinoLCD\test\Pain Drain\libraries\lvgl\src\draw\../misc/lv_color.h **** #endif /*__cplusplus*/
  88:..\..\..\arduinoLCD\test\Pain Drain\libraries\lvgl\src\draw\../misc/lv_color.h **** 
  89:..\..\..\arduinoLCD\test\Pain Drain\libraries\lvgl\src\draw\../misc/lv_color.h **** #ifndef _LV_COLOR_HAS_MODERN_CPP
  90:..\..\..\arduinoLCD\test\Pain Drain\libraries\lvgl\src\draw\../misc/lv_color.h **** #define _LV_COLOR_HAS_MODERN_CPP 0
  91:..\..\..\arduinoLCD\test\Pain Drain\libraries\lvgl\src\draw\../misc/lv_color.h **** #endif
  92:..\..\..\arduinoLCD\test\Pain Drain\libraries\lvgl\src\draw\../misc/lv_color.h **** 
  93:..\..\..\arduinoLCD\test\Pain Drain\libraries\lvgl\src\draw\../misc/lv_color.h **** #if _LV_COLOR_HAS_MODERN_CPP
  94:..\..\..\arduinoLCD\test\Pain Drain\libraries\lvgl\src\draw\../misc/lv_color.h **** /*Fix msvc compiler error C4576 inside C++ code*/
  95:..\..\..\arduinoLCD\test\Pain Drain\libraries\lvgl\src\draw\../misc/lv_color.h **** #define _LV_COLOR_MAKE_TYPE_HELPER lv_color_t
  96:..\..\..\arduinoLCD\test\Pain Drain\libraries\lvgl\src\draw\../misc/lv_color.h **** #else
  97:..\..\..\arduinoLCD\test\Pain Drain\libraries\lvgl\src\draw\../misc/lv_color.h **** #define _LV_COLOR_MAKE_TYPE_HELPER (lv_color_t)
  98:..\..\..\arduinoLCD\test\Pain Drain\libraries\lvgl\src\draw\../misc/lv_color.h **** #endif
  99:..\..\..\arduinoLCD\test\Pain Drain\libraries\lvgl\src\draw\../misc/lv_color.h **** 
 100:..\..\..\arduinoLCD\test\Pain Drain\libraries\lvgl\src\draw\../misc/lv_color.h **** /*---------------------------------------
 101:..\..\..\arduinoLCD\test\Pain Drain\libraries\lvgl\src\draw\../misc/lv_color.h ****  * Macros for all existing color depths
 102:..\..\..\arduinoLCD\test\Pain Drain\libraries\lvgl\src\draw\../misc/lv_color.h ****  * to set/get values of the color channels
 103:..\..\..\arduinoLCD\test\Pain Drain\libraries\lvgl\src\draw\../misc/lv_color.h ****  *------------------------------------------*/
 104:..\..\..\arduinoLCD\test\Pain Drain\libraries\lvgl\src\draw\../misc/lv_color.h **** # define LV_COLOR_SET_R1(c, v) (c).ch.red = (uint8_t)((v) & 0x1)
 105:..\..\..\arduinoLCD\test\Pain Drain\libraries\lvgl\src\draw\../misc/lv_color.h **** # define LV_COLOR_SET_G1(c, v) (c).ch.green = (uint8_t)((v) & 0x1)
 106:..\..\..\arduinoLCD\test\Pain Drain\libraries\lvgl\src\draw\../misc/lv_color.h **** # define LV_COLOR_SET_B1(c, v) (c).ch.blue = (uint8_t)((v) & 0x1)
 107:..\..\..\arduinoLCD\test\Pain Drain\libraries\lvgl\src\draw\../misc/lv_color.h **** # define LV_COLOR_SET_A1(c, v) do {} while(0)
 108:..\..\..\arduinoLCD\test\Pain Drain\libraries\lvgl\src\draw\../misc/lv_color.h **** 
 109:..\..\..\arduinoLCD\test\Pain Drain\libraries\lvgl\src\draw\../misc/lv_color.h **** # define LV_COLOR_GET_R1(c) (c).ch.red
 110:..\..\..\arduinoLCD\test\Pain Drain\libraries\lvgl\src\draw\../misc/lv_color.h **** # define LV_COLOR_GET_G1(c) (c).ch.green
 111:..\..\..\arduinoLCD\test\Pain Drain\libraries\lvgl\src\draw\../misc/lv_color.h **** # define LV_COLOR_GET_B1(c) (c).ch.blue
 112:..\..\..\arduinoLCD\test\Pain Drain\libraries\lvgl\src\draw\../misc/lv_color.h **** # define LV_COLOR_GET_A1(c) 0xFF
 113:..\..\..\arduinoLCD\test\Pain Drain\libraries\lvgl\src\draw\../misc/lv_color.h **** 
 114:..\..\..\arduinoLCD\test\Pain Drain\libraries\lvgl\src\draw\../misc/lv_color.h **** # define _LV_COLOR_ZERO_INITIALIZER1 {0x00}
 115:..\..\..\arduinoLCD\test\Pain Drain\libraries\lvgl\src\draw\../misc/lv_color.h **** # define LV_COLOR_MAKE1(r8, g8, b8)  {(uint8_t)((b8 >> 7) | (g8 >> 7) | (r8 >> 7))}
 116:..\..\..\arduinoLCD\test\Pain Drain\libraries\lvgl\src\draw\../misc/lv_color.h **** 
 117:..\..\..\arduinoLCD\test\Pain Drain\libraries\lvgl\src\draw\../misc/lv_color.h **** # define LV_COLOR_SET_R8(c, v) (c).ch.red = (uint8_t)((v) & 0x7U)
 118:..\..\..\arduinoLCD\test\Pain Drain\libraries\lvgl\src\draw\../misc/lv_color.h **** # define LV_COLOR_SET_G8(c, v) (c).ch.green = (uint8_t)((v) & 0x7U)
 119:..\..\..\arduinoLCD\test\Pain Drain\libraries\lvgl\src\draw\../misc/lv_color.h **** # define LV_COLOR_SET_B8(c, v) (c).ch.blue = (uint8_t)((v) & 0x3U)
 120:..\..\..\arduinoLCD\test\Pain Drain\libraries\lvgl\src\draw\../misc/lv_color.h **** # define LV_COLOR_SET_A8(c, v) do {} while(0)
 121:..\..\..\arduinoLCD\test\Pain Drain\libraries\lvgl\src\draw\../misc/lv_color.h **** 
 122:..\..\..\arduinoLCD\test\Pain Drain\libraries\lvgl\src\draw\../misc/lv_color.h **** # define LV_COLOR_GET_R8(c) (c).ch.red
 123:..\..\..\arduinoLCD\test\Pain Drain\libraries\lvgl\src\draw\../misc/lv_color.h **** # define LV_COLOR_GET_G8(c) (c).ch.green
 124:..\..\..\arduinoLCD\test\Pain Drain\libraries\lvgl\src\draw\../misc/lv_color.h **** # define LV_COLOR_GET_B8(c) (c).ch.blue
 125:..\..\..\arduinoLCD\test\Pain Drain\libraries\lvgl\src\draw\../misc/lv_color.h **** # define LV_COLOR_GET_A8(c) 0xFF
 126:..\..\..\arduinoLCD\test\Pain Drain\libraries\lvgl\src\draw\../misc/lv_color.h **** 
 127:..\..\..\arduinoLCD\test\Pain Drain\libraries\lvgl\src\draw\../misc/lv_color.h **** # define _LV_COLOR_ZERO_INITIALIZER8 {{0x00, 0x00, 0x00}}
 128:..\..\..\arduinoLCD\test\Pain Drain\libraries\lvgl\src\draw\../misc/lv_color.h **** # define LV_COLOR_MAKE8(r8, g8, b8) {{(uint8_t)((b8 >> 6) & 0x3U), (uint8_t)((g8 >> 5) & 0x7U), (ui
 129:..\..\..\arduinoLCD\test\Pain Drain\libraries\lvgl\src\draw\../misc/lv_color.h **** 
ARM GAS  C:\Users\haske\AppData\Local\Temp\ccF9IbRI.s 			page 5


 130:..\..\..\arduinoLCD\test\Pain Drain\libraries\lvgl\src\draw\../misc/lv_color.h **** # define LV_COLOR_SET_R16(c, v) (c).ch.red = (uint8_t)((v) & 0x1FU)
 131:..\..\..\arduinoLCD\test\Pain Drain\libraries\lvgl\src\draw\../misc/lv_color.h **** #if LV_COLOR_16_SWAP == 0
 132:..\..\..\arduinoLCD\test\Pain Drain\libraries\lvgl\src\draw\../misc/lv_color.h **** # define LV_COLOR_SET_G16(c, v) (c).ch.green = (uint8_t)((v) & 0x3FU)
 133:..\..\..\arduinoLCD\test\Pain Drain\libraries\lvgl\src\draw\../misc/lv_color.h **** #else
 134:..\..\..\arduinoLCD\test\Pain Drain\libraries\lvgl\src\draw\../misc/lv_color.h **** # define LV_COLOR_SET_G16(c, v) {(c).ch.green_h = (uint8_t)(((v) >> 3) & 0x7); (c).ch.green_l = (ui
 135:..\..\..\arduinoLCD\test\Pain Drain\libraries\lvgl\src\draw\../misc/lv_color.h **** #endif
 136:..\..\..\arduinoLCD\test\Pain Drain\libraries\lvgl\src\draw\../misc/lv_color.h **** # define LV_COLOR_SET_B16(c, v) (c).ch.blue = (uint8_t)((v) & 0x1FU)
 137:..\..\..\arduinoLCD\test\Pain Drain\libraries\lvgl\src\draw\../misc/lv_color.h **** # define LV_COLOR_SET_A16(c, v) do {} while(0)
 138:..\..\..\arduinoLCD\test\Pain Drain\libraries\lvgl\src\draw\../misc/lv_color.h **** 
 139:..\..\..\arduinoLCD\test\Pain Drain\libraries\lvgl\src\draw\../misc/lv_color.h **** # define LV_COLOR_GET_R16(c) (c).ch.red
 140:..\..\..\arduinoLCD\test\Pain Drain\libraries\lvgl\src\draw\../misc/lv_color.h **** #if LV_COLOR_16_SWAP == 0
 141:..\..\..\arduinoLCD\test\Pain Drain\libraries\lvgl\src\draw\../misc/lv_color.h **** # define LV_COLOR_GET_G16(c) (c).ch.green
 142:..\..\..\arduinoLCD\test\Pain Drain\libraries\lvgl\src\draw\../misc/lv_color.h **** #else
 143:..\..\..\arduinoLCD\test\Pain Drain\libraries\lvgl\src\draw\../misc/lv_color.h **** # define LV_COLOR_GET_G16(c) (((c).ch.green_h << 3) + (c).ch.green_l)
 144:..\..\..\arduinoLCD\test\Pain Drain\libraries\lvgl\src\draw\../misc/lv_color.h **** #endif
 145:..\..\..\arduinoLCD\test\Pain Drain\libraries\lvgl\src\draw\../misc/lv_color.h **** # define LV_COLOR_GET_B16(c) (c).ch.blue
 146:..\..\..\arduinoLCD\test\Pain Drain\libraries\lvgl\src\draw\../misc/lv_color.h **** # define LV_COLOR_GET_A16(c) 0xFF
 147:..\..\..\arduinoLCD\test\Pain Drain\libraries\lvgl\src\draw\../misc/lv_color.h **** 
 148:..\..\..\arduinoLCD\test\Pain Drain\libraries\lvgl\src\draw\../misc/lv_color.h **** #if LV_COLOR_16_SWAP == 0
 149:..\..\..\arduinoLCD\test\Pain Drain\libraries\lvgl\src\draw\../misc/lv_color.h **** # define _LV_COLOR_ZERO_INITIALIZER16  {{0x00, 0x00, 0x00}}
 150:..\..\..\arduinoLCD\test\Pain Drain\libraries\lvgl\src\draw\../misc/lv_color.h **** # define LV_COLOR_MAKE16(r8, g8, b8) {{(uint8_t)((b8 >> 3) & 0x1FU), (uint8_t)((g8 >> 2) & 0x3FU), 
 151:..\..\..\arduinoLCD\test\Pain Drain\libraries\lvgl\src\draw\../misc/lv_color.h **** #else
 152:..\..\..\arduinoLCD\test\Pain Drain\libraries\lvgl\src\draw\../misc/lv_color.h **** # define _LV_COLOR_ZERO_INITIALIZER16 {{0x00, 0x00, 0x00, 0x00}}
 153:..\..\..\arduinoLCD\test\Pain Drain\libraries\lvgl\src\draw\../misc/lv_color.h **** # define LV_COLOR_MAKE16(r8, g8, b8) {{(uint8_t)((g8 >> 5) & 0x7U), (uint8_t)((r8 >> 3) & 0x1FU), (
 154:..\..\..\arduinoLCD\test\Pain Drain\libraries\lvgl\src\draw\../misc/lv_color.h **** #endif
 155:..\..\..\arduinoLCD\test\Pain Drain\libraries\lvgl\src\draw\../misc/lv_color.h **** 
 156:..\..\..\arduinoLCD\test\Pain Drain\libraries\lvgl\src\draw\../misc/lv_color.h **** # define LV_COLOR_SET_R32(c, v) (c).ch.red = (uint8_t)((v) & 0xFF)
 157:..\..\..\arduinoLCD\test\Pain Drain\libraries\lvgl\src\draw\../misc/lv_color.h **** # define LV_COLOR_SET_G32(c, v) (c).ch.green = (uint8_t)((v) & 0xFF)
 158:..\..\..\arduinoLCD\test\Pain Drain\libraries\lvgl\src\draw\../misc/lv_color.h **** # define LV_COLOR_SET_B32(c, v) (c).ch.blue = (uint8_t)((v) & 0xFF)
 159:..\..\..\arduinoLCD\test\Pain Drain\libraries\lvgl\src\draw\../misc/lv_color.h **** # define LV_COLOR_SET_A32(c, v) (c).ch.alpha = (uint8_t)((v) & 0xFF)
 160:..\..\..\arduinoLCD\test\Pain Drain\libraries\lvgl\src\draw\../misc/lv_color.h **** 
 161:..\..\..\arduinoLCD\test\Pain Drain\libraries\lvgl\src\draw\../misc/lv_color.h **** # define LV_COLOR_GET_R32(c) (c).ch.red
 162:..\..\..\arduinoLCD\test\Pain Drain\libraries\lvgl\src\draw\../misc/lv_color.h **** # define LV_COLOR_GET_G32(c) (c).ch.green
 163:..\..\..\arduinoLCD\test\Pain Drain\libraries\lvgl\src\draw\../misc/lv_color.h **** # define LV_COLOR_GET_B32(c) (c).ch.blue
 164:..\..\..\arduinoLCD\test\Pain Drain\libraries\lvgl\src\draw\../misc/lv_color.h **** # define LV_COLOR_GET_A32(c) (c).ch.alpha
 165:..\..\..\arduinoLCD\test\Pain Drain\libraries\lvgl\src\draw\../misc/lv_color.h **** 
 166:..\..\..\arduinoLCD\test\Pain Drain\libraries\lvgl\src\draw\../misc/lv_color.h **** # define _LV_COLOR_ZERO_INITIALIZER32  {{0x00, 0x00, 0x00, 0x00}}
 167:..\..\..\arduinoLCD\test\Pain Drain\libraries\lvgl\src\draw\../misc/lv_color.h **** # define LV_COLOR_MAKE32(r8, g8, b8) {{b8, g8, r8, 0xff}} /*Fix 0xff alpha*/
 168:..\..\..\arduinoLCD\test\Pain Drain\libraries\lvgl\src\draw\../misc/lv_color.h **** 
 169:..\..\..\arduinoLCD\test\Pain Drain\libraries\lvgl\src\draw\../misc/lv_color.h **** /*---------------------------------------
 170:..\..\..\arduinoLCD\test\Pain Drain\libraries\lvgl\src\draw\../misc/lv_color.h ****  * Macros for the current color depth
 171:..\..\..\arduinoLCD\test\Pain Drain\libraries\lvgl\src\draw\../misc/lv_color.h ****  * to set/get values of the color channels
 172:..\..\..\arduinoLCD\test\Pain Drain\libraries\lvgl\src\draw\../misc/lv_color.h ****  *------------------------------------------*/
 173:..\..\..\arduinoLCD\test\Pain Drain\libraries\lvgl\src\draw\../misc/lv_color.h **** #define LV_COLOR_SET_R(c, v) LV_CONCAT(LV_COLOR_SET_R, LV_COLOR_DEPTH)(c, v)
 174:..\..\..\arduinoLCD\test\Pain Drain\libraries\lvgl\src\draw\../misc/lv_color.h **** #define LV_COLOR_SET_G(c, v) LV_CONCAT(LV_COLOR_SET_G, LV_COLOR_DEPTH)(c, v)
 175:..\..\..\arduinoLCD\test\Pain Drain\libraries\lvgl\src\draw\../misc/lv_color.h **** #define LV_COLOR_SET_B(c, v) LV_CONCAT(LV_COLOR_SET_B, LV_COLOR_DEPTH)(c, v)
 176:..\..\..\arduinoLCD\test\Pain Drain\libraries\lvgl\src\draw\../misc/lv_color.h **** #define LV_COLOR_SET_A(c, v) LV_CONCAT(LV_COLOR_SET_A, LV_COLOR_DEPTH)(c, v)
 177:..\..\..\arduinoLCD\test\Pain Drain\libraries\lvgl\src\draw\../misc/lv_color.h **** 
 178:..\..\..\arduinoLCD\test\Pain Drain\libraries\lvgl\src\draw\../misc/lv_color.h **** #define LV_COLOR_GET_R(c) LV_CONCAT(LV_COLOR_GET_R, LV_COLOR_DEPTH)(c)
 179:..\..\..\arduinoLCD\test\Pain Drain\libraries\lvgl\src\draw\../misc/lv_color.h **** #define LV_COLOR_GET_G(c) LV_CONCAT(LV_COLOR_GET_G, LV_COLOR_DEPTH)(c)
 180:..\..\..\arduinoLCD\test\Pain Drain\libraries\lvgl\src\draw\../misc/lv_color.h **** #define LV_COLOR_GET_B(c) LV_CONCAT(LV_COLOR_GET_B, LV_COLOR_DEPTH)(c)
 181:..\..\..\arduinoLCD\test\Pain Drain\libraries\lvgl\src\draw\../misc/lv_color.h **** #define LV_COLOR_GET_A(c) LV_CONCAT(LV_COLOR_GET_A, LV_COLOR_DEPTH)(c)
 182:..\..\..\arduinoLCD\test\Pain Drain\libraries\lvgl\src\draw\../misc/lv_color.h **** 
 183:..\..\..\arduinoLCD\test\Pain Drain\libraries\lvgl\src\draw\../misc/lv_color.h **** #define _LV_COLOR_ZERO_INITIALIZER LV_CONCAT(_LV_COLOR_ZERO_INITIALIZER, LV_COLOR_DEPTH)
 184:..\..\..\arduinoLCD\test\Pain Drain\libraries\lvgl\src\draw\../misc/lv_color.h **** #define LV_COLOR_MAKE(r8, g8, b8) LV_CONCAT(LV_COLOR_MAKE, LV_COLOR_DEPTH)(r8, g8, b8)
 185:..\..\..\arduinoLCD\test\Pain Drain\libraries\lvgl\src\draw\../misc/lv_color.h **** 
 186:..\..\..\arduinoLCD\test\Pain Drain\libraries\lvgl\src\draw\../misc/lv_color.h **** /**********************
ARM GAS  C:\Users\haske\AppData\Local\Temp\ccF9IbRI.s 			page 6


 187:..\..\..\arduinoLCD\test\Pain Drain\libraries\lvgl\src\draw\../misc/lv_color.h ****  *      TYPEDEFS
 188:..\..\..\arduinoLCD\test\Pain Drain\libraries\lvgl\src\draw\../misc/lv_color.h ****  **********************/
 189:..\..\..\arduinoLCD\test\Pain Drain\libraries\lvgl\src\draw\../misc/lv_color.h **** 
 190:..\..\..\arduinoLCD\test\Pain Drain\libraries\lvgl\src\draw\../misc/lv_color.h **** typedef union {
 191:..\..\..\arduinoLCD\test\Pain Drain\libraries\lvgl\src\draw\../misc/lv_color.h ****     uint8_t full; /*must be declared first to set all bits of byte via initializer list*/
 192:..\..\..\arduinoLCD\test\Pain Drain\libraries\lvgl\src\draw\../misc/lv_color.h ****     union {
 193:..\..\..\arduinoLCD\test\Pain Drain\libraries\lvgl\src\draw\../misc/lv_color.h ****         uint8_t blue : 1;
 194:..\..\..\arduinoLCD\test\Pain Drain\libraries\lvgl\src\draw\../misc/lv_color.h ****         uint8_t green : 1;
 195:..\..\..\arduinoLCD\test\Pain Drain\libraries\lvgl\src\draw\../misc/lv_color.h ****         uint8_t red : 1;
 196:..\..\..\arduinoLCD\test\Pain Drain\libraries\lvgl\src\draw\../misc/lv_color.h ****     } ch;
 197:..\..\..\arduinoLCD\test\Pain Drain\libraries\lvgl\src\draw\../misc/lv_color.h **** } lv_color1_t;
 198:..\..\..\arduinoLCD\test\Pain Drain\libraries\lvgl\src\draw\../misc/lv_color.h **** 
 199:..\..\..\arduinoLCD\test\Pain Drain\libraries\lvgl\src\draw\../misc/lv_color.h **** typedef union {
 200:..\..\..\arduinoLCD\test\Pain Drain\libraries\lvgl\src\draw\../misc/lv_color.h ****     struct {
 201:..\..\..\arduinoLCD\test\Pain Drain\libraries\lvgl\src\draw\../misc/lv_color.h ****         uint8_t blue : 2;
 202:..\..\..\arduinoLCD\test\Pain Drain\libraries\lvgl\src\draw\../misc/lv_color.h ****         uint8_t green : 3;
 203:..\..\..\arduinoLCD\test\Pain Drain\libraries\lvgl\src\draw\../misc/lv_color.h ****         uint8_t red : 3;
 204:..\..\..\arduinoLCD\test\Pain Drain\libraries\lvgl\src\draw\../misc/lv_color.h ****     } ch;
 205:..\..\..\arduinoLCD\test\Pain Drain\libraries\lvgl\src\draw\../misc/lv_color.h ****     uint8_t full;
 206:..\..\..\arduinoLCD\test\Pain Drain\libraries\lvgl\src\draw\../misc/lv_color.h **** } lv_color8_t;
 207:..\..\..\arduinoLCD\test\Pain Drain\libraries\lvgl\src\draw\../misc/lv_color.h **** 
 208:..\..\..\arduinoLCD\test\Pain Drain\libraries\lvgl\src\draw\../misc/lv_color.h **** typedef union {
 209:..\..\..\arduinoLCD\test\Pain Drain\libraries\lvgl\src\draw\../misc/lv_color.h ****     struct {
 210:..\..\..\arduinoLCD\test\Pain Drain\libraries\lvgl\src\draw\../misc/lv_color.h **** #if LV_COLOR_16_SWAP == 0
 211:..\..\..\arduinoLCD\test\Pain Drain\libraries\lvgl\src\draw\../misc/lv_color.h ****         uint16_t blue : 5;
 212:..\..\..\arduinoLCD\test\Pain Drain\libraries\lvgl\src\draw\../misc/lv_color.h ****         uint16_t green : 6;
 213:..\..\..\arduinoLCD\test\Pain Drain\libraries\lvgl\src\draw\../misc/lv_color.h ****         uint16_t red : 5;
 214:..\..\..\arduinoLCD\test\Pain Drain\libraries\lvgl\src\draw\../misc/lv_color.h **** #else
 215:..\..\..\arduinoLCD\test\Pain Drain\libraries\lvgl\src\draw\../misc/lv_color.h ****         uint16_t green_h : 3;
 216:..\..\..\arduinoLCD\test\Pain Drain\libraries\lvgl\src\draw\../misc/lv_color.h ****         uint16_t red : 5;
 217:..\..\..\arduinoLCD\test\Pain Drain\libraries\lvgl\src\draw\../misc/lv_color.h ****         uint16_t blue : 5;
 218:..\..\..\arduinoLCD\test\Pain Drain\libraries\lvgl\src\draw\../misc/lv_color.h ****         uint16_t green_l : 3;
 219:..\..\..\arduinoLCD\test\Pain Drain\libraries\lvgl\src\draw\../misc/lv_color.h **** #endif
 220:..\..\..\arduinoLCD\test\Pain Drain\libraries\lvgl\src\draw\../misc/lv_color.h ****     } ch;
 221:..\..\..\arduinoLCD\test\Pain Drain\libraries\lvgl\src\draw\../misc/lv_color.h ****     uint16_t full;
 222:..\..\..\arduinoLCD\test\Pain Drain\libraries\lvgl\src\draw\../misc/lv_color.h **** } lv_color16_t;
 223:..\..\..\arduinoLCD\test\Pain Drain\libraries\lvgl\src\draw\../misc/lv_color.h **** 
 224:..\..\..\arduinoLCD\test\Pain Drain\libraries\lvgl\src\draw\../misc/lv_color.h **** typedef union {
 225:..\..\..\arduinoLCD\test\Pain Drain\libraries\lvgl\src\draw\../misc/lv_color.h ****     struct {
 226:..\..\..\arduinoLCD\test\Pain Drain\libraries\lvgl\src\draw\../misc/lv_color.h ****         uint8_t blue;
 227:..\..\..\arduinoLCD\test\Pain Drain\libraries\lvgl\src\draw\../misc/lv_color.h ****         uint8_t green;
 228:..\..\..\arduinoLCD\test\Pain Drain\libraries\lvgl\src\draw\../misc/lv_color.h ****         uint8_t red;
 229:..\..\..\arduinoLCD\test\Pain Drain\libraries\lvgl\src\draw\../misc/lv_color.h ****         uint8_t alpha;
 230:..\..\..\arduinoLCD\test\Pain Drain\libraries\lvgl\src\draw\../misc/lv_color.h ****     } ch;
 231:..\..\..\arduinoLCD\test\Pain Drain\libraries\lvgl\src\draw\../misc/lv_color.h ****     uint32_t full;
 232:..\..\..\arduinoLCD\test\Pain Drain\libraries\lvgl\src\draw\../misc/lv_color.h **** } lv_color32_t;
 233:..\..\..\arduinoLCD\test\Pain Drain\libraries\lvgl\src\draw\../misc/lv_color.h **** 
 234:..\..\..\arduinoLCD\test\Pain Drain\libraries\lvgl\src\draw\../misc/lv_color.h **** typedef LV_CONCAT3(uint, LV_COLOR_SIZE, _t) lv_color_int_t;
 235:..\..\..\arduinoLCD\test\Pain Drain\libraries\lvgl\src\draw\../misc/lv_color.h **** typedef LV_CONCAT3(lv_color, LV_COLOR_DEPTH, _t) lv_color_t;
 236:..\..\..\arduinoLCD\test\Pain Drain\libraries\lvgl\src\draw\../misc/lv_color.h **** 
 237:..\..\..\arduinoLCD\test\Pain Drain\libraries\lvgl\src\draw\../misc/lv_color.h **** typedef struct {
 238:..\..\..\arduinoLCD\test\Pain Drain\libraries\lvgl\src\draw\../misc/lv_color.h ****     uint16_t h;
 239:..\..\..\arduinoLCD\test\Pain Drain\libraries\lvgl\src\draw\../misc/lv_color.h ****     uint8_t s;
 240:..\..\..\arduinoLCD\test\Pain Drain\libraries\lvgl\src\draw\../misc/lv_color.h ****     uint8_t v;
 241:..\..\..\arduinoLCD\test\Pain Drain\libraries\lvgl\src\draw\../misc/lv_color.h **** } lv_color_hsv_t;
 242:..\..\..\arduinoLCD\test\Pain Drain\libraries\lvgl\src\draw\../misc/lv_color.h **** 
 243:..\..\..\arduinoLCD\test\Pain Drain\libraries\lvgl\src\draw\../misc/lv_color.h **** //! @cond Doxygen_Suppress
ARM GAS  C:\Users\haske\AppData\Local\Temp\ccF9IbRI.s 			page 7


 244:..\..\..\arduinoLCD\test\Pain Drain\libraries\lvgl\src\draw\../misc/lv_color.h **** /*No idea where the guard is required but else throws warnings in the docs*/
 245:..\..\..\arduinoLCD\test\Pain Drain\libraries\lvgl\src\draw\../misc/lv_color.h **** typedef uint8_t lv_opa_t;
 246:..\..\..\arduinoLCD\test\Pain Drain\libraries\lvgl\src\draw\../misc/lv_color.h **** //! @endcond
 247:..\..\..\arduinoLCD\test\Pain Drain\libraries\lvgl\src\draw\../misc/lv_color.h **** 
 248:..\..\..\arduinoLCD\test\Pain Drain\libraries\lvgl\src\draw\../misc/lv_color.h **** struct _lv_color_filter_dsc_t;
 249:..\..\..\arduinoLCD\test\Pain Drain\libraries\lvgl\src\draw\../misc/lv_color.h **** 
 250:..\..\..\arduinoLCD\test\Pain Drain\libraries\lvgl\src\draw\../misc/lv_color.h **** typedef lv_color_t (*lv_color_filter_cb_t)(const struct _lv_color_filter_dsc_t *, lv_color_t, lv_op
 251:..\..\..\arduinoLCD\test\Pain Drain\libraries\lvgl\src\draw\../misc/lv_color.h **** 
 252:..\..\..\arduinoLCD\test\Pain Drain\libraries\lvgl\src\draw\../misc/lv_color.h **** typedef struct _lv_color_filter_dsc_t {
 253:..\..\..\arduinoLCD\test\Pain Drain\libraries\lvgl\src\draw\../misc/lv_color.h ****     lv_color_filter_cb_t filter_cb;
 254:..\..\..\arduinoLCD\test\Pain Drain\libraries\lvgl\src\draw\../misc/lv_color.h ****     void * user_data;
 255:..\..\..\arduinoLCD\test\Pain Drain\libraries\lvgl\src\draw\../misc/lv_color.h **** } lv_color_filter_dsc_t;
 256:..\..\..\arduinoLCD\test\Pain Drain\libraries\lvgl\src\draw\../misc/lv_color.h **** 
 257:..\..\..\arduinoLCD\test\Pain Drain\libraries\lvgl\src\draw\../misc/lv_color.h **** 
 258:..\..\..\arduinoLCD\test\Pain Drain\libraries\lvgl\src\draw\../misc/lv_color.h **** typedef enum {
 259:..\..\..\arduinoLCD\test\Pain Drain\libraries\lvgl\src\draw\../misc/lv_color.h ****     LV_PALETTE_RED,
 260:..\..\..\arduinoLCD\test\Pain Drain\libraries\lvgl\src\draw\../misc/lv_color.h ****     LV_PALETTE_PINK,
 261:..\..\..\arduinoLCD\test\Pain Drain\libraries\lvgl\src\draw\../misc/lv_color.h ****     LV_PALETTE_PURPLE,
 262:..\..\..\arduinoLCD\test\Pain Drain\libraries\lvgl\src\draw\../misc/lv_color.h ****     LV_PALETTE_DEEP_PURPLE,
 263:..\..\..\arduinoLCD\test\Pain Drain\libraries\lvgl\src\draw\../misc/lv_color.h ****     LV_PALETTE_INDIGO,
 264:..\..\..\arduinoLCD\test\Pain Drain\libraries\lvgl\src\draw\../misc/lv_color.h ****     LV_PALETTE_BLUE,
 265:..\..\..\arduinoLCD\test\Pain Drain\libraries\lvgl\src\draw\../misc/lv_color.h ****     LV_PALETTE_LIGHT_BLUE,
 266:..\..\..\arduinoLCD\test\Pain Drain\libraries\lvgl\src\draw\../misc/lv_color.h ****     LV_PALETTE_CYAN,
 267:..\..\..\arduinoLCD\test\Pain Drain\libraries\lvgl\src\draw\../misc/lv_color.h ****     LV_PALETTE_TEAL,
 268:..\..\..\arduinoLCD\test\Pain Drain\libraries\lvgl\src\draw\../misc/lv_color.h ****     LV_PALETTE_GREEN,
 269:..\..\..\arduinoLCD\test\Pain Drain\libraries\lvgl\src\draw\../misc/lv_color.h ****     LV_PALETTE_LIGHT_GREEN,
 270:..\..\..\arduinoLCD\test\Pain Drain\libraries\lvgl\src\draw\../misc/lv_color.h ****     LV_PALETTE_LIME,
 271:..\..\..\arduinoLCD\test\Pain Drain\libraries\lvgl\src\draw\../misc/lv_color.h ****     LV_PALETTE_YELLOW,
 272:..\..\..\arduinoLCD\test\Pain Drain\libraries\lvgl\src\draw\../misc/lv_color.h ****     LV_PALETTE_AMBER,
 273:..\..\..\arduinoLCD\test\Pain Drain\libraries\lvgl\src\draw\../misc/lv_color.h ****     LV_PALETTE_ORANGE,
 274:..\..\..\arduinoLCD\test\Pain Drain\libraries\lvgl\src\draw\../misc/lv_color.h ****     LV_PALETTE_DEEP_ORANGE,
 275:..\..\..\arduinoLCD\test\Pain Drain\libraries\lvgl\src\draw\../misc/lv_color.h ****     LV_PALETTE_BROWN,
 276:..\..\..\arduinoLCD\test\Pain Drain\libraries\lvgl\src\draw\../misc/lv_color.h ****     LV_PALETTE_BLUE_GREY,
 277:..\..\..\arduinoLCD\test\Pain Drain\libraries\lvgl\src\draw\../misc/lv_color.h ****     LV_PALETTE_GREY,
 278:..\..\..\arduinoLCD\test\Pain Drain\libraries\lvgl\src\draw\../misc/lv_color.h ****     _LV_PALETTE_LAST,
 279:..\..\..\arduinoLCD\test\Pain Drain\libraries\lvgl\src\draw\../misc/lv_color.h ****     LV_PALETTE_NONE = 0xff,
 280:..\..\..\arduinoLCD\test\Pain Drain\libraries\lvgl\src\draw\../misc/lv_color.h **** } lv_palette_t;
 281:..\..\..\arduinoLCD\test\Pain Drain\libraries\lvgl\src\draw\../misc/lv_color.h **** 
 282:..\..\..\arduinoLCD\test\Pain Drain\libraries\lvgl\src\draw\../misc/lv_color.h **** /**********************
 283:..\..\..\arduinoLCD\test\Pain Drain\libraries\lvgl\src\draw\../misc/lv_color.h ****  * GLOBAL PROTOTYPES
 284:..\..\..\arduinoLCD\test\Pain Drain\libraries\lvgl\src\draw\../misc/lv_color.h ****  **********************/
 285:..\..\..\arduinoLCD\test\Pain Drain\libraries\lvgl\src\draw\../misc/lv_color.h **** 
 286:..\..\..\arduinoLCD\test\Pain Drain\libraries\lvgl\src\draw\../misc/lv_color.h **** /*In color conversations:
 287:..\..\..\arduinoLCD\test\Pain Drain\libraries\lvgl\src\draw\../misc/lv_color.h ****  * - When converting to bigger color type the LSB weight of 1 LSB is calculated
 288:..\..\..\arduinoLCD\test\Pain Drain\libraries\lvgl\src\draw\../misc/lv_color.h ****  *   E.g. 16 bit Red has 5 bits
 289:..\..\..\arduinoLCD\test\Pain Drain\libraries\lvgl\src\draw\../misc/lv_color.h ****  *         8 bit Red has 3 bits
 290:..\..\..\arduinoLCD\test\Pain Drain\libraries\lvgl\src\draw\../misc/lv_color.h ****  *        ----------------------
 291:..\..\..\arduinoLCD\test\Pain Drain\libraries\lvgl\src\draw\../misc/lv_color.h ****  *        8 bit red LSB = (2^5 - 1) / (2^3 - 1) = 31 / 7 = 4
 292:..\..\..\arduinoLCD\test\Pain Drain\libraries\lvgl\src\draw\../misc/lv_color.h ****  *
 293:..\..\..\arduinoLCD\test\Pain Drain\libraries\lvgl\src\draw\../misc/lv_color.h ****  * - When calculating to smaller color type simply shift out the LSBs
 294:..\..\..\arduinoLCD\test\Pain Drain\libraries\lvgl\src\draw\../misc/lv_color.h ****  *   E.g.  8 bit Red has 3 bits
 295:..\..\..\arduinoLCD\test\Pain Drain\libraries\lvgl\src\draw\../misc/lv_color.h ****  *        16 bit Red has 5 bits
 296:..\..\..\arduinoLCD\test\Pain Drain\libraries\lvgl\src\draw\../misc/lv_color.h ****  *        ----------------------
 297:..\..\..\arduinoLCD\test\Pain Drain\libraries\lvgl\src\draw\../misc/lv_color.h ****  *         Shift right with 5 - 3 = 2
 298:..\..\..\arduinoLCD\test\Pain Drain\libraries\lvgl\src\draw\../misc/lv_color.h ****  */
 299:..\..\..\arduinoLCD\test\Pain Drain\libraries\lvgl\src\draw\../misc/lv_color.h **** static inline uint8_t lv_color_to1(lv_color_t color)
 300:..\..\..\arduinoLCD\test\Pain Drain\libraries\lvgl\src\draw\../misc/lv_color.h **** {
ARM GAS  C:\Users\haske\AppData\Local\Temp\ccF9IbRI.s 			page 8


 301:..\..\..\arduinoLCD\test\Pain Drain\libraries\lvgl\src\draw\../misc/lv_color.h **** #if LV_COLOR_DEPTH == 1
 302:..\..\..\arduinoLCD\test\Pain Drain\libraries\lvgl\src\draw\../misc/lv_color.h ****     return color.full;
 303:..\..\..\arduinoLCD\test\Pain Drain\libraries\lvgl\src\draw\../misc/lv_color.h **** #elif LV_COLOR_DEPTH == 8
 304:..\..\..\arduinoLCD\test\Pain Drain\libraries\lvgl\src\draw\../misc/lv_color.h ****     if((LV_COLOR_GET_R(color) & 0x4) || (LV_COLOR_GET_G(color) & 0x4) || (LV_COLOR_GET_B(color) & 0
 305:..\..\..\arduinoLCD\test\Pain Drain\libraries\lvgl\src\draw\../misc/lv_color.h ****         return 1;
 306:..\..\..\arduinoLCD\test\Pain Drain\libraries\lvgl\src\draw\../misc/lv_color.h ****     }
 307:..\..\..\arduinoLCD\test\Pain Drain\libraries\lvgl\src\draw\../misc/lv_color.h ****     else {
 308:..\..\..\arduinoLCD\test\Pain Drain\libraries\lvgl\src\draw\../misc/lv_color.h ****         return 0;
 309:..\..\..\arduinoLCD\test\Pain Drain\libraries\lvgl\src\draw\../misc/lv_color.h ****     }
 310:..\..\..\arduinoLCD\test\Pain Drain\libraries\lvgl\src\draw\../misc/lv_color.h **** #elif LV_COLOR_DEPTH == 16
 311:..\..\..\arduinoLCD\test\Pain Drain\libraries\lvgl\src\draw\../misc/lv_color.h ****     if((LV_COLOR_GET_R(color) & 0x10) || (LV_COLOR_GET_G(color) & 0x20) || (LV_COLOR_GET_B(color) &
 312:..\..\..\arduinoLCD\test\Pain Drain\libraries\lvgl\src\draw\../misc/lv_color.h ****         return 1;
 313:..\..\..\arduinoLCD\test\Pain Drain\libraries\lvgl\src\draw\../misc/lv_color.h ****     }
 314:..\..\..\arduinoLCD\test\Pain Drain\libraries\lvgl\src\draw\../misc/lv_color.h ****     else {
 315:..\..\..\arduinoLCD\test\Pain Drain\libraries\lvgl\src\draw\../misc/lv_color.h ****         return 0;
 316:..\..\..\arduinoLCD\test\Pain Drain\libraries\lvgl\src\draw\../misc/lv_color.h ****     }
 317:..\..\..\arduinoLCD\test\Pain Drain\libraries\lvgl\src\draw\../misc/lv_color.h **** #elif LV_COLOR_DEPTH == 32
 318:..\..\..\arduinoLCD\test\Pain Drain\libraries\lvgl\src\draw\../misc/lv_color.h ****     if((LV_COLOR_GET_R(color) & 0x80) || (LV_COLOR_GET_G(color) & 0x80) || (LV_COLOR_GET_B(color) &
 319:..\..\..\arduinoLCD\test\Pain Drain\libraries\lvgl\src\draw\../misc/lv_color.h ****         return 1;
 320:..\..\..\arduinoLCD\test\Pain Drain\libraries\lvgl\src\draw\../misc/lv_color.h ****     }
 321:..\..\..\arduinoLCD\test\Pain Drain\libraries\lvgl\src\draw\../misc/lv_color.h ****     else {
 322:..\..\..\arduinoLCD\test\Pain Drain\libraries\lvgl\src\draw\../misc/lv_color.h ****         return 0;
 323:..\..\..\arduinoLCD\test\Pain Drain\libraries\lvgl\src\draw\../misc/lv_color.h ****     }
 324:..\..\..\arduinoLCD\test\Pain Drain\libraries\lvgl\src\draw\../misc/lv_color.h **** #endif
 325:..\..\..\arduinoLCD\test\Pain Drain\libraries\lvgl\src\draw\../misc/lv_color.h **** }
 326:..\..\..\arduinoLCD\test\Pain Drain\libraries\lvgl\src\draw\../misc/lv_color.h **** 
 327:..\..\..\arduinoLCD\test\Pain Drain\libraries\lvgl\src\draw\../misc/lv_color.h **** static inline uint8_t lv_color_to8(lv_color_t color)
 328:..\..\..\arduinoLCD\test\Pain Drain\libraries\lvgl\src\draw\../misc/lv_color.h **** {
 329:..\..\..\arduinoLCD\test\Pain Drain\libraries\lvgl\src\draw\../misc/lv_color.h **** #if LV_COLOR_DEPTH == 1
 330:..\..\..\arduinoLCD\test\Pain Drain\libraries\lvgl\src\draw\../misc/lv_color.h ****     if(color.full == 0)
 331:..\..\..\arduinoLCD\test\Pain Drain\libraries\lvgl\src\draw\../misc/lv_color.h ****         return 0;
 332:..\..\..\arduinoLCD\test\Pain Drain\libraries\lvgl\src\draw\../misc/lv_color.h ****     else
 333:..\..\..\arduinoLCD\test\Pain Drain\libraries\lvgl\src\draw\../misc/lv_color.h ****         return 0xFF;
 334:..\..\..\arduinoLCD\test\Pain Drain\libraries\lvgl\src\draw\../misc/lv_color.h **** #elif LV_COLOR_DEPTH == 8
 335:..\..\..\arduinoLCD\test\Pain Drain\libraries\lvgl\src\draw\../misc/lv_color.h ****     return color.full;
 336:..\..\..\arduinoLCD\test\Pain Drain\libraries\lvgl\src\draw\../misc/lv_color.h **** #elif LV_COLOR_DEPTH == 16
 337:..\..\..\arduinoLCD\test\Pain Drain\libraries\lvgl\src\draw\../misc/lv_color.h ****     lv_color8_t ret;
 338:..\..\..\arduinoLCD\test\Pain Drain\libraries\lvgl\src\draw\../misc/lv_color.h ****     LV_COLOR_SET_R8(ret, LV_COLOR_GET_R(color) >> 2); /*5 - 3  = 2*/
 339:..\..\..\arduinoLCD\test\Pain Drain\libraries\lvgl\src\draw\../misc/lv_color.h ****     LV_COLOR_SET_G8(ret, LV_COLOR_GET_G(color) >> 3); /*6 - 3  = 3*/
 340:..\..\..\arduinoLCD\test\Pain Drain\libraries\lvgl\src\draw\../misc/lv_color.h ****     LV_COLOR_SET_B8(ret, LV_COLOR_GET_B(color) >> 3); /*5 - 2  = 3*/
 341:..\..\..\arduinoLCD\test\Pain Drain\libraries\lvgl\src\draw\../misc/lv_color.h ****     return ret.full;
 342:..\..\..\arduinoLCD\test\Pain Drain\libraries\lvgl\src\draw\../misc/lv_color.h **** #elif LV_COLOR_DEPTH == 32
 343:..\..\..\arduinoLCD\test\Pain Drain\libraries\lvgl\src\draw\../misc/lv_color.h ****     lv_color8_t ret;
 344:..\..\..\arduinoLCD\test\Pain Drain\libraries\lvgl\src\draw\../misc/lv_color.h ****     LV_COLOR_SET_R8(ret, LV_COLOR_GET_R(color) >> 5); /*8 - 3  = 5*/
 345:..\..\..\arduinoLCD\test\Pain Drain\libraries\lvgl\src\draw\../misc/lv_color.h ****     LV_COLOR_SET_G8(ret, LV_COLOR_GET_G(color) >> 5); /*8 - 3  = 5*/
 346:..\..\..\arduinoLCD\test\Pain Drain\libraries\lvgl\src\draw\../misc/lv_color.h ****     LV_COLOR_SET_B8(ret, LV_COLOR_GET_B(color) >> 6); /*8 - 2  = 6*/
 347:..\..\..\arduinoLCD\test\Pain Drain\libraries\lvgl\src\draw\../misc/lv_color.h ****     return ret.full;
 348:..\..\..\arduinoLCD\test\Pain Drain\libraries\lvgl\src\draw\../misc/lv_color.h **** #endif
 349:..\..\..\arduinoLCD\test\Pain Drain\libraries\lvgl\src\draw\../misc/lv_color.h **** }
 350:..\..\..\arduinoLCD\test\Pain Drain\libraries\lvgl\src\draw\../misc/lv_color.h **** 
 351:..\..\..\arduinoLCD\test\Pain Drain\libraries\lvgl\src\draw\../misc/lv_color.h **** static inline uint16_t lv_color_to16(lv_color_t color)
 352:..\..\..\arduinoLCD\test\Pain Drain\libraries\lvgl\src\draw\../misc/lv_color.h **** {
 353:..\..\..\arduinoLCD\test\Pain Drain\libraries\lvgl\src\draw\../misc/lv_color.h **** #if LV_COLOR_DEPTH == 1
 354:..\..\..\arduinoLCD\test\Pain Drain\libraries\lvgl\src\draw\../misc/lv_color.h ****     if(color.full == 0)
 355:..\..\..\arduinoLCD\test\Pain Drain\libraries\lvgl\src\draw\../misc/lv_color.h ****         return 0;
 356:..\..\..\arduinoLCD\test\Pain Drain\libraries\lvgl\src\draw\../misc/lv_color.h ****     else
 357:..\..\..\arduinoLCD\test\Pain Drain\libraries\lvgl\src\draw\../misc/lv_color.h ****         return 0xFFFF;
ARM GAS  C:\Users\haske\AppData\Local\Temp\ccF9IbRI.s 			page 9


 358:..\..\..\arduinoLCD\test\Pain Drain\libraries\lvgl\src\draw\../misc/lv_color.h **** #elif LV_COLOR_DEPTH == 8
 359:..\..\..\arduinoLCD\test\Pain Drain\libraries\lvgl\src\draw\../misc/lv_color.h ****     lv_color16_t ret;
 360:..\..\..\arduinoLCD\test\Pain Drain\libraries\lvgl\src\draw\../misc/lv_color.h ****     LV_COLOR_SET_R16(ret, LV_COLOR_GET_R(color) * 4);  /*(2^5 - 1)/(2^3 - 1) = 31/7 = 4*/
 361:..\..\..\arduinoLCD\test\Pain Drain\libraries\lvgl\src\draw\../misc/lv_color.h ****     LV_COLOR_SET_G16(ret, LV_COLOR_GET_G(color) * 9);  /*(2^6 - 1)/(2^3 - 1) = 63/7 = 9*/
 362:..\..\..\arduinoLCD\test\Pain Drain\libraries\lvgl\src\draw\../misc/lv_color.h ****     LV_COLOR_SET_B16(ret, LV_COLOR_GET_B(color) * 10); /*(2^5 - 1)/(2^2 - 1) = 31/3 = 10*/
 363:..\..\..\arduinoLCD\test\Pain Drain\libraries\lvgl\src\draw\../misc/lv_color.h ****     return ret.full;
 364:..\..\..\arduinoLCD\test\Pain Drain\libraries\lvgl\src\draw\../misc/lv_color.h **** #elif LV_COLOR_DEPTH == 16
 365:..\..\..\arduinoLCD\test\Pain Drain\libraries\lvgl\src\draw\../misc/lv_color.h ****     return color.full;
 366:..\..\..\arduinoLCD\test\Pain Drain\libraries\lvgl\src\draw\../misc/lv_color.h **** #elif LV_COLOR_DEPTH == 32
 367:..\..\..\arduinoLCD\test\Pain Drain\libraries\lvgl\src\draw\../misc/lv_color.h ****     lv_color16_t ret;
 368:..\..\..\arduinoLCD\test\Pain Drain\libraries\lvgl\src\draw\../misc/lv_color.h ****     LV_COLOR_SET_R16(ret, LV_COLOR_GET_R(color) >> 3); /*8 - 5  = 3*/
 369:..\..\..\arduinoLCD\test\Pain Drain\libraries\lvgl\src\draw\../misc/lv_color.h ****     LV_COLOR_SET_G16(ret, LV_COLOR_GET_G(color) >> 2); /*8 - 6  = 2*/
 370:..\..\..\arduinoLCD\test\Pain Drain\libraries\lvgl\src\draw\../misc/lv_color.h ****     LV_COLOR_SET_B16(ret, LV_COLOR_GET_B(color) >> 3); /*8 - 5  = 3*/
 371:..\..\..\arduinoLCD\test\Pain Drain\libraries\lvgl\src\draw\../misc/lv_color.h ****     return ret.full;
 372:..\..\..\arduinoLCD\test\Pain Drain\libraries\lvgl\src\draw\../misc/lv_color.h **** #endif
 373:..\..\..\arduinoLCD\test\Pain Drain\libraries\lvgl\src\draw\../misc/lv_color.h **** }
 374:..\..\..\arduinoLCD\test\Pain Drain\libraries\lvgl\src\draw\../misc/lv_color.h **** 
 375:..\..\..\arduinoLCD\test\Pain Drain\libraries\lvgl\src\draw\../misc/lv_color.h **** static inline uint32_t lv_color_to32(lv_color_t color)
 376:..\..\..\arduinoLCD\test\Pain Drain\libraries\lvgl\src\draw\../misc/lv_color.h **** {
 377:..\..\..\arduinoLCD\test\Pain Drain\libraries\lvgl\src\draw\../misc/lv_color.h **** #if LV_COLOR_DEPTH == 1
 378:..\..\..\arduinoLCD\test\Pain Drain\libraries\lvgl\src\draw\../misc/lv_color.h ****     if(color.full == 0)
 379:..\..\..\arduinoLCD\test\Pain Drain\libraries\lvgl\src\draw\../misc/lv_color.h ****         return 0xFF000000;
 380:..\..\..\arduinoLCD\test\Pain Drain\libraries\lvgl\src\draw\../misc/lv_color.h ****     else
 381:..\..\..\arduinoLCD\test\Pain Drain\libraries\lvgl\src\draw\../misc/lv_color.h ****         return 0xFFFFFFFF;
 382:..\..\..\arduinoLCD\test\Pain Drain\libraries\lvgl\src\draw\../misc/lv_color.h **** #elif LV_COLOR_DEPTH == 8
 383:..\..\..\arduinoLCD\test\Pain Drain\libraries\lvgl\src\draw\../misc/lv_color.h ****     lv_color32_t ret;
 384:..\..\..\arduinoLCD\test\Pain Drain\libraries\lvgl\src\draw\../misc/lv_color.h ****     LV_COLOR_SET_R32(ret, LV_COLOR_GET_R(color) * 36); /*(2^8 - 1)/(2^3 - 1) = 255/7 = 36*/
 385:..\..\..\arduinoLCD\test\Pain Drain\libraries\lvgl\src\draw\../misc/lv_color.h ****     LV_COLOR_SET_G32(ret, LV_COLOR_GET_G(color) * 36); /*(2^8 - 1)/(2^3 - 1) = 255/7 = 36*/
 386:..\..\..\arduinoLCD\test\Pain Drain\libraries\lvgl\src\draw\../misc/lv_color.h ****     LV_COLOR_SET_B32(ret, LV_COLOR_GET_B(color) * 85); /*(2^8 - 1)/(2^2 - 1) = 255/3 = 85*/
 387:..\..\..\arduinoLCD\test\Pain Drain\libraries\lvgl\src\draw\../misc/lv_color.h ****     LV_COLOR_SET_A32(ret, 0xFF);
 388:..\..\..\arduinoLCD\test\Pain Drain\libraries\lvgl\src\draw\../misc/lv_color.h ****     return ret.full;
 389:..\..\..\arduinoLCD\test\Pain Drain\libraries\lvgl\src\draw\../misc/lv_color.h **** #elif LV_COLOR_DEPTH == 16
 390:..\..\..\arduinoLCD\test\Pain Drain\libraries\lvgl\src\draw\../misc/lv_color.h ****     /**
 391:..\..\..\arduinoLCD\test\Pain Drain\libraries\lvgl\src\draw\../misc/lv_color.h ****      * The floating point math for conversion is:
 392:..\..\..\arduinoLCD\test\Pain Drain\libraries\lvgl\src\draw\../misc/lv_color.h ****      *  valueto = valuefrom * ( (2^bitsto - 1) / (float)(2^bitsfrom - 1) )
 393:..\..\..\arduinoLCD\test\Pain Drain\libraries\lvgl\src\draw\../misc/lv_color.h ****      * The faster integer math for conversion is:
 394:..\..\..\arduinoLCD\test\Pain Drain\libraries\lvgl\src\draw\../misc/lv_color.h ****      *  valueto = ( valuefrom * multiplier + adder ) >> divisor
 395:..\..\..\arduinoLCD\test\Pain Drain\libraries\lvgl\src\draw\../misc/lv_color.h ****      *   multiplier = FLOOR( ( (2^bitsto - 1) << divisor ) / (float)(2^bitsfrom - 1) )
 396:..\..\..\arduinoLCD\test\Pain Drain\libraries\lvgl\src\draw\../misc/lv_color.h ****      *
 397:..\..\..\arduinoLCD\test\Pain Drain\libraries\lvgl\src\draw\../misc/lv_color.h ****      * Find the first divisor where ( adder >> divisor ) <= 0
 398:..\..\..\arduinoLCD\test\Pain Drain\libraries\lvgl\src\draw\../misc/lv_color.h ****      *
 399:..\..\..\arduinoLCD\test\Pain Drain\libraries\lvgl\src\draw\../misc/lv_color.h ****      * 5-bit to 8-bit: ( 31 * multiplier + adder ) >> divisor = 255
 400:..\..\..\arduinoLCD\test\Pain Drain\libraries\lvgl\src\draw\../misc/lv_color.h ****      * divisor  multiplier  adder  min (0)  max (31)
 401:..\..\..\arduinoLCD\test\Pain Drain\libraries\lvgl\src\draw\../misc/lv_color.h ****      *       0           8      7        7       255
 402:..\..\..\arduinoLCD\test\Pain Drain\libraries\lvgl\src\draw\../misc/lv_color.h ****      *       1          16     14        7       255
 403:..\..\..\arduinoLCD\test\Pain Drain\libraries\lvgl\src\draw\../misc/lv_color.h ****      *       2          32     28        7       255
 404:..\..\..\arduinoLCD\test\Pain Drain\libraries\lvgl\src\draw\../misc/lv_color.h ****      *       3          65     25        3       255
 405:..\..\..\arduinoLCD\test\Pain Drain\libraries\lvgl\src\draw\../misc/lv_color.h ****      *       4         131     19        1       255
 406:..\..\..\arduinoLCD\test\Pain Drain\libraries\lvgl\src\draw\../misc/lv_color.h ****      *       5         263      7        0       255
 407:..\..\..\arduinoLCD\test\Pain Drain\libraries\lvgl\src\draw\../misc/lv_color.h ****      *
 408:..\..\..\arduinoLCD\test\Pain Drain\libraries\lvgl\src\draw\../misc/lv_color.h ****      * 6-bit to 8-bit: 255 = ( 63 * multiplier + adder ) >> divisor
 409:..\..\..\arduinoLCD\test\Pain Drain\libraries\lvgl\src\draw\../misc/lv_color.h ****      * divisor  multiplier  adder  min (0)  max (63)
 410:..\..\..\arduinoLCD\test\Pain Drain\libraries\lvgl\src\draw\../misc/lv_color.h ****      *       0           4      3        3       255
 411:..\..\..\arduinoLCD\test\Pain Drain\libraries\lvgl\src\draw\../misc/lv_color.h ****      *       1           8      6        3       255
 412:..\..\..\arduinoLCD\test\Pain Drain\libraries\lvgl\src\draw\../misc/lv_color.h ****      *       2          16     12        3       255
 413:..\..\..\arduinoLCD\test\Pain Drain\libraries\lvgl\src\draw\../misc/lv_color.h ****      *       3          32     24        3       255
 414:..\..\..\arduinoLCD\test\Pain Drain\libraries\lvgl\src\draw\../misc/lv_color.h ****      *       4          64     48        3       255
ARM GAS  C:\Users\haske\AppData\Local\Temp\ccF9IbRI.s 			page 10


 415:..\..\..\arduinoLCD\test\Pain Drain\libraries\lvgl\src\draw\../misc/lv_color.h ****      *       5         129     33        1       255
 416:..\..\..\arduinoLCD\test\Pain Drain\libraries\lvgl\src\draw\../misc/lv_color.h ****      *       6         259      3        0       255
 417:..\..\..\arduinoLCD\test\Pain Drain\libraries\lvgl\src\draw\../misc/lv_color.h ****      */
 418:..\..\..\arduinoLCD\test\Pain Drain\libraries\lvgl\src\draw\../misc/lv_color.h **** 
 419:..\..\..\arduinoLCD\test\Pain Drain\libraries\lvgl\src\draw\../misc/lv_color.h ****     lv_color32_t ret;
 420:..\..\..\arduinoLCD\test\Pain Drain\libraries\lvgl\src\draw\../misc/lv_color.h ****     LV_COLOR_SET_R32(ret, (LV_COLOR_GET_R(color) * 263 + 7) >> 5);
 421:..\..\..\arduinoLCD\test\Pain Drain\libraries\lvgl\src\draw\../misc/lv_color.h ****     LV_COLOR_SET_G32(ret, (LV_COLOR_GET_G(color) * 259 + 3) >> 6);
 422:..\..\..\arduinoLCD\test\Pain Drain\libraries\lvgl\src\draw\../misc/lv_color.h ****     LV_COLOR_SET_B32(ret, (LV_COLOR_GET_B(color) * 263 + 7) >> 5);
 423:..\..\..\arduinoLCD\test\Pain Drain\libraries\lvgl\src\draw\../misc/lv_color.h ****     LV_COLOR_SET_A32(ret, 0xFF);
 424:..\..\..\arduinoLCD\test\Pain Drain\libraries\lvgl\src\draw\../misc/lv_color.h ****     return ret.full;
 425:..\..\..\arduinoLCD\test\Pain Drain\libraries\lvgl\src\draw\../misc/lv_color.h **** #elif LV_COLOR_DEPTH == 32
 426:..\..\..\arduinoLCD\test\Pain Drain\libraries\lvgl\src\draw\../misc/lv_color.h ****     return color.full;
 427:..\..\..\arduinoLCD\test\Pain Drain\libraries\lvgl\src\draw\../misc/lv_color.h **** #endif
 428:..\..\..\arduinoLCD\test\Pain Drain\libraries\lvgl\src\draw\../misc/lv_color.h **** }
 429:..\..\..\arduinoLCD\test\Pain Drain\libraries\lvgl\src\draw\../misc/lv_color.h **** 
 430:..\..\..\arduinoLCD\test\Pain Drain\libraries\lvgl\src\draw\../misc/lv_color.h **** //! @cond Doxygen_Suppress
 431:..\..\..\arduinoLCD\test\Pain Drain\libraries\lvgl\src\draw\../misc/lv_color.h **** 
 432:..\..\..\arduinoLCD\test\Pain Drain\libraries\lvgl\src\draw\../misc/lv_color.h **** /**
 433:..\..\..\arduinoLCD\test\Pain Drain\libraries\lvgl\src\draw\../misc/lv_color.h ****  * Mix two colors with a given ratio.
 434:..\..\..\arduinoLCD\test\Pain Drain\libraries\lvgl\src\draw\../misc/lv_color.h ****  * @param c1 the first color to mix (usually the foreground)
 435:..\..\..\arduinoLCD\test\Pain Drain\libraries\lvgl\src\draw\../misc/lv_color.h ****  * @param c2 the second color to mix (usually the background)
 436:..\..\..\arduinoLCD\test\Pain Drain\libraries\lvgl\src\draw\../misc/lv_color.h ****  * @param mix The ratio of the colors. 0: full `c2`, 255: full `c1`, 127: half `c1` and half`c2`
 437:..\..\..\arduinoLCD\test\Pain Drain\libraries\lvgl\src\draw\../misc/lv_color.h ****  * @return the mixed color
 438:..\..\..\arduinoLCD\test\Pain Drain\libraries\lvgl\src\draw\../misc/lv_color.h ****  */
 439:..\..\..\arduinoLCD\test\Pain Drain\libraries\lvgl\src\draw\../misc/lv_color.h **** LV_ATTRIBUTE_FAST_MEM static inline lv_color_t lv_color_mix(lv_color_t c1, lv_color_t c2, uint8_t m
 440:..\..\..\arduinoLCD\test\Pain Drain\libraries\lvgl\src\draw\../misc/lv_color.h **** {
 441:..\..\..\arduinoLCD\test\Pain Drain\libraries\lvgl\src\draw\../misc/lv_color.h ****     lv_color_t ret;
 442:..\..\..\arduinoLCD\test\Pain Drain\libraries\lvgl\src\draw\../misc/lv_color.h **** 
 443:..\..\..\arduinoLCD\test\Pain Drain\libraries\lvgl\src\draw\../misc/lv_color.h **** #if LV_COLOR_DEPTH == 16 && LV_COLOR_16_SWAP == 0 && LV_COLOR_MIX_ROUND_OFS == 0
 444:..\..\..\arduinoLCD\test\Pain Drain\libraries\lvgl\src\draw\../misc/lv_color.h ****     /*Source: https://stackoverflow.com/a/50012418/1999969*/
 445:..\..\..\arduinoLCD\test\Pain Drain\libraries\lvgl\src\draw\../misc/lv_color.h ****     mix = (uint32_t)((uint32_t)mix + 4) >> 3;
 446:..\..\..\arduinoLCD\test\Pain Drain\libraries\lvgl\src\draw\../misc/lv_color.h ****     uint32_t bg = (uint32_t)((uint32_t)c2.full | ((uint32_t)c2.full << 16)) &
 447:..\..\..\arduinoLCD\test\Pain Drain\libraries\lvgl\src\draw\../misc/lv_color.h ****                   0x7E0F81F; /*0b00000111111000001111100000011111*/
 448:..\..\..\arduinoLCD\test\Pain Drain\libraries\lvgl\src\draw\../misc/lv_color.h ****     uint32_t fg = (uint32_t)((uint32_t)c1.full | ((uint32_t)c1.full << 16)) & 0x7E0F81F;
 449:..\..\..\arduinoLCD\test\Pain Drain\libraries\lvgl\src\draw\../misc/lv_color.h ****     uint32_t result = ((((fg - bg) * mix) >> 5) + bg) & 0x7E0F81F;
 450:..\..\..\arduinoLCD\test\Pain Drain\libraries\lvgl\src\draw\../misc/lv_color.h ****     ret.full = (uint16_t)((result >> 16) | result);
 451:..\..\..\arduinoLCD\test\Pain Drain\libraries\lvgl\src\draw\../misc/lv_color.h **** #elif LV_COLOR_DEPTH != 1
 452:..\..\..\arduinoLCD\test\Pain Drain\libraries\lvgl\src\draw\../misc/lv_color.h ****     /*LV_COLOR_DEPTH == 8, 16 or 32*/
 453:..\..\..\arduinoLCD\test\Pain Drain\libraries\lvgl\src\draw\../misc/lv_color.h ****     LV_COLOR_SET_R(ret, LV_UDIV255((uint16_t)LV_COLOR_GET_R(c1) * mix + LV_COLOR_GET_R(c2) *
 454:..\..\..\arduinoLCD\test\Pain Drain\libraries\lvgl\src\draw\../misc/lv_color.h ****                                    (255 - mix) + LV_COLOR_MIX_ROUND_OFS));
 455:..\..\..\arduinoLCD\test\Pain Drain\libraries\lvgl\src\draw\../misc/lv_color.h ****     LV_COLOR_SET_G(ret, LV_UDIV255((uint16_t)LV_COLOR_GET_G(c1) * mix + LV_COLOR_GET_G(c2) *
 456:..\..\..\arduinoLCD\test\Pain Drain\libraries\lvgl\src\draw\../misc/lv_color.h ****                                    (255 - mix) + LV_COLOR_MIX_ROUND_OFS));
 457:..\..\..\arduinoLCD\test\Pain Drain\libraries\lvgl\src\draw\../misc/lv_color.h ****     LV_COLOR_SET_B(ret, LV_UDIV255((uint16_t)LV_COLOR_GET_B(c1) * mix + LV_COLOR_GET_B(c2) *
 458:..\..\..\arduinoLCD\test\Pain Drain\libraries\lvgl\src\draw\../misc/lv_color.h ****                                    (255 - mix) + LV_COLOR_MIX_ROUND_OFS));
 459:..\..\..\arduinoLCD\test\Pain Drain\libraries\lvgl\src\draw\../misc/lv_color.h ****     LV_COLOR_SET_A(ret, 0xFF);
 460:..\..\..\arduinoLCD\test\Pain Drain\libraries\lvgl\src\draw\../misc/lv_color.h **** #else
 461:..\..\..\arduinoLCD\test\Pain Drain\libraries\lvgl\src\draw\../misc/lv_color.h ****     /*LV_COLOR_DEPTH == 1*/
 462:..\..\..\arduinoLCD\test\Pain Drain\libraries\lvgl\src\draw\../misc/lv_color.h ****     ret.full = mix > LV_OPA_50 ? c1.full : c2.full;
 463:..\..\..\arduinoLCD\test\Pain Drain\libraries\lvgl\src\draw\../misc/lv_color.h **** #endif
 464:..\..\..\arduinoLCD\test\Pain Drain\libraries\lvgl\src\draw\../misc/lv_color.h **** 
 465:..\..\..\arduinoLCD\test\Pain Drain\libraries\lvgl\src\draw\../misc/lv_color.h ****     return ret;
 466:..\..\..\arduinoLCD\test\Pain Drain\libraries\lvgl\src\draw\../misc/lv_color.h **** }
 467:..\..\..\arduinoLCD\test\Pain Drain\libraries\lvgl\src\draw\../misc/lv_color.h **** 
 468:..\..\..\arduinoLCD\test\Pain Drain\libraries\lvgl\src\draw\../misc/lv_color.h **** LV_ATTRIBUTE_FAST_MEM static inline void lv_color_premult(lv_color_t c, uint8_t mix, uint16_t * out
 469:..\..\..\arduinoLCD\test\Pain Drain\libraries\lvgl\src\draw\../misc/lv_color.h **** {
 470:..\..\..\arduinoLCD\test\Pain Drain\libraries\lvgl\src\draw\../misc/lv_color.h **** #if LV_COLOR_DEPTH != 1
 471:..\..\..\arduinoLCD\test\Pain Drain\libraries\lvgl\src\draw\../misc/lv_color.h ****     out[0] = (uint16_t)LV_COLOR_GET_R(c) * mix;
ARM GAS  C:\Users\haske\AppData\Local\Temp\ccF9IbRI.s 			page 11


 472:..\..\..\arduinoLCD\test\Pain Drain\libraries\lvgl\src\draw\../misc/lv_color.h ****     out[1] = (uint16_t)LV_COLOR_GET_G(c) * mix;
 473:..\..\..\arduinoLCD\test\Pain Drain\libraries\lvgl\src\draw\../misc/lv_color.h ****     out[2] = (uint16_t)LV_COLOR_GET_B(c) * mix;
 474:..\..\..\arduinoLCD\test\Pain Drain\libraries\lvgl\src\draw\../misc/lv_color.h **** #else
 475:..\..\..\arduinoLCD\test\Pain Drain\libraries\lvgl\src\draw\../misc/lv_color.h ****     (void) mix;
 476:..\..\..\arduinoLCD\test\Pain Drain\libraries\lvgl\src\draw\../misc/lv_color.h ****     /*Pre-multiplication can't be used with 1 bpp*/
 477:..\..\..\arduinoLCD\test\Pain Drain\libraries\lvgl\src\draw\../misc/lv_color.h ****     out[0] = LV_COLOR_GET_R(c);
 478:..\..\..\arduinoLCD\test\Pain Drain\libraries\lvgl\src\draw\../misc/lv_color.h ****     out[1] = LV_COLOR_GET_G(c);
 479:..\..\..\arduinoLCD\test\Pain Drain\libraries\lvgl\src\draw\../misc/lv_color.h ****     out[2] = LV_COLOR_GET_B(c);
 480:..\..\..\arduinoLCD\test\Pain Drain\libraries\lvgl\src\draw\../misc/lv_color.h **** #endif
 481:..\..\..\arduinoLCD\test\Pain Drain\libraries\lvgl\src\draw\../misc/lv_color.h **** 
 482:..\..\..\arduinoLCD\test\Pain Drain\libraries\lvgl\src\draw\../misc/lv_color.h **** }
 483:..\..\..\arduinoLCD\test\Pain Drain\libraries\lvgl\src\draw\../misc/lv_color.h **** 
 484:..\..\..\arduinoLCD\test\Pain Drain\libraries\lvgl\src\draw\../misc/lv_color.h **** /**
 485:..\..\..\arduinoLCD\test\Pain Drain\libraries\lvgl\src\draw\../misc/lv_color.h ****  * Mix two colors with a given ratio. It runs faster then `lv_color_mix` but requires some pre comp
 486:..\..\..\arduinoLCD\test\Pain Drain\libraries\lvgl\src\draw\../misc/lv_color.h ****  * @param premult_c1 The first color. Should be preprocessed with `lv_color_premult(c1)`
 487:..\..\..\arduinoLCD\test\Pain Drain\libraries\lvgl\src\draw\../misc/lv_color.h ****  * @param c2 The second color. As it is no pre computation required on it
 488:..\..\..\arduinoLCD\test\Pain Drain\libraries\lvgl\src\draw\../misc/lv_color.h ****  * @param mix The ratio of the colors. 0: full `c1`, 255: full `c2`, 127: half `c1` and half `c2`.
 489:..\..\..\arduinoLCD\test\Pain Drain\libraries\lvgl\src\draw\../misc/lv_color.h ****  *            Should be modified like mix = `255 - mix`
 490:..\..\..\arduinoLCD\test\Pain Drain\libraries\lvgl\src\draw\../misc/lv_color.h ****  * @return the mixed color
 491:..\..\..\arduinoLCD\test\Pain Drain\libraries\lvgl\src\draw\../misc/lv_color.h ****  * @note 255 won't give clearly `c1`.
 492:..\..\..\arduinoLCD\test\Pain Drain\libraries\lvgl\src\draw\../misc/lv_color.h ****  */
 493:..\..\..\arduinoLCD\test\Pain Drain\libraries\lvgl\src\draw\../misc/lv_color.h **** LV_ATTRIBUTE_FAST_MEM static inline lv_color_t lv_color_mix_premult(uint16_t * premult_c1, lv_color
 494:..\..\..\arduinoLCD\test\Pain Drain\libraries\lvgl\src\draw\../misc/lv_color.h **** {
 495:..\..\..\arduinoLCD\test\Pain Drain\libraries\lvgl\src\draw\../misc/lv_color.h ****     lv_color_t ret;
 496:..\..\..\arduinoLCD\test\Pain Drain\libraries\lvgl\src\draw\../misc/lv_color.h **** #if LV_COLOR_DEPTH != 1
 497:..\..\..\arduinoLCD\test\Pain Drain\libraries\lvgl\src\draw\../misc/lv_color.h ****     /*LV_COLOR_DEPTH == 8 or 32*/
 498:..\..\..\arduinoLCD\test\Pain Drain\libraries\lvgl\src\draw\../misc/lv_color.h ****     LV_COLOR_SET_R(ret, LV_UDIV255(premult_c1[0] + LV_COLOR_GET_R(c2) * mix + LV_COLOR_MIX_ROUND_OF
 499:..\..\..\arduinoLCD\test\Pain Drain\libraries\lvgl\src\draw\../misc/lv_color.h ****     LV_COLOR_SET_G(ret, LV_UDIV255(premult_c1[1] + LV_COLOR_GET_G(c2) * mix + LV_COLOR_MIX_ROUND_OF
 500:..\..\..\arduinoLCD\test\Pain Drain\libraries\lvgl\src\draw\../misc/lv_color.h ****     LV_COLOR_SET_B(ret, LV_UDIV255(premult_c1[2] + LV_COLOR_GET_B(c2) * mix + LV_COLOR_MIX_ROUND_OF
 501:..\..\..\arduinoLCD\test\Pain Drain\libraries\lvgl\src\draw\../misc/lv_color.h ****     LV_COLOR_SET_A(ret, 0xFF);
 502:..\..\..\arduinoLCD\test\Pain Drain\libraries\lvgl\src\draw\../misc/lv_color.h **** #else
 503:..\..\..\arduinoLCD\test\Pain Drain\libraries\lvgl\src\draw\../misc/lv_color.h ****     /*LV_COLOR_DEPTH == 1*/
 504:..\..\..\arduinoLCD\test\Pain Drain\libraries\lvgl\src\draw\../misc/lv_color.h ****     /*Restore color1*/
 505:..\..\..\arduinoLCD\test\Pain Drain\libraries\lvgl\src\draw\../misc/lv_color.h ****     lv_color_t c1;
 506:..\..\..\arduinoLCD\test\Pain Drain\libraries\lvgl\src\draw\../misc/lv_color.h ****     LV_COLOR_SET_R(c1, premult_c1[0]);
 507:..\..\..\arduinoLCD\test\Pain Drain\libraries\lvgl\src\draw\../misc/lv_color.h ****     LV_COLOR_SET_G(c1, premult_c1[1]);
 508:..\..\..\arduinoLCD\test\Pain Drain\libraries\lvgl\src\draw\../misc/lv_color.h ****     LV_COLOR_SET_B(c1, premult_c1[2]);
 509:..\..\..\arduinoLCD\test\Pain Drain\libraries\lvgl\src\draw\../misc/lv_color.h ****     ret.full = mix > LV_OPA_50 ? c2.full : c1.full;
 510:..\..\..\arduinoLCD\test\Pain Drain\libraries\lvgl\src\draw\../misc/lv_color.h **** #endif
 511:..\..\..\arduinoLCD\test\Pain Drain\libraries\lvgl\src\draw\../misc/lv_color.h **** 
 512:..\..\..\arduinoLCD\test\Pain Drain\libraries\lvgl\src\draw\../misc/lv_color.h ****     return ret;
 513:..\..\..\arduinoLCD\test\Pain Drain\libraries\lvgl\src\draw\../misc/lv_color.h **** }
 514:..\..\..\arduinoLCD\test\Pain Drain\libraries\lvgl\src\draw\../misc/lv_color.h **** 
 515:..\..\..\arduinoLCD\test\Pain Drain\libraries\lvgl\src\draw\../misc/lv_color.h **** /**
 516:..\..\..\arduinoLCD\test\Pain Drain\libraries\lvgl\src\draw\../misc/lv_color.h ****  * Mix two colors. Both color can have alpha value.
 517:..\..\..\arduinoLCD\test\Pain Drain\libraries\lvgl\src\draw\../misc/lv_color.h ****  * @param bg_color background color
 518:..\..\..\arduinoLCD\test\Pain Drain\libraries\lvgl\src\draw\../misc/lv_color.h ****  * @param bg_opa alpha of the background color
 519:..\..\..\arduinoLCD\test\Pain Drain\libraries\lvgl\src\draw\../misc/lv_color.h ****  * @param fg_color foreground color
 520:..\..\..\arduinoLCD\test\Pain Drain\libraries\lvgl\src\draw\../misc/lv_color.h ****  * @param fg_opa alpha of the foreground color
 521:..\..\..\arduinoLCD\test\Pain Drain\libraries\lvgl\src\draw\../misc/lv_color.h ****  * @param res_color the result color
 522:..\..\..\arduinoLCD\test\Pain Drain\libraries\lvgl\src\draw\../misc/lv_color.h ****  * @param res_opa the result opacity
 523:..\..\..\arduinoLCD\test\Pain Drain\libraries\lvgl\src\draw\../misc/lv_color.h ****  */
 524:..\..\..\arduinoLCD\test\Pain Drain\libraries\lvgl\src\draw\../misc/lv_color.h **** LV_ATTRIBUTE_FAST_MEM static inline void lv_color_mix_with_alpha(lv_color_t bg_color, lv_opa_t bg_o
 525:..\..\..\arduinoLCD\test\Pain Drain\libraries\lvgl\src\draw\../misc/lv_color.h ****                                                                  lv_color_t fg_color, lv_opa_t fg_o
 526:..\..\..\arduinoLCD\test\Pain Drain\libraries\lvgl\src\draw\../misc/lv_color.h ****                                                                  lv_color_t * res_color, lv_opa_t *
 527:..\..\..\arduinoLCD\test\Pain Drain\libraries\lvgl\src\draw\../misc/lv_color.h **** {
 528:..\..\..\arduinoLCD\test\Pain Drain\libraries\lvgl\src\draw\../misc/lv_color.h ****     /*Pick the foreground if it's fully opaque or the Background is fully transparent*/
ARM GAS  C:\Users\haske\AppData\Local\Temp\ccF9IbRI.s 			page 12


 529:..\..\..\arduinoLCD\test\Pain Drain\libraries\lvgl\src\draw\../misc/lv_color.h ****     if(fg_opa >= LV_OPA_MAX || bg_opa <= LV_OPA_MIN) {
 530:..\..\..\arduinoLCD\test\Pain Drain\libraries\lvgl\src\draw\../misc/lv_color.h ****         res_color->full = fg_color.full;
 531:..\..\..\arduinoLCD\test\Pain Drain\libraries\lvgl\src\draw\../misc/lv_color.h ****         *res_opa = fg_opa;
 532:..\..\..\arduinoLCD\test\Pain Drain\libraries\lvgl\src\draw\../misc/lv_color.h ****     }
 533:..\..\..\arduinoLCD\test\Pain Drain\libraries\lvgl\src\draw\../misc/lv_color.h ****     /*Transparent foreground: use the Background*/
 534:..\..\..\arduinoLCD\test\Pain Drain\libraries\lvgl\src\draw\../misc/lv_color.h ****     else if(fg_opa <= LV_OPA_MIN) {
 535:..\..\..\arduinoLCD\test\Pain Drain\libraries\lvgl\src\draw\../misc/lv_color.h ****         res_color->full = bg_color.full;
 536:..\..\..\arduinoLCD\test\Pain Drain\libraries\lvgl\src\draw\../misc/lv_color.h ****         *res_opa = bg_opa;
 537:..\..\..\arduinoLCD\test\Pain Drain\libraries\lvgl\src\draw\../misc/lv_color.h ****     }
 538:..\..\..\arduinoLCD\test\Pain Drain\libraries\lvgl\src\draw\../misc/lv_color.h ****     /*Opaque background: use simple mix*/
 539:..\..\..\arduinoLCD\test\Pain Drain\libraries\lvgl\src\draw\../misc/lv_color.h ****     else if(bg_opa >= LV_OPA_MAX) {
 540:..\..\..\arduinoLCD\test\Pain Drain\libraries\lvgl\src\draw\../misc/lv_color.h ****         *res_color = lv_color_mix(fg_color, bg_color, fg_opa);
 541:..\..\..\arduinoLCD\test\Pain Drain\libraries\lvgl\src\draw\../misc/lv_color.h ****         *res_opa = LV_OPA_COVER;
 542:..\..\..\arduinoLCD\test\Pain Drain\libraries\lvgl\src\draw\../misc/lv_color.h ****     }
 543:..\..\..\arduinoLCD\test\Pain Drain\libraries\lvgl\src\draw\../misc/lv_color.h ****     /*Both colors have alpha. Expensive calculation need to be applied*/
 544:..\..\..\arduinoLCD\test\Pain Drain\libraries\lvgl\src\draw\../misc/lv_color.h ****     else {
 545:..\..\..\arduinoLCD\test\Pain Drain\libraries\lvgl\src\draw\../misc/lv_color.h ****         /*Save the parameters and the result. If they will be asked again don't compute again*/
 546:..\..\..\arduinoLCD\test\Pain Drain\libraries\lvgl\src\draw\../misc/lv_color.h ****         static lv_opa_t fg_opa_save     = 0;
 547:..\..\..\arduinoLCD\test\Pain Drain\libraries\lvgl\src\draw\../misc/lv_color.h ****         static lv_opa_t bg_opa_save     = 0;
 548:..\..\..\arduinoLCD\test\Pain Drain\libraries\lvgl\src\draw\../misc/lv_color.h ****         static lv_color_t fg_color_save = _LV_COLOR_ZERO_INITIALIZER;
 549:..\..\..\arduinoLCD\test\Pain Drain\libraries\lvgl\src\draw\../misc/lv_color.h ****         static lv_color_t bg_color_save = _LV_COLOR_ZERO_INITIALIZER;
 550:..\..\..\arduinoLCD\test\Pain Drain\libraries\lvgl\src\draw\../misc/lv_color.h ****         static lv_color_t res_color_saved = _LV_COLOR_ZERO_INITIALIZER;
 551:..\..\..\arduinoLCD\test\Pain Drain\libraries\lvgl\src\draw\../misc/lv_color.h ****         static lv_opa_t res_opa_saved = 0;
 552:..\..\..\arduinoLCD\test\Pain Drain\libraries\lvgl\src\draw\../misc/lv_color.h **** 
 553:..\..\..\arduinoLCD\test\Pain Drain\libraries\lvgl\src\draw\../misc/lv_color.h ****         if(fg_opa != fg_opa_save || bg_opa != bg_opa_save || fg_color.full != fg_color_save.full ||
 554:..\..\..\arduinoLCD\test\Pain Drain\libraries\lvgl\src\draw\../misc/lv_color.h ****            bg_color.full != bg_color_save.full) {
 555:..\..\..\arduinoLCD\test\Pain Drain\libraries\lvgl\src\draw\../misc/lv_color.h ****             fg_opa_save        = fg_opa;
 556:..\..\..\arduinoLCD\test\Pain Drain\libraries\lvgl\src\draw\../misc/lv_color.h ****             bg_opa_save        = bg_opa;
 557:..\..\..\arduinoLCD\test\Pain Drain\libraries\lvgl\src\draw\../misc/lv_color.h ****             fg_color_save.full = fg_color.full;
 558:..\..\..\arduinoLCD\test\Pain Drain\libraries\lvgl\src\draw\../misc/lv_color.h ****             bg_color_save.full = bg_color.full;
 559:..\..\..\arduinoLCD\test\Pain Drain\libraries\lvgl\src\draw\../misc/lv_color.h ****             /*Info:
 560:..\..\..\arduinoLCD\test\Pain Drain\libraries\lvgl\src\draw\../misc/lv_color.h ****              * https://en.wikipedia.org/wiki/Alpha_compositing#Analytical_derivation_of_the_over_op
 561:..\..\..\arduinoLCD\test\Pain Drain\libraries\lvgl\src\draw\../misc/lv_color.h ****             res_opa_saved = 255 - ((uint16_t)((uint16_t)(255 - fg_opa) * (255 - bg_opa)) >> 8);
 562:..\..\..\arduinoLCD\test\Pain Drain\libraries\lvgl\src\draw\../misc/lv_color.h ****             LV_ASSERT(res_opa_saved != 0);
 563:..\..\..\arduinoLCD\test\Pain Drain\libraries\lvgl\src\draw\../misc/lv_color.h ****             lv_opa_t ratio = (uint16_t)((uint16_t)fg_opa * 255) / res_opa_saved;
 564:..\..\..\arduinoLCD\test\Pain Drain\libraries\lvgl\src\draw\../misc/lv_color.h ****             res_color_saved = lv_color_mix(fg_color, bg_color, ratio);
 565:..\..\..\arduinoLCD\test\Pain Drain\libraries\lvgl\src\draw\../misc/lv_color.h **** 
 566:..\..\..\arduinoLCD\test\Pain Drain\libraries\lvgl\src\draw\../misc/lv_color.h ****         }
 567:..\..\..\arduinoLCD\test\Pain Drain\libraries\lvgl\src\draw\../misc/lv_color.h **** 
 568:..\..\..\arduinoLCD\test\Pain Drain\libraries\lvgl\src\draw\../misc/lv_color.h ****         res_color->full = res_color_saved.full;
 569:..\..\..\arduinoLCD\test\Pain Drain\libraries\lvgl\src\draw\../misc/lv_color.h ****         *res_opa = res_opa_saved;
 570:..\..\..\arduinoLCD\test\Pain Drain\libraries\lvgl\src\draw\../misc/lv_color.h ****     }
 571:..\..\..\arduinoLCD\test\Pain Drain\libraries\lvgl\src\draw\../misc/lv_color.h **** }
 572:..\..\..\arduinoLCD\test\Pain Drain\libraries\lvgl\src\draw\../misc/lv_color.h **** 
 573:..\..\..\arduinoLCD\test\Pain Drain\libraries\lvgl\src\draw\../misc/lv_color.h **** //! @endcond
 574:..\..\..\arduinoLCD\test\Pain Drain\libraries\lvgl\src\draw\../misc/lv_color.h **** 
 575:..\..\..\arduinoLCD\test\Pain Drain\libraries\lvgl\src\draw\../misc/lv_color.h **** /**
 576:..\..\..\arduinoLCD\test\Pain Drain\libraries\lvgl\src\draw\../misc/lv_color.h ****  * Get the brightness of a color
 577:..\..\..\arduinoLCD\test\Pain Drain\libraries\lvgl\src\draw\../misc/lv_color.h ****  * @param color a color
 578:..\..\..\arduinoLCD\test\Pain Drain\libraries\lvgl\src\draw\../misc/lv_color.h ****  * @return the brightness [0..255]
 579:..\..\..\arduinoLCD\test\Pain Drain\libraries\lvgl\src\draw\../misc/lv_color.h ****  */
 580:..\..\..\arduinoLCD\test\Pain Drain\libraries\lvgl\src\draw\../misc/lv_color.h **** static inline uint8_t lv_color_brightness(lv_color_t color)
 581:..\..\..\arduinoLCD\test\Pain Drain\libraries\lvgl\src\draw\../misc/lv_color.h **** {
 582:..\..\..\arduinoLCD\test\Pain Drain\libraries\lvgl\src\draw\../misc/lv_color.h ****     lv_color32_t c32;
 583:..\..\..\arduinoLCD\test\Pain Drain\libraries\lvgl\src\draw\../misc/lv_color.h ****     c32.full        = lv_color_to32(color);
 584:..\..\..\arduinoLCD\test\Pain Drain\libraries\lvgl\src\draw\../misc/lv_color.h ****     uint16_t bright = (uint16_t)(3u * LV_COLOR_GET_R32(c32) + LV_COLOR_GET_B32(c32) + 4u * LV_COLOR
 585:..\..\..\arduinoLCD\test\Pain Drain\libraries\lvgl\src\draw\../misc/lv_color.h ****     return (uint8_t)(bright >> 3);
ARM GAS  C:\Users\haske\AppData\Local\Temp\ccF9IbRI.s 			page 13


 586:..\..\..\arduinoLCD\test\Pain Drain\libraries\lvgl\src\draw\../misc/lv_color.h **** }
 587:..\..\..\arduinoLCD\test\Pain Drain\libraries\lvgl\src\draw\../misc/lv_color.h **** 
 588:..\..\..\arduinoLCD\test\Pain Drain\libraries\lvgl\src\draw\../misc/lv_color.h **** static inline lv_color_t lv_color_make(uint8_t r, uint8_t g, uint8_t b)
 589:..\..\..\arduinoLCD\test\Pain Drain\libraries\lvgl\src\draw\../misc/lv_color.h **** {
 590:..\..\..\arduinoLCD\test\Pain Drain\libraries\lvgl\src\draw\../misc/lv_color.h ****     return _LV_COLOR_MAKE_TYPE_HELPER LV_COLOR_MAKE(r, g, b);
  48              		.loc 2 590 0
  49 0004 4FF00004 		mov	r4, #0	@ movhi
  50              	.LVL2:
  51              	.LBE31:
  52              	.LBE30:
  53              	.LBE29:
  53:..\..\..\arduinoLCD\test\Pain Drain\libraries\lvgl\src\draw/lv_img_buf.c ****     lv_color_t p_color = lv_color_black();
  54              		.loc 1 53 0
  55 0008 ADF80440 		strh	r4, [sp, #4]	@ movhi
  54:..\..\..\arduinoLCD\test\Pain Drain\libraries\lvgl\src\draw/lv_img_buf.c ****     uint8_t * buf_u8 = (uint8_t *)dsc->data;
  56              		.loc 1 54 0
  57 000c 8568     		ldr	r5, [r0, #8]
  58              	.LVL3:
  55:..\..\..\arduinoLCD\test\Pain Drain\libraries\lvgl\src\draw/lv_img_buf.c **** 
  56:..\..\..\arduinoLCD\test\Pain Drain\libraries\lvgl\src\draw/lv_img_buf.c ****     if(dsc->header.cf == LV_IMG_CF_TRUE_COLOR || dsc->header.cf == LV_IMG_CF_TRUE_COLOR_CHROMA_KEYE
  59              		.loc 1 56 0
  60 000e 0478     		ldrb	r4, [r0]	@ zero_extendqisi2
  61 0010 04F01F04 		and	r4, r4, #31
  62 0014 042C     		cmp	r4, #4
  63 0016 05D0     		beq	.L2
  64              		.loc 1 56 0 is_stmt 0 discriminator 1
  65 0018 062C     		cmp	r4, #6
  66 001a 03D0     		beq	.L2
  67              		.loc 1 56 0 discriminator 2
  68 001c 052C     		cmp	r4, #5
  69 001e 01D0     		beq	.L2
  57:..\..\..\arduinoLCD\test\Pain Drain\libraries\lvgl\src\draw/lv_img_buf.c ****        dsc->header.cf == LV_IMG_CF_TRUE_COLOR_ALPHA || dsc->header.cf == LV_IMG_CF_RGB565A8) {
  70              		.loc 1 57 0 is_stmt 1
  71 0020 142C     		cmp	r4, #20
  72 0022 1BD1     		bne	.L3
  73              	.L2:
  74 0024 1746     		mov	r7, r2
  75 0026 0E46     		mov	r6, r1
  76 0028 0446     		mov	r4, r0
  77              	.LBB32:
  58:..\..\..\arduinoLCD\test\Pain Drain\libraries\lvgl\src\draw/lv_img_buf.c ****         uint8_t px_size = lv_img_cf_get_px_size(dsc->header.cf) >> 3;
  78              		.loc 1 58 0
  79 002a 0078     		ldrb	r0, [r0]	@ zero_extendqisi2
  80              	.LVL4:
  81 002c 00F01F00 		and	r0, r0, #31
  82 0030 FFF7FEFF 		bl	lv_img_cf_get_px_size
  83              	.LVL5:
  84 0034 C0F3C700 		ubfx	r0, r0, #3, #8
  85              	.LVL6:
  59:..\..\..\arduinoLCD\test\Pain Drain\libraries\lvgl\src\draw/lv_img_buf.c ****         uint32_t px     = dsc->header.w * y * px_size + x * px_size;
  86              		.loc 1 59 0
  87 0038 2368     		ldr	r3, [r4]
  88 003a C3F38A23 		ubfx	r3, r3, #10, #11
  89 003e 07FB0362 		mla	r2, r7, r3, r6
  90              	.LVL7:
  60:..\..\..\arduinoLCD\test\Pain Drain\libraries\lvgl\src\draw/lv_img_buf.c ****         lv_memcpy_small(&p_color, &buf_u8[px], sizeof(lv_color_t));
  91              		.loc 1 60 0
ARM GAS  C:\Users\haske\AppData\Local\Temp\ccF9IbRI.s 			page 14


  92 0042 00FB0250 		mla	r0, r0, r2, r5
  93              	.LVL8:
  94              	.LBB33:
  95              	.LBB34:
  96              		.file 3 "..\\..\\..\\arduinoLCD\\test\\Pain Drain\\libraries\\lvgl\\src\\draw\\../misc/lv_mem.h"
   1:..\..\..\arduinoLCD\test\Pain Drain\libraries\lvgl\src\draw\../misc/lv_mem.h **** /**
   2:..\..\..\arduinoLCD\test\Pain Drain\libraries\lvgl\src\draw\../misc/lv_mem.h ****  * @file lv_mem.h
   3:..\..\..\arduinoLCD\test\Pain Drain\libraries\lvgl\src\draw\../misc/lv_mem.h ****  *
   4:..\..\..\arduinoLCD\test\Pain Drain\libraries\lvgl\src\draw\../misc/lv_mem.h ****  */
   5:..\..\..\arduinoLCD\test\Pain Drain\libraries\lvgl\src\draw\../misc/lv_mem.h **** 
   6:..\..\..\arduinoLCD\test\Pain Drain\libraries\lvgl\src\draw\../misc/lv_mem.h **** #ifndef LV_MEM_H
   7:..\..\..\arduinoLCD\test\Pain Drain\libraries\lvgl\src\draw\../misc/lv_mem.h **** #define LV_MEM_H
   8:..\..\..\arduinoLCD\test\Pain Drain\libraries\lvgl\src\draw\../misc/lv_mem.h **** 
   9:..\..\..\arduinoLCD\test\Pain Drain\libraries\lvgl\src\draw\../misc/lv_mem.h **** #ifdef __cplusplus
  10:..\..\..\arduinoLCD\test\Pain Drain\libraries\lvgl\src\draw\../misc/lv_mem.h **** extern "C" {
  11:..\..\..\arduinoLCD\test\Pain Drain\libraries\lvgl\src\draw\../misc/lv_mem.h **** #endif
  12:..\..\..\arduinoLCD\test\Pain Drain\libraries\lvgl\src\draw\../misc/lv_mem.h **** 
  13:..\..\..\arduinoLCD\test\Pain Drain\libraries\lvgl\src\draw\../misc/lv_mem.h **** /*********************
  14:..\..\..\arduinoLCD\test\Pain Drain\libraries\lvgl\src\draw\../misc/lv_mem.h ****  *      INCLUDES
  15:..\..\..\arduinoLCD\test\Pain Drain\libraries\lvgl\src\draw\../misc/lv_mem.h ****  *********************/
  16:..\..\..\arduinoLCD\test\Pain Drain\libraries\lvgl\src\draw\../misc/lv_mem.h **** #include "../lv_conf_internal.h"
  17:..\..\..\arduinoLCD\test\Pain Drain\libraries\lvgl\src\draw\../misc/lv_mem.h **** 
  18:..\..\..\arduinoLCD\test\Pain Drain\libraries\lvgl\src\draw\../misc/lv_mem.h **** #include <stdint.h>
  19:..\..\..\arduinoLCD\test\Pain Drain\libraries\lvgl\src\draw\../misc/lv_mem.h **** #include <stddef.h>
  20:..\..\..\arduinoLCD\test\Pain Drain\libraries\lvgl\src\draw\../misc/lv_mem.h **** #include <string.h>
  21:..\..\..\arduinoLCD\test\Pain Drain\libraries\lvgl\src\draw\../misc/lv_mem.h **** 
  22:..\..\..\arduinoLCD\test\Pain Drain\libraries\lvgl\src\draw\../misc/lv_mem.h **** #include "lv_types.h"
  23:..\..\..\arduinoLCD\test\Pain Drain\libraries\lvgl\src\draw\../misc/lv_mem.h **** 
  24:..\..\..\arduinoLCD\test\Pain Drain\libraries\lvgl\src\draw\../misc/lv_mem.h **** /*********************
  25:..\..\..\arduinoLCD\test\Pain Drain\libraries\lvgl\src\draw\../misc/lv_mem.h ****  *      DEFINES
  26:..\..\..\arduinoLCD\test\Pain Drain\libraries\lvgl\src\draw\../misc/lv_mem.h ****  *********************/
  27:..\..\..\arduinoLCD\test\Pain Drain\libraries\lvgl\src\draw\../misc/lv_mem.h **** 
  28:..\..\..\arduinoLCD\test\Pain Drain\libraries\lvgl\src\draw\../misc/lv_mem.h **** /**********************
  29:..\..\..\arduinoLCD\test\Pain Drain\libraries\lvgl\src\draw\../misc/lv_mem.h ****  *      TYPEDEFS
  30:..\..\..\arduinoLCD\test\Pain Drain\libraries\lvgl\src\draw\../misc/lv_mem.h ****  **********************/
  31:..\..\..\arduinoLCD\test\Pain Drain\libraries\lvgl\src\draw\../misc/lv_mem.h **** 
  32:..\..\..\arduinoLCD\test\Pain Drain\libraries\lvgl\src\draw\../misc/lv_mem.h **** /**
  33:..\..\..\arduinoLCD\test\Pain Drain\libraries\lvgl\src\draw\../misc/lv_mem.h ****  * Heap information structure.
  34:..\..\..\arduinoLCD\test\Pain Drain\libraries\lvgl\src\draw\../misc/lv_mem.h ****  */
  35:..\..\..\arduinoLCD\test\Pain Drain\libraries\lvgl\src\draw\../misc/lv_mem.h **** typedef struct {
  36:..\..\..\arduinoLCD\test\Pain Drain\libraries\lvgl\src\draw\../misc/lv_mem.h ****     uint32_t total_size; /**< Total heap size*/
  37:..\..\..\arduinoLCD\test\Pain Drain\libraries\lvgl\src\draw\../misc/lv_mem.h ****     uint32_t free_cnt;
  38:..\..\..\arduinoLCD\test\Pain Drain\libraries\lvgl\src\draw\../misc/lv_mem.h ****     uint32_t free_size; /**< Size of available memory*/
  39:..\..\..\arduinoLCD\test\Pain Drain\libraries\lvgl\src\draw\../misc/lv_mem.h ****     uint32_t free_biggest_size;
  40:..\..\..\arduinoLCD\test\Pain Drain\libraries\lvgl\src\draw\../misc/lv_mem.h ****     uint32_t used_cnt;
  41:..\..\..\arduinoLCD\test\Pain Drain\libraries\lvgl\src\draw\../misc/lv_mem.h ****     uint32_t max_used; /**< Max size of Heap memory used*/
  42:..\..\..\arduinoLCD\test\Pain Drain\libraries\lvgl\src\draw\../misc/lv_mem.h ****     uint8_t used_pct; /**< Percentage used*/
  43:..\..\..\arduinoLCD\test\Pain Drain\libraries\lvgl\src\draw\../misc/lv_mem.h ****     uint8_t frag_pct; /**< Amount of fragmentation*/
  44:..\..\..\arduinoLCD\test\Pain Drain\libraries\lvgl\src\draw\../misc/lv_mem.h **** } lv_mem_monitor_t;
  45:..\..\..\arduinoLCD\test\Pain Drain\libraries\lvgl\src\draw\../misc/lv_mem.h **** 
  46:..\..\..\arduinoLCD\test\Pain Drain\libraries\lvgl\src\draw\../misc/lv_mem.h **** typedef struct {
  47:..\..\..\arduinoLCD\test\Pain Drain\libraries\lvgl\src\draw\../misc/lv_mem.h ****     void * p;
  48:..\..\..\arduinoLCD\test\Pain Drain\libraries\lvgl\src\draw\../misc/lv_mem.h ****     uint16_t size;
  49:..\..\..\arduinoLCD\test\Pain Drain\libraries\lvgl\src\draw\../misc/lv_mem.h ****     uint8_t used : 1;
  50:..\..\..\arduinoLCD\test\Pain Drain\libraries\lvgl\src\draw\../misc/lv_mem.h **** } lv_mem_buf_t;
  51:..\..\..\arduinoLCD\test\Pain Drain\libraries\lvgl\src\draw\../misc/lv_mem.h **** 
  52:..\..\..\arduinoLCD\test\Pain Drain\libraries\lvgl\src\draw\../misc/lv_mem.h **** typedef lv_mem_buf_t lv_mem_buf_arr_t[LV_MEM_BUF_MAX_NUM];
ARM GAS  C:\Users\haske\AppData\Local\Temp\ccF9IbRI.s 			page 15


  53:..\..\..\arduinoLCD\test\Pain Drain\libraries\lvgl\src\draw\../misc/lv_mem.h **** 
  54:..\..\..\arduinoLCD\test\Pain Drain\libraries\lvgl\src\draw\../misc/lv_mem.h **** /**********************
  55:..\..\..\arduinoLCD\test\Pain Drain\libraries\lvgl\src\draw\../misc/lv_mem.h ****  * GLOBAL PROTOTYPES
  56:..\..\..\arduinoLCD\test\Pain Drain\libraries\lvgl\src\draw\../misc/lv_mem.h ****  **********************/
  57:..\..\..\arduinoLCD\test\Pain Drain\libraries\lvgl\src\draw\../misc/lv_mem.h **** 
  58:..\..\..\arduinoLCD\test\Pain Drain\libraries\lvgl\src\draw\../misc/lv_mem.h **** /**
  59:..\..\..\arduinoLCD\test\Pain Drain\libraries\lvgl\src\draw\../misc/lv_mem.h ****  * Initialize the dyn_mem module (work memory and other variables)
  60:..\..\..\arduinoLCD\test\Pain Drain\libraries\lvgl\src\draw\../misc/lv_mem.h ****  */
  61:..\..\..\arduinoLCD\test\Pain Drain\libraries\lvgl\src\draw\../misc/lv_mem.h **** void lv_mem_init(void);
  62:..\..\..\arduinoLCD\test\Pain Drain\libraries\lvgl\src\draw\../misc/lv_mem.h **** 
  63:..\..\..\arduinoLCD\test\Pain Drain\libraries\lvgl\src\draw\../misc/lv_mem.h **** /**
  64:..\..\..\arduinoLCD\test\Pain Drain\libraries\lvgl\src\draw\../misc/lv_mem.h ****  * Clean up the memory buffer which frees all the allocated memories.
  65:..\..\..\arduinoLCD\test\Pain Drain\libraries\lvgl\src\draw\../misc/lv_mem.h ****  * @note It work only if `LV_MEM_CUSTOM == 0`
  66:..\..\..\arduinoLCD\test\Pain Drain\libraries\lvgl\src\draw\../misc/lv_mem.h ****  */
  67:..\..\..\arduinoLCD\test\Pain Drain\libraries\lvgl\src\draw\../misc/lv_mem.h **** void lv_mem_deinit(void);
  68:..\..\..\arduinoLCD\test\Pain Drain\libraries\lvgl\src\draw\../misc/lv_mem.h **** 
  69:..\..\..\arduinoLCD\test\Pain Drain\libraries\lvgl\src\draw\../misc/lv_mem.h **** /**
  70:..\..\..\arduinoLCD\test\Pain Drain\libraries\lvgl\src\draw\../misc/lv_mem.h ****  * Allocate a memory dynamically
  71:..\..\..\arduinoLCD\test\Pain Drain\libraries\lvgl\src\draw\../misc/lv_mem.h ****  * @param size size of the memory to allocate in bytes
  72:..\..\..\arduinoLCD\test\Pain Drain\libraries\lvgl\src\draw\../misc/lv_mem.h ****  * @return pointer to the allocated memory
  73:..\..\..\arduinoLCD\test\Pain Drain\libraries\lvgl\src\draw\../misc/lv_mem.h ****  */
  74:..\..\..\arduinoLCD\test\Pain Drain\libraries\lvgl\src\draw\../misc/lv_mem.h **** void * lv_mem_alloc(size_t size);
  75:..\..\..\arduinoLCD\test\Pain Drain\libraries\lvgl\src\draw\../misc/lv_mem.h **** 
  76:..\..\..\arduinoLCD\test\Pain Drain\libraries\lvgl\src\draw\../misc/lv_mem.h **** /**
  77:..\..\..\arduinoLCD\test\Pain Drain\libraries\lvgl\src\draw\../misc/lv_mem.h ****  * Free an allocated data
  78:..\..\..\arduinoLCD\test\Pain Drain\libraries\lvgl\src\draw\../misc/lv_mem.h ****  * @param data pointer to an allocated memory
  79:..\..\..\arduinoLCD\test\Pain Drain\libraries\lvgl\src\draw\../misc/lv_mem.h ****  */
  80:..\..\..\arduinoLCD\test\Pain Drain\libraries\lvgl\src\draw\../misc/lv_mem.h **** void lv_mem_free(void * data);
  81:..\..\..\arduinoLCD\test\Pain Drain\libraries\lvgl\src\draw\../misc/lv_mem.h **** 
  82:..\..\..\arduinoLCD\test\Pain Drain\libraries\lvgl\src\draw\../misc/lv_mem.h **** /**
  83:..\..\..\arduinoLCD\test\Pain Drain\libraries\lvgl\src\draw\../misc/lv_mem.h ****  * Reallocate a memory with a new size. The old content will be kept.
  84:..\..\..\arduinoLCD\test\Pain Drain\libraries\lvgl\src\draw\../misc/lv_mem.h ****  * @param data pointer to an allocated memory.
  85:..\..\..\arduinoLCD\test\Pain Drain\libraries\lvgl\src\draw\../misc/lv_mem.h ****  * Its content will be copied to the new memory block and freed
  86:..\..\..\arduinoLCD\test\Pain Drain\libraries\lvgl\src\draw\../misc/lv_mem.h ****  * @param new_size the desired new size in byte
  87:..\..\..\arduinoLCD\test\Pain Drain\libraries\lvgl\src\draw\../misc/lv_mem.h ****  * @return pointer to the new memory, NULL on failure
  88:..\..\..\arduinoLCD\test\Pain Drain\libraries\lvgl\src\draw\../misc/lv_mem.h ****  */
  89:..\..\..\arduinoLCD\test\Pain Drain\libraries\lvgl\src\draw\../misc/lv_mem.h **** void * lv_mem_realloc(void * data_p, size_t new_size);
  90:..\..\..\arduinoLCD\test\Pain Drain\libraries\lvgl\src\draw\../misc/lv_mem.h **** 
  91:..\..\..\arduinoLCD\test\Pain Drain\libraries\lvgl\src\draw\../misc/lv_mem.h **** /**
  92:..\..\..\arduinoLCD\test\Pain Drain\libraries\lvgl\src\draw\../misc/lv_mem.h ****  *
  93:..\..\..\arduinoLCD\test\Pain Drain\libraries\lvgl\src\draw\../misc/lv_mem.h ****  * @return
  94:..\..\..\arduinoLCD\test\Pain Drain\libraries\lvgl\src\draw\../misc/lv_mem.h ****  */
  95:..\..\..\arduinoLCD\test\Pain Drain\libraries\lvgl\src\draw\../misc/lv_mem.h **** lv_res_t lv_mem_test(void);
  96:..\..\..\arduinoLCD\test\Pain Drain\libraries\lvgl\src\draw\../misc/lv_mem.h **** 
  97:..\..\..\arduinoLCD\test\Pain Drain\libraries\lvgl\src\draw\../misc/lv_mem.h **** /**
  98:..\..\..\arduinoLCD\test\Pain Drain\libraries\lvgl\src\draw\../misc/lv_mem.h ****  * Give information about the work memory of dynamic allocation
  99:..\..\..\arduinoLCD\test\Pain Drain\libraries\lvgl\src\draw\../misc/lv_mem.h ****  * @param mon_p pointer to a lv_mem_monitor_t variable,
 100:..\..\..\arduinoLCD\test\Pain Drain\libraries\lvgl\src\draw\../misc/lv_mem.h ****  *              the result of the analysis will be stored here
 101:..\..\..\arduinoLCD\test\Pain Drain\libraries\lvgl\src\draw\../misc/lv_mem.h ****  */
 102:..\..\..\arduinoLCD\test\Pain Drain\libraries\lvgl\src\draw\../misc/lv_mem.h **** void lv_mem_monitor(lv_mem_monitor_t * mon_p);
 103:..\..\..\arduinoLCD\test\Pain Drain\libraries\lvgl\src\draw\../misc/lv_mem.h **** 
 104:..\..\..\arduinoLCD\test\Pain Drain\libraries\lvgl\src\draw\../misc/lv_mem.h **** 
 105:..\..\..\arduinoLCD\test\Pain Drain\libraries\lvgl\src\draw\../misc/lv_mem.h **** /**
 106:..\..\..\arduinoLCD\test\Pain Drain\libraries\lvgl\src\draw\../misc/lv_mem.h ****  * Get a temporal buffer with the given size.
 107:..\..\..\arduinoLCD\test\Pain Drain\libraries\lvgl\src\draw\../misc/lv_mem.h ****  * @param size the required size
 108:..\..\..\arduinoLCD\test\Pain Drain\libraries\lvgl\src\draw\../misc/lv_mem.h ****  */
 109:..\..\..\arduinoLCD\test\Pain Drain\libraries\lvgl\src\draw\../misc/lv_mem.h **** void * lv_mem_buf_get(uint32_t size);
ARM GAS  C:\Users\haske\AppData\Local\Temp\ccF9IbRI.s 			page 16


 110:..\..\..\arduinoLCD\test\Pain Drain\libraries\lvgl\src\draw\../misc/lv_mem.h **** 
 111:..\..\..\arduinoLCD\test\Pain Drain\libraries\lvgl\src\draw\../misc/lv_mem.h **** /**
 112:..\..\..\arduinoLCD\test\Pain Drain\libraries\lvgl\src\draw\../misc/lv_mem.h ****  * Release a memory buffer
 113:..\..\..\arduinoLCD\test\Pain Drain\libraries\lvgl\src\draw\../misc/lv_mem.h ****  * @param p buffer to release
 114:..\..\..\arduinoLCD\test\Pain Drain\libraries\lvgl\src\draw\../misc/lv_mem.h ****  */
 115:..\..\..\arduinoLCD\test\Pain Drain\libraries\lvgl\src\draw\../misc/lv_mem.h **** void lv_mem_buf_release(void * p);
 116:..\..\..\arduinoLCD\test\Pain Drain\libraries\lvgl\src\draw\../misc/lv_mem.h **** 
 117:..\..\..\arduinoLCD\test\Pain Drain\libraries\lvgl\src\draw\../misc/lv_mem.h **** /**
 118:..\..\..\arduinoLCD\test\Pain Drain\libraries\lvgl\src\draw\../misc/lv_mem.h ****  * Free all memory buffers
 119:..\..\..\arduinoLCD\test\Pain Drain\libraries\lvgl\src\draw\../misc/lv_mem.h ****  */
 120:..\..\..\arduinoLCD\test\Pain Drain\libraries\lvgl\src\draw\../misc/lv_mem.h **** void lv_mem_buf_free_all(void);
 121:..\..\..\arduinoLCD\test\Pain Drain\libraries\lvgl\src\draw\../misc/lv_mem.h **** 
 122:..\..\..\arduinoLCD\test\Pain Drain\libraries\lvgl\src\draw\../misc/lv_mem.h **** //! @cond Doxygen_Suppress
 123:..\..\..\arduinoLCD\test\Pain Drain\libraries\lvgl\src\draw\../misc/lv_mem.h **** 
 124:..\..\..\arduinoLCD\test\Pain Drain\libraries\lvgl\src\draw\../misc/lv_mem.h **** #if LV_MEMCPY_MEMSET_STD
 125:..\..\..\arduinoLCD\test\Pain Drain\libraries\lvgl\src\draw\../misc/lv_mem.h **** 
 126:..\..\..\arduinoLCD\test\Pain Drain\libraries\lvgl\src\draw\../misc/lv_mem.h **** /**
 127:..\..\..\arduinoLCD\test\Pain Drain\libraries\lvgl\src\draw\../misc/lv_mem.h ****  * Wrapper for the standard memcpy
 128:..\..\..\arduinoLCD\test\Pain Drain\libraries\lvgl\src\draw\../misc/lv_mem.h ****  * @param dst pointer to the destination buffer
 129:..\..\..\arduinoLCD\test\Pain Drain\libraries\lvgl\src\draw\../misc/lv_mem.h ****  * @param src pointer to the source buffer
 130:..\..\..\arduinoLCD\test\Pain Drain\libraries\lvgl\src\draw\../misc/lv_mem.h ****  * @param len number of byte to copy
 131:..\..\..\arduinoLCD\test\Pain Drain\libraries\lvgl\src\draw\../misc/lv_mem.h ****  */
 132:..\..\..\arduinoLCD\test\Pain Drain\libraries\lvgl\src\draw\../misc/lv_mem.h **** static inline void * lv_memcpy(void * dst, const void * src, size_t len)
 133:..\..\..\arduinoLCD\test\Pain Drain\libraries\lvgl\src\draw\../misc/lv_mem.h **** {
 134:..\..\..\arduinoLCD\test\Pain Drain\libraries\lvgl\src\draw\../misc/lv_mem.h ****     return memcpy(dst, src, len);
 135:..\..\..\arduinoLCD\test\Pain Drain\libraries\lvgl\src\draw\../misc/lv_mem.h **** }
 136:..\..\..\arduinoLCD\test\Pain Drain\libraries\lvgl\src\draw\../misc/lv_mem.h **** 
 137:..\..\..\arduinoLCD\test\Pain Drain\libraries\lvgl\src\draw\../misc/lv_mem.h **** /**
 138:..\..\..\arduinoLCD\test\Pain Drain\libraries\lvgl\src\draw\../misc/lv_mem.h ****  * Wrapper for the standard memcpy
 139:..\..\..\arduinoLCD\test\Pain Drain\libraries\lvgl\src\draw\../misc/lv_mem.h ****  * @param dst pointer to the destination buffer
 140:..\..\..\arduinoLCD\test\Pain Drain\libraries\lvgl\src\draw\../misc/lv_mem.h ****  * @param src pointer to the source buffer
 141:..\..\..\arduinoLCD\test\Pain Drain\libraries\lvgl\src\draw\../misc/lv_mem.h ****  * @param len number of byte to copy
 142:..\..\..\arduinoLCD\test\Pain Drain\libraries\lvgl\src\draw\../misc/lv_mem.h ****  */
 143:..\..\..\arduinoLCD\test\Pain Drain\libraries\lvgl\src\draw\../misc/lv_mem.h **** static inline void * lv_memcpy_small(void * dst, const void * src, size_t len)
 144:..\..\..\arduinoLCD\test\Pain Drain\libraries\lvgl\src\draw\../misc/lv_mem.h **** {
 145:..\..\..\arduinoLCD\test\Pain Drain\libraries\lvgl\src\draw\../misc/lv_mem.h ****     return memcpy(dst, src, len);
 146:..\..\..\arduinoLCD\test\Pain Drain\libraries\lvgl\src\draw\../misc/lv_mem.h **** }
 147:..\..\..\arduinoLCD\test\Pain Drain\libraries\lvgl\src\draw\../misc/lv_mem.h **** 
 148:..\..\..\arduinoLCD\test\Pain Drain\libraries\lvgl\src\draw\../misc/lv_mem.h **** /**
 149:..\..\..\arduinoLCD\test\Pain Drain\libraries\lvgl\src\draw\../misc/lv_mem.h ****  * Wrapper for the standard memset
 150:..\..\..\arduinoLCD\test\Pain Drain\libraries\lvgl\src\draw\../misc/lv_mem.h ****  * @param dst pointer to the destination buffer
 151:..\..\..\arduinoLCD\test\Pain Drain\libraries\lvgl\src\draw\../misc/lv_mem.h ****  * @param v value to set [0..255]
 152:..\..\..\arduinoLCD\test\Pain Drain\libraries\lvgl\src\draw\../misc/lv_mem.h ****  * @param len number of byte to set
 153:..\..\..\arduinoLCD\test\Pain Drain\libraries\lvgl\src\draw\../misc/lv_mem.h ****  */
 154:..\..\..\arduinoLCD\test\Pain Drain\libraries\lvgl\src\draw\../misc/lv_mem.h **** static inline void lv_memset(void * dst, uint8_t v, size_t len)
 155:..\..\..\arduinoLCD\test\Pain Drain\libraries\lvgl\src\draw\../misc/lv_mem.h **** {
 156:..\..\..\arduinoLCD\test\Pain Drain\libraries\lvgl\src\draw\../misc/lv_mem.h ****     memset(dst, v, len);
 157:..\..\..\arduinoLCD\test\Pain Drain\libraries\lvgl\src\draw\../misc/lv_mem.h **** }
 158:..\..\..\arduinoLCD\test\Pain Drain\libraries\lvgl\src\draw\../misc/lv_mem.h **** 
 159:..\..\..\arduinoLCD\test\Pain Drain\libraries\lvgl\src\draw\../misc/lv_mem.h **** /**
 160:..\..\..\arduinoLCD\test\Pain Drain\libraries\lvgl\src\draw\../misc/lv_mem.h ****  * Wrapper for the standard memset with fixed 0x00 value
 161:..\..\..\arduinoLCD\test\Pain Drain\libraries\lvgl\src\draw\../misc/lv_mem.h ****  * @param dst pointer to the destination buffer
 162:..\..\..\arduinoLCD\test\Pain Drain\libraries\lvgl\src\draw\../misc/lv_mem.h ****  * @param len number of byte to set
 163:..\..\..\arduinoLCD\test\Pain Drain\libraries\lvgl\src\draw\../misc/lv_mem.h ****  */
 164:..\..\..\arduinoLCD\test\Pain Drain\libraries\lvgl\src\draw\../misc/lv_mem.h **** static inline void lv_memset_00(void * dst, size_t len)
 165:..\..\..\arduinoLCD\test\Pain Drain\libraries\lvgl\src\draw\../misc/lv_mem.h **** {
 166:..\..\..\arduinoLCD\test\Pain Drain\libraries\lvgl\src\draw\../misc/lv_mem.h ****     memset(dst, 0x00, len);
ARM GAS  C:\Users\haske\AppData\Local\Temp\ccF9IbRI.s 			page 17


 167:..\..\..\arduinoLCD\test\Pain Drain\libraries\lvgl\src\draw\../misc/lv_mem.h **** }
 168:..\..\..\arduinoLCD\test\Pain Drain\libraries\lvgl\src\draw\../misc/lv_mem.h **** 
 169:..\..\..\arduinoLCD\test\Pain Drain\libraries\lvgl\src\draw\../misc/lv_mem.h **** /**
 170:..\..\..\arduinoLCD\test\Pain Drain\libraries\lvgl\src\draw\../misc/lv_mem.h ****  * Wrapper for the standard memset with fixed 0xFF value
 171:..\..\..\arduinoLCD\test\Pain Drain\libraries\lvgl\src\draw\../misc/lv_mem.h ****  * @param dst pointer to the destination buffer
 172:..\..\..\arduinoLCD\test\Pain Drain\libraries\lvgl\src\draw\../misc/lv_mem.h ****  * @param len number of byte to set
 173:..\..\..\arduinoLCD\test\Pain Drain\libraries\lvgl\src\draw\../misc/lv_mem.h ****  */
 174:..\..\..\arduinoLCD\test\Pain Drain\libraries\lvgl\src\draw\../misc/lv_mem.h **** static inline void lv_memset_ff(void * dst, size_t len)
 175:..\..\..\arduinoLCD\test\Pain Drain\libraries\lvgl\src\draw\../misc/lv_mem.h **** {
 176:..\..\..\arduinoLCD\test\Pain Drain\libraries\lvgl\src\draw\../misc/lv_mem.h ****     memset(dst, 0xFF, len);
 177:..\..\..\arduinoLCD\test\Pain Drain\libraries\lvgl\src\draw\../misc/lv_mem.h **** }
 178:..\..\..\arduinoLCD\test\Pain Drain\libraries\lvgl\src\draw\../misc/lv_mem.h **** 
 179:..\..\..\arduinoLCD\test\Pain Drain\libraries\lvgl\src\draw\../misc/lv_mem.h **** #else
 180:..\..\..\arduinoLCD\test\Pain Drain\libraries\lvgl\src\draw\../misc/lv_mem.h **** /**
 181:..\..\..\arduinoLCD\test\Pain Drain\libraries\lvgl\src\draw\../misc/lv_mem.h ****  * Same as `memcpy` but optimized for 4 byte operation.
 182:..\..\..\arduinoLCD\test\Pain Drain\libraries\lvgl\src\draw\../misc/lv_mem.h ****  * @param dst pointer to the destination buffer
 183:..\..\..\arduinoLCD\test\Pain Drain\libraries\lvgl\src\draw\../misc/lv_mem.h ****  * @param src pointer to the source buffer
 184:..\..\..\arduinoLCD\test\Pain Drain\libraries\lvgl\src\draw\../misc/lv_mem.h ****  * @param len number of byte to copy
 185:..\..\..\arduinoLCD\test\Pain Drain\libraries\lvgl\src\draw\../misc/lv_mem.h ****  */
 186:..\..\..\arduinoLCD\test\Pain Drain\libraries\lvgl\src\draw\../misc/lv_mem.h **** LV_ATTRIBUTE_FAST_MEM void * lv_memcpy(void * dst, const void * src, size_t len);
 187:..\..\..\arduinoLCD\test\Pain Drain\libraries\lvgl\src\draw\../misc/lv_mem.h **** 
 188:..\..\..\arduinoLCD\test\Pain Drain\libraries\lvgl\src\draw\../misc/lv_mem.h **** /**
 189:..\..\..\arduinoLCD\test\Pain Drain\libraries\lvgl\src\draw\../misc/lv_mem.h ****  * Same as `memcpy` but optimized to copy only a few bytes.
 190:..\..\..\arduinoLCD\test\Pain Drain\libraries\lvgl\src\draw\../misc/lv_mem.h ****  * @param dst pointer to the destination buffer
 191:..\..\..\arduinoLCD\test\Pain Drain\libraries\lvgl\src\draw\../misc/lv_mem.h ****  * @param src pointer to the source buffer
 192:..\..\..\arduinoLCD\test\Pain Drain\libraries\lvgl\src\draw\../misc/lv_mem.h ****  * @param len number of byte to copy
 193:..\..\..\arduinoLCD\test\Pain Drain\libraries\lvgl\src\draw\../misc/lv_mem.h ****  */
 194:..\..\..\arduinoLCD\test\Pain Drain\libraries\lvgl\src\draw\../misc/lv_mem.h **** LV_ATTRIBUTE_FAST_MEM static inline void * lv_memcpy_small(void * dst, const void * src, size_t len
 195:..\..\..\arduinoLCD\test\Pain Drain\libraries\lvgl\src\draw\../misc/lv_mem.h **** {
 196:..\..\..\arduinoLCD\test\Pain Drain\libraries\lvgl\src\draw\../misc/lv_mem.h ****     uint8_t * d8 = (uint8_t *)dst;
  97              		.loc 3 196 0
  98 0046 01AA     		add	r2, sp, #4
  99              	.LVL9:
 100              	.LBE34:
 101              	.LBE33:
 102              		.loc 1 60 0
 103 0048 0223     		movs	r3, #2
 104 004a 04E0     		b	.L4
 105              	.LVL10:
 106              	.L5:
 107              	.LBB36:
 108              	.LBB35:
 197:..\..\..\arduinoLCD\test\Pain Drain\libraries\lvgl\src\draw\../misc/lv_mem.h ****     const uint8_t * s8 = (const uint8_t *)src;
 198:..\..\..\arduinoLCD\test\Pain Drain\libraries\lvgl\src\draw\../misc/lv_mem.h **** 
 199:..\..\..\arduinoLCD\test\Pain Drain\libraries\lvgl\src\draw\../misc/lv_mem.h ****     while(len) {
 200:..\..\..\arduinoLCD\test\Pain Drain\libraries\lvgl\src\draw\../misc/lv_mem.h ****         *d8 = *s8;
 109              		.loc 3 200 0
 110 004c 10F8011B 		ldrb	r1, [r0], #1	@ zero_extendqisi2
 111              	.LVL11:
 112 0050 02F8011B 		strb	r1, [r2], #1
 113              	.LVL12:
 201:..\..\..\arduinoLCD\test\Pain Drain\libraries\lvgl\src\draw\../misc/lv_mem.h ****         d8++;
 202:..\..\..\arduinoLCD\test\Pain Drain\libraries\lvgl\src\draw\../misc/lv_mem.h ****         s8++;
 203:..\..\..\arduinoLCD\test\Pain Drain\libraries\lvgl\src\draw\../misc/lv_mem.h ****         len--;
 114              		.loc 3 203 0
 115 0054 013B     		subs	r3, r3, #1
 116              	.LVL13:
ARM GAS  C:\Users\haske\AppData\Local\Temp\ccF9IbRI.s 			page 18


 117              	.L4:
 199:..\..\..\arduinoLCD\test\Pain Drain\libraries\lvgl\src\draw\../misc/lv_mem.h ****         *d8 = *s8;
 118              		.loc 3 199 0
 119 0056 002B     		cmp	r3, #0
 120 0058 F8D1     		bne	.L5
 121 005a 5FE0     		b	.L6
 122              	.LVL14:
 123              	.L3:
 124              	.LBE35:
 125              	.LBE36:
 126              	.LBE32:
  61:..\..\..\arduinoLCD\test\Pain Drain\libraries\lvgl\src\draw/lv_img_buf.c **** #if LV_COLOR_SIZE == 32
  62:..\..\..\arduinoLCD\test\Pain Drain\libraries\lvgl\src\draw/lv_img_buf.c ****         p_color.ch.alpha = 0xFF; /*Only the color should be get so use a default alpha value*/
  63:..\..\..\arduinoLCD\test\Pain Drain\libraries\lvgl\src\draw/lv_img_buf.c **** #endif
  64:..\..\..\arduinoLCD\test\Pain Drain\libraries\lvgl\src\draw/lv_img_buf.c ****     }
  65:..\..\..\arduinoLCD\test\Pain Drain\libraries\lvgl\src\draw/lv_img_buf.c ****     else if(dsc->header.cf == LV_IMG_CF_INDEXED_1BIT) {
 127              		.loc 1 65 0
 128 005c 072C     		cmp	r4, #7
 129 005e 15D1     		bne	.L7
 130              	.LVL15:
 131              	.LBB37:
  66:..\..\..\arduinoLCD\test\Pain Drain\libraries\lvgl\src\draw/lv_img_buf.c ****         buf_u8 += 4 * 2;
  67:..\..\..\arduinoLCD\test\Pain Drain\libraries\lvgl\src\draw/lv_img_buf.c ****         uint8_t bit = x & 0x7;
 132              		.loc 1 67 0
 133 0060 01F00704 		and	r4, r1, #7
 134              	.LVL16:
  68:..\..\..\arduinoLCD\test\Pain Drain\libraries\lvgl\src\draw/lv_img_buf.c ****         x           = x >> 3;
  69:..\..\..\arduinoLCD\test\Pain Drain\libraries\lvgl\src\draw/lv_img_buf.c **** 
  70:..\..\..\arduinoLCD\test\Pain Drain\libraries\lvgl\src\draw/lv_img_buf.c ****         /*Get the current pixel.
  71:..\..\..\arduinoLCD\test\Pain Drain\libraries\lvgl\src\draw/lv_img_buf.c ****          *dsc->header.w + 7 means rounding up to 8 because the lines are byte aligned
  72:..\..\..\arduinoLCD\test\Pain Drain\libraries\lvgl\src\draw/lv_img_buf.c ****          *so the possible real width are 8, 16, 24 ...*/
  73:..\..\..\arduinoLCD\test\Pain Drain\libraries\lvgl\src\draw/lv_img_buf.c ****         uint32_t px  = ((dsc->header.w + 7) >> 3) * y + x;
 135              		.loc 1 73 0
 136 0064 0068     		ldr	r0, [r0]
 137              	.LVL17:
 138 0066 C0F38A20 		ubfx	r0, r0, #10, #11
 139 006a 0730     		adds	r0, r0, #7
 140 006c C010     		asrs	r0, r0, #3
 141 006e 00FB02F2 		mul	r2, r0, r2
 142              	.LVL18:
 143 0072 02EBE101 		add	r1, r2, r1, asr #3
 144              	.LVL19:
  74:..\..\..\arduinoLCD\test\Pain Drain\libraries\lvgl\src\draw/lv_img_buf.c ****         p_color.full = (buf_u8[px] & (1 << (7 - bit))) >> (7 - bit);
 145              		.loc 1 74 0
 146 0076 6818     		adds	r0, r5, r1
 147 0078 037A     		ldrb	r3, [r0, #8]	@ zero_extendqisi2
 148              	.LVL20:
 149 007a C4F10701 		rsb	r1, r4, #7
 150              	.LVL21:
 151 007e 0122     		movs	r2, #1
 152 0080 8A40     		lsls	r2, r2, r1
 153 0082 1340     		ands	r3, r3, r2
 154 0084 0B41     		asrs	r3, r3, r1
 155 0086 ADF80430 		strh	r3, [sp, #4]	@ movhi
 156              	.LBE37:
 157 008a 47E0     		b	.L6
 158              	.LVL22:
ARM GAS  C:\Users\haske\AppData\Local\Temp\ccF9IbRI.s 			page 19


 159              	.L7:
  75:..\..\..\arduinoLCD\test\Pain Drain\libraries\lvgl\src\draw/lv_img_buf.c ****     }
  76:..\..\..\arduinoLCD\test\Pain Drain\libraries\lvgl\src\draw/lv_img_buf.c ****     else if(dsc->header.cf == LV_IMG_CF_INDEXED_2BIT) {
 160              		.loc 1 76 0
 161 008c 082C     		cmp	r4, #8
 162 008e 16D1     		bne	.L8
 163              	.LVL23:
 164              	.LBB38:
  77:..\..\..\arduinoLCD\test\Pain Drain\libraries\lvgl\src\draw/lv_img_buf.c ****         buf_u8 += 4 * 4;
  78:..\..\..\arduinoLCD\test\Pain Drain\libraries\lvgl\src\draw/lv_img_buf.c ****         uint8_t bit = (x & 0x3) * 2;
 165              		.loc 1 78 0
 166 0090 01F00304 		and	r4, r1, #3
 167 0094 6400     		lsls	r4, r4, #1
 168              	.LVL24:
  79:..\..\..\arduinoLCD\test\Pain Drain\libraries\lvgl\src\draw/lv_img_buf.c ****         x           = x >> 2;
  80:..\..\..\arduinoLCD\test\Pain Drain\libraries\lvgl\src\draw/lv_img_buf.c **** 
  81:..\..\..\arduinoLCD\test\Pain Drain\libraries\lvgl\src\draw/lv_img_buf.c ****         /*Get the current pixel.
  82:..\..\..\arduinoLCD\test\Pain Drain\libraries\lvgl\src\draw/lv_img_buf.c ****          *dsc->header.w + 3 means rounding up to 4 because the lines are byte aligned
  83:..\..\..\arduinoLCD\test\Pain Drain\libraries\lvgl\src\draw/lv_img_buf.c ****          *so the possible real width are 4, 8, 12 ...*/
  84:..\..\..\arduinoLCD\test\Pain Drain\libraries\lvgl\src\draw/lv_img_buf.c ****         uint32_t px  = ((dsc->header.w + 3) >> 2) * y + x;
 169              		.loc 1 84 0
 170 0096 0068     		ldr	r0, [r0]
 171              	.LVL25:
 172 0098 C0F38A20 		ubfx	r0, r0, #10, #11
 173 009c 0330     		adds	r0, r0, #3
 174 009e 8010     		asrs	r0, r0, #2
 175 00a0 00FB02F2 		mul	r2, r0, r2
 176              	.LVL26:
 177 00a4 02EBA101 		add	r1, r2, r1, asr #2
 178              	.LVL27:
  85:..\..\..\arduinoLCD\test\Pain Drain\libraries\lvgl\src\draw/lv_img_buf.c ****         p_color.full = (buf_u8[px] & (3 << (6 - bit))) >> (6 - bit);
 179              		.loc 1 85 0
 180 00a8 6818     		adds	r0, r5, r1
 181 00aa 037C     		ldrb	r3, [r0, #16]	@ zero_extendqisi2
 182              	.LVL28:
 183 00ac C4F10601 		rsb	r1, r4, #6
 184              	.LVL29:
 185 00b0 0322     		movs	r2, #3
 186 00b2 8A40     		lsls	r2, r2, r1
 187 00b4 1340     		ands	r3, r3, r2
 188 00b6 0B41     		asrs	r3, r3, r1
 189 00b8 ADF80430 		strh	r3, [sp, #4]	@ movhi
 190              	.LBE38:
 191 00bc 2EE0     		b	.L6
 192              	.LVL30:
 193              	.L8:
  86:..\..\..\arduinoLCD\test\Pain Drain\libraries\lvgl\src\draw/lv_img_buf.c ****     }
  87:..\..\..\arduinoLCD\test\Pain Drain\libraries\lvgl\src\draw/lv_img_buf.c ****     else if(dsc->header.cf == LV_IMG_CF_INDEXED_4BIT) {
 194              		.loc 1 87 0
 195 00be 092C     		cmp	r4, #9
 196 00c0 19D1     		bne	.L9
 197              	.LVL31:
 198              	.LBB39:
  88:..\..\..\arduinoLCD\test\Pain Drain\libraries\lvgl\src\draw/lv_img_buf.c ****         buf_u8 += 4 * 16;
  89:..\..\..\arduinoLCD\test\Pain Drain\libraries\lvgl\src\draw/lv_img_buf.c ****         uint8_t bit = (x & 0x1) * 4;
 199              		.loc 1 89 0
 200 00c2 01F00103 		and	r3, r1, #1
ARM GAS  C:\Users\haske\AppData\Local\Temp\ccF9IbRI.s 			page 20


 201              	.LVL32:
 202 00c6 9B00     		lsls	r3, r3, #2
 203 00c8 DBB2     		uxtb	r3, r3
 204              	.LVL33:
  90:..\..\..\arduinoLCD\test\Pain Drain\libraries\lvgl\src\draw/lv_img_buf.c ****         x           = x >> 1;
  91:..\..\..\arduinoLCD\test\Pain Drain\libraries\lvgl\src\draw/lv_img_buf.c **** 
  92:..\..\..\arduinoLCD\test\Pain Drain\libraries\lvgl\src\draw/lv_img_buf.c ****         /*Get the current pixel.
  93:..\..\..\arduinoLCD\test\Pain Drain\libraries\lvgl\src\draw/lv_img_buf.c ****          *dsc->header.w + 1 means rounding up to 2 because the lines are byte aligned
  94:..\..\..\arduinoLCD\test\Pain Drain\libraries\lvgl\src\draw/lv_img_buf.c ****          *so the possible real width are 2, 4, 6 ...*/
  95:..\..\..\arduinoLCD\test\Pain Drain\libraries\lvgl\src\draw/lv_img_buf.c ****         uint32_t px  = ((dsc->header.w + 1) >> 1) * y + x;
 205              		.loc 1 95 0
 206 00ca 0068     		ldr	r0, [r0]
 207              	.LVL34:
 208 00cc C0F38A20 		ubfx	r0, r0, #10, #11
 209 00d0 0130     		adds	r0, r0, #1
 210 00d2 4010     		asrs	r0, r0, #1
 211 00d4 00FB02F2 		mul	r2, r0, r2
 212              	.LVL35:
 213 00d8 02EB6101 		add	r1, r2, r1, asr #1
 214              	.LVL36:
  96:..\..\..\arduinoLCD\test\Pain Drain\libraries\lvgl\src\draw/lv_img_buf.c ****         p_color.full = (buf_u8[px] & (0xF << (4 - bit))) >> (4 - bit);
 215              		.loc 1 96 0
 216 00dc 6818     		adds	r0, r5, r1
 217 00de 90F84010 		ldrb	r1, [r0, #64]	@ zero_extendqisi2
 218              	.LVL37:
 219 00e2 C3F10403 		rsb	r3, r3, #4
 220              	.LVL38:
 221 00e6 0F22     		movs	r2, #15
 222 00e8 9A40     		lsls	r2, r2, r3
 223 00ea 0A40     		ands	r2, r2, r1
 224 00ec 42FA03F3 		asr	r3, r2, r3
 225 00f0 ADF80430 		strh	r3, [sp, #4]	@ movhi
 226              	.LBE39:
 227 00f4 12E0     		b	.L6
 228              	.LVL39:
 229              	.L9:
  97:..\..\..\arduinoLCD\test\Pain Drain\libraries\lvgl\src\draw/lv_img_buf.c ****     }
  98:..\..\..\arduinoLCD\test\Pain Drain\libraries\lvgl\src\draw/lv_img_buf.c ****     else if(dsc->header.cf == LV_IMG_CF_INDEXED_8BIT) {
 230              		.loc 1 98 0
 231 00f6 0A2C     		cmp	r4, #10
 232 00f8 0AD1     		bne	.L10
 233              	.LVL40:
 234              	.LBB40:
  99:..\..\..\arduinoLCD\test\Pain Drain\libraries\lvgl\src\draw/lv_img_buf.c ****         buf_u8 += 4 * 256;
 100:..\..\..\arduinoLCD\test\Pain Drain\libraries\lvgl\src\draw/lv_img_buf.c ****         uint32_t px  = dsc->header.w * y + x;
 235              		.loc 1 100 0
 236 00fa 0068     		ldr	r0, [r0]
 237              	.LVL41:
 238 00fc C0F38A20 		ubfx	r0, r0, #10, #11
 239 0100 02FB0012 		mla	r2, r2, r0, r1
 240              	.LVL42:
 101:..\..\..\arduinoLCD\test\Pain Drain\libraries\lvgl\src\draw/lv_img_buf.c ****         p_color.full = buf_u8[px];
 241              		.loc 1 101 0
 242 0104 A818     		adds	r0, r5, r2
 243 0106 90F80034 		ldrb	r3, [r0, #1024]	@ zero_extendqisi2
 244              	.LVL43:
 245 010a ADF80430 		strh	r3, [sp, #4]	@ movhi
ARM GAS  C:\Users\haske\AppData\Local\Temp\ccF9IbRI.s 			page 21


 246              	.LBE40:
 247 010e 05E0     		b	.L6
 248              	.LVL44:
 249              	.L10:
 102:..\..\..\arduinoLCD\test\Pain Drain\libraries\lvgl\src\draw/lv_img_buf.c ****     }
 103:..\..\..\arduinoLCD\test\Pain Drain\libraries\lvgl\src\draw/lv_img_buf.c ****     else if(dsc->header.cf == LV_IMG_CF_ALPHA_1BIT || dsc->header.cf == LV_IMG_CF_ALPHA_2BIT ||
 104:..\..\..\arduinoLCD\test\Pain Drain\libraries\lvgl\src\draw/lv_img_buf.c ****             dsc->header.cf == LV_IMG_CF_ALPHA_4BIT || dsc->header.cf == LV_IMG_CF_ALPHA_8BIT) {
 250              		.loc 1 104 0
 251 0110 0B3C     		subs	r4, r4, #11
 252 0112 E4B2     		uxtb	r4, r4
 103:..\..\..\arduinoLCD\test\Pain Drain\libraries\lvgl\src\draw/lv_img_buf.c ****             dsc->header.cf == LV_IMG_CF_ALPHA_4BIT || dsc->header.cf == LV_IMG_CF_ALPHA_8BIT) {
 253              		.loc 1 103 0
 254 0114 032C     		cmp	r4, #3
 255 0116 01D8     		bhi	.L6
 105:..\..\..\arduinoLCD\test\Pain Drain\libraries\lvgl\src\draw/lv_img_buf.c ****         p_color = color;
 256              		.loc 1 105 0
 257 0118 ADF80430 		strh	r3, [sp, #4]	@ movhi
 258              	.LVL45:
 259              	.L6:
 106:..\..\..\arduinoLCD\test\Pain Drain\libraries\lvgl\src\draw/lv_img_buf.c ****     }
 107:..\..\..\arduinoLCD\test\Pain Drain\libraries\lvgl\src\draw/lv_img_buf.c ****     return p_color;
 108:..\..\..\arduinoLCD\test\Pain Drain\libraries\lvgl\src\draw/lv_img_buf.c **** }
 260              		.loc 1 108 0
 261 011c BDF80400 		ldrh	r0, [sp, #4]
 262 0120 03B0     		add	sp, sp, #12
 263              		.cfi_def_cfa_offset 20
 264              		@ sp needed
 265 0122 F0BD     		pop	{r4, r5, r6, r7, pc}
 266              		.cfi_endproc
 267              	.LFE54:
 268              		.size	lv_img_buf_get_px_color, .-lv_img_buf_get_px_color
 269              		.section	.text.lv_img_buf_get_px_alpha,"ax",%progbits
 270              		.align	2
 271              		.global	lv_img_buf_get_px_alpha
 272              		.thumb
 273              		.thumb_func
 274              		.type	lv_img_buf_get_px_alpha, %function
 275              	lv_img_buf_get_px_alpha:
 276              	.LFB55:
 109:..\..\..\arduinoLCD\test\Pain Drain\libraries\lvgl\src\draw/lv_img_buf.c **** 
 110:..\..\..\arduinoLCD\test\Pain Drain\libraries\lvgl\src\draw/lv_img_buf.c **** /**
 111:..\..\..\arduinoLCD\test\Pain Drain\libraries\lvgl\src\draw/lv_img_buf.c ****  * Get the alpha value of an image's pixel
 112:..\..\..\arduinoLCD\test\Pain Drain\libraries\lvgl\src\draw/lv_img_buf.c ****  * @param dsc pointer to an image descriptor
 113:..\..\..\arduinoLCD\test\Pain Drain\libraries\lvgl\src\draw/lv_img_buf.c ****  * @param x x coordinate of the point to set
 114:..\..\..\arduinoLCD\test\Pain Drain\libraries\lvgl\src\draw/lv_img_buf.c ****  * @param y x coordinate of the point to set
 115:..\..\..\arduinoLCD\test\Pain Drain\libraries\lvgl\src\draw/lv_img_buf.c ****  * @param safe true: check out of bounds
 116:..\..\..\arduinoLCD\test\Pain Drain\libraries\lvgl\src\draw/lv_img_buf.c ****  * @return alpha value of the point
 117:..\..\..\arduinoLCD\test\Pain Drain\libraries\lvgl\src\draw/lv_img_buf.c ****  */
 118:..\..\..\arduinoLCD\test\Pain Drain\libraries\lvgl\src\draw/lv_img_buf.c **** lv_opa_t lv_img_buf_get_px_alpha(lv_img_dsc_t * dsc, lv_coord_t x, lv_coord_t y)
 119:..\..\..\arduinoLCD\test\Pain Drain\libraries\lvgl\src\draw/lv_img_buf.c **** {
 277              		.loc 1 119 0
 278              		.cfi_startproc
 279              		@ args = 0, pretend = 0, frame = 16
 280              		@ frame_needed = 0, uses_anonymous_args = 0
 281              	.LVL46:
 282 0000 F0B5     		push	{r4, r5, r6, r7, lr}
 283              		.cfi_def_cfa_offset 20
ARM GAS  C:\Users\haske\AppData\Local\Temp\ccF9IbRI.s 			page 22


 284              		.cfi_offset 4, -20
 285              		.cfi_offset 5, -16
 286              		.cfi_offset 6, -12
 287              		.cfi_offset 7, -8
 288              		.cfi_offset 14, -4
 289 0002 85B0     		sub	sp, sp, #20
 290              		.cfi_def_cfa_offset 40
 291 0004 0446     		mov	r4, r0
 292 0006 0E46     		mov	r6, r1
 293 0008 1746     		mov	r7, r2
 120:..\..\..\arduinoLCD\test\Pain Drain\libraries\lvgl\src\draw/lv_img_buf.c ****     uint8_t * buf_u8 = (uint8_t *)dsc->data;
 294              		.loc 1 120 0
 295 000a 8568     		ldr	r5, [r0, #8]
 296              	.LVL47:
 121:..\..\..\arduinoLCD\test\Pain Drain\libraries\lvgl\src\draw/lv_img_buf.c **** 
 122:..\..\..\arduinoLCD\test\Pain Drain\libraries\lvgl\src\draw/lv_img_buf.c ****     if(dsc->header.cf == LV_IMG_CF_TRUE_COLOR_ALPHA) {
 297              		.loc 1 122 0
 298 000c 0378     		ldrb	r3, [r0]	@ zero_extendqisi2
 299 000e 03F01F03 		and	r3, r3, #31
 300 0012 052B     		cmp	r3, #5
 301 0014 09D1     		bne	.L13
 302              	.LBB41:
 123:..\..\..\arduinoLCD\test\Pain Drain\libraries\lvgl\src\draw/lv_img_buf.c ****         uint32_t px = dsc->header.w * y * LV_IMG_PX_SIZE_ALPHA_BYTE + x * LV_IMG_PX_SIZE_ALPHA_BYTE
 303              		.loc 1 123 0
 304 0016 0168     		ldr	r1, [r0]
 305              	.LVL48:
 306 0018 C1F38A21 		ubfx	r1, r1, #10, #11
 307 001c 02FB0161 		mla	r1, r2, r1, r6
 308 0020 01EB4101 		add	r1, r1, r1, lsl #1
 309              	.LVL49:
 124:..\..\..\arduinoLCD\test\Pain Drain\libraries\lvgl\src\draw/lv_img_buf.c ****         return buf_u8[px + LV_IMG_PX_SIZE_ALPHA_BYTE - 1];
 310              		.loc 1 124 0
 311 0024 0231     		adds	r1, r1, #2
 312              	.LVL50:
 313 0026 685C     		ldrb	r0, [r5, r1]	@ zero_extendqisi2
 314              	.LVL51:
 315 0028 66E0     		b	.L14
 316              	.LVL52:
 317              	.L13:
 318              	.LBE41:
 125:..\..\..\arduinoLCD\test\Pain Drain\libraries\lvgl\src\draw/lv_img_buf.c ****     }
 126:..\..\..\arduinoLCD\test\Pain Drain\libraries\lvgl\src\draw/lv_img_buf.c ****     else if(dsc->header.cf == LV_IMG_CF_ALPHA_1BIT) {
 319              		.loc 1 126 0
 320 002a 0B2B     		cmp	r3, #11
 321 002c 16D1     		bne	.L15
 322              	.LBB42:
 127:..\..\..\arduinoLCD\test\Pain Drain\libraries\lvgl\src\draw/lv_img_buf.c ****         uint8_t bit = x & 0x7;
 323              		.loc 1 127 0
 324 002e 01F00702 		and	r2, r1, #7
 325              	.LVL53:
 128:..\..\..\arduinoLCD\test\Pain Drain\libraries\lvgl\src\draw/lv_img_buf.c ****         x           = x >> 3;
 129:..\..\..\arduinoLCD\test\Pain Drain\libraries\lvgl\src\draw/lv_img_buf.c **** 
 130:..\..\..\arduinoLCD\test\Pain Drain\libraries\lvgl\src\draw/lv_img_buf.c ****         /*Get the current pixel.
 131:..\..\..\arduinoLCD\test\Pain Drain\libraries\lvgl\src\draw/lv_img_buf.c ****          *dsc->header.w + 7 means rounding up to 8 because the lines are byte aligned
 132:..\..\..\arduinoLCD\test\Pain Drain\libraries\lvgl\src\draw/lv_img_buf.c ****          *so the possible real width are 8 ,16, 24 ...*/
 133:..\..\..\arduinoLCD\test\Pain Drain\libraries\lvgl\src\draw/lv_img_buf.c ****         uint32_t px    = ((dsc->header.w + 7) >> 3) * y + x;
 326              		.loc 1 133 0
ARM GAS  C:\Users\haske\AppData\Local\Temp\ccF9IbRI.s 			page 23


 327 0032 0168     		ldr	r1, [r0]
 328              	.LVL54:
 329 0034 C1F38A21 		ubfx	r1, r1, #10, #11
 330 0038 0731     		adds	r1, r1, #7
 331 003a C910     		asrs	r1, r1, #3
 332 003c 01FB07F1 		mul	r1, r1, r7
 333 0040 01EBE601 		add	r1, r1, r6, asr #3
 334              	.LVL55:
 134:..\..\..\arduinoLCD\test\Pain Drain\libraries\lvgl\src\draw/lv_img_buf.c ****         uint8_t px_opa = (buf_u8[px] & (1 << (7 - bit))) >> (7 - bit);
 335              		.loc 1 134 0
 336 0044 6B5C     		ldrb	r3, [r5, r1]	@ zero_extendqisi2
 337 0046 C2F10701 		rsb	r1, r2, #7
 338              	.LVL56:
 339 004a 0122     		movs	r2, #1
 340              	.LVL57:
 341 004c 8A40     		lsls	r2, r2, r1
 342 004e 1340     		ands	r3, r3, r2
 343 0050 0B41     		asrs	r3, r3, r1
 344              	.LVL58:
 135:..\..\..\arduinoLCD\test\Pain Drain\libraries\lvgl\src\draw/lv_img_buf.c ****         return px_opa ? LV_OPA_TRANSP : LV_OPA_COVER;
 345              		.loc 1 135 0
 346 0052 13F0FF0F 		tst	r3, #255
 347 0056 4CD0     		beq	.L18
 348 0058 0020     		movs	r0, #0
 349              	.LVL59:
 350 005a 4DE0     		b	.L14
 351              	.LVL60:
 352              	.L15:
 353              	.LBE42:
 136:..\..\..\arduinoLCD\test\Pain Drain\libraries\lvgl\src\draw/lv_img_buf.c ****     }
 137:..\..\..\arduinoLCD\test\Pain Drain\libraries\lvgl\src\draw/lv_img_buf.c ****     else if(dsc->header.cf == LV_IMG_CF_ALPHA_2BIT) {
 354              		.loc 1 137 0
 355 005c 0C2B     		cmp	r3, #12
 356 005e 1BD1     		bne	.L16
 357              	.LBB43:
 138:..\..\..\arduinoLCD\test\Pain Drain\libraries\lvgl\src\draw/lv_img_buf.c ****         const uint8_t opa_table[4] = {0, 85, 170, 255}; /*Opacity mapping with bpp = 2*/
 358              		.loc 1 138 0
 359 0060 264B     		ldr	r3, .L21
 360 0062 1868     		ldr	r0, [r3]	@ unaligned
 361              	.LVL61:
 362 0064 0090     		str	r0, [sp]	@ unaligned
 139:..\..\..\arduinoLCD\test\Pain Drain\libraries\lvgl\src\draw/lv_img_buf.c **** 
 140:..\..\..\arduinoLCD\test\Pain Drain\libraries\lvgl\src\draw/lv_img_buf.c ****         uint8_t bit = (x & 0x3) * 2;
 363              		.loc 1 140 0
 364 0066 01F00301 		and	r1, r1, #3
 365              	.LVL62:
 366 006a 4A00     		lsls	r2, r1, #1
 367              	.LVL63:
 141:..\..\..\arduinoLCD\test\Pain Drain\libraries\lvgl\src\draw/lv_img_buf.c ****         x           = x >> 2;
 142:..\..\..\arduinoLCD\test\Pain Drain\libraries\lvgl\src\draw/lv_img_buf.c **** 
 143:..\..\..\arduinoLCD\test\Pain Drain\libraries\lvgl\src\draw/lv_img_buf.c ****         /*Get the current pixel.
 144:..\..\..\arduinoLCD\test\Pain Drain\libraries\lvgl\src\draw/lv_img_buf.c ****          *dsc->header.w + 4 means rounding up to 8 because the lines are byte aligned
 145:..\..\..\arduinoLCD\test\Pain Drain\libraries\lvgl\src\draw/lv_img_buf.c ****          *so the possible real width are 4 ,8, 12 ...*/
 146:..\..\..\arduinoLCD\test\Pain Drain\libraries\lvgl\src\draw/lv_img_buf.c ****         uint32_t px    = ((dsc->header.w + 3) >> 2) * y + x;
 368              		.loc 1 146 0
 369 006c 2168     		ldr	r1, [r4]
 370 006e C1F38A21 		ubfx	r1, r1, #10, #11
ARM GAS  C:\Users\haske\AppData\Local\Temp\ccF9IbRI.s 			page 24


 371 0072 0331     		adds	r1, r1, #3
 372 0074 8910     		asrs	r1, r1, #2
 373 0076 01FB07F1 		mul	r1, r1, r7
 374 007a 01EBA601 		add	r1, r1, r6, asr #2
 375              	.LVL64:
 147:..\..\..\arduinoLCD\test\Pain Drain\libraries\lvgl\src\draw/lv_img_buf.c ****         uint8_t px_opa = (buf_u8[px] & (3 << (6 - bit))) >> (6 - bit);
 376              		.loc 1 147 0
 377 007e 6B5C     		ldrb	r3, [r5, r1]	@ zero_extendqisi2
 378 0080 C2F10601 		rsb	r1, r2, #6
 379              	.LVL65:
 380 0084 0322     		movs	r2, #3
 381              	.LVL66:
 382 0086 8A40     		lsls	r2, r2, r1
 383 0088 1340     		ands	r3, r3, r2
 384 008a 0B41     		asrs	r3, r3, r1
 385              	.LVL67:
 148:..\..\..\arduinoLCD\test\Pain Drain\libraries\lvgl\src\draw/lv_img_buf.c ****         return opa_table[px_opa];
 386              		.loc 1 148 0
 387 008c 04AA     		add	r2, sp, #16
 388 008e 52FA83F3 		uxtab	r3, r2, r3
 389              	.LVL68:
 390 0092 13F8100C 		ldrb	r0, [r3, #-16]	@ zero_extendqisi2
 391 0096 2FE0     		b	.L14
 392              	.LVL69:
 393              	.L16:
 394              	.LBE43:
 149:..\..\..\arduinoLCD\test\Pain Drain\libraries\lvgl\src\draw/lv_img_buf.c ****     }
 150:..\..\..\arduinoLCD\test\Pain Drain\libraries\lvgl\src\draw/lv_img_buf.c ****     else if(dsc->header.cf == LV_IMG_CF_ALPHA_4BIT) {
 395              		.loc 1 150 0
 396 0098 0D2B     		cmp	r3, #13
 397 009a 21D1     		bne	.L17
 398              	.LBB44:
 151:..\..\..\arduinoLCD\test\Pain Drain\libraries\lvgl\src\draw/lv_img_buf.c ****         const uint8_t opa_table[16] = {0,  17, 34,  51, /*Opacity mapping with bpp = 4*/
 399              		.loc 1 151 0
 400 009c EE46     		mov	lr, sp
 401 009e 174B     		ldr	r3, .L21
 402 00a0 53F8040F 		ldr	r0, [r3, #4]!	@ unaligned
 403              	.LVL70:
 404 00a4 5968     		ldr	r1, [r3, #4]	@ unaligned
 405              	.LVL71:
 406 00a6 9A68     		ldr	r2, [r3, #8]	@ unaligned
 407              	.LVL72:
 408 00a8 DB68     		ldr	r3, [r3, #12]	@ unaligned
 409 00aa AEE80F00 		stmia	lr!, {r0, r1, r2, r3}
 152:..\..\..\arduinoLCD\test\Pain Drain\libraries\lvgl\src\draw/lv_img_buf.c ****                                        68, 85, 102, 119, 136, 153, 170, 187, 204, 221, 238, 255
 153:..\..\..\arduinoLCD\test\Pain Drain\libraries\lvgl\src\draw/lv_img_buf.c ****                                       };
 154:..\..\..\arduinoLCD\test\Pain Drain\libraries\lvgl\src\draw/lv_img_buf.c **** 
 155:..\..\..\arduinoLCD\test\Pain Drain\libraries\lvgl\src\draw/lv_img_buf.c ****         uint8_t bit = (x & 0x1) * 4;
 410              		.loc 1 155 0
 411 00ae 06F00101 		and	r1, r6, #1
 412 00b2 8900     		lsls	r1, r1, #2
 413 00b4 CAB2     		uxtb	r2, r1
 414              	.LVL73:
 156:..\..\..\arduinoLCD\test\Pain Drain\libraries\lvgl\src\draw/lv_img_buf.c ****         x           = x >> 1;
 157:..\..\..\arduinoLCD\test\Pain Drain\libraries\lvgl\src\draw/lv_img_buf.c **** 
 158:..\..\..\arduinoLCD\test\Pain Drain\libraries\lvgl\src\draw/lv_img_buf.c ****         /*Get the current pixel.
 159:..\..\..\arduinoLCD\test\Pain Drain\libraries\lvgl\src\draw/lv_img_buf.c ****          *dsc->header.w + 1 means rounding up to 8 because the lines are byte aligned
ARM GAS  C:\Users\haske\AppData\Local\Temp\ccF9IbRI.s 			page 25


 160:..\..\..\arduinoLCD\test\Pain Drain\libraries\lvgl\src\draw/lv_img_buf.c ****          *so the possible real width are 2 ,4, 6 ...*/
 161:..\..\..\arduinoLCD\test\Pain Drain\libraries\lvgl\src\draw/lv_img_buf.c ****         uint32_t px    = ((dsc->header.w + 1) >> 1) * y + x;
 415              		.loc 1 161 0
 416 00b6 2168     		ldr	r1, [r4]
 417 00b8 C1F38A21 		ubfx	r1, r1, #10, #11
 418 00bc 0131     		adds	r1, r1, #1
 419 00be 4910     		asrs	r1, r1, #1
 420 00c0 01FB07F1 		mul	r1, r1, r7
 421 00c4 01EB6601 		add	r1, r1, r6, asr #1
 422              	.LVL74:
 162:..\..\..\arduinoLCD\test\Pain Drain\libraries\lvgl\src\draw/lv_img_buf.c ****         uint8_t px_opa = (buf_u8[px] & (0xF << (4 - bit))) >> (4 - bit);
 423              		.loc 1 162 0
 424 00c8 6B5C     		ldrb	r3, [r5, r1]	@ zero_extendqisi2
 425 00ca C2F10401 		rsb	r1, r2, #4
 426              	.LVL75:
 427 00ce 0F22     		movs	r2, #15
 428              	.LVL76:
 429 00d0 8A40     		lsls	r2, r2, r1
 430 00d2 1340     		ands	r3, r3, r2
 431 00d4 0B41     		asrs	r3, r3, r1
 432              	.LVL77:
 163:..\..\..\arduinoLCD\test\Pain Drain\libraries\lvgl\src\draw/lv_img_buf.c ****         return opa_table[px_opa];
 433              		.loc 1 163 0
 434 00d6 5EFA83F3 		uxtab	r3, lr, r3
 435              	.LVL78:
 436 00da 13F8100C 		ldrb	r0, [r3, #-16]	@ zero_extendqisi2
 437 00de 0BE0     		b	.L14
 438              	.LVL79:
 439              	.L17:
 440              	.LBE44:
 164:..\..\..\arduinoLCD\test\Pain Drain\libraries\lvgl\src\draw/lv_img_buf.c ****     }
 165:..\..\..\arduinoLCD\test\Pain Drain\libraries\lvgl\src\draw/lv_img_buf.c ****     else if(dsc->header.cf == LV_IMG_CF_ALPHA_8BIT) {
 441              		.loc 1 165 0
 442 00e0 0E2B     		cmp	r3, #14
 443 00e2 08D1     		bne	.L19
 444              	.LBB45:
 166:..\..\..\arduinoLCD\test\Pain Drain\libraries\lvgl\src\draw/lv_img_buf.c ****         uint32_t px = dsc->header.w * y + x;
 445              		.loc 1 166 0
 446 00e4 0168     		ldr	r1, [r0]
 447              	.LVL80:
 448 00e6 C1F38A21 		ubfx	r1, r1, #10, #11
 449 00ea 02FB0161 		mla	r1, r2, r1, r6
 450              	.LVL81:
 167:..\..\..\arduinoLCD\test\Pain Drain\libraries\lvgl\src\draw/lv_img_buf.c ****         return buf_u8[px];
 451              		.loc 1 167 0
 452 00ee 685C     		ldrb	r0, [r5, r1]	@ zero_extendqisi2
 453              	.LVL82:
 454 00f0 02E0     		b	.L14
 455              	.LVL83:
 456              	.L18:
 457              	.LBE45:
 458              	.LBB46:
 135:..\..\..\arduinoLCD\test\Pain Drain\libraries\lvgl\src\draw/lv_img_buf.c ****     }
 459              		.loc 1 135 0
 460 00f2 FF20     		movs	r0, #255
 461              	.LVL84:
 462 00f4 00E0     		b	.L14
ARM GAS  C:\Users\haske\AppData\Local\Temp\ccF9IbRI.s 			page 26


 463              	.LVL85:
 464              	.L19:
 465              	.LBE46:
 168:..\..\..\arduinoLCD\test\Pain Drain\libraries\lvgl\src\draw/lv_img_buf.c ****     }
 169:..\..\..\arduinoLCD\test\Pain Drain\libraries\lvgl\src\draw/lv_img_buf.c **** 
 170:..\..\..\arduinoLCD\test\Pain Drain\libraries\lvgl\src\draw/lv_img_buf.c ****     return LV_OPA_COVER;
 466              		.loc 1 170 0
 467 00f6 FF20     		movs	r0, #255
 468              	.LVL86:
 469              	.L14:
 171:..\..\..\arduinoLCD\test\Pain Drain\libraries\lvgl\src\draw/lv_img_buf.c **** }
 470              		.loc 1 171 0 discriminator 1
 471 00f8 05B0     		add	sp, sp, #20
 472              		.cfi_def_cfa_offset 20
 473              		@ sp needed
 474 00fa F0BD     		pop	{r4, r5, r6, r7, pc}
 475              	.LVL87:
 476              	.L22:
 477              		.align	2
 478              	.L21:
 479 00fc 00000000 		.word	.LANCHOR0
 480              		.cfi_endproc
 481              	.LFE55:
 482              		.size	lv_img_buf_get_px_alpha, .-lv_img_buf_get_px_alpha
 483              		.section	.text.lv_img_buf_set_px_alpha,"ax",%progbits
 484              		.align	2
 485              		.global	lv_img_buf_set_px_alpha
 486              		.thumb
 487              		.thumb_func
 488              		.type	lv_img_buf_set_px_alpha, %function
 489              	lv_img_buf_set_px_alpha:
 490              	.LFB56:
 172:..\..\..\arduinoLCD\test\Pain Drain\libraries\lvgl\src\draw/lv_img_buf.c **** 
 173:..\..\..\arduinoLCD\test\Pain Drain\libraries\lvgl\src\draw/lv_img_buf.c **** /**
 174:..\..\..\arduinoLCD\test\Pain Drain\libraries\lvgl\src\draw/lv_img_buf.c ****  * Set the alpha value of a pixel of an image. The color won't be affected
 175:..\..\..\arduinoLCD\test\Pain Drain\libraries\lvgl\src\draw/lv_img_buf.c ****  * @param dsc pointer to an image descriptor
 176:..\..\..\arduinoLCD\test\Pain Drain\libraries\lvgl\src\draw/lv_img_buf.c ****  * @param x x coordinate of the point to set
 177:..\..\..\arduinoLCD\test\Pain Drain\libraries\lvgl\src\draw/lv_img_buf.c ****  * @param y x coordinate of the point to set
 178:..\..\..\arduinoLCD\test\Pain Drain\libraries\lvgl\src\draw/lv_img_buf.c ****  * @param opa the desired opacity
 179:..\..\..\arduinoLCD\test\Pain Drain\libraries\lvgl\src\draw/lv_img_buf.c ****  * @param safe true: check out of bounds
 180:..\..\..\arduinoLCD\test\Pain Drain\libraries\lvgl\src\draw/lv_img_buf.c ****  */
 181:..\..\..\arduinoLCD\test\Pain Drain\libraries\lvgl\src\draw/lv_img_buf.c **** void lv_img_buf_set_px_alpha(lv_img_dsc_t * dsc, lv_coord_t x, lv_coord_t y, lv_opa_t opa)
 182:..\..\..\arduinoLCD\test\Pain Drain\libraries\lvgl\src\draw/lv_img_buf.c **** {
 491              		.loc 1 182 0
 492              		.cfi_startproc
 493              		@ args = 0, pretend = 0, frame = 0
 494              		@ frame_needed = 0, uses_anonymous_args = 0
 495              	.LVL88:
 496 0000 2DE9F041 		push	{r4, r5, r6, r7, r8, lr}
 497              		.cfi_def_cfa_offset 24
 498              		.cfi_offset 4, -24
 499              		.cfi_offset 5, -20
 500              		.cfi_offset 6, -16
 501              		.cfi_offset 7, -12
 502              		.cfi_offset 8, -8
 503              		.cfi_offset 14, -4
 183:..\..\..\arduinoLCD\test\Pain Drain\libraries\lvgl\src\draw/lv_img_buf.c ****     uint8_t * buf_u8 = (uint8_t *)dsc->data;
ARM GAS  C:\Users\haske\AppData\Local\Temp\ccF9IbRI.s 			page 27


 504              		.loc 1 183 0
 505 0004 8568     		ldr	r5, [r0, #8]
 506              	.LVL89:
 184:..\..\..\arduinoLCD\test\Pain Drain\libraries\lvgl\src\draw/lv_img_buf.c **** 
 185:..\..\..\arduinoLCD\test\Pain Drain\libraries\lvgl\src\draw/lv_img_buf.c ****     if(dsc->header.cf == LV_IMG_CF_TRUE_COLOR_ALPHA) {
 507              		.loc 1 185 0
 508 0006 0478     		ldrb	r4, [r0]	@ zero_extendqisi2
 509 0008 04F01F04 		and	r4, r4, #31
 510 000c 052C     		cmp	r4, #5
 511 000e 16D1     		bne	.L24
 512 0010 1C46     		mov	r4, r3
 513 0012 1646     		mov	r6, r2
 514 0014 0F46     		mov	r7, r1
 515 0016 8046     		mov	r8, r0
 516              	.LBB47:
 186:..\..\..\arduinoLCD\test\Pain Drain\libraries\lvgl\src\draw/lv_img_buf.c ****         uint8_t px_size          = lv_img_cf_get_px_size(dsc->header.cf) >> 3;
 517              		.loc 1 186 0
 518 0018 0078     		ldrb	r0, [r0]	@ zero_extendqisi2
 519              	.LVL90:
 520 001a 00F01F00 		and	r0, r0, #31
 521 001e FFF7FEFF 		bl	lv_img_cf_get_px_size
 522              	.LVL91:
 523 0022 C0F3C700 		ubfx	r0, r0, #3, #8
 524              	.LVL92:
 187:..\..\..\arduinoLCD\test\Pain Drain\libraries\lvgl\src\draw/lv_img_buf.c ****         uint32_t px              = dsc->header.w * y * px_size + x * px_size;
 525              		.loc 1 187 0
 526 0026 D8F80010 		ldr	r1, [r8]
 527 002a C1F38A21 		ubfx	r1, r1, #10, #11
 528 002e 06FB0171 		mla	r1, r6, r1, r7
 529              	.LVL93:
 188:..\..\..\arduinoLCD\test\Pain Drain\libraries\lvgl\src\draw/lv_img_buf.c ****         buf_u8[px + px_size - 1] = opa;
 530              		.loc 1 188 0
 531 0032 00FB0100 		mla	r0, r0, r1, r0
 532              	.LVL94:
 533 0036 0138     		subs	r0, r0, #1
 534 0038 2C54     		strb	r4, [r5, r0]
 535              	.LBE47:
 536 003a BDE8F081 		pop	{r4, r5, r6, r7, r8, pc}
 537              	.LVL95:
 538              	.L24:
 189:..\..\..\arduinoLCD\test\Pain Drain\libraries\lvgl\src\draw/lv_img_buf.c ****     }
 190:..\..\..\arduinoLCD\test\Pain Drain\libraries\lvgl\src\draw/lv_img_buf.c ****     else if(dsc->header.cf == LV_IMG_CF_ALPHA_1BIT) {
 539              		.loc 1 190 0
 540 003e 0B2C     		cmp	r4, #11
 541 0040 19D1     		bne	.L26
 542              	.LBB48:
 191:..\..\..\arduinoLCD\test\Pain Drain\libraries\lvgl\src\draw/lv_img_buf.c ****         opa         = opa >> 7; /*opa -> [0,1]*/
 543              		.loc 1 191 0
 544 0042 DC09     		lsrs	r4, r3, #7
 545              	.LVL96:
 192:..\..\..\arduinoLCD\test\Pain Drain\libraries\lvgl\src\draw/lv_img_buf.c ****         uint8_t bit = x & 0x7;
 546              		.loc 1 192 0
 547 0044 01F00703 		and	r3, r1, #7
 548              	.LVL97:
 193:..\..\..\arduinoLCD\test\Pain Drain\libraries\lvgl\src\draw/lv_img_buf.c ****         x           = x >> 3;
 194:..\..\..\arduinoLCD\test\Pain Drain\libraries\lvgl\src\draw/lv_img_buf.c **** 
 195:..\..\..\arduinoLCD\test\Pain Drain\libraries\lvgl\src\draw/lv_img_buf.c ****         /*Get the current pixel.
ARM GAS  C:\Users\haske\AppData\Local\Temp\ccF9IbRI.s 			page 28


 196:..\..\..\arduinoLCD\test\Pain Drain\libraries\lvgl\src\draw/lv_img_buf.c ****          *dsc->header.w + 7 means rounding up to 8 because the lines are byte aligned
 197:..\..\..\arduinoLCD\test\Pain Drain\libraries\lvgl\src\draw/lv_img_buf.c ****          *so the possible real width are 8 ,16, 24 ...*/
 198:..\..\..\arduinoLCD\test\Pain Drain\libraries\lvgl\src\draw/lv_img_buf.c ****         uint32_t px = ((dsc->header.w + 7) >> 3) * y + x;
 549              		.loc 1 198 0
 550 0048 0068     		ldr	r0, [r0]
 551              	.LVL98:
 552 004a C0F38A20 		ubfx	r0, r0, #10, #11
 553 004e 0730     		adds	r0, r0, #7
 554 0050 C010     		asrs	r0, r0, #3
 555 0052 00FB02F2 		mul	r2, r0, r2
 556              	.LVL99:
 557 0056 02EBE101 		add	r1, r2, r1, asr #3
 558              	.LVL100:
 199:..\..\..\arduinoLCD\test\Pain Drain\libraries\lvgl\src\draw/lv_img_buf.c ****         buf_u8[px]  = buf_u8[px] & ~(1 << (7 - bit));
 559              		.loc 1 199 0
 560 005a 685C     		ldrb	r0, [r5, r1]	@ zero_extendqisi2
 561 005c C3F10703 		rsb	r3, r3, #7
 562              	.LVL101:
 563 0060 0122     		movs	r2, #1
 564 0062 9A40     		lsls	r2, r2, r3
 565 0064 20EA0202 		bic	r2, r0, r2
 566 0068 52B2     		sxtb	r2, r2
 200:..\..\..\arduinoLCD\test\Pain Drain\libraries\lvgl\src\draw/lv_img_buf.c ****         buf_u8[px]  = buf_u8[px] | ((opa & 0x1) << (7 - bit));
 567              		.loc 1 200 0
 568 006a 04FA03F3 		lsl	r3, r4, r3
 569 006e 1343     		orrs	r3, r3, r2
 570 0070 6B54     		strb	r3, [r5, r1]
 571              	.LBE48:
 572 0072 BDE8F081 		pop	{r4, r5, r6, r7, r8, pc}
 573              	.LVL102:
 574              	.L26:
 201:..\..\..\arduinoLCD\test\Pain Drain\libraries\lvgl\src\draw/lv_img_buf.c ****     }
 202:..\..\..\arduinoLCD\test\Pain Drain\libraries\lvgl\src\draw/lv_img_buf.c ****     else if(dsc->header.cf == LV_IMG_CF_ALPHA_2BIT) {
 575              		.loc 1 202 0
 576 0076 0C2C     		cmp	r4, #12
 577 0078 1AD1     		bne	.L27
 578              	.LBB49:
 203:..\..\..\arduinoLCD\test\Pain Drain\libraries\lvgl\src\draw/lv_img_buf.c ****         opa         = opa >> 6; /*opa -> [0,3]*/
 579              		.loc 1 203 0
 580 007a 9C09     		lsrs	r4, r3, #6
 581              	.LVL103:
 204:..\..\..\arduinoLCD\test\Pain Drain\libraries\lvgl\src\draw/lv_img_buf.c ****         uint8_t bit = (x & 0x3) * 2;
 582              		.loc 1 204 0
 583 007c 01F00303 		and	r3, r1, #3
 584 0080 5B00     		lsls	r3, r3, #1
 585              	.LVL104:
 205:..\..\..\arduinoLCD\test\Pain Drain\libraries\lvgl\src\draw/lv_img_buf.c ****         x           = x >> 2;
 206:..\..\..\arduinoLCD\test\Pain Drain\libraries\lvgl\src\draw/lv_img_buf.c **** 
 207:..\..\..\arduinoLCD\test\Pain Drain\libraries\lvgl\src\draw/lv_img_buf.c ****         /*Get the current pixel.
 208:..\..\..\arduinoLCD\test\Pain Drain\libraries\lvgl\src\draw/lv_img_buf.c ****          *dsc->header.w + 4 means rounding up to 8 because the lines are byte aligned
 209:..\..\..\arduinoLCD\test\Pain Drain\libraries\lvgl\src\draw/lv_img_buf.c ****          *so the possible real width are 4 ,8, 12 ...*/
 210:..\..\..\arduinoLCD\test\Pain Drain\libraries\lvgl\src\draw/lv_img_buf.c ****         uint32_t px = ((dsc->header.w + 3) >> 2) * y + x;
 586              		.loc 1 210 0
 587 0082 0068     		ldr	r0, [r0]
 588              	.LVL105:
 589 0084 C0F38A20 		ubfx	r0, r0, #10, #11
 590 0088 0330     		adds	r0, r0, #3
ARM GAS  C:\Users\haske\AppData\Local\Temp\ccF9IbRI.s 			page 29


 591 008a 8010     		asrs	r0, r0, #2
 592 008c 00FB02F2 		mul	r2, r0, r2
 593              	.LVL106:
 594 0090 02EBA101 		add	r1, r2, r1, asr #2
 595              	.LVL107:
 211:..\..\..\arduinoLCD\test\Pain Drain\libraries\lvgl\src\draw/lv_img_buf.c ****         buf_u8[px]  = buf_u8[px] & ~(3 << (6 - bit));
 596              		.loc 1 211 0
 597 0094 685C     		ldrb	r0, [r5, r1]	@ zero_extendqisi2
 598 0096 C3F10603 		rsb	r3, r3, #6
 599              	.LVL108:
 600 009a 0322     		movs	r2, #3
 601 009c 9A40     		lsls	r2, r2, r3
 602 009e 20EA0202 		bic	r2, r0, r2
 603 00a2 52B2     		sxtb	r2, r2
 212:..\..\..\arduinoLCD\test\Pain Drain\libraries\lvgl\src\draw/lv_img_buf.c ****         buf_u8[px]  = buf_u8[px] | ((opa & 0x3) << (6 - bit));
 604              		.loc 1 212 0
 605 00a4 04FA03F3 		lsl	r3, r4, r3
 606 00a8 1343     		orrs	r3, r3, r2
 607 00aa 6B54     		strb	r3, [r5, r1]
 608              	.LBE49:
 609 00ac BDE8F081 		pop	{r4, r5, r6, r7, r8, pc}
 610              	.LVL109:
 611              	.L27:
 213:..\..\..\arduinoLCD\test\Pain Drain\libraries\lvgl\src\draw/lv_img_buf.c ****     }
 214:..\..\..\arduinoLCD\test\Pain Drain\libraries\lvgl\src\draw/lv_img_buf.c ****     else if(dsc->header.cf == LV_IMG_CF_ALPHA_4BIT) {
 612              		.loc 1 214 0
 613 00b0 0D2C     		cmp	r4, #13
 614 00b2 1BD1     		bne	.L28
 615              	.LBB50:
 215:..\..\..\arduinoLCD\test\Pain Drain\libraries\lvgl\src\draw/lv_img_buf.c ****         opa         = opa >> 4; /*opa -> [0,15]*/
 616              		.loc 1 215 0
 617 00b4 1C09     		lsrs	r4, r3, #4
 618              	.LVL110:
 216:..\..\..\arduinoLCD\test\Pain Drain\libraries\lvgl\src\draw/lv_img_buf.c ****         uint8_t bit = (x & 0x1) * 4;
 619              		.loc 1 216 0
 620 00b6 01F00103 		and	r3, r1, #1
 621 00ba 9B00     		lsls	r3, r3, #2
 622 00bc DBB2     		uxtb	r3, r3
 623              	.LVL111:
 217:..\..\..\arduinoLCD\test\Pain Drain\libraries\lvgl\src\draw/lv_img_buf.c ****         x           = x >> 1;
 218:..\..\..\arduinoLCD\test\Pain Drain\libraries\lvgl\src\draw/lv_img_buf.c **** 
 219:..\..\..\arduinoLCD\test\Pain Drain\libraries\lvgl\src\draw/lv_img_buf.c ****         /*Get the current pixel.
 220:..\..\..\arduinoLCD\test\Pain Drain\libraries\lvgl\src\draw/lv_img_buf.c ****          *dsc->header.w + 1 means rounding up to 8 because the lines are byte aligned
 221:..\..\..\arduinoLCD\test\Pain Drain\libraries\lvgl\src\draw/lv_img_buf.c ****          *so the possible real width are 2 ,4, 6 ...*/
 222:..\..\..\arduinoLCD\test\Pain Drain\libraries\lvgl\src\draw/lv_img_buf.c ****         uint32_t px = ((dsc->header.w + 1) >> 1) * y + x;
 624              		.loc 1 222 0
 625 00be 0068     		ldr	r0, [r0]
 626              	.LVL112:
 627 00c0 C0F38A20 		ubfx	r0, r0, #10, #11
 628 00c4 0130     		adds	r0, r0, #1
 629 00c6 4010     		asrs	r0, r0, #1
 630 00c8 00FB02F2 		mul	r2, r0, r2
 631              	.LVL113:
 632 00cc 02EB6101 		add	r1, r2, r1, asr #1
 633              	.LVL114:
 223:..\..\..\arduinoLCD\test\Pain Drain\libraries\lvgl\src\draw/lv_img_buf.c ****         buf_u8[px]  = buf_u8[px] & ~(0xF << (4 - bit));
 634              		.loc 1 223 0
ARM GAS  C:\Users\haske\AppData\Local\Temp\ccF9IbRI.s 			page 30


 635 00d0 685C     		ldrb	r0, [r5, r1]	@ zero_extendqisi2
 636 00d2 C3F10403 		rsb	r3, r3, #4
 637              	.LVL115:
 638 00d6 0F22     		movs	r2, #15
 639 00d8 9A40     		lsls	r2, r2, r3
 640 00da 20EA0202 		bic	r2, r0, r2
 641 00de 52B2     		sxtb	r2, r2
 224:..\..\..\arduinoLCD\test\Pain Drain\libraries\lvgl\src\draw/lv_img_buf.c ****         buf_u8[px]  = buf_u8[px] | ((opa & 0xF) << (4 - bit));
 642              		.loc 1 224 0
 643 00e0 04FA03F3 		lsl	r3, r4, r3
 644 00e4 1343     		orrs	r3, r3, r2
 645 00e6 6B54     		strb	r3, [r5, r1]
 646              	.LBE50:
 647 00e8 BDE8F081 		pop	{r4, r5, r6, r7, r8, pc}
 648              	.LVL116:
 649              	.L28:
 225:..\..\..\arduinoLCD\test\Pain Drain\libraries\lvgl\src\draw/lv_img_buf.c ****     }
 226:..\..\..\arduinoLCD\test\Pain Drain\libraries\lvgl\src\draw/lv_img_buf.c ****     else if(dsc->header.cf == LV_IMG_CF_ALPHA_8BIT) {
 650              		.loc 1 226 0
 651 00ec 0E2C     		cmp	r4, #14
 652 00ee 05D1     		bne	.L23
 653              	.LBB51:
 227:..\..\..\arduinoLCD\test\Pain Drain\libraries\lvgl\src\draw/lv_img_buf.c ****         uint32_t px = dsc->header.w * y + x;
 654              		.loc 1 227 0
 655 00f0 0068     		ldr	r0, [r0]
 656              	.LVL117:
 657 00f2 C0F38A20 		ubfx	r0, r0, #10, #11
 658 00f6 02FB0011 		mla	r1, r2, r0, r1
 659              	.LVL118:
 228:..\..\..\arduinoLCD\test\Pain Drain\libraries\lvgl\src\draw/lv_img_buf.c ****         buf_u8[px]  = opa;
 660              		.loc 1 228 0
 661 00fa 6B54     		strb	r3, [r5, r1]
 662              	.LVL119:
 663              	.L23:
 664 00fc BDE8F081 		pop	{r4, r5, r6, r7, r8, pc}
 665              	.LBE51:
 666              		.cfi_endproc
 667              	.LFE56:
 668              		.size	lv_img_buf_set_px_alpha, .-lv_img_buf_set_px_alpha
 669              		.section	.text.lv_img_buf_set_px_color,"ax",%progbits
 670              		.align	2
 671              		.global	lv_img_buf_set_px_color
 672              		.thumb
 673              		.thumb_func
 674              		.type	lv_img_buf_set_px_color, %function
 675              	lv_img_buf_set_px_color:
 676              	.LFB57:
 229:..\..\..\arduinoLCD\test\Pain Drain\libraries\lvgl\src\draw/lv_img_buf.c ****     }
 230:..\..\..\arduinoLCD\test\Pain Drain\libraries\lvgl\src\draw/lv_img_buf.c **** }
 231:..\..\..\arduinoLCD\test\Pain Drain\libraries\lvgl\src\draw/lv_img_buf.c **** 
 232:..\..\..\arduinoLCD\test\Pain Drain\libraries\lvgl\src\draw/lv_img_buf.c **** /**
 233:..\..\..\arduinoLCD\test\Pain Drain\libraries\lvgl\src\draw/lv_img_buf.c ****  * Set the color of a pixel of an image. The alpha channel won't be affected.
 234:..\..\..\arduinoLCD\test\Pain Drain\libraries\lvgl\src\draw/lv_img_buf.c ****  * @param dsc pointer to an image descriptor
 235:..\..\..\arduinoLCD\test\Pain Drain\libraries\lvgl\src\draw/lv_img_buf.c ****  * @param x x coordinate of the point to set
 236:..\..\..\arduinoLCD\test\Pain Drain\libraries\lvgl\src\draw/lv_img_buf.c ****  * @param y x coordinate of the point to set
 237:..\..\..\arduinoLCD\test\Pain Drain\libraries\lvgl\src\draw/lv_img_buf.c ****  * @param c color of the point
 238:..\..\..\arduinoLCD\test\Pain Drain\libraries\lvgl\src\draw/lv_img_buf.c ****  * @param safe true: check out of bounds
ARM GAS  C:\Users\haske\AppData\Local\Temp\ccF9IbRI.s 			page 31


 239:..\..\..\arduinoLCD\test\Pain Drain\libraries\lvgl\src\draw/lv_img_buf.c ****  */
 240:..\..\..\arduinoLCD\test\Pain Drain\libraries\lvgl\src\draw/lv_img_buf.c **** void lv_img_buf_set_px_color(lv_img_dsc_t * dsc, lv_coord_t x, lv_coord_t y, lv_color_t c)
 241:..\..\..\arduinoLCD\test\Pain Drain\libraries\lvgl\src\draw/lv_img_buf.c **** {
 677              		.loc 1 241 0
 678              		.cfi_startproc
 679              		@ args = 0, pretend = 0, frame = 8
 680              		@ frame_needed = 0, uses_anonymous_args = 0
 681              	.LVL120:
 682 0000 F0B5     		push	{r4, r5, r6, r7, lr}
 683              		.cfi_def_cfa_offset 20
 684              		.cfi_offset 4, -20
 685              		.cfi_offset 5, -16
 686              		.cfi_offset 6, -12
 687              		.cfi_offset 7, -8
 688              		.cfi_offset 14, -4
 689 0002 83B0     		sub	sp, sp, #12
 690              		.cfi_def_cfa_offset 32
 691 0004 0746     		mov	r7, r0
 692 0006 0D46     		mov	r5, r1
 693 0008 1646     		mov	r6, r2
 694 000a ADF80430 		strh	r3, [sp, #4]	@ movhi
 242:..\..\..\arduinoLCD\test\Pain Drain\libraries\lvgl\src\draw/lv_img_buf.c ****     uint8_t * buf_u8 = (uint8_t *)dsc->data;
 695              		.loc 1 242 0
 696 000e 8468     		ldr	r4, [r0, #8]
 697              	.LVL121:
 243:..\..\..\arduinoLCD\test\Pain Drain\libraries\lvgl\src\draw/lv_img_buf.c **** 
 244:..\..\..\arduinoLCD\test\Pain Drain\libraries\lvgl\src\draw/lv_img_buf.c ****     if(dsc->header.cf == LV_IMG_CF_TRUE_COLOR || dsc->header.cf == LV_IMG_CF_TRUE_COLOR_CHROMA_KEYE
 698              		.loc 1 244 0
 699 0010 0378     		ldrb	r3, [r0]	@ zero_extendqisi2
 700 0012 03F01F03 		and	r3, r3, #31
 701 0016 042B     		cmp	r3, #4
 702 0018 01D0     		beq	.L31
 703              		.loc 1 244 0 is_stmt 0 discriminator 1
 704 001a 062B     		cmp	r3, #6
 705 001c 17D1     		bne	.L32
 706              	.L31:
 707              	.LBB52:
 245:..\..\..\arduinoLCD\test\Pain Drain\libraries\lvgl\src\draw/lv_img_buf.c ****         uint8_t px_size = lv_img_cf_get_px_size(dsc->header.cf) >> 3;
 708              		.loc 1 245 0 is_stmt 1
 709 001e 3878     		ldrb	r0, [r7]	@ zero_extendqisi2
 710              	.LVL122:
 711 0020 00F01F00 		and	r0, r0, #31
 712 0024 FFF7FEFF 		bl	lv_img_cf_get_px_size
 713              	.LVL123:
 714 0028 C0F3C700 		ubfx	r0, r0, #3, #8
 715              	.LVL124:
 246:..\..\..\arduinoLCD\test\Pain Drain\libraries\lvgl\src\draw/lv_img_buf.c ****         uint32_t px     = dsc->header.w * y * px_size + x * px_size;
 716              		.loc 1 246 0
 717 002c 3A68     		ldr	r2, [r7]
 718 002e C2F38A22 		ubfx	r2, r2, #10, #11
 719 0032 06FB0252 		mla	r2, r6, r2, r5
 720              	.LVL125:
 247:..\..\..\arduinoLCD\test\Pain Drain\libraries\lvgl\src\draw/lv_img_buf.c ****         lv_memcpy_small(&buf_u8[px], &c, px_size);
 721              		.loc 1 247 0
 722 0036 00FB0242 		mla	r2, r0, r2, r4
 723              	.LVL126:
 724              	.LBB53:
ARM GAS  C:\Users\haske\AppData\Local\Temp\ccF9IbRI.s 			page 32


 725              	.LBB54:
 197:..\..\..\arduinoLCD\test\Pain Drain\libraries\lvgl\src\draw\../misc/lv_mem.h **** 
 726              		.loc 3 197 0
 727 003a 01AB     		add	r3, sp, #4
 728              	.LVL127:
 729 003c 04E0     		b	.L33
 730              	.LVL128:
 731              	.L34:
 200:..\..\..\arduinoLCD\test\Pain Drain\libraries\lvgl\src\draw\../misc/lv_mem.h ****         d8++;
 732              		.loc 3 200 0
 733 003e 13F8011B 		ldrb	r1, [r3], #1	@ zero_extendqisi2
 734              	.LVL129:
 735 0042 02F8011B 		strb	r1, [r2], #1
 736              	.LVL130:
 737              		.loc 3 203 0
 738 0046 0138     		subs	r0, r0, #1
 739              	.LVL131:
 740              	.L33:
 199:..\..\..\arduinoLCD\test\Pain Drain\libraries\lvgl\src\draw\../misc/lv_mem.h ****         *d8 = *s8;
 741              		.loc 3 199 0
 742 0048 0028     		cmp	r0, #0
 743 004a F8D1     		bne	.L34
 744 004c 8CE0     		b	.L30
 745              	.LVL132:
 746              	.L32:
 747              	.LBE54:
 748              	.LBE53:
 749              	.LBE52:
 248:..\..\..\arduinoLCD\test\Pain Drain\libraries\lvgl\src\draw/lv_img_buf.c ****     }
 249:..\..\..\arduinoLCD\test\Pain Drain\libraries\lvgl\src\draw/lv_img_buf.c ****     else if(dsc->header.cf == LV_IMG_CF_TRUE_COLOR_ALPHA) {
 750              		.loc 1 249 0
 751 004e 052B     		cmp	r3, #5
 752 0050 18D1     		bne	.L36
 753              	.LBB55:
 250:..\..\..\arduinoLCD\test\Pain Drain\libraries\lvgl\src\draw/lv_img_buf.c ****         uint8_t px_size = lv_img_cf_get_px_size(dsc->header.cf) >> 3;
 754              		.loc 1 250 0
 755 0052 0078     		ldrb	r0, [r0]	@ zero_extendqisi2
 756              	.LVL133:
 757 0054 00F01F00 		and	r0, r0, #31
 758 0058 FFF7FEFF 		bl	lv_img_cf_get_px_size
 759              	.LVL134:
 760 005c C0F3C700 		ubfx	r0, r0, #3, #8
 761              	.LVL135:
 251:..\..\..\arduinoLCD\test\Pain Drain\libraries\lvgl\src\draw/lv_img_buf.c ****         uint32_t px     = dsc->header.w * y * px_size + x * px_size;
 762              		.loc 1 251 0
 763 0060 3A68     		ldr	r2, [r7]
 764 0062 C2F38A22 		ubfx	r2, r2, #10, #11
 765 0066 06FB0252 		mla	r2, r6, r2, r5
 766              	.LVL136:
 252:..\..\..\arduinoLCD\test\Pain Drain\libraries\lvgl\src\draw/lv_img_buf.c ****         lv_memcpy_small(&buf_u8[px], &c, px_size - 1); /*-1 to not overwrite the alpha value*/
 767              		.loc 1 252 0
 768 006a 00FB0242 		mla	r2, r0, r2, r4
 769              	.LVL137:
 770 006e 0138     		subs	r0, r0, #1
 771              	.LVL138:
 772              	.LBB56:
 773              	.LBB57:
ARM GAS  C:\Users\haske\AppData\Local\Temp\ccF9IbRI.s 			page 33


 197:..\..\..\arduinoLCD\test\Pain Drain\libraries\lvgl\src\draw\../misc/lv_mem.h **** 
 774              		.loc 3 197 0
 775 0070 01AB     		add	r3, sp, #4
 776              	.LVL139:
 777 0072 04E0     		b	.L37
 778              	.LVL140:
 779              	.L38:
 200:..\..\..\arduinoLCD\test\Pain Drain\libraries\lvgl\src\draw\../misc/lv_mem.h ****         d8++;
 780              		.loc 3 200 0
 781 0074 13F8011B 		ldrb	r1, [r3], #1	@ zero_extendqisi2
 782              	.LVL141:
 783 0078 02F8011B 		strb	r1, [r2], #1
 784              	.LVL142:
 785              		.loc 3 203 0
 786 007c 0138     		subs	r0, r0, #1
 787              	.LVL143:
 788              	.L37:
 199:..\..\..\arduinoLCD\test\Pain Drain\libraries\lvgl\src\draw\../misc/lv_mem.h ****         *d8 = *s8;
 789              		.loc 3 199 0
 790 007e 0028     		cmp	r0, #0
 791 0080 F8D1     		bne	.L38
 792 0082 71E0     		b	.L30
 793              	.LVL144:
 794              	.L36:
 795              	.LBE57:
 796              	.LBE56:
 797              	.LBE55:
 253:..\..\..\arduinoLCD\test\Pain Drain\libraries\lvgl\src\draw/lv_img_buf.c ****     }
 254:..\..\..\arduinoLCD\test\Pain Drain\libraries\lvgl\src\draw/lv_img_buf.c ****     else if(dsc->header.cf == LV_IMG_CF_INDEXED_1BIT) {
 798              		.loc 1 254 0
 799 0084 072B     		cmp	r3, #7
 800 0086 1ED1     		bne	.L39
 801              	.LBB58:
 255:..\..\..\arduinoLCD\test\Pain Drain\libraries\lvgl\src\draw/lv_img_buf.c ****         buf_u8 += sizeof(lv_color32_t) * 2; /*Skip the palette*/
 802              		.loc 1 255 0
 803 0088 04F10802 		add	r2, r4, #8
 804              	.LVL145:
 256:..\..\..\arduinoLCD\test\Pain Drain\libraries\lvgl\src\draw/lv_img_buf.c **** 
 257:..\..\..\arduinoLCD\test\Pain Drain\libraries\lvgl\src\draw/lv_img_buf.c ****         uint8_t bit = x & 0x7;
 805              		.loc 1 257 0
 806 008c 01F00700 		and	r0, r1, #7
 807              	.LVL146:
 258:..\..\..\arduinoLCD\test\Pain Drain\libraries\lvgl\src\draw/lv_img_buf.c ****         x           = x >> 3;
 259:..\..\..\arduinoLCD\test\Pain Drain\libraries\lvgl\src\draw/lv_img_buf.c **** 
 260:..\..\..\arduinoLCD\test\Pain Drain\libraries\lvgl\src\draw/lv_img_buf.c ****         /*Get the current pixel.
 261:..\..\..\arduinoLCD\test\Pain Drain\libraries\lvgl\src\draw/lv_img_buf.c ****          *dsc->header.w + 7 means rounding up to 8 because the lines are byte aligned
 262:..\..\..\arduinoLCD\test\Pain Drain\libraries\lvgl\src\draw/lv_img_buf.c ****          *so the possible real width are 8 ,16, 24 ...*/
 263:..\..\..\arduinoLCD\test\Pain Drain\libraries\lvgl\src\draw/lv_img_buf.c ****         uint32_t px = ((dsc->header.w + 7) >> 3) * y + x;
 808              		.loc 1 263 0
 809 0090 3B68     		ldr	r3, [r7]
 810 0092 C3F38A23 		ubfx	r3, r3, #10, #11
 811 0096 0733     		adds	r3, r3, #7
 812 0098 DB10     		asrs	r3, r3, #3
 813 009a 03FB06F6 		mul	r6, r3, r6
 814 009e 06EBE105 		add	r5, r6, r1, asr #3
 815              	.LVL147:
 264:..\..\..\arduinoLCD\test\Pain Drain\libraries\lvgl\src\draw/lv_img_buf.c ****         buf_u8[px]  = buf_u8[px] & ~(1 << (7 - bit));
ARM GAS  C:\Users\haske\AppData\Local\Temp\ccF9IbRI.s 			page 34


 816              		.loc 1 264 0
 817 00a2 515D     		ldrb	r1, [r2, r5]	@ zero_extendqisi2
 818              	.LVL148:
 819 00a4 C0F10703 		rsb	r3, r0, #7
 820 00a8 0120     		movs	r0, #1
 821              	.LVL149:
 822 00aa 9840     		lsls	r0, r0, r3
 823 00ac 21EA0000 		bic	r0, r1, r0
 824 00b0 40B2     		sxtb	r0, r0
 825 00b2 5055     		strb	r0, [r2, r5]
 265:..\..\..\arduinoLCD\test\Pain Drain\libraries\lvgl\src\draw/lv_img_buf.c ****         buf_u8[px]  = buf_u8[px] | ((c.full & 0x1) << (7 - bit));
 826              		.loc 1 265 0
 827 00b4 BDF80410 		ldrh	r1, [sp, #4]
 828 00b8 01F00101 		and	r1, r1, #1
 829 00bc 01FA03F3 		lsl	r3, r1, r3
 830 00c0 0343     		orrs	r3, r3, r0
 831 00c2 5355     		strb	r3, [r2, r5]
 832              	.LBE58:
 833 00c4 50E0     		b	.L30
 834              	.LVL150:
 835              	.L39:
 266:..\..\..\arduinoLCD\test\Pain Drain\libraries\lvgl\src\draw/lv_img_buf.c ****     }
 267:..\..\..\arduinoLCD\test\Pain Drain\libraries\lvgl\src\draw/lv_img_buf.c ****     else if(dsc->header.cf == LV_IMG_CF_INDEXED_2BIT) {
 836              		.loc 1 267 0
 837 00c6 082B     		cmp	r3, #8
 838 00c8 1FD1     		bne	.L40
 839              	.LBB59:
 268:..\..\..\arduinoLCD\test\Pain Drain\libraries\lvgl\src\draw/lv_img_buf.c ****         buf_u8 += sizeof(lv_color32_t) * 4; /*Skip the palette*/
 840              		.loc 1 268 0
 841 00ca 04F11002 		add	r2, r4, #16
 842              	.LVL151:
 269:..\..\..\arduinoLCD\test\Pain Drain\libraries\lvgl\src\draw/lv_img_buf.c ****         uint8_t bit = (x & 0x3) * 2;
 843              		.loc 1 269 0
 844 00ce 01F00303 		and	r3, r1, #3
 845 00d2 5800     		lsls	r0, r3, #1
 846              	.LVL152:
 270:..\..\..\arduinoLCD\test\Pain Drain\libraries\lvgl\src\draw/lv_img_buf.c ****         x           = x >> 2;
 271:..\..\..\arduinoLCD\test\Pain Drain\libraries\lvgl\src\draw/lv_img_buf.c **** 
 272:..\..\..\arduinoLCD\test\Pain Drain\libraries\lvgl\src\draw/lv_img_buf.c ****         /*Get the current pixel.
 273:..\..\..\arduinoLCD\test\Pain Drain\libraries\lvgl\src\draw/lv_img_buf.c ****          *dsc->header.w + 3 means rounding up to 4 because the lines are byte aligned
 274:..\..\..\arduinoLCD\test\Pain Drain\libraries\lvgl\src\draw/lv_img_buf.c ****          *so the possible real width are 4, 8 ,12 ...*/
 275:..\..\..\arduinoLCD\test\Pain Drain\libraries\lvgl\src\draw/lv_img_buf.c ****         uint32_t px = ((dsc->header.w + 3) >> 2) * y + x;
 847              		.loc 1 275 0
 848 00d4 3B68     		ldr	r3, [r7]
 849 00d6 C3F38A23 		ubfx	r3, r3, #10, #11
 850 00da 0333     		adds	r3, r3, #3
 851 00dc 9B10     		asrs	r3, r3, #2
 852 00de 03FB06F6 		mul	r6, r3, r6
 853 00e2 06EBA105 		add	r5, r6, r1, asr #2
 854              	.LVL153:
 276:..\..\..\arduinoLCD\test\Pain Drain\libraries\lvgl\src\draw/lv_img_buf.c **** 
 277:..\..\..\arduinoLCD\test\Pain Drain\libraries\lvgl\src\draw/lv_img_buf.c ****         buf_u8[px] = buf_u8[px] & ~(3 << (6 - bit));
 855              		.loc 1 277 0
 856 00e6 515D     		ldrb	r1, [r2, r5]	@ zero_extendqisi2
 857              	.LVL154:
 858 00e8 C0F10603 		rsb	r3, r0, #6
 859 00ec 0320     		movs	r0, #3
ARM GAS  C:\Users\haske\AppData\Local\Temp\ccF9IbRI.s 			page 35


 860              	.LVL155:
 861 00ee 9840     		lsls	r0, r0, r3
 862 00f0 21EA0000 		bic	r0, r1, r0
 863 00f4 40B2     		sxtb	r0, r0
 864 00f6 5055     		strb	r0, [r2, r5]
 278:..\..\..\arduinoLCD\test\Pain Drain\libraries\lvgl\src\draw/lv_img_buf.c ****         buf_u8[px] = buf_u8[px] | ((c.full & 0x3) << (6 - bit));
 865              		.loc 1 278 0
 866 00f8 BDF80410 		ldrh	r1, [sp, #4]
 867 00fc 01F00301 		and	r1, r1, #3
 868 0100 01FA03F3 		lsl	r3, r1, r3
 869 0104 0343     		orrs	r3, r3, r0
 870 0106 5355     		strb	r3, [r2, r5]
 871              	.LBE59:
 872 0108 2EE0     		b	.L30
 873              	.LVL156:
 874              	.L40:
 279:..\..\..\arduinoLCD\test\Pain Drain\libraries\lvgl\src\draw/lv_img_buf.c ****     }
 280:..\..\..\arduinoLCD\test\Pain Drain\libraries\lvgl\src\draw/lv_img_buf.c ****     else if(dsc->header.cf == LV_IMG_CF_INDEXED_4BIT) {
 875              		.loc 1 280 0
 876 010a 092B     		cmp	r3, #9
 877 010c 20D1     		bne	.L41
 878              	.LBB60:
 281:..\..\..\arduinoLCD\test\Pain Drain\libraries\lvgl\src\draw/lv_img_buf.c ****         buf_u8 += sizeof(lv_color32_t) * 16; /*Skip the palette*/
 879              		.loc 1 281 0
 880 010e 04F14002 		add	r2, r4, #64
 881              	.LVL157:
 282:..\..\..\arduinoLCD\test\Pain Drain\libraries\lvgl\src\draw/lv_img_buf.c ****         uint8_t bit = (x & 0x1) * 4;
 882              		.loc 1 282 0
 883 0112 01F00103 		and	r3, r1, #1
 884 0116 9B00     		lsls	r3, r3, #2
 885 0118 D9B2     		uxtb	r1, r3
 886              	.LVL158:
 283:..\..\..\arduinoLCD\test\Pain Drain\libraries\lvgl\src\draw/lv_img_buf.c ****         x           = x >> 1;
 284:..\..\..\arduinoLCD\test\Pain Drain\libraries\lvgl\src\draw/lv_img_buf.c **** 
 285:..\..\..\arduinoLCD\test\Pain Drain\libraries\lvgl\src\draw/lv_img_buf.c ****         /*Get the current pixel.
 286:..\..\..\arduinoLCD\test\Pain Drain\libraries\lvgl\src\draw/lv_img_buf.c ****          *dsc->header.w + 1 means rounding up to 2 because the lines are byte aligned
 287:..\..\..\arduinoLCD\test\Pain Drain\libraries\lvgl\src\draw/lv_img_buf.c ****          *so the possible real width are 2 ,4, 6 ...*/
 288:..\..\..\arduinoLCD\test\Pain Drain\libraries\lvgl\src\draw/lv_img_buf.c ****         uint32_t px = ((dsc->header.w + 1) >> 1) * y + x;
 887              		.loc 1 288 0
 888 011a 0368     		ldr	r3, [r0]
 889 011c C3F38A23 		ubfx	r3, r3, #10, #11
 890 0120 0133     		adds	r3, r3, #1
 891 0122 5B10     		asrs	r3, r3, #1
 892 0124 03FB06F6 		mul	r6, r3, r6
 893 0128 06EB6505 		add	r5, r6, r5, asr #1
 894              	.LVL159:
 289:..\..\..\arduinoLCD\test\Pain Drain\libraries\lvgl\src\draw/lv_img_buf.c ****         buf_u8[px]  = buf_u8[px] & ~(0xF << (4 - bit));
 895              		.loc 1 289 0
 896 012c 545D     		ldrb	r4, [r2, r5]	@ zero_extendqisi2
 897 012e C1F10403 		rsb	r3, r1, #4
 898 0132 0F20     		movs	r0, #15
 899              	.LVL160:
 900 0134 9840     		lsls	r0, r0, r3
 901 0136 24EA0000 		bic	r0, r4, r0
 902 013a 40B2     		sxtb	r0, r0
 903 013c 5055     		strb	r0, [r2, r5]
 290:..\..\..\arduinoLCD\test\Pain Drain\libraries\lvgl\src\draw/lv_img_buf.c ****         buf_u8[px]  = buf_u8[px] | ((c.full & 0xF) << (4 - bit));
ARM GAS  C:\Users\haske\AppData\Local\Temp\ccF9IbRI.s 			page 36


 904              		.loc 1 290 0
 905 013e BDF80410 		ldrh	r1, [sp, #4]
 906              	.LVL161:
 907 0142 01F00F01 		and	r1, r1, #15
 908 0146 01FA03F3 		lsl	r3, r1, r3
 909 014a 0343     		orrs	r3, r3, r0
 910 014c 5355     		strb	r3, [r2, r5]
 911              	.LBE60:
 912 014e 0BE0     		b	.L30
 913              	.LVL162:
 914              	.L41:
 291:..\..\..\arduinoLCD\test\Pain Drain\libraries\lvgl\src\draw/lv_img_buf.c ****     }
 292:..\..\..\arduinoLCD\test\Pain Drain\libraries\lvgl\src\draw/lv_img_buf.c ****     else if(dsc->header.cf == LV_IMG_CF_INDEXED_8BIT) {
 915              		.loc 1 292 0
 916 0150 0A2B     		cmp	r3, #10
 917 0152 09D1     		bne	.L30
 918              	.LVL163:
 919              	.LBB61:
 293:..\..\..\arduinoLCD\test\Pain Drain\libraries\lvgl\src\draw/lv_img_buf.c ****         buf_u8 += sizeof(lv_color32_t) * 256; /*Skip the palette*/
 294:..\..\..\arduinoLCD\test\Pain Drain\libraries\lvgl\src\draw/lv_img_buf.c ****         uint32_t px = dsc->header.w * y + x;
 920              		.loc 1 294 0
 921 0154 0268     		ldr	r2, [r0]
 922              	.LVL164:
 923 0156 C2F38A22 		ubfx	r2, r2, #10, #11
 924 015a 06FB0212 		mla	r2, r6, r2, r1
 925              	.LVL165:
 295:..\..\..\arduinoLCD\test\Pain Drain\libraries\lvgl\src\draw/lv_img_buf.c ****         buf_u8[px]  = c.full;
 926              		.loc 1 295 0
 927 015e 02F58062 		add	r2, r2, #1024
 928              	.LVL166:
 929 0162 BDF80430 		ldrh	r3, [sp, #4]
 930 0166 A354     		strb	r3, [r4, r2]
 931              	.LVL167:
 932              	.L30:
 933              	.LBE61:
 296:..\..\..\arduinoLCD\test\Pain Drain\libraries\lvgl\src\draw/lv_img_buf.c ****     }
 297:..\..\..\arduinoLCD\test\Pain Drain\libraries\lvgl\src\draw/lv_img_buf.c **** }
 934              		.loc 1 297 0
 935 0168 03B0     		add	sp, sp, #12
 936              		.cfi_def_cfa_offset 20
 937              		@ sp needed
 938 016a F0BD     		pop	{r4, r5, r6, r7, pc}
 939              		.cfi_endproc
 940              	.LFE57:
 941              		.size	lv_img_buf_set_px_color, .-lv_img_buf_set_px_color
 942              		.section	.text.lv_img_buf_set_palette,"ax",%progbits
 943              		.align	2
 944              		.global	lv_img_buf_set_palette
 945              		.thumb
 946              		.thumb_func
 947              		.type	lv_img_buf_set_palette, %function
 948              	lv_img_buf_set_palette:
 949              	.LFB58:
 298:..\..\..\arduinoLCD\test\Pain Drain\libraries\lvgl\src\draw/lv_img_buf.c **** 
 299:..\..\..\arduinoLCD\test\Pain Drain\libraries\lvgl\src\draw/lv_img_buf.c **** /**
 300:..\..\..\arduinoLCD\test\Pain Drain\libraries\lvgl\src\draw/lv_img_buf.c ****  * Set the palette color of an indexed image. Valid only for `LV_IMG_CF_INDEXED1/2/4/8`
 301:..\..\..\arduinoLCD\test\Pain Drain\libraries\lvgl\src\draw/lv_img_buf.c ****  * @param dsc pointer to an image descriptor
ARM GAS  C:\Users\haske\AppData\Local\Temp\ccF9IbRI.s 			page 37


 302:..\..\..\arduinoLCD\test\Pain Drain\libraries\lvgl\src\draw/lv_img_buf.c ****  * @param id the palette color to set:
 303:..\..\..\arduinoLCD\test\Pain Drain\libraries\lvgl\src\draw/lv_img_buf.c ****  *   - for `LV_IMG_CF_INDEXED1`: 0..1
 304:..\..\..\arduinoLCD\test\Pain Drain\libraries\lvgl\src\draw/lv_img_buf.c ****  *   - for `LV_IMG_CF_INDEXED2`: 0..3
 305:..\..\..\arduinoLCD\test\Pain Drain\libraries\lvgl\src\draw/lv_img_buf.c ****  *   - for `LV_IMG_CF_INDEXED4`: 0..15
 306:..\..\..\arduinoLCD\test\Pain Drain\libraries\lvgl\src\draw/lv_img_buf.c ****  *   - for `LV_IMG_CF_INDEXED8`: 0..255
 307:..\..\..\arduinoLCD\test\Pain Drain\libraries\lvgl\src\draw/lv_img_buf.c ****  * @param c the color to set
 308:..\..\..\arduinoLCD\test\Pain Drain\libraries\lvgl\src\draw/lv_img_buf.c ****  */
 309:..\..\..\arduinoLCD\test\Pain Drain\libraries\lvgl\src\draw/lv_img_buf.c **** void lv_img_buf_set_palette(lv_img_dsc_t * dsc, uint8_t id, lv_color_t c)
 310:..\..\..\arduinoLCD\test\Pain Drain\libraries\lvgl\src\draw/lv_img_buf.c **** {
 950              		.loc 1 310 0
 951              		.cfi_startproc
 952              		@ args = 0, pretend = 0, frame = 8
 953              		@ frame_needed = 0, uses_anonymous_args = 0
 954              		@ link register save eliminated.
 955              	.LVL168:
 311:..\..\..\arduinoLCD\test\Pain Drain\libraries\lvgl\src\draw/lv_img_buf.c ****     if((dsc->header.cf == LV_IMG_CF_ALPHA_1BIT && id > 1) || (dsc->header.cf == LV_IMG_CF_ALPHA_2BI
 956              		.loc 1 311 0
 957 0000 0378     		ldrb	r3, [r0]	@ zero_extendqisi2
 958 0002 03F01F03 		and	r3, r3, #31
 959 0006 0B2B     		cmp	r3, #11
 960 0008 01D1     		bne	.L44
 961              		.loc 1 311 0 is_stmt 0 discriminator 1
 962 000a 0129     		cmp	r1, #1
 963 000c 40D8     		bhi	.L53
 964              	.L44:
 965              		.loc 1 311 0 discriminator 3
 966 000e 0C2B     		cmp	r3, #12
 967 0010 01D1     		bne	.L46
 968              		.loc 1 311 0 discriminator 4
 969 0012 0329     		cmp	r1, #3
 970 0014 3CD8     		bhi	.L53
 971              	.L46:
 972              		.loc 1 311 0 discriminator 6
 973 0016 0D2B     		cmp	r3, #13
 974 0018 01D1     		bne	.L47
 312:..\..\..\arduinoLCD\test\Pain Drain\libraries\lvgl\src\draw/lv_img_buf.c ****        (dsc->header.cf == LV_IMG_CF_ALPHA_4BIT && id > 15) || (dsc->header.cf == LV_IMG_CF_ALPHA_8B
 975              		.loc 1 312 0 is_stmt 1
 976 001a 0F29     		cmp	r1, #15
 977 001c 38D8     		bhi	.L53
 978              	.L47:
 979              		.loc 1 312 0 is_stmt 0 discriminator 1
 980 001e 0E2B     		cmp	r3, #14
 981 0020 36D0     		beq	.L53
 310:..\..\..\arduinoLCD\test\Pain Drain\libraries\lvgl\src\draw/lv_img_buf.c ****     if((dsc->header.cf == LV_IMG_CF_ALPHA_1BIT && id > 1) || (dsc->header.cf == LV_IMG_CF_ALPHA_2BI
 982              		.loc 1 310 0 is_stmt 1
 983 0022 30B4     		push	{r4, r5}
 984              		.cfi_def_cfa_offset 8
 985              		.cfi_offset 4, -8
 986              		.cfi_offset 5, -4
 987 0024 82B0     		sub	sp, sp, #8
 988              		.cfi_def_cfa_offset 16
 989              	.LBB62:
 990              	.LBB63:
 420:..\..\..\arduinoLCD\test\Pain Drain\libraries\lvgl\src\draw\../misc/lv_color.h ****     LV_COLOR_SET_G32(ret, (LV_COLOR_GET_G(color) * 259 + 3) >> 6);
 991              		.loc 2 420 0
 992 0026 C2F3C423 		ubfx	r3, r2, #11, #5
 993 002a 03EB4314 		add	r4, r3, r3, lsl #5
ARM GAS  C:\Users\haske\AppData\Local\Temp\ccF9IbRI.s 			page 38


 994 002e C3EBC403 		rsb	r3, r3, r4, lsl #3
 995 0032 0733     		adds	r3, r3, #7
 996 0034 C3F34713 		ubfx	r3, r3, #5, #8
 997 0038 0024     		movs	r4, #0
 998              	.LVL169:
 999 003a 63F31744 		bfi	r4, r3, #16, #8
 1000              	.LVL170:
 421:..\..\..\arduinoLCD\test\Pain Drain\libraries\lvgl\src\draw\../misc/lv_color.h ****     LV_COLOR_SET_B32(ret, (LV_COLOR_GET_B(color) * 263 + 7) >> 5);
 1001              		.loc 2 421 0
 1002 003e C2F34513 		ubfx	r3, r2, #5, #6
 1003 0042 03EBC315 		add	r5, r3, r3, lsl #7
 1004 0046 03EB4503 		add	r3, r3, r5, lsl #1
 1005 004a 0333     		adds	r3, r3, #3
 1006 004c C3F38713 		ubfx	r3, r3, #6, #8
 1007 0050 63F30F24 		bfi	r4, r3, #8, #8
 422:..\..\..\arduinoLCD\test\Pain Drain\libraries\lvgl\src\draw\../misc/lv_color.h ****     LV_COLOR_SET_A32(ret, 0xFF);
 1008              		.loc 2 422 0
 1009 0054 02F01F02 		and	r2, r2, #31
 1010              	.LVL171:
 1011 0058 02EB4213 		add	r3, r2, r2, lsl #5
 1012 005c C2EBC302 		rsb	r2, r2, r3, lsl #3
 1013 0060 0732     		adds	r2, r2, #7
 1014 0062 C2F34712 		ubfx	r2, r2, #5, #8
 1015 0066 62F30704 		bfi	r4, r2, #0, #8
 423:..\..\..\arduinoLCD\test\Pain Drain\libraries\lvgl\src\draw\../misc/lv_color.h ****     return ret.full;
 1016              		.loc 2 423 0
 1017 006a 44F07F44 		orr	r4, r4, #-16777216
 1018              	.LVL172:
 1019              	.LBE63:
 1020              	.LBE62:
 313:..\..\..\arduinoLCD\test\Pain Drain\libraries\lvgl\src\draw/lv_img_buf.c ****         LV_LOG_WARN("lv_img_buf_set_px_alpha: invalid 'id'");
 314:..\..\..\arduinoLCD\test\Pain Drain\libraries\lvgl\src\draw/lv_img_buf.c ****         return;
 315:..\..\..\arduinoLCD\test\Pain Drain\libraries\lvgl\src\draw/lv_img_buf.c ****     }
 316:..\..\..\arduinoLCD\test\Pain Drain\libraries\lvgl\src\draw/lv_img_buf.c **** 
 317:..\..\..\arduinoLCD\test\Pain Drain\libraries\lvgl\src\draw/lv_img_buf.c ****     lv_color32_t c32;
 318:..\..\..\arduinoLCD\test\Pain Drain\libraries\lvgl\src\draw/lv_img_buf.c ****     c32.full      = lv_color_to32(c);
 1021              		.loc 1 318 0
 1022 006e 02AA     		add	r2, sp, #8
 1023              	.LVL173:
 1024 0070 42F8044D 		str	r4, [r2, #-4]!
 319:..\..\..\arduinoLCD\test\Pain Drain\libraries\lvgl\src\draw/lv_img_buf.c ****     uint8_t * buf = (uint8_t *)dsc->data;
 1025              		.loc 1 319 0
 1026 0074 8368     		ldr	r3, [r0, #8]
 1027              	.LVL174:
 320:..\..\..\arduinoLCD\test\Pain Drain\libraries\lvgl\src\draw/lv_img_buf.c ****     lv_memcpy_small(&buf[id * sizeof(c32)], &c32, sizeof(c32));
 1028              		.loc 1 320 0
 1029 0076 03EB8101 		add	r1, r3, r1, lsl #2
 1030              	.LVL175:
 1031 007a 0423     		movs	r3, #4
 1032              	.LVL176:
 1033 007c 04E0     		b	.L48
 1034              	.LVL177:
 1035              	.L49:
 1036              	.LBB64:
 1037              	.LBB65:
 200:..\..\..\arduinoLCD\test\Pain Drain\libraries\lvgl\src\draw\../misc/lv_mem.h ****         d8++;
 1038              		.loc 3 200 0
ARM GAS  C:\Users\haske\AppData\Local\Temp\ccF9IbRI.s 			page 39


 1039 007e 12F8010B 		ldrb	r0, [r2], #1	@ zero_extendqisi2
 1040              	.LVL178:
 1041 0082 01F8010B 		strb	r0, [r1], #1
 1042              	.LVL179:
 1043              		.loc 3 203 0
 1044 0086 013B     		subs	r3, r3, #1
 1045              	.LVL180:
 1046              	.L48:
 199:..\..\..\arduinoLCD\test\Pain Drain\libraries\lvgl\src\draw\../misc/lv_mem.h ****         *d8 = *s8;
 1047              		.loc 3 199 0
 1048 0088 002B     		cmp	r3, #0
 1049 008a F8D1     		bne	.L49
 1050              	.LBE65:
 1051              	.LBE64:
 321:..\..\..\arduinoLCD\test\Pain Drain\libraries\lvgl\src\draw/lv_img_buf.c **** }
 1052              		.loc 1 321 0
 1053 008c 02B0     		add	sp, sp, #8
 1054              		.cfi_def_cfa_offset 8
 1055              		@ sp needed
 1056 008e 30BC     		pop	{r4, r5}
 1057              		.cfi_restore 5
 1058              		.cfi_restore 4
 1059              		.cfi_def_cfa_offset 0
 1060              	.LVL181:
 1061              	.L53:
 1062 0090 7047     		bx	lr
 1063              		.cfi_endproc
 1064              	.LFE58:
 1065              		.size	lv_img_buf_set_palette, .-lv_img_buf_set_palette
 1066 0092 00BF     		.section	.text.lv_img_buf_free,"ax",%progbits
 1067              		.align	2
 1068              		.global	lv_img_buf_free
 1069              		.thumb
 1070              		.thumb_func
 1071              		.type	lv_img_buf_free, %function
 1072              	lv_img_buf_free:
 1073              	.LFB60:
 322:..\..\..\arduinoLCD\test\Pain Drain\libraries\lvgl\src\draw/lv_img_buf.c **** 
 323:..\..\..\arduinoLCD\test\Pain Drain\libraries\lvgl\src\draw/lv_img_buf.c **** /**
 324:..\..\..\arduinoLCD\test\Pain Drain\libraries\lvgl\src\draw/lv_img_buf.c ****  * Allocate an image buffer in RAM
 325:..\..\..\arduinoLCD\test\Pain Drain\libraries\lvgl\src\draw/lv_img_buf.c ****  * @param w width of image
 326:..\..\..\arduinoLCD\test\Pain Drain\libraries\lvgl\src\draw/lv_img_buf.c ****  * @param h height of image
 327:..\..\..\arduinoLCD\test\Pain Drain\libraries\lvgl\src\draw/lv_img_buf.c ****  * @param cf a color format (`LV_IMG_CF_...`)
 328:..\..\..\arduinoLCD\test\Pain Drain\libraries\lvgl\src\draw/lv_img_buf.c ****  * @return an allocated image, or NULL on failure
 329:..\..\..\arduinoLCD\test\Pain Drain\libraries\lvgl\src\draw/lv_img_buf.c ****  */
 330:..\..\..\arduinoLCD\test\Pain Drain\libraries\lvgl\src\draw/lv_img_buf.c **** lv_img_dsc_t * lv_img_buf_alloc(lv_coord_t w, lv_coord_t h, lv_img_cf_t cf)
 331:..\..\..\arduinoLCD\test\Pain Drain\libraries\lvgl\src\draw/lv_img_buf.c **** {
 332:..\..\..\arduinoLCD\test\Pain Drain\libraries\lvgl\src\draw/lv_img_buf.c ****     /*Allocate image descriptor*/
 333:..\..\..\arduinoLCD\test\Pain Drain\libraries\lvgl\src\draw/lv_img_buf.c ****     lv_img_dsc_t * dsc = lv_mem_alloc(sizeof(lv_img_dsc_t));
 334:..\..\..\arduinoLCD\test\Pain Drain\libraries\lvgl\src\draw/lv_img_buf.c ****     if(dsc == NULL)
 335:..\..\..\arduinoLCD\test\Pain Drain\libraries\lvgl\src\draw/lv_img_buf.c ****         return NULL;
 336:..\..\..\arduinoLCD\test\Pain Drain\libraries\lvgl\src\draw/lv_img_buf.c **** 
 337:..\..\..\arduinoLCD\test\Pain Drain\libraries\lvgl\src\draw/lv_img_buf.c ****     lv_memset_00(dsc, sizeof(lv_img_dsc_t));
 338:..\..\..\arduinoLCD\test\Pain Drain\libraries\lvgl\src\draw/lv_img_buf.c **** 
 339:..\..\..\arduinoLCD\test\Pain Drain\libraries\lvgl\src\draw/lv_img_buf.c ****     /*Get image data size*/
 340:..\..\..\arduinoLCD\test\Pain Drain\libraries\lvgl\src\draw/lv_img_buf.c ****     dsc->data_size = lv_img_buf_get_img_size(w, h, cf);
 341:..\..\..\arduinoLCD\test\Pain Drain\libraries\lvgl\src\draw/lv_img_buf.c ****     if(dsc->data_size == 0) {
ARM GAS  C:\Users\haske\AppData\Local\Temp\ccF9IbRI.s 			page 40


 342:..\..\..\arduinoLCD\test\Pain Drain\libraries\lvgl\src\draw/lv_img_buf.c ****         lv_mem_free(dsc);
 343:..\..\..\arduinoLCD\test\Pain Drain\libraries\lvgl\src\draw/lv_img_buf.c ****         return NULL;
 344:..\..\..\arduinoLCD\test\Pain Drain\libraries\lvgl\src\draw/lv_img_buf.c ****     }
 345:..\..\..\arduinoLCD\test\Pain Drain\libraries\lvgl\src\draw/lv_img_buf.c **** 
 346:..\..\..\arduinoLCD\test\Pain Drain\libraries\lvgl\src\draw/lv_img_buf.c ****     /*Allocate raw buffer*/
 347:..\..\..\arduinoLCD\test\Pain Drain\libraries\lvgl\src\draw/lv_img_buf.c ****     dsc->data = lv_mem_alloc(dsc->data_size);
 348:..\..\..\arduinoLCD\test\Pain Drain\libraries\lvgl\src\draw/lv_img_buf.c ****     if(dsc->data == NULL) {
 349:..\..\..\arduinoLCD\test\Pain Drain\libraries\lvgl\src\draw/lv_img_buf.c ****         lv_mem_free(dsc);
 350:..\..\..\arduinoLCD\test\Pain Drain\libraries\lvgl\src\draw/lv_img_buf.c ****         return NULL;
 351:..\..\..\arduinoLCD\test\Pain Drain\libraries\lvgl\src\draw/lv_img_buf.c ****     }
 352:..\..\..\arduinoLCD\test\Pain Drain\libraries\lvgl\src\draw/lv_img_buf.c ****     lv_memset_00((uint8_t *)dsc->data, dsc->data_size);
 353:..\..\..\arduinoLCD\test\Pain Drain\libraries\lvgl\src\draw/lv_img_buf.c **** 
 354:..\..\..\arduinoLCD\test\Pain Drain\libraries\lvgl\src\draw/lv_img_buf.c ****     /*Fill in header*/
 355:..\..\..\arduinoLCD\test\Pain Drain\libraries\lvgl\src\draw/lv_img_buf.c ****     dsc->header.always_zero = 0;
 356:..\..\..\arduinoLCD\test\Pain Drain\libraries\lvgl\src\draw/lv_img_buf.c ****     dsc->header.w = w;
 357:..\..\..\arduinoLCD\test\Pain Drain\libraries\lvgl\src\draw/lv_img_buf.c ****     dsc->header.h = h;
 358:..\..\..\arduinoLCD\test\Pain Drain\libraries\lvgl\src\draw/lv_img_buf.c ****     dsc->header.cf = cf;
 359:..\..\..\arduinoLCD\test\Pain Drain\libraries\lvgl\src\draw/lv_img_buf.c ****     return dsc;
 360:..\..\..\arduinoLCD\test\Pain Drain\libraries\lvgl\src\draw/lv_img_buf.c **** }
 361:..\..\..\arduinoLCD\test\Pain Drain\libraries\lvgl\src\draw/lv_img_buf.c **** 
 362:..\..\..\arduinoLCD\test\Pain Drain\libraries\lvgl\src\draw/lv_img_buf.c **** /**
 363:..\..\..\arduinoLCD\test\Pain Drain\libraries\lvgl\src\draw/lv_img_buf.c ****  * Free an allocated image buffer
 364:..\..\..\arduinoLCD\test\Pain Drain\libraries\lvgl\src\draw/lv_img_buf.c ****  * @param dsc image buffer to free
 365:..\..\..\arduinoLCD\test\Pain Drain\libraries\lvgl\src\draw/lv_img_buf.c ****  */
 366:..\..\..\arduinoLCD\test\Pain Drain\libraries\lvgl\src\draw/lv_img_buf.c **** void lv_img_buf_free(lv_img_dsc_t * dsc)
 367:..\..\..\arduinoLCD\test\Pain Drain\libraries\lvgl\src\draw/lv_img_buf.c **** {
 1074              		.loc 1 367 0
 1075              		.cfi_startproc
 1076              		@ args = 0, pretend = 0, frame = 0
 1077              		@ frame_needed = 0, uses_anonymous_args = 0
 1078              	.LVL182:
 368:..\..\..\arduinoLCD\test\Pain Drain\libraries\lvgl\src\draw/lv_img_buf.c ****     if(dsc != NULL) {
 1079              		.loc 1 368 0
 1080 0000 48B1     		cbz	r0, .L58
 367:..\..\..\arduinoLCD\test\Pain Drain\libraries\lvgl\src\draw/lv_img_buf.c ****     if(dsc != NULL) {
 1081              		.loc 1 367 0
 1082 0002 10B5     		push	{r4, lr}
 1083              		.cfi_def_cfa_offset 8
 1084              		.cfi_offset 4, -8
 1085              		.cfi_offset 14, -4
 1086 0004 0446     		mov	r4, r0
 369:..\..\..\arduinoLCD\test\Pain Drain\libraries\lvgl\src\draw/lv_img_buf.c ****         if(dsc->data != NULL)
 1087              		.loc 1 369 0
 1088 0006 8068     		ldr	r0, [r0, #8]
 1089              	.LVL183:
 1090 0008 08B1     		cbz	r0, .L56
 370:..\..\..\arduinoLCD\test\Pain Drain\libraries\lvgl\src\draw/lv_img_buf.c ****             lv_mem_free((void *)dsc->data);
 1091              		.loc 1 370 0
 1092 000a FFF7FEFF 		bl	lv_mem_free
 1093              	.LVL184:
 1094              	.L56:
 371:..\..\..\arduinoLCD\test\Pain Drain\libraries\lvgl\src\draw/lv_img_buf.c **** 
 372:..\..\..\arduinoLCD\test\Pain Drain\libraries\lvgl\src\draw/lv_img_buf.c ****         lv_mem_free(dsc);
 1095              		.loc 1 372 0
 1096 000e 2046     		mov	r0, r4
 1097 0010 FFF7FEFF 		bl	lv_mem_free
 1098              	.LVL185:
ARM GAS  C:\Users\haske\AppData\Local\Temp\ccF9IbRI.s 			page 41


 1099 0014 10BD     		pop	{r4, pc}
 1100              	.LVL186:
 1101              	.L58:
 1102              		.cfi_def_cfa_offset 0
 1103              		.cfi_restore 4
 1104              		.cfi_restore 14
 1105 0016 7047     		bx	lr
 1106              		.cfi_endproc
 1107              	.LFE60:
 1108              		.size	lv_img_buf_free, .-lv_img_buf_free
 1109              		.section	.text.lv_img_buf_get_img_size,"ax",%progbits
 1110              		.align	2
 1111              		.global	lv_img_buf_get_img_size
 1112              		.thumb
 1113              		.thumb_func
 1114              		.type	lv_img_buf_get_img_size, %function
 1115              	lv_img_buf_get_img_size:
 1116              	.LFB61:
 373:..\..\..\arduinoLCD\test\Pain Drain\libraries\lvgl\src\draw/lv_img_buf.c ****     }
 374:..\..\..\arduinoLCD\test\Pain Drain\libraries\lvgl\src\draw/lv_img_buf.c **** }
 375:..\..\..\arduinoLCD\test\Pain Drain\libraries\lvgl\src\draw/lv_img_buf.c **** 
 376:..\..\..\arduinoLCD\test\Pain Drain\libraries\lvgl\src\draw/lv_img_buf.c **** /**
 377:..\..\..\arduinoLCD\test\Pain Drain\libraries\lvgl\src\draw/lv_img_buf.c ****  * Get the memory consumption of a raw bitmap, given color format and dimensions.
 378:..\..\..\arduinoLCD\test\Pain Drain\libraries\lvgl\src\draw/lv_img_buf.c ****  * @param w width
 379:..\..\..\arduinoLCD\test\Pain Drain\libraries\lvgl\src\draw/lv_img_buf.c ****  * @param h height
 380:..\..\..\arduinoLCD\test\Pain Drain\libraries\lvgl\src\draw/lv_img_buf.c ****  * @param cf color format
 381:..\..\..\arduinoLCD\test\Pain Drain\libraries\lvgl\src\draw/lv_img_buf.c ****  * @return size in bytes
 382:..\..\..\arduinoLCD\test\Pain Drain\libraries\lvgl\src\draw/lv_img_buf.c ****  */
 383:..\..\..\arduinoLCD\test\Pain Drain\libraries\lvgl\src\draw/lv_img_buf.c **** uint32_t lv_img_buf_get_img_size(lv_coord_t w, lv_coord_t h, lv_img_cf_t cf)
 384:..\..\..\arduinoLCD\test\Pain Drain\libraries\lvgl\src\draw/lv_img_buf.c **** {
 1117              		.loc 1 384 0
 1118              		.cfi_startproc
 1119              		@ args = 0, pretend = 0, frame = 0
 1120              		@ frame_needed = 0, uses_anonymous_args = 0
 1121              		@ link register save eliminated.
 1122              	.LVL187:
 385:..\..\..\arduinoLCD\test\Pain Drain\libraries\lvgl\src\draw/lv_img_buf.c ****     switch(cf) {
 1123              		.loc 1 385 0
 1124 0000 043A     		subs	r2, r2, #4
 1125              	.LVL188:
 1126 0002 102A     		cmp	r2, #16
 1127 0004 51D8     		bhi	.L77
 1128 0006 DFE802F0 		tbb	[pc, r2]
 1129              	.L62:
 1130 000a 09       		.byte	(.L61-.L62)/2
 1131 000b 0D       		.byte	(.L63-.L62)/2
 1132 000c 12       		.byte	(.L64-.L62)/2
 1133 000d 2F       		.byte	(.L65-.L62)/2
 1134 000e 39       		.byte	(.L66-.L62)/2
 1135 000f 43       		.byte	(.L67-.L62)/2
 1136 0010 4B       		.byte	(.L68-.L62)/2
 1137 0011 16       		.byte	(.L69-.L62)/2
 1138 0012 1E       		.byte	(.L70-.L62)/2
 1139 0013 26       		.byte	(.L71-.L62)/2
 1140 0014 2C       		.byte	(.L72-.L62)/2
 1141 0015 50       		.byte	(.L77-.L62)/2
 1142 0016 50       		.byte	(.L77-.L62)/2
ARM GAS  C:\Users\haske\AppData\Local\Temp\ccF9IbRI.s 			page 42


 1143 0017 50       		.byte	(.L77-.L62)/2
 1144 0018 50       		.byte	(.L77-.L62)/2
 1145 0019 50       		.byte	(.L77-.L62)/2
 1146 001a 0D       		.byte	(.L63-.L62)/2
 1147 001b 00       		.p2align 1
 1148              	.L61:
 386:..\..\..\arduinoLCD\test\Pain Drain\libraries\lvgl\src\draw/lv_img_buf.c ****         case LV_IMG_CF_TRUE_COLOR:
 387:..\..\..\arduinoLCD\test\Pain Drain\libraries\lvgl\src\draw/lv_img_buf.c ****             return LV_IMG_BUF_SIZE_TRUE_COLOR(w, h);
 1149              		.loc 1 387 0
 1150 001c 4000     		lsls	r0, r0, #1
 1151              	.LVL189:
 1152 001e 00FB01F0 		mul	r0, r0, r1
 1153 0022 7047     		bx	lr
 1154              	.LVL190:
 1155              	.L63:
 388:..\..\..\arduinoLCD\test\Pain Drain\libraries\lvgl\src\draw/lv_img_buf.c ****         case LV_IMG_CF_TRUE_COLOR_ALPHA:
 389:..\..\..\arduinoLCD\test\Pain Drain\libraries\lvgl\src\draw/lv_img_buf.c ****         case LV_IMG_CF_RGB565A8:
 390:..\..\..\arduinoLCD\test\Pain Drain\libraries\lvgl\src\draw/lv_img_buf.c ****             return LV_IMG_BUF_SIZE_TRUE_COLOR_ALPHA(w, h);
 1156              		.loc 1 390 0
 1157 0024 00EB4000 		add	r0, r0, r0, lsl #1
 1158              	.LVL191:
 1159 0028 00FB01F0 		mul	r0, r0, r1
 1160 002c 7047     		bx	lr
 1161              	.LVL192:
 1162              	.L64:
 391:..\..\..\arduinoLCD\test\Pain Drain\libraries\lvgl\src\draw/lv_img_buf.c ****         case LV_IMG_CF_TRUE_COLOR_CHROMA_KEYED:
 392:..\..\..\arduinoLCD\test\Pain Drain\libraries\lvgl\src\draw/lv_img_buf.c ****             return LV_IMG_BUF_SIZE_TRUE_COLOR_CHROMA_KEYED(w, h);
 1163              		.loc 1 392 0
 1164 002e 4000     		lsls	r0, r0, #1
 1165              	.LVL193:
 1166 0030 00FB01F0 		mul	r0, r0, r1
 1167 0034 7047     		bx	lr
 1168              	.LVL194:
 1169              	.L69:
 393:..\..\..\arduinoLCD\test\Pain Drain\libraries\lvgl\src\draw/lv_img_buf.c ****         case LV_IMG_CF_ALPHA_1BIT:
 394:..\..\..\arduinoLCD\test\Pain Drain\libraries\lvgl\src\draw/lv_img_buf.c ****             return LV_IMG_BUF_SIZE_ALPHA_1BIT(w, h);
 1170              		.loc 1 394 0
 1171 0036 0346     		mov	r3, r0
 1172 0038 0028     		cmp	r0, #0
 1173 003a 00DA     		bge	.L73
 1174 003c C31D     		adds	r3, r0, #7
 1175              	.L73:
 1176 003e D810     		asrs	r0, r3, #3
 1177              	.LVL195:
 1178 0040 00FB0110 		mla	r0, r0, r1, r1
 1179 0044 7047     		bx	lr
 1180              	.LVL196:
 1181              	.L70:
 395:..\..\..\arduinoLCD\test\Pain Drain\libraries\lvgl\src\draw/lv_img_buf.c ****         case LV_IMG_CF_ALPHA_2BIT:
 396:..\..\..\arduinoLCD\test\Pain Drain\libraries\lvgl\src\draw/lv_img_buf.c ****             return LV_IMG_BUF_SIZE_ALPHA_2BIT(w, h);
 1182              		.loc 1 396 0
 1183 0046 0346     		mov	r3, r0
 1184 0048 0028     		cmp	r0, #0
 1185 004a 00DA     		bge	.L74
 1186 004c C31C     		adds	r3, r0, #3
 1187              	.L74:
 1188 004e 9810     		asrs	r0, r3, #2
ARM GAS  C:\Users\haske\AppData\Local\Temp\ccF9IbRI.s 			page 43


 1189              	.LVL197:
 1190 0050 00FB0110 		mla	r0, r0, r1, r1
 1191 0054 7047     		bx	lr
 1192              	.LVL198:
 1193              	.L71:
 397:..\..\..\arduinoLCD\test\Pain Drain\libraries\lvgl\src\draw/lv_img_buf.c ****         case LV_IMG_CF_ALPHA_4BIT:
 398:..\..\..\arduinoLCD\test\Pain Drain\libraries\lvgl\src\draw/lv_img_buf.c ****             return LV_IMG_BUF_SIZE_ALPHA_4BIT(w, h);
 1194              		.loc 1 398 0
 1195 0056 00EBD070 		add	r0, r0, r0, lsr #31
 1196              	.LVL199:
 1197 005a 4010     		asrs	r0, r0, #1
 1198 005c 00FB0110 		mla	r0, r0, r1, r1
 1199 0060 7047     		bx	lr
 1200              	.LVL200:
 1201              	.L72:
 399:..\..\..\arduinoLCD\test\Pain Drain\libraries\lvgl\src\draw/lv_img_buf.c ****         case LV_IMG_CF_ALPHA_8BIT:
 400:..\..\..\arduinoLCD\test\Pain Drain\libraries\lvgl\src\draw/lv_img_buf.c ****             return LV_IMG_BUF_SIZE_ALPHA_8BIT(w, h);
 1202              		.loc 1 400 0
 1203 0062 01FB00F0 		mul	r0, r1, r0
 1204              	.LVL201:
 1205 0066 7047     		bx	lr
 1206              	.LVL202:
 1207              	.L65:
 401:..\..\..\arduinoLCD\test\Pain Drain\libraries\lvgl\src\draw/lv_img_buf.c ****         case LV_IMG_CF_INDEXED_1BIT:
 402:..\..\..\arduinoLCD\test\Pain Drain\libraries\lvgl\src\draw/lv_img_buf.c ****             return LV_IMG_BUF_SIZE_INDEXED_1BIT(w, h);
 1208              		.loc 1 402 0
 1209 0068 0346     		mov	r3, r0
 1210 006a 0028     		cmp	r0, #0
 1211 006c 00DA     		bge	.L75
 1212 006e C31D     		adds	r3, r0, #7
 1213              	.L75:
 1214 0070 D810     		asrs	r0, r3, #3
 1215              	.LVL203:
 1216 0072 00FB0111 		mla	r1, r0, r1, r1
 1217              	.LVL204:
 1218 0076 01F10800 		add	r0, r1, #8
 1219 007a 7047     		bx	lr
 1220              	.LVL205:
 1221              	.L66:
 403:..\..\..\arduinoLCD\test\Pain Drain\libraries\lvgl\src\draw/lv_img_buf.c ****         case LV_IMG_CF_INDEXED_2BIT:
 404:..\..\..\arduinoLCD\test\Pain Drain\libraries\lvgl\src\draw/lv_img_buf.c ****             return LV_IMG_BUF_SIZE_INDEXED_2BIT(w, h);
 1222              		.loc 1 404 0
 1223 007c 0346     		mov	r3, r0
 1224 007e 0028     		cmp	r0, #0
 1225 0080 00DA     		bge	.L76
 1226 0082 C31C     		adds	r3, r0, #3
 1227              	.L76:
 1228 0084 9810     		asrs	r0, r3, #2
 1229              	.LVL206:
 1230 0086 00FB0111 		mla	r1, r0, r1, r1
 1231              	.LVL207:
 1232 008a 01F11000 		add	r0, r1, #16
 1233 008e 7047     		bx	lr
 1234              	.LVL208:
 1235              	.L67:
 405:..\..\..\arduinoLCD\test\Pain Drain\libraries\lvgl\src\draw/lv_img_buf.c ****         case LV_IMG_CF_INDEXED_4BIT:
 406:..\..\..\arduinoLCD\test\Pain Drain\libraries\lvgl\src\draw/lv_img_buf.c ****             return LV_IMG_BUF_SIZE_INDEXED_4BIT(w, h);
ARM GAS  C:\Users\haske\AppData\Local\Temp\ccF9IbRI.s 			page 44


 1236              		.loc 1 406 0
 1237 0090 00EBD070 		add	r0, r0, r0, lsr #31
 1238              	.LVL209:
 1239 0094 4010     		asrs	r0, r0, #1
 1240 0096 00FB0111 		mla	r1, r0, r1, r1
 1241              	.LVL210:
 1242 009a 01F14000 		add	r0, r1, #64
 1243 009e 7047     		bx	lr
 1244              	.LVL211:
 1245              	.L68:
 407:..\..\..\arduinoLCD\test\Pain Drain\libraries\lvgl\src\draw/lv_img_buf.c ****         case LV_IMG_CF_INDEXED_8BIT:
 408:..\..\..\arduinoLCD\test\Pain Drain\libraries\lvgl\src\draw/lv_img_buf.c ****             return LV_IMG_BUF_SIZE_INDEXED_8BIT(w, h);
 1246              		.loc 1 408 0
 1247 00a0 01FB00F1 		mul	r1, r1, r0
 1248              	.LVL212:
 1249 00a4 01F58060 		add	r0, r1, #1024
 1250              	.LVL213:
 1251 00a8 7047     		bx	lr
 1252              	.LVL214:
 1253              	.L77:
 409:..\..\..\arduinoLCD\test\Pain Drain\libraries\lvgl\src\draw/lv_img_buf.c ****         default:
 410:..\..\..\arduinoLCD\test\Pain Drain\libraries\lvgl\src\draw/lv_img_buf.c ****             return 0;
 1254              		.loc 1 410 0
 1255 00aa 0020     		movs	r0, #0
 1256              	.LVL215:
 411:..\..\..\arduinoLCD\test\Pain Drain\libraries\lvgl\src\draw/lv_img_buf.c ****     }
 412:..\..\..\arduinoLCD\test\Pain Drain\libraries\lvgl\src\draw/lv_img_buf.c **** }
 1257              		.loc 1 412 0
 1258 00ac 7047     		bx	lr
 1259              		.cfi_endproc
 1260              	.LFE61:
 1261              		.size	lv_img_buf_get_img_size, .-lv_img_buf_get_img_size
 1262 00ae 00BF     		.section	.text.lv_img_buf_alloc,"ax",%progbits
 1263              		.align	2
 1264              		.global	lv_img_buf_alloc
 1265              		.thumb
 1266              		.thumb_func
 1267              		.type	lv_img_buf_alloc, %function
 1268              	lv_img_buf_alloc:
 1269              	.LFB59:
 331:..\..\..\arduinoLCD\test\Pain Drain\libraries\lvgl\src\draw/lv_img_buf.c ****     /*Allocate image descriptor*/
 1270              		.loc 1 331 0
 1271              		.cfi_startproc
 1272              		@ args = 0, pretend = 0, frame = 0
 1273              		@ frame_needed = 0, uses_anonymous_args = 0
 1274              	.LVL216:
 1275 0000 F8B5     		push	{r3, r4, r5, r6, r7, lr}
 1276              		.cfi_def_cfa_offset 24
 1277              		.cfi_offset 3, -24
 1278              		.cfi_offset 4, -20
 1279              		.cfi_offset 5, -16
 1280              		.cfi_offset 6, -12
 1281              		.cfi_offset 7, -8
 1282              		.cfi_offset 14, -4
 1283 0002 0746     		mov	r7, r0
 1284 0004 0E46     		mov	r6, r1
 1285 0006 1546     		mov	r5, r2
ARM GAS  C:\Users\haske\AppData\Local\Temp\ccF9IbRI.s 			page 45


 333:..\..\..\arduinoLCD\test\Pain Drain\libraries\lvgl\src\draw/lv_img_buf.c ****     if(dsc == NULL)
 1286              		.loc 1 333 0
 1287 0008 0C20     		movs	r0, #12
 1288              	.LVL217:
 1289 000a FFF7FEFF 		bl	lv_mem_alloc
 1290              	.LVL218:
 334:..\..\..\arduinoLCD\test\Pain Drain\libraries\lvgl\src\draw/lv_img_buf.c ****         return NULL;
 1291              		.loc 1 334 0
 1292 000e 60B3     		cbz	r0, .L82
 1293 0010 0446     		mov	r4, r0
 337:..\..\..\arduinoLCD\test\Pain Drain\libraries\lvgl\src\draw/lv_img_buf.c **** 
 1294              		.loc 1 337 0
 1295 0012 0C21     		movs	r1, #12
 1296 0014 FFF7FEFF 		bl	lv_memset_00
 1297              	.LVL219:
 340:..\..\..\arduinoLCD\test\Pain Drain\libraries\lvgl\src\draw/lv_img_buf.c ****     if(dsc->data_size == 0) {
 1298              		.loc 1 340 0
 1299 0018 2A46     		mov	r2, r5
 1300 001a 3146     		mov	r1, r6
 1301 001c 3846     		mov	r0, r7
 1302 001e FFF7FEFF 		bl	lv_img_buf_get_img_size
 1303              	.LVL220:
 1304 0022 6060     		str	r0, [r4, #4]
 341:..\..\..\arduinoLCD\test\Pain Drain\libraries\lvgl\src\draw/lv_img_buf.c ****         lv_mem_free(dsc);
 1305              		.loc 1 341 0
 1306 0024 20B9     		cbnz	r0, .L80
 342:..\..\..\arduinoLCD\test\Pain Drain\libraries\lvgl\src\draw/lv_img_buf.c ****         return NULL;
 1307              		.loc 1 342 0
 1308 0026 2046     		mov	r0, r4
 1309 0028 FFF7FEFF 		bl	lv_mem_free
 1310              	.LVL221:
 343:..\..\..\arduinoLCD\test\Pain Drain\libraries\lvgl\src\draw/lv_img_buf.c ****     }
 1311              		.loc 1 343 0
 1312 002c 0020     		movs	r0, #0
 1313 002e F8BD     		pop	{r3, r4, r5, r6, r7, pc}
 1314              	.LVL222:
 1315              	.L80:
 347:..\..\..\arduinoLCD\test\Pain Drain\libraries\lvgl\src\draw/lv_img_buf.c ****     if(dsc->data == NULL) {
 1316              		.loc 1 347 0
 1317 0030 FFF7FEFF 		bl	lv_mem_alloc
 1318              	.LVL223:
 1319 0034 A060     		str	r0, [r4, #8]
 348:..\..\..\arduinoLCD\test\Pain Drain\libraries\lvgl\src\draw/lv_img_buf.c ****         lv_mem_free(dsc);
 1320              		.loc 1 348 0
 1321 0036 20B9     		cbnz	r0, .L81
 349:..\..\..\arduinoLCD\test\Pain Drain\libraries\lvgl\src\draw/lv_img_buf.c ****         return NULL;
 1322              		.loc 1 349 0
 1323 0038 2046     		mov	r0, r4
 1324 003a FFF7FEFF 		bl	lv_mem_free
 1325              	.LVL224:
 350:..\..\..\arduinoLCD\test\Pain Drain\libraries\lvgl\src\draw/lv_img_buf.c ****     }
 1326              		.loc 1 350 0
 1327 003e 0020     		movs	r0, #0
 1328 0040 F8BD     		pop	{r3, r4, r5, r6, r7, pc}
 1329              	.LVL225:
 1330              	.L81:
 352:..\..\..\arduinoLCD\test\Pain Drain\libraries\lvgl\src\draw/lv_img_buf.c **** 
ARM GAS  C:\Users\haske\AppData\Local\Temp\ccF9IbRI.s 			page 46


 1331              		.loc 1 352 0
 1332 0042 6168     		ldr	r1, [r4, #4]
 1333 0044 FFF7FEFF 		bl	lv_memset_00
 1334              	.LVL226:
 355:..\..\..\arduinoLCD\test\Pain Drain\libraries\lvgl\src\draw/lv_img_buf.c ****     dsc->header.w = w;
 1335              		.loc 1 355 0
 1336 0048 2378     		ldrb	r3, [r4]	@ zero_extendqisi2
 1337 004a 6FF34713 		bfc	r3, #5, #3
 1338 004e 2370     		strb	r3, [r4]
 356:..\..\..\arduinoLCD\test\Pain Drain\libraries\lvgl\src\draw/lv_img_buf.c ****     dsc->header.h = h;
 1339              		.loc 1 356 0
 1340 0050 2368     		ldr	r3, [r4]
 1341 0052 67F39423 		bfi	r3, r7, #10, #11
 1342 0056 2360     		str	r3, [r4]
 357:..\..\..\arduinoLCD\test\Pain Drain\libraries\lvgl\src\draw/lv_img_buf.c ****     dsc->header.cf = cf;
 1343              		.loc 1 357 0
 1344 0058 1A0C     		lsrs	r2, r3, #16
 1345 005a 66F34F12 		bfi	r2, r6, #5, #11
 1346 005e 6280     		strh	r2, [r4, #2]	@ movhi
 358:..\..\..\arduinoLCD\test\Pain Drain\libraries\lvgl\src\draw/lv_img_buf.c ****     return dsc;
 1347              		.loc 1 358 0
 1348 0060 65F30403 		bfi	r3, r5, #0, #5
 1349 0064 2370     		strb	r3, [r4]
 359:..\..\..\arduinoLCD\test\Pain Drain\libraries\lvgl\src\draw/lv_img_buf.c **** }
 1350              		.loc 1 359 0
 1351 0066 2046     		mov	r0, r4
 1352 0068 F8BD     		pop	{r3, r4, r5, r6, r7, pc}
 1353              	.LVL227:
 1354              	.L82:
 335:..\..\..\arduinoLCD\test\Pain Drain\libraries\lvgl\src\draw/lv_img_buf.c **** 
 1355              		.loc 1 335 0
 1356 006a 0020     		movs	r0, #0
 1357              	.LVL228:
 360:..\..\..\arduinoLCD\test\Pain Drain\libraries\lvgl\src\draw/lv_img_buf.c **** 
 1358              		.loc 1 360 0
 1359 006c F8BD     		pop	{r3, r4, r5, r6, r7, pc}
 1360              		.cfi_endproc
 1361              	.LFE59:
 1362              		.size	lv_img_buf_alloc, .-lv_img_buf_alloc
 1363 006e 00BF     		.section	.text._lv_img_buf_get_transformed_area,"ax",%progbits
 1364              		.align	2
 1365              		.global	_lv_img_buf_get_transformed_area
 1366              		.thumb
 1367              		.thumb_func
 1368              		.type	_lv_img_buf_get_transformed_area, %function
 1369              	_lv_img_buf_get_transformed_area:
 1370              	.LFB62:
 413:..\..\..\arduinoLCD\test\Pain Drain\libraries\lvgl\src\draw/lv_img_buf.c **** 
 414:..\..\..\arduinoLCD\test\Pain Drain\libraries\lvgl\src\draw/lv_img_buf.c **** /**
 415:..\..\..\arduinoLCD\test\Pain Drain\libraries\lvgl\src\draw/lv_img_buf.c ****  * Get the area of a rectangle if its rotated and scaled
 416:..\..\..\arduinoLCD\test\Pain Drain\libraries\lvgl\src\draw/lv_img_buf.c ****  * @param res store the coordinates here
 417:..\..\..\arduinoLCD\test\Pain Drain\libraries\lvgl\src\draw/lv_img_buf.c ****  * @param w width of the rectangle to transform
 418:..\..\..\arduinoLCD\test\Pain Drain\libraries\lvgl\src\draw/lv_img_buf.c ****  * @param h height of the rectangle to transform
 419:..\..\..\arduinoLCD\test\Pain Drain\libraries\lvgl\src\draw/lv_img_buf.c ****  * @param angle angle of rotation
 420:..\..\..\arduinoLCD\test\Pain Drain\libraries\lvgl\src\draw/lv_img_buf.c ****  * @param zoom zoom, (256 no zoom)
 421:..\..\..\arduinoLCD\test\Pain Drain\libraries\lvgl\src\draw/lv_img_buf.c ****  * @param pivot x,y pivot coordinates of rotation
 422:..\..\..\arduinoLCD\test\Pain Drain\libraries\lvgl\src\draw/lv_img_buf.c ****  */
ARM GAS  C:\Users\haske\AppData\Local\Temp\ccF9IbRI.s 			page 47


 423:..\..\..\arduinoLCD\test\Pain Drain\libraries\lvgl\src\draw/lv_img_buf.c **** void _lv_img_buf_get_transformed_area(lv_area_t * res, lv_coord_t w, lv_coord_t h, int16_t angle, u
 424:..\..\..\arduinoLCD\test\Pain Drain\libraries\lvgl\src\draw/lv_img_buf.c ****                                       const lv_point_t * pivot)
 425:..\..\..\arduinoLCD\test\Pain Drain\libraries\lvgl\src\draw/lv_img_buf.c **** {
 1371              		.loc 1 425 0
 1372              		.cfi_startproc
 1373              		@ args = 8, pretend = 0, frame = 16
 1374              		@ frame_needed = 0, uses_anonymous_args = 0
 1375              	.LVL229:
 1376 0000 70B5     		push	{r4, r5, r6, lr}
 1377              		.cfi_def_cfa_offset 16
 1378              		.cfi_offset 4, -16
 1379              		.cfi_offset 5, -12
 1380              		.cfi_offset 6, -8
 1381              		.cfi_offset 14, -4
 1382 0002 84B0     		sub	sp, sp, #16
 1383              		.cfi_def_cfa_offset 32
 1384 0004 BDF82060 		ldrh	r6, [sp, #32]
 426:..\..\..\arduinoLCD\test\Pain Drain\libraries\lvgl\src\draw/lv_img_buf.c **** #if LV_DRAW_COMPLEX
 427:..\..\..\arduinoLCD\test\Pain Drain\libraries\lvgl\src\draw/lv_img_buf.c ****     if(angle == 0 && zoom == LV_IMG_ZOOM_NONE) {
 1385              		.loc 1 427 0
 1386 0008 1D46     		mov	r5, r3
 1387 000a 4BB9     		cbnz	r3, .L85
 1388              		.loc 1 427 0 is_stmt 0 discriminator 1
 1389 000c B6F5807F 		cmp	r6, #256
 1390 0010 06D1     		bne	.L85
 428:..\..\..\arduinoLCD\test\Pain Drain\libraries\lvgl\src\draw/lv_img_buf.c ****         res->x1 = 0;
 1391              		.loc 1 428 0 is_stmt 1
 1392 0012 0380     		strh	r3, [r0]	@ movhi
 429:..\..\..\arduinoLCD\test\Pain Drain\libraries\lvgl\src\draw/lv_img_buf.c ****         res->y1 = 0;
 1393              		.loc 1 429 0
 1394 0014 4380     		strh	r3, [r0, #2]	@ movhi
 430:..\..\..\arduinoLCD\test\Pain Drain\libraries\lvgl\src\draw/lv_img_buf.c ****         res->x2 = w - 1;
 1395              		.loc 1 430 0
 1396 0016 0139     		subs	r1, r1, #1
 1397              	.LVL230:
 1398 0018 8180     		strh	r1, [r0, #4]	@ movhi
 431:..\..\..\arduinoLCD\test\Pain Drain\libraries\lvgl\src\draw/lv_img_buf.c ****         res->y2 = h - 1;
 1399              		.loc 1 431 0
 1400 001a 013A     		subs	r2, r2, #1
 1401              	.LVL231:
 1402 001c C280     		strh	r2, [r0, #6]	@ movhi
 1403 001e 69E0     		b	.L84
 1404              	.LVL232:
 1405              	.L85:
 1406 0020 0446     		mov	r4, r0
 432:..\..\..\arduinoLCD\test\Pain Drain\libraries\lvgl\src\draw/lv_img_buf.c ****         return;
 433:..\..\..\arduinoLCD\test\Pain Drain\libraries\lvgl\src\draw/lv_img_buf.c ****     }
 434:..\..\..\arduinoLCD\test\Pain Drain\libraries\lvgl\src\draw/lv_img_buf.c **** 
 435:..\..\..\arduinoLCD\test\Pain Drain\libraries\lvgl\src\draw/lv_img_buf.c ****     lv_point_t p[4] = {
 1407              		.loc 1 435 0
 1408 0022 0023     		movs	r3, #0
 1409              	.LVL233:
 1410 0024 ADF80030 		strh	r3, [sp]	@ movhi
 1411 0028 ADF80230 		strh	r3, [sp, #2]	@ movhi
 1412 002c ADF80410 		strh	r1, [sp, #4]	@ movhi
 1413 0030 ADF80630 		strh	r3, [sp, #6]	@ movhi
 1414 0034 ADF80830 		strh	r3, [sp, #8]	@ movhi
ARM GAS  C:\Users\haske\AppData\Local\Temp\ccF9IbRI.s 			page 48


 1415 0038 ADF80A20 		strh	r2, [sp, #10]	@ movhi
 1416 003c ADF80C10 		strh	r1, [sp, #12]	@ movhi
 1417 0040 ADF80E20 		strh	r2, [sp, #14]	@ movhi
 436:..\..\..\arduinoLCD\test\Pain Drain\libraries\lvgl\src\draw/lv_img_buf.c ****         {0, 0},
 437:..\..\..\arduinoLCD\test\Pain Drain\libraries\lvgl\src\draw/lv_img_buf.c ****         {w, 0},
 438:..\..\..\arduinoLCD\test\Pain Drain\libraries\lvgl\src\draw/lv_img_buf.c ****         {0, h},
 439:..\..\..\arduinoLCD\test\Pain Drain\libraries\lvgl\src\draw/lv_img_buf.c ****         {w, h},
 440:..\..\..\arduinoLCD\test\Pain Drain\libraries\lvgl\src\draw/lv_img_buf.c ****     };
 441:..\..\..\arduinoLCD\test\Pain Drain\libraries\lvgl\src\draw/lv_img_buf.c ****     lv_point_transform(&p[0], angle, zoom, pivot);
 1418              		.loc 1 441 0
 1419 0044 099B     		ldr	r3, [sp, #36]
 1420 0046 3246     		mov	r2, r6
 1421              	.LVL234:
 1422 0048 2946     		mov	r1, r5
 1423              	.LVL235:
 1424 004a 6846     		mov	r0, sp
 1425              	.LVL236:
 1426 004c FFF7FEFF 		bl	lv_point_transform
 1427              	.LVL237:
 442:..\..\..\arduinoLCD\test\Pain Drain\libraries\lvgl\src\draw/lv_img_buf.c ****     lv_point_transform(&p[1], angle, zoom, pivot);
 1428              		.loc 1 442 0
 1429 0050 099B     		ldr	r3, [sp, #36]
 1430 0052 3246     		mov	r2, r6
 1431 0054 2946     		mov	r1, r5
 1432 0056 01A8     		add	r0, sp, #4
 1433 0058 FFF7FEFF 		bl	lv_point_transform
 1434              	.LVL238:
 443:..\..\..\arduinoLCD\test\Pain Drain\libraries\lvgl\src\draw/lv_img_buf.c ****     lv_point_transform(&p[2], angle, zoom, pivot);
 1435              		.loc 1 443 0
 1436 005c 099B     		ldr	r3, [sp, #36]
 1437 005e 3246     		mov	r2, r6
 1438 0060 2946     		mov	r1, r5
 1439 0062 02A8     		add	r0, sp, #8
 1440 0064 FFF7FEFF 		bl	lv_point_transform
 1441              	.LVL239:
 444:..\..\..\arduinoLCD\test\Pain Drain\libraries\lvgl\src\draw/lv_img_buf.c ****     lv_point_transform(&p[3], angle, zoom, pivot);
 1442              		.loc 1 444 0
 1443 0068 099B     		ldr	r3, [sp, #36]
 1444 006a 3246     		mov	r2, r6
 1445 006c 2946     		mov	r1, r5
 1446 006e 03A8     		add	r0, sp, #12
 1447 0070 FFF7FEFF 		bl	lv_point_transform
 1448              	.LVL240:
 445:..\..\..\arduinoLCD\test\Pain Drain\libraries\lvgl\src\draw/lv_img_buf.c ****     res->x1 = LV_MIN4(p[0].x, p[1].x, p[2].x, p[3].x) - 2;
 1449              		.loc 1 445 0
 1450 0074 BDF90C50 		ldrsh	r5, [sp, #12]
 1451 0078 BDF90810 		ldrsh	r1, [sp, #8]
 1452 007c 2E46     		mov	r6, r5
 1453 007e 8D42     		cmp	r5, r1
 1454 0080 A8BF     		it	ge
 1455 0082 0E46     		movge	r6, r1
 1456 0084 BDF90400 		ldrsh	r0, [sp, #4]
 1457 0088 BDF90030 		ldrsh	r3, [sp]
 1458 008c 0246     		mov	r2, r0
 1459 008e 9842     		cmp	r0, r3
 1460 0090 A8BF     		it	ge
 1461 0092 1A46     		movge	r2, r3
ARM GAS  C:\Users\haske\AppData\Local\Temp\ccF9IbRI.s 			page 49


 1462 0094 B242     		cmp	r2, r6
 1463 0096 A8BF     		it	ge
 1464 0098 3246     		movge	r2, r6
 1465 009a 023A     		subs	r2, r2, #2
 1466 009c 2280     		strh	r2, [r4]	@ movhi
 446:..\..\..\arduinoLCD\test\Pain Drain\libraries\lvgl\src\draw/lv_img_buf.c ****     res->x2 = LV_MAX4(p[0].x, p[1].x, p[2].x, p[3].x) + 2;
 1467              		.loc 1 446 0
 1468 009e A942     		cmp	r1, r5
 1469 00a0 B8BF     		it	lt
 1470 00a2 2946     		movlt	r1, r5
 1471 00a4 8342     		cmp	r3, r0
 1472 00a6 B8BF     		it	lt
 1473 00a8 0346     		movlt	r3, r0
 1474 00aa 8B42     		cmp	r3, r1
 1475 00ac B8BF     		it	lt
 1476 00ae 0B46     		movlt	r3, r1
 1477 00b0 0233     		adds	r3, r3, #2
 1478 00b2 A380     		strh	r3, [r4, #4]	@ movhi
 447:..\..\..\arduinoLCD\test\Pain Drain\libraries\lvgl\src\draw/lv_img_buf.c ****     res->y1 = LV_MIN4(p[0].y, p[1].y, p[2].y, p[3].y) - 2;
 1479              		.loc 1 447 0
 1480 00b4 BDF90E50 		ldrsh	r5, [sp, #14]
 1481 00b8 BDF90A10 		ldrsh	r1, [sp, #10]
 1482 00bc 2E46     		mov	r6, r5
 1483 00be 8D42     		cmp	r5, r1
 1484 00c0 A8BF     		it	ge
 1485 00c2 0E46     		movge	r6, r1
 1486 00c4 BDF90600 		ldrsh	r0, [sp, #6]
 1487 00c8 BDF90230 		ldrsh	r3, [sp, #2]
 1488 00cc 0246     		mov	r2, r0
 1489 00ce 9842     		cmp	r0, r3
 1490 00d0 A8BF     		it	ge
 1491 00d2 1A46     		movge	r2, r3
 1492 00d4 B242     		cmp	r2, r6
 1493 00d6 A8BF     		it	ge
 1494 00d8 3246     		movge	r2, r6
 1495 00da 023A     		subs	r2, r2, #2
 1496 00dc 6280     		strh	r2, [r4, #2]	@ movhi
 448:..\..\..\arduinoLCD\test\Pain Drain\libraries\lvgl\src\draw/lv_img_buf.c ****     res->y2 = LV_MAX4(p[0].y, p[1].y, p[2].y, p[3].y) + 2;
 1497              		.loc 1 448 0
 1498 00de A942     		cmp	r1, r5
 1499 00e0 B8BF     		it	lt
 1500 00e2 2946     		movlt	r1, r5
 1501 00e4 8342     		cmp	r3, r0
 1502 00e6 B8BF     		it	lt
 1503 00e8 0346     		movlt	r3, r0
 1504 00ea 8B42     		cmp	r3, r1
 1505 00ec B8BF     		it	lt
 1506 00ee 0B46     		movlt	r3, r1
 1507 00f0 0233     		adds	r3, r3, #2
 1508 00f2 E380     		strh	r3, [r4, #6]	@ movhi
 1509              	.LVL241:
 1510              	.L84:
 449:..\..\..\arduinoLCD\test\Pain Drain\libraries\lvgl\src\draw/lv_img_buf.c **** 
 450:..\..\..\arduinoLCD\test\Pain Drain\libraries\lvgl\src\draw/lv_img_buf.c **** #else
 451:..\..\..\arduinoLCD\test\Pain Drain\libraries\lvgl\src\draw/lv_img_buf.c ****     LV_UNUSED(angle);
 452:..\..\..\arduinoLCD\test\Pain Drain\libraries\lvgl\src\draw/lv_img_buf.c ****     LV_UNUSED(zoom);
 453:..\..\..\arduinoLCD\test\Pain Drain\libraries\lvgl\src\draw/lv_img_buf.c ****     LV_UNUSED(pivot);
ARM GAS  C:\Users\haske\AppData\Local\Temp\ccF9IbRI.s 			page 50


 454:..\..\..\arduinoLCD\test\Pain Drain\libraries\lvgl\src\draw/lv_img_buf.c ****     res->x1 = 0;
 455:..\..\..\arduinoLCD\test\Pain Drain\libraries\lvgl\src\draw/lv_img_buf.c ****     res->y1 = 0;
 456:..\..\..\arduinoLCD\test\Pain Drain\libraries\lvgl\src\draw/lv_img_buf.c ****     res->x2 = w - 1;
 457:..\..\..\arduinoLCD\test\Pain Drain\libraries\lvgl\src\draw/lv_img_buf.c ****     res->y2 = h - 1;
 458:..\..\..\arduinoLCD\test\Pain Drain\libraries\lvgl\src\draw/lv_img_buf.c **** #endif
 459:..\..\..\arduinoLCD\test\Pain Drain\libraries\lvgl\src\draw/lv_img_buf.c **** }
 1511              		.loc 1 459 0
 1512 00f4 04B0     		add	sp, sp, #16
 1513              		.cfi_def_cfa_offset 16
 1514              		@ sp needed
 1515 00f6 70BD     		pop	{r4, r5, r6, pc}
 1516              		.cfi_endproc
 1517              	.LFE62:
 1518              		.size	_lv_img_buf_get_transformed_area, .-_lv_img_buf_get_transformed_area
 1519              		.section	.rodata
 1520              		.align	2
 1521              		.set	.LANCHOR0,. + 0
 1522              	.LC0:
 1523 0000 00       		.byte	0
 1524 0001 55       		.byte	85
 1525 0002 AA       		.byte	-86
 1526 0003 FF       		.byte	-1
 1527              	.LC1:
 1528 0004 00       		.byte	0
 1529 0005 11       		.byte	17
 1530 0006 22       		.byte	34
 1531 0007 33       		.byte	51
 1532 0008 44       		.byte	68
 1533 0009 55       		.byte	85
 1534 000a 66       		.byte	102
 1535 000b 77       		.byte	119
 1536 000c 88       		.byte	-120
 1537 000d 99       		.byte	-103
 1538 000e AA       		.byte	-86
 1539 000f BB       		.byte	-69
 1540 0010 CC       		.byte	-52
 1541 0011 DD       		.byte	-35
 1542 0012 EE       		.byte	-18
 1543 0013 FF       		.byte	-1
 1544              		.text
 1545              	.Letext0:
 1546              		.file 4 "c:\\program files (x86)\\cypress\\psoc creator\\4.4\\psoc creator\\import\\gnu\\arm\\5.4.
 1547              		.file 5 "c:\\program files (x86)\\cypress\\psoc creator\\4.4\\psoc creator\\import\\gnu\\arm\\5.4.
 1548              		.file 6 "c:\\program files (x86)\\cypress\\psoc creator\\4.4\\psoc creator\\import\\gnu\\arm\\5.4.
 1549              		.file 7 "..\\..\\..\\arduinoLCD\\test\\Pain Drain\\libraries\\lvgl\\src\\draw\\../misc/lv_area.h"
 1550              		.file 8 "..\\..\\..\\arduinoLCD\\test\\Pain Drain\\libraries\\lvgl\\src\\draw\\lv_img_buf.h"
 1551              		.file 9 "c:\\projects\\paindrain\\arduinolcd\\test\\pain drain\\libraries\\lvgl\\src\\font\\lv_fon
 1552              		.file 10 "..\\..\\..\\arduinoLCD\\test\\Pain Drain\\libraries\\lvgl\\src\\draw\\lv_draw_img.h"
 1553              		.section	.debug_info,"",%progbits
 1554              	.Ldebug_info0:
 1555 0000 6A100000 		.4byte	0x106a
 1556 0004 0400     		.2byte	0x4
 1557 0006 00000000 		.4byte	.Ldebug_abbrev0
 1558 000a 04       		.byte	0x4
 1559 000b 01       		.uleb128 0x1
 1560 000c 31050000 		.4byte	.LASF138
 1561 0010 0C       		.byte	0xc
ARM GAS  C:\Users\haske\AppData\Local\Temp\ccF9IbRI.s 			page 51


 1562 0011 35030000 		.4byte	.LASF139
 1563 0015 C4080000 		.4byte	.LASF140
 1564 0019 30000000 		.4byte	.Ldebug_ranges0+0x30
 1565 001d 00000000 		.4byte	0
 1566 0021 00000000 		.4byte	.Ldebug_line0
 1567 0025 02       		.uleb128 0x2
 1568 0026 04       		.byte	0x4
 1569 0027 05       		.byte	0x5
 1570 0028 696E7400 		.ascii	"int\000"
 1571 002c 03       		.uleb128 0x3
 1572 002d 3F000000 		.4byte	.LASF3
 1573 0031 04       		.byte	0x4
 1574 0032 D8       		.byte	0xd8
 1575 0033 37000000 		.4byte	0x37
 1576 0037 04       		.uleb128 0x4
 1577 0038 04       		.byte	0x4
 1578 0039 07       		.byte	0x7
 1579 003a E6020000 		.4byte	.LASF0
 1580 003e 04       		.uleb128 0x4
 1581 003f 08       		.byte	0x8
 1582 0040 05       		.byte	0x5
 1583 0041 22010000 		.4byte	.LASF1
 1584 0045 04       		.uleb128 0x4
 1585 0046 08       		.byte	0x8
 1586 0047 04       		.byte	0x4
 1587 0048 8B040000 		.4byte	.LASF2
 1588 004c 03       		.uleb128 0x3
 1589 004d C4000000 		.4byte	.LASF4
 1590 0051 05       		.byte	0x5
 1591 0052 1B       		.byte	0x1b
 1592 0053 57000000 		.4byte	0x57
 1593 0057 04       		.uleb128 0x4
 1594 0058 01       		.byte	0x1
 1595 0059 06       		.byte	0x6
 1596 005a 30010000 		.4byte	.LASF5
 1597 005e 03       		.uleb128 0x3
 1598 005f 46000000 		.4byte	.LASF6
 1599 0063 05       		.byte	0x5
 1600 0064 1D       		.byte	0x1d
 1601 0065 69000000 		.4byte	0x69
 1602 0069 04       		.uleb128 0x4
 1603 006a 01       		.byte	0x1
 1604 006b 08       		.byte	0x8
 1605 006c 22060000 		.4byte	.LASF7
 1606 0070 03       		.uleb128 0x3
 1607 0071 74020000 		.4byte	.LASF8
 1608 0075 05       		.byte	0x5
 1609 0076 29       		.byte	0x29
 1610 0077 7B000000 		.4byte	0x7b
 1611 007b 04       		.uleb128 0x4
 1612 007c 02       		.byte	0x2
 1613 007d 05       		.byte	0x5
 1614 007e 81060000 		.4byte	.LASF9
 1615 0082 03       		.uleb128 0x3
 1616 0083 0A070000 		.4byte	.LASF10
 1617 0087 05       		.byte	0x5
 1618 0088 2B       		.byte	0x2b
ARM GAS  C:\Users\haske\AppData\Local\Temp\ccF9IbRI.s 			page 52


 1619 0089 8D000000 		.4byte	0x8d
 1620 008d 04       		.uleb128 0x4
 1621 008e 02       		.byte	0x2
 1622 008f 07       		.byte	0x7
 1623 0090 D6030000 		.4byte	.LASF11
 1624 0094 04       		.uleb128 0x4
 1625 0095 04       		.byte	0x4
 1626 0096 05       		.byte	0x5
 1627 0097 73010000 		.4byte	.LASF12
 1628 009b 03       		.uleb128 0x3
 1629 009c 5F020000 		.4byte	.LASF13
 1630 00a0 05       		.byte	0x5
 1631 00a1 41       		.byte	0x41
 1632 00a2 A6000000 		.4byte	0xa6
 1633 00a6 04       		.uleb128 0x4
 1634 00a7 04       		.byte	0x4
 1635 00a8 07       		.byte	0x7
 1636 00a9 23030000 		.4byte	.LASF14
 1637 00ad 04       		.uleb128 0x4
 1638 00ae 08       		.byte	0x8
 1639 00af 07       		.byte	0x7
 1640 00b0 79000000 		.4byte	.LASF15
 1641 00b4 04       		.uleb128 0x4
 1642 00b5 04       		.byte	0x4
 1643 00b6 07       		.byte	0x7
 1644 00b7 74040000 		.4byte	.LASF16
 1645 00bb 05       		.uleb128 0x5
 1646 00bc 04       		.byte	0x4
 1647 00bd 04       		.uleb128 0x4
 1648 00be 01       		.byte	0x1
 1649 00bf 08       		.byte	0x8
 1650 00c0 E4060000 		.4byte	.LASF17
 1651 00c4 03       		.uleb128 0x3
 1652 00c5 CD070000 		.4byte	.LASF18
 1653 00c9 06       		.byte	0x6
 1654 00ca 14       		.byte	0x14
 1655 00cb 4C000000 		.4byte	0x4c
 1656 00cf 03       		.uleb128 0x3
 1657 00d0 75080000 		.4byte	.LASF19
 1658 00d4 06       		.byte	0x6
 1659 00d5 18       		.byte	0x18
 1660 00d6 5E000000 		.4byte	0x5e
 1661 00da 03       		.uleb128 0x3
 1662 00db 2B090000 		.4byte	.LASF20
 1663 00df 06       		.byte	0x6
 1664 00e0 20       		.byte	0x20
 1665 00e1 70000000 		.4byte	0x70
 1666 00e5 03       		.uleb128 0x3
 1667 00e6 8C010000 		.4byte	.LASF21
 1668 00ea 06       		.byte	0x6
 1669 00eb 24       		.byte	0x24
 1670 00ec 82000000 		.4byte	0x82
 1671 00f0 03       		.uleb128 0x3
 1672 00f1 4A090000 		.4byte	.LASF22
 1673 00f5 06       		.byte	0x6
 1674 00f6 30       		.byte	0x30
 1675 00f7 9B000000 		.4byte	0x9b
ARM GAS  C:\Users\haske\AppData\Local\Temp\ccF9IbRI.s 			page 53


 1676 00fb 06       		.uleb128 0x6
 1677 00fc 01       		.byte	0x1
 1678 00fd 69000000 		.4byte	0x69
 1679 0101 02       		.byte	0x2
 1680 0102 29       		.byte	0x29
 1681 0103 56010000 		.4byte	0x156
 1682 0107 07       		.uleb128 0x7
 1683 0108 7D040000 		.4byte	.LASF23
 1684 010c 00       		.byte	0
 1685 010d 07       		.uleb128 0x7
 1686 010e 88080000 		.4byte	.LASF24
 1687 0112 00       		.byte	0
 1688 0113 07       		.uleb128 0x7
 1689 0114 12060000 		.4byte	.LASF25
 1690 0118 19       		.byte	0x19
 1691 0119 07       		.uleb128 0x7
 1692 011a E9060000 		.4byte	.LASF26
 1693 011e 33       		.byte	0x33
 1694 011f 07       		.uleb128 0x7
 1695 0120 8C020000 		.4byte	.LASF27
 1696 0124 4C       		.byte	0x4c
 1697 0125 07       		.uleb128 0x7
 1698 0126 FE040000 		.4byte	.LASF28
 1699 012a 66       		.byte	0x66
 1700 012b 07       		.uleb128 0x7
 1701 012c F4040000 		.4byte	.LASF29
 1702 0130 7F       		.byte	0x7f
 1703 0131 07       		.uleb128 0x7
 1704 0132 6A020000 		.4byte	.LASF30
 1705 0136 99       		.byte	0x99
 1706 0137 07       		.uleb128 0x7
 1707 0138 20040000 		.4byte	.LASF31
 1708 013c B2       		.byte	0xb2
 1709 013d 07       		.uleb128 0x7
 1710 013e 19030000 		.4byte	.LASF32
 1711 0142 CC       		.byte	0xcc
 1712 0143 07       		.uleb128 0x7
 1713 0144 8B060000 		.4byte	.LASF33
 1714 0148 E5       		.byte	0xe5
 1715 0149 07       		.uleb128 0x7
 1716 014a 2E070000 		.4byte	.LASF34
 1717 014e FF       		.byte	0xff
 1718 014f 07       		.uleb128 0x7
 1719 0150 A1010000 		.4byte	.LASF35
 1720 0154 FF       		.byte	0xff
 1721 0155 00       		.byte	0
 1722 0156 08       		.uleb128 0x8
 1723 0157 02       		.byte	0x2
 1724 0158 02       		.byte	0x2
 1725 0159 D1       		.byte	0xd1
 1726 015a 8C010000 		.4byte	0x18c
 1727 015e 09       		.uleb128 0x9
 1728 015f D9060000 		.4byte	.LASF36
 1729 0163 02       		.byte	0x2
 1730 0164 D3       		.byte	0xd3
 1731 0165 E5000000 		.4byte	0xe5
 1732 0169 02       		.byte	0x2
ARM GAS  C:\Users\haske\AppData\Local\Temp\ccF9IbRI.s 			page 54


 1733 016a 05       		.byte	0x5
 1734 016b 0B       		.byte	0xb
 1735 016c 00       		.byte	0
 1736 016d 09       		.uleb128 0x9
 1737 016e 3C010000 		.4byte	.LASF37
 1738 0172 02       		.byte	0x2
 1739 0173 D4       		.byte	0xd4
 1740 0174 E5000000 		.4byte	0xe5
 1741 0178 02       		.byte	0x2
 1742 0179 06       		.byte	0x6
 1743 017a 05       		.byte	0x5
 1744 017b 00       		.byte	0
 1745 017c 0A       		.uleb128 0xa
 1746 017d 72656400 		.ascii	"red\000"
 1747 0181 02       		.byte	0x2
 1748 0182 D5       		.byte	0xd5
 1749 0183 E5000000 		.4byte	0xe5
 1750 0187 02       		.byte	0x2
 1751 0188 05       		.byte	0x5
 1752 0189 00       		.byte	0
 1753 018a 00       		.byte	0
 1754 018b 00       		.byte	0
 1755 018c 0B       		.uleb128 0xb
 1756 018d 02       		.byte	0x2
 1757 018e 02       		.byte	0x2
 1758 018f D0       		.byte	0xd0
 1759 0190 AA010000 		.4byte	0x1aa
 1760 0194 0C       		.uleb128 0xc
 1761 0195 636800   		.ascii	"ch\000"
 1762 0198 02       		.byte	0x2
 1763 0199 DC       		.byte	0xdc
 1764 019a 56010000 		.4byte	0x156
 1765 019e 0D       		.uleb128 0xd
 1766 019f BC060000 		.4byte	.LASF38
 1767 01a3 02       		.byte	0x2
 1768 01a4 DD       		.byte	0xdd
 1769 01a5 E5000000 		.4byte	0xe5
 1770 01a9 00       		.byte	0
 1771 01aa 03       		.uleb128 0x3
 1772 01ab 05060000 		.4byte	.LASF39
 1773 01af 02       		.byte	0x2
 1774 01b0 DE       		.byte	0xde
 1775 01b1 8C010000 		.4byte	0x18c
 1776 01b5 08       		.uleb128 0x8
 1777 01b6 04       		.byte	0x4
 1778 01b7 02       		.byte	0x2
 1779 01b8 E1       		.byte	0xe1
 1780 01b9 EE010000 		.4byte	0x1ee
 1781 01bd 0E       		.uleb128 0xe
 1782 01be D9060000 		.4byte	.LASF36
 1783 01c2 02       		.byte	0x2
 1784 01c3 E2       		.byte	0xe2
 1785 01c4 CF000000 		.4byte	0xcf
 1786 01c8 00       		.byte	0
 1787 01c9 0E       		.uleb128 0xe
 1788 01ca 3C010000 		.4byte	.LASF37
 1789 01ce 02       		.byte	0x2
ARM GAS  C:\Users\haske\AppData\Local\Temp\ccF9IbRI.s 			page 55


 1790 01cf E3       		.byte	0xe3
 1791 01d0 CF000000 		.4byte	0xcf
 1792 01d4 01       		.byte	0x1
 1793 01d5 0F       		.uleb128 0xf
 1794 01d6 72656400 		.ascii	"red\000"
 1795 01da 02       		.byte	0x2
 1796 01db E4       		.byte	0xe4
 1797 01dc CF000000 		.4byte	0xcf
 1798 01e0 02       		.byte	0x2
 1799 01e1 0E       		.uleb128 0xe
 1800 01e2 42010000 		.4byte	.LASF40
 1801 01e6 02       		.byte	0x2
 1802 01e7 E5       		.byte	0xe5
 1803 01e8 CF000000 		.4byte	0xcf
 1804 01ec 03       		.byte	0x3
 1805 01ed 00       		.byte	0
 1806 01ee 0B       		.uleb128 0xb
 1807 01ef 04       		.byte	0x4
 1808 01f0 02       		.byte	0x2
 1809 01f1 E0       		.byte	0xe0
 1810 01f2 0C020000 		.4byte	0x20c
 1811 01f6 0C       		.uleb128 0xc
 1812 01f7 636800   		.ascii	"ch\000"
 1813 01fa 02       		.byte	0x2
 1814 01fb E6       		.byte	0xe6
 1815 01fc B5010000 		.4byte	0x1b5
 1816 0200 0D       		.uleb128 0xd
 1817 0201 BC060000 		.4byte	.LASF38
 1818 0205 02       		.byte	0x2
 1819 0206 E7       		.byte	0xe7
 1820 0207 F0000000 		.4byte	0xf0
 1821 020b 00       		.byte	0
 1822 020c 03       		.uleb128 0x3
 1823 020d CD000000 		.4byte	.LASF41
 1824 0211 02       		.byte	0x2
 1825 0212 E8       		.byte	0xe8
 1826 0213 EE010000 		.4byte	0x1ee
 1827 0217 03       		.uleb128 0x3
 1828 0218 23070000 		.4byte	.LASF42
 1829 021c 02       		.byte	0x2
 1830 021d EB       		.byte	0xeb
 1831 021e AA010000 		.4byte	0x1aa
 1832 0222 03       		.uleb128 0x3
 1833 0223 56040000 		.4byte	.LASF43
 1834 0227 02       		.byte	0x2
 1835 0228 F5       		.byte	0xf5
 1836 0229 CF000000 		.4byte	0xcf
 1837 022d 03       		.uleb128 0x3
 1838 022e F7000000 		.4byte	.LASF44
 1839 0232 07       		.byte	0x7
 1840 0233 1B       		.byte	0x1b
 1841 0234 DA000000 		.4byte	0xda
 1842 0238 08       		.uleb128 0x8
 1843 0239 04       		.byte	0x4
 1844 023a 07       		.byte	0x7
 1845 023b 25       		.byte	0x25
 1846 023c 55020000 		.4byte	0x255
ARM GAS  C:\Users\haske\AppData\Local\Temp\ccF9IbRI.s 			page 56


 1847 0240 0F       		.uleb128 0xf
 1848 0241 7800     		.ascii	"x\000"
 1849 0243 07       		.byte	0x7
 1850 0244 26       		.byte	0x26
 1851 0245 2D020000 		.4byte	0x22d
 1852 0249 00       		.byte	0
 1853 024a 0F       		.uleb128 0xf
 1854 024b 7900     		.ascii	"y\000"
 1855 024d 07       		.byte	0x7
 1856 024e 27       		.byte	0x27
 1857 024f 2D020000 		.4byte	0x22d
 1858 0253 02       		.byte	0x2
 1859 0254 00       		.byte	0
 1860 0255 03       		.uleb128 0x3
 1861 0256 7D080000 		.4byte	.LASF45
 1862 025a 07       		.byte	0x7
 1863 025b 28       		.byte	0x28
 1864 025c 38020000 		.4byte	0x238
 1865 0260 08       		.uleb128 0x8
 1866 0261 08       		.byte	0x8
 1867 0262 07       		.byte	0x7
 1868 0263 2B       		.byte	0x2b
 1869 0264 95020000 		.4byte	0x295
 1870 0268 0F       		.uleb128 0xf
 1871 0269 783100   		.ascii	"x1\000"
 1872 026c 07       		.byte	0x7
 1873 026d 2C       		.byte	0x2c
 1874 026e 2D020000 		.4byte	0x22d
 1875 0272 00       		.byte	0
 1876 0273 0F       		.uleb128 0xf
 1877 0274 793100   		.ascii	"y1\000"
 1878 0277 07       		.byte	0x7
 1879 0278 2D       		.byte	0x2d
 1880 0279 2D020000 		.4byte	0x22d
 1881 027d 02       		.byte	0x2
 1882 027e 0F       		.uleb128 0xf
 1883 027f 783200   		.ascii	"x2\000"
 1884 0282 07       		.byte	0x7
 1885 0283 2E       		.byte	0x2e
 1886 0284 2D020000 		.4byte	0x22d
 1887 0288 04       		.byte	0x4
 1888 0289 0F       		.uleb128 0xf
 1889 028a 793200   		.ascii	"y2\000"
 1890 028d 07       		.byte	0x7
 1891 028e 2F       		.byte	0x2f
 1892 028f 2D020000 		.4byte	0x22d
 1893 0293 06       		.byte	0x6
 1894 0294 00       		.byte	0
 1895 0295 03       		.uleb128 0x3
 1896 0296 69010000 		.4byte	.LASF46
 1897 029a 07       		.byte	0x7
 1898 029b 30       		.byte	0x30
 1899 029c 60020000 		.4byte	0x260
 1900 02a0 06       		.uleb128 0x6
 1901 02a1 01       		.byte	0x1
 1902 02a2 69000000 		.4byte	0x69
 1903 02a6 08       		.byte	0x8
ARM GAS  C:\Users\haske\AppData\Local\Temp\ccF9IbRI.s 			page 57


 1904 02a7 37       		.byte	0x37
 1905 02a8 91030000 		.4byte	0x391
 1906 02ac 07       		.uleb128 0x7
 1907 02ad C9010000 		.4byte	.LASF47
 1908 02b1 00       		.byte	0
 1909 02b2 07       		.uleb128 0x7
 1910 02b3 1B000000 		.4byte	.LASF48
 1911 02b7 01       		.byte	0x1
 1912 02b8 07       		.uleb128 0x7
 1913 02b9 50000000 		.4byte	.LASF49
 1914 02bd 02       		.byte	0x2
 1915 02be 07       		.uleb128 0x7
 1916 02bf 3F070000 		.4byte	.LASF50
 1917 02c3 03       		.byte	0x3
 1918 02c4 07       		.uleb128 0x7
 1919 02c5 5F040000 		.4byte	.LASF51
 1920 02c9 04       		.byte	0x4
 1921 02ca 07       		.uleb128 0x7
 1922 02cb 91080000 		.4byte	.LASF52
 1923 02cf 05       		.byte	0x5
 1924 02d0 07       		.uleb128 0x7
 1925 02d1 2A040000 		.4byte	.LASF53
 1926 02d5 06       		.byte	0x6
 1927 02d6 07       		.uleb128 0x7
 1928 02d7 51080000 		.4byte	.LASF54
 1929 02db 07       		.byte	0x7
 1930 02dc 07       		.uleb128 0x7
 1931 02dd F3060000 		.4byte	.LASF55
 1932 02e1 08       		.byte	0x8
 1933 02e2 07       		.uleb128 0x7
 1934 02e3 CA040000 		.4byte	.LASF56
 1935 02e7 09       		.byte	0x9
 1936 02e8 07       		.uleb128 0x7
 1937 02e9 AD000000 		.4byte	.LASF57
 1938 02ed 0A       		.byte	0xa
 1939 02ee 07       		.uleb128 0x7
 1940 02ef 0B040000 		.4byte	.LASF58
 1941 02f3 0B       		.byte	0xb
 1942 02f4 07       		.uleb128 0x7
 1943 02f5 B7020000 		.4byte	.LASF59
 1944 02f9 0C       		.byte	0xc
 1945 02fa 07       		.uleb128 0x7
 1946 02fb 64000000 		.4byte	.LASF60
 1947 02ff 0D       		.byte	0xd
 1948 0300 07       		.uleb128 0x7
 1949 0301 30060000 		.4byte	.LASF61
 1950 0305 0E       		.byte	0xe
 1951 0306 07       		.uleb128 0x7
 1952 0307 5D060000 		.4byte	.LASF62
 1953 030b 0F       		.byte	0xf
 1954 030c 07       		.uleb128 0x7
 1955 030d DB010000 		.4byte	.LASF63
 1956 0311 10       		.byte	0x10
 1957 0312 07       		.uleb128 0x7
 1958 0313 A9060000 		.4byte	.LASF64
 1959 0317 11       		.byte	0x11
 1960 0318 07       		.uleb128 0x7
ARM GAS  C:\Users\haske\AppData\Local\Temp\ccF9IbRI.s 			page 58


 1961 0319 97040000 		.4byte	.LASF65
 1962 031d 12       		.byte	0x12
 1963 031e 07       		.uleb128 0x7
 1964 031f E1040000 		.4byte	.LASF66
 1965 0323 13       		.byte	0x13
 1966 0324 07       		.uleb128 0x7
 1967 0325 6E060000 		.4byte	.LASF67
 1968 0329 14       		.byte	0x14
 1969 032a 07       		.uleb128 0x7
 1970 032b 29000000 		.4byte	.LASF68
 1971 032f 15       		.byte	0x15
 1972 0330 07       		.uleb128 0x7
 1973 0331 EE010000 		.4byte	.LASF69
 1974 0335 16       		.byte	0x16
 1975 0336 07       		.uleb128 0x7
 1976 0337 04020000 		.4byte	.LASF70
 1977 033b 17       		.byte	0x17
 1978 033c 07       		.uleb128 0x7
 1979 033d 1A020000 		.4byte	.LASF71
 1980 0341 18       		.byte	0x18
 1981 0342 07       		.uleb128 0x7
 1982 0343 30020000 		.4byte	.LASF72
 1983 0347 19       		.byte	0x19
 1984 0348 07       		.uleb128 0x7
 1985 0349 7E030000 		.4byte	.LASF73
 1986 034d 1A       		.byte	0x1a
 1987 034e 07       		.uleb128 0x7
 1988 034f 94030000 		.4byte	.LASF74
 1989 0353 1B       		.byte	0x1b
 1990 0354 07       		.uleb128 0x7
 1991 0355 AA030000 		.4byte	.LASF75
 1992 0359 1C       		.byte	0x1c
 1993 035a 07       		.uleb128 0x7
 1994 035b C0030000 		.4byte	.LASF76
 1995 035f 1D       		.byte	0x1d
 1996 0360 07       		.uleb128 0x7
 1997 0361 00080000 		.4byte	.LASF77
 1998 0365 1E       		.byte	0x1e
 1999 0366 07       		.uleb128 0x7
 2000 0367 1F080000 		.4byte	.LASF78
 2001 036b 1F       		.byte	0x1f
 2002 036c 07       		.uleb128 0x7
 2003 036d 38080000 		.4byte	.LASF79
 2004 0371 20       		.byte	0x20
 2005 0372 07       		.uleb128 0x7
 2006 0373 5A070000 		.4byte	.LASF80
 2007 0377 21       		.byte	0x21
 2008 0378 07       		.uleb128 0x7
 2009 0379 73070000 		.4byte	.LASF81
 2010 037d 22       		.byte	0x22
 2011 037e 07       		.uleb128 0x7
 2012 037f 8C070000 		.4byte	.LASF82
 2013 0383 23       		.byte	0x23
 2014 0384 07       		.uleb128 0x7
 2015 0385 E7070000 		.4byte	.LASF83
 2016 0389 24       		.byte	0x24
 2017 038a 07       		.uleb128 0x7
ARM GAS  C:\Users\haske\AppData\Local\Temp\ccF9IbRI.s 			page 59


 2018 038b AE070000 		.4byte	.LASF84
 2019 038f 25       		.byte	0x25
 2020 0390 00       		.byte	0
 2021 0391 03       		.uleb128 0x3
 2022 0392 1F090000 		.4byte	.LASF85
 2023 0396 08       		.byte	0x8
 2024 0397 69       		.byte	0x69
 2025 0398 CF000000 		.4byte	0xcf
 2026 039c 08       		.uleb128 0x8
 2027 039d 04       		.byte	0x4
 2028 039e 08       		.byte	0x8
 2029 039f 7E       		.byte	0x7e
 2030 03a0 EB030000 		.4byte	0x3eb
 2031 03a4 0A       		.uleb128 0xa
 2032 03a5 636600   		.ascii	"cf\000"
 2033 03a8 08       		.byte	0x8
 2034 03a9 80       		.byte	0x80
 2035 03aa F0000000 		.4byte	0xf0
 2036 03ae 04       		.byte	0x4
 2037 03af 05       		.byte	0x5
 2038 03b0 1B       		.byte	0x1b
 2039 03b1 00       		.byte	0
 2040 03b2 09       		.uleb128 0x9
 2041 03b3 AC080000 		.4byte	.LASF86
 2042 03b7 08       		.byte	0x8
 2043 03b8 81       		.byte	0x81
 2044 03b9 F0000000 		.4byte	0xf0
 2045 03bd 04       		.byte	0x4
 2046 03be 03       		.byte	0x3
 2047 03bf 18       		.byte	0x18
 2048 03c0 00       		.byte	0
 2049 03c1 09       		.uleb128 0x9
 2050 03c2 96020000 		.4byte	.LASF87
 2051 03c6 08       		.byte	0x8
 2052 03c7 84       		.byte	0x84
 2053 03c8 F0000000 		.4byte	0xf0
 2054 03cc 04       		.byte	0x4
 2055 03cd 02       		.byte	0x2
 2056 03ce 16       		.byte	0x16
 2057 03cf 00       		.byte	0
 2058 03d0 0A       		.uleb128 0xa
 2059 03d1 7700     		.ascii	"w\000"
 2060 03d3 08       		.byte	0x8
 2061 03d4 86       		.byte	0x86
 2062 03d5 F0000000 		.4byte	0xf0
 2063 03d9 04       		.byte	0x4
 2064 03da 0B       		.byte	0xb
 2065 03db 0B       		.byte	0xb
 2066 03dc 00       		.byte	0
 2067 03dd 0A       		.uleb128 0xa
 2068 03de 6800     		.ascii	"h\000"
 2069 03e0 08       		.byte	0x8
 2070 03e1 87       		.byte	0x87
 2071 03e2 F0000000 		.4byte	0xf0
 2072 03e6 04       		.byte	0x4
 2073 03e7 0B       		.byte	0xb
 2074 03e8 00       		.byte	0
ARM GAS  C:\Users\haske\AppData\Local\Temp\ccF9IbRI.s 			page 60


 2075 03e9 00       		.byte	0
 2076 03ea 00       		.byte	0
 2077 03eb 03       		.uleb128 0x3
 2078 03ec 7C010000 		.4byte	.LASF88
 2079 03f0 08       		.byte	0x8
 2080 03f1 88       		.byte	0x88
 2081 03f2 9C030000 		.4byte	0x39c
 2082 03f6 08       		.uleb128 0x8
 2083 03f7 0C       		.byte	0xc
 2084 03f8 08       		.byte	0x8
 2085 03f9 8D       		.byte	0x8d
 2086 03fa 23040000 		.4byte	0x423
 2087 03fe 0E       		.uleb128 0xe
 2088 03ff 43090000 		.4byte	.LASF89
 2089 0403 08       		.byte	0x8
 2090 0404 8E       		.byte	0x8e
 2091 0405 EB030000 		.4byte	0x3eb
 2092 0409 00       		.byte	0
 2093 040a 0E       		.uleb128 0xe
 2094 040b 4C040000 		.4byte	.LASF90
 2095 040f 08       		.byte	0x8
 2096 0410 8F       		.byte	0x8f
 2097 0411 F0000000 		.4byte	0xf0
 2098 0415 04       		.byte	0x4
 2099 0416 0E       		.uleb128 0xe
 2100 0417 C4010000 		.4byte	.LASF91
 2101 041b 08       		.byte	0x8
 2102 041c 90       		.byte	0x90
 2103 041d 23040000 		.4byte	0x423
 2104 0421 08       		.byte	0x8
 2105 0422 00       		.byte	0
 2106 0423 10       		.uleb128 0x10
 2107 0424 04       		.byte	0x4
 2108 0425 29040000 		.4byte	0x429
 2109 0429 11       		.uleb128 0x11
 2110 042a CF000000 		.4byte	0xcf
 2111 042e 03       		.uleb128 0x3
 2112 042f 68080000 		.4byte	.LASF92
 2113 0433 08       		.byte	0x8
 2114 0434 91       		.byte	0x91
 2115 0435 F6030000 		.4byte	0x3f6
 2116 0439 04       		.uleb128 0x4
 2117 043a 01       		.byte	0x1
 2118 043b 02       		.byte	0x2
 2119 043c 1C060000 		.4byte	.LASF93
 2120 0440 10       		.uleb128 0x10
 2121 0441 04       		.byte	0x4
 2122 0442 46040000 		.4byte	0x446
 2123 0446 12       		.uleb128 0x12
 2124 0447 10       		.uleb128 0x10
 2125 0448 04       		.byte	0x4
 2126 0449 CF000000 		.4byte	0xcf
 2127 044d 08       		.uleb128 0x8
 2128 044e 10       		.byte	0x10
 2129 044f 09       		.byte	0x9
 2130 0450 29       		.byte	0x29
 2131 0451 BC040000 		.4byte	0x4bc
ARM GAS  C:\Users\haske\AppData\Local\Temp\ccF9IbRI.s 			page 61


 2132 0455 0E       		.uleb128 0xe
 2133 0456 7E020000 		.4byte	.LASF94
 2134 045a 09       		.byte	0x9
 2135 045b 2B       		.byte	0x2b
 2136 045c 44050000 		.4byte	0x544
 2137 0460 00       		.byte	0
 2138 0461 0E       		.uleb128 0xe
 2139 0462 39070000 		.4byte	.LASF95
 2140 0466 09       		.byte	0x9
 2141 0467 2C       		.byte	0x2c
 2142 0468 E5000000 		.4byte	0xe5
 2143 046c 04       		.byte	0x4
 2144 046d 0E       		.uleb128 0xe
 2145 046e 19080000 		.4byte	.LASF96
 2146 0472 09       		.byte	0x9
 2147 0473 2D       		.byte	0x2d
 2148 0474 E5000000 		.4byte	0xe5
 2149 0478 06       		.byte	0x6
 2150 0479 0E       		.uleb128 0xe
 2151 047a C7070000 		.4byte	.LASF97
 2152 047e 09       		.byte	0x9
 2153 047f 2E       		.byte	0x2e
 2154 0480 E5000000 		.4byte	0xe5
 2155 0484 08       		.byte	0x8
 2156 0485 0E       		.uleb128 0xe
 2157 0486 B8080000 		.4byte	.LASF98
 2158 048a 09       		.byte	0x9
 2159 048b 2F       		.byte	0x2f
 2160 048c DA000000 		.4byte	0xda
 2161 0490 0A       		.byte	0xa
 2162 0491 0E       		.uleb128 0xe
 2163 0492 BE080000 		.4byte	.LASF99
 2164 0496 09       		.byte	0x9
 2165 0497 30       		.byte	0x30
 2166 0498 DA000000 		.4byte	0xda
 2167 049c 0C       		.byte	0xc
 2168 049d 0A       		.uleb128 0xa
 2169 049e 62707000 		.ascii	"bpp\000"
 2170 04a2 09       		.byte	0x9
 2171 04a3 31       		.byte	0x31
 2172 04a4 CF000000 		.4byte	0xcf
 2173 04a8 01       		.byte	0x1
 2174 04a9 04       		.byte	0x4
 2175 04aa 04       		.byte	0x4
 2176 04ab 0E       		.byte	0xe
 2177 04ac 09       		.uleb128 0x9
 2178 04ad CC020000 		.4byte	.LASF100
 2179 04b1 09       		.byte	0x9
 2180 04b2 32       		.byte	0x32
 2181 04b3 CF000000 		.4byte	0xcf
 2182 04b7 01       		.byte	0x1
 2183 04b8 01       		.byte	0x1
 2184 04b9 03       		.byte	0x3
 2185 04ba 0E       		.byte	0xe
 2186 04bb 00       		.byte	0
 2187 04bc 13       		.uleb128 0x13
 2188 04bd DB020000 		.4byte	.LASF141
ARM GAS  C:\Users\haske\AppData\Local\Temp\ccF9IbRI.s 			page 62


 2189 04c1 1C       		.byte	0x1c
 2190 04c2 09       		.byte	0x9
 2191 04c3 40       		.byte	0x40
 2192 04c4 44050000 		.4byte	0x544
 2193 04c8 0E       		.uleb128 0xe
 2194 04c9 F3020000 		.4byte	.LASF101
 2195 04cd 09       		.byte	0x9
 2196 04ce 42       		.byte	0x42
 2197 04cf 7E050000 		.4byte	0x57e
 2198 04d3 00       		.byte	0
 2199 04d4 0E       		.uleb128 0xe
 2200 04d5 0A000000 		.4byte	.LASF102
 2201 04d9 09       		.byte	0x9
 2202 04da 45       		.byte	0x45
 2203 04db 98050000 		.4byte	0x598
 2204 04df 04       		.byte	0x4
 2205 04e0 0E       		.uleb128 0xe
 2206 04e1 E9030000 		.4byte	.LASF103
 2207 04e5 09       		.byte	0x9
 2208 04e6 48       		.byte	0x48
 2209 04e7 2D020000 		.4byte	0x22d
 2210 04eb 08       		.byte	0x8
 2211 04ec 0E       		.uleb128 0xe
 2212 04ed 46020000 		.4byte	.LASF104
 2213 04f1 09       		.byte	0x9
 2214 04f2 49       		.byte	0x49
 2215 04f3 2D020000 		.4byte	0x22d
 2216 04f7 0A       		.byte	0xa
 2217 04f8 09       		.uleb128 0x9
 2218 04f9 05040000 		.4byte	.LASF105
 2219 04fd 09       		.byte	0x9
 2220 04fe 4A       		.byte	0x4a
 2221 04ff CF000000 		.4byte	0xcf
 2222 0503 01       		.byte	0x1
 2223 0504 02       		.byte	0x2
 2224 0505 06       		.byte	0x6
 2225 0506 0C       		.byte	0xc
 2226 0507 0E       		.uleb128 0xe
 2227 0508 D4070000 		.4byte	.LASF106
 2228 050c 09       		.byte	0x9
 2229 050d 4C       		.byte	0x4c
 2230 050e C4000000 		.4byte	0xc4
 2231 0512 0D       		.byte	0xd
 2232 0513 0E       		.uleb128 0xe
 2233 0514 95060000 		.4byte	.LASF107
 2234 0518 09       		.byte	0x9
 2235 0519 4D       		.byte	0x4d
 2236 051a C4000000 		.4byte	0xc4
 2237 051e 0E       		.byte	0xe
 2238 051f 0F       		.uleb128 0xf
 2239 0520 64736300 		.ascii	"dsc\000"
 2240 0524 09       		.byte	0x9
 2241 0525 4F       		.byte	0x4f
 2242 0526 40040000 		.4byte	0x440
 2243 052a 10       		.byte	0x10
 2244 052b 0E       		.uleb128 0xe
 2245 052c A5070000 		.4byte	.LASF108
ARM GAS  C:\Users\haske\AppData\Local\Temp\ccF9IbRI.s 			page 63


 2246 0530 09       		.byte	0x9
 2247 0531 50       		.byte	0x50
 2248 0532 44050000 		.4byte	0x544
 2249 0536 14       		.byte	0x14
 2250 0537 0E       		.uleb128 0xe
 2251 0538 00000000 		.4byte	.LASF109
 2252 053c 09       		.byte	0x9
 2253 053d 52       		.byte	0x52
 2254 053e BB000000 		.4byte	0xbb
 2255 0542 18       		.byte	0x18
 2256 0543 00       		.byte	0
 2257 0544 10       		.uleb128 0x10
 2258 0545 04       		.byte	0x4
 2259 0546 4A050000 		.4byte	0x54a
 2260 054a 11       		.uleb128 0x11
 2261 054b BC040000 		.4byte	0x4bc
 2262 054f 03       		.uleb128 0x3
 2263 0550 0B090000 		.4byte	.LASF110
 2264 0554 09       		.byte	0x9
 2265 0555 33       		.byte	0x33
 2266 0556 4D040000 		.4byte	0x44d
 2267 055a 14       		.uleb128 0x14
 2268 055b 39040000 		.4byte	0x439
 2269 055f 78050000 		.4byte	0x578
 2270 0563 15       		.uleb128 0x15
 2271 0564 44050000 		.4byte	0x544
 2272 0568 15       		.uleb128 0x15
 2273 0569 78050000 		.4byte	0x578
 2274 056d 15       		.uleb128 0x15
 2275 056e F0000000 		.4byte	0xf0
 2276 0572 15       		.uleb128 0x15
 2277 0573 F0000000 		.4byte	0xf0
 2278 0577 00       		.byte	0
 2279 0578 10       		.uleb128 0x10
 2280 0579 04       		.byte	0x4
 2281 057a 4F050000 		.4byte	0x54f
 2282 057e 10       		.uleb128 0x10
 2283 057f 04       		.byte	0x4
 2284 0580 5A050000 		.4byte	0x55a
 2285 0584 14       		.uleb128 0x14
 2286 0585 23040000 		.4byte	0x423
 2287 0589 98050000 		.4byte	0x598
 2288 058d 15       		.uleb128 0x15
 2289 058e 44050000 		.4byte	0x544
 2290 0592 15       		.uleb128 0x15
 2291 0593 F0000000 		.4byte	0xf0
 2292 0597 00       		.byte	0
 2293 0598 10       		.uleb128 0x10
 2294 0599 04       		.byte	0x4
 2295 059a 84050000 		.4byte	0x584
 2296 059e 03       		.uleb128 0x3
 2297 059f 90000000 		.4byte	.LASF111
 2298 05a3 09       		.byte	0x9
 2299 05a4 54       		.byte	0x54
 2300 05a5 BC040000 		.4byte	0x4bc
 2301 05a9 16       		.uleb128 0x16
 2302 05aa FD080000 		.4byte	.LASF112
ARM GAS  C:\Users\haske\AppData\Local\Temp\ccF9IbRI.s 			page 64


 2303 05ae 02       		.byte	0x2
 2304 05af 4C02     		.2byte	0x24c
 2305 05b1 17020000 		.4byte	0x217
 2306 05b5 03       		.byte	0x3
 2307 05b6 D9050000 		.4byte	0x5d9
 2308 05ba 17       		.uleb128 0x17
 2309 05bb 7200     		.ascii	"r\000"
 2310 05bd 02       		.byte	0x2
 2311 05be 4C02     		.2byte	0x24c
 2312 05c0 CF000000 		.4byte	0xcf
 2313 05c4 17       		.uleb128 0x17
 2314 05c5 6700     		.ascii	"g\000"
 2315 05c7 02       		.byte	0x2
 2316 05c8 4C02     		.2byte	0x24c
 2317 05ca CF000000 		.4byte	0xcf
 2318 05ce 17       		.uleb128 0x17
 2319 05cf 6200     		.ascii	"b\000"
 2320 05d1 02       		.byte	0x2
 2321 05d2 4C02     		.2byte	0x24c
 2322 05d4 CF000000 		.4byte	0xcf
 2323 05d8 00       		.byte	0
 2324 05d9 18       		.uleb128 0x18
 2325 05da 50020000 		.4byte	.LASF142
 2326 05de 02       		.byte	0x2
 2327 05df B502     		.2byte	0x2b5
 2328 05e1 17020000 		.4byte	0x217
 2329 05e5 03       		.byte	0x3
 2330 05e6 19       		.uleb128 0x19
 2331 05e7 F5030000 		.4byte	.LASF113
 2332 05eb 03       		.byte	0x3
 2333 05ec C2       		.byte	0xc2
 2334 05ed BB000000 		.4byte	0xbb
 2335 05f1 03       		.byte	0x3
 2336 05f2 2C060000 		.4byte	0x62c
 2337 05f6 1A       		.uleb128 0x1a
 2338 05f7 64737400 		.ascii	"dst\000"
 2339 05fb 03       		.byte	0x3
 2340 05fc C2       		.byte	0xc2
 2341 05fd BB000000 		.4byte	0xbb
 2342 0601 1A       		.uleb128 0x1a
 2343 0602 73726300 		.ascii	"src\000"
 2344 0606 03       		.byte	0x3
 2345 0607 C2       		.byte	0xc2
 2346 0608 40040000 		.4byte	0x440
 2347 060c 1A       		.uleb128 0x1a
 2348 060d 6C656E00 		.ascii	"len\000"
 2349 0611 03       		.byte	0x3
 2350 0612 C2       		.byte	0xc2
 2351 0613 2C000000 		.4byte	0x2c
 2352 0617 1B       		.uleb128 0x1b
 2353 0618 643800   		.ascii	"d8\000"
 2354 061b 03       		.byte	0x3
 2355 061c C4       		.byte	0xc4
 2356 061d 47040000 		.4byte	0x447
 2357 0621 1B       		.uleb128 0x1b
 2358 0622 733800   		.ascii	"s8\000"
 2359 0625 03       		.byte	0x3
ARM GAS  C:\Users\haske\AppData\Local\Temp\ccF9IbRI.s 			page 65


 2360 0626 C5       		.byte	0xc5
 2361 0627 23040000 		.4byte	0x423
 2362 062b 00       		.byte	0
 2363 062c 16       		.uleb128 0x16
 2364 062d 15070000 		.4byte	.LASF114
 2365 0631 02       		.byte	0x2
 2366 0632 7701     		.2byte	0x177
 2367 0634 F0000000 		.4byte	0xf0
 2368 0638 03       		.byte	0x3
 2369 0639 56060000 		.4byte	0x656
 2370 063d 1C       		.uleb128 0x1c
 2371 063e DE060000 		.4byte	.LASF115
 2372 0642 02       		.byte	0x2
 2373 0643 7701     		.2byte	0x177
 2374 0645 17020000 		.4byte	0x217
 2375 0649 1D       		.uleb128 0x1d
 2376 064a 72657400 		.ascii	"ret\000"
 2377 064e 02       		.byte	0x2
 2378 064f A301     		.2byte	0x1a3
 2379 0651 0C020000 		.4byte	0x20c
 2380 0655 00       		.byte	0
 2381 0656 1E       		.uleb128 0x1e
 2382 0657 08050000 		.4byte	.LASF119
 2383 065b 01       		.byte	0x1
 2384 065c 33       		.byte	0x33
 2385 065d 17020000 		.4byte	0x217
 2386 0661 00000000 		.4byte	.LFB54
 2387 0665 24010000 		.4byte	.LFE54-.LFB54
 2388 0669 01       		.uleb128 0x1
 2389 066a 9C       		.byte	0x9c
 2390 066b 19080000 		.4byte	0x819
 2391 066f 1F       		.uleb128 0x1f
 2392 0670 64736300 		.ascii	"dsc\000"
 2393 0674 01       		.byte	0x1
 2394 0675 33       		.byte	0x33
 2395 0676 19080000 		.4byte	0x819
 2396 067a 00000000 		.4byte	.LLST0
 2397 067e 1F       		.uleb128 0x1f
 2398 067f 7800     		.ascii	"x\000"
 2399 0681 01       		.byte	0x1
 2400 0682 33       		.byte	0x33
 2401 0683 2D020000 		.4byte	0x22d
 2402 0687 9B000000 		.4byte	.LLST1
 2403 068b 1F       		.uleb128 0x1f
 2404 068c 7900     		.ascii	"y\000"
 2405 068e 01       		.byte	0x1
 2406 068f 33       		.byte	0x33
 2407 0690 2D020000 		.4byte	0x22d
 2408 0694 15010000 		.4byte	.LLST2
 2409 0698 20       		.uleb128 0x20
 2410 0699 DE060000 		.4byte	.LASF115
 2411 069d 01       		.byte	0x1
 2412 069e 33       		.byte	0x33
 2413 069f 17020000 		.4byte	0x217
 2414 06a3 B3010000 		.4byte	.LLST3
 2415 06a7 21       		.uleb128 0x21
 2416 06a8 C2040000 		.4byte	.LASF116
ARM GAS  C:\Users\haske\AppData\Local\Temp\ccF9IbRI.s 			page 66


 2417 06ac 01       		.byte	0x1
 2418 06ad 35       		.byte	0x35
 2419 06ae 17020000 		.4byte	0x217
 2420 06b2 02       		.uleb128 0x2
 2421 06b3 91       		.byte	0x91
 2422 06b4 64       		.sleb128 -28
 2423 06b5 22       		.uleb128 0x22
 2424 06b6 A8040000 		.4byte	.LASF117
 2425 06ba 01       		.byte	0x1
 2426 06bb 36       		.byte	0x36
 2427 06bc 47040000 		.4byte	0x447
 2428 06c0 FD010000 		.4byte	.LLST4
 2429 06c4 23       		.uleb128 0x23
 2430 06c5 D9050000 		.4byte	0x5d9
 2431 06c9 04000000 		.4byte	.LBB29
 2432 06cd 04000000 		.4byte	.LBE29-.LBB29
 2433 06d1 01       		.byte	0x1
 2434 06d2 35       		.byte	0x35
 2435 06d3 04070000 		.4byte	0x704
 2436 06d7 24       		.uleb128 0x24
 2437 06d8 A9050000 		.4byte	0x5a9
 2438 06dc 04000000 		.4byte	.LBB30
 2439 06e0 04000000 		.4byte	.LBE30-.LBB30
 2440 06e4 02       		.byte	0x2
 2441 06e5 B702     		.2byte	0x2b7
 2442 06e7 25       		.uleb128 0x25
 2443 06e8 CE050000 		.4byte	0x5ce
 2444 06ec 72020000 		.4byte	.LLST5
 2445 06f0 25       		.uleb128 0x25
 2446 06f1 C4050000 		.4byte	0x5c4
 2447 06f5 72020000 		.4byte	.LLST5
 2448 06f9 25       		.uleb128 0x25
 2449 06fa BA050000 		.4byte	0x5ba
 2450 06fe 72020000 		.4byte	.LLST5
 2451 0702 00       		.byte	0
 2452 0703 00       		.byte	0
 2453 0704 26       		.uleb128 0x26
 2454 0705 2A000000 		.4byte	.LBB32
 2455 0709 32000000 		.4byte	.LBE32-.LBB32
 2456 070d 7F070000 		.4byte	0x77f
 2457 0711 22       		.uleb128 0x22
 2458 0712 A5000000 		.4byte	.LASF118
 2459 0716 01       		.byte	0x1
 2460 0717 3A       		.byte	0x3a
 2461 0718 CF000000 		.4byte	0xcf
 2462 071c 86020000 		.4byte	.LLST8
 2463 0720 27       		.uleb128 0x27
 2464 0721 707800   		.ascii	"px\000"
 2465 0724 01       		.byte	0x1
 2466 0725 3B       		.byte	0x3b
 2467 0726 F0000000 		.4byte	0xf0
 2468 072a 99020000 		.4byte	.LLST9
 2469 072e 28       		.uleb128 0x28
 2470 072f E6050000 		.4byte	0x5e6
 2471 0733 46000000 		.4byte	.LBB33
 2472 0737 00000000 		.4byte	.Ldebug_ranges0+0
 2473 073b 01       		.byte	0x1
ARM GAS  C:\Users\haske\AppData\Local\Temp\ccF9IbRI.s 			page 67


 2474 073c 3C       		.byte	0x3c
 2475 073d 75070000 		.4byte	0x775
 2476 0741 25       		.uleb128 0x25
 2477 0742 0C060000 		.4byte	0x60c
 2478 0746 B1020000 		.4byte	.LLST10
 2479 074a 25       		.uleb128 0x25
 2480 074b 01060000 		.4byte	0x601
 2481 074f D0020000 		.4byte	.LLST11
 2482 0753 25       		.uleb128 0x25
 2483 0754 F6050000 		.4byte	0x5f6
 2484 0758 E3020000 		.4byte	.LLST12
 2485 075c 29       		.uleb128 0x29
 2486 075d 00000000 		.4byte	.Ldebug_ranges0+0
 2487 0761 2A       		.uleb128 0x2a
 2488 0762 17060000 		.4byte	0x617
 2489 0766 10030000 		.4byte	.LLST13
 2490 076a 2A       		.uleb128 0x2a
 2491 076b 21060000 		.4byte	0x621
 2492 076f 30030000 		.4byte	.LLST14
 2493 0773 00       		.byte	0
 2494 0774 00       		.byte	0
 2495 0775 2B       		.uleb128 0x2b
 2496 0776 34000000 		.4byte	.LVL5
 2497 077a 36100000 		.4byte	0x1036
 2498 077e 00       		.byte	0
 2499 077f 26       		.uleb128 0x26
 2500 0780 60000000 		.4byte	.LBB37
 2501 0784 2A000000 		.4byte	.LBE37-.LBB37
 2502 0788 AA070000 		.4byte	0x7aa
 2503 078c 27       		.uleb128 0x27
 2504 078d 62697400 		.ascii	"bit\000"
 2505 0791 01       		.byte	0x1
 2506 0792 43       		.byte	0x43
 2507 0793 CF000000 		.4byte	0xcf
 2508 0797 5B030000 		.4byte	.LLST15
 2509 079b 27       		.uleb128 0x27
 2510 079c 707800   		.ascii	"px\000"
 2511 079f 01       		.byte	0x1
 2512 07a0 49       		.byte	0x49
 2513 07a1 F0000000 		.4byte	0xf0
 2514 07a5 6E030000 		.4byte	.LLST16
 2515 07a9 00       		.byte	0
 2516 07aa 26       		.uleb128 0x26
 2517 07ab 90000000 		.4byte	.LBB38
 2518 07af 2C000000 		.4byte	.LBE38-.LBB38
 2519 07b3 D5070000 		.4byte	0x7d5
 2520 07b7 27       		.uleb128 0x27
 2521 07b8 62697400 		.ascii	"bit\000"
 2522 07bc 01       		.byte	0x1
 2523 07bd 4E       		.byte	0x4e
 2524 07be CF000000 		.4byte	0xcf
 2525 07c2 81030000 		.4byte	.LLST17
 2526 07c6 27       		.uleb128 0x27
 2527 07c7 707800   		.ascii	"px\000"
 2528 07ca 01       		.byte	0x1
 2529 07cb 54       		.byte	0x54
 2530 07cc F0000000 		.4byte	0xf0
ARM GAS  C:\Users\haske\AppData\Local\Temp\ccF9IbRI.s 			page 68


 2531 07d0 94030000 		.4byte	.LLST18
 2532 07d4 00       		.byte	0
 2533 07d5 26       		.uleb128 0x26
 2534 07d6 C2000000 		.4byte	.LBB39
 2535 07da 32000000 		.4byte	.LBE39-.LBB39
 2536 07de 00080000 		.4byte	0x800
 2537 07e2 27       		.uleb128 0x27
 2538 07e3 62697400 		.ascii	"bit\000"
 2539 07e7 01       		.byte	0x1
 2540 07e8 59       		.byte	0x59
 2541 07e9 CF000000 		.4byte	0xcf
 2542 07ed A7030000 		.4byte	.LLST19
 2543 07f1 27       		.uleb128 0x27
 2544 07f2 707800   		.ascii	"px\000"
 2545 07f5 01       		.byte	0x1
 2546 07f6 5F       		.byte	0x5f
 2547 07f7 F0000000 		.4byte	0xf0
 2548 07fb BA030000 		.4byte	.LLST20
 2549 07ff 00       		.byte	0
 2550 0800 2C       		.uleb128 0x2c
 2551 0801 FA000000 		.4byte	.LBB40
 2552 0805 14000000 		.4byte	.LBE40-.LBB40
 2553 0809 27       		.uleb128 0x27
 2554 080a 707800   		.ascii	"px\000"
 2555 080d 01       		.byte	0x1
 2556 080e 64       		.byte	0x64
 2557 080f F0000000 		.4byte	0xf0
 2558 0813 CD030000 		.4byte	.LLST21
 2559 0817 00       		.byte	0
 2560 0818 00       		.byte	0
 2561 0819 10       		.uleb128 0x10
 2562 081a 04       		.byte	0x4
 2563 081b 2E040000 		.4byte	0x42e
 2564 081f 1E       		.uleb128 0x1e
 2565 0820 45060000 		.4byte	.LASF120
 2566 0824 01       		.byte	0x1
 2567 0825 76       		.byte	0x76
 2568 0826 22020000 		.4byte	0x222
 2569 082a 00000000 		.4byte	.LFB55
 2570 082e 00010000 		.4byte	.LFE55-.LFB55
 2571 0832 01       		.uleb128 0x1
 2572 0833 9C       		.byte	0x9c
 2573 0834 6B090000 		.4byte	0x96b
 2574 0838 1F       		.uleb128 0x1f
 2575 0839 64736300 		.ascii	"dsc\000"
 2576 083d 01       		.byte	0x1
 2577 083e 76       		.byte	0x76
 2578 083f 19080000 		.4byte	0x819
 2579 0843 E0030000 		.4byte	.LLST22
 2580 0847 1F       		.uleb128 0x1f
 2581 0848 7800     		.ascii	"x\000"
 2582 084a 01       		.byte	0x1
 2583 084b 76       		.byte	0x76
 2584 084c 2D020000 		.4byte	0x22d
 2585 0850 90040000 		.4byte	.LLST23
 2586 0854 1F       		.uleb128 0x1f
 2587 0855 7900     		.ascii	"y\000"
ARM GAS  C:\Users\haske\AppData\Local\Temp\ccF9IbRI.s 			page 69


 2588 0857 01       		.byte	0x1
 2589 0858 76       		.byte	0x76
 2590 0859 2D020000 		.4byte	0x22d
 2591 085d 5D050000 		.4byte	.LLST24
 2592 0861 22       		.uleb128 0x22
 2593 0862 A8040000 		.4byte	.LASF117
 2594 0866 01       		.byte	0x1
 2595 0867 78       		.byte	0x78
 2596 0868 47040000 		.4byte	0x447
 2597 086c E2050000 		.4byte	.LLST25
 2598 0870 26       		.uleb128 0x26
 2599 0871 16000000 		.4byte	.LBB41
 2600 0875 14000000 		.4byte	.LBE41-.LBB41
 2601 0879 8C080000 		.4byte	0x88c
 2602 087d 27       		.uleb128 0x27
 2603 087e 707800   		.ascii	"px\000"
 2604 0881 01       		.byte	0x1
 2605 0882 7B       		.byte	0x7b
 2606 0883 F0000000 		.4byte	0xf0
 2607 0887 F5050000 		.4byte	.LLST26
 2608 088b 00       		.byte	0
 2609 088c 2D       		.uleb128 0x2d
 2610 088d 18000000 		.4byte	.Ldebug_ranges0+0x18
 2611 0891 C2080000 		.4byte	0x8c2
 2612 0895 27       		.uleb128 0x27
 2613 0896 62697400 		.ascii	"bit\000"
 2614 089a 01       		.byte	0x1
 2615 089b 7F       		.byte	0x7f
 2616 089c CF000000 		.4byte	0xcf
 2617 08a0 15060000 		.4byte	.LLST27
 2618 08a4 27       		.uleb128 0x27
 2619 08a5 707800   		.ascii	"px\000"
 2620 08a8 01       		.byte	0x1
 2621 08a9 85       		.byte	0x85
 2622 08aa F0000000 		.4byte	0xf0
 2623 08ae 46060000 		.4byte	.LLST28
 2624 08b2 22       		.uleb128 0x22
 2625 08b3 48010000 		.4byte	.LASF121
 2626 08b7 01       		.byte	0x1
 2627 08b8 86       		.byte	0x86
 2628 08b9 CF000000 		.4byte	0xcf
 2629 08bd D9060000 		.4byte	.LLST29
 2630 08c1 00       		.byte	0
 2631 08c2 26       		.uleb128 0x26
 2632 08c3 60000000 		.4byte	.LBB43
 2633 08c7 38000000 		.4byte	.LBE43-.LBB43
 2634 08cb 0A090000 		.4byte	0x90a
 2635 08cf 21       		.uleb128 0x21
 2636 08d0 02010000 		.4byte	.LASF122
 2637 08d4 01       		.byte	0x1
 2638 08d5 8A       		.byte	0x8a
 2639 08d6 7B090000 		.4byte	0x97b
 2640 08da 02       		.uleb128 0x2
 2641 08db 91       		.byte	0x91
 2642 08dc 58       		.sleb128 -40
 2643 08dd 27       		.uleb128 0x27
 2644 08de 62697400 		.ascii	"bit\000"
ARM GAS  C:\Users\haske\AppData\Local\Temp\ccF9IbRI.s 			page 70


 2645 08e2 01       		.byte	0x1
 2646 08e3 8C       		.byte	0x8c
 2647 08e4 CF000000 		.4byte	0xcf
 2648 08e8 F7060000 		.4byte	.LLST30
 2649 08ec 27       		.uleb128 0x27
 2650 08ed 707800   		.ascii	"px\000"
 2651 08f0 01       		.byte	0x1
 2652 08f1 92       		.byte	0x92
 2653 08f2 F0000000 		.4byte	0xf0
 2654 08f6 1B070000 		.4byte	.LLST31
 2655 08fa 22       		.uleb128 0x22
 2656 08fb 48010000 		.4byte	.LASF121
 2657 08ff 01       		.byte	0x1
 2658 0900 93       		.byte	0x93
 2659 0901 CF000000 		.4byte	0xcf
 2660 0905 4E070000 		.4byte	.LLST32
 2661 0909 00       		.byte	0
 2662 090a 26       		.uleb128 0x26
 2663 090b 9C000000 		.4byte	.LBB44
 2664 090f 44000000 		.4byte	.LBE44-.LBB44
 2665 0913 52090000 		.4byte	0x952
 2666 0917 21       		.uleb128 0x21
 2667 0918 02010000 		.4byte	.LASF122
 2668 091c 01       		.byte	0x1
 2669 091d 97       		.byte	0x97
 2670 091e 90090000 		.4byte	0x990
 2671 0922 02       		.uleb128 0x2
 2672 0923 91       		.byte	0x91
 2673 0924 58       		.sleb128 -40
 2674 0925 27       		.uleb128 0x27
 2675 0926 62697400 		.ascii	"bit\000"
 2676 092a 01       		.byte	0x1
 2677 092b 9B       		.byte	0x9b
 2678 092c CF000000 		.4byte	0xcf
 2679 0930 91070000 		.4byte	.LLST33
 2680 0934 27       		.uleb128 0x27
 2681 0935 707800   		.ascii	"px\000"
 2682 0938 01       		.byte	0x1
 2683 0939 A1       		.byte	0xa1
 2684 093a F0000000 		.4byte	0xf0
 2685 093e B5070000 		.4byte	.LLST34
 2686 0942 22       		.uleb128 0x22
 2687 0943 48010000 		.4byte	.LASF121
 2688 0947 01       		.byte	0x1
 2689 0948 A2       		.byte	0xa2
 2690 0949 CF000000 		.4byte	0xcf
 2691 094d E8070000 		.4byte	.LLST35
 2692 0951 00       		.byte	0
 2693 0952 2C       		.uleb128 0x2c
 2694 0953 E4000000 		.4byte	.LBB45
 2695 0957 0E000000 		.4byte	.LBE45-.LBB45
 2696 095b 27       		.uleb128 0x27
 2697 095c 707800   		.ascii	"px\000"
 2698 095f 01       		.byte	0x1
 2699 0960 A6       		.byte	0xa6
 2700 0961 F0000000 		.4byte	0xf0
 2701 0965 29080000 		.4byte	.LLST36
ARM GAS  C:\Users\haske\AppData\Local\Temp\ccF9IbRI.s 			page 71


 2702 0969 00       		.byte	0
 2703 096a 00       		.byte	0
 2704 096b 2E       		.uleb128 0x2e
 2705 096c 29040000 		.4byte	0x429
 2706 0970 7B090000 		.4byte	0x97b
 2707 0974 2F       		.uleb128 0x2f
 2708 0975 B4000000 		.4byte	0xb4
 2709 0979 03       		.byte	0x3
 2710 097a 00       		.byte	0
 2711 097b 11       		.uleb128 0x11
 2712 097c 6B090000 		.4byte	0x96b
 2713 0980 2E       		.uleb128 0x2e
 2714 0981 29040000 		.4byte	0x429
 2715 0985 90090000 		.4byte	0x990
 2716 0989 2F       		.uleb128 0x2f
 2717 098a B4000000 		.4byte	0xb4
 2718 098e 0F       		.byte	0xf
 2719 098f 00       		.byte	0
 2720 0990 11       		.uleb128 0x11
 2721 0991 80090000 		.4byte	0x980
 2722 0995 30       		.uleb128 0x30
 2723 0996 C1060000 		.4byte	.LASF123
 2724 099a 01       		.byte	0x1
 2725 099b B5       		.byte	0xb5
 2726 099c 00000000 		.4byte	.LFB56
 2727 09a0 00010000 		.4byte	.LFE56-.LFB56
 2728 09a4 01       		.uleb128 0x1
 2729 09a5 9C       		.byte	0x9c
 2730 09a6 BD0A0000 		.4byte	0xabd
 2731 09aa 1F       		.uleb128 0x1f
 2732 09ab 64736300 		.ascii	"dsc\000"
 2733 09af 01       		.byte	0x1
 2734 09b0 B5       		.byte	0xb5
 2735 09b1 19080000 		.4byte	0x819
 2736 09b5 3C080000 		.4byte	.LLST37
 2737 09b9 1F       		.uleb128 0x1f
 2738 09ba 7800     		.ascii	"x\000"
 2739 09bc 01       		.byte	0x1
 2740 09bd B5       		.byte	0xb5
 2741 09be 2D020000 		.4byte	0x22d
 2742 09c2 BE080000 		.4byte	.LLST38
 2743 09c6 1F       		.uleb128 0x1f
 2744 09c7 7900     		.ascii	"y\000"
 2745 09c9 01       		.byte	0x1
 2746 09ca B5       		.byte	0xb5
 2747 09cb 2D020000 		.4byte	0x22d
 2748 09cf 46090000 		.4byte	.LLST39
 2749 09d3 1F       		.uleb128 0x1f
 2750 09d4 6F706100 		.ascii	"opa\000"
 2751 09d8 01       		.byte	0x1
 2752 09d9 B5       		.byte	0xb5
 2753 09da 22020000 		.4byte	0x222
 2754 09de BD090000 		.4byte	.LLST40
 2755 09e2 21       		.uleb128 0x21
 2756 09e3 A8040000 		.4byte	.LASF117
 2757 09e7 01       		.byte	0x1
 2758 09e8 B7       		.byte	0xb7
ARM GAS  C:\Users\haske\AppData\Local\Temp\ccF9IbRI.s 			page 72


 2759 09e9 47040000 		.4byte	0x447
 2760 09ed 01       		.uleb128 0x1
 2761 09ee 55       		.byte	0x55
 2762 09ef 26       		.uleb128 0x26
 2763 09f0 18000000 		.4byte	.LBB47
 2764 09f4 22000000 		.4byte	.LBE47-.LBB47
 2765 09f8 230A0000 		.4byte	0xa23
 2766 09fc 22       		.uleb128 0x22
 2767 09fd A5000000 		.4byte	.LASF118
 2768 0a01 01       		.byte	0x1
 2769 0a02 BA       		.byte	0xba
 2770 0a03 CF000000 		.4byte	0xcf
 2771 0a07 2B0A0000 		.4byte	.LLST41
 2772 0a0b 27       		.uleb128 0x27
 2773 0a0c 707800   		.ascii	"px\000"
 2774 0a0f 01       		.byte	0x1
 2775 0a10 BB       		.byte	0xbb
 2776 0a11 F0000000 		.4byte	0xf0
 2777 0a15 3E0A0000 		.4byte	.LLST42
 2778 0a19 2B       		.uleb128 0x2b
 2779 0a1a 22000000 		.4byte	.LVL91
 2780 0a1e 36100000 		.4byte	0x1036
 2781 0a22 00       		.byte	0
 2782 0a23 26       		.uleb128 0x26
 2783 0a24 42000000 		.4byte	.LBB48
 2784 0a28 30000000 		.4byte	.LBE48-.LBB48
 2785 0a2c 4E0A0000 		.4byte	0xa4e
 2786 0a30 27       		.uleb128 0x27
 2787 0a31 62697400 		.ascii	"bit\000"
 2788 0a35 01       		.byte	0x1
 2789 0a36 C0       		.byte	0xc0
 2790 0a37 CF000000 		.4byte	0xcf
 2791 0a3b 560A0000 		.4byte	.LLST43
 2792 0a3f 27       		.uleb128 0x27
 2793 0a40 707800   		.ascii	"px\000"
 2794 0a43 01       		.byte	0x1
 2795 0a44 C6       		.byte	0xc6
 2796 0a45 F0000000 		.4byte	0xf0
 2797 0a49 690A0000 		.4byte	.LLST44
 2798 0a4d 00       		.byte	0
 2799 0a4e 26       		.uleb128 0x26
 2800 0a4f 7A000000 		.4byte	.LBB49
 2801 0a53 32000000 		.4byte	.LBE49-.LBB49
 2802 0a57 790A0000 		.4byte	0xa79
 2803 0a5b 27       		.uleb128 0x27
 2804 0a5c 62697400 		.ascii	"bit\000"
 2805 0a60 01       		.byte	0x1
 2806 0a61 CC       		.byte	0xcc
 2807 0a62 CF000000 		.4byte	0xcf
 2808 0a66 7C0A0000 		.4byte	.LLST45
 2809 0a6a 27       		.uleb128 0x27
 2810 0a6b 707800   		.ascii	"px\000"
 2811 0a6e 01       		.byte	0x1
 2812 0a6f D2       		.byte	0xd2
 2813 0a70 F0000000 		.4byte	0xf0
 2814 0a74 8F0A0000 		.4byte	.LLST46
 2815 0a78 00       		.byte	0
ARM GAS  C:\Users\haske\AppData\Local\Temp\ccF9IbRI.s 			page 73


 2816 0a79 26       		.uleb128 0x26
 2817 0a7a B4000000 		.4byte	.LBB50
 2818 0a7e 34000000 		.4byte	.LBE50-.LBB50
 2819 0a82 A40A0000 		.4byte	0xaa4
 2820 0a86 27       		.uleb128 0x27
 2821 0a87 62697400 		.ascii	"bit\000"
 2822 0a8b 01       		.byte	0x1
 2823 0a8c D8       		.byte	0xd8
 2824 0a8d CF000000 		.4byte	0xcf
 2825 0a91 A20A0000 		.4byte	.LLST47
 2826 0a95 27       		.uleb128 0x27
 2827 0a96 707800   		.ascii	"px\000"
 2828 0a99 01       		.byte	0x1
 2829 0a9a DE       		.byte	0xde
 2830 0a9b F0000000 		.4byte	0xf0
 2831 0a9f B50A0000 		.4byte	.LLST48
 2832 0aa3 00       		.byte	0
 2833 0aa4 2C       		.uleb128 0x2c
 2834 0aa5 F0000000 		.4byte	.LBB51
 2835 0aa9 10000000 		.4byte	.LBE51-.LBB51
 2836 0aad 27       		.uleb128 0x27
 2837 0aae 707800   		.ascii	"px\000"
 2838 0ab1 01       		.byte	0x1
 2839 0ab2 E3       		.byte	0xe3
 2840 0ab3 F0000000 		.4byte	0xf0
 2841 0ab7 C80A0000 		.4byte	.LLST49
 2842 0abb 00       		.byte	0
 2843 0abc 00       		.byte	0
 2844 0abd 30       		.uleb128 0x30
 2845 0abe 01030000 		.4byte	.LASF124
 2846 0ac2 01       		.byte	0x1
 2847 0ac3 F0       		.byte	0xf0
 2848 0ac4 00000000 		.4byte	.LFB57
 2849 0ac8 6C010000 		.4byte	.LFE57-.LFB57
 2850 0acc 01       		.uleb128 0x1
 2851 0acd 9C       		.byte	0x9c
 2852 0ace B50C0000 		.4byte	0xcb5
 2853 0ad2 1F       		.uleb128 0x1f
 2854 0ad3 64736300 		.ascii	"dsc\000"
 2855 0ad7 01       		.byte	0x1
 2856 0ad8 F0       		.byte	0xf0
 2857 0ad9 19080000 		.4byte	0x819
 2858 0add DB0A0000 		.4byte	.LLST50
 2859 0ae1 1F       		.uleb128 0x1f
 2860 0ae2 7800     		.ascii	"x\000"
 2861 0ae4 01       		.byte	0x1
 2862 0ae5 F0       		.byte	0xf0
 2863 0ae6 2D020000 		.4byte	0x22d
 2864 0aea 670B0000 		.4byte	.LLST51
 2865 0aee 1F       		.uleb128 0x1f
 2866 0aef 7900     		.ascii	"y\000"
 2867 0af1 01       		.byte	0x1
 2868 0af2 F0       		.byte	0xf0
 2869 0af3 2D020000 		.4byte	0x22d
 2870 0af7 FA0B0000 		.4byte	.LLST52
 2871 0afb 31       		.uleb128 0x31
 2872 0afc 6300     		.ascii	"c\000"
ARM GAS  C:\Users\haske\AppData\Local\Temp\ccF9IbRI.s 			page 74


 2873 0afe 01       		.byte	0x1
 2874 0aff F0       		.byte	0xf0
 2875 0b00 17020000 		.4byte	0x217
 2876 0b04 02       		.uleb128 0x2
 2877 0b05 91       		.byte	0x91
 2878 0b06 64       		.sleb128 -28
 2879 0b07 22       		.uleb128 0x22
 2880 0b08 A8040000 		.4byte	.LASF117
 2881 0b0c 01       		.byte	0x1
 2882 0b0d F2       		.byte	0xf2
 2883 0b0e 47040000 		.4byte	0x447
 2884 0b12 980C0000 		.4byte	.LLST53
 2885 0b16 26       		.uleb128 0x26
 2886 0b17 1E000000 		.4byte	.LBB52
 2887 0b1b 30000000 		.4byte	.LBE52-.LBB52
 2888 0b1f 950B0000 		.4byte	0xb95
 2889 0b23 22       		.uleb128 0x22
 2890 0b24 A5000000 		.4byte	.LASF118
 2891 0b28 01       		.byte	0x1
 2892 0b29 F5       		.byte	0xf5
 2893 0b2a CF000000 		.4byte	0xcf
 2894 0b2e FB0C0000 		.4byte	.LLST54
 2895 0b32 27       		.uleb128 0x27
 2896 0b33 707800   		.ascii	"px\000"
 2897 0b36 01       		.byte	0x1
 2898 0b37 F6       		.byte	0xf6
 2899 0b38 F0000000 		.4byte	0xf0
 2900 0b3c 0E0D0000 		.4byte	.LLST55
 2901 0b40 23       		.uleb128 0x23
 2902 0b41 E6050000 		.4byte	0x5e6
 2903 0b45 3A000000 		.4byte	.LBB53
 2904 0b49 14000000 		.4byte	.LBE53-.LBB53
 2905 0b4d 01       		.byte	0x1
 2906 0b4e F7       		.byte	0xf7
 2907 0b4f 8B0B0000 		.4byte	0xb8b
 2908 0b53 25       		.uleb128 0x25
 2909 0b54 0C060000 		.4byte	0x60c
 2910 0b58 430D0000 		.4byte	.LLST56
 2911 0b5c 25       		.uleb128 0x25
 2912 0b5d 01060000 		.4byte	0x601
 2913 0b61 560D0000 		.4byte	.LLST57
 2914 0b65 25       		.uleb128 0x25
 2915 0b66 F6050000 		.4byte	0x5f6
 2916 0b6a 830D0000 		.4byte	.LLST58
 2917 0b6e 2C       		.uleb128 0x2c
 2918 0b6f 3A000000 		.4byte	.LBB54
 2919 0b73 14000000 		.4byte	.LBE54-.LBB54
 2920 0b77 2A       		.uleb128 0x2a
 2921 0b78 17060000 		.4byte	0x617
 2922 0b7c 960D0000 		.4byte	.LLST59
 2923 0b80 2A       		.uleb128 0x2a
 2924 0b81 21060000 		.4byte	0x621
 2925 0b85 A90D0000 		.4byte	.LLST60
 2926 0b89 00       		.byte	0
 2927 0b8a 00       		.byte	0
 2928 0b8b 2B       		.uleb128 0x2b
 2929 0b8c 28000000 		.4byte	.LVL123
ARM GAS  C:\Users\haske\AppData\Local\Temp\ccF9IbRI.s 			page 75


 2930 0b90 36100000 		.4byte	0x1036
 2931 0b94 00       		.byte	0
 2932 0b95 26       		.uleb128 0x26
 2933 0b96 52000000 		.4byte	.LBB55
 2934 0b9a 32000000 		.4byte	.LBE55-.LBB55
 2935 0b9e 140C0000 		.4byte	0xc14
 2936 0ba2 22       		.uleb128 0x22
 2937 0ba3 A5000000 		.4byte	.LASF118
 2938 0ba7 01       		.byte	0x1
 2939 0ba8 FA       		.byte	0xfa
 2940 0ba9 CF000000 		.4byte	0xcf
 2941 0bad E10D0000 		.4byte	.LLST61
 2942 0bb1 27       		.uleb128 0x27
 2943 0bb2 707800   		.ascii	"px\000"
 2944 0bb5 01       		.byte	0x1
 2945 0bb6 FB       		.byte	0xfb
 2946 0bb7 F0000000 		.4byte	0xf0
 2947 0bbb 010E0000 		.4byte	.LLST62
 2948 0bbf 23       		.uleb128 0x23
 2949 0bc0 E6050000 		.4byte	0x5e6
 2950 0bc4 70000000 		.4byte	.LBB56
 2951 0bc8 14000000 		.4byte	.LBE56-.LBB56
 2952 0bcc 01       		.byte	0x1
 2953 0bcd FC       		.byte	0xfc
 2954 0bce 0A0C0000 		.4byte	0xc0a
 2955 0bd2 25       		.uleb128 0x25
 2956 0bd3 0C060000 		.4byte	0x60c
 2957 0bd7 530E0000 		.4byte	.LLST63
 2958 0bdb 25       		.uleb128 0x25
 2959 0bdc 01060000 		.4byte	0x601
 2960 0be0 660E0000 		.4byte	.LLST64
 2961 0be4 25       		.uleb128 0x25
 2962 0be5 F6050000 		.4byte	0x5f6
 2963 0be9 930E0000 		.4byte	.LLST65
 2964 0bed 2C       		.uleb128 0x2c
 2965 0bee 70000000 		.4byte	.LBB57
 2966 0bf2 14000000 		.4byte	.LBE57-.LBB57
 2967 0bf6 2A       		.uleb128 0x2a
 2968 0bf7 17060000 		.4byte	0x617
 2969 0bfb A60E0000 		.4byte	.LLST66
 2970 0bff 2A       		.uleb128 0x2a
 2971 0c00 21060000 		.4byte	0x621
 2972 0c04 B90E0000 		.4byte	.LLST67
 2973 0c08 00       		.byte	0
 2974 0c09 00       		.byte	0
 2975 0c0a 2B       		.uleb128 0x2b
 2976 0c0b 5C000000 		.4byte	.LVL134
 2977 0c0f 36100000 		.4byte	0x1036
 2978 0c13 00       		.byte	0
 2979 0c14 26       		.uleb128 0x26
 2980 0c15 88000000 		.4byte	.LBB58
 2981 0c19 3C000000 		.4byte	.LBE58-.LBB58
 2982 0c1d 410C0000 		.4byte	0xc41
 2983 0c21 32       		.uleb128 0x32
 2984 0c22 62697400 		.ascii	"bit\000"
 2985 0c26 01       		.byte	0x1
 2986 0c27 0101     		.2byte	0x101
ARM GAS  C:\Users\haske\AppData\Local\Temp\ccF9IbRI.s 			page 76


 2987 0c29 CF000000 		.4byte	0xcf
 2988 0c2d F10E0000 		.4byte	.LLST68
 2989 0c31 32       		.uleb128 0x32
 2990 0c32 707800   		.ascii	"px\000"
 2991 0c35 01       		.byte	0x1
 2992 0c36 0701     		.2byte	0x107
 2993 0c38 F0000000 		.4byte	0xf0
 2994 0c3c 040F0000 		.4byte	.LLST69
 2995 0c40 00       		.byte	0
 2996 0c41 26       		.uleb128 0x26
 2997 0c42 CA000000 		.4byte	.LBB59
 2998 0c46 3E000000 		.4byte	.LBE59-.LBB59
 2999 0c4a 6E0C0000 		.4byte	0xc6e
 3000 0c4e 32       		.uleb128 0x32
 3001 0c4f 62697400 		.ascii	"bit\000"
 3002 0c53 01       		.byte	0x1
 3003 0c54 0D01     		.2byte	0x10d
 3004 0c56 CF000000 		.4byte	0xcf
 3005 0c5a 170F0000 		.4byte	.LLST70
 3006 0c5e 32       		.uleb128 0x32
 3007 0c5f 707800   		.ascii	"px\000"
 3008 0c62 01       		.byte	0x1
 3009 0c63 1301     		.2byte	0x113
 3010 0c65 F0000000 		.4byte	0xf0
 3011 0c69 2A0F0000 		.4byte	.LLST71
 3012 0c6d 00       		.byte	0
 3013 0c6e 26       		.uleb128 0x26
 3014 0c6f 0E010000 		.4byte	.LBB60
 3015 0c73 40000000 		.4byte	.LBE60-.LBB60
 3016 0c77 9B0C0000 		.4byte	0xc9b
 3017 0c7b 32       		.uleb128 0x32
 3018 0c7c 62697400 		.ascii	"bit\000"
 3019 0c80 01       		.byte	0x1
 3020 0c81 1A01     		.2byte	0x11a
 3021 0c83 CF000000 		.4byte	0xcf
 3022 0c87 3D0F0000 		.4byte	.LLST72
 3023 0c8b 32       		.uleb128 0x32
 3024 0c8c 707800   		.ascii	"px\000"
 3025 0c8f 01       		.byte	0x1
 3026 0c90 2001     		.2byte	0x120
 3027 0c92 F0000000 		.4byte	0xf0
 3028 0c96 500F0000 		.4byte	.LLST73
 3029 0c9a 00       		.byte	0
 3030 0c9b 2C       		.uleb128 0x2c
 3031 0c9c 54010000 		.4byte	.LBB61
 3032 0ca0 14000000 		.4byte	.LBE61-.LBB61
 3033 0ca4 32       		.uleb128 0x32
 3034 0ca5 707800   		.ascii	"px\000"
 3035 0ca8 01       		.byte	0x1
 3036 0ca9 2601     		.2byte	0x126
 3037 0cab F0000000 		.4byte	0xf0
 3038 0caf 630F0000 		.4byte	.LLST74
 3039 0cb3 00       		.byte	0
 3040 0cb4 00       		.byte	0
 3041 0cb5 33       		.uleb128 0x33
 3042 0cb6 E0000000 		.4byte	.LASF125
 3043 0cba 01       		.byte	0x1
ARM GAS  C:\Users\haske\AppData\Local\Temp\ccF9IbRI.s 			page 77


 3044 0cbb 3501     		.2byte	0x135
 3045 0cbd 00000000 		.4byte	.LFB58
 3046 0cc1 92000000 		.4byte	.LFE58-.LFB58
 3047 0cc5 01       		.uleb128 0x1
 3048 0cc6 9C       		.byte	0x9c
 3049 0cc7 8D0D0000 		.4byte	0xd8d
 3050 0ccb 34       		.uleb128 0x34
 3051 0ccc 64736300 		.ascii	"dsc\000"
 3052 0cd0 01       		.byte	0x1
 3053 0cd1 3501     		.2byte	0x135
 3054 0cd3 19080000 		.4byte	0x819
 3055 0cd7 840F0000 		.4byte	.LLST75
 3056 0cdb 34       		.uleb128 0x34
 3057 0cdc 696400   		.ascii	"id\000"
 3058 0cdf 01       		.byte	0x1
 3059 0ce0 3501     		.2byte	0x135
 3060 0ce2 CF000000 		.4byte	0xcf
 3061 0ce6 A50F0000 		.4byte	.LLST76
 3062 0cea 34       		.uleb128 0x34
 3063 0ceb 6300     		.ascii	"c\000"
 3064 0ced 01       		.byte	0x1
 3065 0cee 3501     		.2byte	0x135
 3066 0cf0 17020000 		.4byte	0x217
 3067 0cf4 C60F0000 		.4byte	.LLST77
 3068 0cf8 35       		.uleb128 0x35
 3069 0cf9 63333200 		.ascii	"c32\000"
 3070 0cfd 01       		.byte	0x1
 3071 0cfe 3D01     		.2byte	0x13d
 3072 0d00 0C020000 		.4byte	0x20c
 3073 0d04 02       		.uleb128 0x2
 3074 0d05 91       		.byte	0x91
 3075 0d06 74       		.sleb128 -12
 3076 0d07 32       		.uleb128 0x32
 3077 0d08 62756600 		.ascii	"buf\000"
 3078 0d0c 01       		.byte	0x1
 3079 0d0d 3F01     		.2byte	0x13f
 3080 0d0f 47040000 		.4byte	0x447
 3081 0d13 E40F0000 		.4byte	.LLST78
 3082 0d17 36       		.uleb128 0x36
 3083 0d18 2C060000 		.4byte	0x62c
 3084 0d1c 26000000 		.4byte	.LBB62
 3085 0d20 48000000 		.4byte	.LBE62-.LBB62
 3086 0d24 01       		.byte	0x1
 3087 0d25 3E01     		.2byte	0x13e
 3088 0d27 440D0000 		.4byte	0xd44
 3089 0d2b 37       		.uleb128 0x37
 3090 0d2c 3D060000 		.4byte	0x63d
 3091 0d30 2C       		.uleb128 0x2c
 3092 0d31 26000000 		.4byte	.LBB63
 3093 0d35 48000000 		.4byte	.LBE63-.LBB63
 3094 0d39 2A       		.uleb128 0x2a
 3095 0d3a 49060000 		.4byte	0x649
 3096 0d3e 03100000 		.4byte	.LLST79
 3097 0d42 00       		.byte	0
 3098 0d43 00       		.byte	0
 3099 0d44 24       		.uleb128 0x24
 3100 0d45 E6050000 		.4byte	0x5e6
ARM GAS  C:\Users\haske\AppData\Local\Temp\ccF9IbRI.s 			page 78


 3101 0d49 7E000000 		.4byte	.LBB64
 3102 0d4d 0E000000 		.4byte	.LBE64-.LBB64
 3103 0d51 01       		.byte	0x1
 3104 0d52 4001     		.2byte	0x140
 3105 0d54 25       		.uleb128 0x25
 3106 0d55 0C060000 		.4byte	0x60c
 3107 0d59 21100000 		.4byte	.LLST80
 3108 0d5d 25       		.uleb128 0x25
 3109 0d5e 01060000 		.4byte	0x601
 3110 0d62 40100000 		.4byte	.LLST81
 3111 0d66 25       		.uleb128 0x25
 3112 0d67 F6050000 		.4byte	0x5f6
 3113 0d6b 55100000 		.4byte	.LLST82
 3114 0d6f 2C       		.uleb128 0x2c
 3115 0d70 7E000000 		.4byte	.LBB65
 3116 0d74 0E000000 		.4byte	.LBE65-.LBB65
 3117 0d78 2A       		.uleb128 0x2a
 3118 0d79 17060000 		.4byte	0x617
 3119 0d7d 68100000 		.4byte	.LLST83
 3120 0d81 2A       		.uleb128 0x2a
 3121 0d82 21060000 		.4byte	0x621
 3122 0d86 7B100000 		.4byte	.LLST84
 3123 0d8a 00       		.byte	0
 3124 0d8b 00       		.byte	0
 3125 0d8c 00       		.byte	0
 3126 0d8d 33       		.uleb128 0x33
 3127 0d8e 33090000 		.4byte	.LASF126
 3128 0d92 01       		.byte	0x1
 3129 0d93 6E01     		.2byte	0x16e
 3130 0d95 00000000 		.4byte	.LFB60
 3131 0d99 18000000 		.4byte	.LFE60-.LFB60
 3132 0d9d 01       		.uleb128 0x1
 3133 0d9e 9C       		.byte	0x9c
 3134 0d9f CD0D0000 		.4byte	0xdcd
 3135 0da3 34       		.uleb128 0x34
 3136 0da4 64736300 		.ascii	"dsc\000"
 3137 0da8 01       		.byte	0x1
 3138 0da9 6E01     		.2byte	0x16e
 3139 0dab 19080000 		.4byte	0x819
 3140 0daf A6100000 		.4byte	.LLST85
 3141 0db3 2B       		.uleb128 0x2b
 3142 0db4 0E000000 		.4byte	.LVL184
 3143 0db8 41100000 		.4byte	0x1041
 3144 0dbc 38       		.uleb128 0x38
 3145 0dbd 14000000 		.4byte	.LVL185
 3146 0dc1 41100000 		.4byte	0x1041
 3147 0dc5 39       		.uleb128 0x39
 3148 0dc6 01       		.uleb128 0x1
 3149 0dc7 50       		.byte	0x50
 3150 0dc8 02       		.uleb128 0x2
 3151 0dc9 74       		.byte	0x74
 3152 0dca 00       		.sleb128 0
 3153 0dcb 00       		.byte	0
 3154 0dcc 00       		.byte	0
 3155 0dcd 3A       		.uleb128 0x3a
 3156 0dce 9F020000 		.4byte	.LASF127
 3157 0dd2 01       		.byte	0x1
ARM GAS  C:\Users\haske\AppData\Local\Temp\ccF9IbRI.s 			page 79


 3158 0dd3 7F01     		.2byte	0x17f
 3159 0dd5 F0000000 		.4byte	0xf0
 3160 0dd9 00000000 		.4byte	.LFB61
 3161 0ddd AE000000 		.4byte	.LFE61-.LFB61
 3162 0de1 01       		.uleb128 0x1
 3163 0de2 9C       		.byte	0x9c
 3164 0de3 130E0000 		.4byte	0xe13
 3165 0de7 34       		.uleb128 0x34
 3166 0de8 7700     		.ascii	"w\000"
 3167 0dea 01       		.byte	0x1
 3168 0deb 7F01     		.2byte	0x17f
 3169 0ded 2D020000 		.4byte	0x22d
 3170 0df1 CF100000 		.4byte	.LLST86
 3171 0df5 34       		.uleb128 0x34
 3172 0df6 6800     		.ascii	"h\000"
 3173 0df8 01       		.byte	0x1
 3174 0df9 7F01     		.2byte	0x17f
 3175 0dfb 2D020000 		.4byte	0x22d
 3176 0dff 03120000 		.4byte	.LLST87
 3177 0e03 34       		.uleb128 0x34
 3178 0e04 636600   		.ascii	"cf\000"
 3179 0e07 01       		.byte	0x1
 3180 0e08 7F01     		.2byte	0x17f
 3181 0e0a 91030000 		.4byte	0x391
 3182 0e0e 7A120000 		.4byte	.LLST88
 3183 0e12 00       		.byte	0
 3184 0e13 3A       		.uleb128 0x3a
 3185 0e14 20050000 		.4byte	.LASF128
 3186 0e18 01       		.byte	0x1
 3187 0e19 4A01     		.2byte	0x14a
 3188 0e1b 19080000 		.4byte	0x819
 3189 0e1f 00000000 		.4byte	.LFB59
 3190 0e23 6E000000 		.4byte	.LFE59-.LFB59
 3191 0e27 01       		.uleb128 0x1
 3192 0e28 9C       		.byte	0x9c
 3193 0e29 EF0E0000 		.4byte	0xeef
 3194 0e2d 34       		.uleb128 0x34
 3195 0e2e 7700     		.ascii	"w\000"
 3196 0e30 01       		.byte	0x1
 3197 0e31 4A01     		.2byte	0x14a
 3198 0e33 2D020000 		.4byte	0x22d
 3199 0e37 9B120000 		.4byte	.LLST89
 3200 0e3b 34       		.uleb128 0x34
 3201 0e3c 6800     		.ascii	"h\000"
 3202 0e3e 01       		.byte	0x1
 3203 0e3f 4A01     		.2byte	0x14a
 3204 0e41 2D020000 		.4byte	0x22d
 3205 0e45 BC120000 		.4byte	.LLST90
 3206 0e49 34       		.uleb128 0x34
 3207 0e4a 636600   		.ascii	"cf\000"
 3208 0e4d 01       		.byte	0x1
 3209 0e4e 4A01     		.2byte	0x14a
 3210 0e50 91030000 		.4byte	0x391
 3211 0e54 DD120000 		.4byte	.LLST91
 3212 0e58 32       		.uleb128 0x32
 3213 0e59 64736300 		.ascii	"dsc\000"
 3214 0e5d 01       		.byte	0x1
ARM GAS  C:\Users\haske\AppData\Local\Temp\ccF9IbRI.s 			page 80


 3215 0e5e 4D01     		.2byte	0x14d
 3216 0e60 19080000 		.4byte	0x819
 3217 0e64 FE120000 		.4byte	.LLST92
 3218 0e68 3B       		.uleb128 0x3b
 3219 0e69 0E000000 		.4byte	.LVL218
 3220 0e6d 4C100000 		.4byte	0x104c
 3221 0e71 7B0E0000 		.4byte	0xe7b
 3222 0e75 39       		.uleb128 0x39
 3223 0e76 01       		.uleb128 0x1
 3224 0e77 50       		.byte	0x50
 3225 0e78 01       		.uleb128 0x1
 3226 0e79 3C       		.byte	0x3c
 3227 0e7a 00       		.byte	0
 3228 0e7b 3B       		.uleb128 0x3b
 3229 0e7c 18000000 		.4byte	.LVL219
 3230 0e80 57100000 		.4byte	0x1057
 3231 0e84 940E0000 		.4byte	0xe94
 3232 0e88 39       		.uleb128 0x39
 3233 0e89 01       		.uleb128 0x1
 3234 0e8a 50       		.byte	0x50
 3235 0e8b 02       		.uleb128 0x2
 3236 0e8c 74       		.byte	0x74
 3237 0e8d 00       		.sleb128 0
 3238 0e8e 39       		.uleb128 0x39
 3239 0e8f 01       		.uleb128 0x1
 3240 0e90 51       		.byte	0x51
 3241 0e91 01       		.uleb128 0x1
 3242 0e92 3C       		.byte	0x3c
 3243 0e93 00       		.byte	0
 3244 0e94 3B       		.uleb128 0x3b
 3245 0e95 22000000 		.4byte	.LVL220
 3246 0e99 CD0D0000 		.4byte	0xdcd
 3247 0e9d B40E0000 		.4byte	0xeb4
 3248 0ea1 39       		.uleb128 0x39
 3249 0ea2 01       		.uleb128 0x1
 3250 0ea3 50       		.byte	0x50
 3251 0ea4 02       		.uleb128 0x2
 3252 0ea5 77       		.byte	0x77
 3253 0ea6 00       		.sleb128 0
 3254 0ea7 39       		.uleb128 0x39
 3255 0ea8 01       		.uleb128 0x1
 3256 0ea9 51       		.byte	0x51
 3257 0eaa 02       		.uleb128 0x2
 3258 0eab 76       		.byte	0x76
 3259 0eac 00       		.sleb128 0
 3260 0ead 39       		.uleb128 0x39
 3261 0eae 01       		.uleb128 0x1
 3262 0eaf 52       		.byte	0x52
 3263 0eb0 02       		.uleb128 0x2
 3264 0eb1 75       		.byte	0x75
 3265 0eb2 00       		.sleb128 0
 3266 0eb3 00       		.byte	0
 3267 0eb4 3B       		.uleb128 0x3b
 3268 0eb5 2C000000 		.4byte	.LVL221
 3269 0eb9 41100000 		.4byte	0x1041
 3270 0ebd C80E0000 		.4byte	0xec8
 3271 0ec1 39       		.uleb128 0x39
ARM GAS  C:\Users\haske\AppData\Local\Temp\ccF9IbRI.s 			page 81


 3272 0ec2 01       		.uleb128 0x1
 3273 0ec3 50       		.byte	0x50
 3274 0ec4 02       		.uleb128 0x2
 3275 0ec5 74       		.byte	0x74
 3276 0ec6 00       		.sleb128 0
 3277 0ec7 00       		.byte	0
 3278 0ec8 2B       		.uleb128 0x2b
 3279 0ec9 34000000 		.4byte	.LVL223
 3280 0ecd 4C100000 		.4byte	0x104c
 3281 0ed1 3B       		.uleb128 0x3b
 3282 0ed2 3E000000 		.4byte	.LVL224
 3283 0ed6 41100000 		.4byte	0x1041
 3284 0eda E50E0000 		.4byte	0xee5
 3285 0ede 39       		.uleb128 0x39
 3286 0edf 01       		.uleb128 0x1
 3287 0ee0 50       		.byte	0x50
 3288 0ee1 02       		.uleb128 0x2
 3289 0ee2 74       		.byte	0x74
 3290 0ee3 00       		.sleb128 0
 3291 0ee4 00       		.byte	0
 3292 0ee5 2B       		.uleb128 0x2b
 3293 0ee6 48000000 		.4byte	.LVL226
 3294 0eea 57100000 		.4byte	0x1057
 3295 0eee 00       		.byte	0
 3296 0eef 33       		.uleb128 0x33
 3297 0ef0 E4050000 		.4byte	.LASF129
 3298 0ef4 01       		.byte	0x1
 3299 0ef5 A701     		.2byte	0x1a7
 3300 0ef7 00000000 		.4byte	.LFB62
 3301 0efb F8000000 		.4byte	.LFE62-.LFB62
 3302 0eff 01       		.uleb128 0x1
 3303 0f00 9C       		.byte	0x9c
 3304 0f01 05100000 		.4byte	0x1005
 3305 0f05 34       		.uleb128 0x34
 3306 0f06 72657300 		.ascii	"res\000"
 3307 0f0a 01       		.byte	0x1
 3308 0f0b A701     		.2byte	0x1a7
 3309 0f0d 05100000 		.4byte	0x1005
 3310 0f11 27130000 		.4byte	.LLST93
 3311 0f15 34       		.uleb128 0x34
 3312 0f16 7700     		.ascii	"w\000"
 3313 0f18 01       		.byte	0x1
 3314 0f19 A701     		.2byte	0x1a7
 3315 0f1b 2D020000 		.4byte	0x22d
 3316 0f1f 53130000 		.4byte	.LLST94
 3317 0f23 34       		.uleb128 0x34
 3318 0f24 6800     		.ascii	"h\000"
 3319 0f26 01       		.byte	0x1
 3320 0f27 A701     		.2byte	0x1a7
 3321 0f29 2D020000 		.4byte	0x22d
 3322 0f2d 99130000 		.4byte	.LLST95
 3323 0f31 3C       		.uleb128 0x3c
 3324 0f32 9A000000 		.4byte	.LASF130
 3325 0f36 01       		.byte	0x1
 3326 0f37 A701     		.2byte	0x1a7
 3327 0f39 DA000000 		.4byte	0xda
 3328 0f3d DF130000 		.4byte	.LLST96
ARM GAS  C:\Users\haske\AppData\Local\Temp\ccF9IbRI.s 			page 82


 3329 0f41 3D       		.uleb128 0x3d
 3330 0f42 A0000000 		.4byte	.LASF131
 3331 0f46 01       		.byte	0x1
 3332 0f47 A701     		.2byte	0x1a7
 3333 0f49 E5000000 		.4byte	0xe5
 3334 0f4d 02       		.uleb128 0x2
 3335 0f4e 91       		.byte	0x91
 3336 0f4f 00       		.sleb128 0
 3337 0f50 3D       		.uleb128 0x3d
 3338 0f51 DA000000 		.4byte	.LASF132
 3339 0f55 01       		.byte	0x1
 3340 0f56 A801     		.2byte	0x1a8
 3341 0f58 0B100000 		.4byte	0x100b
 3342 0f5c 02       		.uleb128 0x2
 3343 0f5d 91       		.byte	0x91
 3344 0f5e 04       		.sleb128 4
 3345 0f5f 35       		.uleb128 0x35
 3346 0f60 7000     		.ascii	"p\000"
 3347 0f62 01       		.byte	0x1
 3348 0f63 B301     		.2byte	0x1b3
 3349 0f65 16100000 		.4byte	0x1016
 3350 0f69 02       		.uleb128 0x2
 3351 0f6a 91       		.byte	0x91
 3352 0f6b 60       		.sleb128 -32
 3353 0f6c 3B       		.uleb128 0x3b
 3354 0f6d 50000000 		.4byte	.LVL237
 3355 0f71 62100000 		.4byte	0x1062
 3356 0f75 930F0000 		.4byte	0xf93
 3357 0f79 39       		.uleb128 0x39
 3358 0f7a 01       		.uleb128 0x1
 3359 0f7b 50       		.byte	0x50
 3360 0f7c 02       		.uleb128 0x2
 3361 0f7d 7D       		.byte	0x7d
 3362 0f7e 00       		.sleb128 0
 3363 0f7f 39       		.uleb128 0x39
 3364 0f80 01       		.uleb128 0x1
 3365 0f81 51       		.byte	0x51
 3366 0f82 02       		.uleb128 0x2
 3367 0f83 75       		.byte	0x75
 3368 0f84 00       		.sleb128 0
 3369 0f85 39       		.uleb128 0x39
 3370 0f86 01       		.uleb128 0x1
 3371 0f87 52       		.byte	0x52
 3372 0f88 02       		.uleb128 0x2
 3373 0f89 76       		.byte	0x76
 3374 0f8a 00       		.sleb128 0
 3375 0f8b 39       		.uleb128 0x39
 3376 0f8c 01       		.uleb128 0x1
 3377 0f8d 53       		.byte	0x53
 3378 0f8e 03       		.uleb128 0x3
 3379 0f8f 91       		.byte	0x91
 3380 0f90 04       		.sleb128 4
 3381 0f91 06       		.byte	0x6
 3382 0f92 00       		.byte	0
 3383 0f93 3B       		.uleb128 0x3b
 3384 0f94 5C000000 		.4byte	.LVL238
 3385 0f98 62100000 		.4byte	0x1062
ARM GAS  C:\Users\haske\AppData\Local\Temp\ccF9IbRI.s 			page 83


 3386 0f9c BA0F0000 		.4byte	0xfba
 3387 0fa0 39       		.uleb128 0x39
 3388 0fa1 01       		.uleb128 0x1
 3389 0fa2 50       		.byte	0x50
 3390 0fa3 02       		.uleb128 0x2
 3391 0fa4 91       		.byte	0x91
 3392 0fa5 64       		.sleb128 -28
 3393 0fa6 39       		.uleb128 0x39
 3394 0fa7 01       		.uleb128 0x1
 3395 0fa8 51       		.byte	0x51
 3396 0fa9 02       		.uleb128 0x2
 3397 0faa 75       		.byte	0x75
 3398 0fab 00       		.sleb128 0
 3399 0fac 39       		.uleb128 0x39
 3400 0fad 01       		.uleb128 0x1
 3401 0fae 52       		.byte	0x52
 3402 0faf 02       		.uleb128 0x2
 3403 0fb0 76       		.byte	0x76
 3404 0fb1 00       		.sleb128 0
 3405 0fb2 39       		.uleb128 0x39
 3406 0fb3 01       		.uleb128 0x1
 3407 0fb4 53       		.byte	0x53
 3408 0fb5 03       		.uleb128 0x3
 3409 0fb6 91       		.byte	0x91
 3410 0fb7 04       		.sleb128 4
 3411 0fb8 06       		.byte	0x6
 3412 0fb9 00       		.byte	0
 3413 0fba 3B       		.uleb128 0x3b
 3414 0fbb 68000000 		.4byte	.LVL239
 3415 0fbf 62100000 		.4byte	0x1062
 3416 0fc3 E10F0000 		.4byte	0xfe1
 3417 0fc7 39       		.uleb128 0x39
 3418 0fc8 01       		.uleb128 0x1
 3419 0fc9 50       		.byte	0x50
 3420 0fca 02       		.uleb128 0x2
 3421 0fcb 91       		.byte	0x91
 3422 0fcc 68       		.sleb128 -24
 3423 0fcd 39       		.uleb128 0x39
 3424 0fce 01       		.uleb128 0x1
 3425 0fcf 51       		.byte	0x51
 3426 0fd0 02       		.uleb128 0x2
 3427 0fd1 75       		.byte	0x75
 3428 0fd2 00       		.sleb128 0
 3429 0fd3 39       		.uleb128 0x39
 3430 0fd4 01       		.uleb128 0x1
 3431 0fd5 52       		.byte	0x52
 3432 0fd6 02       		.uleb128 0x2
 3433 0fd7 76       		.byte	0x76
 3434 0fd8 00       		.sleb128 0
 3435 0fd9 39       		.uleb128 0x39
 3436 0fda 01       		.uleb128 0x1
 3437 0fdb 53       		.byte	0x53
 3438 0fdc 03       		.uleb128 0x3
 3439 0fdd 91       		.byte	0x91
 3440 0fde 04       		.sleb128 4
 3441 0fdf 06       		.byte	0x6
 3442 0fe0 00       		.byte	0
ARM GAS  C:\Users\haske\AppData\Local\Temp\ccF9IbRI.s 			page 84


 3443 0fe1 38       		.uleb128 0x38
 3444 0fe2 74000000 		.4byte	.LVL240
 3445 0fe6 62100000 		.4byte	0x1062
 3446 0fea 39       		.uleb128 0x39
 3447 0feb 01       		.uleb128 0x1
 3448 0fec 50       		.byte	0x50
 3449 0fed 02       		.uleb128 0x2
 3450 0fee 91       		.byte	0x91
 3451 0fef 6C       		.sleb128 -20
 3452 0ff0 39       		.uleb128 0x39
 3453 0ff1 01       		.uleb128 0x1
 3454 0ff2 51       		.byte	0x51
 3455 0ff3 02       		.uleb128 0x2
 3456 0ff4 75       		.byte	0x75
 3457 0ff5 00       		.sleb128 0
 3458 0ff6 39       		.uleb128 0x39
 3459 0ff7 01       		.uleb128 0x1
 3460 0ff8 52       		.byte	0x52
 3461 0ff9 02       		.uleb128 0x2
 3462 0ffa 76       		.byte	0x76
 3463 0ffb 00       		.sleb128 0
 3464 0ffc 39       		.uleb128 0x39
 3465 0ffd 01       		.uleb128 0x1
 3466 0ffe 53       		.byte	0x53
 3467 0fff 03       		.uleb128 0x3
 3468 1000 91       		.byte	0x91
 3469 1001 04       		.sleb128 4
 3470 1002 06       		.byte	0x6
 3471 1003 00       		.byte	0
 3472 1004 00       		.byte	0
 3473 1005 10       		.uleb128 0x10
 3474 1006 04       		.byte	0x4
 3475 1007 95020000 		.4byte	0x295
 3476 100b 10       		.uleb128 0x10
 3477 100c 04       		.byte	0x4
 3478 100d 11100000 		.4byte	0x1011
 3479 1011 11       		.uleb128 0x11
 3480 1012 55020000 		.4byte	0x255
 3481 1016 2E       		.uleb128 0x2e
 3482 1017 55020000 		.4byte	0x255
 3483 101b 26100000 		.4byte	0x1026
 3484 101f 2F       		.uleb128 0x2f
 3485 1020 B4000000 		.4byte	0xb4
 3486 1024 03       		.byte	0x3
 3487 1025 00       		.byte	0
 3488 1026 3E       		.uleb128 0x3e
 3489 1027 0C010000 		.4byte	.LASF143
 3490 102b 09       		.byte	0x9
 3491 102c 94       		.byte	0x94
 3492 102d 31100000 		.4byte	0x1031
 3493 1031 11       		.uleb128 0x11
 3494 1032 9E050000 		.4byte	0x59e
 3495 1036 3F       		.uleb128 0x3f
 3496 1037 AE010000 		.4byte	.LASF133
 3497 103b AE010000 		.4byte	.LASF133
 3498 103f 0A       		.byte	0xa
 3499 1040 54       		.byte	0x54
ARM GAS  C:\Users\haske\AppData\Local\Temp\ccF9IbRI.s 			page 85


 3500 1041 3F       		.uleb128 0x3f
 3501 1042 95010000 		.4byte	.LASF134
 3502 1046 95010000 		.4byte	.LASF134
 3503 104a 03       		.byte	0x3
 3504 104b 50       		.byte	0x50
 3505 104c 3F       		.uleb128 0x3f
 3506 104d 4F010000 		.4byte	.LASF135
 3507 1051 4F010000 		.4byte	.LASF135
 3508 1055 03       		.byte	0x3
 3509 1056 4A       		.byte	0x4a
 3510 1057 3F       		.uleb128 0x3f
 3511 1058 5C010000 		.4byte	.LASF136
 3512 105c 5C010000 		.4byte	.LASF136
 3513 1060 03       		.byte	0x3
 3514 1061 DE       		.byte	0xde
 3515 1062 3F       		.uleb128 0x3f
 3516 1063 AF040000 		.4byte	.LASF137
 3517 1067 AF040000 		.4byte	.LASF137
 3518 106b 07       		.byte	0x7
 3519 106c EF       		.byte	0xef
 3520 106d 00       		.byte	0
 3521              		.section	.debug_abbrev,"",%progbits
 3522              	.Ldebug_abbrev0:
 3523 0000 01       		.uleb128 0x1
 3524 0001 11       		.uleb128 0x11
 3525 0002 01       		.byte	0x1
 3526 0003 25       		.uleb128 0x25
 3527 0004 0E       		.uleb128 0xe
 3528 0005 13       		.uleb128 0x13
 3529 0006 0B       		.uleb128 0xb
 3530 0007 03       		.uleb128 0x3
 3531 0008 0E       		.uleb128 0xe
 3532 0009 1B       		.uleb128 0x1b
 3533 000a 0E       		.uleb128 0xe
 3534 000b 55       		.uleb128 0x55
 3535 000c 17       		.uleb128 0x17
 3536 000d 11       		.uleb128 0x11
 3537 000e 01       		.uleb128 0x1
 3538 000f 10       		.uleb128 0x10
 3539 0010 17       		.uleb128 0x17
 3540 0011 00       		.byte	0
 3541 0012 00       		.byte	0
 3542 0013 02       		.uleb128 0x2
 3543 0014 24       		.uleb128 0x24
 3544 0015 00       		.byte	0
 3545 0016 0B       		.uleb128 0xb
 3546 0017 0B       		.uleb128 0xb
 3547 0018 3E       		.uleb128 0x3e
 3548 0019 0B       		.uleb128 0xb
 3549 001a 03       		.uleb128 0x3
 3550 001b 08       		.uleb128 0x8
 3551 001c 00       		.byte	0
 3552 001d 00       		.byte	0
 3553 001e 03       		.uleb128 0x3
 3554 001f 16       		.uleb128 0x16
 3555 0020 00       		.byte	0
 3556 0021 03       		.uleb128 0x3
ARM GAS  C:\Users\haske\AppData\Local\Temp\ccF9IbRI.s 			page 86


 3557 0022 0E       		.uleb128 0xe
 3558 0023 3A       		.uleb128 0x3a
 3559 0024 0B       		.uleb128 0xb
 3560 0025 3B       		.uleb128 0x3b
 3561 0026 0B       		.uleb128 0xb
 3562 0027 49       		.uleb128 0x49
 3563 0028 13       		.uleb128 0x13
 3564 0029 00       		.byte	0
 3565 002a 00       		.byte	0
 3566 002b 04       		.uleb128 0x4
 3567 002c 24       		.uleb128 0x24
 3568 002d 00       		.byte	0
 3569 002e 0B       		.uleb128 0xb
 3570 002f 0B       		.uleb128 0xb
 3571 0030 3E       		.uleb128 0x3e
 3572 0031 0B       		.uleb128 0xb
 3573 0032 03       		.uleb128 0x3
 3574 0033 0E       		.uleb128 0xe
 3575 0034 00       		.byte	0
 3576 0035 00       		.byte	0
 3577 0036 05       		.uleb128 0x5
 3578 0037 0F       		.uleb128 0xf
 3579 0038 00       		.byte	0
 3580 0039 0B       		.uleb128 0xb
 3581 003a 0B       		.uleb128 0xb
 3582 003b 00       		.byte	0
 3583 003c 00       		.byte	0
 3584 003d 06       		.uleb128 0x6
 3585 003e 04       		.uleb128 0x4
 3586 003f 01       		.byte	0x1
 3587 0040 0B       		.uleb128 0xb
 3588 0041 0B       		.uleb128 0xb
 3589 0042 49       		.uleb128 0x49
 3590 0043 13       		.uleb128 0x13
 3591 0044 3A       		.uleb128 0x3a
 3592 0045 0B       		.uleb128 0xb
 3593 0046 3B       		.uleb128 0x3b
 3594 0047 0B       		.uleb128 0xb
 3595 0048 01       		.uleb128 0x1
 3596 0049 13       		.uleb128 0x13
 3597 004a 00       		.byte	0
 3598 004b 00       		.byte	0
 3599 004c 07       		.uleb128 0x7
 3600 004d 28       		.uleb128 0x28
 3601 004e 00       		.byte	0
 3602 004f 03       		.uleb128 0x3
 3603 0050 0E       		.uleb128 0xe
 3604 0051 1C       		.uleb128 0x1c
 3605 0052 0B       		.uleb128 0xb
 3606 0053 00       		.byte	0
 3607 0054 00       		.byte	0
 3608 0055 08       		.uleb128 0x8
 3609 0056 13       		.uleb128 0x13
 3610 0057 01       		.byte	0x1
 3611 0058 0B       		.uleb128 0xb
 3612 0059 0B       		.uleb128 0xb
 3613 005a 3A       		.uleb128 0x3a
ARM GAS  C:\Users\haske\AppData\Local\Temp\ccF9IbRI.s 			page 87


 3614 005b 0B       		.uleb128 0xb
 3615 005c 3B       		.uleb128 0x3b
 3616 005d 0B       		.uleb128 0xb
 3617 005e 01       		.uleb128 0x1
 3618 005f 13       		.uleb128 0x13
 3619 0060 00       		.byte	0
 3620 0061 00       		.byte	0
 3621 0062 09       		.uleb128 0x9
 3622 0063 0D       		.uleb128 0xd
 3623 0064 00       		.byte	0
 3624 0065 03       		.uleb128 0x3
 3625 0066 0E       		.uleb128 0xe
 3626 0067 3A       		.uleb128 0x3a
 3627 0068 0B       		.uleb128 0xb
 3628 0069 3B       		.uleb128 0x3b
 3629 006a 0B       		.uleb128 0xb
 3630 006b 49       		.uleb128 0x49
 3631 006c 13       		.uleb128 0x13
 3632 006d 0B       		.uleb128 0xb
 3633 006e 0B       		.uleb128 0xb
 3634 006f 0D       		.uleb128 0xd
 3635 0070 0B       		.uleb128 0xb
 3636 0071 0C       		.uleb128 0xc
 3637 0072 0B       		.uleb128 0xb
 3638 0073 38       		.uleb128 0x38
 3639 0074 0B       		.uleb128 0xb
 3640 0075 00       		.byte	0
 3641 0076 00       		.byte	0
 3642 0077 0A       		.uleb128 0xa
 3643 0078 0D       		.uleb128 0xd
 3644 0079 00       		.byte	0
 3645 007a 03       		.uleb128 0x3
 3646 007b 08       		.uleb128 0x8
 3647 007c 3A       		.uleb128 0x3a
 3648 007d 0B       		.uleb128 0xb
 3649 007e 3B       		.uleb128 0x3b
 3650 007f 0B       		.uleb128 0xb
 3651 0080 49       		.uleb128 0x49
 3652 0081 13       		.uleb128 0x13
 3653 0082 0B       		.uleb128 0xb
 3654 0083 0B       		.uleb128 0xb
 3655 0084 0D       		.uleb128 0xd
 3656 0085 0B       		.uleb128 0xb
 3657 0086 0C       		.uleb128 0xc
 3658 0087 0B       		.uleb128 0xb
 3659 0088 38       		.uleb128 0x38
 3660 0089 0B       		.uleb128 0xb
 3661 008a 00       		.byte	0
 3662 008b 00       		.byte	0
 3663 008c 0B       		.uleb128 0xb
 3664 008d 17       		.uleb128 0x17
 3665 008e 01       		.byte	0x1
 3666 008f 0B       		.uleb128 0xb
 3667 0090 0B       		.uleb128 0xb
 3668 0091 3A       		.uleb128 0x3a
 3669 0092 0B       		.uleb128 0xb
 3670 0093 3B       		.uleb128 0x3b
ARM GAS  C:\Users\haske\AppData\Local\Temp\ccF9IbRI.s 			page 88


 3671 0094 0B       		.uleb128 0xb
 3672 0095 01       		.uleb128 0x1
 3673 0096 13       		.uleb128 0x13
 3674 0097 00       		.byte	0
 3675 0098 00       		.byte	0
 3676 0099 0C       		.uleb128 0xc
 3677 009a 0D       		.uleb128 0xd
 3678 009b 00       		.byte	0
 3679 009c 03       		.uleb128 0x3
 3680 009d 08       		.uleb128 0x8
 3681 009e 3A       		.uleb128 0x3a
 3682 009f 0B       		.uleb128 0xb
 3683 00a0 3B       		.uleb128 0x3b
 3684 00a1 0B       		.uleb128 0xb
 3685 00a2 49       		.uleb128 0x49
 3686 00a3 13       		.uleb128 0x13
 3687 00a4 00       		.byte	0
 3688 00a5 00       		.byte	0
 3689 00a6 0D       		.uleb128 0xd
 3690 00a7 0D       		.uleb128 0xd
 3691 00a8 00       		.byte	0
 3692 00a9 03       		.uleb128 0x3
 3693 00aa 0E       		.uleb128 0xe
 3694 00ab 3A       		.uleb128 0x3a
 3695 00ac 0B       		.uleb128 0xb
 3696 00ad 3B       		.uleb128 0x3b
 3697 00ae 0B       		.uleb128 0xb
 3698 00af 49       		.uleb128 0x49
 3699 00b0 13       		.uleb128 0x13
 3700 00b1 00       		.byte	0
 3701 00b2 00       		.byte	0
 3702 00b3 0E       		.uleb128 0xe
 3703 00b4 0D       		.uleb128 0xd
 3704 00b5 00       		.byte	0
 3705 00b6 03       		.uleb128 0x3
 3706 00b7 0E       		.uleb128 0xe
 3707 00b8 3A       		.uleb128 0x3a
 3708 00b9 0B       		.uleb128 0xb
 3709 00ba 3B       		.uleb128 0x3b
 3710 00bb 0B       		.uleb128 0xb
 3711 00bc 49       		.uleb128 0x49
 3712 00bd 13       		.uleb128 0x13
 3713 00be 38       		.uleb128 0x38
 3714 00bf 0B       		.uleb128 0xb
 3715 00c0 00       		.byte	0
 3716 00c1 00       		.byte	0
 3717 00c2 0F       		.uleb128 0xf
 3718 00c3 0D       		.uleb128 0xd
 3719 00c4 00       		.byte	0
 3720 00c5 03       		.uleb128 0x3
 3721 00c6 08       		.uleb128 0x8
 3722 00c7 3A       		.uleb128 0x3a
 3723 00c8 0B       		.uleb128 0xb
 3724 00c9 3B       		.uleb128 0x3b
 3725 00ca 0B       		.uleb128 0xb
 3726 00cb 49       		.uleb128 0x49
 3727 00cc 13       		.uleb128 0x13
ARM GAS  C:\Users\haske\AppData\Local\Temp\ccF9IbRI.s 			page 89


 3728 00cd 38       		.uleb128 0x38
 3729 00ce 0B       		.uleb128 0xb
 3730 00cf 00       		.byte	0
 3731 00d0 00       		.byte	0
 3732 00d1 10       		.uleb128 0x10
 3733 00d2 0F       		.uleb128 0xf
 3734 00d3 00       		.byte	0
 3735 00d4 0B       		.uleb128 0xb
 3736 00d5 0B       		.uleb128 0xb
 3737 00d6 49       		.uleb128 0x49
 3738 00d7 13       		.uleb128 0x13
 3739 00d8 00       		.byte	0
 3740 00d9 00       		.byte	0
 3741 00da 11       		.uleb128 0x11
 3742 00db 26       		.uleb128 0x26
 3743 00dc 00       		.byte	0
 3744 00dd 49       		.uleb128 0x49
 3745 00de 13       		.uleb128 0x13
 3746 00df 00       		.byte	0
 3747 00e0 00       		.byte	0
 3748 00e1 12       		.uleb128 0x12
 3749 00e2 26       		.uleb128 0x26
 3750 00e3 00       		.byte	0
 3751 00e4 00       		.byte	0
 3752 00e5 00       		.byte	0
 3753 00e6 13       		.uleb128 0x13
 3754 00e7 13       		.uleb128 0x13
 3755 00e8 01       		.byte	0x1
 3756 00e9 03       		.uleb128 0x3
 3757 00ea 0E       		.uleb128 0xe
 3758 00eb 0B       		.uleb128 0xb
 3759 00ec 0B       		.uleb128 0xb
 3760 00ed 3A       		.uleb128 0x3a
 3761 00ee 0B       		.uleb128 0xb
 3762 00ef 3B       		.uleb128 0x3b
 3763 00f0 0B       		.uleb128 0xb
 3764 00f1 01       		.uleb128 0x1
 3765 00f2 13       		.uleb128 0x13
 3766 00f3 00       		.byte	0
 3767 00f4 00       		.byte	0
 3768 00f5 14       		.uleb128 0x14
 3769 00f6 15       		.uleb128 0x15
 3770 00f7 01       		.byte	0x1
 3771 00f8 27       		.uleb128 0x27
 3772 00f9 19       		.uleb128 0x19
 3773 00fa 49       		.uleb128 0x49
 3774 00fb 13       		.uleb128 0x13
 3775 00fc 01       		.uleb128 0x1
 3776 00fd 13       		.uleb128 0x13
 3777 00fe 00       		.byte	0
 3778 00ff 00       		.byte	0
 3779 0100 15       		.uleb128 0x15
 3780 0101 05       		.uleb128 0x5
 3781 0102 00       		.byte	0
 3782 0103 49       		.uleb128 0x49
 3783 0104 13       		.uleb128 0x13
 3784 0105 00       		.byte	0
ARM GAS  C:\Users\haske\AppData\Local\Temp\ccF9IbRI.s 			page 90


 3785 0106 00       		.byte	0
 3786 0107 16       		.uleb128 0x16
 3787 0108 2E       		.uleb128 0x2e
 3788 0109 01       		.byte	0x1
 3789 010a 03       		.uleb128 0x3
 3790 010b 0E       		.uleb128 0xe
 3791 010c 3A       		.uleb128 0x3a
 3792 010d 0B       		.uleb128 0xb
 3793 010e 3B       		.uleb128 0x3b
 3794 010f 05       		.uleb128 0x5
 3795 0110 27       		.uleb128 0x27
 3796 0111 19       		.uleb128 0x19
 3797 0112 49       		.uleb128 0x49
 3798 0113 13       		.uleb128 0x13
 3799 0114 20       		.uleb128 0x20
 3800 0115 0B       		.uleb128 0xb
 3801 0116 01       		.uleb128 0x1
 3802 0117 13       		.uleb128 0x13
 3803 0118 00       		.byte	0
 3804 0119 00       		.byte	0
 3805 011a 17       		.uleb128 0x17
 3806 011b 05       		.uleb128 0x5
 3807 011c 00       		.byte	0
 3808 011d 03       		.uleb128 0x3
 3809 011e 08       		.uleb128 0x8
 3810 011f 3A       		.uleb128 0x3a
 3811 0120 0B       		.uleb128 0xb
 3812 0121 3B       		.uleb128 0x3b
 3813 0122 05       		.uleb128 0x5
 3814 0123 49       		.uleb128 0x49
 3815 0124 13       		.uleb128 0x13
 3816 0125 00       		.byte	0
 3817 0126 00       		.byte	0
 3818 0127 18       		.uleb128 0x18
 3819 0128 2E       		.uleb128 0x2e
 3820 0129 00       		.byte	0
 3821 012a 03       		.uleb128 0x3
 3822 012b 0E       		.uleb128 0xe
 3823 012c 3A       		.uleb128 0x3a
 3824 012d 0B       		.uleb128 0xb
 3825 012e 3B       		.uleb128 0x3b
 3826 012f 05       		.uleb128 0x5
 3827 0130 27       		.uleb128 0x27
 3828 0131 19       		.uleb128 0x19
 3829 0132 49       		.uleb128 0x49
 3830 0133 13       		.uleb128 0x13
 3831 0134 20       		.uleb128 0x20
 3832 0135 0B       		.uleb128 0xb
 3833 0136 00       		.byte	0
 3834 0137 00       		.byte	0
 3835 0138 19       		.uleb128 0x19
 3836 0139 2E       		.uleb128 0x2e
 3837 013a 01       		.byte	0x1
 3838 013b 03       		.uleb128 0x3
 3839 013c 0E       		.uleb128 0xe
 3840 013d 3A       		.uleb128 0x3a
 3841 013e 0B       		.uleb128 0xb
ARM GAS  C:\Users\haske\AppData\Local\Temp\ccF9IbRI.s 			page 91


 3842 013f 3B       		.uleb128 0x3b
 3843 0140 0B       		.uleb128 0xb
 3844 0141 27       		.uleb128 0x27
 3845 0142 19       		.uleb128 0x19
 3846 0143 49       		.uleb128 0x49
 3847 0144 13       		.uleb128 0x13
 3848 0145 20       		.uleb128 0x20
 3849 0146 0B       		.uleb128 0xb
 3850 0147 01       		.uleb128 0x1
 3851 0148 13       		.uleb128 0x13
 3852 0149 00       		.byte	0
 3853 014a 00       		.byte	0
 3854 014b 1A       		.uleb128 0x1a
 3855 014c 05       		.uleb128 0x5
 3856 014d 00       		.byte	0
 3857 014e 03       		.uleb128 0x3
 3858 014f 08       		.uleb128 0x8
 3859 0150 3A       		.uleb128 0x3a
 3860 0151 0B       		.uleb128 0xb
 3861 0152 3B       		.uleb128 0x3b
 3862 0153 0B       		.uleb128 0xb
 3863 0154 49       		.uleb128 0x49
 3864 0155 13       		.uleb128 0x13
 3865 0156 00       		.byte	0
 3866 0157 00       		.byte	0
 3867 0158 1B       		.uleb128 0x1b
 3868 0159 34       		.uleb128 0x34
 3869 015a 00       		.byte	0
 3870 015b 03       		.uleb128 0x3
 3871 015c 08       		.uleb128 0x8
 3872 015d 3A       		.uleb128 0x3a
 3873 015e 0B       		.uleb128 0xb
 3874 015f 3B       		.uleb128 0x3b
 3875 0160 0B       		.uleb128 0xb
 3876 0161 49       		.uleb128 0x49
 3877 0162 13       		.uleb128 0x13
 3878 0163 00       		.byte	0
 3879 0164 00       		.byte	0
 3880 0165 1C       		.uleb128 0x1c
 3881 0166 05       		.uleb128 0x5
 3882 0167 00       		.byte	0
 3883 0168 03       		.uleb128 0x3
 3884 0169 0E       		.uleb128 0xe
 3885 016a 3A       		.uleb128 0x3a
 3886 016b 0B       		.uleb128 0xb
 3887 016c 3B       		.uleb128 0x3b
 3888 016d 05       		.uleb128 0x5
 3889 016e 49       		.uleb128 0x49
 3890 016f 13       		.uleb128 0x13
 3891 0170 00       		.byte	0
 3892 0171 00       		.byte	0
 3893 0172 1D       		.uleb128 0x1d
 3894 0173 34       		.uleb128 0x34
 3895 0174 00       		.byte	0
 3896 0175 03       		.uleb128 0x3
 3897 0176 08       		.uleb128 0x8
 3898 0177 3A       		.uleb128 0x3a
ARM GAS  C:\Users\haske\AppData\Local\Temp\ccF9IbRI.s 			page 92


 3899 0178 0B       		.uleb128 0xb
 3900 0179 3B       		.uleb128 0x3b
 3901 017a 05       		.uleb128 0x5
 3902 017b 49       		.uleb128 0x49
 3903 017c 13       		.uleb128 0x13
 3904 017d 00       		.byte	0
 3905 017e 00       		.byte	0
 3906 017f 1E       		.uleb128 0x1e
 3907 0180 2E       		.uleb128 0x2e
 3908 0181 01       		.byte	0x1
 3909 0182 3F       		.uleb128 0x3f
 3910 0183 19       		.uleb128 0x19
 3911 0184 03       		.uleb128 0x3
 3912 0185 0E       		.uleb128 0xe
 3913 0186 3A       		.uleb128 0x3a
 3914 0187 0B       		.uleb128 0xb
 3915 0188 3B       		.uleb128 0x3b
 3916 0189 0B       		.uleb128 0xb
 3917 018a 27       		.uleb128 0x27
 3918 018b 19       		.uleb128 0x19
 3919 018c 49       		.uleb128 0x49
 3920 018d 13       		.uleb128 0x13
 3921 018e 11       		.uleb128 0x11
 3922 018f 01       		.uleb128 0x1
 3923 0190 12       		.uleb128 0x12
 3924 0191 06       		.uleb128 0x6
 3925 0192 40       		.uleb128 0x40
 3926 0193 18       		.uleb128 0x18
 3927 0194 9742     		.uleb128 0x2117
 3928 0196 19       		.uleb128 0x19
 3929 0197 01       		.uleb128 0x1
 3930 0198 13       		.uleb128 0x13
 3931 0199 00       		.byte	0
 3932 019a 00       		.byte	0
 3933 019b 1F       		.uleb128 0x1f
 3934 019c 05       		.uleb128 0x5
 3935 019d 00       		.byte	0
 3936 019e 03       		.uleb128 0x3
 3937 019f 08       		.uleb128 0x8
 3938 01a0 3A       		.uleb128 0x3a
 3939 01a1 0B       		.uleb128 0xb
 3940 01a2 3B       		.uleb128 0x3b
 3941 01a3 0B       		.uleb128 0xb
 3942 01a4 49       		.uleb128 0x49
 3943 01a5 13       		.uleb128 0x13
 3944 01a6 02       		.uleb128 0x2
 3945 01a7 17       		.uleb128 0x17
 3946 01a8 00       		.byte	0
 3947 01a9 00       		.byte	0
 3948 01aa 20       		.uleb128 0x20
 3949 01ab 05       		.uleb128 0x5
 3950 01ac 00       		.byte	0
 3951 01ad 03       		.uleb128 0x3
 3952 01ae 0E       		.uleb128 0xe
 3953 01af 3A       		.uleb128 0x3a
 3954 01b0 0B       		.uleb128 0xb
 3955 01b1 3B       		.uleb128 0x3b
ARM GAS  C:\Users\haske\AppData\Local\Temp\ccF9IbRI.s 			page 93


 3956 01b2 0B       		.uleb128 0xb
 3957 01b3 49       		.uleb128 0x49
 3958 01b4 13       		.uleb128 0x13
 3959 01b5 02       		.uleb128 0x2
 3960 01b6 17       		.uleb128 0x17
 3961 01b7 00       		.byte	0
 3962 01b8 00       		.byte	0
 3963 01b9 21       		.uleb128 0x21
 3964 01ba 34       		.uleb128 0x34
 3965 01bb 00       		.byte	0
 3966 01bc 03       		.uleb128 0x3
 3967 01bd 0E       		.uleb128 0xe
 3968 01be 3A       		.uleb128 0x3a
 3969 01bf 0B       		.uleb128 0xb
 3970 01c0 3B       		.uleb128 0x3b
 3971 01c1 0B       		.uleb128 0xb
 3972 01c2 49       		.uleb128 0x49
 3973 01c3 13       		.uleb128 0x13
 3974 01c4 02       		.uleb128 0x2
 3975 01c5 18       		.uleb128 0x18
 3976 01c6 00       		.byte	0
 3977 01c7 00       		.byte	0
 3978 01c8 22       		.uleb128 0x22
 3979 01c9 34       		.uleb128 0x34
 3980 01ca 00       		.byte	0
 3981 01cb 03       		.uleb128 0x3
 3982 01cc 0E       		.uleb128 0xe
 3983 01cd 3A       		.uleb128 0x3a
 3984 01ce 0B       		.uleb128 0xb
 3985 01cf 3B       		.uleb128 0x3b
 3986 01d0 0B       		.uleb128 0xb
 3987 01d1 49       		.uleb128 0x49
 3988 01d2 13       		.uleb128 0x13
 3989 01d3 02       		.uleb128 0x2
 3990 01d4 17       		.uleb128 0x17
 3991 01d5 00       		.byte	0
 3992 01d6 00       		.byte	0
 3993 01d7 23       		.uleb128 0x23
 3994 01d8 1D       		.uleb128 0x1d
 3995 01d9 01       		.byte	0x1
 3996 01da 31       		.uleb128 0x31
 3997 01db 13       		.uleb128 0x13
 3998 01dc 11       		.uleb128 0x11
 3999 01dd 01       		.uleb128 0x1
 4000 01de 12       		.uleb128 0x12
 4001 01df 06       		.uleb128 0x6
 4002 01e0 58       		.uleb128 0x58
 4003 01e1 0B       		.uleb128 0xb
 4004 01e2 59       		.uleb128 0x59
 4005 01e3 0B       		.uleb128 0xb
 4006 01e4 01       		.uleb128 0x1
 4007 01e5 13       		.uleb128 0x13
 4008 01e6 00       		.byte	0
 4009 01e7 00       		.byte	0
 4010 01e8 24       		.uleb128 0x24
 4011 01e9 1D       		.uleb128 0x1d
 4012 01ea 01       		.byte	0x1
ARM GAS  C:\Users\haske\AppData\Local\Temp\ccF9IbRI.s 			page 94


 4013 01eb 31       		.uleb128 0x31
 4014 01ec 13       		.uleb128 0x13
 4015 01ed 11       		.uleb128 0x11
 4016 01ee 01       		.uleb128 0x1
 4017 01ef 12       		.uleb128 0x12
 4018 01f0 06       		.uleb128 0x6
 4019 01f1 58       		.uleb128 0x58
 4020 01f2 0B       		.uleb128 0xb
 4021 01f3 59       		.uleb128 0x59
 4022 01f4 05       		.uleb128 0x5
 4023 01f5 00       		.byte	0
 4024 01f6 00       		.byte	0
 4025 01f7 25       		.uleb128 0x25
 4026 01f8 05       		.uleb128 0x5
 4027 01f9 00       		.byte	0
 4028 01fa 31       		.uleb128 0x31
 4029 01fb 13       		.uleb128 0x13
 4030 01fc 02       		.uleb128 0x2
 4031 01fd 17       		.uleb128 0x17
 4032 01fe 00       		.byte	0
 4033 01ff 00       		.byte	0
 4034 0200 26       		.uleb128 0x26
 4035 0201 0B       		.uleb128 0xb
 4036 0202 01       		.byte	0x1
 4037 0203 11       		.uleb128 0x11
 4038 0204 01       		.uleb128 0x1
 4039 0205 12       		.uleb128 0x12
 4040 0206 06       		.uleb128 0x6
 4041 0207 01       		.uleb128 0x1
 4042 0208 13       		.uleb128 0x13
 4043 0209 00       		.byte	0
 4044 020a 00       		.byte	0
 4045 020b 27       		.uleb128 0x27
 4046 020c 34       		.uleb128 0x34
 4047 020d 00       		.byte	0
 4048 020e 03       		.uleb128 0x3
 4049 020f 08       		.uleb128 0x8
 4050 0210 3A       		.uleb128 0x3a
 4051 0211 0B       		.uleb128 0xb
 4052 0212 3B       		.uleb128 0x3b
 4053 0213 0B       		.uleb128 0xb
 4054 0214 49       		.uleb128 0x49
 4055 0215 13       		.uleb128 0x13
 4056 0216 02       		.uleb128 0x2
 4057 0217 17       		.uleb128 0x17
 4058 0218 00       		.byte	0
 4059 0219 00       		.byte	0
 4060 021a 28       		.uleb128 0x28
 4061 021b 1D       		.uleb128 0x1d
 4062 021c 01       		.byte	0x1
 4063 021d 31       		.uleb128 0x31
 4064 021e 13       		.uleb128 0x13
 4065 021f 52       		.uleb128 0x52
 4066 0220 01       		.uleb128 0x1
 4067 0221 55       		.uleb128 0x55
 4068 0222 17       		.uleb128 0x17
 4069 0223 58       		.uleb128 0x58
ARM GAS  C:\Users\haske\AppData\Local\Temp\ccF9IbRI.s 			page 95


 4070 0224 0B       		.uleb128 0xb
 4071 0225 59       		.uleb128 0x59
 4072 0226 0B       		.uleb128 0xb
 4073 0227 01       		.uleb128 0x1
 4074 0228 13       		.uleb128 0x13
 4075 0229 00       		.byte	0
 4076 022a 00       		.byte	0
 4077 022b 29       		.uleb128 0x29
 4078 022c 0B       		.uleb128 0xb
 4079 022d 01       		.byte	0x1
 4080 022e 55       		.uleb128 0x55
 4081 022f 17       		.uleb128 0x17
 4082 0230 00       		.byte	0
 4083 0231 00       		.byte	0
 4084 0232 2A       		.uleb128 0x2a
 4085 0233 34       		.uleb128 0x34
 4086 0234 00       		.byte	0
 4087 0235 31       		.uleb128 0x31
 4088 0236 13       		.uleb128 0x13
 4089 0237 02       		.uleb128 0x2
 4090 0238 17       		.uleb128 0x17
 4091 0239 00       		.byte	0
 4092 023a 00       		.byte	0
 4093 023b 2B       		.uleb128 0x2b
 4094 023c 898201   		.uleb128 0x4109
 4095 023f 00       		.byte	0
 4096 0240 11       		.uleb128 0x11
 4097 0241 01       		.uleb128 0x1
 4098 0242 31       		.uleb128 0x31
 4099 0243 13       		.uleb128 0x13
 4100 0244 00       		.byte	0
 4101 0245 00       		.byte	0
 4102 0246 2C       		.uleb128 0x2c
 4103 0247 0B       		.uleb128 0xb
 4104 0248 01       		.byte	0x1
 4105 0249 11       		.uleb128 0x11
 4106 024a 01       		.uleb128 0x1
 4107 024b 12       		.uleb128 0x12
 4108 024c 06       		.uleb128 0x6
 4109 024d 00       		.byte	0
 4110 024e 00       		.byte	0
 4111 024f 2D       		.uleb128 0x2d
 4112 0250 0B       		.uleb128 0xb
 4113 0251 01       		.byte	0x1
 4114 0252 55       		.uleb128 0x55
 4115 0253 17       		.uleb128 0x17
 4116 0254 01       		.uleb128 0x1
 4117 0255 13       		.uleb128 0x13
 4118 0256 00       		.byte	0
 4119 0257 00       		.byte	0
 4120 0258 2E       		.uleb128 0x2e
 4121 0259 01       		.uleb128 0x1
 4122 025a 01       		.byte	0x1
 4123 025b 49       		.uleb128 0x49
 4124 025c 13       		.uleb128 0x13
 4125 025d 01       		.uleb128 0x1
 4126 025e 13       		.uleb128 0x13
ARM GAS  C:\Users\haske\AppData\Local\Temp\ccF9IbRI.s 			page 96


 4127 025f 00       		.byte	0
 4128 0260 00       		.byte	0
 4129 0261 2F       		.uleb128 0x2f
 4130 0262 21       		.uleb128 0x21
 4131 0263 00       		.byte	0
 4132 0264 49       		.uleb128 0x49
 4133 0265 13       		.uleb128 0x13
 4134 0266 2F       		.uleb128 0x2f
 4135 0267 0B       		.uleb128 0xb
 4136 0268 00       		.byte	0
 4137 0269 00       		.byte	0
 4138 026a 30       		.uleb128 0x30
 4139 026b 2E       		.uleb128 0x2e
 4140 026c 01       		.byte	0x1
 4141 026d 3F       		.uleb128 0x3f
 4142 026e 19       		.uleb128 0x19
 4143 026f 03       		.uleb128 0x3
 4144 0270 0E       		.uleb128 0xe
 4145 0271 3A       		.uleb128 0x3a
 4146 0272 0B       		.uleb128 0xb
 4147 0273 3B       		.uleb128 0x3b
 4148 0274 0B       		.uleb128 0xb
 4149 0275 27       		.uleb128 0x27
 4150 0276 19       		.uleb128 0x19
 4151 0277 11       		.uleb128 0x11
 4152 0278 01       		.uleb128 0x1
 4153 0279 12       		.uleb128 0x12
 4154 027a 06       		.uleb128 0x6
 4155 027b 40       		.uleb128 0x40
 4156 027c 18       		.uleb128 0x18
 4157 027d 9742     		.uleb128 0x2117
 4158 027f 19       		.uleb128 0x19
 4159 0280 01       		.uleb128 0x1
 4160 0281 13       		.uleb128 0x13
 4161 0282 00       		.byte	0
 4162 0283 00       		.byte	0
 4163 0284 31       		.uleb128 0x31
 4164 0285 05       		.uleb128 0x5
 4165 0286 00       		.byte	0
 4166 0287 03       		.uleb128 0x3
 4167 0288 08       		.uleb128 0x8
 4168 0289 3A       		.uleb128 0x3a
 4169 028a 0B       		.uleb128 0xb
 4170 028b 3B       		.uleb128 0x3b
 4171 028c 0B       		.uleb128 0xb
 4172 028d 49       		.uleb128 0x49
 4173 028e 13       		.uleb128 0x13
 4174 028f 02       		.uleb128 0x2
 4175 0290 18       		.uleb128 0x18
 4176 0291 00       		.byte	0
 4177 0292 00       		.byte	0
 4178 0293 32       		.uleb128 0x32
 4179 0294 34       		.uleb128 0x34
 4180 0295 00       		.byte	0
 4181 0296 03       		.uleb128 0x3
 4182 0297 08       		.uleb128 0x8
 4183 0298 3A       		.uleb128 0x3a
ARM GAS  C:\Users\haske\AppData\Local\Temp\ccF9IbRI.s 			page 97


 4184 0299 0B       		.uleb128 0xb
 4185 029a 3B       		.uleb128 0x3b
 4186 029b 05       		.uleb128 0x5
 4187 029c 49       		.uleb128 0x49
 4188 029d 13       		.uleb128 0x13
 4189 029e 02       		.uleb128 0x2
 4190 029f 17       		.uleb128 0x17
 4191 02a0 00       		.byte	0
 4192 02a1 00       		.byte	0
 4193 02a2 33       		.uleb128 0x33
 4194 02a3 2E       		.uleb128 0x2e
 4195 02a4 01       		.byte	0x1
 4196 02a5 3F       		.uleb128 0x3f
 4197 02a6 19       		.uleb128 0x19
 4198 02a7 03       		.uleb128 0x3
 4199 02a8 0E       		.uleb128 0xe
 4200 02a9 3A       		.uleb128 0x3a
 4201 02aa 0B       		.uleb128 0xb
 4202 02ab 3B       		.uleb128 0x3b
 4203 02ac 05       		.uleb128 0x5
 4204 02ad 27       		.uleb128 0x27
 4205 02ae 19       		.uleb128 0x19
 4206 02af 11       		.uleb128 0x11
 4207 02b0 01       		.uleb128 0x1
 4208 02b1 12       		.uleb128 0x12
 4209 02b2 06       		.uleb128 0x6
 4210 02b3 40       		.uleb128 0x40
 4211 02b4 18       		.uleb128 0x18
 4212 02b5 9742     		.uleb128 0x2117
 4213 02b7 19       		.uleb128 0x19
 4214 02b8 01       		.uleb128 0x1
 4215 02b9 13       		.uleb128 0x13
 4216 02ba 00       		.byte	0
 4217 02bb 00       		.byte	0
 4218 02bc 34       		.uleb128 0x34
 4219 02bd 05       		.uleb128 0x5
 4220 02be 00       		.byte	0
 4221 02bf 03       		.uleb128 0x3
 4222 02c0 08       		.uleb128 0x8
 4223 02c1 3A       		.uleb128 0x3a
 4224 02c2 0B       		.uleb128 0xb
 4225 02c3 3B       		.uleb128 0x3b
 4226 02c4 05       		.uleb128 0x5
 4227 02c5 49       		.uleb128 0x49
 4228 02c6 13       		.uleb128 0x13
 4229 02c7 02       		.uleb128 0x2
 4230 02c8 17       		.uleb128 0x17
 4231 02c9 00       		.byte	0
 4232 02ca 00       		.byte	0
 4233 02cb 35       		.uleb128 0x35
 4234 02cc 34       		.uleb128 0x34
 4235 02cd 00       		.byte	0
 4236 02ce 03       		.uleb128 0x3
 4237 02cf 08       		.uleb128 0x8
 4238 02d0 3A       		.uleb128 0x3a
 4239 02d1 0B       		.uleb128 0xb
 4240 02d2 3B       		.uleb128 0x3b
ARM GAS  C:\Users\haske\AppData\Local\Temp\ccF9IbRI.s 			page 98


 4241 02d3 05       		.uleb128 0x5
 4242 02d4 49       		.uleb128 0x49
 4243 02d5 13       		.uleb128 0x13
 4244 02d6 02       		.uleb128 0x2
 4245 02d7 18       		.uleb128 0x18
 4246 02d8 00       		.byte	0
 4247 02d9 00       		.byte	0
 4248 02da 36       		.uleb128 0x36
 4249 02db 1D       		.uleb128 0x1d
 4250 02dc 01       		.byte	0x1
 4251 02dd 31       		.uleb128 0x31
 4252 02de 13       		.uleb128 0x13
 4253 02df 11       		.uleb128 0x11
 4254 02e0 01       		.uleb128 0x1
 4255 02e1 12       		.uleb128 0x12
 4256 02e2 06       		.uleb128 0x6
 4257 02e3 58       		.uleb128 0x58
 4258 02e4 0B       		.uleb128 0xb
 4259 02e5 59       		.uleb128 0x59
 4260 02e6 05       		.uleb128 0x5
 4261 02e7 01       		.uleb128 0x1
 4262 02e8 13       		.uleb128 0x13
 4263 02e9 00       		.byte	0
 4264 02ea 00       		.byte	0
 4265 02eb 37       		.uleb128 0x37
 4266 02ec 05       		.uleb128 0x5
 4267 02ed 00       		.byte	0
 4268 02ee 31       		.uleb128 0x31
 4269 02ef 13       		.uleb128 0x13
 4270 02f0 00       		.byte	0
 4271 02f1 00       		.byte	0
 4272 02f2 38       		.uleb128 0x38
 4273 02f3 898201   		.uleb128 0x4109
 4274 02f6 01       		.byte	0x1
 4275 02f7 11       		.uleb128 0x11
 4276 02f8 01       		.uleb128 0x1
 4277 02f9 31       		.uleb128 0x31
 4278 02fa 13       		.uleb128 0x13
 4279 02fb 00       		.byte	0
 4280 02fc 00       		.byte	0
 4281 02fd 39       		.uleb128 0x39
 4282 02fe 8A8201   		.uleb128 0x410a
 4283 0301 00       		.byte	0
 4284 0302 02       		.uleb128 0x2
 4285 0303 18       		.uleb128 0x18
 4286 0304 9142     		.uleb128 0x2111
 4287 0306 18       		.uleb128 0x18
 4288 0307 00       		.byte	0
 4289 0308 00       		.byte	0
 4290 0309 3A       		.uleb128 0x3a
 4291 030a 2E       		.uleb128 0x2e
 4292 030b 01       		.byte	0x1
 4293 030c 3F       		.uleb128 0x3f
 4294 030d 19       		.uleb128 0x19
 4295 030e 03       		.uleb128 0x3
 4296 030f 0E       		.uleb128 0xe
 4297 0310 3A       		.uleb128 0x3a
ARM GAS  C:\Users\haske\AppData\Local\Temp\ccF9IbRI.s 			page 99


 4298 0311 0B       		.uleb128 0xb
 4299 0312 3B       		.uleb128 0x3b
 4300 0313 05       		.uleb128 0x5
 4301 0314 27       		.uleb128 0x27
 4302 0315 19       		.uleb128 0x19
 4303 0316 49       		.uleb128 0x49
 4304 0317 13       		.uleb128 0x13
 4305 0318 11       		.uleb128 0x11
 4306 0319 01       		.uleb128 0x1
 4307 031a 12       		.uleb128 0x12
 4308 031b 06       		.uleb128 0x6
 4309 031c 40       		.uleb128 0x40
 4310 031d 18       		.uleb128 0x18
 4311 031e 9742     		.uleb128 0x2117
 4312 0320 19       		.uleb128 0x19
 4313 0321 01       		.uleb128 0x1
 4314 0322 13       		.uleb128 0x13
 4315 0323 00       		.byte	0
 4316 0324 00       		.byte	0
 4317 0325 3B       		.uleb128 0x3b
 4318 0326 898201   		.uleb128 0x4109
 4319 0329 01       		.byte	0x1
 4320 032a 11       		.uleb128 0x11
 4321 032b 01       		.uleb128 0x1
 4322 032c 31       		.uleb128 0x31
 4323 032d 13       		.uleb128 0x13
 4324 032e 01       		.uleb128 0x1
 4325 032f 13       		.uleb128 0x13
 4326 0330 00       		.byte	0
 4327 0331 00       		.byte	0
 4328 0332 3C       		.uleb128 0x3c
 4329 0333 05       		.uleb128 0x5
 4330 0334 00       		.byte	0
 4331 0335 03       		.uleb128 0x3
 4332 0336 0E       		.uleb128 0xe
 4333 0337 3A       		.uleb128 0x3a
 4334 0338 0B       		.uleb128 0xb
 4335 0339 3B       		.uleb128 0x3b
 4336 033a 05       		.uleb128 0x5
 4337 033b 49       		.uleb128 0x49
 4338 033c 13       		.uleb128 0x13
 4339 033d 02       		.uleb128 0x2
 4340 033e 17       		.uleb128 0x17
 4341 033f 00       		.byte	0
 4342 0340 00       		.byte	0
 4343 0341 3D       		.uleb128 0x3d
 4344 0342 05       		.uleb128 0x5
 4345 0343 00       		.byte	0
 4346 0344 03       		.uleb128 0x3
 4347 0345 0E       		.uleb128 0xe
 4348 0346 3A       		.uleb128 0x3a
 4349 0347 0B       		.uleb128 0xb
 4350 0348 3B       		.uleb128 0x3b
 4351 0349 05       		.uleb128 0x5
 4352 034a 49       		.uleb128 0x49
 4353 034b 13       		.uleb128 0x13
 4354 034c 02       		.uleb128 0x2
ARM GAS  C:\Users\haske\AppData\Local\Temp\ccF9IbRI.s 			page 100


 4355 034d 18       		.uleb128 0x18
 4356 034e 00       		.byte	0
 4357 034f 00       		.byte	0
 4358 0350 3E       		.uleb128 0x3e
 4359 0351 34       		.uleb128 0x34
 4360 0352 00       		.byte	0
 4361 0353 03       		.uleb128 0x3
 4362 0354 0E       		.uleb128 0xe
 4363 0355 3A       		.uleb128 0x3a
 4364 0356 0B       		.uleb128 0xb
 4365 0357 3B       		.uleb128 0x3b
 4366 0358 0B       		.uleb128 0xb
 4367 0359 49       		.uleb128 0x49
 4368 035a 13       		.uleb128 0x13
 4369 035b 3F       		.uleb128 0x3f
 4370 035c 19       		.uleb128 0x19
 4371 035d 3C       		.uleb128 0x3c
 4372 035e 19       		.uleb128 0x19
 4373 035f 00       		.byte	0
 4374 0360 00       		.byte	0
 4375 0361 3F       		.uleb128 0x3f
 4376 0362 2E       		.uleb128 0x2e
 4377 0363 00       		.byte	0
 4378 0364 3F       		.uleb128 0x3f
 4379 0365 19       		.uleb128 0x19
 4380 0366 3C       		.uleb128 0x3c
 4381 0367 19       		.uleb128 0x19
 4382 0368 6E       		.uleb128 0x6e
 4383 0369 0E       		.uleb128 0xe
 4384 036a 03       		.uleb128 0x3
 4385 036b 0E       		.uleb128 0xe
 4386 036c 3A       		.uleb128 0x3a
 4387 036d 0B       		.uleb128 0xb
 4388 036e 3B       		.uleb128 0x3b
 4389 036f 0B       		.uleb128 0xb
 4390 0370 00       		.byte	0
 4391 0371 00       		.byte	0
 4392 0372 00       		.byte	0
 4393              		.section	.debug_loc,"",%progbits
 4394              	.Ldebug_loc0:
 4395              	.LLST0:
 4396 0000 00000000 		.4byte	.LVL0
 4397 0004 2C000000 		.4byte	.LVL4
 4398 0008 0100     		.2byte	0x1
 4399 000a 50       		.byte	0x50
 4400 000b 2C000000 		.4byte	.LVL4
 4401 000f 5C000000 		.4byte	.LVL14
 4402 0013 0100     		.2byte	0x1
 4403 0015 54       		.byte	0x54
 4404 0016 5C000000 		.4byte	.LVL14
 4405 001a 66000000 		.4byte	.LVL17
 4406 001e 0100     		.2byte	0x1
 4407 0020 50       		.byte	0x50
 4408 0021 66000000 		.4byte	.LVL17
 4409 0025 8C000000 		.4byte	.LVL22
 4410 0029 0400     		.2byte	0x4
 4411 002b F3       		.byte	0xf3
ARM GAS  C:\Users\haske\AppData\Local\Temp\ccF9IbRI.s 			page 101


 4412 002c 01       		.uleb128 0x1
 4413 002d 50       		.byte	0x50
 4414 002e 9F       		.byte	0x9f
 4415 002f 8C000000 		.4byte	.LVL22
 4416 0033 98000000 		.4byte	.LVL25
 4417 0037 0100     		.2byte	0x1
 4418 0039 50       		.byte	0x50
 4419 003a 98000000 		.4byte	.LVL25
 4420 003e BE000000 		.4byte	.LVL30
 4421 0042 0400     		.2byte	0x4
 4422 0044 F3       		.byte	0xf3
 4423 0045 01       		.uleb128 0x1
 4424 0046 50       		.byte	0x50
 4425 0047 9F       		.byte	0x9f
 4426 0048 BE000000 		.4byte	.LVL30
 4427 004c CC000000 		.4byte	.LVL34
 4428 0050 0100     		.2byte	0x1
 4429 0052 50       		.byte	0x50
 4430 0053 CC000000 		.4byte	.LVL34
 4431 0057 F6000000 		.4byte	.LVL39
 4432 005b 0400     		.2byte	0x4
 4433 005d F3       		.byte	0xf3
 4434 005e 01       		.uleb128 0x1
 4435 005f 50       		.byte	0x50
 4436 0060 9F       		.byte	0x9f
 4437 0061 F6000000 		.4byte	.LVL39
 4438 0065 FC000000 		.4byte	.LVL41
 4439 0069 0100     		.2byte	0x1
 4440 006b 50       		.byte	0x50
 4441 006c FC000000 		.4byte	.LVL41
 4442 0070 10010000 		.4byte	.LVL44
 4443 0074 0400     		.2byte	0x4
 4444 0076 F3       		.byte	0xf3
 4445 0077 01       		.uleb128 0x1
 4446 0078 50       		.byte	0x50
 4447 0079 9F       		.byte	0x9f
 4448 007a 10010000 		.4byte	.LVL44
 4449 007e 1C010000 		.4byte	.LVL45
 4450 0082 0100     		.2byte	0x1
 4451 0084 50       		.byte	0x50
 4452 0085 1C010000 		.4byte	.LVL45
 4453 0089 24010000 		.4byte	.LFE54
 4454 008d 0400     		.2byte	0x4
 4455 008f F3       		.byte	0xf3
 4456 0090 01       		.uleb128 0x1
 4457 0091 50       		.byte	0x50
 4458 0092 9F       		.byte	0x9f
 4459 0093 00000000 		.4byte	0
 4460 0097 00000000 		.4byte	0
 4461              	.LLST1:
 4462 009b 00000000 		.4byte	.LVL0
 4463 009f 33000000 		.4byte	.LVL5-1
 4464 00a3 0100     		.2byte	0x1
 4465 00a5 51       		.byte	0x51
 4466 00a6 33000000 		.4byte	.LVL5-1
 4467 00aa 5C000000 		.4byte	.LVL14
 4468 00ae 0400     		.2byte	0x4
ARM GAS  C:\Users\haske\AppData\Local\Temp\ccF9IbRI.s 			page 102


 4469 00b0 F3       		.byte	0xf3
 4470 00b1 01       		.uleb128 0x1
 4471 00b2 51       		.byte	0x51
 4472 00b3 9F       		.byte	0x9f
 4473 00b4 5C000000 		.4byte	.LVL14
 4474 00b8 64000000 		.4byte	.LVL16
 4475 00bc 0100     		.2byte	0x1
 4476 00be 51       		.byte	0x51
 4477 00bf 64000000 		.4byte	.LVL16
 4478 00c3 76000000 		.4byte	.LVL19
 4479 00c7 0500     		.2byte	0x5
 4480 00c9 71       		.byte	0x71
 4481 00ca 00       		.sleb128 0
 4482 00cb 33       		.byte	0x33
 4483 00cc 26       		.byte	0x26
 4484 00cd 9F       		.byte	0x9f
 4485 00ce 8C000000 		.4byte	.LVL22
 4486 00d2 96000000 		.4byte	.LVL24
 4487 00d6 0100     		.2byte	0x1
 4488 00d8 51       		.byte	0x51
 4489 00d9 96000000 		.4byte	.LVL24
 4490 00dd A8000000 		.4byte	.LVL27
 4491 00e1 0500     		.2byte	0x5
 4492 00e3 71       		.byte	0x71
 4493 00e4 00       		.sleb128 0
 4494 00e5 32       		.byte	0x32
 4495 00e6 26       		.byte	0x26
 4496 00e7 9F       		.byte	0x9f
 4497 00e8 BE000000 		.4byte	.LVL30
 4498 00ec CA000000 		.4byte	.LVL33
 4499 00f0 0100     		.2byte	0x1
 4500 00f2 51       		.byte	0x51
 4501 00f3 CA000000 		.4byte	.LVL33
 4502 00f7 DC000000 		.4byte	.LVL36
 4503 00fb 0500     		.2byte	0x5
 4504 00fd 71       		.byte	0x71
 4505 00fe 00       		.sleb128 0
 4506 00ff 31       		.byte	0x31
 4507 0100 26       		.byte	0x26
 4508 0101 9F       		.byte	0x9f
 4509 0102 F6000000 		.4byte	.LVL39
 4510 0106 1C010000 		.4byte	.LVL45
 4511 010a 0100     		.2byte	0x1
 4512 010c 51       		.byte	0x51
 4513 010d 00000000 		.4byte	0
 4514 0111 00000000 		.4byte	0
 4515              	.LLST2:
 4516 0115 00000000 		.4byte	.LVL0
 4517 0119 33000000 		.4byte	.LVL5-1
 4518 011d 0100     		.2byte	0x1
 4519 011f 52       		.byte	0x52
 4520 0120 33000000 		.4byte	.LVL5-1
 4521 0124 5C000000 		.4byte	.LVL14
 4522 0128 0400     		.2byte	0x4
 4523 012a F3       		.byte	0xf3
 4524 012b 01       		.uleb128 0x1
 4525 012c 52       		.byte	0x52
ARM GAS  C:\Users\haske\AppData\Local\Temp\ccF9IbRI.s 			page 103


 4526 012d 9F       		.byte	0x9f
 4527 012e 5C000000 		.4byte	.LVL14
 4528 0132 72000000 		.4byte	.LVL18
 4529 0136 0100     		.2byte	0x1
 4530 0138 52       		.byte	0x52
 4531 0139 72000000 		.4byte	.LVL18
 4532 013d 8C000000 		.4byte	.LVL22
 4533 0141 0400     		.2byte	0x4
 4534 0143 F3       		.byte	0xf3
 4535 0144 01       		.uleb128 0x1
 4536 0145 52       		.byte	0x52
 4537 0146 9F       		.byte	0x9f
 4538 0147 8C000000 		.4byte	.LVL22
 4539 014b A4000000 		.4byte	.LVL26
 4540 014f 0100     		.2byte	0x1
 4541 0151 52       		.byte	0x52
 4542 0152 A4000000 		.4byte	.LVL26
 4543 0156 BE000000 		.4byte	.LVL30
 4544 015a 0400     		.2byte	0x4
 4545 015c F3       		.byte	0xf3
 4546 015d 01       		.uleb128 0x1
 4547 015e 52       		.byte	0x52
 4548 015f 9F       		.byte	0x9f
 4549 0160 BE000000 		.4byte	.LVL30
 4550 0164 D8000000 		.4byte	.LVL35
 4551 0168 0100     		.2byte	0x1
 4552 016a 52       		.byte	0x52
 4553 016b D8000000 		.4byte	.LVL35
 4554 016f F6000000 		.4byte	.LVL39
 4555 0173 0400     		.2byte	0x4
 4556 0175 F3       		.byte	0xf3
 4557 0176 01       		.uleb128 0x1
 4558 0177 52       		.byte	0x52
 4559 0178 9F       		.byte	0x9f
 4560 0179 F6000000 		.4byte	.LVL39
 4561 017d 04010000 		.4byte	.LVL42
 4562 0181 0100     		.2byte	0x1
 4563 0183 52       		.byte	0x52
 4564 0184 04010000 		.4byte	.LVL42
 4565 0188 10010000 		.4byte	.LVL44
 4566 018c 0400     		.2byte	0x4
 4567 018e F3       		.byte	0xf3
 4568 018f 01       		.uleb128 0x1
 4569 0190 52       		.byte	0x52
 4570 0191 9F       		.byte	0x9f
 4571 0192 10010000 		.4byte	.LVL44
 4572 0196 1C010000 		.4byte	.LVL45
 4573 019a 0100     		.2byte	0x1
 4574 019c 52       		.byte	0x52
 4575 019d 1C010000 		.4byte	.LVL45
 4576 01a1 24010000 		.4byte	.LFE54
 4577 01a5 0400     		.2byte	0x4
 4578 01a7 F3       		.byte	0xf3
 4579 01a8 01       		.uleb128 0x1
 4580 01a9 52       		.byte	0x52
 4581 01aa 9F       		.byte	0x9f
 4582 01ab 00000000 		.4byte	0
ARM GAS  C:\Users\haske\AppData\Local\Temp\ccF9IbRI.s 			page 104


 4583 01af 00000000 		.4byte	0
 4584              	.LLST3:
 4585 01b3 00000000 		.4byte	.LVL0
 4586 01b7 33000000 		.4byte	.LVL5-1
 4587 01bb 0100     		.2byte	0x1
 4588 01bd 53       		.byte	0x53
 4589 01be 5C000000 		.4byte	.LVL14
 4590 01c2 7A000000 		.4byte	.LVL20
 4591 01c6 0100     		.2byte	0x1
 4592 01c8 53       		.byte	0x53
 4593 01c9 8C000000 		.4byte	.LVL22
 4594 01cd AC000000 		.4byte	.LVL28
 4595 01d1 0100     		.2byte	0x1
 4596 01d3 53       		.byte	0x53
 4597 01d4 BE000000 		.4byte	.LVL30
 4598 01d8 C6000000 		.4byte	.LVL32
 4599 01dc 0100     		.2byte	0x1
 4600 01de 53       		.byte	0x53
 4601 01df F6000000 		.4byte	.LVL39
 4602 01e3 0A010000 		.4byte	.LVL43
 4603 01e7 0100     		.2byte	0x1
 4604 01e9 53       		.byte	0x53
 4605 01ea 10010000 		.4byte	.LVL44
 4606 01ee 24010000 		.4byte	.LFE54
 4607 01f2 0100     		.2byte	0x1
 4608 01f4 53       		.byte	0x53
 4609 01f5 00000000 		.4byte	0
 4610 01f9 00000000 		.4byte	0
 4611              	.LLST4:
 4612 01fd 0E000000 		.4byte	.LVL3
 4613 0201 60000000 		.4byte	.LVL15
 4614 0205 0100     		.2byte	0x1
 4615 0207 55       		.byte	0x55
 4616 0208 60000000 		.4byte	.LVL15
 4617 020c 8C000000 		.4byte	.LVL22
 4618 0210 0300     		.2byte	0x3
 4619 0212 75       		.byte	0x75
 4620 0213 08       		.sleb128 8
 4621 0214 9F       		.byte	0x9f
 4622 0215 8C000000 		.4byte	.LVL22
 4623 0219 90000000 		.4byte	.LVL23
 4624 021d 0100     		.2byte	0x1
 4625 021f 55       		.byte	0x55
 4626 0220 90000000 		.4byte	.LVL23
 4627 0224 BE000000 		.4byte	.LVL30
 4628 0228 0300     		.2byte	0x3
 4629 022a 75       		.byte	0x75
 4630 022b 10       		.sleb128 16
 4631 022c 9F       		.byte	0x9f
 4632 022d BE000000 		.4byte	.LVL30
 4633 0231 C2000000 		.4byte	.LVL31
 4634 0235 0100     		.2byte	0x1
 4635 0237 55       		.byte	0x55
 4636 0238 C2000000 		.4byte	.LVL31
 4637 023c F6000000 		.4byte	.LVL39
 4638 0240 0400     		.2byte	0x4
 4639 0242 75       		.byte	0x75
ARM GAS  C:\Users\haske\AppData\Local\Temp\ccF9IbRI.s 			page 105


 4640 0243 C000     		.sleb128 64
 4641 0245 9F       		.byte	0x9f
 4642 0246 F6000000 		.4byte	.LVL39
 4643 024a FA000000 		.4byte	.LVL40
 4644 024e 0100     		.2byte	0x1
 4645 0250 55       		.byte	0x55
 4646 0251 FA000000 		.4byte	.LVL40
 4647 0255 10010000 		.4byte	.LVL44
 4648 0259 0400     		.2byte	0x4
 4649 025b 75       		.byte	0x75
 4650 025c 8008     		.sleb128 1024
 4651 025e 9F       		.byte	0x9f
 4652 025f 10010000 		.4byte	.LVL44
 4653 0263 1C010000 		.4byte	.LVL45
 4654 0267 0100     		.2byte	0x1
 4655 0269 55       		.byte	0x55
 4656 026a 00000000 		.4byte	0
 4657 026e 00000000 		.4byte	0
 4658              	.LLST5:
 4659 0272 04000000 		.4byte	.LVL1
 4660 0276 08000000 		.4byte	.LVL2
 4661 027a 0200     		.2byte	0x2
 4662 027c 30       		.byte	0x30
 4663 027d 9F       		.byte	0x9f
 4664 027e 00000000 		.4byte	0
 4665 0282 00000000 		.4byte	0
 4666              	.LLST8:
 4667 0286 38000000 		.4byte	.LVL6
 4668 028a 46000000 		.4byte	.LVL8
 4669 028e 0100     		.2byte	0x1
 4670 0290 50       		.byte	0x50
 4671 0291 00000000 		.4byte	0
 4672 0295 00000000 		.4byte	0
 4673              	.LLST9:
 4674 0299 42000000 		.4byte	.LVL7
 4675 029d 46000000 		.4byte	.LVL8
 4676 02a1 0600     		.2byte	0x6
 4677 02a3 70       		.byte	0x70
 4678 02a4 00       		.sleb128 0
 4679 02a5 72       		.byte	0x72
 4680 02a6 00       		.sleb128 0
 4681 02a7 1E       		.byte	0x1e
 4682 02a8 9F       		.byte	0x9f
 4683 02a9 00000000 		.4byte	0
 4684 02ad 00000000 		.4byte	0
 4685              	.LLST10:
 4686 02b1 46000000 		.4byte	.LVL8
 4687 02b5 4C000000 		.4byte	.LVL10
 4688 02b9 0200     		.2byte	0x2
 4689 02bb 32       		.byte	0x32
 4690 02bc 9F       		.byte	0x9f
 4691 02bd 4C000000 		.4byte	.LVL10
 4692 02c1 5C000000 		.4byte	.LVL14
 4693 02c5 0100     		.2byte	0x1
 4694 02c7 53       		.byte	0x53
 4695 02c8 00000000 		.4byte	0
 4696 02cc 00000000 		.4byte	0
ARM GAS  C:\Users\haske\AppData\Local\Temp\ccF9IbRI.s 			page 106


 4697              	.LLST11:
 4698 02d0 46000000 		.4byte	.LVL8
 4699 02d4 4C000000 		.4byte	.LVL10
 4700 02d8 0100     		.2byte	0x1
 4701 02da 50       		.byte	0x50
 4702 02db 00000000 		.4byte	0
 4703 02df 00000000 		.4byte	0
 4704              	.LLST12:
 4705 02e3 46000000 		.4byte	.LVL8
 4706 02e7 48000000 		.4byte	.LVL9
 4707 02eb 0300     		.2byte	0x3
 4708 02ed 91       		.byte	0x91
 4709 02ee 64       		.sleb128 -28
 4710 02ef 9F       		.byte	0x9f
 4711 02f0 48000000 		.4byte	.LVL9
 4712 02f4 4C000000 		.4byte	.LVL10
 4713 02f8 0100     		.2byte	0x1
 4714 02fa 52       		.byte	0x52
 4715 02fb 4C000000 		.4byte	.LVL10
 4716 02ff 5C000000 		.4byte	.LVL14
 4717 0303 0300     		.2byte	0x3
 4718 0305 91       		.byte	0x91
 4719 0306 64       		.sleb128 -28
 4720 0307 9F       		.byte	0x9f
 4721 0308 00000000 		.4byte	0
 4722 030c 00000000 		.4byte	0
 4723              	.LLST13:
 4724 0310 46000000 		.4byte	.LVL8
 4725 0314 48000000 		.4byte	.LVL9
 4726 0318 0300     		.2byte	0x3
 4727 031a 91       		.byte	0x91
 4728 031b 64       		.sleb128 -28
 4729 031c 9F       		.byte	0x9f
 4730 031d 48000000 		.4byte	.LVL9
 4731 0321 5C000000 		.4byte	.LVL14
 4732 0325 0100     		.2byte	0x1
 4733 0327 52       		.byte	0x52
 4734 0328 00000000 		.4byte	0
 4735 032c 00000000 		.4byte	0
 4736              	.LLST14:
 4737 0330 46000000 		.4byte	.LVL8
 4738 0334 50000000 		.4byte	.LVL11
 4739 0338 0100     		.2byte	0x1
 4740 033a 50       		.byte	0x50
 4741 033b 50000000 		.4byte	.LVL11
 4742 033f 54000000 		.4byte	.LVL12
 4743 0343 0300     		.2byte	0x3
 4744 0345 70       		.byte	0x70
 4745 0346 7F       		.sleb128 -1
 4746 0347 9F       		.byte	0x9f
 4747 0348 54000000 		.4byte	.LVL12
 4748 034c 5C000000 		.4byte	.LVL14
 4749 0350 0100     		.2byte	0x1
 4750 0352 50       		.byte	0x50
 4751 0353 00000000 		.4byte	0
 4752 0357 00000000 		.4byte	0
 4753              	.LLST15:
ARM GAS  C:\Users\haske\AppData\Local\Temp\ccF9IbRI.s 			page 107


 4754 035b 64000000 		.4byte	.LVL16
 4755 035f 8C000000 		.4byte	.LVL22
 4756 0363 0100     		.2byte	0x1
 4757 0365 54       		.byte	0x54
 4758 0366 00000000 		.4byte	0
 4759 036a 00000000 		.4byte	0
 4760              	.LLST16:
 4761 036e 76000000 		.4byte	.LVL19
 4762 0372 7E000000 		.4byte	.LVL21
 4763 0376 0100     		.2byte	0x1
 4764 0378 51       		.byte	0x51
 4765 0379 00000000 		.4byte	0
 4766 037d 00000000 		.4byte	0
 4767              	.LLST17:
 4768 0381 96000000 		.4byte	.LVL24
 4769 0385 BE000000 		.4byte	.LVL30
 4770 0389 0100     		.2byte	0x1
 4771 038b 54       		.byte	0x54
 4772 038c 00000000 		.4byte	0
 4773 0390 00000000 		.4byte	0
 4774              	.LLST18:
 4775 0394 A8000000 		.4byte	.LVL27
 4776 0398 B0000000 		.4byte	.LVL29
 4777 039c 0100     		.2byte	0x1
 4778 039e 51       		.byte	0x51
 4779 039f 00000000 		.4byte	0
 4780 03a3 00000000 		.4byte	0
 4781              	.LLST19:
 4782 03a7 CA000000 		.4byte	.LVL33
 4783 03ab E6000000 		.4byte	.LVL38
 4784 03af 0100     		.2byte	0x1
 4785 03b1 53       		.byte	0x53
 4786 03b2 00000000 		.4byte	0
 4787 03b6 00000000 		.4byte	0
 4788              	.LLST20:
 4789 03ba DC000000 		.4byte	.LVL36
 4790 03be E2000000 		.4byte	.LVL37
 4791 03c2 0100     		.2byte	0x1
 4792 03c4 51       		.byte	0x51
 4793 03c5 00000000 		.4byte	0
 4794 03c9 00000000 		.4byte	0
 4795              	.LLST21:
 4796 03cd 04010000 		.4byte	.LVL42
 4797 03d1 10010000 		.4byte	.LVL44
 4798 03d5 0100     		.2byte	0x1
 4799 03d7 52       		.byte	0x52
 4800 03d8 00000000 		.4byte	0
 4801 03dc 00000000 		.4byte	0
 4802              	.LLST22:
 4803 03e0 00000000 		.4byte	.LVL46
 4804 03e4 28000000 		.4byte	.LVL51
 4805 03e8 0100     		.2byte	0x1
 4806 03ea 50       		.byte	0x50
 4807 03eb 28000000 		.4byte	.LVL51
 4808 03ef 2A000000 		.4byte	.LVL52
 4809 03f3 0100     		.2byte	0x1
 4810 03f5 54       		.byte	0x54
ARM GAS  C:\Users\haske\AppData\Local\Temp\ccF9IbRI.s 			page 108


 4811 03f6 2A000000 		.4byte	.LVL52
 4812 03fa 5A000000 		.4byte	.LVL59
 4813 03fe 0100     		.2byte	0x1
 4814 0400 50       		.byte	0x50
 4815 0401 5A000000 		.4byte	.LVL59
 4816 0405 5C000000 		.4byte	.LVL60
 4817 0409 0100     		.2byte	0x1
 4818 040b 54       		.byte	0x54
 4819 040c 5C000000 		.4byte	.LVL60
 4820 0410 64000000 		.4byte	.LVL61
 4821 0414 0100     		.2byte	0x1
 4822 0416 50       		.byte	0x50
 4823 0417 64000000 		.4byte	.LVL61
 4824 041b 98000000 		.4byte	.LVL69
 4825 041f 0100     		.2byte	0x1
 4826 0421 54       		.byte	0x54
 4827 0422 98000000 		.4byte	.LVL69
 4828 0426 A4000000 		.4byte	.LVL70
 4829 042a 0100     		.2byte	0x1
 4830 042c 50       		.byte	0x50
 4831 042d A4000000 		.4byte	.LVL70
 4832 0431 E0000000 		.4byte	.LVL79
 4833 0435 0100     		.2byte	0x1
 4834 0437 54       		.byte	0x54
 4835 0438 E0000000 		.4byte	.LVL79
 4836 043c F0000000 		.4byte	.LVL82
 4837 0440 0100     		.2byte	0x1
 4838 0442 50       		.byte	0x50
 4839 0443 F0000000 		.4byte	.LVL82
 4840 0447 F2000000 		.4byte	.LVL83
 4841 044b 0100     		.2byte	0x1
 4842 044d 54       		.byte	0x54
 4843 044e F2000000 		.4byte	.LVL83
 4844 0452 F4000000 		.4byte	.LVL84
 4845 0456 0100     		.2byte	0x1
 4846 0458 50       		.byte	0x50
 4847 0459 F4000000 		.4byte	.LVL84
 4848 045d F6000000 		.4byte	.LVL85
 4849 0461 0100     		.2byte	0x1
 4850 0463 54       		.byte	0x54
 4851 0464 F6000000 		.4byte	.LVL85
 4852 0468 F8000000 		.4byte	.LVL86
 4853 046c 0100     		.2byte	0x1
 4854 046e 50       		.byte	0x50
 4855 046f F8000000 		.4byte	.LVL86
 4856 0473 FC000000 		.4byte	.LVL87
 4857 0477 0100     		.2byte	0x1
 4858 0479 54       		.byte	0x54
 4859 047a FC000000 		.4byte	.LVL87
 4860 047e 00010000 		.4byte	.LFE55
 4861 0482 0400     		.2byte	0x4
 4862 0484 F3       		.byte	0xf3
 4863 0485 01       		.uleb128 0x1
 4864 0486 50       		.byte	0x50
 4865 0487 9F       		.byte	0x9f
 4866 0488 00000000 		.4byte	0
 4867 048c 00000000 		.4byte	0
ARM GAS  C:\Users\haske\AppData\Local\Temp\ccF9IbRI.s 			page 109


 4868              	.LLST23:
 4869 0490 00000000 		.4byte	.LVL46
 4870 0494 18000000 		.4byte	.LVL48
 4871 0498 0100     		.2byte	0x1
 4872 049a 51       		.byte	0x51
 4873 049b 18000000 		.4byte	.LVL48
 4874 049f 2A000000 		.4byte	.LVL52
 4875 04a3 0400     		.2byte	0x4
 4876 04a5 F3       		.byte	0xf3
 4877 04a6 01       		.uleb128 0x1
 4878 04a7 51       		.byte	0x51
 4879 04a8 9F       		.byte	0x9f
 4880 04a9 2A000000 		.4byte	.LVL52
 4881 04ad 32000000 		.4byte	.LVL53
 4882 04b1 0100     		.2byte	0x1
 4883 04b3 51       		.byte	0x51
 4884 04b4 32000000 		.4byte	.LVL53
 4885 04b8 34000000 		.4byte	.LVL54
 4886 04bc 0500     		.2byte	0x5
 4887 04be 71       		.byte	0x71
 4888 04bf 00       		.sleb128 0
 4889 04c0 33       		.byte	0x33
 4890 04c1 26       		.byte	0x26
 4891 04c2 9F       		.byte	0x9f
 4892 04c3 34000000 		.4byte	.LVL54
 4893 04c7 5C000000 		.4byte	.LVL60
 4894 04cb 0500     		.2byte	0x5
 4895 04cd 76       		.byte	0x76
 4896 04ce 00       		.sleb128 0
 4897 04cf 33       		.byte	0x33
 4898 04d0 26       		.byte	0x26
 4899 04d1 9F       		.byte	0x9f
 4900 04d2 5C000000 		.4byte	.LVL60
 4901 04d6 6A000000 		.4byte	.LVL62
 4902 04da 0100     		.2byte	0x1
 4903 04dc 51       		.byte	0x51
 4904 04dd 6A000000 		.4byte	.LVL62
 4905 04e1 6C000000 		.4byte	.LVL63
 4906 04e5 0400     		.2byte	0x4
 4907 04e7 F3       		.byte	0xf3
 4908 04e8 01       		.uleb128 0x1
 4909 04e9 51       		.byte	0x51
 4910 04ea 9F       		.byte	0x9f
 4911 04eb 6C000000 		.4byte	.LVL63
 4912 04ef 98000000 		.4byte	.LVL69
 4913 04f3 0500     		.2byte	0x5
 4914 04f5 76       		.byte	0x76
 4915 04f6 00       		.sleb128 0
 4916 04f7 32       		.byte	0x32
 4917 04f8 26       		.byte	0x26
 4918 04f9 9F       		.byte	0x9f
 4919 04fa 98000000 		.4byte	.LVL69
 4920 04fe A6000000 		.4byte	.LVL71
 4921 0502 0100     		.2byte	0x1
 4922 0504 51       		.byte	0x51
 4923 0505 A6000000 		.4byte	.LVL71
 4924 0509 B6000000 		.4byte	.LVL73
ARM GAS  C:\Users\haske\AppData\Local\Temp\ccF9IbRI.s 			page 110


 4925 050d 0400     		.2byte	0x4
 4926 050f F3       		.byte	0xf3
 4927 0510 01       		.uleb128 0x1
 4928 0511 51       		.byte	0x51
 4929 0512 9F       		.byte	0x9f
 4930 0513 B6000000 		.4byte	.LVL73
 4931 0517 E0000000 		.4byte	.LVL79
 4932 051b 0500     		.2byte	0x5
 4933 051d 76       		.byte	0x76
 4934 051e 00       		.sleb128 0
 4935 051f 31       		.byte	0x31
 4936 0520 26       		.byte	0x26
 4937 0521 9F       		.byte	0x9f
 4938 0522 E0000000 		.4byte	.LVL79
 4939 0526 E6000000 		.4byte	.LVL80
 4940 052a 0100     		.2byte	0x1
 4941 052c 51       		.byte	0x51
 4942 052d E6000000 		.4byte	.LVL80
 4943 0531 F2000000 		.4byte	.LVL83
 4944 0535 0400     		.2byte	0x4
 4945 0537 F3       		.byte	0xf3
 4946 0538 01       		.uleb128 0x1
 4947 0539 51       		.byte	0x51
 4948 053a 9F       		.byte	0x9f
 4949 053b F2000000 		.4byte	.LVL83
 4950 053f F6000000 		.4byte	.LVL85
 4951 0543 0500     		.2byte	0x5
 4952 0545 76       		.byte	0x76
 4953 0546 00       		.sleb128 0
 4954 0547 33       		.byte	0x33
 4955 0548 26       		.byte	0x26
 4956 0549 9F       		.byte	0x9f
 4957 054a F6000000 		.4byte	.LVL85
 4958 054e F8000000 		.4byte	.LVL86
 4959 0552 0100     		.2byte	0x1
 4960 0554 51       		.byte	0x51
 4961 0555 00000000 		.4byte	0
 4962 0559 00000000 		.4byte	0
 4963              	.LLST24:
 4964 055d 00000000 		.4byte	.LVL46
 4965 0561 32000000 		.4byte	.LVL53
 4966 0565 0100     		.2byte	0x1
 4967 0567 52       		.byte	0x52
 4968 0568 32000000 		.4byte	.LVL53
 4969 056c 5C000000 		.4byte	.LVL60
 4970 0570 0400     		.2byte	0x4
 4971 0572 F3       		.byte	0xf3
 4972 0573 01       		.uleb128 0x1
 4973 0574 52       		.byte	0x52
 4974 0575 9F       		.byte	0x9f
 4975 0576 5C000000 		.4byte	.LVL60
 4976 057a 6C000000 		.4byte	.LVL63
 4977 057e 0100     		.2byte	0x1
 4978 0580 52       		.byte	0x52
 4979 0581 6C000000 		.4byte	.LVL63
 4980 0585 98000000 		.4byte	.LVL69
 4981 0589 0400     		.2byte	0x4
ARM GAS  C:\Users\haske\AppData\Local\Temp\ccF9IbRI.s 			page 111


 4982 058b F3       		.byte	0xf3
 4983 058c 01       		.uleb128 0x1
 4984 058d 52       		.byte	0x52
 4985 058e 9F       		.byte	0x9f
 4986 058f 98000000 		.4byte	.LVL69
 4987 0593 A8000000 		.4byte	.LVL72
 4988 0597 0100     		.2byte	0x1
 4989 0599 52       		.byte	0x52
 4990 059a A8000000 		.4byte	.LVL72
 4991 059e E0000000 		.4byte	.LVL79
 4992 05a2 0400     		.2byte	0x4
 4993 05a4 F3       		.byte	0xf3
 4994 05a5 01       		.uleb128 0x1
 4995 05a6 52       		.byte	0x52
 4996 05a7 9F       		.byte	0x9f
 4997 05a8 E0000000 		.4byte	.LVL79
 4998 05ac F2000000 		.4byte	.LVL83
 4999 05b0 0100     		.2byte	0x1
 5000 05b2 52       		.byte	0x52
 5001 05b3 F2000000 		.4byte	.LVL83
 5002 05b7 F6000000 		.4byte	.LVL85
 5003 05bb 0400     		.2byte	0x4
 5004 05bd F3       		.byte	0xf3
 5005 05be 01       		.uleb128 0x1
 5006 05bf 52       		.byte	0x52
 5007 05c0 9F       		.byte	0x9f
 5008 05c1 F6000000 		.4byte	.LVL85
 5009 05c5 F8000000 		.4byte	.LVL86
 5010 05c9 0100     		.2byte	0x1
 5011 05cb 52       		.byte	0x52
 5012 05cc F8000000 		.4byte	.LVL86
 5013 05d0 00010000 		.4byte	.LFE55
 5014 05d4 0400     		.2byte	0x4
 5015 05d6 F3       		.byte	0xf3
 5016 05d7 01       		.uleb128 0x1
 5017 05d8 52       		.byte	0x52
 5018 05d9 9F       		.byte	0x9f
 5019 05da 00000000 		.4byte	0
 5020 05de 00000000 		.4byte	0
 5021              	.LLST25:
 5022 05e2 0C000000 		.4byte	.LVL47
 5023 05e6 FC000000 		.4byte	.LVL87
 5024 05ea 0100     		.2byte	0x1
 5025 05ec 55       		.byte	0x55
 5026 05ed 00000000 		.4byte	0
 5027 05f1 00000000 		.4byte	0
 5028              	.LLST26:
 5029 05f5 24000000 		.4byte	.LVL49
 5030 05f9 26000000 		.4byte	.LVL50
 5031 05fd 0100     		.2byte	0x1
 5032 05ff 51       		.byte	0x51
 5033 0600 26000000 		.4byte	.LVL50
 5034 0604 2A000000 		.4byte	.LVL52
 5035 0608 0300     		.2byte	0x3
 5036 060a 71       		.byte	0x71
 5037 060b 7E       		.sleb128 -2
 5038 060c 9F       		.byte	0x9f
ARM GAS  C:\Users\haske\AppData\Local\Temp\ccF9IbRI.s 			page 112


 5039 060d 00000000 		.4byte	0
 5040 0611 00000000 		.4byte	0
 5041              	.LLST27:
 5042 0615 32000000 		.4byte	.LVL53
 5043 0619 4C000000 		.4byte	.LVL57
 5044 061d 0100     		.2byte	0x1
 5045 061f 52       		.byte	0x52
 5046 0620 4C000000 		.4byte	.LVL57
 5047 0624 5C000000 		.4byte	.LVL60
 5048 0628 0500     		.2byte	0x5
 5049 062a 76       		.byte	0x76
 5050 062b 00       		.sleb128 0
 5051 062c 37       		.byte	0x37
 5052 062d 1A       		.byte	0x1a
 5053 062e 9F       		.byte	0x9f
 5054 062f F2000000 		.4byte	.LVL83
 5055 0633 F6000000 		.4byte	.LVL85
 5056 0637 0500     		.2byte	0x5
 5057 0639 76       		.byte	0x76
 5058 063a 00       		.sleb128 0
 5059 063b 37       		.byte	0x37
 5060 063c 1A       		.byte	0x1a
 5061 063d 9F       		.byte	0x9f
 5062 063e 00000000 		.4byte	0
 5063 0642 00000000 		.4byte	0
 5064              	.LLST28:
 5065 0646 44000000 		.4byte	.LVL55
 5066 064a 4A000000 		.4byte	.LVL56
 5067 064e 0100     		.2byte	0x1
 5068 0650 51       		.byte	0x51
 5069 0651 4A000000 		.4byte	.LVL56
 5070 0655 5A000000 		.4byte	.LVL59
 5071 0659 1600     		.2byte	0x16
 5072 065b 70       		.byte	0x70
 5073 065c 00       		.sleb128 0
 5074 065d 06       		.byte	0x6
 5075 065e 09       		.byte	0x9
 5076 065f EF       		.byte	0xef
 5077 0660 24       		.byte	0x24
 5078 0661 09       		.byte	0x9
 5079 0662 F9       		.byte	0xf9
 5080 0663 25       		.byte	0x25
 5081 0664 23       		.byte	0x23
 5082 0665 07       		.uleb128 0x7
 5083 0666 33       		.byte	0x33
 5084 0667 26       		.byte	0x26
 5085 0668 77       		.byte	0x77
 5086 0669 00       		.sleb128 0
 5087 066a 1E       		.byte	0x1e
 5088 066b 76       		.byte	0x76
 5089 066c 00       		.sleb128 0
 5090 066d 33       		.byte	0x33
 5091 066e 26       		.byte	0x26
 5092 066f 22       		.byte	0x22
 5093 0670 9F       		.byte	0x9f
 5094 0671 5A000000 		.4byte	.LVL59
 5095 0675 5C000000 		.4byte	.LVL60
ARM GAS  C:\Users\haske\AppData\Local\Temp\ccF9IbRI.s 			page 113


 5096 0679 1600     		.2byte	0x16
 5097 067b 74       		.byte	0x74
 5098 067c 00       		.sleb128 0
 5099 067d 06       		.byte	0x6
 5100 067e 09       		.byte	0x9
 5101 067f EF       		.byte	0xef
 5102 0680 24       		.byte	0x24
 5103 0681 09       		.byte	0x9
 5104 0682 F9       		.byte	0xf9
 5105 0683 25       		.byte	0x25
 5106 0684 23       		.byte	0x23
 5107 0685 07       		.uleb128 0x7
 5108 0686 33       		.byte	0x33
 5109 0687 26       		.byte	0x26
 5110 0688 77       		.byte	0x77
 5111 0689 00       		.sleb128 0
 5112 068a 1E       		.byte	0x1e
 5113 068b 76       		.byte	0x76
 5114 068c 00       		.sleb128 0
 5115 068d 33       		.byte	0x33
 5116 068e 26       		.byte	0x26
 5117 068f 22       		.byte	0x22
 5118 0690 9F       		.byte	0x9f
 5119 0691 F2000000 		.4byte	.LVL83
 5120 0695 F4000000 		.4byte	.LVL84
 5121 0699 1600     		.2byte	0x16
 5122 069b 70       		.byte	0x70
 5123 069c 00       		.sleb128 0
 5124 069d 06       		.byte	0x6
 5125 069e 09       		.byte	0x9
 5126 069f EF       		.byte	0xef
 5127 06a0 24       		.byte	0x24
 5128 06a1 09       		.byte	0x9
 5129 06a2 F9       		.byte	0xf9
 5130 06a3 25       		.byte	0x25
 5131 06a4 23       		.byte	0x23
 5132 06a5 07       		.uleb128 0x7
 5133 06a6 33       		.byte	0x33
 5134 06a7 26       		.byte	0x26
 5135 06a8 77       		.byte	0x77
 5136 06a9 00       		.sleb128 0
 5137 06aa 1E       		.byte	0x1e
 5138 06ab 76       		.byte	0x76
 5139 06ac 00       		.sleb128 0
 5140 06ad 33       		.byte	0x33
 5141 06ae 26       		.byte	0x26
 5142 06af 22       		.byte	0x22
 5143 06b0 9F       		.byte	0x9f
 5144 06b1 F4000000 		.4byte	.LVL84
 5145 06b5 F6000000 		.4byte	.LVL85
 5146 06b9 1600     		.2byte	0x16
 5147 06bb 74       		.byte	0x74
 5148 06bc 00       		.sleb128 0
 5149 06bd 06       		.byte	0x6
 5150 06be 09       		.byte	0x9
 5151 06bf EF       		.byte	0xef
 5152 06c0 24       		.byte	0x24
ARM GAS  C:\Users\haske\AppData\Local\Temp\ccF9IbRI.s 			page 114


 5153 06c1 09       		.byte	0x9
 5154 06c2 F9       		.byte	0xf9
 5155 06c3 25       		.byte	0x25
 5156 06c4 23       		.byte	0x23
 5157 06c5 07       		.uleb128 0x7
 5158 06c6 33       		.byte	0x33
 5159 06c7 26       		.byte	0x26
 5160 06c8 77       		.byte	0x77
 5161 06c9 00       		.sleb128 0
 5162 06ca 1E       		.byte	0x1e
 5163 06cb 76       		.byte	0x76
 5164 06cc 00       		.sleb128 0
 5165 06cd 33       		.byte	0x33
 5166 06ce 26       		.byte	0x26
 5167 06cf 22       		.byte	0x22
 5168 06d0 9F       		.byte	0x9f
 5169 06d1 00000000 		.4byte	0
 5170 06d5 00000000 		.4byte	0
 5171              	.LLST29:
 5172 06d9 52000000 		.4byte	.LVL58
 5173 06dd 5C000000 		.4byte	.LVL60
 5174 06e1 0100     		.2byte	0x1
 5175 06e3 53       		.byte	0x53
 5176 06e4 F2000000 		.4byte	.LVL83
 5177 06e8 F6000000 		.4byte	.LVL85
 5178 06ec 0100     		.2byte	0x1
 5179 06ee 53       		.byte	0x53
 5180 06ef 00000000 		.4byte	0
 5181 06f3 00000000 		.4byte	0
 5182              	.LLST30:
 5183 06f7 6C000000 		.4byte	.LVL63
 5184 06fb 86000000 		.4byte	.LVL66
 5185 06ff 0100     		.2byte	0x1
 5186 0701 52       		.byte	0x52
 5187 0702 86000000 		.4byte	.LVL66
 5188 0706 98000000 		.4byte	.LVL69
 5189 070a 0700     		.2byte	0x7
 5190 070c 76       		.byte	0x76
 5191 070d 00       		.sleb128 0
 5192 070e 33       		.byte	0x33
 5193 070f 1A       		.byte	0x1a
 5194 0710 31       		.byte	0x31
 5195 0711 24       		.byte	0x24
 5196 0712 9F       		.byte	0x9f
 5197 0713 00000000 		.4byte	0
 5198 0717 00000000 		.4byte	0
 5199              	.LLST31:
 5200 071b 7E000000 		.4byte	.LVL64
 5201 071f 84000000 		.4byte	.LVL65
 5202 0723 0100     		.2byte	0x1
 5203 0725 51       		.byte	0x51
 5204 0726 84000000 		.4byte	.LVL65
 5205 072a 98000000 		.4byte	.LVL69
 5206 072e 1600     		.2byte	0x16
 5207 0730 74       		.byte	0x74
 5208 0731 00       		.sleb128 0
 5209 0732 06       		.byte	0x6
ARM GAS  C:\Users\haske\AppData\Local\Temp\ccF9IbRI.s 			page 115


 5210 0733 09       		.byte	0x9
 5211 0734 EF       		.byte	0xef
 5212 0735 24       		.byte	0x24
 5213 0736 09       		.byte	0x9
 5214 0737 F9       		.byte	0xf9
 5215 0738 25       		.byte	0x25
 5216 0739 23       		.byte	0x23
 5217 073a 03       		.uleb128 0x3
 5218 073b 32       		.byte	0x32
 5219 073c 26       		.byte	0x26
 5220 073d 77       		.byte	0x77
 5221 073e 00       		.sleb128 0
 5222 073f 1E       		.byte	0x1e
 5223 0740 76       		.byte	0x76
 5224 0741 00       		.sleb128 0
 5225 0742 32       		.byte	0x32
 5226 0743 26       		.byte	0x26
 5227 0744 22       		.byte	0x22
 5228 0745 9F       		.byte	0x9f
 5229 0746 00000000 		.4byte	0
 5230 074a 00000000 		.4byte	0
 5231              	.LLST32:
 5232 074e 8C000000 		.4byte	.LVL67
 5233 0752 92000000 		.4byte	.LVL68
 5234 0756 0100     		.2byte	0x1
 5235 0758 53       		.byte	0x53
 5236 0759 92000000 		.4byte	.LVL68
 5237 075d 98000000 		.4byte	.LVL69
 5238 0761 2600     		.2byte	0x26
 5239 0763 33       		.byte	0x33
 5240 0764 71       		.byte	0x71
 5241 0765 00       		.sleb128 0
 5242 0766 24       		.byte	0x24
 5243 0767 74       		.byte	0x74
 5244 0768 00       		.sleb128 0
 5245 0769 06       		.byte	0x6
 5246 076a 09       		.byte	0x9
 5247 076b EF       		.byte	0xef
 5248 076c 24       		.byte	0x24
 5249 076d 09       		.byte	0x9
 5250 076e F9       		.byte	0xf9
 5251 076f 25       		.byte	0x25
 5252 0770 23       		.byte	0x23
 5253 0771 03       		.uleb128 0x3
 5254 0772 32       		.byte	0x32
 5255 0773 26       		.byte	0x26
 5256 0774 77       		.byte	0x77
 5257 0775 00       		.sleb128 0
 5258 0776 1E       		.byte	0x1e
 5259 0777 76       		.byte	0x76
 5260 0778 00       		.sleb128 0
 5261 0779 32       		.byte	0x32
 5262 077a 26       		.byte	0x26
 5263 077b 22       		.byte	0x22
 5264 077c 75       		.byte	0x75
 5265 077d 00       		.sleb128 0
 5266 077e 22       		.byte	0x22
ARM GAS  C:\Users\haske\AppData\Local\Temp\ccF9IbRI.s 			page 116


 5267 077f 94       		.byte	0x94
 5268 0780 01       		.byte	0x1
 5269 0781 08       		.byte	0x8
 5270 0782 FF       		.byte	0xff
 5271 0783 1A       		.byte	0x1a
 5272 0784 1A       		.byte	0x1a
 5273 0785 71       		.byte	0x71
 5274 0786 00       		.sleb128 0
 5275 0787 26       		.byte	0x26
 5276 0788 9F       		.byte	0x9f
 5277 0789 00000000 		.4byte	0
 5278 078d 00000000 		.4byte	0
 5279              	.LLST33:
 5280 0791 B6000000 		.4byte	.LVL73
 5281 0795 D0000000 		.4byte	.LVL76
 5282 0799 0100     		.2byte	0x1
 5283 079b 52       		.byte	0x52
 5284 079c D0000000 		.4byte	.LVL76
 5285 07a0 E0000000 		.4byte	.LVL79
 5286 07a4 0700     		.2byte	0x7
 5287 07a6 76       		.byte	0x76
 5288 07a7 00       		.sleb128 0
 5289 07a8 31       		.byte	0x31
 5290 07a9 1A       		.byte	0x1a
 5291 07aa 32       		.byte	0x32
 5292 07ab 24       		.byte	0x24
 5293 07ac 9F       		.byte	0x9f
 5294 07ad 00000000 		.4byte	0
 5295 07b1 00000000 		.4byte	0
 5296              	.LLST34:
 5297 07b5 C8000000 		.4byte	.LVL74
 5298 07b9 CE000000 		.4byte	.LVL75
 5299 07bd 0100     		.2byte	0x1
 5300 07bf 51       		.byte	0x51
 5301 07c0 CE000000 		.4byte	.LVL75
 5302 07c4 E0000000 		.4byte	.LVL79
 5303 07c8 1600     		.2byte	0x16
 5304 07ca 74       		.byte	0x74
 5305 07cb 00       		.sleb128 0
 5306 07cc 06       		.byte	0x6
 5307 07cd 09       		.byte	0x9
 5308 07ce EF       		.byte	0xef
 5309 07cf 24       		.byte	0x24
 5310 07d0 09       		.byte	0x9
 5311 07d1 F9       		.byte	0xf9
 5312 07d2 25       		.byte	0x25
 5313 07d3 23       		.byte	0x23
 5314 07d4 01       		.uleb128 0x1
 5315 07d5 31       		.byte	0x31
 5316 07d6 26       		.byte	0x26
 5317 07d7 77       		.byte	0x77
 5318 07d8 00       		.sleb128 0
 5319 07d9 1E       		.byte	0x1e
 5320 07da 76       		.byte	0x76
 5321 07db 00       		.sleb128 0
 5322 07dc 31       		.byte	0x31
 5323 07dd 26       		.byte	0x26
ARM GAS  C:\Users\haske\AppData\Local\Temp\ccF9IbRI.s 			page 117


 5324 07de 22       		.byte	0x22
 5325 07df 9F       		.byte	0x9f
 5326 07e0 00000000 		.4byte	0
 5327 07e4 00000000 		.4byte	0
 5328              	.LLST35:
 5329 07e8 D6000000 		.4byte	.LVL77
 5330 07ec DA000000 		.4byte	.LVL78
 5331 07f0 0100     		.2byte	0x1
 5332 07f2 53       		.byte	0x53
 5333 07f3 DA000000 		.4byte	.LVL78
 5334 07f7 E0000000 		.4byte	.LVL79
 5335 07fb 2400     		.2byte	0x24
 5336 07fd 74       		.byte	0x74
 5337 07fe 00       		.sleb128 0
 5338 07ff 06       		.byte	0x6
 5339 0800 09       		.byte	0x9
 5340 0801 EF       		.byte	0xef
 5341 0802 24       		.byte	0x24
 5342 0803 09       		.byte	0x9
 5343 0804 F9       		.byte	0xf9
 5344 0805 25       		.byte	0x25
 5345 0806 23       		.byte	0x23
 5346 0807 01       		.uleb128 0x1
 5347 0808 31       		.byte	0x31
 5348 0809 26       		.byte	0x26
 5349 080a 77       		.byte	0x77
 5350 080b 00       		.sleb128 0
 5351 080c 1E       		.byte	0x1e
 5352 080d 76       		.byte	0x76
 5353 080e 00       		.sleb128 0
 5354 080f 31       		.byte	0x31
 5355 0810 26       		.byte	0x26
 5356 0811 22       		.byte	0x22
 5357 0812 75       		.byte	0x75
 5358 0813 00       		.sleb128 0
 5359 0814 22       		.byte	0x22
 5360 0815 94       		.byte	0x94
 5361 0816 01       		.byte	0x1
 5362 0817 08       		.byte	0x8
 5363 0818 FF       		.byte	0xff
 5364 0819 1A       		.byte	0x1a
 5365 081a 72       		.byte	0x72
 5366 081b 00       		.sleb128 0
 5367 081c 1A       		.byte	0x1a
 5368 081d 71       		.byte	0x71
 5369 081e 00       		.sleb128 0
 5370 081f 26       		.byte	0x26
 5371 0820 9F       		.byte	0x9f
 5372 0821 00000000 		.4byte	0
 5373 0825 00000000 		.4byte	0
 5374              	.LLST36:
 5375 0829 EE000000 		.4byte	.LVL81
 5376 082d F2000000 		.4byte	.LVL83
 5377 0831 0100     		.2byte	0x1
 5378 0833 51       		.byte	0x51
 5379 0834 00000000 		.4byte	0
 5380 0838 00000000 		.4byte	0
ARM GAS  C:\Users\haske\AppData\Local\Temp\ccF9IbRI.s 			page 118


 5381              	.LLST37:
 5382 083c 00000000 		.4byte	.LVL88
 5383 0840 1A000000 		.4byte	.LVL90
 5384 0844 0100     		.2byte	0x1
 5385 0846 50       		.byte	0x50
 5386 0847 1A000000 		.4byte	.LVL90
 5387 084b 3E000000 		.4byte	.LVL95
 5388 084f 0100     		.2byte	0x1
 5389 0851 58       		.byte	0x58
 5390 0852 3E000000 		.4byte	.LVL95
 5391 0856 4A000000 		.4byte	.LVL98
 5392 085a 0100     		.2byte	0x1
 5393 085c 50       		.byte	0x50
 5394 085d 4A000000 		.4byte	.LVL98
 5395 0861 76000000 		.4byte	.LVL102
 5396 0865 0400     		.2byte	0x4
 5397 0867 F3       		.byte	0xf3
 5398 0868 01       		.uleb128 0x1
 5399 0869 50       		.byte	0x50
 5400 086a 9F       		.byte	0x9f
 5401 086b 76000000 		.4byte	.LVL102
 5402 086f 84000000 		.4byte	.LVL105
 5403 0873 0100     		.2byte	0x1
 5404 0875 50       		.byte	0x50
 5405 0876 84000000 		.4byte	.LVL105
 5406 087a B0000000 		.4byte	.LVL109
 5407 087e 0400     		.2byte	0x4
 5408 0880 F3       		.byte	0xf3
 5409 0881 01       		.uleb128 0x1
 5410 0882 50       		.byte	0x50
 5411 0883 9F       		.byte	0x9f
 5412 0884 B0000000 		.4byte	.LVL109
 5413 0888 C0000000 		.4byte	.LVL112
 5414 088c 0100     		.2byte	0x1
 5415 088e 50       		.byte	0x50
 5416 088f C0000000 		.4byte	.LVL112
 5417 0893 EC000000 		.4byte	.LVL116
 5418 0897 0400     		.2byte	0x4
 5419 0899 F3       		.byte	0xf3
 5420 089a 01       		.uleb128 0x1
 5421 089b 50       		.byte	0x50
 5422 089c 9F       		.byte	0x9f
 5423 089d EC000000 		.4byte	.LVL116
 5424 08a1 F2000000 		.4byte	.LVL117
 5425 08a5 0100     		.2byte	0x1
 5426 08a7 50       		.byte	0x50
 5427 08a8 F2000000 		.4byte	.LVL117
 5428 08ac 00010000 		.4byte	.LFE56
 5429 08b0 0400     		.2byte	0x4
 5430 08b2 F3       		.byte	0xf3
 5431 08b3 01       		.uleb128 0x1
 5432 08b4 50       		.byte	0x50
 5433 08b5 9F       		.byte	0x9f
 5434 08b6 00000000 		.4byte	0
 5435 08ba 00000000 		.4byte	0
 5436              	.LLST38:
 5437 08be 00000000 		.4byte	.LVL88
ARM GAS  C:\Users\haske\AppData\Local\Temp\ccF9IbRI.s 			page 119


 5438 08c2 21000000 		.4byte	.LVL91-1
 5439 08c6 0100     		.2byte	0x1
 5440 08c8 51       		.byte	0x51
 5441 08c9 21000000 		.4byte	.LVL91-1
 5442 08cd 3E000000 		.4byte	.LVL95
 5443 08d1 0400     		.2byte	0x4
 5444 08d3 F3       		.byte	0xf3
 5445 08d4 01       		.uleb128 0x1
 5446 08d5 51       		.byte	0x51
 5447 08d6 9F       		.byte	0x9f
 5448 08d7 3E000000 		.4byte	.LVL95
 5449 08db 48000000 		.4byte	.LVL97
 5450 08df 0100     		.2byte	0x1
 5451 08e1 51       		.byte	0x51
 5452 08e2 48000000 		.4byte	.LVL97
 5453 08e6 5A000000 		.4byte	.LVL100
 5454 08ea 0500     		.2byte	0x5
 5455 08ec 71       		.byte	0x71
 5456 08ed 00       		.sleb128 0
 5457 08ee 33       		.byte	0x33
 5458 08ef 26       		.byte	0x26
 5459 08f0 9F       		.byte	0x9f
 5460 08f1 76000000 		.4byte	.LVL102
 5461 08f5 82000000 		.4byte	.LVL104
 5462 08f9 0100     		.2byte	0x1
 5463 08fb 51       		.byte	0x51
 5464 08fc 82000000 		.4byte	.LVL104
 5465 0900 94000000 		.4byte	.LVL107
 5466 0904 0500     		.2byte	0x5
 5467 0906 71       		.byte	0x71
 5468 0907 00       		.sleb128 0
 5469 0908 32       		.byte	0x32
 5470 0909 26       		.byte	0x26
 5471 090a 9F       		.byte	0x9f
 5472 090b B0000000 		.4byte	.LVL109
 5473 090f BE000000 		.4byte	.LVL111
 5474 0913 0100     		.2byte	0x1
 5475 0915 51       		.byte	0x51
 5476 0916 BE000000 		.4byte	.LVL111
 5477 091a D0000000 		.4byte	.LVL114
 5478 091e 0500     		.2byte	0x5
 5479 0920 71       		.byte	0x71
 5480 0921 00       		.sleb128 0
 5481 0922 31       		.byte	0x31
 5482 0923 26       		.byte	0x26
 5483 0924 9F       		.byte	0x9f
 5484 0925 EC000000 		.4byte	.LVL116
 5485 0929 FA000000 		.4byte	.LVL118
 5486 092d 0100     		.2byte	0x1
 5487 092f 51       		.byte	0x51
 5488 0930 FA000000 		.4byte	.LVL118
 5489 0934 00010000 		.4byte	.LFE56
 5490 0938 0400     		.2byte	0x4
 5491 093a F3       		.byte	0xf3
 5492 093b 01       		.uleb128 0x1
 5493 093c 51       		.byte	0x51
 5494 093d 9F       		.byte	0x9f
ARM GAS  C:\Users\haske\AppData\Local\Temp\ccF9IbRI.s 			page 120


 5495 093e 00000000 		.4byte	0
 5496 0942 00000000 		.4byte	0
 5497              	.LLST39:
 5498 0946 00000000 		.4byte	.LVL88
 5499 094a 21000000 		.4byte	.LVL91-1
 5500 094e 0100     		.2byte	0x1
 5501 0950 52       		.byte	0x52
 5502 0951 21000000 		.4byte	.LVL91-1
 5503 0955 3E000000 		.4byte	.LVL95
 5504 0959 0400     		.2byte	0x4
 5505 095b F3       		.byte	0xf3
 5506 095c 01       		.uleb128 0x1
 5507 095d 52       		.byte	0x52
 5508 095e 9F       		.byte	0x9f
 5509 095f 3E000000 		.4byte	.LVL95
 5510 0963 56000000 		.4byte	.LVL99
 5511 0967 0100     		.2byte	0x1
 5512 0969 52       		.byte	0x52
 5513 096a 56000000 		.4byte	.LVL99
 5514 096e 76000000 		.4byte	.LVL102
 5515 0972 0400     		.2byte	0x4
 5516 0974 F3       		.byte	0xf3
 5517 0975 01       		.uleb128 0x1
 5518 0976 52       		.byte	0x52
 5519 0977 9F       		.byte	0x9f
 5520 0978 76000000 		.4byte	.LVL102
 5521 097c 90000000 		.4byte	.LVL106
 5522 0980 0100     		.2byte	0x1
 5523 0982 52       		.byte	0x52
 5524 0983 90000000 		.4byte	.LVL106
 5525 0987 B0000000 		.4byte	.LVL109
 5526 098b 0400     		.2byte	0x4
 5527 098d F3       		.byte	0xf3
 5528 098e 01       		.uleb128 0x1
 5529 098f 52       		.byte	0x52
 5530 0990 9F       		.byte	0x9f
 5531 0991 B0000000 		.4byte	.LVL109
 5532 0995 CC000000 		.4byte	.LVL113
 5533 0999 0100     		.2byte	0x1
 5534 099b 52       		.byte	0x52
 5535 099c CC000000 		.4byte	.LVL113
 5536 09a0 EC000000 		.4byte	.LVL116
 5537 09a4 0400     		.2byte	0x4
 5538 09a6 F3       		.byte	0xf3
 5539 09a7 01       		.uleb128 0x1
 5540 09a8 52       		.byte	0x52
 5541 09a9 9F       		.byte	0x9f
 5542 09aa EC000000 		.4byte	.LVL116
 5543 09ae 00010000 		.4byte	.LFE56
 5544 09b2 0100     		.2byte	0x1
 5545 09b4 52       		.byte	0x52
 5546 09b5 00000000 		.4byte	0
 5547 09b9 00000000 		.4byte	0
 5548              	.LLST40:
 5549 09bd 00000000 		.4byte	.LVL88
 5550 09c1 21000000 		.4byte	.LVL91-1
 5551 09c5 0100     		.2byte	0x1
ARM GAS  C:\Users\haske\AppData\Local\Temp\ccF9IbRI.s 			page 121


 5552 09c7 53       		.byte	0x53
 5553 09c8 21000000 		.4byte	.LVL91-1
 5554 09cc 3E000000 		.4byte	.LVL95
 5555 09d0 0400     		.2byte	0x4
 5556 09d2 F3       		.byte	0xf3
 5557 09d3 01       		.uleb128 0x1
 5558 09d4 53       		.byte	0x53
 5559 09d5 9F       		.byte	0x9f
 5560 09d6 3E000000 		.4byte	.LVL95
 5561 09da 44000000 		.4byte	.LVL96
 5562 09de 0100     		.2byte	0x1
 5563 09e0 53       		.byte	0x53
 5564 09e1 44000000 		.4byte	.LVL96
 5565 09e5 76000000 		.4byte	.LVL102
 5566 09e9 0100     		.2byte	0x1
 5567 09eb 54       		.byte	0x54
 5568 09ec 76000000 		.4byte	.LVL102
 5569 09f0 7C000000 		.4byte	.LVL103
 5570 09f4 0100     		.2byte	0x1
 5571 09f6 53       		.byte	0x53
 5572 09f7 7C000000 		.4byte	.LVL103
 5573 09fb B0000000 		.4byte	.LVL109
 5574 09ff 0100     		.2byte	0x1
 5575 0a01 54       		.byte	0x54
 5576 0a02 B0000000 		.4byte	.LVL109
 5577 0a06 B6000000 		.4byte	.LVL110
 5578 0a0a 0100     		.2byte	0x1
 5579 0a0c 53       		.byte	0x53
 5580 0a0d B6000000 		.4byte	.LVL110
 5581 0a11 EC000000 		.4byte	.LVL116
 5582 0a15 0100     		.2byte	0x1
 5583 0a17 54       		.byte	0x54
 5584 0a18 EC000000 		.4byte	.LVL116
 5585 0a1c 00010000 		.4byte	.LFE56
 5586 0a20 0100     		.2byte	0x1
 5587 0a22 53       		.byte	0x53
 5588 0a23 00000000 		.4byte	0
 5589 0a27 00000000 		.4byte	0
 5590              	.LLST41:
 5591 0a2b 26000000 		.4byte	.LVL92
 5592 0a2f 36000000 		.4byte	.LVL94
 5593 0a33 0100     		.2byte	0x1
 5594 0a35 50       		.byte	0x50
 5595 0a36 00000000 		.4byte	0
 5596 0a3a 00000000 		.4byte	0
 5597              	.LLST42:
 5598 0a3e 32000000 		.4byte	.LVL93
 5599 0a42 36000000 		.4byte	.LVL94
 5600 0a46 0600     		.2byte	0x6
 5601 0a48 70       		.byte	0x70
 5602 0a49 00       		.sleb128 0
 5603 0a4a 71       		.byte	0x71
 5604 0a4b 00       		.sleb128 0
 5605 0a4c 1E       		.byte	0x1e
 5606 0a4d 9F       		.byte	0x9f
 5607 0a4e 00000000 		.4byte	0
 5608 0a52 00000000 		.4byte	0
ARM GAS  C:\Users\haske\AppData\Local\Temp\ccF9IbRI.s 			page 122


 5609              	.LLST43:
 5610 0a56 48000000 		.4byte	.LVL97
 5611 0a5a 60000000 		.4byte	.LVL101
 5612 0a5e 0100     		.2byte	0x1
 5613 0a60 53       		.byte	0x53
 5614 0a61 00000000 		.4byte	0
 5615 0a65 00000000 		.4byte	0
 5616              	.LLST44:
 5617 0a69 5A000000 		.4byte	.LVL100
 5618 0a6d 76000000 		.4byte	.LVL102
 5619 0a71 0100     		.2byte	0x1
 5620 0a73 51       		.byte	0x51
 5621 0a74 00000000 		.4byte	0
 5622 0a78 00000000 		.4byte	0
 5623              	.LLST45:
 5624 0a7c 82000000 		.4byte	.LVL104
 5625 0a80 9A000000 		.4byte	.LVL108
 5626 0a84 0100     		.2byte	0x1
 5627 0a86 53       		.byte	0x53
 5628 0a87 00000000 		.4byte	0
 5629 0a8b 00000000 		.4byte	0
 5630              	.LLST46:
 5631 0a8f 94000000 		.4byte	.LVL107
 5632 0a93 B0000000 		.4byte	.LVL109
 5633 0a97 0100     		.2byte	0x1
 5634 0a99 51       		.byte	0x51
 5635 0a9a 00000000 		.4byte	0
 5636 0a9e 00000000 		.4byte	0
 5637              	.LLST47:
 5638 0aa2 BE000000 		.4byte	.LVL111
 5639 0aa6 D6000000 		.4byte	.LVL115
 5640 0aaa 0100     		.2byte	0x1
 5641 0aac 53       		.byte	0x53
 5642 0aad 00000000 		.4byte	0
 5643 0ab1 00000000 		.4byte	0
 5644              	.LLST48:
 5645 0ab5 D0000000 		.4byte	.LVL114
 5646 0ab9 EC000000 		.4byte	.LVL116
 5647 0abd 0100     		.2byte	0x1
 5648 0abf 51       		.byte	0x51
 5649 0ac0 00000000 		.4byte	0
 5650 0ac4 00000000 		.4byte	0
 5651              	.LLST49:
 5652 0ac8 FA000000 		.4byte	.LVL118
 5653 0acc FC000000 		.4byte	.LVL119
 5654 0ad0 0100     		.2byte	0x1
 5655 0ad2 51       		.byte	0x51
 5656 0ad3 00000000 		.4byte	0
 5657 0ad7 00000000 		.4byte	0
 5658              	.LLST50:
 5659 0adb 00000000 		.4byte	.LVL120
 5660 0adf 20000000 		.4byte	.LVL122
 5661 0ae3 0100     		.2byte	0x1
 5662 0ae5 50       		.byte	0x50
 5663 0ae6 20000000 		.4byte	.LVL122
 5664 0aea 4E000000 		.4byte	.LVL132
 5665 0aee 0100     		.2byte	0x1
ARM GAS  C:\Users\haske\AppData\Local\Temp\ccF9IbRI.s 			page 123


 5666 0af0 57       		.byte	0x57
 5667 0af1 4E000000 		.4byte	.LVL132
 5668 0af5 54000000 		.4byte	.LVL133
 5669 0af9 0100     		.2byte	0x1
 5670 0afb 50       		.byte	0x50
 5671 0afc 54000000 		.4byte	.LVL133
 5672 0b00 84000000 		.4byte	.LVL144
 5673 0b04 0100     		.2byte	0x1
 5674 0b06 57       		.byte	0x57
 5675 0b07 84000000 		.4byte	.LVL144
 5676 0b0b 90000000 		.4byte	.LVL146
 5677 0b0f 0100     		.2byte	0x1
 5678 0b11 50       		.byte	0x50
 5679 0b12 90000000 		.4byte	.LVL146
 5680 0b16 C6000000 		.4byte	.LVL150
 5681 0b1a 0100     		.2byte	0x1
 5682 0b1c 57       		.byte	0x57
 5683 0b1d C6000000 		.4byte	.LVL150
 5684 0b21 D4000000 		.4byte	.LVL152
 5685 0b25 0100     		.2byte	0x1
 5686 0b27 50       		.byte	0x50
 5687 0b28 D4000000 		.4byte	.LVL152
 5688 0b2c 0A010000 		.4byte	.LVL156
 5689 0b30 0100     		.2byte	0x1
 5690 0b32 57       		.byte	0x57
 5691 0b33 0A010000 		.4byte	.LVL156
 5692 0b37 34010000 		.4byte	.LVL160
 5693 0b3b 0100     		.2byte	0x1
 5694 0b3d 50       		.byte	0x50
 5695 0b3e 34010000 		.4byte	.LVL160
 5696 0b42 50010000 		.4byte	.LVL162
 5697 0b46 0100     		.2byte	0x1
 5698 0b48 57       		.byte	0x57
 5699 0b49 50010000 		.4byte	.LVL162
 5700 0b4d 68010000 		.4byte	.LVL167
 5701 0b51 0100     		.2byte	0x1
 5702 0b53 50       		.byte	0x50
 5703 0b54 68010000 		.4byte	.LVL167
 5704 0b58 6C010000 		.4byte	.LFE57
 5705 0b5c 0100     		.2byte	0x1
 5706 0b5e 57       		.byte	0x57
 5707 0b5f 00000000 		.4byte	0
 5708 0b63 00000000 		.4byte	0
 5709              	.LLST51:
 5710 0b67 00000000 		.4byte	.LVL120
 5711 0b6b 27000000 		.4byte	.LVL123-1
 5712 0b6f 0100     		.2byte	0x1
 5713 0b71 51       		.byte	0x51
 5714 0b72 27000000 		.4byte	.LVL123-1
 5715 0b76 4E000000 		.4byte	.LVL132
 5716 0b7a 0400     		.2byte	0x4
 5717 0b7c F3       		.byte	0xf3
 5718 0b7d 01       		.uleb128 0x1
 5719 0b7e 51       		.byte	0x51
 5720 0b7f 9F       		.byte	0x9f
 5721 0b80 4E000000 		.4byte	.LVL132
 5722 0b84 5B000000 		.4byte	.LVL134-1
ARM GAS  C:\Users\haske\AppData\Local\Temp\ccF9IbRI.s 			page 124


 5723 0b88 0100     		.2byte	0x1
 5724 0b8a 51       		.byte	0x51
 5725 0b8b 5B000000 		.4byte	.LVL134-1
 5726 0b8f 84000000 		.4byte	.LVL144
 5727 0b93 0400     		.2byte	0x4
 5728 0b95 F3       		.byte	0xf3
 5729 0b96 01       		.uleb128 0x1
 5730 0b97 51       		.byte	0x51
 5731 0b98 9F       		.byte	0x9f
 5732 0b99 84000000 		.4byte	.LVL144
 5733 0b9d 90000000 		.4byte	.LVL146
 5734 0ba1 0100     		.2byte	0x1
 5735 0ba3 51       		.byte	0x51
 5736 0ba4 90000000 		.4byte	.LVL146
 5737 0ba8 A4000000 		.4byte	.LVL148
 5738 0bac 0500     		.2byte	0x5
 5739 0bae 71       		.byte	0x71
 5740 0baf 00       		.sleb128 0
 5741 0bb0 33       		.byte	0x33
 5742 0bb1 26       		.byte	0x26
 5743 0bb2 9F       		.byte	0x9f
 5744 0bb3 C6000000 		.4byte	.LVL150
 5745 0bb7 D4000000 		.4byte	.LVL152
 5746 0bbb 0100     		.2byte	0x1
 5747 0bbd 51       		.byte	0x51
 5748 0bbe D4000000 		.4byte	.LVL152
 5749 0bc2 E8000000 		.4byte	.LVL154
 5750 0bc6 0500     		.2byte	0x5
 5751 0bc8 71       		.byte	0x71
 5752 0bc9 00       		.sleb128 0
 5753 0bca 32       		.byte	0x32
 5754 0bcb 26       		.byte	0x26
 5755 0bcc 9F       		.byte	0x9f
 5756 0bcd 0A010000 		.4byte	.LVL156
 5757 0bd1 1A010000 		.4byte	.LVL158
 5758 0bd5 0100     		.2byte	0x1
 5759 0bd7 51       		.byte	0x51
 5760 0bd8 1A010000 		.4byte	.LVL158
 5761 0bdc 2C010000 		.4byte	.LVL159
 5762 0be0 0500     		.2byte	0x5
 5763 0be2 75       		.byte	0x75
 5764 0be3 00       		.sleb128 0
 5765 0be4 31       		.byte	0x31
 5766 0be5 26       		.byte	0x26
 5767 0be6 9F       		.byte	0x9f
 5768 0be7 50010000 		.4byte	.LVL162
 5769 0beb 68010000 		.4byte	.LVL167
 5770 0bef 0100     		.2byte	0x1
 5771 0bf1 51       		.byte	0x51
 5772 0bf2 00000000 		.4byte	0
 5773 0bf6 00000000 		.4byte	0
 5774              	.LLST52:
 5775 0bfa 00000000 		.4byte	.LVL120
 5776 0bfe 27000000 		.4byte	.LVL123-1
 5777 0c02 0100     		.2byte	0x1
 5778 0c04 52       		.byte	0x52
 5779 0c05 27000000 		.4byte	.LVL123-1
ARM GAS  C:\Users\haske\AppData\Local\Temp\ccF9IbRI.s 			page 125


 5780 0c09 4E000000 		.4byte	.LVL132
 5781 0c0d 0400     		.2byte	0x4
 5782 0c0f F3       		.byte	0xf3
 5783 0c10 01       		.uleb128 0x1
 5784 0c11 52       		.byte	0x52
 5785 0c12 9F       		.byte	0x9f
 5786 0c13 4E000000 		.4byte	.LVL132
 5787 0c17 5B000000 		.4byte	.LVL134-1
 5788 0c1b 0100     		.2byte	0x1
 5789 0c1d 52       		.byte	0x52
 5790 0c1e 5B000000 		.4byte	.LVL134-1
 5791 0c22 84000000 		.4byte	.LVL144
 5792 0c26 0400     		.2byte	0x4
 5793 0c28 F3       		.byte	0xf3
 5794 0c29 01       		.uleb128 0x1
 5795 0c2a 52       		.byte	0x52
 5796 0c2b 9F       		.byte	0x9f
 5797 0c2c 84000000 		.4byte	.LVL144
 5798 0c30 8C000000 		.4byte	.LVL145
 5799 0c34 0100     		.2byte	0x1
 5800 0c36 52       		.byte	0x52
 5801 0c37 8C000000 		.4byte	.LVL145
 5802 0c3b C6000000 		.4byte	.LVL150
 5803 0c3f 0400     		.2byte	0x4
 5804 0c41 F3       		.byte	0xf3
 5805 0c42 01       		.uleb128 0x1
 5806 0c43 52       		.byte	0x52
 5807 0c44 9F       		.byte	0x9f
 5808 0c45 C6000000 		.4byte	.LVL150
 5809 0c49 CE000000 		.4byte	.LVL151
 5810 0c4d 0100     		.2byte	0x1
 5811 0c4f 52       		.byte	0x52
 5812 0c50 CE000000 		.4byte	.LVL151
 5813 0c54 0A010000 		.4byte	.LVL156
 5814 0c58 0400     		.2byte	0x4
 5815 0c5a F3       		.byte	0xf3
 5816 0c5b 01       		.uleb128 0x1
 5817 0c5c 52       		.byte	0x52
 5818 0c5d 9F       		.byte	0x9f
 5819 0c5e 0A010000 		.4byte	.LVL156
 5820 0c62 12010000 		.4byte	.LVL157
 5821 0c66 0100     		.2byte	0x1
 5822 0c68 52       		.byte	0x52
 5823 0c69 12010000 		.4byte	.LVL157
 5824 0c6d 50010000 		.4byte	.LVL162
 5825 0c71 0400     		.2byte	0x4
 5826 0c73 F3       		.byte	0xf3
 5827 0c74 01       		.uleb128 0x1
 5828 0c75 52       		.byte	0x52
 5829 0c76 9F       		.byte	0x9f
 5830 0c77 50010000 		.4byte	.LVL162
 5831 0c7b 56010000 		.4byte	.LVL164
 5832 0c7f 0100     		.2byte	0x1
 5833 0c81 52       		.byte	0x52
 5834 0c82 56010000 		.4byte	.LVL164
 5835 0c86 6C010000 		.4byte	.LFE57
 5836 0c8a 0400     		.2byte	0x4
ARM GAS  C:\Users\haske\AppData\Local\Temp\ccF9IbRI.s 			page 126


 5837 0c8c F3       		.byte	0xf3
 5838 0c8d 01       		.uleb128 0x1
 5839 0c8e 52       		.byte	0x52
 5840 0c8f 9F       		.byte	0x9f
 5841 0c90 00000000 		.4byte	0
 5842 0c94 00000000 		.4byte	0
 5843              	.LLST53:
 5844 0c98 10000000 		.4byte	.LVL121
 5845 0c9c 8C000000 		.4byte	.LVL145
 5846 0ca0 0100     		.2byte	0x1
 5847 0ca2 54       		.byte	0x54
 5848 0ca3 8C000000 		.4byte	.LVL145
 5849 0ca7 C6000000 		.4byte	.LVL150
 5850 0cab 0100     		.2byte	0x1
 5851 0cad 52       		.byte	0x52
 5852 0cae C6000000 		.4byte	.LVL150
 5853 0cb2 CE000000 		.4byte	.LVL151
 5854 0cb6 0100     		.2byte	0x1
 5855 0cb8 54       		.byte	0x54
 5856 0cb9 CE000000 		.4byte	.LVL151
 5857 0cbd 0A010000 		.4byte	.LVL156
 5858 0cc1 0100     		.2byte	0x1
 5859 0cc3 52       		.byte	0x52
 5860 0cc4 0A010000 		.4byte	.LVL156
 5861 0cc8 12010000 		.4byte	.LVL157
 5862 0ccc 0100     		.2byte	0x1
 5863 0cce 54       		.byte	0x54
 5864 0ccf 12010000 		.4byte	.LVL157
 5865 0cd3 50010000 		.4byte	.LVL162
 5866 0cd7 0100     		.2byte	0x1
 5867 0cd9 52       		.byte	0x52
 5868 0cda 50010000 		.4byte	.LVL162
 5869 0cde 54010000 		.4byte	.LVL163
 5870 0ce2 0100     		.2byte	0x1
 5871 0ce4 54       		.byte	0x54
 5872 0ce5 54010000 		.4byte	.LVL163
 5873 0ce9 68010000 		.4byte	.LVL167
 5874 0ced 0400     		.2byte	0x4
 5875 0cef 74       		.byte	0x74
 5876 0cf0 8008     		.sleb128 1024
 5877 0cf2 9F       		.byte	0x9f
 5878 0cf3 00000000 		.4byte	0
 5879 0cf7 00000000 		.4byte	0
 5880              	.LLST54:
 5881 0cfb 2C000000 		.4byte	.LVL124
 5882 0cff 3E000000 		.4byte	.LVL128
 5883 0d03 0100     		.2byte	0x1
 5884 0d05 50       		.byte	0x50
 5885 0d06 00000000 		.4byte	0
 5886 0d0a 00000000 		.4byte	0
 5887              	.LLST55:
 5888 0d0e 36000000 		.4byte	.LVL125
 5889 0d12 3A000000 		.4byte	.LVL126
 5890 0d16 0600     		.2byte	0x6
 5891 0d18 70       		.byte	0x70
 5892 0d19 00       		.sleb128 0
 5893 0d1a 72       		.byte	0x72
ARM GAS  C:\Users\haske\AppData\Local\Temp\ccF9IbRI.s 			page 127


 5894 0d1b 00       		.sleb128 0
 5895 0d1c 1E       		.byte	0x1e
 5896 0d1d 9F       		.byte	0x9f
 5897 0d1e 3A000000 		.4byte	.LVL126
 5898 0d22 3E000000 		.4byte	.LVL128
 5899 0d26 1300     		.2byte	0x13
 5900 0d28 77       		.byte	0x77
 5901 0d29 00       		.sleb128 0
 5902 0d2a 06       		.byte	0x6
 5903 0d2b 09       		.byte	0x9
 5904 0d2c EF       		.byte	0xef
 5905 0d2d 24       		.byte	0x24
 5906 0d2e 09       		.byte	0x9
 5907 0d2f F9       		.byte	0xf9
 5908 0d30 25       		.byte	0x25
 5909 0d31 76       		.byte	0x76
 5910 0d32 00       		.sleb128 0
 5911 0d33 1E       		.byte	0x1e
 5912 0d34 75       		.byte	0x75
 5913 0d35 00       		.sleb128 0
 5914 0d36 22       		.byte	0x22
 5915 0d37 70       		.byte	0x70
 5916 0d38 00       		.sleb128 0
 5917 0d39 1E       		.byte	0x1e
 5918 0d3a 9F       		.byte	0x9f
 5919 0d3b 00000000 		.4byte	0
 5920 0d3f 00000000 		.4byte	0
 5921              	.LLST56:
 5922 0d43 3A000000 		.4byte	.LVL126
 5923 0d47 4E000000 		.4byte	.LVL132
 5924 0d4b 0100     		.2byte	0x1
 5925 0d4d 50       		.byte	0x50
 5926 0d4e 00000000 		.4byte	0
 5927 0d52 00000000 		.4byte	0
 5928              	.LLST57:
 5929 0d56 3A000000 		.4byte	.LVL126
 5930 0d5a 3C000000 		.4byte	.LVL127
 5931 0d5e 0300     		.2byte	0x3
 5932 0d60 91       		.byte	0x91
 5933 0d61 64       		.sleb128 -28
 5934 0d62 9F       		.byte	0x9f
 5935 0d63 3C000000 		.4byte	.LVL127
 5936 0d67 3E000000 		.4byte	.LVL128
 5937 0d6b 0100     		.2byte	0x1
 5938 0d6d 53       		.byte	0x53
 5939 0d6e 3E000000 		.4byte	.LVL128
 5940 0d72 4E000000 		.4byte	.LVL132
 5941 0d76 0300     		.2byte	0x3
 5942 0d78 91       		.byte	0x91
 5943 0d79 64       		.sleb128 -28
 5944 0d7a 9F       		.byte	0x9f
 5945 0d7b 00000000 		.4byte	0
 5946 0d7f 00000000 		.4byte	0
 5947              	.LLST58:
 5948 0d83 3A000000 		.4byte	.LVL126
 5949 0d87 3E000000 		.4byte	.LVL128
 5950 0d8b 0100     		.2byte	0x1
ARM GAS  C:\Users\haske\AppData\Local\Temp\ccF9IbRI.s 			page 128


 5951 0d8d 52       		.byte	0x52
 5952 0d8e 00000000 		.4byte	0
 5953 0d92 00000000 		.4byte	0
 5954              	.LLST59:
 5955 0d96 3A000000 		.4byte	.LVL126
 5956 0d9a 4E000000 		.4byte	.LVL132
 5957 0d9e 0100     		.2byte	0x1
 5958 0da0 52       		.byte	0x52
 5959 0da1 00000000 		.4byte	0
 5960 0da5 00000000 		.4byte	0
 5961              	.LLST60:
 5962 0da9 3A000000 		.4byte	.LVL126
 5963 0dad 3C000000 		.4byte	.LVL127
 5964 0db1 0300     		.2byte	0x3
 5965 0db3 91       		.byte	0x91
 5966 0db4 64       		.sleb128 -28
 5967 0db5 9F       		.byte	0x9f
 5968 0db6 3C000000 		.4byte	.LVL127
 5969 0dba 42000000 		.4byte	.LVL129
 5970 0dbe 0100     		.2byte	0x1
 5971 0dc0 53       		.byte	0x53
 5972 0dc1 42000000 		.4byte	.LVL129
 5973 0dc5 46000000 		.4byte	.LVL130
 5974 0dc9 0300     		.2byte	0x3
 5975 0dcb 73       		.byte	0x73
 5976 0dcc 7F       		.sleb128 -1
 5977 0dcd 9F       		.byte	0x9f
 5978 0dce 46000000 		.4byte	.LVL130
 5979 0dd2 4E000000 		.4byte	.LVL132
 5980 0dd6 0100     		.2byte	0x1
 5981 0dd8 53       		.byte	0x53
 5982 0dd9 00000000 		.4byte	0
 5983 0ddd 00000000 		.4byte	0
 5984              	.LLST61:
 5985 0de1 60000000 		.4byte	.LVL135
 5986 0de5 70000000 		.4byte	.LVL138
 5987 0de9 0100     		.2byte	0x1
 5988 0deb 50       		.byte	0x50
 5989 0dec 70000000 		.4byte	.LVL138
 5990 0df0 74000000 		.4byte	.LVL140
 5991 0df4 0300     		.2byte	0x3
 5992 0df6 70       		.byte	0x70
 5993 0df7 01       		.sleb128 1
 5994 0df8 9F       		.byte	0x9f
 5995 0df9 00000000 		.4byte	0
 5996 0dfd 00000000 		.4byte	0
 5997              	.LLST62:
 5998 0e01 6A000000 		.4byte	.LVL136
 5999 0e05 6E000000 		.4byte	.LVL137
 6000 0e09 0600     		.2byte	0x6
 6001 0e0b 70       		.byte	0x70
 6002 0e0c 00       		.sleb128 0
 6003 0e0d 72       		.byte	0x72
 6004 0e0e 00       		.sleb128 0
 6005 0e0f 1E       		.byte	0x1e
 6006 0e10 9F       		.byte	0x9f
 6007 0e11 6E000000 		.4byte	.LVL137
ARM GAS  C:\Users\haske\AppData\Local\Temp\ccF9IbRI.s 			page 129


 6008 0e15 70000000 		.4byte	.LVL138
 6009 0e19 1300     		.2byte	0x13
 6010 0e1b 77       		.byte	0x77
 6011 0e1c 00       		.sleb128 0
 6012 0e1d 06       		.byte	0x6
 6013 0e1e 09       		.byte	0x9
 6014 0e1f EF       		.byte	0xef
 6015 0e20 24       		.byte	0x24
 6016 0e21 09       		.byte	0x9
 6017 0e22 F9       		.byte	0xf9
 6018 0e23 25       		.byte	0x25
 6019 0e24 76       		.byte	0x76
 6020 0e25 00       		.sleb128 0
 6021 0e26 1E       		.byte	0x1e
 6022 0e27 75       		.byte	0x75
 6023 0e28 00       		.sleb128 0
 6024 0e29 22       		.byte	0x22
 6025 0e2a 70       		.byte	0x70
 6026 0e2b 00       		.sleb128 0
 6027 0e2c 1E       		.byte	0x1e
 6028 0e2d 9F       		.byte	0x9f
 6029 0e2e 70000000 		.4byte	.LVL138
 6030 0e32 74000000 		.4byte	.LVL140
 6031 0e36 1300     		.2byte	0x13
 6032 0e38 70       		.byte	0x70
 6033 0e39 01       		.sleb128 1
 6034 0e3a 77       		.byte	0x77
 6035 0e3b 00       		.sleb128 0
 6036 0e3c 06       		.byte	0x6
 6037 0e3d 09       		.byte	0x9
 6038 0e3e EF       		.byte	0xef
 6039 0e3f 24       		.byte	0x24
 6040 0e40 09       		.byte	0x9
 6041 0e41 F9       		.byte	0xf9
 6042 0e42 25       		.byte	0x25
 6043 0e43 76       		.byte	0x76
 6044 0e44 00       		.sleb128 0
 6045 0e45 1E       		.byte	0x1e
 6046 0e46 75       		.byte	0x75
 6047 0e47 00       		.sleb128 0
 6048 0e48 22       		.byte	0x22
 6049 0e49 1E       		.byte	0x1e
 6050 0e4a 9F       		.byte	0x9f
 6051 0e4b 00000000 		.4byte	0
 6052 0e4f 00000000 		.4byte	0
 6053              	.LLST63:
 6054 0e53 70000000 		.4byte	.LVL138
 6055 0e57 84000000 		.4byte	.LVL144
 6056 0e5b 0100     		.2byte	0x1
 6057 0e5d 50       		.byte	0x50
 6058 0e5e 00000000 		.4byte	0
 6059 0e62 00000000 		.4byte	0
 6060              	.LLST64:
 6061 0e66 70000000 		.4byte	.LVL138
 6062 0e6a 72000000 		.4byte	.LVL139
 6063 0e6e 0300     		.2byte	0x3
 6064 0e70 91       		.byte	0x91
ARM GAS  C:\Users\haske\AppData\Local\Temp\ccF9IbRI.s 			page 130


 6065 0e71 64       		.sleb128 -28
 6066 0e72 9F       		.byte	0x9f
 6067 0e73 72000000 		.4byte	.LVL139
 6068 0e77 74000000 		.4byte	.LVL140
 6069 0e7b 0100     		.2byte	0x1
 6070 0e7d 53       		.byte	0x53
 6071 0e7e 74000000 		.4byte	.LVL140
 6072 0e82 84000000 		.4byte	.LVL144
 6073 0e86 0300     		.2byte	0x3
 6074 0e88 91       		.byte	0x91
 6075 0e89 64       		.sleb128 -28
 6076 0e8a 9F       		.byte	0x9f
 6077 0e8b 00000000 		.4byte	0
 6078 0e8f 00000000 		.4byte	0
 6079              	.LLST65:
 6080 0e93 70000000 		.4byte	.LVL138
 6081 0e97 74000000 		.4byte	.LVL140
 6082 0e9b 0100     		.2byte	0x1
 6083 0e9d 52       		.byte	0x52
 6084 0e9e 00000000 		.4byte	0
 6085 0ea2 00000000 		.4byte	0
 6086              	.LLST66:
 6087 0ea6 70000000 		.4byte	.LVL138
 6088 0eaa 84000000 		.4byte	.LVL144
 6089 0eae 0100     		.2byte	0x1
 6090 0eb0 52       		.byte	0x52
 6091 0eb1 00000000 		.4byte	0
 6092 0eb5 00000000 		.4byte	0
 6093              	.LLST67:
 6094 0eb9 70000000 		.4byte	.LVL138
 6095 0ebd 72000000 		.4byte	.LVL139
 6096 0ec1 0300     		.2byte	0x3
 6097 0ec3 91       		.byte	0x91
 6098 0ec4 64       		.sleb128 -28
 6099 0ec5 9F       		.byte	0x9f
 6100 0ec6 72000000 		.4byte	.LVL139
 6101 0eca 78000000 		.4byte	.LVL141
 6102 0ece 0100     		.2byte	0x1
 6103 0ed0 53       		.byte	0x53
 6104 0ed1 78000000 		.4byte	.LVL141
 6105 0ed5 7C000000 		.4byte	.LVL142
 6106 0ed9 0300     		.2byte	0x3
 6107 0edb 73       		.byte	0x73
 6108 0edc 7F       		.sleb128 -1
 6109 0edd 9F       		.byte	0x9f
 6110 0ede 7C000000 		.4byte	.LVL142
 6111 0ee2 84000000 		.4byte	.LVL144
 6112 0ee6 0100     		.2byte	0x1
 6113 0ee8 53       		.byte	0x53
 6114 0ee9 00000000 		.4byte	0
 6115 0eed 00000000 		.4byte	0
 6116              	.LLST68:
 6117 0ef1 90000000 		.4byte	.LVL146
 6118 0ef5 AA000000 		.4byte	.LVL149
 6119 0ef9 0100     		.2byte	0x1
 6120 0efb 50       		.byte	0x50
 6121 0efc 00000000 		.4byte	0
ARM GAS  C:\Users\haske\AppData\Local\Temp\ccF9IbRI.s 			page 131


 6122 0f00 00000000 		.4byte	0
 6123              	.LLST69:
 6124 0f04 A2000000 		.4byte	.LVL147
 6125 0f08 C6000000 		.4byte	.LVL150
 6126 0f0c 0100     		.2byte	0x1
 6127 0f0e 55       		.byte	0x55
 6128 0f0f 00000000 		.4byte	0
 6129 0f13 00000000 		.4byte	0
 6130              	.LLST70:
 6131 0f17 D4000000 		.4byte	.LVL152
 6132 0f1b EE000000 		.4byte	.LVL155
 6133 0f1f 0100     		.2byte	0x1
 6134 0f21 50       		.byte	0x50
 6135 0f22 00000000 		.4byte	0
 6136 0f26 00000000 		.4byte	0
 6137              	.LLST71:
 6138 0f2a E6000000 		.4byte	.LVL153
 6139 0f2e 0A010000 		.4byte	.LVL156
 6140 0f32 0100     		.2byte	0x1
 6141 0f34 55       		.byte	0x55
 6142 0f35 00000000 		.4byte	0
 6143 0f39 00000000 		.4byte	0
 6144              	.LLST72:
 6145 0f3d 1A010000 		.4byte	.LVL158
 6146 0f41 42010000 		.4byte	.LVL161
 6147 0f45 0100     		.2byte	0x1
 6148 0f47 51       		.byte	0x51
 6149 0f48 00000000 		.4byte	0
 6150 0f4c 00000000 		.4byte	0
 6151              	.LLST73:
 6152 0f50 2C010000 		.4byte	.LVL159
 6153 0f54 50010000 		.4byte	.LVL162
 6154 0f58 0100     		.2byte	0x1
 6155 0f5a 55       		.byte	0x55
 6156 0f5b 00000000 		.4byte	0
 6157 0f5f 00000000 		.4byte	0
 6158              	.LLST74:
 6159 0f63 5E010000 		.4byte	.LVL165
 6160 0f67 62010000 		.4byte	.LVL166
 6161 0f6b 0100     		.2byte	0x1
 6162 0f6d 52       		.byte	0x52
 6163 0f6e 62010000 		.4byte	.LVL166
 6164 0f72 68010000 		.4byte	.LVL167
 6165 0f76 0400     		.2byte	0x4
 6166 0f78 72       		.byte	0x72
 6167 0f79 8078     		.sleb128 -1024
 6168 0f7b 9F       		.byte	0x9f
 6169 0f7c 00000000 		.4byte	0
 6170 0f80 00000000 		.4byte	0
 6171              	.LLST75:
 6172 0f84 00000000 		.4byte	.LVL168
 6173 0f88 7E000000 		.4byte	.LVL177
 6174 0f8c 0100     		.2byte	0x1
 6175 0f8e 50       		.byte	0x50
 6176 0f8f 7E000000 		.4byte	.LVL177
 6177 0f93 92000000 		.4byte	.LFE58
 6178 0f97 0400     		.2byte	0x4
ARM GAS  C:\Users\haske\AppData\Local\Temp\ccF9IbRI.s 			page 132


 6179 0f99 F3       		.byte	0xf3
 6180 0f9a 01       		.uleb128 0x1
 6181 0f9b 50       		.byte	0x50
 6182 0f9c 9F       		.byte	0x9f
 6183 0f9d 00000000 		.4byte	0
 6184 0fa1 00000000 		.4byte	0
 6185              	.LLST76:
 6186 0fa5 00000000 		.4byte	.LVL168
 6187 0fa9 7A000000 		.4byte	.LVL175
 6188 0fad 0100     		.2byte	0x1
 6189 0faf 51       		.byte	0x51
 6190 0fb0 7A000000 		.4byte	.LVL175
 6191 0fb4 92000000 		.4byte	.LFE58
 6192 0fb8 0400     		.2byte	0x4
 6193 0fba F3       		.byte	0xf3
 6194 0fbb 01       		.uleb128 0x1
 6195 0fbc 51       		.byte	0x51
 6196 0fbd 9F       		.byte	0x9f
 6197 0fbe 00000000 		.4byte	0
 6198 0fc2 00000000 		.4byte	0
 6199              	.LLST77:
 6200 0fc6 00000000 		.4byte	.LVL168
 6201 0fca 58000000 		.4byte	.LVL171
 6202 0fce 0100     		.2byte	0x1
 6203 0fd0 52       		.byte	0x52
 6204 0fd1 90000000 		.4byte	.LVL181
 6205 0fd5 92000000 		.4byte	.LFE58
 6206 0fd9 0100     		.2byte	0x1
 6207 0fdb 52       		.byte	0x52
 6208 0fdc 00000000 		.4byte	0
 6209 0fe0 00000000 		.4byte	0
 6210              	.LLST78:
 6211 0fe4 76000000 		.4byte	.LVL174
 6212 0fe8 7C000000 		.4byte	.LVL176
 6213 0fec 0100     		.2byte	0x1
 6214 0fee 53       		.byte	0x53
 6215 0fef 7C000000 		.4byte	.LVL176
 6216 0ff3 7E000000 		.4byte	.LVL177
 6217 0ff7 0200     		.2byte	0x2
 6218 0ff9 70       		.byte	0x70
 6219 0ffa 08       		.sleb128 8
 6220 0ffb 00000000 		.4byte	0
 6221 0fff 00000000 		.4byte	0
 6222              	.LLST79:
 6223 1003 3E000000 		.4byte	.LVL170
 6224 1007 6E000000 		.4byte	.LVL172
 6225 100b 0100     		.2byte	0x1
 6226 100d 54       		.byte	0x54
 6227 100e 70000000 		.4byte	.LVL173
 6228 1012 90000000 		.4byte	.LVL181
 6229 1016 0100     		.2byte	0x1
 6230 1018 54       		.byte	0x54
 6231 1019 00000000 		.4byte	0
 6232 101d 00000000 		.4byte	0
 6233              	.LLST80:
 6234 1021 7A000000 		.4byte	.LVL175
 6235 1025 7E000000 		.4byte	.LVL177
ARM GAS  C:\Users\haske\AppData\Local\Temp\ccF9IbRI.s 			page 133


 6236 1029 0200     		.2byte	0x2
 6237 102b 34       		.byte	0x34
 6238 102c 9F       		.byte	0x9f
 6239 102d 7E000000 		.4byte	.LVL177
 6240 1031 90000000 		.4byte	.LVL181
 6241 1035 0100     		.2byte	0x1
 6242 1037 53       		.byte	0x53
 6243 1038 00000000 		.4byte	0
 6244 103c 00000000 		.4byte	0
 6245              	.LLST81:
 6246 1040 7A000000 		.4byte	.LVL175
 6247 1044 90000000 		.4byte	.LVL181
 6248 1048 0300     		.2byte	0x3
 6249 104a 91       		.byte	0x91
 6250 104b 74       		.sleb128 -12
 6251 104c 9F       		.byte	0x9f
 6252 104d 00000000 		.4byte	0
 6253 1051 00000000 		.4byte	0
 6254              	.LLST82:
 6255 1055 7A000000 		.4byte	.LVL175
 6256 1059 7E000000 		.4byte	.LVL177
 6257 105d 0100     		.2byte	0x1
 6258 105f 51       		.byte	0x51
 6259 1060 00000000 		.4byte	0
 6260 1064 00000000 		.4byte	0
 6261              	.LLST83:
 6262 1068 7E000000 		.4byte	.LVL177
 6263 106c 90000000 		.4byte	.LVL181
 6264 1070 0100     		.2byte	0x1
 6265 1072 51       		.byte	0x51
 6266 1073 00000000 		.4byte	0
 6267 1077 00000000 		.4byte	0
 6268              	.LLST84:
 6269 107b 7E000000 		.4byte	.LVL177
 6270 107f 82000000 		.4byte	.LVL178
 6271 1083 0100     		.2byte	0x1
 6272 1085 52       		.byte	0x52
 6273 1086 82000000 		.4byte	.LVL178
 6274 108a 86000000 		.4byte	.LVL179
 6275 108e 0300     		.2byte	0x3
 6276 1090 72       		.byte	0x72
 6277 1091 7F       		.sleb128 -1
 6278 1092 9F       		.byte	0x9f
 6279 1093 86000000 		.4byte	.LVL179
 6280 1097 90000000 		.4byte	.LVL181
 6281 109b 0100     		.2byte	0x1
 6282 109d 52       		.byte	0x52
 6283 109e 00000000 		.4byte	0
 6284 10a2 00000000 		.4byte	0
 6285              	.LLST85:
 6286 10a6 00000000 		.4byte	.LVL182
 6287 10aa 08000000 		.4byte	.LVL183
 6288 10ae 0100     		.2byte	0x1
 6289 10b0 50       		.byte	0x50
 6290 10b1 08000000 		.4byte	.LVL183
 6291 10b5 16000000 		.4byte	.LVL186
 6292 10b9 0100     		.2byte	0x1
ARM GAS  C:\Users\haske\AppData\Local\Temp\ccF9IbRI.s 			page 134


 6293 10bb 54       		.byte	0x54
 6294 10bc 16000000 		.4byte	.LVL186
 6295 10c0 18000000 		.4byte	.LFE60
 6296 10c4 0100     		.2byte	0x1
 6297 10c6 50       		.byte	0x50
 6298 10c7 00000000 		.4byte	0
 6299 10cb 00000000 		.4byte	0
 6300              	.LLST86:
 6301 10cf 00000000 		.4byte	.LVL187
 6302 10d3 1E000000 		.4byte	.LVL189
 6303 10d7 0100     		.2byte	0x1
 6304 10d9 50       		.byte	0x50
 6305 10da 1E000000 		.4byte	.LVL189
 6306 10de 24000000 		.4byte	.LVL190
 6307 10e2 0400     		.2byte	0x4
 6308 10e4 F3       		.byte	0xf3
 6309 10e5 01       		.uleb128 0x1
 6310 10e6 50       		.byte	0x50
 6311 10e7 9F       		.byte	0x9f
 6312 10e8 24000000 		.4byte	.LVL190
 6313 10ec 28000000 		.4byte	.LVL191
 6314 10f0 0100     		.2byte	0x1
 6315 10f2 50       		.byte	0x50
 6316 10f3 28000000 		.4byte	.LVL191
 6317 10f7 2E000000 		.4byte	.LVL192
 6318 10fb 0400     		.2byte	0x4
 6319 10fd F3       		.byte	0xf3
 6320 10fe 01       		.uleb128 0x1
 6321 10ff 50       		.byte	0x50
 6322 1100 9F       		.byte	0x9f
 6323 1101 2E000000 		.4byte	.LVL192
 6324 1105 30000000 		.4byte	.LVL193
 6325 1109 0100     		.2byte	0x1
 6326 110b 50       		.byte	0x50
 6327 110c 30000000 		.4byte	.LVL193
 6328 1110 36000000 		.4byte	.LVL194
 6329 1114 0400     		.2byte	0x4
 6330 1116 F3       		.byte	0xf3
 6331 1117 01       		.uleb128 0x1
 6332 1118 50       		.byte	0x50
 6333 1119 9F       		.byte	0x9f
 6334 111a 36000000 		.4byte	.LVL194
 6335 111e 40000000 		.4byte	.LVL195
 6336 1122 0100     		.2byte	0x1
 6337 1124 50       		.byte	0x50
 6338 1125 40000000 		.4byte	.LVL195
 6339 1129 46000000 		.4byte	.LVL196
 6340 112d 0400     		.2byte	0x4
 6341 112f F3       		.byte	0xf3
 6342 1130 01       		.uleb128 0x1
 6343 1131 50       		.byte	0x50
 6344 1132 9F       		.byte	0x9f
 6345 1133 46000000 		.4byte	.LVL196
 6346 1137 50000000 		.4byte	.LVL197
 6347 113b 0100     		.2byte	0x1
 6348 113d 50       		.byte	0x50
 6349 113e 50000000 		.4byte	.LVL197
ARM GAS  C:\Users\haske\AppData\Local\Temp\ccF9IbRI.s 			page 135


 6350 1142 56000000 		.4byte	.LVL198
 6351 1146 0400     		.2byte	0x4
 6352 1148 F3       		.byte	0xf3
 6353 1149 01       		.uleb128 0x1
 6354 114a 50       		.byte	0x50
 6355 114b 9F       		.byte	0x9f
 6356 114c 56000000 		.4byte	.LVL198
 6357 1150 5A000000 		.4byte	.LVL199
 6358 1154 0100     		.2byte	0x1
 6359 1156 50       		.byte	0x50
 6360 1157 5A000000 		.4byte	.LVL199
 6361 115b 62000000 		.4byte	.LVL200
 6362 115f 0400     		.2byte	0x4
 6363 1161 F3       		.byte	0xf3
 6364 1162 01       		.uleb128 0x1
 6365 1163 50       		.byte	0x50
 6366 1164 9F       		.byte	0x9f
 6367 1165 62000000 		.4byte	.LVL200
 6368 1169 66000000 		.4byte	.LVL201
 6369 116d 0100     		.2byte	0x1
 6370 116f 50       		.byte	0x50
 6371 1170 66000000 		.4byte	.LVL201
 6372 1174 68000000 		.4byte	.LVL202
 6373 1178 0400     		.2byte	0x4
 6374 117a F3       		.byte	0xf3
 6375 117b 01       		.uleb128 0x1
 6376 117c 50       		.byte	0x50
 6377 117d 9F       		.byte	0x9f
 6378 117e 68000000 		.4byte	.LVL202
 6379 1182 72000000 		.4byte	.LVL203
 6380 1186 0100     		.2byte	0x1
 6381 1188 50       		.byte	0x50
 6382 1189 72000000 		.4byte	.LVL203
 6383 118d 7C000000 		.4byte	.LVL205
 6384 1191 0400     		.2byte	0x4
 6385 1193 F3       		.byte	0xf3
 6386 1194 01       		.uleb128 0x1
 6387 1195 50       		.byte	0x50
 6388 1196 9F       		.byte	0x9f
 6389 1197 7C000000 		.4byte	.LVL205
 6390 119b 86000000 		.4byte	.LVL206
 6391 119f 0100     		.2byte	0x1
 6392 11a1 50       		.byte	0x50
 6393 11a2 86000000 		.4byte	.LVL206
 6394 11a6 90000000 		.4byte	.LVL208
 6395 11aa 0400     		.2byte	0x4
 6396 11ac F3       		.byte	0xf3
 6397 11ad 01       		.uleb128 0x1
 6398 11ae 50       		.byte	0x50
 6399 11af 9F       		.byte	0x9f
 6400 11b0 90000000 		.4byte	.LVL208
 6401 11b4 94000000 		.4byte	.LVL209
 6402 11b8 0100     		.2byte	0x1
 6403 11ba 50       		.byte	0x50
 6404 11bb 94000000 		.4byte	.LVL209
 6405 11bf A0000000 		.4byte	.LVL211
 6406 11c3 0400     		.2byte	0x4
ARM GAS  C:\Users\haske\AppData\Local\Temp\ccF9IbRI.s 			page 136


 6407 11c5 F3       		.byte	0xf3
 6408 11c6 01       		.uleb128 0x1
 6409 11c7 50       		.byte	0x50
 6410 11c8 9F       		.byte	0x9f
 6411 11c9 A0000000 		.4byte	.LVL211
 6412 11cd A8000000 		.4byte	.LVL213
 6413 11d1 0100     		.2byte	0x1
 6414 11d3 50       		.byte	0x50
 6415 11d4 A8000000 		.4byte	.LVL213
 6416 11d8 AA000000 		.4byte	.LVL214
 6417 11dc 0400     		.2byte	0x4
 6418 11de F3       		.byte	0xf3
 6419 11df 01       		.uleb128 0x1
 6420 11e0 50       		.byte	0x50
 6421 11e1 9F       		.byte	0x9f
 6422 11e2 AA000000 		.4byte	.LVL214
 6423 11e6 AC000000 		.4byte	.LVL215
 6424 11ea 0100     		.2byte	0x1
 6425 11ec 50       		.byte	0x50
 6426 11ed AC000000 		.4byte	.LVL215
 6427 11f1 AE000000 		.4byte	.LFE61
 6428 11f5 0400     		.2byte	0x4
 6429 11f7 F3       		.byte	0xf3
 6430 11f8 01       		.uleb128 0x1
 6431 11f9 50       		.byte	0x50
 6432 11fa 9F       		.byte	0x9f
 6433 11fb 00000000 		.4byte	0
 6434 11ff 00000000 		.4byte	0
 6435              	.LLST87:
 6436 1203 00000000 		.4byte	.LVL187
 6437 1207 76000000 		.4byte	.LVL204
 6438 120b 0100     		.2byte	0x1
 6439 120d 51       		.byte	0x51
 6440 120e 76000000 		.4byte	.LVL204
 6441 1212 7C000000 		.4byte	.LVL205
 6442 1216 0400     		.2byte	0x4
 6443 1218 F3       		.byte	0xf3
 6444 1219 01       		.uleb128 0x1
 6445 121a 51       		.byte	0x51
 6446 121b 9F       		.byte	0x9f
 6447 121c 7C000000 		.4byte	.LVL205
 6448 1220 8A000000 		.4byte	.LVL207
 6449 1224 0100     		.2byte	0x1
 6450 1226 51       		.byte	0x51
 6451 1227 8A000000 		.4byte	.LVL207
 6452 122b 90000000 		.4byte	.LVL208
 6453 122f 0400     		.2byte	0x4
 6454 1231 F3       		.byte	0xf3
 6455 1232 01       		.uleb128 0x1
 6456 1233 51       		.byte	0x51
 6457 1234 9F       		.byte	0x9f
 6458 1235 90000000 		.4byte	.LVL208
 6459 1239 9A000000 		.4byte	.LVL210
 6460 123d 0100     		.2byte	0x1
 6461 123f 51       		.byte	0x51
 6462 1240 9A000000 		.4byte	.LVL210
 6463 1244 A0000000 		.4byte	.LVL211
ARM GAS  C:\Users\haske\AppData\Local\Temp\ccF9IbRI.s 			page 137


 6464 1248 0400     		.2byte	0x4
 6465 124a F3       		.byte	0xf3
 6466 124b 01       		.uleb128 0x1
 6467 124c 51       		.byte	0x51
 6468 124d 9F       		.byte	0x9f
 6469 124e A0000000 		.4byte	.LVL211
 6470 1252 A4000000 		.4byte	.LVL212
 6471 1256 0100     		.2byte	0x1
 6472 1258 51       		.byte	0x51
 6473 1259 A4000000 		.4byte	.LVL212
 6474 125d AA000000 		.4byte	.LVL214
 6475 1261 0400     		.2byte	0x4
 6476 1263 F3       		.byte	0xf3
 6477 1264 01       		.uleb128 0x1
 6478 1265 51       		.byte	0x51
 6479 1266 9F       		.byte	0x9f
 6480 1267 AA000000 		.4byte	.LVL214
 6481 126b AE000000 		.4byte	.LFE61
 6482 126f 0100     		.2byte	0x1
 6483 1271 51       		.byte	0x51
 6484 1272 00000000 		.4byte	0
 6485 1276 00000000 		.4byte	0
 6486              	.LLST88:
 6487 127a 00000000 		.4byte	.LVL187
 6488 127e 02000000 		.4byte	.LVL188
 6489 1282 0100     		.2byte	0x1
 6490 1284 52       		.byte	0x52
 6491 1285 02000000 		.4byte	.LVL188
 6492 1289 AE000000 		.4byte	.LFE61
 6493 128d 0400     		.2byte	0x4
 6494 128f F3       		.byte	0xf3
 6495 1290 01       		.uleb128 0x1
 6496 1291 52       		.byte	0x52
 6497 1292 9F       		.byte	0x9f
 6498 1293 00000000 		.4byte	0
 6499 1297 00000000 		.4byte	0
 6500              	.LLST89:
 6501 129b 00000000 		.4byte	.LVL216
 6502 129f 0A000000 		.4byte	.LVL217
 6503 12a3 0100     		.2byte	0x1
 6504 12a5 50       		.byte	0x50
 6505 12a6 0A000000 		.4byte	.LVL217
 6506 12aa 6E000000 		.4byte	.LFE59
 6507 12ae 0400     		.2byte	0x4
 6508 12b0 F3       		.byte	0xf3
 6509 12b1 01       		.uleb128 0x1
 6510 12b2 50       		.byte	0x50
 6511 12b3 9F       		.byte	0x9f
 6512 12b4 00000000 		.4byte	0
 6513 12b8 00000000 		.4byte	0
 6514              	.LLST90:
 6515 12bc 00000000 		.4byte	.LVL216
 6516 12c0 0D000000 		.4byte	.LVL218-1
 6517 12c4 0100     		.2byte	0x1
 6518 12c6 51       		.byte	0x51
 6519 12c7 0D000000 		.4byte	.LVL218-1
 6520 12cb 6E000000 		.4byte	.LFE59
ARM GAS  C:\Users\haske\AppData\Local\Temp\ccF9IbRI.s 			page 138


 6521 12cf 0400     		.2byte	0x4
 6522 12d1 F3       		.byte	0xf3
 6523 12d2 01       		.uleb128 0x1
 6524 12d3 51       		.byte	0x51
 6525 12d4 9F       		.byte	0x9f
 6526 12d5 00000000 		.4byte	0
 6527 12d9 00000000 		.4byte	0
 6528              	.LLST91:
 6529 12dd 00000000 		.4byte	.LVL216
 6530 12e1 0D000000 		.4byte	.LVL218-1
 6531 12e5 0100     		.2byte	0x1
 6532 12e7 52       		.byte	0x52
 6533 12e8 0D000000 		.4byte	.LVL218-1
 6534 12ec 6E000000 		.4byte	.LFE59
 6535 12f0 0400     		.2byte	0x4
 6536 12f2 F3       		.byte	0xf3
 6537 12f3 01       		.uleb128 0x1
 6538 12f4 52       		.byte	0x52
 6539 12f5 9F       		.byte	0x9f
 6540 12f6 00000000 		.4byte	0
 6541 12fa 00000000 		.4byte	0
 6542              	.LLST92:
 6543 12fe 0E000000 		.4byte	.LVL218
 6544 1302 17000000 		.4byte	.LVL219-1
 6545 1306 0100     		.2byte	0x1
 6546 1308 50       		.byte	0x50
 6547 1309 17000000 		.4byte	.LVL219-1
 6548 130d 6A000000 		.4byte	.LVL227
 6549 1311 0100     		.2byte	0x1
 6550 1313 54       		.byte	0x54
 6551 1314 6A000000 		.4byte	.LVL227
 6552 1318 6C000000 		.4byte	.LVL228
 6553 131c 0100     		.2byte	0x1
 6554 131e 50       		.byte	0x50
 6555 131f 00000000 		.4byte	0
 6556 1323 00000000 		.4byte	0
 6557              	.LLST93:
 6558 1327 00000000 		.4byte	.LVL229
 6559 132b 4C000000 		.4byte	.LVL236
 6560 132f 0100     		.2byte	0x1
 6561 1331 50       		.byte	0x50
 6562 1332 4C000000 		.4byte	.LVL236
 6563 1336 F4000000 		.4byte	.LVL241
 6564 133a 0100     		.2byte	0x1
 6565 133c 54       		.byte	0x54
 6566 133d F4000000 		.4byte	.LVL241
 6567 1341 F8000000 		.4byte	.LFE62
 6568 1345 0400     		.2byte	0x4
 6569 1347 F3       		.byte	0xf3
 6570 1348 01       		.uleb128 0x1
 6571 1349 50       		.byte	0x50
 6572 134a 9F       		.byte	0x9f
 6573 134b 00000000 		.4byte	0
 6574 134f 00000000 		.4byte	0
 6575              	.LLST94:
 6576 1353 00000000 		.4byte	.LVL229
 6577 1357 18000000 		.4byte	.LVL230
ARM GAS  C:\Users\haske\AppData\Local\Temp\ccF9IbRI.s 			page 139


 6578 135b 0100     		.2byte	0x1
 6579 135d 51       		.byte	0x51
 6580 135e 18000000 		.4byte	.LVL230
 6581 1362 20000000 		.4byte	.LVL232
 6582 1366 0400     		.2byte	0x4
 6583 1368 F3       		.byte	0xf3
 6584 1369 01       		.uleb128 0x1
 6585 136a 51       		.byte	0x51
 6586 136b 9F       		.byte	0x9f
 6587 136c 20000000 		.4byte	.LVL232
 6588 1370 4A000000 		.4byte	.LVL235
 6589 1374 0100     		.2byte	0x1
 6590 1376 51       		.byte	0x51
 6591 1377 4A000000 		.4byte	.LVL235
 6592 137b 4F000000 		.4byte	.LVL237-1
 6593 137f 0200     		.2byte	0x2
 6594 1381 91       		.byte	0x91
 6595 1382 64       		.sleb128 -28
 6596 1383 4F000000 		.4byte	.LVL237-1
 6597 1387 F8000000 		.4byte	.LFE62
 6598 138b 0400     		.2byte	0x4
 6599 138d F3       		.byte	0xf3
 6600 138e 01       		.uleb128 0x1
 6601 138f 51       		.byte	0x51
 6602 1390 9F       		.byte	0x9f
 6603 1391 00000000 		.4byte	0
 6604 1395 00000000 		.4byte	0
 6605              	.LLST95:
 6606 1399 00000000 		.4byte	.LVL229
 6607 139d 1C000000 		.4byte	.LVL231
 6608 13a1 0100     		.2byte	0x1
 6609 13a3 52       		.byte	0x52
 6610 13a4 1C000000 		.4byte	.LVL231
 6611 13a8 20000000 		.4byte	.LVL232
 6612 13ac 0400     		.2byte	0x4
 6613 13ae F3       		.byte	0xf3
 6614 13af 01       		.uleb128 0x1
 6615 13b0 52       		.byte	0x52
 6616 13b1 9F       		.byte	0x9f
 6617 13b2 20000000 		.4byte	.LVL232
 6618 13b6 48000000 		.4byte	.LVL234
 6619 13ba 0100     		.2byte	0x1
 6620 13bc 52       		.byte	0x52
 6621 13bd 48000000 		.4byte	.LVL234
 6622 13c1 4F000000 		.4byte	.LVL237-1
 6623 13c5 0200     		.2byte	0x2
 6624 13c7 91       		.byte	0x91
 6625 13c8 6A       		.sleb128 -22
 6626 13c9 4F000000 		.4byte	.LVL237-1
 6627 13cd F8000000 		.4byte	.LFE62
 6628 13d1 0400     		.2byte	0x4
 6629 13d3 F3       		.byte	0xf3
 6630 13d4 01       		.uleb128 0x1
 6631 13d5 52       		.byte	0x52
 6632 13d6 9F       		.byte	0x9f
 6633 13d7 00000000 		.4byte	0
 6634 13db 00000000 		.4byte	0
ARM GAS  C:\Users\haske\AppData\Local\Temp\ccF9IbRI.s 			page 140


 6635              	.LLST96:
 6636 13df 00000000 		.4byte	.LVL229
 6637 13e3 24000000 		.4byte	.LVL233
 6638 13e7 0100     		.2byte	0x1
 6639 13e9 53       		.byte	0x53
 6640 13ea 24000000 		.4byte	.LVL233
 6641 13ee F8000000 		.4byte	.LFE62
 6642 13f2 0400     		.2byte	0x4
 6643 13f4 F3       		.byte	0xf3
 6644 13f5 01       		.uleb128 0x1
 6645 13f6 53       		.byte	0x53
 6646 13f7 9F       		.byte	0x9f
 6647 13f8 00000000 		.4byte	0
 6648 13fc 00000000 		.4byte	0
 6649              		.section	.debug_aranges,"",%progbits
 6650 0000 5C000000 		.4byte	0x5c
 6651 0004 0200     		.2byte	0x2
 6652 0006 00000000 		.4byte	.Ldebug_info0
 6653 000a 04       		.byte	0x4
 6654 000b 00       		.byte	0
 6655 000c 0000     		.2byte	0
 6656 000e 0000     		.2byte	0
 6657 0010 00000000 		.4byte	.LFB54
 6658 0014 24010000 		.4byte	.LFE54-.LFB54
 6659 0018 00000000 		.4byte	.LFB55
 6660 001c 00010000 		.4byte	.LFE55-.LFB55
 6661 0020 00000000 		.4byte	.LFB56
 6662 0024 00010000 		.4byte	.LFE56-.LFB56
 6663 0028 00000000 		.4byte	.LFB57
 6664 002c 6C010000 		.4byte	.LFE57-.LFB57
 6665 0030 00000000 		.4byte	.LFB58
 6666 0034 92000000 		.4byte	.LFE58-.LFB58
 6667 0038 00000000 		.4byte	.LFB60
 6668 003c 18000000 		.4byte	.LFE60-.LFB60
 6669 0040 00000000 		.4byte	.LFB61
 6670 0044 AE000000 		.4byte	.LFE61-.LFB61
 6671 0048 00000000 		.4byte	.LFB59
 6672 004c 6E000000 		.4byte	.LFE59-.LFB59
 6673 0050 00000000 		.4byte	.LFB62
 6674 0054 F8000000 		.4byte	.LFE62-.LFB62
 6675 0058 00000000 		.4byte	0
 6676 005c 00000000 		.4byte	0
 6677              		.section	.debug_ranges,"",%progbits
 6678              	.Ldebug_ranges0:
 6679 0000 46000000 		.4byte	.LBB33
 6680 0004 48000000 		.4byte	.LBE33
 6681 0008 4C000000 		.4byte	.LBB36
 6682 000c 5C000000 		.4byte	.LBE36
 6683 0010 00000000 		.4byte	0
 6684 0014 00000000 		.4byte	0
 6685 0018 2E000000 		.4byte	.LBB42
 6686 001c 5C000000 		.4byte	.LBE42
 6687 0020 F2000000 		.4byte	.LBB46
 6688 0024 F6000000 		.4byte	.LBE46
 6689 0028 00000000 		.4byte	0
 6690 002c 00000000 		.4byte	0
 6691 0030 00000000 		.4byte	.LFB54
ARM GAS  C:\Users\haske\AppData\Local\Temp\ccF9IbRI.s 			page 141


 6692 0034 24010000 		.4byte	.LFE54
 6693 0038 00000000 		.4byte	.LFB55
 6694 003c 00010000 		.4byte	.LFE55
 6695 0040 00000000 		.4byte	.LFB56
 6696 0044 00010000 		.4byte	.LFE56
 6697 0048 00000000 		.4byte	.LFB57
 6698 004c 6C010000 		.4byte	.LFE57
 6699 0050 00000000 		.4byte	.LFB58
 6700 0054 92000000 		.4byte	.LFE58
 6701 0058 00000000 		.4byte	.LFB60
 6702 005c 18000000 		.4byte	.LFE60
 6703 0060 00000000 		.4byte	.LFB61
 6704 0064 AE000000 		.4byte	.LFE61
 6705 0068 00000000 		.4byte	.LFB59
 6706 006c 6E000000 		.4byte	.LFE59
 6707 0070 00000000 		.4byte	.LFB62
 6708 0074 F8000000 		.4byte	.LFE62
 6709 0078 00000000 		.4byte	0
 6710 007c 00000000 		.4byte	0
 6711              		.section	.debug_line,"",%progbits
 6712              	.Ldebug_line0:
 6713 0000 9E040000 		.section	.debug_str,"MS",%progbits,1
 6713      0200C002 
 6713      00000201 
 6713      FB0E0D00 
 6713      01010101 
 6714              	.LASF109:
 6715 0000 75736572 		.ascii	"user_data\000"
 6715      5F646174 
 6715      6100
 6716              	.LASF102:
 6717 000a 6765745F 		.ascii	"get_glyph_bitmap\000"
 6717      676C7970 
 6717      685F6269 
 6717      746D6170 
 6717      00
 6718              	.LASF48:
 6719 001b 4C565F49 		.ascii	"LV_IMG_CF_RAW\000"
 6719      4D475F43 
 6719      465F5241 
 6719      5700
 6720              	.LASF68:
 6721 0029 4C565F49 		.ascii	"LV_IMG_CF_RESERVED_15\000"
 6721      4D475F43 
 6721      465F5245 
 6721      53455256 
 6721      45445F31 
 6722              	.LASF3:
 6723 003f 73697A65 		.ascii	"size_t\000"
 6723      5F7400
 6724              	.LASF6:
 6725 0046 5F5F7569 		.ascii	"__uint8_t\000"
 6725      6E74385F 
 6725      7400
 6726              	.LASF49:
 6727 0050 4C565F49 		.ascii	"LV_IMG_CF_RAW_ALPHA\000"
 6727      4D475F43 
ARM GAS  C:\Users\haske\AppData\Local\Temp\ccF9IbRI.s 			page 142


 6727      465F5241 
 6727      575F414C 
 6727      50484100 
 6728              	.LASF60:
 6729 0064 4C565F49 		.ascii	"LV_IMG_CF_ALPHA_4BIT\000"
 6729      4D475F43 
 6729      465F414C 
 6729      5048415F 
 6729      34424954 
 6730              	.LASF15:
 6731 0079 6C6F6E67 		.ascii	"long long unsigned int\000"
 6731      206C6F6E 
 6731      6720756E 
 6731      7369676E 
 6731      65642069 
 6732              	.LASF111:
 6733 0090 6C765F66 		.ascii	"lv_font_t\000"
 6733      6F6E745F 
 6733      7400
 6734              	.LASF130:
 6735 009a 616E676C 		.ascii	"angle\000"
 6735      6500
 6736              	.LASF131:
 6737 00a0 7A6F6F6D 		.ascii	"zoom\000"
 6737      00
 6738              	.LASF118:
 6739 00a5 70785F73 		.ascii	"px_size\000"
 6739      697A6500 
 6740              	.LASF57:
 6741 00ad 4C565F49 		.ascii	"LV_IMG_CF_INDEXED_8BIT\000"
 6741      4D475F43 
 6741      465F494E 
 6741      44455845 
 6741      445F3842 
 6742              	.LASF4:
 6743 00c4 5F5F696E 		.ascii	"__int8_t\000"
 6743      74385F74 
 6743      00
 6744              	.LASF41:
 6745 00cd 6C765F63 		.ascii	"lv_color32_t\000"
 6745      6F6C6F72 
 6745      33325F74 
 6745      00
 6746              	.LASF132:
 6747 00da 7069766F 		.ascii	"pivot\000"
 6747      7400
 6748              	.LASF125:
 6749 00e0 6C765F69 		.ascii	"lv_img_buf_set_palette\000"
 6749      6D675F62 
 6749      75665F73 
 6749      65745F70 
 6749      616C6574 
 6750              	.LASF44:
 6751 00f7 6C765F63 		.ascii	"lv_coord_t\000"
 6751      6F6F7264 
 6751      5F7400
 6752              	.LASF122:
ARM GAS  C:\Users\haske\AppData\Local\Temp\ccF9IbRI.s 			page 143


 6753 0102 6F70615F 		.ascii	"opa_table\000"
 6753      7461626C 
 6753      6500
 6754              	.LASF143:
 6755 010c 6C765F66 		.ascii	"lv_font_montserrat_14\000"
 6755      6F6E745F 
 6755      6D6F6E74 
 6755      73657272 
 6755      61745F31 
 6756              	.LASF1:
 6757 0122 6C6F6E67 		.ascii	"long long int\000"
 6757      206C6F6E 
 6757      6720696E 
 6757      7400
 6758              	.LASF5:
 6759 0130 7369676E 		.ascii	"signed char\000"
 6759      65642063 
 6759      68617200 
 6760              	.LASF37:
 6761 013c 67726565 		.ascii	"green\000"
 6761      6E00
 6762              	.LASF40:
 6763 0142 616C7068 		.ascii	"alpha\000"
 6763      6100
 6764              	.LASF121:
 6765 0148 70785F6F 		.ascii	"px_opa\000"
 6765      706100
 6766              	.LASF135:
 6767 014f 6C765F6D 		.ascii	"lv_mem_alloc\000"
 6767      656D5F61 
 6767      6C6C6F63 
 6767      00
 6768              	.LASF136:
 6769 015c 6C765F6D 		.ascii	"lv_memset_00\000"
 6769      656D7365 
 6769      745F3030 
 6769      00
 6770              	.LASF46:
 6771 0169 6C765F61 		.ascii	"lv_area_t\000"
 6771      7265615F 
 6771      7400
 6772              	.LASF12:
 6773 0173 6C6F6E67 		.ascii	"long int\000"
 6773      20696E74 
 6773      00
 6774              	.LASF88:
 6775 017c 6C765F69 		.ascii	"lv_img_header_t\000"
 6775      6D675F68 
 6775      65616465 
 6775      725F7400 
 6776              	.LASF21:
 6777 018c 75696E74 		.ascii	"uint16_t\000"
 6777      31365F74 
 6777      00
 6778              	.LASF134:
 6779 0195 6C765F6D 		.ascii	"lv_mem_free\000"
 6779      656D5F66 
ARM GAS  C:\Users\haske\AppData\Local\Temp\ccF9IbRI.s 			page 144


 6779      72656500 
 6780              	.LASF35:
 6781 01a1 4C565F4F 		.ascii	"LV_OPA_COVER\000"
 6781      50415F43 
 6781      4F564552 
 6781      00
 6782              	.LASF133:
 6783 01ae 6C765F69 		.ascii	"lv_img_cf_get_px_size\000"
 6783      6D675F63 
 6783      665F6765 
 6783      745F7078 
 6783      5F73697A 
 6784              	.LASF91:
 6785 01c4 64617461 		.ascii	"data\000"
 6785      00
 6786              	.LASF47:
 6787 01c9 4C565F49 		.ascii	"LV_IMG_CF_UNKNOWN\000"
 6787      4D475F43 
 6787      465F554E 
 6787      4B4E4F57 
 6787      4E00
 6788              	.LASF63:
 6789 01db 4C565F49 		.ascii	"LV_IMG_CF_RGBA8888\000"
 6789      4D475F43 
 6789      465F5247 
 6789      42413838 
 6789      383800
 6790              	.LASF69:
 6791 01ee 4C565F49 		.ascii	"LV_IMG_CF_RESERVED_16\000"
 6791      4D475F43 
 6791      465F5245 
 6791      53455256 
 6791      45445F31 
 6792              	.LASF70:
 6793 0204 4C565F49 		.ascii	"LV_IMG_CF_RESERVED_17\000"
 6793      4D475F43 
 6793      465F5245 
 6793      53455256 
 6793      45445F31 
 6794              	.LASF71:
 6795 021a 4C565F49 		.ascii	"LV_IMG_CF_RESERVED_18\000"
 6795      4D475F43 
 6795      465F5245 
 6795      53455256 
 6795      45445F31 
 6796              	.LASF72:
 6797 0230 4C565F49 		.ascii	"LV_IMG_CF_RESERVED_19\000"
 6797      4D475F43 
 6797      465F5245 
 6797      53455256 
 6797      45445F31 
 6798              	.LASF104:
 6799 0246 62617365 		.ascii	"base_line\000"
 6799      5F6C696E 
 6799      6500
 6800              	.LASF142:
 6801 0250 6C765F63 		.ascii	"lv_color_black\000"
ARM GAS  C:\Users\haske\AppData\Local\Temp\ccF9IbRI.s 			page 145


 6801      6F6C6F72 
 6801      5F626C61 
 6801      636B00
 6802              	.LASF13:
 6803 025f 5F5F7569 		.ascii	"__uint32_t\000"
 6803      6E743332 
 6803      5F7400
 6804              	.LASF30:
 6805 026a 4C565F4F 		.ascii	"LV_OPA_60\000"
 6805      50415F36 
 6805      3000
 6806              	.LASF8:
 6807 0274 5F5F696E 		.ascii	"__int16_t\000"
 6807      7431365F 
 6807      7400
 6808              	.LASF94:
 6809 027e 7265736F 		.ascii	"resolved_font\000"
 6809      6C766564 
 6809      5F666F6E 
 6809      7400
 6810              	.LASF27:
 6811 028c 4C565F4F 		.ascii	"LV_OPA_30\000"
 6811      50415F33 
 6811      3000
 6812              	.LASF87:
 6813 0296 72657365 		.ascii	"reserved\000"
 6813      72766564 
 6813      00
 6814              	.LASF127:
 6815 029f 6C765F69 		.ascii	"lv_img_buf_get_img_size\000"
 6815      6D675F62 
 6815      75665F67 
 6815      65745F69 
 6815      6D675F73 
 6816              	.LASF59:
 6817 02b7 4C565F49 		.ascii	"LV_IMG_CF_ALPHA_2BIT\000"
 6817      4D475F43 
 6817      465F414C 
 6817      5048415F 
 6817      32424954 
 6818              	.LASF100:
 6819 02cc 69735F70 		.ascii	"is_placeholder\000"
 6819      6C616365 
 6819      686F6C64 
 6819      657200
 6820              	.LASF141:
 6821 02db 5F6C765F 		.ascii	"_lv_font_t\000"
 6821      666F6E74 
 6821      5F7400
 6822              	.LASF0:
 6823 02e6 756E7369 		.ascii	"unsigned int\000"
 6823      676E6564 
 6823      20696E74 
 6823      00
 6824              	.LASF101:
 6825 02f3 6765745F 		.ascii	"get_glyph_dsc\000"
 6825      676C7970 
ARM GAS  C:\Users\haske\AppData\Local\Temp\ccF9IbRI.s 			page 146


 6825      685F6473 
 6825      6300
 6826              	.LASF124:
 6827 0301 6C765F69 		.ascii	"lv_img_buf_set_px_color\000"
 6827      6D675F62 
 6827      75665F73 
 6827      65745F70 
 6827      785F636F 
 6828              	.LASF32:
 6829 0319 4C565F4F 		.ascii	"LV_OPA_80\000"
 6829      50415F38 
 6829      3000
 6830              	.LASF14:
 6831 0323 6C6F6E67 		.ascii	"long unsigned int\000"
 6831      20756E73 
 6831      69676E65 
 6831      6420696E 
 6831      7400
 6832              	.LASF139:
 6833 0335 2E2E5C2E 		.ascii	"..\\..\\..\\arduinoLCD\\test\\Pain Drain\\libraries"
 6833      2E5C2E2E 
 6833      5C617264 
 6833      75696E6F 
 6833      4C43445C 
 6834 0362 5C6C7667 		.ascii	"\\lvgl\\src\\draw\\lv_img_buf.c\000"
 6834      6C5C7372 
 6834      635C6472 
 6834      61775C6C 
 6834      765F696D 
 6835              	.LASF73:
 6836 037e 4C565F49 		.ascii	"LV_IMG_CF_RESERVED_20\000"
 6836      4D475F43 
 6836      465F5245 
 6836      53455256 
 6836      45445F32 
 6837              	.LASF74:
 6838 0394 4C565F49 		.ascii	"LV_IMG_CF_RESERVED_21\000"
 6838      4D475F43 
 6838      465F5245 
 6838      53455256 
 6838      45445F32 
 6839              	.LASF75:
 6840 03aa 4C565F49 		.ascii	"LV_IMG_CF_RESERVED_22\000"
 6840      4D475F43 
 6840      465F5245 
 6840      53455256 
 6840      45445F32 
 6841              	.LASF76:
 6842 03c0 4C565F49 		.ascii	"LV_IMG_CF_RESERVED_23\000"
 6842      4D475F43 
 6842      465F5245 
 6842      53455256 
 6842      45445F32 
 6843              	.LASF11:
 6844 03d6 73686F72 		.ascii	"short unsigned int\000"
 6844      7420756E 
 6844      7369676E 
ARM GAS  C:\Users\haske\AppData\Local\Temp\ccF9IbRI.s 			page 147


 6844      65642069 
 6844      6E7400
 6845              	.LASF103:
 6846 03e9 6C696E65 		.ascii	"line_height\000"
 6846      5F686569 
 6846      67687400 
 6847              	.LASF113:
 6848 03f5 6C765F6D 		.ascii	"lv_memcpy_small\000"
 6848      656D6370 
 6848      795F736D 
 6848      616C6C00 
 6849              	.LASF105:
 6850 0405 73756270 		.ascii	"subpx\000"
 6850      7800
 6851              	.LASF58:
 6852 040b 4C565F49 		.ascii	"LV_IMG_CF_ALPHA_1BIT\000"
 6852      4D475F43 
 6852      465F414C 
 6852      5048415F 
 6852      31424954 
 6853              	.LASF31:
 6854 0420 4C565F4F 		.ascii	"LV_OPA_70\000"
 6854      50415F37 
 6854      3000
 6855              	.LASF53:
 6856 042a 4C565F49 		.ascii	"LV_IMG_CF_TRUE_COLOR_CHROMA_KEYED\000"
 6856      4D475F43 
 6856      465F5452 
 6856      55455F43 
 6856      4F4C4F52 
 6857              	.LASF90:
 6858 044c 64617461 		.ascii	"data_size\000"
 6858      5F73697A 
 6858      6500
 6859              	.LASF43:
 6860 0456 6C765F6F 		.ascii	"lv_opa_t\000"
 6860      70615F74 
 6860      00
 6861              	.LASF51:
 6862 045f 4C565F49 		.ascii	"LV_IMG_CF_TRUE_COLOR\000"
 6862      4D475F43 
 6862      465F5452 
 6862      55455F43 
 6862      4F4C4F52 
 6863              	.LASF16:
 6864 0474 73697A65 		.ascii	"sizetype\000"
 6864      74797065 
 6864      00
 6865              	.LASF23:
 6866 047d 4C565F4F 		.ascii	"LV_OPA_TRANSP\000"
 6866      50415F54 
 6866      52414E53 
 6866      5000
 6867              	.LASF2:
 6868 048b 6C6F6E67 		.ascii	"long double\000"
 6868      20646F75 
 6868      626C6500 
ARM GAS  C:\Users\haske\AppData\Local\Temp\ccF9IbRI.s 			page 148


 6869              	.LASF65:
 6870 0497 4C565F49 		.ascii	"LV_IMG_CF_RGB565\000"
 6870      4D475F43 
 6870      465F5247 
 6870      42353635 
 6870      00
 6871              	.LASF117:
 6872 04a8 6275665F 		.ascii	"buf_u8\000"
 6872      753800
 6873              	.LASF137:
 6874 04af 6C765F70 		.ascii	"lv_point_transform\000"
 6874      6F696E74 
 6874      5F747261 
 6874      6E73666F 
 6874      726D00
 6875              	.LASF116:
 6876 04c2 705F636F 		.ascii	"p_color\000"
 6876      6C6F7200 
 6877              	.LASF56:
 6878 04ca 4C565F49 		.ascii	"LV_IMG_CF_INDEXED_4BIT\000"
 6878      4D475F43 
 6878      465F494E 
 6878      44455845 
 6878      445F3442 
 6879              	.LASF66:
 6880 04e1 4C565F49 		.ascii	"LV_IMG_CF_RGBA5658\000"
 6880      4D475F43 
 6880      465F5247 
 6880      42413536 
 6880      353800
 6881              	.LASF29:
 6882 04f4 4C565F4F 		.ascii	"LV_OPA_50\000"
 6882      50415F35 
 6882      3000
 6883              	.LASF28:
 6884 04fe 4C565F4F 		.ascii	"LV_OPA_40\000"
 6884      50415F34 
 6884      3000
 6885              	.LASF119:
 6886 0508 6C765F69 		.ascii	"lv_img_buf_get_px_color\000"
 6886      6D675F62 
 6886      75665F67 
 6886      65745F70 
 6886      785F636F 
 6887              	.LASF128:
 6888 0520 6C765F69 		.ascii	"lv_img_buf_alloc\000"
 6888      6D675F62 
 6888      75665F61 
 6888      6C6C6F63 
 6888      00
 6889              	.LASF138:
 6890 0531 474E5520 		.ascii	"GNU C11 5.4.1 20160609 (release) [ARM/embedded-5-br"
 6890      43313120 
 6890      352E342E 
 6890      31203230 
 6890      31363036 
 6891 0564 616E6368 		.ascii	"anch revision 237715] -mcpu=cortex-m4 -mfloat-abi=s"
ARM GAS  C:\Users\haske\AppData\Local\Temp\ccF9IbRI.s 			page 149


 6891      20726576 
 6891      6973696F 
 6891      6E203233 
 6891      37373135 
 6892 0597 6F667466 		.ascii	"oftfp -mfpu=fpv4-sp-d16 -mthumb -g -Og -ffunction-s"
 6892      70202D6D 
 6892      6670753D 
 6892      66707634 
 6892      2D73702D 
 6893 05ca 65637469 		.ascii	"ections -ffat-lto-objects\000"
 6893      6F6E7320 
 6893      2D666661 
 6893      742D6C74 
 6893      6F2D6F62 
 6894              	.LASF129:
 6895 05e4 5F6C765F 		.ascii	"_lv_img_buf_get_transformed_area\000"
 6895      696D675F 
 6895      6275665F 
 6895      6765745F 
 6895      7472616E 
 6896              	.LASF39:
 6897 0605 6C765F63 		.ascii	"lv_color16_t\000"
 6897      6F6C6F72 
 6897      31365F74 
 6897      00
 6898              	.LASF25:
 6899 0612 4C565F4F 		.ascii	"LV_OPA_10\000"
 6899      50415F31 
 6899      3000
 6900              	.LASF93:
 6901 061c 5F426F6F 		.ascii	"_Bool\000"
 6901      6C00
 6902              	.LASF7:
 6903 0622 756E7369 		.ascii	"unsigned char\000"
 6903      676E6564 
 6903      20636861 
 6903      7200
 6904              	.LASF61:
 6905 0630 4C565F49 		.ascii	"LV_IMG_CF_ALPHA_8BIT\000"
 6905      4D475F43 
 6905      465F414C 
 6905      5048415F 
 6905      38424954 
 6906              	.LASF120:
 6907 0645 6C765F69 		.ascii	"lv_img_buf_get_px_alpha\000"
 6907      6D675F62 
 6907      75665F67 
 6907      65745F70 
 6907      785F616C 
 6908              	.LASF62:
 6909 065d 4C565F49 		.ascii	"LV_IMG_CF_RGB888\000"
 6909      4D475F43 
 6909      465F5247 
 6909      42383838 
 6909      00
 6910              	.LASF67:
 6911 066e 4C565F49 		.ascii	"LV_IMG_CF_RGB565A8\000"
ARM GAS  C:\Users\haske\AppData\Local\Temp\ccF9IbRI.s 			page 150


 6911      4D475F43 
 6911      465F5247 
 6911      42353635 
 6911      413800
 6912              	.LASF9:
 6913 0681 73686F72 		.ascii	"short int\000"
 6913      7420696E 
 6913      7400
 6914              	.LASF33:
 6915 068b 4C565F4F 		.ascii	"LV_OPA_90\000"
 6915      50415F39 
 6915      3000
 6916              	.LASF107:
 6917 0695 756E6465 		.ascii	"underline_thickness\000"
 6917      726C696E 
 6917      655F7468 
 6917      69636B6E 
 6917      65737300 
 6918              	.LASF64:
 6919 06a9 4C565F49 		.ascii	"LV_IMG_CF_RGBX8888\000"
 6919      4D475F43 
 6919      465F5247 
 6919      42583838 
 6919      383800
 6920              	.LASF38:
 6921 06bc 66756C6C 		.ascii	"full\000"
 6921      00
 6922              	.LASF123:
 6923 06c1 6C765F69 		.ascii	"lv_img_buf_set_px_alpha\000"
 6923      6D675F62 
 6923      75665F73 
 6923      65745F70 
 6923      785F616C 
 6924              	.LASF36:
 6925 06d9 626C7565 		.ascii	"blue\000"
 6925      00
 6926              	.LASF115:
 6927 06de 636F6C6F 		.ascii	"color\000"
 6927      7200
 6928              	.LASF17:
 6929 06e4 63686172 		.ascii	"char\000"
 6929      00
 6930              	.LASF26:
 6931 06e9 4C565F4F 		.ascii	"LV_OPA_20\000"
 6931      50415F32 
 6931      3000
 6932              	.LASF55:
 6933 06f3 4C565F49 		.ascii	"LV_IMG_CF_INDEXED_2BIT\000"
 6933      4D475F43 
 6933      465F494E 
 6933      44455845 
 6933      445F3242 
 6934              	.LASF10:
 6935 070a 5F5F7569 		.ascii	"__uint16_t\000"
 6935      6E743136 
 6935      5F7400
 6936              	.LASF114:
ARM GAS  C:\Users\haske\AppData\Local\Temp\ccF9IbRI.s 			page 151


 6937 0715 6C765F63 		.ascii	"lv_color_to32\000"
 6937      6F6C6F72 
 6937      5F746F33 
 6937      3200
 6938              	.LASF42:
 6939 0723 6C765F63 		.ascii	"lv_color_t\000"
 6939      6F6C6F72 
 6939      5F7400
 6940              	.LASF34:
 6941 072e 4C565F4F 		.ascii	"LV_OPA_100\000"
 6941      50415F31 
 6941      303000
 6942              	.LASF95:
 6943 0739 6164765F 		.ascii	"adv_w\000"
 6943      7700
 6944              	.LASF50:
 6945 073f 4C565F49 		.ascii	"LV_IMG_CF_RAW_CHROMA_KEYED\000"
 6945      4D475F43 
 6945      465F5241 
 6945      575F4348 
 6945      524F4D41 
 6946              	.LASF80:
 6947 075a 4C565F49 		.ascii	"LV_IMG_CF_USER_ENCODED_3\000"
 6947      4D475F43 
 6947      465F5553 
 6947      45525F45 
 6947      4E434F44 
 6948              	.LASF81:
 6949 0773 4C565F49 		.ascii	"LV_IMG_CF_USER_ENCODED_4\000"
 6949      4D475F43 
 6949      465F5553 
 6949      45525F45 
 6949      4E434F44 
 6950              	.LASF82:
 6951 078c 4C565F49 		.ascii	"LV_IMG_CF_USER_ENCODED_5\000"
 6951      4D475F43 
 6951      465F5553 
 6951      45525F45 
 6951      4E434F44 
 6952              	.LASF108:
 6953 07a5 66616C6C 		.ascii	"fallback\000"
 6953      6261636B 
 6953      00
 6954              	.LASF84:
 6955 07ae 4C565F49 		.ascii	"LV_IMG_CF_USER_ENCODED_7\000"
 6955      4D475F43 
 6955      465F5553 
 6955      45525F45 
 6955      4E434F44 
 6956              	.LASF97:
 6957 07c7 626F785F 		.ascii	"box_h\000"
 6957      6800
 6958              	.LASF18:
 6959 07cd 696E7438 		.ascii	"int8_t\000"
 6959      5F7400
 6960              	.LASF106:
 6961 07d4 756E6465 		.ascii	"underline_position\000"
ARM GAS  C:\Users\haske\AppData\Local\Temp\ccF9IbRI.s 			page 152


 6961      726C696E 
 6961      655F706F 
 6961      73697469 
 6961      6F6E00
 6962              	.LASF83:
 6963 07e7 4C565F49 		.ascii	"LV_IMG_CF_USER_ENCODED_6\000"
 6963      4D475F43 
 6963      465F5553 
 6963      45525F45 
 6963      4E434F44 
 6964              	.LASF77:
 6965 0800 4C565F49 		.ascii	"LV_IMG_CF_USER_ENCODED_0\000"
 6965      4D475F43 
 6965      465F5553 
 6965      45525F45 
 6965      4E434F44 
 6966              	.LASF96:
 6967 0819 626F785F 		.ascii	"box_w\000"
 6967      7700
 6968              	.LASF78:
 6969 081f 4C565F49 		.ascii	"LV_IMG_CF_USER_ENCODED_1\000"
 6969      4D475F43 
 6969      465F5553 
 6969      45525F45 
 6969      4E434F44 
 6970              	.LASF79:
 6971 0838 4C565F49 		.ascii	"LV_IMG_CF_USER_ENCODED_2\000"
 6971      4D475F43 
 6971      465F5553 
 6971      45525F45 
 6971      4E434F44 
 6972              	.LASF54:
 6973 0851 4C565F49 		.ascii	"LV_IMG_CF_INDEXED_1BIT\000"
 6973      4D475F43 
 6973      465F494E 
 6973      44455845 
 6973      445F3142 
 6974              	.LASF92:
 6975 0868 6C765F69 		.ascii	"lv_img_dsc_t\000"
 6975      6D675F64 
 6975      73635F74 
 6975      00
 6976              	.LASF19:
 6977 0875 75696E74 		.ascii	"uint8_t\000"
 6977      385F7400 
 6978              	.LASF45:
 6979 087d 6C765F70 		.ascii	"lv_point_t\000"
 6979      6F696E74 
 6979      5F7400
 6980              	.LASF24:
 6981 0888 4C565F4F 		.ascii	"LV_OPA_0\000"
 6981      50415F30 
 6981      00
 6982              	.LASF52:
 6983 0891 4C565F49 		.ascii	"LV_IMG_CF_TRUE_COLOR_ALPHA\000"
 6983      4D475F43 
 6983      465F5452 
ARM GAS  C:\Users\haske\AppData\Local\Temp\ccF9IbRI.s 			page 153


 6983      55455F43 
 6983      4F4C4F52 
 6984              	.LASF86:
 6985 08ac 616C7761 		.ascii	"always_zero\000"
 6985      79735F7A 
 6985      65726F00 
 6986              	.LASF98:
 6987 08b8 6F66735F 		.ascii	"ofs_x\000"
 6987      7800
 6988              	.LASF99:
 6989 08be 6F66735F 		.ascii	"ofs_y\000"
 6989      7900
 6990              	.LASF140:
 6991 08c4 433A5C50 		.ascii	"C:\\Projects\\PainDrain\\firmware\\PainDrain\\PainD"
 6991      726F6A65 
 6991      6374735C 
 6991      5061696E 
 6991      44726169 
 6992 08f2 7261696E 		.ascii	"rain.cydsn\000"
 6992      2E637964 
 6992      736E00
 6993              	.LASF112:
 6994 08fd 6C765F63 		.ascii	"lv_color_make\000"
 6994      6F6C6F72 
 6994      5F6D616B 
 6994      6500
 6995              	.LASF110:
 6996 090b 6C765F66 		.ascii	"lv_font_glyph_dsc_t\000"
 6996      6F6E745F 
 6996      676C7970 
 6996      685F6473 
 6996      635F7400 
 6997              	.LASF85:
 6998 091f 6C765F69 		.ascii	"lv_img_cf_t\000"
 6998      6D675F63 
 6998      665F7400 
 6999              	.LASF20:
 7000 092b 696E7431 		.ascii	"int16_t\000"
 7000      365F7400 
 7001              	.LASF126:
 7002 0933 6C765F69 		.ascii	"lv_img_buf_free\000"
 7002      6D675F62 
 7002      75665F66 
 7002      72656500 
 7003              	.LASF89:
 7004 0943 68656164 		.ascii	"header\000"
 7004      657200
 7005              	.LASF22:
 7006 094a 75696E74 		.ascii	"uint32_t\000"
 7006      33325F74 
 7006      00
 7007              		.ident	"GCC: (GNU Tools for ARM Embedded Processors) 5.4.1 20160609 (release) [ARM/embedded-5-bran
