ARM GAS  C:\Users\haske\AppData\Local\Temp\ccHSLozV.s 			page 1


   1              		.syntax unified
   2              		.cpu cortex-m4
   3              		.eabi_attribute 27, 1
   4              		.fpu fpv4-sp-d16
   5              		.eabi_attribute 20, 1
   6              		.eabi_attribute 21, 1
   7              		.eabi_attribute 23, 3
   8              		.eabi_attribute 24, 1
   9              		.eabi_attribute 25, 1
  10              		.eabi_attribute 26, 1
  11              		.eabi_attribute 30, 1
  12              		.eabi_attribute 34, 1
  13              		.eabi_attribute 18, 4
  14              		.thumb
  15              		.syntax unified
  16              		.file	"lv_img_decoder.c"
  17              		.text
  18              	.Ltext0:
  19              		.cfi_sections	.debug_frame
  20              		.section	.text.lv_img_decoder_built_in_info,"ax",%progbits
  21              		.align	2
  22              		.global	lv_img_decoder_built_in_info
  23              		.thumb
  24              		.thumb_func
  25              		.type	lv_img_decoder_built_in_info, %function
  26              	lv_img_decoder_built_in_info:
  27              	.LFB67:
  28              		.file 1 "..\\..\\..\\arduinoLCD\\test\\Pain Drain\\libraries\\lvgl\\src\\draw\\lv_img_decoder.c"
   1:..\..\..\arduinoLCD\test\Pain Drain\libraries\lvgl\src\draw/lv_img_decoder.c **** /**
   2:..\..\..\arduinoLCD\test\Pain Drain\libraries\lvgl\src\draw/lv_img_decoder.c ****  * @file lv_img_decoder.c
   3:..\..\..\arduinoLCD\test\Pain Drain\libraries\lvgl\src\draw/lv_img_decoder.c ****  *
   4:..\..\..\arduinoLCD\test\Pain Drain\libraries\lvgl\src\draw/lv_img_decoder.c ****  */
   5:..\..\..\arduinoLCD\test\Pain Drain\libraries\lvgl\src\draw/lv_img_decoder.c **** 
   6:..\..\..\arduinoLCD\test\Pain Drain\libraries\lvgl\src\draw/lv_img_decoder.c **** /*********************
   7:..\..\..\arduinoLCD\test\Pain Drain\libraries\lvgl\src\draw/lv_img_decoder.c ****  *      INCLUDES
   8:..\..\..\arduinoLCD\test\Pain Drain\libraries\lvgl\src\draw/lv_img_decoder.c ****  *********************/
   9:..\..\..\arduinoLCD\test\Pain Drain\libraries\lvgl\src\draw/lv_img_decoder.c **** #include "lv_img_decoder.h"
  10:..\..\..\arduinoLCD\test\Pain Drain\libraries\lvgl\src\draw/lv_img_decoder.c **** #include "../misc/lv_assert.h"
  11:..\..\..\arduinoLCD\test\Pain Drain\libraries\lvgl\src\draw/lv_img_decoder.c **** #include "../draw/lv_draw_img.h"
  12:..\..\..\arduinoLCD\test\Pain Drain\libraries\lvgl\src\draw/lv_img_decoder.c **** #include "../misc/lv_ll.h"
  13:..\..\..\arduinoLCD\test\Pain Drain\libraries\lvgl\src\draw/lv_img_decoder.c **** #include "../misc/lv_gc.h"
  14:..\..\..\arduinoLCD\test\Pain Drain\libraries\lvgl\src\draw/lv_img_decoder.c **** 
  15:..\..\..\arduinoLCD\test\Pain Drain\libraries\lvgl\src\draw/lv_img_decoder.c **** /*********************
  16:..\..\..\arduinoLCD\test\Pain Drain\libraries\lvgl\src\draw/lv_img_decoder.c ****  *      DEFINES
  17:..\..\..\arduinoLCD\test\Pain Drain\libraries\lvgl\src\draw/lv_img_decoder.c ****  *********************/
  18:..\..\..\arduinoLCD\test\Pain Drain\libraries\lvgl\src\draw/lv_img_decoder.c **** #define CF_BUILT_IN_FIRST   LV_IMG_CF_TRUE_COLOR
  19:..\..\..\arduinoLCD\test\Pain Drain\libraries\lvgl\src\draw/lv_img_decoder.c **** #define CF_BUILT_IN_LAST    LV_IMG_CF_RGB565A8
  20:..\..\..\arduinoLCD\test\Pain Drain\libraries\lvgl\src\draw/lv_img_decoder.c **** 
  21:..\..\..\arduinoLCD\test\Pain Drain\libraries\lvgl\src\draw/lv_img_decoder.c **** /**********************
  22:..\..\..\arduinoLCD\test\Pain Drain\libraries\lvgl\src\draw/lv_img_decoder.c ****  *      TYPEDEFS
  23:..\..\..\arduinoLCD\test\Pain Drain\libraries\lvgl\src\draw/lv_img_decoder.c ****  **********************/
  24:..\..\..\arduinoLCD\test\Pain Drain\libraries\lvgl\src\draw/lv_img_decoder.c **** 
  25:..\..\..\arduinoLCD\test\Pain Drain\libraries\lvgl\src\draw/lv_img_decoder.c **** typedef struct {
  26:..\..\..\arduinoLCD\test\Pain Drain\libraries\lvgl\src\draw/lv_img_decoder.c ****     lv_fs_file_t f;
  27:..\..\..\arduinoLCD\test\Pain Drain\libraries\lvgl\src\draw/lv_img_decoder.c ****     lv_color_t * palette;
  28:..\..\..\arduinoLCD\test\Pain Drain\libraries\lvgl\src\draw/lv_img_decoder.c ****     lv_opa_t * opa;
  29:..\..\..\arduinoLCD\test\Pain Drain\libraries\lvgl\src\draw/lv_img_decoder.c **** } lv_img_decoder_built_in_data_t;
ARM GAS  C:\Users\haske\AppData\Local\Temp\ccHSLozV.s 			page 2


  30:..\..\..\arduinoLCD\test\Pain Drain\libraries\lvgl\src\draw/lv_img_decoder.c **** 
  31:..\..\..\arduinoLCD\test\Pain Drain\libraries\lvgl\src\draw/lv_img_decoder.c **** /**********************
  32:..\..\..\arduinoLCD\test\Pain Drain\libraries\lvgl\src\draw/lv_img_decoder.c ****  *  STATIC PROTOTYPES
  33:..\..\..\arduinoLCD\test\Pain Drain\libraries\lvgl\src\draw/lv_img_decoder.c ****  **********************/
  34:..\..\..\arduinoLCD\test\Pain Drain\libraries\lvgl\src\draw/lv_img_decoder.c **** static lv_res_t lv_img_decoder_built_in_line_true_color(lv_img_decoder_dsc_t * dsc, lv_coord_t x, l
  35:..\..\..\arduinoLCD\test\Pain Drain\libraries\lvgl\src\draw/lv_img_decoder.c ****                                                         lv_coord_t len, uint8_t * buf);
  36:..\..\..\arduinoLCD\test\Pain Drain\libraries\lvgl\src\draw/lv_img_decoder.c **** static lv_res_t lv_img_decoder_built_in_line_alpha(lv_img_decoder_dsc_t * dsc, lv_coord_t x, lv_coo
  37:..\..\..\arduinoLCD\test\Pain Drain\libraries\lvgl\src\draw/lv_img_decoder.c ****                                                    lv_coord_t len, uint8_t * buf);
  38:..\..\..\arduinoLCD\test\Pain Drain\libraries\lvgl\src\draw/lv_img_decoder.c **** static lv_res_t lv_img_decoder_built_in_line_indexed(lv_img_decoder_dsc_t * dsc, lv_coord_t x, lv_c
  39:..\..\..\arduinoLCD\test\Pain Drain\libraries\lvgl\src\draw/lv_img_decoder.c ****                                                      lv_coord_t len, uint8_t * buf);
  40:..\..\..\arduinoLCD\test\Pain Drain\libraries\lvgl\src\draw/lv_img_decoder.c **** 
  41:..\..\..\arduinoLCD\test\Pain Drain\libraries\lvgl\src\draw/lv_img_decoder.c **** /**********************
  42:..\..\..\arduinoLCD\test\Pain Drain\libraries\lvgl\src\draw/lv_img_decoder.c ****  *  STATIC VARIABLES
  43:..\..\..\arduinoLCD\test\Pain Drain\libraries\lvgl\src\draw/lv_img_decoder.c ****  **********************/
  44:..\..\..\arduinoLCD\test\Pain Drain\libraries\lvgl\src\draw/lv_img_decoder.c **** 
  45:..\..\..\arduinoLCD\test\Pain Drain\libraries\lvgl\src\draw/lv_img_decoder.c **** /**********************
  46:..\..\..\arduinoLCD\test\Pain Drain\libraries\lvgl\src\draw/lv_img_decoder.c ****  *      MACROS
  47:..\..\..\arduinoLCD\test\Pain Drain\libraries\lvgl\src\draw/lv_img_decoder.c ****  **********************/
  48:..\..\..\arduinoLCD\test\Pain Drain\libraries\lvgl\src\draw/lv_img_decoder.c **** 
  49:..\..\..\arduinoLCD\test\Pain Drain\libraries\lvgl\src\draw/lv_img_decoder.c **** /**********************
  50:..\..\..\arduinoLCD\test\Pain Drain\libraries\lvgl\src\draw/lv_img_decoder.c ****  *   GLOBAL FUNCTIONS
  51:..\..\..\arduinoLCD\test\Pain Drain\libraries\lvgl\src\draw/lv_img_decoder.c ****  **********************/
  52:..\..\..\arduinoLCD\test\Pain Drain\libraries\lvgl\src\draw/lv_img_decoder.c **** 
  53:..\..\..\arduinoLCD\test\Pain Drain\libraries\lvgl\src\draw/lv_img_decoder.c **** /**
  54:..\..\..\arduinoLCD\test\Pain Drain\libraries\lvgl\src\draw/lv_img_decoder.c ****  * Initialize the image decoder module
  55:..\..\..\arduinoLCD\test\Pain Drain\libraries\lvgl\src\draw/lv_img_decoder.c ****  */
  56:..\..\..\arduinoLCD\test\Pain Drain\libraries\lvgl\src\draw/lv_img_decoder.c **** void _lv_img_decoder_init(void)
  57:..\..\..\arduinoLCD\test\Pain Drain\libraries\lvgl\src\draw/lv_img_decoder.c **** {
  58:..\..\..\arduinoLCD\test\Pain Drain\libraries\lvgl\src\draw/lv_img_decoder.c ****     _lv_ll_init(&LV_GC_ROOT(_lv_img_decoder_ll), sizeof(lv_img_decoder_t));
  59:..\..\..\arduinoLCD\test\Pain Drain\libraries\lvgl\src\draw/lv_img_decoder.c **** 
  60:..\..\..\arduinoLCD\test\Pain Drain\libraries\lvgl\src\draw/lv_img_decoder.c ****     lv_img_decoder_t * decoder;
  61:..\..\..\arduinoLCD\test\Pain Drain\libraries\lvgl\src\draw/lv_img_decoder.c **** 
  62:..\..\..\arduinoLCD\test\Pain Drain\libraries\lvgl\src\draw/lv_img_decoder.c ****     /*Create a decoder for the built in color format*/
  63:..\..\..\arduinoLCD\test\Pain Drain\libraries\lvgl\src\draw/lv_img_decoder.c ****     decoder = lv_img_decoder_create();
  64:..\..\..\arduinoLCD\test\Pain Drain\libraries\lvgl\src\draw/lv_img_decoder.c ****     LV_ASSERT_MALLOC(decoder);
  65:..\..\..\arduinoLCD\test\Pain Drain\libraries\lvgl\src\draw/lv_img_decoder.c ****     if(decoder == NULL) {
  66:..\..\..\arduinoLCD\test\Pain Drain\libraries\lvgl\src\draw/lv_img_decoder.c ****         LV_LOG_WARN("lv_img_decoder_init: out of memory");
  67:..\..\..\arduinoLCD\test\Pain Drain\libraries\lvgl\src\draw/lv_img_decoder.c ****         return;
  68:..\..\..\arduinoLCD\test\Pain Drain\libraries\lvgl\src\draw/lv_img_decoder.c ****     }
  69:..\..\..\arduinoLCD\test\Pain Drain\libraries\lvgl\src\draw/lv_img_decoder.c **** 
  70:..\..\..\arduinoLCD\test\Pain Drain\libraries\lvgl\src\draw/lv_img_decoder.c ****     lv_img_decoder_set_info_cb(decoder, lv_img_decoder_built_in_info);
  71:..\..\..\arduinoLCD\test\Pain Drain\libraries\lvgl\src\draw/lv_img_decoder.c ****     lv_img_decoder_set_open_cb(decoder, lv_img_decoder_built_in_open);
  72:..\..\..\arduinoLCD\test\Pain Drain\libraries\lvgl\src\draw/lv_img_decoder.c ****     lv_img_decoder_set_read_line_cb(decoder, lv_img_decoder_built_in_read_line);
  73:..\..\..\arduinoLCD\test\Pain Drain\libraries\lvgl\src\draw/lv_img_decoder.c ****     lv_img_decoder_set_close_cb(decoder, lv_img_decoder_built_in_close);
  74:..\..\..\arduinoLCD\test\Pain Drain\libraries\lvgl\src\draw/lv_img_decoder.c **** }
  75:..\..\..\arduinoLCD\test\Pain Drain\libraries\lvgl\src\draw/lv_img_decoder.c **** 
  76:..\..\..\arduinoLCD\test\Pain Drain\libraries\lvgl\src\draw/lv_img_decoder.c **** /**
  77:..\..\..\arduinoLCD\test\Pain Drain\libraries\lvgl\src\draw/lv_img_decoder.c ****  * Get information about an image.
  78:..\..\..\arduinoLCD\test\Pain Drain\libraries\lvgl\src\draw/lv_img_decoder.c ****  * Try the created image decoder one by one. Once one is able to get info that info will be used.
  79:..\..\..\arduinoLCD\test\Pain Drain\libraries\lvgl\src\draw/lv_img_decoder.c ****  * @param src the image source. E.g. file name or variable.
  80:..\..\..\arduinoLCD\test\Pain Drain\libraries\lvgl\src\draw/lv_img_decoder.c ****  * @param header the image info will be stored here
  81:..\..\..\arduinoLCD\test\Pain Drain\libraries\lvgl\src\draw/lv_img_decoder.c ****  * @return LV_RES_OK: success; LV_RES_INV: wasn't able to get info about the image
  82:..\..\..\arduinoLCD\test\Pain Drain\libraries\lvgl\src\draw/lv_img_decoder.c ****  */
  83:..\..\..\arduinoLCD\test\Pain Drain\libraries\lvgl\src\draw/lv_img_decoder.c **** lv_res_t lv_img_decoder_get_info(const void * src, lv_img_header_t * header)
  84:..\..\..\arduinoLCD\test\Pain Drain\libraries\lvgl\src\draw/lv_img_decoder.c **** {
  85:..\..\..\arduinoLCD\test\Pain Drain\libraries\lvgl\src\draw/lv_img_decoder.c ****     lv_memset_00(header, sizeof(lv_img_header_t));
  86:..\..\..\arduinoLCD\test\Pain Drain\libraries\lvgl\src\draw/lv_img_decoder.c **** 
ARM GAS  C:\Users\haske\AppData\Local\Temp\ccHSLozV.s 			page 3


  87:..\..\..\arduinoLCD\test\Pain Drain\libraries\lvgl\src\draw/lv_img_decoder.c ****     if(src == NULL) return LV_RES_INV;
  88:..\..\..\arduinoLCD\test\Pain Drain\libraries\lvgl\src\draw/lv_img_decoder.c **** 
  89:..\..\..\arduinoLCD\test\Pain Drain\libraries\lvgl\src\draw/lv_img_decoder.c ****     lv_img_src_t src_type = lv_img_src_get_type(src);
  90:..\..\..\arduinoLCD\test\Pain Drain\libraries\lvgl\src\draw/lv_img_decoder.c ****     if(src_type == LV_IMG_SRC_VARIABLE) {
  91:..\..\..\arduinoLCD\test\Pain Drain\libraries\lvgl\src\draw/lv_img_decoder.c ****         const lv_img_dsc_t * img_dsc = src;
  92:..\..\..\arduinoLCD\test\Pain Drain\libraries\lvgl\src\draw/lv_img_decoder.c ****         if(img_dsc->data == NULL) return LV_RES_INV;
  93:..\..\..\arduinoLCD\test\Pain Drain\libraries\lvgl\src\draw/lv_img_decoder.c ****     }
  94:..\..\..\arduinoLCD\test\Pain Drain\libraries\lvgl\src\draw/lv_img_decoder.c **** 
  95:..\..\..\arduinoLCD\test\Pain Drain\libraries\lvgl\src\draw/lv_img_decoder.c ****     lv_res_t res = LV_RES_INV;
  96:..\..\..\arduinoLCD\test\Pain Drain\libraries\lvgl\src\draw/lv_img_decoder.c ****     lv_img_decoder_t * d;
  97:..\..\..\arduinoLCD\test\Pain Drain\libraries\lvgl\src\draw/lv_img_decoder.c ****     _LV_LL_READ(&LV_GC_ROOT(_lv_img_decoder_ll), d) {
  98:..\..\..\arduinoLCD\test\Pain Drain\libraries\lvgl\src\draw/lv_img_decoder.c ****         if(d->info_cb) {
  99:..\..\..\arduinoLCD\test\Pain Drain\libraries\lvgl\src\draw/lv_img_decoder.c ****             res = d->info_cb(d, src, header);
 100:..\..\..\arduinoLCD\test\Pain Drain\libraries\lvgl\src\draw/lv_img_decoder.c ****             if(res == LV_RES_OK) break;
 101:..\..\..\arduinoLCD\test\Pain Drain\libraries\lvgl\src\draw/lv_img_decoder.c ****         }
 102:..\..\..\arduinoLCD\test\Pain Drain\libraries\lvgl\src\draw/lv_img_decoder.c ****     }
 103:..\..\..\arduinoLCD\test\Pain Drain\libraries\lvgl\src\draw/lv_img_decoder.c **** 
 104:..\..\..\arduinoLCD\test\Pain Drain\libraries\lvgl\src\draw/lv_img_decoder.c ****     return res;
 105:..\..\..\arduinoLCD\test\Pain Drain\libraries\lvgl\src\draw/lv_img_decoder.c **** }
 106:..\..\..\arduinoLCD\test\Pain Drain\libraries\lvgl\src\draw/lv_img_decoder.c **** 
 107:..\..\..\arduinoLCD\test\Pain Drain\libraries\lvgl\src\draw/lv_img_decoder.c **** lv_res_t lv_img_decoder_open(lv_img_decoder_dsc_t * dsc, const void * src, lv_color_t color, int32_
 108:..\..\..\arduinoLCD\test\Pain Drain\libraries\lvgl\src\draw/lv_img_decoder.c **** {
 109:..\..\..\arduinoLCD\test\Pain Drain\libraries\lvgl\src\draw/lv_img_decoder.c ****     lv_memset_00(dsc, sizeof(lv_img_decoder_dsc_t));
 110:..\..\..\arduinoLCD\test\Pain Drain\libraries\lvgl\src\draw/lv_img_decoder.c **** 
 111:..\..\..\arduinoLCD\test\Pain Drain\libraries\lvgl\src\draw/lv_img_decoder.c ****     if(src == NULL) return LV_RES_INV;
 112:..\..\..\arduinoLCD\test\Pain Drain\libraries\lvgl\src\draw/lv_img_decoder.c ****     lv_img_src_t src_type = lv_img_src_get_type(src);
 113:..\..\..\arduinoLCD\test\Pain Drain\libraries\lvgl\src\draw/lv_img_decoder.c ****     if(src_type == LV_IMG_SRC_VARIABLE) {
 114:..\..\..\arduinoLCD\test\Pain Drain\libraries\lvgl\src\draw/lv_img_decoder.c ****         const lv_img_dsc_t * img_dsc = src;
 115:..\..\..\arduinoLCD\test\Pain Drain\libraries\lvgl\src\draw/lv_img_decoder.c ****         if(img_dsc->data == NULL) return LV_RES_INV;
 116:..\..\..\arduinoLCD\test\Pain Drain\libraries\lvgl\src\draw/lv_img_decoder.c ****     }
 117:..\..\..\arduinoLCD\test\Pain Drain\libraries\lvgl\src\draw/lv_img_decoder.c **** 
 118:..\..\..\arduinoLCD\test\Pain Drain\libraries\lvgl\src\draw/lv_img_decoder.c ****     dsc->color    = color;
 119:..\..\..\arduinoLCD\test\Pain Drain\libraries\lvgl\src\draw/lv_img_decoder.c ****     dsc->src_type = src_type;
 120:..\..\..\arduinoLCD\test\Pain Drain\libraries\lvgl\src\draw/lv_img_decoder.c ****     dsc->frame_id = frame_id;
 121:..\..\..\arduinoLCD\test\Pain Drain\libraries\lvgl\src\draw/lv_img_decoder.c **** 
 122:..\..\..\arduinoLCD\test\Pain Drain\libraries\lvgl\src\draw/lv_img_decoder.c ****     if(dsc->src_type == LV_IMG_SRC_FILE) {
 123:..\..\..\arduinoLCD\test\Pain Drain\libraries\lvgl\src\draw/lv_img_decoder.c ****         size_t fnlen = strlen(src);
 124:..\..\..\arduinoLCD\test\Pain Drain\libraries\lvgl\src\draw/lv_img_decoder.c ****         dsc->src = lv_mem_alloc(fnlen + 1);
 125:..\..\..\arduinoLCD\test\Pain Drain\libraries\lvgl\src\draw/lv_img_decoder.c ****         LV_ASSERT_MALLOC(dsc->src);
 126:..\..\..\arduinoLCD\test\Pain Drain\libraries\lvgl\src\draw/lv_img_decoder.c ****         if(dsc->src == NULL) {
 127:..\..\..\arduinoLCD\test\Pain Drain\libraries\lvgl\src\draw/lv_img_decoder.c ****             LV_LOG_WARN("lv_img_decoder_open: out of memory");
 128:..\..\..\arduinoLCD\test\Pain Drain\libraries\lvgl\src\draw/lv_img_decoder.c ****             return LV_RES_INV;
 129:..\..\..\arduinoLCD\test\Pain Drain\libraries\lvgl\src\draw/lv_img_decoder.c ****         }
 130:..\..\..\arduinoLCD\test\Pain Drain\libraries\lvgl\src\draw/lv_img_decoder.c ****         strcpy((char *)dsc->src, src);
 131:..\..\..\arduinoLCD\test\Pain Drain\libraries\lvgl\src\draw/lv_img_decoder.c ****     }
 132:..\..\..\arduinoLCD\test\Pain Drain\libraries\lvgl\src\draw/lv_img_decoder.c ****     else {
 133:..\..\..\arduinoLCD\test\Pain Drain\libraries\lvgl\src\draw/lv_img_decoder.c ****         dsc->src = src;
 134:..\..\..\arduinoLCD\test\Pain Drain\libraries\lvgl\src\draw/lv_img_decoder.c ****     }
 135:..\..\..\arduinoLCD\test\Pain Drain\libraries\lvgl\src\draw/lv_img_decoder.c **** 
 136:..\..\..\arduinoLCD\test\Pain Drain\libraries\lvgl\src\draw/lv_img_decoder.c ****     lv_res_t res = LV_RES_INV;
 137:..\..\..\arduinoLCD\test\Pain Drain\libraries\lvgl\src\draw/lv_img_decoder.c **** 
 138:..\..\..\arduinoLCD\test\Pain Drain\libraries\lvgl\src\draw/lv_img_decoder.c ****     lv_img_decoder_t * decoder;
 139:..\..\..\arduinoLCD\test\Pain Drain\libraries\lvgl\src\draw/lv_img_decoder.c ****     _LV_LL_READ(&LV_GC_ROOT(_lv_img_decoder_ll), decoder) {
 140:..\..\..\arduinoLCD\test\Pain Drain\libraries\lvgl\src\draw/lv_img_decoder.c ****         /*Info and Open callbacks are required*/
 141:..\..\..\arduinoLCD\test\Pain Drain\libraries\lvgl\src\draw/lv_img_decoder.c ****         if(decoder->info_cb == NULL || decoder->open_cb == NULL) continue;
 142:..\..\..\arduinoLCD\test\Pain Drain\libraries\lvgl\src\draw/lv_img_decoder.c **** 
 143:..\..\..\arduinoLCD\test\Pain Drain\libraries\lvgl\src\draw/lv_img_decoder.c ****         res = decoder->info_cb(decoder, src, &dsc->header);
ARM GAS  C:\Users\haske\AppData\Local\Temp\ccHSLozV.s 			page 4


 144:..\..\..\arduinoLCD\test\Pain Drain\libraries\lvgl\src\draw/lv_img_decoder.c ****         if(res != LV_RES_OK) continue;
 145:..\..\..\arduinoLCD\test\Pain Drain\libraries\lvgl\src\draw/lv_img_decoder.c **** 
 146:..\..\..\arduinoLCD\test\Pain Drain\libraries\lvgl\src\draw/lv_img_decoder.c ****         dsc->decoder = decoder;
 147:..\..\..\arduinoLCD\test\Pain Drain\libraries\lvgl\src\draw/lv_img_decoder.c ****         res = decoder->open_cb(decoder, dsc);
 148:..\..\..\arduinoLCD\test\Pain Drain\libraries\lvgl\src\draw/lv_img_decoder.c **** 
 149:..\..\..\arduinoLCD\test\Pain Drain\libraries\lvgl\src\draw/lv_img_decoder.c ****         /*Opened successfully. It is a good decoder for this image source*/
 150:..\..\..\arduinoLCD\test\Pain Drain\libraries\lvgl\src\draw/lv_img_decoder.c ****         if(res == LV_RES_OK) return res;
 151:..\..\..\arduinoLCD\test\Pain Drain\libraries\lvgl\src\draw/lv_img_decoder.c **** 
 152:..\..\..\arduinoLCD\test\Pain Drain\libraries\lvgl\src\draw/lv_img_decoder.c ****         /*Prepare for the next loop*/
 153:..\..\..\arduinoLCD\test\Pain Drain\libraries\lvgl\src\draw/lv_img_decoder.c ****         lv_memset_00(&dsc->header, sizeof(lv_img_header_t));
 154:..\..\..\arduinoLCD\test\Pain Drain\libraries\lvgl\src\draw/lv_img_decoder.c **** 
 155:..\..\..\arduinoLCD\test\Pain Drain\libraries\lvgl\src\draw/lv_img_decoder.c ****         dsc->error_msg = NULL;
 156:..\..\..\arduinoLCD\test\Pain Drain\libraries\lvgl\src\draw/lv_img_decoder.c ****         dsc->img_data  = NULL;
 157:..\..\..\arduinoLCD\test\Pain Drain\libraries\lvgl\src\draw/lv_img_decoder.c ****         dsc->user_data = NULL;
 158:..\..\..\arduinoLCD\test\Pain Drain\libraries\lvgl\src\draw/lv_img_decoder.c ****         dsc->time_to_open = 0;
 159:..\..\..\arduinoLCD\test\Pain Drain\libraries\lvgl\src\draw/lv_img_decoder.c ****     }
 160:..\..\..\arduinoLCD\test\Pain Drain\libraries\lvgl\src\draw/lv_img_decoder.c **** 
 161:..\..\..\arduinoLCD\test\Pain Drain\libraries\lvgl\src\draw/lv_img_decoder.c ****     if(dsc->src_type == LV_IMG_SRC_FILE)
 162:..\..\..\arduinoLCD\test\Pain Drain\libraries\lvgl\src\draw/lv_img_decoder.c ****         lv_mem_free((void *)dsc->src);
 163:..\..\..\arduinoLCD\test\Pain Drain\libraries\lvgl\src\draw/lv_img_decoder.c **** 
 164:..\..\..\arduinoLCD\test\Pain Drain\libraries\lvgl\src\draw/lv_img_decoder.c ****     return res;
 165:..\..\..\arduinoLCD\test\Pain Drain\libraries\lvgl\src\draw/lv_img_decoder.c **** }
 166:..\..\..\arduinoLCD\test\Pain Drain\libraries\lvgl\src\draw/lv_img_decoder.c **** 
 167:..\..\..\arduinoLCD\test\Pain Drain\libraries\lvgl\src\draw/lv_img_decoder.c **** /**
 168:..\..\..\arduinoLCD\test\Pain Drain\libraries\lvgl\src\draw/lv_img_decoder.c ****  * Read a line from an opened image
 169:..\..\..\arduinoLCD\test\Pain Drain\libraries\lvgl\src\draw/lv_img_decoder.c ****  * @param dsc pointer to `lv_img_decoder_dsc_t` used in `lv_img_decoder_open`
 170:..\..\..\arduinoLCD\test\Pain Drain\libraries\lvgl\src\draw/lv_img_decoder.c ****  * @param x start X coordinate (from left)
 171:..\..\..\arduinoLCD\test\Pain Drain\libraries\lvgl\src\draw/lv_img_decoder.c ****  * @param y start Y coordinate (from top)
 172:..\..\..\arduinoLCD\test\Pain Drain\libraries\lvgl\src\draw/lv_img_decoder.c ****  * @param len number of pixels to read
 173:..\..\..\arduinoLCD\test\Pain Drain\libraries\lvgl\src\draw/lv_img_decoder.c ****  * @param buf store the data here
 174:..\..\..\arduinoLCD\test\Pain Drain\libraries\lvgl\src\draw/lv_img_decoder.c ****  * @return LV_RES_OK: success; LV_RES_INV: an error occurred
 175:..\..\..\arduinoLCD\test\Pain Drain\libraries\lvgl\src\draw/lv_img_decoder.c ****  */
 176:..\..\..\arduinoLCD\test\Pain Drain\libraries\lvgl\src\draw/lv_img_decoder.c **** lv_res_t lv_img_decoder_read_line(lv_img_decoder_dsc_t * dsc, lv_coord_t x, lv_coord_t y, lv_coord_
 177:..\..\..\arduinoLCD\test\Pain Drain\libraries\lvgl\src\draw/lv_img_decoder.c **** {
 178:..\..\..\arduinoLCD\test\Pain Drain\libraries\lvgl\src\draw/lv_img_decoder.c ****     lv_res_t res = LV_RES_INV;
 179:..\..\..\arduinoLCD\test\Pain Drain\libraries\lvgl\src\draw/lv_img_decoder.c ****     if(dsc->decoder->read_line_cb) res = dsc->decoder->read_line_cb(dsc->decoder, dsc, x, y, len, b
 180:..\..\..\arduinoLCD\test\Pain Drain\libraries\lvgl\src\draw/lv_img_decoder.c **** 
 181:..\..\..\arduinoLCD\test\Pain Drain\libraries\lvgl\src\draw/lv_img_decoder.c ****     return res;
 182:..\..\..\arduinoLCD\test\Pain Drain\libraries\lvgl\src\draw/lv_img_decoder.c **** }
 183:..\..\..\arduinoLCD\test\Pain Drain\libraries\lvgl\src\draw/lv_img_decoder.c **** 
 184:..\..\..\arduinoLCD\test\Pain Drain\libraries\lvgl\src\draw/lv_img_decoder.c **** /**
 185:..\..\..\arduinoLCD\test\Pain Drain\libraries\lvgl\src\draw/lv_img_decoder.c ****  * Close a decoding session
 186:..\..\..\arduinoLCD\test\Pain Drain\libraries\lvgl\src\draw/lv_img_decoder.c ****  * @param dsc pointer to `lv_img_decoder_dsc_t` used in `lv_img_decoder_open`
 187:..\..\..\arduinoLCD\test\Pain Drain\libraries\lvgl\src\draw/lv_img_decoder.c ****  */
 188:..\..\..\arduinoLCD\test\Pain Drain\libraries\lvgl\src\draw/lv_img_decoder.c **** void lv_img_decoder_close(lv_img_decoder_dsc_t * dsc)
 189:..\..\..\arduinoLCD\test\Pain Drain\libraries\lvgl\src\draw/lv_img_decoder.c **** {
 190:..\..\..\arduinoLCD\test\Pain Drain\libraries\lvgl\src\draw/lv_img_decoder.c ****     if(dsc->decoder) {
 191:..\..\..\arduinoLCD\test\Pain Drain\libraries\lvgl\src\draw/lv_img_decoder.c ****         if(dsc->decoder->close_cb) dsc->decoder->close_cb(dsc->decoder, dsc);
 192:..\..\..\arduinoLCD\test\Pain Drain\libraries\lvgl\src\draw/lv_img_decoder.c **** 
 193:..\..\..\arduinoLCD\test\Pain Drain\libraries\lvgl\src\draw/lv_img_decoder.c ****         if(dsc->src_type == LV_IMG_SRC_FILE) {
 194:..\..\..\arduinoLCD\test\Pain Drain\libraries\lvgl\src\draw/lv_img_decoder.c ****             lv_mem_free((void *)dsc->src);
 195:..\..\..\arduinoLCD\test\Pain Drain\libraries\lvgl\src\draw/lv_img_decoder.c ****             dsc->src = NULL;
 196:..\..\..\arduinoLCD\test\Pain Drain\libraries\lvgl\src\draw/lv_img_decoder.c ****         }
 197:..\..\..\arduinoLCD\test\Pain Drain\libraries\lvgl\src\draw/lv_img_decoder.c ****     }
 198:..\..\..\arduinoLCD\test\Pain Drain\libraries\lvgl\src\draw/lv_img_decoder.c **** }
 199:..\..\..\arduinoLCD\test\Pain Drain\libraries\lvgl\src\draw/lv_img_decoder.c **** 
 200:..\..\..\arduinoLCD\test\Pain Drain\libraries\lvgl\src\draw/lv_img_decoder.c **** /**
ARM GAS  C:\Users\haske\AppData\Local\Temp\ccHSLozV.s 			page 5


 201:..\..\..\arduinoLCD\test\Pain Drain\libraries\lvgl\src\draw/lv_img_decoder.c ****  * Create a new image decoder
 202:..\..\..\arduinoLCD\test\Pain Drain\libraries\lvgl\src\draw/lv_img_decoder.c ****  * @return pointer to the new image decoder
 203:..\..\..\arduinoLCD\test\Pain Drain\libraries\lvgl\src\draw/lv_img_decoder.c ****  */
 204:..\..\..\arduinoLCD\test\Pain Drain\libraries\lvgl\src\draw/lv_img_decoder.c **** lv_img_decoder_t * lv_img_decoder_create(void)
 205:..\..\..\arduinoLCD\test\Pain Drain\libraries\lvgl\src\draw/lv_img_decoder.c **** {
 206:..\..\..\arduinoLCD\test\Pain Drain\libraries\lvgl\src\draw/lv_img_decoder.c ****     lv_img_decoder_t * decoder;
 207:..\..\..\arduinoLCD\test\Pain Drain\libraries\lvgl\src\draw/lv_img_decoder.c ****     decoder = _lv_ll_ins_head(&LV_GC_ROOT(_lv_img_decoder_ll));
 208:..\..\..\arduinoLCD\test\Pain Drain\libraries\lvgl\src\draw/lv_img_decoder.c ****     LV_ASSERT_MALLOC(decoder);
 209:..\..\..\arduinoLCD\test\Pain Drain\libraries\lvgl\src\draw/lv_img_decoder.c ****     if(decoder == NULL) return NULL;
 210:..\..\..\arduinoLCD\test\Pain Drain\libraries\lvgl\src\draw/lv_img_decoder.c **** 
 211:..\..\..\arduinoLCD\test\Pain Drain\libraries\lvgl\src\draw/lv_img_decoder.c ****     lv_memset_00(decoder, sizeof(lv_img_decoder_t));
 212:..\..\..\arduinoLCD\test\Pain Drain\libraries\lvgl\src\draw/lv_img_decoder.c **** 
 213:..\..\..\arduinoLCD\test\Pain Drain\libraries\lvgl\src\draw/lv_img_decoder.c ****     return decoder;
 214:..\..\..\arduinoLCD\test\Pain Drain\libraries\lvgl\src\draw/lv_img_decoder.c **** }
 215:..\..\..\arduinoLCD\test\Pain Drain\libraries\lvgl\src\draw/lv_img_decoder.c **** 
 216:..\..\..\arduinoLCD\test\Pain Drain\libraries\lvgl\src\draw/lv_img_decoder.c **** /**
 217:..\..\..\arduinoLCD\test\Pain Drain\libraries\lvgl\src\draw/lv_img_decoder.c ****  * Delete an image decoder
 218:..\..\..\arduinoLCD\test\Pain Drain\libraries\lvgl\src\draw/lv_img_decoder.c ****  * @param decoder pointer to an image decoder
 219:..\..\..\arduinoLCD\test\Pain Drain\libraries\lvgl\src\draw/lv_img_decoder.c ****  */
 220:..\..\..\arduinoLCD\test\Pain Drain\libraries\lvgl\src\draw/lv_img_decoder.c **** void lv_img_decoder_delete(lv_img_decoder_t * decoder)
 221:..\..\..\arduinoLCD\test\Pain Drain\libraries\lvgl\src\draw/lv_img_decoder.c **** {
 222:..\..\..\arduinoLCD\test\Pain Drain\libraries\lvgl\src\draw/lv_img_decoder.c ****     _lv_ll_remove(&LV_GC_ROOT(_lv_img_decoder_ll), decoder);
 223:..\..\..\arduinoLCD\test\Pain Drain\libraries\lvgl\src\draw/lv_img_decoder.c ****     lv_mem_free(decoder);
 224:..\..\..\arduinoLCD\test\Pain Drain\libraries\lvgl\src\draw/lv_img_decoder.c **** }
 225:..\..\..\arduinoLCD\test\Pain Drain\libraries\lvgl\src\draw/lv_img_decoder.c **** 
 226:..\..\..\arduinoLCD\test\Pain Drain\libraries\lvgl\src\draw/lv_img_decoder.c **** /**
 227:..\..\..\arduinoLCD\test\Pain Drain\libraries\lvgl\src\draw/lv_img_decoder.c ****  * Set a callback to get information about the image
 228:..\..\..\arduinoLCD\test\Pain Drain\libraries\lvgl\src\draw/lv_img_decoder.c ****  * @param decoder pointer to an image decoder
 229:..\..\..\arduinoLCD\test\Pain Drain\libraries\lvgl\src\draw/lv_img_decoder.c ****  * @param info_cb a function to collect info about an image (fill an `lv_img_header_t` struct)
 230:..\..\..\arduinoLCD\test\Pain Drain\libraries\lvgl\src\draw/lv_img_decoder.c ****  */
 231:..\..\..\arduinoLCD\test\Pain Drain\libraries\lvgl\src\draw/lv_img_decoder.c **** void lv_img_decoder_set_info_cb(lv_img_decoder_t * decoder, lv_img_decoder_info_f_t info_cb)
 232:..\..\..\arduinoLCD\test\Pain Drain\libraries\lvgl\src\draw/lv_img_decoder.c **** {
 233:..\..\..\arduinoLCD\test\Pain Drain\libraries\lvgl\src\draw/lv_img_decoder.c ****     decoder->info_cb = info_cb;
 234:..\..\..\arduinoLCD\test\Pain Drain\libraries\lvgl\src\draw/lv_img_decoder.c **** }
 235:..\..\..\arduinoLCD\test\Pain Drain\libraries\lvgl\src\draw/lv_img_decoder.c **** 
 236:..\..\..\arduinoLCD\test\Pain Drain\libraries\lvgl\src\draw/lv_img_decoder.c **** /**
 237:..\..\..\arduinoLCD\test\Pain Drain\libraries\lvgl\src\draw/lv_img_decoder.c ****  * Set a callback to open an image
 238:..\..\..\arduinoLCD\test\Pain Drain\libraries\lvgl\src\draw/lv_img_decoder.c ****  * @param decoder pointer to an image decoder
 239:..\..\..\arduinoLCD\test\Pain Drain\libraries\lvgl\src\draw/lv_img_decoder.c ****  * @param open_cb a function to open an image
 240:..\..\..\arduinoLCD\test\Pain Drain\libraries\lvgl\src\draw/lv_img_decoder.c ****  */
 241:..\..\..\arduinoLCD\test\Pain Drain\libraries\lvgl\src\draw/lv_img_decoder.c **** void lv_img_decoder_set_open_cb(lv_img_decoder_t * decoder, lv_img_decoder_open_f_t open_cb)
 242:..\..\..\arduinoLCD\test\Pain Drain\libraries\lvgl\src\draw/lv_img_decoder.c **** {
 243:..\..\..\arduinoLCD\test\Pain Drain\libraries\lvgl\src\draw/lv_img_decoder.c ****     decoder->open_cb = open_cb;
 244:..\..\..\arduinoLCD\test\Pain Drain\libraries\lvgl\src\draw/lv_img_decoder.c **** }
 245:..\..\..\arduinoLCD\test\Pain Drain\libraries\lvgl\src\draw/lv_img_decoder.c **** 
 246:..\..\..\arduinoLCD\test\Pain Drain\libraries\lvgl\src\draw/lv_img_decoder.c **** /**
 247:..\..\..\arduinoLCD\test\Pain Drain\libraries\lvgl\src\draw/lv_img_decoder.c ****  * Set a callback to a decoded line of an image
 248:..\..\..\arduinoLCD\test\Pain Drain\libraries\lvgl\src\draw/lv_img_decoder.c ****  * @param decoder pointer to an image decoder
 249:..\..\..\arduinoLCD\test\Pain Drain\libraries\lvgl\src\draw/lv_img_decoder.c ****  * @param read_line_cb a function to read a line of an image
 250:..\..\..\arduinoLCD\test\Pain Drain\libraries\lvgl\src\draw/lv_img_decoder.c ****  */
 251:..\..\..\arduinoLCD\test\Pain Drain\libraries\lvgl\src\draw/lv_img_decoder.c **** void lv_img_decoder_set_read_line_cb(lv_img_decoder_t * decoder, lv_img_decoder_read_line_f_t read_
 252:..\..\..\arduinoLCD\test\Pain Drain\libraries\lvgl\src\draw/lv_img_decoder.c **** {
 253:..\..\..\arduinoLCD\test\Pain Drain\libraries\lvgl\src\draw/lv_img_decoder.c ****     decoder->read_line_cb = read_line_cb;
 254:..\..\..\arduinoLCD\test\Pain Drain\libraries\lvgl\src\draw/lv_img_decoder.c **** }
 255:..\..\..\arduinoLCD\test\Pain Drain\libraries\lvgl\src\draw/lv_img_decoder.c **** 
 256:..\..\..\arduinoLCD\test\Pain Drain\libraries\lvgl\src\draw/lv_img_decoder.c **** /**
 257:..\..\..\arduinoLCD\test\Pain Drain\libraries\lvgl\src\draw/lv_img_decoder.c ****  * Set a callback to close a decoding session. E.g. close files and free other resources.
ARM GAS  C:\Users\haske\AppData\Local\Temp\ccHSLozV.s 			page 6


 258:..\..\..\arduinoLCD\test\Pain Drain\libraries\lvgl\src\draw/lv_img_decoder.c ****  * @param decoder pointer to an image decoder
 259:..\..\..\arduinoLCD\test\Pain Drain\libraries\lvgl\src\draw/lv_img_decoder.c ****  * @param close_cb a function to close a decoding session
 260:..\..\..\arduinoLCD\test\Pain Drain\libraries\lvgl\src\draw/lv_img_decoder.c ****  */
 261:..\..\..\arduinoLCD\test\Pain Drain\libraries\lvgl\src\draw/lv_img_decoder.c **** void lv_img_decoder_set_close_cb(lv_img_decoder_t * decoder, lv_img_decoder_close_f_t close_cb)
 262:..\..\..\arduinoLCD\test\Pain Drain\libraries\lvgl\src\draw/lv_img_decoder.c **** {
 263:..\..\..\arduinoLCD\test\Pain Drain\libraries\lvgl\src\draw/lv_img_decoder.c ****     decoder->close_cb = close_cb;
 264:..\..\..\arduinoLCD\test\Pain Drain\libraries\lvgl\src\draw/lv_img_decoder.c **** }
 265:..\..\..\arduinoLCD\test\Pain Drain\libraries\lvgl\src\draw/lv_img_decoder.c **** 
 266:..\..\..\arduinoLCD\test\Pain Drain\libraries\lvgl\src\draw/lv_img_decoder.c **** /**
 267:..\..\..\arduinoLCD\test\Pain Drain\libraries\lvgl\src\draw/lv_img_decoder.c ****  * Get info about a built-in image
 268:..\..\..\arduinoLCD\test\Pain Drain\libraries\lvgl\src\draw/lv_img_decoder.c ****  * @param decoder the decoder where this function belongs
 269:..\..\..\arduinoLCD\test\Pain Drain\libraries\lvgl\src\draw/lv_img_decoder.c ****  * @param src the image source: pointer to an `lv_img_dsc_t` variable, a file path or a symbol
 270:..\..\..\arduinoLCD\test\Pain Drain\libraries\lvgl\src\draw/lv_img_decoder.c ****  * @param header store the image data here
 271:..\..\..\arduinoLCD\test\Pain Drain\libraries\lvgl\src\draw/lv_img_decoder.c ****  * @return LV_RES_OK: the info is successfully stored in `header`; LV_RES_INV: unknown format or ot
 272:..\..\..\arduinoLCD\test\Pain Drain\libraries\lvgl\src\draw/lv_img_decoder.c ****  */
 273:..\..\..\arduinoLCD\test\Pain Drain\libraries\lvgl\src\draw/lv_img_decoder.c **** lv_res_t lv_img_decoder_built_in_info(lv_img_decoder_t * decoder, const void * src, lv_img_header_t
 274:..\..\..\arduinoLCD\test\Pain Drain\libraries\lvgl\src\draw/lv_img_decoder.c **** {
  29              		.loc 1 274 0
  30              		.cfi_startproc
  31              		@ args = 0, pretend = 0, frame = 16
  32              		@ frame_needed = 0, uses_anonymous_args = 0
  33              	.LVL0:
  34 0000 30B5     		push	{r4, r5, lr}
  35              		.cfi_def_cfa_offset 12
  36              		.cfi_offset 4, -12
  37              		.cfi_offset 5, -8
  38              		.cfi_offset 14, -4
  39 0002 85B0     		sub	sp, sp, #20
  40              		.cfi_def_cfa_offset 32
  41 0004 0C46     		mov	r4, r1
  42 0006 1546     		mov	r5, r2
 275:..\..\..\arduinoLCD\test\Pain Drain\libraries\lvgl\src\draw/lv_img_decoder.c ****     LV_UNUSED(decoder); /*Unused*/
 276:..\..\..\arduinoLCD\test\Pain Drain\libraries\lvgl\src\draw/lv_img_decoder.c **** 
 277:..\..\..\arduinoLCD\test\Pain Drain\libraries\lvgl\src\draw/lv_img_decoder.c ****     lv_img_src_t src_type = lv_img_src_get_type(src);
  43              		.loc 1 277 0
  44 0008 0846     		mov	r0, r1
  45              	.LVL1:
  46 000a FFF7FEFF 		bl	lv_img_src_get_type
  47              	.LVL2:
 278:..\..\..\arduinoLCD\test\Pain Drain\libraries\lvgl\src\draw/lv_img_decoder.c ****     if(src_type == LV_IMG_SRC_VARIABLE) {
  48              		.loc 1 278 0
  49 000e D8B9     		cbnz	r0, .L2
  50              	.LBB12:
 279:..\..\..\arduinoLCD\test\Pain Drain\libraries\lvgl\src\draw/lv_img_decoder.c ****         lv_img_cf_t cf = ((lv_img_dsc_t *)src)->header.cf;
  51              		.loc 1 279 0
  52 0010 2378     		ldrb	r3, [r4]	@ zero_extendqisi2
  53 0012 03F01F03 		and	r3, r3, #31
  54              	.LVL3:
 280:..\..\..\arduinoLCD\test\Pain Drain\libraries\lvgl\src\draw/lv_img_decoder.c ****         if(cf < CF_BUILT_IN_FIRST || cf > CF_BUILT_IN_LAST) return LV_RES_INV;
  55              		.loc 1 280 0
  56 0016 043B     		subs	r3, r3, #4
  57 0018 DBB2     		uxtb	r3, r3
  58 001a 102B     		cmp	r3, #16
  59 001c 4ED8     		bhi	.L9
 281:..\..\..\arduinoLCD\test\Pain Drain\libraries\lvgl\src\draw/lv_img_decoder.c **** 
 282:..\..\..\arduinoLCD\test\Pain Drain\libraries\lvgl\src\draw/lv_img_decoder.c ****         header->w  = ((lv_img_dsc_t *)src)->header.w;
  60              		.loc 1 282 0
ARM GAS  C:\Users\haske\AppData\Local\Temp\ccHSLozV.s 			page 7


  61 001e 2368     		ldr	r3, [r4]
  62 0020 C3F38A23 		ubfx	r3, r3, #10, #11
  63 0024 2A68     		ldr	r2, [r5]
  64 0026 63F39422 		bfi	r2, r3, #10, #11
  65 002a 2A60     		str	r2, [r5]
  66              	.LVL4:
 283:..\..\..\arduinoLCD\test\Pain Drain\libraries\lvgl\src\draw/lv_img_decoder.c ****         header->h  = ((lv_img_dsc_t *)src)->header.h;
  67              		.loc 1 283 0
  68 002c 6388     		ldrh	r3, [r4, #2]
  69 002e C3F34A13 		ubfx	r3, r3, #5, #11
  70 0032 6A88     		ldrh	r2, [r5, #2]
  71 0034 63F34F12 		bfi	r2, r3, #5, #11
  72 0038 6A80     		strh	r2, [r5, #2]	@ movhi
 284:..\..\..\arduinoLCD\test\Pain Drain\libraries\lvgl\src\draw/lv_img_decoder.c ****         header->cf = ((lv_img_dsc_t *)src)->header.cf;
  73              		.loc 1 284 0
  74 003a 2278     		ldrb	r2, [r4]	@ zero_extendqisi2
  75 003c 2B78     		ldrb	r3, [r5]	@ zero_extendqisi2
  76 003e 62F30403 		bfi	r3, r2, #0, #5
  77 0042 2B70     		strb	r3, [r5]
  78              	.LBE12:
 285:..\..\..\arduinoLCD\test\Pain Drain\libraries\lvgl\src\draw/lv_img_decoder.c ****     }
 286:..\..\..\arduinoLCD\test\Pain Drain\libraries\lvgl\src\draw/lv_img_decoder.c ****     else if(src_type == LV_IMG_SRC_FILE) {
 287:..\..\..\arduinoLCD\test\Pain Drain\libraries\lvgl\src\draw/lv_img_decoder.c ****         /*Support only "*.bin" files*/
 288:..\..\..\arduinoLCD\test\Pain Drain\libraries\lvgl\src\draw/lv_img_decoder.c ****         if(strcmp(lv_fs_get_ext(src), "bin")) return LV_RES_INV;
 289:..\..\..\arduinoLCD\test\Pain Drain\libraries\lvgl\src\draw/lv_img_decoder.c **** 
 290:..\..\..\arduinoLCD\test\Pain Drain\libraries\lvgl\src\draw/lv_img_decoder.c ****         lv_fs_file_t f;
 291:..\..\..\arduinoLCD\test\Pain Drain\libraries\lvgl\src\draw/lv_img_decoder.c ****         lv_fs_res_t res = lv_fs_open(&f, src, LV_FS_MODE_RD);
 292:..\..\..\arduinoLCD\test\Pain Drain\libraries\lvgl\src\draw/lv_img_decoder.c ****         if(res == LV_FS_RES_OK) {
 293:..\..\..\arduinoLCD\test\Pain Drain\libraries\lvgl\src\draw/lv_img_decoder.c ****             uint32_t rn;
 294:..\..\..\arduinoLCD\test\Pain Drain\libraries\lvgl\src\draw/lv_img_decoder.c ****             res = lv_fs_read(&f, header, sizeof(lv_img_header_t), &rn);
 295:..\..\..\arduinoLCD\test\Pain Drain\libraries\lvgl\src\draw/lv_img_decoder.c ****             lv_fs_close(&f);
 296:..\..\..\arduinoLCD\test\Pain Drain\libraries\lvgl\src\draw/lv_img_decoder.c ****             if(res != LV_FS_RES_OK || rn != sizeof(lv_img_header_t)) {
 297:..\..\..\arduinoLCD\test\Pain Drain\libraries\lvgl\src\draw/lv_img_decoder.c ****                 LV_LOG_WARN("Image get info get read file header");
 298:..\..\..\arduinoLCD\test\Pain Drain\libraries\lvgl\src\draw/lv_img_decoder.c ****                 return LV_RES_INV;
 299:..\..\..\arduinoLCD\test\Pain Drain\libraries\lvgl\src\draw/lv_img_decoder.c ****             }
 300:..\..\..\arduinoLCD\test\Pain Drain\libraries\lvgl\src\draw/lv_img_decoder.c ****         }
 301:..\..\..\arduinoLCD\test\Pain Drain\libraries\lvgl\src\draw/lv_img_decoder.c **** 
 302:..\..\..\arduinoLCD\test\Pain Drain\libraries\lvgl\src\draw/lv_img_decoder.c ****         if(header->cf < CF_BUILT_IN_FIRST || header->cf > CF_BUILT_IN_LAST) return LV_RES_INV;
 303:..\..\..\arduinoLCD\test\Pain Drain\libraries\lvgl\src\draw/lv_img_decoder.c ****     }
 304:..\..\..\arduinoLCD\test\Pain Drain\libraries\lvgl\src\draw/lv_img_decoder.c ****     else if(src_type == LV_IMG_SRC_SYMBOL) {
 305:..\..\..\arduinoLCD\test\Pain Drain\libraries\lvgl\src\draw/lv_img_decoder.c ****         /*The size depend on the font but it is unknown here. It should be handled outside of the
 306:..\..\..\arduinoLCD\test\Pain Drain\libraries\lvgl\src\draw/lv_img_decoder.c ****          *function*/
 307:..\..\..\arduinoLCD\test\Pain Drain\libraries\lvgl\src\draw/lv_img_decoder.c ****         header->w = 1;
 308:..\..\..\arduinoLCD\test\Pain Drain\libraries\lvgl\src\draw/lv_img_decoder.c ****         header->h = 1;
 309:..\..\..\arduinoLCD\test\Pain Drain\libraries\lvgl\src\draw/lv_img_decoder.c ****         /*Symbols always have transparent parts. Important because of cover check in the draw
 310:..\..\..\arduinoLCD\test\Pain Drain\libraries\lvgl\src\draw/lv_img_decoder.c ****          *function. The actual value doesn't matter because lv_draw_label will draw it*/
 311:..\..\..\arduinoLCD\test\Pain Drain\libraries\lvgl\src\draw/lv_img_decoder.c ****         header->cf = LV_IMG_CF_ALPHA_1BIT;
 312:..\..\..\arduinoLCD\test\Pain Drain\libraries\lvgl\src\draw/lv_img_decoder.c ****     }
 313:..\..\..\arduinoLCD\test\Pain Drain\libraries\lvgl\src\draw/lv_img_decoder.c ****     else {
 314:..\..\..\arduinoLCD\test\Pain Drain\libraries\lvgl\src\draw/lv_img_decoder.c ****         LV_LOG_WARN("Image get info found unknown src type");
 315:..\..\..\arduinoLCD\test\Pain Drain\libraries\lvgl\src\draw/lv_img_decoder.c ****         return LV_RES_INV;
 316:..\..\..\arduinoLCD\test\Pain Drain\libraries\lvgl\src\draw/lv_img_decoder.c ****     }
 317:..\..\..\arduinoLCD\test\Pain Drain\libraries\lvgl\src\draw/lv_img_decoder.c ****     return LV_RES_OK;
  79              		.loc 1 317 0
  80 0044 0120     		movs	r0, #1
  81              	.LVL5:
  82 0046 3CE0     		b	.L3
ARM GAS  C:\Users\haske\AppData\Local\Temp\ccHSLozV.s 			page 8


  83              	.LVL6:
  84              	.L2:
 286:..\..\..\arduinoLCD\test\Pain Drain\libraries\lvgl\src\draw/lv_img_decoder.c ****         /*Support only "*.bin" files*/
  85              		.loc 1 286 0
  86 0048 0128     		cmp	r0, #1
  87 004a 27D1     		bne	.L4
  88              	.LBB13:
 288:..\..\..\arduinoLCD\test\Pain Drain\libraries\lvgl\src\draw/lv_img_decoder.c **** 
  89              		.loc 1 288 0
  90 004c 2046     		mov	r0, r4
  91              	.LVL7:
  92 004e FFF7FEFF 		bl	lv_fs_get_ext
  93              	.LVL8:
  94 0052 1D49     		ldr	r1, .L12
  95 0054 FFF7FEFF 		bl	strcmp
  96              	.LVL9:
  97 0058 F0B9     		cbnz	r0, .L5
 291:..\..\..\arduinoLCD\test\Pain Drain\libraries\lvgl\src\draw/lv_img_decoder.c ****         if(res == LV_FS_RES_OK) {
  98              		.loc 1 291 0
  99 005a 0222     		movs	r2, #2
 100 005c 2146     		mov	r1, r4
 101 005e 01A8     		add	r0, sp, #4
 102 0060 FFF7FEFF 		bl	lv_fs_open
 103              	.LVL10:
 292:..\..\..\arduinoLCD\test\Pain Drain\libraries\lvgl\src\draw/lv_img_decoder.c ****             uint32_t rn;
 104              		.loc 1 292 0
 105 0064 70B9     		cbnz	r0, .L6
 106              	.LBB14:
 294:..\..\..\arduinoLCD\test\Pain Drain\libraries\lvgl\src\draw/lv_img_decoder.c ****             lv_fs_close(&f);
 107              		.loc 1 294 0
 108 0066 6B46     		mov	r3, sp
 109 0068 0422     		movs	r2, #4
 110 006a 2946     		mov	r1, r5
 111 006c 0DEB0200 		add	r0, sp, r2
 112              	.LVL11:
 113 0070 FFF7FEFF 		bl	lv_fs_read
 114              	.LVL12:
 115 0074 0446     		mov	r4, r0
 116              	.LVL13:
 295:..\..\..\arduinoLCD\test\Pain Drain\libraries\lvgl\src\draw/lv_img_decoder.c ****             if(res != LV_FS_RES_OK || rn != sizeof(lv_img_header_t)) {
 117              		.loc 1 295 0
 118 0076 01A8     		add	r0, sp, #4
 119 0078 FFF7FEFF 		bl	lv_fs_close
 120              	.LVL14:
 296:..\..\..\arduinoLCD\test\Pain Drain\libraries\lvgl\src\draw/lv_img_decoder.c ****                 LV_LOG_WARN("Image get info get read file header");
 121              		.loc 1 296 0
 122 007c 64B9     		cbnz	r4, .L5
 296:..\..\..\arduinoLCD\test\Pain Drain\libraries\lvgl\src\draw/lv_img_decoder.c ****                 LV_LOG_WARN("Image get info get read file header");
 123              		.loc 1 296 0 is_stmt 0 discriminator 1
 124 007e 009B     		ldr	r3, [sp]
 125 0080 042B     		cmp	r3, #4
 126 0082 09D1     		bne	.L5
 127              	.LVL15:
 128              	.L6:
 129              	.LBE14:
 302:..\..\..\arduinoLCD\test\Pain Drain\libraries\lvgl\src\draw/lv_img_decoder.c ****     }
 130              		.loc 1 302 0 is_stmt 1
ARM GAS  C:\Users\haske\AppData\Local\Temp\ccHSLozV.s 			page 9


 131 0084 2B78     		ldrb	r3, [r5]	@ zero_extendqisi2
 132 0086 03F01F03 		and	r3, r3, #31
 133 008a 1C33     		adds	r3, r3, #28
 134 008c 03F01F03 		and	r3, r3, #31
 135 0090 102B     		cmp	r3, #16
 136 0092 01D8     		bhi	.L5
 137              	.LBE13:
 138              		.loc 1 317 0
 139 0094 0120     		movs	r0, #1
 140 0096 14E0     		b	.L3
 141              	.L5:
 142              	.LBB15:
 288:..\..\..\arduinoLCD\test\Pain Drain\libraries\lvgl\src\draw/lv_img_decoder.c **** 
 143              		.loc 1 288 0 discriminator 2
 144 0098 0020     		movs	r0, #0
 145 009a 12E0     		b	.L3
 146              	.LVL16:
 147              	.L4:
 148              	.LBE15:
 304:..\..\..\arduinoLCD\test\Pain Drain\libraries\lvgl\src\draw/lv_img_decoder.c ****         /*The size depend on the font but it is unknown here. It should be handled outside of the
 149              		.loc 1 304 0
 150 009c 0228     		cmp	r0, #2
 151 009e 0FD1     		bne	.L10
 307:..\..\..\arduinoLCD\test\Pain Drain\libraries\lvgl\src\draw/lv_img_decoder.c ****         header->h = 1;
 152              		.loc 1 307 0
 153 00a0 2B68     		ldr	r3, [r5]
 154 00a2 0120     		movs	r0, #1
 155              	.LVL17:
 156 00a4 60F39423 		bfi	r3, r0, #10, #11
 157 00a8 2B60     		str	r3, [r5]
 308:..\..\..\arduinoLCD\test\Pain Drain\libraries\lvgl\src\draw/lv_img_decoder.c ****         /*Symbols always have transparent parts. Important because of cover check in the draw
 158              		.loc 1 308 0
 159 00aa 1A0C     		lsrs	r2, r3, #16
 160 00ac 60F34F12 		bfi	r2, r0, #5, #11
 161 00b0 6A80     		strh	r2, [r5, #2]	@ movhi
 311:..\..\..\arduinoLCD\test\Pain Drain\libraries\lvgl\src\draw/lv_img_decoder.c ****     }
 162              		.loc 1 311 0
 163 00b2 0B22     		movs	r2, #11
 164 00b4 62F30403 		bfi	r3, r2, #0, #5
 165 00b8 2B70     		strb	r3, [r5]
 166 00ba 02E0     		b	.L3
 167              	.LVL18:
 168              	.L9:
 169              	.LBB16:
 280:..\..\..\arduinoLCD\test\Pain Drain\libraries\lvgl\src\draw/lv_img_decoder.c **** 
 170              		.loc 1 280 0
 171 00bc 0020     		movs	r0, #0
 172              	.LVL19:
 173 00be 00E0     		b	.L3
 174              	.LVL20:
 175              	.L10:
 176              	.LBE16:
 315:..\..\..\arduinoLCD\test\Pain Drain\libraries\lvgl\src\draw/lv_img_decoder.c ****     }
 177              		.loc 1 315 0
 178 00c0 0020     		movs	r0, #0
 179              	.LVL21:
 180              	.L3:
ARM GAS  C:\Users\haske\AppData\Local\Temp\ccHSLozV.s 			page 10


 318:..\..\..\arduinoLCD\test\Pain Drain\libraries\lvgl\src\draw/lv_img_decoder.c **** }
 181              		.loc 1 318 0
 182 00c2 05B0     		add	sp, sp, #20
 183              		.cfi_def_cfa_offset 12
 184              		@ sp needed
 185 00c4 30BD     		pop	{r4, r5, pc}
 186              	.LVL22:
 187              	.L13:
 188 00c6 00BF     		.align	2
 189              	.L12:
 190 00c8 00000000 		.word	.LC2
 191              		.cfi_endproc
 192              	.LFE67:
 193              		.size	lv_img_decoder_built_in_info, .-lv_img_decoder_built_in_info
 194              		.section	.text.lv_img_decoder_built_in_close,"ax",%progbits
 195              		.align	2
 196              		.global	lv_img_decoder_built_in_close
 197              		.thumb
 198              		.thumb_func
 199              		.type	lv_img_decoder_built_in_close, %function
 200              	lv_img_decoder_built_in_close:
 201              	.LFB70:
 319:..\..\..\arduinoLCD\test\Pain Drain\libraries\lvgl\src\draw/lv_img_decoder.c **** 
 320:..\..\..\arduinoLCD\test\Pain Drain\libraries\lvgl\src\draw/lv_img_decoder.c **** /**
 321:..\..\..\arduinoLCD\test\Pain Drain\libraries\lvgl\src\draw/lv_img_decoder.c ****  * Open a built in image
 322:..\..\..\arduinoLCD\test\Pain Drain\libraries\lvgl\src\draw/lv_img_decoder.c ****  * @param decoder the decoder where this function belongs
 323:..\..\..\arduinoLCD\test\Pain Drain\libraries\lvgl\src\draw/lv_img_decoder.c ****  * @param dsc pointer to decoder descriptor. `src`, `color` are already initialized in it.
 324:..\..\..\arduinoLCD\test\Pain Drain\libraries\lvgl\src\draw/lv_img_decoder.c ****  * @return LV_RES_OK: the info is successfully stored in `header`; LV_RES_INV: unknown format or ot
 325:..\..\..\arduinoLCD\test\Pain Drain\libraries\lvgl\src\draw/lv_img_decoder.c ****  */
 326:..\..\..\arduinoLCD\test\Pain Drain\libraries\lvgl\src\draw/lv_img_decoder.c **** lv_res_t lv_img_decoder_built_in_open(lv_img_decoder_t * decoder, lv_img_decoder_dsc_t * dsc)
 327:..\..\..\arduinoLCD\test\Pain Drain\libraries\lvgl\src\draw/lv_img_decoder.c **** {
 328:..\..\..\arduinoLCD\test\Pain Drain\libraries\lvgl\src\draw/lv_img_decoder.c ****     /*Open the file if it's a file*/
 329:..\..\..\arduinoLCD\test\Pain Drain\libraries\lvgl\src\draw/lv_img_decoder.c ****     if(dsc->src_type == LV_IMG_SRC_FILE) {
 330:..\..\..\arduinoLCD\test\Pain Drain\libraries\lvgl\src\draw/lv_img_decoder.c ****         /*Support only "*.bin" files*/
 331:..\..\..\arduinoLCD\test\Pain Drain\libraries\lvgl\src\draw/lv_img_decoder.c ****         if(strcmp(lv_fs_get_ext(dsc->src), "bin")) return LV_RES_INV;
 332:..\..\..\arduinoLCD\test\Pain Drain\libraries\lvgl\src\draw/lv_img_decoder.c **** 
 333:..\..\..\arduinoLCD\test\Pain Drain\libraries\lvgl\src\draw/lv_img_decoder.c ****         lv_fs_file_t f;
 334:..\..\..\arduinoLCD\test\Pain Drain\libraries\lvgl\src\draw/lv_img_decoder.c ****         lv_fs_res_t res = lv_fs_open(&f, dsc->src, LV_FS_MODE_RD);
 335:..\..\..\arduinoLCD\test\Pain Drain\libraries\lvgl\src\draw/lv_img_decoder.c ****         if(res != LV_FS_RES_OK) {
 336:..\..\..\arduinoLCD\test\Pain Drain\libraries\lvgl\src\draw/lv_img_decoder.c ****             LV_LOG_WARN("Built-in image decoder can't open the file");
 337:..\..\..\arduinoLCD\test\Pain Drain\libraries\lvgl\src\draw/lv_img_decoder.c ****             return LV_RES_INV;
 338:..\..\..\arduinoLCD\test\Pain Drain\libraries\lvgl\src\draw/lv_img_decoder.c ****         }
 339:..\..\..\arduinoLCD\test\Pain Drain\libraries\lvgl\src\draw/lv_img_decoder.c **** 
 340:..\..\..\arduinoLCD\test\Pain Drain\libraries\lvgl\src\draw/lv_img_decoder.c ****         /*If the file was open successfully save the file descriptor*/
 341:..\..\..\arduinoLCD\test\Pain Drain\libraries\lvgl\src\draw/lv_img_decoder.c ****         if(dsc->user_data == NULL) {
 342:..\..\..\arduinoLCD\test\Pain Drain\libraries\lvgl\src\draw/lv_img_decoder.c ****             dsc->user_data = lv_mem_alloc(sizeof(lv_img_decoder_built_in_data_t));
 343:..\..\..\arduinoLCD\test\Pain Drain\libraries\lvgl\src\draw/lv_img_decoder.c ****             LV_ASSERT_MALLOC(dsc->user_data);
 344:..\..\..\arduinoLCD\test\Pain Drain\libraries\lvgl\src\draw/lv_img_decoder.c ****             if(dsc->user_data == NULL) {
 345:..\..\..\arduinoLCD\test\Pain Drain\libraries\lvgl\src\draw/lv_img_decoder.c ****                 LV_LOG_ERROR("img_decoder_built_in_open: out of memory");
 346:..\..\..\arduinoLCD\test\Pain Drain\libraries\lvgl\src\draw/lv_img_decoder.c ****                 lv_fs_close(&f);
 347:..\..\..\arduinoLCD\test\Pain Drain\libraries\lvgl\src\draw/lv_img_decoder.c ****                 return LV_RES_INV;
 348:..\..\..\arduinoLCD\test\Pain Drain\libraries\lvgl\src\draw/lv_img_decoder.c ****             }
 349:..\..\..\arduinoLCD\test\Pain Drain\libraries\lvgl\src\draw/lv_img_decoder.c ****             lv_memset_00(dsc->user_data, sizeof(lv_img_decoder_built_in_data_t));
 350:..\..\..\arduinoLCD\test\Pain Drain\libraries\lvgl\src\draw/lv_img_decoder.c ****         }
 351:..\..\..\arduinoLCD\test\Pain Drain\libraries\lvgl\src\draw/lv_img_decoder.c **** 
 352:..\..\..\arduinoLCD\test\Pain Drain\libraries\lvgl\src\draw/lv_img_decoder.c ****         lv_img_decoder_built_in_data_t * user_data = dsc->user_data;
 353:..\..\..\arduinoLCD\test\Pain Drain\libraries\lvgl\src\draw/lv_img_decoder.c ****         lv_memcpy_small(&user_data->f, &f, sizeof(f));
ARM GAS  C:\Users\haske\AppData\Local\Temp\ccHSLozV.s 			page 11


 354:..\..\..\arduinoLCD\test\Pain Drain\libraries\lvgl\src\draw/lv_img_decoder.c ****     }
 355:..\..\..\arduinoLCD\test\Pain Drain\libraries\lvgl\src\draw/lv_img_decoder.c ****     else if(dsc->src_type == LV_IMG_SRC_VARIABLE) {
 356:..\..\..\arduinoLCD\test\Pain Drain\libraries\lvgl\src\draw/lv_img_decoder.c ****         /*The variables should have valid data*/
 357:..\..\..\arduinoLCD\test\Pain Drain\libraries\lvgl\src\draw/lv_img_decoder.c ****         if(((lv_img_dsc_t *)dsc->src)->data == NULL) {
 358:..\..\..\arduinoLCD\test\Pain Drain\libraries\lvgl\src\draw/lv_img_decoder.c ****             return LV_RES_INV;
 359:..\..\..\arduinoLCD\test\Pain Drain\libraries\lvgl\src\draw/lv_img_decoder.c ****         }
 360:..\..\..\arduinoLCD\test\Pain Drain\libraries\lvgl\src\draw/lv_img_decoder.c ****     }
 361:..\..\..\arduinoLCD\test\Pain Drain\libraries\lvgl\src\draw/lv_img_decoder.c **** 
 362:..\..\..\arduinoLCD\test\Pain Drain\libraries\lvgl\src\draw/lv_img_decoder.c ****     lv_img_cf_t cf = dsc->header.cf;
 363:..\..\..\arduinoLCD\test\Pain Drain\libraries\lvgl\src\draw/lv_img_decoder.c ****     /*Process true color formats*/
 364:..\..\..\arduinoLCD\test\Pain Drain\libraries\lvgl\src\draw/lv_img_decoder.c ****     if(cf == LV_IMG_CF_TRUE_COLOR || cf == LV_IMG_CF_TRUE_COLOR_ALPHA ||
 365:..\..\..\arduinoLCD\test\Pain Drain\libraries\lvgl\src\draw/lv_img_decoder.c ****        cf == LV_IMG_CF_TRUE_COLOR_CHROMA_KEYED || cf == LV_IMG_CF_RGB565A8 ||
 366:..\..\..\arduinoLCD\test\Pain Drain\libraries\lvgl\src\draw/lv_img_decoder.c ****        cf == LV_IMG_CF_ALPHA_8BIT) {
 367:..\..\..\arduinoLCD\test\Pain Drain\libraries\lvgl\src\draw/lv_img_decoder.c ****         if(dsc->src_type == LV_IMG_SRC_VARIABLE) {
 368:..\..\..\arduinoLCD\test\Pain Drain\libraries\lvgl\src\draw/lv_img_decoder.c ****             /*In case of uncompressed formats the image stored in the ROM/RAM.
 369:..\..\..\arduinoLCD\test\Pain Drain\libraries\lvgl\src\draw/lv_img_decoder.c ****              *So simply give its pointer*/
 370:..\..\..\arduinoLCD\test\Pain Drain\libraries\lvgl\src\draw/lv_img_decoder.c ****             dsc->img_data = ((lv_img_dsc_t *)dsc->src)->data;
 371:..\..\..\arduinoLCD\test\Pain Drain\libraries\lvgl\src\draw/lv_img_decoder.c ****             return LV_RES_OK;
 372:..\..\..\arduinoLCD\test\Pain Drain\libraries\lvgl\src\draw/lv_img_decoder.c ****         }
 373:..\..\..\arduinoLCD\test\Pain Drain\libraries\lvgl\src\draw/lv_img_decoder.c ****         else {
 374:..\..\..\arduinoLCD\test\Pain Drain\libraries\lvgl\src\draw/lv_img_decoder.c ****             /*If it's a file it need to be read line by line later*/
 375:..\..\..\arduinoLCD\test\Pain Drain\libraries\lvgl\src\draw/lv_img_decoder.c ****             return LV_RES_OK;
 376:..\..\..\arduinoLCD\test\Pain Drain\libraries\lvgl\src\draw/lv_img_decoder.c ****         }
 377:..\..\..\arduinoLCD\test\Pain Drain\libraries\lvgl\src\draw/lv_img_decoder.c ****     }
 378:..\..\..\arduinoLCD\test\Pain Drain\libraries\lvgl\src\draw/lv_img_decoder.c ****     /*Process indexed images. Build a palette*/
 379:..\..\..\arduinoLCD\test\Pain Drain\libraries\lvgl\src\draw/lv_img_decoder.c ****     else if(cf == LV_IMG_CF_INDEXED_1BIT || cf == LV_IMG_CF_INDEXED_2BIT || cf == LV_IMG_CF_INDEXED
 380:..\..\..\arduinoLCD\test\Pain Drain\libraries\lvgl\src\draw/lv_img_decoder.c ****             cf == LV_IMG_CF_INDEXED_8BIT) {
 381:..\..\..\arduinoLCD\test\Pain Drain\libraries\lvgl\src\draw/lv_img_decoder.c ****         uint8_t px_size       = lv_img_cf_get_px_size(cf);
 382:..\..\..\arduinoLCD\test\Pain Drain\libraries\lvgl\src\draw/lv_img_decoder.c ****         uint32_t palette_size = 1 << px_size;
 383:..\..\..\arduinoLCD\test\Pain Drain\libraries\lvgl\src\draw/lv_img_decoder.c **** 
 384:..\..\..\arduinoLCD\test\Pain Drain\libraries\lvgl\src\draw/lv_img_decoder.c ****         /*Allocate the palette*/
 385:..\..\..\arduinoLCD\test\Pain Drain\libraries\lvgl\src\draw/lv_img_decoder.c ****         if(dsc->user_data == NULL) {
 386:..\..\..\arduinoLCD\test\Pain Drain\libraries\lvgl\src\draw/lv_img_decoder.c ****             dsc->user_data = lv_mem_alloc(sizeof(lv_img_decoder_built_in_data_t));
 387:..\..\..\arduinoLCD\test\Pain Drain\libraries\lvgl\src\draw/lv_img_decoder.c ****             LV_ASSERT_MALLOC(dsc->user_data);
 388:..\..\..\arduinoLCD\test\Pain Drain\libraries\lvgl\src\draw/lv_img_decoder.c ****             if(dsc->user_data == NULL) {
 389:..\..\..\arduinoLCD\test\Pain Drain\libraries\lvgl\src\draw/lv_img_decoder.c ****                 LV_LOG_ERROR("img_decoder_built_in_open: out of memory");
 390:..\..\..\arduinoLCD\test\Pain Drain\libraries\lvgl\src\draw/lv_img_decoder.c ****                 return LV_RES_INV;
 391:..\..\..\arduinoLCD\test\Pain Drain\libraries\lvgl\src\draw/lv_img_decoder.c ****             }
 392:..\..\..\arduinoLCD\test\Pain Drain\libraries\lvgl\src\draw/lv_img_decoder.c ****             lv_memset_00(dsc->user_data, sizeof(lv_img_decoder_built_in_data_t));
 393:..\..\..\arduinoLCD\test\Pain Drain\libraries\lvgl\src\draw/lv_img_decoder.c ****         }
 394:..\..\..\arduinoLCD\test\Pain Drain\libraries\lvgl\src\draw/lv_img_decoder.c **** 
 395:..\..\..\arduinoLCD\test\Pain Drain\libraries\lvgl\src\draw/lv_img_decoder.c ****         lv_img_decoder_built_in_data_t * user_data = dsc->user_data;
 396:..\..\..\arduinoLCD\test\Pain Drain\libraries\lvgl\src\draw/lv_img_decoder.c ****         user_data->palette                         = lv_mem_alloc(palette_size * sizeof(lv_color_t)
 397:..\..\..\arduinoLCD\test\Pain Drain\libraries\lvgl\src\draw/lv_img_decoder.c ****         LV_ASSERT_MALLOC(user_data->palette);
 398:..\..\..\arduinoLCD\test\Pain Drain\libraries\lvgl\src\draw/lv_img_decoder.c ****         user_data->opa                             = lv_mem_alloc(palette_size * sizeof(lv_opa_t));
 399:..\..\..\arduinoLCD\test\Pain Drain\libraries\lvgl\src\draw/lv_img_decoder.c ****         LV_ASSERT_MALLOC(user_data->opa);
 400:..\..\..\arduinoLCD\test\Pain Drain\libraries\lvgl\src\draw/lv_img_decoder.c ****         if(user_data->palette == NULL || user_data->opa == NULL) {
 401:..\..\..\arduinoLCD\test\Pain Drain\libraries\lvgl\src\draw/lv_img_decoder.c ****             LV_LOG_ERROR("img_decoder_built_in_open: out of memory");
 402:..\..\..\arduinoLCD\test\Pain Drain\libraries\lvgl\src\draw/lv_img_decoder.c ****             lv_img_decoder_built_in_close(decoder, dsc);
 403:..\..\..\arduinoLCD\test\Pain Drain\libraries\lvgl\src\draw/lv_img_decoder.c ****             return LV_RES_INV;
 404:..\..\..\arduinoLCD\test\Pain Drain\libraries\lvgl\src\draw/lv_img_decoder.c ****         }
 405:..\..\..\arduinoLCD\test\Pain Drain\libraries\lvgl\src\draw/lv_img_decoder.c **** 
 406:..\..\..\arduinoLCD\test\Pain Drain\libraries\lvgl\src\draw/lv_img_decoder.c ****         if(dsc->src_type == LV_IMG_SRC_FILE) {
 407:..\..\..\arduinoLCD\test\Pain Drain\libraries\lvgl\src\draw/lv_img_decoder.c ****             /*Read the palette from file*/
 408:..\..\..\arduinoLCD\test\Pain Drain\libraries\lvgl\src\draw/lv_img_decoder.c ****             lv_fs_seek(&user_data->f, 4, LV_FS_SEEK_SET); /*Skip the header*/
 409:..\..\..\arduinoLCD\test\Pain Drain\libraries\lvgl\src\draw/lv_img_decoder.c ****             lv_color32_t cur_color;
 410:..\..\..\arduinoLCD\test\Pain Drain\libraries\lvgl\src\draw/lv_img_decoder.c ****             uint32_t i;
ARM GAS  C:\Users\haske\AppData\Local\Temp\ccHSLozV.s 			page 12


 411:..\..\..\arduinoLCD\test\Pain Drain\libraries\lvgl\src\draw/lv_img_decoder.c ****             for(i = 0; i < palette_size; i++) {
 412:..\..\..\arduinoLCD\test\Pain Drain\libraries\lvgl\src\draw/lv_img_decoder.c ****                 lv_fs_read(&user_data->f, &cur_color, sizeof(lv_color32_t), NULL);
 413:..\..\..\arduinoLCD\test\Pain Drain\libraries\lvgl\src\draw/lv_img_decoder.c ****                 user_data->palette[i] = lv_color_make(cur_color.ch.red, cur_color.ch.green, cur_col
 414:..\..\..\arduinoLCD\test\Pain Drain\libraries\lvgl\src\draw/lv_img_decoder.c ****                 user_data->opa[i]     = cur_color.ch.alpha;
 415:..\..\..\arduinoLCD\test\Pain Drain\libraries\lvgl\src\draw/lv_img_decoder.c ****             }
 416:..\..\..\arduinoLCD\test\Pain Drain\libraries\lvgl\src\draw/lv_img_decoder.c ****         }
 417:..\..\..\arduinoLCD\test\Pain Drain\libraries\lvgl\src\draw/lv_img_decoder.c ****         else {
 418:..\..\..\arduinoLCD\test\Pain Drain\libraries\lvgl\src\draw/lv_img_decoder.c ****             /*The palette begins in the beginning of the image data. Just point to it.*/
 419:..\..\..\arduinoLCD\test\Pain Drain\libraries\lvgl\src\draw/lv_img_decoder.c ****             lv_color32_t * palette_p = (lv_color32_t *)((lv_img_dsc_t *)dsc->src)->data;
 420:..\..\..\arduinoLCD\test\Pain Drain\libraries\lvgl\src\draw/lv_img_decoder.c **** 
 421:..\..\..\arduinoLCD\test\Pain Drain\libraries\lvgl\src\draw/lv_img_decoder.c ****             uint32_t i;
 422:..\..\..\arduinoLCD\test\Pain Drain\libraries\lvgl\src\draw/lv_img_decoder.c ****             for(i = 0; i < palette_size; i++) {
 423:..\..\..\arduinoLCD\test\Pain Drain\libraries\lvgl\src\draw/lv_img_decoder.c ****                 user_data->palette[i] = lv_color_make(palette_p[i].ch.red, palette_p[i].ch.green, p
 424:..\..\..\arduinoLCD\test\Pain Drain\libraries\lvgl\src\draw/lv_img_decoder.c ****                 user_data->opa[i]     = palette_p[i].ch.alpha;
 425:..\..\..\arduinoLCD\test\Pain Drain\libraries\lvgl\src\draw/lv_img_decoder.c ****             }
 426:..\..\..\arduinoLCD\test\Pain Drain\libraries\lvgl\src\draw/lv_img_decoder.c ****         }
 427:..\..\..\arduinoLCD\test\Pain Drain\libraries\lvgl\src\draw/lv_img_decoder.c **** 
 428:..\..\..\arduinoLCD\test\Pain Drain\libraries\lvgl\src\draw/lv_img_decoder.c ****         return LV_RES_OK;
 429:..\..\..\arduinoLCD\test\Pain Drain\libraries\lvgl\src\draw/lv_img_decoder.c ****     }
 430:..\..\..\arduinoLCD\test\Pain Drain\libraries\lvgl\src\draw/lv_img_decoder.c ****     /*Alpha indexed images.*/
 431:..\..\..\arduinoLCD\test\Pain Drain\libraries\lvgl\src\draw/lv_img_decoder.c ****     else if(cf == LV_IMG_CF_ALPHA_1BIT || cf == LV_IMG_CF_ALPHA_2BIT || cf == LV_IMG_CF_ALPHA_4BIT)
 432:..\..\..\arduinoLCD\test\Pain Drain\libraries\lvgl\src\draw/lv_img_decoder.c ****         return LV_RES_OK; /*Nothing to process*/
 433:..\..\..\arduinoLCD\test\Pain Drain\libraries\lvgl\src\draw/lv_img_decoder.c ****     }
 434:..\..\..\arduinoLCD\test\Pain Drain\libraries\lvgl\src\draw/lv_img_decoder.c ****     /*Unknown format. Can't decode it.*/
 435:..\..\..\arduinoLCD\test\Pain Drain\libraries\lvgl\src\draw/lv_img_decoder.c ****     else {
 436:..\..\..\arduinoLCD\test\Pain Drain\libraries\lvgl\src\draw/lv_img_decoder.c ****         /*Free the potentially allocated memories*/
 437:..\..\..\arduinoLCD\test\Pain Drain\libraries\lvgl\src\draw/lv_img_decoder.c ****         lv_img_decoder_built_in_close(decoder, dsc);
 438:..\..\..\arduinoLCD\test\Pain Drain\libraries\lvgl\src\draw/lv_img_decoder.c **** 
 439:..\..\..\arduinoLCD\test\Pain Drain\libraries\lvgl\src\draw/lv_img_decoder.c ****         LV_LOG_WARN("Image decoder open: unknown color format");
 440:..\..\..\arduinoLCD\test\Pain Drain\libraries\lvgl\src\draw/lv_img_decoder.c ****         return LV_RES_INV;
 441:..\..\..\arduinoLCD\test\Pain Drain\libraries\lvgl\src\draw/lv_img_decoder.c ****     }
 442:..\..\..\arduinoLCD\test\Pain Drain\libraries\lvgl\src\draw/lv_img_decoder.c **** }
 443:..\..\..\arduinoLCD\test\Pain Drain\libraries\lvgl\src\draw/lv_img_decoder.c **** 
 444:..\..\..\arduinoLCD\test\Pain Drain\libraries\lvgl\src\draw/lv_img_decoder.c **** /**
 445:..\..\..\arduinoLCD\test\Pain Drain\libraries\lvgl\src\draw/lv_img_decoder.c ****  * Decode `len` pixels starting from the given `x`, `y` coordinates and store them in `buf`.
 446:..\..\..\arduinoLCD\test\Pain Drain\libraries\lvgl\src\draw/lv_img_decoder.c ****  * Required only if the "open" function can't return with the whole decoded pixel array.
 447:..\..\..\arduinoLCD\test\Pain Drain\libraries\lvgl\src\draw/lv_img_decoder.c ****  * @param decoder pointer to the decoder the function associated with
 448:..\..\..\arduinoLCD\test\Pain Drain\libraries\lvgl\src\draw/lv_img_decoder.c ****  * @param dsc pointer to decoder descriptor
 449:..\..\..\arduinoLCD\test\Pain Drain\libraries\lvgl\src\draw/lv_img_decoder.c ****  * @param x start x coordinate
 450:..\..\..\arduinoLCD\test\Pain Drain\libraries\lvgl\src\draw/lv_img_decoder.c ****  * @param y start y coordinate
 451:..\..\..\arduinoLCD\test\Pain Drain\libraries\lvgl\src\draw/lv_img_decoder.c ****  * @param len number of pixels to decode
 452:..\..\..\arduinoLCD\test\Pain Drain\libraries\lvgl\src\draw/lv_img_decoder.c ****  * @param buf a buffer to store the decoded pixels
 453:..\..\..\arduinoLCD\test\Pain Drain\libraries\lvgl\src\draw/lv_img_decoder.c ****  * @return LV_RES_OK: ok; LV_RES_INV: failed
 454:..\..\..\arduinoLCD\test\Pain Drain\libraries\lvgl\src\draw/lv_img_decoder.c ****  */
 455:..\..\..\arduinoLCD\test\Pain Drain\libraries\lvgl\src\draw/lv_img_decoder.c **** lv_res_t lv_img_decoder_built_in_read_line(lv_img_decoder_t * decoder, lv_img_decoder_dsc_t * dsc, 
 456:..\..\..\arduinoLCD\test\Pain Drain\libraries\lvgl\src\draw/lv_img_decoder.c ****                                            lv_coord_t y, lv_coord_t len, uint8_t * buf)
 457:..\..\..\arduinoLCD\test\Pain Drain\libraries\lvgl\src\draw/lv_img_decoder.c **** {
 458:..\..\..\arduinoLCD\test\Pain Drain\libraries\lvgl\src\draw/lv_img_decoder.c ****     LV_UNUSED(decoder); /*Unused*/
 459:..\..\..\arduinoLCD\test\Pain Drain\libraries\lvgl\src\draw/lv_img_decoder.c **** 
 460:..\..\..\arduinoLCD\test\Pain Drain\libraries\lvgl\src\draw/lv_img_decoder.c ****     lv_res_t res = LV_RES_INV;
 461:..\..\..\arduinoLCD\test\Pain Drain\libraries\lvgl\src\draw/lv_img_decoder.c **** 
 462:..\..\..\arduinoLCD\test\Pain Drain\libraries\lvgl\src\draw/lv_img_decoder.c ****     if(dsc->header.cf == LV_IMG_CF_TRUE_COLOR || dsc->header.cf == LV_IMG_CF_TRUE_COLOR_ALPHA ||
 463:..\..\..\arduinoLCD\test\Pain Drain\libraries\lvgl\src\draw/lv_img_decoder.c ****        dsc->header.cf == LV_IMG_CF_TRUE_COLOR_CHROMA_KEYED) {
 464:..\..\..\arduinoLCD\test\Pain Drain\libraries\lvgl\src\draw/lv_img_decoder.c ****         /*For TRUE_COLOR images read line required only for files.
 465:..\..\..\arduinoLCD\test\Pain Drain\libraries\lvgl\src\draw/lv_img_decoder.c ****          *For variables the image data was returned in `open`*/
 466:..\..\..\arduinoLCD\test\Pain Drain\libraries\lvgl\src\draw/lv_img_decoder.c ****         if(dsc->src_type == LV_IMG_SRC_FILE) {
 467:..\..\..\arduinoLCD\test\Pain Drain\libraries\lvgl\src\draw/lv_img_decoder.c ****             res = lv_img_decoder_built_in_line_true_color(dsc, x, y, len, buf);
ARM GAS  C:\Users\haske\AppData\Local\Temp\ccHSLozV.s 			page 13


 468:..\..\..\arduinoLCD\test\Pain Drain\libraries\lvgl\src\draw/lv_img_decoder.c ****         }
 469:..\..\..\arduinoLCD\test\Pain Drain\libraries\lvgl\src\draw/lv_img_decoder.c ****     }
 470:..\..\..\arduinoLCD\test\Pain Drain\libraries\lvgl\src\draw/lv_img_decoder.c ****     else if(dsc->header.cf == LV_IMG_CF_ALPHA_1BIT || dsc->header.cf == LV_IMG_CF_ALPHA_2BIT ||
 471:..\..\..\arduinoLCD\test\Pain Drain\libraries\lvgl\src\draw/lv_img_decoder.c ****             dsc->header.cf == LV_IMG_CF_ALPHA_4BIT || dsc->header.cf == LV_IMG_CF_ALPHA_8BIT) {
 472:..\..\..\arduinoLCD\test\Pain Drain\libraries\lvgl\src\draw/lv_img_decoder.c ****         res = lv_img_decoder_built_in_line_alpha(dsc, x, y, len, buf);
 473:..\..\..\arduinoLCD\test\Pain Drain\libraries\lvgl\src\draw/lv_img_decoder.c ****     }
 474:..\..\..\arduinoLCD\test\Pain Drain\libraries\lvgl\src\draw/lv_img_decoder.c ****     else if(dsc->header.cf == LV_IMG_CF_INDEXED_1BIT || dsc->header.cf == LV_IMG_CF_INDEXED_2BIT ||
 475:..\..\..\arduinoLCD\test\Pain Drain\libraries\lvgl\src\draw/lv_img_decoder.c ****             dsc->header.cf == LV_IMG_CF_INDEXED_4BIT || dsc->header.cf == LV_IMG_CF_INDEXED_8BIT) {
 476:..\..\..\arduinoLCD\test\Pain Drain\libraries\lvgl\src\draw/lv_img_decoder.c ****         res = lv_img_decoder_built_in_line_indexed(dsc, x, y, len, buf);
 477:..\..\..\arduinoLCD\test\Pain Drain\libraries\lvgl\src\draw/lv_img_decoder.c ****     }
 478:..\..\..\arduinoLCD\test\Pain Drain\libraries\lvgl\src\draw/lv_img_decoder.c ****     else {
 479:..\..\..\arduinoLCD\test\Pain Drain\libraries\lvgl\src\draw/lv_img_decoder.c ****         LV_LOG_WARN("Built-in image decoder read not supports the color format");
 480:..\..\..\arduinoLCD\test\Pain Drain\libraries\lvgl\src\draw/lv_img_decoder.c ****         return LV_RES_INV;
 481:..\..\..\arduinoLCD\test\Pain Drain\libraries\lvgl\src\draw/lv_img_decoder.c ****     }
 482:..\..\..\arduinoLCD\test\Pain Drain\libraries\lvgl\src\draw/lv_img_decoder.c **** 
 483:..\..\..\arduinoLCD\test\Pain Drain\libraries\lvgl\src\draw/lv_img_decoder.c ****     return res;
 484:..\..\..\arduinoLCD\test\Pain Drain\libraries\lvgl\src\draw/lv_img_decoder.c **** }
 485:..\..\..\arduinoLCD\test\Pain Drain\libraries\lvgl\src\draw/lv_img_decoder.c **** 
 486:..\..\..\arduinoLCD\test\Pain Drain\libraries\lvgl\src\draw/lv_img_decoder.c **** /**
 487:..\..\..\arduinoLCD\test\Pain Drain\libraries\lvgl\src\draw/lv_img_decoder.c ****  * Close the pending decoding. Free resources etc.
 488:..\..\..\arduinoLCD\test\Pain Drain\libraries\lvgl\src\draw/lv_img_decoder.c ****  * @param decoder pointer to the decoder the function associated with
 489:..\..\..\arduinoLCD\test\Pain Drain\libraries\lvgl\src\draw/lv_img_decoder.c ****  * @param dsc pointer to decoder descriptor
 490:..\..\..\arduinoLCD\test\Pain Drain\libraries\lvgl\src\draw/lv_img_decoder.c ****  */
 491:..\..\..\arduinoLCD\test\Pain Drain\libraries\lvgl\src\draw/lv_img_decoder.c **** void lv_img_decoder_built_in_close(lv_img_decoder_t * decoder, lv_img_decoder_dsc_t * dsc)
 492:..\..\..\arduinoLCD\test\Pain Drain\libraries\lvgl\src\draw/lv_img_decoder.c **** {
 202              		.loc 1 492 0
 203              		.cfi_startproc
 204              		@ args = 0, pretend = 0, frame = 0
 205              		@ frame_needed = 0, uses_anonymous_args = 0
 206              	.LVL23:
 207 0000 38B5     		push	{r3, r4, r5, lr}
 208              		.cfi_def_cfa_offset 16
 209              		.cfi_offset 3, -16
 210              		.cfi_offset 4, -12
 211              		.cfi_offset 5, -8
 212              		.cfi_offset 14, -4
 493:..\..\..\arduinoLCD\test\Pain Drain\libraries\lvgl\src\draw/lv_img_decoder.c ****     LV_UNUSED(decoder); /*Unused*/
 494:..\..\..\arduinoLCD\test\Pain Drain\libraries\lvgl\src\draw/lv_img_decoder.c **** 
 495:..\..\..\arduinoLCD\test\Pain Drain\libraries\lvgl\src\draw/lv_img_decoder.c ****     lv_img_decoder_built_in_data_t * user_data = dsc->user_data;
 213              		.loc 1 495 0
 214 0002 4D6A     		ldr	r5, [r1, #36]
 215              	.LVL24:
 496:..\..\..\arduinoLCD\test\Pain Drain\libraries\lvgl\src\draw/lv_img_decoder.c ****     if(user_data) {
 216              		.loc 1 496 0
 217 0004 9DB1     		cbz	r5, .L14
 218 0006 0C46     		mov	r4, r1
 497:..\..\..\arduinoLCD\test\Pain Drain\libraries\lvgl\src\draw/lv_img_decoder.c ****         if(dsc->src_type == LV_IMG_SRC_FILE) {
 219              		.loc 1 497 0
 220 0008 0B7C     		ldrb	r3, [r1, #16]	@ zero_extendqisi2
 221 000a 012B     		cmp	r3, #1
 222 000c 02D1     		bne	.L16
 498:..\..\..\arduinoLCD\test\Pain Drain\libraries\lvgl\src\draw/lv_img_decoder.c ****             lv_fs_close(&user_data->f);
 223              		.loc 1 498 0
 224 000e 2846     		mov	r0, r5
 225              	.LVL25:
 226 0010 FFF7FEFF 		bl	lv_fs_close
 227              	.LVL26:
ARM GAS  C:\Users\haske\AppData\Local\Temp\ccHSLozV.s 			page 14


 228              	.L16:
 499:..\..\..\arduinoLCD\test\Pain Drain\libraries\lvgl\src\draw/lv_img_decoder.c ****         }
 500:..\..\..\arduinoLCD\test\Pain Drain\libraries\lvgl\src\draw/lv_img_decoder.c ****         if(user_data->palette) lv_mem_free(user_data->palette);
 229              		.loc 1 500 0
 230 0014 E868     		ldr	r0, [r5, #12]
 231 0016 08B1     		cbz	r0, .L17
 232              		.loc 1 500 0 is_stmt 0 discriminator 1
 233 0018 FFF7FEFF 		bl	lv_mem_free
 234              	.LVL27:
 235              	.L17:
 501:..\..\..\arduinoLCD\test\Pain Drain\libraries\lvgl\src\draw/lv_img_decoder.c ****         if(user_data->opa) lv_mem_free(user_data->opa);
 236              		.loc 1 501 0 is_stmt 1
 237 001c 2869     		ldr	r0, [r5, #16]
 238 001e 08B1     		cbz	r0, .L18
 239              		.loc 1 501 0 is_stmt 0 discriminator 1
 240 0020 FFF7FEFF 		bl	lv_mem_free
 241              	.LVL28:
 242              	.L18:
 502:..\..\..\arduinoLCD\test\Pain Drain\libraries\lvgl\src\draw/lv_img_decoder.c **** 
 503:..\..\..\arduinoLCD\test\Pain Drain\libraries\lvgl\src\draw/lv_img_decoder.c ****         lv_mem_free(user_data);
 243              		.loc 1 503 0 is_stmt 1
 244 0024 2846     		mov	r0, r5
 245 0026 FFF7FEFF 		bl	lv_mem_free
 246              	.LVL29:
 504:..\..\..\arduinoLCD\test\Pain Drain\libraries\lvgl\src\draw/lv_img_decoder.c ****         dsc->user_data = NULL;
 247              		.loc 1 504 0
 248 002a 0023     		movs	r3, #0
 249 002c 6362     		str	r3, [r4, #36]
 250              	.LVL30:
 251              	.L14:
 252 002e 38BD     		pop	{r3, r4, r5, pc}
 253              		.cfi_endproc
 254              	.LFE70:
 255              		.size	lv_img_decoder_built_in_close, .-lv_img_decoder_built_in_close
 256              		.section	.text.lv_img_decoder_built_in_open,"ax",%progbits
 257              		.align	2
 258              		.global	lv_img_decoder_built_in_open
 259              		.thumb
 260              		.thumb_func
 261              		.type	lv_img_decoder_built_in_open, %function
 262              	lv_img_decoder_built_in_open:
 263              	.LFB68:
 327:..\..\..\arduinoLCD\test\Pain Drain\libraries\lvgl\src\draw/lv_img_decoder.c ****     /*Open the file if it's a file*/
 264              		.loc 1 327 0
 265              		.cfi_startproc
 266              		@ args = 0, pretend = 0, frame = 16
 267              		@ frame_needed = 0, uses_anonymous_args = 0
 268              	.LVL31:
 269 0000 2DE9F047 		push	{r4, r5, r6, r7, r8, r9, r10, lr}
 270              		.cfi_def_cfa_offset 32
 271              		.cfi_offset 4, -32
 272              		.cfi_offset 5, -28
 273              		.cfi_offset 6, -24
 274              		.cfi_offset 7, -20
 275              		.cfi_offset 8, -16
 276              		.cfi_offset 9, -12
 277              		.cfi_offset 10, -8
ARM GAS  C:\Users\haske\AppData\Local\Temp\ccHSLozV.s 			page 15


 278              		.cfi_offset 14, -4
 279 0004 84B0     		sub	sp, sp, #16
 280              		.cfi_def_cfa_offset 48
 281 0006 0646     		mov	r6, r0
 282 0008 0C46     		mov	r4, r1
 329:..\..\..\arduinoLCD\test\Pain Drain\libraries\lvgl\src\draw/lv_img_decoder.c ****         /*Support only "*.bin" files*/
 283              		.loc 1 329 0
 284 000a 0D7C     		ldrb	r5, [r1, #16]	@ zero_extendqisi2
 285 000c 012D     		cmp	r5, #1
 286 000e 2AD1     		bne	.L21
 287              	.LBB17:
 331:..\..\..\arduinoLCD\test\Pain Drain\libraries\lvgl\src\draw/lv_img_decoder.c **** 
 288              		.loc 1 331 0
 289 0010 4868     		ldr	r0, [r1, #4]
 290              	.LVL32:
 291 0012 FFF7FEFF 		bl	lv_fs_get_ext
 292              	.LVL33:
 293 0016 6B49     		ldr	r1, .L52
 294 0018 FFF7FEFF 		bl	strcmp
 295              	.LVL34:
 296 001c 08BB     		cbnz	r0, .L22
 334:..\..\..\arduinoLCD\test\Pain Drain\libraries\lvgl\src\draw/lv_img_decoder.c ****         if(res != LV_FS_RES_OK) {
 297              		.loc 1 334 0
 298 001e 0222     		movs	r2, #2
 299 0020 6168     		ldr	r1, [r4, #4]
 300 0022 01A8     		add	r0, sp, #4
 301 0024 FFF7FEFF 		bl	lv_fs_open
 302              	.LVL35:
 335:..\..\..\arduinoLCD\test\Pain Drain\libraries\lvgl\src\draw/lv_img_decoder.c ****             LV_LOG_WARN("Built-in image decoder can't open the file");
 303              		.loc 1 335 0
 304 0028 D8B9     		cbnz	r0, .L22
 341:..\..\..\arduinoLCD\test\Pain Drain\libraries\lvgl\src\draw/lv_img_decoder.c ****             dsc->user_data = lv_mem_alloc(sizeof(lv_img_decoder_built_in_data_t));
 305              		.loc 1 341 0
 306 002a 636A     		ldr	r3, [r4, #36]
 307 002c 6BB9     		cbnz	r3, .L23
 342:..\..\..\arduinoLCD\test\Pain Drain\libraries\lvgl\src\draw/lv_img_decoder.c ****             LV_ASSERT_MALLOC(dsc->user_data);
 308              		.loc 1 342 0
 309 002e 1420     		movs	r0, #20
 310              	.LVL36:
 311 0030 FFF7FEFF 		bl	lv_mem_alloc
 312              	.LVL37:
 313 0034 6062     		str	r0, [r4, #36]
 343:..\..\..\arduinoLCD\test\Pain Drain\libraries\lvgl\src\draw/lv_img_decoder.c ****             if(dsc->user_data == NULL) {
 314              		.loc 1 343 0
 315 0036 00B9     		cbnz	r0, .L24
 316              	.L25:
 317 0038 FEE7     		b	.L25
 318              	.L24:
 344:..\..\..\arduinoLCD\test\Pain Drain\libraries\lvgl\src\draw/lv_img_decoder.c ****                 LV_LOG_ERROR("img_decoder_built_in_open: out of memory");
 319              		.loc 1 344 0
 320 003a 18B9     		cbnz	r0, .L26
 346:..\..\..\arduinoLCD\test\Pain Drain\libraries\lvgl\src\draw/lv_img_decoder.c ****                 return LV_RES_INV;
 321              		.loc 1 346 0
 322 003c 01A8     		add	r0, sp, #4
 323 003e FFF7FEFF 		bl	lv_fs_close
 324              	.LVL38:
 347:..\..\..\arduinoLCD\test\Pain Drain\libraries\lvgl\src\draw/lv_img_decoder.c ****             }
ARM GAS  C:\Users\haske\AppData\Local\Temp\ccHSLozV.s 			page 16


 325              		.loc 1 347 0
 326 0042 0EE0     		b	.L22
 327              	.L26:
 349:..\..\..\arduinoLCD\test\Pain Drain\libraries\lvgl\src\draw/lv_img_decoder.c ****         }
 328              		.loc 1 349 0
 329 0044 1421     		movs	r1, #20
 330 0046 FFF7FEFF 		bl	lv_memset_00
 331              	.LVL39:
 332              	.L23:
 352:..\..\..\arduinoLCD\test\Pain Drain\libraries\lvgl\src\draw/lv_img_decoder.c ****         lv_memcpy_small(&user_data->f, &f, sizeof(f));
 333              		.loc 1 352 0
 334 004a 616A     		ldr	r1, [r4, #36]
 335              	.LVL40:
 336              	.LBB18:
 337              	.LBB19:
 338              		.file 2 "..\\..\\..\\arduinoLCD\\test\\Pain Drain\\libraries\\lvgl\\src\\draw\\../misc/lv_mem.h"
   1:..\..\..\arduinoLCD\test\Pain Drain\libraries\lvgl\src\draw\../misc/lv_mem.h **** /**
   2:..\..\..\arduinoLCD\test\Pain Drain\libraries\lvgl\src\draw\../misc/lv_mem.h ****  * @file lv_mem.h
   3:..\..\..\arduinoLCD\test\Pain Drain\libraries\lvgl\src\draw\../misc/lv_mem.h ****  *
   4:..\..\..\arduinoLCD\test\Pain Drain\libraries\lvgl\src\draw\../misc/lv_mem.h ****  */
   5:..\..\..\arduinoLCD\test\Pain Drain\libraries\lvgl\src\draw\../misc/lv_mem.h **** 
   6:..\..\..\arduinoLCD\test\Pain Drain\libraries\lvgl\src\draw\../misc/lv_mem.h **** #ifndef LV_MEM_H
   7:..\..\..\arduinoLCD\test\Pain Drain\libraries\lvgl\src\draw\../misc/lv_mem.h **** #define LV_MEM_H
   8:..\..\..\arduinoLCD\test\Pain Drain\libraries\lvgl\src\draw\../misc/lv_mem.h **** 
   9:..\..\..\arduinoLCD\test\Pain Drain\libraries\lvgl\src\draw\../misc/lv_mem.h **** #ifdef __cplusplus
  10:..\..\..\arduinoLCD\test\Pain Drain\libraries\lvgl\src\draw\../misc/lv_mem.h **** extern "C" {
  11:..\..\..\arduinoLCD\test\Pain Drain\libraries\lvgl\src\draw\../misc/lv_mem.h **** #endif
  12:..\..\..\arduinoLCD\test\Pain Drain\libraries\lvgl\src\draw\../misc/lv_mem.h **** 
  13:..\..\..\arduinoLCD\test\Pain Drain\libraries\lvgl\src\draw\../misc/lv_mem.h **** /*********************
  14:..\..\..\arduinoLCD\test\Pain Drain\libraries\lvgl\src\draw\../misc/lv_mem.h ****  *      INCLUDES
  15:..\..\..\arduinoLCD\test\Pain Drain\libraries\lvgl\src\draw\../misc/lv_mem.h ****  *********************/
  16:..\..\..\arduinoLCD\test\Pain Drain\libraries\lvgl\src\draw\../misc/lv_mem.h **** #include "../lv_conf_internal.h"
  17:..\..\..\arduinoLCD\test\Pain Drain\libraries\lvgl\src\draw\../misc/lv_mem.h **** 
  18:..\..\..\arduinoLCD\test\Pain Drain\libraries\lvgl\src\draw\../misc/lv_mem.h **** #include <stdint.h>
  19:..\..\..\arduinoLCD\test\Pain Drain\libraries\lvgl\src\draw\../misc/lv_mem.h **** #include <stddef.h>
  20:..\..\..\arduinoLCD\test\Pain Drain\libraries\lvgl\src\draw\../misc/lv_mem.h **** #include <string.h>
  21:..\..\..\arduinoLCD\test\Pain Drain\libraries\lvgl\src\draw\../misc/lv_mem.h **** 
  22:..\..\..\arduinoLCD\test\Pain Drain\libraries\lvgl\src\draw\../misc/lv_mem.h **** #include "lv_types.h"
  23:..\..\..\arduinoLCD\test\Pain Drain\libraries\lvgl\src\draw\../misc/lv_mem.h **** 
  24:..\..\..\arduinoLCD\test\Pain Drain\libraries\lvgl\src\draw\../misc/lv_mem.h **** /*********************
  25:..\..\..\arduinoLCD\test\Pain Drain\libraries\lvgl\src\draw\../misc/lv_mem.h ****  *      DEFINES
  26:..\..\..\arduinoLCD\test\Pain Drain\libraries\lvgl\src\draw\../misc/lv_mem.h ****  *********************/
  27:..\..\..\arduinoLCD\test\Pain Drain\libraries\lvgl\src\draw\../misc/lv_mem.h **** 
  28:..\..\..\arduinoLCD\test\Pain Drain\libraries\lvgl\src\draw\../misc/lv_mem.h **** /**********************
  29:..\..\..\arduinoLCD\test\Pain Drain\libraries\lvgl\src\draw\../misc/lv_mem.h ****  *      TYPEDEFS
  30:..\..\..\arduinoLCD\test\Pain Drain\libraries\lvgl\src\draw\../misc/lv_mem.h ****  **********************/
  31:..\..\..\arduinoLCD\test\Pain Drain\libraries\lvgl\src\draw\../misc/lv_mem.h **** 
  32:..\..\..\arduinoLCD\test\Pain Drain\libraries\lvgl\src\draw\../misc/lv_mem.h **** /**
  33:..\..\..\arduinoLCD\test\Pain Drain\libraries\lvgl\src\draw\../misc/lv_mem.h ****  * Heap information structure.
  34:..\..\..\arduinoLCD\test\Pain Drain\libraries\lvgl\src\draw\../misc/lv_mem.h ****  */
  35:..\..\..\arduinoLCD\test\Pain Drain\libraries\lvgl\src\draw\../misc/lv_mem.h **** typedef struct {
  36:..\..\..\arduinoLCD\test\Pain Drain\libraries\lvgl\src\draw\../misc/lv_mem.h ****     uint32_t total_size; /**< Total heap size*/
  37:..\..\..\arduinoLCD\test\Pain Drain\libraries\lvgl\src\draw\../misc/lv_mem.h ****     uint32_t free_cnt;
  38:..\..\..\arduinoLCD\test\Pain Drain\libraries\lvgl\src\draw\../misc/lv_mem.h ****     uint32_t free_size; /**< Size of available memory*/
  39:..\..\..\arduinoLCD\test\Pain Drain\libraries\lvgl\src\draw\../misc/lv_mem.h ****     uint32_t free_biggest_size;
  40:..\..\..\arduinoLCD\test\Pain Drain\libraries\lvgl\src\draw\../misc/lv_mem.h ****     uint32_t used_cnt;
  41:..\..\..\arduinoLCD\test\Pain Drain\libraries\lvgl\src\draw\../misc/lv_mem.h ****     uint32_t max_used; /**< Max size of Heap memory used*/
ARM GAS  C:\Users\haske\AppData\Local\Temp\ccHSLozV.s 			page 17


  42:..\..\..\arduinoLCD\test\Pain Drain\libraries\lvgl\src\draw\../misc/lv_mem.h ****     uint8_t used_pct; /**< Percentage used*/
  43:..\..\..\arduinoLCD\test\Pain Drain\libraries\lvgl\src\draw\../misc/lv_mem.h ****     uint8_t frag_pct; /**< Amount of fragmentation*/
  44:..\..\..\arduinoLCD\test\Pain Drain\libraries\lvgl\src\draw\../misc/lv_mem.h **** } lv_mem_monitor_t;
  45:..\..\..\arduinoLCD\test\Pain Drain\libraries\lvgl\src\draw\../misc/lv_mem.h **** 
  46:..\..\..\arduinoLCD\test\Pain Drain\libraries\lvgl\src\draw\../misc/lv_mem.h **** typedef struct {
  47:..\..\..\arduinoLCD\test\Pain Drain\libraries\lvgl\src\draw\../misc/lv_mem.h ****     void * p;
  48:..\..\..\arduinoLCD\test\Pain Drain\libraries\lvgl\src\draw\../misc/lv_mem.h ****     uint16_t size;
  49:..\..\..\arduinoLCD\test\Pain Drain\libraries\lvgl\src\draw\../misc/lv_mem.h ****     uint8_t used : 1;
  50:..\..\..\arduinoLCD\test\Pain Drain\libraries\lvgl\src\draw\../misc/lv_mem.h **** } lv_mem_buf_t;
  51:..\..\..\arduinoLCD\test\Pain Drain\libraries\lvgl\src\draw\../misc/lv_mem.h **** 
  52:..\..\..\arduinoLCD\test\Pain Drain\libraries\lvgl\src\draw\../misc/lv_mem.h **** typedef lv_mem_buf_t lv_mem_buf_arr_t[LV_MEM_BUF_MAX_NUM];
  53:..\..\..\arduinoLCD\test\Pain Drain\libraries\lvgl\src\draw\../misc/lv_mem.h **** 
  54:..\..\..\arduinoLCD\test\Pain Drain\libraries\lvgl\src\draw\../misc/lv_mem.h **** /**********************
  55:..\..\..\arduinoLCD\test\Pain Drain\libraries\lvgl\src\draw\../misc/lv_mem.h ****  * GLOBAL PROTOTYPES
  56:..\..\..\arduinoLCD\test\Pain Drain\libraries\lvgl\src\draw\../misc/lv_mem.h ****  **********************/
  57:..\..\..\arduinoLCD\test\Pain Drain\libraries\lvgl\src\draw\../misc/lv_mem.h **** 
  58:..\..\..\arduinoLCD\test\Pain Drain\libraries\lvgl\src\draw\../misc/lv_mem.h **** /**
  59:..\..\..\arduinoLCD\test\Pain Drain\libraries\lvgl\src\draw\../misc/lv_mem.h ****  * Initialize the dyn_mem module (work memory and other variables)
  60:..\..\..\arduinoLCD\test\Pain Drain\libraries\lvgl\src\draw\../misc/lv_mem.h ****  */
  61:..\..\..\arduinoLCD\test\Pain Drain\libraries\lvgl\src\draw\../misc/lv_mem.h **** void lv_mem_init(void);
  62:..\..\..\arduinoLCD\test\Pain Drain\libraries\lvgl\src\draw\../misc/lv_mem.h **** 
  63:..\..\..\arduinoLCD\test\Pain Drain\libraries\lvgl\src\draw\../misc/lv_mem.h **** /**
  64:..\..\..\arduinoLCD\test\Pain Drain\libraries\lvgl\src\draw\../misc/lv_mem.h ****  * Clean up the memory buffer which frees all the allocated memories.
  65:..\..\..\arduinoLCD\test\Pain Drain\libraries\lvgl\src\draw\../misc/lv_mem.h ****  * @note It work only if `LV_MEM_CUSTOM == 0`
  66:..\..\..\arduinoLCD\test\Pain Drain\libraries\lvgl\src\draw\../misc/lv_mem.h ****  */
  67:..\..\..\arduinoLCD\test\Pain Drain\libraries\lvgl\src\draw\../misc/lv_mem.h **** void lv_mem_deinit(void);
  68:..\..\..\arduinoLCD\test\Pain Drain\libraries\lvgl\src\draw\../misc/lv_mem.h **** 
  69:..\..\..\arduinoLCD\test\Pain Drain\libraries\lvgl\src\draw\../misc/lv_mem.h **** /**
  70:..\..\..\arduinoLCD\test\Pain Drain\libraries\lvgl\src\draw\../misc/lv_mem.h ****  * Allocate a memory dynamically
  71:..\..\..\arduinoLCD\test\Pain Drain\libraries\lvgl\src\draw\../misc/lv_mem.h ****  * @param size size of the memory to allocate in bytes
  72:..\..\..\arduinoLCD\test\Pain Drain\libraries\lvgl\src\draw\../misc/lv_mem.h ****  * @return pointer to the allocated memory
  73:..\..\..\arduinoLCD\test\Pain Drain\libraries\lvgl\src\draw\../misc/lv_mem.h ****  */
  74:..\..\..\arduinoLCD\test\Pain Drain\libraries\lvgl\src\draw\../misc/lv_mem.h **** void * lv_mem_alloc(size_t size);
  75:..\..\..\arduinoLCD\test\Pain Drain\libraries\lvgl\src\draw\../misc/lv_mem.h **** 
  76:..\..\..\arduinoLCD\test\Pain Drain\libraries\lvgl\src\draw\../misc/lv_mem.h **** /**
  77:..\..\..\arduinoLCD\test\Pain Drain\libraries\lvgl\src\draw\../misc/lv_mem.h ****  * Free an allocated data
  78:..\..\..\arduinoLCD\test\Pain Drain\libraries\lvgl\src\draw\../misc/lv_mem.h ****  * @param data pointer to an allocated memory
  79:..\..\..\arduinoLCD\test\Pain Drain\libraries\lvgl\src\draw\../misc/lv_mem.h ****  */
  80:..\..\..\arduinoLCD\test\Pain Drain\libraries\lvgl\src\draw\../misc/lv_mem.h **** void lv_mem_free(void * data);
  81:..\..\..\arduinoLCD\test\Pain Drain\libraries\lvgl\src\draw\../misc/lv_mem.h **** 
  82:..\..\..\arduinoLCD\test\Pain Drain\libraries\lvgl\src\draw\../misc/lv_mem.h **** /**
  83:..\..\..\arduinoLCD\test\Pain Drain\libraries\lvgl\src\draw\../misc/lv_mem.h ****  * Reallocate a memory with a new size. The old content will be kept.
  84:..\..\..\arduinoLCD\test\Pain Drain\libraries\lvgl\src\draw\../misc/lv_mem.h ****  * @param data pointer to an allocated memory.
  85:..\..\..\arduinoLCD\test\Pain Drain\libraries\lvgl\src\draw\../misc/lv_mem.h ****  * Its content will be copied to the new memory block and freed
  86:..\..\..\arduinoLCD\test\Pain Drain\libraries\lvgl\src\draw\../misc/lv_mem.h ****  * @param new_size the desired new size in byte
  87:..\..\..\arduinoLCD\test\Pain Drain\libraries\lvgl\src\draw\../misc/lv_mem.h ****  * @return pointer to the new memory, NULL on failure
  88:..\..\..\arduinoLCD\test\Pain Drain\libraries\lvgl\src\draw\../misc/lv_mem.h ****  */
  89:..\..\..\arduinoLCD\test\Pain Drain\libraries\lvgl\src\draw\../misc/lv_mem.h **** void * lv_mem_realloc(void * data_p, size_t new_size);
  90:..\..\..\arduinoLCD\test\Pain Drain\libraries\lvgl\src\draw\../misc/lv_mem.h **** 
  91:..\..\..\arduinoLCD\test\Pain Drain\libraries\lvgl\src\draw\../misc/lv_mem.h **** /**
  92:..\..\..\arduinoLCD\test\Pain Drain\libraries\lvgl\src\draw\../misc/lv_mem.h ****  *
  93:..\..\..\arduinoLCD\test\Pain Drain\libraries\lvgl\src\draw\../misc/lv_mem.h ****  * @return
  94:..\..\..\arduinoLCD\test\Pain Drain\libraries\lvgl\src\draw\../misc/lv_mem.h ****  */
  95:..\..\..\arduinoLCD\test\Pain Drain\libraries\lvgl\src\draw\../misc/lv_mem.h **** lv_res_t lv_mem_test(void);
  96:..\..\..\arduinoLCD\test\Pain Drain\libraries\lvgl\src\draw\../misc/lv_mem.h **** 
  97:..\..\..\arduinoLCD\test\Pain Drain\libraries\lvgl\src\draw\../misc/lv_mem.h **** /**
  98:..\..\..\arduinoLCD\test\Pain Drain\libraries\lvgl\src\draw\../misc/lv_mem.h ****  * Give information about the work memory of dynamic allocation
ARM GAS  C:\Users\haske\AppData\Local\Temp\ccHSLozV.s 			page 18


  99:..\..\..\arduinoLCD\test\Pain Drain\libraries\lvgl\src\draw\../misc/lv_mem.h ****  * @param mon_p pointer to a lv_mem_monitor_t variable,
 100:..\..\..\arduinoLCD\test\Pain Drain\libraries\lvgl\src\draw\../misc/lv_mem.h ****  *              the result of the analysis will be stored here
 101:..\..\..\arduinoLCD\test\Pain Drain\libraries\lvgl\src\draw\../misc/lv_mem.h ****  */
 102:..\..\..\arduinoLCD\test\Pain Drain\libraries\lvgl\src\draw\../misc/lv_mem.h **** void lv_mem_monitor(lv_mem_monitor_t * mon_p);
 103:..\..\..\arduinoLCD\test\Pain Drain\libraries\lvgl\src\draw\../misc/lv_mem.h **** 
 104:..\..\..\arduinoLCD\test\Pain Drain\libraries\lvgl\src\draw\../misc/lv_mem.h **** 
 105:..\..\..\arduinoLCD\test\Pain Drain\libraries\lvgl\src\draw\../misc/lv_mem.h **** /**
 106:..\..\..\arduinoLCD\test\Pain Drain\libraries\lvgl\src\draw\../misc/lv_mem.h ****  * Get a temporal buffer with the given size.
 107:..\..\..\arduinoLCD\test\Pain Drain\libraries\lvgl\src\draw\../misc/lv_mem.h ****  * @param size the required size
 108:..\..\..\arduinoLCD\test\Pain Drain\libraries\lvgl\src\draw\../misc/lv_mem.h ****  */
 109:..\..\..\arduinoLCD\test\Pain Drain\libraries\lvgl\src\draw\../misc/lv_mem.h **** void * lv_mem_buf_get(uint32_t size);
 110:..\..\..\arduinoLCD\test\Pain Drain\libraries\lvgl\src\draw\../misc/lv_mem.h **** 
 111:..\..\..\arduinoLCD\test\Pain Drain\libraries\lvgl\src\draw\../misc/lv_mem.h **** /**
 112:..\..\..\arduinoLCD\test\Pain Drain\libraries\lvgl\src\draw\../misc/lv_mem.h ****  * Release a memory buffer
 113:..\..\..\arduinoLCD\test\Pain Drain\libraries\lvgl\src\draw\../misc/lv_mem.h ****  * @param p buffer to release
 114:..\..\..\arduinoLCD\test\Pain Drain\libraries\lvgl\src\draw\../misc/lv_mem.h ****  */
 115:..\..\..\arduinoLCD\test\Pain Drain\libraries\lvgl\src\draw\../misc/lv_mem.h **** void lv_mem_buf_release(void * p);
 116:..\..\..\arduinoLCD\test\Pain Drain\libraries\lvgl\src\draw\../misc/lv_mem.h **** 
 117:..\..\..\arduinoLCD\test\Pain Drain\libraries\lvgl\src\draw\../misc/lv_mem.h **** /**
 118:..\..\..\arduinoLCD\test\Pain Drain\libraries\lvgl\src\draw\../misc/lv_mem.h ****  * Free all memory buffers
 119:..\..\..\arduinoLCD\test\Pain Drain\libraries\lvgl\src\draw\../misc/lv_mem.h ****  */
 120:..\..\..\arduinoLCD\test\Pain Drain\libraries\lvgl\src\draw\../misc/lv_mem.h **** void lv_mem_buf_free_all(void);
 121:..\..\..\arduinoLCD\test\Pain Drain\libraries\lvgl\src\draw\../misc/lv_mem.h **** 
 122:..\..\..\arduinoLCD\test\Pain Drain\libraries\lvgl\src\draw\../misc/lv_mem.h **** //! @cond Doxygen_Suppress
 123:..\..\..\arduinoLCD\test\Pain Drain\libraries\lvgl\src\draw\../misc/lv_mem.h **** 
 124:..\..\..\arduinoLCD\test\Pain Drain\libraries\lvgl\src\draw\../misc/lv_mem.h **** #if LV_MEMCPY_MEMSET_STD
 125:..\..\..\arduinoLCD\test\Pain Drain\libraries\lvgl\src\draw\../misc/lv_mem.h **** 
 126:..\..\..\arduinoLCD\test\Pain Drain\libraries\lvgl\src\draw\../misc/lv_mem.h **** /**
 127:..\..\..\arduinoLCD\test\Pain Drain\libraries\lvgl\src\draw\../misc/lv_mem.h ****  * Wrapper for the standard memcpy
 128:..\..\..\arduinoLCD\test\Pain Drain\libraries\lvgl\src\draw\../misc/lv_mem.h ****  * @param dst pointer to the destination buffer
 129:..\..\..\arduinoLCD\test\Pain Drain\libraries\lvgl\src\draw\../misc/lv_mem.h ****  * @param src pointer to the source buffer
 130:..\..\..\arduinoLCD\test\Pain Drain\libraries\lvgl\src\draw\../misc/lv_mem.h ****  * @param len number of byte to copy
 131:..\..\..\arduinoLCD\test\Pain Drain\libraries\lvgl\src\draw\../misc/lv_mem.h ****  */
 132:..\..\..\arduinoLCD\test\Pain Drain\libraries\lvgl\src\draw\../misc/lv_mem.h **** static inline void * lv_memcpy(void * dst, const void * src, size_t len)
 133:..\..\..\arduinoLCD\test\Pain Drain\libraries\lvgl\src\draw\../misc/lv_mem.h **** {
 134:..\..\..\arduinoLCD\test\Pain Drain\libraries\lvgl\src\draw\../misc/lv_mem.h ****     return memcpy(dst, src, len);
 135:..\..\..\arduinoLCD\test\Pain Drain\libraries\lvgl\src\draw\../misc/lv_mem.h **** }
 136:..\..\..\arduinoLCD\test\Pain Drain\libraries\lvgl\src\draw\../misc/lv_mem.h **** 
 137:..\..\..\arduinoLCD\test\Pain Drain\libraries\lvgl\src\draw\../misc/lv_mem.h **** /**
 138:..\..\..\arduinoLCD\test\Pain Drain\libraries\lvgl\src\draw\../misc/lv_mem.h ****  * Wrapper for the standard memcpy
 139:..\..\..\arduinoLCD\test\Pain Drain\libraries\lvgl\src\draw\../misc/lv_mem.h ****  * @param dst pointer to the destination buffer
 140:..\..\..\arduinoLCD\test\Pain Drain\libraries\lvgl\src\draw\../misc/lv_mem.h ****  * @param src pointer to the source buffer
 141:..\..\..\arduinoLCD\test\Pain Drain\libraries\lvgl\src\draw\../misc/lv_mem.h ****  * @param len number of byte to copy
 142:..\..\..\arduinoLCD\test\Pain Drain\libraries\lvgl\src\draw\../misc/lv_mem.h ****  */
 143:..\..\..\arduinoLCD\test\Pain Drain\libraries\lvgl\src\draw\../misc/lv_mem.h **** static inline void * lv_memcpy_small(void * dst, const void * src, size_t len)
 144:..\..\..\arduinoLCD\test\Pain Drain\libraries\lvgl\src\draw\../misc/lv_mem.h **** {
 145:..\..\..\arduinoLCD\test\Pain Drain\libraries\lvgl\src\draw\../misc/lv_mem.h ****     return memcpy(dst, src, len);
 146:..\..\..\arduinoLCD\test\Pain Drain\libraries\lvgl\src\draw\../misc/lv_mem.h **** }
 147:..\..\..\arduinoLCD\test\Pain Drain\libraries\lvgl\src\draw\../misc/lv_mem.h **** 
 148:..\..\..\arduinoLCD\test\Pain Drain\libraries\lvgl\src\draw\../misc/lv_mem.h **** /**
 149:..\..\..\arduinoLCD\test\Pain Drain\libraries\lvgl\src\draw\../misc/lv_mem.h ****  * Wrapper for the standard memset
 150:..\..\..\arduinoLCD\test\Pain Drain\libraries\lvgl\src\draw\../misc/lv_mem.h ****  * @param dst pointer to the destination buffer
 151:..\..\..\arduinoLCD\test\Pain Drain\libraries\lvgl\src\draw\../misc/lv_mem.h ****  * @param v value to set [0..255]
 152:..\..\..\arduinoLCD\test\Pain Drain\libraries\lvgl\src\draw\../misc/lv_mem.h ****  * @param len number of byte to set
 153:..\..\..\arduinoLCD\test\Pain Drain\libraries\lvgl\src\draw\../misc/lv_mem.h ****  */
 154:..\..\..\arduinoLCD\test\Pain Drain\libraries\lvgl\src\draw\../misc/lv_mem.h **** static inline void lv_memset(void * dst, uint8_t v, size_t len)
 155:..\..\..\arduinoLCD\test\Pain Drain\libraries\lvgl\src\draw\../misc/lv_mem.h **** {
ARM GAS  C:\Users\haske\AppData\Local\Temp\ccHSLozV.s 			page 19


 156:..\..\..\arduinoLCD\test\Pain Drain\libraries\lvgl\src\draw\../misc/lv_mem.h ****     memset(dst, v, len);
 157:..\..\..\arduinoLCD\test\Pain Drain\libraries\lvgl\src\draw\../misc/lv_mem.h **** }
 158:..\..\..\arduinoLCD\test\Pain Drain\libraries\lvgl\src\draw\../misc/lv_mem.h **** 
 159:..\..\..\arduinoLCD\test\Pain Drain\libraries\lvgl\src\draw\../misc/lv_mem.h **** /**
 160:..\..\..\arduinoLCD\test\Pain Drain\libraries\lvgl\src\draw\../misc/lv_mem.h ****  * Wrapper for the standard memset with fixed 0x00 value
 161:..\..\..\arduinoLCD\test\Pain Drain\libraries\lvgl\src\draw\../misc/lv_mem.h ****  * @param dst pointer to the destination buffer
 162:..\..\..\arduinoLCD\test\Pain Drain\libraries\lvgl\src\draw\../misc/lv_mem.h ****  * @param len number of byte to set
 163:..\..\..\arduinoLCD\test\Pain Drain\libraries\lvgl\src\draw\../misc/lv_mem.h ****  */
 164:..\..\..\arduinoLCD\test\Pain Drain\libraries\lvgl\src\draw\../misc/lv_mem.h **** static inline void lv_memset_00(void * dst, size_t len)
 165:..\..\..\arduinoLCD\test\Pain Drain\libraries\lvgl\src\draw\../misc/lv_mem.h **** {
 166:..\..\..\arduinoLCD\test\Pain Drain\libraries\lvgl\src\draw\../misc/lv_mem.h ****     memset(dst, 0x00, len);
 167:..\..\..\arduinoLCD\test\Pain Drain\libraries\lvgl\src\draw\../misc/lv_mem.h **** }
 168:..\..\..\arduinoLCD\test\Pain Drain\libraries\lvgl\src\draw\../misc/lv_mem.h **** 
 169:..\..\..\arduinoLCD\test\Pain Drain\libraries\lvgl\src\draw\../misc/lv_mem.h **** /**
 170:..\..\..\arduinoLCD\test\Pain Drain\libraries\lvgl\src\draw\../misc/lv_mem.h ****  * Wrapper for the standard memset with fixed 0xFF value
 171:..\..\..\arduinoLCD\test\Pain Drain\libraries\lvgl\src\draw\../misc/lv_mem.h ****  * @param dst pointer to the destination buffer
 172:..\..\..\arduinoLCD\test\Pain Drain\libraries\lvgl\src\draw\../misc/lv_mem.h ****  * @param len number of byte to set
 173:..\..\..\arduinoLCD\test\Pain Drain\libraries\lvgl\src\draw\../misc/lv_mem.h ****  */
 174:..\..\..\arduinoLCD\test\Pain Drain\libraries\lvgl\src\draw\../misc/lv_mem.h **** static inline void lv_memset_ff(void * dst, size_t len)
 175:..\..\..\arduinoLCD\test\Pain Drain\libraries\lvgl\src\draw\../misc/lv_mem.h **** {
 176:..\..\..\arduinoLCD\test\Pain Drain\libraries\lvgl\src\draw\../misc/lv_mem.h ****     memset(dst, 0xFF, len);
 177:..\..\..\arduinoLCD\test\Pain Drain\libraries\lvgl\src\draw\../misc/lv_mem.h **** }
 178:..\..\..\arduinoLCD\test\Pain Drain\libraries\lvgl\src\draw\../misc/lv_mem.h **** 
 179:..\..\..\arduinoLCD\test\Pain Drain\libraries\lvgl\src\draw\../misc/lv_mem.h **** #else
 180:..\..\..\arduinoLCD\test\Pain Drain\libraries\lvgl\src\draw\../misc/lv_mem.h **** /**
 181:..\..\..\arduinoLCD\test\Pain Drain\libraries\lvgl\src\draw\../misc/lv_mem.h ****  * Same as `memcpy` but optimized for 4 byte operation.
 182:..\..\..\arduinoLCD\test\Pain Drain\libraries\lvgl\src\draw\../misc/lv_mem.h ****  * @param dst pointer to the destination buffer
 183:..\..\..\arduinoLCD\test\Pain Drain\libraries\lvgl\src\draw\../misc/lv_mem.h ****  * @param src pointer to the source buffer
 184:..\..\..\arduinoLCD\test\Pain Drain\libraries\lvgl\src\draw\../misc/lv_mem.h ****  * @param len number of byte to copy
 185:..\..\..\arduinoLCD\test\Pain Drain\libraries\lvgl\src\draw\../misc/lv_mem.h ****  */
 186:..\..\..\arduinoLCD\test\Pain Drain\libraries\lvgl\src\draw\../misc/lv_mem.h **** LV_ATTRIBUTE_FAST_MEM void * lv_memcpy(void * dst, const void * src, size_t len);
 187:..\..\..\arduinoLCD\test\Pain Drain\libraries\lvgl\src\draw\../misc/lv_mem.h **** 
 188:..\..\..\arduinoLCD\test\Pain Drain\libraries\lvgl\src\draw\../misc/lv_mem.h **** /**
 189:..\..\..\arduinoLCD\test\Pain Drain\libraries\lvgl\src\draw\../misc/lv_mem.h ****  * Same as `memcpy` but optimized to copy only a few bytes.
 190:..\..\..\arduinoLCD\test\Pain Drain\libraries\lvgl\src\draw\../misc/lv_mem.h ****  * @param dst pointer to the destination buffer
 191:..\..\..\arduinoLCD\test\Pain Drain\libraries\lvgl\src\draw\../misc/lv_mem.h ****  * @param src pointer to the source buffer
 192:..\..\..\arduinoLCD\test\Pain Drain\libraries\lvgl\src\draw\../misc/lv_mem.h ****  * @param len number of byte to copy
 193:..\..\..\arduinoLCD\test\Pain Drain\libraries\lvgl\src\draw\../misc/lv_mem.h ****  */
 194:..\..\..\arduinoLCD\test\Pain Drain\libraries\lvgl\src\draw\../misc/lv_mem.h **** LV_ATTRIBUTE_FAST_MEM static inline void * lv_memcpy_small(void * dst, const void * src, size_t len
 195:..\..\..\arduinoLCD\test\Pain Drain\libraries\lvgl\src\draw\../misc/lv_mem.h **** {
 196:..\..\..\arduinoLCD\test\Pain Drain\libraries\lvgl\src\draw\../misc/lv_mem.h ****     uint8_t * d8 = (uint8_t *)dst;
 197:..\..\..\arduinoLCD\test\Pain Drain\libraries\lvgl\src\draw\../misc/lv_mem.h ****     const uint8_t * s8 = (const uint8_t *)src;
 339              		.loc 2 197 0
 340 004c 01AA     		add	r2, sp, #4
 341              	.LVL41:
 342              	.LBE19:
 343              	.LBE18:
 353:..\..\..\arduinoLCD\test\Pain Drain\libraries\lvgl\src\draw/lv_img_decoder.c ****     }
 344              		.loc 1 353 0
 345 004e 0C23     		movs	r3, #12
 346 0050 04E0     		b	.L27
 347              	.LVL42:
 348              	.L28:
 349              	.LBB21:
 350              	.LBB20:
 198:..\..\..\arduinoLCD\test\Pain Drain\libraries\lvgl\src\draw\../misc/lv_mem.h **** 
 199:..\..\..\arduinoLCD\test\Pain Drain\libraries\lvgl\src\draw\../misc/lv_mem.h ****     while(len) {
ARM GAS  C:\Users\haske\AppData\Local\Temp\ccHSLozV.s 			page 20


 200:..\..\..\arduinoLCD\test\Pain Drain\libraries\lvgl\src\draw\../misc/lv_mem.h ****         *d8 = *s8;
 351              		.loc 2 200 0
 352 0052 12F8010B 		ldrb	r0, [r2], #1	@ zero_extendqisi2
 353              	.LVL43:
 354 0056 01F8010B 		strb	r0, [r1], #1
 355              	.LVL44:
 201:..\..\..\arduinoLCD\test\Pain Drain\libraries\lvgl\src\draw\../misc/lv_mem.h ****         d8++;
 202:..\..\..\arduinoLCD\test\Pain Drain\libraries\lvgl\src\draw\../misc/lv_mem.h ****         s8++;
 203:..\..\..\arduinoLCD\test\Pain Drain\libraries\lvgl\src\draw\../misc/lv_mem.h ****         len--;
 356              		.loc 2 203 0
 357 005a 013B     		subs	r3, r3, #1
 358              	.LVL45:
 359              	.L27:
 199:..\..\..\arduinoLCD\test\Pain Drain\libraries\lvgl\src\draw\../misc/lv_mem.h ****         *d8 = *s8;
 360              		.loc 2 199 0
 361 005c 002B     		cmp	r3, #0
 362 005e F8D1     		bne	.L28
 363 0060 07E0     		b	.L29
 364              	.LVL46:
 365              	.L22:
 366              	.LBE20:
 367              	.LBE21:
 331:..\..\..\arduinoLCD\test\Pain Drain\libraries\lvgl\src\draw/lv_img_decoder.c **** 
 368              		.loc 1 331 0 discriminator 2
 369 0062 0025     		movs	r5, #0
 370 0064 A9E0     		b	.L30
 371              	.LVL47:
 372              	.L21:
 373              	.LBE17:
 355:..\..\..\arduinoLCD\test\Pain Drain\libraries\lvgl\src\draw/lv_img_decoder.c ****         /*The variables should have valid data*/
 374              		.loc 1 355 0
 375 0066 25B9     		cbnz	r5, .L29
 357:..\..\..\arduinoLCD\test\Pain Drain\libraries\lvgl\src\draw/lv_img_decoder.c ****             return LV_RES_INV;
 376              		.loc 1 357 0
 377 0068 4B68     		ldr	r3, [r1, #4]
 378 006a 9B68     		ldr	r3, [r3, #8]
 379 006c 002B     		cmp	r3, #0
 380 006e 00F0A480 		beq	.L30
 381              	.LVL48:
 382              	.L29:
 362:..\..\..\arduinoLCD\test\Pain Drain\libraries\lvgl\src\draw/lv_img_decoder.c ****     /*Process true color formats*/
 383              		.loc 1 362 0
 384 0072 207D     		ldrb	r0, [r4, #20]	@ zero_extendqisi2
 385 0074 00F01F00 		and	r0, r0, #31
 386              	.LVL49:
 364:..\..\..\arduinoLCD\test\Pain Drain\libraries\lvgl\src\draw/lv_img_decoder.c ****        cf == LV_IMG_CF_TRUE_COLOR_CHROMA_KEYED || cf == LV_IMG_CF_RGB565A8 ||
 387              		.loc 1 364 0
 388 0078 031F     		subs	r3, r0, #4
 389 007a DBB2     		uxtb	r3, r3
 390 007c 022B     		cmp	r3, #2
 391 007e 03D9     		bls	.L31
 365:..\..\..\arduinoLCD\test\Pain Drain\libraries\lvgl\src\draw/lv_img_decoder.c ****        cf == LV_IMG_CF_ALPHA_8BIT) {
 392              		.loc 1 365 0
 393 0080 1428     		cmp	r0, #20
 394 0082 01D0     		beq	.L31
 365:..\..\..\arduinoLCD\test\Pain Drain\libraries\lvgl\src\draw/lv_img_decoder.c ****        cf == LV_IMG_CF_ALPHA_8BIT) {
 395              		.loc 1 365 0 is_stmt 0 discriminator 1
ARM GAS  C:\Users\haske\AppData\Local\Temp\ccHSLozV.s 			page 21


 396 0084 0E28     		cmp	r0, #14
 397 0086 08D1     		bne	.L32
 398              	.L31:
 367:..\..\..\arduinoLCD\test\Pain Drain\libraries\lvgl\src\draw/lv_img_decoder.c ****             /*In case of uncompressed formats the image stored in the ROM/RAM.
 399              		.loc 1 367 0 is_stmt 1
 400 0088 237C     		ldrb	r3, [r4, #16]	@ zero_extendqisi2
 401 008a 002B     		cmp	r3, #0
 402 008c 40F09080 		bne	.L48
 370:..\..\..\arduinoLCD\test\Pain Drain\libraries\lvgl\src\draw/lv_img_decoder.c ****             return LV_RES_OK;
 403              		.loc 1 370 0
 404 0090 6368     		ldr	r3, [r4, #4]
 405 0092 9B68     		ldr	r3, [r3, #8]
 406 0094 A361     		str	r3, [r4, #24]
 371:..\..\..\arduinoLCD\test\Pain Drain\libraries\lvgl\src\draw/lv_img_decoder.c ****         }
 407              		.loc 1 371 0
 408 0096 0125     		movs	r5, #1
 409 0098 8FE0     		b	.L30
 410              	.L32:
 379:..\..\..\arduinoLCD\test\Pain Drain\libraries\lvgl\src\draw/lv_img_decoder.c ****             cf == LV_IMG_CF_INDEXED_8BIT) {
 411              		.loc 1 379 0
 412 009a C31F     		subs	r3, r0, #7
 413 009c DBB2     		uxtb	r3, r3
 414 009e 032B     		cmp	r3, #3
 415 00a0 7BD8     		bhi	.L33
 416              	.LBB22:
 381:..\..\..\arduinoLCD\test\Pain Drain\libraries\lvgl\src\draw/lv_img_decoder.c ****         uint32_t palette_size = 1 << px_size;
 417              		.loc 1 381 0
 418 00a2 FFF7FEFF 		bl	lv_img_cf_get_px_size
 419              	.LVL50:
 382:..\..\..\arduinoLCD\test\Pain Drain\libraries\lvgl\src\draw/lv_img_decoder.c **** 
 420              		.loc 1 382 0
 421 00a6 4FF0010A 		mov	r10, #1
 422 00aa 0AFA00FA 		lsl	r10, r10, r0
 423              	.LVL51:
 385:..\..\..\arduinoLCD\test\Pain Drain\libraries\lvgl\src\draw/lv_img_decoder.c ****             dsc->user_data = lv_mem_alloc(sizeof(lv_img_decoder_built_in_data_t));
 424              		.loc 1 385 0
 425 00ae 636A     		ldr	r3, [r4, #36]
 426 00b0 53B9     		cbnz	r3, .L34
 386:..\..\..\arduinoLCD\test\Pain Drain\libraries\lvgl\src\draw/lv_img_decoder.c ****             LV_ASSERT_MALLOC(dsc->user_data);
 427              		.loc 1 386 0
 428 00b2 1420     		movs	r0, #20
 429              	.LVL52:
 430 00b4 FFF7FEFF 		bl	lv_mem_alloc
 431              	.LVL53:
 432 00b8 6062     		str	r0, [r4, #36]
 387:..\..\..\arduinoLCD\test\Pain Drain\libraries\lvgl\src\draw/lv_img_decoder.c ****             if(dsc->user_data == NULL) {
 433              		.loc 1 387 0
 434 00ba 00B9     		cbnz	r0, .L35
 435              	.L36:
 436 00bc FEE7     		b	.L36
 437              	.L35:
 388:..\..\..\arduinoLCD\test\Pain Drain\libraries\lvgl\src\draw/lv_img_decoder.c ****                 LV_LOG_ERROR("img_decoder_built_in_open: out of memory");
 438              		.loc 1 388 0
 439 00be 0028     		cmp	r0, #0
 440 00c0 78D0     		beq	.L49
 392:..\..\..\arduinoLCD\test\Pain Drain\libraries\lvgl\src\draw/lv_img_decoder.c ****         }
 441              		.loc 1 392 0
ARM GAS  C:\Users\haske\AppData\Local\Temp\ccHSLozV.s 			page 22


 442 00c2 1421     		movs	r1, #20
 443 00c4 FFF7FEFF 		bl	lv_memset_00
 444              	.LVL54:
 445              	.L34:
 395:..\..\..\arduinoLCD\test\Pain Drain\libraries\lvgl\src\draw/lv_img_decoder.c ****         user_data->palette                         = lv_mem_alloc(palette_size * sizeof(lv_color_t)
 446              		.loc 1 395 0
 447 00c8 D4F82490 		ldr	r9, [r4, #36]
 448              	.LVL55:
 396:..\..\..\arduinoLCD\test\Pain Drain\libraries\lvgl\src\draw/lv_img_decoder.c ****         LV_ASSERT_MALLOC(user_data->palette);
 449              		.loc 1 396 0
 450 00cc 4FEA4A00 		lsl	r0, r10, #1
 451 00d0 FFF7FEFF 		bl	lv_mem_alloc
 452              	.LVL56:
 453 00d4 C9F80C00 		str	r0, [r9, #12]
 397:..\..\..\arduinoLCD\test\Pain Drain\libraries\lvgl\src\draw/lv_img_decoder.c ****         user_data->opa                             = lv_mem_alloc(palette_size * sizeof(lv_opa_t));
 454              		.loc 1 397 0
 455 00d8 00B9     		cbnz	r0, .L37
 456              	.L38:
 457 00da FEE7     		b	.L38
 458              	.L37:
 398:..\..\..\arduinoLCD\test\Pain Drain\libraries\lvgl\src\draw/lv_img_decoder.c ****         LV_ASSERT_MALLOC(user_data->opa);
 459              		.loc 1 398 0
 460 00dc 5046     		mov	r0, r10
 461 00de FFF7FEFF 		bl	lv_mem_alloc
 462              	.LVL57:
 463 00e2 C9F81000 		str	r0, [r9, #16]
 399:..\..\..\arduinoLCD\test\Pain Drain\libraries\lvgl\src\draw/lv_img_decoder.c ****         if(user_data->palette == NULL || user_data->opa == NULL) {
 464              		.loc 1 399 0
 465 00e6 00B9     		cbnz	r0, .L39
 466              	.L40:
 467 00e8 FEE7     		b	.L40
 468              	.L39:
 400:..\..\..\arduinoLCD\test\Pain Drain\libraries\lvgl\src\draw/lv_img_decoder.c ****             LV_LOG_ERROR("img_decoder_built_in_open: out of memory");
 469              		.loc 1 400 0
 470 00ea D9F80C30 		ldr	r3, [r9, #12]
 471 00ee 03B1     		cbz	r3, .L41
 400:..\..\..\arduinoLCD\test\Pain Drain\libraries\lvgl\src\draw/lv_img_decoder.c ****             LV_LOG_ERROR("img_decoder_built_in_open: out of memory");
 472              		.loc 1 400 0 is_stmt 0 discriminator 1
 473 00f0 28B9     		cbnz	r0, .L42
 474              	.L41:
 402:..\..\..\arduinoLCD\test\Pain Drain\libraries\lvgl\src\draw/lv_img_decoder.c ****             return LV_RES_INV;
 475              		.loc 1 402 0 is_stmt 1
 476 00f2 2146     		mov	r1, r4
 477 00f4 3046     		mov	r0, r6
 478 00f6 FFF7FEFF 		bl	lv_img_decoder_built_in_close
 479              	.LVL58:
 403:..\..\..\arduinoLCD\test\Pain Drain\libraries\lvgl\src\draw/lv_img_decoder.c ****         }
 480              		.loc 1 403 0
 481 00fa 0025     		movs	r5, #0
 482 00fc 5DE0     		b	.L30
 483              	.L42:
 406:..\..\..\arduinoLCD\test\Pain Drain\libraries\lvgl\src\draw/lv_img_decoder.c ****             /*Read the palette from file*/
 484              		.loc 1 406 0
 485 00fe 257C     		ldrb	r5, [r4, #16]	@ zero_extendqisi2
 486 0100 012D     		cmp	r5, #1
 487 0102 2AD1     		bne	.L43
 488              	.LBB23:
ARM GAS  C:\Users\haske\AppData\Local\Temp\ccHSLozV.s 			page 23


 408:..\..\..\arduinoLCD\test\Pain Drain\libraries\lvgl\src\draw/lv_img_decoder.c ****             lv_color32_t cur_color;
 489              		.loc 1 408 0
 490 0104 4E46     		mov	r6, r9
 491              	.LVL59:
 492 0106 0022     		movs	r2, #0
 493 0108 0421     		movs	r1, #4
 494 010a 4846     		mov	r0, r9
 495 010c FFF7FEFF 		bl	lv_fs_seek
 496              	.LVL60:
 411:..\..\..\arduinoLCD\test\Pain Drain\libraries\lvgl\src\draw/lv_img_decoder.c ****                 lv_fs_read(&user_data->f, &cur_color, sizeof(lv_color32_t), NULL);
 497              		.loc 1 411 0
 498 0110 0024     		movs	r4, #0
 499              	.LVL61:
 500 0112 1FE0     		b	.L44
 501              	.LVL62:
 502              	.L45:
 412:..\..\..\arduinoLCD\test\Pain Drain\libraries\lvgl\src\draw/lv_img_decoder.c ****                 user_data->palette[i] = lv_color_make(cur_color.ch.red, cur_color.ch.green, cur_col
 503              		.loc 1 412 0 discriminator 3
 504 0114 0023     		movs	r3, #0
 505 0116 0422     		movs	r2, #4
 506 0118 0DEB0201 		add	r1, sp, r2
 507 011c 3046     		mov	r0, r6
 508 011e FFF7FEFF 		bl	lv_fs_read
 509              	.LVL63:
 413:..\..\..\arduinoLCD\test\Pain Drain\libraries\lvgl\src\draw/lv_img_decoder.c ****                 user_data->opa[i]     = cur_color.ch.alpha;
 510              		.loc 1 413 0 discriminator 3
 511 0122 D9F80C10 		ldr	r1, [r9, #12]
 512 0126 9DF80630 		ldrb	r3, [sp, #6]	@ zero_extendqisi2
 513 012a 9DF80520 		ldrb	r2, [sp, #5]	@ zero_extendqisi2
 514 012e 9DF80400 		ldrb	r0, [sp, #4]	@ zero_extendqisi2
 515              	.LVL64:
 516              	.LBB24:
 517              	.LBB25:
 518              		.file 3 "..\\..\\..\\arduinoLCD\\test\\Pain Drain\\libraries\\lvgl\\src\\draw\\../misc/lv_color.h"
   1:..\..\..\arduinoLCD\test\Pain Drain\libraries\lvgl\src\draw\../misc/lv_color.h **** /**
   2:..\..\..\arduinoLCD\test\Pain Drain\libraries\lvgl\src\draw\../misc/lv_color.h ****  * @file lv_color.h
   3:..\..\..\arduinoLCD\test\Pain Drain\libraries\lvgl\src\draw\../misc/lv_color.h ****  *
   4:..\..\..\arduinoLCD\test\Pain Drain\libraries\lvgl\src\draw\../misc/lv_color.h ****  */
   5:..\..\..\arduinoLCD\test\Pain Drain\libraries\lvgl\src\draw\../misc/lv_color.h **** 
   6:..\..\..\arduinoLCD\test\Pain Drain\libraries\lvgl\src\draw\../misc/lv_color.h **** #ifndef LV_COLOR_H
   7:..\..\..\arduinoLCD\test\Pain Drain\libraries\lvgl\src\draw\../misc/lv_color.h **** #define LV_COLOR_H
   8:..\..\..\arduinoLCD\test\Pain Drain\libraries\lvgl\src\draw\../misc/lv_color.h **** 
   9:..\..\..\arduinoLCD\test\Pain Drain\libraries\lvgl\src\draw\../misc/lv_color.h **** #ifdef __cplusplus
  10:..\..\..\arduinoLCD\test\Pain Drain\libraries\lvgl\src\draw\../misc/lv_color.h **** extern "C" {
  11:..\..\..\arduinoLCD\test\Pain Drain\libraries\lvgl\src\draw\../misc/lv_color.h **** #endif
  12:..\..\..\arduinoLCD\test\Pain Drain\libraries\lvgl\src\draw\../misc/lv_color.h **** 
  13:..\..\..\arduinoLCD\test\Pain Drain\libraries\lvgl\src\draw\../misc/lv_color.h **** /*********************
  14:..\..\..\arduinoLCD\test\Pain Drain\libraries\lvgl\src\draw\../misc/lv_color.h ****  *      INCLUDES
  15:..\..\..\arduinoLCD\test\Pain Drain\libraries\lvgl\src\draw\../misc/lv_color.h ****  *********************/
  16:..\..\..\arduinoLCD\test\Pain Drain\libraries\lvgl\src\draw\../misc/lv_color.h **** #include "../lv_conf_internal.h"
  17:..\..\..\arduinoLCD\test\Pain Drain\libraries\lvgl\src\draw\../misc/lv_color.h **** #include "lv_assert.h"
  18:..\..\..\arduinoLCD\test\Pain Drain\libraries\lvgl\src\draw\../misc/lv_color.h **** #include "lv_math.h"
  19:..\..\..\arduinoLCD\test\Pain Drain\libraries\lvgl\src\draw\../misc/lv_color.h **** #include "lv_types.h"
  20:..\..\..\arduinoLCD\test\Pain Drain\libraries\lvgl\src\draw\../misc/lv_color.h **** 
  21:..\..\..\arduinoLCD\test\Pain Drain\libraries\lvgl\src\draw\../misc/lv_color.h **** /*Error checking*/
  22:..\..\..\arduinoLCD\test\Pain Drain\libraries\lvgl\src\draw\../misc/lv_color.h **** #if LV_COLOR_DEPTH == 24
  23:..\..\..\arduinoLCD\test\Pain Drain\libraries\lvgl\src\draw\../misc/lv_color.h **** #error "LV_COLOR_DEPTH 24 is deprecated. Use LV_COLOR_DEPTH 32 instead (lv_conf.h)"
ARM GAS  C:\Users\haske\AppData\Local\Temp\ccHSLozV.s 			page 24


  24:..\..\..\arduinoLCD\test\Pain Drain\libraries\lvgl\src\draw\../misc/lv_color.h **** #endif
  25:..\..\..\arduinoLCD\test\Pain Drain\libraries\lvgl\src\draw\../misc/lv_color.h **** 
  26:..\..\..\arduinoLCD\test\Pain Drain\libraries\lvgl\src\draw\../misc/lv_color.h **** #if LV_COLOR_DEPTH != 16 && LV_COLOR_16_SWAP != 0
  27:..\..\..\arduinoLCD\test\Pain Drain\libraries\lvgl\src\draw\../misc/lv_color.h **** #error "LV_COLOR_16_SWAP requires LV_COLOR_DEPTH == 16. Set it in lv_conf.h"
  28:..\..\..\arduinoLCD\test\Pain Drain\libraries\lvgl\src\draw\../misc/lv_color.h **** #endif
  29:..\..\..\arduinoLCD\test\Pain Drain\libraries\lvgl\src\draw\../misc/lv_color.h **** 
  30:..\..\..\arduinoLCD\test\Pain Drain\libraries\lvgl\src\draw\../misc/lv_color.h **** #include <stdint.h>
  31:..\..\..\arduinoLCD\test\Pain Drain\libraries\lvgl\src\draw\../misc/lv_color.h **** 
  32:..\..\..\arduinoLCD\test\Pain Drain\libraries\lvgl\src\draw\../misc/lv_color.h **** /*********************
  33:..\..\..\arduinoLCD\test\Pain Drain\libraries\lvgl\src\draw\../misc/lv_color.h ****  *      DEFINES
  34:..\..\..\arduinoLCD\test\Pain Drain\libraries\lvgl\src\draw\../misc/lv_color.h ****  *********************/
  35:..\..\..\arduinoLCD\test\Pain Drain\libraries\lvgl\src\draw\../misc/lv_color.h **** LV_EXPORT_CONST_INT(LV_COLOR_DEPTH);
  36:..\..\..\arduinoLCD\test\Pain Drain\libraries\lvgl\src\draw\../misc/lv_color.h **** LV_EXPORT_CONST_INT(LV_COLOR_16_SWAP);
  37:..\..\..\arduinoLCD\test\Pain Drain\libraries\lvgl\src\draw\../misc/lv_color.h **** 
  38:..\..\..\arduinoLCD\test\Pain Drain\libraries\lvgl\src\draw\../misc/lv_color.h **** /**
  39:..\..\..\arduinoLCD\test\Pain Drain\libraries\lvgl\src\draw\../misc/lv_color.h ****  * Opacity percentages.
  40:..\..\..\arduinoLCD\test\Pain Drain\libraries\lvgl\src\draw\../misc/lv_color.h ****  */
  41:..\..\..\arduinoLCD\test\Pain Drain\libraries\lvgl\src\draw\../misc/lv_color.h **** enum {
  42:..\..\..\arduinoLCD\test\Pain Drain\libraries\lvgl\src\draw\../misc/lv_color.h ****     LV_OPA_TRANSP = 0,
  43:..\..\..\arduinoLCD\test\Pain Drain\libraries\lvgl\src\draw\../misc/lv_color.h ****     LV_OPA_0      = 0,
  44:..\..\..\arduinoLCD\test\Pain Drain\libraries\lvgl\src\draw\../misc/lv_color.h ****     LV_OPA_10     = 25,
  45:..\..\..\arduinoLCD\test\Pain Drain\libraries\lvgl\src\draw\../misc/lv_color.h ****     LV_OPA_20     = 51,
  46:..\..\..\arduinoLCD\test\Pain Drain\libraries\lvgl\src\draw\../misc/lv_color.h ****     LV_OPA_30     = 76,
  47:..\..\..\arduinoLCD\test\Pain Drain\libraries\lvgl\src\draw\../misc/lv_color.h ****     LV_OPA_40     = 102,
  48:..\..\..\arduinoLCD\test\Pain Drain\libraries\lvgl\src\draw\../misc/lv_color.h ****     LV_OPA_50     = 127,
  49:..\..\..\arduinoLCD\test\Pain Drain\libraries\lvgl\src\draw\../misc/lv_color.h ****     LV_OPA_60     = 153,
  50:..\..\..\arduinoLCD\test\Pain Drain\libraries\lvgl\src\draw\../misc/lv_color.h ****     LV_OPA_70     = 178,
  51:..\..\..\arduinoLCD\test\Pain Drain\libraries\lvgl\src\draw\../misc/lv_color.h ****     LV_OPA_80     = 204,
  52:..\..\..\arduinoLCD\test\Pain Drain\libraries\lvgl\src\draw\../misc/lv_color.h ****     LV_OPA_90     = 229,
  53:..\..\..\arduinoLCD\test\Pain Drain\libraries\lvgl\src\draw\../misc/lv_color.h ****     LV_OPA_100    = 255,
  54:..\..\..\arduinoLCD\test\Pain Drain\libraries\lvgl\src\draw\../misc/lv_color.h ****     LV_OPA_COVER  = 255,
  55:..\..\..\arduinoLCD\test\Pain Drain\libraries\lvgl\src\draw\../misc/lv_color.h **** };
  56:..\..\..\arduinoLCD\test\Pain Drain\libraries\lvgl\src\draw\../misc/lv_color.h **** 
  57:..\..\..\arduinoLCD\test\Pain Drain\libraries\lvgl\src\draw\../misc/lv_color.h **** #define LV_OPA_MIN 2    /*Opacities below this will be transparent*/
  58:..\..\..\arduinoLCD\test\Pain Drain\libraries\lvgl\src\draw\../misc/lv_color.h **** #define LV_OPA_MAX 253  /*Opacities above this will fully cover*/
  59:..\..\..\arduinoLCD\test\Pain Drain\libraries\lvgl\src\draw\../misc/lv_color.h **** 
  60:..\..\..\arduinoLCD\test\Pain Drain\libraries\lvgl\src\draw\../misc/lv_color.h **** #if LV_COLOR_DEPTH == 1
  61:..\..\..\arduinoLCD\test\Pain Drain\libraries\lvgl\src\draw\../misc/lv_color.h **** #define LV_COLOR_SIZE 8
  62:..\..\..\arduinoLCD\test\Pain Drain\libraries\lvgl\src\draw\../misc/lv_color.h **** #elif LV_COLOR_DEPTH == 8
  63:..\..\..\arduinoLCD\test\Pain Drain\libraries\lvgl\src\draw\../misc/lv_color.h **** #define LV_COLOR_SIZE 8
  64:..\..\..\arduinoLCD\test\Pain Drain\libraries\lvgl\src\draw\../misc/lv_color.h **** #elif LV_COLOR_DEPTH == 16
  65:..\..\..\arduinoLCD\test\Pain Drain\libraries\lvgl\src\draw\../misc/lv_color.h **** #define LV_COLOR_SIZE 16
  66:..\..\..\arduinoLCD\test\Pain Drain\libraries\lvgl\src\draw\../misc/lv_color.h **** #elif LV_COLOR_DEPTH == 32
  67:..\..\..\arduinoLCD\test\Pain Drain\libraries\lvgl\src\draw\../misc/lv_color.h **** #define LV_COLOR_SIZE 32
  68:..\..\..\arduinoLCD\test\Pain Drain\libraries\lvgl\src\draw\../misc/lv_color.h **** #else
  69:..\..\..\arduinoLCD\test\Pain Drain\libraries\lvgl\src\draw\../misc/lv_color.h **** #error "Invalid LV_COLOR_DEPTH in lv_conf.h! Set it to 1, 8, 16 or 32!"
  70:..\..\..\arduinoLCD\test\Pain Drain\libraries\lvgl\src\draw\../misc/lv_color.h **** #endif
  71:..\..\..\arduinoLCD\test\Pain Drain\libraries\lvgl\src\draw\../misc/lv_color.h **** 
  72:..\..\..\arduinoLCD\test\Pain Drain\libraries\lvgl\src\draw\../misc/lv_color.h **** #if defined(__cplusplus) && !defined(_LV_COLOR_HAS_MODERN_CPP)
  73:..\..\..\arduinoLCD\test\Pain Drain\libraries\lvgl\src\draw\../misc/lv_color.h **** /**
  74:..\..\..\arduinoLCD\test\Pain Drain\libraries\lvgl\src\draw\../misc/lv_color.h **** * MSVC compiler's definition of the __cplusplus indicating 199711L regardless to C++ standard versi
  75:..\..\..\arduinoLCD\test\Pain Drain\libraries\lvgl\src\draw\../misc/lv_color.h **** * see https://devblogs.microsoft.com/cppblog/msvc-now-correctly-reports-cplusplus
  76:..\..\..\arduinoLCD\test\Pain Drain\libraries\lvgl\src\draw\../misc/lv_color.h **** * so we use _MSC_VER macro instead of __cplusplus
  77:..\..\..\arduinoLCD\test\Pain Drain\libraries\lvgl\src\draw\../misc/lv_color.h **** */
  78:..\..\..\arduinoLCD\test\Pain Drain\libraries\lvgl\src\draw\../misc/lv_color.h **** #ifdef _MSC_VER
  79:..\..\..\arduinoLCD\test\Pain Drain\libraries\lvgl\src\draw\../misc/lv_color.h **** #if _MSC_VER >= 1900 /*Visual Studio 2015*/
  80:..\..\..\arduinoLCD\test\Pain Drain\libraries\lvgl\src\draw\../misc/lv_color.h **** #define _LV_COLOR_HAS_MODERN_CPP 1
ARM GAS  C:\Users\haske\AppData\Local\Temp\ccHSLozV.s 			page 25


  81:..\..\..\arduinoLCD\test\Pain Drain\libraries\lvgl\src\draw\../misc/lv_color.h **** #endif
  82:..\..\..\arduinoLCD\test\Pain Drain\libraries\lvgl\src\draw\../misc/lv_color.h **** #else
  83:..\..\..\arduinoLCD\test\Pain Drain\libraries\lvgl\src\draw\../misc/lv_color.h **** #if __cplusplus >= 201103L
  84:..\..\..\arduinoLCD\test\Pain Drain\libraries\lvgl\src\draw\../misc/lv_color.h **** #define _LV_COLOR_HAS_MODERN_CPP 1
  85:..\..\..\arduinoLCD\test\Pain Drain\libraries\lvgl\src\draw\../misc/lv_color.h **** #endif
  86:..\..\..\arduinoLCD\test\Pain Drain\libraries\lvgl\src\draw\../misc/lv_color.h **** #endif
  87:..\..\..\arduinoLCD\test\Pain Drain\libraries\lvgl\src\draw\../misc/lv_color.h **** #endif /*__cplusplus*/
  88:..\..\..\arduinoLCD\test\Pain Drain\libraries\lvgl\src\draw\../misc/lv_color.h **** 
  89:..\..\..\arduinoLCD\test\Pain Drain\libraries\lvgl\src\draw\../misc/lv_color.h **** #ifndef _LV_COLOR_HAS_MODERN_CPP
  90:..\..\..\arduinoLCD\test\Pain Drain\libraries\lvgl\src\draw\../misc/lv_color.h **** #define _LV_COLOR_HAS_MODERN_CPP 0
  91:..\..\..\arduinoLCD\test\Pain Drain\libraries\lvgl\src\draw\../misc/lv_color.h **** #endif
  92:..\..\..\arduinoLCD\test\Pain Drain\libraries\lvgl\src\draw\../misc/lv_color.h **** 
  93:..\..\..\arduinoLCD\test\Pain Drain\libraries\lvgl\src\draw\../misc/lv_color.h **** #if _LV_COLOR_HAS_MODERN_CPP
  94:..\..\..\arduinoLCD\test\Pain Drain\libraries\lvgl\src\draw\../misc/lv_color.h **** /*Fix msvc compiler error C4576 inside C++ code*/
  95:..\..\..\arduinoLCD\test\Pain Drain\libraries\lvgl\src\draw\../misc/lv_color.h **** #define _LV_COLOR_MAKE_TYPE_HELPER lv_color_t
  96:..\..\..\arduinoLCD\test\Pain Drain\libraries\lvgl\src\draw\../misc/lv_color.h **** #else
  97:..\..\..\arduinoLCD\test\Pain Drain\libraries\lvgl\src\draw\../misc/lv_color.h **** #define _LV_COLOR_MAKE_TYPE_HELPER (lv_color_t)
  98:..\..\..\arduinoLCD\test\Pain Drain\libraries\lvgl\src\draw\../misc/lv_color.h **** #endif
  99:..\..\..\arduinoLCD\test\Pain Drain\libraries\lvgl\src\draw\../misc/lv_color.h **** 
 100:..\..\..\arduinoLCD\test\Pain Drain\libraries\lvgl\src\draw\../misc/lv_color.h **** /*---------------------------------------
 101:..\..\..\arduinoLCD\test\Pain Drain\libraries\lvgl\src\draw\../misc/lv_color.h ****  * Macros for all existing color depths
 102:..\..\..\arduinoLCD\test\Pain Drain\libraries\lvgl\src\draw\../misc/lv_color.h ****  * to set/get values of the color channels
 103:..\..\..\arduinoLCD\test\Pain Drain\libraries\lvgl\src\draw\../misc/lv_color.h ****  *------------------------------------------*/
 104:..\..\..\arduinoLCD\test\Pain Drain\libraries\lvgl\src\draw\../misc/lv_color.h **** # define LV_COLOR_SET_R1(c, v) (c).ch.red = (uint8_t)((v) & 0x1)
 105:..\..\..\arduinoLCD\test\Pain Drain\libraries\lvgl\src\draw\../misc/lv_color.h **** # define LV_COLOR_SET_G1(c, v) (c).ch.green = (uint8_t)((v) & 0x1)
 106:..\..\..\arduinoLCD\test\Pain Drain\libraries\lvgl\src\draw\../misc/lv_color.h **** # define LV_COLOR_SET_B1(c, v) (c).ch.blue = (uint8_t)((v) & 0x1)
 107:..\..\..\arduinoLCD\test\Pain Drain\libraries\lvgl\src\draw\../misc/lv_color.h **** # define LV_COLOR_SET_A1(c, v) do {} while(0)
 108:..\..\..\arduinoLCD\test\Pain Drain\libraries\lvgl\src\draw\../misc/lv_color.h **** 
 109:..\..\..\arduinoLCD\test\Pain Drain\libraries\lvgl\src\draw\../misc/lv_color.h **** # define LV_COLOR_GET_R1(c) (c).ch.red
 110:..\..\..\arduinoLCD\test\Pain Drain\libraries\lvgl\src\draw\../misc/lv_color.h **** # define LV_COLOR_GET_G1(c) (c).ch.green
 111:..\..\..\arduinoLCD\test\Pain Drain\libraries\lvgl\src\draw\../misc/lv_color.h **** # define LV_COLOR_GET_B1(c) (c).ch.blue
 112:..\..\..\arduinoLCD\test\Pain Drain\libraries\lvgl\src\draw\../misc/lv_color.h **** # define LV_COLOR_GET_A1(c) 0xFF
 113:..\..\..\arduinoLCD\test\Pain Drain\libraries\lvgl\src\draw\../misc/lv_color.h **** 
 114:..\..\..\arduinoLCD\test\Pain Drain\libraries\lvgl\src\draw\../misc/lv_color.h **** # define _LV_COLOR_ZERO_INITIALIZER1 {0x00}
 115:..\..\..\arduinoLCD\test\Pain Drain\libraries\lvgl\src\draw\../misc/lv_color.h **** # define LV_COLOR_MAKE1(r8, g8, b8)  {(uint8_t)((b8 >> 7) | (g8 >> 7) | (r8 >> 7))}
 116:..\..\..\arduinoLCD\test\Pain Drain\libraries\lvgl\src\draw\../misc/lv_color.h **** 
 117:..\..\..\arduinoLCD\test\Pain Drain\libraries\lvgl\src\draw\../misc/lv_color.h **** # define LV_COLOR_SET_R8(c, v) (c).ch.red = (uint8_t)((v) & 0x7U)
 118:..\..\..\arduinoLCD\test\Pain Drain\libraries\lvgl\src\draw\../misc/lv_color.h **** # define LV_COLOR_SET_G8(c, v) (c).ch.green = (uint8_t)((v) & 0x7U)
 119:..\..\..\arduinoLCD\test\Pain Drain\libraries\lvgl\src\draw\../misc/lv_color.h **** # define LV_COLOR_SET_B8(c, v) (c).ch.blue = (uint8_t)((v) & 0x3U)
 120:..\..\..\arduinoLCD\test\Pain Drain\libraries\lvgl\src\draw\../misc/lv_color.h **** # define LV_COLOR_SET_A8(c, v) do {} while(0)
 121:..\..\..\arduinoLCD\test\Pain Drain\libraries\lvgl\src\draw\../misc/lv_color.h **** 
 122:..\..\..\arduinoLCD\test\Pain Drain\libraries\lvgl\src\draw\../misc/lv_color.h **** # define LV_COLOR_GET_R8(c) (c).ch.red
 123:..\..\..\arduinoLCD\test\Pain Drain\libraries\lvgl\src\draw\../misc/lv_color.h **** # define LV_COLOR_GET_G8(c) (c).ch.green
 124:..\..\..\arduinoLCD\test\Pain Drain\libraries\lvgl\src\draw\../misc/lv_color.h **** # define LV_COLOR_GET_B8(c) (c).ch.blue
 125:..\..\..\arduinoLCD\test\Pain Drain\libraries\lvgl\src\draw\../misc/lv_color.h **** # define LV_COLOR_GET_A8(c) 0xFF
 126:..\..\..\arduinoLCD\test\Pain Drain\libraries\lvgl\src\draw\../misc/lv_color.h **** 
 127:..\..\..\arduinoLCD\test\Pain Drain\libraries\lvgl\src\draw\../misc/lv_color.h **** # define _LV_COLOR_ZERO_INITIALIZER8 {{0x00, 0x00, 0x00}}
 128:..\..\..\arduinoLCD\test\Pain Drain\libraries\lvgl\src\draw\../misc/lv_color.h **** # define LV_COLOR_MAKE8(r8, g8, b8) {{(uint8_t)((b8 >> 6) & 0x3U), (uint8_t)((g8 >> 5) & 0x7U), (ui
 129:..\..\..\arduinoLCD\test\Pain Drain\libraries\lvgl\src\draw\../misc/lv_color.h **** 
 130:..\..\..\arduinoLCD\test\Pain Drain\libraries\lvgl\src\draw\../misc/lv_color.h **** # define LV_COLOR_SET_R16(c, v) (c).ch.red = (uint8_t)((v) & 0x1FU)
 131:..\..\..\arduinoLCD\test\Pain Drain\libraries\lvgl\src\draw\../misc/lv_color.h **** #if LV_COLOR_16_SWAP == 0
 132:..\..\..\arduinoLCD\test\Pain Drain\libraries\lvgl\src\draw\../misc/lv_color.h **** # define LV_COLOR_SET_G16(c, v) (c).ch.green = (uint8_t)((v) & 0x3FU)
 133:..\..\..\arduinoLCD\test\Pain Drain\libraries\lvgl\src\draw\../misc/lv_color.h **** #else
 134:..\..\..\arduinoLCD\test\Pain Drain\libraries\lvgl\src\draw\../misc/lv_color.h **** # define LV_COLOR_SET_G16(c, v) {(c).ch.green_h = (uint8_t)(((v) >> 3) & 0x7); (c).ch.green_l = (ui
 135:..\..\..\arduinoLCD\test\Pain Drain\libraries\lvgl\src\draw\../misc/lv_color.h **** #endif
 136:..\..\..\arduinoLCD\test\Pain Drain\libraries\lvgl\src\draw\../misc/lv_color.h **** # define LV_COLOR_SET_B16(c, v) (c).ch.blue = (uint8_t)((v) & 0x1FU)
 137:..\..\..\arduinoLCD\test\Pain Drain\libraries\lvgl\src\draw\../misc/lv_color.h **** # define LV_COLOR_SET_A16(c, v) do {} while(0)
ARM GAS  C:\Users\haske\AppData\Local\Temp\ccHSLozV.s 			page 26


 138:..\..\..\arduinoLCD\test\Pain Drain\libraries\lvgl\src\draw\../misc/lv_color.h **** 
 139:..\..\..\arduinoLCD\test\Pain Drain\libraries\lvgl\src\draw\../misc/lv_color.h **** # define LV_COLOR_GET_R16(c) (c).ch.red
 140:..\..\..\arduinoLCD\test\Pain Drain\libraries\lvgl\src\draw\../misc/lv_color.h **** #if LV_COLOR_16_SWAP == 0
 141:..\..\..\arduinoLCD\test\Pain Drain\libraries\lvgl\src\draw\../misc/lv_color.h **** # define LV_COLOR_GET_G16(c) (c).ch.green
 142:..\..\..\arduinoLCD\test\Pain Drain\libraries\lvgl\src\draw\../misc/lv_color.h **** #else
 143:..\..\..\arduinoLCD\test\Pain Drain\libraries\lvgl\src\draw\../misc/lv_color.h **** # define LV_COLOR_GET_G16(c) (((c).ch.green_h << 3) + (c).ch.green_l)
 144:..\..\..\arduinoLCD\test\Pain Drain\libraries\lvgl\src\draw\../misc/lv_color.h **** #endif
 145:..\..\..\arduinoLCD\test\Pain Drain\libraries\lvgl\src\draw\../misc/lv_color.h **** # define LV_COLOR_GET_B16(c) (c).ch.blue
 146:..\..\..\arduinoLCD\test\Pain Drain\libraries\lvgl\src\draw\../misc/lv_color.h **** # define LV_COLOR_GET_A16(c) 0xFF
 147:..\..\..\arduinoLCD\test\Pain Drain\libraries\lvgl\src\draw\../misc/lv_color.h **** 
 148:..\..\..\arduinoLCD\test\Pain Drain\libraries\lvgl\src\draw\../misc/lv_color.h **** #if LV_COLOR_16_SWAP == 0
 149:..\..\..\arduinoLCD\test\Pain Drain\libraries\lvgl\src\draw\../misc/lv_color.h **** # define _LV_COLOR_ZERO_INITIALIZER16  {{0x00, 0x00, 0x00}}
 150:..\..\..\arduinoLCD\test\Pain Drain\libraries\lvgl\src\draw\../misc/lv_color.h **** # define LV_COLOR_MAKE16(r8, g8, b8) {{(uint8_t)((b8 >> 3) & 0x1FU), (uint8_t)((g8 >> 2) & 0x3FU), 
 151:..\..\..\arduinoLCD\test\Pain Drain\libraries\lvgl\src\draw\../misc/lv_color.h **** #else
 152:..\..\..\arduinoLCD\test\Pain Drain\libraries\lvgl\src\draw\../misc/lv_color.h **** # define _LV_COLOR_ZERO_INITIALIZER16 {{0x00, 0x00, 0x00, 0x00}}
 153:..\..\..\arduinoLCD\test\Pain Drain\libraries\lvgl\src\draw\../misc/lv_color.h **** # define LV_COLOR_MAKE16(r8, g8, b8) {{(uint8_t)((g8 >> 5) & 0x7U), (uint8_t)((r8 >> 3) & 0x1FU), (
 154:..\..\..\arduinoLCD\test\Pain Drain\libraries\lvgl\src\draw\../misc/lv_color.h **** #endif
 155:..\..\..\arduinoLCD\test\Pain Drain\libraries\lvgl\src\draw\../misc/lv_color.h **** 
 156:..\..\..\arduinoLCD\test\Pain Drain\libraries\lvgl\src\draw\../misc/lv_color.h **** # define LV_COLOR_SET_R32(c, v) (c).ch.red = (uint8_t)((v) & 0xFF)
 157:..\..\..\arduinoLCD\test\Pain Drain\libraries\lvgl\src\draw\../misc/lv_color.h **** # define LV_COLOR_SET_G32(c, v) (c).ch.green = (uint8_t)((v) & 0xFF)
 158:..\..\..\arduinoLCD\test\Pain Drain\libraries\lvgl\src\draw\../misc/lv_color.h **** # define LV_COLOR_SET_B32(c, v) (c).ch.blue = (uint8_t)((v) & 0xFF)
 159:..\..\..\arduinoLCD\test\Pain Drain\libraries\lvgl\src\draw\../misc/lv_color.h **** # define LV_COLOR_SET_A32(c, v) (c).ch.alpha = (uint8_t)((v) & 0xFF)
 160:..\..\..\arduinoLCD\test\Pain Drain\libraries\lvgl\src\draw\../misc/lv_color.h **** 
 161:..\..\..\arduinoLCD\test\Pain Drain\libraries\lvgl\src\draw\../misc/lv_color.h **** # define LV_COLOR_GET_R32(c) (c).ch.red
 162:..\..\..\arduinoLCD\test\Pain Drain\libraries\lvgl\src\draw\../misc/lv_color.h **** # define LV_COLOR_GET_G32(c) (c).ch.green
 163:..\..\..\arduinoLCD\test\Pain Drain\libraries\lvgl\src\draw\../misc/lv_color.h **** # define LV_COLOR_GET_B32(c) (c).ch.blue
 164:..\..\..\arduinoLCD\test\Pain Drain\libraries\lvgl\src\draw\../misc/lv_color.h **** # define LV_COLOR_GET_A32(c) (c).ch.alpha
 165:..\..\..\arduinoLCD\test\Pain Drain\libraries\lvgl\src\draw\../misc/lv_color.h **** 
 166:..\..\..\arduinoLCD\test\Pain Drain\libraries\lvgl\src\draw\../misc/lv_color.h **** # define _LV_COLOR_ZERO_INITIALIZER32  {{0x00, 0x00, 0x00, 0x00}}
 167:..\..\..\arduinoLCD\test\Pain Drain\libraries\lvgl\src\draw\../misc/lv_color.h **** # define LV_COLOR_MAKE32(r8, g8, b8) {{b8, g8, r8, 0xff}} /*Fix 0xff alpha*/
 168:..\..\..\arduinoLCD\test\Pain Drain\libraries\lvgl\src\draw\../misc/lv_color.h **** 
 169:..\..\..\arduinoLCD\test\Pain Drain\libraries\lvgl\src\draw\../misc/lv_color.h **** /*---------------------------------------
 170:..\..\..\arduinoLCD\test\Pain Drain\libraries\lvgl\src\draw\../misc/lv_color.h ****  * Macros for the current color depth
 171:..\..\..\arduinoLCD\test\Pain Drain\libraries\lvgl\src\draw\../misc/lv_color.h ****  * to set/get values of the color channels
 172:..\..\..\arduinoLCD\test\Pain Drain\libraries\lvgl\src\draw\../misc/lv_color.h ****  *------------------------------------------*/
 173:..\..\..\arduinoLCD\test\Pain Drain\libraries\lvgl\src\draw\../misc/lv_color.h **** #define LV_COLOR_SET_R(c, v) LV_CONCAT(LV_COLOR_SET_R, LV_COLOR_DEPTH)(c, v)
 174:..\..\..\arduinoLCD\test\Pain Drain\libraries\lvgl\src\draw\../misc/lv_color.h **** #define LV_COLOR_SET_G(c, v) LV_CONCAT(LV_COLOR_SET_G, LV_COLOR_DEPTH)(c, v)
 175:..\..\..\arduinoLCD\test\Pain Drain\libraries\lvgl\src\draw\../misc/lv_color.h **** #define LV_COLOR_SET_B(c, v) LV_CONCAT(LV_COLOR_SET_B, LV_COLOR_DEPTH)(c, v)
 176:..\..\..\arduinoLCD\test\Pain Drain\libraries\lvgl\src\draw\../misc/lv_color.h **** #define LV_COLOR_SET_A(c, v) LV_CONCAT(LV_COLOR_SET_A, LV_COLOR_DEPTH)(c, v)
 177:..\..\..\arduinoLCD\test\Pain Drain\libraries\lvgl\src\draw\../misc/lv_color.h **** 
 178:..\..\..\arduinoLCD\test\Pain Drain\libraries\lvgl\src\draw\../misc/lv_color.h **** #define LV_COLOR_GET_R(c) LV_CONCAT(LV_COLOR_GET_R, LV_COLOR_DEPTH)(c)
 179:..\..\..\arduinoLCD\test\Pain Drain\libraries\lvgl\src\draw\../misc/lv_color.h **** #define LV_COLOR_GET_G(c) LV_CONCAT(LV_COLOR_GET_G, LV_COLOR_DEPTH)(c)
 180:..\..\..\arduinoLCD\test\Pain Drain\libraries\lvgl\src\draw\../misc/lv_color.h **** #define LV_COLOR_GET_B(c) LV_CONCAT(LV_COLOR_GET_B, LV_COLOR_DEPTH)(c)
 181:..\..\..\arduinoLCD\test\Pain Drain\libraries\lvgl\src\draw\../misc/lv_color.h **** #define LV_COLOR_GET_A(c) LV_CONCAT(LV_COLOR_GET_A, LV_COLOR_DEPTH)(c)
 182:..\..\..\arduinoLCD\test\Pain Drain\libraries\lvgl\src\draw\../misc/lv_color.h **** 
 183:..\..\..\arduinoLCD\test\Pain Drain\libraries\lvgl\src\draw\../misc/lv_color.h **** #define _LV_COLOR_ZERO_INITIALIZER LV_CONCAT(_LV_COLOR_ZERO_INITIALIZER, LV_COLOR_DEPTH)
 184:..\..\..\arduinoLCD\test\Pain Drain\libraries\lvgl\src\draw\../misc/lv_color.h **** #define LV_COLOR_MAKE(r8, g8, b8) LV_CONCAT(LV_COLOR_MAKE, LV_COLOR_DEPTH)(r8, g8, b8)
 185:..\..\..\arduinoLCD\test\Pain Drain\libraries\lvgl\src\draw\../misc/lv_color.h **** 
 186:..\..\..\arduinoLCD\test\Pain Drain\libraries\lvgl\src\draw\../misc/lv_color.h **** /**********************
 187:..\..\..\arduinoLCD\test\Pain Drain\libraries\lvgl\src\draw\../misc/lv_color.h ****  *      TYPEDEFS
 188:..\..\..\arduinoLCD\test\Pain Drain\libraries\lvgl\src\draw\../misc/lv_color.h ****  **********************/
 189:..\..\..\arduinoLCD\test\Pain Drain\libraries\lvgl\src\draw\../misc/lv_color.h **** 
 190:..\..\..\arduinoLCD\test\Pain Drain\libraries\lvgl\src\draw\../misc/lv_color.h **** typedef union {
 191:..\..\..\arduinoLCD\test\Pain Drain\libraries\lvgl\src\draw\../misc/lv_color.h ****     uint8_t full; /*must be declared first to set all bits of byte via initializer list*/
 192:..\..\..\arduinoLCD\test\Pain Drain\libraries\lvgl\src\draw\../misc/lv_color.h ****     union {
 193:..\..\..\arduinoLCD\test\Pain Drain\libraries\lvgl\src\draw\../misc/lv_color.h ****         uint8_t blue : 1;
 194:..\..\..\arduinoLCD\test\Pain Drain\libraries\lvgl\src\draw\../misc/lv_color.h ****         uint8_t green : 1;
ARM GAS  C:\Users\haske\AppData\Local\Temp\ccHSLozV.s 			page 27


 195:..\..\..\arduinoLCD\test\Pain Drain\libraries\lvgl\src\draw\../misc/lv_color.h ****         uint8_t red : 1;
 196:..\..\..\arduinoLCD\test\Pain Drain\libraries\lvgl\src\draw\../misc/lv_color.h ****     } ch;
 197:..\..\..\arduinoLCD\test\Pain Drain\libraries\lvgl\src\draw\../misc/lv_color.h **** } lv_color1_t;
 198:..\..\..\arduinoLCD\test\Pain Drain\libraries\lvgl\src\draw\../misc/lv_color.h **** 
 199:..\..\..\arduinoLCD\test\Pain Drain\libraries\lvgl\src\draw\../misc/lv_color.h **** typedef union {
 200:..\..\..\arduinoLCD\test\Pain Drain\libraries\lvgl\src\draw\../misc/lv_color.h ****     struct {
 201:..\..\..\arduinoLCD\test\Pain Drain\libraries\lvgl\src\draw\../misc/lv_color.h ****         uint8_t blue : 2;
 202:..\..\..\arduinoLCD\test\Pain Drain\libraries\lvgl\src\draw\../misc/lv_color.h ****         uint8_t green : 3;
 203:..\..\..\arduinoLCD\test\Pain Drain\libraries\lvgl\src\draw\../misc/lv_color.h ****         uint8_t red : 3;
 204:..\..\..\arduinoLCD\test\Pain Drain\libraries\lvgl\src\draw\../misc/lv_color.h ****     } ch;
 205:..\..\..\arduinoLCD\test\Pain Drain\libraries\lvgl\src\draw\../misc/lv_color.h ****     uint8_t full;
 206:..\..\..\arduinoLCD\test\Pain Drain\libraries\lvgl\src\draw\../misc/lv_color.h **** } lv_color8_t;
 207:..\..\..\arduinoLCD\test\Pain Drain\libraries\lvgl\src\draw\../misc/lv_color.h **** 
 208:..\..\..\arduinoLCD\test\Pain Drain\libraries\lvgl\src\draw\../misc/lv_color.h **** typedef union {
 209:..\..\..\arduinoLCD\test\Pain Drain\libraries\lvgl\src\draw\../misc/lv_color.h ****     struct {
 210:..\..\..\arduinoLCD\test\Pain Drain\libraries\lvgl\src\draw\../misc/lv_color.h **** #if LV_COLOR_16_SWAP == 0
 211:..\..\..\arduinoLCD\test\Pain Drain\libraries\lvgl\src\draw\../misc/lv_color.h ****         uint16_t blue : 5;
 212:..\..\..\arduinoLCD\test\Pain Drain\libraries\lvgl\src\draw\../misc/lv_color.h ****         uint16_t green : 6;
 213:..\..\..\arduinoLCD\test\Pain Drain\libraries\lvgl\src\draw\../misc/lv_color.h ****         uint16_t red : 5;
 214:..\..\..\arduinoLCD\test\Pain Drain\libraries\lvgl\src\draw\../misc/lv_color.h **** #else
 215:..\..\..\arduinoLCD\test\Pain Drain\libraries\lvgl\src\draw\../misc/lv_color.h ****         uint16_t green_h : 3;
 216:..\..\..\arduinoLCD\test\Pain Drain\libraries\lvgl\src\draw\../misc/lv_color.h ****         uint16_t red : 5;
 217:..\..\..\arduinoLCD\test\Pain Drain\libraries\lvgl\src\draw\../misc/lv_color.h ****         uint16_t blue : 5;
 218:..\..\..\arduinoLCD\test\Pain Drain\libraries\lvgl\src\draw\../misc/lv_color.h ****         uint16_t green_l : 3;
 219:..\..\..\arduinoLCD\test\Pain Drain\libraries\lvgl\src\draw\../misc/lv_color.h **** #endif
 220:..\..\..\arduinoLCD\test\Pain Drain\libraries\lvgl\src\draw\../misc/lv_color.h ****     } ch;
 221:..\..\..\arduinoLCD\test\Pain Drain\libraries\lvgl\src\draw\../misc/lv_color.h ****     uint16_t full;
 222:..\..\..\arduinoLCD\test\Pain Drain\libraries\lvgl\src\draw\../misc/lv_color.h **** } lv_color16_t;
 223:..\..\..\arduinoLCD\test\Pain Drain\libraries\lvgl\src\draw\../misc/lv_color.h **** 
 224:..\..\..\arduinoLCD\test\Pain Drain\libraries\lvgl\src\draw\../misc/lv_color.h **** typedef union {
 225:..\..\..\arduinoLCD\test\Pain Drain\libraries\lvgl\src\draw\../misc/lv_color.h ****     struct {
 226:..\..\..\arduinoLCD\test\Pain Drain\libraries\lvgl\src\draw\../misc/lv_color.h ****         uint8_t blue;
 227:..\..\..\arduinoLCD\test\Pain Drain\libraries\lvgl\src\draw\../misc/lv_color.h ****         uint8_t green;
 228:..\..\..\arduinoLCD\test\Pain Drain\libraries\lvgl\src\draw\../misc/lv_color.h ****         uint8_t red;
 229:..\..\..\arduinoLCD\test\Pain Drain\libraries\lvgl\src\draw\../misc/lv_color.h ****         uint8_t alpha;
 230:..\..\..\arduinoLCD\test\Pain Drain\libraries\lvgl\src\draw\../misc/lv_color.h ****     } ch;
 231:..\..\..\arduinoLCD\test\Pain Drain\libraries\lvgl\src\draw\../misc/lv_color.h ****     uint32_t full;
 232:..\..\..\arduinoLCD\test\Pain Drain\libraries\lvgl\src\draw\../misc/lv_color.h **** } lv_color32_t;
 233:..\..\..\arduinoLCD\test\Pain Drain\libraries\lvgl\src\draw\../misc/lv_color.h **** 
 234:..\..\..\arduinoLCD\test\Pain Drain\libraries\lvgl\src\draw\../misc/lv_color.h **** typedef LV_CONCAT3(uint, LV_COLOR_SIZE, _t) lv_color_int_t;
 235:..\..\..\arduinoLCD\test\Pain Drain\libraries\lvgl\src\draw\../misc/lv_color.h **** typedef LV_CONCAT3(lv_color, LV_COLOR_DEPTH, _t) lv_color_t;
 236:..\..\..\arduinoLCD\test\Pain Drain\libraries\lvgl\src\draw\../misc/lv_color.h **** 
 237:..\..\..\arduinoLCD\test\Pain Drain\libraries\lvgl\src\draw\../misc/lv_color.h **** typedef struct {
 238:..\..\..\arduinoLCD\test\Pain Drain\libraries\lvgl\src\draw\../misc/lv_color.h ****     uint16_t h;
 239:..\..\..\arduinoLCD\test\Pain Drain\libraries\lvgl\src\draw\../misc/lv_color.h ****     uint8_t s;
 240:..\..\..\arduinoLCD\test\Pain Drain\libraries\lvgl\src\draw\../misc/lv_color.h ****     uint8_t v;
 241:..\..\..\arduinoLCD\test\Pain Drain\libraries\lvgl\src\draw\../misc/lv_color.h **** } lv_color_hsv_t;
 242:..\..\..\arduinoLCD\test\Pain Drain\libraries\lvgl\src\draw\../misc/lv_color.h **** 
 243:..\..\..\arduinoLCD\test\Pain Drain\libraries\lvgl\src\draw\../misc/lv_color.h **** //! @cond Doxygen_Suppress
 244:..\..\..\arduinoLCD\test\Pain Drain\libraries\lvgl\src\draw\../misc/lv_color.h **** /*No idea where the guard is required but else throws warnings in the docs*/
 245:..\..\..\arduinoLCD\test\Pain Drain\libraries\lvgl\src\draw\../misc/lv_color.h **** typedef uint8_t lv_opa_t;
 246:..\..\..\arduinoLCD\test\Pain Drain\libraries\lvgl\src\draw\../misc/lv_color.h **** //! @endcond
 247:..\..\..\arduinoLCD\test\Pain Drain\libraries\lvgl\src\draw\../misc/lv_color.h **** 
 248:..\..\..\arduinoLCD\test\Pain Drain\libraries\lvgl\src\draw\../misc/lv_color.h **** struct _lv_color_filter_dsc_t;
 249:..\..\..\arduinoLCD\test\Pain Drain\libraries\lvgl\src\draw\../misc/lv_color.h **** 
 250:..\..\..\arduinoLCD\test\Pain Drain\libraries\lvgl\src\draw\../misc/lv_color.h **** typedef lv_color_t (*lv_color_filter_cb_t)(const struct _lv_color_filter_dsc_t *, lv_color_t, lv_op
 251:..\..\..\arduinoLCD\test\Pain Drain\libraries\lvgl\src\draw\../misc/lv_color.h **** 
ARM GAS  C:\Users\haske\AppData\Local\Temp\ccHSLozV.s 			page 28


 252:..\..\..\arduinoLCD\test\Pain Drain\libraries\lvgl\src\draw\../misc/lv_color.h **** typedef struct _lv_color_filter_dsc_t {
 253:..\..\..\arduinoLCD\test\Pain Drain\libraries\lvgl\src\draw\../misc/lv_color.h ****     lv_color_filter_cb_t filter_cb;
 254:..\..\..\arduinoLCD\test\Pain Drain\libraries\lvgl\src\draw\../misc/lv_color.h ****     void * user_data;
 255:..\..\..\arduinoLCD\test\Pain Drain\libraries\lvgl\src\draw\../misc/lv_color.h **** } lv_color_filter_dsc_t;
 256:..\..\..\arduinoLCD\test\Pain Drain\libraries\lvgl\src\draw\../misc/lv_color.h **** 
 257:..\..\..\arduinoLCD\test\Pain Drain\libraries\lvgl\src\draw\../misc/lv_color.h **** 
 258:..\..\..\arduinoLCD\test\Pain Drain\libraries\lvgl\src\draw\../misc/lv_color.h **** typedef enum {
 259:..\..\..\arduinoLCD\test\Pain Drain\libraries\lvgl\src\draw\../misc/lv_color.h ****     LV_PALETTE_RED,
 260:..\..\..\arduinoLCD\test\Pain Drain\libraries\lvgl\src\draw\../misc/lv_color.h ****     LV_PALETTE_PINK,
 261:..\..\..\arduinoLCD\test\Pain Drain\libraries\lvgl\src\draw\../misc/lv_color.h ****     LV_PALETTE_PURPLE,
 262:..\..\..\arduinoLCD\test\Pain Drain\libraries\lvgl\src\draw\../misc/lv_color.h ****     LV_PALETTE_DEEP_PURPLE,
 263:..\..\..\arduinoLCD\test\Pain Drain\libraries\lvgl\src\draw\../misc/lv_color.h ****     LV_PALETTE_INDIGO,
 264:..\..\..\arduinoLCD\test\Pain Drain\libraries\lvgl\src\draw\../misc/lv_color.h ****     LV_PALETTE_BLUE,
 265:..\..\..\arduinoLCD\test\Pain Drain\libraries\lvgl\src\draw\../misc/lv_color.h ****     LV_PALETTE_LIGHT_BLUE,
 266:..\..\..\arduinoLCD\test\Pain Drain\libraries\lvgl\src\draw\../misc/lv_color.h ****     LV_PALETTE_CYAN,
 267:..\..\..\arduinoLCD\test\Pain Drain\libraries\lvgl\src\draw\../misc/lv_color.h ****     LV_PALETTE_TEAL,
 268:..\..\..\arduinoLCD\test\Pain Drain\libraries\lvgl\src\draw\../misc/lv_color.h ****     LV_PALETTE_GREEN,
 269:..\..\..\arduinoLCD\test\Pain Drain\libraries\lvgl\src\draw\../misc/lv_color.h ****     LV_PALETTE_LIGHT_GREEN,
 270:..\..\..\arduinoLCD\test\Pain Drain\libraries\lvgl\src\draw\../misc/lv_color.h ****     LV_PALETTE_LIME,
 271:..\..\..\arduinoLCD\test\Pain Drain\libraries\lvgl\src\draw\../misc/lv_color.h ****     LV_PALETTE_YELLOW,
 272:..\..\..\arduinoLCD\test\Pain Drain\libraries\lvgl\src\draw\../misc/lv_color.h ****     LV_PALETTE_AMBER,
 273:..\..\..\arduinoLCD\test\Pain Drain\libraries\lvgl\src\draw\../misc/lv_color.h ****     LV_PALETTE_ORANGE,
 274:..\..\..\arduinoLCD\test\Pain Drain\libraries\lvgl\src\draw\../misc/lv_color.h ****     LV_PALETTE_DEEP_ORANGE,
 275:..\..\..\arduinoLCD\test\Pain Drain\libraries\lvgl\src\draw\../misc/lv_color.h ****     LV_PALETTE_BROWN,
 276:..\..\..\arduinoLCD\test\Pain Drain\libraries\lvgl\src\draw\../misc/lv_color.h ****     LV_PALETTE_BLUE_GREY,
 277:..\..\..\arduinoLCD\test\Pain Drain\libraries\lvgl\src\draw\../misc/lv_color.h ****     LV_PALETTE_GREY,
 278:..\..\..\arduinoLCD\test\Pain Drain\libraries\lvgl\src\draw\../misc/lv_color.h ****     _LV_PALETTE_LAST,
 279:..\..\..\arduinoLCD\test\Pain Drain\libraries\lvgl\src\draw\../misc/lv_color.h ****     LV_PALETTE_NONE = 0xff,
 280:..\..\..\arduinoLCD\test\Pain Drain\libraries\lvgl\src\draw\../misc/lv_color.h **** } lv_palette_t;
 281:..\..\..\arduinoLCD\test\Pain Drain\libraries\lvgl\src\draw\../misc/lv_color.h **** 
 282:..\..\..\arduinoLCD\test\Pain Drain\libraries\lvgl\src\draw\../misc/lv_color.h **** /**********************
 283:..\..\..\arduinoLCD\test\Pain Drain\libraries\lvgl\src\draw\../misc/lv_color.h ****  * GLOBAL PROTOTYPES
 284:..\..\..\arduinoLCD\test\Pain Drain\libraries\lvgl\src\draw\../misc/lv_color.h ****  **********************/
 285:..\..\..\arduinoLCD\test\Pain Drain\libraries\lvgl\src\draw\../misc/lv_color.h **** 
 286:..\..\..\arduinoLCD\test\Pain Drain\libraries\lvgl\src\draw\../misc/lv_color.h **** /*In color conversations:
 287:..\..\..\arduinoLCD\test\Pain Drain\libraries\lvgl\src\draw\../misc/lv_color.h ****  * - When converting to bigger color type the LSB weight of 1 LSB is calculated
 288:..\..\..\arduinoLCD\test\Pain Drain\libraries\lvgl\src\draw\../misc/lv_color.h ****  *   E.g. 16 bit Red has 5 bits
 289:..\..\..\arduinoLCD\test\Pain Drain\libraries\lvgl\src\draw\../misc/lv_color.h ****  *         8 bit Red has 3 bits
 290:..\..\..\arduinoLCD\test\Pain Drain\libraries\lvgl\src\draw\../misc/lv_color.h ****  *        ----------------------
 291:..\..\..\arduinoLCD\test\Pain Drain\libraries\lvgl\src\draw\../misc/lv_color.h ****  *        8 bit red LSB = (2^5 - 1) / (2^3 - 1) = 31 / 7 = 4
 292:..\..\..\arduinoLCD\test\Pain Drain\libraries\lvgl\src\draw\../misc/lv_color.h ****  *
 293:..\..\..\arduinoLCD\test\Pain Drain\libraries\lvgl\src\draw\../misc/lv_color.h ****  * - When calculating to smaller color type simply shift out the LSBs
 294:..\..\..\arduinoLCD\test\Pain Drain\libraries\lvgl\src\draw\../misc/lv_color.h ****  *   E.g.  8 bit Red has 3 bits
 295:..\..\..\arduinoLCD\test\Pain Drain\libraries\lvgl\src\draw\../misc/lv_color.h ****  *        16 bit Red has 5 bits
 296:..\..\..\arduinoLCD\test\Pain Drain\libraries\lvgl\src\draw\../misc/lv_color.h ****  *        ----------------------
 297:..\..\..\arduinoLCD\test\Pain Drain\libraries\lvgl\src\draw\../misc/lv_color.h ****  *         Shift right with 5 - 3 = 2
 298:..\..\..\arduinoLCD\test\Pain Drain\libraries\lvgl\src\draw\../misc/lv_color.h ****  */
 299:..\..\..\arduinoLCD\test\Pain Drain\libraries\lvgl\src\draw\../misc/lv_color.h **** static inline uint8_t lv_color_to1(lv_color_t color)
 300:..\..\..\arduinoLCD\test\Pain Drain\libraries\lvgl\src\draw\../misc/lv_color.h **** {
 301:..\..\..\arduinoLCD\test\Pain Drain\libraries\lvgl\src\draw\../misc/lv_color.h **** #if LV_COLOR_DEPTH == 1
 302:..\..\..\arduinoLCD\test\Pain Drain\libraries\lvgl\src\draw\../misc/lv_color.h ****     return color.full;
 303:..\..\..\arduinoLCD\test\Pain Drain\libraries\lvgl\src\draw\../misc/lv_color.h **** #elif LV_COLOR_DEPTH == 8
 304:..\..\..\arduinoLCD\test\Pain Drain\libraries\lvgl\src\draw\../misc/lv_color.h ****     if((LV_COLOR_GET_R(color) & 0x4) || (LV_COLOR_GET_G(color) & 0x4) || (LV_COLOR_GET_B(color) & 0
 305:..\..\..\arduinoLCD\test\Pain Drain\libraries\lvgl\src\draw\../misc/lv_color.h ****         return 1;
 306:..\..\..\arduinoLCD\test\Pain Drain\libraries\lvgl\src\draw\../misc/lv_color.h ****     }
 307:..\..\..\arduinoLCD\test\Pain Drain\libraries\lvgl\src\draw\../misc/lv_color.h ****     else {
 308:..\..\..\arduinoLCD\test\Pain Drain\libraries\lvgl\src\draw\../misc/lv_color.h ****         return 0;
ARM GAS  C:\Users\haske\AppData\Local\Temp\ccHSLozV.s 			page 29


 309:..\..\..\arduinoLCD\test\Pain Drain\libraries\lvgl\src\draw\../misc/lv_color.h ****     }
 310:..\..\..\arduinoLCD\test\Pain Drain\libraries\lvgl\src\draw\../misc/lv_color.h **** #elif LV_COLOR_DEPTH == 16
 311:..\..\..\arduinoLCD\test\Pain Drain\libraries\lvgl\src\draw\../misc/lv_color.h ****     if((LV_COLOR_GET_R(color) & 0x10) || (LV_COLOR_GET_G(color) & 0x20) || (LV_COLOR_GET_B(color) &
 312:..\..\..\arduinoLCD\test\Pain Drain\libraries\lvgl\src\draw\../misc/lv_color.h ****         return 1;
 313:..\..\..\arduinoLCD\test\Pain Drain\libraries\lvgl\src\draw\../misc/lv_color.h ****     }
 314:..\..\..\arduinoLCD\test\Pain Drain\libraries\lvgl\src\draw\../misc/lv_color.h ****     else {
 315:..\..\..\arduinoLCD\test\Pain Drain\libraries\lvgl\src\draw\../misc/lv_color.h ****         return 0;
 316:..\..\..\arduinoLCD\test\Pain Drain\libraries\lvgl\src\draw\../misc/lv_color.h ****     }
 317:..\..\..\arduinoLCD\test\Pain Drain\libraries\lvgl\src\draw\../misc/lv_color.h **** #elif LV_COLOR_DEPTH == 32
 318:..\..\..\arduinoLCD\test\Pain Drain\libraries\lvgl\src\draw\../misc/lv_color.h ****     if((LV_COLOR_GET_R(color) & 0x80) || (LV_COLOR_GET_G(color) & 0x80) || (LV_COLOR_GET_B(color) &
 319:..\..\..\arduinoLCD\test\Pain Drain\libraries\lvgl\src\draw\../misc/lv_color.h ****         return 1;
 320:..\..\..\arduinoLCD\test\Pain Drain\libraries\lvgl\src\draw\../misc/lv_color.h ****     }
 321:..\..\..\arduinoLCD\test\Pain Drain\libraries\lvgl\src\draw\../misc/lv_color.h ****     else {
 322:..\..\..\arduinoLCD\test\Pain Drain\libraries\lvgl\src\draw\../misc/lv_color.h ****         return 0;
 323:..\..\..\arduinoLCD\test\Pain Drain\libraries\lvgl\src\draw\../misc/lv_color.h ****     }
 324:..\..\..\arduinoLCD\test\Pain Drain\libraries\lvgl\src\draw\../misc/lv_color.h **** #endif
 325:..\..\..\arduinoLCD\test\Pain Drain\libraries\lvgl\src\draw\../misc/lv_color.h **** }
 326:..\..\..\arduinoLCD\test\Pain Drain\libraries\lvgl\src\draw\../misc/lv_color.h **** 
 327:..\..\..\arduinoLCD\test\Pain Drain\libraries\lvgl\src\draw\../misc/lv_color.h **** static inline uint8_t lv_color_to8(lv_color_t color)
 328:..\..\..\arduinoLCD\test\Pain Drain\libraries\lvgl\src\draw\../misc/lv_color.h **** {
 329:..\..\..\arduinoLCD\test\Pain Drain\libraries\lvgl\src\draw\../misc/lv_color.h **** #if LV_COLOR_DEPTH == 1
 330:..\..\..\arduinoLCD\test\Pain Drain\libraries\lvgl\src\draw\../misc/lv_color.h ****     if(color.full == 0)
 331:..\..\..\arduinoLCD\test\Pain Drain\libraries\lvgl\src\draw\../misc/lv_color.h ****         return 0;
 332:..\..\..\arduinoLCD\test\Pain Drain\libraries\lvgl\src\draw\../misc/lv_color.h ****     else
 333:..\..\..\arduinoLCD\test\Pain Drain\libraries\lvgl\src\draw\../misc/lv_color.h ****         return 0xFF;
 334:..\..\..\arduinoLCD\test\Pain Drain\libraries\lvgl\src\draw\../misc/lv_color.h **** #elif LV_COLOR_DEPTH == 8
 335:..\..\..\arduinoLCD\test\Pain Drain\libraries\lvgl\src\draw\../misc/lv_color.h ****     return color.full;
 336:..\..\..\arduinoLCD\test\Pain Drain\libraries\lvgl\src\draw\../misc/lv_color.h **** #elif LV_COLOR_DEPTH == 16
 337:..\..\..\arduinoLCD\test\Pain Drain\libraries\lvgl\src\draw\../misc/lv_color.h ****     lv_color8_t ret;
 338:..\..\..\arduinoLCD\test\Pain Drain\libraries\lvgl\src\draw\../misc/lv_color.h ****     LV_COLOR_SET_R8(ret, LV_COLOR_GET_R(color) >> 2); /*5 - 3  = 2*/
 339:..\..\..\arduinoLCD\test\Pain Drain\libraries\lvgl\src\draw\../misc/lv_color.h ****     LV_COLOR_SET_G8(ret, LV_COLOR_GET_G(color) >> 3); /*6 - 3  = 3*/
 340:..\..\..\arduinoLCD\test\Pain Drain\libraries\lvgl\src\draw\../misc/lv_color.h ****     LV_COLOR_SET_B8(ret, LV_COLOR_GET_B(color) >> 3); /*5 - 2  = 3*/
 341:..\..\..\arduinoLCD\test\Pain Drain\libraries\lvgl\src\draw\../misc/lv_color.h ****     return ret.full;
 342:..\..\..\arduinoLCD\test\Pain Drain\libraries\lvgl\src\draw\../misc/lv_color.h **** #elif LV_COLOR_DEPTH == 32
 343:..\..\..\arduinoLCD\test\Pain Drain\libraries\lvgl\src\draw\../misc/lv_color.h ****     lv_color8_t ret;
 344:..\..\..\arduinoLCD\test\Pain Drain\libraries\lvgl\src\draw\../misc/lv_color.h ****     LV_COLOR_SET_R8(ret, LV_COLOR_GET_R(color) >> 5); /*8 - 3  = 5*/
 345:..\..\..\arduinoLCD\test\Pain Drain\libraries\lvgl\src\draw\../misc/lv_color.h ****     LV_COLOR_SET_G8(ret, LV_COLOR_GET_G(color) >> 5); /*8 - 3  = 5*/
 346:..\..\..\arduinoLCD\test\Pain Drain\libraries\lvgl\src\draw\../misc/lv_color.h ****     LV_COLOR_SET_B8(ret, LV_COLOR_GET_B(color) >> 6); /*8 - 2  = 6*/
 347:..\..\..\arduinoLCD\test\Pain Drain\libraries\lvgl\src\draw\../misc/lv_color.h ****     return ret.full;
 348:..\..\..\arduinoLCD\test\Pain Drain\libraries\lvgl\src\draw\../misc/lv_color.h **** #endif
 349:..\..\..\arduinoLCD\test\Pain Drain\libraries\lvgl\src\draw\../misc/lv_color.h **** }
 350:..\..\..\arduinoLCD\test\Pain Drain\libraries\lvgl\src\draw\../misc/lv_color.h **** 
 351:..\..\..\arduinoLCD\test\Pain Drain\libraries\lvgl\src\draw\../misc/lv_color.h **** static inline uint16_t lv_color_to16(lv_color_t color)
 352:..\..\..\arduinoLCD\test\Pain Drain\libraries\lvgl\src\draw\../misc/lv_color.h **** {
 353:..\..\..\arduinoLCD\test\Pain Drain\libraries\lvgl\src\draw\../misc/lv_color.h **** #if LV_COLOR_DEPTH == 1
 354:..\..\..\arduinoLCD\test\Pain Drain\libraries\lvgl\src\draw\../misc/lv_color.h ****     if(color.full == 0)
 355:..\..\..\arduinoLCD\test\Pain Drain\libraries\lvgl\src\draw\../misc/lv_color.h ****         return 0;
 356:..\..\..\arduinoLCD\test\Pain Drain\libraries\lvgl\src\draw\../misc/lv_color.h ****     else
 357:..\..\..\arduinoLCD\test\Pain Drain\libraries\lvgl\src\draw\../misc/lv_color.h ****         return 0xFFFF;
 358:..\..\..\arduinoLCD\test\Pain Drain\libraries\lvgl\src\draw\../misc/lv_color.h **** #elif LV_COLOR_DEPTH == 8
 359:..\..\..\arduinoLCD\test\Pain Drain\libraries\lvgl\src\draw\../misc/lv_color.h ****     lv_color16_t ret;
 360:..\..\..\arduinoLCD\test\Pain Drain\libraries\lvgl\src\draw\../misc/lv_color.h ****     LV_COLOR_SET_R16(ret, LV_COLOR_GET_R(color) * 4);  /*(2^5 - 1)/(2^3 - 1) = 31/7 = 4*/
 361:..\..\..\arduinoLCD\test\Pain Drain\libraries\lvgl\src\draw\../misc/lv_color.h ****     LV_COLOR_SET_G16(ret, LV_COLOR_GET_G(color) * 9);  /*(2^6 - 1)/(2^3 - 1) = 63/7 = 9*/
 362:..\..\..\arduinoLCD\test\Pain Drain\libraries\lvgl\src\draw\../misc/lv_color.h ****     LV_COLOR_SET_B16(ret, LV_COLOR_GET_B(color) * 10); /*(2^5 - 1)/(2^2 - 1) = 31/3 = 10*/
 363:..\..\..\arduinoLCD\test\Pain Drain\libraries\lvgl\src\draw\../misc/lv_color.h ****     return ret.full;
 364:..\..\..\arduinoLCD\test\Pain Drain\libraries\lvgl\src\draw\../misc/lv_color.h **** #elif LV_COLOR_DEPTH == 16
 365:..\..\..\arduinoLCD\test\Pain Drain\libraries\lvgl\src\draw\../misc/lv_color.h ****     return color.full;
ARM GAS  C:\Users\haske\AppData\Local\Temp\ccHSLozV.s 			page 30


 366:..\..\..\arduinoLCD\test\Pain Drain\libraries\lvgl\src\draw\../misc/lv_color.h **** #elif LV_COLOR_DEPTH == 32
 367:..\..\..\arduinoLCD\test\Pain Drain\libraries\lvgl\src\draw\../misc/lv_color.h ****     lv_color16_t ret;
 368:..\..\..\arduinoLCD\test\Pain Drain\libraries\lvgl\src\draw\../misc/lv_color.h ****     LV_COLOR_SET_R16(ret, LV_COLOR_GET_R(color) >> 3); /*8 - 5  = 3*/
 369:..\..\..\arduinoLCD\test\Pain Drain\libraries\lvgl\src\draw\../misc/lv_color.h ****     LV_COLOR_SET_G16(ret, LV_COLOR_GET_G(color) >> 2); /*8 - 6  = 2*/
 370:..\..\..\arduinoLCD\test\Pain Drain\libraries\lvgl\src\draw\../misc/lv_color.h ****     LV_COLOR_SET_B16(ret, LV_COLOR_GET_B(color) >> 3); /*8 - 5  = 3*/
 371:..\..\..\arduinoLCD\test\Pain Drain\libraries\lvgl\src\draw\../misc/lv_color.h ****     return ret.full;
 372:..\..\..\arduinoLCD\test\Pain Drain\libraries\lvgl\src\draw\../misc/lv_color.h **** #endif
 373:..\..\..\arduinoLCD\test\Pain Drain\libraries\lvgl\src\draw\../misc/lv_color.h **** }
 374:..\..\..\arduinoLCD\test\Pain Drain\libraries\lvgl\src\draw\../misc/lv_color.h **** 
 375:..\..\..\arduinoLCD\test\Pain Drain\libraries\lvgl\src\draw\../misc/lv_color.h **** static inline uint32_t lv_color_to32(lv_color_t color)
 376:..\..\..\arduinoLCD\test\Pain Drain\libraries\lvgl\src\draw\../misc/lv_color.h **** {
 377:..\..\..\arduinoLCD\test\Pain Drain\libraries\lvgl\src\draw\../misc/lv_color.h **** #if LV_COLOR_DEPTH == 1
 378:..\..\..\arduinoLCD\test\Pain Drain\libraries\lvgl\src\draw\../misc/lv_color.h ****     if(color.full == 0)
 379:..\..\..\arduinoLCD\test\Pain Drain\libraries\lvgl\src\draw\../misc/lv_color.h ****         return 0xFF000000;
 380:..\..\..\arduinoLCD\test\Pain Drain\libraries\lvgl\src\draw\../misc/lv_color.h ****     else
 381:..\..\..\arduinoLCD\test\Pain Drain\libraries\lvgl\src\draw\../misc/lv_color.h ****         return 0xFFFFFFFF;
 382:..\..\..\arduinoLCD\test\Pain Drain\libraries\lvgl\src\draw\../misc/lv_color.h **** #elif LV_COLOR_DEPTH == 8
 383:..\..\..\arduinoLCD\test\Pain Drain\libraries\lvgl\src\draw\../misc/lv_color.h ****     lv_color32_t ret;
 384:..\..\..\arduinoLCD\test\Pain Drain\libraries\lvgl\src\draw\../misc/lv_color.h ****     LV_COLOR_SET_R32(ret, LV_COLOR_GET_R(color) * 36); /*(2^8 - 1)/(2^3 - 1) = 255/7 = 36*/
 385:..\..\..\arduinoLCD\test\Pain Drain\libraries\lvgl\src\draw\../misc/lv_color.h ****     LV_COLOR_SET_G32(ret, LV_COLOR_GET_G(color) * 36); /*(2^8 - 1)/(2^3 - 1) = 255/7 = 36*/
 386:..\..\..\arduinoLCD\test\Pain Drain\libraries\lvgl\src\draw\../misc/lv_color.h ****     LV_COLOR_SET_B32(ret, LV_COLOR_GET_B(color) * 85); /*(2^8 - 1)/(2^2 - 1) = 255/3 = 85*/
 387:..\..\..\arduinoLCD\test\Pain Drain\libraries\lvgl\src\draw\../misc/lv_color.h ****     LV_COLOR_SET_A32(ret, 0xFF);
 388:..\..\..\arduinoLCD\test\Pain Drain\libraries\lvgl\src\draw\../misc/lv_color.h ****     return ret.full;
 389:..\..\..\arduinoLCD\test\Pain Drain\libraries\lvgl\src\draw\../misc/lv_color.h **** #elif LV_COLOR_DEPTH == 16
 390:..\..\..\arduinoLCD\test\Pain Drain\libraries\lvgl\src\draw\../misc/lv_color.h ****     /**
 391:..\..\..\arduinoLCD\test\Pain Drain\libraries\lvgl\src\draw\../misc/lv_color.h ****      * The floating point math for conversion is:
 392:..\..\..\arduinoLCD\test\Pain Drain\libraries\lvgl\src\draw\../misc/lv_color.h ****      *  valueto = valuefrom * ( (2^bitsto - 1) / (float)(2^bitsfrom - 1) )
 393:..\..\..\arduinoLCD\test\Pain Drain\libraries\lvgl\src\draw\../misc/lv_color.h ****      * The faster integer math for conversion is:
 394:..\..\..\arduinoLCD\test\Pain Drain\libraries\lvgl\src\draw\../misc/lv_color.h ****      *  valueto = ( valuefrom * multiplier + adder ) >> divisor
 395:..\..\..\arduinoLCD\test\Pain Drain\libraries\lvgl\src\draw\../misc/lv_color.h ****      *   multiplier = FLOOR( ( (2^bitsto - 1) << divisor ) / (float)(2^bitsfrom - 1) )
 396:..\..\..\arduinoLCD\test\Pain Drain\libraries\lvgl\src\draw\../misc/lv_color.h ****      *
 397:..\..\..\arduinoLCD\test\Pain Drain\libraries\lvgl\src\draw\../misc/lv_color.h ****      * Find the first divisor where ( adder >> divisor ) <= 0
 398:..\..\..\arduinoLCD\test\Pain Drain\libraries\lvgl\src\draw\../misc/lv_color.h ****      *
 399:..\..\..\arduinoLCD\test\Pain Drain\libraries\lvgl\src\draw\../misc/lv_color.h ****      * 5-bit to 8-bit: ( 31 * multiplier + adder ) >> divisor = 255
 400:..\..\..\arduinoLCD\test\Pain Drain\libraries\lvgl\src\draw\../misc/lv_color.h ****      * divisor  multiplier  adder  min (0)  max (31)
 401:..\..\..\arduinoLCD\test\Pain Drain\libraries\lvgl\src\draw\../misc/lv_color.h ****      *       0           8      7        7       255
 402:..\..\..\arduinoLCD\test\Pain Drain\libraries\lvgl\src\draw\../misc/lv_color.h ****      *       1          16     14        7       255
 403:..\..\..\arduinoLCD\test\Pain Drain\libraries\lvgl\src\draw\../misc/lv_color.h ****      *       2          32     28        7       255
 404:..\..\..\arduinoLCD\test\Pain Drain\libraries\lvgl\src\draw\../misc/lv_color.h ****      *       3          65     25        3       255
 405:..\..\..\arduinoLCD\test\Pain Drain\libraries\lvgl\src\draw\../misc/lv_color.h ****      *       4         131     19        1       255
 406:..\..\..\arduinoLCD\test\Pain Drain\libraries\lvgl\src\draw\../misc/lv_color.h ****      *       5         263      7        0       255
 407:..\..\..\arduinoLCD\test\Pain Drain\libraries\lvgl\src\draw\../misc/lv_color.h ****      *
 408:..\..\..\arduinoLCD\test\Pain Drain\libraries\lvgl\src\draw\../misc/lv_color.h ****      * 6-bit to 8-bit: 255 = ( 63 * multiplier + adder ) >> divisor
 409:..\..\..\arduinoLCD\test\Pain Drain\libraries\lvgl\src\draw\../misc/lv_color.h ****      * divisor  multiplier  adder  min (0)  max (63)
 410:..\..\..\arduinoLCD\test\Pain Drain\libraries\lvgl\src\draw\../misc/lv_color.h ****      *       0           4      3        3       255
 411:..\..\..\arduinoLCD\test\Pain Drain\libraries\lvgl\src\draw\../misc/lv_color.h ****      *       1           8      6        3       255
 412:..\..\..\arduinoLCD\test\Pain Drain\libraries\lvgl\src\draw\../misc/lv_color.h ****      *       2          16     12        3       255
 413:..\..\..\arduinoLCD\test\Pain Drain\libraries\lvgl\src\draw\../misc/lv_color.h ****      *       3          32     24        3       255
 414:..\..\..\arduinoLCD\test\Pain Drain\libraries\lvgl\src\draw\../misc/lv_color.h ****      *       4          64     48        3       255
 415:..\..\..\arduinoLCD\test\Pain Drain\libraries\lvgl\src\draw\../misc/lv_color.h ****      *       5         129     33        1       255
 416:..\..\..\arduinoLCD\test\Pain Drain\libraries\lvgl\src\draw\../misc/lv_color.h ****      *       6         259      3        0       255
 417:..\..\..\arduinoLCD\test\Pain Drain\libraries\lvgl\src\draw\../misc/lv_color.h ****      */
 418:..\..\..\arduinoLCD\test\Pain Drain\libraries\lvgl\src\draw\../misc/lv_color.h **** 
 419:..\..\..\arduinoLCD\test\Pain Drain\libraries\lvgl\src\draw\../misc/lv_color.h ****     lv_color32_t ret;
 420:..\..\..\arduinoLCD\test\Pain Drain\libraries\lvgl\src\draw\../misc/lv_color.h ****     LV_COLOR_SET_R32(ret, (LV_COLOR_GET_R(color) * 263 + 7) >> 5);
 421:..\..\..\arduinoLCD\test\Pain Drain\libraries\lvgl\src\draw\../misc/lv_color.h ****     LV_COLOR_SET_G32(ret, (LV_COLOR_GET_G(color) * 259 + 3) >> 6);
 422:..\..\..\arduinoLCD\test\Pain Drain\libraries\lvgl\src\draw\../misc/lv_color.h ****     LV_COLOR_SET_B32(ret, (LV_COLOR_GET_B(color) * 263 + 7) >> 5);
ARM GAS  C:\Users\haske\AppData\Local\Temp\ccHSLozV.s 			page 31


 423:..\..\..\arduinoLCD\test\Pain Drain\libraries\lvgl\src\draw\../misc/lv_color.h ****     LV_COLOR_SET_A32(ret, 0xFF);
 424:..\..\..\arduinoLCD\test\Pain Drain\libraries\lvgl\src\draw\../misc/lv_color.h ****     return ret.full;
 425:..\..\..\arduinoLCD\test\Pain Drain\libraries\lvgl\src\draw\../misc/lv_color.h **** #elif LV_COLOR_DEPTH == 32
 426:..\..\..\arduinoLCD\test\Pain Drain\libraries\lvgl\src\draw\../misc/lv_color.h ****     return color.full;
 427:..\..\..\arduinoLCD\test\Pain Drain\libraries\lvgl\src\draw\../misc/lv_color.h **** #endif
 428:..\..\..\arduinoLCD\test\Pain Drain\libraries\lvgl\src\draw\../misc/lv_color.h **** }
 429:..\..\..\arduinoLCD\test\Pain Drain\libraries\lvgl\src\draw\../misc/lv_color.h **** 
 430:..\..\..\arduinoLCD\test\Pain Drain\libraries\lvgl\src\draw\../misc/lv_color.h **** //! @cond Doxygen_Suppress
 431:..\..\..\arduinoLCD\test\Pain Drain\libraries\lvgl\src\draw\../misc/lv_color.h **** 
 432:..\..\..\arduinoLCD\test\Pain Drain\libraries\lvgl\src\draw\../misc/lv_color.h **** /**
 433:..\..\..\arduinoLCD\test\Pain Drain\libraries\lvgl\src\draw\../misc/lv_color.h ****  * Mix two colors with a given ratio.
 434:..\..\..\arduinoLCD\test\Pain Drain\libraries\lvgl\src\draw\../misc/lv_color.h ****  * @param c1 the first color to mix (usually the foreground)
 435:..\..\..\arduinoLCD\test\Pain Drain\libraries\lvgl\src\draw\../misc/lv_color.h ****  * @param c2 the second color to mix (usually the background)
 436:..\..\..\arduinoLCD\test\Pain Drain\libraries\lvgl\src\draw\../misc/lv_color.h ****  * @param mix The ratio of the colors. 0: full `c2`, 255: full `c1`, 127: half `c1` and half`c2`
 437:..\..\..\arduinoLCD\test\Pain Drain\libraries\lvgl\src\draw\../misc/lv_color.h ****  * @return the mixed color
 438:..\..\..\arduinoLCD\test\Pain Drain\libraries\lvgl\src\draw\../misc/lv_color.h ****  */
 439:..\..\..\arduinoLCD\test\Pain Drain\libraries\lvgl\src\draw\../misc/lv_color.h **** LV_ATTRIBUTE_FAST_MEM static inline lv_color_t lv_color_mix(lv_color_t c1, lv_color_t c2, uint8_t m
 440:..\..\..\arduinoLCD\test\Pain Drain\libraries\lvgl\src\draw\../misc/lv_color.h **** {
 441:..\..\..\arduinoLCD\test\Pain Drain\libraries\lvgl\src\draw\../misc/lv_color.h ****     lv_color_t ret;
 442:..\..\..\arduinoLCD\test\Pain Drain\libraries\lvgl\src\draw\../misc/lv_color.h **** 
 443:..\..\..\arduinoLCD\test\Pain Drain\libraries\lvgl\src\draw\../misc/lv_color.h **** #if LV_COLOR_DEPTH == 16 && LV_COLOR_16_SWAP == 0 && LV_COLOR_MIX_ROUND_OFS == 0
 444:..\..\..\arduinoLCD\test\Pain Drain\libraries\lvgl\src\draw\../misc/lv_color.h ****     /*Source: https://stackoverflow.com/a/50012418/1999969*/
 445:..\..\..\arduinoLCD\test\Pain Drain\libraries\lvgl\src\draw\../misc/lv_color.h ****     mix = (uint32_t)((uint32_t)mix + 4) >> 3;
 446:..\..\..\arduinoLCD\test\Pain Drain\libraries\lvgl\src\draw\../misc/lv_color.h ****     uint32_t bg = (uint32_t)((uint32_t)c2.full | ((uint32_t)c2.full << 16)) &
 447:..\..\..\arduinoLCD\test\Pain Drain\libraries\lvgl\src\draw\../misc/lv_color.h ****                   0x7E0F81F; /*0b00000111111000001111100000011111*/
 448:..\..\..\arduinoLCD\test\Pain Drain\libraries\lvgl\src\draw\../misc/lv_color.h ****     uint32_t fg = (uint32_t)((uint32_t)c1.full | ((uint32_t)c1.full << 16)) & 0x7E0F81F;
 449:..\..\..\arduinoLCD\test\Pain Drain\libraries\lvgl\src\draw\../misc/lv_color.h ****     uint32_t result = ((((fg - bg) * mix) >> 5) + bg) & 0x7E0F81F;
 450:..\..\..\arduinoLCD\test\Pain Drain\libraries\lvgl\src\draw\../misc/lv_color.h ****     ret.full = (uint16_t)((result >> 16) | result);
 451:..\..\..\arduinoLCD\test\Pain Drain\libraries\lvgl\src\draw\../misc/lv_color.h **** #elif LV_COLOR_DEPTH != 1
 452:..\..\..\arduinoLCD\test\Pain Drain\libraries\lvgl\src\draw\../misc/lv_color.h ****     /*LV_COLOR_DEPTH == 8, 16 or 32*/
 453:..\..\..\arduinoLCD\test\Pain Drain\libraries\lvgl\src\draw\../misc/lv_color.h ****     LV_COLOR_SET_R(ret, LV_UDIV255((uint16_t)LV_COLOR_GET_R(c1) * mix + LV_COLOR_GET_R(c2) *
 454:..\..\..\arduinoLCD\test\Pain Drain\libraries\lvgl\src\draw\../misc/lv_color.h ****                                    (255 - mix) + LV_COLOR_MIX_ROUND_OFS));
 455:..\..\..\arduinoLCD\test\Pain Drain\libraries\lvgl\src\draw\../misc/lv_color.h ****     LV_COLOR_SET_G(ret, LV_UDIV255((uint16_t)LV_COLOR_GET_G(c1) * mix + LV_COLOR_GET_G(c2) *
 456:..\..\..\arduinoLCD\test\Pain Drain\libraries\lvgl\src\draw\../misc/lv_color.h ****                                    (255 - mix) + LV_COLOR_MIX_ROUND_OFS));
 457:..\..\..\arduinoLCD\test\Pain Drain\libraries\lvgl\src\draw\../misc/lv_color.h ****     LV_COLOR_SET_B(ret, LV_UDIV255((uint16_t)LV_COLOR_GET_B(c1) * mix + LV_COLOR_GET_B(c2) *
 458:..\..\..\arduinoLCD\test\Pain Drain\libraries\lvgl\src\draw\../misc/lv_color.h ****                                    (255 - mix) + LV_COLOR_MIX_ROUND_OFS));
 459:..\..\..\arduinoLCD\test\Pain Drain\libraries\lvgl\src\draw\../misc/lv_color.h ****     LV_COLOR_SET_A(ret, 0xFF);
 460:..\..\..\arduinoLCD\test\Pain Drain\libraries\lvgl\src\draw\../misc/lv_color.h **** #else
 461:..\..\..\arduinoLCD\test\Pain Drain\libraries\lvgl\src\draw\../misc/lv_color.h ****     /*LV_COLOR_DEPTH == 1*/
 462:..\..\..\arduinoLCD\test\Pain Drain\libraries\lvgl\src\draw\../misc/lv_color.h ****     ret.full = mix > LV_OPA_50 ? c1.full : c2.full;
 463:..\..\..\arduinoLCD\test\Pain Drain\libraries\lvgl\src\draw\../misc/lv_color.h **** #endif
 464:..\..\..\arduinoLCD\test\Pain Drain\libraries\lvgl\src\draw\../misc/lv_color.h **** 
 465:..\..\..\arduinoLCD\test\Pain Drain\libraries\lvgl\src\draw\../misc/lv_color.h ****     return ret;
 466:..\..\..\arduinoLCD\test\Pain Drain\libraries\lvgl\src\draw\../misc/lv_color.h **** }
 467:..\..\..\arduinoLCD\test\Pain Drain\libraries\lvgl\src\draw\../misc/lv_color.h **** 
 468:..\..\..\arduinoLCD\test\Pain Drain\libraries\lvgl\src\draw\../misc/lv_color.h **** LV_ATTRIBUTE_FAST_MEM static inline void lv_color_premult(lv_color_t c, uint8_t mix, uint16_t * out
 469:..\..\..\arduinoLCD\test\Pain Drain\libraries\lvgl\src\draw\../misc/lv_color.h **** {
 470:..\..\..\arduinoLCD\test\Pain Drain\libraries\lvgl\src\draw\../misc/lv_color.h **** #if LV_COLOR_DEPTH != 1
 471:..\..\..\arduinoLCD\test\Pain Drain\libraries\lvgl\src\draw\../misc/lv_color.h ****     out[0] = (uint16_t)LV_COLOR_GET_R(c) * mix;
 472:..\..\..\arduinoLCD\test\Pain Drain\libraries\lvgl\src\draw\../misc/lv_color.h ****     out[1] = (uint16_t)LV_COLOR_GET_G(c) * mix;
 473:..\..\..\arduinoLCD\test\Pain Drain\libraries\lvgl\src\draw\../misc/lv_color.h ****     out[2] = (uint16_t)LV_COLOR_GET_B(c) * mix;
 474:..\..\..\arduinoLCD\test\Pain Drain\libraries\lvgl\src\draw\../misc/lv_color.h **** #else
 475:..\..\..\arduinoLCD\test\Pain Drain\libraries\lvgl\src\draw\../misc/lv_color.h ****     (void) mix;
 476:..\..\..\arduinoLCD\test\Pain Drain\libraries\lvgl\src\draw\../misc/lv_color.h ****     /*Pre-multiplication can't be used with 1 bpp*/
 477:..\..\..\arduinoLCD\test\Pain Drain\libraries\lvgl\src\draw\../misc/lv_color.h ****     out[0] = LV_COLOR_GET_R(c);
 478:..\..\..\arduinoLCD\test\Pain Drain\libraries\lvgl\src\draw\../misc/lv_color.h ****     out[1] = LV_COLOR_GET_G(c);
 479:..\..\..\arduinoLCD\test\Pain Drain\libraries\lvgl\src\draw\../misc/lv_color.h ****     out[2] = LV_COLOR_GET_B(c);
ARM GAS  C:\Users\haske\AppData\Local\Temp\ccHSLozV.s 			page 32


 480:..\..\..\arduinoLCD\test\Pain Drain\libraries\lvgl\src\draw\../misc/lv_color.h **** #endif
 481:..\..\..\arduinoLCD\test\Pain Drain\libraries\lvgl\src\draw\../misc/lv_color.h **** 
 482:..\..\..\arduinoLCD\test\Pain Drain\libraries\lvgl\src\draw\../misc/lv_color.h **** }
 483:..\..\..\arduinoLCD\test\Pain Drain\libraries\lvgl\src\draw\../misc/lv_color.h **** 
 484:..\..\..\arduinoLCD\test\Pain Drain\libraries\lvgl\src\draw\../misc/lv_color.h **** /**
 485:..\..\..\arduinoLCD\test\Pain Drain\libraries\lvgl\src\draw\../misc/lv_color.h ****  * Mix two colors with a given ratio. It runs faster then `lv_color_mix` but requires some pre comp
 486:..\..\..\arduinoLCD\test\Pain Drain\libraries\lvgl\src\draw\../misc/lv_color.h ****  * @param premult_c1 The first color. Should be preprocessed with `lv_color_premult(c1)`
 487:..\..\..\arduinoLCD\test\Pain Drain\libraries\lvgl\src\draw\../misc/lv_color.h ****  * @param c2 The second color. As it is no pre computation required on it
 488:..\..\..\arduinoLCD\test\Pain Drain\libraries\lvgl\src\draw\../misc/lv_color.h ****  * @param mix The ratio of the colors. 0: full `c1`, 255: full `c2`, 127: half `c1` and half `c2`.
 489:..\..\..\arduinoLCD\test\Pain Drain\libraries\lvgl\src\draw\../misc/lv_color.h ****  *            Should be modified like mix = `255 - mix`
 490:..\..\..\arduinoLCD\test\Pain Drain\libraries\lvgl\src\draw\../misc/lv_color.h ****  * @return the mixed color
 491:..\..\..\arduinoLCD\test\Pain Drain\libraries\lvgl\src\draw\../misc/lv_color.h ****  * @note 255 won't give clearly `c1`.
 492:..\..\..\arduinoLCD\test\Pain Drain\libraries\lvgl\src\draw\../misc/lv_color.h ****  */
 493:..\..\..\arduinoLCD\test\Pain Drain\libraries\lvgl\src\draw\../misc/lv_color.h **** LV_ATTRIBUTE_FAST_MEM static inline lv_color_t lv_color_mix_premult(uint16_t * premult_c1, lv_color
 494:..\..\..\arduinoLCD\test\Pain Drain\libraries\lvgl\src\draw\../misc/lv_color.h **** {
 495:..\..\..\arduinoLCD\test\Pain Drain\libraries\lvgl\src\draw\../misc/lv_color.h ****     lv_color_t ret;
 496:..\..\..\arduinoLCD\test\Pain Drain\libraries\lvgl\src\draw\../misc/lv_color.h **** #if LV_COLOR_DEPTH != 1
 497:..\..\..\arduinoLCD\test\Pain Drain\libraries\lvgl\src\draw\../misc/lv_color.h ****     /*LV_COLOR_DEPTH == 8 or 32*/
 498:..\..\..\arduinoLCD\test\Pain Drain\libraries\lvgl\src\draw\../misc/lv_color.h ****     LV_COLOR_SET_R(ret, LV_UDIV255(premult_c1[0] + LV_COLOR_GET_R(c2) * mix + LV_COLOR_MIX_ROUND_OF
 499:..\..\..\arduinoLCD\test\Pain Drain\libraries\lvgl\src\draw\../misc/lv_color.h ****     LV_COLOR_SET_G(ret, LV_UDIV255(premult_c1[1] + LV_COLOR_GET_G(c2) * mix + LV_COLOR_MIX_ROUND_OF
 500:..\..\..\arduinoLCD\test\Pain Drain\libraries\lvgl\src\draw\../misc/lv_color.h ****     LV_COLOR_SET_B(ret, LV_UDIV255(premult_c1[2] + LV_COLOR_GET_B(c2) * mix + LV_COLOR_MIX_ROUND_OF
 501:..\..\..\arduinoLCD\test\Pain Drain\libraries\lvgl\src\draw\../misc/lv_color.h ****     LV_COLOR_SET_A(ret, 0xFF);
 502:..\..\..\arduinoLCD\test\Pain Drain\libraries\lvgl\src\draw\../misc/lv_color.h **** #else
 503:..\..\..\arduinoLCD\test\Pain Drain\libraries\lvgl\src\draw\../misc/lv_color.h ****     /*LV_COLOR_DEPTH == 1*/
 504:..\..\..\arduinoLCD\test\Pain Drain\libraries\lvgl\src\draw\../misc/lv_color.h ****     /*Restore color1*/
 505:..\..\..\arduinoLCD\test\Pain Drain\libraries\lvgl\src\draw\../misc/lv_color.h ****     lv_color_t c1;
 506:..\..\..\arduinoLCD\test\Pain Drain\libraries\lvgl\src\draw\../misc/lv_color.h ****     LV_COLOR_SET_R(c1, premult_c1[0]);
 507:..\..\..\arduinoLCD\test\Pain Drain\libraries\lvgl\src\draw\../misc/lv_color.h ****     LV_COLOR_SET_G(c1, premult_c1[1]);
 508:..\..\..\arduinoLCD\test\Pain Drain\libraries\lvgl\src\draw\../misc/lv_color.h ****     LV_COLOR_SET_B(c1, premult_c1[2]);
 509:..\..\..\arduinoLCD\test\Pain Drain\libraries\lvgl\src\draw\../misc/lv_color.h ****     ret.full = mix > LV_OPA_50 ? c2.full : c1.full;
 510:..\..\..\arduinoLCD\test\Pain Drain\libraries\lvgl\src\draw\../misc/lv_color.h **** #endif
 511:..\..\..\arduinoLCD\test\Pain Drain\libraries\lvgl\src\draw\../misc/lv_color.h **** 
 512:..\..\..\arduinoLCD\test\Pain Drain\libraries\lvgl\src\draw\../misc/lv_color.h ****     return ret;
 513:..\..\..\arduinoLCD\test\Pain Drain\libraries\lvgl\src\draw\../misc/lv_color.h **** }
 514:..\..\..\arduinoLCD\test\Pain Drain\libraries\lvgl\src\draw\../misc/lv_color.h **** 
 515:..\..\..\arduinoLCD\test\Pain Drain\libraries\lvgl\src\draw\../misc/lv_color.h **** /**
 516:..\..\..\arduinoLCD\test\Pain Drain\libraries\lvgl\src\draw\../misc/lv_color.h ****  * Mix two colors. Both color can have alpha value.
 517:..\..\..\arduinoLCD\test\Pain Drain\libraries\lvgl\src\draw\../misc/lv_color.h ****  * @param bg_color background color
 518:..\..\..\arduinoLCD\test\Pain Drain\libraries\lvgl\src\draw\../misc/lv_color.h ****  * @param bg_opa alpha of the background color
 519:..\..\..\arduinoLCD\test\Pain Drain\libraries\lvgl\src\draw\../misc/lv_color.h ****  * @param fg_color foreground color
 520:..\..\..\arduinoLCD\test\Pain Drain\libraries\lvgl\src\draw\../misc/lv_color.h ****  * @param fg_opa alpha of the foreground color
 521:..\..\..\arduinoLCD\test\Pain Drain\libraries\lvgl\src\draw\../misc/lv_color.h ****  * @param res_color the result color
 522:..\..\..\arduinoLCD\test\Pain Drain\libraries\lvgl\src\draw\../misc/lv_color.h ****  * @param res_opa the result opacity
 523:..\..\..\arduinoLCD\test\Pain Drain\libraries\lvgl\src\draw\../misc/lv_color.h ****  */
 524:..\..\..\arduinoLCD\test\Pain Drain\libraries\lvgl\src\draw\../misc/lv_color.h **** LV_ATTRIBUTE_FAST_MEM static inline void lv_color_mix_with_alpha(lv_color_t bg_color, lv_opa_t bg_o
 525:..\..\..\arduinoLCD\test\Pain Drain\libraries\lvgl\src\draw\../misc/lv_color.h ****                                                                  lv_color_t fg_color, lv_opa_t fg_o
 526:..\..\..\arduinoLCD\test\Pain Drain\libraries\lvgl\src\draw\../misc/lv_color.h ****                                                                  lv_color_t * res_color, lv_opa_t *
 527:..\..\..\arduinoLCD\test\Pain Drain\libraries\lvgl\src\draw\../misc/lv_color.h **** {
 528:..\..\..\arduinoLCD\test\Pain Drain\libraries\lvgl\src\draw\../misc/lv_color.h ****     /*Pick the foreground if it's fully opaque or the Background is fully transparent*/
 529:..\..\..\arduinoLCD\test\Pain Drain\libraries\lvgl\src\draw\../misc/lv_color.h ****     if(fg_opa >= LV_OPA_MAX || bg_opa <= LV_OPA_MIN) {
 530:..\..\..\arduinoLCD\test\Pain Drain\libraries\lvgl\src\draw\../misc/lv_color.h ****         res_color->full = fg_color.full;
 531:..\..\..\arduinoLCD\test\Pain Drain\libraries\lvgl\src\draw\../misc/lv_color.h ****         *res_opa = fg_opa;
 532:..\..\..\arduinoLCD\test\Pain Drain\libraries\lvgl\src\draw\../misc/lv_color.h ****     }
 533:..\..\..\arduinoLCD\test\Pain Drain\libraries\lvgl\src\draw\../misc/lv_color.h ****     /*Transparent foreground: use the Background*/
 534:..\..\..\arduinoLCD\test\Pain Drain\libraries\lvgl\src\draw\../misc/lv_color.h ****     else if(fg_opa <= LV_OPA_MIN) {
 535:..\..\..\arduinoLCD\test\Pain Drain\libraries\lvgl\src\draw\../misc/lv_color.h ****         res_color->full = bg_color.full;
 536:..\..\..\arduinoLCD\test\Pain Drain\libraries\lvgl\src\draw\../misc/lv_color.h ****         *res_opa = bg_opa;
ARM GAS  C:\Users\haske\AppData\Local\Temp\ccHSLozV.s 			page 33


 537:..\..\..\arduinoLCD\test\Pain Drain\libraries\lvgl\src\draw\../misc/lv_color.h ****     }
 538:..\..\..\arduinoLCD\test\Pain Drain\libraries\lvgl\src\draw\../misc/lv_color.h ****     /*Opaque background: use simple mix*/
 539:..\..\..\arduinoLCD\test\Pain Drain\libraries\lvgl\src\draw\../misc/lv_color.h ****     else if(bg_opa >= LV_OPA_MAX) {
 540:..\..\..\arduinoLCD\test\Pain Drain\libraries\lvgl\src\draw\../misc/lv_color.h ****         *res_color = lv_color_mix(fg_color, bg_color, fg_opa);
 541:..\..\..\arduinoLCD\test\Pain Drain\libraries\lvgl\src\draw\../misc/lv_color.h ****         *res_opa = LV_OPA_COVER;
 542:..\..\..\arduinoLCD\test\Pain Drain\libraries\lvgl\src\draw\../misc/lv_color.h ****     }
 543:..\..\..\arduinoLCD\test\Pain Drain\libraries\lvgl\src\draw\../misc/lv_color.h ****     /*Both colors have alpha. Expensive calculation need to be applied*/
 544:..\..\..\arduinoLCD\test\Pain Drain\libraries\lvgl\src\draw\../misc/lv_color.h ****     else {
 545:..\..\..\arduinoLCD\test\Pain Drain\libraries\lvgl\src\draw\../misc/lv_color.h ****         /*Save the parameters and the result. If they will be asked again don't compute again*/
 546:..\..\..\arduinoLCD\test\Pain Drain\libraries\lvgl\src\draw\../misc/lv_color.h ****         static lv_opa_t fg_opa_save     = 0;
 547:..\..\..\arduinoLCD\test\Pain Drain\libraries\lvgl\src\draw\../misc/lv_color.h ****         static lv_opa_t bg_opa_save     = 0;
 548:..\..\..\arduinoLCD\test\Pain Drain\libraries\lvgl\src\draw\../misc/lv_color.h ****         static lv_color_t fg_color_save = _LV_COLOR_ZERO_INITIALIZER;
 549:..\..\..\arduinoLCD\test\Pain Drain\libraries\lvgl\src\draw\../misc/lv_color.h ****         static lv_color_t bg_color_save = _LV_COLOR_ZERO_INITIALIZER;
 550:..\..\..\arduinoLCD\test\Pain Drain\libraries\lvgl\src\draw\../misc/lv_color.h ****         static lv_color_t res_color_saved = _LV_COLOR_ZERO_INITIALIZER;
 551:..\..\..\arduinoLCD\test\Pain Drain\libraries\lvgl\src\draw\../misc/lv_color.h ****         static lv_opa_t res_opa_saved = 0;
 552:..\..\..\arduinoLCD\test\Pain Drain\libraries\lvgl\src\draw\../misc/lv_color.h **** 
 553:..\..\..\arduinoLCD\test\Pain Drain\libraries\lvgl\src\draw\../misc/lv_color.h ****         if(fg_opa != fg_opa_save || bg_opa != bg_opa_save || fg_color.full != fg_color_save.full ||
 554:..\..\..\arduinoLCD\test\Pain Drain\libraries\lvgl\src\draw\../misc/lv_color.h ****            bg_color.full != bg_color_save.full) {
 555:..\..\..\arduinoLCD\test\Pain Drain\libraries\lvgl\src\draw\../misc/lv_color.h ****             fg_opa_save        = fg_opa;
 556:..\..\..\arduinoLCD\test\Pain Drain\libraries\lvgl\src\draw\../misc/lv_color.h ****             bg_opa_save        = bg_opa;
 557:..\..\..\arduinoLCD\test\Pain Drain\libraries\lvgl\src\draw\../misc/lv_color.h ****             fg_color_save.full = fg_color.full;
 558:..\..\..\arduinoLCD\test\Pain Drain\libraries\lvgl\src\draw\../misc/lv_color.h ****             bg_color_save.full = bg_color.full;
 559:..\..\..\arduinoLCD\test\Pain Drain\libraries\lvgl\src\draw\../misc/lv_color.h ****             /*Info:
 560:..\..\..\arduinoLCD\test\Pain Drain\libraries\lvgl\src\draw\../misc/lv_color.h ****              * https://en.wikipedia.org/wiki/Alpha_compositing#Analytical_derivation_of_the_over_op
 561:..\..\..\arduinoLCD\test\Pain Drain\libraries\lvgl\src\draw\../misc/lv_color.h ****             res_opa_saved = 255 - ((uint16_t)((uint16_t)(255 - fg_opa) * (255 - bg_opa)) >> 8);
 562:..\..\..\arduinoLCD\test\Pain Drain\libraries\lvgl\src\draw\../misc/lv_color.h ****             LV_ASSERT(res_opa_saved != 0);
 563:..\..\..\arduinoLCD\test\Pain Drain\libraries\lvgl\src\draw\../misc/lv_color.h ****             lv_opa_t ratio = (uint16_t)((uint16_t)fg_opa * 255) / res_opa_saved;
 564:..\..\..\arduinoLCD\test\Pain Drain\libraries\lvgl\src\draw\../misc/lv_color.h ****             res_color_saved = lv_color_mix(fg_color, bg_color, ratio);
 565:..\..\..\arduinoLCD\test\Pain Drain\libraries\lvgl\src\draw\../misc/lv_color.h **** 
 566:..\..\..\arduinoLCD\test\Pain Drain\libraries\lvgl\src\draw\../misc/lv_color.h ****         }
 567:..\..\..\arduinoLCD\test\Pain Drain\libraries\lvgl\src\draw\../misc/lv_color.h **** 
 568:..\..\..\arduinoLCD\test\Pain Drain\libraries\lvgl\src\draw\../misc/lv_color.h ****         res_color->full = res_color_saved.full;
 569:..\..\..\arduinoLCD\test\Pain Drain\libraries\lvgl\src\draw\../misc/lv_color.h ****         *res_opa = res_opa_saved;
 570:..\..\..\arduinoLCD\test\Pain Drain\libraries\lvgl\src\draw\../misc/lv_color.h ****     }
 571:..\..\..\arduinoLCD\test\Pain Drain\libraries\lvgl\src\draw\../misc/lv_color.h **** }
 572:..\..\..\arduinoLCD\test\Pain Drain\libraries\lvgl\src\draw\../misc/lv_color.h **** 
 573:..\..\..\arduinoLCD\test\Pain Drain\libraries\lvgl\src\draw\../misc/lv_color.h **** //! @endcond
 574:..\..\..\arduinoLCD\test\Pain Drain\libraries\lvgl\src\draw\../misc/lv_color.h **** 
 575:..\..\..\arduinoLCD\test\Pain Drain\libraries\lvgl\src\draw\../misc/lv_color.h **** /**
 576:..\..\..\arduinoLCD\test\Pain Drain\libraries\lvgl\src\draw\../misc/lv_color.h ****  * Get the brightness of a color
 577:..\..\..\arduinoLCD\test\Pain Drain\libraries\lvgl\src\draw\../misc/lv_color.h ****  * @param color a color
 578:..\..\..\arduinoLCD\test\Pain Drain\libraries\lvgl\src\draw\../misc/lv_color.h ****  * @return the brightness [0..255]
 579:..\..\..\arduinoLCD\test\Pain Drain\libraries\lvgl\src\draw\../misc/lv_color.h ****  */
 580:..\..\..\arduinoLCD\test\Pain Drain\libraries\lvgl\src\draw\../misc/lv_color.h **** static inline uint8_t lv_color_brightness(lv_color_t color)
 581:..\..\..\arduinoLCD\test\Pain Drain\libraries\lvgl\src\draw\../misc/lv_color.h **** {
 582:..\..\..\arduinoLCD\test\Pain Drain\libraries\lvgl\src\draw\../misc/lv_color.h ****     lv_color32_t c32;
 583:..\..\..\arduinoLCD\test\Pain Drain\libraries\lvgl\src\draw\../misc/lv_color.h ****     c32.full        = lv_color_to32(color);
 584:..\..\..\arduinoLCD\test\Pain Drain\libraries\lvgl\src\draw\../misc/lv_color.h ****     uint16_t bright = (uint16_t)(3u * LV_COLOR_GET_R32(c32) + LV_COLOR_GET_B32(c32) + 4u * LV_COLOR
 585:..\..\..\arduinoLCD\test\Pain Drain\libraries\lvgl\src\draw\../misc/lv_color.h ****     return (uint8_t)(bright >> 3);
 586:..\..\..\arduinoLCD\test\Pain Drain\libraries\lvgl\src\draw\../misc/lv_color.h **** }
 587:..\..\..\arduinoLCD\test\Pain Drain\libraries\lvgl\src\draw\../misc/lv_color.h **** 
 588:..\..\..\arduinoLCD\test\Pain Drain\libraries\lvgl\src\draw\../misc/lv_color.h **** static inline lv_color_t lv_color_make(uint8_t r, uint8_t g, uint8_t b)
 589:..\..\..\arduinoLCD\test\Pain Drain\libraries\lvgl\src\draw\../misc/lv_color.h **** {
 590:..\..\..\arduinoLCD\test\Pain Drain\libraries\lvgl\src\draw\../misc/lv_color.h ****     return _LV_COLOR_MAKE_TYPE_HELPER LV_COLOR_MAKE(r, g, b);
 519              		.loc 3 590 0 discriminator 3
 520 0132 C008     		lsrs	r0, r0, #3
 521              	.LVL65:
ARM GAS  C:\Users\haske\AppData\Local\Temp\ccHSLozV.s 			page 34


 522 0134 9208     		lsrs	r2, r2, #2
 523              	.LVL66:
 524 0136 DB08     		lsrs	r3, r3, #3
 525              	.LVL67:
 526 0138 60F30408 		bfi	r8, r0, #0, #5
 527 013c 62F34A18 		bfi	r8, r2, #5, #6
 528 0140 63F3CF28 		bfi	r8, r3, #11, #5
 529              	.LVL68:
 530              	.LBE25:
 531              	.LBE24:
 413:..\..\..\arduinoLCD\test\Pain Drain\libraries\lvgl\src\draw/lv_img_decoder.c ****                 user_data->opa[i]     = cur_color.ch.alpha;
 532              		.loc 1 413 0 discriminator 3
 533 0144 21F81480 		strh	r8, [r1, r4, lsl #1]	@ movhi
 414:..\..\..\arduinoLCD\test\Pain Drain\libraries\lvgl\src\draw/lv_img_decoder.c ****             }
 534              		.loc 1 414 0 discriminator 3
 535 0148 D9F81030 		ldr	r3, [r9, #16]
 536 014c 9DF80720 		ldrb	r2, [sp, #7]	@ zero_extendqisi2
 537 0150 1A55     		strb	r2, [r3, r4]
 411:..\..\..\arduinoLCD\test\Pain Drain\libraries\lvgl\src\draw/lv_img_decoder.c ****                 lv_fs_read(&user_data->f, &cur_color, sizeof(lv_color32_t), NULL);
 538              		.loc 1 411 0 discriminator 3
 539 0152 0134     		adds	r4, r4, #1
 540              	.LVL69:
 541              	.L44:
 411:..\..\..\arduinoLCD\test\Pain Drain\libraries\lvgl\src\draw/lv_img_decoder.c ****                 lv_fs_read(&user_data->f, &cur_color, sizeof(lv_color32_t), NULL);
 542              		.loc 1 411 0 is_stmt 0 discriminator 1
 543 0154 5445     		cmp	r4, r10
 544 0156 DDD3     		bcc	.L45
 545 0158 2FE0     		b	.L30
 546              	.LVL70:
 547              	.L43:
 548              	.LBE23:
 549              	.LBB26:
 419:..\..\..\arduinoLCD\test\Pain Drain\libraries\lvgl\src\draw/lv_img_decoder.c **** 
 550              		.loc 1 419 0 is_stmt 1
 551 015a 6368     		ldr	r3, [r4, #4]
 552 015c 9E68     		ldr	r6, [r3, #8]
 553              	.LVL71:
 422:..\..\..\arduinoLCD\test\Pain Drain\libraries\lvgl\src\draw/lv_img_decoder.c ****                 user_data->palette[i] = lv_color_make(palette_p[i].ch.red, palette_p[i].ch.green, p
 554              		.loc 1 422 0
 555 015e 0023     		movs	r3, #0
 556 0160 17E0     		b	.L46
 557              	.LVL72:
 558              	.L47:
 423:..\..\..\arduinoLCD\test\Pain Drain\libraries\lvgl\src\draw/lv_img_decoder.c ****                 user_data->opa[i]     = palette_p[i].ch.alpha;
 559              		.loc 1 423 0 discriminator 3
 560 0162 D9F80C00 		ldr	r0, [r9, #12]
 561 0166 06EB8302 		add	r2, r6, r3, lsl #2
 562 016a 9178     		ldrb	r1, [r2, #2]	@ zero_extendqisi2
 563 016c 5478     		ldrb	r4, [r2, #1]	@ zero_extendqisi2
 564 016e 16F82350 		ldrb	r5, [r6, r3, lsl #2]	@ zero_extendqisi2
 565              	.LVL73:
 566              	.LBB27:
 567              	.LBB28:
 568              		.loc 3 590 0 discriminator 3
 569 0172 ED08     		lsrs	r5, r5, #3
 570              	.LVL74:
 571 0174 A408     		lsrs	r4, r4, #2
ARM GAS  C:\Users\haske\AppData\Local\Temp\ccHSLozV.s 			page 35


 572              	.LVL75:
 573 0176 C908     		lsrs	r1, r1, #3
 574              	.LVL76:
 575 0178 65F30407 		bfi	r7, r5, #0, #5
 576 017c 64F34A17 		bfi	r7, r4, #5, #6
 577 0180 61F3CF27 		bfi	r7, r1, #11, #5
 578              	.LVL77:
 579              	.LBE28:
 580              	.LBE27:
 423:..\..\..\arduinoLCD\test\Pain Drain\libraries\lvgl\src\draw/lv_img_decoder.c ****                 user_data->opa[i]     = palette_p[i].ch.alpha;
 581              		.loc 1 423 0 discriminator 3
 582 0184 20F81370 		strh	r7, [r0, r3, lsl #1]	@ movhi
 424:..\..\..\arduinoLCD\test\Pain Drain\libraries\lvgl\src\draw/lv_img_decoder.c ****             }
 583              		.loc 1 424 0 discriminator 3
 584 0188 D9F81010 		ldr	r1, [r9, #16]
 585 018c D278     		ldrb	r2, [r2, #3]	@ zero_extendqisi2
 586 018e CA54     		strb	r2, [r1, r3]
 422:..\..\..\arduinoLCD\test\Pain Drain\libraries\lvgl\src\draw/lv_img_decoder.c ****                 user_data->palette[i] = lv_color_make(palette_p[i].ch.red, palette_p[i].ch.green, p
 587              		.loc 1 422 0 discriminator 3
 588 0190 0133     		adds	r3, r3, #1
 589              	.LVL78:
 590              	.L46:
 422:..\..\..\arduinoLCD\test\Pain Drain\libraries\lvgl\src\draw/lv_img_decoder.c ****                 user_data->palette[i] = lv_color_make(palette_p[i].ch.red, palette_p[i].ch.green, p
 591              		.loc 1 422 0 is_stmt 0 discriminator 1
 592 0192 5345     		cmp	r3, r10
 593 0194 E5D3     		bcc	.L47
 594              	.LBE26:
 428:..\..\..\arduinoLCD\test\Pain Drain\libraries\lvgl\src\draw/lv_img_decoder.c ****     }
 595              		.loc 1 428 0 is_stmt 1
 596 0196 0125     		movs	r5, #1
 597 0198 0FE0     		b	.L30
 598              	.LVL79:
 599              	.L33:
 600              	.LBE22:
 431:..\..\..\arduinoLCD\test\Pain Drain\libraries\lvgl\src\draw/lv_img_decoder.c ****         return LV_RES_OK; /*Nothing to process*/
 601              		.loc 1 431 0
 602 019a A0F10B03 		sub	r3, r0, #11
 603 019e DBB2     		uxtb	r3, r3
 604 01a0 022B     		cmp	r3, #2
 605 01a2 09D9     		bls	.L50
 437:..\..\..\arduinoLCD\test\Pain Drain\libraries\lvgl\src\draw/lv_img_decoder.c **** 
 606              		.loc 1 437 0
 607 01a4 2146     		mov	r1, r4
 608 01a6 3046     		mov	r0, r6
 609 01a8 FFF7FEFF 		bl	lv_img_decoder_built_in_close
 610              	.LVL80:
 440:..\..\..\arduinoLCD\test\Pain Drain\libraries\lvgl\src\draw/lv_img_decoder.c ****     }
 611              		.loc 1 440 0
 612 01ac 0025     		movs	r5, #0
 613 01ae 04E0     		b	.L30
 614              	.LVL81:
 615              	.L48:
 375:..\..\..\arduinoLCD\test\Pain Drain\libraries\lvgl\src\draw/lv_img_decoder.c ****         }
 616              		.loc 1 375 0
 617 01b0 0125     		movs	r5, #1
 618 01b2 02E0     		b	.L30
 619              	.LVL82:
ARM GAS  C:\Users\haske\AppData\Local\Temp\ccHSLozV.s 			page 36


 620              	.L49:
 621              	.LBB29:
 390:..\..\..\arduinoLCD\test\Pain Drain\libraries\lvgl\src\draw/lv_img_decoder.c ****             }
 622              		.loc 1 390 0
 623 01b4 0025     		movs	r5, #0
 624 01b6 00E0     		b	.L30
 625              	.LVL83:
 626              	.L50:
 627              	.LBE29:
 432:..\..\..\arduinoLCD\test\Pain Drain\libraries\lvgl\src\draw/lv_img_decoder.c ****     }
 628              		.loc 1 432 0
 629 01b8 0125     		movs	r5, #1
 630              	.LVL84:
 631              	.L30:
 442:..\..\..\arduinoLCD\test\Pain Drain\libraries\lvgl\src\draw/lv_img_decoder.c **** 
 632              		.loc 1 442 0
 633 01ba 2846     		mov	r0, r5
 634 01bc 04B0     		add	sp, sp, #16
 635              		.cfi_def_cfa_offset 32
 636              		@ sp needed
 637 01be BDE8F087 		pop	{r4, r5, r6, r7, r8, r9, r10, pc}
 638              	.L53:
 639 01c2 00BF     		.align	2
 640              	.L52:
 641 01c4 00000000 		.word	.LC2
 642              		.cfi_endproc
 643              	.LFE68:
 644              		.size	lv_img_decoder_built_in_open, .-lv_img_decoder_built_in_open
 645              		.section	.text.lv_img_decoder_built_in_line_true_color,"ax",%progbits
 646              		.align	2
 647              		.thumb
 648              		.thumb_func
 649              		.type	lv_img_decoder_built_in_line_true_color, %function
 650              	lv_img_decoder_built_in_line_true_color:
 651              	.LFB71:
 505:..\..\..\arduinoLCD\test\Pain Drain\libraries\lvgl\src\draw/lv_img_decoder.c ****     }
 506:..\..\..\arduinoLCD\test\Pain Drain\libraries\lvgl\src\draw/lv_img_decoder.c **** }
 507:..\..\..\arduinoLCD\test\Pain Drain\libraries\lvgl\src\draw/lv_img_decoder.c **** 
 508:..\..\..\arduinoLCD\test\Pain Drain\libraries\lvgl\src\draw/lv_img_decoder.c **** /**********************
 509:..\..\..\arduinoLCD\test\Pain Drain\libraries\lvgl\src\draw/lv_img_decoder.c ****  *   STATIC FUNCTIONS
 510:..\..\..\arduinoLCD\test\Pain Drain\libraries\lvgl\src\draw/lv_img_decoder.c ****  **********************/
 511:..\..\..\arduinoLCD\test\Pain Drain\libraries\lvgl\src\draw/lv_img_decoder.c **** 
 512:..\..\..\arduinoLCD\test\Pain Drain\libraries\lvgl\src\draw/lv_img_decoder.c **** static lv_res_t lv_img_decoder_built_in_line_true_color(lv_img_decoder_dsc_t * dsc, lv_coord_t x, l
 513:..\..\..\arduinoLCD\test\Pain Drain\libraries\lvgl\src\draw/lv_img_decoder.c ****                                                         lv_coord_t len, uint8_t * buf)
 514:..\..\..\arduinoLCD\test\Pain Drain\libraries\lvgl\src\draw/lv_img_decoder.c **** {
 652              		.loc 1 514 0
 653              		.cfi_startproc
 654              		@ args = 4, pretend = 0, frame = 8
 655              		@ frame_needed = 0, uses_anonymous_args = 0
 656              	.LVL85:
 657 0000 2DE9F043 		push	{r4, r5, r6, r7, r8, r9, lr}
 658              		.cfi_def_cfa_offset 28
 659              		.cfi_offset 4, -28
 660              		.cfi_offset 5, -24
 661              		.cfi_offset 6, -20
 662              		.cfi_offset 7, -16
 663              		.cfi_offset 8, -12
ARM GAS  C:\Users\haske\AppData\Local\Temp\ccHSLozV.s 			page 37


 664              		.cfi_offset 9, -8
 665              		.cfi_offset 14, -4
 666 0004 83B0     		sub	sp, sp, #12
 667              		.cfi_def_cfa_offset 40
 668 0006 8046     		mov	r8, r0
 669 0008 8946     		mov	r9, r1
 670 000a 1446     		mov	r4, r2
 671 000c 1F46     		mov	r7, r3
 515:..\..\..\arduinoLCD\test\Pain Drain\libraries\lvgl\src\draw/lv_img_decoder.c ****     lv_img_decoder_built_in_data_t * user_data = dsc->user_data;
 672              		.loc 1 515 0
 673 000e 466A     		ldr	r6, [r0, #36]
 674              	.LVL86:
 516:..\..\..\arduinoLCD\test\Pain Drain\libraries\lvgl\src\draw/lv_img_decoder.c ****     lv_fs_res_t res;
 517:..\..\..\arduinoLCD\test\Pain Drain\libraries\lvgl\src\draw/lv_img_decoder.c ****     uint8_t px_size = lv_img_cf_get_px_size(dsc->header.cf);
 675              		.loc 1 517 0
 676 0010 007D     		ldrb	r0, [r0, #20]	@ zero_extendqisi2
 677              	.LVL87:
 678 0012 00F01F00 		and	r0, r0, #31
 679 0016 FFF7FEFF 		bl	lv_img_cf_get_px_size
 680              	.LVL88:
 681 001a 0546     		mov	r5, r0
 682              	.LVL89:
 518:..\..\..\arduinoLCD\test\Pain Drain\libraries\lvgl\src\draw/lv_img_decoder.c **** 
 519:..\..\..\arduinoLCD\test\Pain Drain\libraries\lvgl\src\draw/lv_img_decoder.c ****     uint32_t pos = ((y * dsc->header.w + x) * px_size) >> 3;
 683              		.loc 1 519 0
 684 001c D8F81410 		ldr	r1, [r8, #20]
 685 0020 C1F38A21 		ubfx	r1, r1, #10, #11
 686 0024 01FB0491 		mla	r1, r1, r4, r9
 687 0028 01FB00F1 		mul	r1, r1, r0
 688 002c C910     		asrs	r1, r1, #3
 689              	.LVL90:
 520:..\..\..\arduinoLCD\test\Pain Drain\libraries\lvgl\src\draw/lv_img_decoder.c ****     pos += 4; /*Skip the header*/
 521:..\..\..\arduinoLCD\test\Pain Drain\libraries\lvgl\src\draw/lv_img_decoder.c ****     res = lv_fs_seek(&user_data->f, pos, LV_FS_SEEK_SET);
 690              		.loc 1 521 0
 691 002e 0022     		movs	r2, #0
 692 0030 0431     		adds	r1, r1, #4
 693              	.LVL91:
 694 0032 3046     		mov	r0, r6
 695              	.LVL92:
 696 0034 FFF7FEFF 		bl	lv_fs_seek
 697              	.LVL93:
 522:..\..\..\arduinoLCD\test\Pain Drain\libraries\lvgl\src\draw/lv_img_decoder.c ****     if(res != LV_FS_RES_OK) {
 698              		.loc 1 522 0
 699 0038 88B9     		cbnz	r0, .L56
 523:..\..\..\arduinoLCD\test\Pain Drain\libraries\lvgl\src\draw/lv_img_decoder.c ****         LV_LOG_WARN("Built-in image decoder seek failed");
 524:..\..\..\arduinoLCD\test\Pain Drain\libraries\lvgl\src\draw/lv_img_decoder.c ****         return LV_RES_INV;
 525:..\..\..\arduinoLCD\test\Pain Drain\libraries\lvgl\src\draw/lv_img_decoder.c ****     }
 526:..\..\..\arduinoLCD\test\Pain Drain\libraries\lvgl\src\draw/lv_img_decoder.c ****     uint32_t btr = len * (px_size >> 3);
 700              		.loc 1 526 0
 701 003a C5F3C705 		ubfx	r5, r5, #3, #8
 702 003e 05FB07F5 		mul	r5, r5, r7
 703              	.LVL94:
 527:..\..\..\arduinoLCD\test\Pain Drain\libraries\lvgl\src\draw/lv_img_decoder.c ****     uint32_t br  = 0;
 704              		.loc 1 527 0
 705 0042 02AB     		add	r3, sp, #8
 706 0044 0022     		movs	r2, #0
 707 0046 43F8042D 		str	r2, [r3, #-4]!
ARM GAS  C:\Users\haske\AppData\Local\Temp\ccHSLozV.s 			page 38


 528:..\..\..\arduinoLCD\test\Pain Drain\libraries\lvgl\src\draw/lv_img_decoder.c ****     res = lv_fs_read(&user_data->f, buf, btr, &br);
 708              		.loc 1 528 0
 709 004a 2A46     		mov	r2, r5
 710 004c 0A99     		ldr	r1, [sp, #40]
 711 004e 3046     		mov	r0, r6
 712              	.LVL95:
 713 0050 FFF7FEFF 		bl	lv_fs_read
 714              	.LVL96:
 529:..\..\..\arduinoLCD\test\Pain Drain\libraries\lvgl\src\draw/lv_img_decoder.c ****     if(res != LV_FS_RES_OK || btr != br) {
 715              		.loc 1 529 0
 716 0054 28B9     		cbnz	r0, .L57
 717              		.loc 1 529 0 is_stmt 0 discriminator 1
 718 0056 019B     		ldr	r3, [sp, #4]
 719 0058 9D42     		cmp	r5, r3
 720 005a 04D0     		beq	.L58
 721 005c 04E0     		b	.L55
 722              	.LVL97:
 723              	.L56:
 524:..\..\..\arduinoLCD\test\Pain Drain\libraries\lvgl\src\draw/lv_img_decoder.c ****     }
 724              		.loc 1 524 0 is_stmt 1
 725 005e 0020     		movs	r0, #0
 726              	.LVL98:
 727 0060 02E0     		b	.L55
 728              	.LVL99:
 729              	.L57:
 530:..\..\..\arduinoLCD\test\Pain Drain\libraries\lvgl\src\draw/lv_img_decoder.c ****         LV_LOG_WARN("Built-in image decoder read failed");
 531:..\..\..\arduinoLCD\test\Pain Drain\libraries\lvgl\src\draw/lv_img_decoder.c ****         return LV_RES_INV;
 730              		.loc 1 531 0
 731 0062 0020     		movs	r0, #0
 732              	.LVL100:
 733 0064 00E0     		b	.L55
 734              	.LVL101:
 735              	.L58:
 532:..\..\..\arduinoLCD\test\Pain Drain\libraries\lvgl\src\draw/lv_img_decoder.c ****     }
 533:..\..\..\arduinoLCD\test\Pain Drain\libraries\lvgl\src\draw/lv_img_decoder.c **** 
 534:..\..\..\arduinoLCD\test\Pain Drain\libraries\lvgl\src\draw/lv_img_decoder.c ****     return LV_RES_OK;
 736              		.loc 1 534 0
 737 0066 0120     		movs	r0, #1
 738              	.LVL102:
 739              	.L55:
 535:..\..\..\arduinoLCD\test\Pain Drain\libraries\lvgl\src\draw/lv_img_decoder.c **** }
 740              		.loc 1 535 0
 741 0068 03B0     		add	sp, sp, #12
 742              		.cfi_def_cfa_offset 28
 743              		@ sp needed
 744 006a BDE8F083 		pop	{r4, r5, r6, r7, r8, r9, pc}
 745              		.cfi_endproc
 746              	.LFE71:
 747              		.size	lv_img_decoder_built_in_line_true_color, .-lv_img_decoder_built_in_line_true_color
 748 006e 00BF     		.section	.text.lv_img_decoder_built_in_line_alpha,"ax",%progbits
 749              		.align	2
 750              		.thumb
 751              		.thumb_func
 752              		.type	lv_img_decoder_built_in_line_alpha, %function
 753              	lv_img_decoder_built_in_line_alpha:
 754              	.LFB72:
 536:..\..\..\arduinoLCD\test\Pain Drain\libraries\lvgl\src\draw/lv_img_decoder.c **** 
ARM GAS  C:\Users\haske\AppData\Local\Temp\ccHSLozV.s 			page 39


 537:..\..\..\arduinoLCD\test\Pain Drain\libraries\lvgl\src\draw/lv_img_decoder.c **** static lv_res_t lv_img_decoder_built_in_line_alpha(lv_img_decoder_dsc_t * dsc, lv_coord_t x, lv_coo
 538:..\..\..\arduinoLCD\test\Pain Drain\libraries\lvgl\src\draw/lv_img_decoder.c ****                                                    lv_coord_t len, uint8_t * buf)
 539:..\..\..\arduinoLCD\test\Pain Drain\libraries\lvgl\src\draw/lv_img_decoder.c **** {
 755              		.loc 1 539 0
 756              		.cfi_startproc
 757              		@ args = 4, pretend = 0, frame = 40
 758              		@ frame_needed = 0, uses_anonymous_args = 0
 759              	.LVL103:
 760 0000 2DE9F04F 		push	{r4, r5, r6, r7, r8, r9, r10, fp, lr}
 761              		.cfi_def_cfa_offset 36
 762              		.cfi_offset 4, -36
 763              		.cfi_offset 5, -32
 764              		.cfi_offset 6, -28
 765              		.cfi_offset 7, -24
 766              		.cfi_offset 8, -20
 767              		.cfi_offset 9, -16
 768              		.cfi_offset 10, -12
 769              		.cfi_offset 11, -8
 770              		.cfi_offset 14, -4
 771 0004 8BB0     		sub	sp, sp, #44
 772              		.cfi_def_cfa_offset 80
 773 0006 0746     		mov	r7, r0
 774 0008 0C46     		mov	r4, r1
 775 000a 9246     		mov	r10, r2
 776 000c 1E46     		mov	r6, r3
 777 000e 149D     		ldr	r5, [sp, #80]
 540:..\..\..\arduinoLCD\test\Pain Drain\libraries\lvgl\src\draw/lv_img_decoder.c ****     const lv_opa_t alpha1_opa_table[2]  = {0, 255};          /*Opacity mapping with bpp = 1 (Just f
 778              		.loc 1 540 0
 779 0010 4FF0000E 		mov	lr, #0
 780 0014 8DF824E0 		strb	lr, [sp, #36]
 781 0018 FF23     		movs	r3, #255
 782              	.LVL104:
 783 001a 8DF82530 		strb	r3, [sp, #37]
 541:..\..\..\arduinoLCD\test\Pain Drain\libraries\lvgl\src\draw/lv_img_decoder.c ****     const lv_opa_t alpha2_opa_table[4]  = {0, 85, 170, 255}; /*Opacity mapping with bpp = 2*/
 784              		.loc 1 541 0
 785 001e 5D4B     		ldr	r3, .L81
 786 0020 1868     		ldr	r0, [r3]	@ unaligned
 787              	.LVL105:
 788 0022 0890     		str	r0, [sp, #32]	@ unaligned
 542:..\..\..\arduinoLCD\test\Pain Drain\libraries\lvgl\src\draw/lv_img_decoder.c ****     const lv_opa_t alpha4_opa_table[16] = {0,  17, 34,  51,  /*Opacity mapping with bpp = 4*/
 789              		.loc 1 542 0
 790 0024 0DF1100C 		add	ip, sp, #16
 791 0028 53F8040F 		ldr	r0, [r3, #4]!	@ unaligned
 792 002c 5968     		ldr	r1, [r3, #4]	@ unaligned
 793              	.LVL106:
 794 002e 9A68     		ldr	r2, [r3, #8]	@ unaligned
 795              	.LVL107:
 796 0030 DB68     		ldr	r3, [r3, #12]	@ unaligned
 797 0032 ACE80F00 		stmia	ip!, {r0, r1, r2, r3}
 543:..\..\..\arduinoLCD\test\Pain Drain\libraries\lvgl\src\draw/lv_img_decoder.c ****                                            68, 85, 102, 119, 136, 153, 170, 187, 204, 221, 238, 255
 544:..\..\..\arduinoLCD\test\Pain Drain\libraries\lvgl\src\draw/lv_img_decoder.c ****                                           };
 545:..\..\..\arduinoLCD\test\Pain Drain\libraries\lvgl\src\draw/lv_img_decoder.c **** 
 546:..\..\..\arduinoLCD\test\Pain Drain\libraries\lvgl\src\draw/lv_img_decoder.c ****     /*Simply fill the buffer with the color. Later only the alpha value will be modified.*/
 547:..\..\..\arduinoLCD\test\Pain Drain\libraries\lvgl\src\draw/lv_img_decoder.c ****     lv_color_t bg_color = dsc->color;
 798              		.loc 1 547 0
 799 0036 3889     		ldrh	r0, [r7, #8]
 800              	.LVL108:
ARM GAS  C:\Users\haske\AppData\Local\Temp\ccHSLozV.s 			page 40


 548:..\..\..\arduinoLCD\test\Pain Drain\libraries\lvgl\src\draw/lv_img_decoder.c ****     lv_coord_t i;
 549:..\..\..\arduinoLCD\test\Pain Drain\libraries\lvgl\src\draw/lv_img_decoder.c ****     for(i = 0; i < len; i++) {
 801              		.loc 1 549 0
 802 0038 7346     		mov	r3, lr
 803 003a 08E0     		b	.L61
 804              	.LVL109:
 805              	.L62:
 550:..\..\..\arduinoLCD\test\Pain Drain\libraries\lvgl\src\draw/lv_img_decoder.c **** #if LV_COLOR_DEPTH == 8 || LV_COLOR_DEPTH == 1
 551:..\..\..\arduinoLCD\test\Pain Drain\libraries\lvgl\src\draw/lv_img_decoder.c ****         buf[i * LV_IMG_PX_SIZE_ALPHA_BYTE] = bg_color.full;
 552:..\..\..\arduinoLCD\test\Pain Drain\libraries\lvgl\src\draw/lv_img_decoder.c **** #elif LV_COLOR_DEPTH == 16
 553:..\..\..\arduinoLCD\test\Pain Drain\libraries\lvgl\src\draw/lv_img_decoder.c ****         /*Because of Alpha byte 16 bit color can start on odd address which can cause crash*/
 554:..\..\..\arduinoLCD\test\Pain Drain\libraries\lvgl\src\draw/lv_img_decoder.c ****         buf[i * LV_IMG_PX_SIZE_ALPHA_BYTE] = bg_color.full & 0xFF;
 806              		.loc 1 554 0 discriminator 3
 807 003c 03EB4302 		add	r2, r3, r3, lsl #1
 808 0040 81B2     		uxth	r1, r0
 809 0042 A954     		strb	r1, [r5, r2]
 555:..\..\..\arduinoLCD\test\Pain Drain\libraries\lvgl\src\draw/lv_img_decoder.c ****         buf[i * LV_IMG_PX_SIZE_ALPHA_BYTE + 1] = (bg_color.full >> 8) & 0xFF;
 810              		.loc 1 555 0 discriminator 3
 811 0044 0132     		adds	r2, r2, #1
 812 0046 090A     		lsrs	r1, r1, #8
 813 0048 A954     		strb	r1, [r5, r2]
 549:..\..\..\arduinoLCD\test\Pain Drain\libraries\lvgl\src\draw/lv_img_decoder.c **** #if LV_COLOR_DEPTH == 8 || LV_COLOR_DEPTH == 1
 814              		.loc 1 549 0 discriminator 3
 815 004a 0133     		adds	r3, r3, #1
 816              	.LVL110:
 817 004c 1BB2     		sxth	r3, r3
 818              	.LVL111:
 819              	.L61:
 549:..\..\..\arduinoLCD\test\Pain Drain\libraries\lvgl\src\draw/lv_img_decoder.c **** #if LV_COLOR_DEPTH == 8 || LV_COLOR_DEPTH == 1
 820              		.loc 1 549 0 is_stmt 0 discriminator 1
 821 004e B342     		cmp	r3, r6
 822 0050 F4DB     		blt	.L62
 823              	.LVL112:
 556:..\..\..\arduinoLCD\test\Pain Drain\libraries\lvgl\src\draw/lv_img_decoder.c **** #elif LV_COLOR_DEPTH == 32
 557:..\..\..\arduinoLCD\test\Pain Drain\libraries\lvgl\src\draw/lv_img_decoder.c ****         *((uint32_t *)&buf[i * LV_IMG_PX_SIZE_ALPHA_BYTE]) = bg_color.full;
 558:..\..\..\arduinoLCD\test\Pain Drain\libraries\lvgl\src\draw/lv_img_decoder.c **** #else
 559:..\..\..\arduinoLCD\test\Pain Drain\libraries\lvgl\src\draw/lv_img_decoder.c **** #error "Invalid LV_COLOR_DEPTH. Check it in lv_conf.h"
 560:..\..\..\arduinoLCD\test\Pain Drain\libraries\lvgl\src\draw/lv_img_decoder.c **** #endif
 561:..\..\..\arduinoLCD\test\Pain Drain\libraries\lvgl\src\draw/lv_img_decoder.c ****     }
 562:..\..\..\arduinoLCD\test\Pain Drain\libraries\lvgl\src\draw/lv_img_decoder.c **** 
 563:..\..\..\arduinoLCD\test\Pain Drain\libraries\lvgl\src\draw/lv_img_decoder.c ****     const lv_opa_t * opa_table = NULL;
 564:..\..\..\arduinoLCD\test\Pain Drain\libraries\lvgl\src\draw/lv_img_decoder.c ****     uint8_t px_size            = lv_img_cf_get_px_size(dsc->header.cf);
 824              		.loc 1 564 0 is_stmt 1
 825 0052 387D     		ldrb	r0, [r7, #20]	@ zero_extendqisi2
 826              	.LVL113:
 827 0054 00F01F00 		and	r0, r0, #31
 828 0058 FFF7FEFF 		bl	lv_img_cf_get_px_size
 829              	.LVL114:
 830 005c 8146     		mov	r9, r0
 831              	.LVL115:
 565:..\..\..\arduinoLCD\test\Pain Drain\libraries\lvgl\src\draw/lv_img_decoder.c ****     uint16_t mask              = (1 << px_size) - 1; /*E.g. px_size = 2; mask = 0x03*/
 832              		.loc 1 565 0
 833 005e 4FF00108 		mov	r8, #1
 834 0062 08FA00F8 		lsl	r8, r8, r0
 835 0066 08F1FF38 		add	r8, r8, #-1
 836 006a 1FFA88F8 		uxth	r8, r8
 837              	.LVL116:
ARM GAS  C:\Users\haske\AppData\Local\Temp\ccHSLozV.s 			page 41


 566:..\..\..\arduinoLCD\test\Pain Drain\libraries\lvgl\src\draw/lv_img_decoder.c **** 
 567:..\..\..\arduinoLCD\test\Pain Drain\libraries\lvgl\src\draw/lv_img_decoder.c ****     lv_coord_t w = 0;
 568:..\..\..\arduinoLCD\test\Pain Drain\libraries\lvgl\src\draw/lv_img_decoder.c ****     uint32_t ofs = 0;
 569:..\..\..\arduinoLCD\test\Pain Drain\libraries\lvgl\src\draw/lv_img_decoder.c ****     int8_t pos   = 0;
 570:..\..\..\arduinoLCD\test\Pain Drain\libraries\lvgl\src\draw/lv_img_decoder.c ****     switch(dsc->header.cf) {
 838              		.loc 1 570 0
 839 006e 3B7D     		ldrb	r3, [r7, #20]	@ zero_extendqisi2
 840 0070 03F01F03 		and	r3, r3, #31
 841 0074 0B3B     		subs	r3, r3, #11
 842 0076 032B     		cmp	r3, #3
 843 0078 3ED8     		bhi	.L76
 844 007a DFE803F0 		tbb	[pc, r3]
 845              	.L65:
 846 007e 02       		.byte	(.L64-.L65)/2
 847 007f 11       		.byte	(.L66-.L65)/2
 848 0080 22       		.byte	(.L67-.L65)/2
 849 0081 32       		.byte	(.L68-.L65)/2
 850              		.p2align 1
 851              	.L64:
 571:..\..\..\arduinoLCD\test\Pain Drain\libraries\lvgl\src\draw/lv_img_decoder.c ****         case LV_IMG_CF_ALPHA_1BIT:
 572:..\..\..\arduinoLCD\test\Pain Drain\libraries\lvgl\src\draw/lv_img_decoder.c ****             w = (dsc->header.w + 7) >> 3; /*E.g. w = 20 -> w = 2 + 1*/
 852              		.loc 1 572 0
 853 0082 7B69     		ldr	r3, [r7, #20]
 854 0084 C3F38A20 		ubfx	r0, r3, #10, #11
 855              	.LVL117:
 856 0088 0730     		adds	r0, r0, #7
 857 008a C010     		asrs	r0, r0, #3
 858              	.LVL118:
 573:..\..\..\arduinoLCD\test\Pain Drain\libraries\lvgl\src\draw/lv_img_decoder.c ****             ofs += w * y + (x >> 3); /*First pixel*/
 859              		.loc 1 573 0
 860 008c 4FEAE40B 		asr	fp, r4, #3
 861 0090 0AFB00BB 		mla	fp, r10, r0, fp
 862              	.LVL119:
 574:..\..\..\arduinoLCD\test\Pain Drain\libraries\lvgl\src\draw/lv_img_decoder.c ****             pos = 7 - (x & 0x7);
 863              		.loc 1 574 0
 864 0094 E443     		mvns	r4, r4
 865 0096 04F00704 		and	r4, r4, #7
 866              	.LVL120:
 575:..\..\..\arduinoLCD\test\Pain Drain\libraries\lvgl\src\draw/lv_img_decoder.c ****             opa_table = alpha1_opa_table;
 867              		.loc 1 575 0
 868 009a 0DF1240A 		add	r10, sp, #36
 869              	.LVL121:
 576:..\..\..\arduinoLCD\test\Pain Drain\libraries\lvgl\src\draw/lv_img_decoder.c ****             break;
 870              		.loc 1 576 0
 871 009e 33E0     		b	.L63
 872              	.LVL122:
 873              	.L66:
 577:..\..\..\arduinoLCD\test\Pain Drain\libraries\lvgl\src\draw/lv_img_decoder.c ****         case LV_IMG_CF_ALPHA_2BIT:
 578:..\..\..\arduinoLCD\test\Pain Drain\libraries\lvgl\src\draw/lv_img_decoder.c ****             w = (dsc->header.w + 3) >> 2; /*E.g. w = 13 -> w = 3 + 1 (bytes)*/
 874              		.loc 1 578 0
 875 00a0 7B69     		ldr	r3, [r7, #20]
 876 00a2 C3F38A20 		ubfx	r0, r3, #10, #11
 877              	.LVL123:
 878 00a6 0330     		adds	r0, r0, #3
 879 00a8 8010     		asrs	r0, r0, #2
 880              	.LVL124:
 579:..\..\..\arduinoLCD\test\Pain Drain\libraries\lvgl\src\draw/lv_img_decoder.c ****             ofs += w * y + (x >> 2); /*First pixel*/
ARM GAS  C:\Users\haske\AppData\Local\Temp\ccHSLozV.s 			page 42


 881              		.loc 1 579 0
 882 00aa 4FEAA40B 		asr	fp, r4, #2
 883 00ae 0AFB00BB 		mla	fp, r10, r0, fp
 884              	.LVL125:
 580:..\..\..\arduinoLCD\test\Pain Drain\libraries\lvgl\src\draw/lv_img_decoder.c ****             pos = 6 - (x & 0x3) * 2;
 885              		.loc 1 580 0
 886 00b2 A4B2     		uxth	r4, r4
 887 00b4 E443     		mvns	r4, r4
 888 00b6 04F00304 		and	r4, r4, #3
 889 00ba 6400     		lsls	r4, r4, #1
 890              	.LVL126:
 581:..\..\..\arduinoLCD\test\Pain Drain\libraries\lvgl\src\draw/lv_img_decoder.c ****             opa_table = alpha2_opa_table;
 891              		.loc 1 581 0
 892 00bc 0DF1200A 		add	r10, sp, #32
 893              	.LVL127:
 582:..\..\..\arduinoLCD\test\Pain Drain\libraries\lvgl\src\draw/lv_img_decoder.c ****             break;
 894              		.loc 1 582 0
 895 00c0 22E0     		b	.L63
 896              	.LVL128:
 897              	.L67:
 583:..\..\..\arduinoLCD\test\Pain Drain\libraries\lvgl\src\draw/lv_img_decoder.c ****         case LV_IMG_CF_ALPHA_4BIT:
 584:..\..\..\arduinoLCD\test\Pain Drain\libraries\lvgl\src\draw/lv_img_decoder.c ****             w = (dsc->header.w + 1) >> 1; /*E.g. w = 13 -> w = 6 + 1 (bytes)*/
 898              		.loc 1 584 0
 899 00c2 7B69     		ldr	r3, [r7, #20]
 900 00c4 C3F38A20 		ubfx	r0, r3, #10, #11
 901              	.LVL129:
 902 00c8 0130     		adds	r0, r0, #1
 903 00ca 4010     		asrs	r0, r0, #1
 904              	.LVL130:
 585:..\..\..\arduinoLCD\test\Pain Drain\libraries\lvgl\src\draw/lv_img_decoder.c ****             ofs += w * y + (x >> 1); /*First pixel*/
 905              		.loc 1 585 0
 906 00cc 4FEA640B 		asr	fp, r4, #1
 907 00d0 0AFB00BB 		mla	fp, r10, r0, fp
 908              	.LVL131:
 586:..\..\..\arduinoLCD\test\Pain Drain\libraries\lvgl\src\draw/lv_img_decoder.c ****             pos = 4 - (x & 0x1) * 4;
 909              		.loc 1 586 0
 910 00d4 14F0010F 		tst	r4, #1
 911 00d8 13D1     		bne	.L77
 912 00da 0424     		movs	r4, #4
 587:..\..\..\arduinoLCD\test\Pain Drain\libraries\lvgl\src\draw/lv_img_decoder.c ****             opa_table = alpha4_opa_table;
 913              		.loc 1 587 0
 914 00dc 0DF1100A 		add	r10, sp, #16
 915 00e0 12E0     		b	.L63
 916              	.LVL132:
 917              	.L68:
 588:..\..\..\arduinoLCD\test\Pain Drain\libraries\lvgl\src\draw/lv_img_decoder.c ****             break;
 589:..\..\..\arduinoLCD\test\Pain Drain\libraries\lvgl\src\draw/lv_img_decoder.c ****         case LV_IMG_CF_ALPHA_8BIT:
 590:..\..\..\arduinoLCD\test\Pain Drain\libraries\lvgl\src\draw/lv_img_decoder.c ****             w = dsc->header.w; /*E.g. x = 7 -> w = 7 (bytes)*/
 918              		.loc 1 590 0
 919 00e2 7869     		ldr	r0, [r7, #20]
 920              	.LVL133:
 921 00e4 C0F38A20 		ubfx	r0, r0, #10, #11
 922 00e8 1FFA80FB 		uxth	fp, r0
 923 00ec 00B2     		sxth	r0, r0
 924              	.LVL134:
 591:..\..\..\arduinoLCD\test\Pain Drain\libraries\lvgl\src\draw/lv_img_decoder.c ****             ofs += w * y + x;  /*First pixel*/
 925              		.loc 1 591 0
ARM GAS  C:\Users\haske\AppData\Local\Temp\ccHSLozV.s 			page 43


 926 00ee 0AFB0B4B 		mla	fp, r10, fp, r4
 927              	.LVL135:
 592:..\..\..\arduinoLCD\test\Pain Drain\libraries\lvgl\src\draw/lv_img_decoder.c ****             pos = 0;
 928              		.loc 1 592 0
 929 00f2 0024     		movs	r4, #0
 563:..\..\..\arduinoLCD\test\Pain Drain\libraries\lvgl\src\draw/lv_img_decoder.c ****     uint8_t px_size            = lv_img_cf_get_px_size(dsc->header.cf);
 930              		.loc 1 563 0
 931 00f4 A246     		mov	r10, r4
 593:..\..\..\arduinoLCD\test\Pain Drain\libraries\lvgl\src\draw/lv_img_decoder.c ****             break;
 932              		.loc 1 593 0
 933 00f6 07E0     		b	.L63
 934              	.LVL136:
 935              	.L76:
 569:..\..\..\arduinoLCD\test\Pain Drain\libraries\lvgl\src\draw/lv_img_decoder.c ****     switch(dsc->header.cf) {
 936              		.loc 1 569 0
 937 00f8 0024     		movs	r4, #0
 568:..\..\..\arduinoLCD\test\Pain Drain\libraries\lvgl\src\draw/lv_img_decoder.c ****     int8_t pos   = 0;
 938              		.loc 1 568 0
 939 00fa A346     		mov	fp, r4
 567:..\..\..\arduinoLCD\test\Pain Drain\libraries\lvgl\src\draw/lv_img_decoder.c ****     uint32_t ofs = 0;
 940              		.loc 1 567 0
 941 00fc 2046     		mov	r0, r4
 942              	.LVL137:
 563:..\..\..\arduinoLCD\test\Pain Drain\libraries\lvgl\src\draw/lv_img_decoder.c ****     uint8_t px_size            = lv_img_cf_get_px_size(dsc->header.cf);
 943              		.loc 1 563 0
 944 00fe A246     		mov	r10, r4
 945 0100 02E0     		b	.L63
 946              	.LVL138:
 947              	.L77:
 586:..\..\..\arduinoLCD\test\Pain Drain\libraries\lvgl\src\draw/lv_img_decoder.c ****             opa_table = alpha4_opa_table;
 948              		.loc 1 586 0
 949 0102 0024     		movs	r4, #0
 587:..\..\..\arduinoLCD\test\Pain Drain\libraries\lvgl\src\draw/lv_img_decoder.c ****             break;
 950              		.loc 1 587 0
 951 0104 0DF1100A 		add	r10, sp, #16
 952              	.LVL139:
 953              	.L63:
 594:..\..\..\arduinoLCD\test\Pain Drain\libraries\lvgl\src\draw/lv_img_decoder.c ****     }
 595:..\..\..\arduinoLCD\test\Pain Drain\libraries\lvgl\src\draw/lv_img_decoder.c **** 
 596:..\..\..\arduinoLCD\test\Pain Drain\libraries\lvgl\src\draw/lv_img_decoder.c ****     lv_img_decoder_built_in_data_t * user_data = dsc->user_data;
 954              		.loc 1 596 0
 955 0108 7B6A     		ldr	r3, [r7, #36]
 956 010a 0293     		str	r3, [sp, #8]
 957              	.LVL140:
 597:..\..\..\arduinoLCD\test\Pain Drain\libraries\lvgl\src\draw/lv_img_decoder.c ****     uint8_t * fs_buf = lv_mem_buf_get(w);
 958              		.loc 1 597 0
 959 010c 0390     		str	r0, [sp, #12]
 960 010e FFF7FEFF 		bl	lv_mem_buf_get
 961              	.LVL141:
 598:..\..\..\arduinoLCD\test\Pain Drain\libraries\lvgl\src\draw/lv_img_decoder.c ****     if(fs_buf == NULL) return LV_RES_INV;
 962              		.loc 1 598 0
 963 0112 0190     		str	r0, [sp, #4]
 964 0114 0028     		cmp	r0, #0
 965 0116 39D0     		beq	.L78
 966              	.LVL142:
 599:..\..\..\arduinoLCD\test\Pain Drain\libraries\lvgl\src\draw/lv_img_decoder.c **** 
 600:..\..\..\arduinoLCD\test\Pain Drain\libraries\lvgl\src\draw/lv_img_decoder.c ****     const uint8_t * data_tmp = NULL;
ARM GAS  C:\Users\haske\AppData\Local\Temp\ccHSLozV.s 			page 44


 601:..\..\..\arduinoLCD\test\Pain Drain\libraries\lvgl\src\draw/lv_img_decoder.c ****     if(dsc->src_type == LV_IMG_SRC_VARIABLE) {
 967              		.loc 1 601 0
 968 0118 3B7C     		ldrb	r3, [r7, #16]	@ zero_extendqisi2
 969 011a 23B9     		cbnz	r3, .L70
 970              	.LBB30:
 602:..\..\..\arduinoLCD\test\Pain Drain\libraries\lvgl\src\draw/lv_img_decoder.c ****         const lv_img_dsc_t * img_dsc = dsc->src;
 971              		.loc 1 602 0
 972 011c 7B68     		ldr	r3, [r7, #4]
 973              	.LVL143:
 603:..\..\..\arduinoLCD\test\Pain Drain\libraries\lvgl\src\draw/lv_img_decoder.c **** 
 604:..\..\..\arduinoLCD\test\Pain Drain\libraries\lvgl\src\draw/lv_img_decoder.c ****         data_tmp = img_dsc->data + ofs;
 974              		.loc 1 604 0
 975 011e 9B68     		ldr	r3, [r3, #8]
 976              	.LVL144:
 977 0120 9B44     		add	fp, fp, r3
 978              	.LVL145:
 979              	.L72:
 980              	.LBE30:
 981              	.LBB31:
 605:..\..\..\arduinoLCD\test\Pain Drain\libraries\lvgl\src\draw/lv_img_decoder.c ****     }
 606:..\..\..\arduinoLCD\test\Pain Drain\libraries\lvgl\src\draw/lv_img_decoder.c ****     else {
 607:..\..\..\arduinoLCD\test\Pain Drain\libraries\lvgl\src\draw/lv_img_decoder.c ****         lv_fs_seek(&user_data->f, ofs + 4, LV_FS_SEEK_SET); /*+4 to skip the header*/
 608:..\..\..\arduinoLCD\test\Pain Drain\libraries\lvgl\src\draw/lv_img_decoder.c ****         lv_fs_read(&user_data->f, fs_buf, w, NULL);
 609:..\..\..\arduinoLCD\test\Pain Drain\libraries\lvgl\src\draw/lv_img_decoder.c ****         data_tmp = fs_buf;
 610:..\..\..\arduinoLCD\test\Pain Drain\libraries\lvgl\src\draw/lv_img_decoder.c ****     }
 611:..\..\..\arduinoLCD\test\Pain Drain\libraries\lvgl\src\draw/lv_img_decoder.c **** 
 612:..\..\..\arduinoLCD\test\Pain Drain\libraries\lvgl\src\draw/lv_img_decoder.c ****     for(i = 0; i < len; i++) {
 613:..\..\..\arduinoLCD\test\Pain Drain\libraries\lvgl\src\draw/lv_img_decoder.c ****         uint8_t val_act = (*data_tmp >> pos) & mask;
 614:..\..\..\arduinoLCD\test\Pain Drain\libraries\lvgl\src\draw/lv_img_decoder.c **** 
 615:..\..\..\arduinoLCD\test\Pain Drain\libraries\lvgl\src\draw/lv_img_decoder.c ****         buf[i * LV_IMG_PX_SIZE_ALPHA_BYTE + LV_IMG_PX_SIZE_ALPHA_BYTE - 1] =
 982              		.loc 1 615 0 discriminator 1
 983 0122 0022     		movs	r2, #0
 984 0124 2BE0     		b	.L71
 985              	.LVL146:
 986              	.L70:
 987              	.LBE31:
 607:..\..\..\arduinoLCD\test\Pain Drain\libraries\lvgl\src\draw/lv_img_decoder.c ****         lv_fs_read(&user_data->f, fs_buf, w, NULL);
 988              		.loc 1 607 0
 989 0126 0022     		movs	r2, #0
 990 0128 0BF10401 		add	r1, fp, #4
 991 012c 0298     		ldr	r0, [sp, #8]
 992              	.LVL147:
 993 012e FFF7FEFF 		bl	lv_fs_seek
 994              	.LVL148:
 608:..\..\..\arduinoLCD\test\Pain Drain\libraries\lvgl\src\draw/lv_img_decoder.c ****         data_tmp = fs_buf;
 995              		.loc 1 608 0
 996 0132 0023     		movs	r3, #0
 997 0134 039A     		ldr	r2, [sp, #12]
 998 0136 DDF804B0 		ldr	fp, [sp, #4]
 999              	.LVL149:
 1000 013a 5946     		mov	r1, fp
 1001 013c 0298     		ldr	r0, [sp, #8]
 1002 013e FFF7FEFF 		bl	lv_fs_read
 1003              	.LVL150:
 1004 0142 EEE7     		b	.L72
 1005              	.LVL151:
 1006              	.L75:
ARM GAS  C:\Users\haske\AppData\Local\Temp\ccHSLozV.s 			page 45


 1007              	.LBB32:
 613:..\..\..\arduinoLCD\test\Pain Drain\libraries\lvgl\src\draw/lv_img_decoder.c **** 
 1008              		.loc 1 613 0
 1009 0144 9BF80030 		ldrb	r3, [fp]	@ zero_extendqisi2
 1010 0148 2341     		asrs	r3, r3, r4
 1011 014a 03EA0803 		and	r3, r3, r8
 1012 014e DBB2     		uxtb	r3, r3
 1013              	.LVL152:
 1014              		.loc 1 615 0
 1015 0150 02EB4201 		add	r1, r2, r2, lsl #1
 1016 0154 0231     		adds	r1, r1, #2
 616:..\..\..\arduinoLCD\test\Pain Drain\libraries\lvgl\src\draw/lv_img_decoder.c ****             dsc->header.cf == LV_IMG_CF_ALPHA_8BIT ? val_act : opa_table[val_act];
 1017              		.loc 1 616 0
 1018 0156 387D     		ldrb	r0, [r7, #20]	@ zero_extendqisi2
 1019 0158 00F01F00 		and	r0, r0, #31
 615:..\..\..\arduinoLCD\test\Pain Drain\libraries\lvgl\src\draw/lv_img_decoder.c ****             dsc->header.cf == LV_IMG_CF_ALPHA_8BIT ? val_act : opa_table[val_act];
 1020              		.loc 1 615 0
 1021 015c 0E28     		cmp	r0, #14
 1022 015e 01D0     		beq	.L73
 615:..\..\..\arduinoLCD\test\Pain Drain\libraries\lvgl\src\draw/lv_img_decoder.c ****             dsc->header.cf == LV_IMG_CF_ALPHA_8BIT ? val_act : opa_table[val_act];
 1023              		.loc 1 615 0 is_stmt 0 discriminator 1
 1024 0160 1AF80330 		ldrb	r3, [r10, r3]	@ zero_extendqisi2
 1025              	.LVL153:
 1026              	.L73:
 615:..\..\..\arduinoLCD\test\Pain Drain\libraries\lvgl\src\draw/lv_img_decoder.c ****             dsc->header.cf == LV_IMG_CF_ALPHA_8BIT ? val_act : opa_table[val_act];
 1027              		.loc 1 615 0 discriminator 4
 1028 0164 6B54     		strb	r3, [r5, r1]
 1029              	.LVL154:
 617:..\..\..\arduinoLCD\test\Pain Drain\libraries\lvgl\src\draw/lv_img_decoder.c **** 
 618:..\..\..\arduinoLCD\test\Pain Drain\libraries\lvgl\src\draw/lv_img_decoder.c ****         pos -= px_size;
 1030              		.loc 1 618 0 is_stmt 1 discriminator 4
 1031 0166 C9EB0404 		rsb	r4, r9, r4
 1032              	.LVL155:
 1033 016a 64B2     		sxtb	r4, r4
 1034              	.LVL156:
 619:..\..\..\arduinoLCD\test\Pain Drain\libraries\lvgl\src\draw/lv_img_decoder.c ****         if(pos < 0) {
 1035              		.loc 1 619 0 discriminator 4
 1036 016c 002C     		cmp	r4, #0
 1037 016e 04DA     		bge	.L74
 620:..\..\..\arduinoLCD\test\Pain Drain\libraries\lvgl\src\draw/lv_img_decoder.c ****             pos = 8 - px_size;
 1038              		.loc 1 620 0
 1039 0170 C9F10804 		rsb	r4, r9, #8
 1040              	.LVL157:
 1041 0174 64B2     		sxtb	r4, r4
 1042              	.LVL158:
 621:..\..\..\arduinoLCD\test\Pain Drain\libraries\lvgl\src\draw/lv_img_decoder.c ****             data_tmp++;
 1043              		.loc 1 621 0
 1044 0176 0BF1010B 		add	fp, fp, #1
 1045              	.LVL159:
 1046              	.L74:
 1047              	.LBE32:
 612:..\..\..\arduinoLCD\test\Pain Drain\libraries\lvgl\src\draw/lv_img_decoder.c ****         uint8_t val_act = (*data_tmp >> pos) & mask;
 1048              		.loc 1 612 0 discriminator 2
 1049 017a 0132     		adds	r2, r2, #1
 1050              	.LVL160:
 1051 017c 12B2     		sxth	r2, r2
 1052              	.LVL161:
ARM GAS  C:\Users\haske\AppData\Local\Temp\ccHSLozV.s 			page 46


 1053              	.L71:
 612:..\..\..\arduinoLCD\test\Pain Drain\libraries\lvgl\src\draw/lv_img_decoder.c ****         uint8_t val_act = (*data_tmp >> pos) & mask;
 1054              		.loc 1 612 0 is_stmt 0 discriminator 1
 1055 017e B242     		cmp	r2, r6
 1056 0180 E0DB     		blt	.L75
 622:..\..\..\arduinoLCD\test\Pain Drain\libraries\lvgl\src\draw/lv_img_decoder.c ****         }
 623:..\..\..\arduinoLCD\test\Pain Drain\libraries\lvgl\src\draw/lv_img_decoder.c ****     }
 624:..\..\..\arduinoLCD\test\Pain Drain\libraries\lvgl\src\draw/lv_img_decoder.c ****     lv_mem_buf_release(fs_buf);
 1057              		.loc 1 624 0 is_stmt 1
 1058 0182 0198     		ldr	r0, [sp, #4]
 1059 0184 FFF7FEFF 		bl	lv_mem_buf_release
 1060              	.LVL162:
 625:..\..\..\arduinoLCD\test\Pain Drain\libraries\lvgl\src\draw/lv_img_decoder.c ****     return LV_RES_OK;
 1061              		.loc 1 625 0
 1062 0188 0120     		movs	r0, #1
 1063 018a 00E0     		b	.L69
 1064              	.LVL163:
 1065              	.L78:
 598:..\..\..\arduinoLCD\test\Pain Drain\libraries\lvgl\src\draw/lv_img_decoder.c **** 
 1066              		.loc 1 598 0
 1067 018c 0020     		movs	r0, #0
 1068              	.LVL164:
 1069              	.L69:
 626:..\..\..\arduinoLCD\test\Pain Drain\libraries\lvgl\src\draw/lv_img_decoder.c **** }
 1070              		.loc 1 626 0
 1071 018e 0BB0     		add	sp, sp, #44
 1072              		.cfi_def_cfa_offset 36
 1073              		@ sp needed
 1074 0190 BDE8F08F 		pop	{r4, r5, r6, r7, r8, r9, r10, fp, pc}
 1075              	.LVL165:
 1076              	.L82:
 1077              		.align	2
 1078              	.L81:
 1079 0194 00000000 		.word	.LANCHOR0
 1080              		.cfi_endproc
 1081              	.LFE72:
 1082              		.size	lv_img_decoder_built_in_line_alpha, .-lv_img_decoder_built_in_line_alpha
 1083              		.section	.text.lv_img_decoder_built_in_line_indexed,"ax",%progbits
 1084              		.align	2
 1085              		.thumb
 1086              		.thumb_func
 1087              		.type	lv_img_decoder_built_in_line_indexed, %function
 1088              	lv_img_decoder_built_in_line_indexed:
 1089              	.LFB73:
 627:..\..\..\arduinoLCD\test\Pain Drain\libraries\lvgl\src\draw/lv_img_decoder.c **** 
 628:..\..\..\arduinoLCD\test\Pain Drain\libraries\lvgl\src\draw/lv_img_decoder.c **** static lv_res_t lv_img_decoder_built_in_line_indexed(lv_img_decoder_dsc_t * dsc, lv_coord_t x, lv_c
 629:..\..\..\arduinoLCD\test\Pain Drain\libraries\lvgl\src\draw/lv_img_decoder.c ****                                                      lv_coord_t len, uint8_t * buf)
 630:..\..\..\arduinoLCD\test\Pain Drain\libraries\lvgl\src\draw/lv_img_decoder.c **** {
 1090              		.loc 1 630 0
 1091              		.cfi_startproc
 1092              		@ args = 4, pretend = 0, frame = 8
 1093              		@ frame_needed = 0, uses_anonymous_args = 0
 1094              	.LVL166:
 1095 0000 2DE9F04F 		push	{r4, r5, r6, r7, r8, r9, r10, fp, lr}
 1096              		.cfi_def_cfa_offset 36
 1097              		.cfi_offset 4, -36
 1098              		.cfi_offset 5, -32
ARM GAS  C:\Users\haske\AppData\Local\Temp\ccHSLozV.s 			page 47


 1099              		.cfi_offset 6, -28
 1100              		.cfi_offset 7, -24
 1101              		.cfi_offset 8, -20
 1102              		.cfi_offset 9, -16
 1103              		.cfi_offset 10, -12
 1104              		.cfi_offset 11, -8
 1105              		.cfi_offset 14, -4
 1106 0004 83B0     		sub	sp, sp, #12
 1107              		.cfi_def_cfa_offset 48
 1108 0006 8246     		mov	r10, r0
 1109 0008 0C46     		mov	r4, r1
 1110 000a 1646     		mov	r6, r2
 1111 000c 9946     		mov	r9, r3
 1112 000e 0C9D     		ldr	r5, [sp, #48]
 631:..\..\..\arduinoLCD\test\Pain Drain\libraries\lvgl\src\draw/lv_img_decoder.c ****     uint8_t px_size = lv_img_cf_get_px_size(dsc->header.cf);
 1113              		.loc 1 631 0
 1114 0010 007D     		ldrb	r0, [r0, #20]	@ zero_extendqisi2
 1115              	.LVL167:
 1116 0012 00F01F00 		and	r0, r0, #31
 1117 0016 FFF7FEFF 		bl	lv_img_cf_get_px_size
 1118              	.LVL168:
 1119 001a 8046     		mov	r8, r0
 1120              	.LVL169:
 632:..\..\..\arduinoLCD\test\Pain Drain\libraries\lvgl\src\draw/lv_img_decoder.c ****     uint16_t mask   = (1 << px_size) - 1; /*E.g. px_size = 2; mask = 0x03*/
 1121              		.loc 1 632 0
 1122 001c 0127     		movs	r7, #1
 1123 001e 8740     		lsls	r7, r7, r0
 1124 0020 013F     		subs	r7, r7, #1
 1125 0022 BFB2     		uxth	r7, r7
 1126              	.LVL170:
 633:..\..\..\arduinoLCD\test\Pain Drain\libraries\lvgl\src\draw/lv_img_decoder.c **** 
 634:..\..\..\arduinoLCD\test\Pain Drain\libraries\lvgl\src\draw/lv_img_decoder.c ****     lv_coord_t w = 0;
 635:..\..\..\arduinoLCD\test\Pain Drain\libraries\lvgl\src\draw/lv_img_decoder.c ****     int8_t pos   = 0;
 636:..\..\..\arduinoLCD\test\Pain Drain\libraries\lvgl\src\draw/lv_img_decoder.c ****     uint32_t ofs = 0;
 637:..\..\..\arduinoLCD\test\Pain Drain\libraries\lvgl\src\draw/lv_img_decoder.c ****     switch(dsc->header.cf) {
 1127              		.loc 1 637 0
 1128 0024 9AF81430 		ldrb	r3, [r10, #20]	@ zero_extendqisi2
 1129 0028 03F01F03 		and	r3, r3, #31
 1130 002c 073B     		subs	r3, r3, #7
 1131 002e 032B     		cmp	r3, #3
 1132 0030 43D8     		bhi	.L96
 1133 0032 DFE803F0 		tbb	[pc, r3]
 1134              	.L86:
 1135 0036 02       		.byte	(.L85-.L86)/2
 1136 0037 12       		.byte	(.L87-.L86)/2
 1137 0038 24       		.byte	(.L88-.L86)/2
 1138 0039 35       		.byte	(.L89-.L86)/2
 1139              		.p2align 1
 1140              	.L85:
 638:..\..\..\arduinoLCD\test\Pain Drain\libraries\lvgl\src\draw/lv_img_decoder.c ****         case LV_IMG_CF_INDEXED_1BIT:
 639:..\..\..\arduinoLCD\test\Pain Drain\libraries\lvgl\src\draw/lv_img_decoder.c ****             w = (dsc->header.w + 7) >> 3; /*E.g. w = 20 -> w = 2 + 1*/
 1141              		.loc 1 639 0
 1142 003a DAF81430 		ldr	r3, [r10, #20]
 1143 003e C3F38A20 		ubfx	r0, r3, #10, #11
 1144              	.LVL171:
 1145 0042 0730     		adds	r0, r0, #7
 1146 0044 C010     		asrs	r0, r0, #3
ARM GAS  C:\Users\haske\AppData\Local\Temp\ccHSLozV.s 			page 48


 1147              	.LVL172:
 640:..\..\..\arduinoLCD\test\Pain Drain\libraries\lvgl\src\draw/lv_img_decoder.c ****             ofs += w * y + (x >> 3); /*First pixel*/
 1148              		.loc 1 640 0
 1149 0046 4FEAE40B 		asr	fp, r4, #3
 1150 004a 06FB00BB 		mla	fp, r6, r0, fp
 1151              	.LVL173:
 641:..\..\..\arduinoLCD\test\Pain Drain\libraries\lvgl\src\draw/lv_img_decoder.c ****             ofs += 8;                /*Skip the palette*/
 1152              		.loc 1 641 0
 1153 004e 0BF1080B 		add	fp, fp, #8
 1154              	.LVL174:
 642:..\..\..\arduinoLCD\test\Pain Drain\libraries\lvgl\src\draw/lv_img_decoder.c ****             pos = 7 - (x & 0x7);
 1155              		.loc 1 642 0
 1156 0052 E443     		mvns	r4, r4
 1157 0054 04F00704 		and	r4, r4, #7
 1158              	.LVL175:
 643:..\..\..\arduinoLCD\test\Pain Drain\libraries\lvgl\src\draw/lv_img_decoder.c ****             break;
 1159              		.loc 1 643 0
 1160 0058 35E0     		b	.L84
 1161              	.LVL176:
 1162              	.L87:
 644:..\..\..\arduinoLCD\test\Pain Drain\libraries\lvgl\src\draw/lv_img_decoder.c ****         case LV_IMG_CF_INDEXED_2BIT:
 645:..\..\..\arduinoLCD\test\Pain Drain\libraries\lvgl\src\draw/lv_img_decoder.c ****             w = (dsc->header.w + 3) >> 2; /*E.g. w = 13 -> w = 3 + 1 (bytes)*/
 1163              		.loc 1 645 0
 1164 005a DAF81430 		ldr	r3, [r10, #20]
 1165 005e C3F38A20 		ubfx	r0, r3, #10, #11
 1166              	.LVL177:
 1167 0062 0330     		adds	r0, r0, #3
 1168 0064 8010     		asrs	r0, r0, #2
 1169              	.LVL178:
 646:..\..\..\arduinoLCD\test\Pain Drain\libraries\lvgl\src\draw/lv_img_decoder.c ****             ofs += w * y + (x >> 2); /*First pixel*/
 1170              		.loc 1 646 0
 1171 0066 4FEAA40B 		asr	fp, r4, #2
 1172 006a 06FB00BB 		mla	fp, r6, r0, fp
 1173              	.LVL179:
 647:..\..\..\arduinoLCD\test\Pain Drain\libraries\lvgl\src\draw/lv_img_decoder.c ****             ofs += 16;               /*Skip the palette*/
 1174              		.loc 1 647 0
 1175 006e 0BF1100B 		add	fp, fp, #16
 1176              	.LVL180:
 648:..\..\..\arduinoLCD\test\Pain Drain\libraries\lvgl\src\draw/lv_img_decoder.c ****             pos = 6 - (x & 0x3) * 2;
 1177              		.loc 1 648 0
 1178 0072 A4B2     		uxth	r4, r4
 1179 0074 E443     		mvns	r4, r4
 1180 0076 04F00304 		and	r4, r4, #3
 1181 007a 6400     		lsls	r4, r4, #1
 1182              	.LVL181:
 649:..\..\..\arduinoLCD\test\Pain Drain\libraries\lvgl\src\draw/lv_img_decoder.c ****             break;
 1183              		.loc 1 649 0
 1184 007c 23E0     		b	.L84
 1185              	.LVL182:
 1186              	.L88:
 650:..\..\..\arduinoLCD\test\Pain Drain\libraries\lvgl\src\draw/lv_img_decoder.c ****         case LV_IMG_CF_INDEXED_4BIT:
 651:..\..\..\arduinoLCD\test\Pain Drain\libraries\lvgl\src\draw/lv_img_decoder.c ****             w = (dsc->header.w + 1) >> 1; /*E.g. w = 13 -> w = 6 + 1 (bytes)*/
 1187              		.loc 1 651 0
 1188 007e DAF81430 		ldr	r3, [r10, #20]
 1189 0082 C3F38A20 		ubfx	r0, r3, #10, #11
 1190              	.LVL183:
 1191 0086 0130     		adds	r0, r0, #1
ARM GAS  C:\Users\haske\AppData\Local\Temp\ccHSLozV.s 			page 49


 1192 0088 4010     		asrs	r0, r0, #1
 1193              	.LVL184:
 652:..\..\..\arduinoLCD\test\Pain Drain\libraries\lvgl\src\draw/lv_img_decoder.c ****             ofs += w * y + (x >> 1); /*First pixel*/
 1194              		.loc 1 652 0
 1195 008a 4FEA640B 		asr	fp, r4, #1
 1196 008e 06FB00BB 		mla	fp, r6, r0, fp
 1197              	.LVL185:
 653:..\..\..\arduinoLCD\test\Pain Drain\libraries\lvgl\src\draw/lv_img_decoder.c ****             ofs += 64;               /*Skip the palette*/
 1198              		.loc 1 653 0
 1199 0092 0BF1400B 		add	fp, fp, #64
 1200              	.LVL186:
 654:..\..\..\arduinoLCD\test\Pain Drain\libraries\lvgl\src\draw/lv_img_decoder.c ****             pos = 4 - (x & 0x1) * 4;
 1201              		.loc 1 654 0
 1202 0096 14F0010F 		tst	r4, #1
 1203 009a 13D1     		bne	.L97
 1204 009c 0424     		movs	r4, #4
 1205 009e 12E0     		b	.L84
 1206              	.LVL187:
 1207              	.L89:
 655:..\..\..\arduinoLCD\test\Pain Drain\libraries\lvgl\src\draw/lv_img_decoder.c ****             break;
 656:..\..\..\arduinoLCD\test\Pain Drain\libraries\lvgl\src\draw/lv_img_decoder.c ****         case LV_IMG_CF_INDEXED_8BIT:
 657:..\..\..\arduinoLCD\test\Pain Drain\libraries\lvgl\src\draw/lv_img_decoder.c ****             w = dsc->header.w; /*E.g. x = 7 -> w = 7 (bytes)*/
 1208              		.loc 1 657 0
 1209 00a0 DAF81400 		ldr	r0, [r10, #20]
 1210              	.LVL188:
 1211 00a4 C0F38A20 		ubfx	r0, r0, #10, #11
 1212 00a8 1FFA80FB 		uxth	fp, r0
 1213 00ac 00B2     		sxth	r0, r0
 1214              	.LVL189:
 658:..\..\..\arduinoLCD\test\Pain Drain\libraries\lvgl\src\draw/lv_img_decoder.c ****             ofs += w * y + x;  /*First pixel*/
 1215              		.loc 1 658 0
 1216 00ae 06FB0B4B 		mla	fp, r6, fp, r4
 1217              	.LVL190:
 659:..\..\..\arduinoLCD\test\Pain Drain\libraries\lvgl\src\draw/lv_img_decoder.c ****             ofs += 1024;       /*Skip the palette*/
 1218              		.loc 1 659 0
 1219 00b2 0BF5806B 		add	fp, fp, #1024
 1220              	.LVL191:
 660:..\..\..\arduinoLCD\test\Pain Drain\libraries\lvgl\src\draw/lv_img_decoder.c ****             pos = 0;
 1221              		.loc 1 660 0
 1222 00b6 0024     		movs	r4, #0
 661:..\..\..\arduinoLCD\test\Pain Drain\libraries\lvgl\src\draw/lv_img_decoder.c ****             break;
 1223              		.loc 1 661 0
 1224 00b8 05E0     		b	.L84
 1225              	.LVL192:
 1226              	.L96:
 636:..\..\..\arduinoLCD\test\Pain Drain\libraries\lvgl\src\draw/lv_img_decoder.c ****     switch(dsc->header.cf) {
 1227              		.loc 1 636 0
 1228 00ba 4FF0000B 		mov	fp, #0
 635:..\..\..\arduinoLCD\test\Pain Drain\libraries\lvgl\src\draw/lv_img_decoder.c ****     uint32_t ofs = 0;
 1229              		.loc 1 635 0
 1230 00be 5C46     		mov	r4, fp
 634:..\..\..\arduinoLCD\test\Pain Drain\libraries\lvgl\src\draw/lv_img_decoder.c ****     int8_t pos   = 0;
 1231              		.loc 1 634 0
 1232 00c0 5846     		mov	r0, fp
 1233              	.LVL193:
 1234 00c2 00E0     		b	.L84
 1235              	.LVL194:
ARM GAS  C:\Users\haske\AppData\Local\Temp\ccHSLozV.s 			page 50


 1236              	.L97:
 654:..\..\..\arduinoLCD\test\Pain Drain\libraries\lvgl\src\draw/lv_img_decoder.c ****             break;
 1237              		.loc 1 654 0
 1238 00c4 0024     		movs	r4, #0
 1239              	.LVL195:
 1240              	.L84:
 662:..\..\..\arduinoLCD\test\Pain Drain\libraries\lvgl\src\draw/lv_img_decoder.c ****     }
 663:..\..\..\arduinoLCD\test\Pain Drain\libraries\lvgl\src\draw/lv_img_decoder.c **** 
 664:..\..\..\arduinoLCD\test\Pain Drain\libraries\lvgl\src\draw/lv_img_decoder.c ****     lv_img_decoder_built_in_data_t * user_data = dsc->user_data;
 1241              		.loc 1 664 0
 1242 00c6 DAF82460 		ldr	r6, [r10, #36]
 1243              	.LVL196:
 665:..\..\..\arduinoLCD\test\Pain Drain\libraries\lvgl\src\draw/lv_img_decoder.c **** 
 666:..\..\..\arduinoLCD\test\Pain Drain\libraries\lvgl\src\draw/lv_img_decoder.c ****     uint8_t * fs_buf = lv_mem_buf_get(w);
 1244              		.loc 1 666 0
 1245 00ca 0190     		str	r0, [sp, #4]
 1246 00cc FFF7FEFF 		bl	lv_mem_buf_get
 1247              	.LVL197:
 667:..\..\..\arduinoLCD\test\Pain Drain\libraries\lvgl\src\draw/lv_img_decoder.c ****     if(fs_buf == NULL) return LV_RES_INV;
 1248              		.loc 1 667 0
 1249 00d0 0090     		str	r0, [sp]
 1250 00d2 0028     		cmp	r0, #0
 1251 00d4 3ED0     		beq	.L98
 1252              	.LVL198:
 668:..\..\..\arduinoLCD\test\Pain Drain\libraries\lvgl\src\draw/lv_img_decoder.c ****     const uint8_t * data_tmp = NULL;
 669:..\..\..\arduinoLCD\test\Pain Drain\libraries\lvgl\src\draw/lv_img_decoder.c ****     if(dsc->src_type == LV_IMG_SRC_VARIABLE) {
 1253              		.loc 1 669 0
 1254 00d6 9AF81030 		ldrb	r3, [r10, #16]	@ zero_extendqisi2
 1255 00da 2BB9     		cbnz	r3, .L91
 1256              	.LBB33:
 670:..\..\..\arduinoLCD\test\Pain Drain\libraries\lvgl\src\draw/lv_img_decoder.c ****         const lv_img_dsc_t * img_dsc = dsc->src;
 1257              		.loc 1 670 0
 1258 00dc DAF80430 		ldr	r3, [r10, #4]
 1259              	.LVL199:
 671:..\..\..\arduinoLCD\test\Pain Drain\libraries\lvgl\src\draw/lv_img_decoder.c ****         data_tmp                     = img_dsc->data + ofs;
 1260              		.loc 1 671 0
 1261 00e0 9B68     		ldr	r3, [r3, #8]
 1262              	.LVL200:
 1263 00e2 9B44     		add	fp, fp, r3
 1264              	.LVL201:
 1265              	.L93:
 1266              	.LBE33:
 672:..\..\..\arduinoLCD\test\Pain Drain\libraries\lvgl\src\draw/lv_img_decoder.c ****     }
 673:..\..\..\arduinoLCD\test\Pain Drain\libraries\lvgl\src\draw/lv_img_decoder.c ****     else {
 674:..\..\..\arduinoLCD\test\Pain Drain\libraries\lvgl\src\draw/lv_img_decoder.c ****         lv_fs_seek(&user_data->f, ofs + 4, LV_FS_SEEK_SET); /*+4 to skip the header*/
 675:..\..\..\arduinoLCD\test\Pain Drain\libraries\lvgl\src\draw/lv_img_decoder.c ****         lv_fs_read(&user_data->f, fs_buf, w, NULL);
 676:..\..\..\arduinoLCD\test\Pain Drain\libraries\lvgl\src\draw/lv_img_decoder.c ****         data_tmp = fs_buf;
 1267              		.loc 1 676 0 discriminator 1
 1268 00e4 0021     		movs	r1, #0
 1269 00e6 2EE0     		b	.L92
 1270              	.LVL202:
 1271              	.L91:
 674:..\..\..\arduinoLCD\test\Pain Drain\libraries\lvgl\src\draw/lv_img_decoder.c ****         lv_fs_read(&user_data->f, fs_buf, w, NULL);
 1272              		.loc 1 674 0
 1273 00e8 0022     		movs	r2, #0
 1274 00ea 0BF10401 		add	r1, fp, #4
 1275 00ee 3046     		mov	r0, r6
ARM GAS  C:\Users\haske\AppData\Local\Temp\ccHSLozV.s 			page 51


 1276              	.LVL203:
 1277 00f0 FFF7FEFF 		bl	lv_fs_seek
 1278              	.LVL204:
 675:..\..\..\arduinoLCD\test\Pain Drain\libraries\lvgl\src\draw/lv_img_decoder.c ****         data_tmp = fs_buf;
 1279              		.loc 1 675 0
 1280 00f4 0023     		movs	r3, #0
 1281 00f6 019A     		ldr	r2, [sp, #4]
 1282 00f8 DDF800B0 		ldr	fp, [sp]
 1283              	.LVL205:
 1284 00fc 5946     		mov	r1, fp
 1285 00fe 3046     		mov	r0, r6
 1286 0100 FFF7FEFF 		bl	lv_fs_read
 1287              	.LVL206:
 1288 0104 EEE7     		b	.L93
 1289              	.LVL207:
 1290              	.L95:
 1291              	.LBB34:
 677:..\..\..\arduinoLCD\test\Pain Drain\libraries\lvgl\src\draw/lv_img_decoder.c ****     }
 678:..\..\..\arduinoLCD\test\Pain Drain\libraries\lvgl\src\draw/lv_img_decoder.c **** 
 679:..\..\..\arduinoLCD\test\Pain Drain\libraries\lvgl\src\draw/lv_img_decoder.c ****     lv_coord_t i;
 680:..\..\..\arduinoLCD\test\Pain Drain\libraries\lvgl\src\draw/lv_img_decoder.c ****     for(i = 0; i < len; i++) {
 681:..\..\..\arduinoLCD\test\Pain Drain\libraries\lvgl\src\draw/lv_img_decoder.c ****         uint8_t val_act = (*data_tmp >> pos) & mask;
 1292              		.loc 1 681 0
 1293 0106 9BF80030 		ldrb	r3, [fp]	@ zero_extendqisi2
 1294 010a 2341     		asrs	r3, r3, r4
 1295 010c 3B40     		ands	r3, r3, r7
 1296 010e DBB2     		uxtb	r3, r3
 1297              	.LVL208:
 682:..\..\..\arduinoLCD\test\Pain Drain\libraries\lvgl\src\draw/lv_img_decoder.c **** 
 683:..\..\..\arduinoLCD\test\Pain Drain\libraries\lvgl\src\draw/lv_img_decoder.c ****         lv_color_t color = user_data->palette[val_act];
 1298              		.loc 1 683 0
 1299 0110 F068     		ldr	r0, [r6, #12]
 684:..\..\..\arduinoLCD\test\Pain Drain\libraries\lvgl\src\draw/lv_img_decoder.c **** #if LV_COLOR_DEPTH == 8 || LV_COLOR_DEPTH == 1
 685:..\..\..\arduinoLCD\test\Pain Drain\libraries\lvgl\src\draw/lv_img_decoder.c ****         buf[i * LV_IMG_PX_SIZE_ALPHA_BYTE] = color.full;
 686:..\..\..\arduinoLCD\test\Pain Drain\libraries\lvgl\src\draw/lv_img_decoder.c **** #elif LV_COLOR_DEPTH == 16
 687:..\..\..\arduinoLCD\test\Pain Drain\libraries\lvgl\src\draw/lv_img_decoder.c ****         /*Because of Alpha byte 16 bit color can start on odd address which can cause crash*/
 688:..\..\..\arduinoLCD\test\Pain Drain\libraries\lvgl\src\draw/lv_img_decoder.c ****         buf[i * LV_IMG_PX_SIZE_ALPHA_BYTE] = color.full & 0xFF;
 1300              		.loc 1 688 0
 1301 0112 01EB4102 		add	r2, r1, r1, lsl #1
 1302 0116 30F81300 		ldrh	r0, [r0, r3, lsl #1]
 1303 011a A854     		strb	r0, [r5, r2]
 689:..\..\..\arduinoLCD\test\Pain Drain\libraries\lvgl\src\draw/lv_img_decoder.c ****         buf[i * LV_IMG_PX_SIZE_ALPHA_BYTE + 1] = (color.full >> 8) & 0xFF;
 1304              		.loc 1 689 0
 1305 011c 02F1010E 		add	lr, r2, #1
 1306 0120 000A     		lsrs	r0, r0, #8
 1307 0122 05F80E00 		strb	r0, [r5, lr]
 690:..\..\..\arduinoLCD\test\Pain Drain\libraries\lvgl\src\draw/lv_img_decoder.c **** #elif LV_COLOR_DEPTH == 32
 691:..\..\..\arduinoLCD\test\Pain Drain\libraries\lvgl\src\draw/lv_img_decoder.c ****         *((uint32_t *)&buf[i * LV_IMG_PX_SIZE_ALPHA_BYTE]) = color.full;
 692:..\..\..\arduinoLCD\test\Pain Drain\libraries\lvgl\src\draw/lv_img_decoder.c **** #else
 693:..\..\..\arduinoLCD\test\Pain Drain\libraries\lvgl\src\draw/lv_img_decoder.c **** #error "Invalid LV_COLOR_DEPTH. Check it in lv_conf.h"
 694:..\..\..\arduinoLCD\test\Pain Drain\libraries\lvgl\src\draw/lv_img_decoder.c **** #endif
 695:..\..\..\arduinoLCD\test\Pain Drain\libraries\lvgl\src\draw/lv_img_decoder.c ****         buf[i * LV_IMG_PX_SIZE_ALPHA_BYTE + LV_IMG_PX_SIZE_ALPHA_BYTE - 1] = user_data->opa[val_act
 1308              		.loc 1 695 0
 1309 0126 0232     		adds	r2, r2, #2
 1310 0128 3069     		ldr	r0, [r6, #16]
 1311 012a C35C     		ldrb	r3, [r0, r3]	@ zero_extendqisi2
 1312              	.LVL209:
ARM GAS  C:\Users\haske\AppData\Local\Temp\ccHSLozV.s 			page 52


 1313 012c AB54     		strb	r3, [r5, r2]
 696:..\..\..\arduinoLCD\test\Pain Drain\libraries\lvgl\src\draw/lv_img_decoder.c **** 
 697:..\..\..\arduinoLCD\test\Pain Drain\libraries\lvgl\src\draw/lv_img_decoder.c ****         pos -= px_size;
 1314              		.loc 1 697 0
 1315 012e C8EB0404 		rsb	r4, r8, r4
 1316              	.LVL210:
 1317 0132 64B2     		sxtb	r4, r4
 1318              	.LVL211:
 698:..\..\..\arduinoLCD\test\Pain Drain\libraries\lvgl\src\draw/lv_img_decoder.c ****         if(pos < 0) {
 1319              		.loc 1 698 0
 1320 0134 002C     		cmp	r4, #0
 1321 0136 04DA     		bge	.L94
 699:..\..\..\arduinoLCD\test\Pain Drain\libraries\lvgl\src\draw/lv_img_decoder.c ****             pos = 8 - px_size;
 1322              		.loc 1 699 0
 1323 0138 C8F10804 		rsb	r4, r8, #8
 1324              	.LVL212:
 1325 013c 64B2     		sxtb	r4, r4
 1326              	.LVL213:
 700:..\..\..\arduinoLCD\test\Pain Drain\libraries\lvgl\src\draw/lv_img_decoder.c ****             data_tmp++;
 1327              		.loc 1 700 0
 1328 013e 0BF1010B 		add	fp, fp, #1
 1329              	.LVL214:
 1330              	.L94:
 1331              	.LBE34:
 680:..\..\..\arduinoLCD\test\Pain Drain\libraries\lvgl\src\draw/lv_img_decoder.c ****         uint8_t val_act = (*data_tmp >> pos) & mask;
 1332              		.loc 1 680 0 discriminator 2
 1333 0142 0131     		adds	r1, r1, #1
 1334              	.LVL215:
 1335 0144 09B2     		sxth	r1, r1
 1336              	.LVL216:
 1337              	.L92:
 680:..\..\..\arduinoLCD\test\Pain Drain\libraries\lvgl\src\draw/lv_img_decoder.c ****         uint8_t val_act = (*data_tmp >> pos) & mask;
 1338              		.loc 1 680 0 is_stmt 0 discriminator 1
 1339 0146 4945     		cmp	r1, r9
 1340 0148 DDDB     		blt	.L95
 701:..\..\..\arduinoLCD\test\Pain Drain\libraries\lvgl\src\draw/lv_img_decoder.c ****         }
 702:..\..\..\arduinoLCD\test\Pain Drain\libraries\lvgl\src\draw/lv_img_decoder.c ****     }
 703:..\..\..\arduinoLCD\test\Pain Drain\libraries\lvgl\src\draw/lv_img_decoder.c ****     lv_mem_buf_release(fs_buf);
 1341              		.loc 1 703 0 is_stmt 1
 1342 014a 0098     		ldr	r0, [sp]
 1343 014c FFF7FEFF 		bl	lv_mem_buf_release
 1344              	.LVL217:
 704:..\..\..\arduinoLCD\test\Pain Drain\libraries\lvgl\src\draw/lv_img_decoder.c ****     return LV_RES_OK;
 1345              		.loc 1 704 0
 1346 0150 0120     		movs	r0, #1
 1347 0152 00E0     		b	.L90
 1348              	.LVL218:
 1349              	.L98:
 667:..\..\..\arduinoLCD\test\Pain Drain\libraries\lvgl\src\draw/lv_img_decoder.c ****     const uint8_t * data_tmp = NULL;
 1350              		.loc 1 667 0
 1351 0154 0020     		movs	r0, #0
 1352              	.LVL219:
 1353              	.L90:
 705:..\..\..\arduinoLCD\test\Pain Drain\libraries\lvgl\src\draw/lv_img_decoder.c **** }
 1354              		.loc 1 705 0
 1355 0156 03B0     		add	sp, sp, #12
 1356              		.cfi_def_cfa_offset 36
ARM GAS  C:\Users\haske\AppData\Local\Temp\ccHSLozV.s 			page 53


 1357              	.LVL220:
 1358              		@ sp needed
 1359 0158 BDE8F08F 		pop	{r4, r5, r6, r7, r8, r9, r10, fp, pc}
 1360              		.cfi_endproc
 1361              	.LFE73:
 1362              		.size	lv_img_decoder_built_in_line_indexed, .-lv_img_decoder_built_in_line_indexed
 1363              		.section	.text.lv_img_decoder_built_in_read_line,"ax",%progbits
 1364              		.align	2
 1365              		.global	lv_img_decoder_built_in_read_line
 1366              		.thumb
 1367              		.thumb_func
 1368              		.type	lv_img_decoder_built_in_read_line, %function
 1369              	lv_img_decoder_built_in_read_line:
 1370              	.LFB69:
 457:..\..\..\arduinoLCD\test\Pain Drain\libraries\lvgl\src\draw/lv_img_decoder.c ****     LV_UNUSED(decoder); /*Unused*/
 1371              		.loc 1 457 0
 1372              		.cfi_startproc
 1373              		@ args = 8, pretend = 0, frame = 0
 1374              		@ frame_needed = 0, uses_anonymous_args = 0
 1375              	.LVL221:
 1376 0000 30B5     		push	{r4, r5, lr}
 1377              		.cfi_def_cfa_offset 12
 1378              		.cfi_offset 4, -12
 1379              		.cfi_offset 5, -8
 1380              		.cfi_offset 14, -4
 1381 0002 83B0     		sub	sp, sp, #12
 1382              		.cfi_def_cfa_offset 24
 1383 0004 0846     		mov	r0, r1
 1384              	.LVL222:
 1385 0006 1146     		mov	r1, r2
 1386              	.LVL223:
 1387 0008 1A46     		mov	r2, r3
 1388              	.LVL224:
 1389 000a BDF91830 		ldrsh	r3, [sp, #24]
 1390              	.LVL225:
 462:..\..\..\arduinoLCD\test\Pain Drain\libraries\lvgl\src\draw/lv_img_decoder.c ****        dsc->header.cf == LV_IMG_CF_TRUE_COLOR_CHROMA_KEYED) {
 1391              		.loc 1 462 0
 1392 000e 047D     		ldrb	r4, [r0, #20]	@ zero_extendqisi2
 1393 0010 04F01F04 		and	r4, r4, #31
 1394 0014 251F     		subs	r5, r4, #4
 1395 0016 EDB2     		uxtb	r5, r5
 1396 0018 022D     		cmp	r5, #2
 1397 001a 07D8     		bhi	.L101
 466:..\..\..\arduinoLCD\test\Pain Drain\libraries\lvgl\src\draw/lv_img_decoder.c ****             res = lv_img_decoder_built_in_line_true_color(dsc, x, y, len, buf);
 1398              		.loc 1 466 0
 1399 001c 047C     		ldrb	r4, [r0, #16]	@ zero_extendqisi2
 1400 001e 012C     		cmp	r4, #1
 1401 0020 17D1     		bne	.L104
 467:..\..\..\arduinoLCD\test\Pain Drain\libraries\lvgl\src\draw/lv_img_decoder.c ****         }
 1402              		.loc 1 467 0
 1403 0022 079C     		ldr	r4, [sp, #28]
 1404 0024 0094     		str	r4, [sp]
 1405 0026 FFF7FEFF 		bl	lv_img_decoder_built_in_line_true_color
 1406              	.LVL226:
 1407 002a 15E0     		b	.L102
 1408              	.LVL227:
 1409              	.L101:
ARM GAS  C:\Users\haske\AppData\Local\Temp\ccHSLozV.s 			page 54


 471:..\..\..\arduinoLCD\test\Pain Drain\libraries\lvgl\src\draw/lv_img_decoder.c ****         res = lv_img_decoder_built_in_line_alpha(dsc, x, y, len, buf);
 1410              		.loc 1 471 0
 1411 002c A4F10B05 		sub	r5, r4, #11
 1412 0030 EDB2     		uxtb	r5, r5
 470:..\..\..\arduinoLCD\test\Pain Drain\libraries\lvgl\src\draw/lv_img_decoder.c ****             dsc->header.cf == LV_IMG_CF_ALPHA_4BIT || dsc->header.cf == LV_IMG_CF_ALPHA_8BIT) {
 1413              		.loc 1 470 0
 1414 0032 032D     		cmp	r5, #3
 1415 0034 04D8     		bhi	.L103
