ARM GAS  C:\Users\haske\AppData\Local\Temp\ccOQHbDo.s 			page 1


   1              		.syntax unified
   2              		.cpu cortex-m4
   3              		.eabi_attribute 27, 1
   4              		.fpu fpv4-sp-d16
   5              		.eabi_attribute 20, 1
   6              		.eabi_attribute 21, 1
   7              		.eabi_attribute 23, 3
   8              		.eabi_attribute 24, 1
   9              		.eabi_attribute 25, 1
  10              		.eabi_attribute 26, 1
  11              		.eabi_attribute 30, 1
  12              		.eabi_attribute 34, 1
  13              		.eabi_attribute 18, 4
  14              		.thumb
  15              		.syntax unified
  16              		.file	"lv_indev.c"
  17              		.text
  18              	.Ltext0:
  19              		.cfi_sections	.debug_frame
  20              		.section	.text.indev_proc_reset_query_handler,"ax",%progbits
  21              		.align	2
  22              		.thumb
  23              		.thumb_func
  24              		.type	indev_proc_reset_query_handler, %function
  25              	indev_proc_reset_query_handler:
  26              	.LFB190:
  27              		.file 1 "..\\..\\..\\arduinoLCD\\test\\Pain Drain\\libraries\\lvgl\\src\\core\\lv_indev.c"
   1:..\..\..\arduinoLCD\test\Pain Drain\libraries\lvgl\src\core/lv_indev.c **** /**
   2:..\..\..\arduinoLCD\test\Pain Drain\libraries\lvgl\src\core/lv_indev.c ****  * @file lv_indev.c
   3:..\..\..\arduinoLCD\test\Pain Drain\libraries\lvgl\src\core/lv_indev.c ****  *
   4:..\..\..\arduinoLCD\test\Pain Drain\libraries\lvgl\src\core/lv_indev.c ****  */
   5:..\..\..\arduinoLCD\test\Pain Drain\libraries\lvgl\src\core/lv_indev.c **** 
   6:..\..\..\arduinoLCD\test\Pain Drain\libraries\lvgl\src\core/lv_indev.c **** /*********************
   7:..\..\..\arduinoLCD\test\Pain Drain\libraries\lvgl\src\core/lv_indev.c ****  *      INCLUDES
   8:..\..\..\arduinoLCD\test\Pain Drain\libraries\lvgl\src\core/lv_indev.c ****  ********************/
   9:..\..\..\arduinoLCD\test\Pain Drain\libraries\lvgl\src\core/lv_indev.c **** #include "lv_indev.h"
  10:..\..\..\arduinoLCD\test\Pain Drain\libraries\lvgl\src\core/lv_indev.c **** #include "lv_disp.h"
  11:..\..\..\arduinoLCD\test\Pain Drain\libraries\lvgl\src\core/lv_indev.c **** #include "lv_obj.h"
  12:..\..\..\arduinoLCD\test\Pain Drain\libraries\lvgl\src\core/lv_indev.c **** #include "lv_indev_scroll.h"
  13:..\..\..\arduinoLCD\test\Pain Drain\libraries\lvgl\src\core/lv_indev.c **** #include "lv_group.h"
  14:..\..\..\arduinoLCD\test\Pain Drain\libraries\lvgl\src\core/lv_indev.c **** #include "lv_refr.h"
  15:..\..\..\arduinoLCD\test\Pain Drain\libraries\lvgl\src\core/lv_indev.c **** 
  16:..\..\..\arduinoLCD\test\Pain Drain\libraries\lvgl\src\core/lv_indev.c **** #include "../hal/lv_hal_tick.h"
  17:..\..\..\arduinoLCD\test\Pain Drain\libraries\lvgl\src\core/lv_indev.c **** #include "../misc/lv_timer.h"
  18:..\..\..\arduinoLCD\test\Pain Drain\libraries\lvgl\src\core/lv_indev.c **** #include "../misc/lv_math.h"
  19:..\..\..\arduinoLCD\test\Pain Drain\libraries\lvgl\src\core/lv_indev.c **** 
  20:..\..\..\arduinoLCD\test\Pain Drain\libraries\lvgl\src\core/lv_indev.c **** /*********************
  21:..\..\..\arduinoLCD\test\Pain Drain\libraries\lvgl\src\core/lv_indev.c ****  *      DEFINES
  22:..\..\..\arduinoLCD\test\Pain Drain\libraries\lvgl\src\core/lv_indev.c ****  *********************/
  23:..\..\..\arduinoLCD\test\Pain Drain\libraries\lvgl\src\core/lv_indev.c **** #if LV_INDEV_DEF_SCROLL_THROW <= 0
  24:..\..\..\arduinoLCD\test\Pain Drain\libraries\lvgl\src\core/lv_indev.c ****     #warning "LV_INDEV_DRAG_THROW must be greater than 0"
  25:..\..\..\arduinoLCD\test\Pain Drain\libraries\lvgl\src\core/lv_indev.c **** #endif
  26:..\..\..\arduinoLCD\test\Pain Drain\libraries\lvgl\src\core/lv_indev.c **** 
  27:..\..\..\arduinoLCD\test\Pain Drain\libraries\lvgl\src\core/lv_indev.c **** /**********************
  28:..\..\..\arduinoLCD\test\Pain Drain\libraries\lvgl\src\core/lv_indev.c ****  *      TYPEDEFS
  29:..\..\..\arduinoLCD\test\Pain Drain\libraries\lvgl\src\core/lv_indev.c ****  **********************/
  30:..\..\..\arduinoLCD\test\Pain Drain\libraries\lvgl\src\core/lv_indev.c **** 
ARM GAS  C:\Users\haske\AppData\Local\Temp\ccOQHbDo.s 			page 2


  31:..\..\..\arduinoLCD\test\Pain Drain\libraries\lvgl\src\core/lv_indev.c **** /**********************
  32:..\..\..\arduinoLCD\test\Pain Drain\libraries\lvgl\src\core/lv_indev.c ****  *  STATIC PROTOTYPES
  33:..\..\..\arduinoLCD\test\Pain Drain\libraries\lvgl\src\core/lv_indev.c ****  **********************/
  34:..\..\..\arduinoLCD\test\Pain Drain\libraries\lvgl\src\core/lv_indev.c **** static void indev_pointer_proc(lv_indev_t * i, lv_indev_data_t * data);
  35:..\..\..\arduinoLCD\test\Pain Drain\libraries\lvgl\src\core/lv_indev.c **** static void indev_keypad_proc(lv_indev_t * i, lv_indev_data_t * data);
  36:..\..\..\arduinoLCD\test\Pain Drain\libraries\lvgl\src\core/lv_indev.c **** static void indev_encoder_proc(lv_indev_t * i, lv_indev_data_t * data);
  37:..\..\..\arduinoLCD\test\Pain Drain\libraries\lvgl\src\core/lv_indev.c **** static void indev_button_proc(lv_indev_t * i, lv_indev_data_t * data);
  38:..\..\..\arduinoLCD\test\Pain Drain\libraries\lvgl\src\core/lv_indev.c **** static void indev_proc_press(_lv_indev_proc_t * proc);
  39:..\..\..\arduinoLCD\test\Pain Drain\libraries\lvgl\src\core/lv_indev.c **** static void indev_proc_release(_lv_indev_proc_t * proc);
  40:..\..\..\arduinoLCD\test\Pain Drain\libraries\lvgl\src\core/lv_indev.c **** static void indev_proc_reset_query_handler(lv_indev_t * indev);
  41:..\..\..\arduinoLCD\test\Pain Drain\libraries\lvgl\src\core/lv_indev.c **** static void indev_click_focus(_lv_indev_proc_t * proc);
  42:..\..\..\arduinoLCD\test\Pain Drain\libraries\lvgl\src\core/lv_indev.c **** static void indev_gesture(_lv_indev_proc_t * proc);
  43:..\..\..\arduinoLCD\test\Pain Drain\libraries\lvgl\src\core/lv_indev.c **** static bool indev_reset_check(_lv_indev_proc_t * proc);
  44:..\..\..\arduinoLCD\test\Pain Drain\libraries\lvgl\src\core/lv_indev.c **** 
  45:..\..\..\arduinoLCD\test\Pain Drain\libraries\lvgl\src\core/lv_indev.c **** /**********************
  46:..\..\..\arduinoLCD\test\Pain Drain\libraries\lvgl\src\core/lv_indev.c ****  *  STATIC VARIABLES
  47:..\..\..\arduinoLCD\test\Pain Drain\libraries\lvgl\src\core/lv_indev.c ****  **********************/
  48:..\..\..\arduinoLCD\test\Pain Drain\libraries\lvgl\src\core/lv_indev.c **** static lv_indev_t * indev_act;
  49:..\..\..\arduinoLCD\test\Pain Drain\libraries\lvgl\src\core/lv_indev.c **** static lv_obj_t * indev_obj_act = NULL;
  50:..\..\..\arduinoLCD\test\Pain Drain\libraries\lvgl\src\core/lv_indev.c **** 
  51:..\..\..\arduinoLCD\test\Pain Drain\libraries\lvgl\src\core/lv_indev.c **** /**********************
  52:..\..\..\arduinoLCD\test\Pain Drain\libraries\lvgl\src\core/lv_indev.c ****  *      MACROS
  53:..\..\..\arduinoLCD\test\Pain Drain\libraries\lvgl\src\core/lv_indev.c ****  **********************/
  54:..\..\..\arduinoLCD\test\Pain Drain\libraries\lvgl\src\core/lv_indev.c **** #if LV_LOG_TRACE_INDEV
  55:..\..\..\arduinoLCD\test\Pain Drain\libraries\lvgl\src\core/lv_indev.c ****     #define INDEV_TRACE(...) LV_LOG_TRACE(__VA_ARGS__)
  56:..\..\..\arduinoLCD\test\Pain Drain\libraries\lvgl\src\core/lv_indev.c **** #else
  57:..\..\..\arduinoLCD\test\Pain Drain\libraries\lvgl\src\core/lv_indev.c ****     #define INDEV_TRACE(...)
  58:..\..\..\arduinoLCD\test\Pain Drain\libraries\lvgl\src\core/lv_indev.c **** #endif
  59:..\..\..\arduinoLCD\test\Pain Drain\libraries\lvgl\src\core/lv_indev.c **** 
  60:..\..\..\arduinoLCD\test\Pain Drain\libraries\lvgl\src\core/lv_indev.c **** /**********************
  61:..\..\..\arduinoLCD\test\Pain Drain\libraries\lvgl\src\core/lv_indev.c ****  *   GLOBAL FUNCTIONS
  62:..\..\..\arduinoLCD\test\Pain Drain\libraries\lvgl\src\core/lv_indev.c ****  **********************/
  63:..\..\..\arduinoLCD\test\Pain Drain\libraries\lvgl\src\core/lv_indev.c **** 
  64:..\..\..\arduinoLCD\test\Pain Drain\libraries\lvgl\src\core/lv_indev.c **** void lv_indev_read_timer_cb(lv_timer_t * timer)
  65:..\..\..\arduinoLCD\test\Pain Drain\libraries\lvgl\src\core/lv_indev.c **** {
  66:..\..\..\arduinoLCD\test\Pain Drain\libraries\lvgl\src\core/lv_indev.c ****     INDEV_TRACE("begin");
  67:..\..\..\arduinoLCD\test\Pain Drain\libraries\lvgl\src\core/lv_indev.c **** 
  68:..\..\..\arduinoLCD\test\Pain Drain\libraries\lvgl\src\core/lv_indev.c ****     lv_indev_data_t data;
  69:..\..\..\arduinoLCD\test\Pain Drain\libraries\lvgl\src\core/lv_indev.c **** 
  70:..\..\..\arduinoLCD\test\Pain Drain\libraries\lvgl\src\core/lv_indev.c ****     indev_act = timer->user_data;
  71:..\..\..\arduinoLCD\test\Pain Drain\libraries\lvgl\src\core/lv_indev.c **** 
  72:..\..\..\arduinoLCD\test\Pain Drain\libraries\lvgl\src\core/lv_indev.c ****     /*Read and process all indevs*/
  73:..\..\..\arduinoLCD\test\Pain Drain\libraries\lvgl\src\core/lv_indev.c ****     if(indev_act->driver->disp == NULL) return; /*Not assigned to any displays*/
  74:..\..\..\arduinoLCD\test\Pain Drain\libraries\lvgl\src\core/lv_indev.c **** 
  75:..\..\..\arduinoLCD\test\Pain Drain\libraries\lvgl\src\core/lv_indev.c ****     /*Handle reset query before processing the point*/
  76:..\..\..\arduinoLCD\test\Pain Drain\libraries\lvgl\src\core/lv_indev.c ****     indev_proc_reset_query_handler(indev_act);
  77:..\..\..\arduinoLCD\test\Pain Drain\libraries\lvgl\src\core/lv_indev.c **** 
  78:..\..\..\arduinoLCD\test\Pain Drain\libraries\lvgl\src\core/lv_indev.c ****     if(indev_act->proc.disabled ||
  79:..\..\..\arduinoLCD\test\Pain Drain\libraries\lvgl\src\core/lv_indev.c ****        indev_act->driver->disp->prev_scr != NULL) return; /*Input disabled or screen animation acti
  80:..\..\..\arduinoLCD\test\Pain Drain\libraries\lvgl\src\core/lv_indev.c ****     bool continue_reading;
  81:..\..\..\arduinoLCD\test\Pain Drain\libraries\lvgl\src\core/lv_indev.c ****     do {
  82:..\..\..\arduinoLCD\test\Pain Drain\libraries\lvgl\src\core/lv_indev.c ****         /*Read the data*/
  83:..\..\..\arduinoLCD\test\Pain Drain\libraries\lvgl\src\core/lv_indev.c ****         _lv_indev_read(indev_act, &data);
  84:..\..\..\arduinoLCD\test\Pain Drain\libraries\lvgl\src\core/lv_indev.c ****         continue_reading = data.continue_reading;
  85:..\..\..\arduinoLCD\test\Pain Drain\libraries\lvgl\src\core/lv_indev.c **** 
  86:..\..\..\arduinoLCD\test\Pain Drain\libraries\lvgl\src\core/lv_indev.c ****         /*The active object might be deleted even in the read function*/
  87:..\..\..\arduinoLCD\test\Pain Drain\libraries\lvgl\src\core/lv_indev.c ****         indev_proc_reset_query_handler(indev_act);
ARM GAS  C:\Users\haske\AppData\Local\Temp\ccOQHbDo.s 			page 3


  88:..\..\..\arduinoLCD\test\Pain Drain\libraries\lvgl\src\core/lv_indev.c ****         indev_obj_act = NULL;
  89:..\..\..\arduinoLCD\test\Pain Drain\libraries\lvgl\src\core/lv_indev.c **** 
  90:..\..\..\arduinoLCD\test\Pain Drain\libraries\lvgl\src\core/lv_indev.c ****         indev_act->proc.state = data.state;
  91:..\..\..\arduinoLCD\test\Pain Drain\libraries\lvgl\src\core/lv_indev.c **** 
  92:..\..\..\arduinoLCD\test\Pain Drain\libraries\lvgl\src\core/lv_indev.c ****         /*Save the last activity time*/
  93:..\..\..\arduinoLCD\test\Pain Drain\libraries\lvgl\src\core/lv_indev.c ****         if(indev_act->proc.state == LV_INDEV_STATE_PRESSED) {
  94:..\..\..\arduinoLCD\test\Pain Drain\libraries\lvgl\src\core/lv_indev.c ****             indev_act->driver->disp->last_activity_time = lv_tick_get();
  95:..\..\..\arduinoLCD\test\Pain Drain\libraries\lvgl\src\core/lv_indev.c ****         }
  96:..\..\..\arduinoLCD\test\Pain Drain\libraries\lvgl\src\core/lv_indev.c ****         else if(indev_act->driver->type == LV_INDEV_TYPE_ENCODER && data.enc_diff) {
  97:..\..\..\arduinoLCD\test\Pain Drain\libraries\lvgl\src\core/lv_indev.c ****             indev_act->driver->disp->last_activity_time = lv_tick_get();
  98:..\..\..\arduinoLCD\test\Pain Drain\libraries\lvgl\src\core/lv_indev.c ****         }
  99:..\..\..\arduinoLCD\test\Pain Drain\libraries\lvgl\src\core/lv_indev.c **** 
 100:..\..\..\arduinoLCD\test\Pain Drain\libraries\lvgl\src\core/lv_indev.c ****         if(indev_act->driver->type == LV_INDEV_TYPE_POINTER) {
 101:..\..\..\arduinoLCD\test\Pain Drain\libraries\lvgl\src\core/lv_indev.c ****             indev_pointer_proc(indev_act, &data);
 102:..\..\..\arduinoLCD\test\Pain Drain\libraries\lvgl\src\core/lv_indev.c ****         }
 103:..\..\..\arduinoLCD\test\Pain Drain\libraries\lvgl\src\core/lv_indev.c ****         else if(indev_act->driver->type == LV_INDEV_TYPE_KEYPAD) {
 104:..\..\..\arduinoLCD\test\Pain Drain\libraries\lvgl\src\core/lv_indev.c ****             indev_keypad_proc(indev_act, &data);
 105:..\..\..\arduinoLCD\test\Pain Drain\libraries\lvgl\src\core/lv_indev.c ****         }
 106:..\..\..\arduinoLCD\test\Pain Drain\libraries\lvgl\src\core/lv_indev.c ****         else if(indev_act->driver->type == LV_INDEV_TYPE_ENCODER) {
 107:..\..\..\arduinoLCD\test\Pain Drain\libraries\lvgl\src\core/lv_indev.c ****             indev_encoder_proc(indev_act, &data);
 108:..\..\..\arduinoLCD\test\Pain Drain\libraries\lvgl\src\core/lv_indev.c ****         }
 109:..\..\..\arduinoLCD\test\Pain Drain\libraries\lvgl\src\core/lv_indev.c ****         else if(indev_act->driver->type == LV_INDEV_TYPE_BUTTON) {
 110:..\..\..\arduinoLCD\test\Pain Drain\libraries\lvgl\src\core/lv_indev.c ****             indev_button_proc(indev_act, &data);
 111:..\..\..\arduinoLCD\test\Pain Drain\libraries\lvgl\src\core/lv_indev.c ****         }
 112:..\..\..\arduinoLCD\test\Pain Drain\libraries\lvgl\src\core/lv_indev.c ****         /*Handle reset query if it happened in during processing*/
 113:..\..\..\arduinoLCD\test\Pain Drain\libraries\lvgl\src\core/lv_indev.c ****         indev_proc_reset_query_handler(indev_act);
 114:..\..\..\arduinoLCD\test\Pain Drain\libraries\lvgl\src\core/lv_indev.c ****     } while(continue_reading);
 115:..\..\..\arduinoLCD\test\Pain Drain\libraries\lvgl\src\core/lv_indev.c **** 
 116:..\..\..\arduinoLCD\test\Pain Drain\libraries\lvgl\src\core/lv_indev.c ****     /*End of indev processing, so no act indev*/
 117:..\..\..\arduinoLCD\test\Pain Drain\libraries\lvgl\src\core/lv_indev.c ****     indev_act     = NULL;
 118:..\..\..\arduinoLCD\test\Pain Drain\libraries\lvgl\src\core/lv_indev.c ****     indev_obj_act = NULL;
 119:..\..\..\arduinoLCD\test\Pain Drain\libraries\lvgl\src\core/lv_indev.c **** 
 120:..\..\..\arduinoLCD\test\Pain Drain\libraries\lvgl\src\core/lv_indev.c ****     INDEV_TRACE("finished");
 121:..\..\..\arduinoLCD\test\Pain Drain\libraries\lvgl\src\core/lv_indev.c **** }
 122:..\..\..\arduinoLCD\test\Pain Drain\libraries\lvgl\src\core/lv_indev.c **** 
 123:..\..\..\arduinoLCD\test\Pain Drain\libraries\lvgl\src\core/lv_indev.c **** void lv_indev_enable(lv_indev_t * indev, bool en)
 124:..\..\..\arduinoLCD\test\Pain Drain\libraries\lvgl\src\core/lv_indev.c **** {
 125:..\..\..\arduinoLCD\test\Pain Drain\libraries\lvgl\src\core/lv_indev.c ****     uint8_t enable = en ? 0 : 1;
 126:..\..\..\arduinoLCD\test\Pain Drain\libraries\lvgl\src\core/lv_indev.c **** 
 127:..\..\..\arduinoLCD\test\Pain Drain\libraries\lvgl\src\core/lv_indev.c ****     if(indev) {
 128:..\..\..\arduinoLCD\test\Pain Drain\libraries\lvgl\src\core/lv_indev.c ****         indev->proc.disabled = enable;
 129:..\..\..\arduinoLCD\test\Pain Drain\libraries\lvgl\src\core/lv_indev.c ****     }
 130:..\..\..\arduinoLCD\test\Pain Drain\libraries\lvgl\src\core/lv_indev.c ****     else {
 131:..\..\..\arduinoLCD\test\Pain Drain\libraries\lvgl\src\core/lv_indev.c ****         lv_indev_t * i = lv_indev_get_next(NULL);
 132:..\..\..\arduinoLCD\test\Pain Drain\libraries\lvgl\src\core/lv_indev.c ****         while(i) {
 133:..\..\..\arduinoLCD\test\Pain Drain\libraries\lvgl\src\core/lv_indev.c ****             i->proc.disabled = enable;
 134:..\..\..\arduinoLCD\test\Pain Drain\libraries\lvgl\src\core/lv_indev.c ****             i = lv_indev_get_next(i);
 135:..\..\..\arduinoLCD\test\Pain Drain\libraries\lvgl\src\core/lv_indev.c ****         }
 136:..\..\..\arduinoLCD\test\Pain Drain\libraries\lvgl\src\core/lv_indev.c ****     }
 137:..\..\..\arduinoLCD\test\Pain Drain\libraries\lvgl\src\core/lv_indev.c **** }
 138:..\..\..\arduinoLCD\test\Pain Drain\libraries\lvgl\src\core/lv_indev.c **** 
 139:..\..\..\arduinoLCD\test\Pain Drain\libraries\lvgl\src\core/lv_indev.c **** lv_indev_t * lv_indev_get_act(void)
 140:..\..\..\arduinoLCD\test\Pain Drain\libraries\lvgl\src\core/lv_indev.c **** {
 141:..\..\..\arduinoLCD\test\Pain Drain\libraries\lvgl\src\core/lv_indev.c ****     return indev_act;
 142:..\..\..\arduinoLCD\test\Pain Drain\libraries\lvgl\src\core/lv_indev.c **** }
 143:..\..\..\arduinoLCD\test\Pain Drain\libraries\lvgl\src\core/lv_indev.c **** 
 144:..\..\..\arduinoLCD\test\Pain Drain\libraries\lvgl\src\core/lv_indev.c **** lv_indev_type_t lv_indev_get_type(const lv_indev_t * indev)
ARM GAS  C:\Users\haske\AppData\Local\Temp\ccOQHbDo.s 			page 4


 145:..\..\..\arduinoLCD\test\Pain Drain\libraries\lvgl\src\core/lv_indev.c **** {
 146:..\..\..\arduinoLCD\test\Pain Drain\libraries\lvgl\src\core/lv_indev.c ****     if(indev == NULL) return LV_INDEV_TYPE_NONE;
 147:..\..\..\arduinoLCD\test\Pain Drain\libraries\lvgl\src\core/lv_indev.c **** 
 148:..\..\..\arduinoLCD\test\Pain Drain\libraries\lvgl\src\core/lv_indev.c ****     return indev->driver->type;
 149:..\..\..\arduinoLCD\test\Pain Drain\libraries\lvgl\src\core/lv_indev.c **** }
 150:..\..\..\arduinoLCD\test\Pain Drain\libraries\lvgl\src\core/lv_indev.c **** 
 151:..\..\..\arduinoLCD\test\Pain Drain\libraries\lvgl\src\core/lv_indev.c **** void lv_indev_reset(lv_indev_t * indev, lv_obj_t * obj)
 152:..\..\..\arduinoLCD\test\Pain Drain\libraries\lvgl\src\core/lv_indev.c **** {
 153:..\..\..\arduinoLCD\test\Pain Drain\libraries\lvgl\src\core/lv_indev.c ****     if(indev) {
 154:..\..\..\arduinoLCD\test\Pain Drain\libraries\lvgl\src\core/lv_indev.c ****         indev->proc.reset_query = 1;
 155:..\..\..\arduinoLCD\test\Pain Drain\libraries\lvgl\src\core/lv_indev.c ****         if(indev_act == indev) indev_obj_act = NULL;
 156:..\..\..\arduinoLCD\test\Pain Drain\libraries\lvgl\src\core/lv_indev.c ****         if(indev->driver->type == LV_INDEV_TYPE_POINTER || indev->driver->type == LV_INDEV_TYPE_KEY
 157:..\..\..\arduinoLCD\test\Pain Drain\libraries\lvgl\src\core/lv_indev.c ****             if(obj == NULL || indev->proc.types.pointer.last_pressed == obj) {
 158:..\..\..\arduinoLCD\test\Pain Drain\libraries\lvgl\src\core/lv_indev.c ****                 indev->proc.types.pointer.last_pressed = NULL;
 159:..\..\..\arduinoLCD\test\Pain Drain\libraries\lvgl\src\core/lv_indev.c ****             }
 160:..\..\..\arduinoLCD\test\Pain Drain\libraries\lvgl\src\core/lv_indev.c ****             if(obj == NULL || indev->proc.types.pointer.act_obj == obj) {
 161:..\..\..\arduinoLCD\test\Pain Drain\libraries\lvgl\src\core/lv_indev.c ****                 indev->proc.types.pointer.act_obj = NULL;
 162:..\..\..\arduinoLCD\test\Pain Drain\libraries\lvgl\src\core/lv_indev.c ****             }
 163:..\..\..\arduinoLCD\test\Pain Drain\libraries\lvgl\src\core/lv_indev.c ****             if(obj == NULL || indev->proc.types.pointer.last_obj == obj) {
 164:..\..\..\arduinoLCD\test\Pain Drain\libraries\lvgl\src\core/lv_indev.c ****                 indev->proc.types.pointer.last_obj = NULL;
 165:..\..\..\arduinoLCD\test\Pain Drain\libraries\lvgl\src\core/lv_indev.c ****             }
 166:..\..\..\arduinoLCD\test\Pain Drain\libraries\lvgl\src\core/lv_indev.c ****         }
 167:..\..\..\arduinoLCD\test\Pain Drain\libraries\lvgl\src\core/lv_indev.c ****     }
 168:..\..\..\arduinoLCD\test\Pain Drain\libraries\lvgl\src\core/lv_indev.c ****     else {
 169:..\..\..\arduinoLCD\test\Pain Drain\libraries\lvgl\src\core/lv_indev.c ****         lv_indev_t * i = lv_indev_get_next(NULL);
 170:..\..\..\arduinoLCD\test\Pain Drain\libraries\lvgl\src\core/lv_indev.c ****         while(i) {
 171:..\..\..\arduinoLCD\test\Pain Drain\libraries\lvgl\src\core/lv_indev.c ****             i->proc.reset_query = 1;
 172:..\..\..\arduinoLCD\test\Pain Drain\libraries\lvgl\src\core/lv_indev.c ****             if(i->driver->type == LV_INDEV_TYPE_POINTER || i->driver->type == LV_INDEV_TYPE_KEYPAD)
 173:..\..\..\arduinoLCD\test\Pain Drain\libraries\lvgl\src\core/lv_indev.c ****                 if(obj == NULL || i->proc.types.pointer.last_pressed == obj) {
 174:..\..\..\arduinoLCD\test\Pain Drain\libraries\lvgl\src\core/lv_indev.c ****                     i->proc.types.pointer.last_pressed = NULL;
 175:..\..\..\arduinoLCD\test\Pain Drain\libraries\lvgl\src\core/lv_indev.c ****                 }
 176:..\..\..\arduinoLCD\test\Pain Drain\libraries\lvgl\src\core/lv_indev.c ****                 if(obj == NULL || i->proc.types.pointer.act_obj == obj) {
 177:..\..\..\arduinoLCD\test\Pain Drain\libraries\lvgl\src\core/lv_indev.c ****                     i->proc.types.pointer.act_obj = NULL;
 178:..\..\..\arduinoLCD\test\Pain Drain\libraries\lvgl\src\core/lv_indev.c ****                 }
 179:..\..\..\arduinoLCD\test\Pain Drain\libraries\lvgl\src\core/lv_indev.c ****                 if(obj == NULL || i->proc.types.pointer.last_obj == obj) {
 180:..\..\..\arduinoLCD\test\Pain Drain\libraries\lvgl\src\core/lv_indev.c ****                     i->proc.types.pointer.last_obj = NULL;
 181:..\..\..\arduinoLCD\test\Pain Drain\libraries\lvgl\src\core/lv_indev.c ****                 }
 182:..\..\..\arduinoLCD\test\Pain Drain\libraries\lvgl\src\core/lv_indev.c ****             }
 183:..\..\..\arduinoLCD\test\Pain Drain\libraries\lvgl\src\core/lv_indev.c ****             i = lv_indev_get_next(i);
 184:..\..\..\arduinoLCD\test\Pain Drain\libraries\lvgl\src\core/lv_indev.c ****         }
 185:..\..\..\arduinoLCD\test\Pain Drain\libraries\lvgl\src\core/lv_indev.c ****         indev_obj_act = NULL;
 186:..\..\..\arduinoLCD\test\Pain Drain\libraries\lvgl\src\core/lv_indev.c ****     }
 187:..\..\..\arduinoLCD\test\Pain Drain\libraries\lvgl\src\core/lv_indev.c **** }
 188:..\..\..\arduinoLCD\test\Pain Drain\libraries\lvgl\src\core/lv_indev.c **** 
 189:..\..\..\arduinoLCD\test\Pain Drain\libraries\lvgl\src\core/lv_indev.c **** void lv_indev_reset_long_press(lv_indev_t * indev)
 190:..\..\..\arduinoLCD\test\Pain Drain\libraries\lvgl\src\core/lv_indev.c **** {
 191:..\..\..\arduinoLCD\test\Pain Drain\libraries\lvgl\src\core/lv_indev.c ****     indev->proc.long_pr_sent         = 0;
 192:..\..\..\arduinoLCD\test\Pain Drain\libraries\lvgl\src\core/lv_indev.c ****     indev->proc.longpr_rep_timestamp = lv_tick_get();
 193:..\..\..\arduinoLCD\test\Pain Drain\libraries\lvgl\src\core/lv_indev.c ****     indev->proc.pr_timestamp         = lv_tick_get();
 194:..\..\..\arduinoLCD\test\Pain Drain\libraries\lvgl\src\core/lv_indev.c **** }
 195:..\..\..\arduinoLCD\test\Pain Drain\libraries\lvgl\src\core/lv_indev.c **** 
 196:..\..\..\arduinoLCD\test\Pain Drain\libraries\lvgl\src\core/lv_indev.c **** void lv_indev_set_cursor(lv_indev_t * indev, lv_obj_t * cur_obj)
 197:..\..\..\arduinoLCD\test\Pain Drain\libraries\lvgl\src\core/lv_indev.c **** {
 198:..\..\..\arduinoLCD\test\Pain Drain\libraries\lvgl\src\core/lv_indev.c ****     if(indev->driver->type != LV_INDEV_TYPE_POINTER) return;
 199:..\..\..\arduinoLCD\test\Pain Drain\libraries\lvgl\src\core/lv_indev.c **** 
 200:..\..\..\arduinoLCD\test\Pain Drain\libraries\lvgl\src\core/lv_indev.c ****     indev->cursor = cur_obj;
 201:..\..\..\arduinoLCD\test\Pain Drain\libraries\lvgl\src\core/lv_indev.c ****     lv_obj_set_parent(indev->cursor, lv_disp_get_layer_sys(indev->driver->disp));
ARM GAS  C:\Users\haske\AppData\Local\Temp\ccOQHbDo.s 			page 5


 202:..\..\..\arduinoLCD\test\Pain Drain\libraries\lvgl\src\core/lv_indev.c ****     lv_obj_set_pos(indev->cursor, indev->proc.types.pointer.act_point.x, indev->proc.types.pointer.
 203:..\..\..\arduinoLCD\test\Pain Drain\libraries\lvgl\src\core/lv_indev.c ****     lv_obj_clear_flag(indev->cursor, LV_OBJ_FLAG_CLICKABLE);
 204:..\..\..\arduinoLCD\test\Pain Drain\libraries\lvgl\src\core/lv_indev.c ****     lv_obj_add_flag(indev->cursor, LV_OBJ_FLAG_IGNORE_LAYOUT | LV_OBJ_FLAG_FLOATING);
 205:..\..\..\arduinoLCD\test\Pain Drain\libraries\lvgl\src\core/lv_indev.c **** }
 206:..\..\..\arduinoLCD\test\Pain Drain\libraries\lvgl\src\core/lv_indev.c **** 
 207:..\..\..\arduinoLCD\test\Pain Drain\libraries\lvgl\src\core/lv_indev.c **** void lv_indev_set_group(lv_indev_t * indev, lv_group_t * group)
 208:..\..\..\arduinoLCD\test\Pain Drain\libraries\lvgl\src\core/lv_indev.c **** {
 209:..\..\..\arduinoLCD\test\Pain Drain\libraries\lvgl\src\core/lv_indev.c ****     if(indev->driver->type == LV_INDEV_TYPE_KEYPAD || indev->driver->type == LV_INDEV_TYPE_ENCODER)
 210:..\..\..\arduinoLCD\test\Pain Drain\libraries\lvgl\src\core/lv_indev.c ****         indev->group = group;
 211:..\..\..\arduinoLCD\test\Pain Drain\libraries\lvgl\src\core/lv_indev.c ****     }
 212:..\..\..\arduinoLCD\test\Pain Drain\libraries\lvgl\src\core/lv_indev.c **** }
 213:..\..\..\arduinoLCD\test\Pain Drain\libraries\lvgl\src\core/lv_indev.c **** 
 214:..\..\..\arduinoLCD\test\Pain Drain\libraries\lvgl\src\core/lv_indev.c **** void lv_indev_set_button_points(lv_indev_t * indev, const lv_point_t points[])
 215:..\..\..\arduinoLCD\test\Pain Drain\libraries\lvgl\src\core/lv_indev.c **** {
 216:..\..\..\arduinoLCD\test\Pain Drain\libraries\lvgl\src\core/lv_indev.c ****     if(indev->driver->type == LV_INDEV_TYPE_BUTTON) {
 217:..\..\..\arduinoLCD\test\Pain Drain\libraries\lvgl\src\core/lv_indev.c ****         indev->btn_points = points;
 218:..\..\..\arduinoLCD\test\Pain Drain\libraries\lvgl\src\core/lv_indev.c ****     }
 219:..\..\..\arduinoLCD\test\Pain Drain\libraries\lvgl\src\core/lv_indev.c **** }
 220:..\..\..\arduinoLCD\test\Pain Drain\libraries\lvgl\src\core/lv_indev.c **** 
 221:..\..\..\arduinoLCD\test\Pain Drain\libraries\lvgl\src\core/lv_indev.c **** void lv_indev_get_point(const lv_indev_t * indev, lv_point_t * point)
 222:..\..\..\arduinoLCD\test\Pain Drain\libraries\lvgl\src\core/lv_indev.c **** {
 223:..\..\..\arduinoLCD\test\Pain Drain\libraries\lvgl\src\core/lv_indev.c ****     if(indev == NULL) {
 224:..\..\..\arduinoLCD\test\Pain Drain\libraries\lvgl\src\core/lv_indev.c ****         point->x = 0;
 225:..\..\..\arduinoLCD\test\Pain Drain\libraries\lvgl\src\core/lv_indev.c ****         point->y = 0;
 226:..\..\..\arduinoLCD\test\Pain Drain\libraries\lvgl\src\core/lv_indev.c ****         return;
 227:..\..\..\arduinoLCD\test\Pain Drain\libraries\lvgl\src\core/lv_indev.c ****     }
 228:..\..\..\arduinoLCD\test\Pain Drain\libraries\lvgl\src\core/lv_indev.c ****     if(indev->driver->type != LV_INDEV_TYPE_POINTER && indev->driver->type != LV_INDEV_TYPE_BUTTON)
 229:..\..\..\arduinoLCD\test\Pain Drain\libraries\lvgl\src\core/lv_indev.c ****         point->x = -1;
 230:..\..\..\arduinoLCD\test\Pain Drain\libraries\lvgl\src\core/lv_indev.c ****         point->y = -1;
 231:..\..\..\arduinoLCD\test\Pain Drain\libraries\lvgl\src\core/lv_indev.c ****     }
 232:..\..\..\arduinoLCD\test\Pain Drain\libraries\lvgl\src\core/lv_indev.c ****     else {
 233:..\..\..\arduinoLCD\test\Pain Drain\libraries\lvgl\src\core/lv_indev.c ****         point->x = indev->proc.types.pointer.act_point.x;
 234:..\..\..\arduinoLCD\test\Pain Drain\libraries\lvgl\src\core/lv_indev.c ****         point->y = indev->proc.types.pointer.act_point.y;
 235:..\..\..\arduinoLCD\test\Pain Drain\libraries\lvgl\src\core/lv_indev.c ****     }
 236:..\..\..\arduinoLCD\test\Pain Drain\libraries\lvgl\src\core/lv_indev.c **** }
 237:..\..\..\arduinoLCD\test\Pain Drain\libraries\lvgl\src\core/lv_indev.c **** 
 238:..\..\..\arduinoLCD\test\Pain Drain\libraries\lvgl\src\core/lv_indev.c **** lv_dir_t lv_indev_get_gesture_dir(const lv_indev_t * indev)
 239:..\..\..\arduinoLCD\test\Pain Drain\libraries\lvgl\src\core/lv_indev.c **** {
 240:..\..\..\arduinoLCD\test\Pain Drain\libraries\lvgl\src\core/lv_indev.c ****     return indev->proc.types.pointer.gesture_dir;
 241:..\..\..\arduinoLCD\test\Pain Drain\libraries\lvgl\src\core/lv_indev.c **** }
 242:..\..\..\arduinoLCD\test\Pain Drain\libraries\lvgl\src\core/lv_indev.c **** 
 243:..\..\..\arduinoLCD\test\Pain Drain\libraries\lvgl\src\core/lv_indev.c **** uint32_t lv_indev_get_key(const lv_indev_t * indev)
 244:..\..\..\arduinoLCD\test\Pain Drain\libraries\lvgl\src\core/lv_indev.c **** {
 245:..\..\..\arduinoLCD\test\Pain Drain\libraries\lvgl\src\core/lv_indev.c ****     if(indev->driver->type != LV_INDEV_TYPE_KEYPAD)
 246:..\..\..\arduinoLCD\test\Pain Drain\libraries\lvgl\src\core/lv_indev.c ****         return 0;
 247:..\..\..\arduinoLCD\test\Pain Drain\libraries\lvgl\src\core/lv_indev.c ****     else
 248:..\..\..\arduinoLCD\test\Pain Drain\libraries\lvgl\src\core/lv_indev.c ****         return indev->proc.types.keypad.last_key;
 249:..\..\..\arduinoLCD\test\Pain Drain\libraries\lvgl\src\core/lv_indev.c **** }
 250:..\..\..\arduinoLCD\test\Pain Drain\libraries\lvgl\src\core/lv_indev.c **** 
 251:..\..\..\arduinoLCD\test\Pain Drain\libraries\lvgl\src\core/lv_indev.c **** lv_dir_t lv_indev_get_scroll_dir(const lv_indev_t * indev)
 252:..\..\..\arduinoLCD\test\Pain Drain\libraries\lvgl\src\core/lv_indev.c **** {
 253:..\..\..\arduinoLCD\test\Pain Drain\libraries\lvgl\src\core/lv_indev.c ****     if(indev == NULL) return false;
 254:..\..\..\arduinoLCD\test\Pain Drain\libraries\lvgl\src\core/lv_indev.c ****     if(indev->driver->type != LV_INDEV_TYPE_POINTER && indev->driver->type != LV_INDEV_TYPE_BUTTON)
 255:..\..\..\arduinoLCD\test\Pain Drain\libraries\lvgl\src\core/lv_indev.c ****     return indev->proc.types.pointer.scroll_dir;
 256:..\..\..\arduinoLCD\test\Pain Drain\libraries\lvgl\src\core/lv_indev.c **** }
 257:..\..\..\arduinoLCD\test\Pain Drain\libraries\lvgl\src\core/lv_indev.c **** 
 258:..\..\..\arduinoLCD\test\Pain Drain\libraries\lvgl\src\core/lv_indev.c **** lv_obj_t * lv_indev_get_scroll_obj(const lv_indev_t * indev)
ARM GAS  C:\Users\haske\AppData\Local\Temp\ccOQHbDo.s 			page 6


 259:..\..\..\arduinoLCD\test\Pain Drain\libraries\lvgl\src\core/lv_indev.c **** {
 260:..\..\..\arduinoLCD\test\Pain Drain\libraries\lvgl\src\core/lv_indev.c ****     if(indev == NULL) return NULL;
 261:..\..\..\arduinoLCD\test\Pain Drain\libraries\lvgl\src\core/lv_indev.c ****     if(indev->driver->type != LV_INDEV_TYPE_POINTER && indev->driver->type != LV_INDEV_TYPE_BUTTON)
 262:..\..\..\arduinoLCD\test\Pain Drain\libraries\lvgl\src\core/lv_indev.c ****     return indev->proc.types.pointer.scroll_obj;
 263:..\..\..\arduinoLCD\test\Pain Drain\libraries\lvgl\src\core/lv_indev.c **** }
 264:..\..\..\arduinoLCD\test\Pain Drain\libraries\lvgl\src\core/lv_indev.c **** 
 265:..\..\..\arduinoLCD\test\Pain Drain\libraries\lvgl\src\core/lv_indev.c **** void lv_indev_get_vect(const lv_indev_t * indev, lv_point_t * point)
 266:..\..\..\arduinoLCD\test\Pain Drain\libraries\lvgl\src\core/lv_indev.c **** {
 267:..\..\..\arduinoLCD\test\Pain Drain\libraries\lvgl\src\core/lv_indev.c ****     point->x = 0;
 268:..\..\..\arduinoLCD\test\Pain Drain\libraries\lvgl\src\core/lv_indev.c ****     point->y = 0;
 269:..\..\..\arduinoLCD\test\Pain Drain\libraries\lvgl\src\core/lv_indev.c **** 
 270:..\..\..\arduinoLCD\test\Pain Drain\libraries\lvgl\src\core/lv_indev.c ****     if(indev == NULL) return;
 271:..\..\..\arduinoLCD\test\Pain Drain\libraries\lvgl\src\core/lv_indev.c **** 
 272:..\..\..\arduinoLCD\test\Pain Drain\libraries\lvgl\src\core/lv_indev.c ****     if(indev->driver->type == LV_INDEV_TYPE_POINTER || indev->driver->type == LV_INDEV_TYPE_BUTTON)
 273:..\..\..\arduinoLCD\test\Pain Drain\libraries\lvgl\src\core/lv_indev.c ****         point->x = indev->proc.types.pointer.vect.x;
 274:..\..\..\arduinoLCD\test\Pain Drain\libraries\lvgl\src\core/lv_indev.c ****         point->y = indev->proc.types.pointer.vect.y;
 275:..\..\..\arduinoLCD\test\Pain Drain\libraries\lvgl\src\core/lv_indev.c ****     }
 276:..\..\..\arduinoLCD\test\Pain Drain\libraries\lvgl\src\core/lv_indev.c **** }
 277:..\..\..\arduinoLCD\test\Pain Drain\libraries\lvgl\src\core/lv_indev.c **** 
 278:..\..\..\arduinoLCD\test\Pain Drain\libraries\lvgl\src\core/lv_indev.c **** void lv_indev_wait_release(lv_indev_t * indev)
 279:..\..\..\arduinoLCD\test\Pain Drain\libraries\lvgl\src\core/lv_indev.c **** {
 280:..\..\..\arduinoLCD\test\Pain Drain\libraries\lvgl\src\core/lv_indev.c ****     if(indev == NULL)return;
 281:..\..\..\arduinoLCD\test\Pain Drain\libraries\lvgl\src\core/lv_indev.c ****     indev->proc.wait_until_release = 1;
 282:..\..\..\arduinoLCD\test\Pain Drain\libraries\lvgl\src\core/lv_indev.c **** }
 283:..\..\..\arduinoLCD\test\Pain Drain\libraries\lvgl\src\core/lv_indev.c **** 
 284:..\..\..\arduinoLCD\test\Pain Drain\libraries\lvgl\src\core/lv_indev.c **** lv_obj_t * lv_indev_get_obj_act(void)
 285:..\..\..\arduinoLCD\test\Pain Drain\libraries\lvgl\src\core/lv_indev.c **** {
 286:..\..\..\arduinoLCD\test\Pain Drain\libraries\lvgl\src\core/lv_indev.c ****     return indev_obj_act;
 287:..\..\..\arduinoLCD\test\Pain Drain\libraries\lvgl\src\core/lv_indev.c **** }
 288:..\..\..\arduinoLCD\test\Pain Drain\libraries\lvgl\src\core/lv_indev.c **** 
 289:..\..\..\arduinoLCD\test\Pain Drain\libraries\lvgl\src\core/lv_indev.c **** lv_timer_t * lv_indev_get_read_timer(lv_disp_t * indev)
 290:..\..\..\arduinoLCD\test\Pain Drain\libraries\lvgl\src\core/lv_indev.c **** {
 291:..\..\..\arduinoLCD\test\Pain Drain\libraries\lvgl\src\core/lv_indev.c ****     if(!indev) {
 292:..\..\..\arduinoLCD\test\Pain Drain\libraries\lvgl\src\core/lv_indev.c ****         LV_LOG_WARN("lv_indev_get_read_timer: indev was NULL");
 293:..\..\..\arduinoLCD\test\Pain Drain\libraries\lvgl\src\core/lv_indev.c ****         return NULL;
 294:..\..\..\arduinoLCD\test\Pain Drain\libraries\lvgl\src\core/lv_indev.c ****     }
 295:..\..\..\arduinoLCD\test\Pain Drain\libraries\lvgl\src\core/lv_indev.c **** 
 296:..\..\..\arduinoLCD\test\Pain Drain\libraries\lvgl\src\core/lv_indev.c ****     return indev->refr_timer;
 297:..\..\..\arduinoLCD\test\Pain Drain\libraries\lvgl\src\core/lv_indev.c **** }
 298:..\..\..\arduinoLCD\test\Pain Drain\libraries\lvgl\src\core/lv_indev.c **** 
 299:..\..\..\arduinoLCD\test\Pain Drain\libraries\lvgl\src\core/lv_indev.c **** 
 300:..\..\..\arduinoLCD\test\Pain Drain\libraries\lvgl\src\core/lv_indev.c **** lv_obj_t * lv_indev_search_obj(lv_obj_t * obj, lv_point_t * point)
 301:..\..\..\arduinoLCD\test\Pain Drain\libraries\lvgl\src\core/lv_indev.c **** {
 302:..\..\..\arduinoLCD\test\Pain Drain\libraries\lvgl\src\core/lv_indev.c ****     lv_obj_t * found_p = NULL;
 303:..\..\..\arduinoLCD\test\Pain Drain\libraries\lvgl\src\core/lv_indev.c **** 
 304:..\..\..\arduinoLCD\test\Pain Drain\libraries\lvgl\src\core/lv_indev.c ****     /*If this obj is hidden the children are hidden too so return immediately*/
 305:..\..\..\arduinoLCD\test\Pain Drain\libraries\lvgl\src\core/lv_indev.c ****     if(lv_obj_has_flag(obj, LV_OBJ_FLAG_HIDDEN)) return NULL;
 306:..\..\..\arduinoLCD\test\Pain Drain\libraries\lvgl\src\core/lv_indev.c **** 
 307:..\..\..\arduinoLCD\test\Pain Drain\libraries\lvgl\src\core/lv_indev.c ****     lv_point_t p_trans = *point;
 308:..\..\..\arduinoLCD\test\Pain Drain\libraries\lvgl\src\core/lv_indev.c ****     lv_obj_transform_point(obj, &p_trans, false, true);
 309:..\..\..\arduinoLCD\test\Pain Drain\libraries\lvgl\src\core/lv_indev.c **** 
 310:..\..\..\arduinoLCD\test\Pain Drain\libraries\lvgl\src\core/lv_indev.c ****     bool hit_test_ok = lv_obj_hit_test(obj, &p_trans);
 311:..\..\..\arduinoLCD\test\Pain Drain\libraries\lvgl\src\core/lv_indev.c **** 
 312:..\..\..\arduinoLCD\test\Pain Drain\libraries\lvgl\src\core/lv_indev.c ****     /*If the point is on this object or has overflow visible check its children too*/
 313:..\..\..\arduinoLCD\test\Pain Drain\libraries\lvgl\src\core/lv_indev.c ****     if(_lv_area_is_point_on(&obj->coords, &p_trans, 0) || lv_obj_has_flag(obj, LV_OBJ_FLAG_OVERFLOW
 314:..\..\..\arduinoLCD\test\Pain Drain\libraries\lvgl\src\core/lv_indev.c ****         int32_t i;
 315:..\..\..\arduinoLCD\test\Pain Drain\libraries\lvgl\src\core/lv_indev.c ****         uint32_t child_cnt = lv_obj_get_child_cnt(obj);
ARM GAS  C:\Users\haske\AppData\Local\Temp\ccOQHbDo.s 			page 7


 316:..\..\..\arduinoLCD\test\Pain Drain\libraries\lvgl\src\core/lv_indev.c **** 
 317:..\..\..\arduinoLCD\test\Pain Drain\libraries\lvgl\src\core/lv_indev.c ****         /*If a child matches use it*/
 318:..\..\..\arduinoLCD\test\Pain Drain\libraries\lvgl\src\core/lv_indev.c ****         for(i = child_cnt - 1; i >= 0; i--) {
 319:..\..\..\arduinoLCD\test\Pain Drain\libraries\lvgl\src\core/lv_indev.c ****             lv_obj_t * child = obj->spec_attr->children[i];
 320:..\..\..\arduinoLCD\test\Pain Drain\libraries\lvgl\src\core/lv_indev.c ****             found_p = lv_indev_search_obj(child, &p_trans);
 321:..\..\..\arduinoLCD\test\Pain Drain\libraries\lvgl\src\core/lv_indev.c ****             if(found_p) return found_p;
 322:..\..\..\arduinoLCD\test\Pain Drain\libraries\lvgl\src\core/lv_indev.c ****         }
 323:..\..\..\arduinoLCD\test\Pain Drain\libraries\lvgl\src\core/lv_indev.c ****     }
 324:..\..\..\arduinoLCD\test\Pain Drain\libraries\lvgl\src\core/lv_indev.c **** 
 325:..\..\..\arduinoLCD\test\Pain Drain\libraries\lvgl\src\core/lv_indev.c ****     /*If not return earlier for a clicked child and this obj's hittest was ok use it
 326:..\..\..\arduinoLCD\test\Pain Drain\libraries\lvgl\src\core/lv_indev.c ****      *else return NULL*/
 327:..\..\..\arduinoLCD\test\Pain Drain\libraries\lvgl\src\core/lv_indev.c ****     if(hit_test_ok) return obj;
 328:..\..\..\arduinoLCD\test\Pain Drain\libraries\lvgl\src\core/lv_indev.c ****     else return NULL;
 329:..\..\..\arduinoLCD\test\Pain Drain\libraries\lvgl\src\core/lv_indev.c **** }
 330:..\..\..\arduinoLCD\test\Pain Drain\libraries\lvgl\src\core/lv_indev.c **** 
 331:..\..\..\arduinoLCD\test\Pain Drain\libraries\lvgl\src\core/lv_indev.c **** /**********************
 332:..\..\..\arduinoLCD\test\Pain Drain\libraries\lvgl\src\core/lv_indev.c ****  *   STATIC FUNCTIONS
 333:..\..\..\arduinoLCD\test\Pain Drain\libraries\lvgl\src\core/lv_indev.c ****  **********************/
 334:..\..\..\arduinoLCD\test\Pain Drain\libraries\lvgl\src\core/lv_indev.c **** 
 335:..\..\..\arduinoLCD\test\Pain Drain\libraries\lvgl\src\core/lv_indev.c **** /**
 336:..\..\..\arduinoLCD\test\Pain Drain\libraries\lvgl\src\core/lv_indev.c ****  * Process a new point from LV_INDEV_TYPE_POINTER input device
 337:..\..\..\arduinoLCD\test\Pain Drain\libraries\lvgl\src\core/lv_indev.c ****  * @param i pointer to an input device
 338:..\..\..\arduinoLCD\test\Pain Drain\libraries\lvgl\src\core/lv_indev.c ****  * @param data pointer to the data read from the input device
 339:..\..\..\arduinoLCD\test\Pain Drain\libraries\lvgl\src\core/lv_indev.c ****  */
 340:..\..\..\arduinoLCD\test\Pain Drain\libraries\lvgl\src\core/lv_indev.c **** static void indev_pointer_proc(lv_indev_t * i, lv_indev_data_t * data)
 341:..\..\..\arduinoLCD\test\Pain Drain\libraries\lvgl\src\core/lv_indev.c **** {
 342:..\..\..\arduinoLCD\test\Pain Drain\libraries\lvgl\src\core/lv_indev.c ****     lv_disp_t * disp = i->driver->disp;
 343:..\..\..\arduinoLCD\test\Pain Drain\libraries\lvgl\src\core/lv_indev.c ****     /*Save the raw points so they can be used again in _lv_indev_read*/
 344:..\..\..\arduinoLCD\test\Pain Drain\libraries\lvgl\src\core/lv_indev.c ****     i->proc.types.pointer.last_raw_point.x = data->point.x;
 345:..\..\..\arduinoLCD\test\Pain Drain\libraries\lvgl\src\core/lv_indev.c ****     i->proc.types.pointer.last_raw_point.y = data->point.y;
 346:..\..\..\arduinoLCD\test\Pain Drain\libraries\lvgl\src\core/lv_indev.c **** 
 347:..\..\..\arduinoLCD\test\Pain Drain\libraries\lvgl\src\core/lv_indev.c ****     if(disp->driver->rotated == LV_DISP_ROT_180 || disp->driver->rotated == LV_DISP_ROT_270) {
 348:..\..\..\arduinoLCD\test\Pain Drain\libraries\lvgl\src\core/lv_indev.c ****         data->point.x = disp->driver->hor_res - data->point.x - 1;
 349:..\..\..\arduinoLCD\test\Pain Drain\libraries\lvgl\src\core/lv_indev.c ****         data->point.y = disp->driver->ver_res - data->point.y - 1;
 350:..\..\..\arduinoLCD\test\Pain Drain\libraries\lvgl\src\core/lv_indev.c ****     }
 351:..\..\..\arduinoLCD\test\Pain Drain\libraries\lvgl\src\core/lv_indev.c ****     if(disp->driver->rotated == LV_DISP_ROT_90 || disp->driver->rotated == LV_DISP_ROT_270) {
 352:..\..\..\arduinoLCD\test\Pain Drain\libraries\lvgl\src\core/lv_indev.c ****         lv_coord_t tmp = data->point.y;
 353:..\..\..\arduinoLCD\test\Pain Drain\libraries\lvgl\src\core/lv_indev.c ****         data->point.y = data->point.x;
 354:..\..\..\arduinoLCD\test\Pain Drain\libraries\lvgl\src\core/lv_indev.c ****         data->point.x = disp->driver->ver_res - tmp - 1;
 355:..\..\..\arduinoLCD\test\Pain Drain\libraries\lvgl\src\core/lv_indev.c ****     }
 356:..\..\..\arduinoLCD\test\Pain Drain\libraries\lvgl\src\core/lv_indev.c **** 
 357:..\..\..\arduinoLCD\test\Pain Drain\libraries\lvgl\src\core/lv_indev.c ****     /*Simple sanity check*/
 358:..\..\..\arduinoLCD\test\Pain Drain\libraries\lvgl\src\core/lv_indev.c ****     if(data->point.x < 0) {
 359:..\..\..\arduinoLCD\test\Pain Drain\libraries\lvgl\src\core/lv_indev.c ****         LV_LOG_WARN("X is %d which is smaller than zero", data->point.x);
 360:..\..\..\arduinoLCD\test\Pain Drain\libraries\lvgl\src\core/lv_indev.c ****     }
 361:..\..\..\arduinoLCD\test\Pain Drain\libraries\lvgl\src\core/lv_indev.c ****     if(data->point.x >= lv_disp_get_hor_res(i->driver->disp)) {
 362:..\..\..\arduinoLCD\test\Pain Drain\libraries\lvgl\src\core/lv_indev.c ****         LV_LOG_WARN("X is %d which is greater than hor. res", data->point.x);
 363:..\..\..\arduinoLCD\test\Pain Drain\libraries\lvgl\src\core/lv_indev.c ****     }
 364:..\..\..\arduinoLCD\test\Pain Drain\libraries\lvgl\src\core/lv_indev.c ****     if(data->point.y < 0) {
 365:..\..\..\arduinoLCD\test\Pain Drain\libraries\lvgl\src\core/lv_indev.c ****         LV_LOG_WARN("Y is %d which is smaller than zero", data->point.y);
 366:..\..\..\arduinoLCD\test\Pain Drain\libraries\lvgl\src\core/lv_indev.c ****     }
 367:..\..\..\arduinoLCD\test\Pain Drain\libraries\lvgl\src\core/lv_indev.c ****     if(data->point.y >= lv_disp_get_ver_res(i->driver->disp)) {
 368:..\..\..\arduinoLCD\test\Pain Drain\libraries\lvgl\src\core/lv_indev.c ****         LV_LOG_WARN("Y is %d which is greater than ver. res", data->point.y);
 369:..\..\..\arduinoLCD\test\Pain Drain\libraries\lvgl\src\core/lv_indev.c ****     }
 370:..\..\..\arduinoLCD\test\Pain Drain\libraries\lvgl\src\core/lv_indev.c **** 
 371:..\..\..\arduinoLCD\test\Pain Drain\libraries\lvgl\src\core/lv_indev.c ****     /*Move the cursor if set and moved*/
 372:..\..\..\arduinoLCD\test\Pain Drain\libraries\lvgl\src\core/lv_indev.c ****     if(i->cursor != NULL &&
ARM GAS  C:\Users\haske\AppData\Local\Temp\ccOQHbDo.s 			page 8


 373:..\..\..\arduinoLCD\test\Pain Drain\libraries\lvgl\src\core/lv_indev.c ****        (i->proc.types.pointer.last_point.x != data->point.x || i->proc.types.pointer.last_point.y !
 374:..\..\..\arduinoLCD\test\Pain Drain\libraries\lvgl\src\core/lv_indev.c ****         lv_obj_set_pos(i->cursor, data->point.x, data->point.y);
 375:..\..\..\arduinoLCD\test\Pain Drain\libraries\lvgl\src\core/lv_indev.c ****     }
 376:..\..\..\arduinoLCD\test\Pain Drain\libraries\lvgl\src\core/lv_indev.c **** 
 377:..\..\..\arduinoLCD\test\Pain Drain\libraries\lvgl\src\core/lv_indev.c ****     i->proc.types.pointer.act_point.x = data->point.x;
 378:..\..\..\arduinoLCD\test\Pain Drain\libraries\lvgl\src\core/lv_indev.c ****     i->proc.types.pointer.act_point.y = data->point.y;
 379:..\..\..\arduinoLCD\test\Pain Drain\libraries\lvgl\src\core/lv_indev.c **** 
 380:..\..\..\arduinoLCD\test\Pain Drain\libraries\lvgl\src\core/lv_indev.c ****     if(i->proc.state == LV_INDEV_STATE_PRESSED) {
 381:..\..\..\arduinoLCD\test\Pain Drain\libraries\lvgl\src\core/lv_indev.c ****         indev_proc_press(&i->proc);
 382:..\..\..\arduinoLCD\test\Pain Drain\libraries\lvgl\src\core/lv_indev.c ****     }
 383:..\..\..\arduinoLCD\test\Pain Drain\libraries\lvgl\src\core/lv_indev.c ****     else {
 384:..\..\..\arduinoLCD\test\Pain Drain\libraries\lvgl\src\core/lv_indev.c ****         indev_proc_release(&i->proc);
 385:..\..\..\arduinoLCD\test\Pain Drain\libraries\lvgl\src\core/lv_indev.c ****     }
 386:..\..\..\arduinoLCD\test\Pain Drain\libraries\lvgl\src\core/lv_indev.c **** 
 387:..\..\..\arduinoLCD\test\Pain Drain\libraries\lvgl\src\core/lv_indev.c ****     i->proc.types.pointer.last_point.x = i->proc.types.pointer.act_point.x;
 388:..\..\..\arduinoLCD\test\Pain Drain\libraries\lvgl\src\core/lv_indev.c ****     i->proc.types.pointer.last_point.y = i->proc.types.pointer.act_point.y;
 389:..\..\..\arduinoLCD\test\Pain Drain\libraries\lvgl\src\core/lv_indev.c **** }
 390:..\..\..\arduinoLCD\test\Pain Drain\libraries\lvgl\src\core/lv_indev.c **** 
 391:..\..\..\arduinoLCD\test\Pain Drain\libraries\lvgl\src\core/lv_indev.c **** /**
 392:..\..\..\arduinoLCD\test\Pain Drain\libraries\lvgl\src\core/lv_indev.c ****  * Process a new point from LV_INDEV_TYPE_KEYPAD input device
 393:..\..\..\arduinoLCD\test\Pain Drain\libraries\lvgl\src\core/lv_indev.c ****  * @param i pointer to an input device
 394:..\..\..\arduinoLCD\test\Pain Drain\libraries\lvgl\src\core/lv_indev.c ****  * @param data pointer to the data read from the input device
 395:..\..\..\arduinoLCD\test\Pain Drain\libraries\lvgl\src\core/lv_indev.c ****  */
 396:..\..\..\arduinoLCD\test\Pain Drain\libraries\lvgl\src\core/lv_indev.c **** static void indev_keypad_proc(lv_indev_t * i, lv_indev_data_t * data)
 397:..\..\..\arduinoLCD\test\Pain Drain\libraries\lvgl\src\core/lv_indev.c **** {
 398:..\..\..\arduinoLCD\test\Pain Drain\libraries\lvgl\src\core/lv_indev.c ****     if(data->state == LV_INDEV_STATE_PRESSED && i->proc.wait_until_release) return;
 399:..\..\..\arduinoLCD\test\Pain Drain\libraries\lvgl\src\core/lv_indev.c **** 
 400:..\..\..\arduinoLCD\test\Pain Drain\libraries\lvgl\src\core/lv_indev.c ****     if(i->proc.wait_until_release) {
 401:..\..\..\arduinoLCD\test\Pain Drain\libraries\lvgl\src\core/lv_indev.c ****         i->proc.wait_until_release      = 0;
 402:..\..\..\arduinoLCD\test\Pain Drain\libraries\lvgl\src\core/lv_indev.c ****         i->proc.pr_timestamp            = 0;
 403:..\..\..\arduinoLCD\test\Pain Drain\libraries\lvgl\src\core/lv_indev.c ****         i->proc.long_pr_sent            = 0;
 404:..\..\..\arduinoLCD\test\Pain Drain\libraries\lvgl\src\core/lv_indev.c ****         i->proc.types.keypad.last_state = LV_INDEV_STATE_RELEASED; /*To skip the processing of rele
 405:..\..\..\arduinoLCD\test\Pain Drain\libraries\lvgl\src\core/lv_indev.c ****     }
 406:..\..\..\arduinoLCD\test\Pain Drain\libraries\lvgl\src\core/lv_indev.c **** 
 407:..\..\..\arduinoLCD\test\Pain Drain\libraries\lvgl\src\core/lv_indev.c ****     lv_group_t * g = i->group;
 408:..\..\..\arduinoLCD\test\Pain Drain\libraries\lvgl\src\core/lv_indev.c ****     if(g == NULL) return;
 409:..\..\..\arduinoLCD\test\Pain Drain\libraries\lvgl\src\core/lv_indev.c **** 
 410:..\..\..\arduinoLCD\test\Pain Drain\libraries\lvgl\src\core/lv_indev.c ****     indev_obj_act = lv_group_get_focused(g);
 411:..\..\..\arduinoLCD\test\Pain Drain\libraries\lvgl\src\core/lv_indev.c ****     if(indev_obj_act == NULL) return;
 412:..\..\..\arduinoLCD\test\Pain Drain\libraries\lvgl\src\core/lv_indev.c **** 
 413:..\..\..\arduinoLCD\test\Pain Drain\libraries\lvgl\src\core/lv_indev.c ****     bool dis = lv_obj_has_state(indev_obj_act, LV_STATE_DISABLED);
 414:..\..\..\arduinoLCD\test\Pain Drain\libraries\lvgl\src\core/lv_indev.c **** 
 415:..\..\..\arduinoLCD\test\Pain Drain\libraries\lvgl\src\core/lv_indev.c ****     /*Save the last key to compare it with the current latter on RELEASE*/
 416:..\..\..\arduinoLCD\test\Pain Drain\libraries\lvgl\src\core/lv_indev.c ****     uint32_t prev_key = i->proc.types.keypad.last_key;
 417:..\..\..\arduinoLCD\test\Pain Drain\libraries\lvgl\src\core/lv_indev.c **** 
 418:..\..\..\arduinoLCD\test\Pain Drain\libraries\lvgl\src\core/lv_indev.c ****     /*Save the last key.
 419:..\..\..\arduinoLCD\test\Pain Drain\libraries\lvgl\src\core/lv_indev.c ****      *It must be done here else `lv_indev_get_key` will return the last key in events*/
 420:..\..\..\arduinoLCD\test\Pain Drain\libraries\lvgl\src\core/lv_indev.c ****     i->proc.types.keypad.last_key = data->key;
 421:..\..\..\arduinoLCD\test\Pain Drain\libraries\lvgl\src\core/lv_indev.c **** 
 422:..\..\..\arduinoLCD\test\Pain Drain\libraries\lvgl\src\core/lv_indev.c ****     /*Save the previous state so we can detect state changes below and also set the last state now
 423:..\..\..\arduinoLCD\test\Pain Drain\libraries\lvgl\src\core/lv_indev.c ****      *so if any event handler on the way returns `LV_RES_INV` the last state is remembered
 424:..\..\..\arduinoLCD\test\Pain Drain\libraries\lvgl\src\core/lv_indev.c ****      *for the next time*/
 425:..\..\..\arduinoLCD\test\Pain Drain\libraries\lvgl\src\core/lv_indev.c ****     uint32_t prev_state             = i->proc.types.keypad.last_state;
 426:..\..\..\arduinoLCD\test\Pain Drain\libraries\lvgl\src\core/lv_indev.c ****     i->proc.types.keypad.last_state = data->state;
 427:..\..\..\arduinoLCD\test\Pain Drain\libraries\lvgl\src\core/lv_indev.c **** 
 428:..\..\..\arduinoLCD\test\Pain Drain\libraries\lvgl\src\core/lv_indev.c ****     /*Key press happened*/
 429:..\..\..\arduinoLCD\test\Pain Drain\libraries\lvgl\src\core/lv_indev.c ****     if(data->state == LV_INDEV_STATE_PRESSED && prev_state == LV_INDEV_STATE_RELEASED) {
ARM GAS  C:\Users\haske\AppData\Local\Temp\ccOQHbDo.s 			page 9


 430:..\..\..\arduinoLCD\test\Pain Drain\libraries\lvgl\src\core/lv_indev.c ****         LV_LOG_INFO("%" LV_PRIu32 " key is pressed", data->key);
 431:..\..\..\arduinoLCD\test\Pain Drain\libraries\lvgl\src\core/lv_indev.c ****         i->proc.pr_timestamp = lv_tick_get();
 432:..\..\..\arduinoLCD\test\Pain Drain\libraries\lvgl\src\core/lv_indev.c **** 
 433:..\..\..\arduinoLCD\test\Pain Drain\libraries\lvgl\src\core/lv_indev.c ****         /*Move the focus on NEXT*/
 434:..\..\..\arduinoLCD\test\Pain Drain\libraries\lvgl\src\core/lv_indev.c ****         if(data->key == LV_KEY_NEXT) {
 435:..\..\..\arduinoLCD\test\Pain Drain\libraries\lvgl\src\core/lv_indev.c ****             lv_group_set_editing(g, false); /*Editing is not used by KEYPAD is be sure it is disabl
 436:..\..\..\arduinoLCD\test\Pain Drain\libraries\lvgl\src\core/lv_indev.c ****             lv_group_focus_next(g);
 437:..\..\..\arduinoLCD\test\Pain Drain\libraries\lvgl\src\core/lv_indev.c ****             if(indev_reset_check(&i->proc)) return;
 438:..\..\..\arduinoLCD\test\Pain Drain\libraries\lvgl\src\core/lv_indev.c ****         }
 439:..\..\..\arduinoLCD\test\Pain Drain\libraries\lvgl\src\core/lv_indev.c ****         /*Move the focus on PREV*/
 440:..\..\..\arduinoLCD\test\Pain Drain\libraries\lvgl\src\core/lv_indev.c ****         else if(data->key == LV_KEY_PREV) {
 441:..\..\..\arduinoLCD\test\Pain Drain\libraries\lvgl\src\core/lv_indev.c ****             lv_group_set_editing(g, false); /*Editing is not used by KEYPAD is be sure it is disabl
 442:..\..\..\arduinoLCD\test\Pain Drain\libraries\lvgl\src\core/lv_indev.c ****             lv_group_focus_prev(g);
 443:..\..\..\arduinoLCD\test\Pain Drain\libraries\lvgl\src\core/lv_indev.c ****             if(indev_reset_check(&i->proc)) return;
 444:..\..\..\arduinoLCD\test\Pain Drain\libraries\lvgl\src\core/lv_indev.c ****         }
 445:..\..\..\arduinoLCD\test\Pain Drain\libraries\lvgl\src\core/lv_indev.c ****         else if(!dis) {
 446:..\..\..\arduinoLCD\test\Pain Drain\libraries\lvgl\src\core/lv_indev.c ****             /*Simulate a press on the object if ENTER was pressed*/
 447:..\..\..\arduinoLCD\test\Pain Drain\libraries\lvgl\src\core/lv_indev.c ****             if(data->key == LV_KEY_ENTER) {
 448:..\..\..\arduinoLCD\test\Pain Drain\libraries\lvgl\src\core/lv_indev.c ****                 /*Send the ENTER as a normal KEY*/
 449:..\..\..\arduinoLCD\test\Pain Drain\libraries\lvgl\src\core/lv_indev.c ****                 lv_group_send_data(g, LV_KEY_ENTER);
 450:..\..\..\arduinoLCD\test\Pain Drain\libraries\lvgl\src\core/lv_indev.c ****                 if(indev_reset_check(&i->proc)) return;
 451:..\..\..\arduinoLCD\test\Pain Drain\libraries\lvgl\src\core/lv_indev.c **** 
 452:..\..\..\arduinoLCD\test\Pain Drain\libraries\lvgl\src\core/lv_indev.c ****                 if(!dis) lv_event_send(indev_obj_act, LV_EVENT_PRESSED, indev_act);
 453:..\..\..\arduinoLCD\test\Pain Drain\libraries\lvgl\src\core/lv_indev.c ****                 if(indev_reset_check(&i->proc)) return;
 454:..\..\..\arduinoLCD\test\Pain Drain\libraries\lvgl\src\core/lv_indev.c ****             }
 455:..\..\..\arduinoLCD\test\Pain Drain\libraries\lvgl\src\core/lv_indev.c ****             else if(data->key == LV_KEY_ESC) {
 456:..\..\..\arduinoLCD\test\Pain Drain\libraries\lvgl\src\core/lv_indev.c ****                 /*Send the ESC as a normal KEY*/
 457:..\..\..\arduinoLCD\test\Pain Drain\libraries\lvgl\src\core/lv_indev.c ****                 lv_group_send_data(g, LV_KEY_ESC);
 458:..\..\..\arduinoLCD\test\Pain Drain\libraries\lvgl\src\core/lv_indev.c ****                 if(indev_reset_check(&i->proc)) return;
 459:..\..\..\arduinoLCD\test\Pain Drain\libraries\lvgl\src\core/lv_indev.c **** 
 460:..\..\..\arduinoLCD\test\Pain Drain\libraries\lvgl\src\core/lv_indev.c ****                 lv_event_send(indev_obj_act, LV_EVENT_CANCEL, indev_act);
 461:..\..\..\arduinoLCD\test\Pain Drain\libraries\lvgl\src\core/lv_indev.c ****                 if(indev_reset_check(&i->proc)) return;
 462:..\..\..\arduinoLCD\test\Pain Drain\libraries\lvgl\src\core/lv_indev.c ****             }
 463:..\..\..\arduinoLCD\test\Pain Drain\libraries\lvgl\src\core/lv_indev.c ****             /*Just send other keys to the object (e.g. 'A' or `LV_GROUP_KEY_RIGHT`)*/
 464:..\..\..\arduinoLCD\test\Pain Drain\libraries\lvgl\src\core/lv_indev.c ****             else {
 465:..\..\..\arduinoLCD\test\Pain Drain\libraries\lvgl\src\core/lv_indev.c ****                 lv_group_send_data(g, data->key);
 466:..\..\..\arduinoLCD\test\Pain Drain\libraries\lvgl\src\core/lv_indev.c ****                 if(indev_reset_check(&i->proc)) return;
 467:..\..\..\arduinoLCD\test\Pain Drain\libraries\lvgl\src\core/lv_indev.c ****             }
 468:..\..\..\arduinoLCD\test\Pain Drain\libraries\lvgl\src\core/lv_indev.c ****         }
 469:..\..\..\arduinoLCD\test\Pain Drain\libraries\lvgl\src\core/lv_indev.c ****     }
 470:..\..\..\arduinoLCD\test\Pain Drain\libraries\lvgl\src\core/lv_indev.c ****     /*Pressing*/
 471:..\..\..\arduinoLCD\test\Pain Drain\libraries\lvgl\src\core/lv_indev.c ****     else if(!dis && data->state == LV_INDEV_STATE_PRESSED && prev_state == LV_INDEV_STATE_PRESSED) 
 472:..\..\..\arduinoLCD\test\Pain Drain\libraries\lvgl\src\core/lv_indev.c **** 
 473:..\..\..\arduinoLCD\test\Pain Drain\libraries\lvgl\src\core/lv_indev.c ****         if(data->key == LV_KEY_ENTER) {
 474:..\..\..\arduinoLCD\test\Pain Drain\libraries\lvgl\src\core/lv_indev.c ****             lv_event_send(indev_obj_act, LV_EVENT_PRESSING, indev_act);
 475:..\..\..\arduinoLCD\test\Pain Drain\libraries\lvgl\src\core/lv_indev.c ****             if(indev_reset_check(&i->proc)) return;
 476:..\..\..\arduinoLCD\test\Pain Drain\libraries\lvgl\src\core/lv_indev.c ****         }
 477:..\..\..\arduinoLCD\test\Pain Drain\libraries\lvgl\src\core/lv_indev.c **** 
 478:..\..\..\arduinoLCD\test\Pain Drain\libraries\lvgl\src\core/lv_indev.c ****         /*Long press time has elapsed?*/
 479:..\..\..\arduinoLCD\test\Pain Drain\libraries\lvgl\src\core/lv_indev.c ****         if(i->proc.long_pr_sent == 0 && lv_tick_elaps(i->proc.pr_timestamp) > i->driver->long_press
 480:..\..\..\arduinoLCD\test\Pain Drain\libraries\lvgl\src\core/lv_indev.c ****             i->proc.long_pr_sent = 1;
 481:..\..\..\arduinoLCD\test\Pain Drain\libraries\lvgl\src\core/lv_indev.c ****             if(data->key == LV_KEY_ENTER) {
 482:..\..\..\arduinoLCD\test\Pain Drain\libraries\lvgl\src\core/lv_indev.c ****                 i->proc.longpr_rep_timestamp = lv_tick_get();
 483:..\..\..\arduinoLCD\test\Pain Drain\libraries\lvgl\src\core/lv_indev.c ****                 lv_event_send(indev_obj_act, LV_EVENT_LONG_PRESSED, indev_act);
 484:..\..\..\arduinoLCD\test\Pain Drain\libraries\lvgl\src\core/lv_indev.c ****                 if(indev_reset_check(&i->proc)) return;
 485:..\..\..\arduinoLCD\test\Pain Drain\libraries\lvgl\src\core/lv_indev.c ****             }
 486:..\..\..\arduinoLCD\test\Pain Drain\libraries\lvgl\src\core/lv_indev.c ****         }
ARM GAS  C:\Users\haske\AppData\Local\Temp\ccOQHbDo.s 			page 10


 487:..\..\..\arduinoLCD\test\Pain Drain\libraries\lvgl\src\core/lv_indev.c ****         /*Long press repeated time has elapsed?*/
 488:..\..\..\arduinoLCD\test\Pain Drain\libraries\lvgl\src\core/lv_indev.c ****         else if(i->proc.long_pr_sent != 0 &&
 489:..\..\..\arduinoLCD\test\Pain Drain\libraries\lvgl\src\core/lv_indev.c ****                 lv_tick_elaps(i->proc.longpr_rep_timestamp) > i->driver->long_press_repeat_time) {
 490:..\..\..\arduinoLCD\test\Pain Drain\libraries\lvgl\src\core/lv_indev.c **** 
 491:..\..\..\arduinoLCD\test\Pain Drain\libraries\lvgl\src\core/lv_indev.c ****             i->proc.longpr_rep_timestamp = lv_tick_get();
 492:..\..\..\arduinoLCD\test\Pain Drain\libraries\lvgl\src\core/lv_indev.c **** 
 493:..\..\..\arduinoLCD\test\Pain Drain\libraries\lvgl\src\core/lv_indev.c ****             /*Send LONG_PRESS_REP on ENTER*/
 494:..\..\..\arduinoLCD\test\Pain Drain\libraries\lvgl\src\core/lv_indev.c ****             if(data->key == LV_KEY_ENTER) {
 495:..\..\..\arduinoLCD\test\Pain Drain\libraries\lvgl\src\core/lv_indev.c ****                 lv_event_send(indev_obj_act, LV_EVENT_LONG_PRESSED_REPEAT, indev_act);
 496:..\..\..\arduinoLCD\test\Pain Drain\libraries\lvgl\src\core/lv_indev.c ****                 if(indev_reset_check(&i->proc)) return;
 497:..\..\..\arduinoLCD\test\Pain Drain\libraries\lvgl\src\core/lv_indev.c ****             }
 498:..\..\..\arduinoLCD\test\Pain Drain\libraries\lvgl\src\core/lv_indev.c ****             /*Move the focus on NEXT again*/
 499:..\..\..\arduinoLCD\test\Pain Drain\libraries\lvgl\src\core/lv_indev.c ****             else if(data->key == LV_KEY_NEXT) {
 500:..\..\..\arduinoLCD\test\Pain Drain\libraries\lvgl\src\core/lv_indev.c ****                 lv_group_set_editing(g, false); /*Editing is not used by KEYPAD is be sure it is di
 501:..\..\..\arduinoLCD\test\Pain Drain\libraries\lvgl\src\core/lv_indev.c ****                 lv_group_focus_next(g);
 502:..\..\..\arduinoLCD\test\Pain Drain\libraries\lvgl\src\core/lv_indev.c ****                 if(indev_reset_check(&i->proc)) return;
 503:..\..\..\arduinoLCD\test\Pain Drain\libraries\lvgl\src\core/lv_indev.c ****             }
 504:..\..\..\arduinoLCD\test\Pain Drain\libraries\lvgl\src\core/lv_indev.c ****             /*Move the focus on PREV again*/
 505:..\..\..\arduinoLCD\test\Pain Drain\libraries\lvgl\src\core/lv_indev.c ****             else if(data->key == LV_KEY_PREV) {
 506:..\..\..\arduinoLCD\test\Pain Drain\libraries\lvgl\src\core/lv_indev.c ****                 lv_group_set_editing(g, false); /*Editing is not used by KEYPAD is be sure it is di
 507:..\..\..\arduinoLCD\test\Pain Drain\libraries\lvgl\src\core/lv_indev.c ****                 lv_group_focus_prev(g);
 508:..\..\..\arduinoLCD\test\Pain Drain\libraries\lvgl\src\core/lv_indev.c ****                 if(indev_reset_check(&i->proc)) return;
 509:..\..\..\arduinoLCD\test\Pain Drain\libraries\lvgl\src\core/lv_indev.c ****             }
 510:..\..\..\arduinoLCD\test\Pain Drain\libraries\lvgl\src\core/lv_indev.c ****             /*Just send other keys again to the object (e.g. 'A' or `LV_GROUP_KEY_RIGHT)*/
 511:..\..\..\arduinoLCD\test\Pain Drain\libraries\lvgl\src\core/lv_indev.c ****             else {
 512:..\..\..\arduinoLCD\test\Pain Drain\libraries\lvgl\src\core/lv_indev.c ****                 lv_group_send_data(g, data->key);
 513:..\..\..\arduinoLCD\test\Pain Drain\libraries\lvgl\src\core/lv_indev.c ****                 if(indev_reset_check(&i->proc)) return;
 514:..\..\..\arduinoLCD\test\Pain Drain\libraries\lvgl\src\core/lv_indev.c ****             }
 515:..\..\..\arduinoLCD\test\Pain Drain\libraries\lvgl\src\core/lv_indev.c ****         }
 516:..\..\..\arduinoLCD\test\Pain Drain\libraries\lvgl\src\core/lv_indev.c ****     }
 517:..\..\..\arduinoLCD\test\Pain Drain\libraries\lvgl\src\core/lv_indev.c ****     /*Release happened*/
 518:..\..\..\arduinoLCD\test\Pain Drain\libraries\lvgl\src\core/lv_indev.c ****     else if(!dis && data->state == LV_INDEV_STATE_RELEASED && prev_state == LV_INDEV_STATE_PRESSED)
 519:..\..\..\arduinoLCD\test\Pain Drain\libraries\lvgl\src\core/lv_indev.c ****         LV_LOG_INFO("%" LV_PRIu32 " key is released", data->key);
 520:..\..\..\arduinoLCD\test\Pain Drain\libraries\lvgl\src\core/lv_indev.c ****         /*The user might clear the key when it was released. Always release the pressed key*/
 521:..\..\..\arduinoLCD\test\Pain Drain\libraries\lvgl\src\core/lv_indev.c ****         data->key = prev_key;
 522:..\..\..\arduinoLCD\test\Pain Drain\libraries\lvgl\src\core/lv_indev.c ****         if(data->key == LV_KEY_ENTER) {
 523:..\..\..\arduinoLCD\test\Pain Drain\libraries\lvgl\src\core/lv_indev.c **** 
 524:..\..\..\arduinoLCD\test\Pain Drain\libraries\lvgl\src\core/lv_indev.c ****             lv_event_send(indev_obj_act, LV_EVENT_RELEASED, indev_act);
 525:..\..\..\arduinoLCD\test\Pain Drain\libraries\lvgl\src\core/lv_indev.c ****             if(indev_reset_check(&i->proc)) return;
 526:..\..\..\arduinoLCD\test\Pain Drain\libraries\lvgl\src\core/lv_indev.c **** 
 527:..\..\..\arduinoLCD\test\Pain Drain\libraries\lvgl\src\core/lv_indev.c ****             if(i->proc.long_pr_sent == 0) {
 528:..\..\..\arduinoLCD\test\Pain Drain\libraries\lvgl\src\core/lv_indev.c ****                 lv_event_send(indev_obj_act, LV_EVENT_SHORT_CLICKED, indev_act);
 529:..\..\..\arduinoLCD\test\Pain Drain\libraries\lvgl\src\core/lv_indev.c ****                 if(indev_reset_check(&i->proc)) return;
 530:..\..\..\arduinoLCD\test\Pain Drain\libraries\lvgl\src\core/lv_indev.c ****             }
 531:..\..\..\arduinoLCD\test\Pain Drain\libraries\lvgl\src\core/lv_indev.c **** 
 532:..\..\..\arduinoLCD\test\Pain Drain\libraries\lvgl\src\core/lv_indev.c ****             lv_event_send(indev_obj_act, LV_EVENT_CLICKED, indev_act);
 533:..\..\..\arduinoLCD\test\Pain Drain\libraries\lvgl\src\core/lv_indev.c ****             if(indev_reset_check(&i->proc)) return;
 534:..\..\..\arduinoLCD\test\Pain Drain\libraries\lvgl\src\core/lv_indev.c **** 
 535:..\..\..\arduinoLCD\test\Pain Drain\libraries\lvgl\src\core/lv_indev.c ****         }
 536:..\..\..\arduinoLCD\test\Pain Drain\libraries\lvgl\src\core/lv_indev.c ****         i->proc.pr_timestamp = 0;
 537:..\..\..\arduinoLCD\test\Pain Drain\libraries\lvgl\src\core/lv_indev.c ****         i->proc.long_pr_sent = 0;
 538:..\..\..\arduinoLCD\test\Pain Drain\libraries\lvgl\src\core/lv_indev.c ****     }
 539:..\..\..\arduinoLCD\test\Pain Drain\libraries\lvgl\src\core/lv_indev.c ****     indev_obj_act = NULL;
 540:..\..\..\arduinoLCD\test\Pain Drain\libraries\lvgl\src\core/lv_indev.c **** }
 541:..\..\..\arduinoLCD\test\Pain Drain\libraries\lvgl\src\core/lv_indev.c **** 
 542:..\..\..\arduinoLCD\test\Pain Drain\libraries\lvgl\src\core/lv_indev.c **** /**
 543:..\..\..\arduinoLCD\test\Pain Drain\libraries\lvgl\src\core/lv_indev.c ****  * Process a new point from LV_INDEV_TYPE_ENCODER input device
ARM GAS  C:\Users\haske\AppData\Local\Temp\ccOQHbDo.s 			page 11


 544:..\..\..\arduinoLCD\test\Pain Drain\libraries\lvgl\src\core/lv_indev.c ****  * @param i pointer to an input device
 545:..\..\..\arduinoLCD\test\Pain Drain\libraries\lvgl\src\core/lv_indev.c ****  * @param data pointer to the data read from the input device
 546:..\..\..\arduinoLCD\test\Pain Drain\libraries\lvgl\src\core/lv_indev.c ****  */
 547:..\..\..\arduinoLCD\test\Pain Drain\libraries\lvgl\src\core/lv_indev.c **** static void indev_encoder_proc(lv_indev_t * i, lv_indev_data_t * data)
 548:..\..\..\arduinoLCD\test\Pain Drain\libraries\lvgl\src\core/lv_indev.c **** {
 549:..\..\..\arduinoLCD\test\Pain Drain\libraries\lvgl\src\core/lv_indev.c ****     if(data->state == LV_INDEV_STATE_PRESSED && i->proc.wait_until_release) return;
 550:..\..\..\arduinoLCD\test\Pain Drain\libraries\lvgl\src\core/lv_indev.c **** 
 551:..\..\..\arduinoLCD\test\Pain Drain\libraries\lvgl\src\core/lv_indev.c ****     if(i->proc.wait_until_release) {
 552:..\..\..\arduinoLCD\test\Pain Drain\libraries\lvgl\src\core/lv_indev.c ****         i->proc.wait_until_release      = 0;
 553:..\..\..\arduinoLCD\test\Pain Drain\libraries\lvgl\src\core/lv_indev.c ****         i->proc.pr_timestamp            = 0;
 554:..\..\..\arduinoLCD\test\Pain Drain\libraries\lvgl\src\core/lv_indev.c ****         i->proc.long_pr_sent            = 0;
 555:..\..\..\arduinoLCD\test\Pain Drain\libraries\lvgl\src\core/lv_indev.c ****         i->proc.types.keypad.last_state = LV_INDEV_STATE_RELEASED; /*To skip the processing of rele
 556:..\..\..\arduinoLCD\test\Pain Drain\libraries\lvgl\src\core/lv_indev.c ****     }
 557:..\..\..\arduinoLCD\test\Pain Drain\libraries\lvgl\src\core/lv_indev.c **** 
 558:..\..\..\arduinoLCD\test\Pain Drain\libraries\lvgl\src\core/lv_indev.c ****     /*Save the last keys before anything else.
 559:..\..\..\arduinoLCD\test\Pain Drain\libraries\lvgl\src\core/lv_indev.c ****      *They need to be already saved if the function returns for any reason*/
 560:..\..\..\arduinoLCD\test\Pain Drain\libraries\lvgl\src\core/lv_indev.c ****     lv_indev_state_t last_state     = i->proc.types.keypad.last_state;
 561:..\..\..\arduinoLCD\test\Pain Drain\libraries\lvgl\src\core/lv_indev.c ****     i->proc.types.keypad.last_state = data->state;
 562:..\..\..\arduinoLCD\test\Pain Drain\libraries\lvgl\src\core/lv_indev.c ****     i->proc.types.keypad.last_key   = data->key;
 563:..\..\..\arduinoLCD\test\Pain Drain\libraries\lvgl\src\core/lv_indev.c **** 
 564:..\..\..\arduinoLCD\test\Pain Drain\libraries\lvgl\src\core/lv_indev.c ****     lv_group_t * g = i->group;
 565:..\..\..\arduinoLCD\test\Pain Drain\libraries\lvgl\src\core/lv_indev.c ****     if(g == NULL) return;
 566:..\..\..\arduinoLCD\test\Pain Drain\libraries\lvgl\src\core/lv_indev.c **** 
 567:..\..\..\arduinoLCD\test\Pain Drain\libraries\lvgl\src\core/lv_indev.c ****     indev_obj_act = lv_group_get_focused(g);
 568:..\..\..\arduinoLCD\test\Pain Drain\libraries\lvgl\src\core/lv_indev.c ****     if(indev_obj_act == NULL) return;
 569:..\..\..\arduinoLCD\test\Pain Drain\libraries\lvgl\src\core/lv_indev.c **** 
 570:..\..\..\arduinoLCD\test\Pain Drain\libraries\lvgl\src\core/lv_indev.c ****     /*Process the steps they are valid only with released button*/
 571:..\..\..\arduinoLCD\test\Pain Drain\libraries\lvgl\src\core/lv_indev.c ****     if(data->state != LV_INDEV_STATE_RELEASED) {
 572:..\..\..\arduinoLCD\test\Pain Drain\libraries\lvgl\src\core/lv_indev.c ****         data->enc_diff = 0;
 573:..\..\..\arduinoLCD\test\Pain Drain\libraries\lvgl\src\core/lv_indev.c ****     }
 574:..\..\..\arduinoLCD\test\Pain Drain\libraries\lvgl\src\core/lv_indev.c **** 
 575:..\..\..\arduinoLCD\test\Pain Drain\libraries\lvgl\src\core/lv_indev.c ****     /*Refresh the focused object. It might change due to lv_group_focus_prev/next*/
 576:..\..\..\arduinoLCD\test\Pain Drain\libraries\lvgl\src\core/lv_indev.c ****     indev_obj_act = lv_group_get_focused(g);
 577:..\..\..\arduinoLCD\test\Pain Drain\libraries\lvgl\src\core/lv_indev.c ****     if(indev_obj_act == NULL) return;
 578:..\..\..\arduinoLCD\test\Pain Drain\libraries\lvgl\src\core/lv_indev.c **** 
 579:..\..\..\arduinoLCD\test\Pain Drain\libraries\lvgl\src\core/lv_indev.c ****     /*Button press happened*/
 580:..\..\..\arduinoLCD\test\Pain Drain\libraries\lvgl\src\core/lv_indev.c ****     if(data->state == LV_INDEV_STATE_PRESSED && last_state == LV_INDEV_STATE_RELEASED) {
 581:..\..\..\arduinoLCD\test\Pain Drain\libraries\lvgl\src\core/lv_indev.c ****         LV_LOG_INFO("pressed");
 582:..\..\..\arduinoLCD\test\Pain Drain\libraries\lvgl\src\core/lv_indev.c **** 
 583:..\..\..\arduinoLCD\test\Pain Drain\libraries\lvgl\src\core/lv_indev.c ****         i->proc.pr_timestamp = lv_tick_get();
 584:..\..\..\arduinoLCD\test\Pain Drain\libraries\lvgl\src\core/lv_indev.c **** 
 585:..\..\..\arduinoLCD\test\Pain Drain\libraries\lvgl\src\core/lv_indev.c ****         if(data->key == LV_KEY_ENTER) {
 586:..\..\..\arduinoLCD\test\Pain Drain\libraries\lvgl\src\core/lv_indev.c ****             bool editable_or_scrollable = lv_obj_is_editable(indev_obj_act) ||
 587:..\..\..\arduinoLCD\test\Pain Drain\libraries\lvgl\src\core/lv_indev.c ****                                           lv_obj_has_flag(indev_obj_act, LV_OBJ_FLAG_SCROLLABLE);
 588:..\..\..\arduinoLCD\test\Pain Drain\libraries\lvgl\src\core/lv_indev.c ****             if(lv_group_get_editing(g) == true || editable_or_scrollable == false) {
 589:..\..\..\arduinoLCD\test\Pain Drain\libraries\lvgl\src\core/lv_indev.c ****                 lv_event_send(indev_obj_act, LV_EVENT_PRESSED, indev_act);
 590:..\..\..\arduinoLCD\test\Pain Drain\libraries\lvgl\src\core/lv_indev.c ****                 if(indev_reset_check(&i->proc)) return;
 591:..\..\..\arduinoLCD\test\Pain Drain\libraries\lvgl\src\core/lv_indev.c ****             }
 592:..\..\..\arduinoLCD\test\Pain Drain\libraries\lvgl\src\core/lv_indev.c ****         }
 593:..\..\..\arduinoLCD\test\Pain Drain\libraries\lvgl\src\core/lv_indev.c ****         else if(data->key == LV_KEY_LEFT) {
 594:..\..\..\arduinoLCD\test\Pain Drain\libraries\lvgl\src\core/lv_indev.c ****             /*emulate encoder left*/
 595:..\..\..\arduinoLCD\test\Pain Drain\libraries\lvgl\src\core/lv_indev.c ****             data->enc_diff--;
 596:..\..\..\arduinoLCD\test\Pain Drain\libraries\lvgl\src\core/lv_indev.c ****         }
 597:..\..\..\arduinoLCD\test\Pain Drain\libraries\lvgl\src\core/lv_indev.c ****         else if(data->key == LV_KEY_RIGHT) {
 598:..\..\..\arduinoLCD\test\Pain Drain\libraries\lvgl\src\core/lv_indev.c ****             /*emulate encoder right*/
 599:..\..\..\arduinoLCD\test\Pain Drain\libraries\lvgl\src\core/lv_indev.c ****             data->enc_diff++;
 600:..\..\..\arduinoLCD\test\Pain Drain\libraries\lvgl\src\core/lv_indev.c ****         }
ARM GAS  C:\Users\haske\AppData\Local\Temp\ccOQHbDo.s 			page 12


 601:..\..\..\arduinoLCD\test\Pain Drain\libraries\lvgl\src\core/lv_indev.c ****         else if(data->key == LV_KEY_ESC) {
 602:..\..\..\arduinoLCD\test\Pain Drain\libraries\lvgl\src\core/lv_indev.c ****             /*Send the ESC as a normal KEY*/
 603:..\..\..\arduinoLCD\test\Pain Drain\libraries\lvgl\src\core/lv_indev.c ****             lv_group_send_data(g, LV_KEY_ESC);
 604:..\..\..\arduinoLCD\test\Pain Drain\libraries\lvgl\src\core/lv_indev.c ****             if(indev_reset_check(&i->proc)) return;
 605:..\..\..\arduinoLCD\test\Pain Drain\libraries\lvgl\src\core/lv_indev.c **** 
 606:..\..\..\arduinoLCD\test\Pain Drain\libraries\lvgl\src\core/lv_indev.c ****             lv_event_send(indev_obj_act, LV_EVENT_CANCEL, indev_act);
 607:..\..\..\arduinoLCD\test\Pain Drain\libraries\lvgl\src\core/lv_indev.c ****             if(indev_reset_check(&i->proc)) return;
 608:..\..\..\arduinoLCD\test\Pain Drain\libraries\lvgl\src\core/lv_indev.c ****         }
 609:..\..\..\arduinoLCD\test\Pain Drain\libraries\lvgl\src\core/lv_indev.c ****         /*Just send other keys to the object (e.g. 'A' or `LV_GROUP_KEY_RIGHT`)*/
 610:..\..\..\arduinoLCD\test\Pain Drain\libraries\lvgl\src\core/lv_indev.c ****         else {
 611:..\..\..\arduinoLCD\test\Pain Drain\libraries\lvgl\src\core/lv_indev.c ****             lv_group_send_data(g, data->key);
 612:..\..\..\arduinoLCD\test\Pain Drain\libraries\lvgl\src\core/lv_indev.c ****             if(indev_reset_check(&i->proc)) return;
 613:..\..\..\arduinoLCD\test\Pain Drain\libraries\lvgl\src\core/lv_indev.c ****         }
 614:..\..\..\arduinoLCD\test\Pain Drain\libraries\lvgl\src\core/lv_indev.c ****     }
 615:..\..\..\arduinoLCD\test\Pain Drain\libraries\lvgl\src\core/lv_indev.c ****     /*Pressing*/
 616:..\..\..\arduinoLCD\test\Pain Drain\libraries\lvgl\src\core/lv_indev.c ****     else if(data->state == LV_INDEV_STATE_PRESSED && last_state == LV_INDEV_STATE_PRESSED) {
 617:..\..\..\arduinoLCD\test\Pain Drain\libraries\lvgl\src\core/lv_indev.c ****         /*Long press*/
 618:..\..\..\arduinoLCD\test\Pain Drain\libraries\lvgl\src\core/lv_indev.c ****         if(i->proc.long_pr_sent == 0 && lv_tick_elaps(i->proc.pr_timestamp) > i->driver->long_press
 619:..\..\..\arduinoLCD\test\Pain Drain\libraries\lvgl\src\core/lv_indev.c **** 
 620:..\..\..\arduinoLCD\test\Pain Drain\libraries\lvgl\src\core/lv_indev.c ****             i->proc.long_pr_sent = 1;
 621:..\..\..\arduinoLCD\test\Pain Drain\libraries\lvgl\src\core/lv_indev.c ****             i->proc.longpr_rep_timestamp = lv_tick_get();
 622:..\..\..\arduinoLCD\test\Pain Drain\libraries\lvgl\src\core/lv_indev.c **** 
 623:..\..\..\arduinoLCD\test\Pain Drain\libraries\lvgl\src\core/lv_indev.c ****             if(data->key == LV_KEY_ENTER) {
 624:..\..\..\arduinoLCD\test\Pain Drain\libraries\lvgl\src\core/lv_indev.c ****                 bool editable_or_scrollable = lv_obj_is_editable(indev_obj_act) ||
 625:..\..\..\arduinoLCD\test\Pain Drain\libraries\lvgl\src\core/lv_indev.c ****                                               lv_obj_has_flag(indev_obj_act, LV_OBJ_FLAG_SCROLLABLE
 626:..\..\..\arduinoLCD\test\Pain Drain\libraries\lvgl\src\core/lv_indev.c **** 
 627:..\..\..\arduinoLCD\test\Pain Drain\libraries\lvgl\src\core/lv_indev.c ****                 /*On enter long press toggle edit mode.*/
 628:..\..\..\arduinoLCD\test\Pain Drain\libraries\lvgl\src\core/lv_indev.c ****                 if(editable_or_scrollable) {
 629:..\..\..\arduinoLCD\test\Pain Drain\libraries\lvgl\src\core/lv_indev.c ****                     /*Don't leave edit mode if there is only one object (nowhere to navigate)*/
 630:..\..\..\arduinoLCD\test\Pain Drain\libraries\lvgl\src\core/lv_indev.c ****                     if(lv_group_get_obj_count(g) > 1) {
 631:..\..\..\arduinoLCD\test\Pain Drain\libraries\lvgl\src\core/lv_indev.c ****                         LV_LOG_INFO("toggling edit mode");
 632:..\..\..\arduinoLCD\test\Pain Drain\libraries\lvgl\src\core/lv_indev.c ****                         lv_group_set_editing(g, lv_group_get_editing(g) ? false : true); /*Toggle e
 633:..\..\..\arduinoLCD\test\Pain Drain\libraries\lvgl\src\core/lv_indev.c ****                         lv_obj_clear_state(indev_obj_act, LV_STATE_PRESSED);    /*Remove the presse
 634:..\..\..\arduinoLCD\test\Pain Drain\libraries\lvgl\src\core/lv_indev.c ****                     }
 635:..\..\..\arduinoLCD\test\Pain Drain\libraries\lvgl\src\core/lv_indev.c ****                 }
 636:..\..\..\arduinoLCD\test\Pain Drain\libraries\lvgl\src\core/lv_indev.c ****                 /*If not editable then just send a long press Call the ancestor's event handler*/
 637:..\..\..\arduinoLCD\test\Pain Drain\libraries\lvgl\src\core/lv_indev.c ****                 else {
 638:..\..\..\arduinoLCD\test\Pain Drain\libraries\lvgl\src\core/lv_indev.c ****                     lv_event_send(indev_obj_act, LV_EVENT_LONG_PRESSED, indev_act);
 639:..\..\..\arduinoLCD\test\Pain Drain\libraries\lvgl\src\core/lv_indev.c ****                     if(indev_reset_check(&i->proc)) return;
 640:..\..\..\arduinoLCD\test\Pain Drain\libraries\lvgl\src\core/lv_indev.c ****                 }
 641:..\..\..\arduinoLCD\test\Pain Drain\libraries\lvgl\src\core/lv_indev.c ****             }
 642:..\..\..\arduinoLCD\test\Pain Drain\libraries\lvgl\src\core/lv_indev.c **** 
 643:..\..\..\arduinoLCD\test\Pain Drain\libraries\lvgl\src\core/lv_indev.c ****             i->proc.long_pr_sent = 1;
 644:..\..\..\arduinoLCD\test\Pain Drain\libraries\lvgl\src\core/lv_indev.c ****         }
 645:..\..\..\arduinoLCD\test\Pain Drain\libraries\lvgl\src\core/lv_indev.c ****         /*Long press repeated time has elapsed?*/
 646:..\..\..\arduinoLCD\test\Pain Drain\libraries\lvgl\src\core/lv_indev.c ****         else if(i->proc.long_pr_sent != 0 && lv_tick_elaps(i->proc.longpr_rep_timestamp) > i->drive
 647:..\..\..\arduinoLCD\test\Pain Drain\libraries\lvgl\src\core/lv_indev.c **** 
 648:..\..\..\arduinoLCD\test\Pain Drain\libraries\lvgl\src\core/lv_indev.c ****             i->proc.longpr_rep_timestamp = lv_tick_get();
 649:..\..\..\arduinoLCD\test\Pain Drain\libraries\lvgl\src\core/lv_indev.c **** 
 650:..\..\..\arduinoLCD\test\Pain Drain\libraries\lvgl\src\core/lv_indev.c ****             if(data->key == LV_KEY_ENTER) {
 651:..\..\..\arduinoLCD\test\Pain Drain\libraries\lvgl\src\core/lv_indev.c ****                 lv_event_send(indev_obj_act, LV_EVENT_LONG_PRESSED_REPEAT, indev_act);
 652:..\..\..\arduinoLCD\test\Pain Drain\libraries\lvgl\src\core/lv_indev.c ****                 if(indev_reset_check(&i->proc)) return;
 653:..\..\..\arduinoLCD\test\Pain Drain\libraries\lvgl\src\core/lv_indev.c ****             }
 654:..\..\..\arduinoLCD\test\Pain Drain\libraries\lvgl\src\core/lv_indev.c ****             else if(data->key == LV_KEY_LEFT) {
 655:..\..\..\arduinoLCD\test\Pain Drain\libraries\lvgl\src\core/lv_indev.c ****                 /*emulate encoder left*/
 656:..\..\..\arduinoLCD\test\Pain Drain\libraries\lvgl\src\core/lv_indev.c ****                 data->enc_diff--;
 657:..\..\..\arduinoLCD\test\Pain Drain\libraries\lvgl\src\core/lv_indev.c ****             }
ARM GAS  C:\Users\haske\AppData\Local\Temp\ccOQHbDo.s 			page 13


 658:..\..\..\arduinoLCD\test\Pain Drain\libraries\lvgl\src\core/lv_indev.c ****             else if(data->key == LV_KEY_RIGHT) {
 659:..\..\..\arduinoLCD\test\Pain Drain\libraries\lvgl\src\core/lv_indev.c ****                 /*emulate encoder right*/
 660:..\..\..\arduinoLCD\test\Pain Drain\libraries\lvgl\src\core/lv_indev.c ****                 data->enc_diff++;
 661:..\..\..\arduinoLCD\test\Pain Drain\libraries\lvgl\src\core/lv_indev.c ****             }
 662:..\..\..\arduinoLCD\test\Pain Drain\libraries\lvgl\src\core/lv_indev.c ****             else {
 663:..\..\..\arduinoLCD\test\Pain Drain\libraries\lvgl\src\core/lv_indev.c ****                 lv_group_send_data(g, data->key);
 664:..\..\..\arduinoLCD\test\Pain Drain\libraries\lvgl\src\core/lv_indev.c ****                 if(indev_reset_check(&i->proc)) return;
 665:..\..\..\arduinoLCD\test\Pain Drain\libraries\lvgl\src\core/lv_indev.c ****             }
 666:..\..\..\arduinoLCD\test\Pain Drain\libraries\lvgl\src\core/lv_indev.c **** 
 667:..\..\..\arduinoLCD\test\Pain Drain\libraries\lvgl\src\core/lv_indev.c ****         }
 668:..\..\..\arduinoLCD\test\Pain Drain\libraries\lvgl\src\core/lv_indev.c **** 
 669:..\..\..\arduinoLCD\test\Pain Drain\libraries\lvgl\src\core/lv_indev.c ****     }
 670:..\..\..\arduinoLCD\test\Pain Drain\libraries\lvgl\src\core/lv_indev.c ****     /*Release happened*/
 671:..\..\..\arduinoLCD\test\Pain Drain\libraries\lvgl\src\core/lv_indev.c ****     else if(data->state == LV_INDEV_STATE_RELEASED && last_state == LV_INDEV_STATE_PRESSED) {
 672:..\..\..\arduinoLCD\test\Pain Drain\libraries\lvgl\src\core/lv_indev.c ****         LV_LOG_INFO("released");
 673:..\..\..\arduinoLCD\test\Pain Drain\libraries\lvgl\src\core/lv_indev.c **** 
 674:..\..\..\arduinoLCD\test\Pain Drain\libraries\lvgl\src\core/lv_indev.c ****         if(data->key == LV_KEY_ENTER) {
 675:..\..\..\arduinoLCD\test\Pain Drain\libraries\lvgl\src\core/lv_indev.c ****             bool editable_or_scrollable = lv_obj_is_editable(indev_obj_act) ||
 676:..\..\..\arduinoLCD\test\Pain Drain\libraries\lvgl\src\core/lv_indev.c ****                                           lv_obj_has_flag(indev_obj_act, LV_OBJ_FLAG_SCROLLABLE);
 677:..\..\..\arduinoLCD\test\Pain Drain\libraries\lvgl\src\core/lv_indev.c **** 
 678:..\..\..\arduinoLCD\test\Pain Drain\libraries\lvgl\src\core/lv_indev.c ****             /*The button was released on a non-editable object. Just send enter*/
 679:..\..\..\arduinoLCD\test\Pain Drain\libraries\lvgl\src\core/lv_indev.c ****             if(editable_or_scrollable == false) {
 680:..\..\..\arduinoLCD\test\Pain Drain\libraries\lvgl\src\core/lv_indev.c ****                 lv_event_send(indev_obj_act, LV_EVENT_RELEASED, indev_act);
 681:..\..\..\arduinoLCD\test\Pain Drain\libraries\lvgl\src\core/lv_indev.c ****                 if(indev_reset_check(&i->proc)) return;
 682:..\..\..\arduinoLCD\test\Pain Drain\libraries\lvgl\src\core/lv_indev.c **** 
 683:..\..\..\arduinoLCD\test\Pain Drain\libraries\lvgl\src\core/lv_indev.c ****                 if(i->proc.long_pr_sent == 0) lv_event_send(indev_obj_act, LV_EVENT_SHORT_CLICKED, 
 684:..\..\..\arduinoLCD\test\Pain Drain\libraries\lvgl\src\core/lv_indev.c ****                 if(indev_reset_check(&i->proc)) return;
 685:..\..\..\arduinoLCD\test\Pain Drain\libraries\lvgl\src\core/lv_indev.c **** 
 686:..\..\..\arduinoLCD\test\Pain Drain\libraries\lvgl\src\core/lv_indev.c ****                 lv_event_send(indev_obj_act, LV_EVENT_CLICKED, indev_act);
 687:..\..\..\arduinoLCD\test\Pain Drain\libraries\lvgl\src\core/lv_indev.c ****                 if(indev_reset_check(&i->proc)) return;
 688:..\..\..\arduinoLCD\test\Pain Drain\libraries\lvgl\src\core/lv_indev.c **** 
 689:..\..\..\arduinoLCD\test\Pain Drain\libraries\lvgl\src\core/lv_indev.c ****             }
 690:..\..\..\arduinoLCD\test\Pain Drain\libraries\lvgl\src\core/lv_indev.c ****             /*An object is being edited and the button is released.*/
 691:..\..\..\arduinoLCD\test\Pain Drain\libraries\lvgl\src\core/lv_indev.c ****             else if(lv_group_get_editing(g)) {
 692:..\..\..\arduinoLCD\test\Pain Drain\libraries\lvgl\src\core/lv_indev.c ****                 /*Ignore long pressed enter release because it comes from mode switch*/
 693:..\..\..\arduinoLCD\test\Pain Drain\libraries\lvgl\src\core/lv_indev.c ****                 if(!i->proc.long_pr_sent || lv_group_get_obj_count(g) <= 1) {
 694:..\..\..\arduinoLCD\test\Pain Drain\libraries\lvgl\src\core/lv_indev.c ****                     lv_event_send(indev_obj_act, LV_EVENT_RELEASED, indev_act);
 695:..\..\..\arduinoLCD\test\Pain Drain\libraries\lvgl\src\core/lv_indev.c ****                     if(indev_reset_check(&i->proc)) return;
 696:..\..\..\arduinoLCD\test\Pain Drain\libraries\lvgl\src\core/lv_indev.c **** 
 697:..\..\..\arduinoLCD\test\Pain Drain\libraries\lvgl\src\core/lv_indev.c ****                     lv_event_send(indev_obj_act, LV_EVENT_SHORT_CLICKED, indev_act);
 698:..\..\..\arduinoLCD\test\Pain Drain\libraries\lvgl\src\core/lv_indev.c ****                     if(indev_reset_check(&i->proc)) return;
 699:..\..\..\arduinoLCD\test\Pain Drain\libraries\lvgl\src\core/lv_indev.c **** 
 700:..\..\..\arduinoLCD\test\Pain Drain\libraries\lvgl\src\core/lv_indev.c ****                     lv_event_send(indev_obj_act, LV_EVENT_CLICKED, indev_act);
 701:..\..\..\arduinoLCD\test\Pain Drain\libraries\lvgl\src\core/lv_indev.c ****                     if(indev_reset_check(&i->proc)) return;
 702:..\..\..\arduinoLCD\test\Pain Drain\libraries\lvgl\src\core/lv_indev.c **** 
 703:..\..\..\arduinoLCD\test\Pain Drain\libraries\lvgl\src\core/lv_indev.c ****                     lv_group_send_data(g, LV_KEY_ENTER);
 704:..\..\..\arduinoLCD\test\Pain Drain\libraries\lvgl\src\core/lv_indev.c ****                     if(indev_reset_check(&i->proc)) return;
 705:..\..\..\arduinoLCD\test\Pain Drain\libraries\lvgl\src\core/lv_indev.c ****                 }
 706:..\..\..\arduinoLCD\test\Pain Drain\libraries\lvgl\src\core/lv_indev.c ****                 else {
 707:..\..\..\arduinoLCD\test\Pain Drain\libraries\lvgl\src\core/lv_indev.c ****                     lv_obj_clear_state(indev_obj_act, LV_STATE_PRESSED);    /*Remove the pressed st
 708:..\..\..\arduinoLCD\test\Pain Drain\libraries\lvgl\src\core/lv_indev.c ****                 }
 709:..\..\..\arduinoLCD\test\Pain Drain\libraries\lvgl\src\core/lv_indev.c ****             }
 710:..\..\..\arduinoLCD\test\Pain Drain\libraries\lvgl\src\core/lv_indev.c ****             /*If the focused object is editable and now in navigate mode then on enter switch edit
 711:..\..\..\arduinoLCD\test\Pain Drain\libraries\lvgl\src\core/lv_indev.c ****                mode*/
 712:..\..\..\arduinoLCD\test\Pain Drain\libraries\lvgl\src\core/lv_indev.c ****             else if(!i->proc.long_pr_sent) {
 713:..\..\..\arduinoLCD\test\Pain Drain\libraries\lvgl\src\core/lv_indev.c ****                 LV_LOG_INFO("entering edit mode");
 714:..\..\..\arduinoLCD\test\Pain Drain\libraries\lvgl\src\core/lv_indev.c ****                 lv_group_set_editing(g, true); /*Set edit mode*/
ARM GAS  C:\Users\haske\AppData\Local\Temp\ccOQHbDo.s 			page 14


 715:..\..\..\arduinoLCD\test\Pain Drain\libraries\lvgl\src\core/lv_indev.c ****             }
 716:..\..\..\arduinoLCD\test\Pain Drain\libraries\lvgl\src\core/lv_indev.c ****         }
 717:..\..\..\arduinoLCD\test\Pain Drain\libraries\lvgl\src\core/lv_indev.c **** 
 718:..\..\..\arduinoLCD\test\Pain Drain\libraries\lvgl\src\core/lv_indev.c ****         i->proc.pr_timestamp = 0;
 719:..\..\..\arduinoLCD\test\Pain Drain\libraries\lvgl\src\core/lv_indev.c ****         i->proc.long_pr_sent = 0;
 720:..\..\..\arduinoLCD\test\Pain Drain\libraries\lvgl\src\core/lv_indev.c ****     }
 721:..\..\..\arduinoLCD\test\Pain Drain\libraries\lvgl\src\core/lv_indev.c ****     indev_obj_act = NULL;
 722:..\..\..\arduinoLCD\test\Pain Drain\libraries\lvgl\src\core/lv_indev.c **** 
 723:..\..\..\arduinoLCD\test\Pain Drain\libraries\lvgl\src\core/lv_indev.c ****     /*if encoder steps or simulated steps via left/right keys*/
 724:..\..\..\arduinoLCD\test\Pain Drain\libraries\lvgl\src\core/lv_indev.c ****     if(data->enc_diff != 0) {
 725:..\..\..\arduinoLCD\test\Pain Drain\libraries\lvgl\src\core/lv_indev.c ****         /*In edit mode send LEFT/RIGHT keys*/
 726:..\..\..\arduinoLCD\test\Pain Drain\libraries\lvgl\src\core/lv_indev.c ****         if(lv_group_get_editing(g)) {
 727:..\..\..\arduinoLCD\test\Pain Drain\libraries\lvgl\src\core/lv_indev.c ****             LV_LOG_INFO("rotated by %+d (edit)", data->enc_diff);
 728:..\..\..\arduinoLCD\test\Pain Drain\libraries\lvgl\src\core/lv_indev.c ****             int32_t s;
 729:..\..\..\arduinoLCD\test\Pain Drain\libraries\lvgl\src\core/lv_indev.c ****             if(data->enc_diff < 0) {
 730:..\..\..\arduinoLCD\test\Pain Drain\libraries\lvgl\src\core/lv_indev.c ****                 for(s = 0; s < -data->enc_diff; s++) {
 731:..\..\..\arduinoLCD\test\Pain Drain\libraries\lvgl\src\core/lv_indev.c ****                     lv_group_send_data(g, LV_KEY_LEFT);
 732:..\..\..\arduinoLCD\test\Pain Drain\libraries\lvgl\src\core/lv_indev.c ****                     if(indev_reset_check(&i->proc)) return;
 733:..\..\..\arduinoLCD\test\Pain Drain\libraries\lvgl\src\core/lv_indev.c ****                 }
 734:..\..\..\arduinoLCD\test\Pain Drain\libraries\lvgl\src\core/lv_indev.c ****             }
 735:..\..\..\arduinoLCD\test\Pain Drain\libraries\lvgl\src\core/lv_indev.c ****             else if(data->enc_diff > 0) {
 736:..\..\..\arduinoLCD\test\Pain Drain\libraries\lvgl\src\core/lv_indev.c ****                 for(s = 0; s < data->enc_diff; s++) {
 737:..\..\..\arduinoLCD\test\Pain Drain\libraries\lvgl\src\core/lv_indev.c ****                     lv_group_send_data(g, LV_KEY_RIGHT);
 738:..\..\..\arduinoLCD\test\Pain Drain\libraries\lvgl\src\core/lv_indev.c ****                     if(indev_reset_check(&i->proc)) return;
 739:..\..\..\arduinoLCD\test\Pain Drain\libraries\lvgl\src\core/lv_indev.c ****                 }
 740:..\..\..\arduinoLCD\test\Pain Drain\libraries\lvgl\src\core/lv_indev.c ****             }
 741:..\..\..\arduinoLCD\test\Pain Drain\libraries\lvgl\src\core/lv_indev.c ****         }
 742:..\..\..\arduinoLCD\test\Pain Drain\libraries\lvgl\src\core/lv_indev.c ****         /*In navigate mode focus on the next/prev objects*/
 743:..\..\..\arduinoLCD\test\Pain Drain\libraries\lvgl\src\core/lv_indev.c ****         else {
 744:..\..\..\arduinoLCD\test\Pain Drain\libraries\lvgl\src\core/lv_indev.c ****             LV_LOG_INFO("rotated by %+d (nav)", data->enc_diff);
 745:..\..\..\arduinoLCD\test\Pain Drain\libraries\lvgl\src\core/lv_indev.c ****             int32_t s;
 746:..\..\..\arduinoLCD\test\Pain Drain\libraries\lvgl\src\core/lv_indev.c ****             if(data->enc_diff < 0) {
 747:..\..\..\arduinoLCD\test\Pain Drain\libraries\lvgl\src\core/lv_indev.c ****                 for(s = 0; s < -data->enc_diff; s++) {
 748:..\..\..\arduinoLCD\test\Pain Drain\libraries\lvgl\src\core/lv_indev.c ****                     lv_group_focus_prev(g);
 749:..\..\..\arduinoLCD\test\Pain Drain\libraries\lvgl\src\core/lv_indev.c ****                     if(indev_reset_check(&i->proc)) return;
 750:..\..\..\arduinoLCD\test\Pain Drain\libraries\lvgl\src\core/lv_indev.c ****                 }
 751:..\..\..\arduinoLCD\test\Pain Drain\libraries\lvgl\src\core/lv_indev.c ****             }
 752:..\..\..\arduinoLCD\test\Pain Drain\libraries\lvgl\src\core/lv_indev.c ****             else if(data->enc_diff > 0) {
 753:..\..\..\arduinoLCD\test\Pain Drain\libraries\lvgl\src\core/lv_indev.c ****                 for(s = 0; s < data->enc_diff; s++) {
 754:..\..\..\arduinoLCD\test\Pain Drain\libraries\lvgl\src\core/lv_indev.c ****                     lv_group_focus_next(g);
 755:..\..\..\arduinoLCD\test\Pain Drain\libraries\lvgl\src\core/lv_indev.c ****                     if(indev_reset_check(&i->proc)) return;
 756:..\..\..\arduinoLCD\test\Pain Drain\libraries\lvgl\src\core/lv_indev.c ****                 }
 757:..\..\..\arduinoLCD\test\Pain Drain\libraries\lvgl\src\core/lv_indev.c ****             }
 758:..\..\..\arduinoLCD\test\Pain Drain\libraries\lvgl\src\core/lv_indev.c ****         }
 759:..\..\..\arduinoLCD\test\Pain Drain\libraries\lvgl\src\core/lv_indev.c ****     }
 760:..\..\..\arduinoLCD\test\Pain Drain\libraries\lvgl\src\core/lv_indev.c **** }
 761:..\..\..\arduinoLCD\test\Pain Drain\libraries\lvgl\src\core/lv_indev.c **** 
 762:..\..\..\arduinoLCD\test\Pain Drain\libraries\lvgl\src\core/lv_indev.c **** /**
 763:..\..\..\arduinoLCD\test\Pain Drain\libraries\lvgl\src\core/lv_indev.c ****  * Process new points from an input device. indev->state.pressed has to be set
 764:..\..\..\arduinoLCD\test\Pain Drain\libraries\lvgl\src\core/lv_indev.c ****  * @param indev pointer to an input device state
 765:..\..\..\arduinoLCD\test\Pain Drain\libraries\lvgl\src\core/lv_indev.c ****  * @param x x coordinate of the next point
 766:..\..\..\arduinoLCD\test\Pain Drain\libraries\lvgl\src\core/lv_indev.c ****  * @param y y coordinate of the next point
 767:..\..\..\arduinoLCD\test\Pain Drain\libraries\lvgl\src\core/lv_indev.c ****  */
 768:..\..\..\arduinoLCD\test\Pain Drain\libraries\lvgl\src\core/lv_indev.c **** static void indev_button_proc(lv_indev_t * i, lv_indev_data_t * data)
 769:..\..\..\arduinoLCD\test\Pain Drain\libraries\lvgl\src\core/lv_indev.c **** {
 770:..\..\..\arduinoLCD\test\Pain Drain\libraries\lvgl\src\core/lv_indev.c ****     /*Die gracefully if i->btn_points is NULL*/
 771:..\..\..\arduinoLCD\test\Pain Drain\libraries\lvgl\src\core/lv_indev.c ****     if(i->btn_points == NULL) {
ARM GAS  C:\Users\haske\AppData\Local\Temp\ccOQHbDo.s 			page 15


 772:..\..\..\arduinoLCD\test\Pain Drain\libraries\lvgl\src\core/lv_indev.c ****         LV_LOG_WARN("btn_points is NULL");
 773:..\..\..\arduinoLCD\test\Pain Drain\libraries\lvgl\src\core/lv_indev.c ****         return;
 774:..\..\..\arduinoLCD\test\Pain Drain\libraries\lvgl\src\core/lv_indev.c ****     }
 775:..\..\..\arduinoLCD\test\Pain Drain\libraries\lvgl\src\core/lv_indev.c **** 
 776:..\..\..\arduinoLCD\test\Pain Drain\libraries\lvgl\src\core/lv_indev.c ****     lv_coord_t x = i->btn_points[data->btn_id].x;
 777:..\..\..\arduinoLCD\test\Pain Drain\libraries\lvgl\src\core/lv_indev.c ****     lv_coord_t y = i->btn_points[data->btn_id].y;
 778:..\..\..\arduinoLCD\test\Pain Drain\libraries\lvgl\src\core/lv_indev.c **** 
 779:..\..\..\arduinoLCD\test\Pain Drain\libraries\lvgl\src\core/lv_indev.c ****     static lv_indev_state_t prev_state = LV_INDEV_STATE_RELEASED;
 780:..\..\..\arduinoLCD\test\Pain Drain\libraries\lvgl\src\core/lv_indev.c ****     if(prev_state != data->state) {
 781:..\..\..\arduinoLCD\test\Pain Drain\libraries\lvgl\src\core/lv_indev.c ****         if(data->state == LV_INDEV_STATE_PRESSED) {
 782:..\..\..\arduinoLCD\test\Pain Drain\libraries\lvgl\src\core/lv_indev.c ****             LV_LOG_INFO("button %" LV_PRIu32 " is pressed (x:%d y:%d)", data->btn_id, x, y);
 783:..\..\..\arduinoLCD\test\Pain Drain\libraries\lvgl\src\core/lv_indev.c ****         }
 784:..\..\..\arduinoLCD\test\Pain Drain\libraries\lvgl\src\core/lv_indev.c ****         else {
 785:..\..\..\arduinoLCD\test\Pain Drain\libraries\lvgl\src\core/lv_indev.c ****             LV_LOG_INFO("button %" LV_PRIu32 " is released (x:%d y:%d)", data->btn_id, x, y);
 786:..\..\..\arduinoLCD\test\Pain Drain\libraries\lvgl\src\core/lv_indev.c ****         }
 787:..\..\..\arduinoLCD\test\Pain Drain\libraries\lvgl\src\core/lv_indev.c ****     }
 788:..\..\..\arduinoLCD\test\Pain Drain\libraries\lvgl\src\core/lv_indev.c **** 
 789:..\..\..\arduinoLCD\test\Pain Drain\libraries\lvgl\src\core/lv_indev.c ****     /*If a new point comes always make a release*/
 790:..\..\..\arduinoLCD\test\Pain Drain\libraries\lvgl\src\core/lv_indev.c ****     if(data->state == LV_INDEV_STATE_PRESSED) {
 791:..\..\..\arduinoLCD\test\Pain Drain\libraries\lvgl\src\core/lv_indev.c ****         if(i->proc.types.pointer.last_point.x != x ||
 792:..\..\..\arduinoLCD\test\Pain Drain\libraries\lvgl\src\core/lv_indev.c ****            i->proc.types.pointer.last_point.y != y) {
 793:..\..\..\arduinoLCD\test\Pain Drain\libraries\lvgl\src\core/lv_indev.c ****             indev_proc_release(&i->proc);
 794:..\..\..\arduinoLCD\test\Pain Drain\libraries\lvgl\src\core/lv_indev.c ****         }
 795:..\..\..\arduinoLCD\test\Pain Drain\libraries\lvgl\src\core/lv_indev.c ****     }
 796:..\..\..\arduinoLCD\test\Pain Drain\libraries\lvgl\src\core/lv_indev.c **** 
 797:..\..\..\arduinoLCD\test\Pain Drain\libraries\lvgl\src\core/lv_indev.c ****     if(indev_reset_check(&i->proc)) return;
 798:..\..\..\arduinoLCD\test\Pain Drain\libraries\lvgl\src\core/lv_indev.c **** 
 799:..\..\..\arduinoLCD\test\Pain Drain\libraries\lvgl\src\core/lv_indev.c ****     /*Save the new points*/
 800:..\..\..\arduinoLCD\test\Pain Drain\libraries\lvgl\src\core/lv_indev.c ****     i->proc.types.pointer.act_point.x = x;
 801:..\..\..\arduinoLCD\test\Pain Drain\libraries\lvgl\src\core/lv_indev.c ****     i->proc.types.pointer.act_point.y = y;
 802:..\..\..\arduinoLCD\test\Pain Drain\libraries\lvgl\src\core/lv_indev.c **** 
 803:..\..\..\arduinoLCD\test\Pain Drain\libraries\lvgl\src\core/lv_indev.c ****     if(data->state == LV_INDEV_STATE_PRESSED) indev_proc_press(&i->proc);
 804:..\..\..\arduinoLCD\test\Pain Drain\libraries\lvgl\src\core/lv_indev.c ****     else indev_proc_release(&i->proc);
 805:..\..\..\arduinoLCD\test\Pain Drain\libraries\lvgl\src\core/lv_indev.c **** 
 806:..\..\..\arduinoLCD\test\Pain Drain\libraries\lvgl\src\core/lv_indev.c ****     if(indev_reset_check(&i->proc)) return;
 807:..\..\..\arduinoLCD\test\Pain Drain\libraries\lvgl\src\core/lv_indev.c **** 
 808:..\..\..\arduinoLCD\test\Pain Drain\libraries\lvgl\src\core/lv_indev.c ****     i->proc.types.pointer.last_point.x = i->proc.types.pointer.act_point.x;
 809:..\..\..\arduinoLCD\test\Pain Drain\libraries\lvgl\src\core/lv_indev.c ****     i->proc.types.pointer.last_point.y = i->proc.types.pointer.act_point.y;
 810:..\..\..\arduinoLCD\test\Pain Drain\libraries\lvgl\src\core/lv_indev.c **** }
 811:..\..\..\arduinoLCD\test\Pain Drain\libraries\lvgl\src\core/lv_indev.c **** 
 812:..\..\..\arduinoLCD\test\Pain Drain\libraries\lvgl\src\core/lv_indev.c **** /**
 813:..\..\..\arduinoLCD\test\Pain Drain\libraries\lvgl\src\core/lv_indev.c ****  * Process the pressed state of LV_INDEV_TYPE_POINTER input devices
 814:..\..\..\arduinoLCD\test\Pain Drain\libraries\lvgl\src\core/lv_indev.c ****  * @param indev pointer to an input device 'proc'
 815:..\..\..\arduinoLCD\test\Pain Drain\libraries\lvgl\src\core/lv_indev.c ****  * @return LV_RES_OK: no indev reset required; LV_RES_INV: indev reset is required
 816:..\..\..\arduinoLCD\test\Pain Drain\libraries\lvgl\src\core/lv_indev.c ****  */
 817:..\..\..\arduinoLCD\test\Pain Drain\libraries\lvgl\src\core/lv_indev.c **** static void indev_proc_press(_lv_indev_proc_t * proc)
 818:..\..\..\arduinoLCD\test\Pain Drain\libraries\lvgl\src\core/lv_indev.c **** {
 819:..\..\..\arduinoLCD\test\Pain Drain\libraries\lvgl\src\core/lv_indev.c ****     LV_LOG_INFO("pressed at x:%d y:%d", proc->types.pointer.act_point.x, proc->types.pointer.act_po
 820:..\..\..\arduinoLCD\test\Pain Drain\libraries\lvgl\src\core/lv_indev.c ****     indev_obj_act = proc->types.pointer.act_obj;
 821:..\..\..\arduinoLCD\test\Pain Drain\libraries\lvgl\src\core/lv_indev.c **** 
 822:..\..\..\arduinoLCD\test\Pain Drain\libraries\lvgl\src\core/lv_indev.c ****     if(proc->wait_until_release != 0) return;
 823:..\..\..\arduinoLCD\test\Pain Drain\libraries\lvgl\src\core/lv_indev.c **** 
 824:..\..\..\arduinoLCD\test\Pain Drain\libraries\lvgl\src\core/lv_indev.c ****     lv_disp_t * disp = indev_act->driver->disp;
 825:..\..\..\arduinoLCD\test\Pain Drain\libraries\lvgl\src\core/lv_indev.c ****     bool new_obj_searched = false;
 826:..\..\..\arduinoLCD\test\Pain Drain\libraries\lvgl\src\core/lv_indev.c **** 
 827:..\..\..\arduinoLCD\test\Pain Drain\libraries\lvgl\src\core/lv_indev.c ****     /*If there is no last object then search*/
 828:..\..\..\arduinoLCD\test\Pain Drain\libraries\lvgl\src\core/lv_indev.c ****     if(indev_obj_act == NULL) {
ARM GAS  C:\Users\haske\AppData\Local\Temp\ccOQHbDo.s 			page 16


 829:..\..\..\arduinoLCD\test\Pain Drain\libraries\lvgl\src\core/lv_indev.c ****         indev_obj_act = lv_indev_search_obj(lv_disp_get_layer_sys(disp), &proc->types.pointer.act_p
 830:..\..\..\arduinoLCD\test\Pain Drain\libraries\lvgl\src\core/lv_indev.c ****         if(indev_obj_act == NULL) indev_obj_act = lv_indev_search_obj(lv_disp_get_layer_top(disp),
 831:..\..\..\arduinoLCD\test\Pain Drain\libraries\lvgl\src\core/lv_indev.c ****                                                                           &proc->types.pointer.act_
 832:..\..\..\arduinoLCD\test\Pain Drain\libraries\lvgl\src\core/lv_indev.c ****         if(indev_obj_act == NULL) indev_obj_act = lv_indev_search_obj(lv_disp_get_scr_act(disp),
 833:..\..\..\arduinoLCD\test\Pain Drain\libraries\lvgl\src\core/lv_indev.c ****                                                                           &proc->types.pointer.act_
 834:..\..\..\arduinoLCD\test\Pain Drain\libraries\lvgl\src\core/lv_indev.c ****         new_obj_searched = true;
 835:..\..\..\arduinoLCD\test\Pain Drain\libraries\lvgl\src\core/lv_indev.c ****     }
 836:..\..\..\arduinoLCD\test\Pain Drain\libraries\lvgl\src\core/lv_indev.c ****     /*If there is last object but it is not scrolled and not protected also search*/
 837:..\..\..\arduinoLCD\test\Pain Drain\libraries\lvgl\src\core/lv_indev.c ****     else if(proc->types.pointer.scroll_obj == NULL &&
 838:..\..\..\arduinoLCD\test\Pain Drain\libraries\lvgl\src\core/lv_indev.c ****             lv_obj_has_flag(indev_obj_act, LV_OBJ_FLAG_PRESS_LOCK) == false) {
 839:..\..\..\arduinoLCD\test\Pain Drain\libraries\lvgl\src\core/lv_indev.c ****         indev_obj_act = lv_indev_search_obj(lv_disp_get_layer_sys(disp), &proc->types.pointer.act_p
 840:..\..\..\arduinoLCD\test\Pain Drain\libraries\lvgl\src\core/lv_indev.c ****         if(indev_obj_act == NULL) indev_obj_act = lv_indev_search_obj(lv_disp_get_layer_top(disp),
 841:..\..\..\arduinoLCD\test\Pain Drain\libraries\lvgl\src\core/lv_indev.c ****                                                                           &proc->types.pointer.act_
 842:..\..\..\arduinoLCD\test\Pain Drain\libraries\lvgl\src\core/lv_indev.c ****         if(indev_obj_act == NULL) indev_obj_act = lv_indev_search_obj(lv_disp_get_scr_act(disp),
 843:..\..\..\arduinoLCD\test\Pain Drain\libraries\lvgl\src\core/lv_indev.c ****                                                                           &proc->types.pointer.act_
 844:..\..\..\arduinoLCD\test\Pain Drain\libraries\lvgl\src\core/lv_indev.c ****         new_obj_searched = true;
 845:..\..\..\arduinoLCD\test\Pain Drain\libraries\lvgl\src\core/lv_indev.c ****     }
 846:..\..\..\arduinoLCD\test\Pain Drain\libraries\lvgl\src\core/lv_indev.c **** 
 847:..\..\..\arduinoLCD\test\Pain Drain\libraries\lvgl\src\core/lv_indev.c ****     /*The last object might have scroll throw. Stop it manually*/
 848:..\..\..\arduinoLCD\test\Pain Drain\libraries\lvgl\src\core/lv_indev.c ****     if(new_obj_searched && proc->types.pointer.last_obj) {
 849:..\..\..\arduinoLCD\test\Pain Drain\libraries\lvgl\src\core/lv_indev.c ****         proc->types.pointer.scroll_throw_vect.x = 0;
 850:..\..\..\arduinoLCD\test\Pain Drain\libraries\lvgl\src\core/lv_indev.c ****         proc->types.pointer.scroll_throw_vect.y = 0;
 851:..\..\..\arduinoLCD\test\Pain Drain\libraries\lvgl\src\core/lv_indev.c ****         _lv_indev_scroll_throw_handler(proc);
 852:..\..\..\arduinoLCD\test\Pain Drain\libraries\lvgl\src\core/lv_indev.c ****         if(indev_reset_check(proc)) return;
 853:..\..\..\arduinoLCD\test\Pain Drain\libraries\lvgl\src\core/lv_indev.c ****     }
 854:..\..\..\arduinoLCD\test\Pain Drain\libraries\lvgl\src\core/lv_indev.c **** 
 855:..\..\..\arduinoLCD\test\Pain Drain\libraries\lvgl\src\core/lv_indev.c ****     /*If a new object was found reset some variables and send a pressed event handler*/
 856:..\..\..\arduinoLCD\test\Pain Drain\libraries\lvgl\src\core/lv_indev.c ****     if(indev_obj_act != proc->types.pointer.act_obj) {
 857:..\..\..\arduinoLCD\test\Pain Drain\libraries\lvgl\src\core/lv_indev.c ****         proc->types.pointer.last_point.x = proc->types.pointer.act_point.x;
 858:..\..\..\arduinoLCD\test\Pain Drain\libraries\lvgl\src\core/lv_indev.c ****         proc->types.pointer.last_point.y = proc->types.pointer.act_point.y;
 859:..\..\..\arduinoLCD\test\Pain Drain\libraries\lvgl\src\core/lv_indev.c **** 
 860:..\..\..\arduinoLCD\test\Pain Drain\libraries\lvgl\src\core/lv_indev.c ****         /*If a new object found the previous was lost, so send a Call the ancestor's event handler*
 861:..\..\..\arduinoLCD\test\Pain Drain\libraries\lvgl\src\core/lv_indev.c ****         if(proc->types.pointer.act_obj != NULL) {
 862:..\..\..\arduinoLCD\test\Pain Drain\libraries\lvgl\src\core/lv_indev.c ****             /*Save the obj because in special cases `act_obj` can change in the Call the ancestor's
 863:..\..\..\arduinoLCD\test\Pain Drain\libraries\lvgl\src\core/lv_indev.c ****             lv_obj_t * last_obj = proc->types.pointer.act_obj;
 864:..\..\..\arduinoLCD\test\Pain Drain\libraries\lvgl\src\core/lv_indev.c **** 
 865:..\..\..\arduinoLCD\test\Pain Drain\libraries\lvgl\src\core/lv_indev.c ****             lv_event_send(last_obj, LV_EVENT_PRESS_LOST, indev_act);
 866:..\..\..\arduinoLCD\test\Pain Drain\libraries\lvgl\src\core/lv_indev.c ****             if(indev_reset_check(proc)) return;
 867:..\..\..\arduinoLCD\test\Pain Drain\libraries\lvgl\src\core/lv_indev.c ****         }
 868:..\..\..\arduinoLCD\test\Pain Drain\libraries\lvgl\src\core/lv_indev.c **** 
 869:..\..\..\arduinoLCD\test\Pain Drain\libraries\lvgl\src\core/lv_indev.c ****         proc->types.pointer.act_obj  = indev_obj_act; /*Save the pressed object*/
 870:..\..\..\arduinoLCD\test\Pain Drain\libraries\lvgl\src\core/lv_indev.c ****         proc->types.pointer.last_obj = indev_obj_act;
 871:..\..\..\arduinoLCD\test\Pain Drain\libraries\lvgl\src\core/lv_indev.c **** 
 872:..\..\..\arduinoLCD\test\Pain Drain\libraries\lvgl\src\core/lv_indev.c ****         if(indev_obj_act != NULL) {
 873:..\..\..\arduinoLCD\test\Pain Drain\libraries\lvgl\src\core/lv_indev.c ****             /*Save the time when the obj pressed to count long press time.*/
 874:..\..\..\arduinoLCD\test\Pain Drain\libraries\lvgl\src\core/lv_indev.c ****             proc->pr_timestamp                 = lv_tick_get();
 875:..\..\..\arduinoLCD\test\Pain Drain\libraries\lvgl\src\core/lv_indev.c ****             proc->long_pr_sent                 = 0;
 876:..\..\..\arduinoLCD\test\Pain Drain\libraries\lvgl\src\core/lv_indev.c ****             proc->types.pointer.scroll_sum.x     = 0;
 877:..\..\..\arduinoLCD\test\Pain Drain\libraries\lvgl\src\core/lv_indev.c ****             proc->types.pointer.scroll_sum.y     = 0;
 878:..\..\..\arduinoLCD\test\Pain Drain\libraries\lvgl\src\core/lv_indev.c ****             proc->types.pointer.scroll_dir = LV_DIR_NONE;
 879:..\..\..\arduinoLCD\test\Pain Drain\libraries\lvgl\src\core/lv_indev.c ****             proc->types.pointer.gesture_dir = LV_DIR_NONE;
 880:..\..\..\arduinoLCD\test\Pain Drain\libraries\lvgl\src\core/lv_indev.c ****             proc->types.pointer.gesture_sent   = 0;
 881:..\..\..\arduinoLCD\test\Pain Drain\libraries\lvgl\src\core/lv_indev.c ****             proc->types.pointer.gesture_sum.x  = 0;
 882:..\..\..\arduinoLCD\test\Pain Drain\libraries\lvgl\src\core/lv_indev.c ****             proc->types.pointer.gesture_sum.y  = 0;
 883:..\..\..\arduinoLCD\test\Pain Drain\libraries\lvgl\src\core/lv_indev.c ****             proc->types.pointer.vect.x         = 0;
 884:..\..\..\arduinoLCD\test\Pain Drain\libraries\lvgl\src\core/lv_indev.c ****             proc->types.pointer.vect.y         = 0;
 885:..\..\..\arduinoLCD\test\Pain Drain\libraries\lvgl\src\core/lv_indev.c **** 
ARM GAS  C:\Users\haske\AppData\Local\Temp\ccOQHbDo.s 			page 17


 886:..\..\..\arduinoLCD\test\Pain Drain\libraries\lvgl\src\core/lv_indev.c ****             /*Call the ancestor's event handler about the press*/
 887:..\..\..\arduinoLCD\test\Pain Drain\libraries\lvgl\src\core/lv_indev.c ****             lv_event_send(indev_obj_act, LV_EVENT_PRESSED, indev_act);
 888:..\..\..\arduinoLCD\test\Pain Drain\libraries\lvgl\src\core/lv_indev.c ****             if(indev_reset_check(proc)) return;
 889:..\..\..\arduinoLCD\test\Pain Drain\libraries\lvgl\src\core/lv_indev.c **** 
 890:..\..\..\arduinoLCD\test\Pain Drain\libraries\lvgl\src\core/lv_indev.c ****             if(indev_act->proc.wait_until_release) return;
 891:..\..\..\arduinoLCD\test\Pain Drain\libraries\lvgl\src\core/lv_indev.c **** 
 892:..\..\..\arduinoLCD\test\Pain Drain\libraries\lvgl\src\core/lv_indev.c ****             /*Handle focus*/
 893:..\..\..\arduinoLCD\test\Pain Drain\libraries\lvgl\src\core/lv_indev.c ****             indev_click_focus(&indev_act->proc);
 894:..\..\..\arduinoLCD\test\Pain Drain\libraries\lvgl\src\core/lv_indev.c ****             if(indev_reset_check(proc)) return;
 895:..\..\..\arduinoLCD\test\Pain Drain\libraries\lvgl\src\core/lv_indev.c **** 
 896:..\..\..\arduinoLCD\test\Pain Drain\libraries\lvgl\src\core/lv_indev.c ****         }
 897:..\..\..\arduinoLCD\test\Pain Drain\libraries\lvgl\src\core/lv_indev.c ****     }
 898:..\..\..\arduinoLCD\test\Pain Drain\libraries\lvgl\src\core/lv_indev.c **** 
 899:..\..\..\arduinoLCD\test\Pain Drain\libraries\lvgl\src\core/lv_indev.c ****     /*Calculate the vector and apply a low pass filter: new value = 0.5 * old_value + 0.5 * new_val
 900:..\..\..\arduinoLCD\test\Pain Drain\libraries\lvgl\src\core/lv_indev.c ****     proc->types.pointer.vect.x = proc->types.pointer.act_point.x - proc->types.pointer.last_point.x
 901:..\..\..\arduinoLCD\test\Pain Drain\libraries\lvgl\src\core/lv_indev.c ****     proc->types.pointer.vect.y = proc->types.pointer.act_point.y - proc->types.pointer.last_point.y
 902:..\..\..\arduinoLCD\test\Pain Drain\libraries\lvgl\src\core/lv_indev.c **** 
 903:..\..\..\arduinoLCD\test\Pain Drain\libraries\lvgl\src\core/lv_indev.c ****     proc->types.pointer.scroll_throw_vect.x = (proc->types.pointer.scroll_throw_vect.x + proc->type
 904:..\..\..\arduinoLCD\test\Pain Drain\libraries\lvgl\src\core/lv_indev.c ****     proc->types.pointer.scroll_throw_vect.y = (proc->types.pointer.scroll_throw_vect.y + proc->type
 905:..\..\..\arduinoLCD\test\Pain Drain\libraries\lvgl\src\core/lv_indev.c **** 
 906:..\..\..\arduinoLCD\test\Pain Drain\libraries\lvgl\src\core/lv_indev.c ****     proc->types.pointer.scroll_throw_vect_ori = proc->types.pointer.scroll_throw_vect;
 907:..\..\..\arduinoLCD\test\Pain Drain\libraries\lvgl\src\core/lv_indev.c **** 
 908:..\..\..\arduinoLCD\test\Pain Drain\libraries\lvgl\src\core/lv_indev.c ****     if(indev_obj_act) {
 909:..\..\..\arduinoLCD\test\Pain Drain\libraries\lvgl\src\core/lv_indev.c ****         lv_event_send(indev_obj_act, LV_EVENT_PRESSING, indev_act);
 910:..\..\..\arduinoLCD\test\Pain Drain\libraries\lvgl\src\core/lv_indev.c ****         if(indev_reset_check(proc)) return;
 911:..\..\..\arduinoLCD\test\Pain Drain\libraries\lvgl\src\core/lv_indev.c **** 
 912:..\..\..\arduinoLCD\test\Pain Drain\libraries\lvgl\src\core/lv_indev.c ****         if(indev_act->proc.wait_until_release) return;
 913:..\..\..\arduinoLCD\test\Pain Drain\libraries\lvgl\src\core/lv_indev.c **** 
 914:..\..\..\arduinoLCD\test\Pain Drain\libraries\lvgl\src\core/lv_indev.c ****         _lv_indev_scroll_handler(proc);
 915:..\..\..\arduinoLCD\test\Pain Drain\libraries\lvgl\src\core/lv_indev.c ****         if(indev_reset_check(proc)) return;
 916:..\..\..\arduinoLCD\test\Pain Drain\libraries\lvgl\src\core/lv_indev.c ****         indev_gesture(proc);
 917:..\..\..\arduinoLCD\test\Pain Drain\libraries\lvgl\src\core/lv_indev.c ****         if(indev_reset_check(proc)) return;
 918:..\..\..\arduinoLCD\test\Pain Drain\libraries\lvgl\src\core/lv_indev.c **** 
 919:..\..\..\arduinoLCD\test\Pain Drain\libraries\lvgl\src\core/lv_indev.c ****         /*If there is no scrolling then check for long press time*/
 920:..\..\..\arduinoLCD\test\Pain Drain\libraries\lvgl\src\core/lv_indev.c ****         if(proc->types.pointer.scroll_obj == NULL && proc->long_pr_sent == 0) {
 921:..\..\..\arduinoLCD\test\Pain Drain\libraries\lvgl\src\core/lv_indev.c ****             /*Call the ancestor's event handler about the long press if enough time elapsed*/
 922:..\..\..\arduinoLCD\test\Pain Drain\libraries\lvgl\src\core/lv_indev.c ****             if(lv_tick_elaps(proc->pr_timestamp) > indev_act->driver->long_press_time) {
 923:..\..\..\arduinoLCD\test\Pain Drain\libraries\lvgl\src\core/lv_indev.c ****                 lv_event_send(indev_obj_act, LV_EVENT_LONG_PRESSED, indev_act);
 924:..\..\..\arduinoLCD\test\Pain Drain\libraries\lvgl\src\core/lv_indev.c ****                 if(indev_reset_check(proc)) return;
 925:..\..\..\arduinoLCD\test\Pain Drain\libraries\lvgl\src\core/lv_indev.c **** 
 926:..\..\..\arduinoLCD\test\Pain Drain\libraries\lvgl\src\core/lv_indev.c ****                 /*Mark the Call the ancestor's event handler sending to do not send it again*/
 927:..\..\..\arduinoLCD\test\Pain Drain\libraries\lvgl\src\core/lv_indev.c ****                 proc->long_pr_sent = 1;
 928:..\..\..\arduinoLCD\test\Pain Drain\libraries\lvgl\src\core/lv_indev.c **** 
 929:..\..\..\arduinoLCD\test\Pain Drain\libraries\lvgl\src\core/lv_indev.c ****                 /*Save the long press time stamp for the long press repeat handler*/
 930:..\..\..\arduinoLCD\test\Pain Drain\libraries\lvgl\src\core/lv_indev.c ****                 proc->longpr_rep_timestamp = lv_tick_get();
 931:..\..\..\arduinoLCD\test\Pain Drain\libraries\lvgl\src\core/lv_indev.c ****             }
 932:..\..\..\arduinoLCD\test\Pain Drain\libraries\lvgl\src\core/lv_indev.c ****         }
 933:..\..\..\arduinoLCD\test\Pain Drain\libraries\lvgl\src\core/lv_indev.c **** 
 934:..\..\..\arduinoLCD\test\Pain Drain\libraries\lvgl\src\core/lv_indev.c ****         /*Send long press repeated Call the ancestor's event handler*/
 935:..\..\..\arduinoLCD\test\Pain Drain\libraries\lvgl\src\core/lv_indev.c ****         if(proc->types.pointer.scroll_obj == NULL && proc->long_pr_sent == 1) {
 936:..\..\..\arduinoLCD\test\Pain Drain\libraries\lvgl\src\core/lv_indev.c ****             /*Call the ancestor's event handler about the long press repeat if enough time elapsed*
 937:..\..\..\arduinoLCD\test\Pain Drain\libraries\lvgl\src\core/lv_indev.c ****             if(lv_tick_elaps(proc->longpr_rep_timestamp) > indev_act->driver->long_press_repeat_tim
 938:..\..\..\arduinoLCD\test\Pain Drain\libraries\lvgl\src\core/lv_indev.c ****                 lv_event_send(indev_obj_act, LV_EVENT_LONG_PRESSED_REPEAT, indev_act);
 939:..\..\..\arduinoLCD\test\Pain Drain\libraries\lvgl\src\core/lv_indev.c ****                 if(indev_reset_check(proc)) return;
 940:..\..\..\arduinoLCD\test\Pain Drain\libraries\lvgl\src\core/lv_indev.c ****                 proc->longpr_rep_timestamp = lv_tick_get();
 941:..\..\..\arduinoLCD\test\Pain Drain\libraries\lvgl\src\core/lv_indev.c ****             }
 942:..\..\..\arduinoLCD\test\Pain Drain\libraries\lvgl\src\core/lv_indev.c ****         }
ARM GAS  C:\Users\haske\AppData\Local\Temp\ccOQHbDo.s 			page 18


 943:..\..\..\arduinoLCD\test\Pain Drain\libraries\lvgl\src\core/lv_indev.c ****     }
 944:..\..\..\arduinoLCD\test\Pain Drain\libraries\lvgl\src\core/lv_indev.c **** }
 945:..\..\..\arduinoLCD\test\Pain Drain\libraries\lvgl\src\core/lv_indev.c **** 
 946:..\..\..\arduinoLCD\test\Pain Drain\libraries\lvgl\src\core/lv_indev.c **** /**
 947:..\..\..\arduinoLCD\test\Pain Drain\libraries\lvgl\src\core/lv_indev.c ****  * Process the released state of LV_INDEV_TYPE_POINTER input devices
 948:..\..\..\arduinoLCD\test\Pain Drain\libraries\lvgl\src\core/lv_indev.c ****  * @param proc pointer to an input device 'proc'
 949:..\..\..\arduinoLCD\test\Pain Drain\libraries\lvgl\src\core/lv_indev.c ****  */
 950:..\..\..\arduinoLCD\test\Pain Drain\libraries\lvgl\src\core/lv_indev.c **** static void indev_proc_release(_lv_indev_proc_t * proc)
 951:..\..\..\arduinoLCD\test\Pain Drain\libraries\lvgl\src\core/lv_indev.c **** {
 952:..\..\..\arduinoLCD\test\Pain Drain\libraries\lvgl\src\core/lv_indev.c ****     if(proc->wait_until_release != 0) {
 953:..\..\..\arduinoLCD\test\Pain Drain\libraries\lvgl\src\core/lv_indev.c ****         lv_event_send(proc->types.pointer.act_obj, LV_EVENT_PRESS_LOST, indev_act);
 954:..\..\..\arduinoLCD\test\Pain Drain\libraries\lvgl\src\core/lv_indev.c ****         if(indev_reset_check(proc)) return;
 955:..\..\..\arduinoLCD\test\Pain Drain\libraries\lvgl\src\core/lv_indev.c **** 
 956:..\..\..\arduinoLCD\test\Pain Drain\libraries\lvgl\src\core/lv_indev.c ****         proc->types.pointer.act_obj  = NULL;
 957:..\..\..\arduinoLCD\test\Pain Drain\libraries\lvgl\src\core/lv_indev.c ****         proc->types.pointer.last_obj = NULL;
 958:..\..\..\arduinoLCD\test\Pain Drain\libraries\lvgl\src\core/lv_indev.c ****         proc->pr_timestamp           = 0;
 959:..\..\..\arduinoLCD\test\Pain Drain\libraries\lvgl\src\core/lv_indev.c ****         proc->longpr_rep_timestamp   = 0;
 960:..\..\..\arduinoLCD\test\Pain Drain\libraries\lvgl\src\core/lv_indev.c ****         proc->wait_until_release     = 0;
 961:..\..\..\arduinoLCD\test\Pain Drain\libraries\lvgl\src\core/lv_indev.c ****     }
 962:..\..\..\arduinoLCD\test\Pain Drain\libraries\lvgl\src\core/lv_indev.c ****     indev_obj_act = proc->types.pointer.act_obj;
 963:..\..\..\arduinoLCD\test\Pain Drain\libraries\lvgl\src\core/lv_indev.c ****     lv_obj_t * scroll_obj = proc->types.pointer.scroll_obj;
 964:..\..\..\arduinoLCD\test\Pain Drain\libraries\lvgl\src\core/lv_indev.c **** 
 965:..\..\..\arduinoLCD\test\Pain Drain\libraries\lvgl\src\core/lv_indev.c ****     /*Forget the act obj and send a released Call the ancestor's event handler*/
 966:..\..\..\arduinoLCD\test\Pain Drain\libraries\lvgl\src\core/lv_indev.c ****     if(indev_obj_act) {
 967:..\..\..\arduinoLCD\test\Pain Drain\libraries\lvgl\src\core/lv_indev.c ****         LV_LOG_INFO("released");
 968:..\..\..\arduinoLCD\test\Pain Drain\libraries\lvgl\src\core/lv_indev.c **** 
 969:..\..\..\arduinoLCD\test\Pain Drain\libraries\lvgl\src\core/lv_indev.c ****         /*Send RELEASE Call the ancestor's event handler and event*/
 970:..\..\..\arduinoLCD\test\Pain Drain\libraries\lvgl\src\core/lv_indev.c ****         lv_event_send(indev_obj_act, LV_EVENT_RELEASED, indev_act);
 971:..\..\..\arduinoLCD\test\Pain Drain\libraries\lvgl\src\core/lv_indev.c ****         if(indev_reset_check(proc)) return;
 972:..\..\..\arduinoLCD\test\Pain Drain\libraries\lvgl\src\core/lv_indev.c **** 
 973:..\..\..\arduinoLCD\test\Pain Drain\libraries\lvgl\src\core/lv_indev.c ****         /*Send CLICK if no scrolling*/
 974:..\..\..\arduinoLCD\test\Pain Drain\libraries\lvgl\src\core/lv_indev.c ****         if(scroll_obj == NULL) {
 975:..\..\..\arduinoLCD\test\Pain Drain\libraries\lvgl\src\core/lv_indev.c ****             if(proc->long_pr_sent == 0) {
 976:..\..\..\arduinoLCD\test\Pain Drain\libraries\lvgl\src\core/lv_indev.c ****                 lv_event_send(indev_obj_act, LV_EVENT_SHORT_CLICKED, indev_act);
 977:..\..\..\arduinoLCD\test\Pain Drain\libraries\lvgl\src\core/lv_indev.c ****                 if(indev_reset_check(proc)) return;
 978:..\..\..\arduinoLCD\test\Pain Drain\libraries\lvgl\src\core/lv_indev.c ****             }
 979:..\..\..\arduinoLCD\test\Pain Drain\libraries\lvgl\src\core/lv_indev.c **** 
 980:..\..\..\arduinoLCD\test\Pain Drain\libraries\lvgl\src\core/lv_indev.c ****             lv_event_send(indev_obj_act, LV_EVENT_CLICKED, indev_act);
 981:..\..\..\arduinoLCD\test\Pain Drain\libraries\lvgl\src\core/lv_indev.c ****             if(indev_reset_check(proc)) return;
 982:..\..\..\arduinoLCD\test\Pain Drain\libraries\lvgl\src\core/lv_indev.c ****         }
 983:..\..\..\arduinoLCD\test\Pain Drain\libraries\lvgl\src\core/lv_indev.c **** 
 984:..\..\..\arduinoLCD\test\Pain Drain\libraries\lvgl\src\core/lv_indev.c ****         proc->types.pointer.act_obj = NULL;
 985:..\..\..\arduinoLCD\test\Pain Drain\libraries\lvgl\src\core/lv_indev.c ****         proc->pr_timestamp          = 0;
 986:..\..\..\arduinoLCD\test\Pain Drain\libraries\lvgl\src\core/lv_indev.c ****         proc->longpr_rep_timestamp  = 0;
 987:..\..\..\arduinoLCD\test\Pain Drain\libraries\lvgl\src\core/lv_indev.c **** 
 988:..\..\..\arduinoLCD\test\Pain Drain\libraries\lvgl\src\core/lv_indev.c **** 
 989:..\..\..\arduinoLCD\test\Pain Drain\libraries\lvgl\src\core/lv_indev.c ****         /*Get the transformed vector with this object*/
 990:..\..\..\arduinoLCD\test\Pain Drain\libraries\lvgl\src\core/lv_indev.c ****         if(scroll_obj) {
 991:..\..\..\arduinoLCD\test\Pain Drain\libraries\lvgl\src\core/lv_indev.c ****             int16_t angle = 0;
 992:..\..\..\arduinoLCD\test\Pain Drain\libraries\lvgl\src\core/lv_indev.c ****             int16_t zoom = 256;
 993:..\..\..\arduinoLCD\test\Pain Drain\libraries\lvgl\src\core/lv_indev.c ****             lv_point_t pivot = { 0, 0 };
 994:..\..\..\arduinoLCD\test\Pain Drain\libraries\lvgl\src\core/lv_indev.c ****             lv_obj_t * parent = scroll_obj;
 995:..\..\..\arduinoLCD\test\Pain Drain\libraries\lvgl\src\core/lv_indev.c ****             while(parent) {
 996:..\..\..\arduinoLCD\test\Pain Drain\libraries\lvgl\src\core/lv_indev.c ****                 angle += lv_obj_get_style_transform_angle(parent, 0);
 997:..\..\..\arduinoLCD\test\Pain Drain\libraries\lvgl\src\core/lv_indev.c ****                 zoom *= (lv_obj_get_style_transform_zoom(parent, 0) / 256);
 998:..\..\..\arduinoLCD\test\Pain Drain\libraries\lvgl\src\core/lv_indev.c ****                 parent = lv_obj_get_parent(parent);
 999:..\..\..\arduinoLCD\test\Pain Drain\libraries\lvgl\src\core/lv_indev.c ****             }
ARM GAS  C:\Users\haske\AppData\Local\Temp\ccOQHbDo.s 			page 19


1000:..\..\..\arduinoLCD\test\Pain Drain\libraries\lvgl\src\core/lv_indev.c **** 
1001:..\..\..\arduinoLCD\test\Pain Drain\libraries\lvgl\src\core/lv_indev.c ****             if(angle != 0 || zoom != LV_IMG_ZOOM_NONE) {
1002:..\..\..\arduinoLCD\test\Pain Drain\libraries\lvgl\src\core/lv_indev.c ****                 angle = -angle;
1003:..\..\..\arduinoLCD\test\Pain Drain\libraries\lvgl\src\core/lv_indev.c ****                 zoom = (256 * 256) / zoom;
1004:..\..\..\arduinoLCD\test\Pain Drain\libraries\lvgl\src\core/lv_indev.c ****                 lv_point_transform(&proc->types.pointer.scroll_throw_vect, angle, zoom, &pivot);
1005:..\..\..\arduinoLCD\test\Pain Drain\libraries\lvgl\src\core/lv_indev.c ****                 lv_point_transform(&proc->types.pointer.scroll_throw_vect_ori, angle, zoom, &pivot)
1006:..\..\..\arduinoLCD\test\Pain Drain\libraries\lvgl\src\core/lv_indev.c ****             }
1007:..\..\..\arduinoLCD\test\Pain Drain\libraries\lvgl\src\core/lv_indev.c ****         }
1008:..\..\..\arduinoLCD\test\Pain Drain\libraries\lvgl\src\core/lv_indev.c **** 
1009:..\..\..\arduinoLCD\test\Pain Drain\libraries\lvgl\src\core/lv_indev.c ****     }
1010:..\..\..\arduinoLCD\test\Pain Drain\libraries\lvgl\src\core/lv_indev.c **** 
1011:..\..\..\arduinoLCD\test\Pain Drain\libraries\lvgl\src\core/lv_indev.c ****     /*The reset can be set in the Call the ancestor's event handler function.
1012:..\..\..\arduinoLCD\test\Pain Drain\libraries\lvgl\src\core/lv_indev.c ****      * In case of reset query ignore the remaining parts.*/
1013:..\..\..\arduinoLCD\test\Pain Drain\libraries\lvgl\src\core/lv_indev.c ****     if(scroll_obj) {
1014:..\..\..\arduinoLCD\test\Pain Drain\libraries\lvgl\src\core/lv_indev.c ****         _lv_indev_scroll_throw_handler(proc);
1015:..\..\..\arduinoLCD\test\Pain Drain\libraries\lvgl\src\core/lv_indev.c ****         if(indev_reset_check(proc)) return;
1016:..\..\..\arduinoLCD\test\Pain Drain\libraries\lvgl\src\core/lv_indev.c ****     }
1017:..\..\..\arduinoLCD\test\Pain Drain\libraries\lvgl\src\core/lv_indev.c **** }
1018:..\..\..\arduinoLCD\test\Pain Drain\libraries\lvgl\src\core/lv_indev.c **** 
1019:..\..\..\arduinoLCD\test\Pain Drain\libraries\lvgl\src\core/lv_indev.c **** /**
1020:..\..\..\arduinoLCD\test\Pain Drain\libraries\lvgl\src\core/lv_indev.c ****  * Process a new point from LV_INDEV_TYPE_BUTTON input device
1021:..\..\..\arduinoLCD\test\Pain Drain\libraries\lvgl\src\core/lv_indev.c ****  * @param i pointer to an input device
1022:..\..\..\arduinoLCD\test\Pain Drain\libraries\lvgl\src\core/lv_indev.c ****  * @param data pointer to the data read from the input device
1023:..\..\..\arduinoLCD\test\Pain Drain\libraries\lvgl\src\core/lv_indev.c ****  * Reset input device if a reset query has been sent to it
1024:..\..\..\arduinoLCD\test\Pain Drain\libraries\lvgl\src\core/lv_indev.c ****  * @param indev pointer to an input device
1025:..\..\..\arduinoLCD\test\Pain Drain\libraries\lvgl\src\core/lv_indev.c ****  */
1026:..\..\..\arduinoLCD\test\Pain Drain\libraries\lvgl\src\core/lv_indev.c **** static void indev_proc_reset_query_handler(lv_indev_t * indev)
1027:..\..\..\arduinoLCD\test\Pain Drain\libraries\lvgl\src\core/lv_indev.c **** {
  28              		.loc 1 1027 0
  29              		.cfi_startproc
  30              		@ args = 0, pretend = 0, frame = 0
  31              		@ frame_needed = 0, uses_anonymous_args = 0
  32              		@ link register save eliminated.
  33              	.LVL0:
1028:..\..\..\arduinoLCD\test\Pain Drain\libraries\lvgl\src\core/lv_indev.c ****     if(indev->proc.reset_query) {
  34              		.loc 1 1028 0
  35 0000 4379     		ldrb	r3, [r0, #5]	@ zero_extendqisi2
  36 0002 13F0020F 		tst	r3, #2
  37 0006 1BD0     		beq	.L1
1029:..\..\..\arduinoLCD\test\Pain Drain\libraries\lvgl\src\core/lv_indev.c ****         indev->proc.types.pointer.act_obj           = NULL;
  38              		.loc 1 1029 0
  39 0008 0023     		movs	r3, #0
  40 000a 8362     		str	r3, [r0, #40]
1030:..\..\..\arduinoLCD\test\Pain Drain\libraries\lvgl\src\core/lv_indev.c ****         indev->proc.types.pointer.last_obj          = NULL;
  41              		.loc 1 1030 0
  42 000c C362     		str	r3, [r0, #44]
1031:..\..\..\arduinoLCD\test\Pain Drain\libraries\lvgl\src\core/lv_indev.c ****         indev->proc.types.pointer.scroll_obj          = NULL;
  43              		.loc 1 1031 0
  44 000e 0363     		str	r3, [r0, #48]
1032:..\..\..\arduinoLCD\test\Pain Drain\libraries\lvgl\src\core/lv_indev.c ****         indev->proc.long_pr_sent                    = 0;
  45              		.loc 1 1032 0
  46 0010 4279     		ldrb	r2, [r0, #5]	@ zero_extendqisi2
1033:..\..\..\arduinoLCD\test\Pain Drain\libraries\lvgl\src\core/lv_indev.c ****         indev->proc.pr_timestamp                    = 0;
  47              		.loc 1 1033 0
  48 0012 8364     		str	r3, [r0, #72]
1034:..\..\..\arduinoLCD\test\Pain Drain\libraries\lvgl\src\core/lv_indev.c ****         indev->proc.longpr_rep_timestamp            = 0;
  49              		.loc 1 1034 0
ARM GAS  C:\Users\haske\AppData\Local\Temp\ccOQHbDo.s 			page 20


  50 0014 C364     		str	r3, [r0, #76]
1035:..\..\..\arduinoLCD\test\Pain Drain\libraries\lvgl\src\core/lv_indev.c ****         indev->proc.types.pointer.scroll_sum.x        = 0;
  51              		.loc 1 1035 0
  52 0016 8383     		strh	r3, [r0, #28]	@ movhi
1036:..\..\..\arduinoLCD\test\Pain Drain\libraries\lvgl\src\core/lv_indev.c ****         indev->proc.types.pointer.scroll_sum.y        = 0;
  53              		.loc 1 1036 0
  54 0018 C383     		strh	r3, [r0, #30]	@ movhi
1037:..\..\..\arduinoLCD\test\Pain Drain\libraries\lvgl\src\core/lv_indev.c ****         indev->proc.types.pointer.scroll_dir = LV_DIR_NONE;
  55              		.loc 1 1037 0
  56 001a 90F84410 		ldrb	r1, [r0, #68]	@ zero_extendqisi2
  57 001e 63F30301 		bfi	r1, r3, #0, #4
  58 0022 80F84410 		strb	r1, [r0, #68]
1038:..\..\..\arduinoLCD\test\Pain Drain\libraries\lvgl\src\core/lv_indev.c ****         indev->proc.types.pointer.scroll_throw_vect.x = 0;
  59              		.loc 1 1038 0
  60 0026 0384     		strh	r3, [r0, #32]	@ movhi
1039:..\..\..\arduinoLCD\test\Pain Drain\libraries\lvgl\src\core/lv_indev.c ****         indev->proc.types.pointer.scroll_throw_vect.y = 0;
  61              		.loc 1 1039 0
  62 0028 4384     		strh	r3, [r0, #34]	@ movhi
1040:..\..\..\arduinoLCD\test\Pain Drain\libraries\lvgl\src\core/lv_indev.c ****         indev->proc.types.pointer.gesture_sum.x     = 0;
  63              		.loc 1 1040 0
  64 002a A0F84030 		strh	r3, [r0, #64]	@ movhi
1041:..\..\..\arduinoLCD\test\Pain Drain\libraries\lvgl\src\core/lv_indev.c ****         indev->proc.types.pointer.gesture_sum.y     = 0;
  65              		.loc 1 1041 0
  66 002e A0F84230 		strh	r3, [r0, #66]	@ movhi
1042:..\..\..\arduinoLCD\test\Pain Drain\libraries\lvgl\src\core/lv_indev.c ****         indev->proc.reset_query                     = 0;
  67              		.loc 1 1042 0
  68 0032 02F0FE02 		and	r2, r2, #254
  69 0036 63F34102 		bfi	r2, r3, #1, #1
  70 003a 4271     		strb	r2, [r0, #5]
1043:..\..\..\arduinoLCD\test\Pain Drain\libraries\lvgl\src\core/lv_indev.c ****         indev_obj_act                               = NULL;
  71              		.loc 1 1043 0
  72 003c 014A     		ldr	r2, .L3
  73 003e 1360     		str	r3, [r2]
  74              	.L1:
  75 0040 7047     		bx	lr
  76              	.L4:
  77 0042 00BF     		.align	2
  78              	.L3:
  79 0044 00000000 		.word	.LANCHOR0
  80              		.cfi_endproc
  81              	.LFE190:
  82              		.size	indev_proc_reset_query_handler, .-indev_proc_reset_query_handler
  83              		.section	.text.indev_reset_check,"ax",%progbits
  84              		.align	2
  85              		.thumb
  86              		.thumb_func
  87              		.type	indev_reset_check, %function
  88              	indev_reset_check:
  89              	.LFB193:
1044:..\..\..\arduinoLCD\test\Pain Drain\libraries\lvgl\src\core/lv_indev.c ****     }
1045:..\..\..\arduinoLCD\test\Pain Drain\libraries\lvgl\src\core/lv_indev.c **** }
1046:..\..\..\arduinoLCD\test\Pain Drain\libraries\lvgl\src\core/lv_indev.c **** 
1047:..\..\..\arduinoLCD\test\Pain Drain\libraries\lvgl\src\core/lv_indev.c **** /**
1048:..\..\..\arduinoLCD\test\Pain Drain\libraries\lvgl\src\core/lv_indev.c ****  * Handle focus/defocus on click for POINTER input devices
1049:..\..\..\arduinoLCD\test\Pain Drain\libraries\lvgl\src\core/lv_indev.c ****  * @param proc pointer to the state of the indev
1050:..\..\..\arduinoLCD\test\Pain Drain\libraries\lvgl\src\core/lv_indev.c ****  */
1051:..\..\..\arduinoLCD\test\Pain Drain\libraries\lvgl\src\core/lv_indev.c **** static void indev_click_focus(_lv_indev_proc_t * proc)
ARM GAS  C:\Users\haske\AppData\Local\Temp\ccOQHbDo.s 			page 21


1052:..\..\..\arduinoLCD\test\Pain Drain\libraries\lvgl\src\core/lv_indev.c **** {
1053:..\..\..\arduinoLCD\test\Pain Drain\libraries\lvgl\src\core/lv_indev.c ****     /*Handle click focus*/
1054:..\..\..\arduinoLCD\test\Pain Drain\libraries\lvgl\src\core/lv_indev.c ****     if(lv_obj_has_flag(indev_obj_act, LV_OBJ_FLAG_CLICK_FOCUSABLE) == false ||
1055:..\..\..\arduinoLCD\test\Pain Drain\libraries\lvgl\src\core/lv_indev.c ****        proc->types.pointer.last_pressed == indev_obj_act) {
1056:..\..\..\arduinoLCD\test\Pain Drain\libraries\lvgl\src\core/lv_indev.c ****         return;
1057:..\..\..\arduinoLCD\test\Pain Drain\libraries\lvgl\src\core/lv_indev.c ****     }
1058:..\..\..\arduinoLCD\test\Pain Drain\libraries\lvgl\src\core/lv_indev.c **** 
1059:..\..\..\arduinoLCD\test\Pain Drain\libraries\lvgl\src\core/lv_indev.c ****     lv_group_t * g_act = lv_obj_get_group(indev_obj_act);
1060:..\..\..\arduinoLCD\test\Pain Drain\libraries\lvgl\src\core/lv_indev.c ****     lv_group_t * g_prev = proc->types.pointer.last_pressed ? lv_obj_get_group(proc->types.pointer.l
1061:..\..\..\arduinoLCD\test\Pain Drain\libraries\lvgl\src\core/lv_indev.c **** 
1062:..\..\..\arduinoLCD\test\Pain Drain\libraries\lvgl\src\core/lv_indev.c ****     /*If both the last and act. obj. are in the same group (or have no group)*/
1063:..\..\..\arduinoLCD\test\Pain Drain\libraries\lvgl\src\core/lv_indev.c ****     if(g_act == g_prev) {
1064:..\..\..\arduinoLCD\test\Pain Drain\libraries\lvgl\src\core/lv_indev.c ****         /*The objects are in a group*/
1065:..\..\..\arduinoLCD\test\Pain Drain\libraries\lvgl\src\core/lv_indev.c ****         if(g_act) {
1066:..\..\..\arduinoLCD\test\Pain Drain\libraries\lvgl\src\core/lv_indev.c ****             lv_group_focus_obj(indev_obj_act);
1067:..\..\..\arduinoLCD\test\Pain Drain\libraries\lvgl\src\core/lv_indev.c ****             if(indev_reset_check(proc)) return;
1068:..\..\..\arduinoLCD\test\Pain Drain\libraries\lvgl\src\core/lv_indev.c ****         }
1069:..\..\..\arduinoLCD\test\Pain Drain\libraries\lvgl\src\core/lv_indev.c ****         /*The object are not in group*/
1070:..\..\..\arduinoLCD\test\Pain Drain\libraries\lvgl\src\core/lv_indev.c ****         else {
1071:..\..\..\arduinoLCD\test\Pain Drain\libraries\lvgl\src\core/lv_indev.c ****             if(proc->types.pointer.last_pressed) {
1072:..\..\..\arduinoLCD\test\Pain Drain\libraries\lvgl\src\core/lv_indev.c ****                 lv_event_send(proc->types.pointer.last_pressed, LV_EVENT_DEFOCUSED, indev_act);
1073:..\..\..\arduinoLCD\test\Pain Drain\libraries\lvgl\src\core/lv_indev.c ****                 if(indev_reset_check(proc)) return;
1074:..\..\..\arduinoLCD\test\Pain Drain\libraries\lvgl\src\core/lv_indev.c ****             }
1075:..\..\..\arduinoLCD\test\Pain Drain\libraries\lvgl\src\core/lv_indev.c **** 
1076:..\..\..\arduinoLCD\test\Pain Drain\libraries\lvgl\src\core/lv_indev.c ****             lv_event_send(indev_obj_act, LV_EVENT_FOCUSED, indev_act);
1077:..\..\..\arduinoLCD\test\Pain Drain\libraries\lvgl\src\core/lv_indev.c ****             if(indev_reset_check(proc)) return;
1078:..\..\..\arduinoLCD\test\Pain Drain\libraries\lvgl\src\core/lv_indev.c ****         }
1079:..\..\..\arduinoLCD\test\Pain Drain\libraries\lvgl\src\core/lv_indev.c ****     }
1080:..\..\..\arduinoLCD\test\Pain Drain\libraries\lvgl\src\core/lv_indev.c ****     /*The object are not in the same group (in different groups or one has no group)*/
1081:..\..\..\arduinoLCD\test\Pain Drain\libraries\lvgl\src\core/lv_indev.c ****     else {
1082:..\..\..\arduinoLCD\test\Pain Drain\libraries\lvgl\src\core/lv_indev.c ****         /*If the prev. obj. is not in a group then defocus it.*/
1083:..\..\..\arduinoLCD\test\Pain Drain\libraries\lvgl\src\core/lv_indev.c ****         if(g_prev == NULL && proc->types.pointer.last_pressed) {
1084:..\..\..\arduinoLCD\test\Pain Drain\libraries\lvgl\src\core/lv_indev.c ****             lv_event_send(proc->types.pointer.last_pressed, LV_EVENT_DEFOCUSED, indev_act);
1085:..\..\..\arduinoLCD\test\Pain Drain\libraries\lvgl\src\core/lv_indev.c ****             if(indev_reset_check(proc)) return;
1086:..\..\..\arduinoLCD\test\Pain Drain\libraries\lvgl\src\core/lv_indev.c ****         }
1087:..\..\..\arduinoLCD\test\Pain Drain\libraries\lvgl\src\core/lv_indev.c ****         /*Focus on a non-group object*/
1088:..\..\..\arduinoLCD\test\Pain Drain\libraries\lvgl\src\core/lv_indev.c ****         else {
1089:..\..\..\arduinoLCD\test\Pain Drain\libraries\lvgl\src\core/lv_indev.c ****             if(proc->types.pointer.last_pressed) {
1090:..\..\..\arduinoLCD\test\Pain Drain\libraries\lvgl\src\core/lv_indev.c ****                 /*If the prev. object also wasn't in a group defocus it*/
1091:..\..\..\arduinoLCD\test\Pain Drain\libraries\lvgl\src\core/lv_indev.c ****                 if(g_prev == NULL) {
1092:..\..\..\arduinoLCD\test\Pain Drain\libraries\lvgl\src\core/lv_indev.c ****                     lv_event_send(proc->types.pointer.last_pressed, LV_EVENT_DEFOCUSED, indev_act);
1093:..\..\..\arduinoLCD\test\Pain Drain\libraries\lvgl\src\core/lv_indev.c ****                     if(indev_reset_check(proc)) return;
1094:..\..\..\arduinoLCD\test\Pain Drain\libraries\lvgl\src\core/lv_indev.c ****                 }
1095:..\..\..\arduinoLCD\test\Pain Drain\libraries\lvgl\src\core/lv_indev.c ****                 /*If the prev. object also was in a group at least "LEAVE" it instead of defocus*/
1096:..\..\..\arduinoLCD\test\Pain Drain\libraries\lvgl\src\core/lv_indev.c ****                 else {
1097:..\..\..\arduinoLCD\test\Pain Drain\libraries\lvgl\src\core/lv_indev.c ****                     lv_event_send(proc->types.pointer.last_pressed, LV_EVENT_LEAVE, indev_act);
1098:..\..\..\arduinoLCD\test\Pain Drain\libraries\lvgl\src\core/lv_indev.c ****                     if(indev_reset_check(proc)) return;
1099:..\..\..\arduinoLCD\test\Pain Drain\libraries\lvgl\src\core/lv_indev.c ****                 }
1100:..\..\..\arduinoLCD\test\Pain Drain\libraries\lvgl\src\core/lv_indev.c ****             }
1101:..\..\..\arduinoLCD\test\Pain Drain\libraries\lvgl\src\core/lv_indev.c ****         }
1102:..\..\..\arduinoLCD\test\Pain Drain\libraries\lvgl\src\core/lv_indev.c **** 
1103:..\..\..\arduinoLCD\test\Pain Drain\libraries\lvgl\src\core/lv_indev.c ****         /*Focus to the act. in its group*/
1104:..\..\..\arduinoLCD\test\Pain Drain\libraries\lvgl\src\core/lv_indev.c ****         if(g_act) {
1105:..\..\..\arduinoLCD\test\Pain Drain\libraries\lvgl\src\core/lv_indev.c ****             lv_group_focus_obj(indev_obj_act);
1106:..\..\..\arduinoLCD\test\Pain Drain\libraries\lvgl\src\core/lv_indev.c ****             if(indev_reset_check(proc)) return;
1107:..\..\..\arduinoLCD\test\Pain Drain\libraries\lvgl\src\core/lv_indev.c ****         }
1108:..\..\..\arduinoLCD\test\Pain Drain\libraries\lvgl\src\core/lv_indev.c ****         else {
ARM GAS  C:\Users\haske\AppData\Local\Temp\ccOQHbDo.s 			page 22


1109:..\..\..\arduinoLCD\test\Pain Drain\libraries\lvgl\src\core/lv_indev.c ****             lv_event_send(indev_obj_act, LV_EVENT_FOCUSED, indev_act);
1110:..\..\..\arduinoLCD\test\Pain Drain\libraries\lvgl\src\core/lv_indev.c ****             if(indev_reset_check(proc)) return;
1111:..\..\..\arduinoLCD\test\Pain Drain\libraries\lvgl\src\core/lv_indev.c ****         }
1112:..\..\..\arduinoLCD\test\Pain Drain\libraries\lvgl\src\core/lv_indev.c ****     }
1113:..\..\..\arduinoLCD\test\Pain Drain\libraries\lvgl\src\core/lv_indev.c ****     proc->types.pointer.last_pressed = indev_obj_act;
1114:..\..\..\arduinoLCD\test\Pain Drain\libraries\lvgl\src\core/lv_indev.c **** }
1115:..\..\..\arduinoLCD\test\Pain Drain\libraries\lvgl\src\core/lv_indev.c **** 
1116:..\..\..\arduinoLCD\test\Pain Drain\libraries\lvgl\src\core/lv_indev.c **** /**
1117:..\..\..\arduinoLCD\test\Pain Drain\libraries\lvgl\src\core/lv_indev.c **** * Handle the gesture of indev_proc_p->types.pointer.act_obj
1118:..\..\..\arduinoLCD\test\Pain Drain\libraries\lvgl\src\core/lv_indev.c **** * @param indev pointer to an input device state
1119:..\..\..\arduinoLCD\test\Pain Drain\libraries\lvgl\src\core/lv_indev.c **** */
1120:..\..\..\arduinoLCD\test\Pain Drain\libraries\lvgl\src\core/lv_indev.c **** void indev_gesture(_lv_indev_proc_t * proc)
1121:..\..\..\arduinoLCD\test\Pain Drain\libraries\lvgl\src\core/lv_indev.c **** {
1122:..\..\..\arduinoLCD\test\Pain Drain\libraries\lvgl\src\core/lv_indev.c **** 
1123:..\..\..\arduinoLCD\test\Pain Drain\libraries\lvgl\src\core/lv_indev.c ****     if(proc->types.pointer.scroll_obj) return;
1124:..\..\..\arduinoLCD\test\Pain Drain\libraries\lvgl\src\core/lv_indev.c ****     if(proc->types.pointer.gesture_sent) return;
1125:..\..\..\arduinoLCD\test\Pain Drain\libraries\lvgl\src\core/lv_indev.c **** 
1126:..\..\..\arduinoLCD\test\Pain Drain\libraries\lvgl\src\core/lv_indev.c ****     lv_obj_t * gesture_obj = proc->types.pointer.act_obj;
1127:..\..\..\arduinoLCD\test\Pain Drain\libraries\lvgl\src\core/lv_indev.c **** 
1128:..\..\..\arduinoLCD\test\Pain Drain\libraries\lvgl\src\core/lv_indev.c ****     /*If gesture parent is active check recursively the gesture attribute*/
1129:..\..\..\arduinoLCD\test\Pain Drain\libraries\lvgl\src\core/lv_indev.c ****     while(gesture_obj && lv_obj_has_flag(gesture_obj, LV_OBJ_FLAG_GESTURE_BUBBLE)) {
1130:..\..\..\arduinoLCD\test\Pain Drain\libraries\lvgl\src\core/lv_indev.c ****         gesture_obj = lv_obj_get_parent(gesture_obj);
1131:..\..\..\arduinoLCD\test\Pain Drain\libraries\lvgl\src\core/lv_indev.c ****     }
1132:..\..\..\arduinoLCD\test\Pain Drain\libraries\lvgl\src\core/lv_indev.c **** 
1133:..\..\..\arduinoLCD\test\Pain Drain\libraries\lvgl\src\core/lv_indev.c ****     if(gesture_obj == NULL) return;
1134:..\..\..\arduinoLCD\test\Pain Drain\libraries\lvgl\src\core/lv_indev.c **** 
1135:..\..\..\arduinoLCD\test\Pain Drain\libraries\lvgl\src\core/lv_indev.c ****     if((LV_ABS(proc->types.pointer.vect.x) < indev_act->driver->gesture_min_velocity) &&
1136:..\..\..\arduinoLCD\test\Pain Drain\libraries\lvgl\src\core/lv_indev.c ****        (LV_ABS(proc->types.pointer.vect.y) < indev_act->driver->gesture_min_velocity)) {
1137:..\..\..\arduinoLCD\test\Pain Drain\libraries\lvgl\src\core/lv_indev.c ****         proc->types.pointer.gesture_sum.x = 0;
1138:..\..\..\arduinoLCD\test\Pain Drain\libraries\lvgl\src\core/lv_indev.c ****         proc->types.pointer.gesture_sum.y = 0;
1139:..\..\..\arduinoLCD\test\Pain Drain\libraries\lvgl\src\core/lv_indev.c ****     }
1140:..\..\..\arduinoLCD\test\Pain Drain\libraries\lvgl\src\core/lv_indev.c **** 
1141:..\..\..\arduinoLCD\test\Pain Drain\libraries\lvgl\src\core/lv_indev.c ****     /*Count the movement by gesture*/
1142:..\..\..\arduinoLCD\test\Pain Drain\libraries\lvgl\src\core/lv_indev.c ****     proc->types.pointer.gesture_sum.x += proc->types.pointer.vect.x;
1143:..\..\..\arduinoLCD\test\Pain Drain\libraries\lvgl\src\core/lv_indev.c ****     proc->types.pointer.gesture_sum.y += proc->types.pointer.vect.y;
1144:..\..\..\arduinoLCD\test\Pain Drain\libraries\lvgl\src\core/lv_indev.c **** 
1145:..\..\..\arduinoLCD\test\Pain Drain\libraries\lvgl\src\core/lv_indev.c ****     if((LV_ABS(proc->types.pointer.gesture_sum.x) > indev_act->driver->gesture_limit) ||
1146:..\..\..\arduinoLCD\test\Pain Drain\libraries\lvgl\src\core/lv_indev.c ****        (LV_ABS(proc->types.pointer.gesture_sum.y) > indev_act->driver->gesture_limit)) {
1147:..\..\..\arduinoLCD\test\Pain Drain\libraries\lvgl\src\core/lv_indev.c **** 
1148:..\..\..\arduinoLCD\test\Pain Drain\libraries\lvgl\src\core/lv_indev.c ****         proc->types.pointer.gesture_sent = 1;
1149:..\..\..\arduinoLCD\test\Pain Drain\libraries\lvgl\src\core/lv_indev.c **** 
1150:..\..\..\arduinoLCD\test\Pain Drain\libraries\lvgl\src\core/lv_indev.c ****         if(LV_ABS(proc->types.pointer.gesture_sum.x) > LV_ABS(proc->types.pointer.gesture_sum.y)) {
1151:..\..\..\arduinoLCD\test\Pain Drain\libraries\lvgl\src\core/lv_indev.c ****             if(proc->types.pointer.gesture_sum.x > 0)
1152:..\..\..\arduinoLCD\test\Pain Drain\libraries\lvgl\src\core/lv_indev.c ****                 proc->types.pointer.gesture_dir = LV_DIR_RIGHT;
1153:..\..\..\arduinoLCD\test\Pain Drain\libraries\lvgl\src\core/lv_indev.c ****             else
1154:..\..\..\arduinoLCD\test\Pain Drain\libraries\lvgl\src\core/lv_indev.c ****                 proc->types.pointer.gesture_dir = LV_DIR_LEFT;
1155:..\..\..\arduinoLCD\test\Pain Drain\libraries\lvgl\src\core/lv_indev.c ****         }
1156:..\..\..\arduinoLCD\test\Pain Drain\libraries\lvgl\src\core/lv_indev.c ****         else {
1157:..\..\..\arduinoLCD\test\Pain Drain\libraries\lvgl\src\core/lv_indev.c ****             if(proc->types.pointer.gesture_sum.y > 0)
1158:..\..\..\arduinoLCD\test\Pain Drain\libraries\lvgl\src\core/lv_indev.c ****                 proc->types.pointer.gesture_dir = LV_DIR_BOTTOM;
1159:..\..\..\arduinoLCD\test\Pain Drain\libraries\lvgl\src\core/lv_indev.c ****             else
1160:..\..\..\arduinoLCD\test\Pain Drain\libraries\lvgl\src\core/lv_indev.c ****                 proc->types.pointer.gesture_dir = LV_DIR_TOP;
1161:..\..\..\arduinoLCD\test\Pain Drain\libraries\lvgl\src\core/lv_indev.c ****         }
1162:..\..\..\arduinoLCD\test\Pain Drain\libraries\lvgl\src\core/lv_indev.c **** 
1163:..\..\..\arduinoLCD\test\Pain Drain\libraries\lvgl\src\core/lv_indev.c ****         lv_event_send(gesture_obj, LV_EVENT_GESTURE, indev_act);
1164:..\..\..\arduinoLCD\test\Pain Drain\libraries\lvgl\src\core/lv_indev.c ****         if(indev_reset_check(proc)) return;
1165:..\..\..\arduinoLCD\test\Pain Drain\libraries\lvgl\src\core/lv_indev.c ****     }
ARM GAS  C:\Users\haske\AppData\Local\Temp\ccOQHbDo.s 			page 23


1166:..\..\..\arduinoLCD\test\Pain Drain\libraries\lvgl\src\core/lv_indev.c **** }
1167:..\..\..\arduinoLCD\test\Pain Drain\libraries\lvgl\src\core/lv_indev.c **** 
1168:..\..\..\arduinoLCD\test\Pain Drain\libraries\lvgl\src\core/lv_indev.c **** /**
1169:..\..\..\arduinoLCD\test\Pain Drain\libraries\lvgl\src\core/lv_indev.c ****  * Checks if the reset_query flag has been set. If so, perform necessary global indev cleanup actio
1170:..\..\..\arduinoLCD\test\Pain Drain\libraries\lvgl\src\core/lv_indev.c ****  * @param proc pointer to an input device 'proc'
1171:..\..\..\arduinoLCD\test\Pain Drain\libraries\lvgl\src\core/lv_indev.c ****  * @return true if indev query should be immediately truncated.
1172:..\..\..\arduinoLCD\test\Pain Drain\libraries\lvgl\src\core/lv_indev.c ****  */
1173:..\..\..\arduinoLCD\test\Pain Drain\libraries\lvgl\src\core/lv_indev.c **** static bool indev_reset_check(_lv_indev_proc_t * proc)
1174:..\..\..\arduinoLCD\test\Pain Drain\libraries\lvgl\src\core/lv_indev.c **** {
  90              		.loc 1 1174 0
  91              		.cfi_startproc
  92              		@ args = 0, pretend = 0, frame = 0
  93              		@ frame_needed = 0, uses_anonymous_args = 0
  94              		@ link register save eliminated.
  95              	.LVL1:
1175:..\..\..\arduinoLCD\test\Pain Drain\libraries\lvgl\src\core/lv_indev.c ****     if(proc->reset_query) {
  96              		.loc 1 1175 0
  97 0000 4378     		ldrb	r3, [r0, #1]	@ zero_extendqisi2
  98 0002 03F00203 		and	r3, r3, #2
  99 0006 03F0FF00 		and	r0, r3, #255
 100              	.LVL2:
 101 000a 13B1     		cbz	r3, .L6
1176:..\..\..\arduinoLCD\test\Pain Drain\libraries\lvgl\src\core/lv_indev.c ****         indev_obj_act = NULL;
 102              		.loc 1 1176 0
 103 000c 0022     		movs	r2, #0
 104 000e 034B     		ldr	r3, .L7
 105 0010 1A60     		str	r2, [r3]
 106              	.L6:
1177:..\..\..\arduinoLCD\test\Pain Drain\libraries\lvgl\src\core/lv_indev.c ****     }
1178:..\..\..\arduinoLCD\test\Pain Drain\libraries\lvgl\src\core/lv_indev.c **** 
1179:..\..\..\arduinoLCD\test\Pain Drain\libraries\lvgl\src\core/lv_indev.c ****     return proc->reset_query ? true : false;
1180:..\..\..\arduinoLCD\test\Pain Drain\libraries\lvgl\src\core/lv_indev.c **** }
 107              		.loc 1 1180 0
 108 0012 0030     		adds	r0, r0, #0
 109 0014 18BF     		it	ne
 110 0016 0120     		movne	r0, #1
 111 0018 7047     		bx	lr
 112              	.L8:
 113 001a 00BF     		.align	2
 114              	.L7:
 115 001c 00000000 		.word	.LANCHOR0
 116              		.cfi_endproc
 117              	.LFE193:
 118              		.size	indev_reset_check, .-indev_reset_check
 119              		.section	.text.indev_click_focus,"ax",%progbits
 120              		.align	2
 121              		.thumb
 122              		.thumb_func
 123              		.type	indev_click_focus, %function
 124              	indev_click_focus:
 125              	.LFB191:
1052:..\..\..\arduinoLCD\test\Pain Drain\libraries\lvgl\src\core/lv_indev.c ****     /*Handle click focus*/
 126              		.loc 1 1052 0
 127              		.cfi_startproc
 128              		@ args = 0, pretend = 0, frame = 0
 129              		@ frame_needed = 0, uses_anonymous_args = 0
 130              	.LVL3:
ARM GAS  C:\Users\haske\AppData\Local\Temp\ccOQHbDo.s 			page 24


 131 0000 38B5     		push	{r3, r4, r5, lr}
 132              		.cfi_def_cfa_offset 16
 133              		.cfi_offset 3, -16
 134              		.cfi_offset 4, -12
 135              		.cfi_offset 5, -8
 136              		.cfi_offset 14, -4
 137 0002 0446     		mov	r4, r0
1054:..\..\..\arduinoLCD\test\Pain Drain\libraries\lvgl\src\core/lv_indev.c ****        proc->types.pointer.last_pressed == indev_obj_act) {
 138              		.loc 1 1054 0
 139 0004 0421     		movs	r1, #4
 140 0006 3A4B     		ldr	r3, .L22
 141 0008 1868     		ldr	r0, [r3]
 142              	.LVL4:
 143 000a FFF7FEFF 		bl	lv_obj_has_flag
 144              	.LVL5:
 145 000e 0028     		cmp	r0, #0
 146 0010 6DD0     		beq	.L9
1055:..\..\..\arduinoLCD\test\Pain Drain\libraries\lvgl\src\core/lv_indev.c ****         return;
 147              		.loc 1 1055 0 discriminator 1
 148 0012 236B     		ldr	r3, [r4, #48]
 149 0014 364A     		ldr	r2, .L22
 150 0016 1068     		ldr	r0, [r2]
1054:..\..\..\arduinoLCD\test\Pain Drain\libraries\lvgl\src\core/lv_indev.c ****        proc->types.pointer.last_pressed == indev_obj_act) {
 151              		.loc 1 1054 0 discriminator 1
 152 0018 8342     		cmp	r3, r0
 153 001a 68D0     		beq	.L9
1059:..\..\..\arduinoLCD\test\Pain Drain\libraries\lvgl\src\core/lv_indev.c ****     lv_group_t * g_prev = proc->types.pointer.last_pressed ? lv_obj_get_group(proc->types.pointer.l
 154              		.loc 1 1059 0
 155 001c FFF7FEFF 		bl	lv_obj_get_group
 156              	.LVL6:
 157 0020 0546     		mov	r5, r0
 158              	.LVL7:
1060:..\..\..\arduinoLCD\test\Pain Drain\libraries\lvgl\src\core/lv_indev.c **** 
 159              		.loc 1 1060 0
 160 0022 206B     		ldr	r0, [r4, #48]
 161              	.LVL8:
 162 0024 18B1     		cbz	r0, .L20
1060:..\..\..\arduinoLCD\test\Pain Drain\libraries\lvgl\src\core/lv_indev.c **** 
 163              		.loc 1 1060 0 is_stmt 0 discriminator 1
 164 0026 FFF7FEFF 		bl	lv_obj_get_group
 165              	.LVL9:
 166 002a 0346     		mov	r3, r0
 167 002c 00E0     		b	.L11
 168              	.L20:
1060:..\..\..\arduinoLCD\test\Pain Drain\libraries\lvgl\src\core/lv_indev.c **** 
 169              		.loc 1 1060 0
 170 002e 0023     		movs	r3, #0
 171              	.L11:
 172              	.LVL10:
1063:..\..\..\arduinoLCD\test\Pain Drain\libraries\lvgl\src\core/lv_indev.c ****         /*The objects are in a group*/
 173              		.loc 1 1063 0 is_stmt 1 discriminator 4
 174 0030 AB42     		cmp	r3, r5
 175 0032 22D1     		bne	.L12
1065:..\..\..\arduinoLCD\test\Pain Drain\libraries\lvgl\src\core/lv_indev.c ****             lv_group_focus_obj(indev_obj_act);
 176              		.loc 1 1065 0
 177 0034 4DB1     		cbz	r5, .L13
1066:..\..\..\arduinoLCD\test\Pain Drain\libraries\lvgl\src\core/lv_indev.c ****             if(indev_reset_check(proc)) return;
ARM GAS  C:\Users\haske\AppData\Local\Temp\ccOQHbDo.s 			page 25


 178              		.loc 1 1066 0
 179 0036 2E4B     		ldr	r3, .L22
 180              	.LVL11:
 181 0038 1868     		ldr	r0, [r3]
 182 003a FFF7FEFF 		bl	lv_group_focus_obj
 183              	.LVL12:
1067:..\..\..\arduinoLCD\test\Pain Drain\libraries\lvgl\src\core/lv_indev.c ****         }
 184              		.loc 1 1067 0
 185 003e 2046     		mov	r0, r4
 186 0040 FFF7FEFF 		bl	indev_reset_check
 187              	.LVL13:
 188 0044 0028     		cmp	r0, #0
 189 0046 4FD0     		beq	.L14
 190 0048 38BD     		pop	{r3, r4, r5, pc}
 191              	.LVL14:
 192              	.L13:
1071:..\..\..\arduinoLCD\test\Pain Drain\libraries\lvgl\src\core/lv_indev.c ****                 lv_event_send(proc->types.pointer.last_pressed, LV_EVENT_DEFOCUSED, indev_act);
 193              		.loc 1 1071 0
 194 004a 206B     		ldr	r0, [r4, #48]
 195 004c 48B1     		cbz	r0, .L15
1072:..\..\..\arduinoLCD\test\Pain Drain\libraries\lvgl\src\core/lv_indev.c ****                 if(indev_reset_check(proc)) return;
 196              		.loc 1 1072 0
 197 004e 284B     		ldr	r3, .L22
 198              	.LVL15:
 199 0050 5A68     		ldr	r2, [r3, #4]
 200 0052 0F21     		movs	r1, #15
 201 0054 FFF7FEFF 		bl	lv_event_send
 202              	.LVL16:
1073:..\..\..\arduinoLCD\test\Pain Drain\libraries\lvgl\src\core/lv_indev.c ****             }
 203              		.loc 1 1073 0
 204 0058 2046     		mov	r0, r4
 205 005a FFF7FEFF 		bl	indev_reset_check
 206              	.LVL17:
 207 005e 0028     		cmp	r0, #0
 208 0060 45D1     		bne	.L9
 209              	.L15:
1076:..\..\..\arduinoLCD\test\Pain Drain\libraries\lvgl\src\core/lv_indev.c ****             if(indev_reset_check(proc)) return;
 210              		.loc 1 1076 0
 211 0062 234B     		ldr	r3, .L22
 212 0064 5A68     		ldr	r2, [r3, #4]
 213 0066 0E21     		movs	r1, #14
 214 0068 1868     		ldr	r0, [r3]
 215 006a FFF7FEFF 		bl	lv_event_send
 216              	.LVL18:
1077:..\..\..\arduinoLCD\test\Pain Drain\libraries\lvgl\src\core/lv_indev.c ****         }
 217              		.loc 1 1077 0
 218 006e 2046     		mov	r0, r4
 219 0070 FFF7FEFF 		bl	indev_reset_check
 220              	.LVL19:
 221 0074 0028     		cmp	r0, #0
 222 0076 37D0     		beq	.L14
 223 0078 38BD     		pop	{r3, r4, r5, pc}
 224              	.LVL20:
 225              	.L12:
1083:..\..\..\arduinoLCD\test\Pain Drain\libraries\lvgl\src\core/lv_indev.c ****             lv_event_send(proc->types.pointer.last_pressed, LV_EVENT_DEFOCUSED, indev_act);
 226              		.loc 1 1083 0
 227 007a 5BB9     		cbnz	r3, .L16
ARM GAS  C:\Users\haske\AppData\Local\Temp\ccOQHbDo.s 			page 26


1083:..\..\..\arduinoLCD\test\Pain Drain\libraries\lvgl\src\core/lv_indev.c ****             lv_event_send(proc->types.pointer.last_pressed, LV_EVENT_DEFOCUSED, indev_act);
 228              		.loc 1 1083 0 is_stmt 0 discriminator 1
 229 007c 206B     		ldr	r0, [r4, #48]
 230 007e 48B1     		cbz	r0, .L16
1084:..\..\..\arduinoLCD\test\Pain Drain\libraries\lvgl\src\core/lv_indev.c ****             if(indev_reset_check(proc)) return;
 231              		.loc 1 1084 0 is_stmt 1
 232 0080 1B4B     		ldr	r3, .L22
 233              	.LVL21:
 234 0082 5A68     		ldr	r2, [r3, #4]
 235 0084 0F21     		movs	r1, #15
 236 0086 FFF7FEFF 		bl	lv_event_send
 237              	.LVL22:
1085:..\..\..\arduinoLCD\test\Pain Drain\libraries\lvgl\src\core/lv_indev.c ****         }
 238              		.loc 1 1085 0
 239 008a 2046     		mov	r0, r4
 240 008c FFF7FEFF 		bl	indev_reset_check
 241              	.LVL23:
 242 0090 B0B1     		cbz	r0, .L17
 243 0092 38BD     		pop	{r3, r4, r5, pc}
 244              	.LVL24:
 245              	.L16:
1089:..\..\..\arduinoLCD\test\Pain Drain\libraries\lvgl\src\core/lv_indev.c ****                 /*If the prev. object also wasn't in a group defocus it*/
 246              		.loc 1 1089 0
 247 0094 206B     		ldr	r0, [r4, #48]
 248 0096 98B1     		cbz	r0, .L17
1091:..\..\..\arduinoLCD\test\Pain Drain\libraries\lvgl\src\core/lv_indev.c ****                     lv_event_send(proc->types.pointer.last_pressed, LV_EVENT_DEFOCUSED, indev_act);
 249              		.loc 1 1091 0
 250 0098 4BB9     		cbnz	r3, .L18
1092:..\..\..\arduinoLCD\test\Pain Drain\libraries\lvgl\src\core/lv_indev.c ****                     if(indev_reset_check(proc)) return;
 251              		.loc 1 1092 0
 252 009a 154B     		ldr	r3, .L22
 253              	.LVL25:
 254 009c 5A68     		ldr	r2, [r3, #4]
 255 009e 0F21     		movs	r1, #15
 256 00a0 FFF7FEFF 		bl	lv_event_send
 257              	.LVL26:
1093:..\..\..\arduinoLCD\test\Pain Drain\libraries\lvgl\src\core/lv_indev.c ****                 }
 258              		.loc 1 1093 0
 259 00a4 2046     		mov	r0, r4
 260 00a6 FFF7FEFF 		bl	indev_reset_check
 261              	.LVL27:
 262 00aa 48B1     		cbz	r0, .L17
 263 00ac 38BD     		pop	{r3, r4, r5, pc}
 264              	.LVL28:
 265              	.L18:
1097:..\..\..\arduinoLCD\test\Pain Drain\libraries\lvgl\src\core/lv_indev.c ****                     if(indev_reset_check(proc)) return;
 266              		.loc 1 1097 0
 267 00ae 104B     		ldr	r3, .L22
 268              	.LVL29:
 269 00b0 5A68     		ldr	r2, [r3, #4]
 270 00b2 1021     		movs	r1, #16
 271 00b4 FFF7FEFF 		bl	lv_event_send
 272              	.LVL30:
1098:..\..\..\arduinoLCD\test\Pain Drain\libraries\lvgl\src\core/lv_indev.c ****                 }
 273              		.loc 1 1098 0
 274 00b8 2046     		mov	r0, r4
 275 00ba FFF7FEFF 		bl	indev_reset_check
ARM GAS  C:\Users\haske\AppData\Local\Temp\ccOQHbDo.s 			page 27


 276              	.LVL31:
 277 00be B0B9     		cbnz	r0, .L9
 278              	.L17:
1104:..\..\..\arduinoLCD\test\Pain Drain\libraries\lvgl\src\core/lv_indev.c ****             lv_group_focus_obj(indev_obj_act);
 279              		.loc 1 1104 0
 280 00c0 45B1     		cbz	r5, .L19
1105:..\..\..\arduinoLCD\test\Pain Drain\libraries\lvgl\src\core/lv_indev.c ****             if(indev_reset_check(proc)) return;
 281              		.loc 1 1105 0
 282 00c2 0B4B     		ldr	r3, .L22
 283 00c4 1868     		ldr	r0, [r3]
 284 00c6 FFF7FEFF 		bl	lv_group_focus_obj
 285              	.LVL32:
1106:..\..\..\arduinoLCD\test\Pain Drain\libraries\lvgl\src\core/lv_indev.c ****         }
 286              		.loc 1 1106 0
 287 00ca 2046     		mov	r0, r4
 288 00cc FFF7FEFF 		bl	indev_reset_check
 289              	.LVL33:
 290 00d0 50B1     		cbz	r0, .L14
 291 00d2 38BD     		pop	{r3, r4, r5, pc}
 292              	.LVL34:
 293              	.L19:
1109:..\..\..\arduinoLCD\test\Pain Drain\libraries\lvgl\src\core/lv_indev.c ****             if(indev_reset_check(proc)) return;
 294              		.loc 1 1109 0
 295 00d4 064B     		ldr	r3, .L22
 296 00d6 5A68     		ldr	r2, [r3, #4]
 297 00d8 0E21     		movs	r1, #14
 298 00da 1868     		ldr	r0, [r3]
 299 00dc FFF7FEFF 		bl	lv_event_send
 300              	.LVL35:
1110:..\..\..\arduinoLCD\test\Pain Drain\libraries\lvgl\src\core/lv_indev.c ****         }
 301              		.loc 1 1110 0
 302 00e0 2046     		mov	r0, r4
 303 00e2 FFF7FEFF 		bl	indev_reset_check
 304              	.LVL36:
 305 00e6 10B9     		cbnz	r0, .L9
 306              	.L14:
1113:..\..\..\arduinoLCD\test\Pain Drain\libraries\lvgl\src\core/lv_indev.c **** }
 307              		.loc 1 1113 0
 308 00e8 014B     		ldr	r3, .L22
 309 00ea 1B68     		ldr	r3, [r3]
 310 00ec 2363     		str	r3, [r4, #48]
 311              	.LVL37:
 312              	.L9:
 313 00ee 38BD     		pop	{r3, r4, r5, pc}
 314              	.LVL38:
 315              	.L23:
 316              		.align	2
 317              	.L22:
 318 00f0 00000000 		.word	.LANCHOR0
 319              		.cfi_endproc
 320              	.LFE191:
 321              		.size	indev_click_focus, .-indev_click_focus
 322              		.section	.text.indev_gesture,"ax",%progbits
 323              		.align	2
 324              		.thumb
 325              		.thumb_func
 326              		.type	indev_gesture, %function
ARM GAS  C:\Users\haske\AppData\Local\Temp\ccOQHbDo.s 			page 28


 327              	indev_gesture:
 328              	.LFB192:
1121:..\..\..\arduinoLCD\test\Pain Drain\libraries\lvgl\src\core/lv_indev.c **** 
 329              		.loc 1 1121 0
 330              		.cfi_startproc
 331              		@ args = 0, pretend = 0, frame = 0
 332              		@ frame_needed = 0, uses_anonymous_args = 0
 333              	.LVL39:
 334 0000 F8B5     		push	{r3, r4, r5, r6, r7, lr}
 335              		.cfi_def_cfa_offset 24
 336              		.cfi_offset 3, -24
 337              		.cfi_offset 4, -20
 338              		.cfi_offset 5, -16
 339              		.cfi_offset 6, -12
 340              		.cfi_offset 7, -8
 341              		.cfi_offset 14, -4
1123:..\..\..\arduinoLCD\test\Pain Drain\libraries\lvgl\src\core/lv_indev.c ****     if(proc->types.pointer.gesture_sent) return;
 342              		.loc 1 1123 0
 343 0002 C36A     		ldr	r3, [r0, #44]
 344 0004 002B     		cmp	r3, #0
 345 0006 79D1     		bne	.L24
1124:..\..\..\arduinoLCD\test\Pain Drain\libraries\lvgl\src\core/lv_indev.c **** 
 346              		.loc 1 1124 0
 347 0008 90F84130 		ldrb	r3, [r0, #65]	@ zero_extendqisi2
 348 000c 13F0010F 		tst	r3, #1
 349 0010 74D1     		bne	.L24
 350 0012 0546     		mov	r5, r0
1126:..\..\..\arduinoLCD\test\Pain Drain\libraries\lvgl\src\core/lv_indev.c **** 
 351              		.loc 1 1126 0
 352 0014 446A     		ldr	r4, [r0, #36]
 353              	.LVL40:
1129:..\..\..\arduinoLCD\test\Pain Drain\libraries\lvgl\src\core/lv_indev.c ****         gesture_obj = lv_obj_get_parent(gesture_obj);
 354              		.loc 1 1129 0
 355 0016 03E0     		b	.L26
 356              	.LVL41:
 357              	.L28:
1130:..\..\..\arduinoLCD\test\Pain Drain\libraries\lvgl\src\core/lv_indev.c ****     }
 358              		.loc 1 1130 0
 359 0018 2046     		mov	r0, r4
 360 001a FFF7FEFF 		bl	lv_obj_get_parent
 361              	.LVL42:
 362 001e 0446     		mov	r4, r0
 363              	.LVL43:
 364              	.L26:
1129:..\..\..\arduinoLCD\test\Pain Drain\libraries\lvgl\src\core/lv_indev.c ****         gesture_obj = lv_obj_get_parent(gesture_obj);
 365              		.loc 1 1129 0
 366 0020 34B1     		cbz	r4, .L27
1129:..\..\..\arduinoLCD\test\Pain Drain\libraries\lvgl\src\core/lv_indev.c ****         gesture_obj = lv_obj_get_parent(gesture_obj);
 367              		.loc 1 1129 0 is_stmt 0 discriminator 1
 368 0022 4FF40041 		mov	r1, #32768
 369 0026 2046     		mov	r0, r4
 370 0028 FFF7FEFF 		bl	lv_obj_has_flag
 371              	.LVL44:
 372 002c 0028     		cmp	r0, #0
 373 002e F3D1     		bne	.L28
 374              	.L27:
1133:..\..\..\arduinoLCD\test\Pain Drain\libraries\lvgl\src\core/lv_indev.c **** 
ARM GAS  C:\Users\haske\AppData\Local\Temp\ccOQHbDo.s 			page 29


 375              		.loc 1 1133 0 is_stmt 1
 376 0030 002C     		cmp	r4, #0
 377 0032 63D0     		beq	.L24
1135:..\..\..\arduinoLCD\test\Pain Drain\libraries\lvgl\src\core/lv_indev.c ****        (LV_ABS(proc->types.pointer.vect.y) < indev_act->driver->gesture_min_velocity)) {
 378              		.loc 1 1135 0
 379 0034 B5F91410 		ldrsh	r1, [r5, #20]
 380 0038 81EAE170 		eor	r0, r1, r1, asr #31
 381 003c A0EBE170 		sub	r0, r0, r1, asr #31
 382 0040 2F4B     		ldr	r3, .L36
 383 0042 5A68     		ldr	r2, [r3, #4]
 384 0044 1368     		ldr	r3, [r2]
 385 0046 9B7E     		ldrb	r3, [r3, #26]	@ zero_extendqisi2
 386 0048 9842     		cmp	r0, r3
 387 004a 09DA     		bge	.L29
1136:..\..\..\arduinoLCD\test\Pain Drain\libraries\lvgl\src\core/lv_indev.c ****         proc->types.pointer.gesture_sum.x = 0;
 388              		.loc 1 1136 0 discriminator 1
 389 004c B5F91600 		ldrsh	r0, [r5, #22]
 390 0050 0028     		cmp	r0, #0
 391 0052 B8BF     		it	lt
 392 0054 4042     		rsblt	r0, r0, #0
1135:..\..\..\arduinoLCD\test\Pain Drain\libraries\lvgl\src\core/lv_indev.c ****        (LV_ABS(proc->types.pointer.vect.y) < indev_act->driver->gesture_min_velocity)) {
 393              		.loc 1 1135 0 discriminator 1
 394 0056 8342     		cmp	r3, r0
 395 0058 02DD     		ble	.L29
1137:..\..\..\arduinoLCD\test\Pain Drain\libraries\lvgl\src\core/lv_indev.c ****         proc->types.pointer.gesture_sum.y = 0;
 396              		.loc 1 1137 0
 397 005a 0023     		movs	r3, #0
 398 005c AB87     		strh	r3, [r5, #60]	@ movhi
1138:..\..\..\arduinoLCD\test\Pain Drain\libraries\lvgl\src\core/lv_indev.c ****     }
 399              		.loc 1 1138 0
 400 005e EB87     		strh	r3, [r5, #62]	@ movhi
 401              	.L29:
1142:..\..\..\arduinoLCD\test\Pain Drain\libraries\lvgl\src\core/lv_indev.c ****     proc->types.pointer.gesture_sum.y += proc->types.pointer.vect.y;
 402              		.loc 1 1142 0
 403 0060 AB8F     		ldrh	r3, [r5, #60]
 404 0062 1944     		add	r1, r1, r3
 405 0064 09B2     		sxth	r1, r1
 406 0066 A987     		strh	r1, [r5, #60]	@ movhi
1143:..\..\..\arduinoLCD\test\Pain Drain\libraries\lvgl\src\core/lv_indev.c **** 
 407              		.loc 1 1143 0
 408 0068 B5F91600 		ldrsh	r0, [r5, #22]
 409 006c EB8F     		ldrh	r3, [r5, #62]
 410 006e 0344     		add	r3, r3, r0
 411 0070 1BB2     		sxth	r3, r3
 412 0072 EB87     		strh	r3, [r5, #62]	@ movhi
1145:..\..\..\arduinoLCD\test\Pain Drain\libraries\lvgl\src\core/lv_indev.c ****        (LV_ABS(proc->types.pointer.gesture_sum.y) > indev_act->driver->gesture_limit)) {
 413              		.loc 1 1145 0
 414 0074 81EAE176 		eor	r6, r1, r1, asr #31
 415 0078 A6EBE176 		sub	r6, r6, r1, asr #31
 416 007c 1068     		ldr	r0, [r2]
 417 007e C07E     		ldrb	r0, [r0, #27]	@ zero_extendqisi2
 418 0080 8642     		cmp	r6, r0
 419 0082 05DC     		bgt	.L30
1146:..\..\..\arduinoLCD\test\Pain Drain\libraries\lvgl\src\core/lv_indev.c **** 
 420              		.loc 1 1146 0 discriminator 1
 421 0084 83EAE377 		eor	r7, r3, r3, asr #31
 422 0088 A7EBE377 		sub	r7, r7, r3, asr #31
ARM GAS  C:\Users\haske\AppData\Local\Temp\ccOQHbDo.s 			page 30


1145:..\..\..\arduinoLCD\test\Pain Drain\libraries\lvgl\src\core/lv_indev.c ****        (LV_ABS(proc->types.pointer.gesture_sum.y) > indev_act->driver->gesture_limit)) {
 423              		.loc 1 1145 0 discriminator 1
 424 008c B842     		cmp	r0, r7
 425 008e 35DA     		bge	.L24
 426              	.L30:
1148:..\..\..\arduinoLCD\test\Pain Drain\libraries\lvgl\src\core/lv_indev.c **** 
 427              		.loc 1 1148 0
 428 0090 95F84100 		ldrb	r0, [r5, #65]	@ zero_extendqisi2
 429 0094 40F00100 		orr	r0, r0, #1
 430 0098 85F84100 		strb	r0, [r5, #65]
1150:..\..\..\arduinoLCD\test\Pain Drain\libraries\lvgl\src\core/lv_indev.c ****             if(proc->types.pointer.gesture_sum.x > 0)
 431              		.loc 1 1150 0
 432 009c 83EAE370 		eor	r0, r3, r3, asr #31
 433 00a0 A0EBE370 		sub	r0, r0, r3, asr #31
 434 00a4 8642     		cmp	r6, r0
 435 00a6 11DD     		ble	.L31
1151:..\..\..\arduinoLCD\test\Pain Drain\libraries\lvgl\src\core/lv_indev.c ****                 proc->types.pointer.gesture_dir = LV_DIR_RIGHT;
 436              		.loc 1 1151 0
 437 00a8 0029     		cmp	r1, #0
 438 00aa 07DD     		ble	.L32
1152:..\..\..\arduinoLCD\test\Pain Drain\libraries\lvgl\src\core/lv_indev.c ****             else
 439              		.loc 1 1152 0
 440 00ac 95F84030 		ldrb	r3, [r5, #64]	@ zero_extendqisi2
 441 00b0 0221     		movs	r1, #2
 442 00b2 61F30713 		bfi	r3, r1, #4, #4
 443 00b6 85F84030 		strb	r3, [r5, #64]
 444 00ba 18E0     		b	.L33
 445              	.L32:
1154:..\..\..\arduinoLCD\test\Pain Drain\libraries\lvgl\src\core/lv_indev.c ****         }
 446              		.loc 1 1154 0
 447 00bc 95F84030 		ldrb	r3, [r5, #64]	@ zero_extendqisi2
 448 00c0 0121     		movs	r1, #1
 449 00c2 61F30713 		bfi	r3, r1, #4, #4
 450 00c6 85F84030 		strb	r3, [r5, #64]
 451 00ca 10E0     		b	.L33
 452              	.L31:
1157:..\..\..\arduinoLCD\test\Pain Drain\libraries\lvgl\src\core/lv_indev.c ****                 proc->types.pointer.gesture_dir = LV_DIR_BOTTOM;
 453              		.loc 1 1157 0
 454 00cc 002B     		cmp	r3, #0
 455 00ce 07DD     		ble	.L34
1158:..\..\..\arduinoLCD\test\Pain Drain\libraries\lvgl\src\core/lv_indev.c ****             else
 456              		.loc 1 1158 0
 457 00d0 95F84030 		ldrb	r3, [r5, #64]	@ zero_extendqisi2
 458 00d4 0821     		movs	r1, #8
 459 00d6 61F30713 		bfi	r3, r1, #4, #4
 460 00da 85F84030 		strb	r3, [r5, #64]
 461 00de 06E0     		b	.L33
 462              	.L34:
1160:..\..\..\arduinoLCD\test\Pain Drain\libraries\lvgl\src\core/lv_indev.c ****         }
 463              		.loc 1 1160 0
 464 00e0 95F84030 		ldrb	r3, [r5, #64]	@ zero_extendqisi2
 465 00e4 0421     		movs	r1, #4
 466 00e6 61F30713 		bfi	r3, r1, #4, #4
 467 00ea 85F84030 		strb	r3, [r5, #64]
 468              	.L33:
1163:..\..\..\arduinoLCD\test\Pain Drain\libraries\lvgl\src\core/lv_indev.c ****         if(indev_reset_check(proc)) return;
 469              		.loc 1 1163 0
ARM GAS  C:\Users\haske\AppData\Local\Temp\ccOQHbDo.s 			page 31


 470 00ee 0C21     		movs	r1, #12
 471 00f0 2046     		mov	r0, r4
 472 00f2 FFF7FEFF 		bl	lv_event_send
 473              	.LVL45:
1164:..\..\..\arduinoLCD\test\Pain Drain\libraries\lvgl\src\core/lv_indev.c ****     }
 474              		.loc 1 1164 0
 475 00f6 2846     		mov	r0, r5
 476 00f8 FFF7FEFF 		bl	indev_reset_check
 477              	.LVL46:
 478              	.L24:
 479 00fc F8BD     		pop	{r3, r4, r5, r6, r7, pc}
 480              	.L37:
 481 00fe 00BF     		.align	2
 482              	.L36:
 483 0100 00000000 		.word	.LANCHOR0
 484              		.cfi_endproc
 485              	.LFE192:
 486              		.size	indev_gesture, .-indev_gesture
 487              		.section	.text.indev_proc_release,"ax",%progbits
 488              		.align	2
 489              		.thumb
 490              		.thumb_func
 491              		.type	indev_proc_release, %function
 492              	indev_proc_release:
 493              	.LFB189:
 951:..\..\..\arduinoLCD\test\Pain Drain\libraries\lvgl\src\core/lv_indev.c ****     if(proc->wait_until_release != 0) {
 494              		.loc 1 951 0
 495              		.cfi_startproc
 496              		@ args = 0, pretend = 0, frame = 8
 497              		@ frame_needed = 0, uses_anonymous_args = 0
 498              	.LVL47:
 499 0000 2DE9F041 		push	{r4, r5, r6, r7, r8, lr}
 500              		.cfi_def_cfa_offset 24
 501              		.cfi_offset 4, -24
 502              		.cfi_offset 5, -20
 503              		.cfi_offset 6, -16
 504              		.cfi_offset 7, -12
 505              		.cfi_offset 8, -8
 506              		.cfi_offset 14, -4
 507 0004 82B0     		sub	sp, sp, #8
 508              		.cfi_def_cfa_offset 32
 509 0006 0646     		mov	r6, r0
 952:..\..\..\arduinoLCD\test\Pain Drain\libraries\lvgl\src\core/lv_indev.c ****         lv_event_send(proc->types.pointer.act_obj, LV_EVENT_PRESS_LOST, indev_act);
 510              		.loc 1 952 0
 511 0008 4378     		ldrb	r3, [r0, #1]	@ zero_extendqisi2
 512 000a 13F0080F 		tst	r3, #8
 513 000e 13D0     		beq	.L39
 953:..\..\..\arduinoLCD\test\Pain Drain\libraries\lvgl\src\core/lv_indev.c ****         if(indev_reset_check(proc)) return;
 514              		.loc 1 953 0
 515 0010 454B     		ldr	r3, .L50
 516 0012 5A68     		ldr	r2, [r3, #4]
 517 0014 0321     		movs	r1, #3
 518 0016 406A     		ldr	r0, [r0, #36]
 519              	.LVL48:
 520 0018 FFF7FEFF 		bl	lv_event_send
 521              	.LVL49:
 954:..\..\..\arduinoLCD\test\Pain Drain\libraries\lvgl\src\core/lv_indev.c **** 
ARM GAS  C:\Users\haske\AppData\Local\Temp\ccOQHbDo.s 			page 32


 522              		.loc 1 954 0
 523 001c 3046     		mov	r0, r6
 524 001e FFF7FEFF 		bl	indev_reset_check
 525              	.LVL50:
 526 0022 0028     		cmp	r0, #0
 527 0024 7DD1     		bne	.L38
 956:..\..\..\arduinoLCD\test\Pain Drain\libraries\lvgl\src\core/lv_indev.c ****         proc->types.pointer.last_obj = NULL;
 528              		.loc 1 956 0
 529 0026 0023     		movs	r3, #0
 530 0028 7362     		str	r3, [r6, #36]
 957:..\..\..\arduinoLCD\test\Pain Drain\libraries\lvgl\src\core/lv_indev.c ****         proc->pr_timestamp           = 0;
 531              		.loc 1 957 0
 532 002a B362     		str	r3, [r6, #40]
 958:..\..\..\arduinoLCD\test\Pain Drain\libraries\lvgl\src\core/lv_indev.c ****         proc->longpr_rep_timestamp   = 0;
 533              		.loc 1 958 0
 534 002c 7364     		str	r3, [r6, #68]
 959:..\..\..\arduinoLCD\test\Pain Drain\libraries\lvgl\src\core/lv_indev.c ****         proc->wait_until_release     = 0;
 535              		.loc 1 959 0
 536 002e B364     		str	r3, [r6, #72]
 960:..\..\..\arduinoLCD\test\Pain Drain\libraries\lvgl\src\core/lv_indev.c ****     }
 537              		.loc 1 960 0
 538 0030 7278     		ldrb	r2, [r6, #1]	@ zero_extendqisi2
 539 0032 63F3C302 		bfi	r2, r3, #3, #1
 540 0036 7270     		strb	r2, [r6, #1]
 541              	.L39:
 962:..\..\..\arduinoLCD\test\Pain Drain\libraries\lvgl\src\core/lv_indev.c ****     lv_obj_t * scroll_obj = proc->types.pointer.scroll_obj;
 542              		.loc 1 962 0
 543 0038 706A     		ldr	r0, [r6, #36]
 544 003a 3B4B     		ldr	r3, .L50
 545 003c 1860     		str	r0, [r3]
 963:..\..\..\arduinoLCD\test\Pain Drain\libraries\lvgl\src\core/lv_indev.c **** 
 546              		.loc 1 963 0
 547 003e F76A     		ldr	r7, [r6, #44]
 548              	.LVL51:
 966:..\..\..\arduinoLCD\test\Pain Drain\libraries\lvgl\src\core/lv_indev.c ****         LV_LOG_INFO("released");
 549              		.loc 1 966 0
 550 0040 0028     		cmp	r0, #0
 551 0042 67D0     		beq	.L41
 970:..\..\..\arduinoLCD\test\Pain Drain\libraries\lvgl\src\core/lv_indev.c ****         if(indev_reset_check(proc)) return;
 552              		.loc 1 970 0
 553 0044 5A68     		ldr	r2, [r3, #4]
 554 0046 0821     		movs	r1, #8
 555 0048 FFF7FEFF 		bl	lv_event_send
 556              	.LVL52:
 971:..\..\..\arduinoLCD\test\Pain Drain\libraries\lvgl\src\core/lv_indev.c **** 
 557              		.loc 1 971 0
 558 004c 3046     		mov	r0, r6
 559 004e FFF7FEFF 		bl	indev_reset_check
 560              	.LVL53:
 561 0052 0028     		cmp	r0, #0
 562 0054 65D1     		bne	.L38
 974:..\..\..\arduinoLCD\test\Pain Drain\libraries\lvgl\src\core/lv_indev.c ****             if(proc->long_pr_sent == 0) {
 563              		.loc 1 974 0
 564 0056 CFB9     		cbnz	r7, .L42
 975:..\..\..\arduinoLCD\test\Pain Drain\libraries\lvgl\src\core/lv_indev.c ****                 lv_event_send(indev_obj_act, LV_EVENT_SHORT_CLICKED, indev_act);
 565              		.loc 1 975 0
 566 0058 7378     		ldrb	r3, [r6, #1]	@ zero_extendqisi2
ARM GAS  C:\Users\haske\AppData\Local\Temp\ccOQHbDo.s 			page 33


 567 005a 13F0010F 		tst	r3, #1
 568 005e 0AD1     		bne	.L43
 976:..\..\..\arduinoLCD\test\Pain Drain\libraries\lvgl\src\core/lv_indev.c ****                 if(indev_reset_check(proc)) return;
 569              		.loc 1 976 0
 570 0060 314B     		ldr	r3, .L50
 571 0062 5A68     		ldr	r2, [r3, #4]
 572 0064 0421     		movs	r1, #4
 573 0066 1868     		ldr	r0, [r3]
 574 0068 FFF7FEFF 		bl	lv_event_send
 575              	.LVL54:
 977:..\..\..\arduinoLCD\test\Pain Drain\libraries\lvgl\src\core/lv_indev.c ****             }
 576              		.loc 1 977 0
 577 006c 3046     		mov	r0, r6
 578 006e FFF7FEFF 		bl	indev_reset_check
 579              	.LVL55:
 580 0072 0028     		cmp	r0, #0
 581 0074 55D1     		bne	.L38
 582              	.L43:
 980:..\..\..\arduinoLCD\test\Pain Drain\libraries\lvgl\src\core/lv_indev.c ****             if(indev_reset_check(proc)) return;
 583              		.loc 1 980 0
 584 0076 2C4B     		ldr	r3, .L50
 585 0078 5A68     		ldr	r2, [r3, #4]
 586 007a 0721     		movs	r1, #7
 587 007c 1868     		ldr	r0, [r3]
 588 007e FFF7FEFF 		bl	lv_event_send
 589              	.LVL56:
 981:..\..\..\arduinoLCD\test\Pain Drain\libraries\lvgl\src\core/lv_indev.c ****         }
 590              		.loc 1 981 0
 591 0082 3046     		mov	r0, r6
 592 0084 FFF7FEFF 		bl	indev_reset_check
 593              	.LVL57:
 594 0088 0028     		cmp	r0, #0
 595 008a 4AD1     		bne	.L38
 596              	.L42:
 984:..\..\..\arduinoLCD\test\Pain Drain\libraries\lvgl\src\core/lv_indev.c ****         proc->pr_timestamp          = 0;
 597              		.loc 1 984 0
 598 008c 0023     		movs	r3, #0
 599 008e 7362     		str	r3, [r6, #36]
 985:..\..\..\arduinoLCD\test\Pain Drain\libraries\lvgl\src\core/lv_indev.c ****         proc->longpr_rep_timestamp  = 0;
 600              		.loc 1 985 0
 601 0090 7364     		str	r3, [r6, #68]
 986:..\..\..\arduinoLCD\test\Pain Drain\libraries\lvgl\src\core/lv_indev.c **** 
 602              		.loc 1 986 0
 603 0092 B364     		str	r3, [r6, #72]
 990:..\..\..\arduinoLCD\test\Pain Drain\libraries\lvgl\src\core/lv_indev.c ****             int16_t angle = 0;
 604              		.loc 1 990 0
 605 0094 002F     		cmp	r7, #0
 606 0096 3DD0     		beq	.L41
 607              	.LVL58:
 608              	.LBB7:
 993:..\..\..\arduinoLCD\test\Pain Drain\libraries\lvgl\src\core/lv_indev.c ****             lv_obj_t * parent = scroll_obj;
 609              		.loc 1 993 0
 610 0098 1D46     		mov	r5, r3
 611 009a ADF80430 		strh	r3, [sp, #4]	@ movhi
 612 009e ADF80630 		strh	r3, [sp, #6]	@ movhi
 613              	.LVL59:
 994:..\..\..\arduinoLCD\test\Pain Drain\libraries\lvgl\src\core/lv_indev.c ****             while(parent) {
ARM GAS  C:\Users\haske\AppData\Local\Temp\ccOQHbDo.s 			page 34


 614              		.loc 1 994 0
 615 00a2 3C46     		mov	r4, r7
 992:..\..\..\arduinoLCD\test\Pain Drain\libraries\lvgl\src\core/lv_indev.c ****             lv_point_t pivot = { 0, 0 };
 616              		.loc 1 992 0
 617 00a4 4FF48078 		mov	r8, #256
 995:..\..\..\arduinoLCD\test\Pain Drain\libraries\lvgl\src\core/lv_indev.c ****                 angle += lv_obj_get_style_transform_angle(parent, 0);
 618              		.loc 1 995 0
 619 00a8 18E0     		b	.L44
 620              	.LVL60:
 621              	.L46:
 622              	.LBB8:
 623              	.LBB9:
 624              		.file 2 "..\\..\\..\\arduinoLCD\\test\\Pain Drain\\libraries\\lvgl\\src\\core\\lv_obj_style_gen.h"
   1:..\..\..\arduinoLCD\test\Pain Drain\libraries\lvgl\src\core/lv_obj_style_gen.h **** static inline lv_coord_t lv_obj_get_style_width(const struct _lv_obj_t * obj, uint32_t part)
   2:..\..\..\arduinoLCD\test\Pain Drain\libraries\lvgl\src\core/lv_obj_style_gen.h **** {
   3:..\..\..\arduinoLCD\test\Pain Drain\libraries\lvgl\src\core/lv_obj_style_gen.h ****     lv_style_value_t v = lv_obj_get_style_prop(obj, part, LV_STYLE_WIDTH);
   4:..\..\..\arduinoLCD\test\Pain Drain\libraries\lvgl\src\core/lv_obj_style_gen.h ****     return (lv_coord_t)v.num;
   5:..\..\..\arduinoLCD\test\Pain Drain\libraries\lvgl\src\core/lv_obj_style_gen.h **** }
   6:..\..\..\arduinoLCD\test\Pain Drain\libraries\lvgl\src\core/lv_obj_style_gen.h **** 
   7:..\..\..\arduinoLCD\test\Pain Drain\libraries\lvgl\src\core/lv_obj_style_gen.h **** static inline lv_coord_t lv_obj_get_style_min_width(const struct _lv_obj_t * obj, uint32_t part)
   8:..\..\..\arduinoLCD\test\Pain Drain\libraries\lvgl\src\core/lv_obj_style_gen.h **** {
   9:..\..\..\arduinoLCD\test\Pain Drain\libraries\lvgl\src\core/lv_obj_style_gen.h ****     lv_style_value_t v = lv_obj_get_style_prop(obj, part, LV_STYLE_MIN_WIDTH);
  10:..\..\..\arduinoLCD\test\Pain Drain\libraries\lvgl\src\core/lv_obj_style_gen.h ****     return (lv_coord_t)v.num;
  11:..\..\..\arduinoLCD\test\Pain Drain\libraries\lvgl\src\core/lv_obj_style_gen.h **** }
  12:..\..\..\arduinoLCD\test\Pain Drain\libraries\lvgl\src\core/lv_obj_style_gen.h **** 
  13:..\..\..\arduinoLCD\test\Pain Drain\libraries\lvgl\src\core/lv_obj_style_gen.h **** static inline lv_coord_t lv_obj_get_style_max_width(const struct _lv_obj_t * obj, uint32_t part)
  14:..\..\..\arduinoLCD\test\Pain Drain\libraries\lvgl\src\core/lv_obj_style_gen.h **** {
  15:..\..\..\arduinoLCD\test\Pain Drain\libraries\lvgl\src\core/lv_obj_style_gen.h ****     lv_style_value_t v = lv_obj_get_style_prop(obj, part, LV_STYLE_MAX_WIDTH);
  16:..\..\..\arduinoLCD\test\Pain Drain\libraries\lvgl\src\core/lv_obj_style_gen.h ****     return (lv_coord_t)v.num;
  17:..\..\..\arduinoLCD\test\Pain Drain\libraries\lvgl\src\core/lv_obj_style_gen.h **** }
  18:..\..\..\arduinoLCD\test\Pain Drain\libraries\lvgl\src\core/lv_obj_style_gen.h **** 
  19:..\..\..\arduinoLCD\test\Pain Drain\libraries\lvgl\src\core/lv_obj_style_gen.h **** static inline lv_coord_t lv_obj_get_style_height(const struct _lv_obj_t * obj, uint32_t part)
  20:..\..\..\arduinoLCD\test\Pain Drain\libraries\lvgl\src\core/lv_obj_style_gen.h **** {
  21:..\..\..\arduinoLCD\test\Pain Drain\libraries\lvgl\src\core/lv_obj_style_gen.h ****     lv_style_value_t v = lv_obj_get_style_prop(obj, part, LV_STYLE_HEIGHT);
  22:..\..\..\arduinoLCD\test\Pain Drain\libraries\lvgl\src\core/lv_obj_style_gen.h ****     return (lv_coord_t)v.num;
  23:..\..\..\arduinoLCD\test\Pain Drain\libraries\lvgl\src\core/lv_obj_style_gen.h **** }
  24:..\..\..\arduinoLCD\test\Pain Drain\libraries\lvgl\src\core/lv_obj_style_gen.h **** 
  25:..\..\..\arduinoLCD\test\Pain Drain\libraries\lvgl\src\core/lv_obj_style_gen.h **** static inline lv_coord_t lv_obj_get_style_min_height(const struct _lv_obj_t * obj, uint32_t part)
  26:..\..\..\arduinoLCD\test\Pain Drain\libraries\lvgl\src\core/lv_obj_style_gen.h **** {
  27:..\..\..\arduinoLCD\test\Pain Drain\libraries\lvgl\src\core/lv_obj_style_gen.h ****     lv_style_value_t v = lv_obj_get_style_prop(obj, part, LV_STYLE_MIN_HEIGHT);
  28:..\..\..\arduinoLCD\test\Pain Drain\libraries\lvgl\src\core/lv_obj_style_gen.h ****     return (lv_coord_t)v.num;
  29:..\..\..\arduinoLCD\test\Pain Drain\libraries\lvgl\src\core/lv_obj_style_gen.h **** }
  30:..\..\..\arduinoLCD\test\Pain Drain\libraries\lvgl\src\core/lv_obj_style_gen.h **** 
  31:..\..\..\arduinoLCD\test\Pain Drain\libraries\lvgl\src\core/lv_obj_style_gen.h **** static inline lv_coord_t lv_obj_get_style_max_height(const struct _lv_obj_t * obj, uint32_t part)
  32:..\..\..\arduinoLCD\test\Pain Drain\libraries\lvgl\src\core/lv_obj_style_gen.h **** {
  33:..\..\..\arduinoLCD\test\Pain Drain\libraries\lvgl\src\core/lv_obj_style_gen.h ****     lv_style_value_t v = lv_obj_get_style_prop(obj, part, LV_STYLE_MAX_HEIGHT);
  34:..\..\..\arduinoLCD\test\Pain Drain\libraries\lvgl\src\core/lv_obj_style_gen.h ****     return (lv_coord_t)v.num;
  35:..\..\..\arduinoLCD\test\Pain Drain\libraries\lvgl\src\core/lv_obj_style_gen.h **** }
  36:..\..\..\arduinoLCD\test\Pain Drain\libraries\lvgl\src\core/lv_obj_style_gen.h **** 
  37:..\..\..\arduinoLCD\test\Pain Drain\libraries\lvgl\src\core/lv_obj_style_gen.h **** static inline lv_coord_t lv_obj_get_style_x(const struct _lv_obj_t * obj, uint32_t part)
  38:..\..\..\arduinoLCD\test\Pain Drain\libraries\lvgl\src\core/lv_obj_style_gen.h **** {
  39:..\..\..\arduinoLCD\test\Pain Drain\libraries\lvgl\src\core/lv_obj_style_gen.h ****     lv_style_value_t v = lv_obj_get_style_prop(obj, part, LV_STYLE_X);
  40:..\..\..\arduinoLCD\test\Pain Drain\libraries\lvgl\src\core/lv_obj_style_gen.h ****     return (lv_coord_t)v.num;
  41:..\..\..\arduinoLCD\test\Pain Drain\libraries\lvgl\src\core/lv_obj_style_gen.h **** }
  42:..\..\..\arduinoLCD\test\Pain Drain\libraries\lvgl\src\core/lv_obj_style_gen.h **** 
  43:..\..\..\arduinoLCD\test\Pain Drain\libraries\lvgl\src\core/lv_obj_style_gen.h **** static inline lv_coord_t lv_obj_get_style_y(const struct _lv_obj_t * obj, uint32_t part)
  44:..\..\..\arduinoLCD\test\Pain Drain\libraries\lvgl\src\core/lv_obj_style_gen.h **** {
ARM GAS  C:\Users\haske\AppData\Local\Temp\ccOQHbDo.s 			page 35


  45:..\..\..\arduinoLCD\test\Pain Drain\libraries\lvgl\src\core/lv_obj_style_gen.h ****     lv_style_value_t v = lv_obj_get_style_prop(obj, part, LV_STYLE_Y);
  46:..\..\..\arduinoLCD\test\Pain Drain\libraries\lvgl\src\core/lv_obj_style_gen.h ****     return (lv_coord_t)v.num;
  47:..\..\..\arduinoLCD\test\Pain Drain\libraries\lvgl\src\core/lv_obj_style_gen.h **** }
  48:..\..\..\arduinoLCD\test\Pain Drain\libraries\lvgl\src\core/lv_obj_style_gen.h **** 
  49:..\..\..\arduinoLCD\test\Pain Drain\libraries\lvgl\src\core/lv_obj_style_gen.h **** static inline lv_align_t lv_obj_get_style_align(const struct _lv_obj_t * obj, uint32_t part)
  50:..\..\..\arduinoLCD\test\Pain Drain\libraries\lvgl\src\core/lv_obj_style_gen.h **** {
  51:..\..\..\arduinoLCD\test\Pain Drain\libraries\lvgl\src\core/lv_obj_style_gen.h ****     lv_style_value_t v = lv_obj_get_style_prop(obj, part, LV_STYLE_ALIGN);
  52:..\..\..\arduinoLCD\test\Pain Drain\libraries\lvgl\src\core/lv_obj_style_gen.h ****     return (lv_align_t)v.num;
  53:..\..\..\arduinoLCD\test\Pain Drain\libraries\lvgl\src\core/lv_obj_style_gen.h **** }
  54:..\..\..\arduinoLCD\test\Pain Drain\libraries\lvgl\src\core/lv_obj_style_gen.h **** 
  55:..\..\..\arduinoLCD\test\Pain Drain\libraries\lvgl\src\core/lv_obj_style_gen.h **** static inline lv_coord_t lv_obj_get_style_transform_width(const struct _lv_obj_t * obj, uint32_t pa
  56:..\..\..\arduinoLCD\test\Pain Drain\libraries\lvgl\src\core/lv_obj_style_gen.h **** {
  57:..\..\..\arduinoLCD\test\Pain Drain\libraries\lvgl\src\core/lv_obj_style_gen.h ****     lv_style_value_t v = lv_obj_get_style_prop(obj, part, LV_STYLE_TRANSFORM_WIDTH);
  58:..\..\..\arduinoLCD\test\Pain Drain\libraries\lvgl\src\core/lv_obj_style_gen.h ****     return (lv_coord_t)v.num;
  59:..\..\..\arduinoLCD\test\Pain Drain\libraries\lvgl\src\core/lv_obj_style_gen.h **** }
  60:..\..\..\arduinoLCD\test\Pain Drain\libraries\lvgl\src\core/lv_obj_style_gen.h **** 
  61:..\..\..\arduinoLCD\test\Pain Drain\libraries\lvgl\src\core/lv_obj_style_gen.h **** static inline lv_coord_t lv_obj_get_style_transform_height(const struct _lv_obj_t * obj, uint32_t p
  62:..\..\..\arduinoLCD\test\Pain Drain\libraries\lvgl\src\core/lv_obj_style_gen.h **** {
  63:..\..\..\arduinoLCD\test\Pain Drain\libraries\lvgl\src\core/lv_obj_style_gen.h ****     lv_style_value_t v = lv_obj_get_style_prop(obj, part, LV_STYLE_TRANSFORM_HEIGHT);
  64:..\..\..\arduinoLCD\test\Pain Drain\libraries\lvgl\src\core/lv_obj_style_gen.h ****     return (lv_coord_t)v.num;
  65:..\..\..\arduinoLCD\test\Pain Drain\libraries\lvgl\src\core/lv_obj_style_gen.h **** }
  66:..\..\..\arduinoLCD\test\Pain Drain\libraries\lvgl\src\core/lv_obj_style_gen.h **** 
  67:..\..\..\arduinoLCD\test\Pain Drain\libraries\lvgl\src\core/lv_obj_style_gen.h **** static inline lv_coord_t lv_obj_get_style_translate_x(const struct _lv_obj_t * obj, uint32_t part)
  68:..\..\..\arduinoLCD\test\Pain Drain\libraries\lvgl\src\core/lv_obj_style_gen.h **** {
  69:..\..\..\arduinoLCD\test\Pain Drain\libraries\lvgl\src\core/lv_obj_style_gen.h ****     lv_style_value_t v = lv_obj_get_style_prop(obj, part, LV_STYLE_TRANSLATE_X);
  70:..\..\..\arduinoLCD\test\Pain Drain\libraries\lvgl\src\core/lv_obj_style_gen.h ****     return (lv_coord_t)v.num;
  71:..\..\..\arduinoLCD\test\Pain Drain\libraries\lvgl\src\core/lv_obj_style_gen.h **** }
  72:..\..\..\arduinoLCD\test\Pain Drain\libraries\lvgl\src\core/lv_obj_style_gen.h **** 
  73:..\..\..\arduinoLCD\test\Pain Drain\libraries\lvgl\src\core/lv_obj_style_gen.h **** static inline lv_coord_t lv_obj_get_style_translate_y(const struct _lv_obj_t * obj, uint32_t part)
  74:..\..\..\arduinoLCD\test\Pain Drain\libraries\lvgl\src\core/lv_obj_style_gen.h **** {
  75:..\..\..\arduinoLCD\test\Pain Drain\libraries\lvgl\src\core/lv_obj_style_gen.h ****     lv_style_value_t v = lv_obj_get_style_prop(obj, part, LV_STYLE_TRANSLATE_Y);
  76:..\..\..\arduinoLCD\test\Pain Drain\libraries\lvgl\src\core/lv_obj_style_gen.h ****     return (lv_coord_t)v.num;
  77:..\..\..\arduinoLCD\test\Pain Drain\libraries\lvgl\src\core/lv_obj_style_gen.h **** }
  78:..\..\..\arduinoLCD\test\Pain Drain\libraries\lvgl\src\core/lv_obj_style_gen.h **** 
  79:..\..\..\arduinoLCD\test\Pain Drain\libraries\lvgl\src\core/lv_obj_style_gen.h **** static inline lv_coord_t lv_obj_get_style_transform_zoom(const struct _lv_obj_t * obj, uint32_t par
  80:..\..\..\arduinoLCD\test\Pain Drain\libraries\lvgl\src\core/lv_obj_style_gen.h **** {
  81:..\..\..\arduinoLCD\test\Pain Drain\libraries\lvgl\src\core/lv_obj_style_gen.h ****     lv_style_value_t v = lv_obj_get_style_prop(obj, part, LV_STYLE_TRANSFORM_ZOOM);
  82:..\..\..\arduinoLCD\test\Pain Drain\libraries\lvgl\src\core/lv_obj_style_gen.h ****     return (lv_coord_t)v.num;
  83:..\..\..\arduinoLCD\test\Pain Drain\libraries\lvgl\src\core/lv_obj_style_gen.h **** }
  84:..\..\..\arduinoLCD\test\Pain Drain\libraries\lvgl\src\core/lv_obj_style_gen.h **** 
  85:..\..\..\arduinoLCD\test\Pain Drain\libraries\lvgl\src\core/lv_obj_style_gen.h **** static inline lv_coord_t lv_obj_get_style_transform_angle(const struct _lv_obj_t * obj, uint32_t pa
  86:..\..\..\arduinoLCD\test\Pain Drain\libraries\lvgl\src\core/lv_obj_style_gen.h **** {
  87:..\..\..\arduinoLCD\test\Pain Drain\libraries\lvgl\src\core/lv_obj_style_gen.h ****     lv_style_value_t v = lv_obj_get_style_prop(obj, part, LV_STYLE_TRANSFORM_ANGLE);
 625              		.loc 2 87 0
 626 00aa 6D22     		movs	r2, #109
 627 00ac 0021     		movs	r1, #0
 628 00ae 2046     		mov	r0, r4
 629 00b0 FFF7FEFF 		bl	lv_obj_get_style_prop
 630              	.LVL61:
 631              	.LBE9:
 632              	.LBE8:
 996:..\..\..\arduinoLCD\test\Pain Drain\libraries\lvgl\src\core/lv_indev.c ****                 zoom *= (lv_obj_get_style_transform_zoom(parent, 0) / 256);
 633              		.loc 1 996 0
 634 00b4 2844     		add	r0, r0, r5
 635 00b6 05B2     		sxth	r5, r0
 636              	.LVL62:
 637              	.LBB10:
ARM GAS  C:\Users\haske\AppData\Local\Temp\ccOQHbDo.s 			page 36


 638              	.LBB11:
  81:..\..\..\arduinoLCD\test\Pain Drain\libraries\lvgl\src\core/lv_obj_style_gen.h ****     return (lv_coord_t)v.num;
 639              		.loc 2 81 0
 640 00b8 6C22     		movs	r2, #108
 641 00ba 0021     		movs	r1, #0
 642 00bc 2046     		mov	r0, r4
 643 00be FFF7FEFF 		bl	lv_obj_get_style_prop
 644              	.LVL63:
  82:..\..\..\arduinoLCD\test\Pain Drain\libraries\lvgl\src\core/lv_obj_style_gen.h **** }
 645              		.loc 2 82 0
 646 00c2 00B2     		sxth	r0, r0
 647              	.LVL64:
 648              	.LBE11:
 649              	.LBE10:
 997:..\..\..\arduinoLCD\test\Pain Drain\libraries\lvgl\src\core/lv_indev.c ****                 parent = lv_obj_get_parent(parent);
 650              		.loc 1 997 0
 651 00c4 0028     		cmp	r0, #0
 652 00c6 00DA     		bge	.L45
 653 00c8 FF30     		adds	r0, r0, #255
 654              	.L45:
 655 00ca 0012     		asrs	r0, r0, #8
 656 00cc 10FB08F0 		smulbb	r0, r0, r8
 657 00d0 0FFA80F8 		sxth	r8, r0
 658              	.LVL65:
 998:..\..\..\arduinoLCD\test\Pain Drain\libraries\lvgl\src\core/lv_indev.c ****             }
 659              		.loc 1 998 0
 660 00d4 2046     		mov	r0, r4
 661 00d6 FFF7FEFF 		bl	lv_obj_get_parent
 662              	.LVL66:
 663 00da 0446     		mov	r4, r0
 664              	.LVL67:
 665              	.L44:
 995:..\..\..\arduinoLCD\test\Pain Drain\libraries\lvgl\src\core/lv_indev.c ****                 angle += lv_obj_get_style_transform_angle(parent, 0);
 666              		.loc 1 995 0
 667 00dc 002C     		cmp	r4, #0
 668 00de E4D1     		bne	.L46
1001:..\..\..\arduinoLCD\test\Pain Drain\libraries\lvgl\src\core/lv_indev.c ****                 angle = -angle;
 669              		.loc 1 1001 0
 670 00e0 15B9     		cbnz	r5, .L47
1001:..\..\..\arduinoLCD\test\Pain Drain\libraries\lvgl\src\core/lv_indev.c ****                 angle = -angle;
 671              		.loc 1 1001 0 is_stmt 0 discriminator 1
 672 00e2 B8F5807F 		cmp	r8, #256
 673 00e6 15D0     		beq	.L41
 674              	.L47:
1002:..\..\..\arduinoLCD\test\Pain Drain\libraries\lvgl\src\core/lv_indev.c ****                 zoom = (256 * 256) / zoom;
 675              		.loc 1 1002 0 is_stmt 1
 676 00e8 6D42     		negs	r5, r5
 677              	.LVL68:
 678 00ea 2DB2     		sxth	r5, r5
 679              	.LVL69:
1003:..\..\..\arduinoLCD\test\Pain Drain\libraries\lvgl\src\core/lv_indev.c ****                 lv_point_transform(&proc->types.pointer.scroll_throw_vect, angle, zoom, &pivot);
 680              		.loc 1 1003 0
 681 00ec 4FF48030 		mov	r0, #65536
 682 00f0 90FBF8F8 		sdiv	r8, r0, r8
 683              	.LVL70:
 684 00f4 0FFA88F8 		sxth	r8, r8
 685              	.LVL71:
ARM GAS  C:\Users\haske\AppData\Local\Temp\ccOQHbDo.s 			page 37


1004:..\..\..\arduinoLCD\test\Pain Drain\libraries\lvgl\src\core/lv_indev.c ****                 lv_point_transform(&proc->types.pointer.scroll_throw_vect_ori, angle, zoom, &pivot)
 686              		.loc 1 1004 0
 687 00f8 01AB     		add	r3, sp, #4
 688 00fa 4246     		mov	r2, r8
 689 00fc 2946     		mov	r1, r5
 690 00fe 06F11C00 		add	r0, r6, #28
 691 0102 FFF7FEFF 		bl	lv_point_transform
 692              	.LVL72:
1005:..\..\..\arduinoLCD\test\Pain Drain\libraries\lvgl\src\core/lv_indev.c ****             }
 693              		.loc 1 1005 0
 694 0106 01AB     		add	r3, sp, #4
 695 0108 4246     		mov	r2, r8
 696 010a 2946     		mov	r1, r5
 697 010c 06F12000 		add	r0, r6, #32
 698 0110 FFF7FEFF 		bl	lv_point_transform
 699              	.LVL73:
 700              	.L41:
 701              	.LBE7:
1013:..\..\..\arduinoLCD\test\Pain Drain\libraries\lvgl\src\core/lv_indev.c ****         _lv_indev_scroll_throw_handler(proc);
 702              		.loc 1 1013 0
 703 0114 2FB1     		cbz	r7, .L38
1014:..\..\..\arduinoLCD\test\Pain Drain\libraries\lvgl\src\core/lv_indev.c ****         if(indev_reset_check(proc)) return;
 704              		.loc 1 1014 0
 705 0116 3046     		mov	r0, r6
 706 0118 FFF7FEFF 		bl	_lv_indev_scroll_throw_handler
 707              	.LVL74:
1015:..\..\..\arduinoLCD\test\Pain Drain\libraries\lvgl\src\core/lv_indev.c ****     }
 708              		.loc 1 1015 0
 709 011c 3046     		mov	r0, r6
 710 011e FFF7FEFF 		bl	indev_reset_check
 711              	.LVL75:
 712              	.L38:
1017:..\..\..\arduinoLCD\test\Pain Drain\libraries\lvgl\src\core/lv_indev.c **** 
 713              		.loc 1 1017 0
 714 0122 02B0     		add	sp, sp, #8
 715              		.cfi_def_cfa_offset 24
 716              		@ sp needed
 717 0124 BDE8F081 		pop	{r4, r5, r6, r7, r8, pc}
 718              	.LVL76:
 719              	.L51:
 720              		.align	2
 721              	.L50:
 722 0128 00000000 		.word	.LANCHOR0
 723              		.cfi_endproc
 724              	.LFE189:
 725              		.size	indev_proc_release, .-indev_proc_release
 726              		.section	.text.indev_keypad_proc,"ax",%progbits
 727              		.align	2
 728              		.thumb
 729              		.thumb_func
 730              		.type	indev_keypad_proc, %function
 731              	indev_keypad_proc:
 732              	.LFB185:
 397:..\..\..\arduinoLCD\test\Pain Drain\libraries\lvgl\src\core/lv_indev.c ****     if(data->state == LV_INDEV_STATE_PRESSED && i->proc.wait_until_release) return;
 733              		.loc 1 397 0
 734              		.cfi_startproc
 735              		@ args = 0, pretend = 0, frame = 0
ARM GAS  C:\Users\haske\AppData\Local\Temp\ccOQHbDo.s 			page 38


 736              		@ frame_needed = 0, uses_anonymous_args = 0
 737              	.LVL77:
 738 0000 F8B5     		push	{r3, r4, r5, r6, r7, lr}
 739              		.cfi_def_cfa_offset 24
 740              		.cfi_offset 3, -24
 741              		.cfi_offset 4, -20
 742              		.cfi_offset 5, -16
 743              		.cfi_offset 6, -12
 744              		.cfi_offset 7, -8
 745              		.cfi_offset 14, -4
 398:..\..\..\arduinoLCD\test\Pain Drain\libraries\lvgl\src\core/lv_indev.c **** 
 746              		.loc 1 398 0
 747 0002 8B7B     		ldrb	r3, [r1, #14]	@ zero_extendqisi2
 748 0004 012B     		cmp	r3, #1
 749 0006 04D1     		bne	.L53
 398:..\..\..\arduinoLCD\test\Pain Drain\libraries\lvgl\src\core/lv_indev.c **** 
 750              		.loc 1 398 0 is_stmt 0 discriminator 1
 751 0008 4379     		ldrb	r3, [r0, #5]	@ zero_extendqisi2
 752 000a 13F0080F 		tst	r3, #8
 753 000e 40F03B81 		bne	.L52
 754              	.L53:
 400:..\..\..\arduinoLCD\test\Pain Drain\libraries\lvgl\src\core/lv_indev.c ****         i->proc.wait_until_release      = 0;
 755              		.loc 1 400 0 is_stmt 1
 756 0012 4379     		ldrb	r3, [r0, #5]	@ zero_extendqisi2
 757 0014 13F0080F 		tst	r3, #8
 758 0018 08D0     		beq	.L55
 401:..\..\..\arduinoLCD\test\Pain Drain\libraries\lvgl\src\core/lv_indev.c ****         i->proc.pr_timestamp            = 0;
 759              		.loc 1 401 0
 760 001a 4379     		ldrb	r3, [r0, #5]	@ zero_extendqisi2
 402:..\..\..\arduinoLCD\test\Pain Drain\libraries\lvgl\src\core/lv_indev.c ****         i->proc.long_pr_sent            = 0;
 761              		.loc 1 402 0
 762 001c 0022     		movs	r2, #0
 763 001e 8264     		str	r2, [r0, #72]
 403:..\..\..\arduinoLCD\test\Pain Drain\libraries\lvgl\src\core/lv_indev.c ****         i->proc.types.keypad.last_state = LV_INDEV_STATE_RELEASED; /*To skip the processing of rele
 764              		.loc 1 403 0
 765 0020 03F0F703 		and	r3, r3, #247
 766 0024 62F30003 		bfi	r3, r2, #0, #1
 767 0028 4371     		strb	r3, [r0, #5]
 404:..\..\..\arduinoLCD\test\Pain Drain\libraries\lvgl\src\core/lv_indev.c ****     }
 768              		.loc 1 404 0
 769 002a 0272     		strb	r2, [r0, #8]
 770              	.L55:
 407:..\..\..\arduinoLCD\test\Pain Drain\libraries\lvgl\src\core/lv_indev.c ****     if(g == NULL) return;
 771              		.loc 1 407 0
 772 002c 466D     		ldr	r6, [r0, #84]
 773              	.LVL78:
 408:..\..\..\arduinoLCD\test\Pain Drain\libraries\lvgl\src\core/lv_indev.c **** 
 774              		.loc 1 408 0
 775 002e 002E     		cmp	r6, #0
 776 0030 00F02A81 		beq	.L52
 777 0034 0D46     		mov	r5, r1
 778 0036 0446     		mov	r4, r0
 410:..\..\..\arduinoLCD\test\Pain Drain\libraries\lvgl\src\core/lv_indev.c ****     if(indev_obj_act == NULL) return;
 779              		.loc 1 410 0
 780 0038 3046     		mov	r0, r6
 781              	.LVL79:
 782 003a FFF7FEFF 		bl	lv_group_get_focused
ARM GAS  C:\Users\haske\AppData\Local\Temp\ccOQHbDo.s 			page 39


 783              	.LVL80:
 784 003e 934B     		ldr	r3, .L72
 785 0040 1860     		str	r0, [r3]
 411:..\..\..\arduinoLCD\test\Pain Drain\libraries\lvgl\src\core/lv_indev.c **** 
 786              		.loc 1 411 0
 787 0042 0028     		cmp	r0, #0
 788 0044 00F02081 		beq	.L52
 413:..\..\..\arduinoLCD\test\Pain Drain\libraries\lvgl\src\core/lv_indev.c **** 
 789              		.loc 1 413 0
 790 0048 8021     		movs	r1, #128
 791 004a FFF7FEFF 		bl	lv_obj_has_state
 792              	.LVL81:
 793 004e 0746     		mov	r7, r0
 794              	.LVL82:
 416:..\..\..\arduinoLCD\test\Pain Drain\libraries\lvgl\src\core/lv_indev.c **** 
 795              		.loc 1 416 0
 796 0050 E168     		ldr	r1, [r4, #12]
 797              	.LVL83:
 420:..\..\..\arduinoLCD\test\Pain Drain\libraries\lvgl\src\core/lv_indev.c **** 
 798              		.loc 1 420 0
 799 0052 6B68     		ldr	r3, [r5, #4]
 800 0054 E360     		str	r3, [r4, #12]
 425:..\..\..\arduinoLCD\test\Pain Drain\libraries\lvgl\src\core/lv_indev.c ****     i->proc.types.keypad.last_state = data->state;
 801              		.loc 1 425 0
 802 0056 227A     		ldrb	r2, [r4, #8]	@ zero_extendqisi2
 803              	.LVL84:
 426:..\..\..\arduinoLCD\test\Pain Drain\libraries\lvgl\src\core/lv_indev.c **** 
 804              		.loc 1 426 0
 805 0058 AB7B     		ldrb	r3, [r5, #14]	@ zero_extendqisi2
 806 005a 2372     		strb	r3, [r4, #8]
 429:..\..\..\arduinoLCD\test\Pain Drain\libraries\lvgl\src\core/lv_indev.c ****         LV_LOG_INFO("%" LV_PRIu32 " key is pressed", data->key);
 807              		.loc 1 429 0
 808 005c AB7B     		ldrb	r3, [r5, #14]	@ zero_extendqisi2
 809 005e 012B     		cmp	r3, #1
 810 0060 65D1     		bne	.L56
 429:..\..\..\arduinoLCD\test\Pain Drain\libraries\lvgl\src\core/lv_indev.c ****         LV_LOG_INFO("%" LV_PRIu32 " key is pressed", data->key);
 811              		.loc 1 429 0 is_stmt 0 discriminator 1
 812 0062 002A     		cmp	r2, #0
 813 0064 63D1     		bne	.L56
 431:..\..\..\arduinoLCD\test\Pain Drain\libraries\lvgl\src\core/lv_indev.c **** 
 814              		.loc 1 431 0 is_stmt 1
 815 0066 FFF7FEFF 		bl	lv_tick_get
 816              	.LVL85:
 817 006a A064     		str	r0, [r4, #72]
 434:..\..\..\arduinoLCD\test\Pain Drain\libraries\lvgl\src\core/lv_indev.c ****             lv_group_set_editing(g, false); /*Editing is not used by KEYPAD is be sure it is disabl
 818              		.loc 1 434 0
 819 006c 6968     		ldr	r1, [r5, #4]
 820 006e 0929     		cmp	r1, #9
 821 0070 0DD1     		bne	.L57
 435:..\..\..\arduinoLCD\test\Pain Drain\libraries\lvgl\src\core/lv_indev.c ****             lv_group_focus_next(g);
 822              		.loc 1 435 0
 823 0072 0021     		movs	r1, #0
 824 0074 3046     		mov	r0, r6
 825 0076 FFF7FEFF 		bl	lv_group_set_editing
 826              	.LVL86:
 436:..\..\..\arduinoLCD\test\Pain Drain\libraries\lvgl\src\core/lv_indev.c ****             if(indev_reset_check(&i->proc)) return;
 827              		.loc 1 436 0
ARM GAS  C:\Users\haske\AppData\Local\Temp\ccOQHbDo.s 			page 40


 828 007a 3046     		mov	r0, r6
 829 007c FFF7FEFF 		bl	lv_group_focus_next
 830              	.LVL87:
 437:..\..\..\arduinoLCD\test\Pain Drain\libraries\lvgl\src\core/lv_indev.c ****         }
 831              		.loc 1 437 0
 832 0080 201D     		adds	r0, r4, #4
 833 0082 FFF7FEFF 		bl	indev_reset_check
 834              	.LVL88:
 835 0086 0028     		cmp	r0, #0
 836 0088 00F0FB80 		beq	.L58
 837 008c F8BD     		pop	{r3, r4, r5, r6, r7, pc}
 838              	.LVL89:
 839              	.L57:
 440:..\..\..\arduinoLCD\test\Pain Drain\libraries\lvgl\src\core/lv_indev.c ****             lv_group_set_editing(g, false); /*Editing is not used by KEYPAD is be sure it is disabl
 840              		.loc 1 440 0
 841 008e 0B29     		cmp	r1, #11
 842 0090 0DD1     		bne	.L59
 441:..\..\..\arduinoLCD\test\Pain Drain\libraries\lvgl\src\core/lv_indev.c ****             lv_group_focus_prev(g);
 843              		.loc 1 441 0
 844 0092 0021     		movs	r1, #0
 845 0094 3046     		mov	r0, r6
 846 0096 FFF7FEFF 		bl	lv_group_set_editing
 847              	.LVL90:
 442:..\..\..\arduinoLCD\test\Pain Drain\libraries\lvgl\src\core/lv_indev.c ****             if(indev_reset_check(&i->proc)) return;
 848              		.loc 1 442 0
 849 009a 3046     		mov	r0, r6
 850 009c FFF7FEFF 		bl	lv_group_focus_prev
 851              	.LVL91:
 443:..\..\..\arduinoLCD\test\Pain Drain\libraries\lvgl\src\core/lv_indev.c ****         }
 852              		.loc 1 443 0
 853 00a0 201D     		adds	r0, r4, #4
 854 00a2 FFF7FEFF 		bl	indev_reset_check
 855              	.LVL92:
 856 00a6 0028     		cmp	r0, #0
 857 00a8 00F0EB80 		beq	.L58
 858 00ac F8BD     		pop	{r3, r4, r5, r6, r7, pc}
 859              	.LVL93:
 860              	.L59:
 445:..\..\..\arduinoLCD\test\Pain Drain\libraries\lvgl\src\core/lv_indev.c ****             /*Simulate a press on the object if ENTER was pressed*/
 861              		.loc 1 445 0
 862 00ae 002F     		cmp	r7, #0
 863 00b0 40F0E780 		bne	.L58
 447:..\..\..\arduinoLCD\test\Pain Drain\libraries\lvgl\src\core/lv_indev.c ****                 /*Send the ENTER as a normal KEY*/
 864              		.loc 1 447 0
 865 00b4 0A29     		cmp	r1, #10
 866 00b6 17D1     		bne	.L60
 449:..\..\..\arduinoLCD\test\Pain Drain\libraries\lvgl\src\core/lv_indev.c ****                 if(indev_reset_check(&i->proc)) return;
 867              		.loc 1 449 0
 868 00b8 3046     		mov	r0, r6
 869 00ba FFF7FEFF 		bl	lv_group_send_data
 870              	.LVL94:
 450:..\..\..\arduinoLCD\test\Pain Drain\libraries\lvgl\src\core/lv_indev.c **** 
 871              		.loc 1 450 0
 872 00be 0434     		adds	r4, r4, #4
 873              	.LVL95:
 874 00c0 2046     		mov	r0, r4
 875 00c2 FFF7FEFF 		bl	indev_reset_check
ARM GAS  C:\Users\haske\AppData\Local\Temp\ccOQHbDo.s 			page 41


 876              	.LVL96:
 877 00c6 0028     		cmp	r0, #0
 878 00c8 40F0DE80 		bne	.L52
 452:..\..\..\arduinoLCD\test\Pain Drain\libraries\lvgl\src\core/lv_indev.c ****                 if(indev_reset_check(&i->proc)) return;
 879              		.loc 1 452 0
 880 00cc 2FB9     		cbnz	r7, .L61
 452:..\..\..\arduinoLCD\test\Pain Drain\libraries\lvgl\src\core/lv_indev.c ****                 if(indev_reset_check(&i->proc)) return;
 881              		.loc 1 452 0 is_stmt 0 discriminator 1
 882 00ce 6F4B     		ldr	r3, .L72
 883 00d0 5A68     		ldr	r2, [r3, #4]
 884 00d2 0121     		movs	r1, #1
 885 00d4 1868     		ldr	r0, [r3]
 886 00d6 FFF7FEFF 		bl	lv_event_send
 887              	.LVL97:
 888              	.L61:
 453:..\..\..\arduinoLCD\test\Pain Drain\libraries\lvgl\src\core/lv_indev.c ****             }
 889              		.loc 1 453 0 is_stmt 1
 890 00da 2046     		mov	r0, r4
 891 00dc FFF7FEFF 		bl	indev_reset_check
 892              	.LVL98:
 893 00e0 0028     		cmp	r0, #0
 894 00e2 00F0CE80 		beq	.L58
 895 00e6 F8BD     		pop	{r3, r4, r5, r6, r7, pc}
 896              	.LVL99:
 897              	.L60:
 455:..\..\..\arduinoLCD\test\Pain Drain\libraries\lvgl\src\core/lv_indev.c ****                 /*Send the ESC as a normal KEY*/
 898              		.loc 1 455 0
 899 00e8 1B29     		cmp	r1, #27
 900 00ea 16D1     		bne	.L62
 457:..\..\..\arduinoLCD\test\Pain Drain\libraries\lvgl\src\core/lv_indev.c ****                 if(indev_reset_check(&i->proc)) return;
 901              		.loc 1 457 0
 902 00ec 3046     		mov	r0, r6
 903 00ee FFF7FEFF 		bl	lv_group_send_data
 904              	.LVL100:
 458:..\..\..\arduinoLCD\test\Pain Drain\libraries\lvgl\src\core/lv_indev.c **** 
 905              		.loc 1 458 0
 906 00f2 0434     		adds	r4, r4, #4
 907              	.LVL101:
 908 00f4 2046     		mov	r0, r4
 909 00f6 FFF7FEFF 		bl	indev_reset_check
 910              	.LVL102:
 911 00fa 0028     		cmp	r0, #0
 912 00fc 40F0C480 		bne	.L52
 460:..\..\..\arduinoLCD\test\Pain Drain\libraries\lvgl\src\core/lv_indev.c ****                 if(indev_reset_check(&i->proc)) return;
 913              		.loc 1 460 0
 914 0100 624B     		ldr	r3, .L72
 915 0102 5A68     		ldr	r2, [r3, #4]
 916 0104 2021     		movs	r1, #32
 917 0106 1868     		ldr	r0, [r3]
 918 0108 FFF7FEFF 		bl	lv_event_send
 919              	.LVL103:
 461:..\..\..\arduinoLCD\test\Pain Drain\libraries\lvgl\src\core/lv_indev.c ****             }
 920              		.loc 1 461 0
 921 010c 2046     		mov	r0, r4
 922 010e FFF7FEFF 		bl	indev_reset_check
 923              	.LVL104:
 924 0112 0028     		cmp	r0, #0
ARM GAS  C:\Users\haske\AppData\Local\Temp\ccOQHbDo.s 			page 42


 925 0114 00F0B580 		beq	.L58
 926 0118 F8BD     		pop	{r3, r4, r5, r6, r7, pc}
 927              	.LVL105:
 928              	.L62:
 465:..\..\..\arduinoLCD\test\Pain Drain\libraries\lvgl\src\core/lv_indev.c ****                 if(indev_reset_check(&i->proc)) return;
 929              		.loc 1 465 0
 930 011a 3046     		mov	r0, r6
 931 011c FFF7FEFF 		bl	lv_group_send_data
 932              	.LVL106:
 466:..\..\..\arduinoLCD\test\Pain Drain\libraries\lvgl\src\core/lv_indev.c ****             }
 933              		.loc 1 466 0
 934 0120 201D     		adds	r0, r4, #4
 935 0122 FFF7FEFF 		bl	indev_reset_check
 936              	.LVL107:
 937 0126 0028     		cmp	r0, #0
 938 0128 00F0AB80 		beq	.L58
 939 012c F8BD     		pop	{r3, r4, r5, r6, r7, pc}
 940              	.LVL108:
 941              	.L56:
 471:..\..\..\arduinoLCD\test\Pain Drain\libraries\lvgl\src\core/lv_indev.c **** 
 942              		.loc 1 471 0
 943 012e 002F     		cmp	r7, #0
 944 0130 77D1     		bne	.L63
 471:..\..\..\arduinoLCD\test\Pain Drain\libraries\lvgl\src\core/lv_indev.c **** 
 945              		.loc 1 471 0 is_stmt 0 discriminator 1
 946 0132 012B     		cmp	r3, #1
 947 0134 75D1     		bne	.L63
 471:..\..\..\arduinoLCD\test\Pain Drain\libraries\lvgl\src\core/lv_indev.c **** 
 948              		.loc 1 471 0 discriminator 2
 949 0136 012A     		cmp	r2, #1
 950 0138 73D1     		bne	.L63
 473:..\..\..\arduinoLCD\test\Pain Drain\libraries\lvgl\src\core/lv_indev.c ****             lv_event_send(indev_obj_act, LV_EVENT_PRESSING, indev_act);
 951              		.loc 1 473 0 is_stmt 1
 952 013a 6B68     		ldr	r3, [r5, #4]
 953 013c 0A2B     		cmp	r3, #10
 954 013e 0BD1     		bne	.L64
 474:..\..\..\arduinoLCD\test\Pain Drain\libraries\lvgl\src\core/lv_indev.c ****             if(indev_reset_check(&i->proc)) return;
 955              		.loc 1 474 0
 956 0140 524B     		ldr	r3, .L72
 957 0142 5A68     		ldr	r2, [r3, #4]
 958              	.LVL109:
 959 0144 0221     		movs	r1, #2
 960              	.LVL110:
 961 0146 1868     		ldr	r0, [r3]
 962 0148 FFF7FEFF 		bl	lv_event_send
 963              	.LVL111:
 475:..\..\..\arduinoLCD\test\Pain Drain\libraries\lvgl\src\core/lv_indev.c ****         }
 964              		.loc 1 475 0
 965 014c 201D     		adds	r0, r4, #4
 966 014e FFF7FEFF 		bl	indev_reset_check
 967              	.LVL112:
 968 0152 0028     		cmp	r0, #0
 969 0154 40F09880 		bne	.L52
 970              	.L64:
 479:..\..\..\arduinoLCD\test\Pain Drain\libraries\lvgl\src\core/lv_indev.c ****             i->proc.long_pr_sent = 1;
 971              		.loc 1 479 0
 972 0158 6379     		ldrb	r3, [r4, #5]	@ zero_extendqisi2
ARM GAS  C:\Users\haske\AppData\Local\Temp\ccOQHbDo.s 			page 43


 973 015a 13F0010F 		tst	r3, #1
 974 015e 1DD1     		bne	.L65
 479:..\..\..\arduinoLCD\test\Pain Drain\libraries\lvgl\src\core/lv_indev.c ****             i->proc.long_pr_sent = 1;
 975              		.loc 1 479 0 is_stmt 0 discriminator 1
 976 0160 A06C     		ldr	r0, [r4, #72]
 977 0162 FFF7FEFF 		bl	lv_tick_elaps
 978              	.LVL113:
 979 0166 2368     		ldr	r3, [r4]
 980 0168 9B8B     		ldrh	r3, [r3, #28]
 981 016a 9842     		cmp	r0, r3
 982 016c 16D9     		bls	.L65
 480:..\..\..\arduinoLCD\test\Pain Drain\libraries\lvgl\src\core/lv_indev.c ****             if(data->key == LV_KEY_ENTER) {
 983              		.loc 1 480 0 is_stmt 1
 984 016e 6379     		ldrb	r3, [r4, #5]	@ zero_extendqisi2
 985 0170 43F00103 		orr	r3, r3, #1
 986 0174 6371     		strb	r3, [r4, #5]
 481:..\..\..\arduinoLCD\test\Pain Drain\libraries\lvgl\src\core/lv_indev.c ****                 i->proc.longpr_rep_timestamp = lv_tick_get();
 987              		.loc 1 481 0
 988 0176 6B68     		ldr	r3, [r5, #4]
 989 0178 0A2B     		cmp	r3, #10
 990 017a 40F08280 		bne	.L58
 482:..\..\..\arduinoLCD\test\Pain Drain\libraries\lvgl\src\core/lv_indev.c ****                 lv_event_send(indev_obj_act, LV_EVENT_LONG_PRESSED, indev_act);
 991              		.loc 1 482 0
 992 017e FFF7FEFF 		bl	lv_tick_get
 993              	.LVL114:
 994 0182 E064     		str	r0, [r4, #76]
 483:..\..\..\arduinoLCD\test\Pain Drain\libraries\lvgl\src\core/lv_indev.c ****                 if(indev_reset_check(&i->proc)) return;
 995              		.loc 1 483 0
 996 0184 414B     		ldr	r3, .L72
 997 0186 5A68     		ldr	r2, [r3, #4]
 998 0188 0521     		movs	r1, #5
 999 018a 1868     		ldr	r0, [r3]
 1000 018c FFF7FEFF 		bl	lv_event_send
 1001              	.LVL115:
 484:..\..\..\arduinoLCD\test\Pain Drain\libraries\lvgl\src\core/lv_indev.c ****             }
 1002              		.loc 1 484 0
 1003 0190 201D     		adds	r0, r4, #4
 1004 0192 FFF7FEFF 		bl	indev_reset_check
 1005              	.LVL116:
 1006 0196 0028     		cmp	r0, #0
 1007 0198 73D0     		beq	.L58
 1008 019a F8BD     		pop	{r3, r4, r5, r6, r7, pc}
 1009              	.LVL117:
 1010              	.L65:
 488:..\..\..\arduinoLCD\test\Pain Drain\libraries\lvgl\src\core/lv_indev.c ****                 lv_tick_elaps(i->proc.longpr_rep_timestamp) > i->driver->long_press_repeat_time) {
 1011              		.loc 1 488 0
 1012 019c 6379     		ldrb	r3, [r4, #5]	@ zero_extendqisi2
 1013 019e 13F0010F 		tst	r3, #1
 1014 01a2 6ED0     		beq	.L58
 489:..\..\..\arduinoLCD\test\Pain Drain\libraries\lvgl\src\core/lv_indev.c **** 
 1015              		.loc 1 489 0 discriminator 1
 1016 01a4 E06C     		ldr	r0, [r4, #76]
 1017 01a6 FFF7FEFF 		bl	lv_tick_elaps
 1018              	.LVL118:
 1019 01aa 2368     		ldr	r3, [r4]
 1020 01ac DB8B     		ldrh	r3, [r3, #30]
 488:..\..\..\arduinoLCD\test\Pain Drain\libraries\lvgl\src\core/lv_indev.c ****                 lv_tick_elaps(i->proc.longpr_rep_timestamp) > i->driver->long_press_repeat_time) {
ARM GAS  C:\Users\haske\AppData\Local\Temp\ccOQHbDo.s 			page 44


 1021              		.loc 1 488 0 discriminator 1
 1022 01ae 9842     		cmp	r0, r3
 1023 01b0 67D9     		bls	.L58
 491:..\..\..\arduinoLCD\test\Pain Drain\libraries\lvgl\src\core/lv_indev.c **** 
 1024              		.loc 1 491 0
 1025 01b2 FFF7FEFF 		bl	lv_tick_get
 1026              	.LVL119:
 1027 01b6 E064     		str	r0, [r4, #76]
 494:..\..\..\arduinoLCD\test\Pain Drain\libraries\lvgl\src\core/lv_indev.c ****                 lv_event_send(indev_obj_act, LV_EVENT_LONG_PRESSED_REPEAT, indev_act);
 1028              		.loc 1 494 0
 1029 01b8 6968     		ldr	r1, [r5, #4]
 1030 01ba 0A29     		cmp	r1, #10
 1031 01bc 0BD1     		bne	.L66
 495:..\..\..\arduinoLCD\test\Pain Drain\libraries\lvgl\src\core/lv_indev.c ****                 if(indev_reset_check(&i->proc)) return;
 1032              		.loc 1 495 0
 1033 01be 334B     		ldr	r3, .L72
 1034 01c0 5A68     		ldr	r2, [r3, #4]
 1035 01c2 0621     		movs	r1, #6
 1036 01c4 1868     		ldr	r0, [r3]
 1037 01c6 FFF7FEFF 		bl	lv_event_send
 1038              	.LVL120:
 496:..\..\..\arduinoLCD\test\Pain Drain\libraries\lvgl\src\core/lv_indev.c ****             }
 1039              		.loc 1 496 0
 1040 01ca 201D     		adds	r0, r4, #4
 1041 01cc FFF7FEFF 		bl	indev_reset_check
 1042              	.LVL121:
 1043 01d0 0028     		cmp	r0, #0
 1044 01d2 56D0     		beq	.L58
 1045 01d4 F8BD     		pop	{r3, r4, r5, r6, r7, pc}
 1046              	.LVL122:
 1047              	.L66:
 499:..\..\..\arduinoLCD\test\Pain Drain\libraries\lvgl\src\core/lv_indev.c ****                 lv_group_set_editing(g, false); /*Editing is not used by KEYPAD is be sure it is di
 1048              		.loc 1 499 0
 1049 01d6 0929     		cmp	r1, #9
 1050 01d8 0CD1     		bne	.L67
 500:..\..\..\arduinoLCD\test\Pain Drain\libraries\lvgl\src\core/lv_indev.c ****                 lv_group_focus_next(g);
 1051              		.loc 1 500 0
 1052 01da 0021     		movs	r1, #0
 1053 01dc 3046     		mov	r0, r6
 1054 01de FFF7FEFF 		bl	lv_group_set_editing
 1055              	.LVL123:
 501:..\..\..\arduinoLCD\test\Pain Drain\libraries\lvgl\src\core/lv_indev.c ****                 if(indev_reset_check(&i->proc)) return;
 1056              		.loc 1 501 0
 1057 01e2 3046     		mov	r0, r6
 1058 01e4 FFF7FEFF 		bl	lv_group_focus_next
 1059              	.LVL124:
 502:..\..\..\arduinoLCD\test\Pain Drain\libraries\lvgl\src\core/lv_indev.c ****             }
 1060              		.loc 1 502 0
 1061 01e8 201D     		adds	r0, r4, #4
 1062 01ea FFF7FEFF 		bl	indev_reset_check
 1063              	.LVL125:
 1064 01ee 0028     		cmp	r0, #0
 1065 01f0 47D0     		beq	.L58
 1066 01f2 F8BD     		pop	{r3, r4, r5, r6, r7, pc}
 1067              	.LVL126:
 1068              	.L67:
 505:..\..\..\arduinoLCD\test\Pain Drain\libraries\lvgl\src\core/lv_indev.c ****                 lv_group_set_editing(g, false); /*Editing is not used by KEYPAD is be sure it is di
ARM GAS  C:\Users\haske\AppData\Local\Temp\ccOQHbDo.s 			page 45


 1069              		.loc 1 505 0
 1070 01f4 0B29     		cmp	r1, #11
 1071 01f6 0CD1     		bne	.L68
 506:..\..\..\arduinoLCD\test\Pain Drain\libraries\lvgl\src\core/lv_indev.c ****                 lv_group_focus_prev(g);
 1072              		.loc 1 506 0
 1073 01f8 0021     		movs	r1, #0
 1074 01fa 3046     		mov	r0, r6
 1075 01fc FFF7FEFF 		bl	lv_group_set_editing
 1076              	.LVL127:
 507:..\..\..\arduinoLCD\test\Pain Drain\libraries\lvgl\src\core/lv_indev.c ****                 if(indev_reset_check(&i->proc)) return;
 1077              		.loc 1 507 0
 1078 0200 3046     		mov	r0, r6
 1079 0202 FFF7FEFF 		bl	lv_group_focus_prev
 1080              	.LVL128:
 508:..\..\..\arduinoLCD\test\Pain Drain\libraries\lvgl\src\core/lv_indev.c ****             }
 1081              		.loc 1 508 0
 1082 0206 201D     		adds	r0, r4, #4
 1083 0208 FFF7FEFF 		bl	indev_reset_check
 1084              	.LVL129:
 1085 020c 0028     		cmp	r0, #0
 1086 020e 38D0     		beq	.L58
 1087 0210 F8BD     		pop	{r3, r4, r5, r6, r7, pc}
 1088              	.LVL130:
 1089              	.L68:
 512:..\..\..\arduinoLCD\test\Pain Drain\libraries\lvgl\src\core/lv_indev.c ****                 if(indev_reset_check(&i->proc)) return;
 1090              		.loc 1 512 0
 1091 0212 3046     		mov	r0, r6
 1092 0214 FFF7FEFF 		bl	lv_group_send_data
 1093              	.LVL131:
 513:..\..\..\arduinoLCD\test\Pain Drain\libraries\lvgl\src\core/lv_indev.c ****             }
 1094              		.loc 1 513 0
 1095 0218 201D     		adds	r0, r4, #4
 1096 021a FFF7FEFF 		bl	indev_reset_check
 1097              	.LVL132:
 1098 021e 80B3     		cbz	r0, .L58
 1099 0220 F8BD     		pop	{r3, r4, r5, r6, r7, pc}
 1100              	.LVL133:
 1101              	.L63:
 518:..\..\..\arduinoLCD\test\Pain Drain\libraries\lvgl\src\core/lv_indev.c ****         LV_LOG_INFO("%" LV_PRIu32 " key is released", data->key);
 1102              		.loc 1 518 0
 1103 0222 77BB     		cbnz	r7, .L58
 518:..\..\..\arduinoLCD\test\Pain Drain\libraries\lvgl\src\core/lv_indev.c ****         LV_LOG_INFO("%" LV_PRIu32 " key is released", data->key);
 1104              		.loc 1 518 0 is_stmt 0 discriminator 1
 1105 0224 6BBB     		cbnz	r3, .L58
 518:..\..\..\arduinoLCD\test\Pain Drain\libraries\lvgl\src\core/lv_indev.c ****         LV_LOG_INFO("%" LV_PRIu32 " key is released", data->key);
 1106              		.loc 1 518 0 discriminator 2
 1107 0226 012A     		cmp	r2, #1
 1108 0228 2BD1     		bne	.L58
 521:..\..\..\arduinoLCD\test\Pain Drain\libraries\lvgl\src\core/lv_indev.c ****         if(data->key == LV_KEY_ENTER) {
 1109              		.loc 1 521 0 is_stmt 1
 1110 022a 6960     		str	r1, [r5, #4]
 522:..\..\..\arduinoLCD\test\Pain Drain\libraries\lvgl\src\core/lv_indev.c **** 
 1111              		.loc 1 522 0
 1112 022c 0A29     		cmp	r1, #10
 1113 022e 22D1     		bne	.L69
 524:..\..\..\arduinoLCD\test\Pain Drain\libraries\lvgl\src\core/lv_indev.c ****             if(indev_reset_check(&i->proc)) return;
 1114              		.loc 1 524 0
ARM GAS  C:\Users\haske\AppData\Local\Temp\ccOQHbDo.s 			page 46


 1115 0230 164B     		ldr	r3, .L72
 1116 0232 5A68     		ldr	r2, [r3, #4]
 1117              	.LVL134:
 1118 0234 0821     		movs	r1, #8
 1119              	.LVL135:
 1120 0236 1868     		ldr	r0, [r3]
 1121 0238 FFF7FEFF 		bl	lv_event_send
 1122              	.LVL136:
 525:..\..\..\arduinoLCD\test\Pain Drain\libraries\lvgl\src\core/lv_indev.c **** 
 1123              		.loc 1 525 0
 1124 023c 251D     		adds	r5, r4, #4
 1125              	.LVL137:
 1126 023e 2846     		mov	r0, r5
 1127 0240 FFF7FEFF 		bl	indev_reset_check
 1128              	.LVL138:
 1129 0244 00BB     		cbnz	r0, .L52
 527:..\..\..\arduinoLCD\test\Pain Drain\libraries\lvgl\src\core/lv_indev.c ****                 lv_event_send(indev_obj_act, LV_EVENT_SHORT_CLICKED, indev_act);
 1130              		.loc 1 527 0
 1131 0246 6379     		ldrb	r3, [r4, #5]	@ zero_extendqisi2
 1132 0248 13F0010F 		tst	r3, #1
 1133 024c 09D1     		bne	.L70
 528:..\..\..\arduinoLCD\test\Pain Drain\libraries\lvgl\src\core/lv_indev.c ****                 if(indev_reset_check(&i->proc)) return;
 1134              		.loc 1 528 0
 1135 024e 0F4B     		ldr	r3, .L72
 1136 0250 5A68     		ldr	r2, [r3, #4]
 1137 0252 0421     		movs	r1, #4
 1138 0254 1868     		ldr	r0, [r3]
 1139 0256 FFF7FEFF 		bl	lv_event_send
 1140              	.LVL139:
 529:..\..\..\arduinoLCD\test\Pain Drain\libraries\lvgl\src\core/lv_indev.c ****             }
 1141              		.loc 1 529 0
 1142 025a 2846     		mov	r0, r5
 1143 025c FFF7FEFF 		bl	indev_reset_check
 1144              	.LVL140:
 1145 0260 90B9     		cbnz	r0, .L52
 1146              	.L70:
 532:..\..\..\arduinoLCD\test\Pain Drain\libraries\lvgl\src\core/lv_indev.c ****             if(indev_reset_check(&i->proc)) return;
 1147              		.loc 1 532 0
 1148 0262 0A4B     		ldr	r3, .L72
 1149 0264 5A68     		ldr	r2, [r3, #4]
 1150 0266 0721     		movs	r1, #7
 1151 0268 1868     		ldr	r0, [r3]
 1152 026a FFF7FEFF 		bl	lv_event_send
 1153              	.LVL141:
 533:..\..\..\arduinoLCD\test\Pain Drain\libraries\lvgl\src\core/lv_indev.c **** 
 1154              		.loc 1 533 0
 1155 026e 2846     		mov	r0, r5
 1156 0270 FFF7FEFF 		bl	indev_reset_check
 1157              	.LVL142:
 1158 0274 40B9     		cbnz	r0, .L52
 1159              	.L69:
 536:..\..\..\arduinoLCD\test\Pain Drain\libraries\lvgl\src\core/lv_indev.c ****         i->proc.long_pr_sent = 0;
 1160              		.loc 1 536 0
 1161 0276 0022     		movs	r2, #0
 1162 0278 A264     		str	r2, [r4, #72]
 537:..\..\..\arduinoLCD\test\Pain Drain\libraries\lvgl\src\core/lv_indev.c ****     }
 1163              		.loc 1 537 0
ARM GAS  C:\Users\haske\AppData\Local\Temp\ccOQHbDo.s 			page 47


 1164 027a 6379     		ldrb	r3, [r4, #5]	@ zero_extendqisi2
 1165 027c 62F30003 		bfi	r3, r2, #0, #1
 1166 0280 6371     		strb	r3, [r4, #5]
 1167              	.LVL143:
 1168              	.L58:
 539:..\..\..\arduinoLCD\test\Pain Drain\libraries\lvgl\src\core/lv_indev.c **** }
 1169              		.loc 1 539 0
 1170 0282 0022     		movs	r2, #0
 1171 0284 014B     		ldr	r3, .L72
 1172 0286 1A60     		str	r2, [r3]
 1173              	.LVL144:
 1174              	.L52:
 1175 0288 F8BD     		pop	{r3, r4, r5, r6, r7, pc}
 1176              	.L73:
 1177 028a 00BF     		.align	2
 1178              	.L72:
 1179 028c 00000000 		.word	.LANCHOR0
 1180              		.cfi_endproc
 1181              	.LFE185:
 1182              		.size	indev_keypad_proc, .-indev_keypad_proc
 1183              		.section	.text.indev_encoder_proc,"ax",%progbits
 1184              		.align	2
 1185              		.thumb
 1186              		.thumb_func
 1187              		.type	indev_encoder_proc, %function
 1188              	indev_encoder_proc:
 1189              	.LFB186:
 548:..\..\..\arduinoLCD\test\Pain Drain\libraries\lvgl\src\core/lv_indev.c ****     if(data->state == LV_INDEV_STATE_PRESSED && i->proc.wait_until_release) return;
 1190              		.loc 1 548 0
 1191              		.cfi_startproc
 1192              		@ args = 0, pretend = 0, frame = 0
 1193              		@ frame_needed = 0, uses_anonymous_args = 0
 1194              	.LVL145:
 1195 0000 F8B5     		push	{r3, r4, r5, r6, r7, lr}
 1196              		.cfi_def_cfa_offset 24
 1197              		.cfi_offset 3, -24
 1198              		.cfi_offset 4, -20
 1199              		.cfi_offset 5, -16
 1200              		.cfi_offset 6, -12
 1201              		.cfi_offset 7, -8
 1202              		.cfi_offset 14, -4
 549:..\..\..\arduinoLCD\test\Pain Drain\libraries\lvgl\src\core/lv_indev.c **** 
 1203              		.loc 1 549 0
 1204 0002 8B7B     		ldrb	r3, [r1, #14]	@ zero_extendqisi2
 1205 0004 012B     		cmp	r3, #1
 1206 0006 04D1     		bne	.L75
 549:..\..\..\arduinoLCD\test\Pain Drain\libraries\lvgl\src\core/lv_indev.c **** 
 1207              		.loc 1 549 0 is_stmt 0 discriminator 1
 1208 0008 4379     		ldrb	r3, [r0, #5]	@ zero_extendqisi2
 1209 000a 13F0080F 		tst	r3, #8
 1210 000e 40F00582 		bne	.L74
 1211              	.L75:
 551:..\..\..\arduinoLCD\test\Pain Drain\libraries\lvgl\src\core/lv_indev.c ****         i->proc.wait_until_release      = 0;
 1212              		.loc 1 551 0 is_stmt 1
 1213 0012 4379     		ldrb	r3, [r0, #5]	@ zero_extendqisi2
 1214 0014 13F0080F 		tst	r3, #8
 1215 0018 08D0     		beq	.L77
ARM GAS  C:\Users\haske\AppData\Local\Temp\ccOQHbDo.s 			page 48


 552:..\..\..\arduinoLCD\test\Pain Drain\libraries\lvgl\src\core/lv_indev.c ****         i->proc.pr_timestamp            = 0;
 1216              		.loc 1 552 0
 1217 001a 4379     		ldrb	r3, [r0, #5]	@ zero_extendqisi2
 553:..\..\..\arduinoLCD\test\Pain Drain\libraries\lvgl\src\core/lv_indev.c ****         i->proc.long_pr_sent            = 0;
 1218              		.loc 1 553 0
 1219 001c 0022     		movs	r2, #0
 1220 001e 8264     		str	r2, [r0, #72]
 554:..\..\..\arduinoLCD\test\Pain Drain\libraries\lvgl\src\core/lv_indev.c ****         i->proc.types.keypad.last_state = LV_INDEV_STATE_RELEASED; /*To skip the processing of rele
 1221              		.loc 1 554 0
 1222 0020 03F0F703 		and	r3, r3, #247
 1223 0024 62F30003 		bfi	r3, r2, #0, #1
 1224 0028 4371     		strb	r3, [r0, #5]
 555:..\..\..\arduinoLCD\test\Pain Drain\libraries\lvgl\src\core/lv_indev.c ****     }
 1225              		.loc 1 555 0
 1226 002a 0272     		strb	r2, [r0, #8]
 1227              	.L77:
 560:..\..\..\arduinoLCD\test\Pain Drain\libraries\lvgl\src\core/lv_indev.c ****     i->proc.types.keypad.last_state = data->state;
 1228              		.loc 1 560 0
 1229 002c 077A     		ldrb	r7, [r0, #8]	@ zero_extendqisi2
 1230              	.LVL146:
 561:..\..\..\arduinoLCD\test\Pain Drain\libraries\lvgl\src\core/lv_indev.c ****     i->proc.types.keypad.last_key   = data->key;
 1231              		.loc 1 561 0
 1232 002e 8B7B     		ldrb	r3, [r1, #14]	@ zero_extendqisi2
 1233 0030 0372     		strb	r3, [r0, #8]
 562:..\..\..\arduinoLCD\test\Pain Drain\libraries\lvgl\src\core/lv_indev.c **** 
 1234              		.loc 1 562 0
 1235 0032 4B68     		ldr	r3, [r1, #4]
 1236 0034 C360     		str	r3, [r0, #12]
 564:..\..\..\arduinoLCD\test\Pain Drain\libraries\lvgl\src\core/lv_indev.c ****     if(g == NULL) return;
 1237              		.loc 1 564 0
 1238 0036 466D     		ldr	r6, [r0, #84]
 1239              	.LVL147:
 565:..\..\..\arduinoLCD\test\Pain Drain\libraries\lvgl\src\core/lv_indev.c **** 
 1240              		.loc 1 565 0
 1241 0038 002E     		cmp	r6, #0
 1242 003a 00F0EF81 		beq	.L74
 1243 003e 0D46     		mov	r5, r1
 1244 0040 0446     		mov	r4, r0
 567:..\..\..\arduinoLCD\test\Pain Drain\libraries\lvgl\src\core/lv_indev.c ****     if(indev_obj_act == NULL) return;
 1245              		.loc 1 567 0
 1246 0042 3046     		mov	r0, r6
 1247              	.LVL148:
 1248 0044 FFF7FEFF 		bl	lv_group_get_focused
 1249              	.LVL149:
 1250 0048 9E4B     		ldr	r3, .L128
 1251 004a 1860     		str	r0, [r3]
 568:..\..\..\arduinoLCD\test\Pain Drain\libraries\lvgl\src\core/lv_indev.c **** 
 1252              		.loc 1 568 0
 1253 004c 0028     		cmp	r0, #0
 1254 004e 00F0E581 		beq	.L74
 571:..\..\..\arduinoLCD\test\Pain Drain\libraries\lvgl\src\core/lv_indev.c ****         data->enc_diff = 0;
 1255              		.loc 1 571 0
 1256 0052 AB7B     		ldrb	r3, [r5, #14]	@ zero_extendqisi2
 1257 0054 0BB1     		cbz	r3, .L78
 572:..\..\..\arduinoLCD\test\Pain Drain\libraries\lvgl\src\core/lv_indev.c ****     }
 1258              		.loc 1 572 0
 1259 0056 0023     		movs	r3, #0
ARM GAS  C:\Users\haske\AppData\Local\Temp\ccOQHbDo.s 			page 49


 1260 0058 AB81     		strh	r3, [r5, #12]	@ movhi
 1261              	.L78:
 576:..\..\..\arduinoLCD\test\Pain Drain\libraries\lvgl\src\core/lv_indev.c ****     if(indev_obj_act == NULL) return;
 1262              		.loc 1 576 0
 1263 005a 3046     		mov	r0, r6
 1264 005c FFF7FEFF 		bl	lv_group_get_focused
 1265              	.LVL150:
 1266 0060 984B     		ldr	r3, .L128
 1267 0062 1860     		str	r0, [r3]
 577:..\..\..\arduinoLCD\test\Pain Drain\libraries\lvgl\src\core/lv_indev.c **** 
 1268              		.loc 1 577 0
 1269 0064 0028     		cmp	r0, #0
 1270 0066 00F0D981 		beq	.L74
 580:..\..\..\arduinoLCD\test\Pain Drain\libraries\lvgl\src\core/lv_indev.c ****         LV_LOG_INFO("pressed");
 1271              		.loc 1 580 0
 1272 006a AB7B     		ldrb	r3, [r5, #14]	@ zero_extendqisi2
 1273 006c 012B     		cmp	r3, #1
 1274 006e 5DD1     		bne	.L79
 580:..\..\..\arduinoLCD\test\Pain Drain\libraries\lvgl\src\core/lv_indev.c ****         LV_LOG_INFO("pressed");
 1275              		.loc 1 580 0 is_stmt 0 discriminator 1
 1276 0070 002F     		cmp	r7, #0
 1277 0072 5BD1     		bne	.L79
 583:..\..\..\arduinoLCD\test\Pain Drain\libraries\lvgl\src\core/lv_indev.c **** 
 1278              		.loc 1 583 0 is_stmt 1
 1279 0074 FFF7FEFF 		bl	lv_tick_get
 1280              	.LVL151:
 1281 0078 A064     		str	r0, [r4, #72]
 585:..\..\..\arduinoLCD\test\Pain Drain\libraries\lvgl\src\core/lv_indev.c ****             bool editable_or_scrollable = lv_obj_is_editable(indev_obj_act) ||
 1282              		.loc 1 585 0
 1283 007a 6968     		ldr	r1, [r5, #4]
 1284 007c 0A29     		cmp	r1, #10
 1285 007e 24D1     		bne	.L80
 1286              	.LBB12:
 586:..\..\..\arduinoLCD\test\Pain Drain\libraries\lvgl\src\core/lv_indev.c ****                                           lv_obj_has_flag(indev_obj_act, LV_OBJ_FLAG_SCROLLABLE);
 1287              		.loc 1 586 0
 1288 0080 904B     		ldr	r3, .L128
 1289 0082 1868     		ldr	r0, [r3]
 1290 0084 FFF7FEFF 		bl	lv_obj_is_editable
 1291              	.LVL152:
 1292 0088 38B9     		cbnz	r0, .L114
 587:..\..\..\arduinoLCD\test\Pain Drain\libraries\lvgl\src\core/lv_indev.c ****             if(lv_group_get_editing(g) == true || editable_or_scrollable == false) {
 1293              		.loc 1 587 0 discriminator 2
 1294 008a 1021     		movs	r1, #16
 1295 008c 8D4B     		ldr	r3, .L128
 1296 008e 1868     		ldr	r0, [r3]
 1297 0090 FFF7FEFF 		bl	lv_obj_has_flag
 1298              	.LVL153:
 586:..\..\..\arduinoLCD\test\Pain Drain\libraries\lvgl\src\core/lv_indev.c ****                                           lv_obj_has_flag(indev_obj_act, LV_OBJ_FLAG_SCROLLABLE);
 1299              		.loc 1 586 0 discriminator 2
 1300 0094 18B9     		cbnz	r0, .L115
 586:..\..\..\arduinoLCD\test\Pain Drain\libraries\lvgl\src\core/lv_indev.c ****                                           lv_obj_has_flag(indev_obj_act, LV_OBJ_FLAG_SCROLLABLE);
 1301              		.loc 1 586 0 is_stmt 0
 1302 0096 0023     		movs	r3, #0
 1303 0098 02E0     		b	.L81
 1304              	.L114:
 1305 009a 0123     		movs	r3, #1
 1306 009c 00E0     		b	.L81
ARM GAS  C:\Users\haske\AppData\Local\Temp\ccOQHbDo.s 			page 50


 1307              	.L115:
 1308 009e 0123     		movs	r3, #1
 1309              	.L81:
 586:..\..\..\arduinoLCD\test\Pain Drain\libraries\lvgl\src\core/lv_indev.c ****                                           lv_obj_has_flag(indev_obj_act, LV_OBJ_FLAG_SCROLLABLE);
 1310              		.loc 1 586 0 discriminator 6
 1311 00a0 1F46     		mov	r7, r3
 1312              	.LVL154:
 588:..\..\..\arduinoLCD\test\Pain Drain\libraries\lvgl\src\core/lv_indev.c ****                 lv_event_send(indev_obj_act, LV_EVENT_PRESSED, indev_act);
 1313              		.loc 1 588 0 is_stmt 1 discriminator 6
 1314 00a2 3046     		mov	r0, r6
 1315 00a4 FFF7FEFF 		bl	lv_group_get_editing
 1316              	.LVL155:
 1317 00a8 10B9     		cbnz	r0, .L82
 588:..\..\..\arduinoLCD\test\Pain Drain\libraries\lvgl\src\core/lv_indev.c ****                 lv_event_send(indev_obj_act, LV_EVENT_PRESSED, indev_act);
 1318              		.loc 1 588 0 is_stmt 0 discriminator 1
 1319 00aa 002F     		cmp	r7, #0
 1320 00ac 40F05B81 		bne	.L83
 1321              	.L82:
 589:..\..\..\arduinoLCD\test\Pain Drain\libraries\lvgl\src\core/lv_indev.c ****                 if(indev_reset_check(&i->proc)) return;
 1322              		.loc 1 589 0 is_stmt 1
 1323 00b0 844B     		ldr	r3, .L128
 1324 00b2 5A68     		ldr	r2, [r3, #4]
 1325 00b4 0121     		movs	r1, #1
 1326 00b6 1868     		ldr	r0, [r3]
 1327 00b8 FFF7FEFF 		bl	lv_event_send
 1328              	.LVL156:
 590:..\..\..\arduinoLCD\test\Pain Drain\libraries\lvgl\src\core/lv_indev.c ****             }
 1329              		.loc 1 590 0
 1330 00bc 201D     		adds	r0, r4, #4
 1331 00be FFF7FEFF 		bl	indev_reset_check
 1332              	.LVL157:
 1333 00c2 0028     		cmp	r0, #0
 1334 00c4 00F04F81 		beq	.L83
 1335 00c8 F8BD     		pop	{r3, r4, r5, r6, r7, pc}
 1336              	.LVL158:
 1337              	.L80:
 1338              	.LBE12:
 593:..\..\..\arduinoLCD\test\Pain Drain\libraries\lvgl\src\core/lv_indev.c ****             /*emulate encoder left*/
 1339              		.loc 1 593 0
 1340 00ca 1429     		cmp	r1, #20
 1341 00cc 04D1     		bne	.L84
 595:..\..\..\arduinoLCD\test\Pain Drain\libraries\lvgl\src\core/lv_indev.c ****         }
 1342              		.loc 1 595 0
 1343 00ce B5F90C30 		ldrsh	r3, [r5, #12]
 1344 00d2 013B     		subs	r3, r3, #1
 1345 00d4 AB81     		strh	r3, [r5, #12]	@ movhi
 1346 00d6 46E1     		b	.L83
 1347              	.L84:
 597:..\..\..\arduinoLCD\test\Pain Drain\libraries\lvgl\src\core/lv_indev.c ****             /*emulate encoder right*/
 1348              		.loc 1 597 0
 1349 00d8 1329     		cmp	r1, #19
 1350 00da 04D1     		bne	.L85
 599:..\..\..\arduinoLCD\test\Pain Drain\libraries\lvgl\src\core/lv_indev.c ****         }
 1351              		.loc 1 599 0
 1352 00dc B5F90C30 		ldrsh	r3, [r5, #12]
 1353 00e0 0133     		adds	r3, r3, #1
 1354 00e2 AB81     		strh	r3, [r5, #12]	@ movhi
ARM GAS  C:\Users\haske\AppData\Local\Temp\ccOQHbDo.s 			page 51


 1355 00e4 3FE1     		b	.L83
 1356              	.L85:
 601:..\..\..\arduinoLCD\test\Pain Drain\libraries\lvgl\src\core/lv_indev.c ****             /*Send the ESC as a normal KEY*/
 1357              		.loc 1 601 0
 1358 00e6 1B29     		cmp	r1, #27
 1359 00e8 16D1     		bne	.L86
 603:..\..\..\arduinoLCD\test\Pain Drain\libraries\lvgl\src\core/lv_indev.c ****             if(indev_reset_check(&i->proc)) return;
 1360              		.loc 1 603 0
 1361 00ea 3046     		mov	r0, r6
 1362 00ec FFF7FEFF 		bl	lv_group_send_data
 1363              	.LVL159:
 604:..\..\..\arduinoLCD\test\Pain Drain\libraries\lvgl\src\core/lv_indev.c **** 
 1364              		.loc 1 604 0
 1365 00f0 271D     		adds	r7, r4, #4
 1366              	.LVL160:
 1367 00f2 3846     		mov	r0, r7
 1368 00f4 FFF7FEFF 		bl	indev_reset_check
 1369              	.LVL161:
 1370 00f8 0028     		cmp	r0, #0
 1371 00fa 40F08F81 		bne	.L74
 606:..\..\..\arduinoLCD\test\Pain Drain\libraries\lvgl\src\core/lv_indev.c ****             if(indev_reset_check(&i->proc)) return;
 1372              		.loc 1 606 0
 1373 00fe 714B     		ldr	r3, .L128
 1374 0100 5A68     		ldr	r2, [r3, #4]
 1375 0102 2021     		movs	r1, #32
 1376 0104 1868     		ldr	r0, [r3]
 1377 0106 FFF7FEFF 		bl	lv_event_send
 1378              	.LVL162:
 607:..\..\..\arduinoLCD\test\Pain Drain\libraries\lvgl\src\core/lv_indev.c ****         }
 1379              		.loc 1 607 0
 1380 010a 3846     		mov	r0, r7
 1381 010c FFF7FEFF 		bl	indev_reset_check
 1382              	.LVL163:
 1383 0110 0028     		cmp	r0, #0
 1384 0112 00F02881 		beq	.L83
 1385 0116 F8BD     		pop	{r3, r4, r5, r6, r7, pc}
 1386              	.LVL164:
 1387              	.L86:
 611:..\..\..\arduinoLCD\test\Pain Drain\libraries\lvgl\src\core/lv_indev.c ****             if(indev_reset_check(&i->proc)) return;
 1388              		.loc 1 611 0
 1389 0118 3046     		mov	r0, r6
 1390 011a FFF7FEFF 		bl	lv_group_send_data
 1391              	.LVL165:
 612:..\..\..\arduinoLCD\test\Pain Drain\libraries\lvgl\src\core/lv_indev.c ****         }
 1392              		.loc 1 612 0
 1393 011e 201D     		adds	r0, r4, #4
 1394 0120 FFF7FEFF 		bl	indev_reset_check
 1395              	.LVL166:
 1396 0124 0028     		cmp	r0, #0
 1397 0126 00F01E81 		beq	.L83
 1398 012a F8BD     		pop	{r3, r4, r5, r6, r7, pc}
 1399              	.LVL167:
 1400              	.L79:
 616:..\..\..\arduinoLCD\test\Pain Drain\libraries\lvgl\src\core/lv_indev.c ****         /*Long press*/
 1401              		.loc 1 616 0
 1402 012c 012B     		cmp	r3, #1
 1403 012e 40F08780 		bne	.L87
ARM GAS  C:\Users\haske\AppData\Local\Temp\ccOQHbDo.s 			page 52


 616:..\..\..\arduinoLCD\test\Pain Drain\libraries\lvgl\src\core/lv_indev.c ****         /*Long press*/
 1404              		.loc 1 616 0 is_stmt 0 discriminator 1
 1405 0132 012F     		cmp	r7, #1
 1406 0134 40F08480 		bne	.L87
 618:..\..\..\arduinoLCD\test\Pain Drain\libraries\lvgl\src\core/lv_indev.c **** 
 1407              		.loc 1 618 0 is_stmt 1
 1408 0138 6379     		ldrb	r3, [r4, #5]	@ zero_extendqisi2
 1409 013a 13F0010F 		tst	r3, #1
 1410 013e 47D1     		bne	.L88
 618:..\..\..\arduinoLCD\test\Pain Drain\libraries\lvgl\src\core/lv_indev.c **** 
 1411              		.loc 1 618 0 is_stmt 0 discriminator 1
 1412 0140 A06C     		ldr	r0, [r4, #72]
 1413 0142 FFF7FEFF 		bl	lv_tick_elaps
 1414              	.LVL168:
 1415 0146 2368     		ldr	r3, [r4]
 1416 0148 9B8B     		ldrh	r3, [r3, #28]
 1417 014a 9842     		cmp	r0, r3
 1418 014c 40D9     		bls	.L88
 620:..\..\..\arduinoLCD\test\Pain Drain\libraries\lvgl\src\core/lv_indev.c ****             i->proc.longpr_rep_timestamp = lv_tick_get();
 1419              		.loc 1 620 0 is_stmt 1
 1420 014e 6379     		ldrb	r3, [r4, #5]	@ zero_extendqisi2
 1421 0150 43F00103 		orr	r3, r3, #1
 1422 0154 6371     		strb	r3, [r4, #5]
 621:..\..\..\arduinoLCD\test\Pain Drain\libraries\lvgl\src\core/lv_indev.c **** 
 1423              		.loc 1 621 0
 1424 0156 FFF7FEFF 		bl	lv_tick_get
 1425              	.LVL169:
 1426 015a E064     		str	r0, [r4, #76]
 623:..\..\..\arduinoLCD\test\Pain Drain\libraries\lvgl\src\core/lv_indev.c ****                 bool editable_or_scrollable = lv_obj_is_editable(indev_obj_act) ||
 1427              		.loc 1 623 0
 1428 015c 6B68     		ldr	r3, [r5, #4]
 1429 015e 0A2B     		cmp	r3, #10
 1430 0160 31D1     		bne	.L89
 1431              	.LBB13:
 624:..\..\..\arduinoLCD\test\Pain Drain\libraries\lvgl\src\core/lv_indev.c ****                                               lv_obj_has_flag(indev_obj_act, LV_OBJ_FLAG_SCROLLABLE
 1432              		.loc 1 624 0
 1433 0162 584B     		ldr	r3, .L128
 1434 0164 1868     		ldr	r0, [r3]
 1435 0166 FFF7FEFF 		bl	lv_obj_is_editable
 1436              	.LVL170:
 1437 016a 38B9     		cbnz	r0, .L116
 625:..\..\..\arduinoLCD\test\Pain Drain\libraries\lvgl\src\core/lv_indev.c **** 
 1438              		.loc 1 625 0 discriminator 2
 1439 016c 1021     		movs	r1, #16
 1440 016e 554B     		ldr	r3, .L128
 1441 0170 1868     		ldr	r0, [r3]
 1442 0172 FFF7FEFF 		bl	lv_obj_has_flag
 1443              	.LVL171:
 624:..\..\..\arduinoLCD\test\Pain Drain\libraries\lvgl\src\core/lv_indev.c ****                                               lv_obj_has_flag(indev_obj_act, LV_OBJ_FLAG_SCROLLABLE
 1444              		.loc 1 624 0 discriminator 2
 1445 0176 18B9     		cbnz	r0, .L117
 624:..\..\..\arduinoLCD\test\Pain Drain\libraries\lvgl\src\core/lv_indev.c ****                                               lv_obj_has_flag(indev_obj_act, LV_OBJ_FLAG_SCROLLABLE
 1446              		.loc 1 624 0 is_stmt 0
 1447 0178 0023     		movs	r3, #0
 1448 017a 02E0     		b	.L90
 1449              	.L116:
 1450 017c 0123     		movs	r3, #1
ARM GAS  C:\Users\haske\AppData\Local\Temp\ccOQHbDo.s 			page 53


 1451 017e 00E0     		b	.L90
 1452              	.L117:
 1453 0180 0123     		movs	r3, #1
 1454              	.L90:
 1455              	.LVL172:
 628:..\..\..\arduinoLCD\test\Pain Drain\libraries\lvgl\src\core/lv_indev.c ****                     /*Don't leave edit mode if there is only one object (nowhere to navigate)*/
 1456              		.loc 1 628 0 is_stmt 1 discriminator 6
 1457 0182 A3B1     		cbz	r3, .L91
 630:..\..\..\arduinoLCD\test\Pain Drain\libraries\lvgl\src\core/lv_indev.c ****                         LV_LOG_INFO("toggling edit mode");
 1458              		.loc 1 630 0
 1459 0184 3046     		mov	r0, r6
 1460 0186 FFF7FEFF 		bl	lv_group_get_obj_count
 1461              	.LVL173:
 1462 018a 0128     		cmp	r0, #1
 1463 018c 1BD9     		bls	.L89
 632:..\..\..\arduinoLCD\test\Pain Drain\libraries\lvgl\src\core/lv_indev.c ****                         lv_obj_clear_state(indev_obj_act, LV_STATE_PRESSED);    /*Remove the presse
 1464              		.loc 1 632 0
 1465 018e 3046     		mov	r0, r6
 1466 0190 FFF7FEFF 		bl	lv_group_get_editing
 1467              	.LVL174:
 1468 0194 08B1     		cbz	r0, .L118
 1469 0196 0021     		movs	r1, #0
 1470 0198 00E0     		b	.L92
 1471              	.L118:
 1472 019a 0121     		movs	r1, #1
 1473              	.L92:
 632:..\..\..\arduinoLCD\test\Pain Drain\libraries\lvgl\src\core/lv_indev.c ****                         lv_obj_clear_state(indev_obj_act, LV_STATE_PRESSED);    /*Remove the presse
 1474              		.loc 1 632 0 is_stmt 0 discriminator 4
 1475 019c 3046     		mov	r0, r6
 1476 019e FFF7FEFF 		bl	lv_group_set_editing
 1477              	.LVL175:
 633:..\..\..\arduinoLCD\test\Pain Drain\libraries\lvgl\src\core/lv_indev.c ****                     }
 1478              		.loc 1 633 0 is_stmt 1 discriminator 4
 1479 01a2 2021     		movs	r1, #32
 1480 01a4 474B     		ldr	r3, .L128
 1481 01a6 1868     		ldr	r0, [r3]
 1482 01a8 FFF7FEFF 		bl	lv_obj_clear_state
 1483              	.LVL176:
 1484 01ac 0BE0     		b	.L89
 1485              	.LVL177:
 1486              	.L91:
 638:..\..\..\arduinoLCD\test\Pain Drain\libraries\lvgl\src\core/lv_indev.c ****                     if(indev_reset_check(&i->proc)) return;
 1487              		.loc 1 638 0
 1488 01ae 454B     		ldr	r3, .L128
 1489              	.LVL178:
 1490 01b0 5A68     		ldr	r2, [r3, #4]
 1491 01b2 0521     		movs	r1, #5
 1492 01b4 1868     		ldr	r0, [r3]
 1493 01b6 FFF7FEFF 		bl	lv_event_send
 1494              	.LVL179:
 639:..\..\..\arduinoLCD\test\Pain Drain\libraries\lvgl\src\core/lv_indev.c ****                 }
 1495              		.loc 1 639 0
 1496 01ba 201D     		adds	r0, r4, #4
 1497 01bc FFF7FEFF 		bl	indev_reset_check
 1498              	.LVL180:
 1499 01c0 0028     		cmp	r0, #0
 1500 01c2 40F02B81 		bne	.L74
ARM GAS  C:\Users\haske\AppData\Local\Temp\ccOQHbDo.s 			page 54


 1501              	.L89:
 1502              	.LBE13:
 643:..\..\..\arduinoLCD\test\Pain Drain\libraries\lvgl\src\core/lv_indev.c ****         }
 1503              		.loc 1 643 0
 1504 01c6 6379     		ldrb	r3, [r4, #5]	@ zero_extendqisi2
 1505 01c8 43F00103 		orr	r3, r3, #1
 1506 01cc 6371     		strb	r3, [r4, #5]
 1507 01ce CAE0     		b	.L83
 1508              	.L88:
 646:..\..\..\arduinoLCD\test\Pain Drain\libraries\lvgl\src\core/lv_indev.c **** 
 1509              		.loc 1 646 0
 1510 01d0 6379     		ldrb	r3, [r4, #5]	@ zero_extendqisi2
 1511 01d2 13F0010F 		tst	r3, #1
 1512 01d6 00F0C680 		beq	.L83
 646:..\..\..\arduinoLCD\test\Pain Drain\libraries\lvgl\src\core/lv_indev.c **** 
 1513              		.loc 1 646 0 is_stmt 0 discriminator 1
 1514 01da E06C     		ldr	r0, [r4, #76]
 1515 01dc FFF7FEFF 		bl	lv_tick_elaps
 1516              	.LVL181:
 1517 01e0 2368     		ldr	r3, [r4]
 1518 01e2 DB8B     		ldrh	r3, [r3, #30]
 1519 01e4 9842     		cmp	r0, r3
 1520 01e6 40F2BE80 		bls	.L83
 648:..\..\..\arduinoLCD\test\Pain Drain\libraries\lvgl\src\core/lv_indev.c **** 
 1521              		.loc 1 648 0 is_stmt 1
 1522 01ea FFF7FEFF 		bl	lv_tick_get
 1523              	.LVL182:
 1524 01ee E064     		str	r0, [r4, #76]
 650:..\..\..\arduinoLCD\test\Pain Drain\libraries\lvgl\src\core/lv_indev.c ****                 lv_event_send(indev_obj_act, LV_EVENT_LONG_PRESSED_REPEAT, indev_act);
 1525              		.loc 1 650 0
 1526 01f0 6968     		ldr	r1, [r5, #4]
 1527 01f2 0A29     		cmp	r1, #10
 1528 01f4 0CD1     		bne	.L93
 651:..\..\..\arduinoLCD\test\Pain Drain\libraries\lvgl\src\core/lv_indev.c ****                 if(indev_reset_check(&i->proc)) return;
 1529              		.loc 1 651 0
 1530 01f6 334B     		ldr	r3, .L128
 1531 01f8 5A68     		ldr	r2, [r3, #4]
 1532 01fa 0621     		movs	r1, #6
 1533 01fc 1868     		ldr	r0, [r3]
 1534 01fe FFF7FEFF 		bl	lv_event_send
 1535              	.LVL183:
 652:..\..\..\arduinoLCD\test\Pain Drain\libraries\lvgl\src\core/lv_indev.c ****             }
 1536              		.loc 1 652 0
 1537 0202 201D     		adds	r0, r4, #4
 1538 0204 FFF7FEFF 		bl	indev_reset_check
 1539              	.LVL184:
 1540 0208 0028     		cmp	r0, #0
 1541 020a 00F0AC80 		beq	.L83
 1542 020e F8BD     		pop	{r3, r4, r5, r6, r7, pc}
 1543              	.LVL185:
 1544              	.L93:
 654:..\..\..\arduinoLCD\test\Pain Drain\libraries\lvgl\src\core/lv_indev.c ****                 /*emulate encoder left*/
 1545              		.loc 1 654 0
 1546 0210 1429     		cmp	r1, #20
 1547 0212 04D1     		bne	.L94
 656:..\..\..\arduinoLCD\test\Pain Drain\libraries\lvgl\src\core/lv_indev.c ****             }
 1548              		.loc 1 656 0
ARM GAS  C:\Users\haske\AppData\Local\Temp\ccOQHbDo.s 			page 55


 1549 0214 B5F90C30 		ldrsh	r3, [r5, #12]
 1550 0218 013B     		subs	r3, r3, #1
 1551 021a AB81     		strh	r3, [r5, #12]	@ movhi
 1552 021c A3E0     		b	.L83
 1553              	.L94:
 658:..\..\..\arduinoLCD\test\Pain Drain\libraries\lvgl\src\core/lv_indev.c ****                 /*emulate encoder right*/
 1554              		.loc 1 658 0
 1555 021e 1329     		cmp	r1, #19
 1556 0220 04D1     		bne	.L95
 660:..\..\..\arduinoLCD\test\Pain Drain\libraries\lvgl\src\core/lv_indev.c ****             }
 1557              		.loc 1 660 0
 1558 0222 B5F90C30 		ldrsh	r3, [r5, #12]
 1559 0226 0133     		adds	r3, r3, #1
 1560 0228 AB81     		strh	r3, [r5, #12]	@ movhi
 1561 022a 9CE0     		b	.L83
 1562              	.L95:
 663:..\..\..\arduinoLCD\test\Pain Drain\libraries\lvgl\src\core/lv_indev.c ****                 if(indev_reset_check(&i->proc)) return;
 1563              		.loc 1 663 0
 1564 022c 3046     		mov	r0, r6
 1565 022e FFF7FEFF 		bl	lv_group_send_data
 1566              	.LVL186:
 664:..\..\..\arduinoLCD\test\Pain Drain\libraries\lvgl\src\core/lv_indev.c ****             }
 1567              		.loc 1 664 0
 1568 0232 201D     		adds	r0, r4, #4
 1569 0234 FFF7FEFF 		bl	indev_reset_check
 1570              	.LVL187:
 1571 0238 0028     		cmp	r0, #0
 1572 023a 00F09480 		beq	.L83
 1573 023e F8BD     		pop	{r3, r4, r5, r6, r7, pc}
 1574              	.LVL188:
 1575              	.L87:
 671:..\..\..\arduinoLCD\test\Pain Drain\libraries\lvgl\src\core/lv_indev.c ****         LV_LOG_INFO("released");
 1576              		.loc 1 671 0
 1577 0240 002B     		cmp	r3, #0
 1578 0242 40F09080 		bne	.L83
 671:..\..\..\arduinoLCD\test\Pain Drain\libraries\lvgl\src\core/lv_indev.c ****         LV_LOG_INFO("released");
 1579              		.loc 1 671 0 is_stmt 0 discriminator 1
 1580 0246 012F     		cmp	r7, #1
 1581 0248 40F08D80 		bne	.L83
 674:..\..\..\arduinoLCD\test\Pain Drain\libraries\lvgl\src\core/lv_indev.c ****             bool editable_or_scrollable = lv_obj_is_editable(indev_obj_act) ||
 1582              		.loc 1 674 0 is_stmt 1
 1583 024c 6B68     		ldr	r3, [r5, #4]
 1584 024e 0A2B     		cmp	r3, #10
 1585 0250 40F08380 		bne	.L96
 1586              	.LBB14:
 675:..\..\..\arduinoLCD\test\Pain Drain\libraries\lvgl\src\core/lv_indev.c ****                                           lv_obj_has_flag(indev_obj_act, LV_OBJ_FLAG_SCROLLABLE);
 1587              		.loc 1 675 0
 1588 0254 FFF7FEFF 		bl	lv_obj_is_editable
 1589              	.LVL189:
 1590 0258 38B9     		cbnz	r0, .L119
 676:..\..\..\arduinoLCD\test\Pain Drain\libraries\lvgl\src\core/lv_indev.c **** 
 1591              		.loc 1 676 0 discriminator 2
 1592 025a 1021     		movs	r1, #16
 1593 025c 194B     		ldr	r3, .L128
 1594 025e 1868     		ldr	r0, [r3]
 1595 0260 FFF7FEFF 		bl	lv_obj_has_flag
 1596              	.LVL190:
ARM GAS  C:\Users\haske\AppData\Local\Temp\ccOQHbDo.s 			page 56


 675:..\..\..\arduinoLCD\test\Pain Drain\libraries\lvgl\src\core/lv_indev.c ****                                           lv_obj_has_flag(indev_obj_act, LV_OBJ_FLAG_SCROLLABLE);
 1597              		.loc 1 675 0 discriminator 2
 1598 0264 18B9     		cbnz	r0, .L120
 675:..\..\..\arduinoLCD\test\Pain Drain\libraries\lvgl\src\core/lv_indev.c ****                                           lv_obj_has_flag(indev_obj_act, LV_OBJ_FLAG_SCROLLABLE);
 1599              		.loc 1 675 0 is_stmt 0
 1600 0266 0023     		movs	r3, #0
 1601 0268 02E0     		b	.L97
 1602              	.L119:
 1603 026a 0123     		movs	r3, #1
 1604 026c 00E0     		b	.L97
 1605              	.L120:
 1606 026e 0123     		movs	r3, #1
 1607              	.L97:
 1608              	.LVL191:
 679:..\..\..\arduinoLCD\test\Pain Drain\libraries\lvgl\src\core/lv_indev.c ****                 lv_event_send(indev_obj_act, LV_EVENT_RELEASED, indev_act);
 1609              		.loc 1 679 0 is_stmt 1 discriminator 6
 1610 0270 53BB     		cbnz	r3, .L98
 680:..\..\..\arduinoLCD\test\Pain Drain\libraries\lvgl\src\core/lv_indev.c ****                 if(indev_reset_check(&i->proc)) return;
 1611              		.loc 1 680 0
 1612 0272 144B     		ldr	r3, .L128
 1613              	.LVL192:
 1614 0274 5A68     		ldr	r2, [r3, #4]
 1615 0276 0821     		movs	r1, #8
 1616 0278 1868     		ldr	r0, [r3]
 1617 027a FFF7FEFF 		bl	lv_event_send
 1618              	.LVL193:
 681:..\..\..\arduinoLCD\test\Pain Drain\libraries\lvgl\src\core/lv_indev.c **** 
 1619              		.loc 1 681 0
 1620 027e 271D     		adds	r7, r4, #4
 1621              	.LVL194:
 1622 0280 3846     		mov	r0, r7
 1623 0282 FFF7FEFF 		bl	indev_reset_check
 1624              	.LVL195:
 1625 0286 0028     		cmp	r0, #0
 1626 0288 40F0C880 		bne	.L74
 683:..\..\..\arduinoLCD\test\Pain Drain\libraries\lvgl\src\core/lv_indev.c ****                 if(indev_reset_check(&i->proc)) return;
 1627              		.loc 1 683 0
 1628 028c 6379     		ldrb	r3, [r4, #5]	@ zero_extendqisi2
 1629 028e 13F0010F 		tst	r3, #1
 1630 0292 05D1     		bne	.L99
 683:..\..\..\arduinoLCD\test\Pain Drain\libraries\lvgl\src\core/lv_indev.c ****                 if(indev_reset_check(&i->proc)) return;
 1631              		.loc 1 683 0 is_stmt 0 discriminator 1
 1632 0294 0B4B     		ldr	r3, .L128
 1633 0296 5A68     		ldr	r2, [r3, #4]
 1634 0298 0421     		movs	r1, #4
 1635 029a 1868     		ldr	r0, [r3]
 1636 029c FFF7FEFF 		bl	lv_event_send
 1637              	.LVL196:
 1638              	.L99:
 684:..\..\..\arduinoLCD\test\Pain Drain\libraries\lvgl\src\core/lv_indev.c **** 
 1639              		.loc 1 684 0 is_stmt 1
 1640 02a0 3846     		mov	r0, r7
 1641 02a2 FFF7FEFF 		bl	indev_reset_check
 1642              	.LVL197:
 1643 02a6 0028     		cmp	r0, #0
 1644 02a8 40F0B880 		bne	.L74
 686:..\..\..\arduinoLCD\test\Pain Drain\libraries\lvgl\src\core/lv_indev.c ****                 if(indev_reset_check(&i->proc)) return;
ARM GAS  C:\Users\haske\AppData\Local\Temp\ccOQHbDo.s 			page 57


 1645              		.loc 1 686 0
 1646 02ac 054B     		ldr	r3, .L128
 1647 02ae 5A68     		ldr	r2, [r3, #4]
 1648 02b0 0721     		movs	r1, #7
 1649 02b2 1868     		ldr	r0, [r3]
 1650 02b4 FFF7FEFF 		bl	lv_event_send
 1651              	.LVL198:
 687:..\..\..\arduinoLCD\test\Pain Drain\libraries\lvgl\src\core/lv_indev.c **** 
 1652              		.loc 1 687 0
 1653 02b8 3846     		mov	r0, r7
 1654 02ba FFF7FEFF 		bl	indev_reset_check
 1655              	.LVL199:
 1656 02be 0028     		cmp	r0, #0
 1657 02c0 4BD0     		beq	.L96
 1658 02c2 F8BD     		pop	{r3, r4, r5, r6, r7, pc}
 1659              	.LVL200:
 1660              	.L129:
 1661              		.align	2
 1662              	.L128:
 1663 02c4 00000000 		.word	.LANCHOR0
 1664              	.LVL201:
 1665              	.L98:
 691:..\..\..\arduinoLCD\test\Pain Drain\libraries\lvgl\src\core/lv_indev.c ****                 /*Ignore long pressed enter release because it comes from mode switch*/
 1666              		.loc 1 691 0
 1667 02c8 3046     		mov	r0, r6
 1668 02ca FFF7FEFF 		bl	lv_group_get_editing
 1669              	.LVL202:
 1670 02ce 0028     		cmp	r0, #0
 1671 02d0 3BD0     		beq	.L100
 693:..\..\..\arduinoLCD\test\Pain Drain\libraries\lvgl\src\core/lv_indev.c ****                     lv_event_send(indev_obj_act, LV_EVENT_RELEASED, indev_act);
 1672              		.loc 1 693 0
 1673 02d2 6379     		ldrb	r3, [r4, #5]	@ zero_extendqisi2
 1674 02d4 13F0010F 		tst	r3, #1
 1675 02d8 04D0     		beq	.L101
 693:..\..\..\arduinoLCD\test\Pain Drain\libraries\lvgl\src\core/lv_indev.c ****                     lv_event_send(indev_obj_act, LV_EVENT_RELEASED, indev_act);
 1676              		.loc 1 693 0 is_stmt 0 discriminator 1
 1677 02da 3046     		mov	r0, r6
 1678 02dc FFF7FEFF 		bl	lv_group_get_obj_count
 1679              	.LVL203:
 1680 02e0 0128     		cmp	r0, #1
 1681 02e2 2CD8     		bhi	.L102
 1682              	.L101:
 694:..\..\..\arduinoLCD\test\Pain Drain\libraries\lvgl\src\core/lv_indev.c ****                     if(indev_reset_check(&i->proc)) return;
 1683              		.loc 1 694 0 is_stmt 1
 1684 02e4 4E4B     		ldr	r3, .L130
 1685 02e6 5A68     		ldr	r2, [r3, #4]
 1686 02e8 0821     		movs	r1, #8
 1687 02ea 1868     		ldr	r0, [r3]
 1688 02ec FFF7FEFF 		bl	lv_event_send
 1689              	.LVL204:
 695:..\..\..\arduinoLCD\test\Pain Drain\libraries\lvgl\src\core/lv_indev.c **** 
 1690              		.loc 1 695 0
 1691 02f0 271D     		adds	r7, r4, #4
 1692              	.LVL205:
 1693 02f2 3846     		mov	r0, r7
 1694 02f4 FFF7FEFF 		bl	indev_reset_check
 1695              	.LVL206:
ARM GAS  C:\Users\haske\AppData\Local\Temp\ccOQHbDo.s 			page 58


 1696 02f8 0028     		cmp	r0, #0
 1697 02fa 40F08F80 		bne	.L74
 697:..\..\..\arduinoLCD\test\Pain Drain\libraries\lvgl\src\core/lv_indev.c ****                     if(indev_reset_check(&i->proc)) return;
 1698              		.loc 1 697 0
 1699 02fe 484B     		ldr	r3, .L130
 1700 0300 5A68     		ldr	r2, [r3, #4]
 1701 0302 0421     		movs	r1, #4
 1702 0304 1868     		ldr	r0, [r3]
 1703 0306 FFF7FEFF 		bl	lv_event_send
 1704              	.LVL207:
 698:..\..\..\arduinoLCD\test\Pain Drain\libraries\lvgl\src\core/lv_indev.c **** 
 1705              		.loc 1 698 0
 1706 030a 3846     		mov	r0, r7
 1707 030c FFF7FEFF 		bl	indev_reset_check
 1708              	.LVL208:
 1709 0310 0028     		cmp	r0, #0
 1710 0312 40F08380 		bne	.L74
 700:..\..\..\arduinoLCD\test\Pain Drain\libraries\lvgl\src\core/lv_indev.c ****                     if(indev_reset_check(&i->proc)) return;
 1711              		.loc 1 700 0
 1712 0316 424B     		ldr	r3, .L130
 1713 0318 5A68     		ldr	r2, [r3, #4]
 1714 031a 0721     		movs	r1, #7
 1715 031c 1868     		ldr	r0, [r3]
 1716 031e FFF7FEFF 		bl	lv_event_send
 1717              	.LVL209:
 701:..\..\..\arduinoLCD\test\Pain Drain\libraries\lvgl\src\core/lv_indev.c **** 
 1718              		.loc 1 701 0
 1719 0322 3846     		mov	r0, r7
 1720 0324 FFF7FEFF 		bl	indev_reset_check
 1721              	.LVL210:
 1722 0328 0028     		cmp	r0, #0
 1723 032a 77D1     		bne	.L74
 703:..\..\..\arduinoLCD\test\Pain Drain\libraries\lvgl\src\core/lv_indev.c ****                     if(indev_reset_check(&i->proc)) return;
 1724              		.loc 1 703 0
 1725 032c 0A21     		movs	r1, #10
 1726 032e 3046     		mov	r0, r6
 1727 0330 FFF7FEFF 		bl	lv_group_send_data
 1728              	.LVL211:
 704:..\..\..\arduinoLCD\test\Pain Drain\libraries\lvgl\src\core/lv_indev.c ****                 }
 1729              		.loc 1 704 0
 1730 0334 3846     		mov	r0, r7
 1731 0336 FFF7FEFF 		bl	indev_reset_check
 1732              	.LVL212:
 1733 033a 70B1     		cbz	r0, .L96
 1734 033c F8BD     		pop	{r3, r4, r5, r6, r7, pc}
 1735              	.LVL213:
 1736              	.L102:
 707:..\..\..\arduinoLCD\test\Pain Drain\libraries\lvgl\src\core/lv_indev.c ****                 }
 1737              		.loc 1 707 0
 1738 033e 2021     		movs	r1, #32
 1739 0340 374B     		ldr	r3, .L130
 1740 0342 1868     		ldr	r0, [r3]
 1741 0344 FFF7FEFF 		bl	lv_obj_clear_state
 1742              	.LVL214:
 1743 0348 07E0     		b	.L96
 1744              	.L100:
 712:..\..\..\arduinoLCD\test\Pain Drain\libraries\lvgl\src\core/lv_indev.c ****                 LV_LOG_INFO("entering edit mode");
ARM GAS  C:\Users\haske\AppData\Local\Temp\ccOQHbDo.s 			page 59


 1745              		.loc 1 712 0
 1746 034a 6379     		ldrb	r3, [r4, #5]	@ zero_extendqisi2
 1747 034c 13F0010F 		tst	r3, #1
 1748 0350 03D1     		bne	.L96
 714:..\..\..\arduinoLCD\test\Pain Drain\libraries\lvgl\src\core/lv_indev.c ****             }
 1749              		.loc 1 714 0
 1750 0352 0121     		movs	r1, #1
 1751 0354 3046     		mov	r0, r6
 1752 0356 FFF7FEFF 		bl	lv_group_set_editing
 1753              	.LVL215:
 1754              	.L96:
 1755              	.LBE14:
 718:..\..\..\arduinoLCD\test\Pain Drain\libraries\lvgl\src\core/lv_indev.c ****         i->proc.long_pr_sent = 0;
 1756              		.loc 1 718 0
 1757 035a 0022     		movs	r2, #0
 1758 035c A264     		str	r2, [r4, #72]
 719:..\..\..\arduinoLCD\test\Pain Drain\libraries\lvgl\src\core/lv_indev.c ****     }
 1759              		.loc 1 719 0
 1760 035e 6379     		ldrb	r3, [r4, #5]	@ zero_extendqisi2
 1761 0360 62F30003 		bfi	r3, r2, #0, #1
 1762 0364 6371     		strb	r3, [r4, #5]
 1763              	.L83:
 721:..\..\..\arduinoLCD\test\Pain Drain\libraries\lvgl\src\core/lv_indev.c **** 
 1764              		.loc 1 721 0
 1765 0366 0022     		movs	r2, #0
 1766 0368 2D4B     		ldr	r3, .L130
 1767 036a 1A60     		str	r2, [r3]
 724:..\..\..\arduinoLCD\test\Pain Drain\libraries\lvgl\src\core/lv_indev.c ****         /*In edit mode send LEFT/RIGHT keys*/
 1768              		.loc 1 724 0
 1769 036c B5F90C30 		ldrsh	r3, [r5, #12]
 1770 0370 002B     		cmp	r3, #0
 1771 0372 53D0     		beq	.L74
 726:..\..\..\arduinoLCD\test\Pain Drain\libraries\lvgl\src\core/lv_indev.c ****             LV_LOG_INFO("rotated by %+d (edit)", data->enc_diff);
 1772              		.loc 1 726 0
 1773 0374 3046     		mov	r0, r6
 1774 0376 FFF7FEFF 		bl	lv_group_get_editing
 1775              	.LVL216:
 1776 037a 48B3     		cbz	r0, .L103
 1777              	.LBB15:
 729:..\..\..\arduinoLCD\test\Pain Drain\libraries\lvgl\src\core/lv_indev.c ****                 for(s = 0; s < -data->enc_diff; s++) {
 1778              		.loc 1 729 0
 1779 037c B5F90C30 		ldrsh	r3, [r5, #12]
 1780 0380 002B     		cmp	r3, #0
 1781 0382 12DA     		bge	.L125
 1782 0384 0AE0     		b	.L121
 1783              	.LVL217:
 1784              	.L106:
 731:..\..\..\arduinoLCD\test\Pain Drain\libraries\lvgl\src\core/lv_indev.c ****                     if(indev_reset_check(&i->proc)) return;
 1785              		.loc 1 731 0
 1786 0386 1421     		movs	r1, #20
 1787 0388 3046     		mov	r0, r6
 1788 038a FFF7FEFF 		bl	lv_group_send_data
 1789              	.LVL218:
 732:..\..\..\arduinoLCD\test\Pain Drain\libraries\lvgl\src\core/lv_indev.c ****                 }
 1790              		.loc 1 732 0
 1791 038e 201D     		adds	r0, r4, #4
 1792 0390 FFF7FEFF 		bl	indev_reset_check
ARM GAS  C:\Users\haske\AppData\Local\Temp\ccOQHbDo.s 			page 60


 1793              	.LVL219:
 1794 0394 0028     		cmp	r0, #0
 1795 0396 41D1     		bne	.L74
 730:..\..\..\arduinoLCD\test\Pain Drain\libraries\lvgl\src\core/lv_indev.c ****                     lv_group_send_data(g, LV_KEY_LEFT);
 1796              		.loc 1 730 0 discriminator 2
 1797 0398 0137     		adds	r7, r7, #1
 1798              	.LVL220:
 1799 039a 00E0     		b	.L104
 1800              	.LVL221:
 1801              	.L121:
 1802 039c 0027     		movs	r7, #0
 1803              	.L104:
 1804              	.LVL222:
 730:..\..\..\arduinoLCD\test\Pain Drain\libraries\lvgl\src\core/lv_indev.c ****                     lv_group_send_data(g, LV_KEY_LEFT);
 1805              		.loc 1 730 0 is_stmt 0 discriminator 1
 1806 039e B5F90C30 		ldrsh	r3, [r5, #12]
 1807 03a2 5B42     		negs	r3, r3
 1808 03a4 9F42     		cmp	r7, r3
 1809 03a6 EEDB     		blt	.L106
 1810 03a8 F8BD     		pop	{r3, r4, r5, r6, r7, pc}
 1811              	.LVL223:
 1812              	.L125:
 735:..\..\..\arduinoLCD\test\Pain Drain\libraries\lvgl\src\core/lv_indev.c ****                 for(s = 0; s < data->enc_diff; s++) {
 1813              		.loc 1 735 0 is_stmt 1
 1814 03aa 002B     		cmp	r3, #0
 1815 03ac 0ADC     		bgt	.L122
 1816 03ae F8BD     		pop	{r3, r4, r5, r6, r7, pc}
 1817              	.LVL224:
 1818              	.L108:
 737:..\..\..\arduinoLCD\test\Pain Drain\libraries\lvgl\src\core/lv_indev.c ****                     if(indev_reset_check(&i->proc)) return;
 1819              		.loc 1 737 0
 1820 03b0 1321     		movs	r1, #19
 1821 03b2 3046     		mov	r0, r6
 1822 03b4 FFF7FEFF 		bl	lv_group_send_data
 1823              	.LVL225:
 738:..\..\..\arduinoLCD\test\Pain Drain\libraries\lvgl\src\core/lv_indev.c ****                 }
 1824              		.loc 1 738 0
 1825 03b8 201D     		adds	r0, r4, #4
 1826 03ba FFF7FEFF 		bl	indev_reset_check
 1827              	.LVL226:
 1828 03be 68BB     		cbnz	r0, .L74
 736:..\..\..\arduinoLCD\test\Pain Drain\libraries\lvgl\src\core/lv_indev.c ****                     lv_group_send_data(g, LV_KEY_RIGHT);
 1829              		.loc 1 736 0 discriminator 2
 1830 03c0 0137     		adds	r7, r7, #1
 1831              	.LVL227:
 1832 03c2 00E0     		b	.L107
 1833              	.LVL228:
 1834              	.L122:
 1835 03c4 0027     		movs	r7, #0
 1836              	.L107:
 1837              	.LVL229:
 736:..\..\..\arduinoLCD\test\Pain Drain\libraries\lvgl\src\core/lv_indev.c ****                     lv_group_send_data(g, LV_KEY_RIGHT);
 1838              		.loc 1 736 0 is_stmt 0 discriminator 1
 1839 03c6 B5F90C30 		ldrsh	r3, [r5, #12]
 1840 03ca 9F42     		cmp	r7, r3
 1841 03cc F0DB     		blt	.L108
 1842 03ce F8BD     		pop	{r3, r4, r5, r6, r7, pc}
ARM GAS  C:\Users\haske\AppData\Local\Temp\ccOQHbDo.s 			page 61


 1843              	.LVL230:
 1844              	.L103:
 1845              	.LBE15:
 1846              	.LBB16:
 746:..\..\..\arduinoLCD\test\Pain Drain\libraries\lvgl\src\core/lv_indev.c ****                 for(s = 0; s < -data->enc_diff; s++) {
 1847              		.loc 1 746 0 is_stmt 1
 1848 03d0 B5F90C30 		ldrsh	r3, [r5, #12]
 1849 03d4 002B     		cmp	r3, #0
 1850 03d6 10DA     		bge	.L126
 1851 03d8 08E0     		b	.L123
 1852              	.LVL231:
 1853              	.L111:
 748:..\..\..\arduinoLCD\test\Pain Drain\libraries\lvgl\src\core/lv_indev.c ****                     if(indev_reset_check(&i->proc)) return;
 1854              		.loc 1 748 0
 1855 03da 3046     		mov	r0, r6
 1856 03dc FFF7FEFF 		bl	lv_group_focus_prev
 1857              	.LVL232:
 749:..\..\..\arduinoLCD\test\Pain Drain\libraries\lvgl\src\core/lv_indev.c ****                 }
 1858              		.loc 1 749 0
 1859 03e0 201D     		adds	r0, r4, #4
 1860 03e2 FFF7FEFF 		bl	indev_reset_check
 1861              	.LVL233:
 1862 03e6 C8B9     		cbnz	r0, .L74
 747:..\..\..\arduinoLCD\test\Pain Drain\libraries\lvgl\src\core/lv_indev.c ****                     lv_group_focus_prev(g);
 1863              		.loc 1 747 0 discriminator 2
 1864 03e8 0137     		adds	r7, r7, #1
 1865              	.LVL234:
 1866 03ea 00E0     		b	.L109
 1867              	.LVL235:
 1868              	.L123:
 1869 03ec 0027     		movs	r7, #0
 1870              	.L109:
 1871              	.LVL236:
 747:..\..\..\arduinoLCD\test\Pain Drain\libraries\lvgl\src\core/lv_indev.c ****                     lv_group_focus_prev(g);
 1872              		.loc 1 747 0 is_stmt 0 discriminator 1
 1873 03ee B5F90C30 		ldrsh	r3, [r5, #12]
 1874 03f2 5B42     		negs	r3, r3
 1875 03f4 9F42     		cmp	r7, r3
 1876 03f6 F0DB     		blt	.L111
 1877 03f8 F8BD     		pop	{r3, r4, r5, r6, r7, pc}
 1878              	.LVL237:
 1879              	.L126:
 752:..\..\..\arduinoLCD\test\Pain Drain\libraries\lvgl\src\core/lv_indev.c ****                 for(s = 0; s < data->enc_diff; s++) {
 1880              		.loc 1 752 0 is_stmt 1
 1881 03fa 002B     		cmp	r3, #0
 1882 03fc 09DC     		bgt	.L124
 1883 03fe F8BD     		pop	{r3, r4, r5, r6, r7, pc}
 1884              	.LVL238:
 1885              	.L113:
 754:..\..\..\arduinoLCD\test\Pain Drain\libraries\lvgl\src\core/lv_indev.c ****                     if(indev_reset_check(&i->proc)) return;
 1886              		.loc 1 754 0
 1887 0400 3046     		mov	r0, r6
 1888 0402 FFF7FEFF 		bl	lv_group_focus_next
 1889              	.LVL239:
 755:..\..\..\arduinoLCD\test\Pain Drain\libraries\lvgl\src\core/lv_indev.c ****                 }
 1890              		.loc 1 755 0
 1891 0406 201D     		adds	r0, r4, #4
ARM GAS  C:\Users\haske\AppData\Local\Temp\ccOQHbDo.s 			page 62


 1892 0408 FFF7FEFF 		bl	indev_reset_check
 1893              	.LVL240:
 1894 040c 30B9     		cbnz	r0, .L74
 753:..\..\..\arduinoLCD\test\Pain Drain\libraries\lvgl\src\core/lv_indev.c ****                     lv_group_focus_next(g);
 1895              		.loc 1 753 0 discriminator 2
 1896 040e 0137     		adds	r7, r7, #1
 1897              	.LVL241:
 1898 0410 00E0     		b	.L112
 1899              	.LVL242:
 1900              	.L124:
 1901 0412 0027     		movs	r7, #0
 1902              	.L112:
 1903              	.LVL243:
 753:..\..\..\arduinoLCD\test\Pain Drain\libraries\lvgl\src\core/lv_indev.c ****                     lv_group_focus_next(g);
 1904              		.loc 1 753 0 is_stmt 0 discriminator 1
 1905 0414 B5F90C30 		ldrsh	r3, [r5, #12]
 1906 0418 9F42     		cmp	r7, r3
 1907 041a F1DB     		blt	.L113
 1908              	.LVL244:
 1909              	.L74:
 1910 041c F8BD     		pop	{r3, r4, r5, r6, r7, pc}
 1911              	.L131:
 1912 041e 00BF     		.align	2
 1913              	.L130:
 1914 0420 00000000 		.word	.LANCHOR0
 1915              	.LBE16:
 1916              		.cfi_endproc
 1917              	.LFE186:
 1918              		.size	indev_encoder_proc, .-indev_encoder_proc
 1919              		.section	.text.lv_indev_enable,"ax",%progbits
 1920              		.align	2
 1921              		.global	lv_indev_enable
 1922              		.thumb
 1923              		.thumb_func
 1924              		.type	lv_indev_enable, %function
 1925              	lv_indev_enable:
 1926              	.LFB166:
 124:..\..\..\arduinoLCD\test\Pain Drain\libraries\lvgl\src\core/lv_indev.c ****     uint8_t enable = en ? 0 : 1;
 1927              		.loc 1 124 0 is_stmt 1
 1928              		.cfi_startproc
 1929              		@ args = 0, pretend = 0, frame = 0
 1930              		@ frame_needed = 0, uses_anonymous_args = 0
 1931              	.LVL245:
 1932 0000 10B5     		push	{r4, lr}
 1933              		.cfi_def_cfa_offset 8
 1934              		.cfi_offset 4, -8
 1935              		.cfi_offset 14, -4
 125:..\..\..\arduinoLCD\test\Pain Drain\libraries\lvgl\src\core/lv_indev.c **** 
 1936              		.loc 1 125 0
 1937 0002 09B1     		cbz	r1, .L138
 1938 0004 0024     		movs	r4, #0
 1939 0006 00E0     		b	.L133
 1940              	.L138:
 1941 0008 0124     		movs	r4, #1
 1942              	.L133:
 1943              	.LVL246:
 127:..\..\..\arduinoLCD\test\Pain Drain\libraries\lvgl\src\core/lv_indev.c ****         indev->proc.disabled = enable;
ARM GAS  C:\Users\haske\AppData\Local\Temp\ccOQHbDo.s 			page 63


 1944              		.loc 1 127 0 discriminator 4
 1945 000a 20B1     		cbz	r0, .L134
 128:..\..\..\arduinoLCD\test\Pain Drain\libraries\lvgl\src\core/lv_indev.c ****     }
 1946              		.loc 1 128 0
 1947 000c 4379     		ldrb	r3, [r0, #5]	@ zero_extendqisi2
 1948 000e 64F38203 		bfi	r3, r4, #2, #1
 1949 0012 4371     		strb	r3, [r0, #5]
 1950 0014 10BD     		pop	{r4, pc}
 1951              	.LVL247:
 1952              	.L134:
 1953              	.LBB17:
 131:..\..\..\arduinoLCD\test\Pain Drain\libraries\lvgl\src\core/lv_indev.c ****         while(i) {
 1954              		.loc 1 131 0
 1955 0016 0020     		movs	r0, #0
 1956              	.LVL248:
 1957 0018 FFF7FEFF 		bl	lv_indev_get_next
 1958              	.LVL249:
 132:..\..\..\arduinoLCD\test\Pain Drain\libraries\lvgl\src\core/lv_indev.c ****             i->proc.disabled = enable;
 1959              		.loc 1 132 0
 1960 001c 05E0     		b	.L136
 1961              	.L137:
 133:..\..\..\arduinoLCD\test\Pain Drain\libraries\lvgl\src\core/lv_indev.c ****             i = lv_indev_get_next(i);
 1962              		.loc 1 133 0
 1963 001e 4379     		ldrb	r3, [r0, #5]	@ zero_extendqisi2
 1964 0020 64F38203 		bfi	r3, r4, #2, #1
 1965 0024 4371     		strb	r3, [r0, #5]
 134:..\..\..\arduinoLCD\test\Pain Drain\libraries\lvgl\src\core/lv_indev.c ****         }
 1966              		.loc 1 134 0
 1967 0026 FFF7FEFF 		bl	lv_indev_get_next
 1968              	.LVL250:
 1969              	.L136:
 132:..\..\..\arduinoLCD\test\Pain Drain\libraries\lvgl\src\core/lv_indev.c ****             i->proc.disabled = enable;
 1970              		.loc 1 132 0
 1971 002a 0028     		cmp	r0, #0
 1972 002c F7D1     		bne	.L137
 1973 002e 10BD     		pop	{r4, pc}
 1974              	.LBE17:
 1975              		.cfi_endproc
 1976              	.LFE166:
 1977              		.size	lv_indev_enable, .-lv_indev_enable
 1978              		.section	.text.lv_indev_get_act,"ax",%progbits
 1979              		.align	2
 1980              		.global	lv_indev_get_act
 1981              		.thumb
 1982              		.thumb_func
 1983              		.type	lv_indev_get_act, %function
 1984              	lv_indev_get_act:
 1985              	.LFB167:
 140:..\..\..\arduinoLCD\test\Pain Drain\libraries\lvgl\src\core/lv_indev.c ****     return indev_act;
 1986              		.loc 1 140 0
 1987              		.cfi_startproc
 1988              		@ args = 0, pretend = 0, frame = 0
 1989              		@ frame_needed = 0, uses_anonymous_args = 0
 1990              		@ link register save eliminated.
 142:..\..\..\arduinoLCD\test\Pain Drain\libraries\lvgl\src\core/lv_indev.c **** 
 1991              		.loc 1 142 0
 1992 0000 014B     		ldr	r3, .L141
ARM GAS  C:\Users\haske\AppData\Local\Temp\ccOQHbDo.s 			page 64


 1993 0002 5868     		ldr	r0, [r3, #4]
 1994 0004 7047     		bx	lr
 1995              	.L142:
 1996 0006 00BF     		.align	2
 1997              	.L141:
 1998 0008 00000000 		.word	.LANCHOR0
 1999              		.cfi_endproc
 2000              	.LFE167:
 2001              		.size	lv_indev_get_act, .-lv_indev_get_act
 2002              		.section	.text.lv_indev_get_type,"ax",%progbits
 2003              		.align	2
 2004              		.global	lv_indev_get_type
 2005              		.thumb
 2006              		.thumb_func
 2007              		.type	lv_indev_get_type, %function
 2008              	lv_indev_get_type:
 2009              	.LFB168:
 145:..\..\..\arduinoLCD\test\Pain Drain\libraries\lvgl\src\core/lv_indev.c ****     if(indev == NULL) return LV_INDEV_TYPE_NONE;
 2010              		.loc 1 145 0
 2011              		.cfi_startproc
 2012              		@ args = 0, pretend = 0, frame = 0
 2013              		@ frame_needed = 0, uses_anonymous_args = 0
 2014              		@ link register save eliminated.
 2015              	.LVL251:
 146:..\..\..\arduinoLCD\test\Pain Drain\libraries\lvgl\src\core/lv_indev.c **** 
 2016              		.loc 1 146 0
 2017 0000 10B1     		cbz	r0, .L145
 148:..\..\..\arduinoLCD\test\Pain Drain\libraries\lvgl\src\core/lv_indev.c **** }
 2018              		.loc 1 148 0
 2019 0002 0368     		ldr	r3, [r0]
 2020 0004 1878     		ldrb	r0, [r3]	@ zero_extendqisi2
 2021              	.LVL252:
 2022 0006 7047     		bx	lr
 2023              	.LVL253:
 2024              	.L145:
 146:..\..\..\arduinoLCD\test\Pain Drain\libraries\lvgl\src\core/lv_indev.c **** 
 2025              		.loc 1 146 0
 2026 0008 0020     		movs	r0, #0
 2027              	.LVL254:
 149:..\..\..\arduinoLCD\test\Pain Drain\libraries\lvgl\src\core/lv_indev.c **** 
 2028              		.loc 1 149 0
 2029 000a 7047     		bx	lr
 2030              		.cfi_endproc
 2031              	.LFE168:
 2032              		.size	lv_indev_get_type, .-lv_indev_get_type
 2033              		.section	.text.lv_indev_reset,"ax",%progbits
 2034              		.align	2
 2035              		.global	lv_indev_reset
 2036              		.thumb
 2037              		.thumb_func
 2038              		.type	lv_indev_reset, %function
 2039              	lv_indev_reset:
 2040              	.LFB169:
 152:..\..\..\arduinoLCD\test\Pain Drain\libraries\lvgl\src\core/lv_indev.c ****     if(indev) {
 2041              		.loc 1 152 0
 2042              		.cfi_startproc
 2043              		@ args = 0, pretend = 0, frame = 0
ARM GAS  C:\Users\haske\AppData\Local\Temp\ccOQHbDo.s 			page 65


 2044              		@ frame_needed = 0, uses_anonymous_args = 0
 2045              	.LVL255:
 153:..\..\..\arduinoLCD\test\Pain Drain\libraries\lvgl\src\core/lv_indev.c ****         indev->proc.reset_query = 1;
 2046              		.loc 1 153 0
 2047 0000 20B3     		cbz	r0, .L147
 2048 0002 0346     		mov	r3, r0
 154:..\..\..\arduinoLCD\test\Pain Drain\libraries\lvgl\src\core/lv_indev.c ****         if(indev_act == indev) indev_obj_act = NULL;
 2049              		.loc 1 154 0
 2050 0004 4279     		ldrb	r2, [r0, #5]	@ zero_extendqisi2
 2051 0006 42F00202 		orr	r2, r2, #2
 2052 000a 4271     		strb	r2, [r0, #5]
 155:..\..\..\arduinoLCD\test\Pain Drain\libraries\lvgl\src\core/lv_indev.c ****         if(indev->driver->type == LV_INDEV_TYPE_POINTER || indev->driver->type == LV_INDEV_TYPE_KEY
 2053              		.loc 1 155 0
 2054 000c 244A     		ldr	r2, .L165
 2055 000e 5268     		ldr	r2, [r2, #4]
 2056 0010 9042     		cmp	r0, r2
 2057 0012 02D1     		bne	.L148
 155:..\..\..\arduinoLCD\test\Pain Drain\libraries\lvgl\src\core/lv_indev.c ****         if(indev->driver->type == LV_INDEV_TYPE_POINTER || indev->driver->type == LV_INDEV_TYPE_KEY
 2058              		.loc 1 155 0 is_stmt 0 discriminator 1
 2059 0014 0020     		movs	r0, #0
 2060              	.LVL256:
 2061 0016 224A     		ldr	r2, .L165
 2062 0018 1060     		str	r0, [r2]
 2063              	.L148:
 156:..\..\..\arduinoLCD\test\Pain Drain\libraries\lvgl\src\core/lv_indev.c ****             if(obj == NULL || indev->proc.types.pointer.last_pressed == obj) {
 2064              		.loc 1 156 0 is_stmt 1
 2065 001a 1A68     		ldr	r2, [r3]
 2066 001c 1278     		ldrb	r2, [r2]	@ zero_extendqisi2
 2067 001e 013A     		subs	r2, r2, #1
 2068 0020 D2B2     		uxtb	r2, r2
 2069 0022 012A     		cmp	r2, #1
 2070 0024 11D8     		bhi	.L164
 157:..\..\..\arduinoLCD\test\Pain Drain\libraries\lvgl\src\core/lv_indev.c ****                 indev->proc.types.pointer.last_pressed = NULL;
 2071              		.loc 1 157 0
 2072 0026 11B1     		cbz	r1, .L150
 157:..\..\..\arduinoLCD\test\Pain Drain\libraries\lvgl\src\core/lv_indev.c ****                 indev->proc.types.pointer.last_pressed = NULL;
 2073              		.loc 1 157 0 is_stmt 0 discriminator 1
 2074 0028 5A6B     		ldr	r2, [r3, #52]
 2075 002a 9142     		cmp	r1, r2
 2076 002c 01D1     		bne	.L151
 2077              	.L150:
 158:..\..\..\arduinoLCD\test\Pain Drain\libraries\lvgl\src\core/lv_indev.c ****             }
 2078              		.loc 1 158 0 is_stmt 1
 2079 002e 0022     		movs	r2, #0
 2080 0030 5A63     		str	r2, [r3, #52]
 2081              	.L151:
 160:..\..\..\arduinoLCD\test\Pain Drain\libraries\lvgl\src\core/lv_indev.c ****                 indev->proc.types.pointer.act_obj = NULL;
 2082              		.loc 1 160 0
 2083 0032 11B1     		cbz	r1, .L152
 160:..\..\..\arduinoLCD\test\Pain Drain\libraries\lvgl\src\core/lv_indev.c ****                 indev->proc.types.pointer.act_obj = NULL;
 2084              		.loc 1 160 0 is_stmt 0 discriminator 1
 2085 0034 9A6A     		ldr	r2, [r3, #40]
 2086 0036 9142     		cmp	r1, r2
 2087 0038 01D1     		bne	.L153
 2088              	.L152:
 161:..\..\..\arduinoLCD\test\Pain Drain\libraries\lvgl\src\core/lv_indev.c ****             }
 2089              		.loc 1 161 0 is_stmt 1
ARM GAS  C:\Users\haske\AppData\Local\Temp\ccOQHbDo.s 			page 66


 2090 003a 0022     		movs	r2, #0
 2091 003c 9A62     		str	r2, [r3, #40]
 2092              	.L153:
 163:..\..\..\arduinoLCD\test\Pain Drain\libraries\lvgl\src\core/lv_indev.c ****                 indev->proc.types.pointer.last_obj = NULL;
 2093              		.loc 1 163 0
 2094 003e 11B1     		cbz	r1, .L154
 163:..\..\..\arduinoLCD\test\Pain Drain\libraries\lvgl\src\core/lv_indev.c ****                 indev->proc.types.pointer.last_obj = NULL;
 2095              		.loc 1 163 0 is_stmt 0 discriminator 1
 2096 0040 DA6A     		ldr	r2, [r3, #44]
 2097 0042 9142     		cmp	r1, r2
 2098 0044 01D1     		bne	.L164
 2099              	.L154:
 164:..\..\..\arduinoLCD\test\Pain Drain\libraries\lvgl\src\core/lv_indev.c ****             }
 2100              		.loc 1 164 0 is_stmt 1
 2101 0046 0022     		movs	r2, #0
 2102 0048 DA62     		str	r2, [r3, #44]
 2103              	.L164:
 2104 004a 7047     		bx	lr
 2105              	.LVL257:
 2106              	.L147:
 152:..\..\..\arduinoLCD\test\Pain Drain\libraries\lvgl\src\core/lv_indev.c ****     if(indev) {
 2107              		.loc 1 152 0
 2108 004c 10B5     		push	{r4, lr}
 2109              		.cfi_def_cfa_offset 8
 2110              		.cfi_offset 4, -8
 2111              		.cfi_offset 14, -4
 2112 004e 0C46     		mov	r4, r1
 2113              	.LBB18:
 169:..\..\..\arduinoLCD\test\Pain Drain\libraries\lvgl\src\core/lv_indev.c ****         while(i) {
 2114              		.loc 1 169 0
 2115 0050 0020     		movs	r0, #0
 2116              	.LVL258:
 2117 0052 FFF7FEFF 		bl	lv_indev_get_next
 2118              	.LVL259:
 170:..\..\..\arduinoLCD\test\Pain Drain\libraries\lvgl\src\core/lv_indev.c ****             i->proc.reset_query = 1;
 2119              		.loc 1 170 0
 2120 0056 1DE0     		b	.L155
 2121              	.L162:
 171:..\..\..\arduinoLCD\test\Pain Drain\libraries\lvgl\src\core/lv_indev.c ****             if(i->driver->type == LV_INDEV_TYPE_POINTER || i->driver->type == LV_INDEV_TYPE_KEYPAD)
 2122              		.loc 1 171 0
 2123 0058 4379     		ldrb	r3, [r0, #5]	@ zero_extendqisi2
 2124 005a 43F00203 		orr	r3, r3, #2
 2125 005e 4371     		strb	r3, [r0, #5]
 172:..\..\..\arduinoLCD\test\Pain Drain\libraries\lvgl\src\core/lv_indev.c ****                 if(obj == NULL || i->proc.types.pointer.last_pressed == obj) {
 2126              		.loc 1 172 0
 2127 0060 0368     		ldr	r3, [r0]
 2128 0062 1B78     		ldrb	r3, [r3]	@ zero_extendqisi2
 2129 0064 013B     		subs	r3, r3, #1
 2130 0066 DBB2     		uxtb	r3, r3
 2131 0068 012B     		cmp	r3, #1
 2132 006a 11D8     		bhi	.L156
 173:..\..\..\arduinoLCD\test\Pain Drain\libraries\lvgl\src\core/lv_indev.c ****                     i->proc.types.pointer.last_pressed = NULL;
 2133              		.loc 1 173 0
 2134 006c 14B1     		cbz	r4, .L157
 173:..\..\..\arduinoLCD\test\Pain Drain\libraries\lvgl\src\core/lv_indev.c ****                     i->proc.types.pointer.last_pressed = NULL;
 2135              		.loc 1 173 0 is_stmt 0 discriminator 1
 2136 006e 436B     		ldr	r3, [r0, #52]
ARM GAS  C:\Users\haske\AppData\Local\Temp\ccOQHbDo.s 			page 67


 2137 0070 9C42     		cmp	r4, r3
 2138 0072 01D1     		bne	.L158
 2139              	.L157:
 174:..\..\..\arduinoLCD\test\Pain Drain\libraries\lvgl\src\core/lv_indev.c ****                 }
 2140              		.loc 1 174 0 is_stmt 1
 2141 0074 0023     		movs	r3, #0
 2142 0076 4363     		str	r3, [r0, #52]
 2143              	.L158:
 176:..\..\..\arduinoLCD\test\Pain Drain\libraries\lvgl\src\core/lv_indev.c ****                     i->proc.types.pointer.act_obj = NULL;
 2144              		.loc 1 176 0
 2145 0078 14B1     		cbz	r4, .L159
 176:..\..\..\arduinoLCD\test\Pain Drain\libraries\lvgl\src\core/lv_indev.c ****                     i->proc.types.pointer.act_obj = NULL;
 2146              		.loc 1 176 0 is_stmt 0 discriminator 1
 2147 007a 836A     		ldr	r3, [r0, #40]
 2148 007c 9C42     		cmp	r4, r3
 2149 007e 01D1     		bne	.L160
 2150              	.L159:
 177:..\..\..\arduinoLCD\test\Pain Drain\libraries\lvgl\src\core/lv_indev.c ****                 }
 2151              		.loc 1 177 0 is_stmt 1
 2152 0080 0023     		movs	r3, #0
 2153 0082 8362     		str	r3, [r0, #40]
 2154              	.L160:
 179:..\..\..\arduinoLCD\test\Pain Drain\libraries\lvgl\src\core/lv_indev.c ****                     i->proc.types.pointer.last_obj = NULL;
 2155              		.loc 1 179 0
 2156 0084 14B1     		cbz	r4, .L161
 179:..\..\..\arduinoLCD\test\Pain Drain\libraries\lvgl\src\core/lv_indev.c ****                     i->proc.types.pointer.last_obj = NULL;
 2157              		.loc 1 179 0 is_stmt 0 discriminator 1
 2158 0086 C36A     		ldr	r3, [r0, #44]
 2159 0088 9C42     		cmp	r4, r3
 2160 008a 01D1     		bne	.L156
 2161              	.L161:
 180:..\..\..\arduinoLCD\test\Pain Drain\libraries\lvgl\src\core/lv_indev.c ****                 }
 2162              		.loc 1 180 0 is_stmt 1
 2163 008c 0023     		movs	r3, #0
 2164 008e C362     		str	r3, [r0, #44]
 2165              	.L156:
 183:..\..\..\arduinoLCD\test\Pain Drain\libraries\lvgl\src\core/lv_indev.c ****         }
 2166              		.loc 1 183 0
 2167 0090 FFF7FEFF 		bl	lv_indev_get_next
 2168              	.LVL260:
 2169              	.L155:
 170:..\..\..\arduinoLCD\test\Pain Drain\libraries\lvgl\src\core/lv_indev.c ****             i->proc.reset_query = 1;
 2170              		.loc 1 170 0
 2171 0094 0028     		cmp	r0, #0
 2172 0096 DFD1     		bne	.L162
 185:..\..\..\arduinoLCD\test\Pain Drain\libraries\lvgl\src\core/lv_indev.c ****     }
 2173              		.loc 1 185 0
 2174 0098 0022     		movs	r2, #0
 2175 009a 014B     		ldr	r3, .L165
 2176 009c 1A60     		str	r2, [r3]
 2177 009e 10BD     		pop	{r4, pc}
 2178              	.LVL261:
 2179              	.L166:
 2180              		.align	2
 2181              	.L165:
 2182 00a0 00000000 		.word	.LANCHOR0
 2183              	.LBE18:
ARM GAS  C:\Users\haske\AppData\Local\Temp\ccOQHbDo.s 			page 68


 2184              		.cfi_endproc
 2185              	.LFE169:
 2186              		.size	lv_indev_reset, .-lv_indev_reset
 2187              		.section	.text.lv_indev_reset_long_press,"ax",%progbits
 2188              		.align	2
 2189              		.global	lv_indev_reset_long_press
 2190              		.thumb
 2191              		.thumb_func
 2192              		.type	lv_indev_reset_long_press, %function
 2193              	lv_indev_reset_long_press:
 2194              	.LFB170:
 190:..\..\..\arduinoLCD\test\Pain Drain\libraries\lvgl\src\core/lv_indev.c ****     indev->proc.long_pr_sent         = 0;
 2195              		.loc 1 190 0
 2196              		.cfi_startproc
 2197              		@ args = 0, pretend = 0, frame = 0
 2198              		@ frame_needed = 0, uses_anonymous_args = 0
 2199              	.LVL262:
 2200 0000 10B5     		push	{r4, lr}
 2201              		.cfi_def_cfa_offset 8
 2202              		.cfi_offset 4, -8
 2203              		.cfi_offset 14, -4
 2204 0002 0446     		mov	r4, r0
 191:..\..\..\arduinoLCD\test\Pain Drain\libraries\lvgl\src\core/lv_indev.c ****     indev->proc.longpr_rep_timestamp = lv_tick_get();
 2205              		.loc 1 191 0
 2206 0004 4379     		ldrb	r3, [r0, #5]	@ zero_extendqisi2
 2207 0006 6FF30003 		bfc	r3, #0, #1
 2208 000a 4371     		strb	r3, [r0, #5]
 192:..\..\..\arduinoLCD\test\Pain Drain\libraries\lvgl\src\core/lv_indev.c ****     indev->proc.pr_timestamp         = lv_tick_get();
 2209              		.loc 1 192 0
 2210 000c FFF7FEFF 		bl	lv_tick_get
 2211              	.LVL263:
 2212 0010 E064     		str	r0, [r4, #76]
 193:..\..\..\arduinoLCD\test\Pain Drain\libraries\lvgl\src\core/lv_indev.c **** }
 2213              		.loc 1 193 0
 2214 0012 FFF7FEFF 		bl	lv_tick_get
 2215              	.LVL264:
 2216 0016 A064     		str	r0, [r4, #72]
 2217 0018 10BD     		pop	{r4, pc}
 2218              		.cfi_endproc
 2219              	.LFE170:
 2220              		.size	lv_indev_reset_long_press, .-lv_indev_reset_long_press
 2221 001a 00BF     		.section	.text.lv_indev_set_cursor,"ax",%progbits
 2222              		.align	2
 2223              		.global	lv_indev_set_cursor
 2224              		.thumb
 2225              		.thumb_func
 2226              		.type	lv_indev_set_cursor, %function
 2227              	lv_indev_set_cursor:
 2228              	.LFB171:
 197:..\..\..\arduinoLCD\test\Pain Drain\libraries\lvgl\src\core/lv_indev.c ****     if(indev->driver->type != LV_INDEV_TYPE_POINTER) return;
 2229              		.loc 1 197 0
 2230              		.cfi_startproc
 2231              		@ args = 0, pretend = 0, frame = 0
 2232              		@ frame_needed = 0, uses_anonymous_args = 0
 2233              	.LVL265:
 2234 0000 38B5     		push	{r3, r4, r5, lr}
 2235              		.cfi_def_cfa_offset 16
ARM GAS  C:\Users\haske\AppData\Local\Temp\ccOQHbDo.s 			page 69


 2236              		.cfi_offset 3, -16
 2237              		.cfi_offset 4, -12
 2238              		.cfi_offset 5, -8
 2239              		.cfi_offset 14, -4
 198:..\..\..\arduinoLCD\test\Pain Drain\libraries\lvgl\src\core/lv_indev.c **** 
 2240              		.loc 1 198 0
 2241 0002 0368     		ldr	r3, [r0]
 2242 0004 1A78     		ldrb	r2, [r3]	@ zero_extendqisi2
 2243 0006 012A     		cmp	r2, #1
 2244 0008 19D1     		bne	.L169
 2245 000a 0D46     		mov	r5, r1
 2246 000c 0446     		mov	r4, r0
 200:..\..\..\arduinoLCD\test\Pain Drain\libraries\lvgl\src\core/lv_indev.c ****     lv_obj_set_parent(indev->cursor, lv_disp_get_layer_sys(indev->driver->disp));
 2247              		.loc 1 200 0
 2248 000e 2165     		str	r1, [r4, #80]
 201:..\..\..\arduinoLCD\test\Pain Drain\libraries\lvgl\src\core/lv_indev.c ****     lv_obj_set_pos(indev->cursor, indev->proc.types.pointer.act_point.x, indev->proc.types.pointer.
 2249              		.loc 1 201 0
 2250 0010 1869     		ldr	r0, [r3, #16]
 2251              	.LVL266:
 2252 0012 FFF7FEFF 		bl	lv_disp_get_layer_sys
 2253              	.LVL267:
 2254 0016 0146     		mov	r1, r0
 2255 0018 2846     		mov	r0, r5
 2256 001a FFF7FEFF 		bl	lv_obj_set_parent
 2257              	.LVL268:
 202:..\..\..\arduinoLCD\test\Pain Drain\libraries\lvgl\src\core/lv_indev.c ****     lv_obj_clear_flag(indev->cursor, LV_OBJ_FLAG_CLICKABLE);
 2258              		.loc 1 202 0
 2259 001e B4F90A20 		ldrsh	r2, [r4, #10]
 2260 0022 B4F90810 		ldrsh	r1, [r4, #8]
 2261 0026 206D     		ldr	r0, [r4, #80]
 2262 0028 FFF7FEFF 		bl	lv_obj_set_pos
 2263              	.LVL269:
 203:..\..\..\arduinoLCD\test\Pain Drain\libraries\lvgl\src\core/lv_indev.c ****     lv_obj_add_flag(indev->cursor, LV_OBJ_FLAG_IGNORE_LAYOUT | LV_OBJ_FLAG_FLOATING);
 2264              		.loc 1 203 0
 2265 002c 0221     		movs	r1, #2
 2266 002e 206D     		ldr	r0, [r4, #80]
 2267 0030 FFF7FEFF 		bl	lv_obj_clear_flag
 2268              	.LVL270:
 204:..\..\..\arduinoLCD\test\Pain Drain\libraries\lvgl\src\core/lv_indev.c **** }
 2269              		.loc 1 204 0
 2270 0034 4FF4C021 		mov	r1, #393216
 2271 0038 206D     		ldr	r0, [r4, #80]
 2272 003a FFF7FEFF 		bl	lv_obj_add_flag
 2273              	.LVL271:
 2274              	.L169:
 2275 003e 38BD     		pop	{r3, r4, r5, pc}
 2276              		.cfi_endproc
 2277              	.LFE171:
 2278              		.size	lv_indev_set_cursor, .-lv_indev_set_cursor
 2279              		.section	.text.lv_indev_set_group,"ax",%progbits
 2280              		.align	2
 2281              		.global	lv_indev_set_group
 2282              		.thumb
 2283              		.thumb_func
 2284              		.type	lv_indev_set_group, %function
 2285              	lv_indev_set_group:
 2286              	.LFB172:
ARM GAS  C:\Users\haske\AppData\Local\Temp\ccOQHbDo.s 			page 70


 208:..\..\..\arduinoLCD\test\Pain Drain\libraries\lvgl\src\core/lv_indev.c ****     if(indev->driver->type == LV_INDEV_TYPE_KEYPAD || indev->driver->type == LV_INDEV_TYPE_ENCODER)
 2287              		.loc 1 208 0
 2288              		.cfi_startproc
 2289              		@ args = 0, pretend = 0, frame = 0
 2290              		@ frame_needed = 0, uses_anonymous_args = 0
 2291              		@ link register save eliminated.
 2292              	.LVL272:
 209:..\..\..\arduinoLCD\test\Pain Drain\libraries\lvgl\src\core/lv_indev.c ****         indev->group = group;
 2293              		.loc 1 209 0
 2294 0000 0368     		ldr	r3, [r0]
 2295 0002 1B78     		ldrb	r3, [r3]	@ zero_extendqisi2
 2296 0004 022B     		cmp	r3, #2
 2297 0006 01D0     		beq	.L173
 209:..\..\..\arduinoLCD\test\Pain Drain\libraries\lvgl\src\core/lv_indev.c ****         indev->group = group;
 2298              		.loc 1 209 0 is_stmt 0 discriminator 1
 2299 0008 042B     		cmp	r3, #4
 2300 000a 00D1     		bne	.L172
 2301              	.L173:
 210:..\..\..\arduinoLCD\test\Pain Drain\libraries\lvgl\src\core/lv_indev.c ****     }
 2302              		.loc 1 210 0 is_stmt 1
 2303 000c 4165     		str	r1, [r0, #84]
 2304              	.L172:
 2305 000e 7047     		bx	lr
 2306              		.cfi_endproc
 2307              	.LFE172:
 2308              		.size	lv_indev_set_group, .-lv_indev_set_group
 2309              		.section	.text.lv_indev_set_button_points,"ax",%progbits
 2310              		.align	2
 2311              		.global	lv_indev_set_button_points
 2312              		.thumb
 2313              		.thumb_func
 2314              		.type	lv_indev_set_button_points, %function
 2315              	lv_indev_set_button_points:
 2316              	.LFB173:
 215:..\..\..\arduinoLCD\test\Pain Drain\libraries\lvgl\src\core/lv_indev.c ****     if(indev->driver->type == LV_INDEV_TYPE_BUTTON) {
 2317              		.loc 1 215 0
 2318              		.cfi_startproc
 2319              		@ args = 0, pretend = 0, frame = 0
 2320              		@ frame_needed = 0, uses_anonymous_args = 0
 2321              		@ link register save eliminated.
 2322              	.LVL273:
 216:..\..\..\arduinoLCD\test\Pain Drain\libraries\lvgl\src\core/lv_indev.c ****         indev->btn_points = points;
 2323              		.loc 1 216 0
 2324 0000 0368     		ldr	r3, [r0]
 2325 0002 1B78     		ldrb	r3, [r3]	@ zero_extendqisi2
 2326 0004 032B     		cmp	r3, #3
 2327 0006 00D1     		bne	.L175
 217:..\..\..\arduinoLCD\test\Pain Drain\libraries\lvgl\src\core/lv_indev.c ****     }
 2328              		.loc 1 217 0
 2329 0008 8165     		str	r1, [r0, #88]
 2330              	.L175:
 2331 000a 7047     		bx	lr
 2332              		.cfi_endproc
 2333              	.LFE173:
 2334              		.size	lv_indev_set_button_points, .-lv_indev_set_button_points
 2335              		.section	.text.lv_indev_get_point,"ax",%progbits
 2336              		.align	2
ARM GAS  C:\Users\haske\AppData\Local\Temp\ccOQHbDo.s 			page 71


 2337              		.global	lv_indev_get_point
 2338              		.thumb
 2339              		.thumb_func
 2340              		.type	lv_indev_get_point, %function
 2341              	lv_indev_get_point:
 2342              	.LFB174:
 222:..\..\..\arduinoLCD\test\Pain Drain\libraries\lvgl\src\core/lv_indev.c ****     if(indev == NULL) {
 2343              		.loc 1 222 0
 2344              		.cfi_startproc
 2345              		@ args = 0, pretend = 0, frame = 0
 2346              		@ frame_needed = 0, uses_anonymous_args = 0
 2347              		@ link register save eliminated.
 2348              	.LVL274:
 223:..\..\..\arduinoLCD\test\Pain Drain\libraries\lvgl\src\core/lv_indev.c ****         point->x = 0;
 2349              		.loc 1 223 0
 2350 0000 0346     		mov	r3, r0
 2351 0002 18B9     		cbnz	r0, .L178
 224:..\..\..\arduinoLCD\test\Pain Drain\libraries\lvgl\src\core/lv_indev.c ****         point->y = 0;
 2352              		.loc 1 224 0
 2353 0004 0023     		movs	r3, #0
 2354 0006 0B80     		strh	r3, [r1]	@ movhi
 225:..\..\..\arduinoLCD\test\Pain Drain\libraries\lvgl\src\core/lv_indev.c ****         return;
 2355              		.loc 1 225 0
 2356 0008 4B80     		strh	r3, [r1, #2]	@ movhi
 226:..\..\..\arduinoLCD\test\Pain Drain\libraries\lvgl\src\core/lv_indev.c ****     }
 2357              		.loc 1 226 0
 2358 000a 7047     		bx	lr
 2359              	.L178:
 228:..\..\..\arduinoLCD\test\Pain Drain\libraries\lvgl\src\core/lv_indev.c ****         point->x = -1;
 2360              		.loc 1 228 0
 2361 000c 0268     		ldr	r2, [r0]
 2362 000e 1278     		ldrb	r2, [r2]	@ zero_extendqisi2
 2363 0010 012A     		cmp	r2, #1
 2364 0012 06D0     		beq	.L180
 228:..\..\..\arduinoLCD\test\Pain Drain\libraries\lvgl\src\core/lv_indev.c ****         point->x = -1;
 2365              		.loc 1 228 0 is_stmt 0 discriminator 1
 2366 0014 032A     		cmp	r2, #3
 2367 0016 04D0     		beq	.L180
 229:..\..\..\arduinoLCD\test\Pain Drain\libraries\lvgl\src\core/lv_indev.c ****         point->y = -1;
 2368              		.loc 1 229 0 is_stmt 1
 2369 0018 4FF6FF73 		movw	r3, #65535
 2370 001c 0B80     		strh	r3, [r1]	@ movhi
 230:..\..\..\arduinoLCD\test\Pain Drain\libraries\lvgl\src\core/lv_indev.c ****     }
 2371              		.loc 1 230 0
 2372 001e 4B80     		strh	r3, [r1, #2]	@ movhi
 2373 0020 7047     		bx	lr
 2374              	.L180:
 233:..\..\..\arduinoLCD\test\Pain Drain\libraries\lvgl\src\core/lv_indev.c ****         point->y = indev->proc.types.pointer.act_point.y;
 2375              		.loc 1 233 0
 2376 0022 B3F90820 		ldrsh	r2, [r3, #8]
 2377 0026 0A80     		strh	r2, [r1]	@ movhi
 234:..\..\..\arduinoLCD\test\Pain Drain\libraries\lvgl\src\core/lv_indev.c ****     }
 2378              		.loc 1 234 0
 2379 0028 B3F90A30 		ldrsh	r3, [r3, #10]
 2380 002c 4B80     		strh	r3, [r1, #2]	@ movhi
 2381 002e 7047     		bx	lr
 2382              		.cfi_endproc
ARM GAS  C:\Users\haske\AppData\Local\Temp\ccOQHbDo.s 			page 72


 2383              	.LFE174:
 2384              		.size	lv_indev_get_point, .-lv_indev_get_point
 2385              		.section	.text.lv_indev_get_gesture_dir,"ax",%progbits
 2386              		.align	2
 2387              		.global	lv_indev_get_gesture_dir
 2388              		.thumb
 2389              		.thumb_func
 2390              		.type	lv_indev_get_gesture_dir, %function
 2391              	lv_indev_get_gesture_dir:
 2392              	.LFB175:
 239:..\..\..\arduinoLCD\test\Pain Drain\libraries\lvgl\src\core/lv_indev.c ****     return indev->proc.types.pointer.gesture_dir;
 2393              		.loc 1 239 0
 2394              		.cfi_startproc
 2395              		@ args = 0, pretend = 0, frame = 0
 2396              		@ frame_needed = 0, uses_anonymous_args = 0
 2397              		@ link register save eliminated.
 2398              	.LVL275:
 240:..\..\..\arduinoLCD\test\Pain Drain\libraries\lvgl\src\core/lv_indev.c **** }
 2399              		.loc 1 240 0
 2400 0000 90F84400 		ldrb	r0, [r0, #68]	@ zero_extendqisi2
 2401              	.LVL276:
 241:..\..\..\arduinoLCD\test\Pain Drain\libraries\lvgl\src\core/lv_indev.c **** 
 2402              		.loc 1 241 0
 2403 0004 0009     		lsrs	r0, r0, #4
 2404 0006 7047     		bx	lr
 2405              		.cfi_endproc
 2406              	.LFE175:
 2407              		.size	lv_indev_get_gesture_dir, .-lv_indev_get_gesture_dir
 2408              		.section	.text.lv_indev_get_key,"ax",%progbits
 2409              		.align	2
 2410              		.global	lv_indev_get_key
 2411              		.thumb
 2412              		.thumb_func
 2413              		.type	lv_indev_get_key, %function
 2414              	lv_indev_get_key:
 2415              	.LFB176:
 244:..\..\..\arduinoLCD\test\Pain Drain\libraries\lvgl\src\core/lv_indev.c ****     if(indev->driver->type != LV_INDEV_TYPE_KEYPAD)
 2416              		.loc 1 244 0
 2417              		.cfi_startproc
 2418              		@ args = 0, pretend = 0, frame = 0
 2419              		@ frame_needed = 0, uses_anonymous_args = 0
 2420              		@ link register save eliminated.
 2421              	.LVL277:
 245:..\..\..\arduinoLCD\test\Pain Drain\libraries\lvgl\src\core/lv_indev.c ****         return 0;
 2422              		.loc 1 245 0
 2423 0000 0368     		ldr	r3, [r0]
 2424 0002 1B78     		ldrb	r3, [r3]	@ zero_extendqisi2
 2425 0004 022B     		cmp	r3, #2
 2426 0006 01D1     		bne	.L184
 248:..\..\..\arduinoLCD\test\Pain Drain\libraries\lvgl\src\core/lv_indev.c **** }
 2427              		.loc 1 248 0
 2428 0008 C068     		ldr	r0, [r0, #12]
 2429              	.LVL278:
 2430 000a 7047     		bx	lr
 2431              	.LVL279:
 2432              	.L184:
 246:..\..\..\arduinoLCD\test\Pain Drain\libraries\lvgl\src\core/lv_indev.c ****     else
ARM GAS  C:\Users\haske\AppData\Local\Temp\ccOQHbDo.s 			page 73


 2433              		.loc 1 246 0
 2434 000c 0020     		movs	r0, #0
 2435              	.LVL280:
 249:..\..\..\arduinoLCD\test\Pain Drain\libraries\lvgl\src\core/lv_indev.c **** 
 2436              		.loc 1 249 0
 2437 000e 7047     		bx	lr
 2438              		.cfi_endproc
 2439              	.LFE176:
 2440              		.size	lv_indev_get_key, .-lv_indev_get_key
 2441              		.section	.text.lv_indev_get_scroll_dir,"ax",%progbits
 2442              		.align	2
 2443              		.global	lv_indev_get_scroll_dir
 2444              		.thumb
 2445              		.thumb_func
 2446              		.type	lv_indev_get_scroll_dir, %function
 2447              	lv_indev_get_scroll_dir:
 2448              	.LFB177:
 252:..\..\..\arduinoLCD\test\Pain Drain\libraries\lvgl\src\core/lv_indev.c ****     if(indev == NULL) return false;
 2449              		.loc 1 252 0
 2450              		.cfi_startproc
 2451              		@ args = 0, pretend = 0, frame = 0
 2452              		@ frame_needed = 0, uses_anonymous_args = 0
 2453              		@ link register save eliminated.
 2454              	.LVL281:
 253:..\..\..\arduinoLCD\test\Pain Drain\libraries\lvgl\src\core/lv_indev.c ****     if(indev->driver->type != LV_INDEV_TYPE_POINTER && indev->driver->type != LV_INDEV_TYPE_BUTTON)
 2455              		.loc 1 253 0
 2456 0000 0246     		mov	r2, r0
 2457 0002 50B1     		cbz	r0, .L188
 254:..\..\..\arduinoLCD\test\Pain Drain\libraries\lvgl\src\core/lv_indev.c ****     return indev->proc.types.pointer.scroll_dir;
 2458              		.loc 1 254 0
 2459 0004 0368     		ldr	r3, [r0]
 2460 0006 1B78     		ldrb	r3, [r3]	@ zero_extendqisi2
 2461 0008 012B     		cmp	r3, #1
 2462 000a 01D0     		beq	.L187
 254:..\..\..\arduinoLCD\test\Pain Drain\libraries\lvgl\src\core/lv_indev.c ****     return indev->proc.types.pointer.scroll_dir;
 2463              		.loc 1 254 0 is_stmt 0 discriminator 1
 2464 000c 032B     		cmp	r3, #3
 2465 000e 06D1     		bne	.L189
 2466              	.L187:
 255:..\..\..\arduinoLCD\test\Pain Drain\libraries\lvgl\src\core/lv_indev.c **** }
 2467              		.loc 1 255 0 is_stmt 1
 2468 0010 92F84400 		ldrb	r0, [r2, #68]	@ zero_extendqisi2
 2469              	.LVL282:
 2470 0014 00F00F00 		and	r0, r0, #15
 2471 0018 7047     		bx	lr
 2472              	.LVL283:
 2473              	.L188:
 253:..\..\..\arduinoLCD\test\Pain Drain\libraries\lvgl\src\core/lv_indev.c ****     if(indev->driver->type != LV_INDEV_TYPE_POINTER && indev->driver->type != LV_INDEV_TYPE_BUTTON)
 2474              		.loc 1 253 0
 2475 001a 0020     		movs	r0, #0
 2476              	.LVL284:
 2477 001c 7047     		bx	lr
 2478              	.LVL285:
 2479              	.L189:
 254:..\..\..\arduinoLCD\test\Pain Drain\libraries\lvgl\src\core/lv_indev.c ****     return indev->proc.types.pointer.scroll_dir;
 2480              		.loc 1 254 0
 2481 001e 0020     		movs	r0, #0
ARM GAS  C:\Users\haske\AppData\Local\Temp\ccOQHbDo.s 			page 74


 2482              	.LVL286:
 256:..\..\..\arduinoLCD\test\Pain Drain\libraries\lvgl\src\core/lv_indev.c **** 
 2483              		.loc 1 256 0
 2484 0020 7047     		bx	lr
 2485              		.cfi_endproc
 2486              	.LFE177:
 2487              		.size	lv_indev_get_scroll_dir, .-lv_indev_get_scroll_dir
 2488 0022 00BF     		.section	.text.lv_indev_get_scroll_obj,"ax",%progbits
 2489              		.align	2
 2490              		.global	lv_indev_get_scroll_obj
 2491              		.thumb
 2492              		.thumb_func
 2493              		.type	lv_indev_get_scroll_obj, %function
 2494              	lv_indev_get_scroll_obj:
 2495              	.LFB178:
 259:..\..\..\arduinoLCD\test\Pain Drain\libraries\lvgl\src\core/lv_indev.c ****     if(indev == NULL) return NULL;
 2496              		.loc 1 259 0
 2497              		.cfi_startproc
 2498              		@ args = 0, pretend = 0, frame = 0
 2499              		@ frame_needed = 0, uses_anonymous_args = 0
 2500              		@ link register save eliminated.
 2501              	.LVL287:
 260:..\..\..\arduinoLCD\test\Pain Drain\libraries\lvgl\src\core/lv_indev.c ****     if(indev->driver->type != LV_INDEV_TYPE_POINTER && indev->driver->type != LV_INDEV_TYPE_BUTTON)
 2502              		.loc 1 260 0
 2503 0000 0346     		mov	r3, r0
 2504 0002 38B1     		cbz	r0, .L193
 261:..\..\..\arduinoLCD\test\Pain Drain\libraries\lvgl\src\core/lv_indev.c ****     return indev->proc.types.pointer.scroll_obj;
 2505              		.loc 1 261 0
 2506 0004 0268     		ldr	r2, [r0]
 2507 0006 1278     		ldrb	r2, [r2]	@ zero_extendqisi2
 2508 0008 012A     		cmp	r2, #1
 2509 000a 01D0     		beq	.L192
 261:..\..\..\arduinoLCD\test\Pain Drain\libraries\lvgl\src\core/lv_indev.c ****     return indev->proc.types.pointer.scroll_obj;
 2510              		.loc 1 261 0 is_stmt 0 discriminator 1
 2511 000c 032A     		cmp	r2, #3
 2512 000e 03D1     		bne	.L194
 2513              	.L192:
 262:..\..\..\arduinoLCD\test\Pain Drain\libraries\lvgl\src\core/lv_indev.c **** }
 2514              		.loc 1 262 0 is_stmt 1
 2515 0010 186B     		ldr	r0, [r3, #48]
 2516              	.LVL288:
 2517 0012 7047     		bx	lr
 2518              	.LVL289:
 2519              	.L193:
 260:..\..\..\arduinoLCD\test\Pain Drain\libraries\lvgl\src\core/lv_indev.c ****     if(indev->driver->type != LV_INDEV_TYPE_POINTER && indev->driver->type != LV_INDEV_TYPE_BUTTON)
 2520              		.loc 1 260 0
 2521 0014 0020     		movs	r0, #0
 2522              	.LVL290:
 2523 0016 7047     		bx	lr
 2524              	.LVL291:
 2525              	.L194:
 261:..\..\..\arduinoLCD\test\Pain Drain\libraries\lvgl\src\core/lv_indev.c ****     return indev->proc.types.pointer.scroll_obj;
 2526              		.loc 1 261 0
 2527 0018 0020     		movs	r0, #0
 2528              	.LVL292:
 263:..\..\..\arduinoLCD\test\Pain Drain\libraries\lvgl\src\core/lv_indev.c **** 
 2529              		.loc 1 263 0
ARM GAS  C:\Users\haske\AppData\Local\Temp\ccOQHbDo.s 			page 75


 2530 001a 7047     		bx	lr
 2531              		.cfi_endproc
 2532              	.LFE178:
 2533              		.size	lv_indev_get_scroll_obj, .-lv_indev_get_scroll_obj
 2534              		.section	.text.lv_indev_get_vect,"ax",%progbits
 2535              		.align	2
 2536              		.global	lv_indev_get_vect
 2537              		.thumb
 2538              		.thumb_func
 2539              		.type	lv_indev_get_vect, %function
 2540              	lv_indev_get_vect:
 2541              	.LFB179:
 266:..\..\..\arduinoLCD\test\Pain Drain\libraries\lvgl\src\core/lv_indev.c ****     point->x = 0;
 2542              		.loc 1 266 0
 2543              		.cfi_startproc
 2544              		@ args = 0, pretend = 0, frame = 0
 2545              		@ frame_needed = 0, uses_anonymous_args = 0
 2546              		@ link register save eliminated.
 2547              	.LVL293:
 267:..\..\..\arduinoLCD\test\Pain Drain\libraries\lvgl\src\core/lv_indev.c ****     point->y = 0;
 2548              		.loc 1 267 0
 2549 0000 0023     		movs	r3, #0
 2550 0002 0B80     		strh	r3, [r1]	@ movhi
 268:..\..\..\arduinoLCD\test\Pain Drain\libraries\lvgl\src\core/lv_indev.c **** 
 2551              		.loc 1 268 0
 2552 0004 4B80     		strh	r3, [r1, #2]	@ movhi
 270:..\..\..\arduinoLCD\test\Pain Drain\libraries\lvgl\src\core/lv_indev.c **** 
 2553              		.loc 1 270 0
 2554 0006 0346     		mov	r3, r0
 2555 0008 58B1     		cbz	r0, .L195
 272:..\..\..\arduinoLCD\test\Pain Drain\libraries\lvgl\src\core/lv_indev.c ****         point->x = indev->proc.types.pointer.vect.x;
 2556              		.loc 1 272 0
 2557 000a 0268     		ldr	r2, [r0]
 2558 000c 1278     		ldrb	r2, [r2]	@ zero_extendqisi2
 2559 000e 012A     		cmp	r2, #1
 2560 0010 01D0     		beq	.L197
 272:..\..\..\arduinoLCD\test\Pain Drain\libraries\lvgl\src\core/lv_indev.c ****         point->x = indev->proc.types.pointer.vect.x;
 2561              		.loc 1 272 0 is_stmt 0 discriminator 1
 2562 0012 032A     		cmp	r2, #3
 2563 0014 05D1     		bne	.L195
 2564              	.L197:
 273:..\..\..\arduinoLCD\test\Pain Drain\libraries\lvgl\src\core/lv_indev.c ****         point->y = indev->proc.types.pointer.vect.y;
 2565              		.loc 1 273 0 is_stmt 1
 2566 0016 B3F91820 		ldrsh	r2, [r3, #24]
 2567 001a 0A80     		strh	r2, [r1]	@ movhi
 274:..\..\..\arduinoLCD\test\Pain Drain\libraries\lvgl\src\core/lv_indev.c ****     }
 2568              		.loc 1 274 0
 2569 001c B3F91A30 		ldrsh	r3, [r3, #26]
 2570 0020 4B80     		strh	r3, [r1, #2]	@ movhi
 2571              	.L195:
 2572 0022 7047     		bx	lr
 2573              		.cfi_endproc
 2574              	.LFE179:
 2575              		.size	lv_indev_get_vect, .-lv_indev_get_vect
 2576              		.section	.text.lv_indev_wait_release,"ax",%progbits
 2577              		.align	2
 2578              		.global	lv_indev_wait_release
ARM GAS  C:\Users\haske\AppData\Local\Temp\ccOQHbDo.s 			page 76


 2579              		.thumb
 2580              		.thumb_func
 2581              		.type	lv_indev_wait_release, %function
 2582              	lv_indev_wait_release:
 2583              	.LFB180:
 279:..\..\..\arduinoLCD\test\Pain Drain\libraries\lvgl\src\core/lv_indev.c ****     if(indev == NULL)return;
 2584              		.loc 1 279 0
 2585              		.cfi_startproc
 2586              		@ args = 0, pretend = 0, frame = 0
 2587              		@ frame_needed = 0, uses_anonymous_args = 0
 2588              		@ link register save eliminated.
 2589              	.LVL294:
 280:..\..\..\arduinoLCD\test\Pain Drain\libraries\lvgl\src\core/lv_indev.c ****     indev->proc.wait_until_release = 1;
 2590              		.loc 1 280 0
 2591 0000 18B1     		cbz	r0, .L198
 281:..\..\..\arduinoLCD\test\Pain Drain\libraries\lvgl\src\core/lv_indev.c **** }
 2592              		.loc 1 281 0
 2593 0002 4379     		ldrb	r3, [r0, #5]	@ zero_extendqisi2
 2594 0004 43F00803 		orr	r3, r3, #8
 2595 0008 4371     		strb	r3, [r0, #5]
 2596              	.L198:
 2597 000a 7047     		bx	lr
 2598              		.cfi_endproc
 2599              	.LFE180:
 2600              		.size	lv_indev_wait_release, .-lv_indev_wait_release
 2601              		.section	.text.lv_indev_get_obj_act,"ax",%progbits
 2602              		.align	2
 2603              		.global	lv_indev_get_obj_act
 2604              		.thumb
 2605              		.thumb_func
 2606              		.type	lv_indev_get_obj_act, %function
 2607              	lv_indev_get_obj_act:
 2608              	.LFB181:
 285:..\..\..\arduinoLCD\test\Pain Drain\libraries\lvgl\src\core/lv_indev.c ****     return indev_obj_act;
 2609              		.loc 1 285 0
 2610              		.cfi_startproc
 2611              		@ args = 0, pretend = 0, frame = 0
 2612              		@ frame_needed = 0, uses_anonymous_args = 0
 2613              		@ link register save eliminated.
 287:..\..\..\arduinoLCD\test\Pain Drain\libraries\lvgl\src\core/lv_indev.c **** 
 2614              		.loc 1 287 0
 2615 0000 014B     		ldr	r3, .L201
 2616 0002 1868     		ldr	r0, [r3]
 2617 0004 7047     		bx	lr
 2618              	.L202:
 2619 0006 00BF     		.align	2
 2620              	.L201:
 2621 0008 00000000 		.word	.LANCHOR0
 2622              		.cfi_endproc
 2623              	.LFE181:
 2624              		.size	lv_indev_get_obj_act, .-lv_indev_get_obj_act
 2625              		.section	.text.lv_indev_get_read_timer,"ax",%progbits
 2626              		.align	2
 2627              		.global	lv_indev_get_read_timer
 2628              		.thumb
 2629              		.thumb_func
 2630              		.type	lv_indev_get_read_timer, %function
ARM GAS  C:\Users\haske\AppData\Local\Temp\ccOQHbDo.s 			page 77


 2631              	lv_indev_get_read_timer:
 2632              	.LFB182:
 290:..\..\..\arduinoLCD\test\Pain Drain\libraries\lvgl\src\core/lv_indev.c ****     if(!indev) {
 2633              		.loc 1 290 0
 2634              		.cfi_startproc
 2635              		@ args = 0, pretend = 0, frame = 0
 2636              		@ frame_needed = 0, uses_anonymous_args = 0
 2637              		@ link register save eliminated.
 2638              	.LVL295:
 291:..\..\..\arduinoLCD\test\Pain Drain\libraries\lvgl\src\core/lv_indev.c ****         LV_LOG_WARN("lv_indev_get_read_timer: indev was NULL");
 2639              		.loc 1 291 0
 2640 0000 08B1     		cbz	r0, .L205
 296:..\..\..\arduinoLCD\test\Pain Drain\libraries\lvgl\src\core/lv_indev.c **** }
 2641              		.loc 1 296 0
 2642 0002 4068     		ldr	r0, [r0, #4]
 2643              	.LVL296:
 2644 0004 7047     		bx	lr
 2645              	.LVL297:
 2646              	.L205:
 293:..\..\..\arduinoLCD\test\Pain Drain\libraries\lvgl\src\core/lv_indev.c ****     }
 2647              		.loc 1 293 0
 2648 0006 0020     		movs	r0, #0
 2649              	.LVL298:
 297:..\..\..\arduinoLCD\test\Pain Drain\libraries\lvgl\src\core/lv_indev.c **** 
 2650              		.loc 1 297 0
 2651 0008 7047     		bx	lr
 2652              		.cfi_endproc
 2653              	.LFE182:
 2654              		.size	lv_indev_get_read_timer, .-lv_indev_get_read_timer
 2655 000a 00BF     		.section	.text.lv_indev_search_obj,"ax",%progbits
 2656              		.align	2
 2657              		.global	lv_indev_search_obj
 2658              		.thumb
 2659              		.thumb_func
 2660              		.type	lv_indev_search_obj, %function
 2661              	lv_indev_search_obj:
 2662              	.LFB183:
 301:..\..\..\arduinoLCD\test\Pain Drain\libraries\lvgl\src\core/lv_indev.c ****     lv_obj_t * found_p = NULL;
 2663              		.loc 1 301 0
 2664              		.cfi_startproc
 2665              		@ args = 0, pretend = 0, frame = 8
 2666              		@ frame_needed = 0, uses_anonymous_args = 0
 2667              	.LVL299:
 2668 0000 70B5     		push	{r4, r5, r6, lr}
 2669              		.cfi_def_cfa_offset 16
 2670              		.cfi_offset 4, -16
 2671              		.cfi_offset 5, -12
 2672              		.cfi_offset 6, -8
 2673              		.cfi_offset 14, -4
 2674 0002 82B0     		sub	sp, sp, #8
 2675              		.cfi_def_cfa_offset 24
 2676 0004 0546     		mov	r5, r0
 2677 0006 0C46     		mov	r4, r1
 2678              	.LVL300:
 305:..\..\..\arduinoLCD\test\Pain Drain\libraries\lvgl\src\core/lv_indev.c **** 
 2679              		.loc 1 305 0
 2680 0008 0121     		movs	r1, #1
ARM GAS  C:\Users\haske\AppData\Local\Temp\ccOQHbDo.s 			page 78


 2681              	.LVL301:
 2682 000a FFF7FEFF 		bl	lv_obj_has_flag
 2683              	.LVL302:
 2684 000e 60BB     		cbnz	r0, .L212
 307:..\..\..\arduinoLCD\test\Pain Drain\libraries\lvgl\src\core/lv_indev.c ****     lv_obj_transform_point(obj, &p_trans, false, true);
 2685              		.loc 1 307 0
 2686 0010 2068     		ldr	r0, [r4]	@ unaligned
 2687 0012 0190     		str	r0, [sp, #4]	@ unaligned
 308:..\..\..\arduinoLCD\test\Pain Drain\libraries\lvgl\src\core/lv_indev.c **** 
 2688              		.loc 1 308 0
 2689 0014 0123     		movs	r3, #1
 2690 0016 0022     		movs	r2, #0
 2691 0018 01A9     		add	r1, sp, #4
 2692 001a 2846     		mov	r0, r5
 2693 001c FFF7FEFF 		bl	lv_obj_transform_point
 2694              	.LVL303:
 310:..\..\..\arduinoLCD\test\Pain Drain\libraries\lvgl\src\core/lv_indev.c **** 
 2695              		.loc 1 310 0
 2696 0020 01A9     		add	r1, sp, #4
 2697 0022 2846     		mov	r0, r5
 2698 0024 FFF7FEFF 		bl	lv_obj_hit_test
 2699              	.LVL304:
 2700 0028 0646     		mov	r6, r0
 2701              	.LVL305:
 313:..\..\..\arduinoLCD\test\Pain Drain\libraries\lvgl\src\core/lv_indev.c ****         int32_t i;
 2702              		.loc 1 313 0
 2703 002a 0022     		movs	r2, #0
 2704 002c 01A9     		add	r1, sp, #4
 2705 002e 05F11400 		add	r0, r5, #20
 2706 0032 FFF7FEFF 		bl	_lv_area_is_point_on
 2707              	.LVL306:
 2708 0036 28B9     		cbnz	r0, .L208
 313:..\..\..\arduinoLCD\test\Pain Drain\libraries\lvgl\src\core/lv_indev.c ****         int32_t i;
 2709              		.loc 1 313 0 is_stmt 0 discriminator 1
 2710 0038 4FF40021 		mov	r1, #524288
 2711 003c 2846     		mov	r0, r5
 2712 003e FFF7FEFF 		bl	lv_obj_has_flag
 2713              	.LVL307:
 2714 0042 78B1     		cbz	r0, .L209
 2715              	.L208:
 2716              	.LBB19:
 315:..\..\..\arduinoLCD\test\Pain Drain\libraries\lvgl\src\core/lv_indev.c **** 
 2717              		.loc 1 315 0 is_stmt 1
 2718 0044 2846     		mov	r0, r5
 2719 0046 FFF7FEFF 		bl	lv_obj_get_child_cnt
 2720              	.LVL308:
 318:..\..\..\arduinoLCD\test\Pain Drain\libraries\lvgl\src\core/lv_indev.c ****             lv_obj_t * child = obj->spec_attr->children[i];
 2721              		.loc 1 318 0
 2722 004a 441E     		subs	r4, r0, #1
 2723              	.LVL309:
 2724 004c 08E0     		b	.L210
 2725              	.LVL310:
 2726              	.L211:
 2727              	.LBB20:
 319:..\..\..\arduinoLCD\test\Pain Drain\libraries\lvgl\src\core/lv_indev.c ****             found_p = lv_indev_search_obj(child, &p_trans);
 2728              		.loc 1 319 0
 2729 004e AB68     		ldr	r3, [r5, #8]
ARM GAS  C:\Users\haske\AppData\Local\Temp\ccOQHbDo.s 			page 79


 2730 0050 1B68     		ldr	r3, [r3]
 2731              	.LVL311:
 320:..\..\..\arduinoLCD\test\Pain Drain\libraries\lvgl\src\core/lv_indev.c ****             if(found_p) return found_p;
 2732              		.loc 1 320 0
 2733 0052 01A9     		add	r1, sp, #4
 2734 0054 53F82400 		ldr	r0, [r3, r4, lsl #2]
 2735 0058 FFF7FEFF 		bl	lv_indev_search_obj
 2736              	.LVL312:
 321:..\..\..\arduinoLCD\test\Pain Drain\libraries\lvgl\src\core/lv_indev.c ****         }
 2737              		.loc 1 321 0
 2738 005c 38B9     		cbnz	r0, .L213
 2739              	.LBE20:
 318:..\..\..\arduinoLCD\test\Pain Drain\libraries\lvgl\src\core/lv_indev.c ****             lv_obj_t * child = obj->spec_attr->children[i];
 2740              		.loc 1 318 0 discriminator 2
 2741 005e 013C     		subs	r4, r4, #1
 2742              	.LVL313:
 2743              	.L210:
 318:..\..\..\arduinoLCD\test\Pain Drain\libraries\lvgl\src\core/lv_indev.c ****             lv_obj_t * child = obj->spec_attr->children[i];
 2744              		.loc 1 318 0 is_stmt 0 discriminator 1
 2745 0060 002C     		cmp	r4, #0
 2746 0062 F4DA     		bge	.L211
 2747              	.LVL314:
 2748              	.L209:
 2749              	.LBE19:
 327:..\..\..\arduinoLCD\test\Pain Drain\libraries\lvgl\src\core/lv_indev.c ****     else return NULL;
 2750              		.loc 1 327 0 is_stmt 1
 2751 0064 26B9     		cbnz	r6, .L214
 328:..\..\..\arduinoLCD\test\Pain Drain\libraries\lvgl\src\core/lv_indev.c **** }
 2752              		.loc 1 328 0
 2753 0066 0020     		movs	r0, #0
 2754 0068 03E0     		b	.L207
 2755              	.LVL315:
 2756              	.L212:
 305:..\..\..\arduinoLCD\test\Pain Drain\libraries\lvgl\src\core/lv_indev.c **** 
 2757              		.loc 1 305 0
 2758 006a 0020     		movs	r0, #0
 2759 006c 01E0     		b	.L207
 2760              	.LVL316:
 2761              	.L213:
 2762 006e 00E0     		b	.L207
 2763              	.LVL317:
 2764              	.L214:
 327:..\..\..\arduinoLCD\test\Pain Drain\libraries\lvgl\src\core/lv_indev.c ****     else return NULL;
 2765              		.loc 1 327 0
 2766 0070 2846     		mov	r0, r5
 2767              	.LVL318:
 2768              	.L207:
 329:..\..\..\arduinoLCD\test\Pain Drain\libraries\lvgl\src\core/lv_indev.c **** 
 2769              		.loc 1 329 0
 2770 0072 02B0     		add	sp, sp, #8
 2771              		.cfi_def_cfa_offset 16
 2772              		@ sp needed
 2773 0074 70BD     		pop	{r4, r5, r6, pc}
 2774              		.cfi_endproc
 2775              	.LFE183:
 2776              		.size	lv_indev_search_obj, .-lv_indev_search_obj
 2777 0076 00BF     		.section	.text.indev_proc_press,"ax",%progbits
ARM GAS  C:\Users\haske\AppData\Local\Temp\ccOQHbDo.s 			page 80


 2778              		.align	2
 2779              		.thumb
 2780              		.thumb_func
 2781              		.type	indev_proc_press, %function
 2782              	indev_proc_press:
 2783              	.LFB188:
 818:..\..\..\arduinoLCD\test\Pain Drain\libraries\lvgl\src\core/lv_indev.c ****     LV_LOG_INFO("pressed at x:%d y:%d", proc->types.pointer.act_point.x, proc->types.pointer.act_po
 2784              		.loc 1 818 0
 2785              		.cfi_startproc
 2786              		@ args = 0, pretend = 0, frame = 0
 2787              		@ frame_needed = 0, uses_anonymous_args = 0
 2788              	.LVL319:
 820:..\..\..\arduinoLCD\test\Pain Drain\libraries\lvgl\src\core/lv_indev.c **** 
 2789              		.loc 1 820 0
 2790 0000 436A     		ldr	r3, [r0, #36]
 2791 0002 9D4A     		ldr	r2, .L232
 2792 0004 1360     		str	r3, [r2]
 822:..\..\..\arduinoLCD\test\Pain Drain\libraries\lvgl\src\core/lv_indev.c **** 
 2793              		.loc 1 822 0
 2794 0006 4278     		ldrb	r2, [r0, #1]	@ zero_extendqisi2
 2795 0008 12F0080F 		tst	r2, #8
 2796 000c 40F03381 		bne	.L231
 818:..\..\..\arduinoLCD\test\Pain Drain\libraries\lvgl\src\core/lv_indev.c ****     LV_LOG_INFO("pressed at x:%d y:%d", proc->types.pointer.act_point.x, proc->types.pointer.act_po
 2797              		.loc 1 818 0
 2798 0010 70B5     		push	{r4, r5, r6, lr}
 2799              		.cfi_def_cfa_offset 16
 2800              		.cfi_offset 4, -16
 2801              		.cfi_offset 5, -12
 2802              		.cfi_offset 6, -8
 2803              		.cfi_offset 14, -4
 2804 0012 0446     		mov	r4, r0
 824:..\..\..\arduinoLCD\test\Pain Drain\libraries\lvgl\src\core/lv_indev.c ****     bool new_obj_searched = false;
 2805              		.loc 1 824 0
 2806 0014 984A     		ldr	r2, .L232
 2807 0016 5268     		ldr	r2, [r2, #4]
 2808 0018 1268     		ldr	r2, [r2]
 2809 001a 1569     		ldr	r5, [r2, #16]
 2810              	.LVL320:
 828:..\..\..\arduinoLCD\test\Pain Drain\libraries\lvgl\src\core/lv_indev.c ****         indev_obj_act = lv_indev_search_obj(lv_disp_get_layer_sys(disp), &proc->types.pointer.act_p
 2811              		.loc 1 828 0
 2812 001c F3B9     		cbnz	r3, .L218
 829:..\..\..\arduinoLCD\test\Pain Drain\libraries\lvgl\src\core/lv_indev.c ****         if(indev_obj_act == NULL) indev_obj_act = lv_indev_search_obj(lv_disp_get_layer_top(disp),
 2813              		.loc 1 829 0
 2814 001e 2846     		mov	r0, r5
 2815              	.LVL321:
 2816 0020 FFF7FEFF 		bl	lv_disp_get_layer_sys
 2817              	.LVL322:
 2818 0024 261D     		adds	r6, r4, #4
 2819 0026 3146     		mov	r1, r6
 2820 0028 FFF7FEFF 		bl	lv_indev_search_obj
 2821              	.LVL323:
 2822 002c 924B     		ldr	r3, .L232
 2823 002e 1860     		str	r0, [r3]
 830:..\..\..\arduinoLCD\test\Pain Drain\libraries\lvgl\src\core/lv_indev.c ****                                                                           &proc->types.pointer.act_
 2824              		.loc 1 830 0
 2825 0030 38B9     		cbnz	r0, .L219
 830:..\..\..\arduinoLCD\test\Pain Drain\libraries\lvgl\src\core/lv_indev.c ****                                                                           &proc->types.pointer.act_
ARM GAS  C:\Users\haske\AppData\Local\Temp\ccOQHbDo.s 			page 81


 2826              		.loc 1 830 0 is_stmt 0 discriminator 1
 2827 0032 2846     		mov	r0, r5
 2828 0034 FFF7FEFF 		bl	lv_disp_get_layer_top
 2829              	.LVL324:
 2830 0038 3146     		mov	r1, r6
 2831 003a FFF7FEFF 		bl	lv_indev_search_obj
 2832              	.LVL325:
 2833 003e 8E4B     		ldr	r3, .L232
 2834 0040 1860     		str	r0, [r3]
 2835              	.L219:
 832:..\..\..\arduinoLCD\test\Pain Drain\libraries\lvgl\src\core/lv_indev.c ****                                                                           &proc->types.pointer.act_
 2836              		.loc 1 832 0 is_stmt 1
 2837 0042 8D4B     		ldr	r3, .L232
 2838 0044 1B68     		ldr	r3, [r3]
 2839 0046 83BB     		cbnz	r3, .L226
 832:..\..\..\arduinoLCD\test\Pain Drain\libraries\lvgl\src\core/lv_indev.c ****                                                                           &proc->types.pointer.act_
 2840              		.loc 1 832 0 is_stmt 0 discriminator 1
 2841 0048 2846     		mov	r0, r5
 2842 004a FFF7FEFF 		bl	lv_disp_get_scr_act
 2843              	.LVL326:
 2844 004e 3146     		mov	r1, r6
 2845 0050 FFF7FEFF 		bl	lv_indev_search_obj
 2846              	.LVL327:
 2847 0054 884B     		ldr	r3, .L232
 2848 0056 1860     		str	r0, [r3]
 834:..\..\..\arduinoLCD\test\Pain Drain\libraries\lvgl\src\core/lv_indev.c ****     }
 2849              		.loc 1 834 0 is_stmt 1 discriminator 1
 2850 0058 0123     		movs	r3, #1
 2851 005a 2DE0     		b	.L220
 2852              	.LVL328:
 2853              	.L218:
 837:..\..\..\arduinoLCD\test\Pain Drain\libraries\lvgl\src\core/lv_indev.c ****             lv_obj_has_flag(indev_obj_act, LV_OBJ_FLAG_PRESS_LOCK) == false) {
 2854              		.loc 1 837 0
 2855 005c C26A     		ldr	r2, [r0, #44]
 2856 005e 32BB     		cbnz	r2, .L227
 838:..\..\..\arduinoLCD\test\Pain Drain\libraries\lvgl\src\core/lv_indev.c ****         indev_obj_act = lv_indev_search_obj(lv_disp_get_layer_sys(disp), &proc->types.pointer.act_p
 2857              		.loc 1 838 0 discriminator 1
 2858 0060 4FF40051 		mov	r1, #8192
 2859 0064 1846     		mov	r0, r3
 2860              	.LVL329:
 2861 0066 FFF7FEFF 		bl	lv_obj_has_flag
 2862              	.LVL330:
 837:..\..\..\arduinoLCD\test\Pain Drain\libraries\lvgl\src\core/lv_indev.c ****             lv_obj_has_flag(indev_obj_act, LV_OBJ_FLAG_PRESS_LOCK) == false) {
 2863              		.loc 1 837 0 discriminator 1
 2864 006a 10BB     		cbnz	r0, .L228
 839:..\..\..\arduinoLCD\test\Pain Drain\libraries\lvgl\src\core/lv_indev.c ****         if(indev_obj_act == NULL) indev_obj_act = lv_indev_search_obj(lv_disp_get_layer_top(disp),
 2865              		.loc 1 839 0
 2866 006c 2846     		mov	r0, r5
 2867 006e FFF7FEFF 		bl	lv_disp_get_layer_sys
 2868              	.LVL331:
 2869 0072 261D     		adds	r6, r4, #4
 2870 0074 3146     		mov	r1, r6
 2871 0076 FFF7FEFF 		bl	lv_indev_search_obj
 2872              	.LVL332:
 2873 007a 7F4B     		ldr	r3, .L232
 2874 007c 1860     		str	r0, [r3]
 840:..\..\..\arduinoLCD\test\Pain Drain\libraries\lvgl\src\core/lv_indev.c ****                                                                           &proc->types.pointer.act_
ARM GAS  C:\Users\haske\AppData\Local\Temp\ccOQHbDo.s 			page 82


 2875              		.loc 1 840 0
 2876 007e 38B9     		cbnz	r0, .L221
 840:..\..\..\arduinoLCD\test\Pain Drain\libraries\lvgl\src\core/lv_indev.c ****                                                                           &proc->types.pointer.act_
 2877              		.loc 1 840 0 is_stmt 0 discriminator 1
 2878 0080 2846     		mov	r0, r5
 2879 0082 FFF7FEFF 		bl	lv_disp_get_layer_top
 2880              	.LVL333:
 2881 0086 3146     		mov	r1, r6
 2882 0088 FFF7FEFF 		bl	lv_indev_search_obj
 2883              	.LVL334:
 2884 008c 7A4B     		ldr	r3, .L232
 2885 008e 1860     		str	r0, [r3]
 2886              	.L221:
 842:..\..\..\arduinoLCD\test\Pain Drain\libraries\lvgl\src\core/lv_indev.c ****                                                                           &proc->types.pointer.act_
 2887              		.loc 1 842 0 is_stmt 1
 2888 0090 794B     		ldr	r3, .L232
 2889 0092 1B68     		ldr	r3, [r3]
 2890 0094 7BB9     		cbnz	r3, .L229
 842:..\..\..\arduinoLCD\test\Pain Drain\libraries\lvgl\src\core/lv_indev.c ****                                                                           &proc->types.pointer.act_
 2891              		.loc 1 842 0 is_stmt 0 discriminator 1
 2892 0096 2846     		mov	r0, r5
 2893 0098 FFF7FEFF 		bl	lv_disp_get_scr_act
 2894              	.LVL335:
 2895 009c 3146     		mov	r1, r6
 2896 009e FFF7FEFF 		bl	lv_indev_search_obj
 2897              	.LVL336:
 2898 00a2 754B     		ldr	r3, .L232
 2899 00a4 1860     		str	r0, [r3]
 844:..\..\..\arduinoLCD\test\Pain Drain\libraries\lvgl\src\core/lv_indev.c ****     }
 2900              		.loc 1 844 0 is_stmt 1 discriminator 1
 2901 00a6 0123     		movs	r3, #1
 2902 00a8 06E0     		b	.L220
 2903              	.L226:
 834:..\..\..\arduinoLCD\test\Pain Drain\libraries\lvgl\src\core/lv_indev.c ****     }
 2904              		.loc 1 834 0
 2905 00aa 0123     		movs	r3, #1
 2906 00ac 04E0     		b	.L220
 2907              	.LVL337:
 2908              	.L227:
 825:..\..\..\arduinoLCD\test\Pain Drain\libraries\lvgl\src\core/lv_indev.c **** 
 2909              		.loc 1 825 0
 2910 00ae 0023     		movs	r3, #0
 2911 00b0 02E0     		b	.L220
 2912              	.LVL338:
 2913              	.L228:
 2914 00b2 0023     		movs	r3, #0
 2915 00b4 00E0     		b	.L220
 2916              	.L229:
 844:..\..\..\arduinoLCD\test\Pain Drain\libraries\lvgl\src\core/lv_indev.c ****     }
 2917              		.loc 1 844 0
 2918 00b6 0123     		movs	r3, #1
 2919              	.L220:
 2920              	.LVL339:
 848:..\..\..\arduinoLCD\test\Pain Drain\libraries\lvgl\src\core/lv_indev.c ****         proc->types.pointer.scroll_throw_vect.x = 0;
 2921              		.loc 1 848 0
 2922 00b8 6BB1     		cbz	r3, .L222
 848:..\..\..\arduinoLCD\test\Pain Drain\libraries\lvgl\src\core/lv_indev.c ****         proc->types.pointer.scroll_throw_vect.x = 0;
ARM GAS  C:\Users\haske\AppData\Local\Temp\ccOQHbDo.s 			page 83


 2923              		.loc 1 848 0 is_stmt 0 discriminator 1
 2924 00ba A36A     		ldr	r3, [r4, #40]
 2925              	.LVL340:
 2926 00bc 5BB1     		cbz	r3, .L222
 849:..\..\..\arduinoLCD\test\Pain Drain\libraries\lvgl\src\core/lv_indev.c ****         proc->types.pointer.scroll_throw_vect.y = 0;
 2927              		.loc 1 849 0 is_stmt 1
 2928 00be 0023     		movs	r3, #0
 2929 00c0 A383     		strh	r3, [r4, #28]	@ movhi
 850:..\..\..\arduinoLCD\test\Pain Drain\libraries\lvgl\src\core/lv_indev.c ****         _lv_indev_scroll_throw_handler(proc);
 2930              		.loc 1 850 0
 2931 00c2 E383     		strh	r3, [r4, #30]	@ movhi
 851:..\..\..\arduinoLCD\test\Pain Drain\libraries\lvgl\src\core/lv_indev.c ****         if(indev_reset_check(proc)) return;
 2932              		.loc 1 851 0
 2933 00c4 2046     		mov	r0, r4
 2934 00c6 FFF7FEFF 		bl	_lv_indev_scroll_throw_handler
 2935              	.LVL341:
 852:..\..\..\arduinoLCD\test\Pain Drain\libraries\lvgl\src\core/lv_indev.c ****     }
 2936              		.loc 1 852 0
 2937 00ca 2046     		mov	r0, r4
 2938 00cc FFF7FEFF 		bl	indev_reset_check
 2939              	.LVL342:
 2940 00d0 0028     		cmp	r0, #0
 2941 00d2 40F0CF80 		bne	.L216
 2942              	.L222:
 856:..\..\..\arduinoLCD\test\Pain Drain\libraries\lvgl\src\core/lv_indev.c ****         proc->types.pointer.last_point.x = proc->types.pointer.act_point.x;
 2943              		.loc 1 856 0
 2944 00d6 606A     		ldr	r0, [r4, #36]
 2945 00d8 674B     		ldr	r3, .L232
 2946 00da 1B68     		ldr	r3, [r3]
 2947 00dc 9842     		cmp	r0, r3
 2948 00de 4ED0     		beq	.L223
 857:..\..\..\arduinoLCD\test\Pain Drain\libraries\lvgl\src\core/lv_indev.c ****         proc->types.pointer.last_point.y = proc->types.pointer.act_point.y;
 2949              		.loc 1 857 0
 2950 00e0 B4F90430 		ldrsh	r3, [r4, #4]
 2951 00e4 A381     		strh	r3, [r4, #12]	@ movhi
 858:..\..\..\arduinoLCD\test\Pain Drain\libraries\lvgl\src\core/lv_indev.c **** 
 2952              		.loc 1 858 0
 2953 00e6 B4F90630 		ldrsh	r3, [r4, #6]
 2954 00ea E381     		strh	r3, [r4, #14]	@ movhi
 861:..\..\..\arduinoLCD\test\Pain Drain\libraries\lvgl\src\core/lv_indev.c ****             /*Save the obj because in special cases `act_obj` can change in the Call the ancestor's
 2955              		.loc 1 861 0
 2956 00ec 50B1     		cbz	r0, .L224
 2957              	.LVL343:
 2958              	.LBB21:
 865:..\..\..\arduinoLCD\test\Pain Drain\libraries\lvgl\src\core/lv_indev.c ****             if(indev_reset_check(proc)) return;
 2959              		.loc 1 865 0
 2960 00ee 624B     		ldr	r3, .L232
 2961 00f0 5A68     		ldr	r2, [r3, #4]
 2962 00f2 0321     		movs	r1, #3
 2963 00f4 FFF7FEFF 		bl	lv_event_send
 2964              	.LVL344:
 866:..\..\..\arduinoLCD\test\Pain Drain\libraries\lvgl\src\core/lv_indev.c ****         }
 2965              		.loc 1 866 0
 2966 00f8 2046     		mov	r0, r4
 2967 00fa FFF7FEFF 		bl	indev_reset_check
 2968              	.LVL345:
 2969 00fe 0028     		cmp	r0, #0
ARM GAS  C:\Users\haske\AppData\Local\Temp\ccOQHbDo.s 			page 84


 2970 0100 40F0B880 		bne	.L216
 2971              	.L224:
 2972              	.LBE21:
 869:..\..\..\arduinoLCD\test\Pain Drain\libraries\lvgl\src\core/lv_indev.c ****         proc->types.pointer.last_obj = indev_obj_act;
 2973              		.loc 1 869 0
 2974 0104 5C4B     		ldr	r3, .L232
 2975 0106 1B68     		ldr	r3, [r3]
 2976 0108 6362     		str	r3, [r4, #36]
 870:..\..\..\arduinoLCD\test\Pain Drain\libraries\lvgl\src\core/lv_indev.c **** 
 2977              		.loc 1 870 0
 2978 010a A362     		str	r3, [r4, #40]
 872:..\..\..\arduinoLCD\test\Pain Drain\libraries\lvgl\src\core/lv_indev.c ****             /*Save the time when the obj pressed to count long press time.*/
 2979              		.loc 1 872 0
 2980 010c 002B     		cmp	r3, #0
 2981 010e 36D0     		beq	.L223
 874:..\..\..\arduinoLCD\test\Pain Drain\libraries\lvgl\src\core/lv_indev.c ****             proc->long_pr_sent                 = 0;
 2982              		.loc 1 874 0
 2983 0110 FFF7FEFF 		bl	lv_tick_get
 2984              	.LVL346:
 2985 0114 6064     		str	r0, [r4, #68]
 875:..\..\..\arduinoLCD\test\Pain Drain\libraries\lvgl\src\core/lv_indev.c ****             proc->types.pointer.scroll_sum.x     = 0;
 2986              		.loc 1 875 0
 2987 0116 6378     		ldrb	r3, [r4, #1]	@ zero_extendqisi2
 2988 0118 6FF30003 		bfc	r3, #0, #1
 2989 011c 6370     		strb	r3, [r4, #1]
 876:..\..\..\arduinoLCD\test\Pain Drain\libraries\lvgl\src\core/lv_indev.c ****             proc->types.pointer.scroll_sum.y     = 0;
 2990              		.loc 1 876 0
 2991 011e 0023     		movs	r3, #0
 2992 0120 2383     		strh	r3, [r4, #24]	@ movhi
 877:..\..\..\arduinoLCD\test\Pain Drain\libraries\lvgl\src\core/lv_indev.c ****             proc->types.pointer.scroll_dir = LV_DIR_NONE;
 2993              		.loc 1 877 0
 2994 0122 6383     		strh	r3, [r4, #26]	@ movhi
 878:..\..\..\arduinoLCD\test\Pain Drain\libraries\lvgl\src\core/lv_indev.c ****             proc->types.pointer.gesture_dir = LV_DIR_NONE;
 2995              		.loc 1 878 0
 2996 0124 94F84020 		ldrb	r2, [r4, #64]	@ zero_extendqisi2
 879:..\..\..\arduinoLCD\test\Pain Drain\libraries\lvgl\src\core/lv_indev.c ****             proc->types.pointer.gesture_sent   = 0;
 2997              		.loc 1 879 0
 2998 0128 02F0F002 		and	r2, r2, #240
 2999 012c 63F30712 		bfi	r2, r3, #4, #4
 3000 0130 84F84020 		strb	r2, [r4, #64]
 880:..\..\..\arduinoLCD\test\Pain Drain\libraries\lvgl\src\core/lv_indev.c ****             proc->types.pointer.gesture_sum.x  = 0;
 3001              		.loc 1 880 0
 3002 0134 94F84120 		ldrb	r2, [r4, #65]	@ zero_extendqisi2
 3003 0138 63F30002 		bfi	r2, r3, #0, #1
 3004 013c 84F84120 		strb	r2, [r4, #65]
 881:..\..\..\arduinoLCD\test\Pain Drain\libraries\lvgl\src\core/lv_indev.c ****             proc->types.pointer.gesture_sum.y  = 0;
 3005              		.loc 1 881 0
 3006 0140 A387     		strh	r3, [r4, #60]	@ movhi
 882:..\..\..\arduinoLCD\test\Pain Drain\libraries\lvgl\src\core/lv_indev.c ****             proc->types.pointer.vect.x         = 0;
 3007              		.loc 1 882 0
 3008 0142 E387     		strh	r3, [r4, #62]	@ movhi
 883:..\..\..\arduinoLCD\test\Pain Drain\libraries\lvgl\src\core/lv_indev.c ****             proc->types.pointer.vect.y         = 0;
 3009              		.loc 1 883 0
 3010 0144 A382     		strh	r3, [r4, #20]	@ movhi
 884:..\..\..\arduinoLCD\test\Pain Drain\libraries\lvgl\src\core/lv_indev.c **** 
 3011              		.loc 1 884 0
 3012 0146 E382     		strh	r3, [r4, #22]	@ movhi
ARM GAS  C:\Users\haske\AppData\Local\Temp\ccOQHbDo.s 			page 85


 887:..\..\..\arduinoLCD\test\Pain Drain\libraries\lvgl\src\core/lv_indev.c ****             if(indev_reset_check(proc)) return;
 3013              		.loc 1 887 0
 3014 0148 4B4B     		ldr	r3, .L232
 3015 014a 5A68     		ldr	r2, [r3, #4]
 3016 014c 0121     		movs	r1, #1
 3017 014e 1868     		ldr	r0, [r3]
 3018 0150 FFF7FEFF 		bl	lv_event_send
 3019              	.LVL347:
 888:..\..\..\arduinoLCD\test\Pain Drain\libraries\lvgl\src\core/lv_indev.c **** 
 3020              		.loc 1 888 0
 3021 0154 2046     		mov	r0, r4
 3022 0156 FFF7FEFF 		bl	indev_reset_check
 3023              	.LVL348:
 3024 015a 0028     		cmp	r0, #0
 3025 015c 40F08A80 		bne	.L216
 890:..\..\..\arduinoLCD\test\Pain Drain\libraries\lvgl\src\core/lv_indev.c **** 
 3026              		.loc 1 890 0
 3027 0160 454B     		ldr	r3, .L232
 3028 0162 5868     		ldr	r0, [r3, #4]
 3029 0164 4379     		ldrb	r3, [r0, #5]	@ zero_extendqisi2
 3030 0166 13F0080F 		tst	r3, #8
 3031 016a 40F08380 		bne	.L216
 893:..\..\..\arduinoLCD\test\Pain Drain\libraries\lvgl\src\core/lv_indev.c ****             if(indev_reset_check(proc)) return;
 3032              		.loc 1 893 0
 3033 016e 0430     		adds	r0, r0, #4
 3034 0170 FFF7FEFF 		bl	indev_click_focus
 3035              	.LVL349:
 894:..\..\..\arduinoLCD\test\Pain Drain\libraries\lvgl\src\core/lv_indev.c **** 
 3036              		.loc 1 894 0
 3037 0174 2046     		mov	r0, r4
 3038 0176 FFF7FEFF 		bl	indev_reset_check
 3039              	.LVL350:
 3040 017a 0028     		cmp	r0, #0
 3041 017c 7AD1     		bne	.L216
 3042              	.L223:
 900:..\..\..\arduinoLCD\test\Pain Drain\libraries\lvgl\src\core/lv_indev.c ****     proc->types.pointer.vect.y = proc->types.pointer.act_point.y - proc->types.pointer.last_point.y
 3043              		.loc 1 900 0
 3044 017e B4F90430 		ldrsh	r3, [r4, #4]
 3045 0182 B4F90C20 		ldrsh	r2, [r4, #12]
 3046 0186 9A1A     		subs	r2, r3, r2
 3047 0188 12B2     		sxth	r2, r2
 3048 018a A282     		strh	r2, [r4, #20]	@ movhi
 901:..\..\..\arduinoLCD\test\Pain Drain\libraries\lvgl\src\core/lv_indev.c **** 
 3049              		.loc 1 901 0
 3050 018c B4F90630 		ldrsh	r3, [r4, #6]
 3051 0190 B4F90E10 		ldrsh	r1, [r4, #14]
 3052 0194 5B1A     		subs	r3, r3, r1
 3053 0196 1BB2     		sxth	r3, r3
 3054 0198 E382     		strh	r3, [r4, #22]	@ movhi
 903:..\..\..\arduinoLCD\test\Pain Drain\libraries\lvgl\src\core/lv_indev.c ****     proc->types.pointer.scroll_throw_vect.y = (proc->types.pointer.scroll_throw_vect.y + proc->type
 3055              		.loc 1 903 0
 3056 019a B4F91C10 		ldrsh	r1, [r4, #28]
 3057 019e 0A44     		add	r2, r2, r1
 3058 01a0 02EBD272 		add	r2, r2, r2, lsr #31
 3059 01a4 5210     		asrs	r2, r2, #1
 3060 01a6 A283     		strh	r2, [r4, #28]	@ movhi
 904:..\..\..\arduinoLCD\test\Pain Drain\libraries\lvgl\src\core/lv_indev.c **** 
ARM GAS  C:\Users\haske\AppData\Local\Temp\ccOQHbDo.s 			page 86


 3061              		.loc 1 904 0
 3062 01a8 B4F91E20 		ldrsh	r2, [r4, #30]
 3063 01ac 1344     		add	r3, r3, r2
 3064 01ae 03EBD373 		add	r3, r3, r3, lsr #31
 3065 01b2 5B10     		asrs	r3, r3, #1
 3066 01b4 E383     		strh	r3, [r4, #30]	@ movhi
 906:..\..\..\arduinoLCD\test\Pain Drain\libraries\lvgl\src\core/lv_indev.c **** 
 3067              		.loc 1 906 0
 3068 01b6 E369     		ldr	r3, [r4, #28]
 3069 01b8 2362     		str	r3, [r4, #32]
 908:..\..\..\arduinoLCD\test\Pain Drain\libraries\lvgl\src\core/lv_indev.c ****         lv_event_send(indev_obj_act, LV_EVENT_PRESSING, indev_act);
 3070              		.loc 1 908 0
 3071 01ba 2F4B     		ldr	r3, .L232
 3072 01bc 1868     		ldr	r0, [r3]
 3073 01be 0028     		cmp	r0, #0
 3074 01c0 58D0     		beq	.L216
 909:..\..\..\arduinoLCD\test\Pain Drain\libraries\lvgl\src\core/lv_indev.c ****         if(indev_reset_check(proc)) return;
 3075              		.loc 1 909 0
 3076 01c2 5A68     		ldr	r2, [r3, #4]
 3077 01c4 0221     		movs	r1, #2
 3078 01c6 FFF7FEFF 		bl	lv_event_send
 3079              	.LVL351:
 910:..\..\..\arduinoLCD\test\Pain Drain\libraries\lvgl\src\core/lv_indev.c **** 
 3080              		.loc 1 910 0
 3081 01ca 2046     		mov	r0, r4
 3082 01cc FFF7FEFF 		bl	indev_reset_check
 3083              	.LVL352:
 3084 01d0 0028     		cmp	r0, #0
 3085 01d2 4FD1     		bne	.L216
 912:..\..\..\arduinoLCD\test\Pain Drain\libraries\lvgl\src\core/lv_indev.c **** 
 3086              		.loc 1 912 0
 3087 01d4 284B     		ldr	r3, .L232
 3088 01d6 5B68     		ldr	r3, [r3, #4]
 3089 01d8 5B79     		ldrb	r3, [r3, #5]	@ zero_extendqisi2
 3090 01da 13F0080F 		tst	r3, #8
 3091 01de 49D1     		bne	.L216
 914:..\..\..\arduinoLCD\test\Pain Drain\libraries\lvgl\src\core/lv_indev.c ****         if(indev_reset_check(proc)) return;
 3092              		.loc 1 914 0
 3093 01e0 2046     		mov	r0, r4
 3094 01e2 FFF7FEFF 		bl	_lv_indev_scroll_handler
 3095              	.LVL353:
 915:..\..\..\arduinoLCD\test\Pain Drain\libraries\lvgl\src\core/lv_indev.c ****         indev_gesture(proc);
 3096              		.loc 1 915 0
 3097 01e6 2046     		mov	r0, r4
 3098 01e8 FFF7FEFF 		bl	indev_reset_check
 3099              	.LVL354:
 3100 01ec 0028     		cmp	r0, #0
 3101 01ee 41D1     		bne	.L216
 916:..\..\..\arduinoLCD\test\Pain Drain\libraries\lvgl\src\core/lv_indev.c ****         if(indev_reset_check(proc)) return;
 3102              		.loc 1 916 0
 3103 01f0 2046     		mov	r0, r4
 3104 01f2 FFF7FEFF 		bl	indev_gesture
 3105              	.LVL355:
 917:..\..\..\arduinoLCD\test\Pain Drain\libraries\lvgl\src\core/lv_indev.c **** 
 3106              		.loc 1 917 0
 3107 01f6 2046     		mov	r0, r4
 3108 01f8 FFF7FEFF 		bl	indev_reset_check
ARM GAS  C:\Users\haske\AppData\Local\Temp\ccOQHbDo.s 			page 87


 3109              	.LVL356:
 3110 01fc 0028     		cmp	r0, #0
 3111 01fe 39D1     		bne	.L216
 920:..\..\..\arduinoLCD\test\Pain Drain\libraries\lvgl\src\core/lv_indev.c ****             /*Call the ancestor's event handler about the long press if enough time elapsed*/
 3112              		.loc 1 920 0
 3113 0200 E36A     		ldr	r3, [r4, #44]
 3114 0202 E3B9     		cbnz	r3, .L225
 920:..\..\..\arduinoLCD\test\Pain Drain\libraries\lvgl\src\core/lv_indev.c ****             /*Call the ancestor's event handler about the long press if enough time elapsed*/
 3115              		.loc 1 920 0 is_stmt 0 discriminator 1
 3116 0204 6378     		ldrb	r3, [r4, #1]	@ zero_extendqisi2
 3117 0206 13F0010F 		tst	r3, #1
 3118 020a 18D1     		bne	.L225
 922:..\..\..\arduinoLCD\test\Pain Drain\libraries\lvgl\src\core/lv_indev.c ****                 lv_event_send(indev_obj_act, LV_EVENT_LONG_PRESSED, indev_act);
 3119              		.loc 1 922 0 is_stmt 1
 3120 020c 606C     		ldr	r0, [r4, #68]
 3121 020e FFF7FEFF 		bl	lv_tick_elaps
 3122              	.LVL357:
 3123 0212 194B     		ldr	r3, .L232
 3124 0214 5A68     		ldr	r2, [r3, #4]
 3125 0216 1368     		ldr	r3, [r2]
 3126 0218 9B8B     		ldrh	r3, [r3, #28]
 3127 021a 9842     		cmp	r0, r3
 3128 021c 0FD9     		bls	.L225
 923:..\..\..\arduinoLCD\test\Pain Drain\libraries\lvgl\src\core/lv_indev.c ****                 if(indev_reset_check(proc)) return;
 3129              		.loc 1 923 0
 3130 021e 0521     		movs	r1, #5
 3131 0220 154B     		ldr	r3, .L232
 3132 0222 1868     		ldr	r0, [r3]
 3133 0224 FFF7FEFF 		bl	lv_event_send
 3134              	.LVL358:
 924:..\..\..\arduinoLCD\test\Pain Drain\libraries\lvgl\src\core/lv_indev.c **** 
 3135              		.loc 1 924 0
 3136 0228 2046     		mov	r0, r4
 3137 022a FFF7FEFF 		bl	indev_reset_check
 3138              	.LVL359:
 3139 022e 08BB     		cbnz	r0, .L216
 927:..\..\..\arduinoLCD\test\Pain Drain\libraries\lvgl\src\core/lv_indev.c **** 
 3140              		.loc 1 927 0
 3141 0230 6378     		ldrb	r3, [r4, #1]	@ zero_extendqisi2
 3142 0232 43F00103 		orr	r3, r3, #1
 3143 0236 6370     		strb	r3, [r4, #1]
 930:..\..\..\arduinoLCD\test\Pain Drain\libraries\lvgl\src\core/lv_indev.c ****             }
 3144              		.loc 1 930 0
 3145 0238 FFF7FEFF 		bl	lv_tick_get
 3146              	.LVL360:
 3147 023c A064     		str	r0, [r4, #72]
 3148              	.L225:
 935:..\..\..\arduinoLCD\test\Pain Drain\libraries\lvgl\src\core/lv_indev.c ****             /*Call the ancestor's event handler about the long press repeat if enough time elapsed*
 3149              		.loc 1 935 0
 3150 023e E36A     		ldr	r3, [r4, #44]
 3151 0240 C3B9     		cbnz	r3, .L216
 935:..\..\..\arduinoLCD\test\Pain Drain\libraries\lvgl\src\core/lv_indev.c ****             /*Call the ancestor's event handler about the long press repeat if enough time elapsed*
 3152              		.loc 1 935 0 is_stmt 0 discriminator 1
 3153 0242 6378     		ldrb	r3, [r4, #1]	@ zero_extendqisi2
 3154 0244 13F0010F 		tst	r3, #1
 3155 0248 14D0     		beq	.L216
 937:..\..\..\arduinoLCD\test\Pain Drain\libraries\lvgl\src\core/lv_indev.c ****                 lv_event_send(indev_obj_act, LV_EVENT_LONG_PRESSED_REPEAT, indev_act);
ARM GAS  C:\Users\haske\AppData\Local\Temp\ccOQHbDo.s 			page 88


 3156              		.loc 1 937 0 is_stmt 1
 3157 024a A06C     		ldr	r0, [r4, #72]
 3158 024c FFF7FEFF 		bl	lv_tick_elaps
 3159              	.LVL361:
 3160 0250 094B     		ldr	r3, .L232
 3161 0252 5A68     		ldr	r2, [r3, #4]
 3162 0254 1368     		ldr	r3, [r2]
 3163 0256 DB8B     		ldrh	r3, [r3, #30]
 3164 0258 9842     		cmp	r0, r3
 3165 025a 0BD9     		bls	.L216
 938:..\..\..\arduinoLCD\test\Pain Drain\libraries\lvgl\src\core/lv_indev.c ****                 if(indev_reset_check(proc)) return;
 3166              		.loc 1 938 0
 3167 025c 0621     		movs	r1, #6
 3168 025e 064B     		ldr	r3, .L232
 3169 0260 1868     		ldr	r0, [r3]
 3170 0262 FFF7FEFF 		bl	lv_event_send
 3171              	.LVL362:
 939:..\..\..\arduinoLCD\test\Pain Drain\libraries\lvgl\src\core/lv_indev.c ****                 proc->longpr_rep_timestamp = lv_tick_get();
 3172              		.loc 1 939 0
 3173 0266 2046     		mov	r0, r4
 3174 0268 FFF7FEFF 		bl	indev_reset_check
 3175              	.LVL363:
 3176 026c 10B9     		cbnz	r0, .L216
 940:..\..\..\arduinoLCD\test\Pain Drain\libraries\lvgl\src\core/lv_indev.c ****             }
 3177              		.loc 1 940 0
 3178 026e FFF7FEFF 		bl	lv_tick_get
 3179              	.LVL364:
 3180 0272 A064     		str	r0, [r4, #72]
 3181              	.L216:
 3182 0274 70BD     		pop	{r4, r5, r6, pc}
 3183              	.LVL365:
 3184              	.L231:
 3185              		.cfi_def_cfa_offset 0
 3186              		.cfi_restore 4
 3187              		.cfi_restore 5
 3188              		.cfi_restore 6
 3189              		.cfi_restore 14
 3190 0276 7047     		bx	lr
 3191              	.L233:
 3192              		.align	2
 3193              	.L232:
 3194 0278 00000000 		.word	.LANCHOR0
 3195              		.cfi_endproc
 3196              	.LFE188:
 3197              		.size	indev_proc_press, .-indev_proc_press
 3198              		.section	.text.indev_pointer_proc,"ax",%progbits
 3199              		.align	2
 3200              		.thumb
 3201              		.thumb_func
 3202              		.type	indev_pointer_proc, %function
 3203              	indev_pointer_proc:
 3204              	.LFB184:
 341:..\..\..\arduinoLCD\test\Pain Drain\libraries\lvgl\src\core/lv_indev.c ****     lv_disp_t * disp = i->driver->disp;
 3205              		.loc 1 341 0
 3206              		.cfi_startproc
 3207              		@ args = 0, pretend = 0, frame = 0
 3208              		@ frame_needed = 0, uses_anonymous_args = 0
ARM GAS  C:\Users\haske\AppData\Local\Temp\ccOQHbDo.s 			page 89


 3209              	.LVL366:
 3210 0000 38B5     		push	{r3, r4, r5, lr}
 3211              		.cfi_def_cfa_offset 16
 3212              		.cfi_offset 3, -16
 3213              		.cfi_offset 4, -12
 3214              		.cfi_offset 5, -8
 3215              		.cfi_offset 14, -4
 3216 0002 0446     		mov	r4, r0
 3217 0004 0D46     		mov	r5, r1
 342:..\..\..\arduinoLCD\test\Pain Drain\libraries\lvgl\src\core/lv_indev.c ****     /*Save the raw points so they can be used again in _lv_indev_read*/
 3218              		.loc 1 342 0
 3219 0006 0368     		ldr	r3, [r0]
 3220 0008 1A69     		ldr	r2, [r3, #16]
 3221              	.LVL367:
 344:..\..\..\arduinoLCD\test\Pain Drain\libraries\lvgl\src\core/lv_indev.c ****     i->proc.types.pointer.last_raw_point.y = data->point.y;
 3222              		.loc 1 344 0
 3223 000a B1F90030 		ldrsh	r3, [r1]
 3224 000e 8382     		strh	r3, [r0, #20]	@ movhi
 345:..\..\..\arduinoLCD\test\Pain Drain\libraries\lvgl\src\core/lv_indev.c **** 
 3225              		.loc 1 345 0
 3226 0010 B1F90230 		ldrsh	r3, [r1, #2]
 3227 0014 C382     		strh	r3, [r0, #22]	@ movhi
 347:..\..\..\arduinoLCD\test\Pain Drain\libraries\lvgl\src\core/lv_indev.c ****         data->point.x = disp->driver->hor_res - data->point.x - 1;
 3228              		.loc 1 347 0
 3229 0016 1168     		ldr	r1, [r2]
 3230              	.LVL368:
 3231 0018 0B7C     		ldrb	r3, [r1, #16]	@ zero_extendqisi2
 3232 001a 03F03003 		and	r3, r3, #48
 3233 001e 202B     		cmp	r3, #32
 3234 0020 01D0     		beq	.L235
 347:..\..\..\arduinoLCD\test\Pain Drain\libraries\lvgl\src\core/lv_indev.c ****         data->point.x = disp->driver->hor_res - data->point.x - 1;
 3235              		.loc 1 347 0 is_stmt 0 discriminator 1
 3236 0022 302B     		cmp	r3, #48
 3237 0024 0ED1     		bne	.L236
 3238              	.L235:
 348:..\..\..\arduinoLCD\test\Pain Drain\libraries\lvgl\src\core/lv_indev.c ****         data->point.y = disp->driver->ver_res - data->point.y - 1;
 3239              		.loc 1 348 0 is_stmt 1
 3240 0026 B1F90030 		ldrsh	r3, [r1]
 3241 002a B5F90010 		ldrsh	r1, [r5]
 3242 002e 5B1A     		subs	r3, r3, r1
 3243 0030 013B     		subs	r3, r3, #1
 3244 0032 2B80     		strh	r3, [r5]	@ movhi
 349:..\..\..\arduinoLCD\test\Pain Drain\libraries\lvgl\src\core/lv_indev.c ****     }
 3245              		.loc 1 349 0
 3246 0034 1368     		ldr	r3, [r2]
 3247 0036 B3F90230 		ldrsh	r3, [r3, #2]
 3248 003a B5F90210 		ldrsh	r1, [r5, #2]
 3249 003e 5B1A     		subs	r3, r3, r1
 3250 0040 013B     		subs	r3, r3, #1
 3251 0042 6B80     		strh	r3, [r5, #2]	@ movhi
 3252              	.L236:
 351:..\..\..\arduinoLCD\test\Pain Drain\libraries\lvgl\src\core/lv_indev.c ****         lv_coord_t tmp = data->point.y;
 3253              		.loc 1 351 0
 3254 0044 1368     		ldr	r3, [r2]
 3255 0046 1B7C     		ldrb	r3, [r3, #16]	@ zero_extendqisi2
 3256 0048 03F03003 		and	r3, r3, #48
 3257 004c 102B     		cmp	r3, #16
ARM GAS  C:\Users\haske\AppData\Local\Temp\ccOQHbDo.s 			page 90


 3258 004e 01D0     		beq	.L237
 351:..\..\..\arduinoLCD\test\Pain Drain\libraries\lvgl\src\core/lv_indev.c ****         lv_coord_t tmp = data->point.y;
 3259              		.loc 1 351 0 is_stmt 0 discriminator 1
 3260 0050 302B     		cmp	r3, #48
 3261 0052 0AD1     		bne	.L238
 3262              	.L237:
 3263              	.LBB22:
 352:..\..\..\arduinoLCD\test\Pain Drain\libraries\lvgl\src\core/lv_indev.c ****         data->point.y = data->point.x;
 3264              		.loc 1 352 0 is_stmt 1
 3265 0054 B5F90210 		ldrsh	r1, [r5, #2]
 3266              	.LVL369:
 353:..\..\..\arduinoLCD\test\Pain Drain\libraries\lvgl\src\core/lv_indev.c ****         data->point.x = disp->driver->ver_res - tmp - 1;
 3267              		.loc 1 353 0
 3268 0058 B5F90030 		ldrsh	r3, [r5]
 3269 005c 6B80     		strh	r3, [r5, #2]	@ movhi
 354:..\..\..\arduinoLCD\test\Pain Drain\libraries\lvgl\src\core/lv_indev.c ****     }
 3270              		.loc 1 354 0
 3271 005e 1368     		ldr	r3, [r2]
 3272 0060 B3F90230 		ldrsh	r3, [r3, #2]
 3273 0064 5B1A     		subs	r3, r3, r1
 3274 0066 013B     		subs	r3, r3, #1
 3275 0068 2B80     		strh	r3, [r5]	@ movhi
 3276              	.LVL370:
 3277              	.L238:
 3278              	.LBE22:
 361:..\..\..\arduinoLCD\test\Pain Drain\libraries\lvgl\src\core/lv_indev.c ****         LV_LOG_WARN("X is %d which is greater than hor. res", data->point.x);
 3279              		.loc 1 361 0
 3280 006a 2368     		ldr	r3, [r4]
 3281 006c 1869     		ldr	r0, [r3, #16]
 3282              	.LVL371:
 3283 006e FFF7FEFF 		bl	lv_disp_get_hor_res
 3284              	.LVL372:
 367:..\..\..\arduinoLCD\test\Pain Drain\libraries\lvgl\src\core/lv_indev.c ****         LV_LOG_WARN("Y is %d which is greater than ver. res", data->point.y);
 3285              		.loc 1 367 0
 3286 0072 2368     		ldr	r3, [r4]
 3287 0074 1869     		ldr	r0, [r3, #16]
 3288 0076 FFF7FEFF 		bl	lv_disp_get_ver_res
 3289              	.LVL373:
 372:..\..\..\arduinoLCD\test\Pain Drain\libraries\lvgl\src\core/lv_indev.c ****        (i->proc.types.pointer.last_point.x != data->point.x || i->proc.types.pointer.last_point.y !
 3290              		.loc 1 372 0
 3291 007a 206D     		ldr	r0, [r4, #80]
 3292 007c 48B1     		cbz	r0, .L239
 373:..\..\..\arduinoLCD\test\Pain Drain\libraries\lvgl\src\core/lv_indev.c ****         lv_obj_set_pos(i->cursor, data->point.x, data->point.y);
 3293              		.loc 1 373 0 discriminator 1
 3294 007e 2269     		ldr	r2, [r4, #16]
 3295 0080 2B68     		ldr	r3, [r5]
 372:..\..\..\arduinoLCD\test\Pain Drain\libraries\lvgl\src\core/lv_indev.c ****        (i->proc.types.pointer.last_point.x != data->point.x || i->proc.types.pointer.last_point.y !
 3296              		.loc 1 372 0 discriminator 1
 3297 0082 9A42     		cmp	r2, r3
 3298 0084 05D0     		beq	.L239
 374:..\..\..\arduinoLCD\test\Pain Drain\libraries\lvgl\src\core/lv_indev.c ****     }
 3299              		.loc 1 374 0
 3300 0086 B5F90220 		ldrsh	r2, [r5, #2]
 3301 008a B5F90010 		ldrsh	r1, [r5]
 3302 008e FFF7FEFF 		bl	lv_obj_set_pos
 3303              	.LVL374:
 3304              	.L239:
ARM GAS  C:\Users\haske\AppData\Local\Temp\ccOQHbDo.s 			page 91


 377:..\..\..\arduinoLCD\test\Pain Drain\libraries\lvgl\src\core/lv_indev.c ****     i->proc.types.pointer.act_point.y = data->point.y;
 3305              		.loc 1 377 0
 3306 0092 B5F90030 		ldrsh	r3, [r5]
 3307 0096 2381     		strh	r3, [r4, #8]	@ movhi
 378:..\..\..\arduinoLCD\test\Pain Drain\libraries\lvgl\src\core/lv_indev.c **** 
 3308              		.loc 1 378 0
 3309 0098 B5F90230 		ldrsh	r3, [r5, #2]
 3310 009c 6381     		strh	r3, [r4, #10]	@ movhi
 380:..\..\..\arduinoLCD\test\Pain Drain\libraries\lvgl\src\core/lv_indev.c ****         indev_proc_press(&i->proc);
 3311              		.loc 1 380 0
 3312 009e 2379     		ldrb	r3, [r4, #4]	@ zero_extendqisi2
 3313 00a0 012B     		cmp	r3, #1
 3314 00a2 03D1     		bne	.L240
 381:..\..\..\arduinoLCD\test\Pain Drain\libraries\lvgl\src\core/lv_indev.c ****     }
 3315              		.loc 1 381 0
 3316 00a4 201D     		adds	r0, r4, #4
 3317 00a6 FFF7FEFF 		bl	indev_proc_press
 3318              	.LVL375:
 3319 00aa 02E0     		b	.L241
 3320              	.L240:
 384:..\..\..\arduinoLCD\test\Pain Drain\libraries\lvgl\src\core/lv_indev.c ****     }
 3321              		.loc 1 384 0
 3322 00ac 201D     		adds	r0, r4, #4
 3323 00ae FFF7FEFF 		bl	indev_proc_release
 3324              	.LVL376:
 3325              	.L241:
 387:..\..\..\arduinoLCD\test\Pain Drain\libraries\lvgl\src\core/lv_indev.c ****     i->proc.types.pointer.last_point.y = i->proc.types.pointer.act_point.y;
 3326              		.loc 1 387 0
 3327 00b2 B4F90830 		ldrsh	r3, [r4, #8]
 3328 00b6 2382     		strh	r3, [r4, #16]	@ movhi
 388:..\..\..\arduinoLCD\test\Pain Drain\libraries\lvgl\src\core/lv_indev.c **** }
 3329              		.loc 1 388 0
 3330 00b8 B4F90A30 		ldrsh	r3, [r4, #10]
 3331 00bc 6382     		strh	r3, [r4, #18]	@ movhi
 3332 00be 38BD     		pop	{r3, r4, r5, pc}
 3333              		.cfi_endproc
 3334              	.LFE184:
 3335              		.size	indev_pointer_proc, .-indev_pointer_proc
 3336              		.section	.text.indev_button_proc,"ax",%progbits
 3337              		.align	2
 3338              		.thumb
 3339              		.thumb_func
 3340              		.type	indev_button_proc, %function
 3341              	indev_button_proc:
 3342              	.LFB187:
 769:..\..\..\arduinoLCD\test\Pain Drain\libraries\lvgl\src\core/lv_indev.c ****     /*Die gracefully if i->btn_points is NULL*/
 3343              		.loc 1 769 0
 3344              		.cfi_startproc
 3345              		@ args = 0, pretend = 0, frame = 0
 3346              		@ frame_needed = 0, uses_anonymous_args = 0
 3347              	.LVL377:
 771:..\..\..\arduinoLCD\test\Pain Drain\libraries\lvgl\src\core/lv_indev.c ****         LV_LOG_WARN("btn_points is NULL");
 3348              		.loc 1 771 0
 3349 0000 836D     		ldr	r3, [r0, #88]
 3350 0002 B3B3     		cbz	r3, .L250
 769:..\..\..\arduinoLCD\test\Pain Drain\libraries\lvgl\src\core/lv_indev.c ****     /*Die gracefully if i->btn_points is NULL*/
 3351              		.loc 1 769 0
ARM GAS  C:\Users\haske\AppData\Local\Temp\ccOQHbDo.s 			page 92


 3352 0004 2DE9F041 		push	{r4, r5, r6, r7, r8, lr}
 3353              		.cfi_def_cfa_offset 24
 3354              		.cfi_offset 4, -24
 3355              		.cfi_offset 5, -20
 3356              		.cfi_offset 6, -16
 3357              		.cfi_offset 7, -12
 3358              		.cfi_offset 8, -8
 3359              		.cfi_offset 14, -4
 3360 0008 0D46     		mov	r5, r1
 3361 000a 0446     		mov	r4, r0
 776:..\..\..\arduinoLCD\test\Pain Drain\libraries\lvgl\src\core/lv_indev.c ****     lv_coord_t y = i->btn_points[data->btn_id].y;
 3362              		.loc 1 776 0
 3363 000c 8A68     		ldr	r2, [r1, #8]
 3364 000e 03EB8201 		add	r1, r3, r2, lsl #2
 3365              	.LVL378:
 3366 0012 33F92270 		ldrsh	r7, [r3, r2, lsl #2]
 3367              	.LVL379:
 777:..\..\..\arduinoLCD\test\Pain Drain\libraries\lvgl\src\core/lv_indev.c **** 
 3368              		.loc 1 777 0
 3369 0016 B1F90280 		ldrsh	r8, [r1, #2]
 3370              	.LVL380:
 780:..\..\..\arduinoLCD\test\Pain Drain\libraries\lvgl\src\core/lv_indev.c ****         if(data->state == LV_INDEV_STATE_PRESSED) {
 3371              		.loc 1 780 0
 3372 001a AB7B     		ldrb	r3, [r5, #14]	@ zero_extendqisi2
 790:..\..\..\arduinoLCD\test\Pain Drain\libraries\lvgl\src\core/lv_indev.c ****         if(i->proc.types.pointer.last_point.x != x ||
 3373              		.loc 1 790 0
 3374 001c 012B     		cmp	r3, #1
 3375 001e 0AD1     		bne	.L245
 791:..\..\..\arduinoLCD\test\Pain Drain\libraries\lvgl\src\core/lv_indev.c ****            i->proc.types.pointer.last_point.y != y) {
 3376              		.loc 1 791 0
 3377 0020 B0F91030 		ldrsh	r3, [r0, #16]
 3378 0024 9F42     		cmp	r7, r3
 3379 0026 03D1     		bne	.L246
 792:..\..\..\arduinoLCD\test\Pain Drain\libraries\lvgl\src\core/lv_indev.c ****             indev_proc_release(&i->proc);
 3380              		.loc 1 792 0 discriminator 1
 3381 0028 B0F91230 		ldrsh	r3, [r0, #18]
 791:..\..\..\arduinoLCD\test\Pain Drain\libraries\lvgl\src\core/lv_indev.c ****            i->proc.types.pointer.last_point.y != y) {
 3382              		.loc 1 791 0 discriminator 1
 3383 002c 9845     		cmp	r8, r3
 3384 002e 02D0     		beq	.L245
 3385              	.L246:
 793:..\..\..\arduinoLCD\test\Pain Drain\libraries\lvgl\src\core/lv_indev.c ****         }
 3386              		.loc 1 793 0
 3387 0030 201D     		adds	r0, r4, #4
 3388              	.LVL381:
 3389 0032 FFF7FEFF 		bl	indev_proc_release
 3390              	.LVL382:
 3391              	.L245:
 797:..\..\..\arduinoLCD\test\Pain Drain\libraries\lvgl\src\core/lv_indev.c **** 
 3392              		.loc 1 797 0
 3393 0036 261D     		adds	r6, r4, #4
 3394 0038 3046     		mov	r0, r6
 3395 003a FFF7FEFF 		bl	indev_reset_check
 3396              	.LVL383:
 3397 003e B0B9     		cbnz	r0, .L243
 800:..\..\..\arduinoLCD\test\Pain Drain\libraries\lvgl\src\core/lv_indev.c ****     i->proc.types.pointer.act_point.y = y;
 3398              		.loc 1 800 0
ARM GAS  C:\Users\haske\AppData\Local\Temp\ccOQHbDo.s 			page 93


 3399 0040 2781     		strh	r7, [r4, #8]	@ movhi
 801:..\..\..\arduinoLCD\test\Pain Drain\libraries\lvgl\src\core/lv_indev.c **** 
 3400              		.loc 1 801 0
 3401 0042 A4F80A80 		strh	r8, [r4, #10]	@ movhi
 803:..\..\..\arduinoLCD\test\Pain Drain\libraries\lvgl\src\core/lv_indev.c ****     else indev_proc_release(&i->proc);
 3402              		.loc 1 803 0
 3403 0046 AB7B     		ldrb	r3, [r5, #14]	@ zero_extendqisi2
 3404 0048 012B     		cmp	r3, #1
 3405 004a 03D1     		bne	.L247
 803:..\..\..\arduinoLCD\test\Pain Drain\libraries\lvgl\src\core/lv_indev.c ****     else indev_proc_release(&i->proc);
 3406              		.loc 1 803 0 is_stmt 0 discriminator 1
 3407 004c 3046     		mov	r0, r6
 3408 004e FFF7FEFF 		bl	indev_proc_press
 3409              	.LVL384:
 3410 0052 02E0     		b	.L248
 3411              	.L247:
 804:..\..\..\arduinoLCD\test\Pain Drain\libraries\lvgl\src\core/lv_indev.c **** 
 3412              		.loc 1 804 0 is_stmt 1
 3413 0054 3046     		mov	r0, r6
 3414 0056 FFF7FEFF 		bl	indev_proc_release
 3415              	.LVL385:
 3416              	.L248:
 806:..\..\..\arduinoLCD\test\Pain Drain\libraries\lvgl\src\core/lv_indev.c **** 
 3417              		.loc 1 806 0
 3418 005a 3046     		mov	r0, r6
 3419 005c FFF7FEFF 		bl	indev_reset_check
 3420              	.LVL386:
 3421 0060 28B9     		cbnz	r0, .L243
 808:..\..\..\arduinoLCD\test\Pain Drain\libraries\lvgl\src\core/lv_indev.c ****     i->proc.types.pointer.last_point.y = i->proc.types.pointer.act_point.y;
 3422              		.loc 1 808 0
 3423 0062 B4F90830 		ldrsh	r3, [r4, #8]
 3424 0066 2382     		strh	r3, [r4, #16]	@ movhi
 809:..\..\..\arduinoLCD\test\Pain Drain\libraries\lvgl\src\core/lv_indev.c **** }
 3425              		.loc 1 809 0
 3426 0068 B4F90A30 		ldrsh	r3, [r4, #10]
 3427 006c 6382     		strh	r3, [r4, #18]	@ movhi
 3428              	.L243:
 3429 006e BDE8F081 		pop	{r4, r5, r6, r7, r8, pc}
 3430              	.LVL387:
 3431              	.L250:
 3432              		.cfi_def_cfa_offset 0
 3433              		.cfi_restore 4
 3434              		.cfi_restore 5
 3435              		.cfi_restore 6
 3436              		.cfi_restore 7
 3437              		.cfi_restore 8
 3438              		.cfi_restore 14
 3439 0072 7047     		bx	lr
 3440              		.cfi_endproc
 3441              	.LFE187:
 3442              		.size	indev_button_proc, .-indev_button_proc
 3443              		.section	.text.lv_indev_read_timer_cb,"ax",%progbits
 3444              		.align	2
 3445              		.global	lv_indev_read_timer_cb
 3446              		.thumb
 3447              		.thumb_func
 3448              		.type	lv_indev_read_timer_cb, %function
ARM GAS  C:\Users\haske\AppData\Local\Temp\ccOQHbDo.s 			page 94


 3449              	lv_indev_read_timer_cb:
 3450              	.LFB165:
  65:..\..\..\arduinoLCD\test\Pain Drain\libraries\lvgl\src\core/lv_indev.c ****     INDEV_TRACE("begin");
 3451              		.loc 1 65 0
 3452              		.cfi_startproc
 3453              		@ args = 0, pretend = 0, frame = 16
 3454              		@ frame_needed = 0, uses_anonymous_args = 0
 3455              	.LVL388:
  70:..\..\..\arduinoLCD\test\Pain Drain\libraries\lvgl\src\core/lv_indev.c **** 
 3456              		.loc 1 70 0
 3457 0000 C068     		ldr	r0, [r0, #12]
 3458              	.LVL389:
 3459 0002 314B     		ldr	r3, .L263
 3460 0004 5860     		str	r0, [r3, #4]
  73:..\..\..\arduinoLCD\test\Pain Drain\libraries\lvgl\src\core/lv_indev.c **** 
 3461              		.loc 1 73 0
 3462 0006 0368     		ldr	r3, [r0]
 3463 0008 1B69     		ldr	r3, [r3, #16]
 3464 000a 002B     		cmp	r3, #0
 3465 000c 5AD0     		beq	.L262
  65:..\..\..\arduinoLCD\test\Pain Drain\libraries\lvgl\src\core/lv_indev.c ****     INDEV_TRACE("begin");
 3466              		.loc 1 65 0
 3467 000e 30B5     		push	{r4, r5, lr}
 3468              		.cfi_def_cfa_offset 12
 3469              		.cfi_offset 4, -12
 3470              		.cfi_offset 5, -8
 3471              		.cfi_offset 14, -4
 3472 0010 85B0     		sub	sp, sp, #20
 3473              		.cfi_def_cfa_offset 32
  76:..\..\..\arduinoLCD\test\Pain Drain\libraries\lvgl\src\core/lv_indev.c **** 
 3474              		.loc 1 76 0
 3475 0012 FFF7FEFF 		bl	indev_proc_reset_query_handler
 3476              	.LVL390:
  78:..\..\..\arduinoLCD\test\Pain Drain\libraries\lvgl\src\core/lv_indev.c ****        indev_act->driver->disp->prev_scr != NULL) return; /*Input disabled or screen animation acti
 3477              		.loc 1 78 0
 3478 0016 2C4B     		ldr	r3, .L263
 3479 0018 5B68     		ldr	r3, [r3, #4]
 3480 001a 5A79     		ldrb	r2, [r3, #5]	@ zero_extendqisi2
 3481 001c 12F0040F 		tst	r2, #4
 3482 0020 4ED1     		bne	.L251
  79:..\..\..\arduinoLCD\test\Pain Drain\libraries\lvgl\src\core/lv_indev.c ****     bool continue_reading;
 3483              		.loc 1 79 0 discriminator 1
 3484 0022 1B68     		ldr	r3, [r3]
 3485 0024 1B69     		ldr	r3, [r3, #16]
 3486 0026 5B69     		ldr	r3, [r3, #20]
  78:..\..\..\arduinoLCD\test\Pain Drain\libraries\lvgl\src\core/lv_indev.c ****        indev_act->driver->disp->prev_scr != NULL) return; /*Input disabled or screen animation acti
 3487              		.loc 1 78 0 discriminator 1
 3488 0028 002B     		cmp	r3, #0
 3489 002a 49D1     		bne	.L251
 3490              	.L259:
  83:..\..\..\arduinoLCD\test\Pain Drain\libraries\lvgl\src\core/lv_indev.c ****         continue_reading = data.continue_reading;
 3491              		.loc 1 83 0
 3492 002c 264C     		ldr	r4, .L263
 3493 002e 6946     		mov	r1, sp
 3494 0030 6068     		ldr	r0, [r4, #4]
 3495 0032 FFF7FEFF 		bl	_lv_indev_read
 3496              	.LVL391:
ARM GAS  C:\Users\haske\AppData\Local\Temp\ccOQHbDo.s 			page 95


  84:..\..\..\arduinoLCD\test\Pain Drain\libraries\lvgl\src\core/lv_indev.c **** 
 3497              		.loc 1 84 0
 3498 0036 9DF80F50 		ldrb	r5, [sp, #15]	@ zero_extendqisi2
 3499              	.LVL392:
  87:..\..\..\arduinoLCD\test\Pain Drain\libraries\lvgl\src\core/lv_indev.c ****         indev_obj_act = NULL;
 3500              		.loc 1 87 0
 3501 003a 6068     		ldr	r0, [r4, #4]
 3502 003c FFF7FEFF 		bl	indev_proc_reset_query_handler
 3503              	.LVL393:
  88:..\..\..\arduinoLCD\test\Pain Drain\libraries\lvgl\src\core/lv_indev.c **** 
 3504              		.loc 1 88 0
 3505 0040 0023     		movs	r3, #0
 3506 0042 2360     		str	r3, [r4]
  90:..\..\..\arduinoLCD\test\Pain Drain\libraries\lvgl\src\core/lv_indev.c **** 
 3507              		.loc 1 90 0
 3508 0044 6368     		ldr	r3, [r4, #4]
 3509 0046 9DF80E20 		ldrb	r2, [sp, #14]	@ zero_extendqisi2
 3510 004a 1A71     		strb	r2, [r3, #4]
  93:..\..\..\arduinoLCD\test\Pain Drain\libraries\lvgl\src\core/lv_indev.c ****             indev_act->driver->disp->last_activity_time = lv_tick_get();
 3511              		.loc 1 93 0
 3512 004c 012A     		cmp	r2, #1
 3513 004e 06D1     		bne	.L253
  94:..\..\..\arduinoLCD\test\Pain Drain\libraries\lvgl\src\core/lv_indev.c ****         }
 3514              		.loc 1 94 0
 3515 0050 1B68     		ldr	r3, [r3]
 3516 0052 1C69     		ldr	r4, [r3, #16]
 3517 0054 FFF7FEFF 		bl	lv_tick_get
 3518              	.LVL394:
 3519 0058 C4F85801 		str	r0, [r4, #344]
 3520 005c 0BE0     		b	.L254
 3521              	.L253:
  96:..\..\..\arduinoLCD\test\Pain Drain\libraries\lvgl\src\core/lv_indev.c ****             indev_act->driver->disp->last_activity_time = lv_tick_get();
 3522              		.loc 1 96 0
 3523 005e 1B68     		ldr	r3, [r3]
 3524 0060 1A78     		ldrb	r2, [r3]	@ zero_extendqisi2
 3525 0062 042A     		cmp	r2, #4
 3526 0064 07D1     		bne	.L254
  96:..\..\..\arduinoLCD\test\Pain Drain\libraries\lvgl\src\core/lv_indev.c ****             indev_act->driver->disp->last_activity_time = lv_tick_get();
 3527              		.loc 1 96 0 is_stmt 0 discriminator 1
 3528 0066 BDF90C20 		ldrsh	r2, [sp, #12]
 3529 006a 22B1     		cbz	r2, .L254
  97:..\..\..\arduinoLCD\test\Pain Drain\libraries\lvgl\src\core/lv_indev.c ****         }
 3530              		.loc 1 97 0 is_stmt 1
 3531 006c 1C69     		ldr	r4, [r3, #16]
 3532 006e FFF7FEFF 		bl	lv_tick_get
 3533              	.LVL395:
 3534 0072 C4F85801 		str	r0, [r4, #344]
 3535              	.L254:
 100:..\..\..\arduinoLCD\test\Pain Drain\libraries\lvgl\src\core/lv_indev.c ****             indev_pointer_proc(indev_act, &data);
 3536              		.loc 1 100 0
 3537 0076 144B     		ldr	r3, .L263
 3538 0078 5868     		ldr	r0, [r3, #4]
 3539 007a 0368     		ldr	r3, [r0]
 3540 007c 1B78     		ldrb	r3, [r3]	@ zero_extendqisi2
 3541 007e 012B     		cmp	r3, #1
 3542 0080 03D1     		bne	.L255
 101:..\..\..\arduinoLCD\test\Pain Drain\libraries\lvgl\src\core/lv_indev.c ****         }
ARM GAS  C:\Users\haske\AppData\Local\Temp\ccOQHbDo.s 			page 96


 3543              		.loc 1 101 0
 3544 0082 6946     		mov	r1, sp
 3545 0084 FFF7FEFF 		bl	indev_pointer_proc
 3546              	.LVL396:
 3547 0088 10E0     		b	.L256
 3548              	.L255:
 103:..\..\..\arduinoLCD\test\Pain Drain\libraries\lvgl\src\core/lv_indev.c ****             indev_keypad_proc(indev_act, &data);
 3549              		.loc 1 103 0
 3550 008a 022B     		cmp	r3, #2
 3551 008c 03D1     		bne	.L257
 104:..\..\..\arduinoLCD\test\Pain Drain\libraries\lvgl\src\core/lv_indev.c ****         }
 3552              		.loc 1 104 0
 3553 008e 6946     		mov	r1, sp
 3554 0090 FFF7FEFF 		bl	indev_keypad_proc
 3555              	.LVL397:
 3556 0094 0AE0     		b	.L256
 3557              	.L257:
 106:..\..\..\arduinoLCD\test\Pain Drain\libraries\lvgl\src\core/lv_indev.c ****             indev_encoder_proc(indev_act, &data);
 3558              		.loc 1 106 0
 3559 0096 042B     		cmp	r3, #4
 3560 0098 03D1     		bne	.L258
 107:..\..\..\arduinoLCD\test\Pain Drain\libraries\lvgl\src\core/lv_indev.c ****         }
 3561              		.loc 1 107 0
 3562 009a 6946     		mov	r1, sp
 3563 009c FFF7FEFF 		bl	indev_encoder_proc
 3564              	.LVL398:
 3565 00a0 04E0     		b	.L256
 3566              	.L258:
 109:..\..\..\arduinoLCD\test\Pain Drain\libraries\lvgl\src\core/lv_indev.c ****             indev_button_proc(indev_act, &data);
 3567              		.loc 1 109 0
 3568 00a2 032B     		cmp	r3, #3
 3569 00a4 02D1     		bne	.L256
 110:..\..\..\arduinoLCD\test\Pain Drain\libraries\lvgl\src\core/lv_indev.c ****         }
 3570              		.loc 1 110 0
 3571 00a6 6946     		mov	r1, sp
 3572 00a8 FFF7FEFF 		bl	indev_button_proc
 3573              	.LVL399:
 3574              	.L256:
 113:..\..\..\arduinoLCD\test\Pain Drain\libraries\lvgl\src\core/lv_indev.c ****     } while(continue_reading);
 3575              		.loc 1 113 0
 3576 00ac 064B     		ldr	r3, .L263
 3577 00ae 5868     		ldr	r0, [r3, #4]
 3578 00b0 FFF7FEFF 		bl	indev_proc_reset_query_handler
 3579              	.LVL400:
 114:..\..\..\arduinoLCD\test\Pain Drain\libraries\lvgl\src\core/lv_indev.c **** 
 3580              		.loc 1 114 0
 3581 00b4 002D     		cmp	r5, #0
 3582 00b6 B9D1     		bne	.L259
 117:..\..\..\arduinoLCD\test\Pain Drain\libraries\lvgl\src\core/lv_indev.c ****     indev_obj_act = NULL;
 3583              		.loc 1 117 0
 3584 00b8 034B     		ldr	r3, .L263
 3585 00ba 0022     		movs	r2, #0
 3586 00bc 5A60     		str	r2, [r3, #4]
 118:..\..\..\arduinoLCD\test\Pain Drain\libraries\lvgl\src\core/lv_indev.c **** 
 3587              		.loc 1 118 0
 3588 00be 1A60     		str	r2, [r3]
 3589              	.LVL401:
ARM GAS  C:\Users\haske\AppData\Local\Temp\ccOQHbDo.s 			page 97


 3590              	.L251:
 121:..\..\..\arduinoLCD\test\Pain Drain\libraries\lvgl\src\core/lv_indev.c **** 
 3591              		.loc 1 121 0
 3592 00c0 05B0     		add	sp, sp, #20
 3593              		.cfi_def_cfa_offset 12
 3594              		@ sp needed
 3595 00c2 30BD     		pop	{r4, r5, pc}
 3596              	.L262:
 3597              		.cfi_def_cfa_offset 0
 3598              		.cfi_restore 4
 3599              		.cfi_restore 5
 3600              		.cfi_restore 14
 3601 00c4 7047     		bx	lr
 3602              	.L264:
 3603 00c6 00BF     		.align	2
 3604              	.L263:
 3605 00c8 00000000 		.word	.LANCHOR0
 3606              		.cfi_endproc
 3607              	.LFE165:
 3608              		.size	lv_indev_read_timer_cb, .-lv_indev_read_timer_cb
 3609              		.bss
 3610              		.align	2
 3611              		.set	.LANCHOR0,. + 0
 3612              		.type	indev_obj_act, %object
 3613              		.size	indev_obj_act, 4
 3614              	indev_obj_act:
 3615 0000 00000000 		.space	4
 3616              		.type	indev_act, %object
 3617              		.size	indev_act, 4
 3618              	indev_act:
 3619 0004 00000000 		.space	4
 3620              		.text
 3621              	.Letext0:
 3622              		.file 3 "c:\\program files (x86)\\cypress\\psoc creator\\4.4\\psoc creator\\import\\gnu\\arm\\5.4.
 3623              		.file 4 "c:\\program files (x86)\\cypress\\psoc creator\\4.4\\psoc creator\\import\\gnu\\arm\\5.4.
 3624              		.file 5 "c:\\program files (x86)\\cypress\\psoc creator\\4.4\\psoc creator\\import\\gnu\\arm\\5.4.
 3625              		.file 6 "c:\\projects\\paindrain\\arduinolcd\\test\\pain drain\\libraries\\lvgl\\src\\misc\\lv_are
 3626              		.file 7 "c:\\projects\\paindrain\\arduinolcd\\test\\pain drain\\libraries\\lvgl\\src\\font\\lv_fon
 3627              		.file 8 "..\\..\\..\\arduinoLCD\\test\\Pain Drain\\libraries\\lvgl\\src\\core\\../misc/lv_types.h"
 3628              		.file 9 "..\\..\\..\\arduinoLCD\\test\\Pain Drain\\libraries\\lvgl\\src\\core\\../misc/lv_color.h"
 3629              		.file 10 "..\\..\\..\\arduinoLCD\\test\\Pain Drain\\libraries\\lvgl\\src\\core\\../misc/lv_txt.h"
 3630              		.file 11 "..\\..\\..\\arduinoLCD\\test\\Pain Drain\\libraries\\lvgl\\src\\core\\../misc/lv_bidi.h"
 3631              		.file 12 "..\\..\\..\\arduinoLCD\\test\\Pain Drain\\libraries\\lvgl\\src\\core\\../misc/lv_style.h
 3632              		.file 13 "c:\\projects\\paindrain\\arduinolcd\\test\\pain drain\\libraries\\lvgl\\src\\draw\\lv_im
 3633              		.file 14 "..\\..\\..\\arduinoLCD\\test\\Pain Drain\\libraries\\lvgl\\src\\core\\lv_obj.h"
 3634              		.file 15 "c:\\projects\\paindrain\\arduinolcd\\test\\pain drain\\libraries\\lvgl\\src\\draw\\lv_dr
 3635              		.file 16 "c:\\projects\\paindrain\\arduinolcd\\test\\pain drain\\libraries\\lvgl\\src\\draw\\lv_dr
 3636              		.file 17 "c:\\projects\\paindrain\\arduinolcd\\test\\pain drain\\libraries\\lvgl\\src\\draw\\lv_dr
 3637              		.file 18 "c:\\projects\\paindrain\\arduinolcd\\test\\pain drain\\libraries\\lvgl\\src\\draw\\lv_dr
 3638              		.file 19 "c:\\projects\\paindrain\\arduinolcd\\test\\pain drain\\libraries\\lvgl\\src\\draw\\lv_dr
 3639              		.file 20 "c:\\projects\\paindrain\\arduinolcd\\test\\pain drain\\libraries\\lvgl\\src\\draw\\lv_dr
 3640              		.file 21 "c:\\projects\\paindrain\\arduinolcd\\test\\pain drain\\libraries\\lvgl\\src\\draw\\lv_dr
 3641              		.file 22 "c:\\projects\\paindrain\\arduinolcd\\test\\pain drain\\libraries\\lvgl\\src\\misc\\lv_ll
 3642              		.file 23 "c:\\projects\\paindrain\\arduinolcd\\test\\pain drain\\libraries\\lvgl\\src\\misc\\lv_ti
 3643              		.file 24 "..\\..\\..\\arduinoLCD\\test\\Pain Drain\\libraries\\lvgl\\src\\core\\../hal/lv_hal_disp
 3644              		.file 25 "..\\..\\..\\arduinoLCD\\test\\Pain Drain\\libraries\\lvgl\\src\\core\\lv_theme.h"
 3645              		.file 26 "..\\..\\..\\arduinoLCD\\test\\Pain Drain\\libraries\\lvgl\\src\\core\\../hal/lv_hal_inde
ARM GAS  C:\Users\haske\AppData\Local\Temp\ccOQHbDo.s 			page 98


 3646              		.file 27 "..\\..\\..\\arduinoLCD\\test\\Pain Drain\\libraries\\lvgl\\src\\core\\lv_group.h"
 3647              		.file 28 "..\\..\\..\\arduinoLCD\\test\\Pain Drain\\libraries\\lvgl\\src\\core\\lv_obj_scroll.h"
 3648              		.file 29 "..\\..\\..\\arduinoLCD\\test\\Pain Drain\\libraries\\lvgl\\src\\core\\lv_obj_style.h"
 3649              		.file 30 "..\\..\\..\\arduinoLCD\\test\\Pain Drain\\libraries\\lvgl\\src\\core\\lv_obj_class.h"
 3650              		.file 31 "..\\..\\..\\arduinoLCD\\test\\Pain Drain\\libraries\\lvgl\\src\\core\\lv_event.h"
 3651              		.file 32 "..\\..\\..\\arduinoLCD\\test\\Pain Drain\\libraries\\lvgl\\src\\core\\lv_obj_tree.h"
 3652              		.file 33 "..\\..\\..\\arduinoLCD\\test\\Pain Drain\\libraries\\lvgl\\src\\core\\lv_indev_scroll.h"
 3653              		.file 34 "c:\\projects\\paindrain\\arduinolcd\\test\\pain drain\\libraries\\lvgl\\src\\hal\\lv_hal
 3654              		.file 35 "..\\..\\..\\arduinoLCD\\test\\Pain Drain\\libraries\\lvgl\\src\\core\\lv_disp.h"
 3655              		.file 36 "c:\\projects\\paindrain\\arduinolcd\\test\\pain drain\\libraries\\lvgl\\src\\core\\lv_ob
 3656              		.section	.debug_info,"",%progbits
 3657              	.Ldebug_info0:
 3658 0000 0F3A0000 		.4byte	0x3a0f
 3659 0004 0400     		.2byte	0x4
 3660 0006 00000000 		.4byte	.Ldebug_abbrev0
 3661 000a 04       		.byte	0x4
 3662 000b 01       		.uleb128 0x1
 3663 000c D7120000 		.4byte	.LASF675
 3664 0010 0C       		.byte	0xc
 3665 0011 1E140000 		.4byte	.LASF676
 3666 0015 09230000 		.4byte	.LASF677
 3667 0019 00000000 		.4byte	.Ldebug_ranges0+0
 3668 001d 00000000 		.4byte	0
 3669 0021 00000000 		.4byte	.Ldebug_line0
 3670 0025 02       		.uleb128 0x2
 3671 0026 B51C0000 		.4byte	.LASF0
 3672 002a 03       		.byte	0x3
 3673 002b 1B       		.byte	0x1b
 3674 002c 30000000 		.4byte	0x30
 3675 0030 03       		.uleb128 0x3
 3676 0031 01       		.byte	0x1
 3677 0032 06       		.byte	0x6
 3678 0033 6F070000 		.4byte	.LASF2
 3679 0037 02       		.uleb128 0x2
 3680 0038 2C040000 		.4byte	.LASF1
 3681 003c 03       		.byte	0x3
 3682 003d 1D       		.byte	0x1d
 3683 003e 42000000 		.4byte	0x42
 3684 0042 03       		.uleb128 0x3
 3685 0043 01       		.byte	0x1
 3686 0044 08       		.byte	0x8
 3687 0045 92080000 		.4byte	.LASF3
 3688 0049 02       		.uleb128 0x2
 3689 004a 601F0000 		.4byte	.LASF4
 3690 004e 03       		.byte	0x3
 3691 004f 29       		.byte	0x29
 3692 0050 54000000 		.4byte	0x54
 3693 0054 03       		.uleb128 0x3
 3694 0055 02       		.byte	0x2
 3695 0056 05       		.byte	0x5
 3696 0057 66210000 		.4byte	.LASF5
 3697 005b 02       		.uleb128 0x2
 3698 005c 9D0B0000 		.4byte	.LASF6
 3699 0060 03       		.byte	0x3
 3700 0061 2B       		.byte	0x2b
 3701 0062 66000000 		.4byte	0x66
 3702 0066 03       		.uleb128 0x3
ARM GAS  C:\Users\haske\AppData\Local\Temp\ccOQHbDo.s 			page 99


 3703 0067 02       		.byte	0x2
 3704 0068 07       		.byte	0x7
 3705 0069 BD250000 		.4byte	.LASF7
 3706 006d 02       		.uleb128 0x2
 3707 006e B4260000 		.4byte	.LASF8
 3708 0072 03       		.byte	0x3
 3709 0073 3F       		.byte	0x3f
 3710 0074 78000000 		.4byte	0x78
 3711 0078 03       		.uleb128 0x3
 3712 0079 04       		.byte	0x4
 3713 007a 05       		.byte	0x5
 3714 007b 5E050000 		.4byte	.LASF9
 3715 007f 02       		.uleb128 0x2
 3716 0080 69150000 		.4byte	.LASF10
 3717 0084 03       		.byte	0x3
 3718 0085 41       		.byte	0x41
 3719 0086 8A000000 		.4byte	0x8a
 3720 008a 03       		.uleb128 0x3
 3721 008b 04       		.byte	0x4
 3722 008c 07       		.byte	0x7
 3723 008d 20110000 		.4byte	.LASF11
 3724 0091 03       		.uleb128 0x3
 3725 0092 08       		.byte	0x8
 3726 0093 05       		.byte	0x5
 3727 0094 A9150000 		.4byte	.LASF12
 3728 0098 03       		.uleb128 0x3
 3729 0099 08       		.byte	0x8
 3730 009a 07       		.byte	0x7
 3731 009b 1C1D0000 		.4byte	.LASF13
 3732 009f 04       		.uleb128 0x4
 3733 00a0 04       		.byte	0x4
 3734 00a1 05       		.byte	0x5
 3735 00a2 696E7400 		.ascii	"int\000"
 3736 00a6 03       		.uleb128 0x3
 3737 00a7 04       		.byte	0x4
 3738 00a8 07       		.byte	0x7
 3739 00a9 F8170000 		.4byte	.LASF14
 3740 00ad 02       		.uleb128 0x2
 3741 00ae 09000000 		.4byte	.LASF15
 3742 00b2 04       		.byte	0x4
 3743 00b3 14       		.byte	0x14
 3744 00b4 25000000 		.4byte	0x25
 3745 00b8 02       		.uleb128 0x2
 3746 00b9 7B070000 		.4byte	.LASF16
 3747 00bd 04       		.byte	0x4
 3748 00be 18       		.byte	0x18
 3749 00bf 37000000 		.4byte	0x37
 3750 00c3 02       		.uleb128 0x2
 3751 00c4 23220000 		.4byte	.LASF17
 3752 00c8 04       		.byte	0x4
 3753 00c9 20       		.byte	0x20
 3754 00ca 49000000 		.4byte	0x49
 3755 00ce 02       		.uleb128 0x2
 3756 00cf BB1D0000 		.4byte	.LASF18
 3757 00d3 04       		.byte	0x4
 3758 00d4 24       		.byte	0x24
 3759 00d5 5B000000 		.4byte	0x5b
ARM GAS  C:\Users\haske\AppData\Local\Temp\ccOQHbDo.s 			page 100


 3760 00d9 02       		.uleb128 0x2
 3761 00da 33010000 		.4byte	.LASF19
 3762 00de 04       		.byte	0x4
 3763 00df 2C       		.byte	0x2c
 3764 00e0 6D000000 		.4byte	0x6d
 3765 00e4 02       		.uleb128 0x2
 3766 00e5 EC240000 		.4byte	.LASF20
 3767 00e9 04       		.byte	0x4
 3768 00ea 30       		.byte	0x30
 3769 00eb 7F000000 		.4byte	0x7f
 3770 00ef 02       		.uleb128 0x2
 3771 00f0 5A000000 		.4byte	.LASF21
 3772 00f4 05       		.byte	0x5
 3773 00f5 D8       		.byte	0xd8
 3774 00f6 A6000000 		.4byte	0xa6
 3775 00fa 03       		.uleb128 0x3
 3776 00fb 08       		.byte	0x8
 3777 00fc 04       		.byte	0x4
 3778 00fd 381B0000 		.4byte	.LASF22
 3779 0101 02       		.uleb128 0x2
 3780 0102 DD250000 		.4byte	.LASF23
 3781 0106 06       		.byte	0x6
 3782 0107 1B       		.byte	0x1b
 3783 0108 C3000000 		.4byte	0xc3
 3784 010c 05       		.uleb128 0x5
 3785 010d 04       		.byte	0x4
 3786 010e 06       		.byte	0x6
 3787 010f 25       		.byte	0x25
 3788 0110 29010000 		.4byte	0x129
 3789 0114 06       		.uleb128 0x6
 3790 0115 7800     		.ascii	"x\000"
 3791 0117 06       		.byte	0x6
 3792 0118 26       		.byte	0x26
 3793 0119 01010000 		.4byte	0x101
 3794 011d 00       		.byte	0
 3795 011e 06       		.uleb128 0x6
 3796 011f 7900     		.ascii	"y\000"
 3797 0121 06       		.byte	0x6
 3798 0122 27       		.byte	0x27
 3799 0123 01010000 		.4byte	0x101
 3800 0127 02       		.byte	0x2
 3801 0128 00       		.byte	0
 3802 0129 02       		.uleb128 0x2
 3803 012a 99010000 		.4byte	.LASF24
 3804 012e 06       		.byte	0x6
 3805 012f 28       		.byte	0x28
 3806 0130 0C010000 		.4byte	0x10c
 3807 0134 05       		.uleb128 0x5
 3808 0135 08       		.byte	0x8
 3809 0136 06       		.byte	0x6
 3810 0137 2B       		.byte	0x2b
 3811 0138 69010000 		.4byte	0x169
 3812 013c 06       		.uleb128 0x6
 3813 013d 783100   		.ascii	"x1\000"
 3814 0140 06       		.byte	0x6
 3815 0141 2C       		.byte	0x2c
 3816 0142 01010000 		.4byte	0x101
ARM GAS  C:\Users\haske\AppData\Local\Temp\ccOQHbDo.s 			page 101


 3817 0146 00       		.byte	0
 3818 0147 06       		.uleb128 0x6
 3819 0148 793100   		.ascii	"y1\000"
 3820 014b 06       		.byte	0x6
 3821 014c 2D       		.byte	0x2d
 3822 014d 01010000 		.4byte	0x101
 3823 0151 02       		.byte	0x2
 3824 0152 06       		.uleb128 0x6
 3825 0153 783200   		.ascii	"x2\000"
 3826 0156 06       		.byte	0x6
 3827 0157 2E       		.byte	0x2e
 3828 0158 01010000 		.4byte	0x101
 3829 015c 04       		.byte	0x4
 3830 015d 06       		.uleb128 0x6
 3831 015e 793200   		.ascii	"y2\000"
 3832 0161 06       		.byte	0x6
 3833 0162 2F       		.byte	0x2f
 3834 0163 01010000 		.4byte	0x101
 3835 0167 06       		.byte	0x6
 3836 0168 00       		.byte	0
 3837 0169 02       		.uleb128 0x2
 3838 016a 4A0E0000 		.4byte	.LASF25
 3839 016e 06       		.byte	0x6
 3840 016f 30       		.byte	0x30
 3841 0170 34010000 		.4byte	0x134
 3842 0174 07       		.uleb128 0x7
 3843 0175 01       		.byte	0x1
 3844 0176 42000000 		.4byte	0x42
 3845 017a 06       		.byte	0x6
 3846 017b 4E       		.byte	0x4e
 3847 017c B1010000 		.4byte	0x1b1
 3848 0180 08       		.uleb128 0x8
 3849 0181 CD0A0000 		.4byte	.LASF26
 3850 0185 00       		.byte	0
 3851 0186 08       		.uleb128 0x8
 3852 0187 44280000 		.4byte	.LASF27
 3853 018b 01       		.byte	0x1
 3854 018c 08       		.uleb128 0x8
 3855 018d BA1B0000 		.4byte	.LASF28
 3856 0191 02       		.byte	0x2
 3857 0192 08       		.uleb128 0x8
 3858 0193 B1090000 		.4byte	.LASF29
 3859 0197 04       		.byte	0x4
 3860 0198 08       		.uleb128 0x8
 3861 0199 42230000 		.4byte	.LASF30
 3862 019d 08       		.byte	0x8
 3863 019e 08       		.uleb128 0x8
 3864 019f 2B220000 		.4byte	.LASF31
 3865 01a3 03       		.byte	0x3
 3866 01a4 08       		.uleb128 0x8
 3867 01a5 470D0000 		.4byte	.LASF32
 3868 01a9 0C       		.byte	0xc
 3869 01aa 08       		.uleb128 0x8
 3870 01ab 230D0000 		.4byte	.LASF33
 3871 01af 0F       		.byte	0xf
 3872 01b0 00       		.byte	0
 3873 01b1 02       		.uleb128 0x2
ARM GAS  C:\Users\haske\AppData\Local\Temp\ccOQHbDo.s 			page 102


 3874 01b2 850C0000 		.4byte	.LASF34
 3875 01b6 06       		.byte	0x6
 3876 01b7 59       		.byte	0x59
 3877 01b8 B8000000 		.4byte	0xb8
 3878 01bc 05       		.uleb128 0x5
 3879 01bd 10       		.byte	0x10
 3880 01be 07       		.byte	0x7
 3881 01bf 29       		.byte	0x29
 3882 01c0 2B020000 		.4byte	0x22b
 3883 01c4 09       		.uleb128 0x9
 3884 01c5 59120000 		.4byte	.LASF35
 3885 01c9 07       		.byte	0x7
 3886 01ca 2B       		.byte	0x2b
 3887 01cb B3020000 		.4byte	0x2b3
 3888 01cf 00       		.byte	0
 3889 01d0 09       		.uleb128 0x9
 3890 01d1 61000000 		.4byte	.LASF36
 3891 01d5 07       		.byte	0x7
 3892 01d6 2C       		.byte	0x2c
 3893 01d7 CE000000 		.4byte	0xce
 3894 01db 04       		.byte	0x4
 3895 01dc 09       		.uleb128 0x9
 3896 01dd 60210000 		.4byte	.LASF37
 3897 01e1 07       		.byte	0x7
 3898 01e2 2D       		.byte	0x2d
 3899 01e3 CE000000 		.4byte	0xce
 3900 01e7 06       		.byte	0x6
 3901 01e8 09       		.uleb128 0x9
 3902 01e9 0E210000 		.4byte	.LASF38
 3903 01ed 07       		.byte	0x7
 3904 01ee 2E       		.byte	0x2e
 3905 01ef CE000000 		.4byte	0xce
 3906 01f3 08       		.byte	0x8
 3907 01f4 09       		.uleb128 0x9
 3908 01f5 86090000 		.4byte	.LASF39
 3909 01f9 07       		.byte	0x7
 3910 01fa 2F       		.byte	0x2f
 3911 01fb C3000000 		.4byte	0xc3
 3912 01ff 0A       		.byte	0xa
 3913 0200 09       		.uleb128 0x9
 3914 0201 8C090000 		.4byte	.LASF40
 3915 0205 07       		.byte	0x7
 3916 0206 30       		.byte	0x30
 3917 0207 C3000000 		.4byte	0xc3
 3918 020b 0C       		.byte	0xc
 3919 020c 0A       		.uleb128 0xa
 3920 020d 62707000 		.ascii	"bpp\000"
 3921 0211 07       		.byte	0x7
 3922 0212 31       		.byte	0x31
 3923 0213 B8000000 		.4byte	0xb8
 3924 0217 01       		.byte	0x1
 3925 0218 04       		.byte	0x4
 3926 0219 04       		.byte	0x4
 3927 021a 0E       		.byte	0xe
 3928 021b 0B       		.uleb128 0xb
 3929 021c 62280000 		.4byte	.LASF41
 3930 0220 07       		.byte	0x7
ARM GAS  C:\Users\haske\AppData\Local\Temp\ccOQHbDo.s 			page 103


 3931 0221 32       		.byte	0x32
 3932 0222 B8000000 		.4byte	0xb8
 3933 0226 01       		.byte	0x1
 3934 0227 01       		.byte	0x1
 3935 0228 03       		.byte	0x3
 3936 0229 0E       		.byte	0xe
 3937 022a 00       		.byte	0
 3938 022b 0C       		.uleb128 0xc
 3939 022c 56150000 		.4byte	.LASF180
 3940 0230 1C       		.byte	0x1c
 3941 0231 07       		.byte	0x7
 3942 0232 40       		.byte	0x40
 3943 0233 B3020000 		.4byte	0x2b3
 3944 0237 09       		.uleb128 0x9
 3945 0238 A6260000 		.4byte	.LASF42
 3946 023c 07       		.byte	0x7
 3947 023d 42       		.byte	0x42
 3948 023e F4020000 		.4byte	0x2f4
 3949 0242 00       		.byte	0
 3950 0243 09       		.uleb128 0x9
 3951 0244 00080000 		.4byte	.LASF43
 3952 0248 07       		.byte	0x7
 3953 0249 45       		.byte	0x45
 3954 024a 19030000 		.4byte	0x319
 3955 024e 04       		.byte	0x4
 3956 024f 09       		.uleb128 0x9
 3957 0250 B4010000 		.4byte	.LASF44
 3958 0254 07       		.byte	0x7
 3959 0255 48       		.byte	0x48
 3960 0256 01010000 		.4byte	0x101
 3961 025a 08       		.byte	0x8
 3962 025b 09       		.uleb128 0x9
 3963 025c 70210000 		.4byte	.LASF45
 3964 0260 07       		.byte	0x7
 3965 0261 49       		.byte	0x49
 3966 0262 01010000 		.4byte	0x101
 3967 0266 0A       		.byte	0xa
 3968 0267 0B       		.uleb128 0xb
 3969 0268 941B0000 		.4byte	.LASF46
 3970 026c 07       		.byte	0x7
 3971 026d 4A       		.byte	0x4a
 3972 026e B8000000 		.4byte	0xb8
 3973 0272 01       		.byte	0x1
 3974 0273 02       		.byte	0x2
 3975 0274 06       		.byte	0x6
 3976 0275 0C       		.byte	0xc
 3977 0276 09       		.uleb128 0x9
 3978 0277 D90A0000 		.4byte	.LASF47
 3979 027b 07       		.byte	0x7
 3980 027c 4C       		.byte	0x4c
 3981 027d AD000000 		.4byte	0xad
 3982 0281 0D       		.byte	0xd
 3983 0282 09       		.uleb128 0x9
 3984 0283 F7160000 		.4byte	.LASF48
 3985 0287 07       		.byte	0x7
 3986 0288 4D       		.byte	0x4d
 3987 0289 AD000000 		.4byte	0xad
ARM GAS  C:\Users\haske\AppData\Local\Temp\ccOQHbDo.s 			page 104


 3988 028d 0E       		.byte	0xe
 3989 028e 06       		.uleb128 0x6
 3990 028f 64736300 		.ascii	"dsc\000"
 3991 0293 07       		.byte	0x7
 3992 0294 4F       		.byte	0x4f
 3993 0295 1F030000 		.4byte	0x31f
 3994 0299 10       		.byte	0x10
 3995 029a 09       		.uleb128 0x9
 3996 029b C70D0000 		.4byte	.LASF49
 3997 029f 07       		.byte	0x7
 3998 02a0 50       		.byte	0x50
 3999 02a1 B3020000 		.4byte	0x2b3
 4000 02a5 14       		.byte	0x14
 4001 02a6 09       		.uleb128 0x9
 4002 02a7 2D260000 		.4byte	.LASF50
 4003 02ab 07       		.byte	0x7
 4004 02ac 52       		.byte	0x52
 4005 02ad 26030000 		.4byte	0x326
 4006 02b1 18       		.byte	0x18
 4007 02b2 00       		.byte	0
 4008 02b3 0D       		.uleb128 0xd
 4009 02b4 04       		.byte	0x4
 4010 02b5 B9020000 		.4byte	0x2b9
 4011 02b9 0E       		.uleb128 0xe
 4012 02ba 2B020000 		.4byte	0x22b
 4013 02be 02       		.uleb128 0x2
 4014 02bf 70190000 		.4byte	.LASF51
 4015 02c3 07       		.byte	0x7
 4016 02c4 33       		.byte	0x33
 4017 02c5 BC010000 		.4byte	0x1bc
 4018 02c9 0F       		.uleb128 0xf
 4019 02ca E7020000 		.4byte	0x2e7
 4020 02ce E7020000 		.4byte	0x2e7
 4021 02d2 10       		.uleb128 0x10
 4022 02d3 B3020000 		.4byte	0x2b3
 4023 02d7 10       		.uleb128 0x10
 4024 02d8 EE020000 		.4byte	0x2ee
 4025 02dc 10       		.uleb128 0x10
 4026 02dd E4000000 		.4byte	0xe4
 4027 02e1 10       		.uleb128 0x10
 4028 02e2 E4000000 		.4byte	0xe4
 4029 02e6 00       		.byte	0
 4030 02e7 03       		.uleb128 0x3
 4031 02e8 01       		.byte	0x1
 4032 02e9 02       		.byte	0x2
 4033 02ea D3090000 		.4byte	.LASF52
 4034 02ee 0D       		.uleb128 0xd
 4035 02ef 04       		.byte	0x4
 4036 02f0 BE020000 		.4byte	0x2be
 4037 02f4 0D       		.uleb128 0xd
 4038 02f5 04       		.byte	0x4
 4039 02f6 C9020000 		.4byte	0x2c9
 4040 02fa 0F       		.uleb128 0xf
 4041 02fb 0E030000 		.4byte	0x30e
 4042 02ff 0E030000 		.4byte	0x30e
 4043 0303 10       		.uleb128 0x10
 4044 0304 B3020000 		.4byte	0x2b3
ARM GAS  C:\Users\haske\AppData\Local\Temp\ccOQHbDo.s 			page 105


 4045 0308 10       		.uleb128 0x10
 4046 0309 E4000000 		.4byte	0xe4
 4047 030d 00       		.byte	0
 4048 030e 0D       		.uleb128 0xd
 4049 030f 04       		.byte	0x4
 4050 0310 14030000 		.4byte	0x314
 4051 0314 0E       		.uleb128 0xe
 4052 0315 B8000000 		.4byte	0xb8
 4053 0319 0D       		.uleb128 0xd
 4054 031a 04       		.byte	0x4
 4055 031b FA020000 		.4byte	0x2fa
 4056 031f 0D       		.uleb128 0xd
 4057 0320 04       		.byte	0x4
 4058 0321 25030000 		.4byte	0x325
 4059 0325 11       		.uleb128 0x11
 4060 0326 12       		.uleb128 0x12
 4061 0327 04       		.byte	0x4
 4062 0328 02       		.uleb128 0x2
 4063 0329 6C250000 		.4byte	.LASF53
 4064 032d 07       		.byte	0x7
 4065 032e 54       		.byte	0x54
 4066 032f 2B020000 		.4byte	0x22b
 4067 0333 02       		.uleb128 0x2
 4068 0334 F31A0000 		.4byte	.LASF54
 4069 0338 08       		.byte	0x8
 4070 0339 2F       		.byte	0x2f
 4071 033a B8000000 		.4byte	0xb8
 4072 033e 03       		.uleb128 0x3
 4073 033f 04       		.byte	0x4
 4074 0340 07       		.byte	0x7
 4075 0341 7D000000 		.4byte	.LASF55
 4076 0345 03       		.uleb128 0x3
 4077 0346 01       		.byte	0x1
 4078 0347 08       		.byte	0x8
 4079 0348 AF0A0000 		.4byte	.LASF56
 4080 034c 05       		.uleb128 0x5
 4081 034d 02       		.byte	0x2
 4082 034e 09       		.byte	0x9
 4083 034f D1       		.byte	0xd1
 4084 0350 82030000 		.4byte	0x382
 4085 0354 0B       		.uleb128 0xb
 4086 0355 1B080000 		.4byte	.LASF57
 4087 0359 09       		.byte	0x9
 4088 035a D3       		.byte	0xd3
 4089 035b CE000000 		.4byte	0xce
 4090 035f 02       		.byte	0x2
 4091 0360 05       		.byte	0x5
 4092 0361 0B       		.byte	0xb
 4093 0362 00       		.byte	0
 4094 0363 0B       		.uleb128 0xb
 4095 0364 66250000 		.4byte	.LASF58
 4096 0368 09       		.byte	0x9
 4097 0369 D4       		.byte	0xd4
 4098 036a CE000000 		.4byte	0xce
 4099 036e 02       		.byte	0x2
 4100 036f 06       		.byte	0x6
 4101 0370 05       		.byte	0x5
ARM GAS  C:\Users\haske\AppData\Local\Temp\ccOQHbDo.s 			page 106


 4102 0371 00       		.byte	0
 4103 0372 0A       		.uleb128 0xa
 4104 0373 72656400 		.ascii	"red\000"
 4105 0377 09       		.byte	0x9
 4106 0378 D5       		.byte	0xd5
 4107 0379 CE000000 		.4byte	0xce
 4108 037d 02       		.byte	0x2
 4109 037e 05       		.byte	0x5
 4110 037f 00       		.byte	0
 4111 0380 00       		.byte	0
 4112 0381 00       		.byte	0
 4113 0382 13       		.uleb128 0x13
 4114 0383 02       		.byte	0x2
 4115 0384 09       		.byte	0x9
 4116 0385 D0       		.byte	0xd0
 4117 0386 A0030000 		.4byte	0x3a0
 4118 038a 14       		.uleb128 0x14
 4119 038b 636800   		.ascii	"ch\000"
 4120 038e 09       		.byte	0x9
 4121 038f DC       		.byte	0xdc
 4122 0390 4C030000 		.4byte	0x34c
 4123 0394 15       		.uleb128 0x15
 4124 0395 D61F0000 		.4byte	.LASF59
 4125 0399 09       		.byte	0x9
 4126 039a DD       		.byte	0xdd
 4127 039b CE000000 		.4byte	0xce
 4128 039f 00       		.byte	0
 4129 03a0 02       		.uleb128 0x2
 4130 03a1 53210000 		.4byte	.LASF60
 4131 03a5 09       		.byte	0x9
 4132 03a6 DE       		.byte	0xde
 4133 03a7 82030000 		.4byte	0x382
 4134 03ab 02       		.uleb128 0x2
 4135 03ac E81D0000 		.4byte	.LASF61
 4136 03b0 09       		.byte	0x9
 4137 03b1 EB       		.byte	0xeb
 4138 03b2 A0030000 		.4byte	0x3a0
 4139 03b6 02       		.uleb128 0x2
 4140 03b7 11010000 		.4byte	.LASF62
 4141 03bb 09       		.byte	0x9
 4142 03bc F5       		.byte	0xf5
 4143 03bd B8000000 		.4byte	0xb8
 4144 03c1 02       		.uleb128 0x2
 4145 03c2 811E0000 		.4byte	.LASF63
 4146 03c6 0A       		.byte	0xa
 4147 03c7 30       		.byte	0x30
 4148 03c8 B8000000 		.4byte	0xb8
 4149 03cc 02       		.uleb128 0x2
 4150 03cd CC160000 		.4byte	.LASF64
 4151 03d1 0A       		.byte	0xa
 4152 03d2 42       		.byte	0x42
 4153 03d3 B8000000 		.4byte	0xb8
 4154 03d7 02       		.uleb128 0x2
 4155 03d8 92090000 		.4byte	.LASF65
 4156 03dc 0B       		.byte	0xb
 4157 03dd 2A       		.byte	0x2a
 4158 03de B8000000 		.4byte	0xb8
ARM GAS  C:\Users\haske\AppData\Local\Temp\ccOQHbDo.s 			page 107


 4159 03e2 02       		.uleb128 0x2
 4160 03e3 C0010000 		.4byte	.LASF66
 4161 03e7 0C       		.byte	0xc
 4162 03e8 5E       		.byte	0x5e
 4163 03e9 B8000000 		.4byte	0xb8
 4164 03ed 02       		.uleb128 0x2
 4165 03ee 8D150000 		.4byte	.LASF67
 4166 03f2 0C       		.byte	0xc
 4167 03f3 6A       		.byte	0x6a
 4168 03f4 B8000000 		.4byte	0xb8
 4169 03f8 02       		.uleb128 0x2
 4170 03f9 6A200000 		.4byte	.LASF68
 4171 03fd 0C       		.byte	0xc
 4172 03fe 79       		.byte	0x79
 4173 03ff B8000000 		.4byte	0xb8
 4174 0403 02       		.uleb128 0x2
 4175 0404 D8260000 		.4byte	.LASF69
 4176 0408 0C       		.byte	0xc
 4177 0409 84       		.byte	0x84
 4178 040a B8000000 		.4byte	0xb8
 4179 040e 02       		.uleb128 0x2
 4180 040f 4A1B0000 		.4byte	.LASF70
 4181 0413 0C       		.byte	0xc
 4182 0414 90       		.byte	0x90
 4183 0415 B8000000 		.4byte	0xb8
 4184 0419 05       		.uleb128 0x5
 4185 041a 04       		.byte	0x4
 4186 041b 0C       		.byte	0xc
 4187 041c 95       		.byte	0x95
 4188 041d 3A040000 		.4byte	0x43a
 4189 0421 09       		.uleb128 0x9
 4190 0422 EF1F0000 		.4byte	.LASF71
 4191 0426 0C       		.byte	0xc
 4192 0427 96       		.byte	0x96
 4193 0428 AB030000 		.4byte	0x3ab
 4194 042c 00       		.byte	0
 4195 042d 09       		.uleb128 0x9
 4196 042e 7B200000 		.4byte	.LASF72
 4197 0432 0C       		.byte	0xc
 4198 0433 97       		.byte	0x97
 4199 0434 B8000000 		.4byte	0xb8
 4200 0438 02       		.byte	0x2
 4201 0439 00       		.byte	0
 4202 043a 02       		.uleb128 0x2
 4203 043b 40240000 		.4byte	.LASF73
 4204 043f 0C       		.byte	0xc
 4205 0440 98       		.byte	0x98
 4206 0441 19040000 		.4byte	0x419
 4207 0445 05       		.uleb128 0x5
 4208 0446 0A       		.byte	0xa
 4209 0447 0C       		.byte	0xc
 4210 0448 9B       		.byte	0x9b
 4211 0449 84040000 		.4byte	0x484
 4212 044d 09       		.uleb128 0x9
 4213 044e 08200000 		.4byte	.LASF74
 4214 0452 0C       		.byte	0xc
 4215 0453 9C       		.byte	0x9c
ARM GAS  C:\Users\haske\AppData\Local\Temp\ccOQHbDo.s 			page 108


 4216 0454 84040000 		.4byte	0x484
 4217 0458 00       		.byte	0
 4218 0459 09       		.uleb128 0x9
 4219 045a 840B0000 		.4byte	.LASF75
 4220 045e 0C       		.byte	0xc
 4221 045f 9D       		.byte	0x9d
 4222 0460 B8000000 		.4byte	0xb8
 4223 0464 08       		.byte	0x8
 4224 0465 0A       		.uleb128 0xa
 4225 0466 64697200 		.ascii	"dir\000"
 4226 046a 0C       		.byte	0xc
 4227 046b 9E       		.byte	0x9e
 4228 046c 03040000 		.4byte	0x403
 4229 0470 01       		.byte	0x1
 4230 0471 03       		.byte	0x3
 4231 0472 05       		.byte	0x5
 4232 0473 09       		.byte	0x9
 4233 0474 0B       		.uleb128 0xb
 4234 0475 B6250000 		.4byte	.LASF76
 4235 0479 0C       		.byte	0xc
 4236 047a A0       		.byte	0xa0
 4237 047b 0E040000 		.4byte	0x40e
 4238 047f 01       		.byte	0x1
 4239 0480 03       		.byte	0x3
 4240 0481 02       		.byte	0x2
 4241 0482 09       		.byte	0x9
 4242 0483 00       		.byte	0
 4243 0484 16       		.uleb128 0x16
 4244 0485 3A040000 		.4byte	0x43a
 4245 0489 94040000 		.4byte	0x494
 4246 048d 17       		.uleb128 0x17
 4247 048e 3E030000 		.4byte	0x33e
 4248 0492 01       		.byte	0x1
 4249 0493 00       		.byte	0
 4250 0494 02       		.uleb128 0x2
 4251 0495 1C280000 		.4byte	.LASF77
 4252 0499 0C       		.byte	0xc
 4253 049a A2       		.byte	0xa2
 4254 049b 45040000 		.4byte	0x445
 4255 049f 13       		.uleb128 0x13
 4256 04a0 04       		.byte	0x4
 4257 04a1 0C       		.byte	0xc
 4258 04a2 A7       		.byte	0xa7
 4259 04a3 C9040000 		.4byte	0x4c9
 4260 04a7 14       		.uleb128 0x14
 4261 04a8 6E756D00 		.ascii	"num\000"
 4262 04ac 0C       		.byte	0xc
 4263 04ad A8       		.byte	0xa8
 4264 04ae D9000000 		.4byte	0xd9
 4265 04b2 14       		.uleb128 0x14
 4266 04b3 70747200 		.ascii	"ptr\000"
 4267 04b7 0C       		.byte	0xc
 4268 04b8 A9       		.byte	0xa9
 4269 04b9 1F030000 		.4byte	0x31f
 4270 04bd 15       		.uleb128 0x15
 4271 04be EF1F0000 		.4byte	.LASF71
 4272 04c2 0C       		.byte	0xc
ARM GAS  C:\Users\haske\AppData\Local\Temp\ccOQHbDo.s 			page 109


 4273 04c3 AA       		.byte	0xaa
 4274 04c4 AB030000 		.4byte	0x3ab
 4275 04c8 00       		.byte	0
 4276 04c9 02       		.uleb128 0x2
 4277 04ca 27180000 		.4byte	.LASF78
 4278 04ce 0C       		.byte	0xc
 4279 04cf AB       		.byte	0xab
 4280 04d0 9F040000 		.4byte	0x49f
 4281 04d4 07       		.uleb128 0x7
 4282 04d5 02       		.byte	0x2
 4283 04d6 66000000 		.4byte	0x66
 4284 04da 0C       		.byte	0xc
 4285 04db B2       		.byte	0xb2
 4286 04dc F9060000 		.4byte	0x6f9
 4287 04e0 08       		.uleb128 0x8
 4288 04e1 040F0000 		.4byte	.LASF79
 4289 04e5 00       		.byte	0
 4290 04e6 08       		.uleb128 0x8
 4291 04e7 3C1E0000 		.4byte	.LASF80
 4292 04eb 01       		.byte	0x1
 4293 04ec 08       		.uleb128 0x8
 4294 04ed 581E0000 		.4byte	.LASF81
 4295 04f1 02       		.byte	0x2
 4296 04f2 08       		.uleb128 0x8
 4297 04f3 71040000 		.4byte	.LASF82
 4298 04f7 03       		.byte	0x3
 4299 04f8 08       		.uleb128 0x8
 4300 04f9 47020000 		.4byte	.LASF83
 4301 04fd 04       		.byte	0x4
 4302 04fe 08       		.uleb128 0x8
 4303 04ff 96230000 		.4byte	.LASF84
 4304 0503 05       		.byte	0x5
 4305 0504 08       		.uleb128 0x8
 4306 0505 A9200000 		.4byte	.LASF85
 4307 0509 06       		.byte	0x6
 4308 050a 08       		.uleb128 0x8
 4309 050b CB140000 		.4byte	.LASF86
 4310 050f 07       		.byte	0x7
 4311 0510 08       		.uleb128 0x8
 4312 0511 53240000 		.4byte	.LASF87
 4313 0515 08       		.byte	0x8
 4314 0516 08       		.uleb128 0x8
 4315 0517 83080000 		.4byte	.LASF88
 4316 051b 09       		.byte	0x9
 4317 051c 08       		.uleb128 0x8
 4318 051d 60190000 		.4byte	.LASF89
 4319 0521 0A       		.byte	0xa
 4320 0522 08       		.uleb128 0x8
 4321 0523 4A040000 		.4byte	.LASF90
 4322 0527 0B       		.byte	0xb
 4323 0528 08       		.uleb128 0x8
 4324 0529 9E220000 		.4byte	.LASF91
 4325 052d 10       		.byte	0x10
 4326 052e 08       		.uleb128 0x8
 4327 052f F50F0000 		.4byte	.LASF92
 4328 0533 11       		.byte	0x11
 4329 0534 08       		.uleb128 0x8
ARM GAS  C:\Users\haske\AppData\Local\Temp\ccOQHbDo.s 			page 110


 4330 0535 FE130000 		.4byte	.LASF93
 4331 0539 12       		.byte	0x12
 4332 053a 08       		.uleb128 0x8
 4333 053b 2B050000 		.4byte	.LASF94
 4334 053f 13       		.byte	0x13
 4335 0540 08       		.uleb128 0x8
 4336 0541 9D130000 		.4byte	.LASF95
 4337 0545 14       		.byte	0x14
 4338 0546 08       		.uleb128 0x8
 4339 0547 93030000 		.4byte	.LASF96
 4340 054b 15       		.byte	0x15
 4341 054c 08       		.uleb128 0x8
 4342 054d 450B0000 		.4byte	.LASF97
 4343 0551 16       		.byte	0x16
 4344 0552 08       		.uleb128 0x8
 4345 0553 371A0000 		.4byte	.LASF98
 4346 0557 17       		.byte	0x17
 4347 0558 08       		.uleb128 0x8
 4348 0559 200C0000 		.4byte	.LASF99
 4349 055d 20       		.byte	0x20
 4350 055e 08       		.uleb128 0x8
 4351 055f 5F100000 		.4byte	.LASF100
 4352 0563 21       		.byte	0x21
 4353 0564 08       		.uleb128 0x8
 4354 0565 EE200000 		.4byte	.LASF101
 4355 0569 22       		.byte	0x22
 4356 056a 08       		.uleb128 0x8
 4357 056b EB070000 		.4byte	.LASF102
 4358 056f 23       		.byte	0x23
 4359 0570 08       		.uleb128 0x8
 4360 0571 AC020000 		.4byte	.LASF103
 4361 0575 24       		.byte	0x24
 4362 0576 08       		.uleb128 0x8
 4363 0577 3D1D0000 		.4byte	.LASF104
 4364 057b 25       		.byte	0x25
 4365 057c 08       		.uleb128 0x8
 4366 057d CF1C0000 		.4byte	.LASF105
 4367 0581 26       		.byte	0x26
 4368 0582 08       		.uleb128 0x8
 4369 0583 08040000 		.4byte	.LASF106
 4370 0587 27       		.byte	0x27
 4371 0588 08       		.uleb128 0x8
 4372 0589 E71E0000 		.4byte	.LASF107
 4373 058d 28       		.byte	0x28
 4374 058e 08       		.uleb128 0x8
 4375 058f CE220000 		.4byte	.LASF108
 4376 0593 29       		.byte	0x29
 4377 0594 08       		.uleb128 0x8
 4378 0595 9E040000 		.4byte	.LASF109
 4379 0599 2A       		.byte	0x2a
 4380 059a 08       		.uleb128 0x8
 4381 059b 2C0A0000 		.4byte	.LASF110
 4382 059f 2B       		.byte	0x2b
 4383 05a0 08       		.uleb128 0x8
 4384 05a1 76060000 		.4byte	.LASF111
 4385 05a5 2C       		.byte	0x2c
 4386 05a6 08       		.uleb128 0x8
ARM GAS  C:\Users\haske\AppData\Local\Temp\ccOQHbDo.s 			page 111


 4387 05a7 491C0000 		.4byte	.LASF112
 4388 05ab 30       		.byte	0x30
 4389 05ac 08       		.uleb128 0x8
 4390 05ad A8060000 		.4byte	.LASF113
 4391 05b1 31       		.byte	0x31
 4392 05b2 08       		.uleb128 0x8
 4393 05b3 45030000 		.4byte	.LASF114
 4394 05b7 32       		.byte	0x32
 4395 05b8 08       		.uleb128 0x8
 4396 05b9 531D0000 		.4byte	.LASF115
 4397 05bd 33       		.byte	0x33
 4398 05be 08       		.uleb128 0x8
 4399 05bf 02240000 		.4byte	.LASF116
 4400 05c3 34       		.byte	0x34
 4401 05c4 08       		.uleb128 0x8
 4402 05c5 5F0E0000 		.4byte	.LASF117
 4403 05c9 35       		.byte	0x35
 4404 05ca 08       		.uleb128 0x8
 4405 05cb 16260000 		.4byte	.LASF118
 4406 05cf 36       		.byte	0x36
 4407 05d0 08       		.uleb128 0x8
 4408 05d1 6F0B0000 		.4byte	.LASF119
 4409 05d5 37       		.byte	0x37
 4410 05d6 08       		.uleb128 0x8
 4411 05d7 71280000 		.4byte	.LASF120
 4412 05db 38       		.byte	0x38
 4413 05dc 08       		.uleb128 0x8
 4414 05dd E3190000 		.4byte	.LASF121
 4415 05e1 40       		.byte	0x40
 4416 05e2 08       		.uleb128 0x8
 4417 05e3 A61E0000 		.4byte	.LASF122
 4418 05e7 41       		.byte	0x41
 4419 05e8 08       		.uleb128 0x8
 4420 05e9 BC1E0000 		.4byte	.LASF123
 4421 05ed 42       		.byte	0x42
 4422 05ee 08       		.uleb128 0x8
 4423 05ef 5B260000 		.4byte	.LASF124
 4424 05f3 43       		.byte	0x43
 4425 05f4 08       		.uleb128 0x8
 4426 05f5 25070000 		.4byte	.LASF125
 4427 05f9 44       		.byte	0x44
 4428 05fa 08       		.uleb128 0x8
 4429 05fb CD040000 		.4byte	.LASF126
 4430 05ff 45       		.byte	0x45
 4431 0600 08       		.uleb128 0x8
 4432 0601 DA100000 		.4byte	.LASF127
 4433 0605 46       		.byte	0x46
 4434 0606 08       		.uleb128 0x8
 4435 0607 55090000 		.4byte	.LASF128
 4436 060b 47       		.byte	0x47
 4437 060c 08       		.uleb128 0x8
 4438 060d 320C0000 		.4byte	.LASF129
 4439 0611 48       		.byte	0x48
 4440 0612 08       		.uleb128 0x8
 4441 0613 E2220000 		.4byte	.LASF130
 4442 0617 49       		.byte	0x49
 4443 0618 08       		.uleb128 0x8
ARM GAS  C:\Users\haske\AppData\Local\Temp\ccOQHbDo.s 			page 112


 4444 0619 2E0D0000 		.4byte	.LASF131
 4445 061d 4A       		.byte	0x4a
 4446 061e 08       		.uleb128 0x8
 4447 061f D2000000 		.4byte	.LASF132
 4448 0623 4B       		.byte	0x4b
 4449 0624 08       		.uleb128 0x8
 4450 0625 5E240000 		.4byte	.LASF133
 4451 0629 4C       		.byte	0x4c
 4452 062a 08       		.uleb128 0x8
 4453 062b C3120000 		.4byte	.LASF134
 4454 062f 4D       		.byte	0x4d
 4455 0630 08       		.uleb128 0x8
 4456 0631 6F100000 		.4byte	.LASF135
 4457 0635 4E       		.byte	0x4e
 4458 0636 08       		.uleb128 0x8
 4459 0637 73090000 		.4byte	.LASF136
 4460 063b 50       		.byte	0x50
 4461 063c 08       		.uleb128 0x8
 4462 063d 3B170000 		.4byte	.LASF137
 4463 0641 51       		.byte	0x51
 4464 0642 08       		.uleb128 0x8
 4465 0643 01220000 		.4byte	.LASF138
 4466 0647 52       		.byte	0x52
 4467 0648 08       		.uleb128 0x8
 4468 0649 1A010000 		.4byte	.LASF139
 4469 064d 53       		.byte	0x53
 4470 064e 08       		.uleb128 0x8
 4471 064f 181F0000 		.4byte	.LASF140
 4472 0653 54       		.byte	0x54
 4473 0654 08       		.uleb128 0x8
 4474 0655 B3170000 		.4byte	.LASF141
 4475 0659 55       		.byte	0x55
 4476 065a 08       		.uleb128 0x8
 4477 065b 9F110000 		.4byte	.LASF142
 4478 065f 56       		.byte	0x56
 4479 0660 08       		.uleb128 0x8
 4480 0661 771F0000 		.4byte	.LASF143
 4481 0665 57       		.byte	0x57
 4482 0666 08       		.uleb128 0x8
 4483 0667 A6280000 		.4byte	.LASF144
 4484 066b 58       		.byte	0x58
 4485 066c 08       		.uleb128 0x8
 4486 066d 160F0000 		.4byte	.LASF145
 4487 0671 59       		.byte	0x59
 4488 0672 08       		.uleb128 0x8
 4489 0673 0B170000 		.4byte	.LASF146
 4490 0677 5A       		.byte	0x5a
 4491 0678 08       		.uleb128 0x8
 4492 0679 1A150000 		.4byte	.LASF147
 4493 067d 5B       		.byte	0x5b
 4494 067e 08       		.uleb128 0x8
 4495 067f 1C000000 		.4byte	.LASF148
 4496 0683 60       		.byte	0x60
 4497 0684 08       		.uleb128 0x8
 4498 0685 B2160000 		.4byte	.LASF149
 4499 0689 61       		.byte	0x61
 4500 068a 08       		.uleb128 0x8
ARM GAS  C:\Users\haske\AppData\Local\Temp\ccOQHbDo.s 			page 113


 4501 068b 071B0000 		.4byte	.LASF150
 4502 068f 62       		.byte	0x62
 4503 0690 08       		.uleb128 0x8
 4504 0691 BD140000 		.4byte	.LASF151
 4505 0695 63       		.byte	0x63
 4506 0696 08       		.uleb128 0x8
 4507 0697 C90F0000 		.4byte	.LASF152
 4508 069b 64       		.byte	0x64
 4509 069c 08       		.uleb128 0x8
 4510 069d 360E0000 		.4byte	.LASF153
 4511 06a1 65       		.byte	0x65
 4512 06a2 08       		.uleb128 0x8
 4513 06a3 67050000 		.4byte	.LASF154
 4514 06a7 66       		.byte	0x66
 4515 06a8 08       		.uleb128 0x8
 4516 06a9 710C0000 		.4byte	.LASF155
 4517 06ad 67       		.byte	0x67
 4518 06ae 08       		.uleb128 0x8
 4519 06af 5F0D0000 		.4byte	.LASF156
 4520 06b3 68       		.byte	0x68
 4521 06b4 08       		.uleb128 0x8
 4522 06b5 FA040000 		.4byte	.LASF157
 4523 06b9 69       		.byte	0x69
 4524 06ba 08       		.uleb128 0x8
 4525 06bb 020A0000 		.4byte	.LASF158
 4526 06bf 6A       		.byte	0x6a
 4527 06c0 08       		.uleb128 0x8
 4528 06c1 170A0000 		.4byte	.LASF159
 4529 06c5 6B       		.byte	0x6b
 4530 06c6 08       		.uleb128 0x8
 4531 06c7 EB100000 		.4byte	.LASF160
 4532 06cb 6C       		.byte	0x6c
 4533 06cc 08       		.uleb128 0x8
 4534 06cd 61160000 		.4byte	.LASF161
 4535 06d1 6D       		.byte	0x6d
 4536 06d2 08       		.uleb128 0x8
 4537 06d3 FC080000 		.4byte	.LASF162
 4538 06d7 6E       		.byte	0x6e
 4539 06d8 08       		.uleb128 0x8
 4540 06d9 17090000 		.4byte	.LASF163
 4541 06dd 6F       		.byte	0x6f
 4542 06de 08       		.uleb128 0x8
 4543 06df E2020000 		.4byte	.LASF164
 4544 06e3 6F       		.byte	0x6f
 4545 06e4 08       		.uleb128 0x8
 4546 06e5 6A220000 		.4byte	.LASF165
 4547 06e9 70       		.byte	0x70
 4548 06ea 18       		.uleb128 0x18
 4549 06eb C41F0000 		.4byte	.LASF166
 4550 06ef FFFF     		.2byte	0xffff
 4551 06f1 18       		.uleb128 0x18
 4552 06f2 66180000 		.4byte	.LASF167
 4553 06f6 FFFF     		.2byte	0xffff
 4554 06f8 00       		.byte	0
 4555 06f9 19       		.uleb128 0x19
 4556 06fa 8B0D0000 		.4byte	.LASF168
 4557 06fe 0C       		.byte	0xc
ARM GAS  C:\Users\haske\AppData\Local\Temp\ccOQHbDo.s 			page 114


 4558 06ff 1C01     		.2byte	0x11c
 4559 0701 D4040000 		.4byte	0x4d4
 4560 0705 1A       		.uleb128 0x1a
 4561 0706 08       		.byte	0x8
 4562 0707 0C       		.byte	0xc
 4563 0708 3601     		.2byte	0x136
 4564 070a 29070000 		.4byte	0x729
 4565 070e 1B       		.uleb128 0x1b
 4566 070f A50C0000 		.4byte	.LASF169
 4567 0713 0C       		.byte	0xc
 4568 0714 3701     		.2byte	0x137
 4569 0716 F9060000 		.4byte	0x6f9
 4570 071a 00       		.byte	0
 4571 071b 1B       		.uleb128 0x1b
 4572 071c 580A0000 		.4byte	.LASF170
 4573 0720 0C       		.byte	0xc
 4574 0721 3801     		.2byte	0x138
 4575 0723 C9040000 		.4byte	0x4c9
 4576 0727 04       		.byte	0x4
 4577 0728 00       		.byte	0
 4578 0729 19       		.uleb128 0x19
 4579 072a 3E0F0000 		.4byte	.LASF171
 4580 072e 0C       		.byte	0xc
 4581 072f 3901     		.2byte	0x139
 4582 0731 05070000 		.4byte	0x705
 4583 0735 1C       		.uleb128 0x1c
 4584 0736 04       		.byte	0x4
 4585 0737 0C       		.byte	0xc
 4586 0738 4601     		.2byte	0x146
 4587 073a 63070000 		.4byte	0x763
 4588 073e 1D       		.uleb128 0x1d
 4589 073f 2D1F0000 		.4byte	.LASF172
 4590 0743 0C       		.byte	0xc
 4591 0744 4701     		.2byte	0x147
 4592 0746 C9040000 		.4byte	0x4c9
 4593 074a 1D       		.uleb128 0x1d
 4594 074b D00D0000 		.4byte	.LASF173
 4595 074f 0C       		.byte	0xc
 4596 0750 4801     		.2byte	0x148
 4597 0752 63070000 		.4byte	0x763
 4598 0756 1D       		.uleb128 0x1d
 4599 0757 AA0C0000 		.4byte	.LASF174
 4600 075b 0C       		.byte	0xc
 4601 075c 4901     		.2byte	0x149
 4602 075e 69070000 		.4byte	0x769
 4603 0762 00       		.byte	0
 4604 0763 0D       		.uleb128 0xd
 4605 0764 04       		.byte	0x4
 4606 0765 B8000000 		.4byte	0xb8
 4607 0769 0D       		.uleb128 0xd
 4608 076a 04       		.byte	0x4
 4609 076b 6F070000 		.4byte	0x76f
 4610 076f 0E       		.uleb128 0xe
 4611 0770 29070000 		.4byte	0x729
 4612 0774 1A       		.uleb128 0x1a
 4613 0775 08       		.byte	0x8
 4614 0776 0C       		.byte	0xc
ARM GAS  C:\Users\haske\AppData\Local\Temp\ccOQHbDo.s 			page 115


 4615 0777 3E01     		.2byte	0x13e
 4616 0779 B2070000 		.4byte	0x7b2
 4617 077d 1E       		.uleb128 0x1e
 4618 077e 765F7000 		.ascii	"v_p\000"
 4619 0782 0C       		.byte	0xc
 4620 0783 4A01     		.2byte	0x14a
 4621 0785 35070000 		.4byte	0x735
 4622 0789 00       		.byte	0
 4623 078a 1B       		.uleb128 0x1b
 4624 078b 50230000 		.4byte	.LASF175
 4625 078f 0C       		.byte	0xc
 4626 0790 4C01     		.2byte	0x14c
 4627 0792 CE000000 		.4byte	0xce
 4628 0796 04       		.byte	0x4
 4629 0797 1B       		.uleb128 0x1b
 4630 0798 6A010000 		.4byte	.LASF176
 4631 079c 0C       		.byte	0xc
 4632 079d 4D01     		.2byte	0x14d
 4633 079f B8000000 		.4byte	0xb8
 4634 07a3 06       		.byte	0x6
 4635 07a4 1B       		.uleb128 0x1b
 4636 07a5 00000000 		.4byte	.LASF177
 4637 07a9 0C       		.byte	0xc
 4638 07aa 4E01     		.2byte	0x14e
 4639 07ac B8000000 		.4byte	0xb8
 4640 07b0 07       		.byte	0x7
 4641 07b1 00       		.byte	0
 4642 07b2 19       		.uleb128 0x19
 4643 07b3 81100000 		.4byte	.LASF178
 4644 07b7 0C       		.byte	0xc
 4645 07b8 4F01     		.2byte	0x14f
 4646 07ba 74070000 		.4byte	0x774
 4647 07be 02       		.uleb128 0x2
 4648 07bf 77110000 		.4byte	.LASF179
 4649 07c3 0D       		.byte	0xd
 4650 07c4 69       		.byte	0x69
 4651 07c5 B8000000 		.4byte	0xb8
 4652 07c9 0D       		.uleb128 0xd
 4653 07ca 04       		.byte	0x4
 4654 07cb CF070000 		.4byte	0x7cf
 4655 07cf 0C       		.uleb128 0xc
 4656 07d0 80200000 		.4byte	.LASF181
 4657 07d4 24       		.byte	0x24
 4658 07d5 0E       		.byte	0xe
 4659 07d6 AE       		.byte	0xae
 4660 07d7 96080000 		.4byte	0x896
 4661 07db 09       		.uleb128 0x9
 4662 07dc D7170000 		.4byte	.LASF182
 4663 07e0 0E       		.byte	0xe
 4664 07e1 AF       		.byte	0xaf
 4665 07e2 F81F0000 		.4byte	0x1ff8
 4666 07e6 00       		.byte	0
 4667 07e7 09       		.uleb128 0x9
 4668 07e8 760F0000 		.4byte	.LASF183
 4669 07ec 0E       		.byte	0xe
 4670 07ed B0       		.byte	0xb0
 4671 07ee C9070000 		.4byte	0x7c9
ARM GAS  C:\Users\haske\AppData\Local\Temp\ccOQHbDo.s 			page 116


 4672 07f2 04       		.byte	0x4
 4673 07f3 09       		.uleb128 0x9
 4674 07f4 E7010000 		.4byte	.LASF184
 4675 07f8 0E       		.byte	0xe
 4676 07f9 B1       		.byte	0xb1
 4677 07fa 03200000 		.4byte	0x2003
 4678 07fe 08       		.byte	0x8
 4679 07ff 09       		.uleb128 0x9
 4680 0800 B8100000 		.4byte	.LASF185
 4681 0804 0E       		.byte	0xe
 4682 0805 B2       		.byte	0xb2
 4683 0806 09200000 		.4byte	0x2009
 4684 080a 0C       		.byte	0xc
 4685 080b 09       		.uleb128 0x9
 4686 080c 2D260000 		.4byte	.LASF50
 4687 0810 0E       		.byte	0xe
 4688 0811 B4       		.byte	0xb4
 4689 0812 26030000 		.4byte	0x326
 4690 0816 10       		.byte	0x10
 4691 0817 09       		.uleb128 0x9
 4692 0818 44220000 		.4byte	.LASF186
 4693 081c 0E       		.byte	0xe
 4694 081d B6       		.byte	0xb6
 4695 081e 69010000 		.4byte	0x169
 4696 0822 14       		.byte	0x14
 4697 0823 09       		.uleb128 0x9
 4698 0824 5E0A0000 		.4byte	.LASF187
 4699 0828 0E       		.byte	0xe
 4700 0829 B7       		.byte	0xb7
 4701 082a 8A1B0000 		.4byte	0x1b8a
 4702 082e 1C       		.byte	0x1c
 4703 082f 09       		.uleb128 0x9
 4704 0830 41020000 		.4byte	.LASF188
 4705 0834 0E       		.byte	0xe
 4706 0835 B8       		.byte	0xb8
 4707 0836 971A0000 		.4byte	0x1a97
 4708 083a 20       		.byte	0x20
 4709 083b 0B       		.uleb128 0xb
 4710 083c 45070000 		.4byte	.LASF189
 4711 0840 0E       		.byte	0xe
 4712 0841 B9       		.byte	0xb9
 4713 0842 CE000000 		.4byte	0xce
 4714 0846 02       		.byte	0x2
 4715 0847 01       		.byte	0x1
 4716 0848 0F       		.byte	0xf
 4717 0849 22       		.byte	0x22
 4718 084a 0B       		.uleb128 0xb
 4719 084b 62040000 		.4byte	.LASF190
 4720 084f 0E       		.byte	0xe
 4721 0850 BA       		.byte	0xba
 4722 0851 CE000000 		.4byte	0xce
 4723 0855 02       		.byte	0x2
 4724 0856 01       		.byte	0x1
 4725 0857 0E       		.byte	0xe
 4726 0858 22       		.byte	0x22
 4727 0859 0B       		.uleb128 0xb
 4728 085a 71170000 		.4byte	.LASF191
ARM GAS  C:\Users\haske\AppData\Local\Temp\ccOQHbDo.s 			page 117


 4729 085e 0E       		.byte	0xe
 4730 085f BB       		.byte	0xbb
 4731 0860 CE000000 		.4byte	0xce
 4732 0864 02       		.byte	0x2
 4733 0865 01       		.byte	0x1
 4734 0866 0D       		.byte	0xd
 4735 0867 22       		.byte	0x22
 4736 0868 0B       		.uleb128 0xb
 4737 0869 3B070000 		.4byte	.LASF192
 4738 086d 0E       		.byte	0xe
 4739 086e BC       		.byte	0xbc
 4740 086f CE000000 		.4byte	0xce
 4741 0873 02       		.byte	0x2
 4742 0874 06       		.byte	0x6
 4743 0875 07       		.byte	0x7
 4744 0876 22       		.byte	0x22
 4745 0877 0B       		.uleb128 0xb
 4746 0878 BC090000 		.4byte	.LASF193
 4747 087c 0E       		.byte	0xe
 4748 087d BD       		.byte	0xbd
 4749 087e CE000000 		.4byte	0xce
 4750 0882 02       		.byte	0x2
 4751 0883 01       		.byte	0x1
 4752 0884 06       		.byte	0x6
 4753 0885 22       		.byte	0x22
 4754 0886 0B       		.uleb128 0xb
 4755 0887 36040000 		.4byte	.LASF194
 4756 088b 0E       		.byte	0xe
 4757 088c BE       		.byte	0xbe
 4758 088d CE000000 		.4byte	0xce
 4759 0891 02       		.byte	0x2
 4760 0892 01       		.byte	0x1
 4761 0893 05       		.byte	0x5
 4762 0894 22       		.byte	0x22
 4763 0895 00       		.byte	0
 4764 0896 0D       		.uleb128 0xd
 4765 0897 04       		.byte	0x4
 4766 0898 AB030000 		.4byte	0x3ab
 4767 089c 05       		.uleb128 0x5
 4768 089d 38       		.byte	0x38
 4769 089e 0F       		.byte	0xf
 4770 089f 20       		.byte	0x20
 4771 08a0 E3090000 		.4byte	0x9e3
 4772 08a4 09       		.uleb128 0x9
 4773 08a5 A4010000 		.4byte	.LASF195
 4774 08a9 0F       		.byte	0xf
 4775 08aa 21       		.byte	0x21
 4776 08ab 01010000 		.4byte	0x101
 4777 08af 00       		.byte	0
 4778 08b0 09       		.uleb128 0x9
 4779 08b1 3F040000 		.4byte	.LASF196
 4780 08b5 0F       		.byte	0xf
 4781 08b6 22       		.byte	0x22
 4782 08b7 E2030000 		.4byte	0x3e2
 4783 08bb 02       		.byte	0x2
 4784 08bc 09       		.uleb128 0x9
 4785 08bd C4050000 		.4byte	.LASF197
ARM GAS  C:\Users\haske\AppData\Local\Temp\ccOQHbDo.s 			page 118


 4786 08c1 0F       		.byte	0xf
 4787 08c2 25       		.byte	0x25
 4788 08c3 B6030000 		.4byte	0x3b6
 4789 08c7 03       		.byte	0x3
 4790 08c8 09       		.uleb128 0x9
 4791 08c9 AB010000 		.4byte	.LASF198
 4792 08cd 0F       		.byte	0xf
 4793 08ce 26       		.byte	0x26
 4794 08cf AB030000 		.4byte	0x3ab
 4795 08d3 04       		.byte	0x4
 4796 08d4 09       		.uleb128 0x9
 4797 08d5 EA230000 		.4byte	.LASF199
 4798 08d9 0F       		.byte	0xf
 4799 08da 27       		.byte	0x27
 4800 08db 94040000 		.4byte	0x494
 4801 08df 06       		.byte	0x6
 4802 08e0 09       		.uleb128 0x9
 4803 08e1 3A030000 		.4byte	.LASF200
 4804 08e5 0F       		.byte	0xf
 4805 08e6 2A       		.byte	0x2a
 4806 08e7 1F030000 		.4byte	0x31f
 4807 08eb 10       		.byte	0x10
 4808 08ec 09       		.uleb128 0x9
 4809 08ed DE270000 		.4byte	.LASF201
 4810 08f1 0F       		.byte	0xf
 4811 08f2 2B       		.byte	0x2b
 4812 08f3 1F030000 		.4byte	0x31f
 4813 08f7 14       		.byte	0x14
 4814 08f8 09       		.uleb128 0x9
 4815 08f9 44210000 		.4byte	.LASF202
 4816 08fd 0F       		.byte	0xf
 4817 08fe 2C       		.byte	0x2c
 4818 08ff AB030000 		.4byte	0x3ab
 4819 0903 18       		.byte	0x18
 4820 0904 09       		.uleb128 0x9
 4821 0905 39080000 		.4byte	.LASF203
 4822 0909 0F       		.byte	0xf
 4823 090a 2D       		.byte	0x2d
 4824 090b B6030000 		.4byte	0x3b6
 4825 090f 1A       		.byte	0x1a
 4826 0910 09       		.uleb128 0x9
 4827 0911 C71B0000 		.4byte	.LASF204
 4828 0915 0F       		.byte	0xf
 4829 0916 2E       		.byte	0x2e
 4830 0917 B6030000 		.4byte	0x3b6
 4831 091b 1B       		.byte	0x1b
 4832 091c 09       		.uleb128 0x9
 4833 091d DE070000 		.4byte	.LASF205
 4834 0921 0F       		.byte	0xf
 4835 0922 2F       		.byte	0x2f
 4836 0923 B8000000 		.4byte	0xb8
 4837 0927 1C       		.byte	0x1c
 4838 0928 09       		.uleb128 0x9
 4839 0929 500C0000 		.4byte	.LASF206
 4840 092d 0F       		.byte	0xf
 4841 092e 32       		.byte	0x32
 4842 092f AB030000 		.4byte	0x3ab
ARM GAS  C:\Users\haske\AppData\Local\Temp\ccOQHbDo.s 			page 119


 4843 0933 1E       		.byte	0x1e
 4844 0934 09       		.uleb128 0x9
 4845 0935 4B1E0000 		.4byte	.LASF207
 4846 0939 0F       		.byte	0xf
 4847 093a 33       		.byte	0x33
 4848 093b 01010000 		.4byte	0x101
 4849 093f 20       		.byte	0x20
 4850 0940 09       		.uleb128 0x9
 4851 0941 8B230000 		.4byte	.LASF208
 4852 0945 0F       		.byte	0xf
 4853 0946 34       		.byte	0x34
 4854 0947 B6030000 		.4byte	0x3b6
 4855 094b 22       		.byte	0x22
 4856 094c 0B       		.uleb128 0xb
 4857 094d 040D0000 		.4byte	.LASF209
 4858 0951 0F       		.byte	0xf
 4859 0952 35       		.byte	0x35
 4860 0953 B8000000 		.4byte	0xb8
 4861 0957 01       		.byte	0x1
 4862 0958 01       		.byte	0x1
 4863 0959 07       		.byte	0x7
 4864 095a 23       		.byte	0x23
 4865 095b 0B       		.uleb128 0xb
 4866 095c 20040000 		.4byte	.LASF210
 4867 0960 0F       		.byte	0xf
 4868 0961 36       		.byte	0x36
 4869 0962 F8030000 		.4byte	0x3f8
 4870 0966 01       		.byte	0x1
 4871 0967 05       		.byte	0x5
 4872 0968 02       		.byte	0x2
 4873 0969 23       		.byte	0x23
 4874 096a 09       		.uleb128 0x9
 4875 096b 17070000 		.4byte	.LASF211
 4876 096f 0F       		.byte	0xf
 4877 0970 39       		.byte	0x39
 4878 0971 AB030000 		.4byte	0x3ab
 4879 0975 24       		.byte	0x24
 4880 0976 09       		.uleb128 0x9
 4881 0977 D5190000 		.4byte	.LASF212
 4882 097b 0F       		.byte	0xf
 4883 097c 3A       		.byte	0x3a
 4884 097d 01010000 		.4byte	0x101
 4885 0981 26       		.byte	0x26
 4886 0982 09       		.uleb128 0x9
 4887 0983 060C0000 		.4byte	.LASF213
 4888 0987 0F       		.byte	0xf
 4889 0988 3B       		.byte	0x3b
 4890 0989 01010000 		.4byte	0x101
 4891 098d 28       		.byte	0x28
 4892 098e 09       		.uleb128 0x9
 4893 098f D1180000 		.4byte	.LASF214
 4894 0993 0F       		.byte	0xf
 4895 0994 3C       		.byte	0x3c
 4896 0995 B6030000 		.4byte	0x3b6
 4897 0999 2A       		.byte	0x2a
 4898 099a 09       		.uleb128 0x9
 4899 099b B7150000 		.4byte	.LASF215
ARM GAS  C:\Users\haske\AppData\Local\Temp\ccOQHbDo.s 			page 120


 4900 099f 0F       		.byte	0xf
 4901 09a0 3F       		.byte	0x3f
 4902 09a1 AB030000 		.4byte	0x3ab
 4903 09a5 2C       		.byte	0x2c
 4904 09a6 09       		.uleb128 0x9
 4905 09a7 50250000 		.4byte	.LASF216
 4906 09ab 0F       		.byte	0xf
 4907 09ac 40       		.byte	0x40
 4908 09ad 01010000 		.4byte	0x101
 4909 09b1 2E       		.byte	0x2e
 4910 09b2 09       		.uleb128 0x9
 4911 09b3 520D0000 		.4byte	.LASF217
 4912 09b7 0F       		.byte	0xf
 4913 09b8 41       		.byte	0x41
 4914 09b9 01010000 		.4byte	0x101
 4915 09bd 30       		.byte	0x30
 4916 09be 09       		.uleb128 0x9
 4917 09bf F1270000 		.4byte	.LASF218
 4918 09c3 0F       		.byte	0xf
 4919 09c4 42       		.byte	0x42
 4920 09c5 01010000 		.4byte	0x101
 4921 09c9 32       		.byte	0x32
 4922 09ca 09       		.uleb128 0x9
 4923 09cb BB0F0000 		.4byte	.LASF219
 4924 09cf 0F       		.byte	0xf
 4925 09d0 43       		.byte	0x43
 4926 09d1 01010000 		.4byte	0x101
 4927 09d5 34       		.byte	0x34
 4928 09d6 09       		.uleb128 0x9
 4929 09d7 F6210000 		.4byte	.LASF220
 4930 09db 0F       		.byte	0xf
 4931 09dc 44       		.byte	0x44
 4932 09dd B6030000 		.4byte	0x3b6
 4933 09e1 36       		.byte	0x36
 4934 09e2 00       		.byte	0
 4935 09e3 02       		.uleb128 0x2
 4936 09e4 8C1D0000 		.4byte	.LASF221
 4937 09e8 0F       		.byte	0xf
 4938 09e9 45       		.byte	0x45
 4939 09ea 9C080000 		.4byte	0x89c
 4940 09ee 05       		.uleb128 0x5
 4941 09ef 20       		.byte	0x20
 4942 09f0 10       		.byte	0x10
 4943 09f1 1E       		.byte	0x1e
 4944 09f2 BD0A0000 		.4byte	0xabd
 4945 09f6 09       		.uleb128 0x9
 4946 09f7 8A200000 		.4byte	.LASF222
 4947 09fb 10       		.byte	0x10
 4948 09fc 1F       		.byte	0x1f
 4949 09fd BD0A0000 		.4byte	0xabd
 4950 0a01 00       		.byte	0
 4951 0a02 09       		.uleb128 0x9
 4952 0a03 CF240000 		.4byte	.LASF223
 4953 0a07 10       		.byte	0x10
 4954 0a08 20       		.byte	0x20
 4955 0a09 E4000000 		.4byte	0xe4
 4956 0a0d 04       		.byte	0x4
ARM GAS  C:\Users\haske\AppData\Local\Temp\ccOQHbDo.s 			page 121


 4957 0a0e 09       		.uleb128 0x9
 4958 0a0f 5E180000 		.4byte	.LASF224
 4959 0a13 10       		.byte	0x10
 4960 0a14 21       		.byte	0x21
 4961 0a15 E4000000 		.4byte	0xe4
 4962 0a19 08       		.byte	0x8
 4963 0a1a 09       		.uleb128 0x9
 4964 0a1b EF1F0000 		.4byte	.LASF71
 4965 0a1f 10       		.byte	0x10
 4966 0a20 22       		.byte	0x22
 4967 0a21 AB030000 		.4byte	0x3ab
 4968 0a25 0C       		.byte	0xc
 4969 0a26 09       		.uleb128 0x9
 4970 0a27 A4270000 		.4byte	.LASF225
 4971 0a2b 10       		.byte	0x10
 4972 0a2c 23       		.byte	0x23
 4973 0a2d AB030000 		.4byte	0x3ab
 4974 0a31 0E       		.byte	0xe
 4975 0a32 09       		.uleb128 0x9
 4976 0a33 20060000 		.4byte	.LASF226
 4977 0a37 10       		.byte	0x10
 4978 0a38 24       		.byte	0x24
 4979 0a39 AB030000 		.4byte	0x3ab
 4980 0a3d 10       		.byte	0x10
 4981 0a3e 09       		.uleb128 0x9
 4982 0a3f 17200000 		.4byte	.LASF227
 4983 0a43 10       		.byte	0x10
 4984 0a44 25       		.byte	0x25
 4985 0a45 01010000 		.4byte	0x101
 4986 0a49 12       		.byte	0x12
 4987 0a4a 09       		.uleb128 0x9
 4988 0a4b 8F200000 		.4byte	.LASF228
 4989 0a4f 10       		.byte	0x10
 4990 0a50 26       		.byte	0x26
 4991 0a51 01010000 		.4byte	0x101
 4992 0a55 14       		.byte	0x14
 4993 0a56 09       		.uleb128 0x9
 4994 0a57 86090000 		.4byte	.LASF39
 4995 0a5b 10       		.byte	0x10
 4996 0a5c 27       		.byte	0x27
 4997 0a5d 01010000 		.4byte	0x101
 4998 0a61 16       		.byte	0x16
 4999 0a62 09       		.uleb128 0x9
 5000 0a63 8C090000 		.4byte	.LASF40
 5001 0a67 10       		.byte	0x10
 5002 0a68 28       		.byte	0x28
 5003 0a69 01010000 		.4byte	0x101
 5004 0a6d 18       		.byte	0x18
 5005 0a6e 06       		.uleb128 0x6
 5006 0a6f 6F706100 		.ascii	"opa\000"
 5007 0a73 10       		.byte	0x10
 5008 0a74 29       		.byte	0x29
 5009 0a75 B6030000 		.4byte	0x3b6
 5010 0a79 1A       		.byte	0x1a
 5011 0a7a 09       		.uleb128 0x9
 5012 0a7b D0010000 		.4byte	.LASF229
 5013 0a7f 10       		.byte	0x10
ARM GAS  C:\Users\haske\AppData\Local\Temp\ccOQHbDo.s 			page 122


 5014 0a80 2A       		.byte	0x2a
 5015 0a81 D7030000 		.4byte	0x3d7
 5016 0a85 1B       		.byte	0x1b
 5017 0a86 09       		.uleb128 0x9
 5018 0a87 35170000 		.4byte	.LASF230
 5019 0a8b 10       		.byte	0x10
 5020 0a8c 2B       		.byte	0x2b
 5021 0a8d CC030000 		.4byte	0x3cc
 5022 0a91 1C       		.byte	0x1c
 5023 0a92 09       		.uleb128 0x9
 5024 0a93 85180000 		.4byte	.LASF231
 5025 0a97 10       		.byte	0x10
 5026 0a98 2C       		.byte	0x2c
 5027 0a99 C1030000 		.4byte	0x3c1
 5028 0a9d 1D       		.byte	0x1d
 5029 0a9e 0B       		.uleb128 0xb
 5030 0a9f 5A1F0000 		.4byte	.LASF232
 5031 0aa3 10       		.byte	0x10
 5032 0aa4 2D       		.byte	0x2d
 5033 0aa5 ED030000 		.4byte	0x3ed
 5034 0aa9 01       		.byte	0x1
 5035 0aaa 03       		.byte	0x3
 5036 0aab 05       		.byte	0x5
 5037 0aac 1E       		.byte	0x1e
 5038 0aad 0B       		.uleb128 0xb
 5039 0aae 3F040000 		.4byte	.LASF196
 5040 0ab2 10       		.byte	0x10
 5041 0ab3 2E       		.byte	0x2e
 5042 0ab4 E2030000 		.4byte	0x3e2
 5043 0ab8 01       		.byte	0x1
 5044 0ab9 03       		.byte	0x3
 5045 0aba 02       		.byte	0x2
 5046 0abb 1E       		.byte	0x1e
 5047 0abc 00       		.byte	0
 5048 0abd 0D       		.uleb128 0xd
 5049 0abe 04       		.byte	0x4
 5050 0abf C30A0000 		.4byte	0xac3
 5051 0ac3 0E       		.uleb128 0xe
 5052 0ac4 28030000 		.4byte	0x328
 5053 0ac8 02       		.uleb128 0x2
 5054 0ac9 E9050000 		.4byte	.LASF233
 5055 0acd 10       		.byte	0x10
 5056 0ace 2F       		.byte	0x2f
 5057 0acf EE090000 		.4byte	0x9ee
 5058 0ad3 05       		.uleb128 0x5
 5059 0ad4 18       		.byte	0x18
 5060 0ad5 11       		.byte	0x11
 5061 0ad6 20       		.byte	0x20
 5062 0ad7 4E0B0000 		.4byte	0xb4e
 5063 0adb 09       		.uleb128 0x9
 5064 0adc F8130000 		.4byte	.LASF234
 5065 0ae0 11       		.byte	0x11
 5066 0ae1 22       		.byte	0x22
 5067 0ae2 C3000000 		.4byte	0xc3
 5068 0ae6 00       		.byte	0
 5069 0ae7 09       		.uleb128 0x9
 5070 0ae8 74020000 		.4byte	.LASF235
ARM GAS  C:\Users\haske\AppData\Local\Temp\ccOQHbDo.s 			page 123


 5071 0aec 11       		.byte	0x11
 5072 0aed 23       		.byte	0x23
 5073 0aee CE000000 		.4byte	0xce
 5074 0af2 02       		.byte	0x2
 5075 0af3 09       		.uleb128 0x9
 5076 0af4 121F0000 		.4byte	.LASF236
 5077 0af8 11       		.byte	0x11
 5078 0af9 24       		.byte	0x24
 5079 0afa 29010000 		.4byte	0x129
 5080 0afe 04       		.byte	0x4
 5081 0aff 09       		.uleb128 0x9
 5082 0b00 D1130000 		.4byte	.LASF237
 5083 0b04 11       		.byte	0x11
 5084 0b05 26       		.byte	0x26
 5085 0b06 AB030000 		.4byte	0x3ab
 5086 0b0a 08       		.byte	0x8
 5087 0b0b 09       		.uleb128 0x9
 5088 0b0c 3E190000 		.4byte	.LASF238
 5089 0b10 11       		.byte	0x11
 5090 0b11 27       		.byte	0x27
 5091 0b12 B6030000 		.4byte	0x3b6
 5092 0b16 0A       		.byte	0xa
 5093 0b17 06       		.uleb128 0x6
 5094 0b18 6F706100 		.ascii	"opa\000"
 5095 0b1c 11       		.byte	0x11
 5096 0b1d 29       		.byte	0x29
 5097 0b1e B6030000 		.4byte	0x3b6
 5098 0b22 0B       		.byte	0xb
 5099 0b23 0B       		.uleb128 0xb
 5100 0b24 3F040000 		.4byte	.LASF196
 5101 0b28 11       		.byte	0x11
 5102 0b29 2A       		.byte	0x2a
 5103 0b2a E2030000 		.4byte	0x3e2
 5104 0b2e 01       		.byte	0x1
 5105 0b2f 04       		.byte	0x4
 5106 0b30 04       		.byte	0x4
 5107 0b31 0C       		.byte	0xc
 5108 0b32 09       		.uleb128 0x9
 5109 0b33 35190000 		.4byte	.LASF239
 5110 0b37 11       		.byte	0x11
 5111 0b38 2C       		.byte	0x2c
 5112 0b39 D9000000 		.4byte	0xd9
 5113 0b3d 10       		.byte	0x10
 5114 0b3e 0B       		.uleb128 0xb
 5115 0b3f 541A0000 		.4byte	.LASF240
 5116 0b43 11       		.byte	0x11
 5117 0b44 2D       		.byte	0x2d
 5118 0b45 B8000000 		.4byte	0xb8
 5119 0b49 01       		.byte	0x1
 5120 0b4a 01       		.byte	0x1
 5121 0b4b 07       		.byte	0x7
 5122 0b4c 14       		.byte	0x14
 5123 0b4d 00       		.byte	0
 5124 0b4e 02       		.uleb128 0x2
 5125 0b4f B40A0000 		.4byte	.LASF241
 5126 0b53 11       		.byte	0x11
 5127 0b54 2E       		.byte	0x2e
ARM GAS  C:\Users\haske\AppData\Local\Temp\ccOQHbDo.s 			page 124


 5128 0b55 D30A0000 		.4byte	0xad3
 5129 0b59 05       		.uleb128 0x5
 5130 0b5a 0A       		.byte	0xa
 5131 0b5b 12       		.byte	0x12
 5132 0b5c 1C       		.byte	0x1c
 5133 0b5d DA0B0000 		.4byte	0xbda
 5134 0b61 09       		.uleb128 0x9
 5135 0b62 EF1F0000 		.4byte	.LASF71
 5136 0b66 12       		.byte	0x12
 5137 0b67 1D       		.byte	0x1d
 5138 0b68 AB030000 		.4byte	0x3ab
 5139 0b6c 00       		.byte	0
 5140 0b6d 09       		.uleb128 0x9
 5141 0b6e ED150000 		.4byte	.LASF242
 5142 0b72 12       		.byte	0x12
 5143 0b73 1E       		.byte	0x1e
 5144 0b74 01010000 		.4byte	0x101
 5145 0b78 02       		.byte	0x2
 5146 0b79 09       		.uleb128 0x9
 5147 0b7a FC110000 		.4byte	.LASF243
 5148 0b7e 12       		.byte	0x12
 5149 0b7f 1F       		.byte	0x1f
 5150 0b80 01010000 		.4byte	0x101
 5151 0b84 04       		.byte	0x4
 5152 0b85 09       		.uleb128 0x9
 5153 0b86 0C0B0000 		.4byte	.LASF244
 5154 0b8a 12       		.byte	0x12
 5155 0b8b 20       		.byte	0x20
 5156 0b8c 01010000 		.4byte	0x101
 5157 0b90 06       		.byte	0x6
 5158 0b91 06       		.uleb128 0x6
 5159 0b92 6F706100 		.ascii	"opa\000"
 5160 0b96 12       		.byte	0x12
 5161 0b97 21       		.byte	0x21
 5162 0b98 B6030000 		.4byte	0x3b6
 5163 0b9c 08       		.byte	0x8
 5164 0b9d 0B       		.uleb128 0xb
 5165 0b9e 3F040000 		.4byte	.LASF196
 5166 0ba2 12       		.byte	0x12
 5167 0ba3 22       		.byte	0x22
 5168 0ba4 E2030000 		.4byte	0x3e2
 5169 0ba8 01       		.byte	0x1
 5170 0ba9 02       		.byte	0x2
 5171 0baa 06       		.byte	0x6
 5172 0bab 09       		.byte	0x9
 5173 0bac 0B       		.uleb128 0xb
 5174 0bad B40D0000 		.4byte	.LASF245
 5175 0bb1 12       		.byte	0x12
 5176 0bb2 23       		.byte	0x23
 5177 0bb3 B8000000 		.4byte	0xb8
 5178 0bb7 01       		.byte	0x1
 5179 0bb8 01       		.byte	0x1
 5180 0bb9 05       		.byte	0x5
 5181 0bba 09       		.byte	0x9
 5182 0bbb 0B       		.uleb128 0xb
 5183 0bbc 8A0F0000 		.4byte	.LASF246
 5184 0bc0 12       		.byte	0x12
ARM GAS  C:\Users\haske\AppData\Local\Temp\ccOQHbDo.s 			page 125


 5185 0bc1 24       		.byte	0x24
 5186 0bc2 B8000000 		.4byte	0xb8
 5187 0bc6 01       		.byte	0x1
 5188 0bc7 01       		.byte	0x1
 5189 0bc8 04       		.byte	0x4
 5190 0bc9 09       		.byte	0x9
 5191 0bca 0B       		.uleb128 0xb
 5192 0bcb 2B010000 		.4byte	.LASF247
 5193 0bcf 12       		.byte	0x12
 5194 0bd0 25       		.byte	0x25
 5195 0bd1 B8000000 		.4byte	0xb8
 5196 0bd5 01       		.byte	0x1
 5197 0bd6 01       		.byte	0x1
 5198 0bd7 03       		.byte	0x3
 5199 0bd8 09       		.byte	0x9
 5200 0bd9 00       		.byte	0
 5201 0bda 02       		.uleb128 0x2
 5202 0bdb E9080000 		.4byte	.LASF248
 5203 0bdf 12       		.byte	0x12
 5204 0be0 26       		.byte	0x26
 5205 0be1 590B0000 		.4byte	0xb59
 5206 0be5 05       		.uleb128 0x5
 5207 0be6 10       		.byte	0x10
 5208 0be7 13       		.byte	0x13
 5209 0be8 1C       		.byte	0x1c
 5210 0be9 540C0000 		.4byte	0xc54
 5211 0bed 09       		.uleb128 0x9
 5212 0bee EF1F0000 		.4byte	.LASF71
 5213 0bf2 13       		.byte	0x13
 5214 0bf3 1D       		.byte	0x1d
 5215 0bf4 AB030000 		.4byte	0x3ab
 5216 0bf8 00       		.byte	0
 5217 0bf9 09       		.uleb128 0x9
 5218 0bfa ED150000 		.4byte	.LASF242
 5219 0bfe 13       		.byte	0x13
 5220 0bff 1E       		.byte	0x1e
 5221 0c00 01010000 		.4byte	0x101
 5222 0c04 02       		.byte	0x2
 5223 0c05 09       		.uleb128 0x9
 5224 0c06 B1110000 		.4byte	.LASF249
 5225 0c0a 13       		.byte	0x13
 5226 0c0b 1F       		.byte	0x1f
 5227 0c0c CE000000 		.4byte	0xce
 5228 0c10 04       		.byte	0x4
 5229 0c11 09       		.uleb128 0x9
 5230 0c12 11080000 		.4byte	.LASF250
 5231 0c16 13       		.byte	0x13
 5232 0c17 20       		.byte	0x20
 5233 0c18 CE000000 		.4byte	0xce
 5234 0c1c 06       		.byte	0x6
 5235 0c1d 09       		.uleb128 0x9
 5236 0c1e 940F0000 		.4byte	.LASF251
 5237 0c22 13       		.byte	0x13
 5238 0c23 21       		.byte	0x21
 5239 0c24 1F030000 		.4byte	0x31f
 5240 0c28 08       		.byte	0x8
 5241 0c29 06       		.uleb128 0x6
ARM GAS  C:\Users\haske\AppData\Local\Temp\ccOQHbDo.s 			page 126


 5242 0c2a 6F706100 		.ascii	"opa\000"
 5243 0c2e 13       		.byte	0x13
 5244 0c2f 22       		.byte	0x22
 5245 0c30 B6030000 		.4byte	0x3b6
 5246 0c34 0C       		.byte	0xc
 5247 0c35 0B       		.uleb128 0xb
 5248 0c36 3F040000 		.4byte	.LASF196
 5249 0c3a 13       		.byte	0x13
 5250 0c3b 23       		.byte	0x23
 5251 0c3c E2030000 		.4byte	0x3e2
 5252 0c40 01       		.byte	0x1
 5253 0c41 02       		.byte	0x2
 5254 0c42 06       		.byte	0x6
 5255 0c43 0D       		.byte	0xd
 5256 0c44 0B       		.uleb128 0xb
 5257 0c45 DA020000 		.4byte	.LASF252
 5258 0c49 13       		.byte	0x13
 5259 0c4a 24       		.byte	0x24
 5260 0c4b B8000000 		.4byte	0xb8
 5261 0c4f 01       		.byte	0x1
 5262 0c50 01       		.byte	0x1
 5263 0c51 05       		.byte	0x5
 5264 0c52 0D       		.byte	0xd
 5265 0c53 00       		.byte	0
 5266 0c54 02       		.uleb128 0x2
 5267 0c55 D0200000 		.4byte	.LASF253
 5268 0c59 13       		.byte	0x13
 5269 0c5a 25       		.byte	0x25
 5270 0c5b E50B0000 		.4byte	0xbe5
 5271 0c5f 0D       		.uleb128 0xd
 5272 0c60 04       		.byte	0x4
 5273 0c61 B6030000 		.4byte	0x3b6
 5274 0c65 0D       		.uleb128 0xd
 5275 0c66 04       		.byte	0x4
 5276 0c67 29010000 		.4byte	0x129
 5277 0c6b 07       		.uleb128 0x7
 5278 0c6c 01       		.byte	0x1
 5279 0c6d 42000000 		.4byte	0x42
 5280 0c71 14       		.byte	0x14
 5281 0c72 1C       		.byte	0x1c
 5282 0c73 8A0C0000 		.4byte	0xc8a
 5283 0c77 08       		.uleb128 0x8
 5284 0c78 9A160000 		.4byte	.LASF254
 5285 0c7c 00       		.byte	0
 5286 0c7d 08       		.uleb128 0x8
 5287 0c7e 0D020000 		.4byte	.LASF255
 5288 0c82 01       		.byte	0x1
 5289 0c83 08       		.uleb128 0x8
 5290 0c84 E51B0000 		.4byte	.LASF256
 5291 0c88 02       		.byte	0x2
 5292 0c89 00       		.byte	0
 5293 0c8a 02       		.uleb128 0x2
 5294 0c8b 640A0000 		.4byte	.LASF257
 5295 0c8f 14       		.byte	0x14
 5296 0c90 20       		.byte	0x20
 5297 0c91 6B0C0000 		.4byte	0xc6b
 5298 0c95 05       		.uleb128 0x5
ARM GAS  C:\Users\haske\AppData\Local\Temp\ccOQHbDo.s 			page 127


 5299 0c96 10       		.byte	0x10
 5300 0c97 15       		.byte	0x15
 5301 0c98 33       		.byte	0x33
 5302 0c99 CE0C0000 		.4byte	0xcce
 5303 0c9d 09       		.uleb128 0x9
 5304 0c9e 1D180000 		.4byte	.LASF258
 5305 0ca2 15       		.byte	0x15
 5306 0ca3 34       		.byte	0x34
 5307 0ca4 CE0C0000 		.4byte	0xcce
 5308 0ca8 00       		.byte	0
 5309 0ca9 09       		.uleb128 0x9
 5310 0caa C2130000 		.4byte	.LASF259
 5311 0cae 15       		.byte	0x15
 5312 0caf 35       		.byte	0x35
 5313 0cb0 D90C0000 		.4byte	0xcd9
 5314 0cb4 04       		.byte	0x4
 5315 0cb5 06       		.uleb128 0x6
 5316 0cb6 62756600 		.ascii	"buf\000"
 5317 0cba 15       		.byte	0x15
 5318 0cbb 36       		.byte	0x36
 5319 0cbc 26030000 		.4byte	0x326
 5320 0cc0 08       		.byte	0x8
 5321 0cc1 09       		.uleb128 0x9
 5322 0cc2 36220000 		.4byte	.LASF260
 5323 0cc6 15       		.byte	0x15
 5324 0cc7 37       		.byte	0x37
 5325 0cc8 E7020000 		.4byte	0x2e7
 5326 0ccc 0C       		.byte	0xc
 5327 0ccd 00       		.byte	0
 5328 0cce 0D       		.uleb128 0xd
 5329 0ccf 04       		.byte	0x4
 5330 0cd0 D40C0000 		.4byte	0xcd4
 5331 0cd4 0E       		.uleb128 0xe
 5332 0cd5 69010000 		.4byte	0x169
 5333 0cd9 0D       		.uleb128 0xd
 5334 0cda 04       		.byte	0x4
 5335 0cdb 69010000 		.4byte	0x169
 5336 0cdf 0C       		.uleb128 0xc
 5337 0ce0 BC180000 		.4byte	.LASF261
 5338 0ce4 28       		.byte	0x28
 5339 0ce5 15       		.byte	0x15
 5340 0ce6 2D       		.byte	0x2d
 5341 0ce7 340D0000 		.4byte	0xd34
 5342 0ceb 09       		.uleb128 0x9
 5343 0cec 7B180000 		.4byte	.LASF262
 5344 0cf0 15       		.byte	0x15
 5345 0cf1 2E       		.byte	0x2e
 5346 0cf2 69010000 		.4byte	0x169
 5347 0cf6 00       		.byte	0
 5348 0cf7 09       		.uleb128 0x9
 5349 0cf8 6A090000 		.4byte	.LASF263
 5350 0cfc 15       		.byte	0x15
 5351 0cfd 2F       		.byte	0x2f
 5352 0cfe 69010000 		.4byte	0x169
 5353 0d02 08       		.byte	0x8
 5354 0d03 09       		.uleb128 0x9
 5355 0d04 F1180000 		.4byte	.LASF264
ARM GAS  C:\Users\haske\AppData\Local\Temp\ccOQHbDo.s 			page 128


 5356 0d08 15       		.byte	0x15
 5357 0d09 30       		.byte	0x30
 5358 0d0a 01010000 		.4byte	0x101
 5359 0d0e 10       		.byte	0x10
 5360 0d0f 09       		.uleb128 0x9
 5361 0d10 F61C0000 		.4byte	.LASF265
 5362 0d14 15       		.byte	0x15
 5363 0d15 31       		.byte	0x31
 5364 0d16 01010000 		.4byte	0x101
 5365 0d1a 12       		.byte	0x12
 5366 0d1b 06       		.uleb128 0x6
 5367 0d1c 62756600 		.ascii	"buf\000"
 5368 0d20 15       		.byte	0x15
 5369 0d21 32       		.byte	0x32
 5370 0d22 26030000 		.4byte	0x326
 5371 0d26 14       		.byte	0x14
 5372 0d27 09       		.uleb128 0x9
 5373 0d28 F9090000 		.4byte	.LASF266
 5374 0d2c 15       		.byte	0x15
 5375 0d2d 38       		.byte	0x38
 5376 0d2e 950C0000 		.4byte	0xc95
 5377 0d32 18       		.byte	0x18
 5378 0d33 00       		.byte	0
 5379 0d34 02       		.uleb128 0x2
 5380 0d35 DB1F0000 		.4byte	.LASF267
 5381 0d39 15       		.byte	0x15
 5382 0d3a 39       		.byte	0x39
 5383 0d3b DF0C0000 		.4byte	0xcdf
 5384 0d3f 0C       		.uleb128 0xc
 5385 0d40 FF020000 		.4byte	.LASF268
 5386 0d44 54       		.byte	0x54
 5387 0d45 15       		.byte	0x15
 5388 0d46 3B       		.byte	0x3b
 5389 0d47 480E0000 		.4byte	0xe48
 5390 0d4b 06       		.uleb128 0x6
 5391 0d4c 62756600 		.ascii	"buf\000"
 5392 0d50 15       		.byte	0x15
 5393 0d51 3F       		.byte	0x3f
 5394 0d52 26030000 		.4byte	0x326
 5395 0d56 00       		.byte	0
 5396 0d57 09       		.uleb128 0x9
 5397 0d58 C2130000 		.4byte	.LASF259
 5398 0d5c 15       		.byte	0x15
 5399 0d5d 44       		.byte	0x44
 5400 0d5e D90C0000 		.4byte	0xcd9
 5401 0d62 04       		.byte	0x4
 5402 0d63 09       		.uleb128 0x9
 5403 0d64 1D180000 		.4byte	.LASF258
 5404 0d68 15       		.byte	0x15
 5405 0d69 49       		.byte	0x49
 5406 0d6a CE0C0000 		.4byte	0xcce
 5407 0d6e 08       		.byte	0x8
 5408 0d6f 09       		.uleb128 0x9
 5409 0d70 C2020000 		.4byte	.LASF269
 5410 0d74 15       		.byte	0x15
 5411 0d75 4B       		.byte	0x4b
 5412 0d76 590E0000 		.4byte	0xe59
ARM GAS  C:\Users\haske\AppData\Local\Temp\ccOQHbDo.s 			page 129


 5413 0d7a 0C       		.byte	0xc
 5414 0d7b 09       		.uleb128 0x9
 5415 0d7c 82020000 		.4byte	.LASF270
 5416 0d80 15       		.byte	0x15
 5417 0d81 4D       		.byte	0x4d
 5418 0d82 7F0E0000 		.4byte	0xe7f
 5419 0d86 10       		.byte	0x10
 5420 0d87 09       		.uleb128 0x9
 5421 0d88 BA120000 		.4byte	.LASF271
 5422 0d8c 15       		.byte	0x15
 5423 0d8d 4F       		.byte	0x4f
 5424 0d8e BF0E0000 		.4byte	0xebf
 5425 0d92 14       		.byte	0x14
 5426 0d93 09       		.uleb128 0x9
 5427 0d94 9E140000 		.4byte	.LASF272
 5428 0d98 15       		.byte	0x15
 5429 0d99 52       		.byte	0x52
 5430 0d9a EF0E0000 		.4byte	0xeef
 5431 0d9e 18       		.byte	0x18
 5432 0d9f 09       		.uleb128 0x9
 5433 0da0 37240000 		.4byte	.LASF273
 5434 0da4 15       		.byte	0x15
 5435 0da5 55       		.byte	0x55
 5436 0da6 130F0000 		.4byte	0xf13
 5437 0daa 1C       		.byte	0x1c
 5438 0dab 09       		.uleb128 0x9
 5439 0dac 011E0000 		.4byte	.LASF274
 5440 0db0 15       		.byte	0x15
 5441 0db1 58       		.byte	0x58
 5442 0db2 3E0F0000 		.4byte	0xf3e
 5443 0db6 20       		.byte	0x20
 5444 0db7 09       		.uleb128 0x9
 5445 0db8 83070000 		.4byte	.LASF275
 5446 0dbc 15       		.byte	0x15
 5447 0dbd 5C       		.byte	0x5c
 5448 0dbe 690F0000 		.4byte	0xf69
 5449 0dc2 24       		.byte	0x24
 5450 0dc3 09       		.uleb128 0x9
 5451 0dc4 74240000 		.4byte	.LASF276
 5452 0dc8 15       		.byte	0x15
 5453 0dc9 60       		.byte	0x60
 5454 0dca 890F0000 		.4byte	0xf89
 5455 0dce 28       		.byte	0x28
 5456 0dcf 09       		.uleb128 0x9
 5457 0dd0 150B0000 		.4byte	.LASF277
 5458 0dd4 15       		.byte	0x15
 5459 0dd5 71       		.byte	0x71
 5460 0dd6 C70F0000 		.4byte	0xfc7
 5461 0dda 2C       		.byte	0x2c
 5462 0ddb 09       		.uleb128 0x9
 5463 0ddc 01010000 		.4byte	.LASF278
 5464 0de0 15       		.byte	0x15
 5465 0de1 78       		.byte	0x78
 5466 0de2 7F0E0000 		.4byte	0xe7f
 5467 0de6 30       		.byte	0x30
 5468 0de7 09       		.uleb128 0x9
 5469 0de8 AA1B0000 		.4byte	.LASF279
ARM GAS  C:\Users\haske\AppData\Local\Temp\ccOQHbDo.s 			page 130


 5470 0dec 15       		.byte	0x15
 5471 0ded 7D       		.byte	0x7d
 5472 0dee 590E0000 		.4byte	0xe59
 5473 0df2 34       		.byte	0x34
 5474 0df3 09       		.uleb128 0x9
 5475 0df4 FE060000 		.4byte	.LASF280
 5476 0df8 15       		.byte	0x15
 5477 0df9 8D       		.byte	0x8d
 5478 0dfa F60F0000 		.4byte	0xff6
 5479 0dfe 38       		.byte	0x38
 5480 0dff 09       		.uleb128 0x9
 5481 0e00 540E0000 		.4byte	.LASF281
 5482 0e04 15       		.byte	0x15
 5483 0e05 99       		.byte	0x99
 5484 0e06 1B100000 		.4byte	0x101b
 5485 0e0a 3C       		.byte	0x3c
 5486 0e0b 09       		.uleb128 0x9
 5487 0e0c 6A1F0000 		.4byte	.LASF282
 5488 0e10 15       		.byte	0x15
 5489 0e11 A3       		.byte	0xa3
 5490 0e12 36100000 		.4byte	0x1036
 5491 0e16 40       		.byte	0x40
 5492 0e17 09       		.uleb128 0x9
 5493 0e18 3A200000 		.4byte	.LASF283
 5494 0e1c 15       		.byte	0x15
 5495 0e1d AC       		.byte	0xac
 5496 0e1e 51100000 		.4byte	0x1051
 5497 0e22 44       		.byte	0x44
 5498 0e23 09       		.uleb128 0x9
 5499 0e24 DD110000 		.4byte	.LASF284
 5500 0e28 15       		.byte	0x15
 5501 0e29 B5       		.byte	0xb5
 5502 0e2a 6D100000 		.4byte	0x106d
 5503 0e2e 48       		.byte	0x48
 5504 0e2f 09       		.uleb128 0x9
 5505 0e30 EC0A0000 		.4byte	.LASF285
 5506 0e34 15       		.byte	0x15
 5507 0e35 BA       		.byte	0xba
 5508 0e36 EF000000 		.4byte	0xef
 5509 0e3a 4C       		.byte	0x4c
 5510 0e3b 09       		.uleb128 0x9
 5511 0e3c 2D260000 		.4byte	.LASF50
 5512 0e40 15       		.byte	0x15
 5513 0e41 BD       		.byte	0xbd
 5514 0e42 26030000 		.4byte	0x326
 5515 0e46 50       		.byte	0x50
 5516 0e47 00       		.byte	0
 5517 0e48 1F       		.uleb128 0x1f
 5518 0e49 530E0000 		.4byte	0xe53
 5519 0e4d 10       		.uleb128 0x10
 5520 0e4e 530E0000 		.4byte	0xe53
 5521 0e52 00       		.byte	0
 5522 0e53 0D       		.uleb128 0xd
 5523 0e54 04       		.byte	0x4
 5524 0e55 3F0D0000 		.4byte	0xd3f
 5525 0e59 0D       		.uleb128 0xd
 5526 0e5a 04       		.byte	0x4
ARM GAS  C:\Users\haske\AppData\Local\Temp\ccOQHbDo.s 			page 131


 5527 0e5b 480E0000 		.4byte	0xe48
 5528 0e5f 1F       		.uleb128 0x1f
 5529 0e60 740E0000 		.4byte	0xe74
 5530 0e64 10       		.uleb128 0x10
 5531 0e65 530E0000 		.4byte	0xe53
 5532 0e69 10       		.uleb128 0x10
 5533 0e6a 740E0000 		.4byte	0xe74
 5534 0e6e 10       		.uleb128 0x10
 5535 0e6f CE0C0000 		.4byte	0xcce
 5536 0e73 00       		.byte	0
 5537 0e74 0D       		.uleb128 0xd
 5538 0e75 04       		.byte	0x4
 5539 0e76 7A0E0000 		.4byte	0xe7a
 5540 0e7a 0E       		.uleb128 0xe
 5541 0e7b E3090000 		.4byte	0x9e3
 5542 0e7f 0D       		.uleb128 0xd
 5543 0e80 04       		.byte	0x4
 5544 0e81 5F0E0000 		.4byte	0xe5f
 5545 0e85 1F       		.uleb128 0x1f
 5546 0e86 A90E0000 		.4byte	0xea9
 5547 0e8a 10       		.uleb128 0x10
 5548 0e8b 530E0000 		.4byte	0xe53
 5549 0e8f 10       		.uleb128 0x10
 5550 0e90 A90E0000 		.4byte	0xea9
 5551 0e94 10       		.uleb128 0x10
 5552 0e95 B40E0000 		.4byte	0xeb4
 5553 0e99 10       		.uleb128 0x10
 5554 0e9a CE000000 		.4byte	0xce
 5555 0e9e 10       		.uleb128 0x10
 5556 0e9f CE000000 		.4byte	0xce
 5557 0ea3 10       		.uleb128 0x10
 5558 0ea4 CE000000 		.4byte	0xce
 5559 0ea8 00       		.byte	0
 5560 0ea9 0D       		.uleb128 0xd
 5561 0eaa 04       		.byte	0x4
 5562 0eab AF0E0000 		.4byte	0xeaf
 5563 0eaf 0E       		.uleb128 0xe
 5564 0eb0 540C0000 		.4byte	0xc54
 5565 0eb4 0D       		.uleb128 0xd
 5566 0eb5 04       		.byte	0x4
 5567 0eb6 BA0E0000 		.4byte	0xeba
 5568 0eba 0E       		.uleb128 0xe
 5569 0ebb 29010000 		.4byte	0x129
 5570 0ebf 0D       		.uleb128 0xd
 5571 0ec0 04       		.byte	0x4
 5572 0ec1 850E0000 		.4byte	0xe85
 5573 0ec5 1F       		.uleb128 0x1f
 5574 0ec6 E40E0000 		.4byte	0xee4
 5575 0eca 10       		.uleb128 0x10
 5576 0ecb 530E0000 		.4byte	0xe53
 5577 0ecf 10       		.uleb128 0x10
 5578 0ed0 E40E0000 		.4byte	0xee4
 5579 0ed4 10       		.uleb128 0x10
 5580 0ed5 CE0C0000 		.4byte	0xcce
 5581 0ed9 10       		.uleb128 0x10
 5582 0eda 0E030000 		.4byte	0x30e
 5583 0ede 10       		.uleb128 0x10
ARM GAS  C:\Users\haske\AppData\Local\Temp\ccOQHbDo.s 			page 132


 5584 0edf BE070000 		.4byte	0x7be
 5585 0ee3 00       		.byte	0
 5586 0ee4 0D       		.uleb128 0xd
 5587 0ee5 04       		.byte	0x4
 5588 0ee6 EA0E0000 		.4byte	0xeea
 5589 0eea 0E       		.uleb128 0xe
 5590 0eeb 4E0B0000 		.4byte	0xb4e
 5591 0eef 0D       		.uleb128 0xd
 5592 0ef0 04       		.byte	0x4
 5593 0ef1 C50E0000 		.4byte	0xec5
 5594 0ef5 0F       		.uleb128 0xf
 5595 0ef6 33030000 		.4byte	0x333
 5596 0efa 130F0000 		.4byte	0xf13
 5597 0efe 10       		.uleb128 0x10
 5598 0eff 530E0000 		.4byte	0xe53
 5599 0f03 10       		.uleb128 0x10
 5600 0f04 E40E0000 		.4byte	0xee4
 5601 0f08 10       		.uleb128 0x10
 5602 0f09 CE0C0000 		.4byte	0xcce
 5603 0f0d 10       		.uleb128 0x10
 5604 0f0e 1F030000 		.4byte	0x31f
 5605 0f12 00       		.byte	0
 5606 0f13 0D       		.uleb128 0xd
 5607 0f14 04       		.byte	0x4
 5608 0f15 F50E0000 		.4byte	0xef5
 5609 0f19 1F       		.uleb128 0x1f
 5610 0f1a 330F0000 		.4byte	0xf33
 5611 0f1e 10       		.uleb128 0x10
 5612 0f1f 530E0000 		.4byte	0xe53
 5613 0f23 10       		.uleb128 0x10
 5614 0f24 330F0000 		.4byte	0xf33
 5615 0f28 10       		.uleb128 0x10
 5616 0f29 B40E0000 		.4byte	0xeb4
 5617 0f2d 10       		.uleb128 0x10
 5618 0f2e E4000000 		.4byte	0xe4
 5619 0f32 00       		.byte	0
 5620 0f33 0D       		.uleb128 0xd
 5621 0f34 04       		.byte	0x4
 5622 0f35 390F0000 		.4byte	0xf39
 5623 0f39 0E       		.uleb128 0xe
 5624 0f3a C80A0000 		.4byte	0xac8
 5625 0f3e 0D       		.uleb128 0xd
 5626 0f3f 04       		.byte	0x4
 5627 0f40 190F0000 		.4byte	0xf19
 5628 0f44 1F       		.uleb128 0x1f
 5629 0f45 5E0F0000 		.4byte	0xf5e
 5630 0f49 10       		.uleb128 0x10
 5631 0f4a 530E0000 		.4byte	0xe53
 5632 0f4e 10       		.uleb128 0x10
 5633 0f4f 5E0F0000 		.4byte	0xf5e
 5634 0f53 10       		.uleb128 0x10
 5635 0f54 B40E0000 		.4byte	0xeb4
 5636 0f58 10       		.uleb128 0x10
 5637 0f59 B40E0000 		.4byte	0xeb4
 5638 0f5d 00       		.byte	0
 5639 0f5e 0D       		.uleb128 0xd
 5640 0f5f 04       		.byte	0x4
ARM GAS  C:\Users\haske\AppData\Local\Temp\ccOQHbDo.s 			page 133


 5641 0f60 640F0000 		.4byte	0xf64
 5642 0f64 0E       		.uleb128 0xe
 5643 0f65 DA0B0000 		.4byte	0xbda
 5644 0f69 0D       		.uleb128 0xd
 5645 0f6a 04       		.byte	0x4
 5646 0f6b 440F0000 		.4byte	0xf44
 5647 0f6f 1F       		.uleb128 0x1f
 5648 0f70 890F0000 		.4byte	0xf89
 5649 0f74 10       		.uleb128 0x10
 5650 0f75 530E0000 		.4byte	0xe53
 5651 0f79 10       		.uleb128 0x10
 5652 0f7a 740E0000 		.4byte	0xe74
 5653 0f7e 10       		.uleb128 0x10
 5654 0f7f B40E0000 		.4byte	0xeb4
 5655 0f83 10       		.uleb128 0x10
 5656 0f84 CE000000 		.4byte	0xce
 5657 0f88 00       		.byte	0
 5658 0f89 0D       		.uleb128 0xd
 5659 0f8a 04       		.byte	0x4
 5660 0f8b 6F0F0000 		.4byte	0xf6f
 5661 0f8f 1F       		.uleb128 0x1f
 5662 0f90 C70F0000 		.4byte	0xfc7
 5663 0f94 10       		.uleb128 0x10
 5664 0f95 530E0000 		.4byte	0xe53
 5665 0f99 10       		.uleb128 0x10
 5666 0f9a CE0C0000 		.4byte	0xcce
 5667 0f9e 10       		.uleb128 0x10
 5668 0f9f 1F030000 		.4byte	0x31f
 5669 0fa3 10       		.uleb128 0x10
 5670 0fa4 01010000 		.4byte	0x101
 5671 0fa8 10       		.uleb128 0x10
 5672 0fa9 01010000 		.4byte	0x101
 5673 0fad 10       		.uleb128 0x10
 5674 0fae 01010000 		.4byte	0x101
 5675 0fb2 10       		.uleb128 0x10
 5676 0fb3 E40E0000 		.4byte	0xee4
 5677 0fb7 10       		.uleb128 0x10
 5678 0fb8 BE070000 		.4byte	0x7be
 5679 0fbc 10       		.uleb128 0x10
 5680 0fbd 96080000 		.4byte	0x896
 5681 0fc1 10       		.uleb128 0x10
 5682 0fc2 5F0C0000 		.4byte	0xc5f
 5683 0fc6 00       		.byte	0
 5684 0fc7 0D       		.uleb128 0xd
 5685 0fc8 04       		.byte	0x4
 5686 0fc9 8F0F0000 		.4byte	0xf8f
 5687 0fcd 1F       		.uleb128 0x1f
 5688 0fce F60F0000 		.4byte	0xff6
 5689 0fd2 10       		.uleb128 0x10
 5690 0fd3 530E0000 		.4byte	0xe53
 5691 0fd7 10       		.uleb128 0x10
 5692 0fd8 26030000 		.4byte	0x326
 5693 0fdc 10       		.uleb128 0x10
 5694 0fdd 01010000 		.4byte	0x101
 5695 0fe1 10       		.uleb128 0x10
 5696 0fe2 CE0C0000 		.4byte	0xcce
 5697 0fe6 10       		.uleb128 0x10
ARM GAS  C:\Users\haske\AppData\Local\Temp\ccOQHbDo.s 			page 134


 5698 0fe7 26030000 		.4byte	0x326
 5699 0feb 10       		.uleb128 0x10
 5700 0fec 01010000 		.4byte	0x101
 5701 0ff0 10       		.uleb128 0x10
 5702 0ff1 CE0C0000 		.4byte	0xcce
 5703 0ff5 00       		.byte	0
 5704 0ff6 0D       		.uleb128 0xd
 5705 0ff7 04       		.byte	0x4
 5706 0ff8 CD0F0000 		.4byte	0xfcd
 5707 0ffc 0F       		.uleb128 0xf
 5708 0ffd 15100000 		.4byte	0x1015
 5709 1001 15100000 		.4byte	0x1015
 5710 1005 10       		.uleb128 0x10
 5711 1006 530E0000 		.4byte	0xe53
 5712 100a 10       		.uleb128 0x10
 5713 100b 15100000 		.4byte	0x1015
 5714 100f 10       		.uleb128 0x10
 5715 1010 8A0C0000 		.4byte	0xc8a
 5716 1014 00       		.byte	0
 5717 1015 0D       		.uleb128 0xd
 5718 1016 04       		.byte	0x4
 5719 1017 DF0C0000 		.4byte	0xcdf
 5720 101b 0D       		.uleb128 0xd
 5721 101c 04       		.byte	0x4
 5722 101d FC0F0000 		.4byte	0xffc
 5723 1021 1F       		.uleb128 0x1f
 5724 1022 36100000 		.4byte	0x1036
 5725 1026 10       		.uleb128 0x10
 5726 1027 530E0000 		.4byte	0xe53
 5727 102b 10       		.uleb128 0x10
 5728 102c 15100000 		.4byte	0x1015
 5729 1030 10       		.uleb128 0x10
 5730 1031 8A0C0000 		.4byte	0xc8a
 5731 1035 00       		.byte	0
 5732 1036 0D       		.uleb128 0xd
 5733 1037 04       		.byte	0x4
 5734 1038 21100000 		.4byte	0x1021
 5735 103c 1F       		.uleb128 0x1f
 5736 103d 51100000 		.4byte	0x1051
 5737 1041 10       		.uleb128 0x10
 5738 1042 530E0000 		.4byte	0xe53
 5739 1046 10       		.uleb128 0x10
 5740 1047 15100000 		.4byte	0x1015
 5741 104b 10       		.uleb128 0x10
 5742 104c E40E0000 		.4byte	0xee4
 5743 1050 00       		.byte	0
 5744 1051 0D       		.uleb128 0xd
 5745 1052 04       		.byte	0x4
 5746 1053 3C100000 		.4byte	0x103c
 5747 1057 1F       		.uleb128 0x1f
 5748 1058 67100000 		.4byte	0x1067
 5749 105c 10       		.uleb128 0x10
 5750 105d 530E0000 		.4byte	0xe53
 5751 1061 10       		.uleb128 0x10
 5752 1062 67100000 		.4byte	0x1067
 5753 1066 00       		.byte	0
 5754 1067 0D       		.uleb128 0xd
ARM GAS  C:\Users\haske\AppData\Local\Temp\ccOQHbDo.s 			page 135


 5755 1068 04       		.byte	0x4
 5756 1069 340D0000 		.4byte	0xd34
 5757 106d 0D       		.uleb128 0xd
 5758 106e 04       		.byte	0x4
 5759 106f 57100000 		.4byte	0x1057
 5760 1073 02       		.uleb128 0x2
 5761 1074 120C0000 		.4byte	.LASF286
 5762 1078 15       		.byte	0x15
 5763 1079 C0       		.byte	0xc0
 5764 107a 3F0D0000 		.4byte	0xd3f
 5765 107e 02       		.uleb128 0x2
 5766 107f 3A000000 		.4byte	.LASF287
 5767 1083 16       		.byte	0x16
 5768 1084 1D       		.byte	0x1d
 5769 1085 B8000000 		.4byte	0xb8
 5770 1089 05       		.uleb128 0x5
 5771 108a 0C       		.byte	0xc
 5772 108b 16       		.byte	0x16
 5773 108c 20       		.byte	0x20
 5774 108d B6100000 		.4byte	0x10b6
 5775 1091 09       		.uleb128 0x9
 5776 1092 2A280000 		.4byte	.LASF288
 5777 1096 16       		.byte	0x16
 5778 1097 21       		.byte	0x21
 5779 1098 E4000000 		.4byte	0xe4
 5780 109c 00       		.byte	0
 5781 109d 09       		.uleb128 0x9
 5782 109e A3060000 		.4byte	.LASF289
 5783 10a2 16       		.byte	0x16
 5784 10a3 22       		.byte	0x22
 5785 10a4 B6100000 		.4byte	0x10b6
 5786 10a8 04       		.byte	0x4
 5787 10a9 09       		.uleb128 0x9
 5788 10aa E9000000 		.4byte	.LASF290
 5789 10ae 16       		.byte	0x16
 5790 10af 23       		.byte	0x23
 5791 10b0 B6100000 		.4byte	0x10b6
 5792 10b4 08       		.byte	0x8
 5793 10b5 00       		.byte	0
 5794 10b6 0D       		.uleb128 0xd
 5795 10b7 04       		.byte	0x4
 5796 10b8 7E100000 		.4byte	0x107e
 5797 10bc 02       		.uleb128 0x2
 5798 10bd 80210000 		.4byte	.LASF291
 5799 10c1 16       		.byte	0x16
 5800 10c2 24       		.byte	0x24
 5801 10c3 89100000 		.4byte	0x1089
 5802 10c7 02       		.uleb128 0x2
 5803 10c8 AF140000 		.4byte	.LASF292
 5804 10cc 17       		.byte	0x17
 5805 10cd 27       		.byte	0x27
 5806 10ce D2100000 		.4byte	0x10d2
 5807 10d2 0D       		.uleb128 0xd
 5808 10d3 04       		.byte	0x4
 5809 10d4 D8100000 		.4byte	0x10d8
 5810 10d8 1F       		.uleb128 0x1f
 5811 10d9 E3100000 		.4byte	0x10e3
ARM GAS  C:\Users\haske\AppData\Local\Temp\ccOQHbDo.s 			page 136


 5812 10dd 10       		.uleb128 0x10
 5813 10de E3100000 		.4byte	0x10e3
 5814 10e2 00       		.byte	0
 5815 10e3 0D       		.uleb128 0xd
 5816 10e4 04       		.byte	0x4
 5817 10e5 E9100000 		.4byte	0x10e9
 5818 10e9 0C       		.uleb128 0xc
 5819 10ea A0020000 		.4byte	.LASF293
 5820 10ee 18       		.byte	0x18
 5821 10ef 17       		.byte	0x17
 5822 10f0 2C       		.byte	0x2c
 5823 10f1 41110000 		.4byte	0x1141
 5824 10f5 09       		.uleb128 0x9
 5825 10f6 481F0000 		.4byte	.LASF294
 5826 10fa 17       		.byte	0x17
 5827 10fb 2D       		.byte	0x2d
 5828 10fc E4000000 		.4byte	0xe4
 5829 1100 00       		.byte	0
 5830 1101 09       		.uleb128 0x9
 5831 1102 DA1D0000 		.4byte	.LASF295
 5832 1106 17       		.byte	0x17
 5833 1107 2E       		.byte	0x2e
 5834 1108 E4000000 		.4byte	0xe4
 5835 110c 04       		.byte	0x4
 5836 110d 09       		.uleb128 0x9
 5837 110e 121C0000 		.4byte	.LASF296
 5838 1112 17       		.byte	0x17
 5839 1113 2F       		.byte	0x2f
 5840 1114 C7100000 		.4byte	0x10c7
 5841 1118 08       		.byte	0x8
 5842 1119 09       		.uleb128 0x9
 5843 111a 2D260000 		.4byte	.LASF50
 5844 111e 17       		.byte	0x17
 5845 111f 30       		.byte	0x30
 5846 1120 26030000 		.4byte	0x326
 5847 1124 0C       		.byte	0xc
 5848 1125 09       		.uleb128 0x9
 5849 1126 67020000 		.4byte	.LASF297
 5850 112a 17       		.byte	0x17
 5851 112b 31       		.byte	0x31
 5852 112c D9000000 		.4byte	0xd9
 5853 1130 10       		.byte	0x10
 5854 1131 0B       		.uleb128 0xb
 5855 1132 16180000 		.4byte	.LASF298
 5856 1136 17       		.byte	0x17
 5857 1137 32       		.byte	0x32
 5858 1138 E4000000 		.4byte	0xe4
 5859 113c 04       		.byte	0x4
 5860 113d 01       		.byte	0x1
 5861 113e 1F       		.byte	0x1f
 5862 113f 14       		.byte	0x14
 5863 1140 00       		.byte	0
 5864 1141 02       		.uleb128 0x2
 5865 1142 780D0000 		.4byte	.LASF299
 5866 1146 17       		.byte	0x17
 5867 1147 33       		.byte	0x33
 5868 1148 E9100000 		.4byte	0x10e9
ARM GAS  C:\Users\haske\AppData\Local\Temp\ccOQHbDo.s 			page 137


 5869 114c 0C       		.uleb128 0xc
 5870 114d AE130000 		.4byte	.LASF300
 5871 1151 1C       		.byte	0x1c
 5872 1152 18       		.byte	0x18
 5873 1153 32       		.byte	0x32
 5874 1154 BF110000 		.4byte	0x11bf
 5875 1158 09       		.uleb128 0x9
 5876 1159 4B160000 		.4byte	.LASF301
 5877 115d 18       		.byte	0x18
 5878 115e 33       		.byte	0x33
 5879 115f 26030000 		.4byte	0x326
 5880 1163 00       		.byte	0
 5881 1164 09       		.uleb128 0x9
 5882 1165 50160000 		.4byte	.LASF302
 5883 1169 18       		.byte	0x18
 5884 116a 34       		.byte	0x34
 5885 116b 26030000 		.4byte	0x326
 5886 116f 04       		.byte	0x4
 5887 1170 09       		.uleb128 0x9
 5888 1171 291B0000 		.4byte	.LASF303
 5889 1175 18       		.byte	0x18
 5890 1176 37       		.byte	0x37
 5891 1177 26030000 		.4byte	0x326
 5892 117b 08       		.byte	0x8
 5893 117c 09       		.uleb128 0x9
 5894 117d F11C0000 		.4byte	.LASF304
 5895 1181 18       		.byte	0x18
 5896 1182 38       		.byte	0x38
 5897 1183 E4000000 		.4byte	0xe4
 5898 1187 0C       		.byte	0xc
 5899 1188 09       		.uleb128 0x9
 5900 1189 1A0D0000 		.4byte	.LASF305
 5901 118d 18       		.byte	0x18
 5902 118e 3A       		.byte	0x3a
 5903 118f BF110000 		.4byte	0x11bf
 5904 1193 10       		.byte	0x10
 5905 1194 09       		.uleb128 0x9
 5906 1195 C5090000 		.4byte	.LASF306
 5907 1199 18       		.byte	0x18
 5908 119a 3C       		.byte	0x3c
 5909 119b BF110000 		.4byte	0x11bf
 5910 119f 14       		.byte	0x14
 5911 11a0 0B       		.uleb128 0xb
 5912 11a1 E8060000 		.4byte	.LASF307
 5913 11a5 18       		.byte	0x18
 5914 11a6 3D       		.byte	0x3d
 5915 11a7 C4110000 		.4byte	0x11c4
 5916 11ab 04       		.byte	0x4
 5917 11ac 01       		.byte	0x1
 5918 11ad 1F       		.byte	0x1f
 5919 11ae 18       		.byte	0x18
 5920 11af 0B       		.uleb128 0xb
 5921 11b0 07120000 		.4byte	.LASF308
 5922 11b4 18       		.byte	0x18
 5923 11b5 3E       		.byte	0x3e
 5924 11b6 C4110000 		.4byte	0x11c4
 5925 11ba 04       		.byte	0x4
ARM GAS  C:\Users\haske\AppData\Local\Temp\ccOQHbDo.s 			page 138


 5926 11bb 01       		.byte	0x1
 5927 11bc 1E       		.byte	0x1e
 5928 11bd 18       		.byte	0x18
 5929 11be 00       		.byte	0
 5930 11bf 20       		.uleb128 0x20
 5931 11c0 9F000000 		.4byte	0x9f
 5932 11c4 20       		.uleb128 0x20
 5933 11c5 E4000000 		.4byte	0xe4
 5934 11c9 02       		.uleb128 0x2
 5935 11ca 47000000 		.4byte	.LASF309
 5936 11ce 18       		.byte	0x18
 5937 11cf 3F       		.byte	0x3f
 5938 11d0 4C110000 		.4byte	0x114c
 5939 11d4 07       		.uleb128 0x7
 5940 11d5 01       		.byte	0x1
 5941 11d6 42000000 		.4byte	0x42
 5942 11da 18       		.byte	0x18
 5943 11db 41       		.byte	0x41
 5944 11dc F9110000 		.4byte	0x11f9
 5945 11e0 08       		.uleb128 0x8
 5946 11e1 A3070000 		.4byte	.LASF310
 5947 11e5 00       		.byte	0
 5948 11e6 08       		.uleb128 0x8
 5949 11e7 DA080000 		.4byte	.LASF311
 5950 11eb 01       		.byte	0x1
 5951 11ec 08       		.uleb128 0x8
 5952 11ed 67110000 		.4byte	.LASF312
 5953 11f1 02       		.byte	0x2
 5954 11f2 08       		.uleb128 0x8
 5955 11f3 AC180000 		.4byte	.LASF313
 5956 11f7 03       		.byte	0x3
 5957 11f8 00       		.byte	0
 5958 11f9 0C       		.uleb128 0xc
 5959 11fa 04270000 		.4byte	.LASF314
 5960 11fe 50       		.byte	0x50
 5961 11ff 18       		.byte	0x18
 5962 1200 4D       		.byte	0x4d
 5963 1201 77130000 		.4byte	0x1377
 5964 1205 09       		.uleb128 0x9
 5965 1206 8D070000 		.4byte	.LASF315
 5966 120a 18       		.byte	0x18
 5967 120b 4F       		.byte	0x4f
 5968 120c 01010000 		.4byte	0x101
 5969 1210 00       		.byte	0
 5970 1211 09       		.uleb128 0x9
 5971 1212 5A040000 		.4byte	.LASF316
 5972 1216 18       		.byte	0x18
 5973 1217 50       		.byte	0x50
 5974 1218 01010000 		.4byte	0x101
 5975 121c 02       		.byte	0x2
 5976 121d 09       		.uleb128 0x9
 5977 121e E01C0000 		.4byte	.LASF317
 5978 1222 18       		.byte	0x18
 5979 1223 53       		.byte	0x53
 5980 1224 01010000 		.4byte	0x101
 5981 1228 04       		.byte	0x4
 5982 1229 09       		.uleb128 0x9
ARM GAS  C:\Users\haske\AppData\Local\Temp\ccOQHbDo.s 			page 139


 5983 122a E8090000 		.4byte	.LASF318
 5984 122e 18       		.byte	0x18
 5985 122f 55       		.byte	0x55
 5986 1230 01010000 		.4byte	0x101
 5987 1234 06       		.byte	0x6
 5988 1235 09       		.uleb128 0x9
 5989 1236 35120000 		.4byte	.LASF319
 5990 123a 18       		.byte	0x18
 5991 123b 57       		.byte	0x57
 5992 123c 01010000 		.4byte	0x101
 5993 1240 08       		.byte	0x8
 5994 1241 09       		.uleb128 0x9
 5995 1242 3E120000 		.4byte	.LASF320
 5996 1246 18       		.byte	0x18
 5997 1247 58       		.byte	0x58
 5998 1248 01010000 		.4byte	0x101
 5999 124c 0A       		.byte	0xa
 6000 124d 09       		.uleb128 0x9
 6001 124e 3F1F0000 		.4byte	.LASF321
 6002 1252 18       		.byte	0x18
 6003 1253 5C       		.byte	0x5c
 6004 1254 77130000 		.4byte	0x1377
 6005 1258 0C       		.byte	0xc
 6006 1259 0B       		.uleb128 0xb
 6007 125a 240B0000 		.4byte	.LASF322
 6008 125e 18       		.byte	0x18
 6009 125f 5E       		.byte	0x5e
 6010 1260 E4000000 		.4byte	0xe4
 6011 1264 04       		.byte	0x4
 6012 1265 01       		.byte	0x1
 6013 1266 1F       		.byte	0x1f
 6014 1267 10       		.byte	0x10
 6015 1268 0B       		.uleb128 0xb
 6016 1269 7D0F0000 		.4byte	.LASF323
 6017 126d 18       		.byte	0x18
 6018 126e 5F       		.byte	0x5f
 6019 126f E4000000 		.4byte	0xe4
 6020 1273 04       		.byte	0x4
 6021 1274 01       		.byte	0x1
 6022 1275 1E       		.byte	0x1e
 6023 1276 10       		.byte	0x10
 6024 1277 0B       		.uleb128 0xb
 6025 1278 210E0000 		.4byte	.LASF324
 6026 127c 18       		.byte	0x18
 6027 127d 60       		.byte	0x60
 6028 127e E4000000 		.4byte	0xe4
 6029 1282 04       		.byte	0x4
 6030 1283 01       		.byte	0x1
 6031 1284 1D       		.byte	0x1d
 6032 1285 10       		.byte	0x10
 6033 1286 0B       		.uleb128 0xb
 6034 1287 900B0000 		.4byte	.LASF325
 6035 128b 18       		.byte	0x18
 6036 128c 61       		.byte	0x61
 6037 128d E4000000 		.4byte	0xe4
 6038 1291 04       		.byte	0x4
 6039 1292 01       		.byte	0x1
ARM GAS  C:\Users\haske\AppData\Local\Temp\ccOQHbDo.s 			page 140


 6040 1293 1C       		.byte	0x1c
 6041 1294 10       		.byte	0x10
 6042 1295 0B       		.uleb128 0xb
 6043 1296 7B050000 		.4byte	.LASF326
 6044 129a 18       		.byte	0x18
 6045 129b 62       		.byte	0x62
 6046 129c E4000000 		.4byte	0xe4
 6047 12a0 04       		.byte	0x4
 6048 12a1 02       		.byte	0x2
 6049 12a2 1A       		.byte	0x1a
 6050 12a3 10       		.byte	0x10
 6051 12a4 0B       		.uleb128 0xb
 6052 12a5 36220000 		.4byte	.LASF260
 6053 12a9 18       		.byte	0x18
 6054 12aa 63       		.byte	0x63
 6055 12ab E4000000 		.4byte	0xe4
 6056 12af 04       		.byte	0x4
 6057 12b0 01       		.byte	0x1
 6058 12b1 19       		.byte	0x19
 6059 12b2 10       		.byte	0x10
 6060 12b3 0A       		.uleb128 0xa
 6061 12b4 64706900 		.ascii	"dpi\000"
 6062 12b8 18       		.byte	0x18
 6063 12b9 66       		.byte	0x66
 6064 12ba E4000000 		.4byte	0xe4
 6065 12be 04       		.byte	0x4
 6066 12bf 0A       		.byte	0xa
 6067 12c0 0F       		.byte	0xf
 6068 12c1 10       		.byte	0x10
 6069 12c2 09       		.uleb128 0x9
 6070 12c3 0D260000 		.4byte	.LASF327
 6071 12c7 18       		.byte	0x18
 6072 12c8 6A       		.byte	0x6a
 6073 12c9 98130000 		.4byte	0x1398
 6074 12cd 14       		.byte	0x14
 6075 12ce 09       		.uleb128 0x9
 6076 12cf 4F1F0000 		.4byte	.LASF328
 6077 12d3 18       		.byte	0x18
 6078 12d4 6E       		.byte	0x6e
 6079 12d5 AE130000 		.4byte	0x13ae
 6080 12d9 18       		.byte	0x18
 6081 12da 09       		.uleb128 0x9
 6082 12db 56230000 		.4byte	.LASF329
 6083 12df 18       		.byte	0x18
 6084 12e0 73       		.byte	0x73
 6085 12e1 DD130000 		.4byte	0x13dd
 6086 12e5 1C       		.byte	0x1c
 6087 12e6 09       		.uleb128 0x9
 6088 12e7 56100000 		.4byte	.LASF330
 6089 12eb 18       		.byte	0x18
 6090 12ec 76       		.byte	0x76
 6091 12ed F8130000 		.4byte	0x13f8
 6092 12f1 20       		.byte	0x20
 6093 12f2 09       		.uleb128 0x9
 6094 12f3 66170000 		.4byte	.LASF331
 6095 12f7 18       		.byte	0x18
 6096 12f8 7B       		.byte	0x7b
ARM GAS  C:\Users\haske\AppData\Local\Temp\ccOQHbDo.s 			page 141


 6097 12f9 13140000 		.4byte	0x1413
 6098 12fd 24       		.byte	0x24
 6099 12fe 09       		.uleb128 0x9
 6100 12ff 61150000 		.4byte	.LASF332
 6101 1303 18       		.byte	0x18
 6102 1304 80       		.byte	0x80
 6103 1305 24140000 		.4byte	0x1424
 6104 1309 28       		.byte	0x28
 6105 130a 09       		.uleb128 0x9
 6106 130b 7C270000 		.4byte	.LASF333
 6107 130f 18       		.byte	0x18
 6108 1310 83       		.byte	0x83
 6109 1311 24140000 		.4byte	0x1424
 6110 1315 2C       		.byte	0x2c
 6111 1316 09       		.uleb128 0x9
 6112 1317 6F1C0000 		.4byte	.LASF334
 6113 131b 18       		.byte	0x18
 6114 131c 86       		.byte	0x86
 6115 131d 24140000 		.4byte	0x1424
 6116 1321 30       		.byte	0x30
 6117 1322 09       		.uleb128 0x9
 6118 1323 5F1C0000 		.4byte	.LASF335
 6119 1327 18       		.byte	0x18
 6120 1328 89       		.byte	0x89
 6121 1329 24140000 		.4byte	0x1424
 6122 132d 34       		.byte	0x34
 6123 132e 09       		.uleb128 0x9
 6124 132f 29000000 		.4byte	.LASF336
 6125 1333 18       		.byte	0x18
 6126 1334 8D       		.byte	0x8d
 6127 1335 AB030000 		.4byte	0x3ab
 6128 1339 38       		.byte	0x38
 6129 133a 09       		.uleb128 0x9
 6130 133b 17240000 		.4byte	.LASF337
 6131 133f 18       		.byte	0x18
 6132 1340 8F       		.byte	0x8f
 6133 1341 2A140000 		.4byte	0x142a
 6134 1345 3C       		.byte	0x3c
 6135 1346 09       		.uleb128 0x9
 6136 1347 10140000 		.4byte	.LASF338
 6137 134b 18       		.byte	0x18
 6138 134c 90       		.byte	0x90
 6139 134d 40140000 		.4byte	0x1440
 6140 1351 40       		.byte	0x40
 6141 1352 09       		.uleb128 0x9
 6142 1353 98050000 		.4byte	.LASF339
 6143 1357 18       		.byte	0x18
 6144 1358 91       		.byte	0x91
 6145 1359 40140000 		.4byte	0x1440
 6146 135d 44       		.byte	0x44
 6147 135e 09       		.uleb128 0x9
 6148 135f D9010000 		.4byte	.LASF340
 6149 1363 18       		.byte	0x18
 6150 1364 92       		.byte	0x92
 6151 1365 EF000000 		.4byte	0xef
 6152 1369 48       		.byte	0x48
 6153 136a 09       		.uleb128 0x9
ARM GAS  C:\Users\haske\AppData\Local\Temp\ccOQHbDo.s 			page 142


 6154 136b 2D260000 		.4byte	.LASF50
 6155 136f 18       		.byte	0x18
 6156 1370 95       		.byte	0x95
 6157 1371 26030000 		.4byte	0x326
 6158 1375 4C       		.byte	0x4c
 6159 1376 00       		.byte	0
 6160 1377 0D       		.uleb128 0xd
 6161 1378 04       		.byte	0x4
 6162 1379 C9110000 		.4byte	0x11c9
 6163 137d 1F       		.uleb128 0x1f
 6164 137e 92130000 		.4byte	0x1392
 6165 1382 10       		.uleb128 0x10
 6166 1383 92130000 		.4byte	0x1392
 6167 1387 10       		.uleb128 0x10
 6168 1388 CE0C0000 		.4byte	0xcce
 6169 138c 10       		.uleb128 0x10
 6170 138d 96080000 		.4byte	0x896
 6171 1391 00       		.byte	0
 6172 1392 0D       		.uleb128 0xd
 6173 1393 04       		.byte	0x4
 6174 1394 F9110000 		.4byte	0x11f9
 6175 1398 0D       		.uleb128 0xd
 6176 1399 04       		.byte	0x4
 6177 139a 7D130000 		.4byte	0x137d
 6178 139e 1F       		.uleb128 0x1f
 6179 139f AE130000 		.4byte	0x13ae
 6180 13a3 10       		.uleb128 0x10
 6181 13a4 92130000 		.4byte	0x1392
 6182 13a8 10       		.uleb128 0x10
 6183 13a9 D90C0000 		.4byte	0xcd9
 6184 13ad 00       		.byte	0
 6185 13ae 0D       		.uleb128 0xd
 6186 13af 04       		.byte	0x4
 6187 13b0 9E130000 		.4byte	0x139e
 6188 13b4 1F       		.uleb128 0x1f
 6189 13b5 DD130000 		.4byte	0x13dd
 6190 13b9 10       		.uleb128 0x10
 6191 13ba 92130000 		.4byte	0x1392
 6192 13be 10       		.uleb128 0x10
 6193 13bf 63070000 		.4byte	0x763
 6194 13c3 10       		.uleb128 0x10
 6195 13c4 01010000 		.4byte	0x101
 6196 13c8 10       		.uleb128 0x10
 6197 13c9 01010000 		.4byte	0x101
 6198 13cd 10       		.uleb128 0x10
 6199 13ce 01010000 		.4byte	0x101
 6200 13d2 10       		.uleb128 0x10
 6201 13d3 AB030000 		.4byte	0x3ab
 6202 13d7 10       		.uleb128 0x10
 6203 13d8 B6030000 		.4byte	0x3b6
 6204 13dc 00       		.byte	0
 6205 13dd 0D       		.uleb128 0xd
 6206 13de 04       		.byte	0x4
 6207 13df B4130000 		.4byte	0x13b4
 6208 13e3 1F       		.uleb128 0x1f
 6209 13e4 F8130000 		.4byte	0x13f8
 6210 13e8 10       		.uleb128 0x10
ARM GAS  C:\Users\haske\AppData\Local\Temp\ccOQHbDo.s 			page 143


 6211 13e9 92130000 		.4byte	0x1392
 6212 13ed 10       		.uleb128 0x10
 6213 13ee 63070000 		.4byte	0x763
 6214 13f2 10       		.uleb128 0x10
 6215 13f3 E4000000 		.4byte	0xe4
 6216 13f7 00       		.byte	0
 6217 13f8 0D       		.uleb128 0xd
 6218 13f9 04       		.byte	0x4
 6219 13fa E3130000 		.4byte	0x13e3
 6220 13fe 1F       		.uleb128 0x1f
 6221 13ff 13140000 		.4byte	0x1413
 6222 1403 10       		.uleb128 0x10
 6223 1404 92130000 		.4byte	0x1392
 6224 1408 10       		.uleb128 0x10
 6225 1409 E4000000 		.4byte	0xe4
 6226 140d 10       		.uleb128 0x10
 6227 140e E4000000 		.4byte	0xe4
 6228 1412 00       		.byte	0
 6229 1413 0D       		.uleb128 0xd
 6230 1414 04       		.byte	0x4
 6231 1415 FE130000 		.4byte	0x13fe
 6232 1419 1F       		.uleb128 0x1f
 6233 141a 24140000 		.4byte	0x1424
 6234 141e 10       		.uleb128 0x10
 6235 141f 92130000 		.4byte	0x1392
 6236 1423 00       		.byte	0
 6237 1424 0D       		.uleb128 0xd
 6238 1425 04       		.byte	0x4
 6239 1426 19140000 		.4byte	0x1419
 6240 142a 0D       		.uleb128 0xd
 6241 142b 04       		.byte	0x4
 6242 142c 73100000 		.4byte	0x1073
 6243 1430 1F       		.uleb128 0x1f
 6244 1431 40140000 		.4byte	0x1440
 6245 1435 10       		.uleb128 0x10
 6246 1436 92130000 		.4byte	0x1392
 6247 143a 10       		.uleb128 0x10
 6248 143b 2A140000 		.4byte	0x142a
 6249 143f 00       		.byte	0
 6250 1440 0D       		.uleb128 0xd
 6251 1441 04       		.byte	0x4
 6252 1442 30140000 		.4byte	0x1430
 6253 1446 21       		.uleb128 0x21
 6254 1447 8A180000 		.4byte	.LASF341
 6255 144b 5C01     		.2byte	0x15c
 6256 144d 18       		.byte	0x18
 6257 144e 9E       		.byte	0x9e
 6258 144f 5D150000 		.4byte	0x155d
 6259 1453 09       		.uleb128 0x9
 6260 1454 BD200000 		.4byte	.LASF342
 6261 1458 18       		.byte	0x18
 6262 1459 A0       		.byte	0xa0
 6263 145a 92130000 		.4byte	0x1392
 6264 145e 00       		.byte	0
 6265 145f 09       		.uleb128 0x9
 6266 1460 CB050000 		.4byte	.LASF343
 6267 1464 18       		.byte	0x18
ARM GAS  C:\Users\haske\AppData\Local\Temp\ccOQHbDo.s 			page 144


 6268 1465 A3       		.byte	0xa3
 6269 1466 5D150000 		.4byte	0x155d
 6270 146a 04       		.byte	0x4
 6271 146b 09       		.uleb128 0x9
 6272 146c 2F120000 		.4byte	.LASF344
 6273 1470 18       		.byte	0x18
 6274 1471 A6       		.byte	0xa6
 6275 1472 E8150000 		.4byte	0x15e8
 6276 1476 08       		.byte	0x8
 6277 1477 09       		.uleb128 0x9
 6278 1478 96040000 		.4byte	.LASF345
 6279 147c 18       		.byte	0x18
 6280 147d A9       		.byte	0xa9
 6281 147e EE150000 		.4byte	0x15ee
 6282 1482 0C       		.byte	0xc
 6283 1483 09       		.uleb128 0x9
 6284 1484 EE000000 		.4byte	.LASF346
 6285 1488 18       		.byte	0x18
 6286 1489 AA       		.byte	0xaa
 6287 148a C9070000 		.4byte	0x7c9
 6288 148e 10       		.byte	0x10
 6289 148f 09       		.uleb128 0x9
 6290 1490 05210000 		.4byte	.LASF347
 6291 1494 18       		.byte	0x18
 6292 1495 AB       		.byte	0xab
 6293 1496 C9070000 		.4byte	0x7c9
 6294 149a 14       		.byte	0x14
 6295 149b 09       		.uleb128 0x9
 6296 149c 97060000 		.4byte	.LASF348
 6297 14a0 18       		.byte	0x18
 6298 14a1 AC       		.byte	0xac
 6299 14a2 C9070000 		.4byte	0x7c9
 6300 14a6 18       		.byte	0x18
 6301 14a7 09       		.uleb128 0x9
 6302 14a8 A0080000 		.4byte	.LASF349
 6303 14ac 18       		.byte	0x18
 6304 14ad AD       		.byte	0xad
 6305 14ae C9070000 		.4byte	0x7c9
 6306 14b2 1C       		.byte	0x1c
 6307 14b3 09       		.uleb128 0x9
 6308 14b4 331D0000 		.4byte	.LASF350
 6309 14b8 18       		.byte	0x18
 6310 14b9 AE       		.byte	0xae
 6311 14ba C9070000 		.4byte	0x7c9
 6312 14be 20       		.byte	0x20
 6313 14bf 09       		.uleb128 0x9
 6314 14c0 F6000000 		.4byte	.LASF351
 6315 14c4 18       		.byte	0x18
 6316 14c5 AF       		.byte	0xaf
 6317 14c6 E4000000 		.4byte	0xe4
 6318 14ca 24       		.byte	0x24
 6319 14cb 0B       		.uleb128 0xb
 6320 14cc CA110000 		.4byte	.LASF352
 6321 14d0 18       		.byte	0x18
 6322 14d1 B0       		.byte	0xb0
 6323 14d2 B8000000 		.4byte	0xb8
 6324 14d6 01       		.byte	0x1
ARM GAS  C:\Users\haske\AppData\Local\Temp\ccOQHbDo.s 			page 145


 6325 14d7 01       		.byte	0x1
 6326 14d8 07       		.byte	0x7
 6327 14d9 28       		.byte	0x28
 6328 14da 0B       		.uleb128 0xb
 6329 14db AF220000 		.4byte	.LASF353
 6330 14df 18       		.byte	0x18
 6331 14e0 B2       		.byte	0xb2
 6332 14e1 B8000000 		.4byte	0xb8
 6333 14e5 01       		.byte	0x1
 6334 14e6 01       		.byte	0x1
 6335 14e7 06       		.byte	0x6
 6336 14e8 28       		.byte	0x28
 6337 14e9 0B       		.uleb128 0xb
 6338 14ea 4A190000 		.4byte	.LASF354
 6339 14ee 18       		.byte	0x18
 6340 14ef B4       		.byte	0xb4
 6341 14f0 B8000000 		.4byte	0xb8
 6342 14f4 01       		.byte	0x1
 6343 14f5 01       		.byte	0x1
 6344 14f6 05       		.byte	0x5
 6345 14f7 28       		.byte	0x28
 6346 14f8 09       		.uleb128 0x9
 6347 14f9 C4050000 		.4byte	.LASF197
 6348 14fd 18       		.byte	0x18
 6349 14fe B6       		.byte	0xb6
 6350 14ff B6030000 		.4byte	0x3b6
 6351 1503 29       		.byte	0x29
 6352 1504 09       		.uleb128 0x9
 6353 1505 AB010000 		.4byte	.LASF198
 6354 1509 18       		.byte	0x18
 6355 150a B7       		.byte	0xb7
 6356 150b AB030000 		.4byte	0x3ab
 6357 150f 2A       		.byte	0x2a
 6358 1510 09       		.uleb128 0x9
 6359 1511 C7220000 		.4byte	.LASF355
 6360 1515 18       		.byte	0x18
 6361 1516 B8       		.byte	0xb8
 6362 1517 1F030000 		.4byte	0x31f
 6363 151b 2C       		.byte	0x2c
 6364 151c 09       		.uleb128 0x9
 6365 151d E7180000 		.4byte	.LASF356
 6366 1521 18       		.byte	0x18
 6367 1522 BB       		.byte	0xbb
 6368 1523 F4150000 		.4byte	0x15f4
 6369 1527 30       		.byte	0x30
 6370 1528 22       		.uleb128 0x22
 6371 1529 66060000 		.4byte	.LASF357
 6372 152d 18       		.byte	0x18
 6373 152e BC       		.byte	0xbc
 6374 152f 04160000 		.4byte	0x1604
 6375 1533 3001     		.2byte	0x130
 6376 1535 22       		.uleb128 0x22
 6377 1536 7A210000 		.4byte	.LASF358
 6378 153a 18       		.byte	0x18
 6379 153b BD       		.byte	0xbd
 6380 153c CE000000 		.4byte	0xce
 6381 1540 5001     		.2byte	0x150
ARM GAS  C:\Users\haske\AppData\Local\Temp\ccOQHbDo.s 			page 146


 6382 1542 22       		.uleb128 0x22
 6383 1543 6B0F0000 		.4byte	.LASF359
 6384 1547 18       		.byte	0x18
 6385 1548 BE       		.byte	0xbe
 6386 1549 D9000000 		.4byte	0xd9
 6387 154d 5401     		.2byte	0x154
 6388 154f 22       		.uleb128 0x22
 6389 1550 4B050000 		.4byte	.LASF360
 6390 1554 18       		.byte	0x18
 6391 1555 C1       		.byte	0xc1
 6392 1556 E4000000 		.4byte	0xe4
 6393 155a 5801     		.2byte	0x158
 6394 155c 00       		.byte	0
 6395 155d 0D       		.uleb128 0xd
 6396 155e 04       		.byte	0x4
 6397 155f 41110000 		.4byte	0x1141
 6398 1563 0C       		.uleb128 0xc
 6399 1564 C4200000 		.4byte	.LASF361
 6400 1568 24       		.byte	0x24
 6401 1569 19       		.byte	0x19
 6402 156a 1F       		.byte	0x1f
 6403 156b E8150000 		.4byte	0x15e8
 6404 156f 09       		.uleb128 0x9
 6405 1570 12250000 		.4byte	.LASF362
 6406 1574 19       		.byte	0x19
 6407 1575 20       		.byte	0x20
 6408 1576 1A200000 		.4byte	0x201a
 6409 157a 00       		.byte	0
 6410 157b 09       		.uleb128 0x9
 6411 157c 760F0000 		.4byte	.LASF183
 6412 1580 19       		.byte	0x19
 6413 1581 21       		.byte	0x21
 6414 1582 E8150000 		.4byte	0x15e8
 6415 1586 04       		.byte	0x4
 6416 1587 09       		.uleb128 0x9
 6417 1588 2D260000 		.4byte	.LASF50
 6418 158c 19       		.byte	0x19
 6419 158d 22       		.byte	0x22
 6420 158e 26030000 		.4byte	0x326
 6421 1592 08       		.byte	0x8
 6422 1593 09       		.uleb128 0x9
 6423 1594 11180000 		.4byte	.LASF363
 6424 1598 19       		.byte	0x19
 6425 1599 23       		.byte	0x23
 6426 159a AA170000 		.4byte	0x17aa
 6427 159e 0C       		.byte	0xc
 6428 159f 09       		.uleb128 0x9
 6429 15a0 8B010000 		.4byte	.LASF364
 6430 15a4 19       		.byte	0x19
 6431 15a5 24       		.byte	0x24
 6432 15a6 AB030000 		.4byte	0x3ab
 6433 15aa 10       		.byte	0x10
 6434 15ab 09       		.uleb128 0x9
 6435 15ac 57020000 		.4byte	.LASF365
 6436 15b0 19       		.byte	0x19
 6437 15b1 25       		.byte	0x25
 6438 15b2 AB030000 		.4byte	0x3ab
ARM GAS  C:\Users\haske\AppData\Local\Temp\ccOQHbDo.s 			page 147


 6439 15b6 12       		.byte	0x12
 6440 15b7 09       		.uleb128 0x9
 6441 15b8 760E0000 		.4byte	.LASF366
 6442 15bc 19       		.byte	0x19
 6443 15bd 26       		.byte	0x26
 6444 15be BD0A0000 		.4byte	0xabd
 6445 15c2 14       		.byte	0x14
 6446 15c3 09       		.uleb128 0x9
 6447 15c4 72260000 		.4byte	.LASF367
 6448 15c8 19       		.byte	0x19
 6449 15c9 27       		.byte	0x27
 6450 15ca BD0A0000 		.4byte	0xabd
 6451 15ce 18       		.byte	0x18
 6452 15cf 09       		.uleb128 0x9
 6453 15d0 FC1A0000 		.4byte	.LASF368
 6454 15d4 19       		.byte	0x19
 6455 15d5 28       		.byte	0x28
 6456 15d6 BD0A0000 		.4byte	0xabd
 6457 15da 1C       		.byte	0x1c
 6458 15db 09       		.uleb128 0x9
 6459 15dc 5E0A0000 		.4byte	.LASF187
 6460 15e0 19       		.byte	0x19
 6461 15e1 29       		.byte	0x29
 6462 15e2 E4000000 		.4byte	0xe4
 6463 15e6 20       		.byte	0x20
 6464 15e7 00       		.byte	0
 6465 15e8 0D       		.uleb128 0xd
 6466 15e9 04       		.byte	0x4
 6467 15ea 63150000 		.4byte	0x1563
 6468 15ee 0D       		.uleb128 0xd
 6469 15ef 04       		.byte	0x4
 6470 15f0 C9070000 		.4byte	0x7c9
 6471 15f4 16       		.uleb128 0x16
 6472 15f5 69010000 		.4byte	0x169
 6473 15f9 04160000 		.4byte	0x1604
 6474 15fd 17       		.uleb128 0x17
 6475 15fe 3E030000 		.4byte	0x33e
 6476 1602 1F       		.byte	0x1f
 6477 1603 00       		.byte	0
 6478 1604 16       		.uleb128 0x16
 6479 1605 B8000000 		.4byte	0xb8
 6480 1609 14160000 		.4byte	0x1614
 6481 160d 17       		.uleb128 0x17
 6482 160e 3E030000 		.4byte	0x33e
 6483 1612 1F       		.byte	0x1f
 6484 1613 00       		.byte	0
 6485 1614 02       		.uleb128 0x2
 6486 1615 93000000 		.4byte	.LASF369
 6487 1619 18       		.byte	0x18
 6488 161a C2       		.byte	0xc2
 6489 161b 46140000 		.4byte	0x1446
 6490 161f 07       		.uleb128 0x7
 6491 1620 01       		.byte	0x1
 6492 1621 42000000 		.4byte	0x42
 6493 1625 1A       		.byte	0x1a
 6494 1626 3E       		.byte	0x3e
 6495 1627 4A160000 		.4byte	0x164a
ARM GAS  C:\Users\haske\AppData\Local\Temp\ccOQHbDo.s 			page 148


 6496 162b 08       		.uleb128 0x8
 6497 162c E8250000 		.4byte	.LASF370
 6498 1630 00       		.byte	0
 6499 1631 08       		.uleb128 0x8
 6500 1632 6C1B0000 		.4byte	.LASF371
 6501 1636 01       		.byte	0x1
 6502 1637 08       		.uleb128 0x8
 6503 1638 D21E0000 		.4byte	.LASF372
 6504 163c 02       		.byte	0x2
 6505 163d 08       		.uleb128 0x8
 6506 163e 2E150000 		.4byte	.LASF373
 6507 1642 03       		.byte	0x3
 6508 1643 08       		.uleb128 0x8
 6509 1644 67000000 		.4byte	.LASF374
 6510 1648 04       		.byte	0x4
 6511 1649 00       		.byte	0
 6512 164a 02       		.uleb128 0x2
 6513 164b F5140000 		.4byte	.LASF375
 6514 164f 1A       		.byte	0x1a
 6515 1650 44       		.byte	0x44
 6516 1651 1F160000 		.4byte	0x161f
 6517 1655 07       		.uleb128 0x7
 6518 1656 01       		.byte	0x1
 6519 1657 42000000 		.4byte	0x42
 6520 165b 1A       		.byte	0x1a
 6521 165c 47       		.byte	0x47
 6522 165d 6E160000 		.4byte	0x166e
 6523 1661 08       		.uleb128 0x8
 6524 1662 3D090000 		.4byte	.LASF376
 6525 1666 00       		.byte	0
 6526 1667 08       		.uleb128 0x8
 6527 1668 87140000 		.4byte	.LASF377
 6528 166c 01       		.byte	0x1
 6529 166d 00       		.byte	0
 6530 166e 02       		.uleb128 0x2
 6531 166f FC0D0000 		.4byte	.LASF378
 6532 1673 1A       		.byte	0x1a
 6533 1674 4A       		.byte	0x4a
 6534 1675 55160000 		.4byte	0x1655
 6535 1679 05       		.uleb128 0x5
 6536 167a 10       		.byte	0x10
 6537 167b 1A       		.byte	0x1a
 6538 167c 4D       		.byte	0x4d
 6539 167d CA160000 		.4byte	0x16ca
 6540 1681 09       		.uleb128 0x9
 6541 1682 EB030000 		.4byte	.LASF379
 6542 1686 1A       		.byte	0x1a
 6543 1687 4E       		.byte	0x4e
 6544 1688 29010000 		.4byte	0x129
 6545 168c 00       		.byte	0
 6546 168d 06       		.uleb128 0x6
 6547 168e 6B657900 		.ascii	"key\000"
 6548 1692 1A       		.byte	0x1a
 6549 1693 4F       		.byte	0x4f
 6550 1694 E4000000 		.4byte	0xe4
 6551 1698 04       		.byte	0x4
 6552 1699 09       		.uleb128 0x9
ARM GAS  C:\Users\haske\AppData\Local\Temp\ccOQHbDo.s 			page 149


 6553 169a C60A0000 		.4byte	.LASF380
 6554 169e 1A       		.byte	0x1a
 6555 169f 50       		.byte	0x50
 6556 16a0 E4000000 		.4byte	0xe4
 6557 16a4 08       		.byte	0x8
 6558 16a5 09       		.uleb128 0x9
 6559 16a6 43180000 		.4byte	.LASF381
 6560 16aa 1A       		.byte	0x1a
 6561 16ab 51       		.byte	0x51
 6562 16ac C3000000 		.4byte	0xc3
 6563 16b0 0C       		.byte	0xc
 6564 16b1 09       		.uleb128 0x9
 6565 16b2 41020000 		.4byte	.LASF188
 6566 16b6 1A       		.byte	0x1a
 6567 16b7 53       		.byte	0x53
 6568 16b8 6E160000 		.4byte	0x166e
 6569 16bc 0E       		.byte	0xe
 6570 16bd 09       		.uleb128 0x9
 6571 16be BF100000 		.4byte	.LASF382
 6572 16c2 1A       		.byte	0x1a
 6573 16c3 54       		.byte	0x54
 6574 16c4 E7020000 		.4byte	0x2e7
 6575 16c8 0F       		.byte	0xf
 6576 16c9 00       		.byte	0
 6577 16ca 02       		.uleb128 0x2
 6578 16cb F2230000 		.4byte	.LASF383
 6579 16cf 1A       		.byte	0x1a
 6580 16d0 55       		.byte	0x55
 6581 16d1 79160000 		.4byte	0x1679
 6582 16d5 0C       		.uleb128 0xc
 6583 16d6 A7030000 		.4byte	.LASF384
 6584 16da 20       		.byte	0x20
 6585 16db 1A       		.byte	0x1a
 6586 16dc 58       		.byte	0x58
 6587 16dd 72170000 		.4byte	0x1772
 6588 16e1 09       		.uleb128 0x9
 6589 16e2 0E030000 		.4byte	.LASF385
 6590 16e6 1A       		.byte	0x1a
 6591 16e7 5B       		.byte	0x5b
 6592 16e8 4A160000 		.4byte	0x164a
 6593 16ec 00       		.byte	0
 6594 16ed 09       		.uleb128 0x9
 6595 16ee C9060000 		.4byte	.LASF386
 6596 16f2 1A       		.byte	0x1a
 6597 16f3 5E       		.byte	0x5e
 6598 16f4 8E170000 		.4byte	0x178e
 6599 16f8 04       		.byte	0x4
 6600 16f9 09       		.uleb128 0x9
 6601 16fa 061C0000 		.4byte	.LASF387
 6602 16fe 1A       		.byte	0x1a
 6603 16ff 62       		.byte	0x62
 6604 1700 A4170000 		.4byte	0x17a4
 6605 1704 08       		.byte	0x8
 6606 1705 09       		.uleb128 0x9
 6607 1706 2D260000 		.4byte	.LASF50
 6608 170a 1A       		.byte	0x1a
 6609 170b 65       		.byte	0x65
ARM GAS  C:\Users\haske\AppData\Local\Temp\ccOQHbDo.s 			page 150


 6610 170c 26030000 		.4byte	0x326
 6611 1710 0C       		.byte	0xc
 6612 1711 09       		.uleb128 0x9
 6613 1712 11180000 		.4byte	.LASF363
 6614 1716 1A       		.byte	0x1a
 6615 1717 69       		.byte	0x69
 6616 1718 AA170000 		.4byte	0x17aa
 6617 171c 10       		.byte	0x10
 6618 171d 09       		.uleb128 0x9
 6619 171e D71A0000 		.4byte	.LASF388
 6620 1722 1A       		.byte	0x1a
 6621 1723 6C       		.byte	0x6c
 6622 1724 5D150000 		.4byte	0x155d
 6623 1728 14       		.byte	0x14
 6624 1729 09       		.uleb128 0x9
 6625 172a 9C200000 		.4byte	.LASF389
 6626 172e 1A       		.byte	0x1a
 6627 172f 6F       		.byte	0x6f
 6628 1730 B8000000 		.4byte	0xb8
 6629 1734 18       		.byte	0x18
 6630 1735 09       		.uleb128 0x9
 6631 1736 1B1C0000 		.4byte	.LASF390
 6632 173a 1A       		.byte	0x1a
 6633 173b 72       		.byte	0x72
 6634 173c B8000000 		.4byte	0xb8
 6635 1740 19       		.byte	0x19
 6636 1741 09       		.uleb128 0x9
 6637 1742 A1250000 		.4byte	.LASF391
 6638 1746 1A       		.byte	0x1a
 6639 1747 75       		.byte	0x75
 6640 1748 B8000000 		.4byte	0xb8
 6641 174c 1A       		.byte	0x1a
 6642 174d 09       		.uleb128 0x9
 6643 174e 96270000 		.4byte	.LASF392
 6644 1752 1A       		.byte	0x1a
 6645 1753 78       		.byte	0x78
 6646 1754 B8000000 		.4byte	0xb8
 6647 1758 1B       		.byte	0x1b
 6648 1759 09       		.uleb128 0x9
 6649 175a 0C1D0000 		.4byte	.LASF393
 6650 175e 1A       		.byte	0x1a
 6651 175f 7B       		.byte	0x7b
 6652 1760 CE000000 		.4byte	0xce
 6653 1764 1C       		.byte	0x1c
 6654 1765 09       		.uleb128 0x9
 6655 1766 60230000 		.4byte	.LASF394
 6656 176a 1A       		.byte	0x1a
 6657 176b 7E       		.byte	0x7e
 6658 176c CE000000 		.4byte	0xce
 6659 1770 1E       		.byte	0x1e
 6660 1771 00       		.byte	0
 6661 1772 1F       		.uleb128 0x1f
 6662 1773 82170000 		.4byte	0x1782
 6663 1777 10       		.uleb128 0x10
 6664 1778 82170000 		.4byte	0x1782
 6665 177c 10       		.uleb128 0x10
 6666 177d 88170000 		.4byte	0x1788
ARM GAS  C:\Users\haske\AppData\Local\Temp\ccOQHbDo.s 			page 151


 6667 1781 00       		.byte	0
 6668 1782 0D       		.uleb128 0xd
 6669 1783 04       		.byte	0x4
 6670 1784 D5160000 		.4byte	0x16d5
 6671 1788 0D       		.uleb128 0xd
 6672 1789 04       		.byte	0x4
 6673 178a CA160000 		.4byte	0x16ca
 6674 178e 0D       		.uleb128 0xd
 6675 178f 04       		.byte	0x4
 6676 1790 72170000 		.4byte	0x1772
 6677 1794 1F       		.uleb128 0x1f
 6678 1795 A4170000 		.4byte	0x17a4
 6679 1799 10       		.uleb128 0x10
 6680 179a 82170000 		.4byte	0x1782
 6681 179e 10       		.uleb128 0x10
 6682 179f B8000000 		.4byte	0xb8
 6683 17a3 00       		.byte	0
 6684 17a4 0D       		.uleb128 0xd
 6685 17a5 04       		.byte	0x4
 6686 17a6 94170000 		.4byte	0x1794
 6687 17aa 0D       		.uleb128 0xd
 6688 17ab 04       		.byte	0x4
 6689 17ac 46140000 		.4byte	0x1446
 6690 17b0 05       		.uleb128 0x5
 6691 17b1 40       		.byte	0x40
 6692 17b2 1A       		.byte	0x1a
 6693 17b3 8D       		.byte	0x8d
 6694 17b4 8E180000 		.4byte	0x188e
 6695 17b8 09       		.uleb128 0x9
 6696 17b9 9E210000 		.4byte	.LASF395
 6697 17bd 1A       		.byte	0x1a
 6698 17be 8F       		.byte	0x8f
 6699 17bf 29010000 		.4byte	0x129
 6700 17c3 00       		.byte	0
 6701 17c4 09       		.uleb128 0x9
 6702 17c5 05180000 		.4byte	.LASF396
 6703 17c9 1A       		.byte	0x1a
 6704 17ca 90       		.byte	0x90
 6705 17cb 29010000 		.4byte	0x129
 6706 17cf 04       		.byte	0x4
 6707 17d0 09       		.uleb128 0x9
 6708 17d1 7A160000 		.4byte	.LASF397
 6709 17d5 1A       		.byte	0x1a
 6710 17d6 91       		.byte	0x91
 6711 17d7 29010000 		.4byte	0x129
 6712 17db 08       		.byte	0x8
 6713 17dc 09       		.uleb128 0x9
 6714 17dd E6260000 		.4byte	.LASF398
 6715 17e1 1A       		.byte	0x1a
 6716 17e2 92       		.byte	0x92
 6717 17e3 29010000 		.4byte	0x129
 6718 17e7 0C       		.byte	0xc
 6719 17e8 09       		.uleb128 0x9
 6720 17e9 97280000 		.4byte	.LASF399
 6721 17ed 1A       		.byte	0x1a
 6722 17ee 93       		.byte	0x93
 6723 17ef 29010000 		.4byte	0x129
ARM GAS  C:\Users\haske\AppData\Local\Temp\ccOQHbDo.s 			page 152


 6724 17f3 10       		.byte	0x10
 6725 17f4 09       		.uleb128 0x9
 6726 17f5 38180000 		.4byte	.LASF400
 6727 17f9 1A       		.byte	0x1a
 6728 17fa 94       		.byte	0x94
 6729 17fb 29010000 		.4byte	0x129
 6730 17ff 14       		.byte	0x14
 6731 1800 09       		.uleb128 0x9
 6732 1801 A31C0000 		.4byte	.LASF401
 6733 1805 1A       		.byte	0x1a
 6734 1806 95       		.byte	0x95
 6735 1807 29010000 		.4byte	0x129
 6736 180b 18       		.byte	0x18
 6737 180c 09       		.uleb128 0x9
 6738 180d 901E0000 		.4byte	.LASF402
 6739 1811 1A       		.byte	0x1a
 6740 1812 96       		.byte	0x96
 6741 1813 29010000 		.4byte	0x129
 6742 1817 1C       		.byte	0x1c
 6743 1818 09       		.uleb128 0x9
 6744 1819 92160000 		.4byte	.LASF403
 6745 181d 1A       		.byte	0x1a
 6746 181e 97       		.byte	0x97
 6747 181f C9070000 		.4byte	0x7c9
 6748 1823 20       		.byte	0x20
 6749 1824 09       		.uleb128 0x9
 6750 1825 D6140000 		.4byte	.LASF404
 6751 1829 1A       		.byte	0x1a
 6752 182a 98       		.byte	0x98
 6753 182b C9070000 		.4byte	0x7c9
 6754 182f 24       		.byte	0x24
 6755 1830 09       		.uleb128 0x9
 6756 1831 EF040000 		.4byte	.LASF405
 6757 1835 1A       		.byte	0x1a
 6758 1836 99       		.byte	0x99
 6759 1837 C9070000 		.4byte	0x7c9
 6760 183b 28       		.byte	0x28
 6761 183c 09       		.uleb128 0x9
 6762 183d 0A070000 		.4byte	.LASF406
 6763 1841 1A       		.byte	0x1a
 6764 1842 9A       		.byte	0x9a
 6765 1843 C9070000 		.4byte	0x7c9
 6766 1847 2C       		.byte	0x2c
 6767 1848 09       		.uleb128 0x9
 6768 1849 A80B0000 		.4byte	.LASF407
 6769 184d 1A       		.byte	0x1a
 6770 184e 9B       		.byte	0x9b
 6771 184f 69010000 		.4byte	0x169
 6772 1853 30       		.byte	0x30
 6773 1854 09       		.uleb128 0x9
 6774 1855 F2060000 		.4byte	.LASF408
 6775 1859 1A       		.byte	0x1a
 6776 185a 9D       		.byte	0x9d
 6777 185b 29010000 		.4byte	0x129
 6778 185f 38       		.byte	0x38
 6779 1860 0B       		.uleb128 0xb
 6780 1861 83050000 		.4byte	.LASF409
ARM GAS  C:\Users\haske\AppData\Local\Temp\ccOQHbDo.s 			page 153


 6781 1865 1A       		.byte	0x1a
 6782 1866 9F       		.byte	0x9f
 6783 1867 B1010000 		.4byte	0x1b1
 6784 186b 01       		.byte	0x1
 6785 186c 04       		.byte	0x4
 6786 186d 04       		.byte	0x4
 6787 186e 3C       		.byte	0x3c
 6788 186f 0B       		.uleb128 0xb
 6789 1870 2E200000 		.4byte	.LASF410
 6790 1874 1A       		.byte	0x1a
 6791 1875 A0       		.byte	0xa0
 6792 1876 B1010000 		.4byte	0x1b1
 6793 187a 01       		.byte	0x1
 6794 187b 04       		.byte	0x4
 6795 187c 00       		.byte	0
 6796 187d 3C       		.byte	0x3c
 6797 187e 0B       		.uleb128 0xb
 6798 187f 46200000 		.4byte	.LASF411
 6799 1883 1A       		.byte	0x1a
 6800 1884 A1       		.byte	0xa1
 6801 1885 B8000000 		.4byte	0xb8
 6802 1889 01       		.byte	0x1
 6803 188a 01       		.byte	0x1
 6804 188b 07       		.byte	0x7
 6805 188c 3D       		.byte	0x3d
 6806 188d 00       		.byte	0
 6807 188e 05       		.uleb128 0x5
 6808 188f 08       		.byte	0x8
 6809 1890 1A       		.byte	0x1a
 6810 1891 A3       		.byte	0xa3
 6811 1892 AF180000 		.4byte	0x18af
 6812 1896 09       		.uleb128 0x9
 6813 1897 A8050000 		.4byte	.LASF412
 6814 189b 1A       		.byte	0x1a
 6815 189c A5       		.byte	0xa5
 6816 189d 6E160000 		.4byte	0x166e
 6817 18a1 00       		.byte	0
 6818 18a2 09       		.uleb128 0x9
 6819 18a3 0E200000 		.4byte	.LASF413
 6820 18a7 1A       		.byte	0x1a
 6821 18a8 A6       		.byte	0xa6
 6822 18a9 E4000000 		.4byte	0xe4
 6823 18ad 04       		.byte	0x4
 6824 18ae 00       		.byte	0
 6825 18af 13       		.uleb128 0x13
 6826 18b0 40       		.byte	0x40
 6827 18b1 1A       		.byte	0x1a
 6828 18b2 8C       		.byte	0x8c
 6829 18b3 CE180000 		.4byte	0x18ce
 6830 18b7 15       		.uleb128 0x15
 6831 18b8 09100000 		.4byte	.LASF414
 6832 18bc 1A       		.byte	0x1a
 6833 18bd A2       		.byte	0xa2
 6834 18be B0170000 		.4byte	0x17b0
 6835 18c2 15       		.uleb128 0x15
 6836 18c3 EF210000 		.4byte	.LASF415
 6837 18c7 1A       		.byte	0x1a
ARM GAS  C:\Users\haske\AppData\Local\Temp\ccOQHbDo.s 			page 154


 6838 18c8 A7       		.byte	0xa7
 6839 18c9 8E180000 		.4byte	0x188e
 6840 18cd 00       		.byte	0
 6841 18ce 0C       		.uleb128 0xc
 6842 18cf BE1C0000 		.4byte	.LASF416
 6843 18d3 4C       		.byte	0x4c
 6844 18d4 1A       		.byte	0x1a
 6845 18d5 84       		.byte	0x84
 6846 18d6 47190000 		.4byte	0x1947
 6847 18da 09       		.uleb128 0x9
 6848 18db 41020000 		.4byte	.LASF188
 6849 18df 1A       		.byte	0x1a
 6850 18e0 85       		.byte	0x85
 6851 18e1 6E160000 		.4byte	0x166e
 6852 18e5 00       		.byte	0
 6853 18e6 0B       		.uleb128 0xb
 6854 18e7 13270000 		.4byte	.LASF417
 6855 18eb 1A       		.byte	0x1a
 6856 18ec 87       		.byte	0x87
 6857 18ed B8000000 		.4byte	0xb8
 6858 18f1 01       		.byte	0x1
 6859 18f2 01       		.byte	0x1
 6860 18f3 07       		.byte	0x7
 6861 18f4 01       		.byte	0x1
 6862 18f5 0B       		.uleb128 0xb
 6863 18f6 201E0000 		.4byte	.LASF418
 6864 18fa 1A       		.byte	0x1a
 6865 18fb 88       		.byte	0x88
 6866 18fc B8000000 		.4byte	0xb8
 6867 1900 01       		.byte	0x1
 6868 1901 01       		.byte	0x1
 6869 1902 06       		.byte	0x6
 6870 1903 01       		.byte	0x1
 6871 1904 0B       		.uleb128 0xb
 6872 1905 5D250000 		.4byte	.LASF419
 6873 1909 1A       		.byte	0x1a
 6874 190a 89       		.byte	0x89
 6875 190b B8000000 		.4byte	0xb8
 6876 190f 01       		.byte	0x1
 6877 1910 01       		.byte	0x1
 6878 1911 05       		.byte	0x5
 6879 1912 01       		.byte	0x1
 6880 1913 0B       		.uleb128 0xb
 6881 1914 E20F0000 		.4byte	.LASF420
 6882 1918 1A       		.byte	0x1a
 6883 1919 8A       		.byte	0x8a
 6884 191a B8000000 		.4byte	0xb8
 6885 191e 01       		.byte	0x1
 6886 191f 01       		.byte	0x1
 6887 1920 04       		.byte	0x4
 6888 1921 01       		.byte	0x1
 6889 1922 09       		.uleb128 0x9
 6890 1923 AA080000 		.4byte	.LASF421
 6891 1927 1A       		.byte	0x1a
 6892 1928 A8       		.byte	0xa8
 6893 1929 AF180000 		.4byte	0x18af
 6894 192d 04       		.byte	0x4
ARM GAS  C:\Users\haske\AppData\Local\Temp\ccOQHbDo.s 			page 155


 6895 192e 09       		.uleb128 0x9
 6896 192f 821B0000 		.4byte	.LASF422
 6897 1933 1A       		.byte	0x1a
 6898 1934 AA       		.byte	0xaa
 6899 1935 E4000000 		.4byte	0xe4
 6900 1939 44       		.byte	0x44
 6901 193a 09       		.uleb128 0x9
 6902 193b 04190000 		.4byte	.LASF423
 6903 193f 1A       		.byte	0x1a
 6904 1940 AB       		.byte	0xab
 6905 1941 E4000000 		.4byte	0xe4
 6906 1945 48       		.byte	0x48
 6907 1946 00       		.byte	0
 6908 1947 02       		.uleb128 0x2
 6909 1948 BE1C0000 		.4byte	.LASF416
 6910 194c 1A       		.byte	0x1a
 6911 194d AC       		.byte	0xac
 6912 194e CE180000 		.4byte	0x18ce
 6913 1952 0C       		.uleb128 0xc
 6914 1953 22200000 		.4byte	.LASF424
 6915 1957 5C       		.byte	0x5c
 6916 1958 1A       		.byte	0x1a
 6917 1959 B0       		.byte	0xb0
 6918 195a 9B190000 		.4byte	0x199b
 6919 195e 09       		.uleb128 0x9
 6920 195f BD200000 		.4byte	.LASF342
 6921 1963 1A       		.byte	0x1a
 6922 1964 B1       		.byte	0xb1
 6923 1965 82170000 		.4byte	0x1782
 6924 1969 00       		.byte	0
 6925 196a 09       		.uleb128 0x9
 6926 196b 4B0C0000 		.4byte	.LASF425
 6927 196f 1A       		.byte	0x1a
 6928 1970 B2       		.byte	0xb2
 6929 1971 47190000 		.4byte	0x1947
 6930 1975 04       		.byte	0x4
 6931 1976 09       		.uleb128 0x9
 6932 1977 31280000 		.4byte	.LASF426
 6933 197b 1A       		.byte	0x1a
 6934 197c B3       		.byte	0xb3
 6935 197d C9070000 		.4byte	0x7c9
 6936 1981 50       		.byte	0x50
 6937 1982 09       		.uleb128 0x9
 6938 1983 65140000 		.4byte	.LASF427
 6939 1987 1A       		.byte	0x1a
 6940 1988 B4       		.byte	0xb4
 6941 1989 201A0000 		.4byte	0x1a20
 6942 198d 54       		.byte	0x54
 6943 198e 09       		.uleb128 0x9
 6944 198f B00F0000 		.4byte	.LASF428
 6945 1993 1A       		.byte	0x1a
 6946 1994 B5       		.byte	0xb5
 6947 1995 B40E0000 		.4byte	0xeb4
 6948 1999 58       		.byte	0x58
 6949 199a 00       		.byte	0
 6950 199b 0C       		.uleb128 0xc
 6951 199c 38280000 		.4byte	.LASF429
ARM GAS  C:\Users\haske\AppData\Local\Temp\ccOQHbDo.s 			page 156


 6952 19a0 20       		.byte	0x20
 6953 19a1 1B       		.byte	0x1b
 6954 19a2 3B       		.byte	0x3b
 6955 19a3 201A0000 		.4byte	0x1a20
 6956 19a7 09       		.uleb128 0x9
 6957 19a8 B3120000 		.4byte	.LASF430
 6958 19ac 1B       		.byte	0x1b
 6959 19ad 3C       		.byte	0x3c
 6960 19ae BC100000 		.4byte	0x10bc
 6961 19b2 00       		.byte	0
 6962 19b3 09       		.uleb128 0x9
 6963 19b4 9C280000 		.4byte	.LASF431
 6964 19b8 1B       		.byte	0x1b
 6965 19b9 3D       		.byte	0x3d
 6966 19ba EE150000 		.4byte	0x15ee
 6967 19be 0C       		.byte	0xc
 6968 19bf 09       		.uleb128 0x9
 6969 19c0 CE1A0000 		.4byte	.LASF432
 6970 19c4 1B       		.byte	0x1b
 6971 19c5 3F       		.byte	0x3f
 6972 19c6 DD1E0000 		.4byte	0x1edd
 6973 19ca 10       		.byte	0x10
 6974 19cb 09       		.uleb128 0x9
 6975 19cc 5E060000 		.4byte	.LASF433
 6976 19d0 1B       		.byte	0x1b
 6977 19d1 40       		.byte	0x40
 6978 19d2 F91E0000 		.4byte	0x1ef9
 6979 19d6 14       		.byte	0x14
 6980 19d7 09       		.uleb128 0x9
 6981 19d8 2D260000 		.4byte	.LASF50
 6982 19dc 1B       		.byte	0x1b
 6983 19dd 45       		.byte	0x45
 6984 19de 26030000 		.4byte	0x326
 6985 19e2 18       		.byte	0x18
 6986 19e3 0B       		.uleb128 0xb
 6987 19e4 84010000 		.4byte	.LASF434
 6988 19e8 1B       		.byte	0x1b
 6989 19e9 48       		.byte	0x48
 6990 19ea B8000000 		.4byte	0xb8
 6991 19ee 01       		.byte	0x1
 6992 19ef 01       		.byte	0x1
 6993 19f0 07       		.byte	0x7
 6994 19f1 1C       		.byte	0x1c
 6995 19f2 0B       		.uleb128 0xb
 6996 19f3 AB170000 		.4byte	.LASF435
 6997 19f7 1B       		.byte	0x1b
 6998 19f8 49       		.byte	0x49
 6999 19f9 B8000000 		.4byte	0xb8
 7000 19fd 01       		.byte	0x1
 7001 19fe 01       		.byte	0x1
 7002 19ff 06       		.byte	0x6
 7003 1a00 1C       		.byte	0x1c
 7004 1a01 0B       		.uleb128 0xb
 7005 1a02 F5260000 		.4byte	.LASF436
 7006 1a06 1B       		.byte	0x1b
 7007 1a07 4A       		.byte	0x4a
 7008 1a08 B8000000 		.4byte	0xb8
ARM GAS  C:\Users\haske\AppData\Local\Temp\ccOQHbDo.s 			page 157


 7009 1a0c 01       		.byte	0x1
 7010 1a0d 01       		.byte	0x1
 7011 1a0e 05       		.byte	0x5
 7012 1a0f 1C       		.byte	0x1c
 7013 1a10 0B       		.uleb128 0xb
 7014 1a11 E31D0000 		.4byte	.LASF437
 7015 1a15 1B       		.byte	0x1b
 7016 1a16 4C       		.byte	0x4c
 7017 1a17 B8000000 		.4byte	0xb8
 7018 1a1b 01       		.byte	0x1
 7019 1a1c 01       		.byte	0x1
 7020 1a1d 04       		.byte	0x4
 7021 1a1e 1C       		.byte	0x1c
 7022 1a1f 00       		.byte	0
 7023 1a20 0D       		.uleb128 0xd
 7024 1a21 04       		.byte	0x4
 7025 1a22 9B190000 		.4byte	0x199b
 7026 1a26 02       		.uleb128 0x2
 7027 1a27 A50F0000 		.4byte	.LASF438
 7028 1a2b 1A       		.byte	0x1a
 7029 1a2c B7       		.byte	0xb7
 7030 1a2d 52190000 		.4byte	0x1952
 7031 1a31 07       		.uleb128 0x7
 7032 1a32 02       		.byte	0x2
 7033 1a33 66000000 		.4byte	0x66
 7034 1a37 0E       		.byte	0xe
 7035 1a38 29       		.byte	0x29
 7036 1a39 971A0000 		.4byte	0x1a97
 7037 1a3d 08       		.uleb128 0x8
 7038 1a3e 14210000 		.4byte	.LASF439
 7039 1a42 00       		.byte	0
 7040 1a43 08       		.uleb128 0x8
 7041 1a44 59220000 		.4byte	.LASF440
 7042 1a48 01       		.byte	0x1
 7043 1a49 08       		.uleb128 0x8
 7044 1a4a 31270000 		.4byte	.LASF441
 7045 1a4e 02       		.byte	0x2
 7046 1a4f 08       		.uleb128 0x8
 7047 1a50 D6050000 		.4byte	.LASF442
 7048 1a54 04       		.byte	0x4
 7049 1a55 08       		.uleb128 0x8
 7050 1a56 F40C0000 		.4byte	.LASF443
 7051 1a5a 08       		.byte	0x8
 7052 1a5b 08       		.uleb128 0x8
 7053 1a5c B3050000 		.4byte	.LASF444
 7054 1a60 10       		.byte	0x10
 7055 1a61 08       		.uleb128 0x8
 7056 1a62 E21A0000 		.4byte	.LASF445
 7057 1a66 20       		.byte	0x20
 7058 1a67 08       		.uleb128 0x8
 7059 1a68 B40B0000 		.4byte	.LASF446
 7060 1a6c 40       		.byte	0x40
 7061 1a6d 08       		.uleb128 0x8
 7062 1a6e BA0E0000 		.4byte	.LASF447
 7063 1a72 80       		.byte	0x80
 7064 1a73 18       		.uleb128 0x18
 7065 1a74 AA230000 		.4byte	.LASF448
ARM GAS  C:\Users\haske\AppData\Local\Temp\ccOQHbDo.s 			page 158


 7066 1a78 0010     		.2byte	0x1000
 7067 1a7a 18       		.uleb128 0x18
 7068 1a7b BA230000 		.4byte	.LASF449
 7069 1a7f 0020     		.2byte	0x2000
 7070 1a81 18       		.uleb128 0x18
 7071 1a82 CA230000 		.4byte	.LASF450
 7072 1a86 0040     		.2byte	0x4000
 7073 1a88 18       		.uleb128 0x18
 7074 1a89 DA230000 		.4byte	.LASF451
 7075 1a8d 0080     		.2byte	0x8000
 7076 1a8f 18       		.uleb128 0x18
 7077 1a90 BC060000 		.4byte	.LASF452
 7078 1a94 FFFF     		.2byte	0xffff
 7079 1a96 00       		.byte	0
 7080 1a97 02       		.uleb128 0x2
 7081 1a98 FD050000 		.4byte	.LASF453
 7082 1a9c 0E       		.byte	0xe
 7083 1a9d 3C       		.byte	0x3c
 7084 1a9e CE000000 		.4byte	0xce
 7085 1aa2 07       		.uleb128 0x7
 7086 1aa3 04       		.byte	0x4
 7087 1aa4 A6000000 		.4byte	0xa6
 7088 1aa8 0E       		.byte	0xe
 7089 1aa9 59       		.byte	0x59
 7090 1aaa 8A1B0000 		.4byte	0x1b8a
 7091 1aae 08       		.uleb128 0x8
 7092 1aaf 8A130000 		.4byte	.LASF454
 7093 1ab3 01       		.byte	0x1
 7094 1ab4 08       		.uleb128 0x8
 7095 1ab5 50170000 		.4byte	.LASF455
 7096 1ab9 02       		.byte	0x2
 7097 1aba 08       		.uleb128 0x8
 7098 1abb 9F1D0000 		.4byte	.LASF456
 7099 1abf 04       		.byte	0x4
 7100 1ac0 08       		.uleb128 0x8
 7101 1ac1 67120000 		.4byte	.LASF457
 7102 1ac5 08       		.byte	0x8
 7103 1ac6 08       		.uleb128 0x8
 7104 1ac7 14050000 		.4byte	.LASF458
 7105 1acb 10       		.byte	0x10
 7106 1acc 08       		.uleb128 0x8
 7107 1acd DC160000 		.4byte	.LASF459
 7108 1ad1 20       		.byte	0x20
 7109 1ad2 08       		.uleb128 0x8
 7110 1ad3 83110000 		.4byte	.LASF460
 7111 1ad7 40       		.byte	0x40
 7112 1ad8 08       		.uleb128 0x8
 7113 1ad9 C7270000 		.4byte	.LASF461
 7114 1add 80       		.byte	0x80
 7115 1ade 18       		.uleb128 0x18
 7116 1adf F5240000 		.4byte	.LASF462
 7117 1ae3 0001     		.2byte	0x100
 7118 1ae5 18       		.uleb128 0x18
 7119 1ae6 39100000 		.4byte	.LASF463
 7120 1aea 0002     		.2byte	0x200
 7121 1aec 18       		.uleb128 0x18
 7122 1aed 20080000 		.4byte	.LASF464
ARM GAS  C:\Users\haske\AppData\Local\Temp\ccOQHbDo.s 			page 159


 7123 1af1 0003     		.2byte	0x300
 7124 1af3 18       		.uleb128 0x18
 7125 1af4 19190000 		.4byte	.LASF465
 7126 1af8 0004     		.2byte	0x400
 7127 1afa 18       		.uleb128 0x18
 7128 1afb 2D060000 		.4byte	.LASF466
 7129 1aff 0008     		.2byte	0x800
 7130 1b01 18       		.uleb128 0x18
 7131 1b02 DF140000 		.4byte	.LASF467
 7132 1b06 0010     		.2byte	0x1000
 7133 1b08 18       		.uleb128 0x18
 7134 1b09 A8210000 		.4byte	.LASF468
 7135 1b0d 0020     		.2byte	0x2000
 7136 1b0f 18       		.uleb128 0x18
 7137 1b10 9B0D0000 		.4byte	.LASF469
 7138 1b14 0040     		.2byte	0x4000
 7139 1b16 18       		.uleb128 0x18
 7140 1b17 1D160000 		.4byte	.LASF470
 7141 1b1b 0080     		.2byte	0x8000
 7142 1b1d 23       		.uleb128 0x23
 7143 1b1e 08060000 		.4byte	.LASF471
 7144 1b22 00000100 		.4byte	0x10000
 7145 1b26 23       		.uleb128 0x23
 7146 1b27 0B1A0000 		.4byte	.LASF472
 7147 1b2b 00000200 		.4byte	0x20000
 7148 1b2f 23       		.uleb128 0x23
 7149 1b30 11100000 		.4byte	.LASF473
 7150 1b34 00000400 		.4byte	0x40000
 7151 1b38 23       		.uleb128 0x23
 7152 1b39 8C100000 		.4byte	.LASF474
 7153 1b3d 00000800 		.4byte	0x80000
 7154 1b41 23       		.uleb128 0x23
 7155 1b42 B4070000 		.4byte	.LASF475
 7156 1b46 00008000 		.4byte	0x800000
 7157 1b4a 23       		.uleb128 0x23
 7158 1b4b C9070000 		.4byte	.LASF476
 7159 1b4f 00000001 		.4byte	0x1000000
 7160 1b53 23       		.uleb128 0x23
 7161 1b54 59080000 		.4byte	.LASF477
 7162 1b58 00000002 		.4byte	0x2000000
 7163 1b5c 23       		.uleb128 0x23
 7164 1b5d 6E080000 		.4byte	.LASF478
 7165 1b61 00000004 		.4byte	0x4000000
 7166 1b65 23       		.uleb128 0x23
 7167 1b66 940E0000 		.4byte	.LASF479
 7168 1b6a 00000008 		.4byte	0x8000000
 7169 1b6e 23       		.uleb128 0x23
 7170 1b6f A70E0000 		.4byte	.LASF480
 7171 1b73 00000010 		.4byte	0x10000000
 7172 1b77 23       		.uleb128 0x23
 7173 1b78 8E250000 		.4byte	.LASF481
 7174 1b7c 00000020 		.4byte	0x20000000
 7175 1b80 23       		.uleb128 0x23
 7176 1b81 CC0E0000 		.4byte	.LASF482
 7177 1b85 00000040 		.4byte	0x40000000
 7178 1b89 00       		.byte	0
 7179 1b8a 02       		.uleb128 0x2
ARM GAS  C:\Users\haske\AppData\Local\Temp\ccOQHbDo.s 			page 160


 7180 1b8b 2C250000 		.4byte	.LASF483
 7181 1b8f 0E       		.byte	0xe
 7182 1b90 7D       		.byte	0x7d
 7183 1b91 E4000000 		.4byte	0xe4
 7184 1b95 02       		.uleb128 0x2
 7185 1b96 3B010000 		.4byte	.LASF484
 7186 1b9a 1C       		.byte	0x1c
 7187 1b9b 26       		.byte	0x26
 7188 1b9c B8000000 		.4byte	0xb8
 7189 1ba0 02       		.uleb128 0x2
 7190 1ba1 5B1B0000 		.4byte	.LASF485
 7191 1ba5 1C       		.byte	0x1c
 7192 1ba6 30       		.byte	0x30
 7193 1ba7 B8000000 		.4byte	0xb8
 7194 1bab 05       		.uleb128 0x5
 7195 1bac 08       		.byte	0x8
 7196 1bad 1D       		.byte	0x1d
 7197 1bae 27       		.byte	0x27
 7198 1baf ED1B0000 		.4byte	0x1bed
 7199 1bb3 09       		.uleb128 0x9
 7200 1bb4 441B0000 		.4byte	.LASF486
 7201 1bb8 1D       		.byte	0x1d
 7202 1bb9 28       		.byte	0x28
 7203 1bba ED1B0000 		.4byte	0x1bed
 7204 1bbe 00       		.byte	0
 7205 1bbf 0B       		.uleb128 0xb
 7206 1bc0 BE260000 		.4byte	.LASF487
 7207 1bc4 1D       		.byte	0x1d
 7208 1bc5 29       		.byte	0x29
 7209 1bc6 E4000000 		.4byte	0xe4
 7210 1bca 04       		.byte	0x4
 7211 1bcb 18       		.byte	0x18
 7212 1bcc 08       		.byte	0x8
 7213 1bcd 04       		.byte	0x4
 7214 1bce 0B       		.uleb128 0xb
 7215 1bcf 79020000 		.4byte	.LASF488
 7216 1bd3 1D       		.byte	0x1d
 7217 1bd4 2A       		.byte	0x2a
 7218 1bd5 E4000000 		.4byte	0xe4
 7219 1bd9 04       		.byte	0x4
 7220 1bda 01       		.byte	0x1
 7221 1bdb 07       		.byte	0x7
 7222 1bdc 04       		.byte	0x4
 7223 1bdd 0B       		.uleb128 0xb
 7224 1bde 9C0F0000 		.4byte	.LASF489
 7225 1be2 1D       		.byte	0x1d
 7226 1be3 2B       		.byte	0x2b
 7227 1be4 E4000000 		.4byte	0xe4
 7228 1be8 04       		.byte	0x4
 7229 1be9 01       		.byte	0x1
 7230 1bea 06       		.byte	0x6
 7231 1beb 04       		.byte	0x4
 7232 1bec 00       		.byte	0
 7233 1bed 0D       		.uleb128 0xd
 7234 1bee 04       		.byte	0x4
 7235 1bef B2070000 		.4byte	0x7b2
 7236 1bf3 02       		.uleb128 0x2
ARM GAS  C:\Users\haske\AppData\Local\Temp\ccOQHbDo.s 			page 161


 7237 1bf4 E40C0000 		.4byte	.LASF490
 7238 1bf8 1D       		.byte	0x1d
 7239 1bf9 2C       		.byte	0x2c
 7240 1bfa AB1B0000 		.4byte	0x1bab
 7241 1bfe 0C       		.uleb128 0xc
 7242 1bff 7C1D0000 		.4byte	.LASF491
 7243 1c03 1C       		.byte	0x1c
 7244 1c04 1E       		.byte	0x1e
 7245 1c05 31       		.byte	0x31
 7246 1c06 8C1C0000 		.4byte	0x1c8c
 7247 1c0a 09       		.uleb128 0x9
 7248 1c0b 5E1A0000 		.4byte	.LASF492
 7249 1c0f 1E       		.byte	0x1e
 7250 1c10 32       		.byte	0x32
 7251 1c11 8C1C0000 		.4byte	0x1c8c
 7252 1c15 00       		.byte	0
 7253 1c16 09       		.uleb128 0x9
 7254 1c17 CB020000 		.4byte	.LASF493
 7255 1c1b 1E       		.byte	0x1e
 7256 1c1c 33       		.byte	0x33
 7257 1c1d 2F1D0000 		.4byte	0x1d2f
 7258 1c21 04       		.byte	0x4
 7259 1c22 09       		.uleb128 0x9
 7260 1c23 5C200000 		.4byte	.LASF494
 7261 1c27 1E       		.byte	0x1e
 7262 1c28 34       		.byte	0x34
 7263 1c29 2F1D0000 		.4byte	0x1d2f
 7264 1c2d 08       		.byte	0x8
 7265 1c2e 09       		.uleb128 0x9
 7266 1c2f 2D260000 		.4byte	.LASF50
 7267 1c33 1E       		.byte	0x1e
 7268 1c34 36       		.byte	0x36
 7269 1c35 26030000 		.4byte	0x326
 7270 1c39 0C       		.byte	0xc
 7271 1c3a 09       		.uleb128 0x9
 7272 1c3b 74150000 		.4byte	.LASF495
 7273 1c3f 1E       		.byte	0x1e
 7274 1c40 38       		.byte	0x38
 7275 1c41 451D0000 		.4byte	0x1d45
 7276 1c45 10       		.byte	0x10
 7277 1c46 09       		.uleb128 0x9
 7278 1c47 F20D0000 		.4byte	.LASF496
 7279 1c4b 1E       		.byte	0x1e
 7280 1c4c 3A       		.byte	0x3a
 7281 1c4d 01010000 		.4byte	0x101
 7282 1c51 14       		.byte	0x14
 7283 1c52 09       		.uleb128 0x9
 7284 1c53 42270000 		.4byte	.LASF497
 7285 1c57 1E       		.byte	0x1e
 7286 1c58 3B       		.byte	0x3b
 7287 1c59 01010000 		.4byte	0x101
 7288 1c5d 16       		.byte	0x16
 7289 1c5e 0B       		.uleb128 0xb
 7290 1c5f 26120000 		.4byte	.LASF498
 7291 1c63 1E       		.byte	0x1e
 7292 1c64 3C       		.byte	0x3c
 7293 1c65 E4000000 		.4byte	0xe4
ARM GAS  C:\Users\haske\AppData\Local\Temp\ccOQHbDo.s 			page 162


 7294 1c69 04       		.byte	0x4
 7295 1c6a 02       		.byte	0x2
 7296 1c6b 1E       		.byte	0x1e
 7297 1c6c 18       		.byte	0x18
 7298 1c6d 0B       		.uleb128 0xb
 7299 1c6e 8E050000 		.4byte	.LASF499
 7300 1c72 1E       		.byte	0x1e
 7301 1c73 3D       		.byte	0x3d
 7302 1c74 E4000000 		.4byte	0xe4
 7303 1c78 04       		.byte	0x4
 7304 1c79 02       		.byte	0x2
 7305 1c7a 1C       		.byte	0x1c
 7306 1c7b 18       		.byte	0x18
 7307 1c7c 0B       		.uleb128 0xb
 7308 1c7d EA130000 		.4byte	.LASF500
 7309 1c81 1E       		.byte	0x1e
 7310 1c82 3E       		.byte	0x3e
 7311 1c83 E4000000 		.4byte	0xe4
 7312 1c87 04       		.byte	0x4
 7313 1c88 10       		.byte	0x10
 7314 1c89 0C       		.byte	0xc
 7315 1c8a 18       		.byte	0x18
 7316 1c8b 00       		.byte	0
 7317 1c8c 0D       		.uleb128 0xd
 7318 1c8d 04       		.byte	0x4
 7319 1c8e 921C0000 		.4byte	0x1c92
 7320 1c92 0E       		.uleb128 0xe
 7321 1c93 FE1B0000 		.4byte	0x1bfe
 7322 1c97 0D       		.uleb128 0xd
 7323 1c98 04       		.byte	0x4
 7324 1c99 9D1C0000 		.4byte	0x1c9d
 7325 1c9d 0C       		.uleb128 0xc
 7326 1c9e 9D150000 		.4byte	.LASF501
 7327 1ca2 1C       		.byte	0x1c
 7328 1ca3 1F       		.byte	0x1f
 7329 1ca4 5E       		.byte	0x5e
 7330 1ca5 1F1D0000 		.4byte	0x1d1f
 7331 1ca9 09       		.uleb128 0x9
 7332 1caa C3110000 		.4byte	.LASF502
 7333 1cae 1F       		.byte	0x1f
 7334 1caf 5F       		.byte	0x5f
 7335 1cb0 C9070000 		.4byte	0x7c9
 7336 1cb4 00       		.byte	0
 7337 1cb5 09       		.uleb128 0x9
 7338 1cb6 14220000 		.4byte	.LASF503
 7339 1cba 1F       		.byte	0x1f
 7340 1cbb 60       		.byte	0x60
 7341 1cbc C9070000 		.4byte	0x7c9
 7342 1cc0 04       		.byte	0x4
 7343 1cc1 09       		.uleb128 0x9
 7344 1cc2 8F1B0000 		.4byte	.LASF504
 7345 1cc6 1F       		.byte	0x1f
 7346 1cc7 61       		.byte	0x61
 7347 1cc8 7D1E0000 		.4byte	0x1e7d
 7348 1ccc 08       		.byte	0x8
 7349 1ccd 09       		.uleb128 0x9
 7350 1cce 2D260000 		.4byte	.LASF50
ARM GAS  C:\Users\haske\AppData\Local\Temp\ccOQHbDo.s 			page 163


 7351 1cd2 1F       		.byte	0x1f
 7352 1cd3 62       		.byte	0x62
 7353 1cd4 26030000 		.4byte	0x326
 7354 1cd8 0C       		.byte	0xc
 7355 1cd9 09       		.uleb128 0x9
 7356 1cda BD110000 		.4byte	.LASF505
 7357 1cde 1F       		.byte	0x1f
 7358 1cdf 63       		.byte	0x63
 7359 1ce0 26030000 		.4byte	0x326
 7360 1ce4 10       		.byte	0x10
 7361 1ce5 09       		.uleb128 0x9
 7362 1ce6 17280000 		.4byte	.LASF506
 7363 1cea 1F       		.byte	0x1f
 7364 1ceb 64       		.byte	0x64
 7365 1cec 971C0000 		.4byte	0x1c97
 7366 1cf0 14       		.byte	0x14
 7367 1cf1 0B       		.uleb128 0xb
 7368 1cf2 D4150000 		.4byte	.LASF507
 7369 1cf6 1F       		.byte	0x1f
 7370 1cf7 65       		.byte	0x65
 7371 1cf8 B8000000 		.4byte	0xb8
 7372 1cfc 01       		.byte	0x1
 7373 1cfd 01       		.byte	0x1
 7374 1cfe 07       		.byte	0x7
 7375 1cff 18       		.byte	0x18
 7376 1d00 0B       		.uleb128 0xb
 7377 1d01 480A0000 		.4byte	.LASF508
 7378 1d05 1F       		.byte	0x1f
 7379 1d06 66       		.byte	0x66
 7380 1d07 B8000000 		.4byte	0xb8
 7381 1d0b 01       		.byte	0x1
 7382 1d0c 01       		.byte	0x1
 7383 1d0d 06       		.byte	0x6
 7384 1d0e 18       		.byte	0x18
 7385 1d0f 0B       		.uleb128 0xb
 7386 1d10 C7190000 		.4byte	.LASF509
 7387 1d14 1F       		.byte	0x1f
 7388 1d15 67       		.byte	0x67
 7389 1d16 B8000000 		.4byte	0xb8
 7390 1d1a 01       		.byte	0x1
 7391 1d1b 01       		.byte	0x1
 7392 1d1c 05       		.byte	0x5
 7393 1d1d 18       		.byte	0x18
 7394 1d1e 00       		.byte	0
 7395 1d1f 1F       		.uleb128 0x1f
 7396 1d20 2F1D0000 		.4byte	0x1d2f
 7397 1d24 10       		.uleb128 0x10
 7398 1d25 8C1C0000 		.4byte	0x1c8c
 7399 1d29 10       		.uleb128 0x10
 7400 1d2a C9070000 		.4byte	0x7c9
 7401 1d2e 00       		.byte	0
 7402 1d2f 0D       		.uleb128 0xd
 7403 1d30 04       		.byte	0x4
 7404 1d31 1F1D0000 		.4byte	0x1d1f
 7405 1d35 1F       		.uleb128 0x1f
 7406 1d36 451D0000 		.4byte	0x1d45
 7407 1d3a 10       		.uleb128 0x10
ARM GAS  C:\Users\haske\AppData\Local\Temp\ccOQHbDo.s 			page 164


 7408 1d3b 8C1C0000 		.4byte	0x1c8c
 7409 1d3f 10       		.uleb128 0x10
 7410 1d40 971C0000 		.4byte	0x1c97
 7411 1d44 00       		.byte	0
 7412 1d45 0D       		.uleb128 0xd
 7413 1d46 04       		.byte	0x4
 7414 1d47 351D0000 		.4byte	0x1d35
 7415 1d4b 02       		.uleb128 0x2
 7416 1d4c 2F0F0000 		.4byte	.LASF510
 7417 1d50 1E       		.byte	0x1e
 7418 1d51 3F       		.byte	0x3f
 7419 1d52 FE1B0000 		.4byte	0x1bfe
 7420 1d56 07       		.uleb128 0x7
 7421 1d57 01       		.byte	0x1
 7422 1d58 42000000 		.4byte	0x42
 7423 1d5c 1F       		.byte	0x1f
 7424 1d5d 20       		.byte	0x20
 7425 1d5e 7D1E0000 		.4byte	0x1e7d
 7426 1d62 08       		.uleb128 0x8
 7427 1d63 3E050000 		.4byte	.LASF511
 7428 1d67 00       		.byte	0
 7429 1d68 08       		.uleb128 0x8
 7430 1d69 281C0000 		.4byte	.LASF512
 7431 1d6d 01       		.byte	0x1
 7432 1d6e 08       		.uleb128 0x8
 7433 1d6f F9190000 		.4byte	.LASF513
 7434 1d73 02       		.byte	0x2
 7435 1d74 08       		.uleb128 0x8
 7436 1d75 37260000 		.4byte	.LASF514
 7437 1d79 03       		.byte	0x3
 7438 1d7a 08       		.uleb128 0x8
 7439 1d7b 881A0000 		.4byte	.LASF515
 7440 1d7f 04       		.byte	0x4
 7441 1d80 08       		.uleb128 0x8
 7442 1d81 24030000 		.4byte	.LASF516
 7443 1d85 05       		.byte	0x5
 7444 1d86 08       		.uleb128 0x8
 7445 1d87 B11A0000 		.4byte	.LASF517
 7446 1d8b 06       		.byte	0x6
 7447 1d8c 08       		.uleb128 0x8
 7448 1d8d F30E0000 		.4byte	.LASF518
 7449 1d91 07       		.byte	0x7
 7450 1d92 08       		.uleb128 0x8
 7451 1d93 50280000 		.4byte	.LASF519
 7452 1d97 08       		.byte	0x8
 7453 1d98 08       		.uleb128 0x8
 7454 1d99 1F170000 		.4byte	.LASF520
 7455 1d9d 09       		.byte	0x9
 7456 1d9e 08       		.uleb128 0x8
 7457 1d9f 77230000 		.4byte	.LASF521
 7458 1da3 0A       		.byte	0xa
 7459 1da4 08       		.uleb128 0x8
 7460 1da5 F3150000 		.4byte	.LASF522
 7461 1da9 0B       		.byte	0xb
 7462 1daa 08       		.uleb128 0x8
 7463 1dab 13030000 		.4byte	.LASF523
 7464 1daf 0C       		.byte	0xc
ARM GAS  C:\Users\haske\AppData\Local\Temp\ccOQHbDo.s 			page 165


 7465 1db0 08       		.uleb128 0x8
 7466 1db1 D0250000 		.4byte	.LASF524
 7467 1db5 0D       		.byte	0xd
 7468 1db6 08       		.uleb128 0x8
 7469 1db7 C7260000 		.4byte	.LASF525
 7470 1dbb 0E       		.byte	0xe
 7471 1dbc 08       		.uleb128 0x8
 7472 1dbd F6220000 		.4byte	.LASF526
 7473 1dc1 0F       		.byte	0xf
 7474 1dc2 08       		.uleb128 0x8
 7475 1dc3 03110000 		.4byte	.LASF527
 7476 1dc7 10       		.byte	0x10
 7477 1dc8 08       		.uleb128 0x8
 7478 1dc9 DA0B0000 		.4byte	.LASF528
 7479 1dcd 11       		.byte	0x11
 7480 1dce 08       		.uleb128 0x8
 7481 1dcf 300B0000 		.4byte	.LASF529
 7482 1dd3 12       		.byte	0x12
 7483 1dd4 08       		.uleb128 0x8
 7484 1dd5 6B140000 		.4byte	.LASF530
 7485 1dd9 13       		.byte	0x13
 7486 1dda 08       		.uleb128 0x8
 7487 1ddb 9D000000 		.4byte	.LASF531
 7488 1ddf 14       		.byte	0x14
 7489 1de0 08       		.uleb128 0x8
 7490 1de1 C7080000 		.4byte	.LASF532
 7491 1de5 15       		.byte	0x15
 7492 1de6 08       		.uleb128 0x8
 7493 1de7 540F0000 		.4byte	.LASF533
 7494 1deb 16       		.byte	0x16
 7495 1dec 08       		.uleb128 0x8
 7496 1ded DF170000 		.4byte	.LASF534
 7497 1df1 17       		.byte	0x17
 7498 1df2 08       		.uleb128 0x8
 7499 1df3 D9240000 		.4byte	.LASF535
 7500 1df7 18       		.byte	0x18
 7501 1df8 08       		.uleb128 0x8
 7502 1df9 BF210000 		.4byte	.LASF536
 7503 1dfd 19       		.byte	0x19
 7504 1dfe 08       		.uleb128 0x8
 7505 1dff D6210000 		.4byte	.LASF537
 7506 1e03 1A       		.byte	0x1a
 7507 1e04 08       		.uleb128 0x8
 7508 1e05 D1060000 		.4byte	.LASF538
 7509 1e09 1B       		.byte	0x1b
 7510 1e0a 08       		.uleb128 0x8
 7511 1e0b 95180000 		.4byte	.LASF539
 7512 1e0f 1C       		.byte	0x1c
 7513 1e10 08       		.uleb128 0x8
 7514 1e11 74010000 		.4byte	.LASF540
 7515 1e15 1D       		.byte	0x1d
 7516 1e16 08       		.uleb128 0x8
 7517 1e17 D9130000 		.4byte	.LASF541
 7518 1e1b 1E       		.byte	0x1e
 7519 1e1c 08       		.uleb128 0x8
 7520 1e1d A7240000 		.4byte	.LASF542
 7521 1e21 1F       		.byte	0x1f
ARM GAS  C:\Users\haske\AppData\Local\Temp\ccOQHbDo.s 			page 166


 7522 1e22 08       		.uleb128 0x8
 7523 1e23 391C0000 		.4byte	.LASF543
 7524 1e27 20       		.byte	0x20
 7525 1e28 08       		.uleb128 0x8
 7526 1e29 C7170000 		.4byte	.LASF544
 7527 1e2d 21       		.byte	0x21
 7528 1e2e 08       		.uleb128 0x8
 7529 1e2f 2A020000 		.4byte	.LASF545
 7530 1e33 22       		.byte	0x22
 7531 1e34 08       		.uleb128 0x8
 7532 1e35 75030000 		.4byte	.LASF546
 7533 1e39 23       		.byte	0x23
 7534 1e3a 08       		.uleb128 0x8
 7535 1e3b B6040000 		.4byte	.LASF547
 7536 1e3f 24       		.byte	0x24
 7537 1e40 08       		.uleb128 0x8
 7538 1e41 5F270000 		.4byte	.LASF548
 7539 1e45 25       		.byte	0x25
 7540 1e46 08       		.uleb128 0x8
 7541 1e47 AC190000 		.4byte	.LASF549
 7542 1e4b 26       		.byte	0x26
 7543 1e4c 08       		.uleb128 0x8
 7544 1e4d 8E0C0000 		.4byte	.LASF550
 7545 1e51 27       		.byte	0x27
 7546 1e52 08       		.uleb128 0x8
 7547 1e53 9F1F0000 		.4byte	.LASF551
 7548 1e57 28       		.byte	0x28
 7549 1e58 08       		.uleb128 0x8
 7550 1e59 3A250000 		.4byte	.LASF552
 7551 1e5d 29       		.byte	0x29
 7552 1e5e 08       		.uleb128 0x8
 7553 1e5f 81240000 		.4byte	.LASF553
 7554 1e63 2A       		.byte	0x2a
 7555 1e64 08       		.uleb128 0x8
 7556 1e65 76250000 		.4byte	.LASF554
 7557 1e69 2B       		.byte	0x2b
 7558 1e6a 08       		.uleb128 0x8
 7559 1e6b B0080000 		.4byte	.LASF555
 7560 1e6f 2C       		.byte	0x2c
 7561 1e70 08       		.uleb128 0x8
 7562 1e71 B8220000 		.4byte	.LASF556
 7563 1e75 2D       		.byte	0x2d
 7564 1e76 08       		.uleb128 0x8
 7565 1e77 53110000 		.4byte	.LASF557
 7566 1e7b 80       		.byte	0x80
 7567 1e7c 00       		.byte	0
 7568 1e7d 02       		.uleb128 0x2
 7569 1e7e 7D150000 		.4byte	.LASF558
 7570 1e82 1F       		.byte	0x1f
 7571 1e83 5C       		.byte	0x5c
 7572 1e84 561D0000 		.4byte	0x1d56
 7573 1e88 07       		.uleb128 0x7
 7574 1e89 01       		.byte	0x1
 7575 1e8a 42000000 		.4byte	0x42
 7576 1e8e 1B       		.byte	0x1b
 7577 1e8f 1D       		.byte	0x1d
 7578 1e90 DD1E0000 		.4byte	0x1edd
ARM GAS  C:\Users\haske\AppData\Local\Temp\ccOQHbDo.s 			page 167


 7579 1e94 08       		.uleb128 0x8
 7580 1e95 8C270000 		.4byte	.LASF559
 7581 1e99 11       		.byte	0x11
 7582 1e9a 08       		.uleb128 0x8
 7583 1e9b FB1E0000 		.4byte	.LASF560
 7584 1e9f 12       		.byte	0x12
 7585 1ea0 08       		.uleb128 0x8
 7586 1ea1 86000000 		.4byte	.LASF561
 7587 1ea5 13       		.byte	0x13
 7588 1ea6 08       		.uleb128 0x8
 7589 1ea7 63070000 		.4byte	.LASF562
 7590 1eab 14       		.byte	0x14
 7591 1eac 08       		.uleb128 0x8
 7592 1ead 071F0000 		.4byte	.LASF563
 7593 1eb1 1B       		.byte	0x1b
 7594 1eb2 08       		.uleb128 0x8
 7595 1eb3 8C060000 		.4byte	.LASF564
 7596 1eb7 7F       		.byte	0x7f
 7597 1eb8 08       		.uleb128 0x8
 7598 1eb9 A0090000 		.4byte	.LASF565
 7599 1ebd 08       		.byte	0x8
 7600 1ebe 08       		.uleb128 0x8
 7601 1ebf 85160000 		.4byte	.LASF566
 7602 1ec3 0A       		.byte	0xa
 7603 1ec4 08       		.uleb128 0x8
 7604 1ec5 E2200000 		.4byte	.LASF567
 7605 1ec9 09       		.byte	0x9
 7606 1eca 08       		.uleb128 0x8
 7607 1ecb 38210000 		.4byte	.LASF568
 7608 1ecf 0B       		.byte	0xb
 7609 1ed0 08       		.uleb128 0x8
 7610 1ed1 10000000 		.4byte	.LASF569
 7611 1ed5 02       		.byte	0x2
 7612 1ed6 08       		.uleb128 0x8
 7613 1ed7 DA1B0000 		.4byte	.LASF570
 7614 1edb 03       		.byte	0x3
 7615 1edc 00       		.byte	0
 7616 1edd 02       		.uleb128 0x2
 7617 1ede 681D0000 		.4byte	.LASF571
 7618 1ee2 1B       		.byte	0x1b
 7619 1ee3 34       		.byte	0x34
 7620 1ee4 E81E0000 		.4byte	0x1ee8
 7621 1ee8 0D       		.uleb128 0xd
 7622 1ee9 04       		.byte	0x4
 7623 1eea EE1E0000 		.4byte	0x1eee
 7624 1eee 1F       		.uleb128 0x1f
 7625 1eef F91E0000 		.4byte	0x1ef9
 7626 1ef3 10       		.uleb128 0x10
 7627 1ef4 201A0000 		.4byte	0x1a20
 7628 1ef8 00       		.byte	0
 7629 1ef9 02       		.uleb128 0x2
 7630 1efa 810E0000 		.4byte	.LASF572
 7631 1efe 1B       		.byte	0x1b
 7632 1eff 35       		.byte	0x35
 7633 1f00 041F0000 		.4byte	0x1f04
 7634 1f04 0D       		.uleb128 0xd
 7635 1f05 04       		.byte	0x4
ARM GAS  C:\Users\haske\AppData\Local\Temp\ccOQHbDo.s 			page 168


 7636 1f06 0A1F0000 		.4byte	0x1f0a
 7637 1f0a 1F       		.uleb128 0x1f
 7638 1f0b 1A1F0000 		.4byte	0x1f1a
 7639 1f0f 10       		.uleb128 0x10
 7640 1f10 201A0000 		.4byte	0x1a20
 7641 1f14 10       		.uleb128 0x10
 7642 1f15 E7020000 		.4byte	0x2e7
 7643 1f19 00       		.byte	0
 7644 1f1a 02       		.uleb128 0x2
 7645 1f1b 32090000 		.4byte	.LASF573
 7646 1f1f 1B       		.byte	0x1b
 7647 1f20 4E       		.byte	0x4e
 7648 1f21 9B190000 		.4byte	0x199b
 7649 1f25 05       		.uleb128 0x5
 7650 1f26 1C       		.byte	0x1c
 7651 1f27 0E       		.byte	0xe
 7652 1f28 9B       		.byte	0x9b
 7653 1f29 DC1F0000 		.4byte	0x1fdc
 7654 1f2d 09       		.uleb128 0x9
 7655 1f2e E2030000 		.4byte	.LASF574
 7656 1f32 0E       		.byte	0xe
 7657 1f33 9C       		.byte	0x9c
 7658 1f34 EE150000 		.4byte	0x15ee
 7659 1f38 00       		.byte	0
 7660 1f39 09       		.uleb128 0x9
 7661 1f3a D0100000 		.4byte	.LASF575
 7662 1f3e 0E       		.byte	0xe
 7663 1f3f 9D       		.byte	0x9d
 7664 1f40 E4000000 		.4byte	0xe4
 7665 1f44 04       		.byte	0x4
 7666 1f45 09       		.uleb128 0x9
 7667 1f46 830D0000 		.4byte	.LASF576
 7668 1f4a 0E       		.byte	0xe
 7669 1f4b 9E       		.byte	0x9e
 7670 1f4c DC1F0000 		.4byte	0x1fdc
 7671 1f50 08       		.byte	0x8
 7672 1f51 09       		.uleb128 0x9
 7673 1f52 100D0000 		.4byte	.LASF577
 7674 1f56 0E       		.byte	0xe
 7675 1f57 A0       		.byte	0xa0
 7676 1f58 E71F0000 		.4byte	0x1fe7
 7677 1f5c 0C       		.byte	0xc
 7678 1f5d 09       		.uleb128 0x9
 7679 1f5e C00D0000 		.4byte	.LASF578
 7680 1f62 0E       		.byte	0xe
 7681 1f63 A1       		.byte	0xa1
 7682 1f64 29010000 		.4byte	0x129
 7683 1f68 10       		.byte	0x10
 7684 1f69 09       		.uleb128 0x9
 7685 1f6a 4B220000 		.4byte	.LASF579
 7686 1f6e 0E       		.byte	0xe
 7687 1f6f A3       		.byte	0xa3
 7688 1f70 01010000 		.4byte	0x101
 7689 1f74 14       		.byte	0x14
 7690 1f75 09       		.uleb128 0x9
 7691 1f76 9D170000 		.4byte	.LASF580
 7692 1f7a 0E       		.byte	0xe
ARM GAS  C:\Users\haske\AppData\Local\Temp\ccOQHbDo.s 			page 169


 7693 1f7b A4       		.byte	0xa4
 7694 1f7c 01010000 		.4byte	0x101
 7695 1f80 16       		.byte	0x16
 7696 1f81 0B       		.uleb128 0xb
 7697 1f82 D9090000 		.4byte	.LASF581
 7698 1f86 0E       		.byte	0xe
 7699 1f87 A6       		.byte	0xa6
 7700 1f88 951B0000 		.4byte	0x1b95
 7701 1f8c 01       		.byte	0x1
 7702 1f8d 02       		.byte	0x2
 7703 1f8e 06       		.byte	0x6
 7704 1f8f 18       		.byte	0x18
 7705 1f90 0B       		.uleb128 0xb
 7706 1f91 F1010000 		.4byte	.LASF582
 7707 1f95 0E       		.byte	0xe
 7708 1f96 A7       		.byte	0xa7
 7709 1f97 A01B0000 		.4byte	0x1ba0
 7710 1f9b 01       		.byte	0x1
 7711 1f9c 02       		.byte	0x2
 7712 1f9d 04       		.byte	0x4
 7713 1f9e 18       		.byte	0x18
 7714 1f9f 0B       		.uleb128 0xb
 7715 1fa0 FF010000 		.4byte	.LASF583
 7716 1fa4 0E       		.byte	0xe
 7717 1fa5 A8       		.byte	0xa8
 7718 1fa6 A01B0000 		.4byte	0x1ba0
 7719 1faa 01       		.byte	0x1
 7720 1fab 02       		.byte	0x2
 7721 1fac 02       		.byte	0x2
 7722 1fad 18       		.byte	0x18
 7723 1fae 0B       		.uleb128 0xb
 7724 1faf 83050000 		.4byte	.LASF409
 7725 1fb3 0E       		.byte	0xe
 7726 1fb4 A9       		.byte	0xa9
 7727 1fb5 B1010000 		.4byte	0x1b1
 7728 1fb9 01       		.byte	0x1
 7729 1fba 04       		.byte	0x4
 7730 1fbb 04       		.byte	0x4
 7731 1fbc 19       		.byte	0x19
 7732 1fbd 0B       		.uleb128 0xb
 7733 1fbe CA280000 		.4byte	.LASF584
 7734 1fc2 0E       		.byte	0xe
 7735 1fc3 AA       		.byte	0xaa
 7736 1fc4 B8000000 		.4byte	0xb8
 7737 1fc8 01       		.byte	0x1
 7738 1fc9 06       		.byte	0x6
 7739 1fca 02       		.byte	0x2
 7740 1fcb 1A       		.byte	0x1a
 7741 1fcc 0B       		.uleb128 0xb
 7742 1fcd 2B0E0000 		.4byte	.LASF585
 7743 1fd1 0E       		.byte	0xe
 7744 1fd2 AB       		.byte	0xab
 7745 1fd3 B8000000 		.4byte	0xb8
 7746 1fd7 01       		.byte	0x1
 7747 1fd8 02       		.byte	0x2
 7748 1fd9 00       		.byte	0
 7749 1fda 1A       		.byte	0x1a
ARM GAS  C:\Users\haske\AppData\Local\Temp\ccOQHbDo.s 			page 170


 7750 1fdb 00       		.byte	0
 7751 1fdc 0D       		.uleb128 0xd
 7752 1fdd 04       		.byte	0x4
 7753 1fde 1A1F0000 		.4byte	0x1f1a
 7754 1fe2 24       		.uleb128 0x24
 7755 1fe3 4B260000 		.4byte	.LASF678
 7756 1fe7 0D       		.uleb128 0xd
 7757 1fe8 04       		.byte	0x4
 7758 1fe9 E21F0000 		.4byte	0x1fe2
 7759 1fed 02       		.uleb128 0x2
 7760 1fee F20B0000 		.4byte	.LASF586
 7761 1ff2 0E       		.byte	0xe
 7762 1ff3 AC       		.byte	0xac
 7763 1ff4 251F0000 		.4byte	0x1f25
 7764 1ff8 0D       		.uleb128 0xd
 7765 1ff9 04       		.byte	0x4
 7766 1ffa FE1F0000 		.4byte	0x1ffe
 7767 1ffe 0E       		.uleb128 0xe
 7768 1fff 4B1D0000 		.4byte	0x1d4b
 7769 2003 0D       		.uleb128 0xd
 7770 2004 04       		.byte	0x4
 7771 2005 ED1F0000 		.4byte	0x1fed
 7772 2009 0D       		.uleb128 0xd
 7773 200a 04       		.byte	0x4
 7774 200b F31B0000 		.4byte	0x1bf3
 7775 200f 02       		.uleb128 0x2
 7776 2010 C1280000 		.4byte	.LASF587
 7777 2014 0E       		.byte	0xe
 7778 2015 BF       		.byte	0xbf
 7779 2016 CF070000 		.4byte	0x7cf
 7780 201a 02       		.uleb128 0x2
 7781 201b 0D0E0000 		.4byte	.LASF588
 7782 201f 19       		.byte	0x19
 7783 2020 1D       		.byte	0x1d
 7784 2021 25200000 		.4byte	0x2025
 7785 2025 0D       		.uleb128 0xd
 7786 2026 04       		.byte	0x4
 7787 2027 2B200000 		.4byte	0x202b
 7788 202b 1F       		.uleb128 0x1f
 7789 202c 3B200000 		.4byte	0x203b
 7790 2030 10       		.uleb128 0x10
 7791 2031 E8150000 		.4byte	0x15e8
 7792 2035 10       		.uleb128 0x10
 7793 2036 3B200000 		.4byte	0x203b
 7794 203a 00       		.byte	0
 7795 203b 0D       		.uleb128 0xd
 7796 203c 04       		.byte	0x4
 7797 203d 0F200000 		.4byte	0x200f
 7798 2041 25       		.uleb128 0x25
 7799 2042 7A0A0000 		.4byte	.LASF590
 7800 2046 02       		.byte	0x2
 7801 2047 4F       		.byte	0x4f
 7802 2048 01010000 		.4byte	0x101
 7803 204c 03       		.byte	0x3
 7804 204d 71200000 		.4byte	0x2071
 7805 2051 26       		.uleb128 0x26
 7806 2052 6F626A00 		.ascii	"obj\000"
ARM GAS  C:\Users\haske\AppData\Local\Temp\ccOQHbDo.s 			page 171


 7807 2056 02       		.byte	0x2
 7808 2057 4F       		.byte	0x4f
 7809 2058 71200000 		.4byte	0x2071
 7810 205c 27       		.uleb128 0x27
 7811 205d 12280000 		.4byte	.LASF589
 7812 2061 02       		.byte	0x2
 7813 2062 4F       		.byte	0x4f
 7814 2063 E4000000 		.4byte	0xe4
 7815 2067 28       		.uleb128 0x28
 7816 2068 7600     		.ascii	"v\000"
 7817 206a 02       		.byte	0x2
 7818 206b 51       		.byte	0x51
 7819 206c C9040000 		.4byte	0x4c9
 7820 2070 00       		.byte	0
 7821 2071 0D       		.uleb128 0xd
 7822 2072 04       		.byte	0x4
 7823 2073 77200000 		.4byte	0x2077
 7824 2077 0E       		.uleb128 0xe
 7825 2078 CF070000 		.4byte	0x7cf
 7826 207c 25       		.uleb128 0x25
 7827 207d 32110000 		.4byte	.LASF591
 7828 2081 02       		.byte	0x2
 7829 2082 55       		.byte	0x55
 7830 2083 01010000 		.4byte	0x101
 7831 2087 03       		.byte	0x3
 7832 2088 AC200000 		.4byte	0x20ac
 7833 208c 26       		.uleb128 0x26
 7834 208d 6F626A00 		.ascii	"obj\000"
 7835 2091 02       		.byte	0x2
 7836 2092 55       		.byte	0x55
 7837 2093 71200000 		.4byte	0x2071
 7838 2097 27       		.uleb128 0x27
 7839 2098 12280000 		.4byte	.LASF589
 7840 209c 02       		.byte	0x2
 7841 209d 55       		.byte	0x55
 7842 209e E4000000 		.4byte	0xe4
 7843 20a2 28       		.uleb128 0x28
 7844 20a3 7600     		.ascii	"v\000"
 7845 20a5 02       		.byte	0x2
 7846 20a6 57       		.byte	0x57
 7847 20a7 C9040000 		.4byte	0x4c9
 7848 20ab 00       		.byte	0
 7849 20ac 29       		.uleb128 0x29
 7850 20ad 94120000 		.4byte	.LASF593
 7851 20b1 01       		.byte	0x1
 7852 20b2 0204     		.2byte	0x402
 7853 20b4 00000000 		.4byte	.LFB190
 7854 20b8 48000000 		.4byte	.LFE190-.LFB190
 7855 20bc 01       		.uleb128 0x1
 7856 20bd 9C       		.byte	0x9c
 7857 20be D1200000 		.4byte	0x20d1
 7858 20c2 2A       		.uleb128 0x2a
 7859 20c3 DC0F0000 		.4byte	.LASF592
 7860 20c7 01       		.byte	0x1
 7861 20c8 0204     		.2byte	0x402
 7862 20ca D1200000 		.4byte	0x20d1
 7863 20ce 01       		.uleb128 0x1
ARM GAS  C:\Users\haske\AppData\Local\Temp\ccOQHbDo.s 			page 172


 7864 20cf 50       		.byte	0x50
 7865 20d0 00       		.byte	0
 7866 20d1 0D       		.uleb128 0xd
 7867 20d2 04       		.byte	0x4
 7868 20d3 261A0000 		.4byte	0x1a26
 7869 20d7 2B       		.uleb128 0x2b
 7870 20d8 7C170000 		.4byte	.LASF679
 7871 20dc 01       		.byte	0x1
 7872 20dd 9504     		.2byte	0x495
 7873 20df E7020000 		.4byte	0x2e7
 7874 20e3 00000000 		.4byte	.LFB193
 7875 20e7 20000000 		.4byte	.LFE193-.LFB193
 7876 20eb 01       		.uleb128 0x1
 7877 20ec 9C       		.byte	0x9c
 7878 20ed 02210000 		.4byte	0x2102
 7879 20f1 2C       		.uleb128 0x2c
 7880 20f2 4B0C0000 		.4byte	.LASF425
 7881 20f6 01       		.byte	0x1
 7882 20f7 9504     		.2byte	0x495
 7883 20f9 02210000 		.4byte	0x2102
 7884 20fd 00000000 		.4byte	.LLST0
 7885 2101 00       		.byte	0
 7886 2102 0D       		.uleb128 0xd
 7887 2103 04       		.byte	0x4
 7888 2104 47190000 		.4byte	0x1947
 7889 2108 29       		.uleb128 0x29
 7890 2109 FB250000 		.4byte	.LASF594
 7891 210d 01       		.byte	0x1
 7892 210e 1B04     		.2byte	0x41b
 7893 2110 00000000 		.4byte	.LFB191
 7894 2114 F4000000 		.4byte	.LFE191-.LFB191
 7895 2118 01       		.uleb128 0x1
 7896 2119 9C       		.byte	0x9c
 7897 211a 94220000 		.4byte	0x2294
 7898 211e 2C       		.uleb128 0x2c
 7899 211f 4B0C0000 		.4byte	.LASF425
 7900 2123 01       		.byte	0x1
 7901 2124 1B04     		.2byte	0x41b
 7902 2126 02210000 		.4byte	0x2102
 7903 212a 21000000 		.4byte	.LLST1
 7904 212e 2D       		.uleb128 0x2d
 7905 212f CB130000 		.4byte	.LASF595
 7906 2133 01       		.byte	0x1
 7907 2134 2304     		.2byte	0x423
 7908 2136 DC1F0000 		.4byte	0x1fdc
 7909 213a 4D000000 		.4byte	.LLST2
 7910 213e 2D       		.uleb128 0x2d
 7911 213f 311B0000 		.4byte	.LASF596
 7912 2143 01       		.byte	0x1
 7913 2144 2404     		.2byte	0x424
 7914 2146 DC1F0000 		.4byte	0x1fdc
 7915 214a 6B000000 		.4byte	.LLST3
 7916 214e 2E       		.uleb128 0x2e
 7917 214f 0E000000 		.4byte	.LVL5
 7918 2153 7D380000 		.4byte	0x387d
 7919 2157 61210000 		.4byte	0x2161
 7920 215b 2F       		.uleb128 0x2f
ARM GAS  C:\Users\haske\AppData\Local\Temp\ccOQHbDo.s 			page 173


 7921 215c 01       		.uleb128 0x1
 7922 215d 51       		.byte	0x51
 7923 215e 01       		.uleb128 0x1
 7924 215f 34       		.byte	0x34
 7925 2160 00       		.byte	0
 7926 2161 30       		.uleb128 0x30
 7927 2162 20000000 		.4byte	.LVL6
 7928 2166 89380000 		.4byte	0x3889
 7929 216a 30       		.uleb128 0x30
 7930 216b 2A000000 		.4byte	.LVL9
 7931 216f 89380000 		.4byte	0x3889
 7932 2173 30       		.uleb128 0x30
 7933 2174 3E000000 		.4byte	.LVL12
 7934 2178 95380000 		.4byte	0x3895
 7935 217c 2E       		.uleb128 0x2e
 7936 217d 44000000 		.4byte	.LVL13
 7937 2181 D7200000 		.4byte	0x20d7
 7938 2185 90210000 		.4byte	0x2190
 7939 2189 2F       		.uleb128 0x2f
 7940 218a 01       		.uleb128 0x1
 7941 218b 50       		.byte	0x50
 7942 218c 02       		.uleb128 0x2
 7943 218d 74       		.byte	0x74
 7944 218e 00       		.sleb128 0
 7945 218f 00       		.byte	0
 7946 2190 2E       		.uleb128 0x2e
 7947 2191 58000000 		.4byte	.LVL16
 7948 2195 A0380000 		.4byte	0x38a0
 7949 2199 A3210000 		.4byte	0x21a3
 7950 219d 2F       		.uleb128 0x2f
 7951 219e 01       		.uleb128 0x1
 7952 219f 51       		.byte	0x51
 7953 21a0 01       		.uleb128 0x1
 7954 21a1 3F       		.byte	0x3f
 7955 21a2 00       		.byte	0
 7956 21a3 2E       		.uleb128 0x2e
 7957 21a4 5E000000 		.4byte	.LVL17
 7958 21a8 D7200000 		.4byte	0x20d7
 7959 21ac B7210000 		.4byte	0x21b7
 7960 21b0 2F       		.uleb128 0x2f
 7961 21b1 01       		.uleb128 0x1
 7962 21b2 50       		.byte	0x50
 7963 21b3 02       		.uleb128 0x2
 7964 21b4 74       		.byte	0x74
 7965 21b5 00       		.sleb128 0
 7966 21b6 00       		.byte	0
 7967 21b7 2E       		.uleb128 0x2e
 7968 21b8 6E000000 		.4byte	.LVL18
 7969 21bc A0380000 		.4byte	0x38a0
 7970 21c0 CA210000 		.4byte	0x21ca
 7971 21c4 2F       		.uleb128 0x2f
 7972 21c5 01       		.uleb128 0x1
 7973 21c6 51       		.byte	0x51
 7974 21c7 01       		.uleb128 0x1
 7975 21c8 3E       		.byte	0x3e
 7976 21c9 00       		.byte	0
 7977 21ca 2E       		.uleb128 0x2e
ARM GAS  C:\Users\haske\AppData\Local\Temp\ccOQHbDo.s 			page 174


 7978 21cb 74000000 		.4byte	.LVL19
 7979 21cf D7200000 		.4byte	0x20d7
 7980 21d3 DE210000 		.4byte	0x21de
 7981 21d7 2F       		.uleb128 0x2f
 7982 21d8 01       		.uleb128 0x1
 7983 21d9 50       		.byte	0x50
 7984 21da 02       		.uleb128 0x2
 7985 21db 74       		.byte	0x74
 7986 21dc 00       		.sleb128 0
 7987 21dd 00       		.byte	0
 7988 21de 2E       		.uleb128 0x2e
 7989 21df 8A000000 		.4byte	.LVL22
 7990 21e3 A0380000 		.4byte	0x38a0
 7991 21e7 F1210000 		.4byte	0x21f1
 7992 21eb 2F       		.uleb128 0x2f
 7993 21ec 01       		.uleb128 0x1
 7994 21ed 51       		.byte	0x51
 7995 21ee 01       		.uleb128 0x1
 7996 21ef 3F       		.byte	0x3f
 7997 21f0 00       		.byte	0
 7998 21f1 2E       		.uleb128 0x2e
 7999 21f2 90000000 		.4byte	.LVL23
 8000 21f6 D7200000 		.4byte	0x20d7
 8001 21fa 05220000 		.4byte	0x2205
 8002 21fe 2F       		.uleb128 0x2f
 8003 21ff 01       		.uleb128 0x1
 8004 2200 50       		.byte	0x50
 8005 2201 02       		.uleb128 0x2
 8006 2202 74       		.byte	0x74
 8007 2203 00       		.sleb128 0
 8008 2204 00       		.byte	0
 8009 2205 2E       		.uleb128 0x2e
 8010 2206 A4000000 		.4byte	.LVL26
 8011 220a A0380000 		.4byte	0x38a0
 8012 220e 18220000 		.4byte	0x2218
 8013 2212 2F       		.uleb128 0x2f
 8014 2213 01       		.uleb128 0x1
 8015 2214 51       		.byte	0x51
 8016 2215 01       		.uleb128 0x1
 8017 2216 3F       		.byte	0x3f
 8018 2217 00       		.byte	0
 8019 2218 2E       		.uleb128 0x2e
 8020 2219 AA000000 		.4byte	.LVL27
 8021 221d D7200000 		.4byte	0x20d7
 8022 2221 2C220000 		.4byte	0x222c
 8023 2225 2F       		.uleb128 0x2f
 8024 2226 01       		.uleb128 0x1
 8025 2227 50       		.byte	0x50
 8026 2228 02       		.uleb128 0x2
 8027 2229 74       		.byte	0x74
 8028 222a 00       		.sleb128 0
 8029 222b 00       		.byte	0
 8030 222c 2E       		.uleb128 0x2e
 8031 222d B8000000 		.4byte	.LVL30
 8032 2231 A0380000 		.4byte	0x38a0
 8033 2235 3F220000 		.4byte	0x223f
 8034 2239 2F       		.uleb128 0x2f
ARM GAS  C:\Users\haske\AppData\Local\Temp\ccOQHbDo.s 			page 175


 8035 223a 01       		.uleb128 0x1
 8036 223b 51       		.byte	0x51
 8037 223c 01       		.uleb128 0x1
 8038 223d 40       		.byte	0x40
 8039 223e 00       		.byte	0
 8040 223f 2E       		.uleb128 0x2e
 8041 2240 BE000000 		.4byte	.LVL31
 8042 2244 D7200000 		.4byte	0x20d7
 8043 2248 53220000 		.4byte	0x2253
 8044 224c 2F       		.uleb128 0x2f
 8045 224d 01       		.uleb128 0x1
 8046 224e 50       		.byte	0x50
 8047 224f 02       		.uleb128 0x2
 8048 2250 74       		.byte	0x74
 8049 2251 00       		.sleb128 0
 8050 2252 00       		.byte	0
 8051 2253 30       		.uleb128 0x30
 8052 2254 CA000000 		.4byte	.LVL32
 8053 2258 95380000 		.4byte	0x3895
 8054 225c 2E       		.uleb128 0x2e
 8055 225d D0000000 		.4byte	.LVL33
 8056 2261 D7200000 		.4byte	0x20d7
 8057 2265 70220000 		.4byte	0x2270
 8058 2269 2F       		.uleb128 0x2f
 8059 226a 01       		.uleb128 0x1
 8060 226b 50       		.byte	0x50
 8061 226c 02       		.uleb128 0x2
 8062 226d 74       		.byte	0x74
 8063 226e 00       		.sleb128 0
 8064 226f 00       		.byte	0
 8065 2270 2E       		.uleb128 0x2e
 8066 2271 E0000000 		.4byte	.LVL35
 8067 2275 A0380000 		.4byte	0x38a0
 8068 2279 83220000 		.4byte	0x2283
 8069 227d 2F       		.uleb128 0x2f
 8070 227e 01       		.uleb128 0x1
 8071 227f 51       		.byte	0x51
 8072 2280 01       		.uleb128 0x1
 8073 2281 3E       		.byte	0x3e
 8074 2282 00       		.byte	0
 8075 2283 31       		.uleb128 0x31
 8076 2284 E6000000 		.4byte	.LVL36
 8077 2288 D7200000 		.4byte	0x20d7
 8078 228c 2F       		.uleb128 0x2f
 8079 228d 01       		.uleb128 0x1
 8080 228e 50       		.byte	0x50
 8081 228f 02       		.uleb128 0x2
 8082 2290 74       		.byte	0x74
 8083 2291 00       		.sleb128 0
 8084 2292 00       		.byte	0
 8085 2293 00       		.byte	0
 8086 2294 29       		.uleb128 0x29
 8087 2295 F31D0000 		.4byte	.LASF597
 8088 2299 01       		.byte	0x1
 8089 229a 6004     		.2byte	0x460
 8090 229c 00000000 		.4byte	.LFB192
 8091 22a0 04010000 		.4byte	.LFE192-.LFB192
ARM GAS  C:\Users\haske\AppData\Local\Temp\ccOQHbDo.s 			page 176


 8092 22a4 01       		.uleb128 0x1
 8093 22a5 9C       		.byte	0x9c
 8094 22a6 23230000 		.4byte	0x2323
 8095 22aa 2C       		.uleb128 0x2c
 8096 22ab 4B0C0000 		.4byte	.LASF425
 8097 22af 01       		.byte	0x1
 8098 22b0 6004     		.2byte	0x460
 8099 22b2 02210000 		.4byte	0x2102
 8100 22b6 AA000000 		.4byte	.LLST4
 8101 22ba 2D       		.uleb128 0x2d
 8102 22bb B81F0000 		.4byte	.LASF598
 8103 22bf 01       		.byte	0x1
 8104 22c0 6604     		.2byte	0x466
 8105 22c2 3B200000 		.4byte	0x203b
 8106 22c6 D6000000 		.4byte	.LLST5
 8107 22ca 2E       		.uleb128 0x2e
 8108 22cb 1E000000 		.4byte	.LVL42
 8109 22cf AB380000 		.4byte	0x38ab
 8110 22d3 DE220000 		.4byte	0x22de
 8111 22d7 2F       		.uleb128 0x2f
 8112 22d8 01       		.uleb128 0x1
 8113 22d9 50       		.byte	0x50
 8114 22da 02       		.uleb128 0x2
 8115 22db 74       		.byte	0x74
 8116 22dc 00       		.sleb128 0
 8117 22dd 00       		.byte	0
 8118 22de 2E       		.uleb128 0x2e
 8119 22df 2C000000 		.4byte	.LVL44
 8120 22e3 7D380000 		.4byte	0x387d
 8121 22e7 F9220000 		.4byte	0x22f9
 8122 22eb 2F       		.uleb128 0x2f
 8123 22ec 01       		.uleb128 0x1
 8124 22ed 50       		.byte	0x50
 8125 22ee 02       		.uleb128 0x2
 8126 22ef 74       		.byte	0x74
 8127 22f0 00       		.sleb128 0
 8128 22f1 2F       		.uleb128 0x2f
 8129 22f2 01       		.uleb128 0x1
 8130 22f3 51       		.byte	0x51
 8131 22f4 03       		.uleb128 0x3
 8132 22f5 0A       		.byte	0xa
 8133 22f6 0080     		.2byte	0x8000
 8134 22f8 00       		.byte	0
 8135 22f9 2E       		.uleb128 0x2e
 8136 22fa F6000000 		.4byte	.LVL45
 8137 22fe A0380000 		.4byte	0x38a0
 8138 2302 12230000 		.4byte	0x2312
 8139 2306 2F       		.uleb128 0x2f
 8140 2307 01       		.uleb128 0x1
 8141 2308 50       		.byte	0x50
 8142 2309 02       		.uleb128 0x2
 8143 230a 74       		.byte	0x74
 8144 230b 00       		.sleb128 0
 8145 230c 2F       		.uleb128 0x2f
 8146 230d 01       		.uleb128 0x1
 8147 230e 51       		.byte	0x51
 8148 230f 01       		.uleb128 0x1
ARM GAS  C:\Users\haske\AppData\Local\Temp\ccOQHbDo.s 			page 177


 8149 2310 3C       		.byte	0x3c
 8150 2311 00       		.byte	0
 8151 2312 31       		.uleb128 0x31
 8152 2313 FC000000 		.4byte	.LVL46
 8153 2317 D7200000 		.4byte	0x20d7
 8154 231b 2F       		.uleb128 0x2f
 8155 231c 01       		.uleb128 0x1
 8156 231d 50       		.byte	0x50
 8157 231e 02       		.uleb128 0x2
 8158 231f 75       		.byte	0x75
 8159 2320 00       		.sleb128 0
 8160 2321 00       		.byte	0
 8161 2322 00       		.byte	0
 8162 2323 29       		.uleb128 0x29
 8163 2324 0D1E0000 		.4byte	.LASF599
 8164 2328 01       		.byte	0x1
 8165 2329 B603     		.2byte	0x3b6
 8166 232b 00000000 		.4byte	.LFB189
 8167 232f 2C010000 		.4byte	.LFE189-.LFB189
 8168 2333 01       		.uleb128 0x1
 8169 2334 9C       		.byte	0x9c
 8170 2335 65250000 		.4byte	0x2565
 8171 2339 2C       		.uleb128 0x2c
 8172 233a 4B0C0000 		.4byte	.LASF425
 8173 233e 01       		.byte	0x1
 8174 233f B603     		.2byte	0x3b6
 8175 2341 02210000 		.4byte	0x2102
 8176 2345 E9000000 		.4byte	.LLST6
 8177 2349 2D       		.uleb128 0x2d
 8178 234a EF040000 		.4byte	.LASF405
 8179 234e 01       		.byte	0x1
 8180 234f C303     		.2byte	0x3c3
 8181 2351 3B200000 		.4byte	0x203b
 8182 2355 15010000 		.4byte	.LLST7
 8183 2359 32       		.uleb128 0x32
 8184 235a 98000000 		.4byte	.LBB7
 8185 235e 7C000000 		.4byte	.LBE7-.LBB7
 8186 2362 A4240000 		.4byte	0x24a4
 8187 2366 2D       		.uleb128 0x2d
 8188 2367 F8130000 		.4byte	.LASF234
 8189 236b 01       		.byte	0x1
 8190 236c DF03     		.2byte	0x3df
 8191 236e C3000000 		.4byte	0xc3
 8192 2372 28010000 		.4byte	.LLST8
 8193 2376 2D       		.uleb128 0x2d
 8194 2377 74020000 		.4byte	.LASF235
 8195 237b 01       		.byte	0x1
 8196 237c E003     		.2byte	0x3e0
 8197 237e C3000000 		.4byte	0xc3
 8198 2382 52010000 		.4byte	.LLST9
 8199 2386 33       		.uleb128 0x33
 8200 2387 121F0000 		.4byte	.LASF236
 8201 238b 01       		.byte	0x1
 8202 238c E103     		.2byte	0x3e1
 8203 238e 29010000 		.4byte	0x129
 8204 2392 02       		.uleb128 0x2
 8205 2393 91       		.byte	0x91
ARM GAS  C:\Users\haske\AppData\Local\Temp\ccOQHbDo.s 			page 178


 8206 2394 64       		.sleb128 -28
 8207 2395 2D       		.uleb128 0x2d
 8208 2396 760F0000 		.4byte	.LASF183
 8209 239a 01       		.byte	0x1
 8210 239b E203     		.2byte	0x3e2
 8211 239d 3B200000 		.4byte	0x203b
 8212 23a1 7E010000 		.4byte	.LLST10
 8213 23a5 34       		.uleb128 0x34
 8214 23a6 7C200000 		.4byte	0x207c
 8215 23aa AA000000 		.4byte	.LBB8
 8216 23ae 0A000000 		.4byte	.LBE8-.LBB8
 8217 23b2 01       		.byte	0x1
 8218 23b3 E403     		.2byte	0x3e4
 8219 23b5 F6230000 		.4byte	0x23f6
 8220 23b9 35       		.uleb128 0x35
 8221 23ba 97200000 		.4byte	0x2097
 8222 23be 9C010000 		.4byte	.LLST11
 8223 23c2 35       		.uleb128 0x35
 8224 23c3 8C200000 		.4byte	0x208c
 8225 23c7 B0010000 		.4byte	.LLST12
 8226 23cb 36       		.uleb128 0x36
 8227 23cc AA000000 		.4byte	.LBB9
 8228 23d0 0A000000 		.4byte	.LBE9-.LBB9
 8229 23d4 37       		.uleb128 0x37
 8230 23d5 A2200000 		.4byte	0x20a2
 8231 23d9 31       		.uleb128 0x31
 8232 23da B4000000 		.4byte	.LVL61
 8233 23de B6380000 		.4byte	0x38b6
 8234 23e2 2F       		.uleb128 0x2f
 8235 23e3 01       		.uleb128 0x1
 8236 23e4 50       		.byte	0x50
 8237 23e5 02       		.uleb128 0x2
 8238 23e6 74       		.byte	0x74
 8239 23e7 00       		.sleb128 0
 8240 23e8 2F       		.uleb128 0x2f
 8241 23e9 01       		.uleb128 0x1
 8242 23ea 51       		.byte	0x51
 8243 23eb 01       		.uleb128 0x1
 8244 23ec 30       		.byte	0x30
 8245 23ed 2F       		.uleb128 0x2f
 8246 23ee 01       		.uleb128 0x1
 8247 23ef 52       		.byte	0x52
 8248 23f0 02       		.uleb128 0x2
 8249 23f1 08       		.byte	0x8
 8250 23f2 6D       		.byte	0x6d
 8251 23f3 00       		.byte	0
 8252 23f4 00       		.byte	0
 8253 23f5 00       		.byte	0
 8254 23f6 34       		.uleb128 0x34
 8255 23f7 41200000 		.4byte	0x2041
 8256 23fb B8000000 		.4byte	.LBB10
 8257 23ff 0C000000 		.4byte	.LBE10-.LBB10
 8258 2403 01       		.byte	0x1
 8259 2404 E503     		.2byte	0x3e5
 8260 2406 47240000 		.4byte	0x2447
 8261 240a 35       		.uleb128 0x35
 8262 240b 5C200000 		.4byte	0x205c
ARM GAS  C:\Users\haske\AppData\Local\Temp\ccOQHbDo.s 			page 179


 8263 240f C3010000 		.4byte	.LLST13
 8264 2413 35       		.uleb128 0x35
 8265 2414 51200000 		.4byte	0x2051
 8266 2418 D7010000 		.4byte	.LLST14
 8267 241c 36       		.uleb128 0x36
 8268 241d B8000000 		.4byte	.LBB11
 8269 2421 0C000000 		.4byte	.LBE11-.LBB11
 8270 2425 37       		.uleb128 0x37
 8271 2426 67200000 		.4byte	0x2067
 8272 242a 31       		.uleb128 0x31
 8273 242b C2000000 		.4byte	.LVL63
 8274 242f B6380000 		.4byte	0x38b6
 8275 2433 2F       		.uleb128 0x2f
 8276 2434 01       		.uleb128 0x1
 8277 2435 50       		.byte	0x50
 8278 2436 02       		.uleb128 0x2
 8279 2437 74       		.byte	0x74
 8280 2438 00       		.sleb128 0
 8281 2439 2F       		.uleb128 0x2f
 8282 243a 01       		.uleb128 0x1
 8283 243b 51       		.byte	0x51
 8284 243c 01       		.uleb128 0x1
 8285 243d 30       		.byte	0x30
 8286 243e 2F       		.uleb128 0x2f
 8287 243f 01       		.uleb128 0x1
 8288 2440 52       		.byte	0x52
 8289 2441 02       		.uleb128 0x2
 8290 2442 08       		.byte	0x8
 8291 2443 6C       		.byte	0x6c
 8292 2444 00       		.byte	0
 8293 2445 00       		.byte	0
 8294 2446 00       		.byte	0
 8295 2447 2E       		.uleb128 0x2e
 8296 2448 DA000000 		.4byte	.LVL66
 8297 244c AB380000 		.4byte	0x38ab
 8298 2450 5B240000 		.4byte	0x245b
 8299 2454 2F       		.uleb128 0x2f
 8300 2455 01       		.uleb128 0x1
 8301 2456 50       		.byte	0x50
 8302 2457 02       		.uleb128 0x2
 8303 2458 74       		.byte	0x74
 8304 2459 00       		.sleb128 0
 8305 245a 00       		.byte	0
 8306 245b 2E       		.uleb128 0x2e
 8307 245c 06010000 		.4byte	.LVL72
 8308 2460 C1380000 		.4byte	0x38c1
 8309 2464 81240000 		.4byte	0x2481
 8310 2468 2F       		.uleb128 0x2f
 8311 2469 01       		.uleb128 0x1
 8312 246a 50       		.byte	0x50
 8313 246b 02       		.uleb128 0x2
 8314 246c 76       		.byte	0x76
 8315 246d 1C       		.sleb128 28
 8316 246e 2F       		.uleb128 0x2f
 8317 246f 01       		.uleb128 0x1
 8318 2470 51       		.byte	0x51
 8319 2471 02       		.uleb128 0x2
ARM GAS  C:\Users\haske\AppData\Local\Temp\ccOQHbDo.s 			page 180


 8320 2472 75       		.byte	0x75
 8321 2473 00       		.sleb128 0
 8322 2474 2F       		.uleb128 0x2f
 8323 2475 01       		.uleb128 0x1
 8324 2476 52       		.byte	0x52
 8325 2477 02       		.uleb128 0x2
 8326 2478 78       		.byte	0x78
 8327 2479 00       		.sleb128 0
 8328 247a 2F       		.uleb128 0x2f
 8329 247b 01       		.uleb128 0x1
 8330 247c 53       		.byte	0x53
 8331 247d 02       		.uleb128 0x2
 8332 247e 91       		.byte	0x91
 8333 247f 64       		.sleb128 -28
 8334 2480 00       		.byte	0
 8335 2481 31       		.uleb128 0x31
 8336 2482 14010000 		.4byte	.LVL73
 8337 2486 C1380000 		.4byte	0x38c1
 8338 248a 2F       		.uleb128 0x2f
 8339 248b 01       		.uleb128 0x1
 8340 248c 50       		.byte	0x50
 8341 248d 02       		.uleb128 0x2
 8342 248e 76       		.byte	0x76
 8343 248f 20       		.sleb128 32
 8344 2490 2F       		.uleb128 0x2f
 8345 2491 01       		.uleb128 0x1
 8346 2492 51       		.byte	0x51
 8347 2493 02       		.uleb128 0x2
 8348 2494 75       		.byte	0x75
 8349 2495 00       		.sleb128 0
 8350 2496 2F       		.uleb128 0x2f
 8351 2497 01       		.uleb128 0x1
 8352 2498 52       		.byte	0x52
 8353 2499 02       		.uleb128 0x2
 8354 249a 78       		.byte	0x78
 8355 249b 00       		.sleb128 0
 8356 249c 2F       		.uleb128 0x2f
 8357 249d 01       		.uleb128 0x1
 8358 249e 53       		.byte	0x53
 8359 249f 02       		.uleb128 0x2
 8360 24a0 91       		.byte	0x91
 8361 24a1 64       		.sleb128 -28
 8362 24a2 00       		.byte	0
 8363 24a3 00       		.byte	0
 8364 24a4 2E       		.uleb128 0x2e
 8365 24a5 1C000000 		.4byte	.LVL49
 8366 24a9 A0380000 		.4byte	0x38a0
 8367 24ad B7240000 		.4byte	0x24b7
 8368 24b1 2F       		.uleb128 0x2f
 8369 24b2 01       		.uleb128 0x1
 8370 24b3 51       		.byte	0x51
 8371 24b4 01       		.uleb128 0x1
 8372 24b5 33       		.byte	0x33
 8373 24b6 00       		.byte	0
 8374 24b7 2E       		.uleb128 0x2e
 8375 24b8 22000000 		.4byte	.LVL50
 8376 24bc D7200000 		.4byte	0x20d7
ARM GAS  C:\Users\haske\AppData\Local\Temp\ccOQHbDo.s 			page 181


 8377 24c0 CB240000 		.4byte	0x24cb
 8378 24c4 2F       		.uleb128 0x2f
 8379 24c5 01       		.uleb128 0x1
 8380 24c6 50       		.byte	0x50
 8381 24c7 02       		.uleb128 0x2
 8382 24c8 76       		.byte	0x76
 8383 24c9 00       		.sleb128 0
 8384 24ca 00       		.byte	0
 8385 24cb 2E       		.uleb128 0x2e
 8386 24cc 4C000000 		.4byte	.LVL52
 8387 24d0 A0380000 		.4byte	0x38a0
 8388 24d4 DE240000 		.4byte	0x24de
 8389 24d8 2F       		.uleb128 0x2f
 8390 24d9 01       		.uleb128 0x1
 8391 24da 51       		.byte	0x51
 8392 24db 01       		.uleb128 0x1
 8393 24dc 38       		.byte	0x38
 8394 24dd 00       		.byte	0
 8395 24de 2E       		.uleb128 0x2e
 8396 24df 52000000 		.4byte	.LVL53
 8397 24e3 D7200000 		.4byte	0x20d7
 8398 24e7 F2240000 		.4byte	0x24f2
 8399 24eb 2F       		.uleb128 0x2f
 8400 24ec 01       		.uleb128 0x1
 8401 24ed 50       		.byte	0x50
 8402 24ee 02       		.uleb128 0x2
 8403 24ef 76       		.byte	0x76
 8404 24f0 00       		.sleb128 0
 8405 24f1 00       		.byte	0
 8406 24f2 2E       		.uleb128 0x2e
 8407 24f3 6C000000 		.4byte	.LVL54
 8408 24f7 A0380000 		.4byte	0x38a0
 8409 24fb 05250000 		.4byte	0x2505
 8410 24ff 2F       		.uleb128 0x2f
 8411 2500 01       		.uleb128 0x1
 8412 2501 51       		.byte	0x51
 8413 2502 01       		.uleb128 0x1
 8414 2503 34       		.byte	0x34
 8415 2504 00       		.byte	0
 8416 2505 2E       		.uleb128 0x2e
 8417 2506 72000000 		.4byte	.LVL55
 8418 250a D7200000 		.4byte	0x20d7
 8419 250e 19250000 		.4byte	0x2519
 8420 2512 2F       		.uleb128 0x2f
 8421 2513 01       		.uleb128 0x1
 8422 2514 50       		.byte	0x50
 8423 2515 02       		.uleb128 0x2
 8424 2516 76       		.byte	0x76
 8425 2517 00       		.sleb128 0
 8426 2518 00       		.byte	0
 8427 2519 2E       		.uleb128 0x2e
 8428 251a 82000000 		.4byte	.LVL56
 8429 251e A0380000 		.4byte	0x38a0
 8430 2522 2C250000 		.4byte	0x252c
 8431 2526 2F       		.uleb128 0x2f
 8432 2527 01       		.uleb128 0x1
 8433 2528 51       		.byte	0x51
ARM GAS  C:\Users\haske\AppData\Local\Temp\ccOQHbDo.s 			page 182


 8434 2529 01       		.uleb128 0x1
 8435 252a 37       		.byte	0x37
 8436 252b 00       		.byte	0
 8437 252c 2E       		.uleb128 0x2e
 8438 252d 88000000 		.4byte	.LVL57
 8439 2531 D7200000 		.4byte	0x20d7
 8440 2535 40250000 		.4byte	0x2540
 8441 2539 2F       		.uleb128 0x2f
 8442 253a 01       		.uleb128 0x1
 8443 253b 50       		.byte	0x50
 8444 253c 02       		.uleb128 0x2
 8445 253d 76       		.byte	0x76
 8446 253e 00       		.sleb128 0
 8447 253f 00       		.byte	0
 8448 2540 2E       		.uleb128 0x2e
 8449 2541 1C010000 		.4byte	.LVL74
 8450 2545 CC380000 		.4byte	0x38cc
 8451 2549 54250000 		.4byte	0x2554
 8452 254d 2F       		.uleb128 0x2f
 8453 254e 01       		.uleb128 0x1
 8454 254f 50       		.byte	0x50
 8455 2550 02       		.uleb128 0x2
 8456 2551 76       		.byte	0x76
 8457 2552 00       		.sleb128 0
 8458 2553 00       		.byte	0
 8459 2554 31       		.uleb128 0x31
 8460 2555 22010000 		.4byte	.LVL75
 8461 2559 D7200000 		.4byte	0x20d7
 8462 255d 2F       		.uleb128 0x2f
 8463 255e 01       		.uleb128 0x1
 8464 255f 50       		.byte	0x50
 8465 2560 02       		.uleb128 0x2
 8466 2561 76       		.byte	0x76
 8467 2562 00       		.sleb128 0
 8468 2563 00       		.byte	0
 8469 2564 00       		.byte	0
 8470 2565 29       		.uleb128 0x29
 8471 2566 47120000 		.4byte	.LASF600
 8472 256a 01       		.byte	0x1
 8473 256b 8C01     		.2byte	0x18c
 8474 256d 00000000 		.4byte	.LFB185
 8475 2571 90020000 		.4byte	.LFE185-.LFB185
 8476 2575 01       		.uleb128 0x1
 8477 2576 9C       		.byte	0x9c
 8478 2577 06290000 		.4byte	0x2906
 8479 257b 38       		.uleb128 0x38
 8480 257c 6900     		.ascii	"i\000"
 8481 257e 01       		.byte	0x1
 8482 257f 8C01     		.2byte	0x18c
 8483 2581 D1200000 		.4byte	0x20d1
 8484 2585 EA010000 		.4byte	.LLST15
 8485 2589 2C       		.uleb128 0x2c
 8486 258a C2270000 		.4byte	.LASF601
 8487 258e 01       		.byte	0x1
 8488 258f 8C01     		.2byte	0x18c
 8489 2591 88170000 		.4byte	0x1788
 8490 2595 46020000 		.4byte	.LLST16
ARM GAS  C:\Users\haske\AppData\Local\Temp\ccOQHbDo.s 			page 183


 8491 2599 39       		.uleb128 0x39
 8492 259a 6700     		.ascii	"g\000"
 8493 259c 01       		.byte	0x1
 8494 259d 9701     		.2byte	0x197
 8495 259f DC1F0000 		.4byte	0x1fdc
 8496 25a3 72020000 		.4byte	.LLST17
 8497 25a7 39       		.uleb128 0x39
 8498 25a8 64697300 		.ascii	"dis\000"
 8499 25ac 01       		.byte	0x1
 8500 25ad 9D01     		.2byte	0x19d
 8501 25af E7020000 		.4byte	0x2e7
 8502 25b3 85020000 		.4byte	.LLST18
 8503 25b7 2D       		.uleb128 0x2d
 8504 25b8 53200000 		.4byte	.LASF602
 8505 25bc 01       		.byte	0x1
 8506 25bd A001     		.2byte	0x1a0
 8507 25bf E4000000 		.4byte	0xe4
 8508 25c3 98020000 		.4byte	.LLST19
 8509 25c7 2D       		.uleb128 0x2d
 8510 25c8 341F0000 		.4byte	.LASF603
 8511 25cc 01       		.byte	0x1
 8512 25cd A901     		.2byte	0x1a9
 8513 25cf E4000000 		.4byte	0xe4
 8514 25d3 CD020000 		.4byte	.LLST20
 8515 25d7 2E       		.uleb128 0x2e
 8516 25d8 3E000000 		.4byte	.LVL80
 8517 25dc D7380000 		.4byte	0x38d7
 8518 25e0 EB250000 		.4byte	0x25eb
 8519 25e4 2F       		.uleb128 0x2f
 8520 25e5 01       		.uleb128 0x1
 8521 25e6 50       		.byte	0x50
 8522 25e7 02       		.uleb128 0x2
 8523 25e8 76       		.byte	0x76
 8524 25e9 00       		.sleb128 0
 8525 25ea 00       		.byte	0
 8526 25eb 2E       		.uleb128 0x2e
 8527 25ec 4E000000 		.4byte	.LVL81
 8528 25f0 E2380000 		.4byte	0x38e2
 8529 25f4 FF250000 		.4byte	0x25ff
 8530 25f8 2F       		.uleb128 0x2f
 8531 25f9 01       		.uleb128 0x1
 8532 25fa 51       		.byte	0x51
 8533 25fb 02       		.uleb128 0x2
 8534 25fc 08       		.byte	0x8
 8535 25fd 80       		.byte	0x80
 8536 25fe 00       		.byte	0
 8537 25ff 30       		.uleb128 0x30
 8538 2600 6A000000 		.4byte	.LVL85
 8539 2604 EE380000 		.4byte	0x38ee
 8540 2608 2E       		.uleb128 0x2e
 8541 2609 7A000000 		.4byte	.LVL86
 8542 260d F9380000 		.4byte	0x38f9
 8543 2611 21260000 		.4byte	0x2621
 8544 2615 2F       		.uleb128 0x2f
 8545 2616 01       		.uleb128 0x1
 8546 2617 50       		.byte	0x50
 8547 2618 02       		.uleb128 0x2
ARM GAS  C:\Users\haske\AppData\Local\Temp\ccOQHbDo.s 			page 184


 8548 2619 76       		.byte	0x76
 8549 261a 00       		.sleb128 0
 8550 261b 2F       		.uleb128 0x2f
 8551 261c 01       		.uleb128 0x1
 8552 261d 51       		.byte	0x51
 8553 261e 01       		.uleb128 0x1
 8554 261f 30       		.byte	0x30
 8555 2620 00       		.byte	0
 8556 2621 2E       		.uleb128 0x2e
 8557 2622 80000000 		.4byte	.LVL87
 8558 2626 04390000 		.4byte	0x3904
 8559 262a 35260000 		.4byte	0x2635
 8560 262e 2F       		.uleb128 0x2f
 8561 262f 01       		.uleb128 0x1
 8562 2630 50       		.byte	0x50
 8563 2631 02       		.uleb128 0x2
 8564 2632 76       		.byte	0x76
 8565 2633 00       		.sleb128 0
 8566 2634 00       		.byte	0
 8567 2635 2E       		.uleb128 0x2e
 8568 2636 86000000 		.4byte	.LVL88
 8569 263a D7200000 		.4byte	0x20d7
 8570 263e 49260000 		.4byte	0x2649
 8571 2642 2F       		.uleb128 0x2f
 8572 2643 01       		.uleb128 0x1
 8573 2644 50       		.byte	0x50
 8574 2645 02       		.uleb128 0x2
 8575 2646 74       		.byte	0x74
 8576 2647 04       		.sleb128 4
 8577 2648 00       		.byte	0
 8578 2649 2E       		.uleb128 0x2e
 8579 264a 9A000000 		.4byte	.LVL90
 8580 264e F9380000 		.4byte	0x38f9
 8581 2652 62260000 		.4byte	0x2662
 8582 2656 2F       		.uleb128 0x2f
 8583 2657 01       		.uleb128 0x1
 8584 2658 50       		.byte	0x50
 8585 2659 02       		.uleb128 0x2
 8586 265a 76       		.byte	0x76
 8587 265b 00       		.sleb128 0
 8588 265c 2F       		.uleb128 0x2f
 8589 265d 01       		.uleb128 0x1
 8590 265e 51       		.byte	0x51
 8591 265f 01       		.uleb128 0x1
 8592 2660 30       		.byte	0x30
 8593 2661 00       		.byte	0
 8594 2662 2E       		.uleb128 0x2e
 8595 2663 A0000000 		.4byte	.LVL91
 8596 2667 0F390000 		.4byte	0x390f
 8597 266b 76260000 		.4byte	0x2676
 8598 266f 2F       		.uleb128 0x2f
 8599 2670 01       		.uleb128 0x1
 8600 2671 50       		.byte	0x50
 8601 2672 02       		.uleb128 0x2
 8602 2673 76       		.byte	0x76
 8603 2674 00       		.sleb128 0
 8604 2675 00       		.byte	0
ARM GAS  C:\Users\haske\AppData\Local\Temp\ccOQHbDo.s 			page 185


 8605 2676 2E       		.uleb128 0x2e
 8606 2677 A6000000 		.4byte	.LVL92
 8607 267b D7200000 		.4byte	0x20d7
 8608 267f 8A260000 		.4byte	0x268a
 8609 2683 2F       		.uleb128 0x2f
 8610 2684 01       		.uleb128 0x1
 8611 2685 50       		.byte	0x50
 8612 2686 02       		.uleb128 0x2
 8613 2687 74       		.byte	0x74
 8614 2688 04       		.sleb128 4
 8615 2689 00       		.byte	0
 8616 268a 2E       		.uleb128 0x2e
 8617 268b BE000000 		.4byte	.LVL94
 8618 268f 1A390000 		.4byte	0x391a
 8619 2693 9E260000 		.4byte	0x269e
 8620 2697 2F       		.uleb128 0x2f
 8621 2698 01       		.uleb128 0x1
 8622 2699 50       		.byte	0x50
 8623 269a 02       		.uleb128 0x2
 8624 269b 76       		.byte	0x76
 8625 269c 00       		.sleb128 0
 8626 269d 00       		.byte	0
 8627 269e 2E       		.uleb128 0x2e
 8628 269f C6000000 		.4byte	.LVL96
 8629 26a3 D7200000 		.4byte	0x20d7
 8630 26a7 B2260000 		.4byte	0x26b2
 8631 26ab 2F       		.uleb128 0x2f
 8632 26ac 01       		.uleb128 0x1
 8633 26ad 50       		.byte	0x50
 8634 26ae 02       		.uleb128 0x2
 8635 26af 74       		.byte	0x74
 8636 26b0 00       		.sleb128 0
 8637 26b1 00       		.byte	0
 8638 26b2 2E       		.uleb128 0x2e
 8639 26b3 DA000000 		.4byte	.LVL97
 8640 26b7 A0380000 		.4byte	0x38a0
 8641 26bb C5260000 		.4byte	0x26c5
 8642 26bf 2F       		.uleb128 0x2f
 8643 26c0 01       		.uleb128 0x1
 8644 26c1 51       		.byte	0x51
 8645 26c2 01       		.uleb128 0x1
 8646 26c3 31       		.byte	0x31
 8647 26c4 00       		.byte	0
 8648 26c5 2E       		.uleb128 0x2e
 8649 26c6 E0000000 		.4byte	.LVL98
 8650 26ca D7200000 		.4byte	0x20d7
 8651 26ce D9260000 		.4byte	0x26d9
 8652 26d2 2F       		.uleb128 0x2f
 8653 26d3 01       		.uleb128 0x1
 8654 26d4 50       		.byte	0x50
 8655 26d5 02       		.uleb128 0x2
 8656 26d6 74       		.byte	0x74
 8657 26d7 00       		.sleb128 0
 8658 26d8 00       		.byte	0
 8659 26d9 2E       		.uleb128 0x2e
 8660 26da F2000000 		.4byte	.LVL100
 8661 26de 1A390000 		.4byte	0x391a
ARM GAS  C:\Users\haske\AppData\Local\Temp\ccOQHbDo.s 			page 186


 8662 26e2 ED260000 		.4byte	0x26ed
 8663 26e6 2F       		.uleb128 0x2f
 8664 26e7 01       		.uleb128 0x1
 8665 26e8 50       		.byte	0x50
 8666 26e9 02       		.uleb128 0x2
 8667 26ea 76       		.byte	0x76
 8668 26eb 00       		.sleb128 0
 8669 26ec 00       		.byte	0
 8670 26ed 2E       		.uleb128 0x2e
 8671 26ee FA000000 		.4byte	.LVL102
 8672 26f2 D7200000 		.4byte	0x20d7
 8673 26f6 01270000 		.4byte	0x2701
 8674 26fa 2F       		.uleb128 0x2f
 8675 26fb 01       		.uleb128 0x1
 8676 26fc 50       		.byte	0x50
 8677 26fd 02       		.uleb128 0x2
 8678 26fe 74       		.byte	0x74
 8679 26ff 00       		.sleb128 0
 8680 2700 00       		.byte	0
 8681 2701 2E       		.uleb128 0x2e
 8682 2702 0C010000 		.4byte	.LVL103
 8683 2706 A0380000 		.4byte	0x38a0
 8684 270a 15270000 		.4byte	0x2715
 8685 270e 2F       		.uleb128 0x2f
 8686 270f 01       		.uleb128 0x1
 8687 2710 51       		.byte	0x51
 8688 2711 02       		.uleb128 0x2
 8689 2712 08       		.byte	0x8
 8690 2713 20       		.byte	0x20
 8691 2714 00       		.byte	0
 8692 2715 2E       		.uleb128 0x2e
 8693 2716 12010000 		.4byte	.LVL104
 8694 271a D7200000 		.4byte	0x20d7
 8695 271e 29270000 		.4byte	0x2729
 8696 2722 2F       		.uleb128 0x2f
 8697 2723 01       		.uleb128 0x1
 8698 2724 50       		.byte	0x50
 8699 2725 02       		.uleb128 0x2
 8700 2726 74       		.byte	0x74
 8701 2727 00       		.sleb128 0
 8702 2728 00       		.byte	0
 8703 2729 2E       		.uleb128 0x2e
 8704 272a 20010000 		.4byte	.LVL106
 8705 272e 1A390000 		.4byte	0x391a
 8706 2732 3D270000 		.4byte	0x273d
 8707 2736 2F       		.uleb128 0x2f
 8708 2737 01       		.uleb128 0x1
 8709 2738 50       		.byte	0x50
 8710 2739 02       		.uleb128 0x2
 8711 273a 76       		.byte	0x76
 8712 273b 00       		.sleb128 0
 8713 273c 00       		.byte	0
 8714 273d 2E       		.uleb128 0x2e
 8715 273e 26010000 		.4byte	.LVL107
 8716 2742 D7200000 		.4byte	0x20d7
 8717 2746 51270000 		.4byte	0x2751
 8718 274a 2F       		.uleb128 0x2f
ARM GAS  C:\Users\haske\AppData\Local\Temp\ccOQHbDo.s 			page 187


 8719 274b 01       		.uleb128 0x1
 8720 274c 50       		.byte	0x50
 8721 274d 02       		.uleb128 0x2
 8722 274e 74       		.byte	0x74
 8723 274f 04       		.sleb128 4
 8724 2750 00       		.byte	0
 8725 2751 2E       		.uleb128 0x2e
 8726 2752 4C010000 		.4byte	.LVL111
 8727 2756 A0380000 		.4byte	0x38a0
 8728 275a 64270000 		.4byte	0x2764
 8729 275e 2F       		.uleb128 0x2f
 8730 275f 01       		.uleb128 0x1
 8731 2760 51       		.byte	0x51
 8732 2761 01       		.uleb128 0x1
 8733 2762 32       		.byte	0x32
 8734 2763 00       		.byte	0
 8735 2764 2E       		.uleb128 0x2e
 8736 2765 52010000 		.4byte	.LVL112
 8737 2769 D7200000 		.4byte	0x20d7
 8738 276d 78270000 		.4byte	0x2778
 8739 2771 2F       		.uleb128 0x2f
 8740 2772 01       		.uleb128 0x1
 8741 2773 50       		.byte	0x50
 8742 2774 02       		.uleb128 0x2
 8743 2775 74       		.byte	0x74
 8744 2776 04       		.sleb128 4
 8745 2777 00       		.byte	0
 8746 2778 30       		.uleb128 0x30
 8747 2779 66010000 		.4byte	.LVL113
 8748 277d 25390000 		.4byte	0x3925
 8749 2781 30       		.uleb128 0x30
 8750 2782 82010000 		.4byte	.LVL114
 8751 2786 EE380000 		.4byte	0x38ee
 8752 278a 2E       		.uleb128 0x2e
 8753 278b 90010000 		.4byte	.LVL115
 8754 278f A0380000 		.4byte	0x38a0
 8755 2793 9D270000 		.4byte	0x279d
 8756 2797 2F       		.uleb128 0x2f
 8757 2798 01       		.uleb128 0x1
 8758 2799 51       		.byte	0x51
 8759 279a 01       		.uleb128 0x1
 8760 279b 35       		.byte	0x35
 8761 279c 00       		.byte	0
 8762 279d 2E       		.uleb128 0x2e
 8763 279e 96010000 		.4byte	.LVL116
 8764 27a2 D7200000 		.4byte	0x20d7
 8765 27a6 B1270000 		.4byte	0x27b1
 8766 27aa 2F       		.uleb128 0x2f
 8767 27ab 01       		.uleb128 0x1
 8768 27ac 50       		.byte	0x50
 8769 27ad 02       		.uleb128 0x2
 8770 27ae 74       		.byte	0x74
 8771 27af 04       		.sleb128 4
 8772 27b0 00       		.byte	0
 8773 27b1 30       		.uleb128 0x30
 8774 27b2 AA010000 		.4byte	.LVL118
 8775 27b6 25390000 		.4byte	0x3925
ARM GAS  C:\Users\haske\AppData\Local\Temp\ccOQHbDo.s 			page 188


 8776 27ba 30       		.uleb128 0x30
 8777 27bb B6010000 		.4byte	.LVL119
 8778 27bf EE380000 		.4byte	0x38ee
 8779 27c3 2E       		.uleb128 0x2e
 8780 27c4 CA010000 		.4byte	.LVL120
 8781 27c8 A0380000 		.4byte	0x38a0
 8782 27cc D6270000 		.4byte	0x27d6
 8783 27d0 2F       		.uleb128 0x2f
 8784 27d1 01       		.uleb128 0x1
 8785 27d2 51       		.byte	0x51
 8786 27d3 01       		.uleb128 0x1
 8787 27d4 36       		.byte	0x36
 8788 27d5 00       		.byte	0
 8789 27d6 2E       		.uleb128 0x2e
 8790 27d7 D0010000 		.4byte	.LVL121
 8791 27db D7200000 		.4byte	0x20d7
 8792 27df EA270000 		.4byte	0x27ea
 8793 27e3 2F       		.uleb128 0x2f
 8794 27e4 01       		.uleb128 0x1
 8795 27e5 50       		.byte	0x50
 8796 27e6 02       		.uleb128 0x2
 8797 27e7 74       		.byte	0x74
 8798 27e8 04       		.sleb128 4
 8799 27e9 00       		.byte	0
 8800 27ea 2E       		.uleb128 0x2e
 8801 27eb E2010000 		.4byte	.LVL123
 8802 27ef F9380000 		.4byte	0x38f9
 8803 27f3 03280000 		.4byte	0x2803
 8804 27f7 2F       		.uleb128 0x2f
 8805 27f8 01       		.uleb128 0x1
 8806 27f9 50       		.byte	0x50
 8807 27fa 02       		.uleb128 0x2
 8808 27fb 76       		.byte	0x76
 8809 27fc 00       		.sleb128 0
 8810 27fd 2F       		.uleb128 0x2f
 8811 27fe 01       		.uleb128 0x1
 8812 27ff 51       		.byte	0x51
 8813 2800 01       		.uleb128 0x1
 8814 2801 30       		.byte	0x30
 8815 2802 00       		.byte	0
 8816 2803 2E       		.uleb128 0x2e
 8817 2804 E8010000 		.4byte	.LVL124
 8818 2808 04390000 		.4byte	0x3904
 8819 280c 17280000 		.4byte	0x2817
 8820 2810 2F       		.uleb128 0x2f
 8821 2811 01       		.uleb128 0x1
 8822 2812 50       		.byte	0x50
 8823 2813 02       		.uleb128 0x2
 8824 2814 76       		.byte	0x76
 8825 2815 00       		.sleb128 0
 8826 2816 00       		.byte	0
 8827 2817 2E       		.uleb128 0x2e
 8828 2818 EE010000 		.4byte	.LVL125
 8829 281c D7200000 		.4byte	0x20d7
 8830 2820 2B280000 		.4byte	0x282b
 8831 2824 2F       		.uleb128 0x2f
 8832 2825 01       		.uleb128 0x1
ARM GAS  C:\Users\haske\AppData\Local\Temp\ccOQHbDo.s 			page 189


 8833 2826 50       		.byte	0x50
 8834 2827 02       		.uleb128 0x2
 8835 2828 74       		.byte	0x74
 8836 2829 04       		.sleb128 4
 8837 282a 00       		.byte	0
 8838 282b 2E       		.uleb128 0x2e
 8839 282c 00020000 		.4byte	.LVL127
 8840 2830 F9380000 		.4byte	0x38f9
 8841 2834 44280000 		.4byte	0x2844
 8842 2838 2F       		.uleb128 0x2f
 8843 2839 01       		.uleb128 0x1
 8844 283a 50       		.byte	0x50
 8845 283b 02       		.uleb128 0x2
 8846 283c 76       		.byte	0x76
 8847 283d 00       		.sleb128 0
 8848 283e 2F       		.uleb128 0x2f
 8849 283f 01       		.uleb128 0x1
 8850 2840 51       		.byte	0x51
 8851 2841 01       		.uleb128 0x1
 8852 2842 30       		.byte	0x30
 8853 2843 00       		.byte	0
 8854 2844 2E       		.uleb128 0x2e
 8855 2845 06020000 		.4byte	.LVL128
 8856 2849 0F390000 		.4byte	0x390f
 8857 284d 58280000 		.4byte	0x2858
 8858 2851 2F       		.uleb128 0x2f
 8859 2852 01       		.uleb128 0x1
 8860 2853 50       		.byte	0x50
 8861 2854 02       		.uleb128 0x2
 8862 2855 76       		.byte	0x76
 8863 2856 00       		.sleb128 0
 8864 2857 00       		.byte	0
 8865 2858 2E       		.uleb128 0x2e
 8866 2859 0C020000 		.4byte	.LVL129
 8867 285d D7200000 		.4byte	0x20d7
 8868 2861 6C280000 		.4byte	0x286c
 8869 2865 2F       		.uleb128 0x2f
 8870 2866 01       		.uleb128 0x1
 8871 2867 50       		.byte	0x50
 8872 2868 02       		.uleb128 0x2
 8873 2869 74       		.byte	0x74
 8874 286a 04       		.sleb128 4
 8875 286b 00       		.byte	0
 8876 286c 2E       		.uleb128 0x2e
 8877 286d 18020000 		.4byte	.LVL131
 8878 2871 1A390000 		.4byte	0x391a
 8879 2875 80280000 		.4byte	0x2880
 8880 2879 2F       		.uleb128 0x2f
 8881 287a 01       		.uleb128 0x1
 8882 287b 50       		.byte	0x50
 8883 287c 02       		.uleb128 0x2
 8884 287d 76       		.byte	0x76
 8885 287e 00       		.sleb128 0
 8886 287f 00       		.byte	0
 8887 2880 2E       		.uleb128 0x2e
 8888 2881 1E020000 		.4byte	.LVL132
 8889 2885 D7200000 		.4byte	0x20d7
ARM GAS  C:\Users\haske\AppData\Local\Temp\ccOQHbDo.s 			page 190


 8890 2889 94280000 		.4byte	0x2894
 8891 288d 2F       		.uleb128 0x2f
 8892 288e 01       		.uleb128 0x1
 8893 288f 50       		.byte	0x50
 8894 2890 02       		.uleb128 0x2
 8895 2891 74       		.byte	0x74
 8896 2892 04       		.sleb128 4
 8897 2893 00       		.byte	0
 8898 2894 2E       		.uleb128 0x2e
 8899 2895 3C020000 		.4byte	.LVL136
 8900 2899 A0380000 		.4byte	0x38a0
 8901 289d A7280000 		.4byte	0x28a7
 8902 28a1 2F       		.uleb128 0x2f
 8903 28a2 01       		.uleb128 0x1
 8904 28a3 51       		.byte	0x51
 8905 28a4 01       		.uleb128 0x1
 8906 28a5 38       		.byte	0x38
 8907 28a6 00       		.byte	0
 8908 28a7 2E       		.uleb128 0x2e
 8909 28a8 44020000 		.4byte	.LVL138
 8910 28ac D7200000 		.4byte	0x20d7
 8911 28b0 BB280000 		.4byte	0x28bb
 8912 28b4 2F       		.uleb128 0x2f
 8913 28b5 01       		.uleb128 0x1
 8914 28b6 50       		.byte	0x50
 8915 28b7 02       		.uleb128 0x2
 8916 28b8 75       		.byte	0x75
 8917 28b9 00       		.sleb128 0
 8918 28ba 00       		.byte	0
 8919 28bb 2E       		.uleb128 0x2e
 8920 28bc 5A020000 		.4byte	.LVL139
 8921 28c0 A0380000 		.4byte	0x38a0
 8922 28c4 CE280000 		.4byte	0x28ce
 8923 28c8 2F       		.uleb128 0x2f
 8924 28c9 01       		.uleb128 0x1
 8925 28ca 51       		.byte	0x51
 8926 28cb 01       		.uleb128 0x1
 8927 28cc 34       		.byte	0x34
 8928 28cd 00       		.byte	0
 8929 28ce 2E       		.uleb128 0x2e
 8930 28cf 60020000 		.4byte	.LVL140
 8931 28d3 D7200000 		.4byte	0x20d7
 8932 28d7 E2280000 		.4byte	0x28e2
 8933 28db 2F       		.uleb128 0x2f
 8934 28dc 01       		.uleb128 0x1
 8935 28dd 50       		.byte	0x50
 8936 28de 02       		.uleb128 0x2
 8937 28df 75       		.byte	0x75
 8938 28e0 00       		.sleb128 0
 8939 28e1 00       		.byte	0
 8940 28e2 2E       		.uleb128 0x2e
 8941 28e3 6E020000 		.4byte	.LVL141
 8942 28e7 A0380000 		.4byte	0x38a0
 8943 28eb F5280000 		.4byte	0x28f5
 8944 28ef 2F       		.uleb128 0x2f
 8945 28f0 01       		.uleb128 0x1
 8946 28f1 51       		.byte	0x51
ARM GAS  C:\Users\haske\AppData\Local\Temp\ccOQHbDo.s 			page 191


 8947 28f2 01       		.uleb128 0x1
 8948 28f3 37       		.byte	0x37
 8949 28f4 00       		.byte	0
 8950 28f5 31       		.uleb128 0x31
 8951 28f6 74020000 		.4byte	.LVL142
 8952 28fa D7200000 		.4byte	0x20d7
 8953 28fe 2F       		.uleb128 0x2f
 8954 28ff 01       		.uleb128 0x1
 8955 2900 50       		.byte	0x50
 8956 2901 02       		.uleb128 0x2
 8957 2902 75       		.byte	0x75
 8958 2903 00       		.sleb128 0
 8959 2904 00       		.byte	0
 8960 2905 00       		.byte	0
 8961 2906 29       		.uleb128 0x29
 8962 2907 50070000 		.4byte	.LASF604
 8963 290b 01       		.byte	0x1
 8964 290c 2302     		.2byte	0x223
 8965 290e 00000000 		.4byte	.LFB186
 8966 2912 24040000 		.4byte	.LFE186-.LFB186
 8967 2916 01       		.uleb128 0x1
 8968 2917 9C       		.byte	0x9c
 8969 2918 1F2E0000 		.4byte	0x2e1f
 8970 291c 38       		.uleb128 0x38
 8971 291d 6900     		.ascii	"i\000"
 8972 291f 01       		.byte	0x1
 8973 2920 2302     		.2byte	0x223
 8974 2922 D1200000 		.4byte	0x20d1
 8975 2926 F6020000 		.4byte	.LLST21
 8976 292a 2C       		.uleb128 0x2c
 8977 292b C2270000 		.4byte	.LASF601
 8978 292f 01       		.byte	0x1
 8979 2930 2302     		.2byte	0x223
 8980 2932 88170000 		.4byte	0x1788
 8981 2936 3B030000 		.4byte	.LLST22
 8982 293a 2D       		.uleb128 0x2d
 8983 293b A8050000 		.4byte	.LASF412
 8984 293f 01       		.byte	0x1
 8985 2940 3002     		.2byte	0x230
 8986 2942 6E160000 		.4byte	0x166e
 8987 2946 80030000 		.4byte	.LLST23
 8988 294a 39       		.uleb128 0x39
 8989 294b 6700     		.ascii	"g\000"
 8990 294d 01       		.byte	0x1
 8991 294e 3402     		.2byte	0x234
 8992 2950 DC1F0000 		.4byte	0x1fdc
 8993 2954 BF030000 		.4byte	.LLST24
 8994 2958 32       		.uleb128 0x32
 8995 2959 80000000 		.4byte	.LBB12
 8996 295d 4A000000 		.4byte	.LBE12-.LBB12
 8997 2961 C9290000 		.4byte	0x29c9
 8998 2965 2D       		.uleb128 0x2d
 8999 2966 F1030000 		.4byte	.LASF605
 9000 296a 01       		.byte	0x1
 9001 296b 4A02     		.2byte	0x24a
 9002 296d E7020000 		.4byte	0x2e7
 9003 2971 DD030000 		.4byte	.LLST25
ARM GAS  C:\Users\haske\AppData\Local\Temp\ccOQHbDo.s 			page 192


 9004 2975 30       		.uleb128 0x30
 9005 2976 88000000 		.4byte	.LVL152
 9006 297a 30390000 		.4byte	0x3930
 9007 297e 2E       		.uleb128 0x2e
 9008 297f 94000000 		.4byte	.LVL153
 9009 2983 7D380000 		.4byte	0x387d
 9010 2987 91290000 		.4byte	0x2991
 9011 298b 2F       		.uleb128 0x2f
 9012 298c 01       		.uleb128 0x1
 9013 298d 51       		.byte	0x51
 9014 298e 01       		.uleb128 0x1
 9015 298f 40       		.byte	0x40
 9016 2990 00       		.byte	0
 9017 2991 2E       		.uleb128 0x2e
 9018 2992 A8000000 		.4byte	.LVL155
 9019 2996 3B390000 		.4byte	0x393b
 9020 299a A5290000 		.4byte	0x29a5
 9021 299e 2F       		.uleb128 0x2f
 9022 299f 01       		.uleb128 0x1
 9023 29a0 50       		.byte	0x50
 9024 29a1 02       		.uleb128 0x2
 9025 29a2 76       		.byte	0x76
 9026 29a3 00       		.sleb128 0
 9027 29a4 00       		.byte	0
 9028 29a5 2E       		.uleb128 0x2e
 9029 29a6 BC000000 		.4byte	.LVL156
 9030 29aa A0380000 		.4byte	0x38a0
 9031 29ae B8290000 		.4byte	0x29b8
 9032 29b2 2F       		.uleb128 0x2f
 9033 29b3 01       		.uleb128 0x1
 9034 29b4 51       		.byte	0x51
 9035 29b5 01       		.uleb128 0x1
 9036 29b6 31       		.byte	0x31
 9037 29b7 00       		.byte	0
 9038 29b8 31       		.uleb128 0x31
 9039 29b9 C2000000 		.4byte	.LVL157
 9040 29bd D7200000 		.4byte	0x20d7
 9041 29c1 2F       		.uleb128 0x2f
 9042 29c2 01       		.uleb128 0x1
 9043 29c3 50       		.byte	0x50
 9044 29c4 02       		.uleb128 0x2
 9045 29c5 74       		.byte	0x74
 9046 29c6 04       		.sleb128 4
 9047 29c7 00       		.byte	0
 9048 29c8 00       		.byte	0
 9049 29c9 32       		.uleb128 0x32
 9050 29ca 62010000 		.4byte	.LBB13
 9051 29ce 64000000 		.4byte	.LBE13-.LBB13
 9052 29d2 762A0000 		.4byte	0x2a76
 9053 29d6 2D       		.uleb128 0x2d
 9054 29d7 F1030000 		.4byte	.LASF605
 9055 29db 01       		.byte	0x1
 9056 29dc 7002     		.2byte	0x270
 9057 29de E7020000 		.4byte	0x2e7
 9058 29e2 F0030000 		.4byte	.LLST26
 9059 29e6 30       		.uleb128 0x30
 9060 29e7 6A010000 		.4byte	.LVL170
ARM GAS  C:\Users\haske\AppData\Local\Temp\ccOQHbDo.s 			page 193


 9061 29eb 30390000 		.4byte	0x3930
 9062 29ef 2E       		.uleb128 0x2e
 9063 29f0 76010000 		.4byte	.LVL171
 9064 29f4 7D380000 		.4byte	0x387d
 9065 29f8 022A0000 		.4byte	0x2a02
 9066 29fc 2F       		.uleb128 0x2f
 9067 29fd 01       		.uleb128 0x1
 9068 29fe 51       		.byte	0x51
 9069 29ff 01       		.uleb128 0x1
 9070 2a00 40       		.byte	0x40
 9071 2a01 00       		.byte	0
 9072 2a02 2E       		.uleb128 0x2e
 9073 2a03 8A010000 		.4byte	.LVL173
 9074 2a07 46390000 		.4byte	0x3946
 9075 2a0b 162A0000 		.4byte	0x2a16
 9076 2a0f 2F       		.uleb128 0x2f
 9077 2a10 01       		.uleb128 0x1
 9078 2a11 50       		.byte	0x50
 9079 2a12 02       		.uleb128 0x2
 9080 2a13 76       		.byte	0x76
 9081 2a14 00       		.sleb128 0
 9082 2a15 00       		.byte	0
 9083 2a16 2E       		.uleb128 0x2e
 9084 2a17 94010000 		.4byte	.LVL174
 9085 2a1b 3B390000 		.4byte	0x393b
 9086 2a1f 2A2A0000 		.4byte	0x2a2a
 9087 2a23 2F       		.uleb128 0x2f
 9088 2a24 01       		.uleb128 0x1
 9089 2a25 50       		.byte	0x50
 9090 2a26 02       		.uleb128 0x2
 9091 2a27 76       		.byte	0x76
 9092 2a28 00       		.sleb128 0
 9093 2a29 00       		.byte	0
 9094 2a2a 2E       		.uleb128 0x2e
 9095 2a2b A2010000 		.4byte	.LVL175
 9096 2a2f F9380000 		.4byte	0x38f9
 9097 2a33 3E2A0000 		.4byte	0x2a3e
 9098 2a37 2F       		.uleb128 0x2f
 9099 2a38 01       		.uleb128 0x1
 9100 2a39 50       		.byte	0x50
 9101 2a3a 02       		.uleb128 0x2
 9102 2a3b 76       		.byte	0x76
 9103 2a3c 00       		.sleb128 0
 9104 2a3d 00       		.byte	0
 9105 2a3e 2E       		.uleb128 0x2e
 9106 2a3f AC010000 		.4byte	.LVL176
 9107 2a43 52390000 		.4byte	0x3952
 9108 2a47 522A0000 		.4byte	0x2a52
 9109 2a4b 2F       		.uleb128 0x2f
 9110 2a4c 01       		.uleb128 0x1
 9111 2a4d 51       		.byte	0x51
 9112 2a4e 02       		.uleb128 0x2
 9113 2a4f 08       		.byte	0x8
 9114 2a50 20       		.byte	0x20
 9115 2a51 00       		.byte	0
 9116 2a52 2E       		.uleb128 0x2e
 9117 2a53 BA010000 		.4byte	.LVL179
ARM GAS  C:\Users\haske\AppData\Local\Temp\ccOQHbDo.s 			page 194


 9118 2a57 A0380000 		.4byte	0x38a0
 9119 2a5b 652A0000 		.4byte	0x2a65
 9120 2a5f 2F       		.uleb128 0x2f
 9121 2a60 01       		.uleb128 0x1
 9122 2a61 51       		.byte	0x51
 9123 2a62 01       		.uleb128 0x1
 9124 2a63 35       		.byte	0x35
 9125 2a64 00       		.byte	0
 9126 2a65 31       		.uleb128 0x31
 9127 2a66 C0010000 		.4byte	.LVL180
 9128 2a6a D7200000 		.4byte	0x20d7
 9129 2a6e 2F       		.uleb128 0x2f
 9130 2a6f 01       		.uleb128 0x1
 9131 2a70 50       		.byte	0x50
 9132 2a71 02       		.uleb128 0x2
 9133 2a72 74       		.byte	0x74
 9134 2a73 04       		.sleb128 4
 9135 2a74 00       		.byte	0
 9136 2a75 00       		.byte	0
 9137 2a76 32       		.uleb128 0x32
 9138 2a77 54020000 		.4byte	.LBB14
 9139 2a7b 06010000 		.4byte	.LBE14-.LBB14
 9140 2a7f 182C0000 		.4byte	0x2c18
 9141 2a83 2D       		.uleb128 0x2d
 9142 2a84 F1030000 		.4byte	.LASF605
 9143 2a88 01       		.byte	0x1
 9144 2a89 A302     		.2byte	0x2a3
 9145 2a8b E7020000 		.4byte	0x2e7
 9146 2a8f 0E040000 		.4byte	.LLST27
 9147 2a93 30       		.uleb128 0x30
 9148 2a94 58020000 		.4byte	.LVL189
 9149 2a98 30390000 		.4byte	0x3930
 9150 2a9c 2E       		.uleb128 0x2e
 9151 2a9d 64020000 		.4byte	.LVL190
 9152 2aa1 7D380000 		.4byte	0x387d
 9153 2aa5 AF2A0000 		.4byte	0x2aaf
 9154 2aa9 2F       		.uleb128 0x2f
 9155 2aaa 01       		.uleb128 0x1
 9156 2aab 51       		.byte	0x51
 9157 2aac 01       		.uleb128 0x1
 9158 2aad 40       		.byte	0x40
 9159 2aae 00       		.byte	0
 9160 2aaf 2E       		.uleb128 0x2e
 9161 2ab0 7E020000 		.4byte	.LVL193
 9162 2ab4 A0380000 		.4byte	0x38a0
 9163 2ab8 C22A0000 		.4byte	0x2ac2
 9164 2abc 2F       		.uleb128 0x2f
 9165 2abd 01       		.uleb128 0x1
 9166 2abe 51       		.byte	0x51
 9167 2abf 01       		.uleb128 0x1
 9168 2ac0 38       		.byte	0x38
 9169 2ac1 00       		.byte	0
 9170 2ac2 2E       		.uleb128 0x2e
 9171 2ac3 86020000 		.4byte	.LVL195
 9172 2ac7 D7200000 		.4byte	0x20d7
 9173 2acb D62A0000 		.4byte	0x2ad6
 9174 2acf 2F       		.uleb128 0x2f
ARM GAS  C:\Users\haske\AppData\Local\Temp\ccOQHbDo.s 			page 195


 9175 2ad0 01       		.uleb128 0x1
 9176 2ad1 50       		.byte	0x50
 9177 2ad2 02       		.uleb128 0x2
 9178 2ad3 77       		.byte	0x77
 9179 2ad4 00       		.sleb128 0
 9180 2ad5 00       		.byte	0
 9181 2ad6 2E       		.uleb128 0x2e
 9182 2ad7 A0020000 		.4byte	.LVL196
 9183 2adb A0380000 		.4byte	0x38a0
 9184 2adf E92A0000 		.4byte	0x2ae9
 9185 2ae3 2F       		.uleb128 0x2f
 9186 2ae4 01       		.uleb128 0x1
 9187 2ae5 51       		.byte	0x51
 9188 2ae6 01       		.uleb128 0x1
 9189 2ae7 34       		.byte	0x34
 9190 2ae8 00       		.byte	0
 9191 2ae9 2E       		.uleb128 0x2e
 9192 2aea A6020000 		.4byte	.LVL197
 9193 2aee D7200000 		.4byte	0x20d7
 9194 2af2 FD2A0000 		.4byte	0x2afd
 9195 2af6 2F       		.uleb128 0x2f
 9196 2af7 01       		.uleb128 0x1
 9197 2af8 50       		.byte	0x50
 9198 2af9 02       		.uleb128 0x2
 9199 2afa 77       		.byte	0x77
 9200 2afb 00       		.sleb128 0
 9201 2afc 00       		.byte	0
 9202 2afd 2E       		.uleb128 0x2e
 9203 2afe B8020000 		.4byte	.LVL198
 9204 2b02 A0380000 		.4byte	0x38a0
 9205 2b06 102B0000 		.4byte	0x2b10
 9206 2b0a 2F       		.uleb128 0x2f
 9207 2b0b 01       		.uleb128 0x1
 9208 2b0c 51       		.byte	0x51
 9209 2b0d 01       		.uleb128 0x1
 9210 2b0e 37       		.byte	0x37
 9211 2b0f 00       		.byte	0
 9212 2b10 2E       		.uleb128 0x2e
 9213 2b11 BE020000 		.4byte	.LVL199
 9214 2b15 D7200000 		.4byte	0x20d7
 9215 2b19 242B0000 		.4byte	0x2b24
 9216 2b1d 2F       		.uleb128 0x2f
 9217 2b1e 01       		.uleb128 0x1
 9218 2b1f 50       		.byte	0x50
 9219 2b20 02       		.uleb128 0x2
 9220 2b21 77       		.byte	0x77
 9221 2b22 00       		.sleb128 0
 9222 2b23 00       		.byte	0
 9223 2b24 2E       		.uleb128 0x2e
 9224 2b25 CE020000 		.4byte	.LVL202
 9225 2b29 3B390000 		.4byte	0x393b
 9226 2b2d 382B0000 		.4byte	0x2b38
 9227 2b31 2F       		.uleb128 0x2f
 9228 2b32 01       		.uleb128 0x1
 9229 2b33 50       		.byte	0x50
 9230 2b34 02       		.uleb128 0x2
 9231 2b35 76       		.byte	0x76
ARM GAS  C:\Users\haske\AppData\Local\Temp\ccOQHbDo.s 			page 196


 9232 2b36 00       		.sleb128 0
 9233 2b37 00       		.byte	0
 9234 2b38 2E       		.uleb128 0x2e
 9235 2b39 E0020000 		.4byte	.LVL203
 9236 2b3d 46390000 		.4byte	0x3946
 9237 2b41 4C2B0000 		.4byte	0x2b4c
 9238 2b45 2F       		.uleb128 0x2f
 9239 2b46 01       		.uleb128 0x1
 9240 2b47 50       		.byte	0x50
 9241 2b48 02       		.uleb128 0x2
 9242 2b49 76       		.byte	0x76
 9243 2b4a 00       		.sleb128 0
 9244 2b4b 00       		.byte	0
 9245 2b4c 2E       		.uleb128 0x2e
 9246 2b4d F0020000 		.4byte	.LVL204
 9247 2b51 A0380000 		.4byte	0x38a0
 9248 2b55 5F2B0000 		.4byte	0x2b5f
 9249 2b59 2F       		.uleb128 0x2f
 9250 2b5a 01       		.uleb128 0x1
 9251 2b5b 51       		.byte	0x51
 9252 2b5c 01       		.uleb128 0x1
 9253 2b5d 38       		.byte	0x38
 9254 2b5e 00       		.byte	0
 9255 2b5f 2E       		.uleb128 0x2e
 9256 2b60 F8020000 		.4byte	.LVL206
 9257 2b64 D7200000 		.4byte	0x20d7
 9258 2b68 732B0000 		.4byte	0x2b73
 9259 2b6c 2F       		.uleb128 0x2f
 9260 2b6d 01       		.uleb128 0x1
 9261 2b6e 50       		.byte	0x50
 9262 2b6f 02       		.uleb128 0x2
 9263 2b70 77       		.byte	0x77
 9264 2b71 00       		.sleb128 0
 9265 2b72 00       		.byte	0
 9266 2b73 2E       		.uleb128 0x2e
 9267 2b74 0A030000 		.4byte	.LVL207
 9268 2b78 A0380000 		.4byte	0x38a0
 9269 2b7c 862B0000 		.4byte	0x2b86
 9270 2b80 2F       		.uleb128 0x2f
 9271 2b81 01       		.uleb128 0x1
 9272 2b82 51       		.byte	0x51
 9273 2b83 01       		.uleb128 0x1
 9274 2b84 34       		.byte	0x34
 9275 2b85 00       		.byte	0
 9276 2b86 2E       		.uleb128 0x2e
 9277 2b87 10030000 		.4byte	.LVL208
 9278 2b8b D7200000 		.4byte	0x20d7
 9279 2b8f 9A2B0000 		.4byte	0x2b9a
 9280 2b93 2F       		.uleb128 0x2f
 9281 2b94 01       		.uleb128 0x1
 9282 2b95 50       		.byte	0x50
 9283 2b96 02       		.uleb128 0x2
 9284 2b97 77       		.byte	0x77
 9285 2b98 00       		.sleb128 0
 9286 2b99 00       		.byte	0
 9287 2b9a 2E       		.uleb128 0x2e
 9288 2b9b 22030000 		.4byte	.LVL209
ARM GAS  C:\Users\haske\AppData\Local\Temp\ccOQHbDo.s 			page 197


 9289 2b9f A0380000 		.4byte	0x38a0
 9290 2ba3 AD2B0000 		.4byte	0x2bad
 9291 2ba7 2F       		.uleb128 0x2f
 9292 2ba8 01       		.uleb128 0x1
 9293 2ba9 51       		.byte	0x51
 9294 2baa 01       		.uleb128 0x1
 9295 2bab 37       		.byte	0x37
 9296 2bac 00       		.byte	0
 9297 2bad 2E       		.uleb128 0x2e
 9298 2bae 28030000 		.4byte	.LVL210
 9299 2bb2 D7200000 		.4byte	0x20d7
 9300 2bb6 C12B0000 		.4byte	0x2bc1
 9301 2bba 2F       		.uleb128 0x2f
 9302 2bbb 01       		.uleb128 0x1
 9303 2bbc 50       		.byte	0x50
 9304 2bbd 02       		.uleb128 0x2
 9305 2bbe 77       		.byte	0x77
 9306 2bbf 00       		.sleb128 0
 9307 2bc0 00       		.byte	0
 9308 2bc1 2E       		.uleb128 0x2e
 9309 2bc2 34030000 		.4byte	.LVL211
 9310 2bc6 1A390000 		.4byte	0x391a
 9311 2bca DA2B0000 		.4byte	0x2bda
 9312 2bce 2F       		.uleb128 0x2f
 9313 2bcf 01       		.uleb128 0x1
 9314 2bd0 50       		.byte	0x50
 9315 2bd1 02       		.uleb128 0x2
 9316 2bd2 76       		.byte	0x76
 9317 2bd3 00       		.sleb128 0
 9318 2bd4 2F       		.uleb128 0x2f
 9319 2bd5 01       		.uleb128 0x1
 9320 2bd6 51       		.byte	0x51
 9321 2bd7 01       		.uleb128 0x1
 9322 2bd8 3A       		.byte	0x3a
 9323 2bd9 00       		.byte	0
 9324 2bda 2E       		.uleb128 0x2e
 9325 2bdb 3A030000 		.4byte	.LVL212
 9326 2bdf D7200000 		.4byte	0x20d7
 9327 2be3 EE2B0000 		.4byte	0x2bee
 9328 2be7 2F       		.uleb128 0x2f
 9329 2be8 01       		.uleb128 0x1
 9330 2be9 50       		.byte	0x50
 9331 2bea 02       		.uleb128 0x2
 9332 2beb 77       		.byte	0x77
 9333 2bec 00       		.sleb128 0
 9334 2bed 00       		.byte	0
 9335 2bee 2E       		.uleb128 0x2e
 9336 2bef 48030000 		.4byte	.LVL214
 9337 2bf3 52390000 		.4byte	0x3952
 9338 2bf7 022C0000 		.4byte	0x2c02
 9339 2bfb 2F       		.uleb128 0x2f
 9340 2bfc 01       		.uleb128 0x1
 9341 2bfd 51       		.byte	0x51
 9342 2bfe 02       		.uleb128 0x2
 9343 2bff 08       		.byte	0x8
 9344 2c00 20       		.byte	0x20
 9345 2c01 00       		.byte	0
ARM GAS  C:\Users\haske\AppData\Local\Temp\ccOQHbDo.s 			page 198


 9346 2c02 31       		.uleb128 0x31
 9347 2c03 5A030000 		.4byte	.LVL215
 9348 2c07 F9380000 		.4byte	0x38f9
 9349 2c0b 2F       		.uleb128 0x2f
 9350 2c0c 01       		.uleb128 0x1
 9351 2c0d 50       		.byte	0x50
 9352 2c0e 02       		.uleb128 0x2
 9353 2c0f 76       		.byte	0x76
 9354 2c10 00       		.sleb128 0
 9355 2c11 2F       		.uleb128 0x2f
 9356 2c12 01       		.uleb128 0x1
 9357 2c13 51       		.byte	0x51
 9358 2c14 01       		.uleb128 0x1
 9359 2c15 31       		.byte	0x31
 9360 2c16 00       		.byte	0
 9361 2c17 00       		.byte	0
 9362 2c18 32       		.uleb128 0x32
 9363 2c19 7C030000 		.4byte	.LBB15
 9364 2c1d 54000000 		.4byte	.LBE15-.LBB15
 9365 2c21 8A2C0000 		.4byte	0x2c8a
 9366 2c25 39       		.uleb128 0x39
 9367 2c26 7300     		.ascii	"s\000"
 9368 2c28 01       		.byte	0x1
 9369 2c29 D802     		.2byte	0x2d8
 9370 2c2b D9000000 		.4byte	0xd9
 9371 2c2f 2C040000 		.4byte	.LLST28
 9372 2c33 2E       		.uleb128 0x2e
 9373 2c34 8E030000 		.4byte	.LVL218
 9374 2c38 1A390000 		.4byte	0x391a
 9375 2c3c 4C2C0000 		.4byte	0x2c4c
 9376 2c40 2F       		.uleb128 0x2f
 9377 2c41 01       		.uleb128 0x1
 9378 2c42 50       		.byte	0x50
 9379 2c43 02       		.uleb128 0x2
 9380 2c44 76       		.byte	0x76
 9381 2c45 00       		.sleb128 0
 9382 2c46 2F       		.uleb128 0x2f
 9383 2c47 01       		.uleb128 0x1
 9384 2c48 51       		.byte	0x51
 9385 2c49 01       		.uleb128 0x1
 9386 2c4a 44       		.byte	0x44
 9387 2c4b 00       		.byte	0
 9388 2c4c 2E       		.uleb128 0x2e
 9389 2c4d 94030000 		.4byte	.LVL219
 9390 2c51 D7200000 		.4byte	0x20d7
 9391 2c55 602C0000 		.4byte	0x2c60
 9392 2c59 2F       		.uleb128 0x2f
 9393 2c5a 01       		.uleb128 0x1
 9394 2c5b 50       		.byte	0x50
 9395 2c5c 02       		.uleb128 0x2
 9396 2c5d 74       		.byte	0x74
 9397 2c5e 04       		.sleb128 4
 9398 2c5f 00       		.byte	0
 9399 2c60 2E       		.uleb128 0x2e
 9400 2c61 B8030000 		.4byte	.LVL225
 9401 2c65 1A390000 		.4byte	0x391a
 9402 2c69 792C0000 		.4byte	0x2c79
ARM GAS  C:\Users\haske\AppData\Local\Temp\ccOQHbDo.s 			page 199


 9403 2c6d 2F       		.uleb128 0x2f
 9404 2c6e 01       		.uleb128 0x1
 9405 2c6f 50       		.byte	0x50
 9406 2c70 02       		.uleb128 0x2
 9407 2c71 76       		.byte	0x76
 9408 2c72 00       		.sleb128 0
 9409 2c73 2F       		.uleb128 0x2f
 9410 2c74 01       		.uleb128 0x1
 9411 2c75 51       		.byte	0x51
 9412 2c76 01       		.uleb128 0x1
 9413 2c77 43       		.byte	0x43
 9414 2c78 00       		.byte	0
 9415 2c79 31       		.uleb128 0x31
 9416 2c7a BE030000 		.4byte	.LVL226
 9417 2c7e D7200000 		.4byte	0x20d7
 9418 2c82 2F       		.uleb128 0x2f
 9419 2c83 01       		.uleb128 0x1
 9420 2c84 50       		.byte	0x50
 9421 2c85 02       		.uleb128 0x2
 9422 2c86 74       		.byte	0x74
 9423 2c87 04       		.sleb128 4
 9424 2c88 00       		.byte	0
 9425 2c89 00       		.byte	0
 9426 2c8a 32       		.uleb128 0x32
 9427 2c8b D0030000 		.4byte	.LBB16
 9428 2c8f 54000000 		.4byte	.LBE16-.LBB16
 9429 2c93 F22C0000 		.4byte	0x2cf2
 9430 2c97 39       		.uleb128 0x39
 9431 2c98 7300     		.ascii	"s\000"
 9432 2c9a 01       		.byte	0x1
 9433 2c9b E902     		.2byte	0x2e9
 9434 2c9d D9000000 		.4byte	0xd9
 9435 2ca1 60040000 		.4byte	.LLST29
 9436 2ca5 2E       		.uleb128 0x2e
 9437 2ca6 E0030000 		.4byte	.LVL232
 9438 2caa 0F390000 		.4byte	0x390f
 9439 2cae B92C0000 		.4byte	0x2cb9
 9440 2cb2 2F       		.uleb128 0x2f
 9441 2cb3 01       		.uleb128 0x1
 9442 2cb4 50       		.byte	0x50
 9443 2cb5 02       		.uleb128 0x2
 9444 2cb6 76       		.byte	0x76
 9445 2cb7 00       		.sleb128 0
 9446 2cb8 00       		.byte	0
 9447 2cb9 2E       		.uleb128 0x2e
 9448 2cba E6030000 		.4byte	.LVL233
 9449 2cbe D7200000 		.4byte	0x20d7
 9450 2cc2 CD2C0000 		.4byte	0x2ccd
 9451 2cc6 2F       		.uleb128 0x2f
 9452 2cc7 01       		.uleb128 0x1
 9453 2cc8 50       		.byte	0x50
 9454 2cc9 02       		.uleb128 0x2
 9455 2cca 74       		.byte	0x74
 9456 2ccb 04       		.sleb128 4
 9457 2ccc 00       		.byte	0
 9458 2ccd 2E       		.uleb128 0x2e
 9459 2cce 06040000 		.4byte	.LVL239
ARM GAS  C:\Users\haske\AppData\Local\Temp\ccOQHbDo.s 			page 200


 9460 2cd2 04390000 		.4byte	0x3904
 9461 2cd6 E12C0000 		.4byte	0x2ce1
 9462 2cda 2F       		.uleb128 0x2f
 9463 2cdb 01       		.uleb128 0x1
 9464 2cdc 50       		.byte	0x50
 9465 2cdd 02       		.uleb128 0x2
 9466 2cde 76       		.byte	0x76
 9467 2cdf 00       		.sleb128 0
 9468 2ce0 00       		.byte	0
 9469 2ce1 31       		.uleb128 0x31
 9470 2ce2 0C040000 		.4byte	.LVL240
 9471 2ce6 D7200000 		.4byte	0x20d7
 9472 2cea 2F       		.uleb128 0x2f
 9473 2ceb 01       		.uleb128 0x1
 9474 2cec 50       		.byte	0x50
 9475 2ced 02       		.uleb128 0x2
 9476 2cee 74       		.byte	0x74
 9477 2cef 04       		.sleb128 4
 9478 2cf0 00       		.byte	0
 9479 2cf1 00       		.byte	0
 9480 2cf2 2E       		.uleb128 0x2e
 9481 2cf3 48000000 		.4byte	.LVL149
 9482 2cf7 D7380000 		.4byte	0x38d7
 9483 2cfb 062D0000 		.4byte	0x2d06
 9484 2cff 2F       		.uleb128 0x2f
 9485 2d00 01       		.uleb128 0x1
 9486 2d01 50       		.byte	0x50
 9487 2d02 02       		.uleb128 0x2
 9488 2d03 76       		.byte	0x76
 9489 2d04 00       		.sleb128 0
 9490 2d05 00       		.byte	0
 9491 2d06 2E       		.uleb128 0x2e
 9492 2d07 60000000 		.4byte	.LVL150
 9493 2d0b D7380000 		.4byte	0x38d7
 9494 2d0f 1A2D0000 		.4byte	0x2d1a
 9495 2d13 2F       		.uleb128 0x2f
 9496 2d14 01       		.uleb128 0x1
 9497 2d15 50       		.byte	0x50
 9498 2d16 02       		.uleb128 0x2
 9499 2d17 76       		.byte	0x76
 9500 2d18 00       		.sleb128 0
 9501 2d19 00       		.byte	0
 9502 2d1a 30       		.uleb128 0x30
 9503 2d1b 78000000 		.4byte	.LVL151
 9504 2d1f EE380000 		.4byte	0x38ee
 9505 2d23 2E       		.uleb128 0x2e
 9506 2d24 F0000000 		.4byte	.LVL159
 9507 2d28 1A390000 		.4byte	0x391a
 9508 2d2c 372D0000 		.4byte	0x2d37
 9509 2d30 2F       		.uleb128 0x2f
 9510 2d31 01       		.uleb128 0x1
 9511 2d32 50       		.byte	0x50
 9512 2d33 02       		.uleb128 0x2
 9513 2d34 76       		.byte	0x76
 9514 2d35 00       		.sleb128 0
 9515 2d36 00       		.byte	0
 9516 2d37 2E       		.uleb128 0x2e
ARM GAS  C:\Users\haske\AppData\Local\Temp\ccOQHbDo.s 			page 201


 9517 2d38 F8000000 		.4byte	.LVL161
 9518 2d3c D7200000 		.4byte	0x20d7
 9519 2d40 4B2D0000 		.4byte	0x2d4b
 9520 2d44 2F       		.uleb128 0x2f
 9521 2d45 01       		.uleb128 0x1
 9522 2d46 50       		.byte	0x50
 9523 2d47 02       		.uleb128 0x2
 9524 2d48 77       		.byte	0x77
 9525 2d49 00       		.sleb128 0
 9526 2d4a 00       		.byte	0
 9527 2d4b 2E       		.uleb128 0x2e
 9528 2d4c 0A010000 		.4byte	.LVL162
 9529 2d50 A0380000 		.4byte	0x38a0
 9530 2d54 5F2D0000 		.4byte	0x2d5f
 9531 2d58 2F       		.uleb128 0x2f
 9532 2d59 01       		.uleb128 0x1
 9533 2d5a 51       		.byte	0x51
 9534 2d5b 02       		.uleb128 0x2
 9535 2d5c 08       		.byte	0x8
 9536 2d5d 20       		.byte	0x20
 9537 2d5e 00       		.byte	0
 9538 2d5f 2E       		.uleb128 0x2e
 9539 2d60 10010000 		.4byte	.LVL163
 9540 2d64 D7200000 		.4byte	0x20d7
 9541 2d68 732D0000 		.4byte	0x2d73
 9542 2d6c 2F       		.uleb128 0x2f
 9543 2d6d 01       		.uleb128 0x1
 9544 2d6e 50       		.byte	0x50
 9545 2d6f 02       		.uleb128 0x2
 9546 2d70 77       		.byte	0x77
 9547 2d71 00       		.sleb128 0
 9548 2d72 00       		.byte	0
 9549 2d73 2E       		.uleb128 0x2e
 9550 2d74 1E010000 		.4byte	.LVL165
 9551 2d78 1A390000 		.4byte	0x391a
 9552 2d7c 872D0000 		.4byte	0x2d87
 9553 2d80 2F       		.uleb128 0x2f
 9554 2d81 01       		.uleb128 0x1
 9555 2d82 50       		.byte	0x50
 9556 2d83 02       		.uleb128 0x2
 9557 2d84 76       		.byte	0x76
 9558 2d85 00       		.sleb128 0
 9559 2d86 00       		.byte	0
 9560 2d87 2E       		.uleb128 0x2e
 9561 2d88 24010000 		.4byte	.LVL166
 9562 2d8c D7200000 		.4byte	0x20d7
 9563 2d90 9B2D0000 		.4byte	0x2d9b
 9564 2d94 2F       		.uleb128 0x2f
 9565 2d95 01       		.uleb128 0x1
 9566 2d96 50       		.byte	0x50
 9567 2d97 02       		.uleb128 0x2
 9568 2d98 74       		.byte	0x74
 9569 2d99 04       		.sleb128 4
 9570 2d9a 00       		.byte	0
 9571 2d9b 30       		.uleb128 0x30
 9572 2d9c 46010000 		.4byte	.LVL168
 9573 2da0 25390000 		.4byte	0x3925
ARM GAS  C:\Users\haske\AppData\Local\Temp\ccOQHbDo.s 			page 202


 9574 2da4 30       		.uleb128 0x30
 9575 2da5 5A010000 		.4byte	.LVL169
 9576 2da9 EE380000 		.4byte	0x38ee
 9577 2dad 30       		.uleb128 0x30
 9578 2dae E0010000 		.4byte	.LVL181
 9579 2db2 25390000 		.4byte	0x3925
 9580 2db6 30       		.uleb128 0x30
 9581 2db7 EE010000 		.4byte	.LVL182
 9582 2dbb EE380000 		.4byte	0x38ee
 9583 2dbf 2E       		.uleb128 0x2e
 9584 2dc0 02020000 		.4byte	.LVL183
 9585 2dc4 A0380000 		.4byte	0x38a0
 9586 2dc8 D22D0000 		.4byte	0x2dd2
 9587 2dcc 2F       		.uleb128 0x2f
 9588 2dcd 01       		.uleb128 0x1
 9589 2dce 51       		.byte	0x51
 9590 2dcf 01       		.uleb128 0x1
 9591 2dd0 36       		.byte	0x36
 9592 2dd1 00       		.byte	0
 9593 2dd2 2E       		.uleb128 0x2e
 9594 2dd3 08020000 		.4byte	.LVL184
 9595 2dd7 D7200000 		.4byte	0x20d7
 9596 2ddb E62D0000 		.4byte	0x2de6
 9597 2ddf 2F       		.uleb128 0x2f
 9598 2de0 01       		.uleb128 0x1
 9599 2de1 50       		.byte	0x50
 9600 2de2 02       		.uleb128 0x2
 9601 2de3 74       		.byte	0x74
 9602 2de4 04       		.sleb128 4
 9603 2de5 00       		.byte	0
 9604 2de6 2E       		.uleb128 0x2e
 9605 2de7 32020000 		.4byte	.LVL186
 9606 2deb 1A390000 		.4byte	0x391a
 9607 2def FA2D0000 		.4byte	0x2dfa
 9608 2df3 2F       		.uleb128 0x2f
 9609 2df4 01       		.uleb128 0x1
 9610 2df5 50       		.byte	0x50
 9611 2df6 02       		.uleb128 0x2
 9612 2df7 76       		.byte	0x76
 9613 2df8 00       		.sleb128 0
 9614 2df9 00       		.byte	0
 9615 2dfa 2E       		.uleb128 0x2e
 9616 2dfb 38020000 		.4byte	.LVL187
 9617 2dff D7200000 		.4byte	0x20d7
 9618 2e03 0E2E0000 		.4byte	0x2e0e
 9619 2e07 2F       		.uleb128 0x2f
 9620 2e08 01       		.uleb128 0x1
 9621 2e09 50       		.byte	0x50
 9622 2e0a 02       		.uleb128 0x2
 9623 2e0b 74       		.byte	0x74
 9624 2e0c 04       		.sleb128 4
 9625 2e0d 00       		.byte	0
 9626 2e0e 31       		.uleb128 0x31
 9627 2e0f 7A030000 		.4byte	.LVL216
 9628 2e13 3B390000 		.4byte	0x393b
 9629 2e17 2F       		.uleb128 0x2f
 9630 2e18 01       		.uleb128 0x1
ARM GAS  C:\Users\haske\AppData\Local\Temp\ccOQHbDo.s 			page 203


 9631 2e19 50       		.byte	0x50
 9632 2e1a 02       		.uleb128 0x2
 9633 2e1b 76       		.byte	0x76
 9634 2e1c 00       		.sleb128 0
 9635 2e1d 00       		.byte	0
 9636 2e1e 00       		.byte	0
 9637 2e1f 3A       		.uleb128 0x3a
 9638 2e20 7E260000 		.4byte	.LASF607
 9639 2e24 01       		.byte	0x1
 9640 2e25 7B       		.byte	0x7b
 9641 2e26 00000000 		.4byte	.LFB166
 9642 2e2a 30000000 		.4byte	.LFE166-.LFB166
 9643 2e2e 01       		.uleb128 0x1
 9644 2e2f 9C       		.byte	0x9c
 9645 2e30 922E0000 		.4byte	0x2e92
 9646 2e34 3B       		.uleb128 0x3b
 9647 2e35 DC0F0000 		.4byte	.LASF592
 9648 2e39 01       		.byte	0x1
 9649 2e3a 7B       		.byte	0x7b
 9650 2e3b D1200000 		.4byte	0x20d1
 9651 2e3f 94040000 		.4byte	.LLST30
 9652 2e43 3C       		.uleb128 0x3c
 9653 2e44 656E00   		.ascii	"en\000"
 9654 2e47 01       		.byte	0x1
 9655 2e48 7B       		.byte	0x7b
 9656 2e49 E7020000 		.4byte	0x2e7
 9657 2e4d B5040000 		.4byte	.LLST31
 9658 2e51 3D       		.uleb128 0x3d
 9659 2e52 16160000 		.4byte	.LASF606
 9660 2e56 01       		.byte	0x1
 9661 2e57 7D       		.byte	0x7d
 9662 2e58 B8000000 		.4byte	0xb8
 9663 2e5c 01       		.uleb128 0x1
 9664 2e5d 54       		.byte	0x54
 9665 2e5e 36       		.uleb128 0x36
 9666 2e5f 16000000 		.4byte	.LBB17
 9667 2e63 1A000000 		.4byte	.LBE17-.LBB17
 9668 2e67 3E       		.uleb128 0x3e
 9669 2e68 6900     		.ascii	"i\000"
 9670 2e6a 01       		.byte	0x1
 9671 2e6b 83       		.byte	0x83
 9672 2e6c D1200000 		.4byte	0x20d1
 9673 2e70 D6040000 		.4byte	.LLST32
 9674 2e74 2E       		.uleb128 0x2e
 9675 2e75 1C000000 		.4byte	.LVL249
 9676 2e79 5E390000 		.4byte	0x395e
 9677 2e7d 872E0000 		.4byte	0x2e87
 9678 2e81 2F       		.uleb128 0x2f
 9679 2e82 01       		.uleb128 0x1
 9680 2e83 50       		.byte	0x50
 9681 2e84 01       		.uleb128 0x1
 9682 2e85 30       		.byte	0x30
 9683 2e86 00       		.byte	0
 9684 2e87 30       		.uleb128 0x30
 9685 2e88 2A000000 		.4byte	.LVL250
 9686 2e8c 5E390000 		.4byte	0x395e
 9687 2e90 00       		.byte	0
ARM GAS  C:\Users\haske\AppData\Local\Temp\ccOQHbDo.s 			page 204


 9688 2e91 00       		.byte	0
 9689 2e92 3F       		.uleb128 0x3f
 9690 2e93 E10D0000 		.4byte	.LASF623
 9691 2e97 01       		.byte	0x1
 9692 2e98 8B       		.byte	0x8b
 9693 2e99 D1200000 		.4byte	0x20d1
 9694 2e9d 00000000 		.4byte	.LFB167
 9695 2ea1 0C000000 		.4byte	.LFE167-.LFB167
 9696 2ea5 01       		.uleb128 0x1
 9697 2ea6 9C       		.byte	0x9c
 9698 2ea7 40       		.uleb128 0x40
 9699 2ea8 4D270000 		.4byte	.LASF616
 9700 2eac 01       		.byte	0x1
 9701 2ead 90       		.byte	0x90
 9702 2eae 4A160000 		.4byte	0x164a
 9703 2eb2 00000000 		.4byte	.LFB168
 9704 2eb6 0C000000 		.4byte	.LFE168-.LFB168
 9705 2eba 01       		.uleb128 0x1
 9706 2ebb 9C       		.byte	0x9c
 9707 2ebc D02E0000 		.4byte	0x2ed0
 9708 2ec0 3B       		.uleb128 0x3b
 9709 2ec1 DC0F0000 		.4byte	.LASF592
 9710 2ec5 01       		.byte	0x1
 9711 2ec6 90       		.byte	0x90
 9712 2ec7 D02E0000 		.4byte	0x2ed0
 9713 2ecb F4040000 		.4byte	.LLST33
 9714 2ecf 00       		.byte	0
 9715 2ed0 0D       		.uleb128 0xd
 9716 2ed1 04       		.byte	0x4
 9717 2ed2 D62E0000 		.4byte	0x2ed6
 9718 2ed6 0E       		.uleb128 0xe
 9719 2ed7 261A0000 		.4byte	0x1a26
 9720 2edb 3A       		.uleb128 0x3a
 9721 2edc 8E170000 		.4byte	.LASF608
 9722 2ee0 01       		.byte	0x1
 9723 2ee1 97       		.byte	0x97
 9724 2ee2 00000000 		.4byte	.LFB169
 9725 2ee6 A4000000 		.4byte	.LFE169-.LFB169
 9726 2eea 01       		.uleb128 0x1
 9727 2eeb 9C       		.byte	0x9c
 9728 2eec 422F0000 		.4byte	0x2f42
 9729 2ef0 3B       		.uleb128 0x3b
 9730 2ef1 DC0F0000 		.4byte	.LASF592
 9731 2ef5 01       		.byte	0x1
 9732 2ef6 97       		.byte	0x97
 9733 2ef7 D1200000 		.4byte	0x20d1
 9734 2efb 2E050000 		.4byte	.LLST34
 9735 2eff 3C       		.uleb128 0x3c
 9736 2f00 6F626A00 		.ascii	"obj\000"
 9737 2f04 01       		.byte	0x1
 9738 2f05 97       		.byte	0x97
 9739 2f06 3B200000 		.4byte	0x203b
 9740 2f0a 65050000 		.4byte	.LLST35
 9741 2f0e 36       		.uleb128 0x36
 9742 2f0f 50000000 		.4byte	.LBB18
 9743 2f13 54000000 		.4byte	.LBE18-.LBB18
 9744 2f17 3E       		.uleb128 0x3e
ARM GAS  C:\Users\haske\AppData\Local\Temp\ccOQHbDo.s 			page 205


 9745 2f18 6900     		.ascii	"i\000"
 9746 2f1a 01       		.byte	0x1
 9747 2f1b A9       		.byte	0xa9
 9748 2f1c D1200000 		.4byte	0x20d1
 9749 2f20 91050000 		.4byte	.LLST36
 9750 2f24 2E       		.uleb128 0x2e
 9751 2f25 56000000 		.4byte	.LVL259
 9752 2f29 5E390000 		.4byte	0x395e
 9753 2f2d 372F0000 		.4byte	0x2f37
 9754 2f31 2F       		.uleb128 0x2f
 9755 2f32 01       		.uleb128 0x1
 9756 2f33 50       		.byte	0x50
 9757 2f34 01       		.uleb128 0x1
 9758 2f35 30       		.byte	0x30
 9759 2f36 00       		.byte	0
 9760 2f37 30       		.uleb128 0x30
 9761 2f38 94000000 		.4byte	.LVL260
 9762 2f3c 5E390000 		.4byte	0x395e
 9763 2f40 00       		.byte	0
 9764 2f41 00       		.byte	0
 9765 2f42 3A       		.uleb128 0x3a
 9766 2f43 5B030000 		.4byte	.LASF609
 9767 2f47 01       		.byte	0x1
 9768 2f48 BD       		.byte	0xbd
 9769 2f49 00000000 		.4byte	.LFB170
 9770 2f4d 1A000000 		.4byte	.LFE170-.LFB170
 9771 2f51 01       		.uleb128 0x1
 9772 2f52 9C       		.byte	0x9c
 9773 2f53 792F0000 		.4byte	0x2f79
 9774 2f57 3B       		.uleb128 0x3b
 9775 2f58 DC0F0000 		.4byte	.LASF592
 9776 2f5c 01       		.byte	0x1
 9777 2f5d BD       		.byte	0xbd
 9778 2f5e D1200000 		.4byte	0x20d1
 9779 2f62 AF050000 		.4byte	.LLST37
 9780 2f66 30       		.uleb128 0x30
 9781 2f67 10000000 		.4byte	.LVL263
 9782 2f6b EE380000 		.4byte	0x38ee
 9783 2f6f 30       		.uleb128 0x30
 9784 2f70 16000000 		.4byte	.LVL264
 9785 2f74 EE380000 		.4byte	0x38ee
 9786 2f78 00       		.byte	0
 9787 2f79 3A       		.uleb128 0x3a
 9788 2f7a DF0E0000 		.4byte	.LASF610
 9789 2f7e 01       		.byte	0x1
 9790 2f7f C4       		.byte	0xc4
 9791 2f80 00000000 		.4byte	.LFB171
 9792 2f84 40000000 		.4byte	.LFE171-.LFB171
 9793 2f88 01       		.uleb128 0x1
 9794 2f89 9C       		.byte	0x9c
 9795 2f8a F72F0000 		.4byte	0x2ff7
 9796 2f8e 3B       		.uleb128 0x3b
 9797 2f8f DC0F0000 		.4byte	.LASF592
 9798 2f93 01       		.byte	0x1
 9799 2f94 C4       		.byte	0xc4
 9800 2f95 D1200000 		.4byte	0x20d1
 9801 2f99 CD050000 		.4byte	.LLST38
ARM GAS  C:\Users\haske\AppData\Local\Temp\ccOQHbDo.s 			page 206


 9802 2f9d 3B       		.uleb128 0x3b
 9803 2f9e 4C1A0000 		.4byte	.LASF611
 9804 2fa2 01       		.byte	0x1
 9805 2fa3 C4       		.byte	0xc4
 9806 2fa4 3B200000 		.4byte	0x203b
 9807 2fa8 F9050000 		.4byte	.LLST39
 9808 2fac 30       		.uleb128 0x30
 9809 2fad 16000000 		.4byte	.LVL267
 9810 2fb1 69390000 		.4byte	0x3969
 9811 2fb5 2E       		.uleb128 0x2e
 9812 2fb6 1E000000 		.4byte	.LVL268
 9813 2fba 74390000 		.4byte	0x3974
 9814 2fbe C92F0000 		.4byte	0x2fc9
 9815 2fc2 2F       		.uleb128 0x2f
 9816 2fc3 01       		.uleb128 0x1
 9817 2fc4 50       		.byte	0x50
 9818 2fc5 02       		.uleb128 0x2
 9819 2fc6 75       		.byte	0x75
 9820 2fc7 00       		.sleb128 0
 9821 2fc8 00       		.byte	0
 9822 2fc9 30       		.uleb128 0x30
 9823 2fca 2C000000 		.4byte	.LVL269
 9824 2fce 7F390000 		.4byte	0x397f
 9825 2fd2 2E       		.uleb128 0x2e
 9826 2fd3 34000000 		.4byte	.LVL270
 9827 2fd7 8A390000 		.4byte	0x398a
 9828 2fdb E52F0000 		.4byte	0x2fe5
 9829 2fdf 2F       		.uleb128 0x2f
 9830 2fe0 01       		.uleb128 0x1
 9831 2fe1 51       		.byte	0x51
 9832 2fe2 01       		.uleb128 0x1
 9833 2fe3 32       		.byte	0x32
 9834 2fe4 00       		.byte	0
 9835 2fe5 31       		.uleb128 0x31
 9836 2fe6 3E000000 		.4byte	.LVL271
 9837 2fea 95390000 		.4byte	0x3995
 9838 2fee 2F       		.uleb128 0x2f
 9839 2fef 01       		.uleb128 0x1
 9840 2ff0 51       		.byte	0x51
 9841 2ff1 03       		.uleb128 0x3
 9842 2ff2 48       		.byte	0x48
 9843 2ff3 3E       		.byte	0x3e
 9844 2ff4 24       		.byte	0x24
 9845 2ff5 00       		.byte	0
 9846 2ff6 00       		.byte	0
 9847 2ff7 3A       		.uleb128 0x3a
 9848 2ff8 38160000 		.4byte	.LASF612
 9849 2ffc 01       		.byte	0x1
 9850 2ffd CF       		.byte	0xcf
 9851 2ffe 00000000 		.4byte	.LFB172
 9852 3002 10000000 		.4byte	.LFE172-.LFB172
 9853 3006 01       		.uleb128 0x1
 9854 3007 9C       		.byte	0x9c
 9855 3008 27300000 		.4byte	0x3027
 9856 300c 41       		.uleb128 0x41
 9857 300d DC0F0000 		.4byte	.LASF592
 9858 3011 01       		.byte	0x1
ARM GAS  C:\Users\haske\AppData\Local\Temp\ccOQHbDo.s 			page 207


 9859 3012 CF       		.byte	0xcf
 9860 3013 D1200000 		.4byte	0x20d1
 9861 3017 01       		.uleb128 0x1
 9862 3018 50       		.byte	0x50
 9863 3019 41       		.uleb128 0x41
 9864 301a 65140000 		.4byte	.LASF427
 9865 301e 01       		.byte	0x1
 9866 301f CF       		.byte	0xcf
 9867 3020 DC1F0000 		.4byte	0x1fdc
 9868 3024 01       		.uleb128 0x1
 9869 3025 51       		.byte	0x51
 9870 3026 00       		.byte	0
 9871 3027 3A       		.uleb128 0x3a
 9872 3028 4F010000 		.4byte	.LASF613
 9873 302c 01       		.byte	0x1
 9874 302d D6       		.byte	0xd6
 9875 302e 00000000 		.4byte	.LFB173
 9876 3032 0C000000 		.4byte	.LFE173-.LFB173
 9877 3036 01       		.uleb128 0x1
 9878 3037 9C       		.byte	0x9c
 9879 3038 57300000 		.4byte	0x3057
 9880 303c 41       		.uleb128 0x41
 9881 303d DC0F0000 		.4byte	.LASF592
 9882 3041 01       		.byte	0x1
 9883 3042 D6       		.byte	0xd6
 9884 3043 D1200000 		.4byte	0x20d1
 9885 3047 01       		.uleb128 0x1
 9886 3048 50       		.byte	0x50
 9887 3049 41       		.uleb128 0x41
 9888 304a 8C030000 		.4byte	.LASF614
 9889 304e 01       		.byte	0x1
 9890 304f D6       		.byte	0xd6
 9891 3050 B40E0000 		.4byte	0xeb4
 9892 3054 01       		.uleb128 0x1
 9893 3055 51       		.byte	0x51
 9894 3056 00       		.byte	0
 9895 3057 3A       		.uleb128 0x3a
 9896 3058 B7030000 		.4byte	.LASF615
 9897 305c 01       		.byte	0x1
 9898 305d DD       		.byte	0xdd
 9899 305e 00000000 		.4byte	.LFB174
 9900 3062 30000000 		.4byte	.LFE174-.LFB174
 9901 3066 01       		.uleb128 0x1
 9902 3067 9C       		.byte	0x9c
 9903 3068 87300000 		.4byte	0x3087
 9904 306c 41       		.uleb128 0x41
 9905 306d DC0F0000 		.4byte	.LASF592
 9906 3071 01       		.byte	0x1
 9907 3072 DD       		.byte	0xdd
 9908 3073 D02E0000 		.4byte	0x2ed0
 9909 3077 01       		.uleb128 0x1
 9910 3078 50       		.byte	0x50
 9911 3079 41       		.uleb128 0x41
 9912 307a EB030000 		.4byte	.LASF379
 9913 307e 01       		.byte	0x1
 9914 307f DD       		.byte	0xdd
 9915 3080 650C0000 		.4byte	0xc65
ARM GAS  C:\Users\haske\AppData\Local\Temp\ccOQHbDo.s 			page 208


 9916 3084 01       		.uleb128 0x1
 9917 3085 51       		.byte	0x51
 9918 3086 00       		.byte	0
 9919 3087 40       		.uleb128 0x40
 9920 3088 B6240000 		.4byte	.LASF617
 9921 308c 01       		.byte	0x1
 9922 308d EE       		.byte	0xee
 9923 308e B1010000 		.4byte	0x1b1
 9924 3092 00000000 		.4byte	.LFB175
 9925 3096 08000000 		.4byte	.LFE175-.LFB175
 9926 309a 01       		.uleb128 0x1
 9927 309b 9C       		.byte	0x9c
 9928 309c B0300000 		.4byte	0x30b0
 9929 30a0 3B       		.uleb128 0x3b
 9930 30a1 DC0F0000 		.4byte	.LASF592
 9931 30a5 01       		.byte	0x1
 9932 30a6 EE       		.byte	0xee
 9933 30a7 D02E0000 		.4byte	0x2ed0
 9934 30ab 25060000 		.4byte	.LLST40
 9935 30af 00       		.byte	0
 9936 30b0 40       		.uleb128 0x40
 9937 30b1 EB110000 		.4byte	.LASF618
 9938 30b5 01       		.byte	0x1
 9939 30b6 F3       		.byte	0xf3
 9940 30b7 E4000000 		.4byte	0xe4
 9941 30bb 00000000 		.4byte	.LFB176
 9942 30bf 10000000 		.4byte	.LFE176-.LFB176
 9943 30c3 01       		.uleb128 0x1
 9944 30c4 9C       		.byte	0x9c
 9945 30c5 D9300000 		.4byte	0x30d9
 9946 30c9 3B       		.uleb128 0x3b
 9947 30ca DC0F0000 		.4byte	.LASF592
 9948 30ce 01       		.byte	0x1
 9949 30cf F3       		.byte	0xf3
 9950 30d0 D02E0000 		.4byte	0x2ed0
 9951 30d4 46060000 		.4byte	.LLST41
 9952 30d8 00       		.byte	0
 9953 30d9 40       		.uleb128 0x40
 9954 30da CA030000 		.4byte	.LASF619
 9955 30de 01       		.byte	0x1
 9956 30df FB       		.byte	0xfb
 9957 30e0 B1010000 		.4byte	0x1b1
 9958 30e4 00000000 		.4byte	.LFB177
 9959 30e8 22000000 		.4byte	.LFE177-.LFB177
 9960 30ec 01       		.uleb128 0x1
 9961 30ed 9C       		.byte	0x9c
 9962 30ee 02310000 		.4byte	0x3102
 9963 30f2 3B       		.uleb128 0x3b
 9964 30f3 DC0F0000 		.4byte	.LASF592
 9965 30f7 01       		.byte	0x1
 9966 30f8 FB       		.byte	0xfb
 9967 30f9 D02E0000 		.4byte	0x2ed0
 9968 30fd 80060000 		.4byte	.LLST42
 9969 3101 00       		.byte	0
 9970 3102 42       		.uleb128 0x42
 9971 3103 570B0000 		.4byte	.LASF620
 9972 3107 01       		.byte	0x1
ARM GAS  C:\Users\haske\AppData\Local\Temp\ccOQHbDo.s 			page 209


 9973 3108 0201     		.2byte	0x102
 9974 310a 3B200000 		.4byte	0x203b
 9975 310e 00000000 		.4byte	.LFB178
 9976 3112 1C000000 		.4byte	.LFE178-.LFB178
 9977 3116 01       		.uleb128 0x1
 9978 3117 9C       		.byte	0x9c
 9979 3118 2D310000 		.4byte	0x312d
 9980 311c 2C       		.uleb128 0x2c
 9981 311d DC0F0000 		.4byte	.LASF592
 9982 3121 01       		.byte	0x1
 9983 3122 0201     		.2byte	0x102
 9984 3124 D02E0000 		.4byte	0x2ed0
 9985 3128 CA060000 		.4byte	.LLST43
 9986 312c 00       		.byte	0
 9987 312d 43       		.uleb128 0x43
 9988 312e 911C0000 		.4byte	.LASF621
 9989 3132 01       		.byte	0x1
 9990 3133 0901     		.2byte	0x109
 9991 3135 00000000 		.4byte	.LFB179
 9992 3139 24000000 		.4byte	.LFE179-.LFB179
 9993 313d 01       		.uleb128 0x1
 9994 313e 9C       		.byte	0x9c
 9995 313f 60310000 		.4byte	0x3160
 9996 3143 2A       		.uleb128 0x2a
 9997 3144 DC0F0000 		.4byte	.LASF592
 9998 3148 01       		.byte	0x1
 9999 3149 0901     		.2byte	0x109
 10000 314b D02E0000 		.4byte	0x2ed0
 10001 314f 01       		.uleb128 0x1
 10002 3150 50       		.byte	0x50
 10003 3151 2A       		.uleb128 0x2a
 10004 3152 EB030000 		.4byte	.LASF379
 10005 3156 01       		.byte	0x1
 10006 3157 0901     		.2byte	0x109
 10007 3159 650C0000 		.4byte	0xc65
 10008 315d 01       		.uleb128 0x1
 10009 315e 51       		.byte	0x51
 10010 315f 00       		.byte	0
 10011 3160 43       		.uleb128 0x43
 10012 3161 84190000 		.4byte	.LASF622
 10013 3165 01       		.byte	0x1
 10014 3166 1601     		.2byte	0x116
 10015 3168 00000000 		.4byte	.LFB180
 10016 316c 0C000000 		.4byte	.LFE180-.LFB180
 10017 3170 01       		.uleb128 0x1
 10018 3171 9C       		.byte	0x9c
 10019 3172 85310000 		.4byte	0x3185
 10020 3176 2A       		.uleb128 0x2a
 10021 3177 DC0F0000 		.4byte	.LASF592
 10022 317b 01       		.byte	0x1
 10023 317c 1601     		.2byte	0x116
 10024 317e D1200000 		.4byte	0x20d1
 10025 3182 01       		.uleb128 0x1
 10026 3183 50       		.byte	0x50
 10027 3184 00       		.byte	0
 10028 3185 44       		.uleb128 0x44
 10029 3186 11120000 		.4byte	.LASF624
ARM GAS  C:\Users\haske\AppData\Local\Temp\ccOQHbDo.s 			page 210


 10030 318a 01       		.byte	0x1
 10031 318b 1C01     		.2byte	0x11c
 10032 318d 3B200000 		.4byte	0x203b
 10033 3191 00000000 		.4byte	.LFB181
 10034 3195 0C000000 		.4byte	.LFE181-.LFB181
 10035 3199 01       		.uleb128 0x1
 10036 319a 9C       		.byte	0x9c
 10037 319b 42       		.uleb128 0x42
 10038 319c 8E260000 		.4byte	.LASF625
 10039 31a0 01       		.byte	0x1
 10040 31a1 2101     		.2byte	0x121
 10041 31a3 5D150000 		.4byte	0x155d
 10042 31a7 00000000 		.4byte	.LFB182
 10043 31ab 0A000000 		.4byte	.LFE182-.LFB182
 10044 31af 01       		.uleb128 0x1
 10045 31b0 9C       		.byte	0x9c
 10046 31b1 C6310000 		.4byte	0x31c6
 10047 31b5 2C       		.uleb128 0x2c
 10048 31b6 DC0F0000 		.4byte	.LASF592
 10049 31ba 01       		.byte	0x1
 10050 31bb 2101     		.2byte	0x121
 10051 31bd C6310000 		.4byte	0x31c6
 10052 31c1 14070000 		.4byte	.LLST44
 10053 31c5 00       		.byte	0
 10054 31c6 0D       		.uleb128 0xd
 10055 31c7 04       		.byte	0x4
 10056 31c8 14160000 		.4byte	0x1614
 10057 31cc 42       		.uleb128 0x42
 10058 31cd 8C020000 		.4byte	.LASF626
 10059 31d1 01       		.byte	0x1
 10060 31d2 2C01     		.2byte	0x12c
 10061 31d4 3B200000 		.4byte	0x203b
 10062 31d8 00000000 		.4byte	.LFB183
 10063 31dc 76000000 		.4byte	.LFE183-.LFB183
 10064 31e0 01       		.uleb128 0x1
 10065 31e1 9C       		.byte	0x9c
 10066 31e2 2D330000 		.4byte	0x332d
 10067 31e6 38       		.uleb128 0x38
 10068 31e7 6F626A00 		.ascii	"obj\000"
 10069 31eb 01       		.byte	0x1
 10070 31ec 2C01     		.2byte	0x12c
 10071 31ee 3B200000 		.4byte	0x203b
 10072 31f2 4E070000 		.4byte	.LLST45
 10073 31f6 2C       		.uleb128 0x2c
 10074 31f7 EB030000 		.4byte	.LASF379
 10075 31fb 01       		.byte	0x1
 10076 31fc 2C01     		.2byte	0x12c
 10077 31fe 650C0000 		.4byte	0xc65
 10078 3202 6C070000 		.4byte	.LLST46
 10079 3206 2D       		.uleb128 0x2d
 10080 3207 09010000 		.4byte	.LASF627
 10081 320b 01       		.byte	0x1
 10082 320c 2E01     		.2byte	0x12e
 10083 320e 3B200000 		.4byte	0x203b
 10084 3212 B1070000 		.4byte	.LLST47
 10085 3216 33       		.uleb128 0x33
 10086 3217 211B0000 		.4byte	.LASF628
ARM GAS  C:\Users\haske\AppData\Local\Temp\ccOQHbDo.s 			page 211


 10087 321b 01       		.byte	0x1
 10088 321c 3301     		.2byte	0x133
 10089 321e 29010000 		.4byte	0x129
 10090 3222 02       		.uleb128 0x2
 10091 3223 91       		.byte	0x91
 10092 3224 6C       		.sleb128 -20
 10093 3225 2D       		.uleb128 0x2d
 10094 3226 55160000 		.4byte	.LASF629
 10095 322a 01       		.byte	0x1
 10096 322b 3601     		.2byte	0x136
 10097 322d E7020000 		.4byte	0x2e7
 10098 3231 E7070000 		.4byte	.LLST48
 10099 3235 32       		.uleb128 0x32
 10100 3236 44000000 		.4byte	.LBB19
 10101 323a 20000000 		.4byte	.LBE19-.LBB19
 10102 323e 9F320000 		.4byte	0x329f
 10103 3242 39       		.uleb128 0x39
 10104 3243 6900     		.ascii	"i\000"
 10105 3245 01       		.byte	0x1
 10106 3246 3A01     		.2byte	0x13a
 10107 3248 D9000000 		.4byte	0xd9
 10108 324c 05080000 		.4byte	.LLST49
 10109 3250 2D       		.uleb128 0x2d
 10110 3251 D0100000 		.4byte	.LASF575
 10111 3255 01       		.byte	0x1
 10112 3256 3B01     		.2byte	0x13b
 10113 3258 E4000000 		.4byte	0xe4
 10114 325c 23080000 		.4byte	.LLST50
 10115 3260 32       		.uleb128 0x32
 10116 3261 4E000000 		.4byte	.LBB20
 10117 3265 10000000 		.4byte	.LBE20-.LBB20
 10118 3269 8E320000 		.4byte	0x328e
 10119 326d 2D       		.uleb128 0x2d
 10120 326e B6000000 		.4byte	.LASF630
 10121 3272 01       		.byte	0x1
 10122 3273 3F01     		.2byte	0x13f
 10123 3275 3B200000 		.4byte	0x203b
 10124 3279 36080000 		.4byte	.LLST51
 10125 327d 31       		.uleb128 0x31
 10126 327e 5C000000 		.4byte	.LVL312
 10127 3282 CC310000 		.4byte	0x31cc
 10128 3286 2F       		.uleb128 0x2f
 10129 3287 01       		.uleb128 0x1
 10130 3288 51       		.byte	0x51
 10131 3289 02       		.uleb128 0x2
 10132 328a 91       		.byte	0x91
 10133 328b 6C       		.sleb128 -20
 10134 328c 00       		.byte	0
 10135 328d 00       		.byte	0
 10136 328e 31       		.uleb128 0x31
 10137 328f 4A000000 		.4byte	.LVL308
 10138 3293 A0390000 		.4byte	0x39a0
 10139 3297 2F       		.uleb128 0x2f
 10140 3298 01       		.uleb128 0x1
 10141 3299 50       		.byte	0x50
 10142 329a 02       		.uleb128 0x2
 10143 329b 75       		.byte	0x75
ARM GAS  C:\Users\haske\AppData\Local\Temp\ccOQHbDo.s 			page 212


 10144 329c 00       		.sleb128 0
 10145 329d 00       		.byte	0
 10146 329e 00       		.byte	0
 10147 329f 2E       		.uleb128 0x2e
 10148 32a0 0E000000 		.4byte	.LVL302
 10149 32a4 7D380000 		.4byte	0x387d
 10150 32a8 B8320000 		.4byte	0x32b8
 10151 32ac 2F       		.uleb128 0x2f
 10152 32ad 01       		.uleb128 0x1
 10153 32ae 50       		.byte	0x50
 10154 32af 02       		.uleb128 0x2
 10155 32b0 75       		.byte	0x75
 10156 32b1 00       		.sleb128 0
 10157 32b2 2F       		.uleb128 0x2f
 10158 32b3 01       		.uleb128 0x1
 10159 32b4 51       		.byte	0x51
 10160 32b5 01       		.uleb128 0x1
 10161 32b6 31       		.byte	0x31
 10162 32b7 00       		.byte	0
 10163 32b8 2E       		.uleb128 0x2e
 10164 32b9 20000000 		.4byte	.LVL303
 10165 32bd AB390000 		.4byte	0x39ab
 10166 32c1 DC320000 		.4byte	0x32dc
 10167 32c5 2F       		.uleb128 0x2f
 10168 32c6 01       		.uleb128 0x1
 10169 32c7 50       		.byte	0x50
 10170 32c8 02       		.uleb128 0x2
 10171 32c9 75       		.byte	0x75
 10172 32ca 00       		.sleb128 0
 10173 32cb 2F       		.uleb128 0x2f
 10174 32cc 01       		.uleb128 0x1
 10175 32cd 51       		.byte	0x51
 10176 32ce 02       		.uleb128 0x2
 10177 32cf 91       		.byte	0x91
 10178 32d0 6C       		.sleb128 -20
 10179 32d1 2F       		.uleb128 0x2f
 10180 32d2 01       		.uleb128 0x1
 10181 32d3 52       		.byte	0x52
 10182 32d4 01       		.uleb128 0x1
 10183 32d5 30       		.byte	0x30
 10184 32d6 2F       		.uleb128 0x2f
 10185 32d7 01       		.uleb128 0x1
 10186 32d8 53       		.byte	0x53
 10187 32d9 01       		.uleb128 0x1
 10188 32da 31       		.byte	0x31
 10189 32db 00       		.byte	0
 10190 32dc 2E       		.uleb128 0x2e
 10191 32dd 28000000 		.4byte	.LVL304
 10192 32e1 B7390000 		.4byte	0x39b7
 10193 32e5 F6320000 		.4byte	0x32f6
 10194 32e9 2F       		.uleb128 0x2f
 10195 32ea 01       		.uleb128 0x1
 10196 32eb 50       		.byte	0x50
 10197 32ec 02       		.uleb128 0x2
 10198 32ed 75       		.byte	0x75
 10199 32ee 00       		.sleb128 0
 10200 32ef 2F       		.uleb128 0x2f
ARM GAS  C:\Users\haske\AppData\Local\Temp\ccOQHbDo.s 			page 213


 10201 32f0 01       		.uleb128 0x1
 10202 32f1 51       		.byte	0x51
 10203 32f2 02       		.uleb128 0x2
 10204 32f3 91       		.byte	0x91
 10205 32f4 6C       		.sleb128 -20
 10206 32f5 00       		.byte	0
 10207 32f6 2E       		.uleb128 0x2e
 10208 32f7 36000000 		.4byte	.LVL306
 10209 32fb C3390000 		.4byte	0x39c3
 10210 32ff 15330000 		.4byte	0x3315
 10211 3303 2F       		.uleb128 0x2f
 10212 3304 01       		.uleb128 0x1
 10213 3305 50       		.byte	0x50
 10214 3306 02       		.uleb128 0x2
 10215 3307 75       		.byte	0x75
 10216 3308 14       		.sleb128 20
 10217 3309 2F       		.uleb128 0x2f
 10218 330a 01       		.uleb128 0x1
 10219 330b 51       		.byte	0x51
 10220 330c 02       		.uleb128 0x2
 10221 330d 91       		.byte	0x91
 10222 330e 6C       		.sleb128 -20
 10223 330f 2F       		.uleb128 0x2f
 10224 3310 01       		.uleb128 0x1
 10225 3311 52       		.byte	0x52
 10226 3312 01       		.uleb128 0x1
 10227 3313 30       		.byte	0x30
 10228 3314 00       		.byte	0
 10229 3315 31       		.uleb128 0x31
 10230 3316 42000000 		.4byte	.LVL307
 10231 331a 7D380000 		.4byte	0x387d
 10232 331e 2F       		.uleb128 0x2f
 10233 331f 01       		.uleb128 0x1
 10234 3320 50       		.byte	0x50
 10235 3321 02       		.uleb128 0x2
 10236 3322 75       		.byte	0x75
 10237 3323 00       		.sleb128 0
 10238 3324 2F       		.uleb128 0x2f
 10239 3325 01       		.uleb128 0x1
 10240 3326 51       		.byte	0x51
 10241 3327 03       		.uleb128 0x3
 10242 3328 40       		.byte	0x40
 10243 3329 3F       		.byte	0x3f
 10244 332a 24       		.byte	0x24
 10245 332b 00       		.byte	0
 10246 332c 00       		.byte	0
 10247 332d 29       		.uleb128 0x29
 10248 332e DC150000 		.4byte	.LASF631
 10249 3332 01       		.byte	0x1
 10250 3333 3103     		.2byte	0x331
 10251 3335 00000000 		.4byte	.LFB188
 10252 3339 7C020000 		.4byte	.LFE188-.LFB188
 10253 333d 01       		.uleb128 0x1
 10254 333e 9C       		.byte	0x9c
 10255 333f 18360000 		.4byte	0x3618
 10256 3343 2C       		.uleb128 0x2c
 10257 3344 4B0C0000 		.4byte	.LASF425
ARM GAS  C:\Users\haske\AppData\Local\Temp\ccOQHbDo.s 			page 214


 10258 3348 01       		.byte	0x1
 10259 3349 3103     		.2byte	0x331
 10260 334b 02210000 		.4byte	0x2102
 10261 334f 4F080000 		.4byte	.LLST52
 10262 3353 2D       		.uleb128 0x2d
 10263 3354 11180000 		.4byte	.LASF363
 10264 3358 01       		.byte	0x1
 10265 3359 3803     		.2byte	0x338
 10266 335b C6310000 		.4byte	0x31c6
 10267 335f A4080000 		.4byte	.LLST53
 10268 3363 2D       		.uleb128 0x2d
 10269 3364 1B250000 		.4byte	.LASF632
 10270 3368 01       		.byte	0x1
 10271 3369 3903     		.2byte	0x339
 10272 336b E7020000 		.4byte	0x2e7
 10273 336f B7080000 		.4byte	.LLST54
 10274 3373 32       		.uleb128 0x32
 10275 3374 EE000000 		.4byte	.LBB21
 10276 3378 16000000 		.4byte	.LBE21-.LBB21
 10277 337c B4330000 		.4byte	0x33b4
 10278 3380 2D       		.uleb128 0x2d
 10279 3381 D6140000 		.4byte	.LASF404
 10280 3385 01       		.byte	0x1
 10281 3386 5F03     		.2byte	0x35f
 10282 3388 3B200000 		.4byte	0x203b
 10283 338c D6080000 		.4byte	.LLST55
 10284 3390 2E       		.uleb128 0x2e
 10285 3391 F8000000 		.4byte	.LVL344
 10286 3395 A0380000 		.4byte	0x38a0
 10287 3399 A3330000 		.4byte	0x33a3
 10288 339d 2F       		.uleb128 0x2f
 10289 339e 01       		.uleb128 0x1
 10290 339f 51       		.byte	0x51
 10291 33a0 01       		.uleb128 0x1
 10292 33a1 33       		.byte	0x33
 10293 33a2 00       		.byte	0
 10294 33a3 31       		.uleb128 0x31
 10295 33a4 FE000000 		.4byte	.LVL345
 10296 33a8 D7200000 		.4byte	0x20d7
 10297 33ac 2F       		.uleb128 0x2f
 10298 33ad 01       		.uleb128 0x1
 10299 33ae 50       		.byte	0x50
 10300 33af 02       		.uleb128 0x2
 10301 33b0 74       		.byte	0x74
 10302 33b1 00       		.sleb128 0
 10303 33b2 00       		.byte	0
 10304 33b3 00       		.byte	0
 10305 33b4 2E       		.uleb128 0x2e
 10306 33b5 24000000 		.4byte	.LVL322
 10307 33b9 69390000 		.4byte	0x3969
 10308 33bd C8330000 		.4byte	0x33c8
 10309 33c1 2F       		.uleb128 0x2f
 10310 33c2 01       		.uleb128 0x1
 10311 33c3 50       		.byte	0x50
 10312 33c4 02       		.uleb128 0x2
 10313 33c5 75       		.byte	0x75
 10314 33c6 00       		.sleb128 0
ARM GAS  C:\Users\haske\AppData\Local\Temp\ccOQHbDo.s 			page 215


 10315 33c7 00       		.byte	0
 10316 33c8 2E       		.uleb128 0x2e
 10317 33c9 2C000000 		.4byte	.LVL323
 10318 33cd CC310000 		.4byte	0x31cc
 10319 33d1 DC330000 		.4byte	0x33dc
 10320 33d5 2F       		.uleb128 0x2f
 10321 33d6 01       		.uleb128 0x1
 10322 33d7 51       		.byte	0x51
 10323 33d8 02       		.uleb128 0x2
 10324 33d9 76       		.byte	0x76
 10325 33da 00       		.sleb128 0
 10326 33db 00       		.byte	0
 10327 33dc 2E       		.uleb128 0x2e
 10328 33dd 38000000 		.4byte	.LVL324
 10329 33e1 CE390000 		.4byte	0x39ce
 10330 33e5 F0330000 		.4byte	0x33f0
 10331 33e9 2F       		.uleb128 0x2f
 10332 33ea 01       		.uleb128 0x1
 10333 33eb 50       		.byte	0x50
 10334 33ec 02       		.uleb128 0x2
 10335 33ed 75       		.byte	0x75
 10336 33ee 00       		.sleb128 0
 10337 33ef 00       		.byte	0
 10338 33f0 2E       		.uleb128 0x2e
 10339 33f1 3E000000 		.4byte	.LVL325
 10340 33f5 CC310000 		.4byte	0x31cc
 10341 33f9 04340000 		.4byte	0x3404
 10342 33fd 2F       		.uleb128 0x2f
 10343 33fe 01       		.uleb128 0x1
 10344 33ff 51       		.byte	0x51
 10345 3400 02       		.uleb128 0x2
 10346 3401 76       		.byte	0x76
 10347 3402 00       		.sleb128 0
 10348 3403 00       		.byte	0
 10349 3404 2E       		.uleb128 0x2e
 10350 3405 4E000000 		.4byte	.LVL326
 10351 3409 D9390000 		.4byte	0x39d9
 10352 340d 18340000 		.4byte	0x3418
 10353 3411 2F       		.uleb128 0x2f
 10354 3412 01       		.uleb128 0x1
 10355 3413 50       		.byte	0x50
 10356 3414 02       		.uleb128 0x2
 10357 3415 75       		.byte	0x75
 10358 3416 00       		.sleb128 0
 10359 3417 00       		.byte	0
 10360 3418 2E       		.uleb128 0x2e
 10361 3419 54000000 		.4byte	.LVL327
 10362 341d CC310000 		.4byte	0x31cc
 10363 3421 2C340000 		.4byte	0x342c
 10364 3425 2F       		.uleb128 0x2f
 10365 3426 01       		.uleb128 0x1
 10366 3427 51       		.byte	0x51
 10367 3428 02       		.uleb128 0x2
 10368 3429 76       		.byte	0x76
 10369 342a 00       		.sleb128 0
 10370 342b 00       		.byte	0
 10371 342c 2E       		.uleb128 0x2e
ARM GAS  C:\Users\haske\AppData\Local\Temp\ccOQHbDo.s 			page 216


 10372 342d 6A000000 		.4byte	.LVL330
 10373 3431 7D380000 		.4byte	0x387d
 10374 3435 41340000 		.4byte	0x3441
 10375 3439 2F       		.uleb128 0x2f
 10376 343a 01       		.uleb128 0x1
 10377 343b 51       		.byte	0x51
 10378 343c 03       		.uleb128 0x3
 10379 343d 0A       		.byte	0xa
 10380 343e 0020     		.2byte	0x2000
 10381 3440 00       		.byte	0
 10382 3441 2E       		.uleb128 0x2e
 10383 3442 72000000 		.4byte	.LVL331
 10384 3446 69390000 		.4byte	0x3969
 10385 344a 55340000 		.4byte	0x3455
 10386 344e 2F       		.uleb128 0x2f
 10387 344f 01       		.uleb128 0x1
 10388 3450 50       		.byte	0x50
 10389 3451 02       		.uleb128 0x2
 10390 3452 75       		.byte	0x75
 10391 3453 00       		.sleb128 0
 10392 3454 00       		.byte	0
 10393 3455 2E       		.uleb128 0x2e
 10394 3456 7A000000 		.4byte	.LVL332
 10395 345a CC310000 		.4byte	0x31cc
 10396 345e 69340000 		.4byte	0x3469
 10397 3462 2F       		.uleb128 0x2f
 10398 3463 01       		.uleb128 0x1
 10399 3464 51       		.byte	0x51
 10400 3465 02       		.uleb128 0x2
 10401 3466 76       		.byte	0x76
 10402 3467 00       		.sleb128 0
 10403 3468 00       		.byte	0
 10404 3469 2E       		.uleb128 0x2e
 10405 346a 86000000 		.4byte	.LVL333
 10406 346e CE390000 		.4byte	0x39ce
 10407 3472 7D340000 		.4byte	0x347d
 10408 3476 2F       		.uleb128 0x2f
 10409 3477 01       		.uleb128 0x1
 10410 3478 50       		.byte	0x50
 10411 3479 02       		.uleb128 0x2
 10412 347a 75       		.byte	0x75
 10413 347b 00       		.sleb128 0
 10414 347c 00       		.byte	0
 10415 347d 2E       		.uleb128 0x2e
 10416 347e 8C000000 		.4byte	.LVL334
 10417 3482 CC310000 		.4byte	0x31cc
 10418 3486 91340000 		.4byte	0x3491
 10419 348a 2F       		.uleb128 0x2f
 10420 348b 01       		.uleb128 0x1
 10421 348c 51       		.byte	0x51
 10422 348d 02       		.uleb128 0x2
 10423 348e 76       		.byte	0x76
 10424 348f 00       		.sleb128 0
 10425 3490 00       		.byte	0
 10426 3491 2E       		.uleb128 0x2e
 10427 3492 9C000000 		.4byte	.LVL335
 10428 3496 D9390000 		.4byte	0x39d9
ARM GAS  C:\Users\haske\AppData\Local\Temp\ccOQHbDo.s 			page 217


 10429 349a A5340000 		.4byte	0x34a5
 10430 349e 2F       		.uleb128 0x2f
 10431 349f 01       		.uleb128 0x1
 10432 34a0 50       		.byte	0x50
 10433 34a1 02       		.uleb128 0x2
 10434 34a2 75       		.byte	0x75
 10435 34a3 00       		.sleb128 0
 10436 34a4 00       		.byte	0
 10437 34a5 2E       		.uleb128 0x2e
 10438 34a6 A2000000 		.4byte	.LVL336
 10439 34aa CC310000 		.4byte	0x31cc
 10440 34ae B9340000 		.4byte	0x34b9
 10441 34b2 2F       		.uleb128 0x2f
 10442 34b3 01       		.uleb128 0x1
 10443 34b4 51       		.byte	0x51
 10444 34b5 02       		.uleb128 0x2
 10445 34b6 76       		.byte	0x76
 10446 34b7 00       		.sleb128 0
 10447 34b8 00       		.byte	0
 10448 34b9 2E       		.uleb128 0x2e
 10449 34ba CA000000 		.4byte	.LVL341
 10450 34be CC380000 		.4byte	0x38cc
 10451 34c2 CD340000 		.4byte	0x34cd
 10452 34c6 2F       		.uleb128 0x2f
 10453 34c7 01       		.uleb128 0x1
 10454 34c8 50       		.byte	0x50
 10455 34c9 02       		.uleb128 0x2
 10456 34ca 74       		.byte	0x74
 10457 34cb 00       		.sleb128 0
 10458 34cc 00       		.byte	0
 10459 34cd 2E       		.uleb128 0x2e
 10460 34ce D0000000 		.4byte	.LVL342
 10461 34d2 D7200000 		.4byte	0x20d7
 10462 34d6 E1340000 		.4byte	0x34e1
 10463 34da 2F       		.uleb128 0x2f
 10464 34db 01       		.uleb128 0x1
 10465 34dc 50       		.byte	0x50
 10466 34dd 02       		.uleb128 0x2
 10467 34de 74       		.byte	0x74
 10468 34df 00       		.sleb128 0
 10469 34e0 00       		.byte	0
 10470 34e1 30       		.uleb128 0x30
 10471 34e2 14010000 		.4byte	.LVL346
 10472 34e6 EE380000 		.4byte	0x38ee
 10473 34ea 2E       		.uleb128 0x2e
 10474 34eb 54010000 		.4byte	.LVL347
 10475 34ef A0380000 		.4byte	0x38a0
 10476 34f3 FD340000 		.4byte	0x34fd
 10477 34f7 2F       		.uleb128 0x2f
 10478 34f8 01       		.uleb128 0x1
 10479 34f9 51       		.byte	0x51
 10480 34fa 01       		.uleb128 0x1
 10481 34fb 31       		.byte	0x31
 10482 34fc 00       		.byte	0
 10483 34fd 2E       		.uleb128 0x2e
 10484 34fe 5A010000 		.4byte	.LVL348
 10485 3502 D7200000 		.4byte	0x20d7
ARM GAS  C:\Users\haske\AppData\Local\Temp\ccOQHbDo.s 			page 218


 10486 3506 11350000 		.4byte	0x3511
 10487 350a 2F       		.uleb128 0x2f
 10488 350b 01       		.uleb128 0x1
 10489 350c 50       		.byte	0x50
 10490 350d 02       		.uleb128 0x2
 10491 350e 74       		.byte	0x74
 10492 350f 00       		.sleb128 0
 10493 3510 00       		.byte	0
 10494 3511 30       		.uleb128 0x30
 10495 3512 74010000 		.4byte	.LVL349
 10496 3516 08210000 		.4byte	0x2108
 10497 351a 2E       		.uleb128 0x2e
 10498 351b 7A010000 		.4byte	.LVL350
 10499 351f D7200000 		.4byte	0x20d7
 10500 3523 2E350000 		.4byte	0x352e
 10501 3527 2F       		.uleb128 0x2f
 10502 3528 01       		.uleb128 0x1
 10503 3529 50       		.byte	0x50
 10504 352a 02       		.uleb128 0x2
 10505 352b 74       		.byte	0x74
 10506 352c 00       		.sleb128 0
 10507 352d 00       		.byte	0
 10508 352e 2E       		.uleb128 0x2e
 10509 352f CA010000 		.4byte	.LVL351
 10510 3533 A0380000 		.4byte	0x38a0
 10511 3537 41350000 		.4byte	0x3541
 10512 353b 2F       		.uleb128 0x2f
 10513 353c 01       		.uleb128 0x1
 10514 353d 51       		.byte	0x51
 10515 353e 01       		.uleb128 0x1
 10516 353f 32       		.byte	0x32
 10517 3540 00       		.byte	0
 10518 3541 2E       		.uleb128 0x2e
 10519 3542 D0010000 		.4byte	.LVL352
 10520 3546 D7200000 		.4byte	0x20d7
 10521 354a 55350000 		.4byte	0x3555
 10522 354e 2F       		.uleb128 0x2f
 10523 354f 01       		.uleb128 0x1
 10524 3550 50       		.byte	0x50
 10525 3551 02       		.uleb128 0x2
 10526 3552 74       		.byte	0x74
 10527 3553 00       		.sleb128 0
 10528 3554 00       		.byte	0
 10529 3555 2E       		.uleb128 0x2e
 10530 3556 E6010000 		.4byte	.LVL353
 10531 355a E4390000 		.4byte	0x39e4
 10532 355e 69350000 		.4byte	0x3569
 10533 3562 2F       		.uleb128 0x2f
 10534 3563 01       		.uleb128 0x1
 10535 3564 50       		.byte	0x50
 10536 3565 02       		.uleb128 0x2
 10537 3566 74       		.byte	0x74
 10538 3567 00       		.sleb128 0
 10539 3568 00       		.byte	0
 10540 3569 2E       		.uleb128 0x2e
 10541 356a EC010000 		.4byte	.LVL354
 10542 356e D7200000 		.4byte	0x20d7
ARM GAS  C:\Users\haske\AppData\Local\Temp\ccOQHbDo.s 			page 219


 10543 3572 7D350000 		.4byte	0x357d
 10544 3576 2F       		.uleb128 0x2f
 10545 3577 01       		.uleb128 0x1
 10546 3578 50       		.byte	0x50
 10547 3579 02       		.uleb128 0x2
 10548 357a 74       		.byte	0x74
 10549 357b 00       		.sleb128 0
 10550 357c 00       		.byte	0
 10551 357d 2E       		.uleb128 0x2e
 10552 357e F6010000 		.4byte	.LVL355
 10553 3582 94220000 		.4byte	0x2294
 10554 3586 91350000 		.4byte	0x3591
 10555 358a 2F       		.uleb128 0x2f
 10556 358b 01       		.uleb128 0x1
 10557 358c 50       		.byte	0x50
 10558 358d 02       		.uleb128 0x2
 10559 358e 74       		.byte	0x74
 10560 358f 00       		.sleb128 0
 10561 3590 00       		.byte	0
 10562 3591 2E       		.uleb128 0x2e
 10563 3592 FC010000 		.4byte	.LVL356
 10564 3596 D7200000 		.4byte	0x20d7
 10565 359a A5350000 		.4byte	0x35a5
 10566 359e 2F       		.uleb128 0x2f
 10567 359f 01       		.uleb128 0x1
 10568 35a0 50       		.byte	0x50
 10569 35a1 02       		.uleb128 0x2
 10570 35a2 74       		.byte	0x74
 10571 35a3 00       		.sleb128 0
 10572 35a4 00       		.byte	0
 10573 35a5 30       		.uleb128 0x30
 10574 35a6 12020000 		.4byte	.LVL357
 10575 35aa 25390000 		.4byte	0x3925
 10576 35ae 2E       		.uleb128 0x2e
 10577 35af 28020000 		.4byte	.LVL358
 10578 35b3 A0380000 		.4byte	0x38a0
 10579 35b7 C1350000 		.4byte	0x35c1
 10580 35bb 2F       		.uleb128 0x2f
 10581 35bc 01       		.uleb128 0x1
 10582 35bd 51       		.byte	0x51
 10583 35be 01       		.uleb128 0x1
 10584 35bf 35       		.byte	0x35
 10585 35c0 00       		.byte	0
 10586 35c1 2E       		.uleb128 0x2e
 10587 35c2 2E020000 		.4byte	.LVL359
 10588 35c6 D7200000 		.4byte	0x20d7
 10589 35ca D5350000 		.4byte	0x35d5
 10590 35ce 2F       		.uleb128 0x2f
 10591 35cf 01       		.uleb128 0x1
 10592 35d0 50       		.byte	0x50
 10593 35d1 02       		.uleb128 0x2
 10594 35d2 74       		.byte	0x74
 10595 35d3 00       		.sleb128 0
 10596 35d4 00       		.byte	0
 10597 35d5 30       		.uleb128 0x30
 10598 35d6 3C020000 		.4byte	.LVL360
 10599 35da EE380000 		.4byte	0x38ee
ARM GAS  C:\Users\haske\AppData\Local\Temp\ccOQHbDo.s 			page 220


 10600 35de 30       		.uleb128 0x30
 10601 35df 50020000 		.4byte	.LVL361
 10602 35e3 25390000 		.4byte	0x3925
 10603 35e7 2E       		.uleb128 0x2e
 10604 35e8 66020000 		.4byte	.LVL362
 10605 35ec A0380000 		.4byte	0x38a0
 10606 35f0 FA350000 		.4byte	0x35fa
 10607 35f4 2F       		.uleb128 0x2f
 10608 35f5 01       		.uleb128 0x1
 10609 35f6 51       		.byte	0x51
 10610 35f7 01       		.uleb128 0x1
 10611 35f8 36       		.byte	0x36
 10612 35f9 00       		.byte	0
 10613 35fa 2E       		.uleb128 0x2e
 10614 35fb 6C020000 		.4byte	.LVL363
 10615 35ff D7200000 		.4byte	0x20d7
 10616 3603 0E360000 		.4byte	0x360e
 10617 3607 2F       		.uleb128 0x2f
 10618 3608 01       		.uleb128 0x1
 10619 3609 50       		.byte	0x50
 10620 360a 02       		.uleb128 0x2
 10621 360b 74       		.byte	0x74
 10622 360c 00       		.sleb128 0
 10623 360d 00       		.byte	0
 10624 360e 30       		.uleb128 0x30
 10625 360f 72020000 		.4byte	.LVL364
 10626 3613 EE380000 		.4byte	0x38ee
 10627 3617 00       		.byte	0
 10628 3618 29       		.uleb128 0x29
 10629 3619 43150000 		.4byte	.LASF633
 10630 361d 01       		.byte	0x1
 10631 361e 5401     		.2byte	0x154
 10632 3620 00000000 		.4byte	.LFB184
 10633 3624 C0000000 		.4byte	.LFE184-.LFB184
 10634 3628 01       		.uleb128 0x1
 10635 3629 9C       		.byte	0x9c
 10636 362a BA360000 		.4byte	0x36ba
 10637 362e 38       		.uleb128 0x38
 10638 362f 6900     		.ascii	"i\000"
 10639 3631 01       		.byte	0x1
 10640 3632 5401     		.2byte	0x154
 10641 3634 D1200000 		.4byte	0x20d1
 10642 3638 E9080000 		.4byte	.LLST56
 10643 363c 2C       		.uleb128 0x2c
 10644 363d C2270000 		.4byte	.LASF601
 10645 3641 01       		.byte	0x1
 10646 3642 5401     		.2byte	0x154
 10647 3644 88170000 		.4byte	0x1788
 10648 3648 07090000 		.4byte	.LLST57
 10649 364c 2D       		.uleb128 0x2d
 10650 364d 11180000 		.4byte	.LASF363
 10651 3651 01       		.byte	0x1
 10652 3652 5601     		.2byte	0x156
 10653 3654 C6310000 		.4byte	0x31c6
 10654 3658 25090000 		.4byte	.LLST58
 10655 365c 32       		.uleb128 0x32
 10656 365d 54000000 		.4byte	.LBB22
ARM GAS  C:\Users\haske\AppData\Local\Temp\ccOQHbDo.s 			page 221


 10657 3661 16000000 		.4byte	.LBE22-.LBB22
 10658 3665 7A360000 		.4byte	0x367a
 10659 3669 39       		.uleb128 0x39
 10660 366a 746D7000 		.ascii	"tmp\000"
 10661 366e 01       		.byte	0x1
 10662 366f 6001     		.2byte	0x160
 10663 3671 01010000 		.4byte	0x101
 10664 3675 38090000 		.4byte	.LLST59
 10665 3679 00       		.byte	0
 10666 367a 30       		.uleb128 0x30
 10667 367b 72000000 		.4byte	.LVL372
 10668 367f EF390000 		.4byte	0x39ef
 10669 3683 30       		.uleb128 0x30
 10670 3684 7A000000 		.4byte	.LVL373
 10671 3688 FB390000 		.4byte	0x39fb
 10672 368c 30       		.uleb128 0x30
 10673 368d 92000000 		.4byte	.LVL374
 10674 3691 7F390000 		.4byte	0x397f
 10675 3695 2E       		.uleb128 0x2e
 10676 3696 AA000000 		.4byte	.LVL375
 10677 369a 2D330000 		.4byte	0x332d
 10678 369e A9360000 		.4byte	0x36a9
 10679 36a2 2F       		.uleb128 0x2f
 10680 36a3 01       		.uleb128 0x1
 10681 36a4 50       		.byte	0x50
 10682 36a5 02       		.uleb128 0x2
 10683 36a6 74       		.byte	0x74
 10684 36a7 04       		.sleb128 4
 10685 36a8 00       		.byte	0
 10686 36a9 31       		.uleb128 0x31
 10687 36aa B2000000 		.4byte	.LVL376
 10688 36ae 23230000 		.4byte	0x2323
 10689 36b2 2F       		.uleb128 0x2f
 10690 36b3 01       		.uleb128 0x1
 10691 36b4 50       		.byte	0x50
 10692 36b5 02       		.uleb128 0x2
 10693 36b6 74       		.byte	0x74
 10694 36b7 04       		.sleb128 4
 10695 36b8 00       		.byte	0
 10696 36b9 00       		.byte	0
 10697 36ba 29       		.uleb128 0x29
 10698 36bb 9A190000 		.4byte	.LASF634
 10699 36bf 01       		.byte	0x1
 10700 36c0 0003     		.2byte	0x300
 10701 36c2 00000000 		.4byte	.LFB187
 10702 36c6 74000000 		.4byte	.LFE187-.LFB187
 10703 36ca 01       		.uleb128 0x1
 10704 36cb 9C       		.byte	0x9c
 10705 36cc 78370000 		.4byte	0x3778
 10706 36d0 38       		.uleb128 0x38
 10707 36d1 6900     		.ascii	"i\000"
 10708 36d3 01       		.byte	0x1
 10709 36d4 0003     		.2byte	0x300
 10710 36d6 D1200000 		.4byte	0x20d1
 10711 36da 4B090000 		.4byte	.LLST60
 10712 36de 2C       		.uleb128 0x2c
 10713 36df C2270000 		.4byte	.LASF601
ARM GAS  C:\Users\haske\AppData\Local\Temp\ccOQHbDo.s 			page 222


 10714 36e3 01       		.byte	0x1
 10715 36e4 0003     		.2byte	0x300
 10716 36e6 88170000 		.4byte	0x1788
 10717 36ea 74090000 		.4byte	.LLST61
 10718 36ee 39       		.uleb128 0x39
 10719 36ef 7800     		.ascii	"x\000"
 10720 36f1 01       		.byte	0x1
 10721 36f2 0803     		.2byte	0x308
 10722 36f4 01010000 		.4byte	0x101
 10723 36f8 9D090000 		.4byte	.LLST62
 10724 36fc 39       		.uleb128 0x39
 10725 36fd 7900     		.ascii	"y\000"
 10726 36ff 01       		.byte	0x1
 10727 3700 0903     		.2byte	0x309
 10728 3702 01010000 		.4byte	0x101
 10729 3706 B0090000 		.4byte	.LLST63
 10730 370a 45       		.uleb128 0x45
 10731 370b 341F0000 		.4byte	.LASF603
 10732 370f 01       		.byte	0x1
 10733 3710 0B03     		.2byte	0x30b
 10734 3712 78370000 		.4byte	0x3778
 10735 3716 00       		.byte	0
 10736 3717 2E       		.uleb128 0x2e
 10737 3718 36000000 		.4byte	.LVL382
 10738 371c 23230000 		.4byte	0x2323
 10739 3720 2B370000 		.4byte	0x372b
 10740 3724 2F       		.uleb128 0x2f
 10741 3725 01       		.uleb128 0x1
 10742 3726 50       		.byte	0x50
 10743 3727 02       		.uleb128 0x2
 10744 3728 74       		.byte	0x74
 10745 3729 04       		.sleb128 4
 10746 372a 00       		.byte	0
 10747 372b 2E       		.uleb128 0x2e
 10748 372c 3E000000 		.4byte	.LVL383
 10749 3730 D7200000 		.4byte	0x20d7
 10750 3734 3F370000 		.4byte	0x373f
 10751 3738 2F       		.uleb128 0x2f
 10752 3739 01       		.uleb128 0x1
 10753 373a 50       		.byte	0x50
 10754 373b 02       		.uleb128 0x2
 10755 373c 76       		.byte	0x76
 10756 373d 00       		.sleb128 0
 10757 373e 00       		.byte	0
 10758 373f 2E       		.uleb128 0x2e
 10759 3740 52000000 		.4byte	.LVL384
 10760 3744 2D330000 		.4byte	0x332d
 10761 3748 53370000 		.4byte	0x3753
 10762 374c 2F       		.uleb128 0x2f
 10763 374d 01       		.uleb128 0x1
 10764 374e 50       		.byte	0x50
 10765 374f 02       		.uleb128 0x2
 10766 3750 76       		.byte	0x76
 10767 3751 00       		.sleb128 0
 10768 3752 00       		.byte	0
 10769 3753 2E       		.uleb128 0x2e
 10770 3754 5A000000 		.4byte	.LVL385
ARM GAS  C:\Users\haske\AppData\Local\Temp\ccOQHbDo.s 			page 223


 10771 3758 23230000 		.4byte	0x2323
 10772 375c 67370000 		.4byte	0x3767
 10773 3760 2F       		.uleb128 0x2f
 10774 3761 01       		.uleb128 0x1
 10775 3762 50       		.byte	0x50
 10776 3763 02       		.uleb128 0x2
 10777 3764 76       		.byte	0x76
 10778 3765 00       		.sleb128 0
 10779 3766 00       		.byte	0
 10780 3767 31       		.uleb128 0x31
 10781 3768 60000000 		.4byte	.LVL386
 10782 376c D7200000 		.4byte	0x20d7
 10783 3770 2F       		.uleb128 0x2f
 10784 3771 01       		.uleb128 0x1
 10785 3772 50       		.byte	0x50
 10786 3773 02       		.uleb128 0x2
 10787 3774 76       		.byte	0x76
 10788 3775 00       		.sleb128 0
 10789 3776 00       		.byte	0
 10790 3777 00       		.byte	0
 10791 3778 0E       		.uleb128 0xe
 10792 3779 6E160000 		.4byte	0x166e
 10793 377d 3A       		.uleb128 0x3a
 10794 377e 20240000 		.4byte	.LASF635
 10795 3782 01       		.byte	0x1
 10796 3783 40       		.byte	0x40
 10797 3784 00000000 		.4byte	.LFB165
 10798 3788 CC000000 		.4byte	.LFE165-.LFB165
 10799 378c 01       		.uleb128 0x1
 10800 378d 9C       		.byte	0x9c
 10801 378e 50380000 		.4byte	0x3850
 10802 3792 3B       		.uleb128 0x3b
 10803 3793 EC0B0000 		.4byte	.LASF636
 10804 3797 01       		.byte	0x1
 10805 3798 40       		.byte	0x40
 10806 3799 5D150000 		.4byte	0x155d
 10807 379d C3090000 		.4byte	.LLST64
 10808 37a1 3D       		.uleb128 0x3d
 10809 37a2 C2270000 		.4byte	.LASF601
 10810 37a6 01       		.byte	0x1
 10811 37a7 44       		.byte	0x44
 10812 37a8 CA160000 		.4byte	0x16ca
 10813 37ac 02       		.uleb128 0x2
 10814 37ad 91       		.byte	0x91
 10815 37ae 60       		.sleb128 -32
 10816 37af 46       		.uleb128 0x46
 10817 37b0 BF100000 		.4byte	.LASF382
 10818 37b4 01       		.byte	0x1
 10819 37b5 50       		.byte	0x50
 10820 37b6 E7020000 		.4byte	0x2e7
 10821 37ba E4090000 		.4byte	.LLST65
 10822 37be 30       		.uleb128 0x30
 10823 37bf 16000000 		.4byte	.LVL390
 10824 37c3 AC200000 		.4byte	0x20ac
 10825 37c7 2E       		.uleb128 0x2e
 10826 37c8 36000000 		.4byte	.LVL391
 10827 37cc 073A0000 		.4byte	0x3a07
ARM GAS  C:\Users\haske\AppData\Local\Temp\ccOQHbDo.s 			page 224


 10828 37d0 DB370000 		.4byte	0x37db
 10829 37d4 2F       		.uleb128 0x2f
 10830 37d5 01       		.uleb128 0x1
 10831 37d6 51       		.byte	0x51
 10832 37d7 02       		.uleb128 0x2
 10833 37d8 7D       		.byte	0x7d
 10834 37d9 00       		.sleb128 0
 10835 37da 00       		.byte	0
 10836 37db 30       		.uleb128 0x30
 10837 37dc 40000000 		.4byte	.LVL393
 10838 37e0 AC200000 		.4byte	0x20ac
 10839 37e4 30       		.uleb128 0x30
 10840 37e5 58000000 		.4byte	.LVL394
 10841 37e9 EE380000 		.4byte	0x38ee
 10842 37ed 30       		.uleb128 0x30
 10843 37ee 72000000 		.4byte	.LVL395
 10844 37f2 EE380000 		.4byte	0x38ee
 10845 37f6 2E       		.uleb128 0x2e
 10846 37f7 88000000 		.4byte	.LVL396
 10847 37fb 18360000 		.4byte	0x3618
 10848 37ff 0A380000 		.4byte	0x380a
 10849 3803 2F       		.uleb128 0x2f
 10850 3804 01       		.uleb128 0x1
 10851 3805 51       		.byte	0x51
 10852 3806 02       		.uleb128 0x2
 10853 3807 7D       		.byte	0x7d
 10854 3808 00       		.sleb128 0
 10855 3809 00       		.byte	0
 10856 380a 2E       		.uleb128 0x2e
 10857 380b 94000000 		.4byte	.LVL397
 10858 380f 65250000 		.4byte	0x2565
 10859 3813 1E380000 		.4byte	0x381e
 10860 3817 2F       		.uleb128 0x2f
 10861 3818 01       		.uleb128 0x1
 10862 3819 51       		.byte	0x51
 10863 381a 02       		.uleb128 0x2
 10864 381b 7D       		.byte	0x7d
 10865 381c 00       		.sleb128 0
 10866 381d 00       		.byte	0
 10867 381e 2E       		.uleb128 0x2e
 10868 381f A0000000 		.4byte	.LVL398
 10869 3823 06290000 		.4byte	0x2906
 10870 3827 32380000 		.4byte	0x3832
 10871 382b 2F       		.uleb128 0x2f
 10872 382c 01       		.uleb128 0x1
 10873 382d 51       		.byte	0x51
 10874 382e 02       		.uleb128 0x2
 10875 382f 7D       		.byte	0x7d
 10876 3830 00       		.sleb128 0
 10877 3831 00       		.byte	0
 10878 3832 2E       		.uleb128 0x2e
 10879 3833 AC000000 		.4byte	.LVL399
 10880 3837 BA360000 		.4byte	0x36ba
 10881 383b 46380000 		.4byte	0x3846
 10882 383f 2F       		.uleb128 0x2f
 10883 3840 01       		.uleb128 0x1
 10884 3841 51       		.byte	0x51
ARM GAS  C:\Users\haske\AppData\Local\Temp\ccOQHbDo.s 			page 225


 10885 3842 02       		.uleb128 0x2
 10886 3843 7D       		.byte	0x7d
 10887 3844 00       		.sleb128 0
 10888 3845 00       		.byte	0
 10889 3846 30       		.uleb128 0x30
 10890 3847 B4000000 		.4byte	.LVL400
 10891 384b AC200000 		.4byte	0x20ac
 10892 384f 00       		.byte	0
 10893 3850 3D       		.uleb128 0x3d
 10894 3851 DD180000 		.4byte	.LASF637
 10895 3855 01       		.byte	0x1
 10896 3856 30       		.byte	0x30
 10897 3857 D1200000 		.4byte	0x20d1
 10898 385b 05       		.uleb128 0x5
 10899 385c 03       		.byte	0x3
 10900 385d 04000000 		.4byte	indev_act
 10901 3861 3D       		.uleb128 0x3d
 10902 3862 95070000 		.4byte	.LASF638
 10903 3866 01       		.byte	0x1
 10904 3867 31       		.byte	0x31
 10905 3868 3B200000 		.4byte	0x203b
 10906 386c 05       		.uleb128 0x5
 10907 386d 03       		.byte	0x3
 10908 386e 00000000 		.4byte	indev_obj_act
 10909 3872 47       		.uleb128 0x47
 10910 3873 88210000 		.4byte	.LASF680
 10911 3877 07       		.byte	0x7
 10912 3878 94       		.byte	0x94
 10913 3879 C30A0000 		.4byte	0xac3
 10914 387d 48       		.uleb128 0x48
 10915 387e 9A1B0000 		.4byte	.LASF639
 10916 3882 9A1B0000 		.4byte	.LASF639
 10917 3886 0E       		.byte	0xe
 10918 3887 1C01     		.2byte	0x11c
 10919 3889 48       		.uleb128 0x48
 10920 388a 86280000 		.4byte	.LASF640
 10921 388e 86280000 		.4byte	.LASF640
 10922 3892 0E       		.byte	0xe
 10923 3893 3A01     		.2byte	0x13a
 10924 3895 49       		.uleb128 0x49
 10925 3896 F51F0000 		.4byte	.LASF641
 10926 389a F51F0000 		.4byte	.LASF641
 10927 389e 1B       		.byte	0x1b
 10928 389f 96       		.byte	0x96
 10929 38a0 49       		.uleb128 0x49
 10930 38a1 E1040000 		.4byte	.LASF642
 10931 38a5 E1040000 		.4byte	.LASF642
 10932 38a9 1F       		.byte	0x1f
 10933 38aa 92       		.byte	0x92
 10934 38ab 49       		.uleb128 0x49
 10935 38ac 251A0000 		.4byte	.LASF643
 10936 38b0 251A0000 		.4byte	.LASF643
 10937 38b4 20       		.byte	0x20
 10938 38b5 7D       		.byte	0x7d
 10939 38b6 49       		.uleb128 0x49
 10940 38b7 C41D0000 		.4byte	.LASF644
 10941 38bb C41D0000 		.4byte	.LASF644
ARM GAS  C:\Users\haske\AppData\Local\Temp\ccOQHbDo.s 			page 226


 10942 38bf 1D       		.byte	0x1d
 10943 38c0 83       		.byte	0x83
 10944 38c1 49       		.uleb128 0x49
 10945 38c2 4B060000 		.4byte	.LASF645
 10946 38c6 4B060000 		.4byte	.LASF645
 10947 38ca 06       		.byte	0x6
 10948 38cb EF       		.byte	0xef
 10949 38cc 49       		.uleb128 0x49
 10950 38cd 691A0000 		.4byte	.LASF646
 10951 38d1 691A0000 		.4byte	.LASF646
 10952 38d5 21       		.byte	0x21
 10953 38d6 28       		.byte	0x28
 10954 38d7 49       		.uleb128 0x49
 10955 38d8 44080000 		.4byte	.LASF647
 10956 38dc 44080000 		.4byte	.LASF647
 10957 38e0 1B       		.byte	0x1b
 10958 38e1 DD       		.byte	0xdd
 10959 38e2 48       		.uleb128 0x48
 10960 38e3 20270000 		.4byte	.LASF648
 10961 38e7 20270000 		.4byte	.LASF648
 10962 38eb 0E       		.byte	0xe
 10963 38ec 3301     		.2byte	0x133
 10964 38ee 49       		.uleb128 0x49
 10965 38ef 000B0000 		.4byte	.LASF649
 10966 38f3 000B0000 		.4byte	.LASF649
 10967 38f7 22       		.byte	0x22
 10968 38f8 34       		.byte	0x34
 10969 38f9 49       		.uleb128 0x49
 10970 38fa CF0C0000 		.4byte	.LASF650
 10971 38fe CF0C0000 		.4byte	.LASF650
 10972 3902 1B       		.byte	0x1b
 10973 3903 CF       		.byte	0xcf
 10974 3904 49       		.uleb128 0x49
 10975 3905 AE270000 		.4byte	.LASF651
 10976 3909 AE270000 		.4byte	.LASF651
 10977 390d 1B       		.byte	0x1b
 10978 390e 9C       		.byte	0x9c
 10979 390f 49       		.uleb128 0x49
 10980 3910 FE270000 		.4byte	.LASF652
 10981 3914 FE270000 		.4byte	.LASF652
 10982 3918 1B       		.byte	0x1b
 10983 3919 A2       		.byte	0xa2
 10984 391a 49       		.uleb128 0x49
 10985 391b 25210000 		.4byte	.LASF653
 10986 391f 25210000 		.4byte	.LASF653
 10987 3923 1B       		.byte	0x1b
 10988 3924 B1       		.byte	0xb1
 10989 3925 49       		.uleb128 0x49
 10990 3926 12110000 		.4byte	.LASF654
 10991 392a 12110000 		.4byte	.LASF654
 10992 392e 22       		.byte	0x22
 10993 392f 3B       		.byte	0x3b
 10994 3930 49       		.uleb128 0x49
 10995 3931 03160000 		.4byte	.LASF655
 10996 3935 03160000 		.4byte	.LASF655
 10997 3939 1E       		.byte	0x1e
 10998 393a 51       		.byte	0x51
ARM GAS  C:\Users\haske\AppData\Local\Temp\ccOQHbDo.s 			page 227


 10999 393b 49       		.uleb128 0x49
 11000 393c 9A0A0000 		.4byte	.LASF656
 11001 3940 9A0A0000 		.4byte	.LASF656
 11002 3944 1B       		.byte	0x1b
 11003 3945 F2       		.byte	0xf2
 11004 3946 48       		.uleb128 0x48
 11005 3947 87220000 		.4byte	.LASF657
 11006 394b 87220000 		.4byte	.LASF657
 11007 394f 1B       		.byte	0x1b
 11008 3950 0001     		.2byte	0x100
 11009 3952 48       		.uleb128 0x48
 11010 3953 26100000 		.4byte	.LASF658
 11011 3957 26100000 		.4byte	.LASF658
 11012 395b 0E       		.byte	0xe
 11013 395c 0401     		.2byte	0x104
 11014 395e 49       		.uleb128 0x49
 11015 395f 9F1A0000 		.4byte	.LASF659
 11016 3963 9F1A0000 		.4byte	.LASF659
 11017 3967 1A       		.byte	0x1a
 11018 3968 DF       		.byte	0xdf
 11019 3969 49       		.uleb128 0x49
 11020 396a BC000000 		.4byte	.LASF660
 11021 396e BC000000 		.4byte	.LASF660
 11022 3972 23       		.byte	0x23
 11023 3973 56       		.byte	0x56
 11024 3974 49       		.uleb128 0x49
 11025 3975 84040000 		.4byte	.LASF661
 11026 3979 84040000 		.4byte	.LASF661
 11027 397d 20       		.byte	0x20
 11028 397e 56       		.byte	0x56
 11029 397f 49       		.uleb128 0x49
 11030 3980 A9100000 		.4byte	.LASF662
 11031 3984 A9100000 		.4byte	.LASF662
 11032 3988 24       		.byte	0x24
 11033 3989 2F       		.byte	0x2f
 11034 398a 49       		.uleb128 0x49
 11035 398b 4C180000 		.4byte	.LASF663
 11036 398f 4C180000 		.4byte	.LASF663
 11037 3993 0E       		.byte	0xe
 11038 3994 F3       		.byte	0xf3
 11039 3995 49       		.uleb128 0x49
 11040 3996 C4150000 		.4byte	.LASF664
 11041 399a C4150000 		.4byte	.LASF664
 11042 399e 0E       		.byte	0xe
 11043 399f EC       		.byte	0xec
 11044 39a0 49       		.uleb128 0x49
 11045 39a1 8A1F0000 		.4byte	.LASF665
 11046 39a5 8A1F0000 		.4byte	.LASF665
 11047 39a9 20       		.byte	0x20
 11048 39aa 91       		.byte	0x91
 11049 39ab 48       		.uleb128 0x48
 11050 39ac 7D120000 		.4byte	.LASF666
 11051 39b0 7D120000 		.4byte	.LASF666
 11052 39b4 24       		.byte	0x24
 11053 39b5 6601     		.2byte	0x166
 11054 39b7 48       		.uleb128 0x48
 11055 39b8 2C1E0000 		.4byte	.LASF667
ARM GAS  C:\Users\haske\AppData\Local\Temp\ccOQHbDo.s 			page 228


 11056 39bc 2C1E0000 		.4byte	.LASF667
 11057 39c0 24       		.byte	0x24
 11058 39c1 A301     		.2byte	0x1a3
 11059 39c3 49       		.uleb128 0x49
 11060 39c4 05150000 		.4byte	.LASF668
 11061 39c8 05150000 		.4byte	.LASF668
 11062 39cc 06       		.byte	0x6
 11063 39cd C3       		.byte	0xc3
 11064 39ce 49       		.uleb128 0x49
 11065 39cf 6B1E0000 		.4byte	.LASF669
 11066 39d3 6B1E0000 		.4byte	.LASF669
 11067 39d7 23       		.byte	0x23
 11068 39d8 4E       		.byte	0x4e
 11069 39d9 49       		.uleb128 0x49
 11070 39da 7D1C0000 		.4byte	.LASF670
 11071 39de 7D1C0000 		.4byte	.LASF670
 11072 39e2 23       		.byte	0x23
 11073 39e3 39       		.byte	0x39
 11074 39e4 49       		.uleb128 0x49
 11075 39e5 B60C0000 		.4byte	.LASF671
 11076 39e9 B60C0000 		.4byte	.LASF671
 11077 39ed 21       		.byte	0x21
 11078 39ee 22       		.byte	0x22
 11079 39ef 48       		.uleb128 0x48
 11080 39f0 5D0C0000 		.4byte	.LASF672
 11081 39f4 5D0C0000 		.4byte	.LASF672
 11082 39f8 18       		.byte	0x18
 11083 39f9 0701     		.2byte	0x107
 11084 39fb 48       		.uleb128 0x48
 11085 39fc C60B0000 		.4byte	.LASF673
 11086 3a00 C60B0000 		.4byte	.LASF673
 11087 3a04 18       		.byte	0x18
 11088 3a05 0E01     		.2byte	0x10e
 11089 3a07 49       		.uleb128 0x49
 11090 3a08 98240000 		.4byte	.LASF674
 11091 3a0c 98240000 		.4byte	.LASF674
 11092 3a10 1A       		.byte	0x1a
 11093 3a11 E6       		.byte	0xe6
 11094 3a12 00       		.byte	0
 11095              		.section	.debug_abbrev,"",%progbits
 11096              	.Ldebug_abbrev0:
 11097 0000 01       		.uleb128 0x1
 11098 0001 11       		.uleb128 0x11
 11099 0002 01       		.byte	0x1
 11100 0003 25       		.uleb128 0x25
 11101 0004 0E       		.uleb128 0xe
 11102 0005 13       		.uleb128 0x13
 11103 0006 0B       		.uleb128 0xb
 11104 0007 03       		.uleb128 0x3
 11105 0008 0E       		.uleb128 0xe
 11106 0009 1B       		.uleb128 0x1b
 11107 000a 0E       		.uleb128 0xe
 11108 000b 55       		.uleb128 0x55
 11109 000c 17       		.uleb128 0x17
 11110 000d 11       		.uleb128 0x11
 11111 000e 01       		.uleb128 0x1
 11112 000f 10       		.uleb128 0x10
ARM GAS  C:\Users\haske\AppData\Local\Temp\ccOQHbDo.s 			page 229


 11113 0010 17       		.uleb128 0x17
 11114 0011 00       		.byte	0
 11115 0012 00       		.byte	0
 11116 0013 02       		.uleb128 0x2
 11117 0014 16       		.uleb128 0x16
 11118 0015 00       		.byte	0
 11119 0016 03       		.uleb128 0x3
 11120 0017 0E       		.uleb128 0xe
 11121 0018 3A       		.uleb128 0x3a
 11122 0019 0B       		.uleb128 0xb
 11123 001a 3B       		.uleb128 0x3b
 11124 001b 0B       		.uleb128 0xb
 11125 001c 49       		.uleb128 0x49
 11126 001d 13       		.uleb128 0x13
 11127 001e 00       		.byte	0
 11128 001f 00       		.byte	0
 11129 0020 03       		.uleb128 0x3
 11130 0021 24       		.uleb128 0x24
 11131 0022 00       		.byte	0
 11132 0023 0B       		.uleb128 0xb
 11133 0024 0B       		.uleb128 0xb
 11134 0025 3E       		.uleb128 0x3e
 11135 0026 0B       		.uleb128 0xb
 11136 0027 03       		.uleb128 0x3
 11137 0028 0E       		.uleb128 0xe
 11138 0029 00       		.byte	0
 11139 002a 00       		.byte	0
 11140 002b 04       		.uleb128 0x4
 11141 002c 24       		.uleb128 0x24
 11142 002d 00       		.byte	0
 11143 002e 0B       		.uleb128 0xb
 11144 002f 0B       		.uleb128 0xb
 11145 0030 3E       		.uleb128 0x3e
 11146 0031 0B       		.uleb128 0xb
 11147 0032 03       		.uleb128 0x3
 11148 0033 08       		.uleb128 0x8
 11149 0034 00       		.byte	0
 11150 0035 00       		.byte	0
 11151 0036 05       		.uleb128 0x5
 11152 0037 13       		.uleb128 0x13
 11153 0038 01       		.byte	0x1
 11154 0039 0B       		.uleb128 0xb
 11155 003a 0B       		.uleb128 0xb
 11156 003b 3A       		.uleb128 0x3a
 11157 003c 0B       		.uleb128 0xb
 11158 003d 3B       		.uleb128 0x3b
 11159 003e 0B       		.uleb128 0xb
 11160 003f 01       		.uleb128 0x1
 11161 0040 13       		.uleb128 0x13
 11162 0041 00       		.byte	0
 11163 0042 00       		.byte	0
 11164 0043 06       		.uleb128 0x6
 11165 0044 0D       		.uleb128 0xd
 11166 0045 00       		.byte	0
 11167 0046 03       		.uleb128 0x3
 11168 0047 08       		.uleb128 0x8
 11169 0048 3A       		.uleb128 0x3a
ARM GAS  C:\Users\haske\AppData\Local\Temp\ccOQHbDo.s 			page 230


 11170 0049 0B       		.uleb128 0xb
 11171 004a 3B       		.uleb128 0x3b
 11172 004b 0B       		.uleb128 0xb
 11173 004c 49       		.uleb128 0x49
 11174 004d 13       		.uleb128 0x13
 11175 004e 38       		.uleb128 0x38
 11176 004f 0B       		.uleb128 0xb
 11177 0050 00       		.byte	0
 11178 0051 00       		.byte	0
 11179 0052 07       		.uleb128 0x7
 11180 0053 04       		.uleb128 0x4
 11181 0054 01       		.byte	0x1
 11182 0055 0B       		.uleb128 0xb
 11183 0056 0B       		.uleb128 0xb
 11184 0057 49       		.uleb128 0x49
 11185 0058 13       		.uleb128 0x13
 11186 0059 3A       		.uleb128 0x3a
 11187 005a 0B       		.uleb128 0xb
 11188 005b 3B       		.uleb128 0x3b
 11189 005c 0B       		.uleb128 0xb
 11190 005d 01       		.uleb128 0x1
 11191 005e 13       		.uleb128 0x13
 11192 005f 00       		.byte	0
 11193 0060 00       		.byte	0
 11194 0061 08       		.uleb128 0x8
 11195 0062 28       		.uleb128 0x28
 11196 0063 00       		.byte	0
 11197 0064 03       		.uleb128 0x3
 11198 0065 0E       		.uleb128 0xe
 11199 0066 1C       		.uleb128 0x1c
 11200 0067 0B       		.uleb128 0xb
 11201 0068 00       		.byte	0
 11202 0069 00       		.byte	0
 11203 006a 09       		.uleb128 0x9
 11204 006b 0D       		.uleb128 0xd
 11205 006c 00       		.byte	0
 11206 006d 03       		.uleb128 0x3
 11207 006e 0E       		.uleb128 0xe
 11208 006f 3A       		.uleb128 0x3a
 11209 0070 0B       		.uleb128 0xb
 11210 0071 3B       		.uleb128 0x3b
 11211 0072 0B       		.uleb128 0xb
 11212 0073 49       		.uleb128 0x49
 11213 0074 13       		.uleb128 0x13
 11214 0075 38       		.uleb128 0x38
 11215 0076 0B       		.uleb128 0xb
 11216 0077 00       		.byte	0
 11217 0078 00       		.byte	0
 11218 0079 0A       		.uleb128 0xa
 11219 007a 0D       		.uleb128 0xd
 11220 007b 00       		.byte	0
 11221 007c 03       		.uleb128 0x3
 11222 007d 08       		.uleb128 0x8
 11223 007e 3A       		.uleb128 0x3a
 11224 007f 0B       		.uleb128 0xb
 11225 0080 3B       		.uleb128 0x3b
 11226 0081 0B       		.uleb128 0xb
ARM GAS  C:\Users\haske\AppData\Local\Temp\ccOQHbDo.s 			page 231


 11227 0082 49       		.uleb128 0x49
 11228 0083 13       		.uleb128 0x13
 11229 0084 0B       		.uleb128 0xb
 11230 0085 0B       		.uleb128 0xb
 11231 0086 0D       		.uleb128 0xd
 11232 0087 0B       		.uleb128 0xb
 11233 0088 0C       		.uleb128 0xc
 11234 0089 0B       		.uleb128 0xb
 11235 008a 38       		.uleb128 0x38
 11236 008b 0B       		.uleb128 0xb
 11237 008c 00       		.byte	0
 11238 008d 00       		.byte	0
 11239 008e 0B       		.uleb128 0xb
 11240 008f 0D       		.uleb128 0xd
 11241 0090 00       		.byte	0
 11242 0091 03       		.uleb128 0x3
 11243 0092 0E       		.uleb128 0xe
 11244 0093 3A       		.uleb128 0x3a
 11245 0094 0B       		.uleb128 0xb
 11246 0095 3B       		.uleb128 0x3b
 11247 0096 0B       		.uleb128 0xb
 11248 0097 49       		.uleb128 0x49
 11249 0098 13       		.uleb128 0x13
 11250 0099 0B       		.uleb128 0xb
 11251 009a 0B       		.uleb128 0xb
 11252 009b 0D       		.uleb128 0xd
 11253 009c 0B       		.uleb128 0xb
 11254 009d 0C       		.uleb128 0xc
 11255 009e 0B       		.uleb128 0xb
 11256 009f 38       		.uleb128 0x38
 11257 00a0 0B       		.uleb128 0xb
 11258 00a1 00       		.byte	0
 11259 00a2 00       		.byte	0
 11260 00a3 0C       		.uleb128 0xc
 11261 00a4 13       		.uleb128 0x13
 11262 00a5 01       		.byte	0x1
 11263 00a6 03       		.uleb128 0x3
 11264 00a7 0E       		.uleb128 0xe
 11265 00a8 0B       		.uleb128 0xb
 11266 00a9 0B       		.uleb128 0xb
 11267 00aa 3A       		.uleb128 0x3a
 11268 00ab 0B       		.uleb128 0xb
 11269 00ac 3B       		.uleb128 0x3b
 11270 00ad 0B       		.uleb128 0xb
 11271 00ae 01       		.uleb128 0x1
 11272 00af 13       		.uleb128 0x13
 11273 00b0 00       		.byte	0
 11274 00b1 00       		.byte	0
 11275 00b2 0D       		.uleb128 0xd
 11276 00b3 0F       		.uleb128 0xf
 11277 00b4 00       		.byte	0
 11278 00b5 0B       		.uleb128 0xb
 11279 00b6 0B       		.uleb128 0xb
 11280 00b7 49       		.uleb128 0x49
 11281 00b8 13       		.uleb128 0x13
 11282 00b9 00       		.byte	0
 11283 00ba 00       		.byte	0
ARM GAS  C:\Users\haske\AppData\Local\Temp\ccOQHbDo.s 			page 232


 11284 00bb 0E       		.uleb128 0xe
 11285 00bc 26       		.uleb128 0x26
 11286 00bd 00       		.byte	0
 11287 00be 49       		.uleb128 0x49
 11288 00bf 13       		.uleb128 0x13
 11289 00c0 00       		.byte	0
 11290 00c1 00       		.byte	0
 11291 00c2 0F       		.uleb128 0xf
 11292 00c3 15       		.uleb128 0x15
 11293 00c4 01       		.byte	0x1
 11294 00c5 27       		.uleb128 0x27
 11295 00c6 19       		.uleb128 0x19
 11296 00c7 49       		.uleb128 0x49
 11297 00c8 13       		.uleb128 0x13
 11298 00c9 01       		.uleb128 0x1
 11299 00ca 13       		.uleb128 0x13
 11300 00cb 00       		.byte	0
 11301 00cc 00       		.byte	0
 11302 00cd 10       		.uleb128 0x10
 11303 00ce 05       		.uleb128 0x5
 11304 00cf 00       		.byte	0
 11305 00d0 49       		.uleb128 0x49
 11306 00d1 13       		.uleb128 0x13
 11307 00d2 00       		.byte	0
 11308 00d3 00       		.byte	0
 11309 00d4 11       		.uleb128 0x11
 11310 00d5 26       		.uleb128 0x26
 11311 00d6 00       		.byte	0
 11312 00d7 00       		.byte	0
 11313 00d8 00       		.byte	0
 11314 00d9 12       		.uleb128 0x12
 11315 00da 0F       		.uleb128 0xf
 11316 00db 00       		.byte	0
 11317 00dc 0B       		.uleb128 0xb
 11318 00dd 0B       		.uleb128 0xb
 11319 00de 00       		.byte	0
 11320 00df 00       		.byte	0
 11321 00e0 13       		.uleb128 0x13
 11322 00e1 17       		.uleb128 0x17
 11323 00e2 01       		.byte	0x1
 11324 00e3 0B       		.uleb128 0xb
 11325 00e4 0B       		.uleb128 0xb
 11326 00e5 3A       		.uleb128 0x3a
 11327 00e6 0B       		.uleb128 0xb
 11328 00e7 3B       		.uleb128 0x3b
 11329 00e8 0B       		.uleb128 0xb
 11330 00e9 01       		.uleb128 0x1
 11331 00ea 13       		.uleb128 0x13
 11332 00eb 00       		.byte	0
 11333 00ec 00       		.byte	0
 11334 00ed 14       		.uleb128 0x14
 11335 00ee 0D       		.uleb128 0xd
 11336 00ef 00       		.byte	0
 11337 00f0 03       		.uleb128 0x3
 11338 00f1 08       		.uleb128 0x8
 11339 00f2 3A       		.uleb128 0x3a
 11340 00f3 0B       		.uleb128 0xb
ARM GAS  C:\Users\haske\AppData\Local\Temp\ccOQHbDo.s 			page 233


 11341 00f4 3B       		.uleb128 0x3b
 11342 00f5 0B       		.uleb128 0xb
 11343 00f6 49       		.uleb128 0x49
 11344 00f7 13       		.uleb128 0x13
 11345 00f8 00       		.byte	0
 11346 00f9 00       		.byte	0
 11347 00fa 15       		.uleb128 0x15
 11348 00fb 0D       		.uleb128 0xd
 11349 00fc 00       		.byte	0
 11350 00fd 03       		.uleb128 0x3
 11351 00fe 0E       		.uleb128 0xe
 11352 00ff 3A       		.uleb128 0x3a
 11353 0100 0B       		.uleb128 0xb
 11354 0101 3B       		.uleb128 0x3b
 11355 0102 0B       		.uleb128 0xb
 11356 0103 49       		.uleb128 0x49
 11357 0104 13       		.uleb128 0x13
 11358 0105 00       		.byte	0
 11359 0106 00       		.byte	0
 11360 0107 16       		.uleb128 0x16
 11361 0108 01       		.uleb128 0x1
 11362 0109 01       		.byte	0x1
 11363 010a 49       		.uleb128 0x49
 11364 010b 13       		.uleb128 0x13
 11365 010c 01       		.uleb128 0x1
 11366 010d 13       		.uleb128 0x13
 11367 010e 00       		.byte	0
 11368 010f 00       		.byte	0
 11369 0110 17       		.uleb128 0x17
 11370 0111 21       		.uleb128 0x21
 11371 0112 00       		.byte	0
 11372 0113 49       		.uleb128 0x49
 11373 0114 13       		.uleb128 0x13
 11374 0115 2F       		.uleb128 0x2f
 11375 0116 0B       		.uleb128 0xb
 11376 0117 00       		.byte	0
 11377 0118 00       		.byte	0
 11378 0119 18       		.uleb128 0x18
 11379 011a 28       		.uleb128 0x28
 11380 011b 00       		.byte	0
 11381 011c 03       		.uleb128 0x3
 11382 011d 0E       		.uleb128 0xe
 11383 011e 1C       		.uleb128 0x1c
 11384 011f 05       		.uleb128 0x5
 11385 0120 00       		.byte	0
 11386 0121 00       		.byte	0
 11387 0122 19       		.uleb128 0x19
 11388 0123 16       		.uleb128 0x16
 11389 0124 00       		.byte	0
 11390 0125 03       		.uleb128 0x3
 11391 0126 0E       		.uleb128 0xe
 11392 0127 3A       		.uleb128 0x3a
 11393 0128 0B       		.uleb128 0xb
 11394 0129 3B       		.uleb128 0x3b
 11395 012a 05       		.uleb128 0x5
 11396 012b 49       		.uleb128 0x49
 11397 012c 13       		.uleb128 0x13
ARM GAS  C:\Users\haske\AppData\Local\Temp\ccOQHbDo.s 			page 234


 11398 012d 00       		.byte	0
 11399 012e 00       		.byte	0
 11400 012f 1A       		.uleb128 0x1a
 11401 0130 13       		.uleb128 0x13
 11402 0131 01       		.byte	0x1
 11403 0132 0B       		.uleb128 0xb
 11404 0133 0B       		.uleb128 0xb
 11405 0134 3A       		.uleb128 0x3a
 11406 0135 0B       		.uleb128 0xb
 11407 0136 3B       		.uleb128 0x3b
 11408 0137 05       		.uleb128 0x5
 11409 0138 01       		.uleb128 0x1
 11410 0139 13       		.uleb128 0x13
 11411 013a 00       		.byte	0
 11412 013b 00       		.byte	0
 11413 013c 1B       		.uleb128 0x1b
 11414 013d 0D       		.uleb128 0xd
 11415 013e 00       		.byte	0
 11416 013f 03       		.uleb128 0x3
 11417 0140 0E       		.uleb128 0xe
 11418 0141 3A       		.uleb128 0x3a
 11419 0142 0B       		.uleb128 0xb
 11420 0143 3B       		.uleb128 0x3b
 11421 0144 05       		.uleb128 0x5
 11422 0145 49       		.uleb128 0x49
 11423 0146 13       		.uleb128 0x13
 11424 0147 38       		.uleb128 0x38
 11425 0148 0B       		.uleb128 0xb
 11426 0149 00       		.byte	0
 11427 014a 00       		.byte	0
 11428 014b 1C       		.uleb128 0x1c
 11429 014c 17       		.uleb128 0x17
 11430 014d 01       		.byte	0x1
 11431 014e 0B       		.uleb128 0xb
 11432 014f 0B       		.uleb128 0xb
 11433 0150 3A       		.uleb128 0x3a
 11434 0151 0B       		.uleb128 0xb
 11435 0152 3B       		.uleb128 0x3b
 11436 0153 05       		.uleb128 0x5
 11437 0154 01       		.uleb128 0x1
 11438 0155 13       		.uleb128 0x13
 11439 0156 00       		.byte	0
 11440 0157 00       		.byte	0
 11441 0158 1D       		.uleb128 0x1d
 11442 0159 0D       		.uleb128 0xd
 11443 015a 00       		.byte	0
 11444 015b 03       		.uleb128 0x3
 11445 015c 0E       		.uleb128 0xe
 11446 015d 3A       		.uleb128 0x3a
 11447 015e 0B       		.uleb128 0xb
 11448 015f 3B       		.uleb128 0x3b
 11449 0160 05       		.uleb128 0x5
 11450 0161 49       		.uleb128 0x49
 11451 0162 13       		.uleb128 0x13
 11452 0163 00       		.byte	0
 11453 0164 00       		.byte	0
 11454 0165 1E       		.uleb128 0x1e
ARM GAS  C:\Users\haske\AppData\Local\Temp\ccOQHbDo.s 			page 235


 11455 0166 0D       		.uleb128 0xd
 11456 0167 00       		.byte	0
 11457 0168 03       		.uleb128 0x3
 11458 0169 08       		.uleb128 0x8
 11459 016a 3A       		.uleb128 0x3a
 11460 016b 0B       		.uleb128 0xb
 11461 016c 3B       		.uleb128 0x3b
 11462 016d 05       		.uleb128 0x5
 11463 016e 49       		.uleb128 0x49
 11464 016f 13       		.uleb128 0x13
 11465 0170 38       		.uleb128 0x38
 11466 0171 0B       		.uleb128 0xb
 11467 0172 00       		.byte	0
 11468 0173 00       		.byte	0
 11469 0174 1F       		.uleb128 0x1f
 11470 0175 15       		.uleb128 0x15
 11471 0176 01       		.byte	0x1
 11472 0177 27       		.uleb128 0x27
 11473 0178 19       		.uleb128 0x19
 11474 0179 01       		.uleb128 0x1
 11475 017a 13       		.uleb128 0x13
 11476 017b 00       		.byte	0
 11477 017c 00       		.byte	0
 11478 017d 20       		.uleb128 0x20
 11479 017e 35       		.uleb128 0x35
 11480 017f 00       		.byte	0
 11481 0180 49       		.uleb128 0x49
 11482 0181 13       		.uleb128 0x13
 11483 0182 00       		.byte	0
 11484 0183 00       		.byte	0
 11485 0184 21       		.uleb128 0x21
 11486 0185 13       		.uleb128 0x13
 11487 0186 01       		.byte	0x1
 11488 0187 03       		.uleb128 0x3
 11489 0188 0E       		.uleb128 0xe
 11490 0189 0B       		.uleb128 0xb
 11491 018a 05       		.uleb128 0x5
 11492 018b 3A       		.uleb128 0x3a
 11493 018c 0B       		.uleb128 0xb
 11494 018d 3B       		.uleb128 0x3b
 11495 018e 0B       		.uleb128 0xb
 11496 018f 01       		.uleb128 0x1
 11497 0190 13       		.uleb128 0x13
 11498 0191 00       		.byte	0
 11499 0192 00       		.byte	0
 11500 0193 22       		.uleb128 0x22
 11501 0194 0D       		.uleb128 0xd
 11502 0195 00       		.byte	0
 11503 0196 03       		.uleb128 0x3
 11504 0197 0E       		.uleb128 0xe
 11505 0198 3A       		.uleb128 0x3a
 11506 0199 0B       		.uleb128 0xb
 11507 019a 3B       		.uleb128 0x3b
 11508 019b 0B       		.uleb128 0xb
 11509 019c 49       		.uleb128 0x49
 11510 019d 13       		.uleb128 0x13
 11511 019e 38       		.uleb128 0x38
ARM GAS  C:\Users\haske\AppData\Local\Temp\ccOQHbDo.s 			page 236


 11512 019f 05       		.uleb128 0x5
 11513 01a0 00       		.byte	0
 11514 01a1 00       		.byte	0
 11515 01a2 23       		.uleb128 0x23
 11516 01a3 28       		.uleb128 0x28
 11517 01a4 00       		.byte	0
 11518 01a5 03       		.uleb128 0x3
 11519 01a6 0E       		.uleb128 0xe
 11520 01a7 1C       		.uleb128 0x1c
 11521 01a8 06       		.uleb128 0x6
 11522 01a9 00       		.byte	0
 11523 01aa 00       		.byte	0
 11524 01ab 24       		.uleb128 0x24
 11525 01ac 13       		.uleb128 0x13
 11526 01ad 00       		.byte	0
 11527 01ae 03       		.uleb128 0x3
 11528 01af 0E       		.uleb128 0xe
 11529 01b0 3C       		.uleb128 0x3c
 11530 01b1 19       		.uleb128 0x19
 11531 01b2 00       		.byte	0
 11532 01b3 00       		.byte	0
 11533 01b4 25       		.uleb128 0x25
 11534 01b5 2E       		.uleb128 0x2e
 11535 01b6 01       		.byte	0x1
 11536 01b7 03       		.uleb128 0x3
 11537 01b8 0E       		.uleb128 0xe
 11538 01b9 3A       		.uleb128 0x3a
 11539 01ba 0B       		.uleb128 0xb
 11540 01bb 3B       		.uleb128 0x3b
 11541 01bc 0B       		.uleb128 0xb
 11542 01bd 27       		.uleb128 0x27
 11543 01be 19       		.uleb128 0x19
 11544 01bf 49       		.uleb128 0x49
 11545 01c0 13       		.uleb128 0x13
 11546 01c1 20       		.uleb128 0x20
 11547 01c2 0B       		.uleb128 0xb
 11548 01c3 01       		.uleb128 0x1
 11549 01c4 13       		.uleb128 0x13
 11550 01c5 00       		.byte	0
 11551 01c6 00       		.byte	0
 11552 01c7 26       		.uleb128 0x26
 11553 01c8 05       		.uleb128 0x5
 11554 01c9 00       		.byte	0
 11555 01ca 03       		.uleb128 0x3
 11556 01cb 08       		.uleb128 0x8
 11557 01cc 3A       		.uleb128 0x3a
 11558 01cd 0B       		.uleb128 0xb
 11559 01ce 3B       		.uleb128 0x3b
 11560 01cf 0B       		.uleb128 0xb
 11561 01d0 49       		.uleb128 0x49
 11562 01d1 13       		.uleb128 0x13
 11563 01d2 00       		.byte	0
 11564 01d3 00       		.byte	0
 11565 01d4 27       		.uleb128 0x27
 11566 01d5 05       		.uleb128 0x5
 11567 01d6 00       		.byte	0
 11568 01d7 03       		.uleb128 0x3
ARM GAS  C:\Users\haske\AppData\Local\Temp\ccOQHbDo.s 			page 237


 11569 01d8 0E       		.uleb128 0xe
 11570 01d9 3A       		.uleb128 0x3a
 11571 01da 0B       		.uleb128 0xb
 11572 01db 3B       		.uleb128 0x3b
 11573 01dc 0B       		.uleb128 0xb
 11574 01dd 49       		.uleb128 0x49
 11575 01de 13       		.uleb128 0x13
 11576 01df 00       		.byte	0
 11577 01e0 00       		.byte	0
 11578 01e1 28       		.uleb128 0x28
 11579 01e2 34       		.uleb128 0x34
 11580 01e3 00       		.byte	0
 11581 01e4 03       		.uleb128 0x3
 11582 01e5 08       		.uleb128 0x8
 11583 01e6 3A       		.uleb128 0x3a
 11584 01e7 0B       		.uleb128 0xb
 11585 01e8 3B       		.uleb128 0x3b
 11586 01e9 0B       		.uleb128 0xb
 11587 01ea 49       		.uleb128 0x49
 11588 01eb 13       		.uleb128 0x13
 11589 01ec 00       		.byte	0
 11590 01ed 00       		.byte	0
 11591 01ee 29       		.uleb128 0x29
 11592 01ef 2E       		.uleb128 0x2e
 11593 01f0 01       		.byte	0x1
 11594 01f1 03       		.uleb128 0x3
 11595 01f2 0E       		.uleb128 0xe
 11596 01f3 3A       		.uleb128 0x3a
 11597 01f4 0B       		.uleb128 0xb
 11598 01f5 3B       		.uleb128 0x3b
 11599 01f6 05       		.uleb128 0x5
 11600 01f7 27       		.uleb128 0x27
 11601 01f8 19       		.uleb128 0x19
 11602 01f9 11       		.uleb128 0x11
 11603 01fa 01       		.uleb128 0x1
 11604 01fb 12       		.uleb128 0x12
 11605 01fc 06       		.uleb128 0x6
 11606 01fd 40       		.uleb128 0x40
 11607 01fe 18       		.uleb128 0x18
 11608 01ff 9742     		.uleb128 0x2117
 11609 0201 19       		.uleb128 0x19
 11610 0202 01       		.uleb128 0x1
 11611 0203 13       		.uleb128 0x13
 11612 0204 00       		.byte	0
 11613 0205 00       		.byte	0
 11614 0206 2A       		.uleb128 0x2a
 11615 0207 05       		.uleb128 0x5
 11616 0208 00       		.byte	0
 11617 0209 03       		.uleb128 0x3
 11618 020a 0E       		.uleb128 0xe
 11619 020b 3A       		.uleb128 0x3a
 11620 020c 0B       		.uleb128 0xb
 11621 020d 3B       		.uleb128 0x3b
 11622 020e 05       		.uleb128 0x5
 11623 020f 49       		.uleb128 0x49
 11624 0210 13       		.uleb128 0x13
 11625 0211 02       		.uleb128 0x2
ARM GAS  C:\Users\haske\AppData\Local\Temp\ccOQHbDo.s 			page 238


 11626 0212 18       		.uleb128 0x18
 11627 0213 00       		.byte	0
 11628 0214 00       		.byte	0
 11629 0215 2B       		.uleb128 0x2b
 11630 0216 2E       		.uleb128 0x2e
 11631 0217 01       		.byte	0x1
 11632 0218 03       		.uleb128 0x3
 11633 0219 0E       		.uleb128 0xe
 11634 021a 3A       		.uleb128 0x3a
 11635 021b 0B       		.uleb128 0xb
 11636 021c 3B       		.uleb128 0x3b
 11637 021d 05       		.uleb128 0x5
 11638 021e 27       		.uleb128 0x27
 11639 021f 19       		.uleb128 0x19
 11640 0220 49       		.uleb128 0x49
 11641 0221 13       		.uleb128 0x13
 11642 0222 11       		.uleb128 0x11
 11643 0223 01       		.uleb128 0x1
 11644 0224 12       		.uleb128 0x12
 11645 0225 06       		.uleb128 0x6
 11646 0226 40       		.uleb128 0x40
 11647 0227 18       		.uleb128 0x18
 11648 0228 9742     		.uleb128 0x2117
 11649 022a 19       		.uleb128 0x19
 11650 022b 01       		.uleb128 0x1
 11651 022c 13       		.uleb128 0x13
 11652 022d 00       		.byte	0
 11653 022e 00       		.byte	0
 11654 022f 2C       		.uleb128 0x2c
 11655 0230 05       		.uleb128 0x5
 11656 0231 00       		.byte	0
 11657 0232 03       		.uleb128 0x3
 11658 0233 0E       		.uleb128 0xe
 11659 0234 3A       		.uleb128 0x3a
 11660 0235 0B       		.uleb128 0xb
 11661 0236 3B       		.uleb128 0x3b
 11662 0237 05       		.uleb128 0x5
 11663 0238 49       		.uleb128 0x49
 11664 0239 13       		.uleb128 0x13
 11665 023a 02       		.uleb128 0x2
 11666 023b 17       		.uleb128 0x17
 11667 023c 00       		.byte	0
 11668 023d 00       		.byte	0
 11669 023e 2D       		.uleb128 0x2d
 11670 023f 34       		.uleb128 0x34
 11671 0240 00       		.byte	0
 11672 0241 03       		.uleb128 0x3
 11673 0242 0E       		.uleb128 0xe
 11674 0243 3A       		.uleb128 0x3a
 11675 0244 0B       		.uleb128 0xb
 11676 0245 3B       		.uleb128 0x3b
 11677 0246 05       		.uleb128 0x5
 11678 0247 49       		.uleb128 0x49
 11679 0248 13       		.uleb128 0x13
 11680 0249 02       		.uleb128 0x2
 11681 024a 17       		.uleb128 0x17
 11682 024b 00       		.byte	0
ARM GAS  C:\Users\haske\AppData\Local\Temp\ccOQHbDo.s 			page 239


 11683 024c 00       		.byte	0
 11684 024d 2E       		.uleb128 0x2e
 11685 024e 898201   		.uleb128 0x4109
 11686 0251 01       		.byte	0x1
 11687 0252 11       		.uleb128 0x11
 11688 0253 01       		.uleb128 0x1
 11689 0254 31       		.uleb128 0x31
 11690 0255 13       		.uleb128 0x13
 11691 0256 01       		.uleb128 0x1
 11692 0257 13       		.uleb128 0x13
 11693 0258 00       		.byte	0
 11694 0259 00       		.byte	0
 11695 025a 2F       		.uleb128 0x2f
 11696 025b 8A8201   		.uleb128 0x410a
 11697 025e 00       		.byte	0
 11698 025f 02       		.uleb128 0x2
 11699 0260 18       		.uleb128 0x18
 11700 0261 9142     		.uleb128 0x2111
 11701 0263 18       		.uleb128 0x18
 11702 0264 00       		.byte	0
 11703 0265 00       		.byte	0
 11704 0266 30       		.uleb128 0x30
 11705 0267 898201   		.uleb128 0x4109
 11706 026a 00       		.byte	0
 11707 026b 11       		.uleb128 0x11
 11708 026c 01       		.uleb128 0x1
 11709 026d 31       		.uleb128 0x31
 11710 026e 13       		.uleb128 0x13
 11711 026f 00       		.byte	0
 11712 0270 00       		.byte	0
 11713 0271 31       		.uleb128 0x31
 11714 0272 898201   		.uleb128 0x4109
 11715 0275 01       		.byte	0x1
 11716 0276 11       		.uleb128 0x11
 11717 0277 01       		.uleb128 0x1
 11718 0278 31       		.uleb128 0x31
 11719 0279 13       		.uleb128 0x13
 11720 027a 00       		.byte	0
 11721 027b 00       		.byte	0
 11722 027c 32       		.uleb128 0x32
 11723 027d 0B       		.uleb128 0xb
 11724 027e 01       		.byte	0x1
 11725 027f 11       		.uleb128 0x11
 11726 0280 01       		.uleb128 0x1
 11727 0281 12       		.uleb128 0x12
 11728 0282 06       		.uleb128 0x6
 11729 0283 01       		.uleb128 0x1
 11730 0284 13       		.uleb128 0x13
 11731 0285 00       		.byte	0
 11732 0286 00       		.byte	0
 11733 0287 33       		.uleb128 0x33
 11734 0288 34       		.uleb128 0x34
 11735 0289 00       		.byte	0
 11736 028a 03       		.uleb128 0x3
 11737 028b 0E       		.uleb128 0xe
 11738 028c 3A       		.uleb128 0x3a
 11739 028d 0B       		.uleb128 0xb
ARM GAS  C:\Users\haske\AppData\Local\Temp\ccOQHbDo.s 			page 240


 11740 028e 3B       		.uleb128 0x3b
 11741 028f 05       		.uleb128 0x5
 11742 0290 49       		.uleb128 0x49
 11743 0291 13       		.uleb128 0x13
 11744 0292 02       		.uleb128 0x2
 11745 0293 18       		.uleb128 0x18
 11746 0294 00       		.byte	0
 11747 0295 00       		.byte	0
 11748 0296 34       		.uleb128 0x34
 11749 0297 1D       		.uleb128 0x1d
 11750 0298 01       		.byte	0x1
 11751 0299 31       		.uleb128 0x31
 11752 029a 13       		.uleb128 0x13
 11753 029b 11       		.uleb128 0x11
 11754 029c 01       		.uleb128 0x1
 11755 029d 12       		.uleb128 0x12
 11756 029e 06       		.uleb128 0x6
 11757 029f 58       		.uleb128 0x58
 11758 02a0 0B       		.uleb128 0xb
 11759 02a1 59       		.uleb128 0x59
 11760 02a2 05       		.uleb128 0x5
 11761 02a3 01       		.uleb128 0x1
 11762 02a4 13       		.uleb128 0x13
 11763 02a5 00       		.byte	0
 11764 02a6 00       		.byte	0
 11765 02a7 35       		.uleb128 0x35
 11766 02a8 05       		.uleb128 0x5
 11767 02a9 00       		.byte	0
 11768 02aa 31       		.uleb128 0x31
 11769 02ab 13       		.uleb128 0x13
 11770 02ac 02       		.uleb128 0x2
 11771 02ad 17       		.uleb128 0x17
 11772 02ae 00       		.byte	0
 11773 02af 00       		.byte	0
 11774 02b0 36       		.uleb128 0x36
 11775 02b1 0B       		.uleb128 0xb
 11776 02b2 01       		.byte	0x1
 11777 02b3 11       		.uleb128 0x11
 11778 02b4 01       		.uleb128 0x1
 11779 02b5 12       		.uleb128 0x12
 11780 02b6 06       		.uleb128 0x6
 11781 02b7 00       		.byte	0
 11782 02b8 00       		.byte	0
 11783 02b9 37       		.uleb128 0x37
 11784 02ba 34       		.uleb128 0x34
 11785 02bb 00       		.byte	0
 11786 02bc 31       		.uleb128 0x31
 11787 02bd 13       		.uleb128 0x13
 11788 02be 00       		.byte	0
 11789 02bf 00       		.byte	0
 11790 02c0 38       		.uleb128 0x38
 11791 02c1 05       		.uleb128 0x5
 11792 02c2 00       		.byte	0
 11793 02c3 03       		.uleb128 0x3
 11794 02c4 08       		.uleb128 0x8
 11795 02c5 3A       		.uleb128 0x3a
 11796 02c6 0B       		.uleb128 0xb
ARM GAS  C:\Users\haske\AppData\Local\Temp\ccOQHbDo.s 			page 241


 11797 02c7 3B       		.uleb128 0x3b
 11798 02c8 05       		.uleb128 0x5
 11799 02c9 49       		.uleb128 0x49
 11800 02ca 13       		.uleb128 0x13
 11801 02cb 02       		.uleb128 0x2
 11802 02cc 17       		.uleb128 0x17
 11803 02cd 00       		.byte	0
 11804 02ce 00       		.byte	0
 11805 02cf 39       		.uleb128 0x39
 11806 02d0 34       		.uleb128 0x34
 11807 02d1 00       		.byte	0
 11808 02d2 03       		.uleb128 0x3
 11809 02d3 08       		.uleb128 0x8
 11810 02d4 3A       		.uleb128 0x3a
 11811 02d5 0B       		.uleb128 0xb
 11812 02d6 3B       		.uleb128 0x3b
 11813 02d7 05       		.uleb128 0x5
 11814 02d8 49       		.uleb128 0x49
 11815 02d9 13       		.uleb128 0x13
 11816 02da 02       		.uleb128 0x2
 11817 02db 17       		.uleb128 0x17
 11818 02dc 00       		.byte	0
 11819 02dd 00       		.byte	0
 11820 02de 3A       		.uleb128 0x3a
 11821 02df 2E       		.uleb128 0x2e
 11822 02e0 01       		.byte	0x1
 11823 02e1 3F       		.uleb128 0x3f
 11824 02e2 19       		.uleb128 0x19
 11825 02e3 03       		.uleb128 0x3
 11826 02e4 0E       		.uleb128 0xe
 11827 02e5 3A       		.uleb128 0x3a
 11828 02e6 0B       		.uleb128 0xb
 11829 02e7 3B       		.uleb128 0x3b
 11830 02e8 0B       		.uleb128 0xb
 11831 02e9 27       		.uleb128 0x27
 11832 02ea 19       		.uleb128 0x19
 11833 02eb 11       		.uleb128 0x11
 11834 02ec 01       		.uleb128 0x1
 11835 02ed 12       		.uleb128 0x12
 11836 02ee 06       		.uleb128 0x6
 11837 02ef 40       		.uleb128 0x40
 11838 02f0 18       		.uleb128 0x18
 11839 02f1 9742     		.uleb128 0x2117
 11840 02f3 19       		.uleb128 0x19
 11841 02f4 01       		.uleb128 0x1
 11842 02f5 13       		.uleb128 0x13
 11843 02f6 00       		.byte	0
 11844 02f7 00       		.byte	0
 11845 02f8 3B       		.uleb128 0x3b
 11846 02f9 05       		.uleb128 0x5
 11847 02fa 00       		.byte	0
 11848 02fb 03       		.uleb128 0x3
 11849 02fc 0E       		.uleb128 0xe
 11850 02fd 3A       		.uleb128 0x3a
 11851 02fe 0B       		.uleb128 0xb
 11852 02ff 3B       		.uleb128 0x3b
 11853 0300 0B       		.uleb128 0xb
ARM GAS  C:\Users\haske\AppData\Local\Temp\ccOQHbDo.s 			page 242


 11854 0301 49       		.uleb128 0x49
 11855 0302 13       		.uleb128 0x13
 11856 0303 02       		.uleb128 0x2
 11857 0304 17       		.uleb128 0x17
 11858 0305 00       		.byte	0
 11859 0306 00       		.byte	0
 11860 0307 3C       		.uleb128 0x3c
 11861 0308 05       		.uleb128 0x5
 11862 0309 00       		.byte	0
 11863 030a 03       		.uleb128 0x3
 11864 030b 08       		.uleb128 0x8
 11865 030c 3A       		.uleb128 0x3a
 11866 030d 0B       		.uleb128 0xb
 11867 030e 3B       		.uleb128 0x3b
 11868 030f 0B       		.uleb128 0xb
 11869 0310 49       		.uleb128 0x49
 11870 0311 13       		.uleb128 0x13
 11871 0312 02       		.uleb128 0x2
 11872 0313 17       		.uleb128 0x17
 11873 0314 00       		.byte	0
 11874 0315 00       		.byte	0
 11875 0316 3D       		.uleb128 0x3d
 11876 0317 34       		.uleb128 0x34
 11877 0318 00       		.byte	0
 11878 0319 03       		.uleb128 0x3
 11879 031a 0E       		.uleb128 0xe
 11880 031b 3A       		.uleb128 0x3a
 11881 031c 0B       		.uleb128 0xb
 11882 031d 3B       		.uleb128 0x3b
 11883 031e 0B       		.uleb128 0xb
 11884 031f 49       		.uleb128 0x49
 11885 0320 13       		.uleb128 0x13
 11886 0321 02       		.uleb128 0x2
 11887 0322 18       		.uleb128 0x18
 11888 0323 00       		.byte	0
 11889 0324 00       		.byte	0
 11890 0325 3E       		.uleb128 0x3e
 11891 0326 34       		.uleb128 0x34
 11892 0327 00       		.byte	0
 11893 0328 03       		.uleb128 0x3
 11894 0329 08       		.uleb128 0x8
 11895 032a 3A       		.uleb128 0x3a
 11896 032b 0B       		.uleb128 0xb
 11897 032c 3B       		.uleb128 0x3b
 11898 032d 0B       		.uleb128 0xb
 11899 032e 49       		.uleb128 0x49
 11900 032f 13       		.uleb128 0x13
 11901 0330 02       		.uleb128 0x2
 11902 0331 17       		.uleb128 0x17
 11903 0332 00       		.byte	0
 11904 0333 00       		.byte	0
 11905 0334 3F       		.uleb128 0x3f
 11906 0335 2E       		.uleb128 0x2e
 11907 0336 00       		.byte	0
 11908 0337 3F       		.uleb128 0x3f
 11909 0338 19       		.uleb128 0x19
 11910 0339 03       		.uleb128 0x3
ARM GAS  C:\Users\haske\AppData\Local\Temp\ccOQHbDo.s 			page 243


 11911 033a 0E       		.uleb128 0xe
 11912 033b 3A       		.uleb128 0x3a
 11913 033c 0B       		.uleb128 0xb
 11914 033d 3B       		.uleb128 0x3b
 11915 033e 0B       		.uleb128 0xb
 11916 033f 27       		.uleb128 0x27
 11917 0340 19       		.uleb128 0x19
 11918 0341 49       		.uleb128 0x49
 11919 0342 13       		.uleb128 0x13
 11920 0343 11       		.uleb128 0x11
 11921 0344 01       		.uleb128 0x1
 11922 0345 12       		.uleb128 0x12
 11923 0346 06       		.uleb128 0x6
 11924 0347 40       		.uleb128 0x40
 11925 0348 18       		.uleb128 0x18
 11926 0349 9742     		.uleb128 0x2117
 11927 034b 19       		.uleb128 0x19
 11928 034c 00       		.byte	0
 11929 034d 00       		.byte	0
 11930 034e 40       		.uleb128 0x40
 11931 034f 2E       		.uleb128 0x2e
 11932 0350 01       		.byte	0x1
 11933 0351 3F       		.uleb128 0x3f
 11934 0352 19       		.uleb128 0x19
 11935 0353 03       		.uleb128 0x3
 11936 0354 0E       		.uleb128 0xe
 11937 0355 3A       		.uleb128 0x3a
 11938 0356 0B       		.uleb128 0xb
 11939 0357 3B       		.uleb128 0x3b
 11940 0358 0B       		.uleb128 0xb
 11941 0359 27       		.uleb128 0x27
 11942 035a 19       		.uleb128 0x19
 11943 035b 49       		.uleb128 0x49
 11944 035c 13       		.uleb128 0x13
 11945 035d 11       		.uleb128 0x11
 11946 035e 01       		.uleb128 0x1
 11947 035f 12       		.uleb128 0x12
 11948 0360 06       		.uleb128 0x6
 11949 0361 40       		.uleb128 0x40
 11950 0362 18       		.uleb128 0x18
 11951 0363 9742     		.uleb128 0x2117
 11952 0365 19       		.uleb128 0x19
 11953 0366 01       		.uleb128 0x1
 11954 0367 13       		.uleb128 0x13
 11955 0368 00       		.byte	0
 11956 0369 00       		.byte	0
 11957 036a 41       		.uleb128 0x41
 11958 036b 05       		.uleb128 0x5
 11959 036c 00       		.byte	0
 11960 036d 03       		.uleb128 0x3
 11961 036e 0E       		.uleb128 0xe
 11962 036f 3A       		.uleb128 0x3a
 11963 0370 0B       		.uleb128 0xb
 11964 0371 3B       		.uleb128 0x3b
 11965 0372 0B       		.uleb128 0xb
 11966 0373 49       		.uleb128 0x49
 11967 0374 13       		.uleb128 0x13
ARM GAS  C:\Users\haske\AppData\Local\Temp\ccOQHbDo.s 			page 244


 11968 0375 02       		.uleb128 0x2
 11969 0376 18       		.uleb128 0x18
 11970 0377 00       		.byte	0
 11971 0378 00       		.byte	0
 11972 0379 42       		.uleb128 0x42
 11973 037a 2E       		.uleb128 0x2e
 11974 037b 01       		.byte	0x1
 11975 037c 3F       		.uleb128 0x3f
 11976 037d 19       		.uleb128 0x19
 11977 037e 03       		.uleb128 0x3
 11978 037f 0E       		.uleb128 0xe
 11979 0380 3A       		.uleb128 0x3a
 11980 0381 0B       		.uleb128 0xb
 11981 0382 3B       		.uleb128 0x3b
 11982 0383 05       		.uleb128 0x5
 11983 0384 27       		.uleb128 0x27
 11984 0385 19       		.uleb128 0x19
 11985 0386 49       		.uleb128 0x49
 11986 0387 13       		.uleb128 0x13
 11987 0388 11       		.uleb128 0x11
 11988 0389 01       		.uleb128 0x1
 11989 038a 12       		.uleb128 0x12
 11990 038b 06       		.uleb128 0x6
 11991 038c 40       		.uleb128 0x40
 11992 038d 18       		.uleb128 0x18
 11993 038e 9742     		.uleb128 0x2117
 11994 0390 19       		.uleb128 0x19
 11995 0391 01       		.uleb128 0x1
 11996 0392 13       		.uleb128 0x13
 11997 0393 00       		.byte	0
 11998 0394 00       		.byte	0
 11999 0395 43       		.uleb128 0x43
 12000 0396 2E       		.uleb128 0x2e
 12001 0397 01       		.byte	0x1
 12002 0398 3F       		.uleb128 0x3f
 12003 0399 19       		.uleb128 0x19
 12004 039a 03       		.uleb128 0x3
 12005 039b 0E       		.uleb128 0xe
 12006 039c 3A       		.uleb128 0x3a
 12007 039d 0B       		.uleb128 0xb
 12008 039e 3B       		.uleb128 0x3b
 12009 039f 05       		.uleb128 0x5
 12010 03a0 27       		.uleb128 0x27
 12011 03a1 19       		.uleb128 0x19
 12012 03a2 11       		.uleb128 0x11
 12013 03a3 01       		.uleb128 0x1
 12014 03a4 12       		.uleb128 0x12
 12015 03a5 06       		.uleb128 0x6
 12016 03a6 40       		.uleb128 0x40
 12017 03a7 18       		.uleb128 0x18
 12018 03a8 9742     		.uleb128 0x2117
 12019 03aa 19       		.uleb128 0x19
 12020 03ab 01       		.uleb128 0x1
 12021 03ac 13       		.uleb128 0x13
 12022 03ad 00       		.byte	0
 12023 03ae 00       		.byte	0
 12024 03af 44       		.uleb128 0x44
ARM GAS  C:\Users\haske\AppData\Local\Temp\ccOQHbDo.s 			page 245


 12025 03b0 2E       		.uleb128 0x2e
 12026 03b1 00       		.byte	0
 12027 03b2 3F       		.uleb128 0x3f
 12028 03b3 19       		.uleb128 0x19
 12029 03b4 03       		.uleb128 0x3
 12030 03b5 0E       		.uleb128 0xe
 12031 03b6 3A       		.uleb128 0x3a
 12032 03b7 0B       		.uleb128 0xb
 12033 03b8 3B       		.uleb128 0x3b
 12034 03b9 05       		.uleb128 0x5
 12035 03ba 27       		.uleb128 0x27
 12036 03bb 19       		.uleb128 0x19
 12037 03bc 49       		.uleb128 0x49
 12038 03bd 13       		.uleb128 0x13
 12039 03be 11       		.uleb128 0x11
 12040 03bf 01       		.uleb128 0x1
 12041 03c0 12       		.uleb128 0x12
 12042 03c1 06       		.uleb128 0x6
 12043 03c2 40       		.uleb128 0x40
 12044 03c3 18       		.uleb128 0x18
 12045 03c4 9742     		.uleb128 0x2117
 12046 03c6 19       		.uleb128 0x19
 12047 03c7 00       		.byte	0
 12048 03c8 00       		.byte	0
 12049 03c9 45       		.uleb128 0x45
 12050 03ca 34       		.uleb128 0x34
 12051 03cb 00       		.byte	0
 12052 03cc 03       		.uleb128 0x3
 12053 03cd 0E       		.uleb128 0xe
 12054 03ce 3A       		.uleb128 0x3a
 12055 03cf 0B       		.uleb128 0xb
 12056 03d0 3B       		.uleb128 0x3b
 12057 03d1 05       		.uleb128 0x5
 12058 03d2 49       		.uleb128 0x49
 12059 03d3 13       		.uleb128 0x13
 12060 03d4 1C       		.uleb128 0x1c
 12061 03d5 0B       		.uleb128 0xb
 12062 03d6 00       		.byte	0
 12063 03d7 00       		.byte	0
 12064 03d8 46       		.uleb128 0x46
 12065 03d9 34       		.uleb128 0x34
 12066 03da 00       		.byte	0
 12067 03db 03       		.uleb128 0x3
 12068 03dc 0E       		.uleb128 0xe
 12069 03dd 3A       		.uleb128 0x3a
 12070 03de 0B       		.uleb128 0xb
 12071 03df 3B       		.uleb128 0x3b
 12072 03e0 0B       		.uleb128 0xb
 12073 03e1 49       		.uleb128 0x49
 12074 03e2 13       		.uleb128 0x13
 12075 03e3 02       		.uleb128 0x2
 12076 03e4 17       		.uleb128 0x17
 12077 03e5 00       		.byte	0
 12078 03e6 00       		.byte	0
 12079 03e7 47       		.uleb128 0x47
 12080 03e8 34       		.uleb128 0x34
 12081 03e9 00       		.byte	0
ARM GAS  C:\Users\haske\AppData\Local\Temp\ccOQHbDo.s 			page 246


 12082 03ea 03       		.uleb128 0x3
 12083 03eb 0E       		.uleb128 0xe
 12084 03ec 3A       		.uleb128 0x3a
 12085 03ed 0B       		.uleb128 0xb
 12086 03ee 3B       		.uleb128 0x3b
 12087 03ef 0B       		.uleb128 0xb
 12088 03f0 49       		.uleb128 0x49
 12089 03f1 13       		.uleb128 0x13
 12090 03f2 3F       		.uleb128 0x3f
 12091 03f3 19       		.uleb128 0x19
 12092 03f4 3C       		.uleb128 0x3c
 12093 03f5 19       		.uleb128 0x19
 12094 03f6 00       		.byte	0
 12095 03f7 00       		.byte	0
 12096 03f8 48       		.uleb128 0x48
 12097 03f9 2E       		.uleb128 0x2e
 12098 03fa 00       		.byte	0
 12099 03fb 3F       		.uleb128 0x3f
 12100 03fc 19       		.uleb128 0x19
 12101 03fd 3C       		.uleb128 0x3c
 12102 03fe 19       		.uleb128 0x19
 12103 03ff 6E       		.uleb128 0x6e
 12104 0400 0E       		.uleb128 0xe
 12105 0401 03       		.uleb128 0x3
 12106 0402 0E       		.uleb128 0xe
 12107 0403 3A       		.uleb128 0x3a
 12108 0404 0B       		.uleb128 0xb
 12109 0405 3B       		.uleb128 0x3b
 12110 0406 05       		.uleb128 0x5
 12111 0407 00       		.byte	0
 12112 0408 00       		.byte	0
 12113 0409 49       		.uleb128 0x49
 12114 040a 2E       		.uleb128 0x2e
 12115 040b 00       		.byte	0
 12116 040c 3F       		.uleb128 0x3f
 12117 040d 19       		.uleb128 0x19
 12118 040e 3C       		.uleb128 0x3c
 12119 040f 19       		.uleb128 0x19
 12120 0410 6E       		.uleb128 0x6e
 12121 0411 0E       		.uleb128 0xe
 12122 0412 03       		.uleb128 0x3
 12123 0413 0E       		.uleb128 0xe
 12124 0414 3A       		.uleb128 0x3a
 12125 0415 0B       		.uleb128 0xb
 12126 0416 3B       		.uleb128 0x3b
 12127 0417 0B       		.uleb128 0xb
 12128 0418 00       		.byte	0
 12129 0419 00       		.byte	0
 12130 041a 00       		.byte	0
 12131              		.section	.debug_loc,"",%progbits
 12132              	.Ldebug_loc0:
 12133              	.LLST0:
 12134 0000 00000000 		.4byte	.LVL1
 12135 0004 0A000000 		.4byte	.LVL2
 12136 0008 0100     		.2byte	0x1
 12137 000a 50       		.byte	0x50
 12138 000b 0A000000 		.4byte	.LVL2
ARM GAS  C:\Users\haske\AppData\Local\Temp\ccOQHbDo.s 			page 247


 12139 000f 20000000 		.4byte	.LFE193
 12140 0013 0400     		.2byte	0x4
 12141 0015 F3       		.byte	0xf3
 12142 0016 01       		.uleb128 0x1
 12143 0017 50       		.byte	0x50
 12144 0018 9F       		.byte	0x9f
 12145 0019 00000000 		.4byte	0
 12146 001d 00000000 		.4byte	0
 12147              	.LLST1:
 12148 0021 00000000 		.4byte	.LVL3
 12149 0025 0A000000 		.4byte	.LVL4
 12150 0029 0100     		.2byte	0x1
 12151 002b 50       		.byte	0x50
 12152 002c 0A000000 		.4byte	.LVL4
 12153 0030 F0000000 		.4byte	.LVL38
 12154 0034 0100     		.2byte	0x1
 12155 0036 54       		.byte	0x54
 12156 0037 F0000000 		.4byte	.LVL38
 12157 003b F4000000 		.4byte	.LFE191
 12158 003f 0400     		.2byte	0x4
 12159 0041 F3       		.byte	0xf3
 12160 0042 01       		.uleb128 0x1
 12161 0043 50       		.byte	0x50
 12162 0044 9F       		.byte	0x9f
 12163 0045 00000000 		.4byte	0
 12164 0049 00000000 		.4byte	0
 12165              	.LLST2:
 12166 004d 22000000 		.4byte	.LVL7
 12167 0051 24000000 		.4byte	.LVL8
 12168 0055 0100     		.2byte	0x1
 12169 0057 50       		.byte	0x50
 12170 0058 24000000 		.4byte	.LVL8
 12171 005c EE000000 		.4byte	.LVL37
 12172 0060 0100     		.2byte	0x1
 12173 0062 55       		.byte	0x55
 12174 0063 00000000 		.4byte	0
 12175 0067 00000000 		.4byte	0
 12176              	.LLST3:
 12177 006b 30000000 		.4byte	.LVL10
 12178 006f 38000000 		.4byte	.LVL11
 12179 0073 0100     		.2byte	0x1
 12180 0075 53       		.byte	0x53
 12181 0076 4A000000 		.4byte	.LVL14
 12182 007a 50000000 		.4byte	.LVL15
 12183 007e 0100     		.2byte	0x1
 12184 0080 53       		.byte	0x53
 12185 0081 7A000000 		.4byte	.LVL20
 12186 0085 82000000 		.4byte	.LVL21
 12187 0089 0100     		.2byte	0x1
 12188 008b 53       		.byte	0x53
 12189 008c 94000000 		.4byte	.LVL24
 12190 0090 9C000000 		.4byte	.LVL25
 12191 0094 0100     		.2byte	0x1
 12192 0096 53       		.byte	0x53
 12193 0097 AE000000 		.4byte	.LVL28
 12194 009b B0000000 		.4byte	.LVL29
 12195 009f 0100     		.2byte	0x1
ARM GAS  C:\Users\haske\AppData\Local\Temp\ccOQHbDo.s 			page 248


 12196 00a1 53       		.byte	0x53
 12197 00a2 00000000 		.4byte	0
 12198 00a6 00000000 		.4byte	0
 12199              	.LLST4:
 12200 00aa 00000000 		.4byte	.LVL39
 12201 00ae 18000000 		.4byte	.LVL41
 12202 00b2 0100     		.2byte	0x1
 12203 00b4 50       		.byte	0x50
 12204 00b5 18000000 		.4byte	.LVL41
 12205 00b9 FC000000 		.4byte	.LVL46
 12206 00bd 0100     		.2byte	0x1
 12207 00bf 55       		.byte	0x55
 12208 00c0 FC000000 		.4byte	.LVL46
 12209 00c4 04010000 		.4byte	.LFE192
 12210 00c8 0400     		.2byte	0x4
 12211 00ca F3       		.byte	0xf3
 12212 00cb 01       		.uleb128 0x1
 12213 00cc 50       		.byte	0x50
 12214 00cd 9F       		.byte	0x9f
 12215 00ce 00000000 		.4byte	0
 12216 00d2 00000000 		.4byte	0
 12217              	.LLST5:
 12218 00d6 16000000 		.4byte	.LVL40
 12219 00da FC000000 		.4byte	.LVL46
 12220 00de 0100     		.2byte	0x1
 12221 00e0 54       		.byte	0x54
 12222 00e1 00000000 		.4byte	0
 12223 00e5 00000000 		.4byte	0
 12224              	.LLST6:
 12225 00e9 00000000 		.4byte	.LVL47
 12226 00ed 18000000 		.4byte	.LVL48
 12227 00f1 0100     		.2byte	0x1
 12228 00f3 50       		.byte	0x50
 12229 00f4 18000000 		.4byte	.LVL48
 12230 00f8 28010000 		.4byte	.LVL76
 12231 00fc 0100     		.2byte	0x1
 12232 00fe 56       		.byte	0x56
 12233 00ff 28010000 		.4byte	.LVL76
 12234 0103 2C010000 		.4byte	.LFE189
 12235 0107 0400     		.2byte	0x4
 12236 0109 F3       		.byte	0xf3
 12237 010a 01       		.uleb128 0x1
 12238 010b 50       		.byte	0x50
 12239 010c 9F       		.byte	0x9f
 12240 010d 00000000 		.4byte	0
 12241 0111 00000000 		.4byte	0
 12242              	.LLST7:
 12243 0115 40000000 		.4byte	.LVL51
 12244 0119 22010000 		.4byte	.LVL75
 12245 011d 0100     		.2byte	0x1
 12246 011f 57       		.byte	0x57
 12247 0120 00000000 		.4byte	0
 12248 0124 00000000 		.4byte	0
 12249              	.LLST8:
 12250 0128 98000000 		.4byte	.LVL58
 12251 012c AA000000 		.4byte	.LVL60
 12252 0130 0200     		.2byte	0x2
ARM GAS  C:\Users\haske\AppData\Local\Temp\ccOQHbDo.s 			page 249


 12253 0132 30       		.byte	0x30
 12254 0133 9F       		.byte	0x9f
 12255 0134 AA000000 		.4byte	.LVL60
 12256 0138 EA000000 		.4byte	.LVL68
 12257 013c 0100     		.2byte	0x1
 12258 013e 55       		.byte	0x55
 12259 013f EC000000 		.4byte	.LVL69
 12260 0143 14010000 		.4byte	.LVL73
 12261 0147 0100     		.2byte	0x1
 12262 0149 55       		.byte	0x55
 12263 014a 00000000 		.4byte	0
 12264 014e 00000000 		.4byte	0
 12265              	.LLST9:
 12266 0152 98000000 		.4byte	.LVL58
 12267 0156 AA000000 		.4byte	.LVL60
 12268 015a 0400     		.2byte	0x4
 12269 015c 0A       		.byte	0xa
 12270 015d 0001     		.2byte	0x100
 12271 015f 9F       		.byte	0x9f
 12272 0160 AA000000 		.4byte	.LVL60
 12273 0164 F4000000 		.4byte	.LVL70
 12274 0168 0100     		.2byte	0x1
 12275 016a 58       		.byte	0x58
 12276 016b F8000000 		.4byte	.LVL71
 12277 016f 14010000 		.4byte	.LVL73
 12278 0173 0100     		.2byte	0x1
 12279 0175 58       		.byte	0x58
 12280 0176 00000000 		.4byte	0
 12281 017a 00000000 		.4byte	0
 12282              	.LLST10:
 12283 017e A2000000 		.4byte	.LVL59
 12284 0182 AA000000 		.4byte	.LVL60
 12285 0186 0100     		.2byte	0x1
 12286 0188 57       		.byte	0x57
 12287 0189 AA000000 		.4byte	.LVL60
 12288 018d 14010000 		.4byte	.LVL73
 12289 0191 0100     		.2byte	0x1
 12290 0193 54       		.byte	0x54
 12291 0194 00000000 		.4byte	0
 12292 0198 00000000 		.4byte	0
 12293              	.LLST11:
 12294 019c AA000000 		.4byte	.LVL60
 12295 01a0 B4000000 		.4byte	.LVL61
 12296 01a4 0200     		.2byte	0x2
 12297 01a6 30       		.byte	0x30
 12298 01a7 9F       		.byte	0x9f
 12299 01a8 00000000 		.4byte	0
 12300 01ac 00000000 		.4byte	0
 12301              	.LLST12:
 12302 01b0 AA000000 		.4byte	.LVL60
 12303 01b4 B4000000 		.4byte	.LVL61
 12304 01b8 0100     		.2byte	0x1
 12305 01ba 54       		.byte	0x54
 12306 01bb 00000000 		.4byte	0
 12307 01bf 00000000 		.4byte	0
 12308              	.LLST13:
 12309 01c3 B8000000 		.4byte	.LVL62
ARM GAS  C:\Users\haske\AppData\Local\Temp\ccOQHbDo.s 			page 250


 12310 01c7 C4000000 		.4byte	.LVL64
 12311 01cb 0200     		.2byte	0x2
 12312 01cd 30       		.byte	0x30
 12313 01ce 9F       		.byte	0x9f
 12314 01cf 00000000 		.4byte	0
 12315 01d3 00000000 		.4byte	0
 12316              	.LLST14:
 12317 01d7 B8000000 		.4byte	.LVL62
 12318 01db C4000000 		.4byte	.LVL64
 12319 01df 0100     		.2byte	0x1
 12320 01e1 54       		.byte	0x54
 12321 01e2 00000000 		.4byte	0
 12322 01e6 00000000 		.4byte	0
 12323              	.LLST15:
 12324 01ea 00000000 		.4byte	.LVL77
 12325 01ee 3A000000 		.4byte	.LVL79
 12326 01f2 0100     		.2byte	0x1
 12327 01f4 50       		.byte	0x50
 12328 01f5 3A000000 		.4byte	.LVL79
 12329 01f9 C0000000 		.4byte	.LVL95
 12330 01fd 0100     		.2byte	0x1
 12331 01ff 54       		.byte	0x54
 12332 0200 C0000000 		.4byte	.LVL95
 12333 0204 E8000000 		.4byte	.LVL99
 12334 0208 0300     		.2byte	0x3
 12335 020a 74       		.byte	0x74
 12336 020b 7C       		.sleb128 -4
 12337 020c 9F       		.byte	0x9f
 12338 020d E8000000 		.4byte	.LVL99
 12339 0211 F4000000 		.4byte	.LVL101
 12340 0215 0100     		.2byte	0x1
 12341 0217 54       		.byte	0x54
 12342 0218 F4000000 		.4byte	.LVL101
 12343 021c 1A010000 		.4byte	.LVL105
 12344 0220 0300     		.2byte	0x3
 12345 0222 74       		.byte	0x74
 12346 0223 7C       		.sleb128 -4
 12347 0224 9F       		.byte	0x9f
 12348 0225 1A010000 		.4byte	.LVL105
 12349 0229 82020000 		.4byte	.LVL143
 12350 022d 0100     		.2byte	0x1
 12351 022f 54       		.byte	0x54
 12352 0230 82020000 		.4byte	.LVL143
 12353 0234 90020000 		.4byte	.LFE185
 12354 0238 0400     		.2byte	0x4
 12355 023a F3       		.byte	0xf3
 12356 023b 01       		.uleb128 0x1
 12357 023c 50       		.byte	0x50
 12358 023d 9F       		.byte	0x9f
 12359 023e 00000000 		.4byte	0
 12360 0242 00000000 		.4byte	0
 12361              	.LLST16:
 12362 0246 00000000 		.4byte	.LVL77
 12363 024a 3D000000 		.4byte	.LVL80-1
 12364 024e 0100     		.2byte	0x1
 12365 0250 51       		.byte	0x51
 12366 0251 3D000000 		.4byte	.LVL80-1
ARM GAS  C:\Users\haske\AppData\Local\Temp\ccOQHbDo.s 			page 251


 12367 0255 3E020000 		.4byte	.LVL137
 12368 0259 0100     		.2byte	0x1
 12369 025b 55       		.byte	0x55
 12370 025c 3E020000 		.4byte	.LVL137
 12371 0260 90020000 		.4byte	.LFE185
 12372 0264 0400     		.2byte	0x4
 12373 0266 F3       		.byte	0xf3
 12374 0267 01       		.uleb128 0x1
 12375 0268 51       		.byte	0x51
 12376 0269 9F       		.byte	0x9f
 12377 026a 00000000 		.4byte	0
 12378 026e 00000000 		.4byte	0
 12379              	.LLST17:
 12380 0272 2E000000 		.4byte	.LVL78
 12381 0276 88020000 		.4byte	.LVL144
 12382 027a 0100     		.2byte	0x1
 12383 027c 56       		.byte	0x56
 12384 027d 00000000 		.4byte	0
 12385 0281 00000000 		.4byte	0
 12386              	.LLST18:
 12387 0285 50000000 		.4byte	.LVL82
 12388 0289 88020000 		.4byte	.LVL144
 12389 028d 0100     		.2byte	0x1
 12390 028f 57       		.byte	0x57
 12391 0290 00000000 		.4byte	0
 12392 0294 00000000 		.4byte	0
 12393              	.LLST19:
 12394 0298 52000000 		.4byte	.LVL83
 12395 029c 69000000 		.4byte	.LVL85-1
 12396 02a0 0100     		.2byte	0x1
 12397 02a2 51       		.byte	0x51
 12398 02a3 2E010000 		.4byte	.LVL108
 12399 02a7 46010000 		.4byte	.LVL110
 12400 02ab 0100     		.2byte	0x1
 12401 02ad 51       		.byte	0x51
 12402 02ae 22020000 		.4byte	.LVL133
 12403 02b2 36020000 		.4byte	.LVL135
 12404 02b6 0100     		.2byte	0x1
 12405 02b8 51       		.byte	0x51
 12406 02b9 36020000 		.4byte	.LVL135
 12407 02bd 3B020000 		.4byte	.LVL136-1
 12408 02c1 0200     		.2byte	0x2
 12409 02c3 75       		.byte	0x75
 12410 02c4 04       		.sleb128 4
 12411 02c5 00000000 		.4byte	0
 12412 02c9 00000000 		.4byte	0
 12413              	.LLST20:
 12414 02cd 58000000 		.4byte	.LVL84
 12415 02d1 69000000 		.4byte	.LVL85-1
 12416 02d5 0100     		.2byte	0x1
 12417 02d7 52       		.byte	0x52
 12418 02d8 2E010000 		.4byte	.LVL108
 12419 02dc 44010000 		.4byte	.LVL109
 12420 02e0 0100     		.2byte	0x1
 12421 02e2 52       		.byte	0x52
 12422 02e3 22020000 		.4byte	.LVL133
 12423 02e7 34020000 		.4byte	.LVL134
ARM GAS  C:\Users\haske\AppData\Local\Temp\ccOQHbDo.s 			page 252


 12424 02eb 0100     		.2byte	0x1
 12425 02ed 52       		.byte	0x52
 12426 02ee 00000000 		.4byte	0
 12427 02f2 00000000 		.4byte	0
 12428              	.LLST21:
 12429 02f6 00000000 		.4byte	.LVL145
 12430 02fa 44000000 		.4byte	.LVL148
 12431 02fe 0100     		.2byte	0x1
 12432 0300 50       		.byte	0x50
 12433 0301 44000000 		.4byte	.LVL148
 12434 0305 C4020000 		.4byte	.LVL200
 12435 0309 0100     		.2byte	0x1
 12436 030b 54       		.byte	0x54
 12437 030c C4020000 		.4byte	.LVL200
 12438 0310 C8020000 		.4byte	.LVL201
 12439 0314 0400     		.2byte	0x4
 12440 0316 F3       		.byte	0xf3
 12441 0317 01       		.uleb128 0x1
 12442 0318 50       		.byte	0x50
 12443 0319 9F       		.byte	0x9f
 12444 031a C8020000 		.4byte	.LVL201
 12445 031e 1C040000 		.4byte	.LVL244
 12446 0322 0100     		.2byte	0x1
 12447 0324 54       		.byte	0x54
 12448 0325 1C040000 		.4byte	.LVL244
 12449 0329 24040000 		.4byte	.LFE186
 12450 032d 0400     		.2byte	0x4
 12451 032f F3       		.byte	0xf3
 12452 0330 01       		.uleb128 0x1
 12453 0331 50       		.byte	0x50
 12454 0332 9F       		.byte	0x9f
 12455 0333 00000000 		.4byte	0
 12456 0337 00000000 		.4byte	0
 12457              	.LLST22:
 12458 033b 00000000 		.4byte	.LVL145
 12459 033f 47000000 		.4byte	.LVL149-1
 12460 0343 0100     		.2byte	0x1
 12461 0345 51       		.byte	0x51
 12462 0346 47000000 		.4byte	.LVL149-1
 12463 034a C4020000 		.4byte	.LVL200
 12464 034e 0100     		.2byte	0x1
 12465 0350 55       		.byte	0x55
 12466 0351 C4020000 		.4byte	.LVL200
 12467 0355 C8020000 		.4byte	.LVL201
 12468 0359 0400     		.2byte	0x4
 12469 035b F3       		.byte	0xf3
 12470 035c 01       		.uleb128 0x1
 12471 035d 51       		.byte	0x51
 12472 035e 9F       		.byte	0x9f
 12473 035f C8020000 		.4byte	.LVL201
 12474 0363 1C040000 		.4byte	.LVL244
 12475 0367 0100     		.2byte	0x1
 12476 0369 55       		.byte	0x55
 12477 036a 1C040000 		.4byte	.LVL244
 12478 036e 24040000 		.4byte	.LFE186
 12479 0372 0400     		.2byte	0x4
 12480 0374 F3       		.byte	0xf3
ARM GAS  C:\Users\haske\AppData\Local\Temp\ccOQHbDo.s 			page 253


 12481 0375 01       		.uleb128 0x1
 12482 0376 51       		.byte	0x51
 12483 0377 9F       		.byte	0x9f
 12484 0378 00000000 		.4byte	0
 12485 037c 00000000 		.4byte	0
 12486              	.LLST23:
 12487 0380 2E000000 		.4byte	.LVL146
 12488 0384 A2000000 		.4byte	.LVL154
 12489 0388 0100     		.2byte	0x1
 12490 038a 57       		.byte	0x57
 12491 038b CA000000 		.4byte	.LVL158
 12492 038f F2000000 		.4byte	.LVL160
 12493 0393 0100     		.2byte	0x1
 12494 0395 57       		.byte	0x57
 12495 0396 18010000 		.4byte	.LVL164
 12496 039a 80020000 		.4byte	.LVL194
 12497 039e 0100     		.2byte	0x1
 12498 03a0 57       		.byte	0x57
 12499 03a1 C8020000 		.4byte	.LVL201
 12500 03a5 F2020000 		.4byte	.LVL205
 12501 03a9 0100     		.2byte	0x1
 12502 03ab 57       		.byte	0x57
 12503 03ac 3E030000 		.4byte	.LVL213
 12504 03b0 5A030000 		.4byte	.LVL215
 12505 03b4 0100     		.2byte	0x1
 12506 03b6 57       		.byte	0x57
 12507 03b7 00000000 		.4byte	0
 12508 03bb 00000000 		.4byte	0
 12509              	.LLST24:
 12510 03bf 38000000 		.4byte	.LVL147
 12511 03c3 C4020000 		.4byte	.LVL200
 12512 03c7 0100     		.2byte	0x1
 12513 03c9 56       		.byte	0x56
 12514 03ca C8020000 		.4byte	.LVL201
 12515 03ce 1C040000 		.4byte	.LVL244
 12516 03d2 0100     		.2byte	0x1
 12517 03d4 56       		.byte	0x56
 12518 03d5 00000000 		.4byte	0
 12519 03d9 00000000 		.4byte	0
 12520              	.LLST25:
 12521 03dd A2000000 		.4byte	.LVL154
 12522 03e1 CA000000 		.4byte	.LVL158
 12523 03e5 0100     		.2byte	0x1
 12524 03e7 57       		.byte	0x57
 12525 03e8 00000000 		.4byte	0
 12526 03ec 00000000 		.4byte	0
 12527              	.LLST26:
 12528 03f0 82010000 		.4byte	.LVL172
 12529 03f4 89010000 		.4byte	.LVL173-1
 12530 03f8 0100     		.2byte	0x1
 12531 03fa 53       		.byte	0x53
 12532 03fb AE010000 		.4byte	.LVL177
 12533 03ff B0010000 		.4byte	.LVL178
 12534 0403 0100     		.2byte	0x1
 12535 0405 53       		.byte	0x53
 12536 0406 00000000 		.4byte	0
 12537 040a 00000000 		.4byte	0
ARM GAS  C:\Users\haske\AppData\Local\Temp\ccOQHbDo.s 			page 254


 12538              	.LLST27:
 12539 040e 70020000 		.4byte	.LVL191
 12540 0412 74020000 		.4byte	.LVL192
 12541 0416 0100     		.2byte	0x1
 12542 0418 53       		.byte	0x53
 12543 0419 C8020000 		.4byte	.LVL201
 12544 041d CD020000 		.4byte	.LVL202-1
 12545 0421 0100     		.2byte	0x1
 12546 0423 53       		.byte	0x53
 12547 0424 00000000 		.4byte	0
 12548 0428 00000000 		.4byte	0
 12549              	.LLST28:
 12550 042c 86030000 		.4byte	.LVL217
 12551 0430 9C030000 		.4byte	.LVL221
 12552 0434 0100     		.2byte	0x1
 12553 0436 57       		.byte	0x57
 12554 0437 9E030000 		.4byte	.LVL222
 12555 043b AA030000 		.4byte	.LVL223
 12556 043f 0100     		.2byte	0x1
 12557 0441 57       		.byte	0x57
 12558 0442 B0030000 		.4byte	.LVL224
 12559 0446 C4030000 		.4byte	.LVL228
 12560 044a 0100     		.2byte	0x1
 12561 044c 57       		.byte	0x57
 12562 044d C6030000 		.4byte	.LVL229
 12563 0451 D0030000 		.4byte	.LVL230
 12564 0455 0100     		.2byte	0x1
 12565 0457 57       		.byte	0x57
 12566 0458 00000000 		.4byte	0
 12567 045c 00000000 		.4byte	0
 12568              	.LLST29:
 12569 0460 DA030000 		.4byte	.LVL231
 12570 0464 EC030000 		.4byte	.LVL235
 12571 0468 0100     		.2byte	0x1
 12572 046a 57       		.byte	0x57
 12573 046b EE030000 		.4byte	.LVL236
 12574 046f FA030000 		.4byte	.LVL237
 12575 0473 0100     		.2byte	0x1
 12576 0475 57       		.byte	0x57
 12577 0476 00040000 		.4byte	.LVL238
 12578 047a 12040000 		.4byte	.LVL242
 12579 047e 0100     		.2byte	0x1
 12580 0480 57       		.byte	0x57
 12581 0481 14040000 		.4byte	.LVL243
 12582 0485 1C040000 		.4byte	.LVL244
 12583 0489 0100     		.2byte	0x1
 12584 048b 57       		.byte	0x57
 12585 048c 00000000 		.4byte	0
 12586 0490 00000000 		.4byte	0
 12587              	.LLST30:
 12588 0494 00000000 		.4byte	.LVL245
 12589 0498 18000000 		.4byte	.LVL248
 12590 049c 0100     		.2byte	0x1
 12591 049e 50       		.byte	0x50
 12592 049f 18000000 		.4byte	.LVL248
 12593 04a3 30000000 		.4byte	.LFE166
 12594 04a7 0400     		.2byte	0x4
ARM GAS  C:\Users\haske\AppData\Local\Temp\ccOQHbDo.s 			page 255


 12595 04a9 F3       		.byte	0xf3
 12596 04aa 01       		.uleb128 0x1
 12597 04ab 50       		.byte	0x50
 12598 04ac 9F       		.byte	0x9f
 12599 04ad 00000000 		.4byte	0
 12600 04b1 00000000 		.4byte	0
 12601              	.LLST31:
 12602 04b5 00000000 		.4byte	.LVL245
 12603 04b9 1B000000 		.4byte	.LVL249-1
 12604 04bd 0100     		.2byte	0x1
 12605 04bf 51       		.byte	0x51
 12606 04c0 1B000000 		.4byte	.LVL249-1
 12607 04c4 30000000 		.4byte	.LFE166
 12608 04c8 0400     		.2byte	0x4
 12609 04ca F3       		.byte	0xf3
 12610 04cb 01       		.uleb128 0x1
 12611 04cc 51       		.byte	0x51
 12612 04cd 9F       		.byte	0x9f
 12613 04ce 00000000 		.4byte	0
 12614 04d2 00000000 		.4byte	0
 12615              	.LLST32:
 12616 04d6 1C000000 		.4byte	.LVL249
 12617 04da 29000000 		.4byte	.LVL250-1
 12618 04de 0100     		.2byte	0x1
 12619 04e0 50       		.byte	0x50
 12620 04e1 2A000000 		.4byte	.LVL250
 12621 04e5 30000000 		.4byte	.LFE166
 12622 04e9 0100     		.2byte	0x1
 12623 04eb 50       		.byte	0x50
 12624 04ec 00000000 		.4byte	0
 12625 04f0 00000000 		.4byte	0
 12626              	.LLST33:
 12627 04f4 00000000 		.4byte	.LVL251
 12628 04f8 06000000 		.4byte	.LVL252
 12629 04fc 0100     		.2byte	0x1
 12630 04fe 50       		.byte	0x50
 12631 04ff 06000000 		.4byte	.LVL252
 12632 0503 08000000 		.4byte	.LVL253
 12633 0507 0400     		.2byte	0x4
 12634 0509 F3       		.byte	0xf3
 12635 050a 01       		.uleb128 0x1
 12636 050b 50       		.byte	0x50
 12637 050c 9F       		.byte	0x9f
 12638 050d 08000000 		.4byte	.LVL253
 12639 0511 0A000000 		.4byte	.LVL254
 12640 0515 0100     		.2byte	0x1
 12641 0517 50       		.byte	0x50
 12642 0518 0A000000 		.4byte	.LVL254
 12643 051c 0C000000 		.4byte	.LFE168
 12644 0520 0400     		.2byte	0x4
 12645 0522 F3       		.byte	0xf3
 12646 0523 01       		.uleb128 0x1
 12647 0524 50       		.byte	0x50
 12648 0525 9F       		.byte	0x9f
 12649 0526 00000000 		.4byte	0
 12650 052a 00000000 		.4byte	0
 12651              	.LLST34:
ARM GAS  C:\Users\haske\AppData\Local\Temp\ccOQHbDo.s 			page 256


 12652 052e 00000000 		.4byte	.LVL255
 12653 0532 16000000 		.4byte	.LVL256
 12654 0536 0100     		.2byte	0x1
 12655 0538 50       		.byte	0x50
 12656 0539 16000000 		.4byte	.LVL256
 12657 053d 4C000000 		.4byte	.LVL257
 12658 0541 0100     		.2byte	0x1
 12659 0543 53       		.byte	0x53
 12660 0544 4C000000 		.4byte	.LVL257
 12661 0548 52000000 		.4byte	.LVL258
 12662 054c 0100     		.2byte	0x1
 12663 054e 50       		.byte	0x50
 12664 054f 52000000 		.4byte	.LVL258
 12665 0553 A4000000 		.4byte	.LFE169
 12666 0557 0400     		.2byte	0x4
 12667 0559 F3       		.byte	0xf3
 12668 055a 01       		.uleb128 0x1
 12669 055b 50       		.byte	0x50
 12670 055c 9F       		.byte	0x9f
 12671 055d 00000000 		.4byte	0
 12672 0561 00000000 		.4byte	0
 12673              	.LLST35:
 12674 0565 00000000 		.4byte	.LVL255
 12675 0569 55000000 		.4byte	.LVL259-1
 12676 056d 0100     		.2byte	0x1
 12677 056f 51       		.byte	0x51
 12678 0570 55000000 		.4byte	.LVL259-1
 12679 0574 A0000000 		.4byte	.LVL261
 12680 0578 0100     		.2byte	0x1
 12681 057a 54       		.byte	0x54
 12682 057b A0000000 		.4byte	.LVL261
 12683 057f A4000000 		.4byte	.LFE169
 12684 0583 0400     		.2byte	0x4
 12685 0585 F3       		.byte	0xf3
 12686 0586 01       		.uleb128 0x1
 12687 0587 51       		.byte	0x51
 12688 0588 9F       		.byte	0x9f
 12689 0589 00000000 		.4byte	0
 12690 058d 00000000 		.4byte	0
 12691              	.LLST36:
 12692 0591 56000000 		.4byte	.LVL259
 12693 0595 93000000 		.4byte	.LVL260-1
 12694 0599 0100     		.2byte	0x1
 12695 059b 50       		.byte	0x50
 12696 059c 94000000 		.4byte	.LVL260
 12697 05a0 A4000000 		.4byte	.LFE169
 12698 05a4 0100     		.2byte	0x1
 12699 05a6 50       		.byte	0x50
 12700 05a7 00000000 		.4byte	0
 12701 05ab 00000000 		.4byte	0
 12702              	.LLST37:
 12703 05af 00000000 		.4byte	.LVL262
 12704 05b3 0F000000 		.4byte	.LVL263-1
 12705 05b7 0100     		.2byte	0x1
 12706 05b9 50       		.byte	0x50
 12707 05ba 0F000000 		.4byte	.LVL263-1
 12708 05be 1A000000 		.4byte	.LFE170
ARM GAS  C:\Users\haske\AppData\Local\Temp\ccOQHbDo.s 			page 257


 12709 05c2 0100     		.2byte	0x1
 12710 05c4 54       		.byte	0x54
 12711 05c5 00000000 		.4byte	0
 12712 05c9 00000000 		.4byte	0
 12713              	.LLST38:
 12714 05cd 00000000 		.4byte	.LVL265
 12715 05d1 12000000 		.4byte	.LVL266
 12716 05d5 0100     		.2byte	0x1
 12717 05d7 50       		.byte	0x50
 12718 05d8 12000000 		.4byte	.LVL266
 12719 05dc 3E000000 		.4byte	.LVL271
 12720 05e0 0100     		.2byte	0x1
 12721 05e2 54       		.byte	0x54
 12722 05e3 3E000000 		.4byte	.LVL271
 12723 05e7 40000000 		.4byte	.LFE171
 12724 05eb 0400     		.2byte	0x4
 12725 05ed F3       		.byte	0xf3
 12726 05ee 01       		.uleb128 0x1
 12727 05ef 50       		.byte	0x50
 12728 05f0 9F       		.byte	0x9f
 12729 05f1 00000000 		.4byte	0
 12730 05f5 00000000 		.4byte	0
 12731              	.LLST39:
 12732 05f9 00000000 		.4byte	.LVL265
 12733 05fd 15000000 		.4byte	.LVL267-1
 12734 0601 0100     		.2byte	0x1
 12735 0603 51       		.byte	0x51
 12736 0604 15000000 		.4byte	.LVL267-1
 12737 0608 3E000000 		.4byte	.LVL271
 12738 060c 0100     		.2byte	0x1
 12739 060e 55       		.byte	0x55
 12740 060f 3E000000 		.4byte	.LVL271
 12741 0613 40000000 		.4byte	.LFE171
 12742 0617 0400     		.2byte	0x4
 12743 0619 F3       		.byte	0xf3
 12744 061a 01       		.uleb128 0x1
 12745 061b 51       		.byte	0x51
 12746 061c 9F       		.byte	0x9f
 12747 061d 00000000 		.4byte	0
 12748 0621 00000000 		.4byte	0
 12749              	.LLST40:
 12750 0625 00000000 		.4byte	.LVL275
 12751 0629 04000000 		.4byte	.LVL276
 12752 062d 0100     		.2byte	0x1
 12753 062f 50       		.byte	0x50
 12754 0630 04000000 		.4byte	.LVL276
 12755 0634 08000000 		.4byte	.LFE175
 12756 0638 0400     		.2byte	0x4
 12757 063a F3       		.byte	0xf3
 12758 063b 01       		.uleb128 0x1
 12759 063c 50       		.byte	0x50
 12760 063d 9F       		.byte	0x9f
 12761 063e 00000000 		.4byte	0
 12762 0642 00000000 		.4byte	0
 12763              	.LLST41:
 12764 0646 00000000 		.4byte	.LVL277
 12765 064a 0A000000 		.4byte	.LVL278
ARM GAS  C:\Users\haske\AppData\Local\Temp\ccOQHbDo.s 			page 258


 12766 064e 0100     		.2byte	0x1
 12767 0650 50       		.byte	0x50
 12768 0651 0A000000 		.4byte	.LVL278
 12769 0655 0C000000 		.4byte	.LVL279
 12770 0659 0400     		.2byte	0x4
 12771 065b F3       		.byte	0xf3
 12772 065c 01       		.uleb128 0x1
 12773 065d 50       		.byte	0x50
 12774 065e 9F       		.byte	0x9f
 12775 065f 0C000000 		.4byte	.LVL279
 12776 0663 0E000000 		.4byte	.LVL280
 12777 0667 0100     		.2byte	0x1
 12778 0669 50       		.byte	0x50
 12779 066a 0E000000 		.4byte	.LVL280
 12780 066e 10000000 		.4byte	.LFE176
 12781 0672 0400     		.2byte	0x4
 12782 0674 F3       		.byte	0xf3
 12783 0675 01       		.uleb128 0x1
 12784 0676 50       		.byte	0x50
 12785 0677 9F       		.byte	0x9f
 12786 0678 00000000 		.4byte	0
 12787 067c 00000000 		.4byte	0
 12788              	.LLST42:
 12789 0680 00000000 		.4byte	.LVL281
 12790 0684 14000000 		.4byte	.LVL282
 12791 0688 0100     		.2byte	0x1
 12792 068a 50       		.byte	0x50
 12793 068b 14000000 		.4byte	.LVL282
 12794 068f 1A000000 		.4byte	.LVL283
 12795 0693 0100     		.2byte	0x1
 12796 0695 52       		.byte	0x52
 12797 0696 1A000000 		.4byte	.LVL283
 12798 069a 1C000000 		.4byte	.LVL284
 12799 069e 0100     		.2byte	0x1
 12800 06a0 50       		.byte	0x50
 12801 06a1 1C000000 		.4byte	.LVL284
 12802 06a5 1E000000 		.4byte	.LVL285
 12803 06a9 0100     		.2byte	0x1
 12804 06ab 52       		.byte	0x52
 12805 06ac 1E000000 		.4byte	.LVL285
 12806 06b0 20000000 		.4byte	.LVL286
 12807 06b4 0100     		.2byte	0x1
 12808 06b6 50       		.byte	0x50
 12809 06b7 20000000 		.4byte	.LVL286
 12810 06bb 22000000 		.4byte	.LFE177
 12811 06bf 0100     		.2byte	0x1
 12812 06c1 52       		.byte	0x52
 12813 06c2 00000000 		.4byte	0
 12814 06c6 00000000 		.4byte	0
 12815              	.LLST43:
 12816 06ca 00000000 		.4byte	.LVL287
 12817 06ce 12000000 		.4byte	.LVL288
 12818 06d2 0100     		.2byte	0x1
 12819 06d4 50       		.byte	0x50
 12820 06d5 12000000 		.4byte	.LVL288
 12821 06d9 14000000 		.4byte	.LVL289
 12822 06dd 0100     		.2byte	0x1
ARM GAS  C:\Users\haske\AppData\Local\Temp\ccOQHbDo.s 			page 259


 12823 06df 53       		.byte	0x53
 12824 06e0 14000000 		.4byte	.LVL289
 12825 06e4 16000000 		.4byte	.LVL290
 12826 06e8 0100     		.2byte	0x1
 12827 06ea 50       		.byte	0x50
 12828 06eb 16000000 		.4byte	.LVL290
 12829 06ef 18000000 		.4byte	.LVL291
 12830 06f3 0100     		.2byte	0x1
 12831 06f5 53       		.byte	0x53
 12832 06f6 18000000 		.4byte	.LVL291
 12833 06fa 1A000000 		.4byte	.LVL292
 12834 06fe 0100     		.2byte	0x1
 12835 0700 50       		.byte	0x50
 12836 0701 1A000000 		.4byte	.LVL292
 12837 0705 1C000000 		.4byte	.LFE178
 12838 0709 0100     		.2byte	0x1
 12839 070b 53       		.byte	0x53
 12840 070c 00000000 		.4byte	0
 12841 0710 00000000 		.4byte	0
 12842              	.LLST44:
 12843 0714 00000000 		.4byte	.LVL295
 12844 0718 04000000 		.4byte	.LVL296
 12845 071c 0100     		.2byte	0x1
 12846 071e 50       		.byte	0x50
 12847 071f 04000000 		.4byte	.LVL296
 12848 0723 06000000 		.4byte	.LVL297
 12849 0727 0400     		.2byte	0x4
 12850 0729 F3       		.byte	0xf3
 12851 072a 01       		.uleb128 0x1
 12852 072b 50       		.byte	0x50
 12853 072c 9F       		.byte	0x9f
 12854 072d 06000000 		.4byte	.LVL297
 12855 0731 08000000 		.4byte	.LVL298
 12856 0735 0100     		.2byte	0x1
 12857 0737 50       		.byte	0x50
 12858 0738 08000000 		.4byte	.LVL298
 12859 073c 0A000000 		.4byte	.LFE182
 12860 0740 0400     		.2byte	0x4
 12861 0742 F3       		.byte	0xf3
 12862 0743 01       		.uleb128 0x1
 12863 0744 50       		.byte	0x50
 12864 0745 9F       		.byte	0x9f
 12865 0746 00000000 		.4byte	0
 12866 074a 00000000 		.4byte	0
 12867              	.LLST45:
 12868 074e 00000000 		.4byte	.LVL299
 12869 0752 0D000000 		.4byte	.LVL302-1
 12870 0756 0100     		.2byte	0x1
 12871 0758 50       		.byte	0x50
 12872 0759 0D000000 		.4byte	.LVL302-1
 12873 075d 76000000 		.4byte	.LFE183
 12874 0761 0100     		.2byte	0x1
 12875 0763 55       		.byte	0x55
 12876 0764 00000000 		.4byte	0
 12877 0768 00000000 		.4byte	0
 12878              	.LLST46:
 12879 076c 00000000 		.4byte	.LVL299
ARM GAS  C:\Users\haske\AppData\Local\Temp\ccOQHbDo.s 			page 260


 12880 0770 0A000000 		.4byte	.LVL301
 12881 0774 0100     		.2byte	0x1
 12882 0776 51       		.byte	0x51
 12883 0777 0A000000 		.4byte	.LVL301
 12884 077b 4C000000 		.4byte	.LVL309
 12885 077f 0100     		.2byte	0x1
 12886 0781 54       		.byte	0x54
 12887 0782 4C000000 		.4byte	.LVL309
 12888 0786 6A000000 		.4byte	.LVL315
 12889 078a 0400     		.2byte	0x4
 12890 078c F3       		.byte	0xf3
 12891 078d 01       		.uleb128 0x1
 12892 078e 51       		.byte	0x51
 12893 078f 9F       		.byte	0x9f
 12894 0790 6A000000 		.4byte	.LVL315
 12895 0794 6E000000 		.4byte	.LVL316
 12896 0798 0100     		.2byte	0x1
 12897 079a 54       		.byte	0x54
 12898 079b 6E000000 		.4byte	.LVL316
 12899 079f 76000000 		.4byte	.LFE183
 12900 07a3 0400     		.2byte	0x4
 12901 07a5 F3       		.byte	0xf3
 12902 07a6 01       		.uleb128 0x1
 12903 07a7 51       		.byte	0x51
 12904 07a8 9F       		.byte	0x9f
 12905 07a9 00000000 		.4byte	0
 12906 07ad 00000000 		.4byte	0
 12907              	.LLST47:
 12908 07b1 08000000 		.4byte	.LVL300
 12909 07b5 4E000000 		.4byte	.LVL310
 12910 07b9 0200     		.2byte	0x2
 12911 07bb 30       		.byte	0x30
 12912 07bc 9F       		.byte	0x9f
 12913 07bd 5C000000 		.4byte	.LVL312
 12914 07c1 60000000 		.4byte	.LVL313
 12915 07c5 0100     		.2byte	0x1
 12916 07c7 50       		.byte	0x50
 12917 07c8 6A000000 		.4byte	.LVL315
 12918 07cc 6E000000 		.4byte	.LVL316
 12919 07d0 0200     		.2byte	0x2
 12920 07d2 30       		.byte	0x30
 12921 07d3 9F       		.byte	0x9f
 12922 07d4 6E000000 		.4byte	.LVL316
 12923 07d8 70000000 		.4byte	.LVL317
 12924 07dc 0100     		.2byte	0x1
 12925 07de 50       		.byte	0x50
 12926 07df 00000000 		.4byte	0
 12927 07e3 00000000 		.4byte	0
 12928              	.LLST48:
 12929 07e7 2A000000 		.4byte	.LVL305
 12930 07eb 6A000000 		.4byte	.LVL315
 12931 07ef 0100     		.2byte	0x1
 12932 07f1 56       		.byte	0x56
 12933 07f2 6E000000 		.4byte	.LVL316
 12934 07f6 72000000 		.4byte	.LVL318
 12935 07fa 0100     		.2byte	0x1
 12936 07fc 56       		.byte	0x56
ARM GAS  C:\Users\haske\AppData\Local\Temp\ccOQHbDo.s 			page 261


 12937 07fd 00000000 		.4byte	0
 12938 0801 00000000 		.4byte	0
 12939              	.LLST49:
 12940 0805 4C000000 		.4byte	.LVL309
 12941 0809 64000000 		.4byte	.LVL314
 12942 080d 0100     		.2byte	0x1
 12943 080f 54       		.byte	0x54
 12944 0810 6E000000 		.4byte	.LVL316
 12945 0814 70000000 		.4byte	.LVL317
 12946 0818 0100     		.2byte	0x1
 12947 081a 54       		.byte	0x54
 12948 081b 00000000 		.4byte	0
 12949 081f 00000000 		.4byte	0
 12950              	.LLST50:
 12951 0823 4A000000 		.4byte	.LVL308
 12952 0827 4E000000 		.4byte	.LVL310
 12953 082b 0100     		.2byte	0x1
 12954 082d 50       		.byte	0x50
 12955 082e 00000000 		.4byte	0
 12956 0832 00000000 		.4byte	0
 12957              	.LLST51:
 12958 0836 52000000 		.4byte	.LVL311
 12959 083a 5B000000 		.4byte	.LVL312-1
 12960 083e 0700     		.2byte	0x7
 12961 0840 74       		.byte	0x74
 12962 0841 00       		.sleb128 0
 12963 0842 32       		.byte	0x32
 12964 0843 24       		.byte	0x24
 12965 0844 73       		.byte	0x73
 12966 0845 00       		.sleb128 0
 12967 0846 22       		.byte	0x22
 12968 0847 00000000 		.4byte	0
 12969 084b 00000000 		.4byte	0
 12970              	.LLST52:
 12971 084f 00000000 		.4byte	.LVL319
 12972 0853 20000000 		.4byte	.LVL321
 12973 0857 0100     		.2byte	0x1
 12974 0859 50       		.byte	0x50
 12975 085a 20000000 		.4byte	.LVL321
 12976 085e 5C000000 		.4byte	.LVL328
 12977 0862 0100     		.2byte	0x1
 12978 0864 54       		.byte	0x54
 12979 0865 5C000000 		.4byte	.LVL328
 12980 0869 66000000 		.4byte	.LVL329
 12981 086d 0100     		.2byte	0x1
 12982 086f 50       		.byte	0x50
 12983 0870 66000000 		.4byte	.LVL329
 12984 0874 AE000000 		.4byte	.LVL337
 12985 0878 0100     		.2byte	0x1
 12986 087a 54       		.byte	0x54
 12987 087b AE000000 		.4byte	.LVL337
 12988 087f B2000000 		.4byte	.LVL338
 12989 0883 0100     		.2byte	0x1
 12990 0885 50       		.byte	0x50
 12991 0886 B2000000 		.4byte	.LVL338
 12992 088a 76020000 		.4byte	.LVL365
 12993 088e 0100     		.2byte	0x1
ARM GAS  C:\Users\haske\AppData\Local\Temp\ccOQHbDo.s 			page 262


 12994 0890 54       		.byte	0x54
 12995 0891 76020000 		.4byte	.LVL365
 12996 0895 7C020000 		.4byte	.LFE188
 12997 0899 0100     		.2byte	0x1
 12998 089b 50       		.byte	0x50
 12999 089c 00000000 		.4byte	0
 13000 08a0 00000000 		.4byte	0
 13001              	.LLST53:
 13002 08a4 1C000000 		.4byte	.LVL320
 13003 08a8 76020000 		.4byte	.LVL365
 13004 08ac 0100     		.2byte	0x1
 13005 08ae 55       		.byte	0x55
 13006 08af 00000000 		.4byte	0
 13007 08b3 00000000 		.4byte	0
 13008              	.LLST54:
 13009 08b7 1C000000 		.4byte	.LVL320
 13010 08bb B8000000 		.4byte	.LVL339
 13011 08bf 0200     		.2byte	0x2
 13012 08c1 30       		.byte	0x30
 13013 08c2 9F       		.byte	0x9f
 13014 08c3 B8000000 		.4byte	.LVL339
 13015 08c7 BC000000 		.4byte	.LVL340
 13016 08cb 0100     		.2byte	0x1
 13017 08cd 53       		.byte	0x53
 13018 08ce 00000000 		.4byte	0
 13019 08d2 00000000 		.4byte	0
 13020              	.LLST55:
 13021 08d6 EE000000 		.4byte	.LVL343
 13022 08da F7000000 		.4byte	.LVL344-1
 13023 08de 0100     		.2byte	0x1
 13024 08e0 50       		.byte	0x50
 13025 08e1 00000000 		.4byte	0
 13026 08e5 00000000 		.4byte	0
 13027              	.LLST56:
 13028 08e9 00000000 		.4byte	.LVL366
 13029 08ed 6E000000 		.4byte	.LVL371
 13030 08f1 0100     		.2byte	0x1
 13031 08f3 50       		.byte	0x50
 13032 08f4 6E000000 		.4byte	.LVL371
 13033 08f8 C0000000 		.4byte	.LFE184
 13034 08fc 0100     		.2byte	0x1
 13035 08fe 54       		.byte	0x54
 13036 08ff 00000000 		.4byte	0
 13037 0903 00000000 		.4byte	0
 13038              	.LLST57:
 13039 0907 00000000 		.4byte	.LVL366
 13040 090b 18000000 		.4byte	.LVL368
 13041 090f 0100     		.2byte	0x1
 13042 0911 51       		.byte	0x51
 13043 0912 18000000 		.4byte	.LVL368
 13044 0916 C0000000 		.4byte	.LFE184
 13045 091a 0100     		.2byte	0x1
 13046 091c 55       		.byte	0x55
 13047 091d 00000000 		.4byte	0
 13048 0921 00000000 		.4byte	0
 13049              	.LLST58:
 13050 0925 0A000000 		.4byte	.LVL367
ARM GAS  C:\Users\haske\AppData\Local\Temp\ccOQHbDo.s 			page 263


 13051 0929 71000000 		.4byte	.LVL372-1
 13052 092d 0100     		.2byte	0x1
 13053 092f 52       		.byte	0x52
 13054 0930 00000000 		.4byte	0
 13055 0934 00000000 		.4byte	0
 13056              	.LLST59:
 13057 0938 58000000 		.4byte	.LVL369
 13058 093c 6A000000 		.4byte	.LVL370
 13059 0940 0100     		.2byte	0x1
 13060 0942 51       		.byte	0x51
 13061 0943 00000000 		.4byte	0
 13062 0947 00000000 		.4byte	0
 13063              	.LLST60:
 13064 094b 00000000 		.4byte	.LVL377
 13065 094f 32000000 		.4byte	.LVL381
 13066 0953 0100     		.2byte	0x1
 13067 0955 50       		.byte	0x50
 13068 0956 32000000 		.4byte	.LVL381
 13069 095a 72000000 		.4byte	.LVL387
 13070 095e 0100     		.2byte	0x1
 13071 0960 54       		.byte	0x54
 13072 0961 72000000 		.4byte	.LVL387
 13073 0965 74000000 		.4byte	.LFE187
 13074 0969 0100     		.2byte	0x1
 13075 096b 50       		.byte	0x50
 13076 096c 00000000 		.4byte	0
 13077 0970 00000000 		.4byte	0
 13078              	.LLST61:
 13079 0974 00000000 		.4byte	.LVL377
 13080 0978 12000000 		.4byte	.LVL378
 13081 097c 0100     		.2byte	0x1
 13082 097e 51       		.byte	0x51
 13083 097f 12000000 		.4byte	.LVL378
 13084 0983 72000000 		.4byte	.LVL387
 13085 0987 0100     		.2byte	0x1
 13086 0989 55       		.byte	0x55
 13087 098a 72000000 		.4byte	.LVL387
 13088 098e 74000000 		.4byte	.LFE187
 13089 0992 0100     		.2byte	0x1
 13090 0994 51       		.byte	0x51
 13091 0995 00000000 		.4byte	0
 13092 0999 00000000 		.4byte	0
 13093              	.LLST62:
 13094 099d 16000000 		.4byte	.LVL379
 13095 09a1 72000000 		.4byte	.LVL387
 13096 09a5 0100     		.2byte	0x1
 13097 09a7 57       		.byte	0x57
 13098 09a8 00000000 		.4byte	0
 13099 09ac 00000000 		.4byte	0
 13100              	.LLST63:
 13101 09b0 1A000000 		.4byte	.LVL380
 13102 09b4 72000000 		.4byte	.LVL387
 13103 09b8 0100     		.2byte	0x1
 13104 09ba 58       		.byte	0x58
 13105 09bb 00000000 		.4byte	0
 13106 09bf 00000000 		.4byte	0
 13107              	.LLST64:
ARM GAS  C:\Users\haske\AppData\Local\Temp\ccOQHbDo.s 			page 264


 13108 09c3 00000000 		.4byte	.LVL388
 13109 09c7 02000000 		.4byte	.LVL389
 13110 09cb 0100     		.2byte	0x1
 13111 09cd 50       		.byte	0x50
 13112 09ce 02000000 		.4byte	.LVL389
 13113 09d2 CC000000 		.4byte	.LFE165
 13114 09d6 0400     		.2byte	0x4
 13115 09d8 F3       		.byte	0xf3
 13116 09d9 01       		.uleb128 0x1
 13117 09da 50       		.byte	0x50
 13118 09db 9F       		.byte	0x9f
 13119 09dc 00000000 		.4byte	0
 13120 09e0 00000000 		.4byte	0
 13121              	.LLST65:
 13122 09e4 3A000000 		.4byte	.LVL392
 13123 09e8 C0000000 		.4byte	.LVL401
 13124 09ec 0100     		.2byte	0x1
 13125 09ee 55       		.byte	0x55
 13126 09ef 00000000 		.4byte	0
 13127 09f3 00000000 		.4byte	0
 13128              		.section	.debug_aranges,"",%progbits
 13129 0000 FC000000 		.4byte	0xfc
 13130 0004 0200     		.2byte	0x2
 13131 0006 00000000 		.4byte	.Ldebug_info0
 13132 000a 04       		.byte	0x4
 13133 000b 00       		.byte	0
 13134 000c 0000     		.2byte	0
 13135 000e 0000     		.2byte	0
 13136 0010 00000000 		.4byte	.LFB190
 13137 0014 48000000 		.4byte	.LFE190-.LFB190
 13138 0018 00000000 		.4byte	.LFB193
 13139 001c 20000000 		.4byte	.LFE193-.LFB193
 13140 0020 00000000 		.4byte	.LFB191
 13141 0024 F4000000 		.4byte	.LFE191-.LFB191
 13142 0028 00000000 		.4byte	.LFB192
 13143 002c 04010000 		.4byte	.LFE192-.LFB192
 13144 0030 00000000 		.4byte	.LFB189
 13145 0034 2C010000 		.4byte	.LFE189-.LFB189
 13146 0038 00000000 		.4byte	.LFB185
 13147 003c 90020000 		.4byte	.LFE185-.LFB185
 13148 0040 00000000 		.4byte	.LFB186
 13149 0044 24040000 		.4byte	.LFE186-.LFB186
 13150 0048 00000000 		.4byte	.LFB166
 13151 004c 30000000 		.4byte	.LFE166-.LFB166
 13152 0050 00000000 		.4byte	.LFB167
 13153 0054 0C000000 		.4byte	.LFE167-.LFB167
 13154 0058 00000000 		.4byte	.LFB168
 13155 005c 0C000000 		.4byte	.LFE168-.LFB168
 13156 0060 00000000 		.4byte	.LFB169
 13157 0064 A4000000 		.4byte	.LFE169-.LFB169
 13158 0068 00000000 		.4byte	.LFB170
 13159 006c 1A000000 		.4byte	.LFE170-.LFB170
 13160 0070 00000000 		.4byte	.LFB171
 13161 0074 40000000 		.4byte	.LFE171-.LFB171
 13162 0078 00000000 		.4byte	.LFB172
 13163 007c 10000000 		.4byte	.LFE172-.LFB172
 13164 0080 00000000 		.4byte	.LFB173
ARM GAS  C:\Users\haske\AppData\Local\Temp\ccOQHbDo.s 			page 265


 13165 0084 0C000000 		.4byte	.LFE173-.LFB173
 13166 0088 00000000 		.4byte	.LFB174
 13167 008c 30000000 		.4byte	.LFE174-.LFB174
 13168 0090 00000000 		.4byte	.LFB175
 13169 0094 08000000 		.4byte	.LFE175-.LFB175
 13170 0098 00000000 		.4byte	.LFB176
 13171 009c 10000000 		.4byte	.LFE176-.LFB176
 13172 00a0 00000000 		.4byte	.LFB177
 13173 00a4 22000000 		.4byte	.LFE177-.LFB177
 13174 00a8 00000000 		.4byte	.LFB178
 13175 00ac 1C000000 		.4byte	.LFE178-.LFB178
 13176 00b0 00000000 		.4byte	.LFB179
 13177 00b4 24000000 		.4byte	.LFE179-.LFB179
 13178 00b8 00000000 		.4byte	.LFB180
 13179 00bc 0C000000 		.4byte	.LFE180-.LFB180
 13180 00c0 00000000 		.4byte	.LFB181
 13181 00c4 0C000000 		.4byte	.LFE181-.LFB181
 13182 00c8 00000000 		.4byte	.LFB182
 13183 00cc 0A000000 		.4byte	.LFE182-.LFB182
 13184 00d0 00000000 		.4byte	.LFB183
 13185 00d4 76000000 		.4byte	.LFE183-.LFB183
 13186 00d8 00000000 		.4byte	.LFB188
 13187 00dc 7C020000 		.4byte	.LFE188-.LFB188
 13188 00e0 00000000 		.4byte	.LFB184
 13189 00e4 C0000000 		.4byte	.LFE184-.LFB184
 13190 00e8 00000000 		.4byte	.LFB187
 13191 00ec 74000000 		.4byte	.LFE187-.LFB187
 13192 00f0 00000000 		.4byte	.LFB165
 13193 00f4 CC000000 		.4byte	.LFE165-.LFB165
 13194 00f8 00000000 		.4byte	0
 13195 00fc 00000000 		.4byte	0
 13196              		.section	.debug_ranges,"",%progbits
 13197              	.Ldebug_ranges0:
 13198 0000 00000000 		.4byte	.LFB190
 13199 0004 48000000 		.4byte	.LFE190
 13200 0008 00000000 		.4byte	.LFB193
 13201 000c 20000000 		.4byte	.LFE193
 13202 0010 00000000 		.4byte	.LFB191
 13203 0014 F4000000 		.4byte	.LFE191
 13204 0018 00000000 		.4byte	.LFB192
 13205 001c 04010000 		.4byte	.LFE192
 13206 0020 00000000 		.4byte	.LFB189
 13207 0024 2C010000 		.4byte	.LFE189
 13208 0028 00000000 		.4byte	.LFB185
 13209 002c 90020000 		.4byte	.LFE185
 13210 0030 00000000 		.4byte	.LFB186
 13211 0034 24040000 		.4byte	.LFE186
 13212 0038 00000000 		.4byte	.LFB166
 13213 003c 30000000 		.4byte	.LFE166
 13214 0040 00000000 		.4byte	.LFB167
 13215 0044 0C000000 		.4byte	.LFE167
 13216 0048 00000000 		.4byte	.LFB168
 13217 004c 0C000000 		.4byte	.LFE168
 13218 0050 00000000 		.4byte	.LFB169
 13219 0054 A4000000 		.4byte	.LFE169
 13220 0058 00000000 		.4byte	.LFB170
 13221 005c 1A000000 		.4byte	.LFE170
ARM GAS  C:\Users\haske\AppData\Local\Temp\ccOQHbDo.s 			page 266


 13222 0060 00000000 		.4byte	.LFB171
 13223 0064 40000000 		.4byte	.LFE171
 13224 0068 00000000 		.4byte	.LFB172
 13225 006c 10000000 		.4byte	.LFE172
 13226 0070 00000000 		.4byte	.LFB173
 13227 0074 0C000000 		.4byte	.LFE173
 13228 0078 00000000 		.4byte	.LFB174
 13229 007c 30000000 		.4byte	.LFE174
 13230 0080 00000000 		.4byte	.LFB175
 13231 0084 08000000 		.4byte	.LFE175
 13232 0088 00000000 		.4byte	.LFB176
 13233 008c 10000000 		.4byte	.LFE176
 13234 0090 00000000 		.4byte	.LFB177
 13235 0094 22000000 		.4byte	.LFE177
 13236 0098 00000000 		.4byte	.LFB178
 13237 009c 1C000000 		.4byte	.LFE178
 13238 00a0 00000000 		.4byte	.LFB179
 13239 00a4 24000000 		.4byte	.LFE179
 13240 00a8 00000000 		.4byte	.LFB180
 13241 00ac 0C000000 		.4byte	.LFE180
 13242 00b0 00000000 		.4byte	.LFB181
 13243 00b4 0C000000 		.4byte	.LFE181
 13244 00b8 00000000 		.4byte	.LFB182
 13245 00bc 0A000000 		.4byte	.LFE182
 13246 00c0 00000000 		.4byte	.LFB183
 13247 00c4 76000000 		.4byte	.LFE183
 13248 00c8 00000000 		.4byte	.LFB188
 13249 00cc 7C020000 		.4byte	.LFE188
 13250 00d0 00000000 		.4byte	.LFB184
 13251 00d4 C0000000 		.4byte	.LFE184
 13252 00d8 00000000 		.4byte	.LFB187
 13253 00dc 74000000 		.4byte	.LFE187
 13254 00e0 00000000 		.4byte	.LFB165
 13255 00e4 CC000000 		.4byte	.LFE165
 13256 00e8 00000000 		.4byte	0
 13257 00ec 00000000 		.4byte	0
 13258              		.section	.debug_line,"",%progbits
 13259              	.Ldebug_line0:
 13260 0000 F30B0000 		.section	.debug_str,"MS",%progbits,1
 13260      0200C805 
 13260      00000201 
 13260      FB0E0D00 
 13260      01010101 
 13261              	.LASF177:
 13262 0000 70726F70 		.ascii	"prop_cnt\000"
 13262      5F636E74 
 13262      00
 13263              	.LASF15:
 13264 0009 696E7438 		.ascii	"int8_t\000"
 13264      5F7400
 13265              	.LASF569:
 13266 0010 4C565F4B 		.ascii	"LV_KEY_HOME\000"
 13266      45595F48 
 13266      4F4D4500 
 13267              	.LASF148:
 13268 001c 4C565F53 		.ascii	"LV_STYLE_OPA\000"
 13268      54594C45 
ARM GAS  C:\Users\haske\AppData\Local\Temp\ccOQHbDo.s 			page 267


 13268      5F4F5041 
 13268      00
 13269              	.LASF336:
 13270 0029 636F6C6F 		.ascii	"color_chroma_key\000"
 13270      725F6368 
 13270      726F6D61 
 13270      5F6B6579 
 13270      00
 13271              	.LASF287:
 13272 003a 6C765F6C 		.ascii	"lv_ll_node_t\000"
 13272      6C5F6E6F 
 13272      64655F74 
 13272      00
 13273              	.LASF309:
 13274 0047 6C765F64 		.ascii	"lv_disp_draw_buf_t\000"
 13274      6973705F 
 13274      64726177 
 13274      5F627566 
 13274      5F7400
 13275              	.LASF21:
 13276 005a 73697A65 		.ascii	"size_t\000"
 13276      5F7400
 13277              	.LASF36:
 13278 0061 6164765F 		.ascii	"adv_w\000"
 13278      7700
 13279              	.LASF374:
 13280 0067 4C565F49 		.ascii	"LV_INDEV_TYPE_ENCODER\000"
 13280      4E444556 
 13280      5F545950 
 13280      455F454E 
 13280      434F4445 
 13281              	.LASF55:
 13282 007d 73697A65 		.ascii	"sizetype\000"
 13282      74797065 
 13282      00
 13283              	.LASF561:
 13284 0086 4C565F4B 		.ascii	"LV_KEY_RIGHT\000"
 13284      45595F52 
 13284      49474854 
 13284      00
 13285              	.LASF369:
 13286 0093 6C765F64 		.ascii	"lv_disp_t\000"
 13286      6973705F 
 13286      7400
 13287              	.LASF531:
 13288 009d 4C565F45 		.ascii	"LV_EVENT_DRAW_MAIN_BEGIN\000"
 13288      56454E54 
 13288      5F445241 
 13288      575F4D41 
 13288      494E5F42 
 13289              	.LASF630:
 13290 00b6 6368696C 		.ascii	"child\000"
 13290      6400
 13291              	.LASF660:
 13292 00bc 6C765F64 		.ascii	"lv_disp_get_layer_sys\000"
 13292      6973705F 
 13292      6765745F 
ARM GAS  C:\Users\haske\AppData\Local\Temp\ccOQHbDo.s 			page 268


 13292      6C617965 
 13292      725F7379 
 13293              	.LASF132:
 13294 00d2 4C565F53 		.ascii	"LV_STYLE_LINE_DASH_GAP\000"
 13294      54594C45 
 13294      5F4C494E 
 13294      455F4441 
 13294      53485F47 
 13295              	.LASF290:
 13296 00e9 7461696C 		.ascii	"tail\000"
 13296      00
 13297              	.LASF346:
 13298 00ee 6163745F 		.ascii	"act_scr\000"
 13298      73637200 
 13299              	.LASF351:
 13300 00f6 73637265 		.ascii	"screen_cnt\000"
 13300      656E5F63 
 13300      6E7400
 13301              	.LASF278:
 13302 0101 64726177 		.ascii	"draw_bg\000"
 13302      5F626700 
 13303              	.LASF627:
 13304 0109 666F756E 		.ascii	"found_p\000"
 13304      645F7000 
 13305              	.LASF62:
 13306 0111 6C765F6F 		.ascii	"lv_opa_t\000"
 13306      70615F74 
 13306      00
 13307              	.LASF139:
 13308 011a 4C565F53 		.ascii	"LV_STYLE_ARC_OPA\000"
 13308      54594C45 
 13308      5F415243 
 13308      5F4F5041 
 13308      00
 13309              	.LASF247:
 13310 012b 7261775F 		.ascii	"raw_end\000"
 13310      656E6400 
 13311              	.LASF19:
 13312 0133 696E7433 		.ascii	"int32_t\000"
 13312      325F7400 
 13313              	.LASF484:
 13314 013b 6C765F73 		.ascii	"lv_scrollbar_mode_t\000"
 13314      63726F6C 
 13314      6C626172 
 13314      5F6D6F64 
 13314      655F7400 
 13315              	.LASF613:
 13316 014f 6C765F69 		.ascii	"lv_indev_set_button_points\000"
 13316      6E646576 
 13316      5F736574 
 13316      5F627574 
 13316      746F6E5F 
 13317              	.LASF176:
 13318 016a 6861735F 		.ascii	"has_group\000"
 13318      67726F75 
 13318      7000
 13319              	.LASF540:
ARM GAS  C:\Users\haske\AppData\Local\Temp\ccOQHbDo.s 			page 269


 13320 0174 4C565F45 		.ascii	"LV_EVENT_INSERT\000"
 13320      56454E54 
 13320      5F494E53 
 13320      45525400 
 13321              	.LASF434:
 13322 0184 66726F7A 		.ascii	"frozen\000"
 13322      656E00
 13323              	.LASF364:
 13324 018b 636F6C6F 		.ascii	"color_primary\000"
 13324      725F7072 
 13324      696D6172 
 13324      7900
 13325              	.LASF24:
 13326 0199 6C765F70 		.ascii	"lv_point_t\000"
 13326      6F696E74 
 13326      5F7400
 13327              	.LASF195:
 13328 01a4 72616469 		.ascii	"radius\000"
 13328      757300
 13329              	.LASF198:
 13330 01ab 62675F63 		.ascii	"bg_color\000"
 13330      6F6C6F72 
 13330      00
 13331              	.LASF44:
 13332 01b4 6C696E65 		.ascii	"line_height\000"
 13332      5F686569 
 13332      67687400 
 13333              	.LASF66:
 13334 01c0 6C765F62 		.ascii	"lv_blend_mode_t\000"
 13334      6C656E64 
 13334      5F6D6F64 
 13334      655F7400 
 13335              	.LASF229:
 13336 01d0 62696469 		.ascii	"bidi_dir\000"
 13336      5F646972 
 13336      00
 13337              	.LASF340:
 13338 01d9 64726177 		.ascii	"draw_ctx_size\000"
 13338      5F637478 
 13338      5F73697A 
 13338      6500
 13339              	.LASF184:
 13340 01e7 73706563 		.ascii	"spec_attr\000"
 13340      5F617474 
 13340      7200
 13341              	.LASF582:
 13342 01f1 7363726F 		.ascii	"scroll_snap_x\000"
 13342      6C6C5F73 
 13342      6E61705F 
 13342      7800
 13343              	.LASF583:
 13344 01ff 7363726F 		.ascii	"scroll_snap_y\000"
 13344      6C6C5F73 
 13344      6E61705F 
 13344      7900
 13345              	.LASF255:
 13346 020d 4C565F44 		.ascii	"LV_DRAW_LAYER_FLAG_HAS_ALPHA\000"
ARM GAS  C:\Users\haske\AppData\Local\Temp\ccOQHbDo.s 			page 270


 13346      5241575F 
 13346      4C415945 
 13346      525F464C 
 13346      41475F48 
 13347              	.LASF545:
 13348 022a 4C565F45 		.ascii	"LV_EVENT_CHILD_CHANGED\000"
 13348      56454E54 
 13348      5F434849 
 13348      4C445F43 
 13348      48414E47 
 13349              	.LASF188:
 13350 0241 73746174 		.ascii	"state\000"
 13350      6500
 13351              	.LASF83:
 13352 0247 4C565F53 		.ascii	"LV_STYLE_HEIGHT\000"
 13352      54594C45 
 13352      5F484549 
 13352      47485400 
 13353              	.LASF365:
 13354 0257 636F6C6F 		.ascii	"color_secondary\000"
 13354      725F7365 
 13354      636F6E64 
 13354      61727900 
 13355              	.LASF297:
 13356 0267 72657065 		.ascii	"repeat_count\000"
 13356      61745F63 
 13356      6F756E74 
 13356      00
 13357              	.LASF235:
 13358 0274 7A6F6F6D 		.ascii	"zoom\000"
 13358      00
 13359              	.LASF488:
 13360 0279 69735F6C 		.ascii	"is_local\000"
 13360      6F63616C 
 13360      00
 13361              	.LASF270:
 13362 0282 64726177 		.ascii	"draw_rect\000"
 13362      5F726563 
 13362      7400
 13363              	.LASF626:
 13364 028c 6C765F69 		.ascii	"lv_indev_search_obj\000"
 13364      6E646576 
 13364      5F736561 
 13364      7263685F 
 13364      6F626A00 
 13365              	.LASF293:
 13366 02a0 5F6C765F 		.ascii	"_lv_timer_t\000"
 13366      74696D65 
 13366      725F7400 
 13367              	.LASF103:
 13368 02ac 4C565F53 		.ascii	"LV_STYLE_BG_MAIN_STOP\000"
 13368      54594C45 
 13368      5F42475F 
 13368      4D41494E 
 13368      5F53544F 
 13369              	.LASF269:
 13370 02c2 696E6974 		.ascii	"init_buf\000"
ARM GAS  C:\Users\haske\AppData\Local\Temp\ccOQHbDo.s 			page 271


 13370      5F627566 
 13370      00
 13371              	.LASF493:
 13372 02cb 636F6E73 		.ascii	"constructor_cb\000"
 13372      74727563 
 13372      746F725F 
 13372      636200
 13373              	.LASF252:
 13374 02da 726F756E 		.ascii	"rounded\000"
 13374      64656400 
 13375              	.LASF164:
 13376 02e2 5F4C565F 		.ascii	"_LV_STYLE_LAST_BUILT_IN_PROP\000"
 13376      5354594C 
 13376      455F4C41 
 13376      53545F42 
 13376      55494C54 
 13377              	.LASF268:
 13378 02ff 5F6C765F 		.ascii	"_lv_draw_ctx_t\000"
 13378      64726177 
 13378      5F637478 
 13378      5F7400
 13379              	.LASF385:
 13380 030e 74797065 		.ascii	"type\000"
 13380      00
 13381              	.LASF523:
 13382 0313 4C565F45 		.ascii	"LV_EVENT_GESTURE\000"
 13382      56454E54 
 13382      5F474553 
 13382      54555245 
 13382      00
 13383              	.LASF516:
 13384 0324 4C565F45 		.ascii	"LV_EVENT_LONG_PRESSED\000"
 13384      56454E54 
 13384      5F4C4F4E 
 13384      475F5052 
 13384      45535345 
 13385              	.LASF200:
 13386 033a 62675F69 		.ascii	"bg_img_src\000"
 13386      6D675F73 
 13386      726300
 13387              	.LASF114:
 13388 0345 4C565F53 		.ascii	"LV_STYLE_BORDER_WIDTH\000"
 13388      54594C45 
 13388      5F424F52 
 13388      4445525F 
 13388      57494454 
 13389              	.LASF609:
 13390 035b 6C765F69 		.ascii	"lv_indev_reset_long_press\000"
 13390      6E646576 
 13390      5F726573 
 13390      65745F6C 
 13390      6F6E675F 
 13391              	.LASF546:
 13392 0375 4C565F45 		.ascii	"LV_EVENT_CHILD_CREATED\000"
 13392      56454E54 
 13392      5F434849 
 13392      4C445F43 
ARM GAS  C:\Users\haske\AppData\Local\Temp\ccOQHbDo.s 			page 272


 13392      52454154 
 13393              	.LASF614:
 13394 038c 706F696E 		.ascii	"points\000"
 13394      747300
 13395              	.LASF96:
 13396 0393 4C565F53 		.ascii	"LV_STYLE_PAD_COLUMN\000"
 13396      54594C45 
 13396      5F504144 
 13396      5F434F4C 
 13396      554D4E00 
 13397              	.LASF384:
 13398 03a7 5F6C765F 		.ascii	"_lv_indev_drv_t\000"
 13398      696E6465 
 13398      765F6472 
 13398      765F7400 
 13399              	.LASF615:
 13400 03b7 6C765F69 		.ascii	"lv_indev_get_point\000"
 13400      6E646576 
 13400      5F676574 
 13400      5F706F69 
 13400      6E7400
 13401              	.LASF619:
 13402 03ca 6C765F69 		.ascii	"lv_indev_get_scroll_dir\000"
 13402      6E646576 
 13402      5F676574 
 13402      5F736372 
 13402      6F6C6C5F 
 13403              	.LASF574:
 13404 03e2 6368696C 		.ascii	"children\000"
 13404      6472656E 
 13404      00
 13405              	.LASF379:
 13406 03eb 706F696E 		.ascii	"point\000"
 13406      7400
 13407              	.LASF605:
 13408 03f1 65646974 		.ascii	"editable_or_scrollable\000"
 13408      61626C65 
 13408      5F6F725F 
 13408      7363726F 
 13408      6C6C6162 
 13409              	.LASF106:
 13410 0408 4C565F53 		.ascii	"LV_STYLE_BG_DITHER_MODE\000"
 13410      54594C45 
 13410      5F42475F 
 13410      44495448 
 13410      45525F4D 
 13411              	.LASF210:
 13412 0420 626F7264 		.ascii	"border_side\000"
 13412      65725F73 
 13412      69646500 
 13413              	.LASF1:
 13414 042c 5F5F7569 		.ascii	"__uint8_t\000"
 13414      6E74385F 
 13414      7400
 13415              	.LASF194:
 13416 0436 775F6C61 		.ascii	"w_layout\000"
 13416      796F7574 
ARM GAS  C:\Users\haske\AppData\Local\Temp\ccOQHbDo.s 			page 273


 13416      00
 13417              	.LASF196:
 13418 043f 626C656E 		.ascii	"blend_mode\000"
 13418      645F6D6F 
 13418      646500
 13419              	.LASF90:
 13420 044a 4C565F53 		.ascii	"LV_STYLE_RADIUS\000"
 13420      54594C45 
 13420      5F524144 
 13420      49555300 
 13421              	.LASF316:
 13422 045a 7665725F 		.ascii	"ver_res\000"
 13422      72657300 
 13423              	.LASF190:
 13424 0462 7363725F 		.ascii	"scr_layout_inv\000"
 13424      6C61796F 
 13424      75745F69 
 13424      6E7600
 13425              	.LASF82:
 13426 0471 4C565F53 		.ascii	"LV_STYLE_MAX_WIDTH\000"
 13426      54594C45 
 13426      5F4D4158 
 13426      5F574944 
 13426      544800
 13427              	.LASF661:
 13428 0484 6C765F6F 		.ascii	"lv_obj_set_parent\000"
 13428      626A5F73 
 13428      65745F70 
 13428      6172656E 
 13428      7400
 13429              	.LASF345:
 13430 0496 73637265 		.ascii	"screens\000"
 13430      656E7300 
 13431              	.LASF109:
 13432 049e 4C565F53 		.ascii	"LV_STYLE_BG_IMG_RECOLOR\000"
 13432      54594C45 
 13432      5F42475F 
 13432      494D475F 
 13432      5245434F 
 13433              	.LASF547:
 13434 04b6 4C565F45 		.ascii	"LV_EVENT_CHILD_DELETED\000"
 13434      56454E54 
 13434      5F434849 
 13434      4C445F44 
 13434      454C4554 
 13435              	.LASF126:
 13436 04cd 4C565F53 		.ascii	"LV_STYLE_SHADOW_OPA\000"
 13436      54594C45 
 13436      5F534841 
 13436      444F575F 
 13436      4F504100 
 13437              	.LASF642:
 13438 04e1 6C765F65 		.ascii	"lv_event_send\000"
 13438      76656E74 
 13438      5F73656E 
 13438      6400
 13439              	.LASF405:
ARM GAS  C:\Users\haske\AppData\Local\Temp\ccOQHbDo.s 			page 274


 13440 04ef 7363726F 		.ascii	"scroll_obj\000"
 13440      6C6C5F6F 
 13440      626A00
 13441              	.LASF157:
 13442 04fa 4C565F53 		.ascii	"LV_STYLE_TRANSFORM_HEIGHT\000"
 13442      54594C45 
 13442      5F545241 
 13442      4E53464F 
 13442      524D5F48 
 13443              	.LASF458:
 13444 0514 4C565F4F 		.ascii	"LV_OBJ_FLAG_SCROLLABLE\000"
 13444      424A5F46 
 13444      4C41475F 
 13444      5343524F 
 13444      4C4C4142 
 13445              	.LASF94:
 13446 052b 4C565F53 		.ascii	"LV_STYLE_PAD_RIGHT\000"
 13446      54594C45 
 13446      5F504144 
 13446      5F524947 
 13446      485400
 13447              	.LASF511:
 13448 053e 4C565F45 		.ascii	"LV_EVENT_ALL\000"
 13448      56454E54 
 13448      5F414C4C 
 13448      00
 13449              	.LASF360:
 13450 054b 6C617374 		.ascii	"last_activity_time\000"
 13450      5F616374 
 13450      69766974 
 13450      795F7469 
 13450      6D6500
 13451              	.LASF9:
 13452 055e 6C6F6E67 		.ascii	"long int\000"
 13452      20696E74 
 13452      00
 13453              	.LASF154:
 13454 0567 4C565F53 		.ascii	"LV_STYLE_TRANSITION\000"
 13454      54594C45 
 13454      5F545241 
 13454      4E534954 
 13454      494F4E00 
 13455              	.LASF326:
 13456 057b 726F7461 		.ascii	"rotated\000"
 13456      74656400 
 13457              	.LASF409:
 13458 0583 7363726F 		.ascii	"scroll_dir\000"
 13458      6C6C5F64 
 13458      697200
 13459              	.LASF499:
 13460 058e 67726F75 		.ascii	"group_def\000"
 13460      705F6465 
 13460      6600
 13461              	.LASF339:
 13462 0598 64726177 		.ascii	"draw_ctx_deinit\000"
 13462      5F637478 
 13462      5F646569 
ARM GAS  C:\Users\haske\AppData\Local\Temp\ccOQHbDo.s 			page 275


 13462      6E697400 
 13463              	.LASF412:
 13464 05a8 6C617374 		.ascii	"last_state\000"
 13464      5F737461 
 13464      746500
 13465              	.LASF444:
 13466 05b3 4C565F53 		.ascii	"LV_STATE_HOVERED\000"
 13466      54415445 
 13466      5F484F56 
 13466      45524544 
 13466      00
 13467              	.LASF197:
 13468 05c4 62675F6F 		.ascii	"bg_opa\000"
 13468      706100
 13469              	.LASF343:
 13470 05cb 72656672 		.ascii	"refr_timer\000"
 13470      5F74696D 
 13470      657200
 13471              	.LASF442:
 13472 05d6 4C565F53 		.ascii	"LV_STATE_FOCUS_KEY\000"
 13472      54415445 
 13472      5F464F43 
 13472      55535F4B 
 13472      455900
 13473              	.LASF233:
 13474 05e9 6C765F64 		.ascii	"lv_draw_label_dsc_t\000"
 13474      7261775F 
 13474      6C616265 
 13474      6C5F6473 
 13474      635F7400 
 13475              	.LASF453:
 13476 05fd 6C765F73 		.ascii	"lv_state_t\000"
 13476      74617465 
 13476      5F7400
 13477              	.LASF471:
 13478 0608 4C565F4F 		.ascii	"LV_OBJ_FLAG_ADV_HITTEST\000"
 13478      424A5F46 
 13478      4C41475F 
 13478      4144565F 
 13478      48495454 
 13479              	.LASF226:
 13480 0620 73656C5F 		.ascii	"sel_bg_color\000"
 13480      62675F63 
 13480      6F6C6F72 
 13480      00
 13481              	.LASF466:
 13482 062d 4C565F4F 		.ascii	"LV_OBJ_FLAG_SCROLL_WITH_ARROW\000"
 13482      424A5F46 
 13482      4C41475F 
 13482      5343524F 
 13482      4C4C5F57 
 13483              	.LASF645:
 13484 064b 6C765F70 		.ascii	"lv_point_transform\000"
 13484      6F696E74 
 13484      5F747261 
 13484      6E73666F 
 13484      726D00
ARM GAS  C:\Users\haske\AppData\Local\Temp\ccOQHbDo.s 			page 276


 13485              	.LASF433:
 13486 065e 65646765 		.ascii	"edge_cb\000"
 13486      5F636200 
 13487              	.LASF357:
 13488 0666 696E765F 		.ascii	"inv_area_joined\000"
 13488      61726561 
 13488      5F6A6F69 
 13488      6E656400 
 13489              	.LASF111:
 13490 0676 4C565F53 		.ascii	"LV_STYLE_BG_IMG_TILED\000"
 13490      54594C45 
 13490      5F42475F 
 13490      494D475F 
 13490      54494C45 
 13491              	.LASF564:
 13492 068c 4C565F4B 		.ascii	"LV_KEY_DEL\000"
 13492      45595F44 
 13492      454C00
 13493              	.LASF348:
 13494 0697 7363725F 		.ascii	"scr_to_load\000"
 13494      746F5F6C 
 13494      6F616400 
 13495              	.LASF289:
 13496 06a3 68656164 		.ascii	"head\000"
 13496      00
 13497              	.LASF113:
 13498 06a8 4C565F53 		.ascii	"LV_STYLE_BORDER_OPA\000"
 13498      54594C45 
 13498      5F424F52 
 13498      4445525F 
 13498      4F504100 
 13499              	.LASF452:
 13500 06bc 4C565F53 		.ascii	"LV_STATE_ANY\000"
 13500      54415445 
 13500      5F414E59 
 13500      00
 13501              	.LASF386:
 13502 06c9 72656164 		.ascii	"read_cb\000"
 13502      5F636200 
 13503              	.LASF538:
 13504 06d1 4C565F45 		.ascii	"LV_EVENT_DRAW_PART_END\000"
 13504      56454E54 
 13504      5F445241 
 13504      575F5041 
 13504      52545F45 
 13505              	.LASF307:
 13506 06e8 6C617374 		.ascii	"last_area\000"
 13506      5F617265 
 13506      6100
 13507              	.LASF408:
 13508 06f2 67657374 		.ascii	"gesture_sum\000"
 13508      7572655F 
 13508      73756D00 
 13509              	.LASF280:
 13510 06fe 62756666 		.ascii	"buffer_copy\000"
 13510      65725F63 
 13510      6F707900 
ARM GAS  C:\Users\haske\AppData\Local\Temp\ccOQHbDo.s 			page 277


 13511              	.LASF406:
 13512 070a 6C617374 		.ascii	"last_pressed\000"
 13512      5F707265 
 13512      73736564 
 13512      00
 13513              	.LASF211:
 13514 0717 6F75746C 		.ascii	"outline_color\000"
 13514      696E655F 
 13514      636F6C6F 
 13514      7200
 13515              	.LASF125:
 13516 0725 4C565F53 		.ascii	"LV_STYLE_SHADOW_COLOR\000"
 13516      54594C45 
 13516      5F534841 
 13516      444F575F 
 13516      434F4C4F 
 13517              	.LASF192:
 13518 073b 7374796C 		.ascii	"style_cnt\000"
 13518      655F636E 
 13518      7400
 13519              	.LASF189:
 13520 0745 6C61796F 		.ascii	"layout_inv\000"
 13520      75745F69 
 13520      6E7600
 13521              	.LASF604:
 13522 0750 696E6465 		.ascii	"indev_encoder_proc\000"
 13522      765F656E 
 13522      636F6465 
 13522      725F7072 
 13522      6F6300
 13523              	.LASF562:
 13524 0763 4C565F4B 		.ascii	"LV_KEY_LEFT\000"
 13524      45595F4C 
 13524      45465400 
 13525              	.LASF2:
 13526 076f 7369676E 		.ascii	"signed char\000"
 13526      65642063 
 13526      68617200 
 13527              	.LASF16:
 13528 077b 75696E74 		.ascii	"uint8_t\000"
 13528      385F7400 
 13529              	.LASF275:
 13530 0783 64726177 		.ascii	"draw_line\000"
 13530      5F6C696E 
 13530      6500
 13531              	.LASF315:
 13532 078d 686F725F 		.ascii	"hor_res\000"
 13532      72657300 
 13533              	.LASF638:
 13534 0795 696E6465 		.ascii	"indev_obj_act\000"
 13534      765F6F62 
 13534      6A5F6163 
 13534      7400
 13535              	.LASF310:
 13536 07a3 4C565F44 		.ascii	"LV_DISP_ROT_NONE\000"
 13536      4953505F 
 13536      524F545F 
ARM GAS  C:\Users\haske\AppData\Local\Temp\ccOQHbDo.s 			page 278


 13536      4E4F4E45 
 13536      00
 13537              	.LASF475:
 13538 07b4 4C565F4F 		.ascii	"LV_OBJ_FLAG_LAYOUT_1\000"
 13538      424A5F46 
 13538      4C41475F 
 13538      4C41594F 
 13538      55545F31 
 13539              	.LASF476:
 13540 07c9 4C565F4F 		.ascii	"LV_OBJ_FLAG_LAYOUT_2\000"
 13540      424A5F46 
 13540      4C41475F 
 13540      4C41594F 
 13540      55545F32 
 13541              	.LASF205:
 13542 07de 62675F69 		.ascii	"bg_img_tiled\000"
 13542      6D675F74 
 13542      696C6564 
 13542      00
 13543              	.LASF102:
 13544 07eb 4C565F53 		.ascii	"LV_STYLE_BG_GRAD_DIR\000"
 13544      54594C45 
 13544      5F42475F 
 13544      47524144 
 13544      5F444952 
 13545              	.LASF43:
 13546 0800 6765745F 		.ascii	"get_glyph_bitmap\000"
 13546      676C7970 
 13546      685F6269 
 13546      746D6170 
 13546      00
 13547              	.LASF250:
 13548 0811 656E645F 		.ascii	"end_angle\000"
 13548      616E676C 
 13548      6500
 13549              	.LASF57:
 13550 081b 626C7565 		.ascii	"blue\000"
 13550      00
 13551              	.LASF464:
 13552 0820 4C565F4F 		.ascii	"LV_OBJ_FLAG_SCROLL_CHAIN\000"
 13552      424A5F46 
 13552      4C41475F 
 13552      5343524F 
 13552      4C4C5F43 
 13553              	.LASF203:
 13554 0839 62675F69 		.ascii	"bg_img_opa\000"
 13554      6D675F6F 
 13554      706100
 13555              	.LASF647:
 13556 0844 6C765F67 		.ascii	"lv_group_get_focused\000"
 13556      726F7570 
 13556      5F676574 
 13556      5F666F63 
 13556      75736564 
 13557              	.LASF477:
 13558 0859 4C565F4F 		.ascii	"LV_OBJ_FLAG_WIDGET_1\000"
 13558      424A5F46 
ARM GAS  C:\Users\haske\AppData\Local\Temp\ccOQHbDo.s 			page 279


 13558      4C41475F 
 13558      57494447 
 13558      45545F31 
 13559              	.LASF478:
 13560 086e 4C565F4F 		.ascii	"LV_OBJ_FLAG_WIDGET_2\000"
 13560      424A5F46 
 13560      4C41475F 
 13560      57494447 
 13560      45545F32 
 13561              	.LASF88:
 13562 0883 4C565F53 		.ascii	"LV_STYLE_ALIGN\000"
 13562      54594C45 
 13562      5F414C49 
 13562      474E00
 13563              	.LASF3:
 13564 0892 756E7369 		.ascii	"unsigned char\000"
 13564      676E6564 
 13564      20636861 
 13564      7200
 13565              	.LASF349:
 13566 08a0 746F705F 		.ascii	"top_layer\000"
 13566      6C617965 
 13566      7200
 13567              	.LASF421:
 13568 08aa 74797065 		.ascii	"types\000"
 13568      7300
 13569              	.LASF555:
 13570 08b0 4C565F45 		.ascii	"LV_EVENT_GET_SELF_SIZE\000"
 13570      56454E54 
 13570      5F474554 
 13570      5F53454C 
 13570      465F5349 
 13571              	.LASF532:
 13572 08c7 4C565F45 		.ascii	"LV_EVENT_DRAW_MAIN\000"
 13572      56454E54 
 13572      5F445241 
 13572      575F4D41 
 13572      494E00
 13573              	.LASF311:
 13574 08da 4C565F44 		.ascii	"LV_DISP_ROT_90\000"
 13574      4953505F 
 13574      524F545F 
 13574      393000
 13575              	.LASF248:
 13576 08e9 6C765F64 		.ascii	"lv_draw_line_dsc_t\000"
 13576      7261775F 
 13576      6C696E65 
 13576      5F647363 
 13576      5F7400
 13577              	.LASF162:
 13578 08fc 4C565F53 		.ascii	"LV_STYLE_TRANSFORM_PIVOT_X\000"
 13578      54594C45 
 13578      5F545241 
 13578      4E53464F 
 13578      524D5F50 
 13579              	.LASF163:
 13580 0917 4C565F53 		.ascii	"LV_STYLE_TRANSFORM_PIVOT_Y\000"
ARM GAS  C:\Users\haske\AppData\Local\Temp\ccOQHbDo.s 			page 280


 13580      54594C45 
 13580      5F545241 
 13580      4E53464F 
 13580      524D5F50 
 13581              	.LASF573:
 13582 0932 6C765F67 		.ascii	"lv_group_t\000"
 13582      726F7570 
 13582      5F7400
 13583              	.LASF376:
 13584 093d 4C565F49 		.ascii	"LV_INDEV_STATE_RELEASED\000"
 13584      4E444556 
 13584      5F535441 
 13584      54455F52 
 13584      454C4541 
 13585              	.LASF128:
 13586 0955 4C565F53 		.ascii	"LV_STYLE_IMG_RECOLOR\000"
 13586      54594C45 
 13586      5F494D47 
 13586      5F524543 
 13586      4F4C4F52 
 13587              	.LASF263:
 13588 096a 61726561 		.ascii	"area_act\000"
 13588      5F616374 
 13588      00
 13589              	.LASF136:
 13590 0973 4C565F53 		.ascii	"LV_STYLE_ARC_WIDTH\000"
 13590      54594C45 
 13590      5F415243 
 13590      5F574944 
 13590      544800
 13591              	.LASF39:
 13592 0986 6F66735F 		.ascii	"ofs_x\000"
 13592      7800
 13593              	.LASF40:
 13594 098c 6F66735F 		.ascii	"ofs_y\000"
 13594      7900
 13595              	.LASF65:
 13596 0992 6C765F62 		.ascii	"lv_base_dir_t\000"
 13596      6173655F 
 13596      6469725F 
 13596      7400
 13597              	.LASF565:
 13598 09a0 4C565F4B 		.ascii	"LV_KEY_BACKSPACE\000"
 13598      45595F42 
 13598      41434B53 
 13598      50414345 
 13598      00
 13599              	.LASF29:
 13600 09b1 4C565F44 		.ascii	"LV_DIR_TOP\000"
 13600      49525F54 
 13600      4F5000
 13601              	.LASF193:
 13602 09bc 685F6C61 		.ascii	"h_layout\000"
 13602      796F7574 
 13602      00
 13603              	.LASF306:
 13604 09c5 666C7573 		.ascii	"flushing_last\000"
ARM GAS  C:\Users\haske\AppData\Local\Temp\ccOQHbDo.s 			page 281


 13604      68696E67 
 13604      5F6C6173 
 13604      7400
 13605              	.LASF52:
 13606 09d3 5F426F6F 		.ascii	"_Bool\000"
 13606      6C00
 13607              	.LASF581:
 13608 09d9 7363726F 		.ascii	"scrollbar_mode\000"
 13608      6C6C6261 
 13608      725F6D6F 
 13608      646500
 13609              	.LASF318:
 13610 09e8 70687973 		.ascii	"physical_ver_res\000"
 13610      6963616C 
 13610      5F766572 
 13610      5F726573 
 13610      00
 13611              	.LASF266:
 13612 09f9 6F726967 		.ascii	"original\000"
 13612      696E616C 
 13612      00
 13613              	.LASF158:
 13614 0a02 4C565F53 		.ascii	"LV_STYLE_TRANSLATE_X\000"
 13614      54594C45 
 13614      5F545241 
 13614      4E534C41 
 13614      54455F58 
 13615              	.LASF159:
 13616 0a17 4C565F53 		.ascii	"LV_STYLE_TRANSLATE_Y\000"
 13616      54594C45 
 13616      5F545241 
 13616      4E534C41 
 13616      54455F59 
 13617              	.LASF110:
 13618 0a2c 4C565F53 		.ascii	"LV_STYLE_BG_IMG_RECOLOR_OPA\000"
 13618      54594C45 
 13618      5F42475F 
 13618      494D475F 
 13618      5245434F 
 13619              	.LASF508:
 13620 0a48 73746F70 		.ascii	"stop_processing\000"
 13620      5F70726F 
 13620      63657373 
 13620      696E6700 
 13621              	.LASF170:
 13622 0a58 76616C75 		.ascii	"value\000"
 13622      6500
 13623              	.LASF187:
 13624 0a5e 666C6167 		.ascii	"flags\000"
 13624      7300
 13625              	.LASF257:
 13626 0a64 6C765F64 		.ascii	"lv_draw_layer_flags_t\000"
 13626      7261775F 
 13626      6C617965 
 13626      725F666C 
 13626      6167735F 
 13627              	.LASF590:
ARM GAS  C:\Users\haske\AppData\Local\Temp\ccOQHbDo.s 			page 282


 13628 0a7a 6C765F6F 		.ascii	"lv_obj_get_style_transform_zoom\000"
 13628      626A5F67 
 13628      65745F73 
 13628      74796C65 
 13628      5F747261 
 13629              	.LASF656:
 13630 0a9a 6C765F67 		.ascii	"lv_group_get_editing\000"
 13630      726F7570 
 13630      5F676574 
 13630      5F656469 
 13630      74696E67 
 13631              	.LASF56:
 13632 0aaf 63686172 		.ascii	"char\000"
 13632      00
 13633              	.LASF241:
 13634 0ab4 6C765F64 		.ascii	"lv_draw_img_dsc_t\000"
 13634      7261775F 
 13634      696D675F 
 13634      6473635F 
 13634      7400
 13635              	.LASF380:
 13636 0ac6 62746E5F 		.ascii	"btn_id\000"
 13636      696400
 13637              	.LASF26:
 13638 0acd 4C565F44 		.ascii	"LV_DIR_NONE\000"
 13638      49525F4E 
 13638      4F4E4500 
 13639              	.LASF47:
 13640 0ad9 756E6465 		.ascii	"underline_position\000"
 13640      726C696E 
 13640      655F706F 
 13640      73697469 
 13640      6F6E00
 13641              	.LASF285:
 13642 0aec 6C617965 		.ascii	"layer_instance_size\000"
 13642      725F696E 
 13642      7374616E 
 13642      63655F73 
 13642      697A6500 
 13643              	.LASF649:
 13644 0b00 6C765F74 		.ascii	"lv_tick_get\000"
 13644      69636B5F 
 13644      67657400 
 13645              	.LASF244:
 13646 0b0c 64617368 		.ascii	"dash_gap\000"
 13646      5F676170 
 13646      00
 13647              	.LASF277:
 13648 0b15 64726177 		.ascii	"draw_transform\000"
 13648      5F747261 
 13648      6E73666F 
 13648      726D00
 13649              	.LASF322:
 13650 0b24 64697265 		.ascii	"direct_mode\000"
 13650      63745F6D 
 13650      6F646500 
 13651              	.LASF529:
ARM GAS  C:\Users\haske\AppData\Local\Temp\ccOQHbDo.s 			page 283


 13652 0b30 4C565F45 		.ascii	"LV_EVENT_COVER_CHECK\000"
 13652      56454E54 
 13652      5F434F56 
 13652      45525F43 
 13652      4845434B 
 13653              	.LASF97:
 13654 0b45 4C565F53 		.ascii	"LV_STYLE_BASE_DIR\000"
 13654      54594C45 
 13654      5F424153 
 13654      455F4449 
 13654      5200
 13655              	.LASF620:
 13656 0b57 6C765F69 		.ascii	"lv_indev_get_scroll_obj\000"
 13656      6E646576 
 13656      5F676574 
 13656      5F736372 
 13656      6F6C6C5F 
 13657              	.LASF119:
 13658 0b6f 4C565F53 		.ascii	"LV_STYLE_OUTLINE_OPA\000"
 13658      54594C45 
 13658      5F4F5554 
 13658      4C494E45 
 13658      5F4F5041 
 13659              	.LASF75:
 13660 0b84 73746F70 		.ascii	"stops_count\000"
 13660      735F636F 
 13660      756E7400 
 13661              	.LASF325:
 13662 0b90 616E7469 		.ascii	"antialiasing\000"
 13662      616C6961 
 13662      73696E67 
 13662      00
 13663              	.LASF6:
 13664 0b9d 5F5F7569 		.ascii	"__uint16_t\000"
 13664      6E743136 
 13664      5F7400
 13665              	.LASF407:
 13666 0ba8 7363726F 		.ascii	"scroll_area\000"
 13666      6C6C5F61 
 13666      72656100 
 13667              	.LASF446:
 13668 0bb4 4C565F53 		.ascii	"LV_STATE_SCROLLED\000"
 13668      54415445 
 13668      5F534352 
 13668      4F4C4C45 
 13668      4400
 13669              	.LASF673:
 13670 0bc6 6C765F64 		.ascii	"lv_disp_get_ver_res\000"
 13670      6973705F 
 13670      6765745F 
 13670      7665725F 
 13670      72657300 
 13671              	.LASF528:
 13672 0bda 4C565F45 		.ascii	"LV_EVENT_HIT_TEST\000"
 13672      56454E54 
 13672      5F484954 
 13672      5F544553 
ARM GAS  C:\Users\haske\AppData\Local\Temp\ccOQHbDo.s 			page 284


 13672      5400
 13673              	.LASF636:
 13674 0bec 74696D65 		.ascii	"timer\000"
 13674      7200
 13675              	.LASF586:
 13676 0bf2 5F6C765F 		.ascii	"_lv_obj_spec_attr_t\000"
 13676      6F626A5F 
 13676      73706563 
 13676      5F617474 
 13676      725F7400 
 13677              	.LASF213:
 13678 0c06 6F75746C 		.ascii	"outline_pad\000"
 13678      696E655F 
 13678      70616400 
 13679              	.LASF286:
 13680 0c12 6C765F64 		.ascii	"lv_draw_ctx_t\000"
 13680      7261775F 
 13680      6374785F 
 13680      7400
 13681              	.LASF99:
 13682 0c20 4C565F53 		.ascii	"LV_STYLE_BG_COLOR\000"
 13682      54594C45 
 13682      5F42475F 
 13682      434F4C4F 
 13682      5200
 13683              	.LASF129:
 13684 0c32 4C565F53 		.ascii	"LV_STYLE_IMG_RECOLOR_OPA\000"
 13684      54594C45 
 13684      5F494D47 
 13684      5F524543 
 13684      4F4C4F52 
 13685              	.LASF425:
 13686 0c4b 70726F63 		.ascii	"proc\000"
 13686      00
 13687              	.LASF206:
 13688 0c50 626F7264 		.ascii	"border_color\000"
 13688      65725F63 
 13688      6F6C6F72 
 13688      00
 13689              	.LASF672:
 13690 0c5d 6C765F64 		.ascii	"lv_disp_get_hor_res\000"
 13690      6973705F 
 13690      6765745F 
 13690      686F725F 
 13690      72657300 
 13691              	.LASF155:
 13692 0c71 4C565F53 		.ascii	"LV_STYLE_BLEND_MODE\000"
 13692      54594C45 
 13692      5F424C45 
 13692      4E445F4D 
 13692      4F444500 
 13693              	.LASF34:
 13694 0c85 6C765F64 		.ascii	"lv_dir_t\000"
 13694      69725F74 
 13694      00
 13695              	.LASF550:
 13696 0c8e 4C565F45 		.ascii	"LV_EVENT_SCREEN_LOADED\000"
ARM GAS  C:\Users\haske\AppData\Local\Temp\ccOQHbDo.s 			page 285


 13696      56454E54 
 13696      5F534352 
 13696      45454E5F 
 13696      4C4F4144 
 13697              	.LASF169:
 13698 0ca5 70726F70 		.ascii	"prop\000"
 13698      00
 13699              	.LASF174:
 13700 0caa 636F6E73 		.ascii	"const_props\000"
 13700      745F7072 
 13700      6F707300 
 13701              	.LASF671:
 13702 0cb6 5F6C765F 		.ascii	"_lv_indev_scroll_handler\000"
 13702      696E6465 
 13702      765F7363 
 13702      726F6C6C 
 13702      5F68616E 
 13703              	.LASF650:
 13704 0ccf 6C765F67 		.ascii	"lv_group_set_editing\000"
 13704      726F7570 
 13704      5F736574 
 13704      5F656469 
 13704      74696E67 
 13705              	.LASF490:
 13706 0ce4 5F6C765F 		.ascii	"_lv_obj_style_t\000"
 13706      6F626A5F 
 13706      7374796C 
 13706      655F7400 
 13707              	.LASF443:
 13708 0cf4 4C565F53 		.ascii	"LV_STATE_EDITED\000"
 13708      54415445 
 13708      5F454449 
 13708      54454400 
 13709              	.LASF209:
 13710 0d04 626F7264 		.ascii	"border_post\000"
 13710      65725F70 
 13710      6F737400 
 13711              	.LASF577:
 13712 0d10 6576656E 		.ascii	"event_dsc\000"
 13712      745F6473 
 13712      6300
 13713              	.LASF305:
 13714 0d1a 666C7573 		.ascii	"flushing\000"
 13714      68696E67 
 13714      00
 13715              	.LASF33:
 13716 0d23 4C565F44 		.ascii	"LV_DIR_ALL\000"
 13716      49525F41 
 13716      4C4C00
 13717              	.LASF131:
 13718 0d2e 4C565F53 		.ascii	"LV_STYLE_LINE_DASH_WIDTH\000"
 13718      54594C45 
 13718      5F4C494E 
 13718      455F4441 
 13718      53485F57 
 13719              	.LASF32:
 13720 0d47 4C565F44 		.ascii	"LV_DIR_VER\000"
ARM GAS  C:\Users\haske\AppData\Local\Temp\ccOQHbDo.s 			page 286


 13720      49525F56 
 13720      455200
 13721              	.LASF217:
 13722 0d52 73686164 		.ascii	"shadow_ofs_x\000"
 13722      6F775F6F 
 13722      66735F78 
 13722      00
 13723              	.LASF156:
 13724 0d5f 4C565F53 		.ascii	"LV_STYLE_TRANSFORM_WIDTH\000"
 13724      54594C45 
 13724      5F545241 
 13724      4E53464F 
 13724      524D5F57 
 13725              	.LASF299:
 13726 0d78 6C765F74 		.ascii	"lv_timer_t\000"
 13726      696D6572 
 13726      5F7400
 13727              	.LASF576:
 13728 0d83 67726F75 		.ascii	"group_p\000"
 13728      705F7000 
 13729              	.LASF168:
 13730 0d8b 6C765F73 		.ascii	"lv_style_prop_t\000"
 13730      74796C65 
 13730      5F70726F 
 13730      705F7400 
 13731              	.LASF469:
 13732 0d9b 4C565F4F 		.ascii	"LV_OBJ_FLAG_EVENT_BUBBLE\000"
 13732      424A5F46 
 13732      4C41475F 
 13732      4556454E 
 13732      545F4255 
 13733              	.LASF245:
 13734 0db4 726F756E 		.ascii	"round_start\000"
 13734      645F7374 
 13734      61727400 
 13735              	.LASF578:
 13736 0dc0 7363726F 		.ascii	"scroll\000"
 13736      6C6C00
 13737              	.LASF49:
 13738 0dc7 66616C6C 		.ascii	"fallback\000"
 13738      6261636B 
 13738      00
 13739              	.LASF173:
 13740 0dd0 76616C75 		.ascii	"values_and_props\000"
 13740      65735F61 
 13740      6E645F70 
 13740      726F7073 
 13740      00
 13741              	.LASF623:
 13742 0de1 6C765F69 		.ascii	"lv_indev_get_act\000"
 13742      6E646576 
 13742      5F676574 
 13742      5F616374 
 13742      00
 13743              	.LASF496:
 13744 0df2 77696474 		.ascii	"width_def\000"
 13744      685F6465 
ARM GAS  C:\Users\haske\AppData\Local\Temp\ccOQHbDo.s 			page 287


 13744      6600
 13745              	.LASF378:
 13746 0dfc 6C765F69 		.ascii	"lv_indev_state_t\000"
 13746      6E646576 
 13746      5F737461 
 13746      74655F74 
 13746      00
 13747              	.LASF588:
 13748 0e0d 6C765F74 		.ascii	"lv_theme_apply_cb_t\000"
 13748      68656D65 
 13748      5F617070 
 13748      6C795F63 
 13748      625F7400 
 13749              	.LASF324:
 13750 0e21 73775F72 		.ascii	"sw_rotate\000"
 13750      6F746174 
 13750      6500
 13751              	.LASF585:
 13752 0e2b 6C617965 		.ascii	"layer_type\000"
 13752      725F7479 
 13752      706500
 13753              	.LASF153:
 13754 0e36 4C565F53 		.ascii	"LV_STYLE_ANIM_SPEED\000"
 13754      54594C45 
 13754      5F414E49 
 13754      4D5F5350 
 13754      45454400 
 13755              	.LASF25:
 13756 0e4a 6C765F61 		.ascii	"lv_area_t\000"
 13756      7265615F 
 13756      7400
 13757              	.LASF281:
 13758 0e54 6C617965 		.ascii	"layer_init\000"
 13758      725F696E 
 13758      697400
 13759              	.LASF117:
 13760 0e5f 4C565F53 		.ascii	"LV_STYLE_OUTLINE_WIDTH\000"
 13760      54594C45 
 13760      5F4F5554 
 13760      4C494E45 
 13760      5F574944 
 13761              	.LASF366:
 13762 0e76 666F6E74 		.ascii	"font_small\000"
 13762      5F736D61 
 13762      6C6C00
 13763              	.LASF572:
 13764 0e81 6C765F67 		.ascii	"lv_group_edge_cb_t\000"
 13764      726F7570 
 13764      5F656467 
 13764      655F6362 
 13764      5F7400
 13765              	.LASF479:
 13766 0e94 4C565F4F 		.ascii	"LV_OBJ_FLAG_USER_1\000"
 13766      424A5F46 
 13766      4C41475F 
 13766      55534552 
 13766      5F3100
ARM GAS  C:\Users\haske\AppData\Local\Temp\ccOQHbDo.s 			page 288


 13767              	.LASF480:
 13768 0ea7 4C565F4F 		.ascii	"LV_OBJ_FLAG_USER_2\000"
 13768      424A5F46 
 13768      4C41475F 
 13768      55534552 
 13768      5F3200
 13769              	.LASF447:
 13770 0eba 4C565F53 		.ascii	"LV_STATE_DISABLED\000"
 13770      54415445 
 13770      5F444953 
 13770      41424C45 
 13770      4400
 13771              	.LASF482:
 13772 0ecc 4C565F4F 		.ascii	"LV_OBJ_FLAG_USER_4\000"
 13772      424A5F46 
 13772      4C41475F 
 13772      55534552 
 13772      5F3400
 13773              	.LASF610:
 13774 0edf 6C765F69 		.ascii	"lv_indev_set_cursor\000"
 13774      6E646576 
 13774      5F736574 
 13774      5F637572 
 13774      736F7200 
 13775              	.LASF518:
 13776 0ef3 4C565F45 		.ascii	"LV_EVENT_CLICKED\000"
 13776      56454E54 
 13776      5F434C49 
 13776      434B4544 
 13776      00
 13777              	.LASF79:
 13778 0f04 4C565F53 		.ascii	"LV_STYLE_PROP_INV\000"
 13778      54594C45 
 13778      5F50524F 
 13778      505F494E 
 13778      5600
 13779              	.LASF145:
 13780 0f16 4C565F53 		.ascii	"LV_STYLE_TEXT_LINE_SPACE\000"
 13780      54594C45 
 13780      5F544558 
 13780      545F4C49 
 13780      4E455F53 
 13781              	.LASF510:
 13782 0f2f 6C765F6F 		.ascii	"lv_obj_class_t\000"
 13782      626A5F63 
 13782      6C617373 
 13782      5F7400
 13783              	.LASF171:
 13784 0f3e 6C765F73 		.ascii	"lv_style_const_prop_t\000"
 13784      74796C65 
 13784      5F636F6E 
 13784      73745F70 
 13784      726F705F 
 13785              	.LASF533:
 13786 0f54 4C565F45 		.ascii	"LV_EVENT_DRAW_MAIN_END\000"
 13786      56454E54 
 13786      5F445241 
ARM GAS  C:\Users\haske\AppData\Local\Temp\ccOQHbDo.s 			page 289


 13786      575F4D41 
 13786      494E5F45 
 13787              	.LASF359:
 13788 0f6b 696E765F 		.ascii	"inv_en_cnt\000"
 13788      656E5F63 
 13788      6E7400
 13789              	.LASF183:
 13790 0f76 70617265 		.ascii	"parent\000"
 13790      6E7400
 13791              	.LASF323:
 13792 0f7d 66756C6C 		.ascii	"full_refresh\000"
 13792      5F726566 
 13792      72657368 
 13792      00
 13793              	.LASF246:
 13794 0f8a 726F756E 		.ascii	"round_end\000"
 13794      645F656E 
 13794      6400
 13795              	.LASF251:
 13796 0f94 696D675F 		.ascii	"img_src\000"
 13796      73726300 
 13797              	.LASF489:
 13798 0f9c 69735F74 		.ascii	"is_trans\000"
 13798      72616E73 
 13798      00
 13799              	.LASF438:
 13800 0fa5 6C765F69 		.ascii	"lv_indev_t\000"
 13800      6E646576 
 13800      5F7400
 13801              	.LASF428:
 13802 0fb0 62746E5F 		.ascii	"btn_points\000"
 13802      706F696E 
 13802      747300
 13803              	.LASF219:
 13804 0fbb 73686164 		.ascii	"shadow_spread\000"
 13804      6F775F73 
 13804      70726561 
 13804      6400
 13805              	.LASF152:
 13806 0fc9 4C565F53 		.ascii	"LV_STYLE_ANIM_TIME\000"
 13806      54594C45 
 13806      5F414E49 
 13806      4D5F5449 
 13806      4D4500
 13807              	.LASF592:
 13808 0fdc 696E6465 		.ascii	"indev\000"
 13808      7600
 13809              	.LASF420:
 13810 0fe2 77616974 		.ascii	"wait_until_release\000"
 13810      5F756E74 
 13810      696C5F72 
 13810      656C6561 
 13810      736500
 13811              	.LASF92:
 13812 0ff5 4C565F53 		.ascii	"LV_STYLE_PAD_BOTTOM\000"
 13812      54594C45 
 13812      5F504144 
ARM GAS  C:\Users\haske\AppData\Local\Temp\ccOQHbDo.s 			page 290


 13812      5F424F54 
 13812      544F4D00 
 13813              	.LASF414:
 13814 1009 706F696E 		.ascii	"pointer\000"
 13814      74657200 
 13815              	.LASF473:
 13816 1011 4C565F4F 		.ascii	"LV_OBJ_FLAG_FLOATING\000"
 13816      424A5F46 
 13816      4C41475F 
 13816      464C4F41 
 13816      54494E47 
 13817              	.LASF658:
 13818 1026 6C765F6F 		.ascii	"lv_obj_clear_state\000"
 13818      626A5F63 
 13818      6C656172 
 13818      5F737461 
 13818      746500
 13819              	.LASF463:
 13820 1039 4C565F4F 		.ascii	"LV_OBJ_FLAG_SCROLL_CHAIN_VER\000"
 13820      424A5F46 
 13820      4C41475F 
 13820      5343524F 
 13820      4C4C5F43 
 13821              	.LASF330:
 13822 1056 636C6561 		.ascii	"clear_cb\000"
 13822      725F6362 
 13822      00
 13823              	.LASF100:
 13824 105f 4C565F53 		.ascii	"LV_STYLE_BG_OPA\000"
 13824      54594C45 
 13824      5F42475F 
 13824      4F504100 
 13825              	.LASF135:
 13826 106f 4C565F53 		.ascii	"LV_STYLE_LINE_OPA\000"
 13826      54594C45 
 13826      5F4C494E 
 13826      455F4F50 
 13826      4100
 13827              	.LASF178:
 13828 1081 6C765F73 		.ascii	"lv_style_t\000"
 13828      74796C65 
 13828      5F7400
 13829              	.LASF474:
 13830 108c 4C565F4F 		.ascii	"LV_OBJ_FLAG_OVERFLOW_VISIBLE\000"
 13830      424A5F46 
 13830      4C41475F 
 13830      4F564552 
 13830      464C4F57 
 13831              	.LASF662:
 13832 10a9 6C765F6F 		.ascii	"lv_obj_set_pos\000"
 13832      626A5F73 
 13832      65745F70 
 13832      6F7300
 13833              	.LASF185:
 13834 10b8 7374796C 		.ascii	"styles\000"
 13834      657300
 13835              	.LASF382:
ARM GAS  C:\Users\haske\AppData\Local\Temp\ccOQHbDo.s 			page 291


 13836 10bf 636F6E74 		.ascii	"continue_reading\000"
 13836      696E7565 
 13836      5F726561 
 13836      64696E67 
 13836      00
 13837              	.LASF575:
 13838 10d0 6368696C 		.ascii	"child_cnt\000"
 13838      645F636E 
 13838      7400
 13839              	.LASF127:
 13840 10da 4C565F53 		.ascii	"LV_STYLE_IMG_OPA\000"
 13840      54594C45 
 13840      5F494D47 
 13840      5F4F5041 
 13840      00
 13841              	.LASF160:
 13842 10eb 4C565F53 		.ascii	"LV_STYLE_TRANSFORM_ZOOM\000"
 13842      54594C45 
 13842      5F545241 
 13842      4E53464F 
 13842      524D5F5A 
 13843              	.LASF527:
 13844 1103 4C565F45 		.ascii	"LV_EVENT_LEAVE\000"
 13844      56454E54 
 13844      5F4C4541 
 13844      564500
 13845              	.LASF654:
 13846 1112 6C765F74 		.ascii	"lv_tick_elaps\000"
 13846      69636B5F 
 13846      656C6170 
 13846      7300
 13847              	.LASF11:
 13848 1120 6C6F6E67 		.ascii	"long unsigned int\000"
 13848      20756E73 
 13848      69676E65 
 13848      6420696E 
 13848      7400
 13849              	.LASF591:
 13850 1132 6C765F6F 		.ascii	"lv_obj_get_style_transform_angle\000"
 13850      626A5F67 
 13850      65745F73 
 13850      74796C65 
 13850      5F747261 
 13851              	.LASF557:
 13852 1153 4C565F45 		.ascii	"LV_EVENT_PREPROCESS\000"
 13852      56454E54 
 13852      5F505245 
 13852      50524F43 
 13852      45535300 
 13853              	.LASF312:
 13854 1167 4C565F44 		.ascii	"LV_DISP_ROT_180\000"
 13854      4953505F 
 13854      524F545F 
 13854      31383000 
 13855              	.LASF179:
 13856 1177 6C765F69 		.ascii	"lv_img_cf_t\000"
 13856      6D675F63 
ARM GAS  C:\Users\haske\AppData\Local\Temp\ccOQHbDo.s 			page 292


 13856      665F7400 
 13857              	.LASF460:
 13858 1183 4C565F4F 		.ascii	"LV_OBJ_FLAG_SCROLL_MOMENTUM\000"
 13858      424A5F46 
 13858      4C41475F 
 13858      5343524F 
 13858      4C4C5F4D 
 13859              	.LASF142:
 13860 119f 4C565F53 		.ascii	"LV_STYLE_TEXT_OPA\000"
 13860      54594C45 
 13860      5F544558 
 13860      545F4F50 
 13860      4100
 13861              	.LASF249:
 13862 11b1 73746172 		.ascii	"start_angle\000"
 13862      745F616E 
 13862      676C6500 
 13863              	.LASF505:
 13864 11bd 70617261 		.ascii	"param\000"
 13864      6D00
 13865              	.LASF502:
 13866 11c3 74617267 		.ascii	"target\000"
 13866      657400
 13867              	.LASF352:
 13868 11ca 64726177 		.ascii	"draw_prev_over_act\000"
 13868      5F707265 
 13868      765F6F76 
 13868      65725F61 
 13868      637400
 13869              	.LASF284:
 13870 11dd 6C617965 		.ascii	"layer_destroy\000"
 13870      725F6465 
 13870      7374726F 
 13870      7900
 13871              	.LASF618:
 13872 11eb 6C765F69 		.ascii	"lv_indev_get_key\000"
 13872      6E646576 
 13872      5F676574 
 13872      5F6B6579 
 13872      00
 13873              	.LASF243:
 13874 11fc 64617368 		.ascii	"dash_width\000"
 13874      5F776964 
 13874      746800
 13875              	.LASF308:
 13876 1207 6C617374 		.ascii	"last_part\000"
 13876      5F706172 
 13876      7400
 13877              	.LASF624:
 13878 1211 6C765F69 		.ascii	"lv_indev_get_obj_act\000"
 13878      6E646576 
 13878      5F676574 
 13878      5F6F626A 
 13878      5F616374 
 13879              	.LASF498:
 13880 1226 65646974 		.ascii	"editable\000"
 13880      61626C65 
ARM GAS  C:\Users\haske\AppData\Local\Temp\ccOQHbDo.s 			page 293


 13880      00
 13881              	.LASF344:
 13882 122f 7468656D 		.ascii	"theme\000"
 13882      6500
 13883              	.LASF319:
 13884 1235 6F666673 		.ascii	"offset_x\000"
 13884      65745F78 
 13884      00
 13885              	.LASF320:
 13886 123e 6F666673 		.ascii	"offset_y\000"
 13886      65745F79 
 13886      00
 13887              	.LASF600:
 13888 1247 696E6465 		.ascii	"indev_keypad_proc\000"
 13888      765F6B65 
 13888      79706164 
 13888      5F70726F 
 13888      6300
 13889              	.LASF35:
 13890 1259 7265736F 		.ascii	"resolved_font\000"
 13890      6C766564 
 13890      5F666F6E 
 13890      7400
 13891              	.LASF457:
 13892 1267 4C565F4F 		.ascii	"LV_OBJ_FLAG_CHECKABLE\000"
 13892      424A5F46 
 13892      4C41475F 
 13892      43484543 
 13892      4B41424C 
 13893              	.LASF666:
 13894 127d 6C765F6F 		.ascii	"lv_obj_transform_point\000"
 13894      626A5F74 
 13894      72616E73 
 13894      666F726D 
 13894      5F706F69 
 13895              	.LASF593:
 13896 1294 696E6465 		.ascii	"indev_proc_reset_query_handler\000"
 13896      765F7072 
 13896      6F635F72 
 13896      65736574 
 13896      5F717565 
 13897              	.LASF430:
 13898 12b3 6F626A5F 		.ascii	"obj_ll\000"
 13898      6C6C00
 13899              	.LASF271:
 13900 12ba 64726177 		.ascii	"draw_arc\000"
 13900      5F617263 
 13900      00
 13901              	.LASF134:
 13902 12c3 4C565F53 		.ascii	"LV_STYLE_LINE_COLOR\000"
 13902      54594C45 
 13902      5F4C494E 
 13902      455F434F 
 13902      4C4F5200 
 13903              	.LASF675:
 13904 12d7 474E5520 		.ascii	"GNU C11 5.4.1 20160609 (release) [ARM/embedded-5-br"
 13904      43313120 
ARM GAS  C:\Users\haske\AppData\Local\Temp\ccOQHbDo.s 			page 294


 13904      352E342E 
 13904      31203230 
 13904      31363036 
 13905 130a 616E6368 		.ascii	"anch revision 237715] -mcpu=cortex-m4 -mfloat-abi=s"
 13905      20726576 
 13905      6973696F 
 13905      6E203233 
 13905      37373135 
 13906 133d 6F667466 		.ascii	"oftfp -mfpu=fpv4-sp-d16 -mthumb -g -Og -ffunction-s"
 13906      70202D6D 
 13906      6670753D 
 13906      66707634 
 13906      2D73702D 
 13907 1370 65637469 		.ascii	"ections -ffat-lto-objects\000"
 13907      6F6E7320 
 13907      2D666661 
 13907      742D6C74 
 13907      6F2D6F62 
 13908              	.LASF454:
 13909 138a 4C565F4F 		.ascii	"LV_OBJ_FLAG_HIDDEN\000"
 13909      424A5F46 
 13909      4C41475F 
 13909      48494444 
 13909      454E00
 13910              	.LASF95:
 13911 139d 4C565F53 		.ascii	"LV_STYLE_PAD_ROW\000"
 13911      54594C45 
 13911      5F504144 
 13911      5F524F57 
 13911      00
 13912              	.LASF300:
 13913 13ae 5F6C765F 		.ascii	"_lv_disp_draw_buf_t\000"
 13913      64697370 
 13913      5F647261 
 13913      775F6275 
 13913      665F7400 
 13914              	.LASF259:
 13915 13c2 6275665F 		.ascii	"buf_area\000"
 13915      61726561 
 13915      00
 13916              	.LASF595:
 13917 13cb 675F6163 		.ascii	"g_act\000"
 13917      7400
 13918              	.LASF237:
 13919 13d1 7265636F 		.ascii	"recolor\000"
 13919      6C6F7200 
 13920              	.LASF541:
 13921 13d9 4C565F45 		.ascii	"LV_EVENT_REFRESH\000"
 13921      56454E54 
 13921      5F524546 
 13921      52455348 
 13921      00
 13922              	.LASF500:
 13923 13ea 696E7374 		.ascii	"instance_size\000"
 13923      616E6365 
 13923      5F73697A 
 13923      6500
ARM GAS  C:\Users\haske\AppData\Local\Temp\ccOQHbDo.s 			page 295


 13924              	.LASF234:
 13925 13f8 616E676C 		.ascii	"angle\000"
 13925      6500
 13926              	.LASF93:
 13927 13fe 4C565F53 		.ascii	"LV_STYLE_PAD_LEFT\000"
 13927      54594C45 
 13927      5F504144 
 13927      5F4C4546 
 13927      5400
 13928              	.LASF338:
 13929 1410 64726177 		.ascii	"draw_ctx_init\000"
 13929      5F637478 
 13929      5F696E69 
 13929      7400
 13930              	.LASF676:
 13931 141e 2E2E5C2E 		.ascii	"..\\..\\..\\arduinoLCD\\test\\Pain Drain\\libraries"
 13931      2E5C2E2E 
 13931      5C617264 
 13931      75696E6F 
 13931      4C43445C 
 13932 144b 5C6C7667 		.ascii	"\\lvgl\\src\\core\\lv_indev.c\000"
 13932      6C5C7372 
 13932      635C636F 
 13932      72655C6C 
 13932      765F696E 
 13933              	.LASF427:
 13934 1465 67726F75 		.ascii	"group\000"
 13934      7000
 13935              	.LASF530:
 13936 146b 4C565F45 		.ascii	"LV_EVENT_REFR_EXT_DRAW_SIZE\000"
 13936      56454E54 
 13936      5F524546 
 13936      525F4558 
 13936      545F4452 
 13937              	.LASF377:
 13938 1487 4C565F49 		.ascii	"LV_INDEV_STATE_PRESSED\000"
 13938      4E444556 
 13938      5F535441 
 13938      54455F50 
 13938      52455353 
 13939              	.LASF272:
 13940 149e 64726177 		.ascii	"draw_img_decoded\000"
 13940      5F696D67 
 13940      5F646563 
 13940      6F646564 
 13940      00
 13941              	.LASF292:
 13942 14af 6C765F74 		.ascii	"lv_timer_cb_t\000"
 13942      696D6572 
 13942      5F63625F 
 13942      7400
 13943              	.LASF151:
 13944 14bd 4C565F53 		.ascii	"LV_STYLE_ANIM\000"
 13944      54594C45 
 13944      5F414E49 
 13944      4D00
 13945              	.LASF86:
ARM GAS  C:\Users\haske\AppData\Local\Temp\ccOQHbDo.s 			page 296


 13946 14cb 4C565F53 		.ascii	"LV_STYLE_X\000"
 13946      54594C45 
 13946      5F5800
 13947              	.LASF404:
 13948 14d6 6C617374 		.ascii	"last_obj\000"
 13948      5F6F626A 
 13948      00
 13949              	.LASF467:
 13950 14df 4C565F4F 		.ascii	"LV_OBJ_FLAG_SNAPPABLE\000"
 13950      424A5F46 
 13950      4C41475F 
 13950      534E4150 
 13950      5041424C 
 13951              	.LASF375:
 13952 14f5 6C765F69 		.ascii	"lv_indev_type_t\000"
 13952      6E646576 
 13952      5F747970 
 13952      655F7400 
 13953              	.LASF668:
 13954 1505 5F6C765F 		.ascii	"_lv_area_is_point_on\000"
 13954      61726561 
 13954      5F69735F 
 13954      706F696E 
 13954      745F6F6E 
 13955              	.LASF147:
 13956 151a 4C565F53 		.ascii	"LV_STYLE_TEXT_ALIGN\000"
 13956      54594C45 
 13956      5F544558 
 13956      545F414C 
 13956      49474E00 
 13957              	.LASF373:
 13958 152e 4C565F49 		.ascii	"LV_INDEV_TYPE_BUTTON\000"
 13958      4E444556 
 13958      5F545950 
 13958      455F4255 
 13958      54544F4E 
 13959              	.LASF633:
 13960 1543 696E6465 		.ascii	"indev_pointer_proc\000"
 13960      765F706F 
 13960      696E7465 
 13960      725F7072 
 13960      6F6300
 13961              	.LASF180:
 13962 1556 5F6C765F 		.ascii	"_lv_font_t\000"
 13962      666F6E74 
 13962      5F7400
 13963              	.LASF332:
 13964 1561 77616974 		.ascii	"wait_cb\000"
 13964      5F636200 
 13965              	.LASF10:
 13966 1569 5F5F7569 		.ascii	"__uint32_t\000"
 13966      6E743332 
 13966      5F7400
 13967              	.LASF495:
 13968 1574 6576656E 		.ascii	"event_cb\000"
 13968      745F6362 
 13968      00
ARM GAS  C:\Users\haske\AppData\Local\Temp\ccOQHbDo.s 			page 297


 13969              	.LASF558:
 13970 157d 6C765F65 		.ascii	"lv_event_code_t\000"
 13970      76656E74 
 13970      5F636F64 
 13970      655F7400 
 13971              	.LASF67:
 13972 158d 6C765F74 		.ascii	"lv_text_decor_t\000"
 13972      6578745F 
 13972      6465636F 
 13972      725F7400 
 13973              	.LASF501:
 13974 159d 5F6C765F 		.ascii	"_lv_event_t\000"
 13974      6576656E 
 13974      745F7400 
 13975              	.LASF12:
 13976 15a9 6C6F6E67 		.ascii	"long long int\000"
 13976      206C6F6E 
 13976      6720696E 
 13976      7400
 13977              	.LASF215:
 13978 15b7 73686164 		.ascii	"shadow_color\000"
 13978      6F775F63 
 13978      6F6C6F72 
 13978      00
 13979              	.LASF664:
 13980 15c4 6C765F6F 		.ascii	"lv_obj_add_flag\000"
 13980      626A5F61 
 13980      64645F66 
 13980      6C616700 
 13981              	.LASF507:
 13982 15d4 64656C65 		.ascii	"deleted\000"
 13982      74656400 
 13983              	.LASF631:
 13984 15dc 696E6465 		.ascii	"indev_proc_press\000"
 13984      765F7072 
 13984      6F635F70 
 13984      72657373 
 13984      00
 13985              	.LASF242:
 13986 15ed 77696474 		.ascii	"width\000"
 13986      6800
 13987              	.LASF522:
 13988 15f3 4C565F45 		.ascii	"LV_EVENT_SCROLL\000"
 13988      56454E54 
 13988      5F534352 
 13988      4F4C4C00 
 13989              	.LASF655:
 13990 1603 6C765F6F 		.ascii	"lv_obj_is_editable\000"
 13990      626A5F69 
 13990      735F6564 
 13990      69746162 
 13990      6C6500
 13991              	.LASF606:
 13992 1616 656E6162 		.ascii	"enable\000"
 13992      6C6500
 13993              	.LASF470:
 13994 161d 4C565F4F 		.ascii	"LV_OBJ_FLAG_GESTURE_BUBBLE\000"
ARM GAS  C:\Users\haske\AppData\Local\Temp\ccOQHbDo.s 			page 298


 13994      424A5F46 
 13994      4C41475F 
 13994      47455354 
 13994      5552455F 
 13995              	.LASF612:
 13996 1638 6C765F69 		.ascii	"lv_indev_set_group\000"
 13996      6E646576 
 13996      5F736574 
 13996      5F67726F 
 13996      757000
 13997              	.LASF301:
 13998 164b 62756631 		.ascii	"buf1\000"
 13998      00
 13999              	.LASF302:
 14000 1650 62756632 		.ascii	"buf2\000"
 14000      00
 14001              	.LASF629:
 14002 1655 6869745F 		.ascii	"hit_test_ok\000"
 14002      74657374 
 14002      5F6F6B00 
 14003              	.LASF161:
 14004 1661 4C565F53 		.ascii	"LV_STYLE_TRANSFORM_ANGLE\000"
 14004      54594C45 
 14004      5F545241 
 14004      4E53464F 
 14004      524D5F41 
 14005              	.LASF397:
 14006 167a 6C617374 		.ascii	"last_point\000"
 14006      5F706F69 
 14006      6E7400
 14007              	.LASF566:
 14008 1685 4C565F4B 		.ascii	"LV_KEY_ENTER\000"
 14008      45595F45 
 14008      4E544552 
 14008      00
 14009              	.LASF403:
 14010 1692 6163745F 		.ascii	"act_obj\000"
 14010      6F626A00 
 14011              	.LASF254:
 14012 169a 4C565F44 		.ascii	"LV_DRAW_LAYER_FLAG_NONE\000"
 14012      5241575F 
 14012      4C415945 
 14012      525F464C 
 14012      41475F4E 
 14013              	.LASF149:
 14014 16b2 4C565F53 		.ascii	"LV_STYLE_COLOR_FILTER_DSC\000"
 14014      54594C45 
 14014      5F434F4C 
 14014      4F525F46 
 14014      494C5445 
 14015              	.LASF64:
 14016 16cc 6C765F74 		.ascii	"lv_text_align_t\000"
 14016      6578745F 
 14016      616C6967 
 14016      6E5F7400 
 14017              	.LASF459:
 14018 16dc 4C565F4F 		.ascii	"LV_OBJ_FLAG_SCROLL_ELASTIC\000"
ARM GAS  C:\Users\haske\AppData\Local\Temp\ccOQHbDo.s 			page 299


 14018      424A5F46 
 14018      4C41475F 
 14018      5343524F 
 14018      4C4C5F45 
 14019              	.LASF48:
 14020 16f7 756E6465 		.ascii	"underline_thickness\000"
 14020      726C696E 
 14020      655F7468 
 14020      69636B6E 
 14020      65737300 
 14021              	.LASF146:
 14022 170b 4C565F53 		.ascii	"LV_STYLE_TEXT_DECOR\000"
 14022      54594C45 
 14022      5F544558 
 14022      545F4445 
 14022      434F5200 
 14023              	.LASF520:
 14024 171f 4C565F45 		.ascii	"LV_EVENT_SCROLL_BEGIN\000"
 14024      56454E54 
 14024      5F534352 
 14024      4F4C4C5F 
 14024      42454749 
 14025              	.LASF230:
 14026 1735 616C6967 		.ascii	"align\000"
 14026      6E00
 14027              	.LASF137:
 14028 173b 4C565F53 		.ascii	"LV_STYLE_ARC_ROUNDED\000"
 14028      54594C45 
 14028      5F415243 
 14028      5F524F55 
 14028      4E444544 
 14029              	.LASF455:
 14030 1750 4C565F4F 		.ascii	"LV_OBJ_FLAG_CLICKABLE\000"
 14030      424A5F46 
 14030      4C41475F 
 14030      434C4943 
 14030      4B41424C 
 14031              	.LASF331:
 14032 1766 6D6F6E69 		.ascii	"monitor_cb\000"
 14032      746F725F 
 14032      636200
 14033              	.LASF191:
 14034 1771 736B6970 		.ascii	"skip_trans\000"
 14034      5F747261 
 14034      6E7300
 14035              	.LASF679:
 14036 177c 696E6465 		.ascii	"indev_reset_check\000"
 14036      765F7265 
 14036      7365745F 
 14036      63686563 
 14036      6B00
 14037              	.LASF608:
 14038 178e 6C765F69 		.ascii	"lv_indev_reset\000"
 14038      6E646576 
 14038      5F726573 
 14038      657400
 14039              	.LASF580:
ARM GAS  C:\Users\haske\AppData\Local\Temp\ccOQHbDo.s 			page 300


 14040 179d 6578745F 		.ascii	"ext_draw_size\000"
 14040      64726177 
 14040      5F73697A 
 14040      6500
 14041              	.LASF435:
 14042 17ab 65646974 		.ascii	"editing\000"
 14042      696E6700 
 14043              	.LASF141:
 14044 17b3 4C565F53 		.ascii	"LV_STYLE_TEXT_COLOR\000"
 14044      54594C45 
 14044      5F544558 
 14044      545F434F 
 14044      4C4F5200 
 14045              	.LASF544:
 14046 17c7 4C565F45 		.ascii	"LV_EVENT_DELETE\000"
 14046      56454E54 
 14046      5F44454C 
 14046      45544500 
 14047              	.LASF182:
 14048 17d7 636C6173 		.ascii	"class_p\000"
 14048      735F7000 
 14049              	.LASF534:
 14050 17df 4C565F45 		.ascii	"LV_EVENT_DRAW_POST_BEGIN\000"
 14050      56454E54 
 14050      5F445241 
 14050      575F504F 
 14050      53545F42 
 14051              	.LASF14:
 14052 17f8 756E7369 		.ascii	"unsigned int\000"
 14052      676E6564 
 14052      20696E74 
 14052      00
 14053              	.LASF396:
 14054 1805 696E6465 		.ascii	"indev_point\000"
 14054      765F706F 
 14054      696E7400 
 14055              	.LASF363:
 14056 1811 64697370 		.ascii	"disp\000"
 14056      00
 14057              	.LASF298:
 14058 1816 70617573 		.ascii	"paused\000"
 14058      656400
 14059              	.LASF258:
 14060 181d 636C6970 		.ascii	"clip_area\000"
 14060      5F617265 
 14060      6100
 14061              	.LASF78:
 14062 1827 6C765F73 		.ascii	"lv_style_value_t\000"
 14062      74796C65 
 14062      5F76616C 
 14062      75655F74 
 14062      00
 14063              	.LASF400:
 14064 1838 7363726F 		.ascii	"scroll_sum\000"
 14064      6C6C5F73 
 14064      756D00
 14065              	.LASF381:
ARM GAS  C:\Users\haske\AppData\Local\Temp\ccOQHbDo.s 			page 301


 14066 1843 656E635F 		.ascii	"enc_diff\000"
 14066      64696666 
 14066      00
 14067              	.LASF663:
 14068 184c 6C765F6F 		.ascii	"lv_obj_clear_flag\000"
 14068      626A5F63 
 14068      6C656172 
 14068      5F666C61 
 14068      6700
 14069              	.LASF224:
 14070 185e 73656C5F 		.ascii	"sel_end\000"
 14070      656E6400 
 14071              	.LASF167:
 14072 1866 5F4C565F 		.ascii	"_LV_STYLE_PROP_CONST\000"
 14072      5354594C 
 14072      455F5052 
 14072      4F505F43 
 14072      4F4E5354 
 14073              	.LASF262:
 14074 187b 61726561 		.ascii	"area_full\000"
 14074      5F66756C 
 14074      6C00
 14075              	.LASF231:
 14076 1885 666C6167 		.ascii	"flag\000"
 14076      00
 14077              	.LASF341:
 14078 188a 5F6C765F 		.ascii	"_lv_disp_t\000"
 14078      64697370 
 14078      5F7400
 14079              	.LASF539:
 14080 1895 4C565F45 		.ascii	"LV_EVENT_VALUE_CHANGED\000"
 14080      56454E54 
 14080      5F56414C 
 14080      55455F43 
 14080      48414E47 
 14081              	.LASF313:
 14082 18ac 4C565F44 		.ascii	"LV_DISP_ROT_270\000"
 14082      4953505F 
 14082      524F545F 
 14082      32373000 
 14083              	.LASF261:
 14084 18bc 5F6C765F 		.ascii	"_lv_draw_layer_ctx_t\000"
 14084      64726177 
 14084      5F6C6179 
 14084      65725F63 
 14084      74785F74 
 14085              	.LASF214:
 14086 18d1 6F75746C 		.ascii	"outline_opa\000"
 14086      696E655F 
 14086      6F706100 
 14087              	.LASF637:
 14088 18dd 696E6465 		.ascii	"indev_act\000"
 14088      765F6163 
 14088      7400
 14089              	.LASF356:
 14090 18e7 696E765F 		.ascii	"inv_areas\000"
 14090      61726561 
ARM GAS  C:\Users\haske\AppData\Local\Temp\ccOQHbDo.s 			page 302


 14090      7300
 14091              	.LASF264:
 14092 18f1 6D61785F 		.ascii	"max_row_with_alpha\000"
 14092      726F775F 
 14092      77697468 
 14092      5F616C70 
 14092      686100
 14093              	.LASF423:
 14094 1904 6C6F6E67 		.ascii	"longpr_rep_timestamp\000"
 14094      70725F72 
 14094      65705F74 
 14094      696D6573 
 14094      74616D70 
 14095              	.LASF465:
 14096 1919 4C565F4F 		.ascii	"LV_OBJ_FLAG_SCROLL_ON_FOCUS\000"
 14096      424A5F46 
 14096      4C41475F 
 14096      5343524F 
 14096      4C4C5F4F 
 14097              	.LASF239:
 14098 1935 6672616D 		.ascii	"frame_id\000"
 14098      655F6964 
 14098      00
 14099              	.LASF238:
 14100 193e 7265636F 		.ascii	"recolor_opa\000"
 14100      6C6F725F 
 14100      6F706100 
 14101              	.LASF354:
 14102 194a 72656E64 		.ascii	"rendering_in_progress\000"
 14102      6572696E 
 14102      675F696E 
 14102      5F70726F 
 14102      67726573 
 14103              	.LASF89:
 14104 1960 4C565F53 		.ascii	"LV_STYLE_LAYOUT\000"
 14104      54594C45 
 14104      5F4C4159 
 14104      4F555400 
 14105              	.LASF51:
 14106 1970 6C765F66 		.ascii	"lv_font_glyph_dsc_t\000"
 14106      6F6E745F 
 14106      676C7970 
 14106      685F6473 
 14106      635F7400 
 14107              	.LASF622:
 14108 1984 6C765F69 		.ascii	"lv_indev_wait_release\000"
 14108      6E646576 
 14108      5F776169 
 14108      745F7265 
 14108      6C656173 
 14109              	.LASF634:
 14110 199a 696E6465 		.ascii	"indev_button_proc\000"
 14110      765F6275 
 14110      74746F6E 
 14110      5F70726F 
 14110      6300
 14111              	.LASF549:
ARM GAS  C:\Users\haske\AppData\Local\Temp\ccOQHbDo.s 			page 303


 14112 19ac 4C565F45 		.ascii	"LV_EVENT_SCREEN_LOAD_START\000"
 14112      56454E54 
 14112      5F534352 
 14112      45454E5F 
 14112      4C4F4144 
 14113              	.LASF509:
 14114 19c7 73746F70 		.ascii	"stop_bubbling\000"
 14114      5F627562 
 14114      626C696E 
 14114      6700
 14115              	.LASF212:
 14116 19d5 6F75746C 		.ascii	"outline_width\000"
 14116      696E655F 
 14116      77696474 
 14116      6800
 14117              	.LASF121:
 14118 19e3 4C565F53 		.ascii	"LV_STYLE_SHADOW_WIDTH\000"
 14118      54594C45 
 14118      5F534841 
 14118      444F575F 
 14118      57494454 
 14119              	.LASF513:
 14120 19f9 4C565F45 		.ascii	"LV_EVENT_PRESSING\000"
 14120      56454E54 
 14120      5F505245 
 14120      5353494E 
 14120      4700
 14121              	.LASF472:
 14122 1a0b 4C565F4F 		.ascii	"LV_OBJ_FLAG_IGNORE_LAYOUT\000"
 14122      424A5F46 
 14122      4C41475F 
 14122      49474E4F 
 14122      52455F4C 
 14123              	.LASF643:
 14124 1a25 6C765F6F 		.ascii	"lv_obj_get_parent\000"
 14124      626A5F67 
 14124      65745F70 
 14124      6172656E 
 14124      7400
 14125              	.LASF98:
 14126 1a37 4C565F53 		.ascii	"LV_STYLE_CLIP_CORNER\000"
 14126      54594C45 
 14126      5F434C49 
 14126      505F434F 
 14126      524E4552 
 14127              	.LASF611:
 14128 1a4c 6375725F 		.ascii	"cur_obj\000"
 14128      6F626A00 
 14129              	.LASF240:
 14130 1a54 616E7469 		.ascii	"antialias\000"
 14130      616C6961 
 14130      7300
 14131              	.LASF492:
 14132 1a5e 62617365 		.ascii	"base_class\000"
 14132      5F636C61 
 14132      737300
 14133              	.LASF646:
ARM GAS  C:\Users\haske\AppData\Local\Temp\ccOQHbDo.s 			page 304


 14134 1a69 5F6C765F 		.ascii	"_lv_indev_scroll_throw_handler\000"
 14134      696E6465 
 14134      765F7363 
 14134      726F6C6C 
 14134      5F746872 
 14135              	.LASF515:
 14136 1a88 4C565F45 		.ascii	"LV_EVENT_SHORT_CLICKED\000"
 14136      56454E54 
 14136      5F53484F 
 14136      52545F43 
 14136      4C49434B 
 14137              	.LASF659:
 14138 1a9f 6C765F69 		.ascii	"lv_indev_get_next\000"
 14138      6E646576 
 14138      5F676574 
 14138      5F6E6578 
 14138      7400
 14139              	.LASF517:
 14140 1ab1 4C565F45 		.ascii	"LV_EVENT_LONG_PRESSED_REPEAT\000"
 14140      56454E54 
 14140      5F4C4F4E 
 14140      475F5052 
 14140      45535345 
 14141              	.LASF432:
 14142 1ace 666F6375 		.ascii	"focus_cb\000"
 14142      735F6362 
 14142      00
 14143              	.LASF388:
 14144 1ad7 72656164 		.ascii	"read_timer\000"
 14144      5F74696D 
 14144      657200
 14145              	.LASF445:
 14146 1ae2 4C565F53 		.ascii	"LV_STATE_PRESSED\000"
 14146      54415445 
 14146      5F505245 
 14146      53534544 
 14146      00
 14147              	.LASF54:
 14148 1af3 6C765F72 		.ascii	"lv_res_t\000"
 14148      65735F74 
 14148      00
 14149              	.LASF368:
 14150 1afc 666F6E74 		.ascii	"font_large\000"
 14150      5F6C6172 
 14150      676500
 14151              	.LASF150:
 14152 1b07 4C565F53 		.ascii	"LV_STYLE_COLOR_FILTER_OPA\000"
 14152      54594C45 
 14152      5F434F4C 
 14152      4F525F46 
 14152      494C5445 
 14153              	.LASF628:
 14154 1b21 705F7472 		.ascii	"p_trans\000"
 14154      616E7300 
 14155              	.LASF303:
 14156 1b29 6275665F 		.ascii	"buf_act\000"
 14156      61637400 
ARM GAS  C:\Users\haske\AppData\Local\Temp\ccOQHbDo.s 			page 305


 14157              	.LASF596:
 14158 1b31 675F7072 		.ascii	"g_prev\000"
 14158      657600
 14159              	.LASF22:
 14160 1b38 6C6F6E67 		.ascii	"long double\000"
 14160      20646F75 
 14160      626C6500 
 14161              	.LASF486:
 14162 1b44 7374796C 		.ascii	"style\000"
 14162      6500
 14163              	.LASF70:
 14164 1b4a 6C765F64 		.ascii	"lv_dither_mode_t\000"
 14164      69746865 
 14164      725F6D6F 
 14164      64655F74 
 14164      00
 14165              	.LASF485:
 14166 1b5b 6C765F73 		.ascii	"lv_scroll_snap_t\000"
 14166      63726F6C 
 14166      6C5F736E 
 14166      61705F74 
 14166      00
 14167              	.LASF371:
 14168 1b6c 4C565F49 		.ascii	"LV_INDEV_TYPE_POINTER\000"
 14168      4E444556 
 14168      5F545950 
 14168      455F504F 
 14168      494E5445 
 14169              	.LASF422:
 14170 1b82 70725F74 		.ascii	"pr_timestamp\000"
 14170      696D6573 
 14170      74616D70 
 14170      00
 14171              	.LASF504:
 14172 1b8f 636F6465 		.ascii	"code\000"
 14172      00
 14173              	.LASF46:
 14174 1b94 73756270 		.ascii	"subpx\000"
 14174      7800
 14175              	.LASF639:
 14176 1b9a 6C765F6F 		.ascii	"lv_obj_has_flag\000"
 14176      626A5F68 
 14176      61735F66 
 14176      6C616700 
 14177              	.LASF279:
 14178 1baa 77616974 		.ascii	"wait_for_finish\000"
 14178      5F666F72 
 14178      5F66696E 
 14178      69736800 
 14179              	.LASF28:
 14180 1bba 4C565F44 		.ascii	"LV_DIR_RIGHT\000"
 14180      49525F52 
 14180      49474854 
 14180      00
 14181              	.LASF204:
 14182 1bc7 62675F69 		.ascii	"bg_img_recolor_opa\000"
 14182      6D675F72 
ARM GAS  C:\Users\haske\AppData\Local\Temp\ccOQHbDo.s 			page 306


 14182      65636F6C 
 14182      6F725F6F 
 14182      706100
 14183              	.LASF570:
 14184 1bda 4C565F4B 		.ascii	"LV_KEY_END\000"
 14184      45595F45 
 14184      4E4400
 14185              	.LASF256:
 14186 1be5 4C565F44 		.ascii	"LV_DRAW_LAYER_FLAG_CAN_SUBDIVIDE\000"
 14186      5241575F 
 14186      4C415945 
 14186      525F464C 
 14186      41475F43 
 14187              	.LASF387:
 14188 1c06 66656564 		.ascii	"feedback_cb\000"
 14188      6261636B 
 14188      5F636200 
 14189              	.LASF296:
 14190 1c12 74696D65 		.ascii	"timer_cb\000"
 14190      725F6362 
 14190      00
 14191              	.LASF390:
 14192 1c1b 7363726F 		.ascii	"scroll_throw\000"
 14192      6C6C5F74 
 14192      68726F77 
 14192      00
 14193              	.LASF512:
 14194 1c28 4C565F45 		.ascii	"LV_EVENT_PRESSED\000"
 14194      56454E54 
 14194      5F505245 
 14194      53534544 
 14194      00
 14195              	.LASF543:
 14196 1c39 4C565F45 		.ascii	"LV_EVENT_CANCEL\000"
 14196      56454E54 
 14196      5F43414E 
 14196      43454C00 
 14197              	.LASF112:
 14198 1c49 4C565F53 		.ascii	"LV_STYLE_BORDER_COLOR\000"
 14198      54594C45 
 14198      5F424F52 
 14198      4445525F 
 14198      434F4C4F 
 14199              	.LASF335:
 14200 1c5f 72656E64 		.ascii	"render_start_cb\000"
 14200      65725F73 
 14200      74617274 
 14200      5F636200 
 14201              	.LASF334:
 14202 1c6f 6472765F 		.ascii	"drv_update_cb\000"
 14202      75706461 
 14202      74655F63 
 14202      6200
 14203              	.LASF670:
 14204 1c7d 6C765F64 		.ascii	"lv_disp_get_scr_act\000"
 14204      6973705F 
 14204      6765745F 
ARM GAS  C:\Users\haske\AppData\Local\Temp\ccOQHbDo.s 			page 307


 14204      7363725F 
 14204      61637400 
 14205              	.LASF621:
 14206 1c91 6C765F69 		.ascii	"lv_indev_get_vect\000"
 14206      6E646576 
 14206      5F676574 
 14206      5F766563 
 14206      7400
 14207              	.LASF401:
 14208 1ca3 7363726F 		.ascii	"scroll_throw_vect\000"
 14208      6C6C5F74 
 14208      68726F77 
 14208      5F766563 
 14208      7400
 14209              	.LASF0:
 14210 1cb5 5F5F696E 		.ascii	"__int8_t\000"
 14210      74385F74 
 14210      00
 14211              	.LASF416:
 14212 1cbe 5F6C765F 		.ascii	"_lv_indev_proc_t\000"
 14212      696E6465 
 14212      765F7072 
 14212      6F635F74 
 14212      00
 14213              	.LASF105:
 14214 1ccf 4C565F53 		.ascii	"LV_STYLE_BG_GRAD\000"
 14214      54594C45 
 14214      5F42475F 
 14214      47524144 
 14214      00
 14215              	.LASF317:
 14216 1ce0 70687973 		.ascii	"physical_hor_res\000"
 14216      6963616C 
 14216      5F686F72 
 14216      5F726573 
 14216      00
 14217              	.LASF304:
 14218 1cf1 73697A65 		.ascii	"size\000"
 14218      00
 14219              	.LASF265:
 14220 1cf6 6D61785F 		.ascii	"max_row_with_no_alpha\000"
 14220      726F775F 
 14220      77697468 
 14220      5F6E6F5F 
 14220      616C7068 
 14221              	.LASF393:
 14222 1d0c 6C6F6E67 		.ascii	"long_press_time\000"
 14222      5F707265 
 14222      73735F74 
 14222      696D6500 
 14223              	.LASF13:
 14224 1d1c 6C6F6E67 		.ascii	"long long unsigned int\000"
 14224      206C6F6E 
 14224      6720756E 
 14224      7369676E 
 14224      65642069 
 14225              	.LASF350:
ARM GAS  C:\Users\haske\AppData\Local\Temp\ccOQHbDo.s 			page 308


 14226 1d33 7379735F 		.ascii	"sys_layer\000"
 14226      6C617965 
 14226      7200
 14227              	.LASF104:
 14228 1d3d 4C565F53 		.ascii	"LV_STYLE_BG_GRAD_STOP\000"
 14228      54594C45 
 14228      5F42475F 
 14228      47524144 
 14228      5F53544F 
 14229              	.LASF115:
 14230 1d53 4C565F53 		.ascii	"LV_STYLE_BORDER_SIDE\000"
 14230      54594C45 
 14230      5F424F52 
 14230      4445525F 
 14230      53494445 
 14231              	.LASF571:
 14232 1d68 6C765F67 		.ascii	"lv_group_focus_cb_t\000"
 14232      726F7570 
 14232      5F666F63 
 14232      75735F63 
 14232      625F7400 
 14233              	.LASF491:
 14234 1d7c 5F6C765F 		.ascii	"_lv_obj_class_t\000"
 14234      6F626A5F 
 14234      636C6173 
 14234      735F7400 
 14235              	.LASF221:
 14236 1d8c 6C765F64 		.ascii	"lv_draw_rect_dsc_t\000"
 14236      7261775F 
 14236      72656374 
 14236      5F647363 
 14236      5F7400
 14237              	.LASF456:
 14238 1d9f 4C565F4F 		.ascii	"LV_OBJ_FLAG_CLICK_FOCUSABLE\000"
 14238      424A5F46 
 14238      4C41475F 
 14238      434C4943 
 14238      4B5F464F 
 14239              	.LASF18:
 14240 1dbb 75696E74 		.ascii	"uint16_t\000"
 14240      31365F74 
 14240      00
 14241              	.LASF644:
 14242 1dc4 6C765F6F 		.ascii	"lv_obj_get_style_prop\000"
 14242      626A5F67 
 14242      65745F73 
 14242      74796C65 
 14242      5F70726F 
 14243              	.LASF295:
 14244 1dda 6C617374 		.ascii	"last_run\000"
 14244      5F72756E 
 14244      00
 14245              	.LASF437:
 14246 1de3 77726170 		.ascii	"wrap\000"
 14246      00
 14247              	.LASF61:
 14248 1de8 6C765F63 		.ascii	"lv_color_t\000"
ARM GAS  C:\Users\haske\AppData\Local\Temp\ccOQHbDo.s 			page 309


 14248      6F6C6F72 
 14248      5F7400
 14249              	.LASF597:
 14250 1df3 696E6465 		.ascii	"indev_gesture\000"
 14250      765F6765 
 14250      73747572 
 14250      6500
 14251              	.LASF274:
 14252 1e01 64726177 		.ascii	"draw_letter\000"
 14252      5F6C6574 
 14252      74657200 
 14253              	.LASF599:
 14254 1e0d 696E6465 		.ascii	"indev_proc_release\000"
 14254      765F7072 
 14254      6F635F72 
 14254      656C6561 
 14254      736500
 14255              	.LASF418:
 14256 1e20 72657365 		.ascii	"reset_query\000"
 14256      745F7175 
 14256      65727900 
 14257              	.LASF667:
 14258 1e2c 6C765F6F 		.ascii	"lv_obj_hit_test\000"
 14258      626A5F68 
 14258      69745F74 
 14258      65737400 
 14259              	.LASF80:
 14260 1e3c 4C565F53 		.ascii	"LV_STYLE_WIDTH\000"
 14260      54594C45 
 14260      5F574944 
 14260      544800
 14261              	.LASF207:
 14262 1e4b 626F7264 		.ascii	"border_width\000"
 14262      65725F77 
 14262      69647468 
 14262      00
 14263              	.LASF81:
 14264 1e58 4C565F53 		.ascii	"LV_STYLE_MIN_WIDTH\000"
 14264      54594C45 
 14264      5F4D494E 
 14264      5F574944 
 14264      544800
 14265              	.LASF669:
 14266 1e6b 6C765F64 		.ascii	"lv_disp_get_layer_top\000"
 14266      6973705F 
 14266      6765745F 
 14266      6C617965 
 14266      725F746F 
 14267              	.LASF63:
 14268 1e81 6C765F74 		.ascii	"lv_text_flag_t\000"
 14268      6578745F 
 14268      666C6167 
 14268      5F7400
 14269              	.LASF402:
 14270 1e90 7363726F 		.ascii	"scroll_throw_vect_ori\000"
 14270      6C6C5F74 
 14270      68726F77 
ARM GAS  C:\Users\haske\AppData\Local\Temp\ccOQHbDo.s 			page 310


 14270      5F766563 
 14270      745F6F72 
 14271              	.LASF122:
 14272 1ea6 4C565F53 		.ascii	"LV_STYLE_SHADOW_OFS_X\000"
 14272      54594C45 
 14272      5F534841 
 14272      444F575F 
 14272      4F46535F 
 14273              	.LASF123:
 14274 1ebc 4C565F53 		.ascii	"LV_STYLE_SHADOW_OFS_Y\000"
 14274      54594C45 
 14274      5F534841 
 14274      444F575F 
 14274      4F46535F 
 14275              	.LASF372:
 14276 1ed2 4C565F49 		.ascii	"LV_INDEV_TYPE_KEYPAD\000"
 14276      4E444556 
 14276      5F545950 
 14276      455F4B45 
 14276      59504144 
 14277              	.LASF107:
 14278 1ee7 4C565F53 		.ascii	"LV_STYLE_BG_IMG_SRC\000"
 14278      54594C45 
 14278      5F42475F 
 14278      494D475F 
 14278      53524300 
 14279              	.LASF560:
 14280 1efb 4C565F4B 		.ascii	"LV_KEY_DOWN\000"
 14280      45595F44 
 14280      4F574E00 
 14281              	.LASF563:
 14282 1f07 4C565F4B 		.ascii	"LV_KEY_ESC\000"
 14282      45595F45 
 14282      534300
 14283              	.LASF236:
 14284 1f12 7069766F 		.ascii	"pivot\000"
 14284      7400
 14285              	.LASF140:
 14286 1f18 4C565F53 		.ascii	"LV_STYLE_ARC_IMG_SRC\000"
 14286      54594C45 
 14286      5F415243 
 14286      5F494D47 
 14286      5F535243 
 14287              	.LASF172:
 14288 1f2d 76616C75 		.ascii	"value1\000"
 14288      653100
 14289              	.LASF603:
 14290 1f34 70726576 		.ascii	"prev_state\000"
 14290      5F737461 
 14290      746500
 14291              	.LASF321:
 14292 1f3f 64726177 		.ascii	"draw_buf\000"
 14292      5F627566 
 14292      00
 14293              	.LASF294:
 14294 1f48 70657269 		.ascii	"period\000"
 14294      6F6400
ARM GAS  C:\Users\haske\AppData\Local\Temp\ccOQHbDo.s 			page 311


 14295              	.LASF328:
 14296 1f4f 726F756E 		.ascii	"rounder_cb\000"
 14296      6465725F 
 14296      636200
 14297              	.LASF232:
 14298 1f5a 6465636F 		.ascii	"decor\000"
 14298      7200
 14299              	.LASF4:
 14300 1f60 5F5F696E 		.ascii	"__int16_t\000"
 14300      7431365F 
 14300      7400
 14301              	.LASF282:
 14302 1f6a 6C617965 		.ascii	"layer_adjust\000"
 14302      725F6164 
 14302      6A757374 
 14302      00
 14303              	.LASF143:
 14304 1f77 4C565F53 		.ascii	"LV_STYLE_TEXT_FONT\000"
 14304      54594C45 
 14304      5F544558 
 14304      545F464F 
 14304      4E5400
 14305              	.LASF665:
 14306 1f8a 6C765F6F 		.ascii	"lv_obj_get_child_cnt\000"
 14306      626A5F67 
 14306      65745F63 
 14306      68696C64 
 14306      5F636E74 
 14307              	.LASF551:
 14308 1f9f 4C565F45 		.ascii	"LV_EVENT_SCREEN_UNLOADED\000"
 14308      56454E54 
 14308      5F534352 
 14308      45454E5F 
 14308      554E4C4F 
 14309              	.LASF598:
 14310 1fb8 67657374 		.ascii	"gesture_obj\000"
 14310      7572655F 
 14310      6F626A00 
 14311              	.LASF166:
 14312 1fc4 4C565F53 		.ascii	"LV_STYLE_PROP_ANY\000"
 14312      54594C45 
 14312      5F50524F 
 14312      505F414E 
 14312      5900
 14313              	.LASF59:
 14314 1fd6 66756C6C 		.ascii	"full\000"
 14314      00
 14315              	.LASF267:
 14316 1fdb 6C765F64 		.ascii	"lv_draw_layer_ctx_t\000"
 14316      7261775F 
 14316      6C617965 
 14316      725F6374 
 14316      785F7400 
 14317              	.LASF71:
 14318 1fef 636F6C6F 		.ascii	"color\000"
 14318      7200
 14319              	.LASF641:
ARM GAS  C:\Users\haske\AppData\Local\Temp\ccOQHbDo.s 			page 312


 14320 1ff5 6C765F67 		.ascii	"lv_group_focus_obj\000"
 14320      726F7570 
 14320      5F666F63 
 14320      75735F6F 
 14320      626A00
 14321              	.LASF74:
 14322 2008 73746F70 		.ascii	"stops\000"
 14322      7300
 14323              	.LASF413:
 14324 200e 6C617374 		.ascii	"last_key\000"
 14324      5F6B6579 
 14324      00
 14325              	.LASF227:
 14326 2017 6C696E65 		.ascii	"line_space\000"
 14326      5F737061 
 14326      636500
 14327              	.LASF424:
 14328 2022 5F6C765F 		.ascii	"_lv_indev_t\000"
 14328      696E6465 
 14328      765F7400 
 14329              	.LASF410:
 14330 202e 67657374 		.ascii	"gesture_dir\000"
 14330      7572655F 
 14330      64697200 
 14331              	.LASF283:
 14332 203a 6C617965 		.ascii	"layer_blend\000"
 14332      725F626C 
 14332      656E6400 
 14333              	.LASF411:
 14334 2046 67657374 		.ascii	"gesture_sent\000"
 14334      7572655F 
 14334      73656E74 
 14334      00
 14335              	.LASF602:
 14336 2053 70726576 		.ascii	"prev_key\000"
 14336      5F6B6579 
 14336      00
 14337              	.LASF494:
 14338 205c 64657374 		.ascii	"destructor_cb\000"
 14338      72756374 
 14338      6F725F63 
 14338      6200
 14339              	.LASF68:
 14340 206a 6C765F62 		.ascii	"lv_border_side_t\000"
 14340      6F726465 
 14340      725F7369 
 14340      64655F74 
 14340      00
 14341              	.LASF72:
 14342 207b 66726163 		.ascii	"frac\000"
 14342      00
 14343              	.LASF181:
 14344 2080 5F6C765F 		.ascii	"_lv_obj_t\000"
 14344      6F626A5F 
 14344      7400
 14345              	.LASF222:
 14346 208a 666F6E74 		.ascii	"font\000"
ARM GAS  C:\Users\haske\AppData\Local\Temp\ccOQHbDo.s 			page 313


 14346      00
 14347              	.LASF228:
 14348 208f 6C657474 		.ascii	"letter_space\000"
 14348      65725F73 
 14348      70616365 
 14348      00
 14349              	.LASF389:
 14350 209c 7363726F 		.ascii	"scroll_limit\000"
 14350      6C6C5F6C 
 14350      696D6974 
 14350      00
 14351              	.LASF85:
 14352 20a9 4C565F53 		.ascii	"LV_STYLE_MAX_HEIGHT\000"
 14352      54594C45 
 14352      5F4D4158 
 14352      5F484549 
 14352      47485400 
 14353              	.LASF342:
 14354 20bd 64726976 		.ascii	"driver\000"
 14354      657200
 14355              	.LASF361:
 14356 20c4 5F6C765F 		.ascii	"_lv_theme_t\000"
 14356      7468656D 
 14356      655F7400 
 14357              	.LASF253:
 14358 20d0 6C765F64 		.ascii	"lv_draw_arc_dsc_t\000"
 14358      7261775F 
 14358      6172635F 
 14358      6473635F 
 14358      7400
 14359              	.LASF567:
 14360 20e2 4C565F4B 		.ascii	"LV_KEY_NEXT\000"
 14360      45595F4E 
 14360      45585400 
 14361              	.LASF101:
 14362 20ee 4C565F53 		.ascii	"LV_STYLE_BG_GRAD_COLOR\000"
 14362      54594C45 
 14362      5F42475F 
 14362      47524144 
 14362      5F434F4C 
 14363              	.LASF347:
 14364 2105 70726576 		.ascii	"prev_scr\000"
 14364      5F736372 
 14364      00
 14365              	.LASF38:
 14366 210e 626F785F 		.ascii	"box_h\000"
 14366      6800
 14367              	.LASF439:
 14368 2114 4C565F53 		.ascii	"LV_STATE_DEFAULT\000"
 14368      54415445 
 14368      5F444546 
 14368      41554C54 
 14368      00
 14369              	.LASF653:
 14370 2125 6C765F67 		.ascii	"lv_group_send_data\000"
 14370      726F7570 
 14370      5F73656E 
ARM GAS  C:\Users\haske\AppData\Local\Temp\ccOQHbDo.s 			page 314


 14370      645F6461 
 14370      746100
 14371              	.LASF568:
 14372 2138 4C565F4B 		.ascii	"LV_KEY_PREV\000"
 14372      45595F50 
 14372      52455600 
 14373              	.LASF202:
 14374 2144 62675F69 		.ascii	"bg_img_recolor\000"
 14374      6D675F72 
 14374      65636F6C 
 14374      6F7200
 14375              	.LASF60:
 14376 2153 6C765F63 		.ascii	"lv_color16_t\000"
 14376      6F6C6F72 
 14376      31365F74 
 14376      00
 14377              	.LASF37:
 14378 2160 626F785F 		.ascii	"box_w\000"
 14378      7700
 14379              	.LASF5:
 14380 2166 73686F72 		.ascii	"short int\000"
 14380      7420696E 
 14380      7400
 14381              	.LASF45:
 14382 2170 62617365 		.ascii	"base_line\000"
 14382      5F6C696E 
 14382      6500
 14383              	.LASF358:
 14384 217a 696E765F 		.ascii	"inv_p\000"
 14384      7000
 14385              	.LASF291:
 14386 2180 6C765F6C 		.ascii	"lv_ll_t\000"
 14386      6C5F7400 
 14387              	.LASF680:
 14388 2188 6C765F66 		.ascii	"lv_font_montserrat_14\000"
 14388      6F6E745F 
 14388      6D6F6E74 
 14388      73657272 
 14388      61745F31 
 14389              	.LASF395:
 14390 219e 6163745F 		.ascii	"act_point\000"
 14390      706F696E 
 14390      7400
 14391              	.LASF468:
 14392 21a8 4C565F4F 		.ascii	"LV_OBJ_FLAG_PRESS_LOCK\000"
 14392      424A5F46 
 14392      4C41475F 
 14392      50524553 
 14392      535F4C4F 
 14393              	.LASF536:
 14394 21bf 4C565F45 		.ascii	"LV_EVENT_DRAW_POST_END\000"
 14394      56454E54 
 14394      5F445241 
 14394      575F504F 
 14394      53545F45 
 14395              	.LASF537:
 14396 21d6 4C565F45 		.ascii	"LV_EVENT_DRAW_PART_BEGIN\000"
ARM GAS  C:\Users\haske\AppData\Local\Temp\ccOQHbDo.s 			page 315


 14396      56454E54 
 14396      5F445241 
 14396      575F5041 
 14396      52545F42 
 14397              	.LASF415:
 14398 21ef 6B657970 		.ascii	"keypad\000"
 14398      616400
 14399              	.LASF220:
 14400 21f6 73686164 		.ascii	"shadow_opa\000"
 14400      6F775F6F 
 14400      706100
 14401              	.LASF138:
 14402 2201 4C565F53 		.ascii	"LV_STYLE_ARC_COLOR\000"
 14402      54594C45 
 14402      5F415243 
 14402      5F434F4C 
 14402      4F5200
 14403              	.LASF503:
 14404 2214 63757272 		.ascii	"current_target\000"
 14404      656E745F 
 14404      74617267 
 14404      657400
 14405              	.LASF17:
 14406 2223 696E7431 		.ascii	"int16_t\000"
 14406      365F7400 
 14407              	.LASF31:
 14408 222b 4C565F44 		.ascii	"LV_DIR_HOR\000"
 14408      49525F48 
 14408      4F5200
 14409              	.LASF260:
 14410 2236 73637265 		.ascii	"screen_transp\000"
 14410      656E5F74 
 14410      72616E73 
 14410      7000
 14411              	.LASF186:
 14412 2244 636F6F72 		.ascii	"coords\000"
 14412      647300
 14413              	.LASF579:
 14414 224b 6578745F 		.ascii	"ext_click_pad\000"
 14414      636C6963 
 14414      6B5F7061 
 14414      6400
 14415              	.LASF440:
 14416 2259 4C565F53 		.ascii	"LV_STATE_CHECKED\000"
 14416      54415445 
 14416      5F434845 
 14416      434B4544 
 14416      00
 14417              	.LASF165:
 14418 226a 5F4C565F 		.ascii	"_LV_STYLE_NUM_BUILT_IN_PROPS\000"
 14418      5354594C 
 14418      455F4E55 
 14418      4D5F4255 
 14418      494C545F 
 14419              	.LASF657:
 14420 2287 6C765F67 		.ascii	"lv_group_get_obj_count\000"
 14420      726F7570 
ARM GAS  C:\Users\haske\AppData\Local\Temp\ccOQHbDo.s 			page 316


 14420      5F676574 
 14420      5F6F626A 
 14420      5F636F75 
 14421              	.LASF91:
 14422 229e 4C565F53 		.ascii	"LV_STYLE_PAD_TOP\000"
 14422      54594C45 
 14422      5F504144 
 14422      5F544F50 
 14422      00
 14423              	.LASF353:
 14424 22af 64656C5F 		.ascii	"del_prev\000"
 14424      70726576 
 14424      00
 14425              	.LASF556:
 14426 22b8 5F4C565F 		.ascii	"_LV_EVENT_LAST\000"
 14426      4556454E 
 14426      545F4C41 
 14426      535400
 14427              	.LASF355:
 14428 22c7 62675F69 		.ascii	"bg_img\000"
 14428      6D6700
 14429              	.LASF108:
 14430 22ce 4C565F53 		.ascii	"LV_STYLE_BG_IMG_OPA\000"
 14430      54594C45 
 14430      5F42475F 
 14430      494D475F 
 14430      4F504100 
 14431              	.LASF130:
 14432 22e2 4C565F53 		.ascii	"LV_STYLE_LINE_WIDTH\000"
 14432      54594C45 
 14432      5F4C494E 
 14432      455F5749 
 14432      44544800 
 14433              	.LASF526:
 14434 22f6 4C565F45 		.ascii	"LV_EVENT_DEFOCUSED\000"
 14434      56454E54 
 14434      5F444546 
 14434      4F435553 
 14434      454400
 14435              	.LASF677:
 14436 2309 433A5C50 		.ascii	"C:\\Projects\\PainDrain\\firmware\\PainDrain\\PainD"
 14436      726F6A65 
 14436      6374735C 
 14436      5061696E 
 14436      44726169 
 14437 2337 7261696E 		.ascii	"rain.cydsn\000"
 14437      2E637964 
 14437      736E00
 14438              	.LASF30:
 14439 2342 4C565F44 		.ascii	"LV_DIR_BOTTOM\000"
 14439      49525F42 
 14439      4F54544F 
 14439      4D00
 14440              	.LASF175:
 14441 2350 70726F70 		.ascii	"prop1\000"
 14441      3100
 14442              	.LASF329:
ARM GAS  C:\Users\haske\AppData\Local\Temp\ccOQHbDo.s 			page 317


 14443 2356 7365745F 		.ascii	"set_px_cb\000"
 14443      70785F63 
 14443      6200
 14444              	.LASF394:
 14445 2360 6C6F6E67 		.ascii	"long_press_repeat_time\000"
 14445      5F707265 
 14445      73735F72 
 14445      65706561 
 14445      745F7469 
 14446              	.LASF521:
 14447 2377 4C565F45 		.ascii	"LV_EVENT_SCROLL_END\000"
 14447      56454E54 
 14447      5F534352 
 14447      4F4C4C5F 
 14447      454E4400 
 14448              	.LASF208:
 14449 238b 626F7264 		.ascii	"border_opa\000"
 14449      65725F6F 
 14449      706100
 14450              	.LASF84:
 14451 2396 4C565F53 		.ascii	"LV_STYLE_MIN_HEIGHT\000"
 14451      54594C45 
 14451      5F4D494E 
 14451      5F484549 
 14451      47485400 
 14452              	.LASF448:
 14453 23aa 4C565F53 		.ascii	"LV_STATE_USER_1\000"
 14453      54415445 
 14453      5F555345 
 14453      525F3100 
 14454              	.LASF449:
 14455 23ba 4C565F53 		.ascii	"LV_STATE_USER_2\000"
 14455      54415445 
 14455      5F555345 
 14455      525F3200 
 14456              	.LASF450:
 14457 23ca 4C565F53 		.ascii	"LV_STATE_USER_3\000"
 14457      54415445 
 14457      5F555345 
 14457      525F3300 
 14458              	.LASF451:
 14459 23da 4C565F53 		.ascii	"LV_STATE_USER_4\000"
 14459      54415445 
 14459      5F555345 
 14459      525F3400 
 14460              	.LASF199:
 14461 23ea 62675F67 		.ascii	"bg_grad\000"
 14461      72616400 
 14462              	.LASF383:
 14463 23f2 6C765F69 		.ascii	"lv_indev_data_t\000"
 14463      6E646576 
 14463      5F646174 
 14463      615F7400 
 14464              	.LASF116:
 14465 2402 4C565F53 		.ascii	"LV_STYLE_BORDER_POST\000"
 14465      54594C45 
 14465      5F424F52 
ARM GAS  C:\Users\haske\AppData\Local\Temp\ccOQHbDo.s 			page 318


 14465      4445525F 
 14465      504F5354 
 14466              	.LASF337:
 14467 2417 64726177 		.ascii	"draw_ctx\000"
 14467      5F637478 
 14467      00
 14468              	.LASF635:
 14469 2420 6C765F69 		.ascii	"lv_indev_read_timer_cb\000"
 14469      6E646576 
 14469      5F726561 
 14469      645F7469 
 14469      6D65725F 
 14470              	.LASF273:
 14471 2437 64726177 		.ascii	"draw_img\000"
 14471      5F696D67 
 14471      00
 14472              	.LASF73:
 14473 2440 6C765F67 		.ascii	"lv_gradient_stop_t\000"
 14473      72616469 
 14473      656E745F 
 14473      73746F70 
 14473      5F7400
 14474              	.LASF87:
 14475 2453 4C565F53 		.ascii	"LV_STYLE_Y\000"
 14475      54594C45 
 14475      5F5900
 14476              	.LASF133:
 14477 245e 4C565F53 		.ascii	"LV_STYLE_LINE_ROUNDED\000"
 14477      54594C45 
 14477      5F4C494E 
 14477      455F524F 
 14477      554E4445 
 14478              	.LASF276:
 14479 2474 64726177 		.ascii	"draw_polygon\000"
 14479      5F706F6C 
 14479      79676F6E 
 14479      00
 14480              	.LASF553:
 14481 2481 4C565F45 		.ascii	"LV_EVENT_STYLE_CHANGED\000"
 14481      56454E54 
 14481      5F535459 
 14481      4C455F43 
 14481      48414E47 
 14482              	.LASF674:
 14483 2498 5F6C765F 		.ascii	"_lv_indev_read\000"
 14483      696E6465 
 14483      765F7265 
 14483      616400
 14484              	.LASF542:
 14485 24a7 4C565F45 		.ascii	"LV_EVENT_READY\000"
 14485      56454E54 
 14485      5F524541 
 14485      445900
 14486              	.LASF617:
 14487 24b6 6C765F69 		.ascii	"lv_indev_get_gesture_dir\000"
 14487      6E646576 
 14487      5F676574 
ARM GAS  C:\Users\haske\AppData\Local\Temp\ccOQHbDo.s 			page 319


 14487      5F676573 
 14487      74757265 
 14488              	.LASF223:
 14489 24cf 73656C5F 		.ascii	"sel_start\000"
 14489      73746172 
 14489      7400
 14490              	.LASF535:
 14491 24d9 4C565F45 		.ascii	"LV_EVENT_DRAW_POST\000"
 14491      56454E54 
 14491      5F445241 
 14491      575F504F 
 14491      535400
 14492              	.LASF20:
 14493 24ec 75696E74 		.ascii	"uint32_t\000"
 14493      33325F74 
 14493      00
 14494              	.LASF462:
 14495 24f5 4C565F4F 		.ascii	"LV_OBJ_FLAG_SCROLL_CHAIN_HOR\000"
 14495      424A5F46 
 14495      4C41475F 
 14495      5343524F 
 14495      4C4C5F43 
 14496              	.LASF362:
 14497 2512 6170706C 		.ascii	"apply_cb\000"
 14497      795F6362 
 14497      00
 14498              	.LASF632:
 14499 251b 6E65775F 		.ascii	"new_obj_searched\000"
 14499      6F626A5F 
 14499      73656172 
 14499      63686564 
 14499      00
 14500              	.LASF483:
 14501 252c 6C765F6F 		.ascii	"lv_obj_flag_t\000"
 14501      626A5F66 
 14501      6C61675F 
 14501      7400
 14502              	.LASF552:
 14503 253a 4C565F45 		.ascii	"LV_EVENT_SIZE_CHANGED\000"
 14503      56454E54 
 14503      5F53495A 
 14503      455F4348 
 14503      414E4745 
 14504              	.LASF216:
 14505 2550 73686164 		.ascii	"shadow_width\000"
 14505      6F775F77 
 14505      69647468 
 14505      00
 14506              	.LASF419:
 14507 255d 64697361 		.ascii	"disabled\000"
 14507      626C6564 
 14507      00
 14508              	.LASF58:
 14509 2566 67726565 		.ascii	"green\000"
 14509      6E00
 14510              	.LASF53:
 14511 256c 6C765F66 		.ascii	"lv_font_t\000"
ARM GAS  C:\Users\haske\AppData\Local\Temp\ccOQHbDo.s 			page 320


 14511      6F6E745F 
 14511      7400
 14512              	.LASF554:
 14513 2576 4C565F45 		.ascii	"LV_EVENT_LAYOUT_CHANGED\000"
 14513      56454E54 
 14513      5F4C4159 
 14513      4F55545F 
 14513      4348414E 
 14514              	.LASF481:
 14515 258e 4C565F4F 		.ascii	"LV_OBJ_FLAG_USER_3\000"
 14515      424A5F46 
 14515      4C41475F 
 14515      55534552 
 14515      5F3300
 14516              	.LASF391:
 14517 25a1 67657374 		.ascii	"gesture_min_velocity\000"
 14517      7572655F 
 14517      6D696E5F 
 14517      76656C6F 
 14517      63697479 
 14518              	.LASF76:
 14519 25b6 64697468 		.ascii	"dither\000"
 14519      657200
 14520              	.LASF7:
 14521 25bd 73686F72 		.ascii	"short unsigned int\000"
 14521      7420756E 
 14521      7369676E 
 14521      65642069 
 14521      6E7400
 14522              	.LASF524:
 14523 25d0 4C565F45 		.ascii	"LV_EVENT_KEY\000"
 14523      56454E54 
 14523      5F4B4559 
 14523      00
 14524              	.LASF23:
 14525 25dd 6C765F63 		.ascii	"lv_coord_t\000"
 14525      6F6F7264 
 14525      5F7400
 14526              	.LASF370:
 14527 25e8 4C565F49 		.ascii	"LV_INDEV_TYPE_NONE\000"
 14527      4E444556 
 14527      5F545950 
 14527      455F4E4F 
 14527      4E4500
 14528              	.LASF594:
 14529 25fb 696E6465 		.ascii	"indev_click_focus\000"
 14529      765F636C 
 14529      69636B5F 
 14529      666F6375 
 14529      7300
 14530              	.LASF327:
 14531 260d 666C7573 		.ascii	"flush_cb\000"
 14531      685F6362 
 14531      00
 14532              	.LASF118:
 14533 2616 4C565F53 		.ascii	"LV_STYLE_OUTLINE_COLOR\000"
 14533      54594C45 
ARM GAS  C:\Users\haske\AppData\Local\Temp\ccOQHbDo.s 			page 321


 14533      5F4F5554 
 14533      4C494E45 
 14533      5F434F4C 
 14534              	.LASF50:
 14535 262d 75736572 		.ascii	"user_data\000"
 14535      5F646174 
 14535      6100
 14536              	.LASF514:
 14537 2637 4C565F45 		.ascii	"LV_EVENT_PRESS_LOST\000"
 14537      56454E54 
 14537      5F505245 
 14537      53535F4C 
 14537      4F535400 
 14538              	.LASF678:
 14539 264b 5F6C765F 		.ascii	"_lv_event_dsc_t\000"
 14539      6576656E 
 14539      745F6473 
 14539      635F7400 
 14540              	.LASF124:
 14541 265b 4C565F53 		.ascii	"LV_STYLE_SHADOW_SPREAD\000"
 14541      54594C45 
 14541      5F534841 
 14541      444F575F 
 14541      53505245 
 14542              	.LASF367:
 14543 2672 666F6E74 		.ascii	"font_normal\000"
 14543      5F6E6F72 
 14543      6D616C00 
 14544              	.LASF607:
 14545 267e 6C765F69 		.ascii	"lv_indev_enable\000"
 14545      6E646576 
 14545      5F656E61 
 14545      626C6500 
 14546              	.LASF625:
 14547 268e 6C765F69 		.ascii	"lv_indev_get_read_timer\000"
 14547      6E646576 
 14547      5F676574 
 14547      5F726561 
 14547      645F7469 
 14548              	.LASF42:
 14549 26a6 6765745F 		.ascii	"get_glyph_dsc\000"
 14549      676C7970 
 14549      685F6473 
 14549      6300
 14550              	.LASF8:
 14551 26b4 5F5F696E 		.ascii	"__int32_t\000"
 14551      7433325F 
 14551      7400
 14552              	.LASF487:
 14553 26be 73656C65 		.ascii	"selector\000"
 14553      63746F72 
 14553      00
 14554              	.LASF525:
 14555 26c7 4C565F45 		.ascii	"LV_EVENT_FOCUSED\000"
 14555      56454E54 
 14555      5F464F43 
 14555      55534544 
ARM GAS  C:\Users\haske\AppData\Local\Temp\ccOQHbDo.s 			page 322


 14555      00
 14556              	.LASF69:
 14557 26d8 6C765F67 		.ascii	"lv_grad_dir_t\000"
 14557      7261645F 
 14557      6469725F 
 14557      7400
 14558              	.LASF398:
 14559 26e6 6C617374 		.ascii	"last_raw_point\000"
 14559      5F726177 
 14559      5F706F69 
 14559      6E7400
 14560              	.LASF436:
 14561 26f5 7265666F 		.ascii	"refocus_policy\000"
 14561      6375735F 
 14561      706F6C69 
 14561      637900
 14562              	.LASF314:
 14563 2704 5F6C765F 		.ascii	"_lv_disp_drv_t\000"
 14563      64697370 
 14563      5F647276 
 14563      5F7400
 14564              	.LASF417:
 14565 2713 6C6F6E67 		.ascii	"long_pr_sent\000"
 14565      5F70725F 
 14565      73656E74 
 14565      00
 14566              	.LASF648:
 14567 2720 6C765F6F 		.ascii	"lv_obj_has_state\000"
 14567      626A5F68 
 14567      61735F73 
 14567      74617465 
 14567      00
 14568              	.LASF441:
 14569 2731 4C565F53 		.ascii	"LV_STATE_FOCUSED\000"
 14569      54415445 
 14569      5F464F43 
 14569      55534544 
 14569      00
 14570              	.LASF497:
 14571 2742 68656967 		.ascii	"height_def\000"
 14571      68745F64 
 14571      656600
 14572              	.LASF616:
 14573 274d 6C765F69 		.ascii	"lv_indev_get_type\000"
 14573      6E646576 
 14573      5F676574 
 14573      5F747970 
 14573      6500
 14574              	.LASF548:
 14575 275f 4C565F45 		.ascii	"LV_EVENT_SCREEN_UNLOAD_START\000"
 14575      56454E54 
 14575      5F534352 
 14575      45454E5F 
 14575      554E4C4F 
 14576              	.LASF333:
 14577 277c 636C6561 		.ascii	"clean_dcache_cb\000"
 14577      6E5F6463 
ARM GAS  C:\Users\haske\AppData\Local\Temp\ccOQHbDo.s 			page 323


 14577      61636865 
 14577      5F636200 
 14578              	.LASF559:
 14579 278c 4C565F4B 		.ascii	"LV_KEY_UP\000"
 14579      45595F55 
 14579      5000
 14580              	.LASF392:
 14581 2796 67657374 		.ascii	"gesture_limit\000"
 14581      7572655F 
 14581      6C696D69 
 14581      7400
 14582              	.LASF225:
 14583 27a4 73656C5F 		.ascii	"sel_color\000"
 14583      636F6C6F 
 14583      7200
 14584              	.LASF651:
 14585 27ae 6C765F67 		.ascii	"lv_group_focus_next\000"
 14585      726F7570 
 14585      5F666F63 
 14585      75735F6E 
 14585      65787400 
 14586              	.LASF601:
 14587 27c2 64617461 		.ascii	"data\000"
 14587      00
 14588              	.LASF461:
 14589 27c7 4C565F4F 		.ascii	"LV_OBJ_FLAG_SCROLL_ONE\000"
 14589      424A5F46 
 14589      4C41475F 
 14589      5343524F 
 14589      4C4C5F4F 
 14590              	.LASF201:
 14591 27de 62675F69 		.ascii	"bg_img_symbol_font\000"
 14591      6D675F73 
 14591      796D626F 
 14591      6C5F666F 
 14591      6E7400
 14592              	.LASF218:
 14593 27f1 73686164 		.ascii	"shadow_ofs_y\000"
 14593      6F775F6F 
 14593      66735F79 
 14593      00
 14594              	.LASF652:
 14595 27fe 6C765F67 		.ascii	"lv_group_focus_prev\000"
 14595      726F7570 
 14595      5F666F63 
 14595      75735F70 
 14595      72657600 
 14596              	.LASF589:
 14597 2812 70617274 		.ascii	"part\000"
 14597      00
 14598              	.LASF506:
 14599 2817 70726576 		.ascii	"prev\000"
 14599      00
 14600              	.LASF77:
 14601 281c 6C765F67 		.ascii	"lv_grad_dsc_t\000"
 14601      7261645F 
 14601      6473635F 
ARM GAS  C:\Users\haske\AppData\Local\Temp\ccOQHbDo.s 			page 324


 14601      7400
 14602              	.LASF288:
 14603 282a 6E5F7369 		.ascii	"n_size\000"
 14603      7A6500
 14604              	.LASF426:
 14605 2831 63757273 		.ascii	"cursor\000"
 14605      6F7200
 14606              	.LASF429:
 14607 2838 5F6C765F 		.ascii	"_lv_group_t\000"
 14607      67726F75 
 14607      705F7400 
 14608              	.LASF27:
 14609 2844 4C565F44 		.ascii	"LV_DIR_LEFT\000"
 14609      49525F4C 
 14609      45465400 
 14610              	.LASF519:
 14611 2850 4C565F45 		.ascii	"LV_EVENT_RELEASED\000"
 14611      56454E54 
 14611      5F52454C 
 14611      45415345 
 14611      4400
 14612              	.LASF41:
 14613 2862 69735F70 		.ascii	"is_placeholder\000"
 14613      6C616365 
 14613      686F6C64 
 14613      657200
 14614              	.LASF120:
 14615 2871 4C565F53 		.ascii	"LV_STYLE_OUTLINE_PAD\000"
 14615      54594C45 
 14615      5F4F5554 
 14615      4C494E45 
 14615      5F504144 
 14616              	.LASF640:
 14617 2886 6C765F6F 		.ascii	"lv_obj_get_group\000"
 14617      626A5F67 
 14617      65745F67 
 14617      726F7570 
 14617      00
 14618              	.LASF399:
 14619 2897 76656374 		.ascii	"vect\000"
 14619      00
 14620              	.LASF431:
 14621 289c 6F626A5F 		.ascii	"obj_focus\000"
 14621      666F6375 
 14621      7300
 14622              	.LASF144:
 14623 28a6 4C565F53 		.ascii	"LV_STYLE_TEXT_LETTER_SPACE\000"
 14623      54594C45 
 14623      5F544558 
 14623      545F4C45 
 14623      54544552 
 14624              	.LASF587:
 14625 28c1 6C765F6F 		.ascii	"lv_obj_t\000"
 14625      626A5F74 
 14625      00
 14626              	.LASF584:
 14627 28ca 6576656E 		.ascii	"event_dsc_cnt\000"
ARM GAS  C:\Users\haske\AppData\Local\Temp\ccOQHbDo.s 			page 325


 14627      745F6473 
 14627      635F636E 
 14627      7400
 14628              		.ident	"GCC: (GNU Tools for ARM Embedded Processors) 5.4.1 20160609 (release) [ARM/embedded-5-bran
