ARM GAS  C:\Users\haske\AppData\Local\Temp\ccF9IbRI.s 			page 1


   1              		.syntax unified
   2              		.cpu cortex-m4
   3              		.eabi_attribute 27, 1
   4              		.fpu fpv4-sp-d16
   5              		.eabi_attribute 20, 1
   6              		.eabi_attribute 21, 1
   7              		.eabi_attribute 23, 3
   8              		.eabi_attribute 24, 1
   9              		.eabi_attribute 25, 1
  10              		.eabi_attribute 26, 1
  11              		.eabi_attribute 30, 1
  12              		.eabi_attribute 34, 1
  13              		.eabi_attribute 18, 4
  14              		.thumb
  15              		.syntax unified
  16              		.file	"lv_img_buf.c"
  17              		.text
  18              	.Ltext0:
  19              		.cfi_sections	.debug_frame
  20              		.section	.text.lv_img_buf_get_px_color,"ax",%progbits
  21              		.align	2
  22              		.global	lv_img_buf_get_px_color
  23              		.thumb
  24              		.thumb_func
  25              		.type	lv_img_buf_get_px_color, %function
  26              	lv_img_buf_get_px_color:
  27              	.LFB54:
  28              		.file 1 "..\\..\\..\\arduinoLCD\\test\\Pain Drain\\libraries\\lvgl\\src\\draw\\lv_img_buf.c"
   1:..\..\..\arduinoLCD\test\Pain Drain\libraries\lvgl\src\draw/lv_img_buf.c **** /**
   2:..\..\..\arduinoLCD\test\Pain Drain\libraries\lvgl\src\draw/lv_img_buf.c ****  * @file lv_img_buf.c
   3:..\..\..\arduinoLCD\test\Pain Drain\libraries\lvgl\src\draw/lv_img_buf.c ****  *
   4:..\..\..\arduinoLCD\test\Pain Drain\libraries\lvgl\src\draw/lv_img_buf.c ****  */
   5:..\..\..\arduinoLCD\test\Pain Drain\libraries\lvgl\src\draw/lv_img_buf.c **** 
   6:..\..\..\arduinoLCD\test\Pain Drain\libraries\lvgl\src\draw/lv_img_buf.c **** /*********************
   7:..\..\..\arduinoLCD\test\Pain Drain\libraries\lvgl\src\draw/lv_img_buf.c ****  *      INCLUDES
   8:..\..\..\arduinoLCD\test\Pain Drain\libraries\lvgl\src\draw/lv_img_buf.c ****  *********************/
   9:..\..\..\arduinoLCD\test\Pain Drain\libraries\lvgl\src\draw/lv_img_buf.c **** #include <stddef.h>
  10:..\..\..\arduinoLCD\test\Pain Drain\libraries\lvgl\src\draw/lv_img_buf.c **** #include <string.h>
  11:..\..\..\arduinoLCD\test\Pain Drain\libraries\lvgl\src\draw/lv_img_buf.c **** #include "lv_img_buf.h"
  12:..\..\..\arduinoLCD\test\Pain Drain\libraries\lvgl\src\draw/lv_img_buf.c **** #include "lv_draw_img.h"
  13:..\..\..\arduinoLCD\test\Pain Drain\libraries\lvgl\src\draw/lv_img_buf.c **** #include "../misc/lv_math.h"
  14:..\..\..\arduinoLCD\test\Pain Drain\libraries\lvgl\src\draw/lv_img_buf.c **** #include "../misc/lv_log.h"
  15:..\..\..\arduinoLCD\test\Pain Drain\libraries\lvgl\src\draw/lv_img_buf.c **** #include "../misc/lv_mem.h"
  16:..\..\..\arduinoLCD\test\Pain Drain\libraries\lvgl\src\draw/lv_img_buf.c **** 
  17:..\..\..\arduinoLCD\test\Pain Drain\libraries\lvgl\src\draw/lv_img_buf.c **** /*********************
  18:..\..\..\arduinoLCD\test\Pain Drain\libraries\lvgl\src\draw/lv_img_buf.c ****  *      DEFINES
  19:..\..\..\arduinoLCD\test\Pain Drain\libraries\lvgl\src\draw/lv_img_buf.c ****  *********************/
  20:..\..\..\arduinoLCD\test\Pain Drain\libraries\lvgl\src\draw/lv_img_buf.c **** 
  21:..\..\..\arduinoLCD\test\Pain Drain\libraries\lvgl\src\draw/lv_img_buf.c **** /**********************
  22:..\..\..\arduinoLCD\test\Pain Drain\libraries\lvgl\src\draw/lv_img_buf.c ****  *      TYPEDEFS
  23:..\..\..\arduinoLCD\test\Pain Drain\libraries\lvgl\src\draw/lv_img_buf.c ****  **********************/
  24:..\..\..\arduinoLCD\test\Pain Drain\libraries\lvgl\src\draw/lv_img_buf.c **** 
  25:..\..\..\arduinoLCD\test\Pain Drain\libraries\lvgl\src\draw/lv_img_buf.c **** /**********************
  26:..\..\..\arduinoLCD\test\Pain Drain\libraries\lvgl\src\draw/lv_img_buf.c ****  *  STATIC PROTOTYPES
  27:..\..\..\arduinoLCD\test\Pain Drain\libraries\lvgl\src\draw/lv_img_buf.c ****  **********************/
  28:..\..\..\arduinoLCD\test\Pain Drain\libraries\lvgl\src\draw/lv_img_buf.c **** 
  29:..\..\..\arduinoLCD\test\Pain Drain\libraries\lvgl\src\draw/lv_img_buf.c **** /**********************
ARM GAS  C:\Users\haske\AppData\Local\Temp\ccF9IbRI.s 			page 2


  30:..\..\..\arduinoLCD\test\Pain Drain\libraries\lvgl\src\draw/lv_img_buf.c ****  *  STATIC VARIABLES
  31:..\..\..\arduinoLCD\test\Pain Drain\libraries\lvgl\src\draw/lv_img_buf.c ****  **********************/
  32:..\..\..\arduinoLCD\test\Pain Drain\libraries\lvgl\src\draw/lv_img_buf.c **** 
  33:..\..\..\arduinoLCD\test\Pain Drain\libraries\lvgl\src\draw/lv_img_buf.c **** /**********************
  34:..\..\..\arduinoLCD\test\Pain Drain\libraries\lvgl\src\draw/lv_img_buf.c ****  *      MACROS
  35:..\..\..\arduinoLCD\test\Pain Drain\libraries\lvgl\src\draw/lv_img_buf.c ****  **********************/
  36:..\..\..\arduinoLCD\test\Pain Drain\libraries\lvgl\src\draw/lv_img_buf.c **** 
  37:..\..\..\arduinoLCD\test\Pain Drain\libraries\lvgl\src\draw/lv_img_buf.c **** /**********************
  38:..\..\..\arduinoLCD\test\Pain Drain\libraries\lvgl\src\draw/lv_img_buf.c ****  *   GLOBAL FUNCTIONS
  39:..\..\..\arduinoLCD\test\Pain Drain\libraries\lvgl\src\draw/lv_img_buf.c ****  **********************/
  40:..\..\..\arduinoLCD\test\Pain Drain\libraries\lvgl\src\draw/lv_img_buf.c **** 
  41:..\..\..\arduinoLCD\test\Pain Drain\libraries\lvgl\src\draw/lv_img_buf.c **** /**
  42:..\..\..\arduinoLCD\test\Pain Drain\libraries\lvgl\src\draw/lv_img_buf.c ****  * Get the color of an image's pixel
  43:..\..\..\arduinoLCD\test\Pain Drain\libraries\lvgl\src\draw/lv_img_buf.c ****  * @param dsc an image descriptor
  44:..\..\..\arduinoLCD\test\Pain Drain\libraries\lvgl\src\draw/lv_img_buf.c ****  * @param x x coordinate of the point to get
  45:..\..\..\arduinoLCD\test\Pain Drain\libraries\lvgl\src\draw/lv_img_buf.c ****  * @param y x coordinate of the point to get
  46:..\..\..\arduinoLCD\test\Pain Drain\libraries\lvgl\src\draw/lv_img_buf.c ****  * @param color the color of the image. In case of `LV_IMG_CF_ALPHA_1/2/4/8` this color is used.
  47:..\..\..\arduinoLCD\test\Pain Drain\libraries\lvgl\src\draw/lv_img_buf.c ****  * Not used in other cases.
  48:..\..\..\arduinoLCD\test\Pain Drain\libraries\lvgl\src\draw/lv_img_buf.c ****  * @param safe true: check out of bounds
  49:..\..\..\arduinoLCD\test\Pain Drain\libraries\lvgl\src\draw/lv_img_buf.c ****  * @return color of the point
  50:..\..\..\arduinoLCD\test\Pain Drain\libraries\lvgl\src\draw/lv_img_buf.c ****  */
  51:..\..\..\arduinoLCD\test\Pain Drain\libraries\lvgl\src\draw/lv_img_buf.c **** lv_color_t lv_img_buf_get_px_color(lv_img_dsc_t * dsc, lv_coord_t x, lv_coord_t y, lv_color_t color
  52:..\..\..\arduinoLCD\test\Pain Drain\libraries\lvgl\src\draw/lv_img_buf.c **** {
  29              		.loc 1 52 0
  30              		.cfi_startproc
  31              		@ args = 0, pretend = 0, frame = 8
  32              		@ frame_needed = 0, uses_anonymous_args = 0
  33              	.LVL0:
  34 0000 F0B5     		push	{r4, r5, r6, r7, lr}
  35              		.cfi_def_cfa_offset 20
  36              		.cfi_offset 4, -20
  37              		.cfi_offset 5, -16
  38              		.cfi_offset 6, -12
  39              		.cfi_offset 7, -8
  40              		.cfi_offset 14, -4
  41 0002 83B0     		sub	sp, sp, #12
  42              		.cfi_def_cfa_offset 32
  43              	.LVL1:
  44              	.LBB29:
  45              	.LBB30:
  46              	.LBB31:
  47              		.file 2 "..\\..\\..\\arduinoLCD\\test\\Pain Drain\\libraries\\lvgl\\src\\draw\\../misc/lv_color.h"
   1:..\..\..\arduinoLCD\test\Pain Drain\libraries\lvgl\src\draw\../misc/lv_color.h **** /**
   2:..\..\..\arduinoLCD\test\Pain Drain\libraries\lvgl\src\draw\../misc/lv_color.h ****  * @file lv_color.h
   3:..\..\..\arduinoLCD\test\Pain Drain\libraries\lvgl\src\draw\../misc/lv_color.h ****  *
   4:..\..\..\arduinoLCD\test\Pain Drain\libraries\lvgl\src\draw\../misc/lv_color.h ****  */
   5:..\..\..\arduinoLCD\test\Pain Drain\libraries\lvgl\src\draw\../misc/lv_color.h **** 
   6:..\..\..\arduinoLCD\test\Pain Drain\libraries\lvgl\src\draw\../misc/lv_color.h **** #ifndef LV_COLOR_H
   7:..\..\..\arduinoLCD\test\Pain Drain\libraries\lvgl\src\draw\../misc/lv_color.h **** #define LV_COLOR_H
   8:..\..\..\arduinoLCD\test\Pain Drain\libraries\lvgl\src\draw\../misc/lv_color.h **** 
   9:..\..\..\arduinoLCD\test\Pain Drain\libraries\lvgl\src\draw\../misc/lv_color.h **** #ifdef __cplusplus
  10:..\..\..\arduinoLCD\test\Pain Drain\libraries\lvgl\src\draw\../misc/lv_color.h **** extern "C" {
  11:..\..\..\arduinoLCD\test\Pain Drain\libraries\lvgl\src\draw\../misc/lv_color.h **** #endif
  12:..\..\..\arduinoLCD\test\Pain Drain\libraries\lvgl\src\draw\../misc/lv_color.h **** 
  13:..\..\..\arduinoLCD\test\Pain Drain\libraries\lvgl\src\draw\../misc/lv_color.h **** /*********************
  14:..\..\..\arduinoLCD\test\Pain Drain\libraries\lvgl\src\draw\../misc/lv_color.h ****  *      INCLUDES
  15:..\..\..\arduinoLCD\test\Pain Drain\libraries\lvgl\src\draw\../misc/lv_color.h ****  *********************/
ARM GAS  C:\Users\haske\AppData\Local\Temp\ccF9IbRI.s 			page 3


  16:..\..\..\arduinoLCD\test\Pain Drain\libraries\lvgl\src\draw\../misc/lv_color.h **** #include "../lv_conf_internal.h"
  17:..\..\..\arduinoLCD\test\Pain Drain\libraries\lvgl\src\draw\../misc/lv_color.h **** #include "lv_assert.h"
  18:..\..\..\arduinoLCD\test\Pain Drain\libraries\lvgl\src\draw\../misc/lv_color.h **** #include "lv_math.h"
  19:..\..\..\arduinoLCD\test\Pain Drain\libraries\lvgl\src\draw\../misc/lv_color.h **** #include "lv_types.h"
  20:..\..\..\arduinoLCD\test\Pain Drain\libraries\lvgl\src\draw\../misc/lv_color.h **** 
  21:..\..\..\arduinoLCD\test\Pain Drain\libraries\lvgl\src\draw\../misc/lv_color.h **** /*Error checking*/
  22:..\..\..\arduinoLCD\test\Pain Drain\libraries\lvgl\src\draw\../misc/lv_color.h **** #if LV_COLOR_DEPTH == 24
  23:..\..\..\arduinoLCD\test\Pain Drain\libraries\lvgl\src\draw\../misc/lv_color.h **** #error "LV_COLOR_DEPTH 24 is deprecated. Use LV_COLOR_DEPTH 32 instead (lv_conf.h)"
  24:..\..\..\arduinoLCD\test\Pain Drain\libraries\lvgl\src\draw\../misc/lv_color.h **** #endif
  25:..\..\..\arduinoLCD\test\Pain Drain\libraries\lvgl\src\draw\../misc/lv_color.h **** 
  26:..\..\..\arduinoLCD\test\Pain Drain\libraries\lvgl\src\draw\../misc/lv_color.h **** #if LV_COLOR_DEPTH != 16 && LV_COLOR_16_SWAP != 0
  27:..\..\..\arduinoLCD\test\Pain Drain\libraries\lvgl\src\draw\../misc/lv_color.h **** #error "LV_COLOR_16_SWAP requires LV_COLOR_DEPTH == 16. Set it in lv_conf.h"
  28:..\..\..\arduinoLCD\test\Pain Drain\libraries\lvgl\src\draw\../misc/lv_color.h **** #endif
  29:..\..\..\arduinoLCD\test\Pain Drain\libraries\lvgl\src\draw\../misc/lv_color.h **** 
  30:..\..\..\arduinoLCD\test\Pain Drain\libraries\lvgl\src\draw\../misc/lv_color.h **** #include <stdint.h>
  31:..\..\..\arduinoLCD\test\Pain Drain\libraries\lvgl\src\draw\../misc/lv_color.h **** 
  32:..\..\..\arduinoLCD\test\Pain Drain\libraries\lvgl\src\draw\../misc/lv_color.h **** /*********************
  33:..\..\..\arduinoLCD\test\Pain Drain\libraries\lvgl\src\draw\../misc/lv_color.h ****  *      DEFINES
  34:..\..\..\arduinoLCD\test\Pain Drain\libraries\lvgl\src\draw\../misc/lv_color.h ****  *********************/
  35:..\..\..\arduinoLCD\test\Pain Drain\libraries\lvgl\src\draw\../misc/lv_color.h **** LV_EXPORT_CONST_INT(LV_COLOR_DEPTH);
  36:..\..\..\arduinoLCD\test\Pain Drain\libraries\lvgl\src\draw\../misc/lv_color.h **** LV_EXPORT_CONST_INT(LV_COLOR_16_SWAP);
  37:..\..\..\arduinoLCD\test\Pain Drain\libraries\lvgl\src\draw\../misc/lv_color.h **** 
  38:..\..\..\arduinoLCD\test\Pain Drain\libraries\lvgl\src\draw\../misc/lv_color.h **** /**
  39:..\..\..\arduinoLCD\test\Pain Drain\libraries\lvgl\src\draw\../misc/lv_color.h ****  * Opacity percentages.
  40:..\..\..\arduinoLCD\test\Pain Drain\libraries\lvgl\src\draw\../misc/lv_color.h ****  */
  41:..\..\..\arduinoLCD\test\Pain Drain\libraries\lvgl\src\draw\../misc/lv_color.h **** enum {
  42:..\..\..\arduinoLCD\test\Pain Drain\libraries\lvgl\src\draw\../misc/lv_color.h ****     LV_OPA_TRANSP = 0,
  43:..\..\..\arduinoLCD\test\Pain Drain\libraries\lvgl\src\draw\../misc/lv_color.h ****     LV_OPA_0      = 0,
  44:..\..\..\arduinoLCD\test\Pain Drain\libraries\lvgl\src\draw\../misc/lv_color.h ****     LV_OPA_10     = 25,
  45:..\..\..\arduinoLCD\test\Pain Drain\libraries\lvgl\src\draw\../misc/lv_color.h ****     LV_OPA_20     = 51,
  46:..\..\..\arduinoLCD\test\Pain Drain\libraries\lvgl\src\draw\../misc/lv_color.h ****     LV_OPA_30     = 76,
  47:..\..\..\arduinoLCD\test\Pain Drain\libraries\lvgl\src\draw\../misc/lv_color.h ****     LV_OPA_40     = 102,
  48:..\..\..\arduinoLCD\test\Pain Drain\libraries\lvgl\src\draw\../misc/lv_color.h ****     LV_OPA_50     = 127,
  49:..\..\..\arduinoLCD\test\Pain Drain\libraries\lvgl\src\draw\../misc/lv_color.h ****     LV_OPA_60     = 153,
  50:..\..\..\arduinoLCD\test\Pain Drain\libraries\lvgl\src\draw\../misc/lv_color.h ****     LV_OPA_70     = 178,
  51:..\..\..\arduinoLCD\test\Pain Drain\libraries\lvgl\src\draw\../misc/lv_color.h ****     LV_OPA_80     = 204,
  52:..\..\..\arduinoLCD\test\Pain Drain\libraries\lvgl\src\draw\../misc/lv_color.h ****     LV_OPA_90     = 229,
  53:..\..\..\arduinoLCD\test\Pain Drain\libraries\lvgl\src\draw\../misc/lv_color.h ****     LV_OPA_100    = 255,
  54:..\..\..\arduinoLCD\test\Pain Drain\libraries\lvgl\src\draw\../misc/lv_color.h ****     LV_OPA_COVER  = 255,
  55:..\..\..\arduinoLCD\test\Pain Drain\libraries\lvgl\src\draw\../misc/lv_color.h **** };
  56:..\..\..\arduinoLCD\test\Pain Drain\libraries\lvgl\src\draw\../misc/lv_color.h **** 
  57:..\..\..\arduinoLCD\test\Pain Drain\libraries\lvgl\src\draw\../misc/lv_color.h **** #define LV_OPA_MIN 2    /*Opacities below this will be transparent*/
  58:..\..\..\arduinoLCD\test\Pain Drain\libraries\lvgl\src\draw\../misc/lv_color.h **** #define LV_OPA_MAX 253  /*Opacities above this will fully cover*/
  59:..\..\..\arduinoLCD\test\Pain Drain\libraries\lvgl\src\draw\../misc/lv_color.h **** 
  60:..\..\..\arduinoLCD\test\Pain Drain\libraries\lvgl\src\draw\../misc/lv_color.h **** #if LV_COLOR_DEPTH == 1
  61:..\..\..\arduinoLCD\test\Pain Drain\libraries\lvgl\src\draw\../misc/lv_color.h **** #define LV_COLOR_SIZE 8
  62:..\..\..\arduinoLCD\test\Pain Drain\libraries\lvgl\src\draw\../misc/lv_color.h **** #elif LV_COLOR_DEPTH == 8
  63:..\..\..\arduinoLCD\test\Pain Drain\libraries\lvgl\src\draw\../misc/lv_color.h **** #define LV_COLOR_SIZE 8
  64:..\..\..\arduinoLCD\test\Pain Drain\libraries\lvgl\src\draw\../misc/lv_color.h **** #elif LV_COLOR_DEPTH == 16
  65:..\..\..\arduinoLCD\test\Pain Drain\libraries\lvgl\src\draw\../misc/lv_color.h **** #define LV_COLOR_SIZE 16
  66:..\..\..\arduinoLCD\test\Pain Drain\libraries\lvgl\src\draw\../misc/lv_color.h **** #elif LV_COLOR_DEPTH == 32
  67:..\..\..\arduinoLCD\test\Pain Drain\libraries\lvgl\src\draw\../misc/lv_color.h **** #define LV_COLOR_SIZE 32
  68:..\..\..\arduinoLCD\test\Pain Drain\libraries\lvgl\src\draw\../misc/lv_color.h **** #else
  69:..\..\..\arduinoLCD\test\Pain Drain\libraries\lvgl\src\draw\../misc/lv_color.h **** #error "Invalid LV_COLOR_DEPTH in lv_conf.h! Set it to 1, 8, 16 or 32!"
  70:..\..\..\arduinoLCD\test\Pain Drain\libraries\lvgl\src\draw\../misc/lv_color.h **** #endif
  71:..\..\..\arduinoLCD\test\Pain Drain\libraries\lvgl\src\draw\../misc/lv_color.h **** 
  72:..\..\..\arduinoLCD\test\Pain Drain\libraries\lvgl\src\draw\../misc/lv_color.h **** #if defined(__cplusplus) && !defined(_LV_COLOR_HAS_MODERN_CPP)
ARM GAS  C:\Users\haske\AppData\Local\Temp\ccF9IbRI.s 			page 4


  73:..\..\..\arduinoLCD\test\Pain Drain\libraries\lvgl\src\draw\../misc/lv_color.h **** /**
  74:..\..\..\arduinoLCD\test\Pain Drain\libraries\lvgl\src\draw\../misc/lv_color.h **** * MSVC compiler's definition of the __cplusplus indicating 199711L regardless to C++ standard versi
  75:..\..\..\arduinoLCD\test\Pain Drain\libraries\lvgl\src\draw\../misc/lv_color.h **** * see https://devblogs.microsoft.com/cppblog/msvc-now-correctly-reports-cplusplus
  76:..\..\..\arduinoLCD\test\Pain Drain\libraries\lvgl\src\draw\../misc/lv_color.h **** * so we use _MSC_VER macro instead of __cplusplus
  77:..\..\..\arduinoLCD\test\Pain Drain\libraries\lvgl\src\draw\../misc/lv_color.h **** */
  78:..\..\..\arduinoLCD\test\Pain Drain\libraries\lvgl\src\draw\../misc/lv_color.h **** #ifdef _MSC_VER
  79:..\..\..\arduinoLCD\test\Pain Drain\libraries\lvgl\src\draw\../misc/lv_color.h **** #if _MSC_VER >= 1900 /*Visual Studio 2015*/
  80:..\..\..\arduinoLCD\test\Pain Drain\libraries\lvgl\src\draw\../misc/lv_color.h **** #define _LV_COLOR_HAS_MODERN_CPP 1
  81:..\..\..\arduinoLCD\test\Pain Drain\libraries\lvgl\src\draw\../misc/lv_color.h **** #endif
  82:..\..\..\arduinoLCD\test\Pain Drain\libraries\lvgl\src\draw\../misc/lv_color.h **** #else
  83:..\..\..\arduinoLCD\test\Pain Drain\libraries\lvgl\src\draw\../misc/lv_color.h **** #if __cplusplus >= 201103L
  84:..\..\..\arduinoLCD\test\Pain Drain\libraries\lvgl\src\draw\../misc/lv_color.h **** #define _LV_COLOR_HAS_MODERN_CPP 1
  85:..\..\..\arduinoLCD\test\Pain Drain\libraries\lvgl\src\draw\../misc/lv_color.h **** #endif
  86:..\..\..\arduinoLCD\test\Pain Drain\libraries\lvgl\src\draw\../misc/lv_color.h **** #endif
  87:..\..\..\arduinoLCD\test\Pain Drain\libraries\lvgl\src\draw\../misc/lv_color.h **** #endif /*__cplusplus*/
  88:..\..\..\arduinoLCD\test\Pain Drain\libraries\lvgl\src\draw\../misc/lv_color.h **** 
  89:..\..\..\arduinoLCD\test\Pain Drain\libraries\lvgl\src\draw\../misc/lv_color.h **** #ifndef _LV_COLOR_HAS_MODERN_CPP
  90:..\..\..\arduinoLCD\test\Pain Drain\libraries\lvgl\src\draw\../misc/lv_color.h **** #define _LV_COLOR_HAS_MODERN_CPP 0
  91:..\..\..\arduinoLCD\test\Pain Drain\libraries\lvgl\src\draw\../misc/lv_color.h **** #endif
  92:..\..\..\arduinoLCD\test\Pain Drain\libraries\lvgl\src\draw\../misc/lv_color.h **** 
  93:..\..\..\arduinoLCD\test\Pain Drain\libraries\lvgl\src\draw\../misc/lv_color.h **** #if _LV_COLOR_HAS_MODERN_CPP
  94:..\..\..\arduinoLCD\test\Pain Drain\libraries\lvgl\src\draw\../misc/lv_color.h **** /*Fix msvc compiler error C4576 inside C++ code*/
  95:..\..\..\arduinoLCD\test\Pain Drain\libraries\lvgl\src\draw\../misc/lv_color.h **** #define _LV_COLOR_MAKE_TYPE_HELPER lv_color_t
  96:..\..\..\arduinoLCD\test\Pain Drain\libraries\lvgl\src\draw\../misc/lv_color.h **** #else
  97:..\..\..\arduinoLCD\test\Pain Drain\libraries\lvgl\src\draw\../misc/lv_color.h **** #define _LV_COLOR_MAKE_TYPE_HELPER (lv_color_t)
  98:..\..\..\arduinoLCD\test\Pain Drain\libraries\lvgl\src\draw\../misc/lv_color.h **** #endif
  99:..\..\..\arduinoLCD\test\Pain Drain\libraries\lvgl\src\draw\../misc/lv_color.h **** 
 100:..\..\..\arduinoLCD\test\Pain Drain\libraries\lvgl\src\draw\../misc/lv_color.h **** /*---------------------------------------
 101:..\..\..\arduinoLCD\test\Pain Drain\libraries\lvgl\src\draw\../misc/lv_color.h ****  * Macros for all existing color depths
 102:..\..\..\arduinoLCD\test\Pain Drain\libraries\lvgl\src\draw\../misc/lv_color.h ****  * to set/get values of the color channels
 103:..\..\..\arduinoLCD\test\Pain Drain\libraries\lvgl\src\draw\../misc/lv_color.h ****  *------------------------------------------*/
 104:..\..\..\arduinoLCD\test\Pain Drain\libraries\lvgl\src\draw\../misc/lv_color.h **** # define LV_COLOR_SET_R1(c, v) (c).ch.red = (uint8_t)((v) & 0x1)
 105:..\..\..\arduinoLCD\test\Pain Drain\libraries\lvgl\src\draw\../misc/lv_color.h **** # define LV_COLOR_SET_G1(c, v) (c).ch.green = (uint8_t)((v) & 0x1)
 106:..\..\..\arduinoLCD\test\Pain Drain\libraries\lvgl\src\draw\../misc/lv_color.h **** # define LV_COLOR_SET_B1(c, v) (c).ch.blue = (uint8_t)((v) & 0x1)
 107:..\..\..\arduinoLCD\test\Pain Drain\libraries\lvgl\src\draw\../misc/lv_color.h **** # define LV_COLOR_SET_A1(c, v) do {} while(0)
 108:..\..\..\arduinoLCD\test\Pain Drain\libraries\lvgl\src\draw\../misc/lv_color.h **** 
 109:..\..\..\arduinoLCD\test\Pain Drain\libraries\lvgl\src\draw\../misc/lv_color.h **** # define LV_COLOR_GET_R1(c) (c).ch.red
 110:..\..\..\arduinoLCD\test\Pain Drain\libraries\lvgl\src\draw\../misc/lv_color.h **** # define LV_COLOR_GET_G1(c) (c).ch.green
 111:..\..\..\arduinoLCD\test\Pain Drain\libraries\lvgl\src\draw\../misc/lv_color.h **** # define LV_COLOR_GET_B1(c) (c).ch.blue
 112:..\..\..\arduinoLCD\test\Pain Drain\libraries\lvgl\src\draw\../misc/lv_color.h **** # define LV_COLOR_GET_A1(c) 0xFF
 113:..\..\..\arduinoLCD\test\Pain Drain\libraries\lvgl\src\draw\../misc/lv_color.h **** 
 114:..\..\..\arduinoLCD\test\Pain Drain\libraries\lvgl\src\draw\../misc/lv_color.h **** # define _LV_COLOR_ZERO_INITIALIZER1 {0x00}
 115:..\..\..\arduinoLCD\test\Pain Drain\libraries\lvgl\src\draw\../misc/lv_color.h **** # define LV_COLOR_MAKE1(r8, g8, b8)  {(uint8_t)((b8 >> 7) | (g8 >> 7) | (r8 >> 7))}
 116:..\..\..\arduinoLCD\test\Pain Drain\libraries\lvgl\src\draw\../misc/lv_color.h **** 
 117:..\..\..\arduinoLCD\test\Pain Drain\libraries\lvgl\src\draw\../misc/lv_color.h **** # define LV_COLOR_SET_R8(c, v) (c).ch.red = (uint8_t)((v) & 0x7U)
 118:..\..\..\arduinoLCD\test\Pain Drain\libraries\lvgl\src\draw\../misc/lv_color.h **** # define LV_COLOR_SET_G8(c, v) (c).ch.green = (uint8_t)((v) & 0x7U)
 119:..\..\..\arduinoLCD\test\Pain Drain\libraries\lvgl\src\draw\../misc/lv_color.h **** # define LV_COLOR_SET_B8(c, v) (c).ch.blue = (uint8_t)((v) & 0x3U)
 120:..\..\..\arduinoLCD\test\Pain Drain\libraries\lvgl\src\draw\../misc/lv_color.h **** # define LV_COLOR_SET_A8(c, v) do {} while(0)
 121:..\..\..\arduinoLCD\test\Pain Drain\libraries\lvgl\src\draw\../misc/lv_color.h **** 
 122:..\..\..\arduinoLCD\test\Pain Drain\libraries\lvgl\src\draw\../misc/lv_color.h **** # define LV_COLOR_GET_R8(c) (c).ch.red
 123:..\..\..\arduinoLCD\test\Pain Drain\libraries\lvgl\src\draw\../misc/lv_color.h **** # define LV_COLOR_GET_G8(c) (c).ch.green
 124:..\..\..\arduinoLCD\test\Pain Drain\libraries\lvgl\src\draw\../misc/lv_color.h **** # define LV_COLOR_GET_B8(c) (c).ch.blue
 125:..\..\..\arduinoLCD\test\Pain Drain\libraries\lvgl\src\draw\../misc/lv_color.h **** # define LV_COLOR_GET_A8(c) 0xFF
 126:..\..\..\arduinoLCD\test\Pain Drain\libraries\lvgl\src\draw\../misc/lv_color.h **** 
 127:..\..\..\arduinoLCD\test\Pain Drain\libraries\lvgl\src\draw\../misc/lv_color.h **** # define _LV_COLOR_ZERO_INITIALIZER8 {{0x00, 0x00, 0x00}}
 128:..\..\..\arduinoLCD\test\Pain Drain\libraries\lvgl\src\draw\../misc/lv_color.h **** # define LV_COLOR_MAKE8(r8, g8, b8) {{(uint8_t)((b8 >> 6) & 0x3U), (uint8_t)((g8 >> 5) & 0x7U), (ui
 129:..\..\..\arduinoLCD\test\Pain Drain\libraries\lvgl\src\draw\../misc/lv_color.h **** 
ARM GAS  C:\Users\haske\AppData\Local\Temp\ccF9IbRI.s 			page 5


 130:..\..\..\arduinoLCD\test\Pain Drain\libraries\lvgl\src\draw\../misc/lv_color.h **** # define LV_COLOR_SET_R16(c, v) (c).ch.red = (uint8_t)((v) & 0x1FU)
 131:..\..\..\arduinoLCD\test\Pain Drain\libraries\lvgl\src\draw\../misc/lv_color.h **** #if LV_COLOR_16_SWAP == 0
 132:..\..\..\arduinoLCD\test\Pain Drain\libraries\lvgl\src\draw\../misc/lv_color.h **** # define LV_COLOR_SET_G16(c, v) (c).ch.green = (uint8_t)((v) & 0x3FU)
 133:..\..\..\arduinoLCD\test\Pain Drain\libraries\lvgl\src\draw\../misc/lv_color.h **** #else
 134:..\..\..\arduinoLCD\test\Pain Drain\libraries\lvgl\src\draw\../misc/lv_color.h **** # define LV_COLOR_SET_G16(c, v) {(c).ch.green_h = (uint8_t)(((v) >> 3) & 0x7); (c).ch.green_l = (ui
 135:..\..\..\arduinoLCD\test\Pain Drain\libraries\lvgl\src\draw\../misc/lv_color.h **** #endif
 136:..\..\..\arduinoLCD\test\Pain Drain\libraries\lvgl\src\draw\../misc/lv_color.h **** # define LV_COLOR_SET_B16(c, v) (c).ch.blue = (uint8_t)((v) & 0x1FU)
 137:..\..\..\arduinoLCD\test\Pain Drain\libraries\lvgl\src\draw\../misc/lv_color.h **** # define LV_COLOR_SET_A16(c, v) do {} while(0)
 138:..\..\..\arduinoLCD\test\Pain Drain\libraries\lvgl\src\draw\../misc/lv_color.h **** 
 139:..\..\..\arduinoLCD\test\Pain Drain\libraries\lvgl\src\draw\../misc/lv_color.h **** # define LV_COLOR_GET_R16(c) (c).ch.red
 140:..\..\..\arduinoLCD\test\Pain Drain\libraries\lvgl\src\draw\../misc/lv_color.h **** #if LV_COLOR_16_SWAP == 0
 141:..\..\..\arduinoLCD\test\Pain Drain\libraries\lvgl\src\draw\../misc/lv_color.h **** # define LV_COLOR_GET_G16(c) (c).ch.green
 142:..\..\..\arduinoLCD\test\Pain Drain\libraries\lvgl\src\draw\../misc/lv_color.h **** #else
 143:..\..\..\arduinoLCD\test\Pain Drain\libraries\lvgl\src\draw\../misc/lv_color.h **** # define LV_COLOR_GET_G16(c) (((c).ch.green_h << 3) + (c).ch.green_l)
 144:..\..\..\arduinoLCD\test\Pain Drain\libraries\lvgl\src\draw\../misc/lv_color.h **** #endif
 145:..\..\..\arduinoLCD\test\Pain Drain\libraries\lvgl\src\draw\../misc/lv_color.h **** # define LV_COLOR_GET_B16(c) (c).ch.blue
 146:..\..\..\arduinoLCD\test\Pain Drain\libraries\lvgl\src\draw\../misc/lv_color.h **** # define LV_COLOR_GET_A16(c) 0xFF
 147:..\..\..\arduinoLCD\test\Pain Drain\libraries\lvgl\src\draw\../misc/lv_color.h **** 
 148:..\..\..\arduinoLCD\test\Pain Drain\libraries\lvgl\src\draw\../misc/lv_color.h **** #if LV_COLOR_16_SWAP == 0
 149:..\..\..\arduinoLCD\test\Pain Drain\libraries\lvgl\src\draw\../misc/lv_color.h **** # define _LV_COLOR_ZERO_INITIALIZER16  {{0x00, 0x00, 0x00}}
 150:..\..\..\arduinoLCD\test\Pain Drain\libraries\lvgl\src\draw\../misc/lv_color.h **** # define LV_COLOR_MAKE16(r8, g8, b8) {{(uint8_t)((b8 >> 3) & 0x1FU), (uint8_t)((g8 >> 2) & 0x3FU), 
 151:..\..\..\arduinoLCD\test\Pain Drain\libraries\lvgl\src\draw\../misc/lv_color.h **** #else
 152:..\..\..\arduinoLCD\test\Pain Drain\libraries\lvgl\src\draw\../misc/lv_color.h **** # define _LV_COLOR_ZERO_INITIALIZER16 {{0x00, 0x00, 0x00, 0x00}}
 153:..\..\..\arduinoLCD\test\Pain Drain\libraries\lvgl\src\draw\../misc/lv_color.h **** # define LV_COLOR_MAKE16(r8, g8, b8) {{(uint8_t)((g8 >> 5) & 0x7U), (uint8_t)((r8 >> 3) & 0x1FU), (
 154:..\..\..\arduinoLCD\test\Pain Drain\libraries\lvgl\src\draw\../misc/lv_color.h **** #endif
 155:..\..\..\arduinoLCD\test\Pain Drain\libraries\lvgl\src\draw\../misc/lv_color.h **** 
 156:..\..\..\arduinoLCD\test\Pain Drain\libraries\lvgl\src\draw\../misc/lv_color.h **** # define LV_COLOR_SET_R32(c, v) (c).ch.red = (uint8_t)((v) & 0xFF)
 157:..\..\..\arduinoLCD\test\Pain Drain\libraries\lvgl\src\draw\../misc/lv_color.h **** # define LV_COLOR_SET_G32(c, v) (c).ch.green = (uint8_t)((v) & 0xFF)
 158:..\..\..\arduinoLCD\test\Pain Drain\libraries\lvgl\src\draw\../misc/lv_color.h **** # define LV_COLOR_SET_B32(c, v) (c).ch.blue = (uint8_t)((v) & 0xFF)
 159:..\..\..\arduinoLCD\test\Pain Drain\libraries\lvgl\src\draw\../misc/lv_color.h **** # define LV_COLOR_SET_A32(c, v) (c).ch.alpha = (uint8_t)((v) & 0xFF)
 160:..\..\..\arduinoLCD\test\Pain Drain\libraries\lvgl\src\draw\../misc/lv_color.h **** 
 161:..\..\..\arduinoLCD\test\Pain Drain\libraries\lvgl\src\draw\../misc/lv_color.h **** # define LV_COLOR_GET_R32(c) (c).ch.red
 162:..\..\..\arduinoLCD\test\Pain Drain\libraries\lvgl\src\draw\../misc/lv_color.h **** # define LV_COLOR_GET_G32(c) (c).ch.green
 163:..\..\..\arduinoLCD\test\Pain Drain\libraries\lvgl\src\draw\../misc/lv_color.h **** # define LV_COLOR_GET_B32(c) (c).ch.blue
 164:..\..\..\arduinoLCD\test\Pain Drain\libraries\lvgl\src\draw\../misc/lv_color.h **** # define LV_COLOR_GET_A32(c) (c).ch.alpha
 165:..\..\..\arduinoLCD\test\Pain Drain\libraries\lvgl\src\draw\../misc/lv_color.h **** 
 166:..\..\..\arduinoLCD\test\Pain Drain\libraries\lvgl\src\draw\../misc/lv_color.h **** # define _LV_COLOR_ZERO_INITIALIZER32  {{0x00, 0x00, 0x00, 0x00}}
 167:..\..\..\arduinoLCD\test\Pain Drain\libraries\lvgl\src\draw\../misc/lv_color.h **** # define LV_COLOR_MAKE32(r8, g8, b8) {{b8, g8, r8, 0xff}} /*Fix 0xff alpha*/
 168:..\..\..\arduinoLCD\test\Pain Drain\libraries\lvgl\src\draw\../misc/lv_color.h **** 
 169:..\..\..\arduinoLCD\test\Pain Drain\libraries\lvgl\src\draw\../misc/lv_color.h **** /*---------------------------------------
 170:..\..\..\arduinoLCD\test\Pain Drain\libraries\lvgl\src\draw\../misc/lv_color.h ****  * Macros for the current color depth
 171:..\..\..\arduinoLCD\test\Pain Drain\libraries\lvgl\src\draw\../misc/lv_color.h ****  * to set/get values of the color channels
 172:..\..\..\arduinoLCD\test\Pain Drain\libraries\lvgl\src\draw\../misc/lv_color.h ****  *------------------------------------------*/
 173:..\..\..\arduinoLCD\test\Pain Drain\libraries\lvgl\src\draw\../misc/lv_color.h **** #define LV_COLOR_SET_R(c, v) LV_CONCAT(LV_COLOR_SET_R, LV_COLOR_DEPTH)(c, v)
 174:..\..\..\arduinoLCD\test\Pain Drain\libraries\lvgl\src\draw\../misc/lv_color.h **** #define LV_COLOR_SET_G(c, v) LV_CONCAT(LV_COLOR_SET_G, LV_COLOR_DEPTH)(c, v)
 175:..\..\..\arduinoLCD\test\Pain Drain\libraries\lvgl\src\draw\../misc/lv_color.h **** #define LV_COLOR_SET_B(c, v) LV_CONCAT(LV_COLOR_SET_B, LV_COLOR_DEPTH)(c, v)
 176:..\..\..\arduinoLCD\test\Pain Drain\libraries\lvgl\src\draw\../misc/lv_color.h **** #define LV_COLOR_SET_A(c, v) LV_CONCAT(LV_COLOR_SET_A, LV_COLOR_DEPTH)(c, v)
 177:..\..\..\arduinoLCD\test\Pain Drain\libraries\lvgl\src\draw\../misc/lv_color.h **** 
 178:..\..\..\arduinoLCD\test\Pain Drain\libraries\lvgl\src\draw\../misc/lv_color.h **** #define LV_COLOR_GET_R(c) LV_CONCAT(LV_COLOR_GET_R, LV_COLOR_DEPTH)(c)
 179:..\..\..\arduinoLCD\test\Pain Drain\libraries\lvgl\src\draw\../misc/lv_color.h **** #define LV_COLOR_GET_G(c) LV_CONCAT(LV_COLOR_GET_G, LV_COLOR_DEPTH)(c)
 180:..\..\..\arduinoLCD\test\Pain Drain\libraries\lvgl\src\draw\../misc/lv_color.h **** #define LV_COLOR_GET_B(c) LV_CONCAT(LV_COLOR_GET_B, LV_COLOR_DEPTH)(c)
 181:..\..\..\arduinoLCD\test\Pain Drain\libraries\lvgl\src\draw\../misc/lv_color.h **** #define LV_COLOR_GET_A(c) LV_CONCAT(LV_COLOR_GET_A, LV_COLOR_DEPTH)(c)
 182:..\..\..\arduinoLCD\test\Pain Drain\libraries\lvgl\src\draw\../misc/lv_color.h **** 
 183:..\..\..\arduinoLCD\test\Pain Drain\libraries\lvgl\src\draw\../misc/lv_color.h **** #define _LV_COLOR_ZERO_INITIALIZER LV_CONCAT(_LV_COLOR_ZERO_INITIALIZER, LV_COLOR_DEPTH)
 184:..\..\..\arduinoLCD\test\Pain Drain\libraries\lvgl\src\draw\../misc/lv_color.h **** #define LV_COLOR_MAKE(r8, g8, b8) LV_CONCAT(LV_COLOR_MAKE, LV_COLOR_DEPTH)(r8, g8, b8)
 185:..\..\..\arduinoLCD\test\Pain Drain\libraries\lvgl\src\draw\../misc/lv_color.h **** 
 186:..\..\..\arduinoLCD\test\Pain Drain\libraries\lvgl\src\draw\../misc/lv_color.h **** /**********************
ARM GAS  C:\Users\haske\AppData\Local\Temp\ccF9IbRI.s 			page 6


 187:..\..\..\arduinoLCD\test\Pain Drain\libraries\lvgl\src\draw\../misc/lv_color.h ****  *      TYPEDEFS
 188:..\..\..\arduinoLCD\test\Pain Drain\libraries\lvgl\src\draw\../misc/lv_color.h ****  **********************/
 189:..\..\..\arduinoLCD\test\Pain Drain\libraries\lvgl\src\draw\../misc/lv_color.h **** 
 190:..\..\..\arduinoLCD\test\Pain Drain\libraries\lvgl\src\draw\../misc/lv_color.h **** typedef union {
 191:..\..\..\arduinoLCD\test\Pain Drain\libraries\lvgl\src\draw\../misc/lv_color.h ****     uint8_t full; /*must be declared first to set all bits of byte via initializer list*/
 192:..\..\..\arduinoLCD\test\Pain Drain\libraries\lvgl\src\draw\../misc/lv_color.h ****     union {
 193:..\..\..\arduinoLCD\test\Pain Drain\libraries\lvgl\src\draw\../misc/lv_color.h ****         uint8_t blue : 1;
 194:..\..\..\arduinoLCD\test\Pain Drain\libraries\lvgl\src\draw\../misc/lv_color.h ****         uint8_t green : 1;
 195:..\..\..\arduinoLCD\test\Pain Drain\libraries\lvgl\src\draw\../misc/lv_color.h ****         uint8_t red : 1;
 196:..\..\..\arduinoLCD\test\Pain Drain\libraries\lvgl\src\draw\../misc/lv_color.h ****     } ch;
 197:..\..\..\arduinoLCD\test\Pain Drain\libraries\lvgl\src\draw\../misc/lv_color.h **** } lv_color1_t;
 198:..\..\..\arduinoLCD\test\Pain Drain\libraries\lvgl\src\draw\../misc/lv_color.h **** 
 199:..\..\..\arduinoLCD\test\Pain Drain\libraries\lvgl\src\draw\../misc/lv_color.h **** typedef union {
 200:..\..\..\arduinoLCD\test\Pain Drain\libraries\lvgl\src\draw\../misc/lv_color.h ****     struct {
 201:..\..\..\arduinoLCD\test\Pain Drain\libraries\lvgl\src\draw\../misc/lv_color.h ****         uint8_t blue : 2;
 202:..\..\..\arduinoLCD\test\Pain Drain\libraries\lvgl\src\draw\../misc/lv_color.h ****         uint8_t green : 3;
 203:..\..\..\arduinoLCD\test\Pain Drain\libraries\lvgl\src\draw\../misc/lv_color.h ****         uint8_t red : 3;
 204:..\..\..\arduinoLCD\test\Pain Drain\libraries\lvgl\src\draw\../misc/lv_color.h ****     } ch;
 205:..\..\..\arduinoLCD\test\Pain Drain\libraries\lvgl\src\draw\../misc/lv_color.h ****     uint8_t full;
 206:..\..\..\arduinoLCD\test\Pain Drain\libraries\lvgl\src\draw\../misc/lv_color.h **** } lv_color8_t;
 207:..\..\..\arduinoLCD\test\Pain Drain\libraries\lvgl\src\draw\../misc/lv_color.h **** 
 208:..\..\..\arduinoLCD\test\Pain Drain\libraries\lvgl\src\draw\../misc/lv_color.h **** typedef union {
 209:..\..\..\arduinoLCD\test\Pain Drain\libraries\lvgl\src\draw\../misc/lv_color.h ****     struct {
 210:..\..\..\arduinoLCD\test\Pain Drain\libraries\lvgl\src\draw\../misc/lv_color.h **** #if LV_COLOR_16_SWAP == 0
 211:..\..\..\arduinoLCD\test\Pain Drain\libraries\lvgl\src\draw\../misc/lv_color.h ****         uint16_t blue : 5;
 212:..\..\..\arduinoLCD\test\Pain Drain\libraries\lvgl\src\draw\../misc/lv_color.h ****         uint16_t green : 6;
 213:..\..\..\arduinoLCD\test\Pain Drain\libraries\lvgl\src\draw\../misc/lv_color.h ****         uint16_t red : 5;
 214:..\..\..\arduinoLCD\test\Pain Drain\libraries\lvgl\src\draw\../misc/lv_color.h **** #else
 215:..\..\..\arduinoLCD\test\Pain Drain\libraries\lvgl\src\draw\../misc/lv_color.h ****         uint16_t green_h : 3;
 216:..\..\..\arduinoLCD\test\Pain Drain\libraries\lvgl\src\draw\../misc/lv_color.h ****         uint16_t red : 5;
 217:..\..\..\arduinoLCD\test\Pain Drain\libraries\lvgl\src\draw\../misc/lv_color.h ****         uint16_t blue : 5;
 218:..\..\..\arduinoLCD\test\Pain Drain\libraries\lvgl\src\draw\../misc/lv_color.h ****         uint16_t green_l : 3;
 219:..\..\..\arduinoLCD\test\Pain Drain\libraries\lvgl\src\draw\../misc/lv_color.h **** #endif
 220:..\..\..\arduinoLCD\test\Pain Drain\libraries\lvgl\src\draw\../misc/lv_color.h ****     } ch;
 221:..\..\..\arduinoLCD\test\Pain Drain\libraries\lvgl\src\draw\../misc/lv_color.h ****     uint16_t full;
 222:..\..\..\arduinoLCD\test\Pain Drain\libraries\lvgl\src\draw\../misc/lv_color.h **** } lv_color16_t;
 223:..\..\..\arduinoLCD\test\Pain Drain\libraries\lvgl\src\draw\../misc/lv_color.h **** 
 224:..\..\..\arduinoLCD\test\Pain Drain\libraries\lvgl\src\draw\../misc/lv_color.h **** typedef union {
 225:..\..\..\arduinoLCD\test\Pain Drain\libraries\lvgl\src\draw\../misc/lv_color.h ****     struct {
 226:..\..\..\arduinoLCD\test\Pain Drain\libraries\lvgl\src\draw\../misc/lv_color.h ****         uint8_t blue;
 227:..\..\..\arduinoLCD\test\Pain Drain\libraries\lvgl\src\draw\../misc/lv_color.h ****         uint8_t green;
 228:..\..\..\arduinoLCD\test\Pain Drain\libraries\lvgl\src\draw\../misc/lv_color.h ****         uint8_t red;
 229:..\..\..\arduinoLCD\test\Pain Drain\libraries\lvgl\src\draw\../misc/lv_color.h ****         uint8_t alpha;
 230:..\..\..\arduinoLCD\test\Pain Drain\libraries\lvgl\src\draw\../misc/lv_color.h ****     } ch;
 231:..\..\..\arduinoLCD\test\Pain Drain\libraries\lvgl\src\draw\../misc/lv_color.h ****     uint32_t full;
 232:..\..\..\arduinoLCD\test\Pain Drain\libraries\lvgl\src\draw\../misc/lv_color.h **** } lv_color32_t;
 233:..\..\..\arduinoLCD\test\Pain Drain\libraries\lvgl\src\draw\../misc/lv_color.h **** 
 234:..\..\..\arduinoLCD\test\Pain Drain\libraries\lvgl\src\draw\../misc/lv_color.h **** typedef LV_CONCAT3(uint, LV_COLOR_SIZE, _t) lv_color_int_t;
 235:..\..\..\arduinoLCD\test\Pain Drain\libraries\lvgl\src\draw\../misc/lv_color.h **** typedef LV_CONCAT3(lv_color, LV_COLOR_DEPTH, _t) lv_color_t;
 236:..\..\..\arduinoLCD\test\Pain Drain\libraries\lvgl\src\draw\../misc/lv_color.h **** 
 237:..\..\..\arduinoLCD\test\Pain Drain\libraries\lvgl\src\draw\../misc/lv_color.h **** typedef struct {
 238:..\..\..\arduinoLCD\test\Pain Drain\libraries\lvgl\src\draw\../misc/lv_color.h ****     uint16_t h;
 239:..\..\..\arduinoLCD\test\Pain Drain\libraries\lvgl\src\draw\../misc/lv_color.h ****     uint8_t s;
 240:..\..\..\arduinoLCD\test\Pain Drain\libraries\lvgl\src\draw\../misc/lv_color.h ****     uint8_t v;
 241:..\..\..\arduinoLCD\test\Pain Drain\libraries\lvgl\src\draw\../misc/lv_color.h **** } lv_color_hsv_t;
 242:..\..\..\arduinoLCD\test\Pain Drain\libraries\lvgl\src\draw\../misc/lv_color.h **** 
 243:..\..\..\arduinoLCD\test\Pain Drain\libraries\lvgl\src\draw\../misc/lv_color.h **** //! @cond Doxygen_Suppress
ARM GAS  C:\Users\haske\AppData\Local\Temp\ccF9IbRI.s 			page 7


 244:..\..\..\arduinoLCD\test\Pain Drain\libraries\lvgl\src\draw\../misc/lv_color.h **** /*No idea where the guard is required but else throws warnings in the docs*/
 245:..\..\..\arduinoLCD\test\Pain Drain\libraries\lvgl\src\draw\../misc/lv_color.h **** typedef uint8_t lv_opa_t;
 246:..\..\..\arduinoLCD\test\Pain Drain\libraries\lvgl\src\draw\../misc/lv_color.h **** //! @endcond
 247:..\..\..\arduinoLCD\test\Pain Drain\libraries\lvgl\src\draw\../misc/lv_color.h **** 
 248:..\..\..\arduinoLCD\test\Pain Drain\libraries\lvgl\src\draw\../misc/lv_color.h **** struct _lv_color_filter_dsc_t;
 249:..\..\..\arduinoLCD\test\Pain Drain\libraries\lvgl\src\draw\../misc/lv_color.h **** 
 250:..\..\..\arduinoLCD\test\Pain Drain\libraries\lvgl\src\draw\../misc/lv_color.h **** typedef lv_color_t (*lv_color_filter_cb_t)(const struct _lv_color_filter_dsc_t *, lv_color_t, lv_op
 251:..\..\..\arduinoLCD\test\Pain Drain\libraries\lvgl\src\draw\../misc/lv_color.h **** 
 252:..\..\..\arduinoLCD\test\Pain Drain\libraries\lvgl\src\draw\../misc/lv_color.h **** typedef struct _lv_color_filter_dsc_t {
 253:..\..\..\arduinoLCD\test\Pain Drain\libraries\lvgl\src\draw\../misc/lv_color.h ****     lv_color_filter_cb_t filter_cb;
 254:..\..\..\arduinoLCD\test\Pain Drain\libraries\lvgl\src\draw\../misc/lv_color.h ****     void * user_data;
 255:..\..\..\arduinoLCD\test\Pain Drain\libraries\lvgl\src\draw\../misc/lv_color.h **** } lv_color_filter_dsc_t;
 256:..\..\..\arduinoLCD\test\Pain Drain\libraries\lvgl\src\draw\../misc/lv_color.h **** 
 257:..\..\..\arduinoLCD\test\Pain Drain\libraries\lvgl\src\draw\../misc/lv_color.h **** 
 258:..\..\..\arduinoLCD\test\Pain Drain\libraries\lvgl\src\draw\../misc/lv_color.h **** typedef enum {
 259:..\..\..\arduinoLCD\test\Pain Drain\libraries\lvgl\src\draw\../misc/lv_color.h ****     LV_PALETTE_RED,
 260:..\..\..\arduinoLCD\test\Pain Drain\libraries\lvgl\src\draw\../misc/lv_color.h ****     LV_PALETTE_PINK,
 261:..\..\..\arduinoLCD\test\Pain Drain\libraries\lvgl\src\draw\../misc/lv_color.h ****     LV_PALETTE_PURPLE,
 262:..\..\..\arduinoLCD\test\Pain Drain\libraries\lvgl\src\draw\../misc/lv_color.h ****     LV_PALETTE_DEEP_PURPLE,
 263:..\..\..\arduinoLCD\test\Pain Drain\libraries\lvgl\src\draw\../misc/lv_color.h ****     LV_PALETTE_INDIGO,
 264:..\..\..\arduinoLCD\test\Pain Drain\libraries\lvgl\src\draw\../misc/lv_color.h ****     LV_PALETTE_BLUE,
 265:..\..\..\arduinoLCD\test\Pain Drain\libraries\lvgl\src\draw\../misc/lv_color.h ****     LV_PALETTE_LIGHT_BLUE,
 266:..\..\..\arduinoLCD\test\Pain Drain\libraries\lvgl\src\draw\../misc/lv_color.h ****     LV_PALETTE_CYAN,
 267:..\..\..\arduinoLCD\test\Pain Drain\libraries\lvgl\src\draw\../misc/lv_color.h ****     LV_PALETTE_TEAL,
 268:..\..\..\arduinoLCD\test\Pain Drain\libraries\lvgl\src\draw\../misc/lv_color.h ****     LV_PALETTE_GREEN,
 269:..\..\..\arduinoLCD\test\Pain Drain\libraries\lvgl\src\draw\../misc/lv_color.h ****     LV_PALETTE_LIGHT_GREEN,
 270:..\..\..\arduinoLCD\test\Pain Drain\libraries\lvgl\src\draw\../misc/lv_color.h ****     LV_PALETTE_LIME,
 271:..\..\..\arduinoLCD\test\Pain Drain\libraries\lvgl\src\draw\../misc/lv_color.h ****     LV_PALETTE_YELLOW,
 272:..\..\..\arduinoLCD\test\Pain Drain\libraries\lvgl\src\draw\../misc/lv_color.h ****     LV_PALETTE_AMBER,
 273:..\..\..\arduinoLCD\test\Pain Drain\libraries\lvgl\src\draw\../misc/lv_color.h ****     LV_PALETTE_ORANGE,
 274:..\..\..\arduinoLCD\test\Pain Drain\libraries\lvgl\src\draw\../misc/lv_color.h ****     LV_PALETTE_DEEP_ORANGE,
 275:..\..\..\arduinoLCD\test\Pain Drain\libraries\lvgl\src\draw\../misc/lv_color.h ****     LV_PALETTE_BROWN,
 276:..\..\..\arduinoLCD\test\Pain Drain\libraries\lvgl\src\draw\../misc/lv_color.h ****     LV_PALETTE_BLUE_GREY,
 277:..\..\..\arduinoLCD\test\Pain Drain\libraries\lvgl\src\draw\../misc/lv_color.h ****     LV_PALETTE_GREY,
 278:..\..\..\arduinoLCD\test\Pain Drain\libraries\lvgl\src\draw\../misc/lv_color.h ****     _LV_PALETTE_LAST,
 279:..\..\..\arduinoLCD\test\Pain Drain\libraries\lvgl\src\draw\../misc/lv_color.h ****     LV_PALETTE_NONE = 0xff,
 280:..\..\..\arduinoLCD\test\Pain Drain\libraries\lvgl\src\draw\../misc/lv_color.h **** } lv_palette_t;
 281:..\..\..\arduinoLCD\test\Pain Drain\libraries\lvgl\src\draw\../misc/lv_color.h **** 
 282:..\..\..\arduinoLCD\test\Pain Drain\libraries\lvgl\src\draw\../misc/lv_color.h **** /**********************
 283:..\..\..\arduinoLCD\test\Pain Drain\libraries\lvgl\src\draw\../misc/lv_color.h ****  * GLOBAL PROTOTYPES
 284:..\..\..\arduinoLCD\test\Pain Drain\libraries\lvgl\src\draw\../misc/lv_color.h ****  **********************/
 285:..\..\..\arduinoLCD\test\Pain Drain\libraries\lvgl\src\draw\../misc/lv_color.h **** 
 286:..\..\..\arduinoLCD\test\Pain Drain\libraries\lvgl\src\draw\../misc/lv_color.h **** /*In color conversations:
 287:..\..\..\arduinoLCD\test\Pain Drain\libraries\lvgl\src\draw\../misc/lv_color.h ****  * - When converting to bigger color type the LSB weight of 1 LSB is calculated
 288:..\..\..\arduinoLCD\test\Pain Drain\libraries\lvgl\src\draw\../misc/lv_color.h ****  *   E.g. 16 bit Red has 5 bits
 289:..\..\..\arduinoLCD\test\Pain Drain\libraries\lvgl\src\draw\../misc/lv_color.h ****  *         8 bit Red has 3 bits
 290:..\..\..\arduinoLCD\test\Pain Drain\libraries\lvgl\src\draw\../misc/lv_color.h ****  *        ----------------------
 291:..\..\..\arduinoLCD\test\Pain Drain\libraries\lvgl\src\draw\../misc/lv_color.h ****  *        8 bit red LSB = (2^5 - 1) / (2^3 - 1) = 31 / 7 = 4
 292:..\..\..\arduinoLCD\test\Pain Drain\libraries\lvgl\src\draw\../misc/lv_color.h ****  *
 293:..\..\..\arduinoLCD\test\Pain Drain\libraries\lvgl\src\draw\../misc/lv_color.h ****  * - When calculating to smaller color type simply shift out the LSBs
 294:..\..\..\arduinoLCD\test\Pain Drain\libraries\lvgl\src\draw\../misc/lv_color.h ****  *   E.g.  8 bit Red has 3 bits
 295:..\..\..\arduinoLCD\test\Pain Drain\libraries\lvgl\src\draw\../misc/lv_color.h ****  *        16 bit Red has 5 bits
 296:..\..\..\arduinoLCD\test\Pain Drain\libraries\lvgl\src\draw\../misc/lv_color.h ****  *        ----------------------
 297:..\..\..\arduinoLCD\test\Pain Drain\libraries\lvgl\src\draw\../misc/lv_color.h ****  *         Shift right with 5 - 3 = 2
 298:..\..\..\arduinoLCD\test\Pain Drain\libraries\lvgl\src\draw\../misc/lv_color.h ****  */
 299:..\..\..\arduinoLCD\test\Pain Drain\libraries\lvgl\src\draw\../misc/lv_color.h **** static inline uint8_t lv_color_to1(lv_color_t color)
 300:..\..\..\arduinoLCD\test\Pain Drain\libraries\lvgl\src\draw\../misc/lv_color.h **** {
ARM GAS  C:\Users\haske\AppData\Local\Temp\ccF9IbRI.s 			page 8


 301:..\..\..\arduinoLCD\test\Pain Drain\libraries\lvgl\src\draw\../misc/lv_color.h **** #if LV_COLOR_DEPTH == 1
 302:..\..\..\arduinoLCD\test\Pain Drain\libraries\lvgl\src\draw\../misc/lv_color.h ****     return color.full;
 303:..\..\..\arduinoLCD\test\Pain Drain\libraries\lvgl\src\draw\../misc/lv_color.h **** #elif LV_COLOR_DEPTH == 8
 304:..\..\..\arduinoLCD\test\Pain Drain\libraries\lvgl\src\draw\../misc/lv_color.h ****     if((LV_COLOR_GET_R(color) & 0x4) || (LV_COLOR_GET_G(color) & 0x4) || (LV_COLOR_GET_B(color) & 0
 305:..\..\..\arduinoLCD\test\Pain Drain\libraries\lvgl\src\draw\../misc/lv_color.h ****         return 1;
 306:..\..\..\arduinoLCD\test\Pain Drain\libraries\lvgl\src\draw\../misc/lv_color.h ****     }
 307:..\..\..\arduinoLCD\test\Pain Drain\libraries\lvgl\src\draw\../misc/lv_color.h ****     else {
 308:..\..\..\arduinoLCD\test\Pain Drain\libraries\lvgl\src\draw\../misc/lv_color.h ****         return 0;
 309:..\..\..\arduinoLCD\test\Pain Drain\libraries\lvgl\src\draw\../misc/lv_color.h ****     }
 310:..\..\..\arduinoLCD\test\Pain Drain\libraries\lvgl\src\draw\../misc/lv_color.h **** #elif LV_COLOR_DEPTH == 16
 311:..\..\..\arduinoLCD\test\Pain Drain\libraries\lvgl\src\draw\../misc/lv_color.h ****     if((LV_COLOR_GET_R(color) & 0x10) || (LV_COLOR_GET_G(color) & 0x20) || (LV_COLOR_GET_B(color) &
 312:..\..\..\arduinoLCD\test\Pain Drain\libraries\lvgl\src\draw\../misc/lv_color.h ****         return 1;
 313:..\..\..\arduinoLCD\test\Pain Drain\libraries\lvgl\src\draw\../misc/lv_color.h ****     }
 314:..\..\..\arduinoLCD\test\Pain Drain\libraries\lvgl\src\draw\../misc/lv_color.h ****     else {
 315:..\..\..\arduinoLCD\test\Pain Drain\libraries\lvgl\src\draw\../misc/lv_color.h ****         return 0;
 316:..\..\..\arduinoLCD\test\Pain Drain\libraries\lvgl\src\draw\../misc/lv_color.h ****     }
 317:..\..\..\arduinoLCD\test\Pain Drain\libraries\lvgl\src\draw\../misc/lv_color.h **** #elif LV_COLOR_DEPTH == 32
 318:..\..\..\arduinoLCD\test\Pain Drain\libraries\lvgl\src\draw\../misc/lv_color.h ****     if((LV_COLOR_GET_R(color) & 0x80) || (LV_COLOR_GET_G(color) & 0x80) || (LV_COLOR_GET_B(color) &
 319:..\..\..\arduinoLCD\test\Pain Drain\libraries\lvgl\src\draw\../misc/lv_color.h ****         return 1;
 320:..\..\..\arduinoLCD\test\Pain Drain\libraries\lvgl\src\draw\../misc/lv_color.h ****     }
 321:..\..\..\arduinoLCD\test\Pain Drain\libraries\lvgl\src\draw\../misc/lv_color.h ****     else {
 322:..\..\..\arduinoLCD\test\Pain Drain\libraries\lvgl\src\draw\../misc/lv_color.h ****         return 0;
 323:..\..\..\arduinoLCD\test\Pain Drain\libraries\lvgl\src\draw\../misc/lv_color.h ****     }
 324:..\..\..\arduinoLCD\test\Pain Drain\libraries\lvgl\src\draw\../misc/lv_color.h **** #endif
 325:..\..\..\arduinoLCD\test\Pain Drain\libraries\lvgl\src\draw\../misc/lv_color.h **** }
 326:..\..\..\arduinoLCD\test\Pain Drain\libraries\lvgl\src\draw\../misc/lv_color.h **** 
 327:..\..\..\arduinoLCD\test\Pain Drain\libraries\lvgl\src\draw\../misc/lv_color.h **** static inline uint8_t lv_color_to8(lv_color_t color)
 328:..\..\..\arduinoLCD\test\Pain Drain\libraries\lvgl\src\draw\../misc/lv_color.h **** {
 329:..\..\..\arduinoLCD\test\Pain Drain\libraries\lvgl\src\draw\../misc/lv_color.h **** #if LV_COLOR_DEPTH == 1
 330:..\..\..\arduinoLCD\test\Pain Drain\libraries\lvgl\src\draw\../misc/lv_color.h ****     if(color.full == 0)
 331:..\..\..\arduinoLCD\test\Pain Drain\libraries\lvgl\src\draw\../misc/lv_color.h ****         return 0;
 332:..\..\..\arduinoLCD\test\Pain Drain\libraries\lvgl\src\draw\../misc/lv_color.h ****     else
 333:..\..\..\arduinoLCD\test\Pain Drain\libraries\lvgl\src\draw\../misc/lv_color.h ****         return 0xFF;
 334:..\..\..\arduinoLCD\test\Pain Drain\libraries\lvgl\src\draw\../misc/lv_color.h **** #elif LV_COLOR_DEPTH == 8
 335:..\..\..\arduinoLCD\test\Pain Drain\libraries\lvgl\src\draw\../misc/lv_color.h ****     return color.full;
 336:..\..\..\arduinoLCD\test\Pain Drain\libraries\lvgl\src\draw\../misc/lv_color.h **** #elif LV_COLOR_DEPTH == 16
 337:..\..\..\arduinoLCD\test\Pain Drain\libraries\lvgl\src\draw\../misc/lv_color.h ****     lv_color8_t ret;
 338:..\..\..\arduinoLCD\test\Pain Drain\libraries\lvgl\src\draw\../misc/lv_color.h ****     LV_COLOR_SET_R8(ret, LV_COLOR_GET_R(color) >> 2); /*5 - 3  = 2*/
 339:..\..\..\arduinoLCD\test\Pain Drain\libraries\lvgl\src\draw\../misc/lv_color.h ****     LV_COLOR_SET_G8(ret, LV_COLOR_GET_G(color) >> 3); /*6 - 3  = 3*/
 340:..\..\..\arduinoLCD\test\Pain Drain\libraries\lvgl\src\draw\../misc/lv_color.h ****     LV_COLOR_SET_B8(ret, LV_COLOR_GET_B(color) >> 3); /*5 - 2  = 3*/
 341:..\..\..\arduinoLCD\test\Pain Drain\libraries\lvgl\src\draw\../misc/lv_color.h ****     return ret.full;
 342:..\..\..\arduinoLCD\test\Pain Drain\libraries\lvgl\src\draw\../misc/lv_color.h **** #elif LV_COLOR_DEPTH == 32
 343:..\..\..\arduinoLCD\test\Pain Drain\libraries\lvgl\src\draw\../misc/lv_color.h ****     lv_color8_t ret;
 344:..\..\..\arduinoLCD\test\Pain Drain\libraries\lvgl\src\draw\../misc/lv_color.h ****     LV_COLOR_SET_R8(ret, LV_COLOR_GET_R(color) >> 5); /*8 - 3  = 5*/
 345:..\..\..\arduinoLCD\test\Pain Drain\libraries\lvgl\src\draw\../misc/lv_color.h ****     LV_COLOR_SET_G8(ret, LV_COLOR_GET_G(color) >> 5); /*8 - 3  = 5*/
 346:..\..\..\arduinoLCD\test\Pain Drain\libraries\lvgl\src\draw\../misc/lv_color.h ****     LV_COLOR_SET_B8(ret, LV_COLOR_GET_B(color) >> 6); /*8 - 2  = 6*/
 347:..\..\..\arduinoLCD\test\Pain Drain\libraries\lvgl\src\draw\../misc/lv_color.h ****     return ret.full;
 348:..\..\..\arduinoLCD\test\Pain Drain\libraries\lvgl\src\draw\../misc/lv_color.h **** #endif
 349:..\..\..\arduinoLCD\test\Pain Drain\libraries\lvgl\src\draw\../misc/lv_color.h **** }
 350:..\..\..\arduinoLCD\test\Pain Drain\libraries\lvgl\src\draw\../misc/lv_color.h **** 
 351:..\..\..\arduinoLCD\test\Pain Drain\libraries\lvgl\src\draw\../misc/lv_color.h **** static inline uint16_t lv_color_to16(lv_color_t color)
 352:..\..\..\arduinoLCD\test\Pain Drain\libraries\lvgl\src\draw\../misc/lv_color.h **** {
 353:..\..\..\arduinoLCD\test\Pain Drain\libraries\lvgl\src\draw\../misc/lv_color.h **** #if LV_COLOR_DEPTH == 1
 354:..\..\..\arduinoLCD\test\Pain Drain\libraries\lvgl\src\draw\../misc/lv_color.h ****     if(color.full == 0)
 355:..\..\..\arduinoLCD\test\Pain Drain\libraries\lvgl\src\draw\../misc/lv_color.h ****         return 0;
 356:..\..\..\arduinoLCD\test\Pain Drain\libraries\lvgl\src\draw\../misc/lv_color.h ****     else
 357:..\..\..\arduinoLCD\test\Pain Drain\libraries\lvgl\src\draw\../misc/lv_color.h ****         return 0xFFFF;
ARM GAS  C:\Users\haske\AppData\Local\Temp\ccF9IbRI.s 			page 9


 358:..\..\..\arduinoLCD\test\Pain Drain\libraries\lvgl\src\draw\../misc/lv_color.h **** #elif LV_COLOR_DEPTH == 8
 359:..\..\..\arduinoLCD\test\Pain Drain\libraries\lvgl\src\draw\../misc/lv_color.h ****     lv_color16_t ret;
 360:..\..\..\arduinoLCD\test\Pain Drain\libraries\lvgl\src\draw\../misc/lv_color.h ****     LV_COLOR_SET_R16(ret, LV_COLOR_GET_R(color) * 4);  /*(2^5 - 1)/(2^3 - 1) = 31/7 = 4*/
 361:..\..\..\arduinoLCD\test\Pain Drain\libraries\lvgl\src\draw\../misc/lv_color.h ****     LV_COLOR_SET_G16(ret, LV_COLOR_GET_G(color) * 9);  /*(2^6 - 1)/(2^3 - 1) = 63/7 = 9*/
 362:..\..\..\arduinoLCD\test\Pain Drain\libraries\lvgl\src\draw\../misc/lv_color.h ****     LV_COLOR_SET_B16(ret, LV_COLOR_GET_B(color) * 10); /*(2^5 - 1)/(2^2 - 1) = 31/3 = 10*/
 363:..\..\..\arduinoLCD\test\Pain Drain\libraries\lvgl\src\draw\../misc/lv_color.h ****     return ret.full;
 364:..\..\..\arduinoLCD\test\Pain Drain\libraries\lvgl\src\draw\../misc/lv_color.h **** #elif LV_COLOR_DEPTH == 16
 365:..\..\..\arduinoLCD\test\Pain Drain\libraries\lvgl\src\draw\../misc/lv_color.h ****     return color.full;
 366:..\..\..\arduinoLCD\test\Pain Drain\libraries\lvgl\src\draw\../misc/lv_color.h **** #elif LV_COLOR_DEPTH == 32
 367:..\..\..\arduinoLCD\test\Pain Drain\libraries\lvgl\src\draw\../misc/lv_color.h ****     lv_color16_t ret;
 368:..\..\..\arduinoLCD\test\Pain Drain\libraries\lvgl\src\draw\../misc/lv_color.h ****     LV_COLOR_SET_R16(ret, LV_COLOR_GET_R(color) >> 3); /*8 - 5  = 3*/
 369:..\..\..\arduinoLCD\test\Pain Drain\libraries\lvgl\src\draw\../misc/lv_color.h ****     LV_COLOR_SET_G16(ret, LV_COLOR_GET_G(color) >> 2); /*8 - 6  = 2*/
 370:..\..\..\arduinoLCD\test\Pain Drain\libraries\lvgl\src\draw\../misc/lv_color.h ****     LV_COLOR_SET_B16(ret, LV_COLOR_GET_B(color) >> 3); /*8 - 5  = 3*/
 371:..\..\..\arduinoLCD\test\Pain Drain\libraries\lvgl\src\draw\../misc/lv_color.h ****     return ret.full;
 372:..\..\..\arduinoLCD\test\Pain Drain\libraries\lvgl\src\draw\../misc/lv_color.h **** #endif
 373:..\..\..\arduinoLCD\test\Pain Drain\libraries\lvgl\src\draw\../misc/lv_color.h **** }
 374:..\..\..\arduinoLCD\test\Pain Drain\libraries\lvgl\src\draw\../misc/lv_color.h **** 
 375:..\..\..\arduinoLCD\test\Pain Drain\libraries\lvgl\src\draw\../misc/lv_color.h **** static inline uint32_t lv_color_to32(lv_color_t color)
 376:..\..\..\arduinoLCD\test\Pain Drain\libraries\lvgl\src\draw\../misc/lv_color.h **** {
 377:..\..\..\arduinoLCD\test\Pain Drain\libraries\lvgl\src\draw\../misc/lv_color.h **** #if LV_COLOR_DEPTH == 1
 378:..\..\..\arduinoLCD\test\Pain Drain\libraries\lvgl\src\draw\../misc/lv_color.h ****     if(color.full == 0)
 379:..\..\..\arduinoLCD\test\Pain Drain\libraries\lvgl\src\draw\../misc/lv_color.h ****         return 0xFF000000;
 380:..\..\..\arduinoLCD\test\Pain Drain\libraries\lvgl\src\draw\../misc/lv_color.h ****     else
 381:..\..\..\arduinoLCD\test\Pain Drain\libraries\lvgl\src\draw\../misc/lv_color.h ****         return 0xFFFFFFFF;
 382:..\..\..\arduinoLCD\test\Pain Drain\libraries\lvgl\src\draw\../misc/lv_color.h **** #elif LV_COLOR_DEPTH == 8
 383:..\..\..\arduinoLCD\test\Pain Drain\libraries\lvgl\src\draw\../misc/lv_color.h ****     lv_color32_t ret;
 384:..\..\..\arduinoLCD\test\Pain Drain\libraries\lvgl\src\draw\../misc/lv_color.h ****     LV_COLOR_SET_R32(ret, LV_COLOR_GET_R(color) * 36); /*(2^8 - 1)/(2^3 - 1) = 255/7 = 36*/
 385:..\..\..\arduinoLCD\test\Pain Drain\libraries\lvgl\src\draw\../misc/lv_color.h ****     LV_COLOR_SET_G32(ret, LV_COLOR_GET_G(color) * 36); /*(2^8 - 1)/(2^3 - 1) = 255/7 = 36*/
 386:..\..\..\arduinoLCD\test\Pain Drain\libraries\lvgl\src\draw\../misc/lv_color.h ****     LV_COLOR_SET_B32(ret, LV_COLOR_GET_B(color) * 85); /*(2^8 - 1)/(2^2 - 1) = 255/3 = 85*/
 387:..\..\..\arduinoLCD\test\Pain Drain\libraries\lvgl\src\draw\../misc/lv_color.h ****     LV_COLOR_SET_A32(ret, 0xFF);
 388:..\..\..\arduinoLCD\test\Pain Drain\libraries\lvgl\src\draw\../misc/lv_color.h ****     return ret.full;
 389:..\..\..\arduinoLCD\test\Pain Drain\libraries\lvgl\src\draw\../misc/lv_color.h **** #elif LV_COLOR_DEPTH == 16
 390:..\..\..\arduinoLCD\test\Pain Drain\libraries\lvgl\src\draw\../misc/lv_color.h ****     /**
 391:..\..\..\arduinoLCD\test\Pain Drain\libraries\lvgl\src\draw\../misc/lv_color.h ****      * The floating point math for conversion is:
 392:..\..\..\arduinoLCD\test\Pain Drain\libraries\lvgl\src\draw\../misc/lv_color.h ****      *  valueto = valuefrom * ( (2^bitsto - 1) / (float)(2^bitsfrom - 1) )
 393:..\..\..\arduinoLCD\test\Pain Drain\libraries\lvgl\src\draw\../misc/lv_color.h ****      * The faster integer math for conversion is:
 394:..\..\..\arduinoLCD\test\Pain Drain\libraries\lvgl\src\draw\../misc/lv_color.h ****      *  valueto = ( valuefrom * multiplier + adder ) >> divisor
 395:..\..\..\arduinoLCD\test\Pain Drain\libraries\lvgl\src\draw\../misc/lv_color.h ****      *   multiplier = FLOOR( ( (2^bitsto - 1) << divisor ) / (float)(2^bitsfrom - 1) )
 396:..\..\..\arduinoLCD\test\Pain Drain\libraries\lvgl\src\draw\../misc/lv_color.h ****      *
 397:..\..\..\arduinoLCD\test\Pain Drain\libraries\lvgl\src\draw\../misc/lv_color.h ****      * Find the first divisor where ( adder >> divisor ) <= 0
 398:..\..\..\arduinoLCD\test\Pain Drain\libraries\lvgl\src\draw\../misc/lv_color.h ****      *
 399:..\..\..\arduinoLCD\test\Pain Drain\libraries\lvgl\src\draw\../misc/lv_color.h ****      * 5-bit to 8-bit: ( 31 * multiplier + adder ) >> divisor = 255
 400:..\..\..\arduinoLCD\test\Pain Drain\libraries\lvgl\src\draw\../misc/lv_color.h ****      * divisor  multiplier  adder  min (0)  max (31)
 401:..\..\..\arduinoLCD\test\Pain Drain\libraries\lvgl\src\draw\../misc/lv_color.h ****      *       0           8      7        7       255
 402:..\..\..\arduinoLCD\test\Pain Drain\libraries\lvgl\src\draw\../misc/lv_color.h ****      *       1          16     14        7       255
 403:..\..\..\arduinoLCD\test\Pain Drain\libraries\lvgl\src\draw\../misc/lv_color.h ****      *       2          32     28        7       255
 404:..\..\..\arduinoLCD\test\Pain Drain\libraries\lvgl\src\draw\../misc/lv_color.h ****      *       3          65     25        3       255
 405:..\..\..\arduinoLCD\test\Pain Drain\libraries\lvgl\src\draw\../misc/lv_color.h ****      *       4         131     19        1       255
 406:..\..\..\arduinoLCD\test\Pain Drain\libraries\lvgl\src\draw\../misc/lv_color.h ****      *       5         263      7        0       255
 407:..\..\..\arduinoLCD\test\Pain Drain\libraries\lvgl\src\draw\../misc/lv_color.h ****      *
 408:..\..\..\arduinoLCD\test\Pain Drain\libraries\lvgl\src\draw\../misc/lv_color.h ****      * 6-bit to 8-bit: 255 = ( 63 * multiplier + adder ) >> divisor
 409:..\..\..\arduinoLCD\test\Pain Drain\libraries\lvgl\src\draw\../misc/lv_color.h ****      * divisor  multiplier  adder  min (0)  max (63)
 410:..\..\..\arduinoLCD\test\Pain Drain\libraries\lvgl\src\draw\../misc/lv_color.h ****      *       0           4      3        3       255
 411:..\..\..\arduinoLCD\test\Pain Drain\libraries\lvgl\src\draw\../misc/lv_color.h ****      *       1           8      6        3       255
 412:..\..\..\arduinoLCD\test\Pain Drain\libraries\lvgl\src\draw\../misc/lv_color.h ****      *       2          16     12        3       255
 413:..\..\..\arduinoLCD\test\Pain Drain\libraries\lvgl\src\draw\../misc/lv_color.h ****      *       3          32     24        3       255
 414:..\..\..\arduinoLCD\test\Pain Drain\libraries\lvgl\src\draw\../misc/lv_color.h ****      *       4          64     48        3       255
ARM GAS  C:\Users\haske\AppData\Local\Temp\ccF9IbRI.s 			page 10


 415:..\..\..\arduinoLCD\test\Pain Drain\libraries\lvgl\src\draw\../misc/lv_color.h ****      *       5         129     33        1       255
 416:..\..\..\arduinoLCD\test\Pain Drain\libraries\lvgl\src\draw\../misc/lv_color.h ****      *       6         259      3        0       255
 417:..\..\..\arduinoLCD\test\Pain Drain\libraries\lvgl\src\draw\../misc/lv_color.h ****      */
 418:..\..\..\arduinoLCD\test\Pain Drain\libraries\lvgl\src\draw\../misc/lv_color.h **** 
 419:..\..\..\arduinoLCD\test\Pain Drain\libraries\lvgl\src\draw\../misc/lv_color.h ****     lv_color32_t ret;
 420:..\..\..\arduinoLCD\test\Pain Drain\libraries\lvgl\src\draw\../misc/lv_color.h ****     LV_COLOR_SET_R32(ret, (LV_COLOR_GET_R(color) * 263 + 7) >> 5);
 421:..\..\..\arduinoLCD\test\Pain Drain\libraries\lvgl\src\draw\../misc/lv_color.h ****     LV_COLOR_SET_G32(ret, (LV_COLOR_GET_G(color) * 259 + 3) >> 6);
 422:..\..\..\arduinoLCD\test\Pain Drain\libraries\lvgl\src\draw\../misc/lv_color.h ****     LV_COLOR_SET_B32(ret, (LV_COLOR_GET_B(color) * 263 + 7) >> 5);
 423:..\..\..\arduinoLCD\test\Pain Drain\libraries\lvgl\src\draw\../misc/lv_color.h ****     LV_COLOR_SET_A32(ret, 0xFF);
 424:..\..\..\arduinoLCD\test\Pain Drain\libraries\lvgl\src\draw\../misc/lv_color.h ****     return ret.full;
 425:..\..\..\arduinoLCD\test\Pain Drain\libraries\lvgl\src\draw\../misc/lv_color.h **** #elif LV_COLOR_DEPTH == 32
 426:..\..\..\arduinoLCD\test\Pain Drain\libraries\lvgl\src\draw\../misc/lv_color.h ****     return color.full;
 427:..\..\..\arduinoLCD\test\Pain Drain\libraries\lvgl\src\draw\../misc/lv_color.h **** #endif
 428:..\..\..\arduinoLCD\test\Pain Drain\libraries\lvgl\src\draw\../misc/lv_color.h **** }
 429:..\..\..\arduinoLCD\test\Pain Drain\libraries\lvgl\src\draw\../misc/lv_color.h **** 
 430:..\..\..\arduinoLCD\test\Pain Drain\libraries\lvgl\src\draw\../misc/lv_color.h **** //! @cond Doxygen_Suppress
 431:..\..\..\arduinoLCD\test\Pain Drain\libraries\lvgl\src\draw\../misc/lv_color.h **** 
 432:..\..\..\arduinoLCD\test\Pain Drain\libraries\lvgl\src\draw\../misc/lv_color.h **** /**
 433:..\..\..\arduinoLCD\test\Pain Drain\libraries\lvgl\src\draw\../misc/lv_color.h ****  * Mix two colors with a given ratio.
 434:..\..\..\arduinoLCD\test\Pain Drain\libraries\lvgl\src\draw\../misc/lv_color.h ****  * @param c1 the first color to mix (usually the foreground)
 435:..\..\..\arduinoLCD\test\Pain Drain\libraries\lvgl\src\draw\../misc/lv_color.h ****  * @param c2 the second color to mix (usually the background)
 436:..\..\..\arduinoLCD\test\Pain Drain\libraries\lvgl\src\draw\../misc/lv_color.h ****  * @param mix The ratio of the colors. 0: full `c2`, 255: full `c1`, 127: half `c1` and half`c2`
 437:..\..\..\arduinoLCD\test\Pain Drain\libraries\lvgl\src\draw\../misc/lv_color.h ****  * @return the mixed color
 438:..\..\..\arduinoLCD\test\Pain Drain\libraries\lvgl\src\draw\../misc/lv_color.h ****  */
 439:..\..\..\arduinoLCD\test\Pain Drain\libraries\lvgl\src\draw\../misc/lv_color.h **** LV_ATTRIBUTE_FAST_MEM static inline lv_color_t lv_color_mix(lv_color_t c1, lv_color_t c2, uint8_t m
 440:..\..\..\arduinoLCD\test\Pain Drain\libraries\lvgl\src\draw\../misc/lv_color.h **** {
 441:..\..\..\arduinoLCD\test\Pain Drain\libraries\lvgl\src\draw\../misc/lv_color.h ****     lv_color_t ret;
 442:..\..\..\arduinoLCD\test\Pain Drain\libraries\lvgl\src\draw\../misc/lv_color.h **** 
 443:..\..\..\arduinoLCD\test\Pain Drain\libraries\lvgl\src\draw\../misc/lv_color.h **** #if LV_COLOR_DEPTH == 16 && LV_COLOR_16_SWAP == 0 && LV_COLOR_MIX_ROUND_OFS == 0
 444:..\..\..\arduinoLCD\test\Pain Drain\libraries\lvgl\src\draw\../misc/lv_color.h ****     /*Source: https://stackoverflow.com/a/50012418/1999969*/
 445:..\..\..\arduinoLCD\test\Pain Drain\libraries\lvgl\src\draw\../misc/lv_color.h ****     mix = (uint32_t)((uint32_t)mix + 4) >> 3;
 446:..\..\..\arduinoLCD\test\Pain Drain\libraries\lvgl\src\draw\../misc/lv_color.h ****     uint32_t bg = (uint32_t)((uint32_t)c2.full | ((uint32_t)c2.full << 16)) &
 447:..\..\..\arduinoLCD\test\Pain Drain\libraries\lvgl\src\draw\../misc/lv_color.h ****                   0x7E0F81F; /*0b00000111111000001111100000011111*/
 448:..\..\..\arduinoLCD\test\Pain Drain\libraries\lvgl\src\draw\../misc/lv_color.h ****     uint32_t fg = (uint32_t)((uint32_t)c1.full | ((uint32_t)c1.full << 16)) & 0x7E0F81F;
 449:..\..\..\arduinoLCD\test\Pain Drain\libraries\lvgl\src\draw\../misc/lv_color.h ****     uint32_t result = ((((fg - bg) * mix) >> 5) + bg) & 0x7E0F81F;
 450:..\..\..\arduinoLCD\test\Pain Drain\libraries\lvgl\src\draw\../misc/lv_color.h ****     ret.full = (uint16_t)((result >> 16) | result);
 451:..\..\..\arduinoLCD\test\Pain Drain\libraries\lvgl\src\draw\../misc/lv_color.h **** #elif LV_COLOR_DEPTH != 1
 452:..\..\..\arduinoLCD\test\Pain Drain\libraries\lvgl\src\draw\../misc/lv_color.h ****     /*LV_COLOR_DEPTH == 8, 16 or 32*/
 453:..\..\..\arduinoLCD\test\Pain Drain\libraries\lvgl\src\draw\../misc/lv_color.h ****     LV_COLOR_SET_R(ret, LV_UDIV255((uint16_t)LV_COLOR_GET_R(c1) * mix + LV_COLOR_GET_R(c2) *
 454:..\..\..\arduinoLCD\test\Pain Drain\libraries\lvgl\src\draw\../misc/lv_color.h ****                                    (255 - mix) + LV_COLOR_MIX_ROUND_OFS));
 455:..\..\..\arduinoLCD\test\Pain Drain\libraries\lvgl\src\draw\../misc/lv_color.h ****     LV_COLOR_SET_G(ret, LV_UDIV255((uint16_t)LV_COLOR_GET_G(c1) * mix + LV_COLOR_GET_G(c2) *
 456:..\..\..\arduinoLCD\test\Pain Drain\libraries\lvgl\src\draw\../misc/lv_color.h ****                                    (255 - mix) + LV_COLOR_MIX_ROUND_OFS));
 457:..\..\..\arduinoLCD\test\Pain Drain\libraries\lvgl\src\draw\../misc/lv_color.h ****     LV_COLOR_SET_B(ret, LV_UDIV255((uint16_t)LV_COLOR_GET_B(c1) * mix + LV_COLOR_GET_B(c2) *
 458:..\..\..\arduinoLCD\test\Pain Drain\libraries\lvgl\src\draw\../misc/lv_color.h ****                                    (255 - mix) + LV_COLOR_MIX_ROUND_OFS));
 459:..\..\..\arduinoLCD\test\Pain Drain\libraries\lvgl\src\draw\../misc/lv_color.h ****     LV_COLOR_SET_A(ret, 0xFF);
 460:..\..\..\arduinoLCD\test\Pain Drain\libraries\lvgl\src\draw\../misc/lv_color.h **** #else
 461:..\..\..\arduinoLCD\test\Pain Drain\libraries\lvgl\src\draw\../misc/lv_color.h ****     /*LV_COLOR_DEPTH == 1*/
 462:..\..\..\arduinoLCD\test\Pain Drain\libraries\lvgl\src\draw\../misc/lv_color.h ****     ret.full = mix > LV_OPA_50 ? c1.full : c2.full;
 463:..\..\..\arduinoLCD\test\Pain Drain\libraries\lvgl\src\draw\../misc/lv_color.h **** #endif
 464:..\..\..\arduinoLCD\test\Pain Drain\libraries\lvgl\src\draw\../misc/lv_color.h **** 
 465:..\..\..\arduinoLCD\test\Pain Drain\libraries\lvgl\src\draw\../misc/lv_color.h ****     return ret;
 466:..\..\..\arduinoLCD\test\Pain Drain\libraries\lvgl\src\draw\../misc/lv_color.h **** }
 467:..\..\..\arduinoLCD\test\Pain Drain\libraries\lvgl\src\draw\../misc/lv_color.h **** 
 468:..\..\..\arduinoLCD\test\Pain Drain\libraries\lvgl\src\draw\../misc/lv_color.h **** LV_ATTRIBUTE_FAST_MEM static inline void lv_color_premult(lv_color_t c, uint8_t mix, uint16_t * out
 469:..\..\..\arduinoLCD\test\Pain Drain\libraries\lvgl\src\draw\../misc/lv_color.h **** {
 470:..\..\..\arduinoLCD\test\Pain Drain\libraries\lvgl\src\draw\../misc/lv_color.h **** #if LV_COLOR_DEPTH != 1
 471:..\..\..\arduinoLCD\test\Pain Drain\libraries\lvgl\src\draw\../misc/lv_color.h ****     out[0] = (uint16_t)LV_COLOR_GET_R(c) * mix;
ARM GAS  C:\Users\haske\AppData\Local\Temp\ccF9IbRI.s 			page 11


 472:..\..\..\arduinoLCD\test\Pain Drain\libraries\lvgl\src\draw\../misc/lv_color.h ****     out[1] = (uint16_t)LV_COLOR_GET_G(c) * mix;
 473:..\..\..\arduinoLCD\test\Pain Drain\libraries\lvgl\src\draw\../misc/lv_color.h ****     out[2] = (uint16_t)LV_COLOR_GET_B(c) * mix;
 474:..\..\..\arduinoLCD\test\Pain Drain\libraries\lvgl\src\draw\../misc/lv_color.h **** #else
 475:..\..\..\arduinoLCD\test\Pain Drain\libraries\lvgl\src\draw\../misc/lv_color.h ****     (void) mix;
 476:..\..\..\arduinoLCD\test\Pain Drain\libraries\lvgl\src\draw\../misc/lv_color.h ****     /*Pre-multiplication can't be used with 1 bpp*/
 477:..\..\..\arduinoLCD\test\Pain Drain\libraries\lvgl\src\draw\../misc/lv_color.h ****     out[0] = LV_COLOR_GET_R(c);
 478:..\..\..\arduinoLCD\test\Pain Drain\libraries\lvgl\src\draw\../misc/lv_color.h ****     out[1] = LV_COLOR_GET_G(c);
 479:..\..\..\arduinoLCD\test\Pain Drain\libraries\lvgl\src\draw\../misc/lv_color.h ****     out[2] = LV_COLOR_GET_B(c);
 480:..\..\..\arduinoLCD\test\Pain Drain\libraries\lvgl\src\draw\../misc/lv_color.h **** #endif
 481:..\..\..\arduinoLCD\test\Pain Drain\libraries\lvgl\src\draw\../misc/lv_color.h **** 
 482:..\..\..\arduinoLCD\test\Pain Drain\libraries\lvgl\src\draw\../misc/lv_color.h **** }
 483:..\..\..\arduinoLCD\test\Pain Drain\libraries\lvgl\src\draw\../misc/lv_color.h **** 
 484:..\..\..\arduinoLCD\test\Pain Drain\libraries\lvgl\src\draw\../misc/lv_color.h **** /**
 485:..\..\..\arduinoLCD\test\Pain Drain\libraries\lvgl\src\draw\../misc/lv_color.h ****  * Mix two colors with a given ratio. It runs faster then `lv_color_mix` but requires some pre comp
 486:..\..\..\arduinoLCD\test\Pain Drain\libraries\lvgl\src\draw\../misc/lv_color.h ****  * @param premult_c1 The first color. Should be preprocessed with `lv_color_premult(c1)`
 487:..\..\..\arduinoLCD\test\Pain Drain\libraries\lvgl\src\draw\../misc/lv_color.h ****  * @param c2 The second color. As it is no pre computation required on it
 488:..\..\..\arduinoLCD\test\Pain Drain\libraries\lvgl\src\draw\../misc/lv_color.h ****  * @param mix The ratio of the colors. 0: full `c1`, 255: full `c2`, 127: half `c1` and half `c2`.
 489:..\..\..\arduinoLCD\test\Pain Drain\libraries\lvgl\src\draw\../misc/lv_color.h ****  *            Should be modified like mix = `255 - mix`
 490:..\..\..\arduinoLCD\test\Pain Drain\libraries\lvgl\src\draw\../misc/lv_color.h ****  * @return the mixed color
 491:..\..\..\arduinoLCD\test\Pain Drain\libraries\lvgl\src\draw\../misc/lv_color.h ****  * @note 255 won't give clearly `c1`.
 492:..\..\..\arduinoLCD\test\Pain Drain\libraries\lvgl\src\draw\../misc/lv_color.h ****  */
 493:..\..\..\arduinoLCD\test\Pain Drain\libraries\lvgl\src\draw\../misc/lv_color.h **** LV_ATTRIBUTE_FAST_MEM static inline lv_color_t lv_color_mix_premult(uint16_t * premult_c1, lv_color
 494:..\..\..\arduinoLCD\test\Pain Drain\libraries\lvgl\src\draw\../misc/lv_color.h **** {
 495:..\..\..\arduinoLCD\test\Pain Drain\libraries\lvgl\src\draw\../misc/lv_color.h ****     lv_color_t ret;
 496:..\..\..\arduinoLCD\test\Pain Drain\libraries\lvgl\src\draw\../misc/lv_color.h **** #if LV_COLOR_DEPTH != 1
 497:..\..\..\arduinoLCD\test\Pain Drain\libraries\lvgl\src\draw\../misc/lv_color.h ****     /*LV_COLOR_DEPTH == 8 or 32*/
 498:..\..\..\arduinoLCD\test\Pain Drain\libraries\lvgl\src\draw\../misc/lv_color.h ****     LV_COLOR_SET_R(ret, LV_UDIV255(premult_c1[0] + LV_COLOR_GET_R(c2) * mix + LV_COLOR_MIX_ROUND_OF
 499:..\..\..\arduinoLCD\test\Pain Drain\libraries\lvgl\src\draw\../misc/lv_color.h ****     LV_COLOR_SET_G(ret, LV_UDIV255(premult_c1[1] + LV_COLOR_GET_G(c2) * mix + LV_COLOR_MIX_ROUND_OF
 500:..\..\..\arduinoLCD\test\Pain Drain\libraries\lvgl\src\draw\../misc/lv_color.h ****     LV_COLOR_SET_B(ret, LV_UDIV255(premult_c1[2] + LV_COLOR_GET_B(c2) * mix + LV_COLOR_MIX_ROUND_OF
 501:..\..\..\arduinoLCD\test\Pain Drain\libraries\lvgl\src\draw\../misc/lv_color.h ****     LV_COLOR_SET_A(ret, 0xFF);
 502:..\..\..\arduinoLCD\test\Pain Drain\libraries\lvgl\src\draw\../misc/lv_color.h **** #else
 503:..\..\..\arduinoLCD\test\Pain Drain\libraries\lvgl\src\draw\../misc/lv_color.h ****     /*LV_COLOR_DEPTH == 1*/
 504:..\..\..\arduinoLCD\test\Pain Drain\libraries\lvgl\src\draw\../misc/lv_color.h ****     /*Restore color1*/
 505:..\..\..\arduinoLCD\test\Pain Drain\libraries\lvgl\src\draw\../misc/lv_color.h ****     lv_color_t c1;
 506:..\..\..\arduinoLCD\test\Pain Drain\libraries\lvgl\src\draw\../misc/lv_color.h ****     LV_COLOR_SET_R(c1, premult_c1[0]);
 507:..\..\..\arduinoLCD\test\Pain Drain\libraries\lvgl\src\draw\../misc/lv_color.h ****     LV_COLOR_SET_G(c1, premult_c1[1]);
 508:..\..\..\arduinoLCD\test\Pain Drain\libraries\lvgl\src\draw\../misc/lv_color.h ****     LV_COLOR_SET_B(c1, premult_c1[2]);
 509:..\..\..\arduinoLCD\test\Pain Drain\libraries\lvgl\src\draw\../misc/lv_color.h ****     ret.full = mix > LV_OPA_50 ? c2.full : c1.full;
 510:..\..\..\arduinoLCD\test\Pain Drain\libraries\lvgl\src\draw\../misc/lv_color.h **** #endif
 511:..\..\..\arduinoLCD\test\Pain Drain\libraries\lvgl\src\draw\../misc/lv_color.h **** 
 512:..\..\..\arduinoLCD\test\Pain Drain\libraries\lvgl\src\draw\../misc/lv_color.h ****     return ret;
 513:..\..\..\arduinoLCD\test\Pain Drain\libraries\lvgl\src\draw\../misc/lv_color.h **** }
 514:..\..\..\arduinoLCD\test\Pain Drain\libraries\lvgl\src\draw\../misc/lv_color.h **** 
 515:..\..\..\arduinoLCD\test\Pain Drain\libraries\lvgl\src\draw\../misc/lv_color.h **** /**
 516:..\..\..\arduinoLCD\test\Pain Drain\libraries\lvgl\src\draw\../misc/lv_color.h ****  * Mix two colors. Both color can have alpha value.
 517:..\..\..\arduinoLCD\test\Pain Drain\libraries\lvgl\src\draw\../misc/lv_color.h ****  * @param bg_color background color
 518:..\..\..\arduinoLCD\test\Pain Drain\libraries\lvgl\src\draw\../misc/lv_color.h ****  * @param bg_opa alpha of the background color
 519:..\..\..\arduinoLCD\test\Pain Drain\libraries\lvgl\src\draw\../misc/lv_color.h ****  * @param fg_color foreground color
 520:..\..\..\arduinoLCD\test\Pain Drain\libraries\lvgl\src\draw\../misc/lv_color.h ****  * @param fg_opa alpha of the foreground color
 521:..\..\..\arduinoLCD\test\Pain Drain\libraries\lvgl\src\draw\../misc/lv_color.h ****  * @param res_color the result color
 522:..\..\..\arduinoLCD\test\Pain Drain\libraries\lvgl\src\draw\../misc/lv_color.h ****  * @param res_opa the result opacity
 523:..\..\..\arduinoLCD\test\Pain Drain\libraries\lvgl\src\draw\../misc/lv_color.h ****  */
 524:..\..\..\arduinoLCD\test\Pain Drain\libraries\lvgl\src\draw\../misc/lv_color.h **** LV_ATTRIBUTE_FAST_MEM static inline void lv_color_mix_with_alpha(lv_color_t bg_color, lv_opa_t bg_o
 525:..\..\..\arduinoLCD\test\Pain Drain\libraries\lvgl\src\draw\../misc/lv_color.h ****                                                                  lv_color_t fg_color, lv_opa_t fg_o
 526:..\..\..\arduinoLCD\test\Pain Drain\libraries\lvgl\src\draw\../misc/lv_color.h ****                                                                  lv_color_t * res_color, lv_opa_t *
 527:..\..\..\arduinoLCD\test\Pain Drain\libraries\lvgl\src\draw\../misc/lv_color.h **** {
 528:..\..\..\arduinoLCD\test\Pain Drain\libraries\lvgl\src\draw\../misc/lv_color.h ****     /*Pick the foreground if it's fully opaque or the Background is fully transparent*/
ARM GAS  C:\Users\haske\AppData\Local\Temp\ccF9IbRI.s 			page 12


 529:..\..\..\arduinoLCD\test\Pain Drain\libraries\lvgl\src\draw\../misc/lv_color.h ****     if(fg_opa >= LV_OPA_MAX || bg_opa <= LV_OPA_MIN) {
 530:..\..\..\arduinoLCD\test\Pain Drain\libraries\lvgl\src\draw\../misc/lv_color.h ****         res_color->full = fg_color.full;
 531:..\..\..\arduinoLCD\test\Pain Drain\libraries\lvgl\src\draw\../misc/lv_color.h ****         *res_opa = fg_opa;
 532:..\..\..\arduinoLCD\test\Pain Drain\libraries\lvgl\src\draw\../misc/lv_color.h ****     }
 533:..\..\..\arduinoLCD\test\Pain Drain\libraries\lvgl\src\draw\../misc/lv_color.h ****     /*Transparent foreground: use the Background*/
 534:..\..\..\arduinoLCD\test\Pain Drain\libraries\lvgl\src\draw\../misc/lv_color.h ****     else if(fg_opa <= LV_OPA_MIN) {
 535:..\..\..\arduinoLCD\test\Pain Drain\libraries\lvgl\src\draw\../misc/lv_color.h ****         res_color->full = bg_color.full;
 536:..\..\..\arduinoLCD\test\Pain Drain\libraries\lvgl\src\draw\../misc/lv_color.h ****         *res_opa = bg_opa;
 537:..\..\..\arduinoLCD\test\Pain Drain\libraries\lvgl\src\draw\../misc/lv_color.h ****     }
 538:..\..\..\arduinoLCD\test\Pain Drain\libraries\lvgl\src\draw\../misc/lv_color.h ****     /*Opaque background: use simple mix*/
 539:..\..\..\arduinoLCD\test\Pain Drain\libraries\lvgl\src\draw\../misc/lv_color.h ****     else if(bg_opa >= LV_OPA_MAX) {
 540:..\..\..\arduinoLCD\test\Pain Drain\libraries\lvgl\src\draw\../misc/lv_color.h ****         *res_color = lv_color_mix(fg_color, bg_color, fg_opa);
 541:..\..\..\arduinoLCD\test\Pain Drain\libraries\lvgl\src\draw\../misc/lv_color.h ****         *res_opa = LV_OPA_COVER;
 542:..\..\..\arduinoLCD\test\Pain Drain\libraries\lvgl\src\draw\../misc/lv_color.h ****     }
 543:..\..\..\arduinoLCD\test\Pain Drain\libraries\lvgl\src\draw\../misc/lv_color.h ****     /*Both colors have alpha. Expensive calculation need to be applied*/
 544:..\..\..\arduinoLCD\test\Pain Drain\libraries\lvgl\src\draw\../misc/lv_color.h ****     else {
 545:..\..\..\arduinoLCD\test\Pain Drain\libraries\lvgl\src\draw\../misc/lv_color.h ****         /*Save the parameters and the result. If they will be asked again don't compute again*/
 546:..\..\..\arduinoLCD\test\Pain Drain\libraries\lvgl\src\draw\../misc/lv_color.h ****         static lv_opa_t fg_opa_save     = 0;
 547:..\..\..\arduinoLCD\test\Pain Drain\libraries\lvgl\src\draw\../misc/lv_color.h ****         static lv_opa_t bg_opa_save     = 0;
 548:..\..\..\arduinoLCD\test\Pain Drain\libraries\lvgl\src\draw\../misc/lv_color.h ****         static lv_color_t fg_color_save = _LV_COLOR_ZERO_INITIALIZER;
 549:..\..\..\arduinoLCD\test\Pain Drain\libraries\lvgl\src\draw\../misc/lv_color.h ****         static lv_color_t bg_color_save = _LV_COLOR_ZERO_INITIALIZER;
 550:..\..\..\arduinoLCD\test\Pain Drain\libraries\lvgl\src\draw\../misc/lv_color.h ****         static lv_color_t res_color_saved = _LV_COLOR_ZERO_INITIALIZER;
 551:..\..\..\arduinoLCD\test\Pain Drain\libraries\lvgl\src\draw\../misc/lv_color.h ****         static lv_opa_t res_opa_saved = 0;
 552:..\..\..\arduinoLCD\test\Pain Drain\libraries\lvgl\src\draw\../misc/lv_color.h **** 
 553:..\..\..\arduinoLCD\test\Pain Drain\libraries\lvgl\src\draw\../misc/lv_color.h ****         if(fg_opa != fg_opa_save || bg_opa != bg_opa_save || fg_color.full != fg_color_save.full ||
 554:..\..\..\arduinoLCD\test\Pain Drain\libraries\lvgl\src\draw\../misc/lv_color.h ****            bg_color.full != bg_color_save.full) {
 555:..\..\..\arduinoLCD\test\Pain Drain\libraries\lvgl\src\draw\../misc/lv_color.h ****             fg_opa_save        = fg_opa;
 556:..\..\..\arduinoLCD\test\Pain Drain\libraries\lvgl\src\draw\../misc/lv_color.h ****             bg_opa_save        = bg_opa;
 557:..\..\..\arduinoLCD\test\Pain Drain\libraries\lvgl\src\draw\../misc/lv_color.h ****             fg_color_save.full = fg_color.full;
 558:..\..\..\arduinoLCD\test\Pain Drain\libraries\lvgl\src\draw\../misc/lv_color.h ****             bg_color_save.full = bg_color.full;
 559:..\..\..\arduinoLCD\test\Pain Drain\libraries\lvgl\src\draw\../misc/lv_color.h ****             /*Info:
 560:..\..\..\arduinoLCD\test\Pain Drain\libraries\lvgl\src\draw\../misc/lv_color.h ****              * https://en.wikipedia.org/wiki/Alpha_compositing#Analytical_derivation_of_the_over_op
 561:..\..\..\arduinoLCD\test\Pain Drain\libraries\lvgl\src\draw\../misc/lv_color.h ****             res_opa_saved = 255 - ((uint16_t)((uint16_t)(255 - fg_opa) * (255 - bg_opa)) >> 8);
 562:..\..\..\arduinoLCD\test\Pain Drain\libraries\lvgl\src\draw\../misc/lv_color.h ****             LV_ASSERT(res_opa_saved != 0);
 563:..\..\..\arduinoLCD\test\Pain Drain\libraries\lvgl\src\draw\../misc/lv_color.h ****             lv_opa_t ratio = (uint16_t)((uint16_t)fg_opa * 255) / res_opa_saved;
 564:..\..\..\arduinoLCD\test\Pain Drain\libraries\lvgl\src\draw\../misc/lv_color.h ****             res_color_saved = lv_color_mix(fg_color, bg_color, ratio);
 565:..\..\..\arduinoLCD\test\Pain Drain\libraries\lvgl\src\draw\../misc/lv_color.h **** 
 566:..\..\..\arduinoLCD\test\Pain Drain\libraries\lvgl\src\draw\../misc/lv_color.h ****         }
 567:..\..\..\arduinoLCD\test\Pain Drain\libraries\lvgl\src\draw\../misc/lv_color.h **** 
 568:..\..\..\arduinoLCD\test\Pain Drain\libraries\lvgl\src\draw\../misc/lv_color.h ****         res_color->full = res_color_saved.full;
 569:..\..\..\arduinoLCD\test\Pain Drain\libraries\lvgl\src\draw\../misc/lv_color.h ****         *res_opa = res_opa_saved;
 570:..\..\..\arduinoLCD\test\Pain Drain\libraries\lvgl\src\draw\../misc/lv_color.h ****     }
 571:..\..\..\arduinoLCD\test\Pain Drain\libraries\lvgl\src\draw\../misc/lv_color.h **** }
 572:..\..\..\arduinoLCD\test\Pain Drain\libraries\lvgl\src\draw\../misc/lv_color.h **** 
 573:..\..\..\arduinoLCD\test\Pain Drain\libraries\lvgl\src\draw\../misc/lv_color.h **** //! @endcond
 574:..\..\..\arduinoLCD\test\Pain Drain\libraries\lvgl\src\draw\../misc/lv_color.h **** 
 575:..\..\..\arduinoLCD\test\Pain Drain\libraries\lvgl\src\draw\../misc/lv_color.h **** /**
 576:..\..\..\arduinoLCD\test\Pain Drain\libraries\lvgl\src\draw\../misc/lv_color.h ****  * Get the brightness of a color
 577:..\..\..\arduinoLCD\test\Pain Drain\libraries\lvgl\src\draw\../misc/lv_color.h ****  * @param color a color
 578:..\..\..\arduinoLCD\test\Pain Drain\libraries\lvgl\src\draw\../misc/lv_color.h ****  * @return the brightness [0..255]
 579:..\..\..\arduinoLCD\test\Pain Drain\libraries\lvgl\src\draw\../misc/lv_color.h ****  */
 580:..\..\..\arduinoLCD\test\Pain Drain\libraries\lvgl\src\draw\../misc/lv_color.h **** static inline uint8_t lv_color_brightness(lv_color_t color)
 581:..\..\..\arduinoLCD\test\Pain Drain\libraries\lvgl\src\draw\../misc/lv_color.h **** {
 582:..\..\..\arduinoLCD\test\Pain Drain\libraries\lvgl\src\draw\../misc/lv_color.h ****     lv_color32_t c32;
 583:..\..\..\arduinoLCD\test\Pain Drain\libraries\lvgl\src\draw\../misc/lv_color.h ****     c32.full        = lv_color_to32(color);
 584:..\..\..\arduinoLCD\test\Pain Drain\libraries\lvgl\src\draw\../misc/lv_color.h ****     uint16_t bright = (uint16_t)(3u * LV_COLOR_GET_R32(c32) + LV_COLOR_GET_B32(c32) + 4u * LV_COLOR
 585:..\..\..\arduinoLCD\test\Pain Drain\libraries\lvgl\src\draw\../misc/lv_color.h ****     return (uint8_t)(bright >> 3);
ARM GAS  C:\Users\haske\AppData\Local\Temp\ccF9IbRI.s 			page 13


 586:..\..\..\arduinoLCD\test\Pain Drain\libraries\lvgl\src\draw\../misc/lv_color.h **** }
 587:..\..\..\arduinoLCD\test\Pain Drain\libraries\lvgl\src\draw\../misc/lv_color.h **** 
 588:..\..\..\arduinoLCD\test\Pain Drain\libraries\lvgl\src\draw\../misc/lv_color.h **** static inline lv_color_t lv_color_make(uint8_t r, uint8_t g, uint8_t b)
 589:..\..\..\arduinoLCD\test\Pain Drain\libraries\lvgl\src\draw\../misc/lv_color.h **** {
 590:..\..\..\arduinoLCD\test\Pain Drain\libraries\lvgl\src\draw\../misc/lv_color.h ****     return _LV_COLOR_MAKE_TYPE_HELPER LV_COLOR_MAKE(r, g, b);
  48              		.loc 2 590 0
  49 0004 4FF00004 		mov	r4, #0	@ movhi
  50              	.LVL2:
  51              	.LBE31:
  52              	.LBE30:
  53              	.LBE29:
  53:..\..\..\arduinoLCD\test\Pain Drain\libraries\lvgl\src\draw/lv_img_buf.c ****     lv_color_t p_color = lv_color_black();
  54              		.loc 1 53 0
  55 0008 ADF80440 		strh	r4, [sp, #4]	@ movhi
  54:..\..\..\arduinoLCD\test\Pain Drain\libraries\lvgl\src\draw/lv_img_buf.c ****     uint8_t * buf_u8 = (uint8_t *)dsc->data;
  56              		.loc 1 54 0
  57 000c 8568     		ldr	r5, [r0, #8]
  58              	.LVL3:
  55:..\..\..\arduinoLCD\test\Pain Drain\libraries\lvgl\src\draw/lv_img_buf.c **** 
  56:..\..\..\arduinoLCD\test\Pain Drain\libraries\lvgl\src\draw/lv_img_buf.c ****     if(dsc->header.cf == LV_IMG_CF_TRUE_COLOR || dsc->header.cf == LV_IMG_CF_TRUE_COLOR_CHROMA_KEYE
  59              		.loc 1 56 0
  60 000e 0478     		ldrb	r4, [r0]	@ zero_extendqisi2
  61 0010 04F01F04 		and	r4, r4, #31
  62 0014 042C     		cmp	r4, #4
  63 0016 05D0     		beq	.L2
  64              		.loc 1 56 0 is_stmt 0 discriminator 1
  65 0018 062C     		cmp	r4, #6
  66 001a 03D0     		beq	.L2
  67              		.loc 1 56 0 discriminator 2
  68 001c 052C     		cmp	r4, #5
  69 001e 01D0     		beq	.L2
  57:..\..\..\arduinoLCD\test\Pain Drain\libraries\lvgl\src\draw/lv_img_buf.c ****        dsc->header.cf == LV_IMG_CF_TRUE_COLOR_ALPHA || dsc->header.cf == LV_IMG_CF_RGB565A8) {
  70              		.loc 1 57 0 is_stmt 1
  71 0020 142C     		cmp	r4, #20
  72 0022 1BD1     		bne	.L3
  73              	.L2:
  74 0024 1746     		mov	r7, r2
  75 0026 0E46     		mov	r6, r1
  76 0028 0446     		mov	r4, r0
  77              	.LBB32:
  58:..\..\..\arduinoLCD\test\Pain Drain\libraries\lvgl\src\draw/lv_img_buf.c ****         uint8_t px_size = lv_img_cf_get_px_size(dsc->header.cf) >> 3;
  78              		.loc 1 58 0
  79 002a 0078     		ldrb	r0, [r0]	@ zero_extendqisi2
  80              	.LVL4:
  81 002c 00F01F00 		and	r0, r0, #31
  82 0030 FFF7FEFF 		bl	lv_img_cf_get_px_size
  83              	.LVL5:
  84 0034 C0F3C700 		ubfx	r0, r0, #3, #8
  85              	.LVL6:
  59:..\..\..\arduinoLCD\test\Pain Drain\libraries\lvgl\src\draw/lv_img_buf.c ****         uint32_t px     = dsc->header.w * y * px_size + x * px_size;
  86              		.loc 1 59 0
  87 0038 2368     		ldr	r3, [r4]
  88 003a C3F38A23 		ubfx	r3, r3, #10, #11
  89 003e 07FB0362 		mla	r2, r7, r3, r6
  90              	.LVL7:
  60:..\..\..\arduinoLCD\test\Pain Drain\libraries\lvgl\src\draw/lv_img_buf.c ****         lv_memcpy_small(&p_color, &buf_u8[px], sizeof(lv_color_t));
  91              		.loc 1 60 0
ARM GAS  C:\Users\haske\AppData\Local\Temp\ccF9IbRI.s 			page 14


  92 0042 00FB0250 		mla	r0, r0, r2, r5
  93              	.LVL8:
  94              	.LBB33:
  95              	.LBB34:
  96              		.file 3 "..\\..\\..\\arduinoLCD\\test\\Pain Drain\\libraries\\lvgl\\src\\draw\\../misc/lv_mem.h"
   1:..\..\..\arduinoLCD\test\Pain Drain\libraries\lvgl\src\draw\../misc/lv_mem.h **** /**
   2:..\..\..\arduinoLCD\test\Pain Drain\libraries\lvgl\src\draw\../misc/lv_mem.h ****  * @file lv_mem.h
   3:..\..\..\arduinoLCD\test\Pain Drain\libraries\lvgl\src\draw\../misc/lv_mem.h ****  *
   4:..\..\..\arduinoLCD\test\Pain Drain\libraries\lvgl\src\draw\../misc/lv_mem.h ****  */
   5:..\..\..\arduinoLCD\test\Pain Drain\libraries\lvgl\src\draw\../misc/lv_mem.h **** 
   6:..\..\..\arduinoLCD\test\Pain Drain\libraries\lvgl\src\draw\../misc/lv_mem.h **** #ifndef LV_MEM_H
   7:..\..\..\arduinoLCD\test\Pain Drain\libraries\lvgl\src\draw\../misc/lv_mem.h **** #define LV_MEM_H
   8:..\..\..\arduinoLCD\test\Pain Drain\libraries\lvgl\src\draw\../misc/lv_mem.h **** 
   9:..\..\..\arduinoLCD\test\Pain Drain\libraries\lvgl\src\draw\../misc/lv_mem.h **** #ifdef __cplusplus
  10:..\..\..\arduinoLCD\test\Pain Drain\libraries\lvgl\src\draw\../misc/lv_mem.h **** extern "C" {
  11:..\..\..\arduinoLCD\test\Pain Drain\libraries\lvgl\src\draw\../misc/lv_mem.h **** #endif
  12:..\..\..\arduinoLCD\test\Pain Drain\libraries\lvgl\src\draw\../misc/lv_mem.h **** 
  13:..\..\..\arduinoLCD\test\Pain Drain\libraries\lvgl\src\draw\../misc/lv_mem.h **** /*********************
  14:..\..\..\arduinoLCD\test\Pain Drain\libraries\lvgl\src\draw\../misc/lv_mem.h ****  *      INCLUDES
  15:..\..\..\arduinoLCD\test\Pain Drain\libraries\lvgl\src\draw\../misc/lv_mem.h ****  *********************/
  16:..\..\..\arduinoLCD\test\Pain Drain\libraries\lvgl\src\draw\../misc/lv_mem.h **** #include "../lv_conf_internal.h"
  17:..\..\..\arduinoLCD\test\Pain Drain\libraries\lvgl\src\draw\../misc/lv_mem.h **** 
  18:..\..\..\arduinoLCD\test\Pain Drain\libraries\lvgl\src\draw\../misc/lv_mem.h **** #include <stdint.h>
  19:..\..\..\arduinoLCD\test\Pain Drain\libraries\lvgl\src\draw\../misc/lv_mem.h **** #include <stddef.h>
  20:..\..\..\arduinoLCD\test\Pain Drain\libraries\lvgl\src\draw\../misc/lv_mem.h **** #include <string.h>
  21:..\..\..\arduinoLCD\test\Pain Drain\libraries\lvgl\src\draw\../misc/lv_mem.h **** 
  22:..\..\..\arduinoLCD\test\Pain Drain\libraries\lvgl\src\draw\../misc/lv_mem.h **** #include "lv_types.h"
  23:..\..\..\arduinoLCD\test\Pain Drain\libraries\lvgl\src\draw\../misc/lv_mem.h **** 
  24:..\..\..\arduinoLCD\test\Pain Drain\libraries\lvgl\src\draw\../misc/lv_mem.h **** /*********************
  25:..\..\..\arduinoLCD\test\Pain Drain\libraries\lvgl\src\draw\../misc/lv_mem.h ****  *      DEFINES
  26:..\..\..\arduinoLCD\test\Pain Drain\libraries\lvgl\src\draw\../misc/lv_mem.h ****  *********************/
  27:..\..\..\arduinoLCD\test\Pain Drain\libraries\lvgl\src\draw\../misc/lv_mem.h **** 
  28:..\..\..\arduinoLCD\test\Pain Drain\libraries\lvgl\src\draw\../misc/lv_mem.h **** /**********************
  29:..\..\..\arduinoLCD\test\Pain Drain\libraries\lvgl\src\draw\../misc/lv_mem.h ****  *      TYPEDEFS
  30:..\..\..\arduinoLCD\test\Pain Drain\libraries\lvgl\src\draw\../misc/lv_mem.h ****  **********************/
  31:..\..\..\arduinoLCD\test\Pain Drain\libraries\lvgl\src\draw\../misc/lv_mem.h **** 
  32:..\..\..\arduinoLCD\test\Pain Drain\libraries\lvgl\src\draw\../misc/lv_mem.h **** /**
  33:..\..\..\arduinoLCD\test\Pain Drain\libraries\lvgl\src\draw\../misc/lv_mem.h ****  * Heap information structure.
  34:..\..\..\arduinoLCD\test\Pain Drain\libraries\lvgl\src\draw\../misc/lv_mem.h ****  */
  35:..\..\..\arduinoLCD\test\Pain Drain\libraries\lvgl\src\draw\../misc/lv_mem.h **** typedef struct {
  36:..\..\..\arduinoLCD\test\Pain Drain\libraries\lvgl\src\draw\../misc/lv_mem.h ****     uint32_t total_size; /**< Total heap size*/
  37:..\..\..\arduinoLCD\test\Pain Drain\libraries\lvgl\src\draw\../misc/lv_mem.h ****     uint32_t free_cnt;
  38:..\..\..\arduinoLCD\test\Pain Drain\libraries\lvgl\src\draw\../misc/lv_mem.h ****     uint32_t free_size; /**< Size of available memory*/
  39:..\..\..\arduinoLCD\test\Pain Drain\libraries\lvgl\src\draw\../misc/lv_mem.h ****     uint32_t free_biggest_size;
  40:..\..\..\arduinoLCD\test\Pain Drain\libraries\lvgl\src\draw\../misc/lv_mem.h ****     uint32_t used_cnt;
  41:..\..\..\arduinoLCD\test\Pain Drain\libraries\lvgl\src\draw\../misc/lv_mem.h ****     uint32_t max_used; /**< Max size of Heap memory used*/
  42:..\..\..\arduinoLCD\test\Pain Drain\libraries\lvgl\src\draw\../misc/lv_mem.h ****     uint8_t used_pct; /**< Percentage used*/
  43:..\..\..\arduinoLCD\test\Pain Drain\libraries\lvgl\src\draw\../misc/lv_mem.h ****     uint8_t frag_pct; /**< Amount of fragmentation*/
  44:..\..\..\arduinoLCD\test\Pain Drain\libraries\lvgl\src\draw\../misc/lv_mem.h **** } lv_mem_monitor_t;
  45:..\..\..\arduinoLCD\test\Pain Drain\libraries\lvgl\src\draw\../misc/lv_mem.h **** 
  46:..\..\..\arduinoLCD\test\Pain Drain\libraries\lvgl\src\draw\../misc/lv_mem.h **** typedef struct {
  47:..\..\..\arduinoLCD\test\Pain Drain\libraries\lvgl\src\draw\../misc/lv_mem.h ****     void * p;
  48:..\..\..\arduinoLCD\test\Pain Drain\libraries\lvgl\src\draw\../misc/lv_mem.h ****     uint16_t size;
  49:..\..\..\arduinoLCD\test\Pain Drain\libraries\lvgl\src\draw\../misc/lv_mem.h ****     uint8_t used : 1;
  50:..\..\..\arduinoLCD\test\Pain Drain\libraries\lvgl\src\draw\../misc/lv_mem.h **** } lv_mem_buf_t;
  51:..\..\..\arduinoLCD\test\Pain Drain\libraries\lvgl\src\draw\../misc/lv_mem.h **** 
  52:..\..\..\arduinoLCD\test\Pain Drain\libraries\lvgl\src\draw\../misc/lv_mem.h **** typedef lv_mem_buf_t lv_mem_buf_arr_t[LV_MEM_BUF_MAX_NUM];
ARM GAS  C:\Users\haske\AppData\Local\Temp\ccF9IbRI.s 			page 15


  53:..\..\..\arduinoLCD\test\Pain Drain\libraries\lvgl\src\draw\../misc/lv_mem.h **** 
  54:..\..\..\arduinoLCD\test\Pain Drain\libraries\lvgl\src\draw\../misc/lv_mem.h **** /**********************
  55:..\..\..\arduinoLCD\test\Pain Drain\libraries\lvgl\src\draw\../misc/lv_mem.h ****  * GLOBAL PROTOTYPES
  56:..\..\..\arduinoLCD\test\Pain Drain\libraries\lvgl\src\draw\../misc/lv_mem.h ****  **********************/
  57:..\..\..\arduinoLCD\test\Pain Drain\libraries\lvgl\src\draw\../misc/lv_mem.h **** 
  58:..\..\..\arduinoLCD\test\Pain Drain\libraries\lvgl\src\draw\../misc/lv_mem.h **** /**
  59:..\..\..\arduinoLCD\test\Pain Drain\libraries\lvgl\src\draw\../misc/lv_mem.h ****  * Initialize the dyn_mem module (work memory and other variables)
  60:..\..\..\arduinoLCD\test\Pain Drain\libraries\lvgl\src\draw\../misc/lv_mem.h ****  */
  61:..\..\..\arduinoLCD\test\Pain Drain\libraries\lvgl\src\draw\../misc/lv_mem.h **** void lv_mem_init(void);
  62:..\..\..\arduinoLCD\test\Pain Drain\libraries\lvgl\src\draw\../misc/lv_mem.h **** 
  63:..\..\..\arduinoLCD\test\Pain Drain\libraries\lvgl\src\draw\../misc/lv_mem.h **** /**
  64:..\..\..\arduinoLCD\test\Pain Drain\libraries\lvgl\src\draw\../misc/lv_mem.h ****  * Clean up the memory buffer which frees all the allocated memories.
  65:..\..\..\arduinoLCD\test\Pain Drain\libraries\lvgl\src\draw\../misc/lv_mem.h ****  * @note It work only if `LV_MEM_CUSTOM == 0`
  66:..\..\..\arduinoLCD\test\Pain Drain\libraries\lvgl\src\draw\../misc/lv_mem.h ****  */
  67:..\..\..\arduinoLCD\test\Pain Drain\libraries\lvgl\src\draw\../misc/lv_mem.h **** void lv_mem_deinit(void);
  68:..\..\..\arduinoLCD\test\Pain Drain\libraries\lvgl\src\draw\../misc/lv_mem.h **** 
  69:..\..\..\arduinoLCD\test\Pain Drain\libraries\lvgl\src\draw\../misc/lv_mem.h **** /**
  70:..\..\..\arduinoLCD\test\Pain Drain\libraries\lvgl\src\draw\../misc/lv_mem.h ****  * Allocate a memory dynamically
  71:..\..\..\arduinoLCD\test\Pain Drain\libraries\lvgl\src\draw\../misc/lv_mem.h ****  * @param size size of the memory to allocate in bytes
  72:..\..\..\arduinoLCD\test\Pain Drain\libraries\lvgl\src\draw\../misc/lv_mem.h ****  * @return pointer to the allocated memory
  73:..\..\..\arduinoLCD\test\Pain Drain\libraries\lvgl\src\draw\../misc/lv_mem.h ****  */
  74:..\..\..\arduinoLCD\test\Pain Drain\libraries\lvgl\src\draw\../misc/lv_mem.h **** void * lv_mem_alloc(size_t size);
  75:..\..\..\arduinoLCD\test\Pain Drain\libraries\lvgl\src\draw\../misc/lv_mem.h **** 
  76:..\..\..\arduinoLCD\test\Pain Drain\libraries\lvgl\src\draw\../misc/lv_mem.h **** /**
  77:..\..\..\arduinoLCD\test\Pain Drain\libraries\lvgl\src\draw\../misc/lv_mem.h ****  * Free an allocated data
  78:..\..\..\arduinoLCD\test\Pain Drain\libraries\lvgl\src\draw\../misc/lv_mem.h ****  * @param data pointer to an allocated memory
  79:..\..\..\arduinoLCD\test\Pain Drain\libraries\lvgl\src\draw\../misc/lv_mem.h ****  */
  80:..\..\..\arduinoLCD\test\Pain Drain\libraries\lvgl\src\draw\../misc/lv_mem.h **** void lv_mem_free(void * data);
  81:..\..\..\arduinoLCD\test\Pain Drain\libraries\lvgl\src\draw\../misc/lv_mem.h **** 
  82:..\..\..\arduinoLCD\test\Pain Drain\libraries\lvgl\src\draw\../misc/lv_mem.h **** /**
  83:..\..\..\arduinoLCD\test\Pain Drain\libraries\lvgl\src\draw\../misc/lv_mem.h ****  * Reallocate a memory with a new size. The old content will be kept.
  84:..\..\..\arduinoLCD\test\Pain Drain\libraries\lvgl\src\draw\../misc/lv_mem.h ****  * @param data pointer to an allocated memory.
  85:..\..\..\arduinoLCD\test\Pain Drain\libraries\lvgl\src\draw\../misc/lv_mem.h ****  * Its content will be copied to the new memory block and freed
  86:..\..\..\arduinoLCD\test\Pain Drain\libraries\lvgl\src\draw\../misc/lv_mem.h ****  * @param new_size the desired new size in byte
  87:..\..\..\arduinoLCD\test\Pain Drain\libraries\lvgl\src\draw\../misc/lv_mem.h ****  * @return pointer to the new memory, NULL on failure
  88:..\..\..\arduinoLCD\test\Pain Drain\libraries\lvgl\src\draw\../misc/lv_mem.h ****  */
  89:..\..\..\arduinoLCD\test\Pain Drain\libraries\lvgl\src\draw\../misc/lv_mem.h **** void * lv_mem_realloc(void * data_p, size_t new_size);
  90:..\..\..\arduinoLCD\test\Pain Drain\libraries\lvgl\src\draw\../misc/lv_mem.h **** 
  91:..\..\..\arduinoLCD\test\Pain Drain\libraries\lvgl\src\draw\../misc/lv_mem.h **** /**
  92:..\..\..\arduinoLCD\test\Pain Drain\libraries\lvgl\src\draw\../misc/lv_mem.h ****  *
  93:..\..\..\arduinoLCD\test\Pain Drain\libraries\lvgl\src\draw\../misc/lv_mem.h ****  * @return
  94:..\..\..\arduinoLCD\test\Pain Drain\libraries\lvgl\src\draw\../misc/lv_mem.h ****  */
  95:..\..\..\arduinoLCD\test\Pain Drain\libraries\lvgl\src\draw\../misc/lv_mem.h **** lv_res_t lv_mem_test(void);
  96:..\..\..\arduinoLCD\test\Pain Drain\libraries\lvgl\src\draw\../misc/lv_mem.h **** 
  97:..\..\..\arduinoLCD\test\Pain Drain\libraries\lvgl\src\draw\../misc/lv_mem.h **** /**
  98:..\..\..\arduinoLCD\test\Pain Drain\libraries\lvgl\src\draw\../misc/lv_mem.h ****  * Give information about the work memory of dynamic allocation
  99:..\..\..\arduinoLCD\test\Pain Drain\libraries\lvgl\src\draw\../misc/lv_mem.h ****  * @param mon_p pointer to a lv_mem_monitor_t variable,
 100:..\..\..\arduinoLCD\test\Pain Drain\libraries\lvgl\src\draw\../misc/lv_mem.h ****  *              the result of the analysis will be stored here
 101:..\..\..\arduinoLCD\test\Pain Drain\libraries\lvgl\src\draw\../misc/lv_mem.h ****  */
 102:..\..\..\arduinoLCD\test\Pain Drain\libraries\lvgl\src\draw\../misc/lv_mem.h **** void lv_mem_monitor(lv_mem_monitor_t * mon_p);
 103:..\..\..\arduinoLCD\test\Pain Drain\libraries\lvgl\src\draw\../misc/lv_mem.h **** 
 104:..\..\..\arduinoLCD\test\Pain Drain\libraries\lvgl\src\draw\../misc/lv_mem.h **** 
 105:..\..\..\arduinoLCD\test\Pain Drain\libraries\lvgl\src\draw\../misc/lv_mem.h **** /**
 106:..\..\..\arduinoLCD\test\Pain Drain\libraries\lvgl\src\draw\../misc/lv_mem.h ****  * Get a temporal buffer with the given size.
 107:..\..\..\arduinoLCD\test\Pain Drain\libraries\lvgl\src\draw\../misc/lv_mem.h ****  * @param size the required size
 108:..\..\..\arduinoLCD\test\Pain Drain\libraries\lvgl\src\draw\../misc/lv_mem.h ****  */
 109:..\..\..\arduinoLCD\test\Pain Drain\libraries\lvgl\src\draw\../misc/lv_mem.h **** void * lv_mem_buf_get(uint32_t size);
ARM GAS  C:\Users\haske\AppData\Local\Temp\ccF9IbRI.s 			page 16


 110:..\..\..\arduinoLCD\test\Pain Drain\libraries\lvgl\src\draw\../misc/lv_mem.h **** 
 111:..\..\..\arduinoLCD\test\Pain Drain\libraries\lvgl\src\draw\../misc/lv_mem.h **** /**
 112:..\..\..\arduinoLCD\test\Pain Drain\libraries\lvgl\src\draw\../misc/lv_mem.h ****  * Release a memory buffer
 113:..\..\..\arduinoLCD\test\Pain Drain\libraries\lvgl\src\draw\../misc/lv_mem.h ****  * @param p buffer to release
 114:..\..\..\arduinoLCD\test\Pain Drain\libraries\lvgl\src\draw\../misc/lv_mem.h ****  */
 115:..\..\..\arduinoLCD\test\Pain Drain\libraries\lvgl\src\draw\../misc/lv_mem.h **** void lv_mem_buf_release(void * p);
 116:..\..\..\arduinoLCD\test\Pain Drain\libraries\lvgl\src\draw\../misc/lv_mem.h **** 
 117:..\..\..\arduinoLCD\test\Pain Drain\libraries\lvgl\src\draw\../misc/lv_mem.h **** /**
 118:..\..\..\arduinoLCD\test\Pain Drain\libraries\lvgl\src\draw\../misc/lv_mem.h ****  * Free all memory buffers
 119:..\..\..\arduinoLCD\test\Pain Drain\libraries\lvgl\src\draw\../misc/lv_mem.h ****  */
 120:..\..\..\arduinoLCD\test\Pain Drain\libraries\lvgl\src\draw\../misc/lv_mem.h **** void lv_mem_buf_free_all(void);
 121:..\..\..\arduinoLCD\test\Pain Drain\libraries\lvgl\src\draw\../misc/lv_mem.h **** 
 122:..\..\..\arduinoLCD\test\Pain Drain\libraries\lvgl\src\draw\../misc/lv_mem.h **** //! @cond Doxygen_Suppress
 123:..\..\..\arduinoLCD\test\Pain Drain\libraries\lvgl\src\draw\../misc/lv_mem.h **** 
 124:..\..\..\arduinoLCD\test\Pain Drain\libraries\lvgl\src\draw\../misc/lv_mem.h **** #if LV_MEMCPY_MEMSET_STD
 125:..\..\..\arduinoLCD\test\Pain Drain\libraries\lvgl\src\draw\../misc/lv_mem.h **** 
 126:..\..\..\arduinoLCD\test\Pain Drain\libraries\lvgl\src\draw\../misc/lv_mem.h **** /**
 127:..\..\..\arduinoLCD\test\Pain Drain\libraries\lvgl\src\draw\../misc/lv_mem.h ****  * Wrapper for the standard memcpy
 128:..\..\..\arduinoLCD\test\Pain Drain\libraries\lvgl\src\draw\../misc/lv_mem.h ****  * @param dst pointer to the destination buffer
 129:..\..\..\arduinoLCD\test\Pain Drain\libraries\lvgl\src\draw\../misc/lv_mem.h ****  * @param src pointer to the source buffer
 130:..\..\..\arduinoLCD\test\Pain Drain\libraries\lvgl\src\draw\../misc/lv_mem.h ****  * @param len number of byte to copy
 131:..\..\..\arduinoLCD\test\Pain Drain\libraries\lvgl\src\draw\../misc/lv_mem.h ****  */
 132:..\..\..\arduinoLCD\test\Pain Drain\libraries\lvgl\src\draw\../misc/lv_mem.h **** static inline void * lv_memcpy(void * dst, const void * src, size_t len)
 133:..\..\..\arduinoLCD\test\Pain Drain\libraries\lvgl\src\draw\../misc/lv_mem.h **** {
 134:..\..\..\arduinoLCD\test\Pain Drain\libraries\lvgl\src\draw\../misc/lv_mem.h ****     return memcpy(dst, src, len);
 135:..\..\..\arduinoLCD\test\Pain Drain\libraries\lvgl\src\draw\../misc/lv_mem.h **** }
 136:..\..\..\arduinoLCD\test\Pain Drain\libraries\lvgl\src\draw\../misc/lv_mem.h **** 
 137:..\..\..\arduinoLCD\test\Pain Drain\libraries\lvgl\src\draw\../misc/lv_mem.h **** /**
 138:..\..\..\arduinoLCD\test\Pain Drain\libraries\lvgl\src\draw\../misc/lv_mem.h ****  * Wrapper for the standard memcpy
 139:..\..\..\arduinoLCD\test\Pain Drain\libraries\lvgl\src\draw\../misc/lv_mem.h ****  * @param dst pointer to the destination buffer
 140:..\..\..\arduinoLCD\test\Pain Drain\libraries\lvgl\src\draw\../misc/lv_mem.h ****  * @param src pointer to the source buffer
 141:..\..\..\arduinoLCD\test\Pain Drain\libraries\lvgl\src\draw\../misc/lv_mem.h ****  * @param len number of byte to copy
 142:..\..\..\arduinoLCD\test\Pain Drain\libraries\lvgl\src\draw\../misc/lv_mem.h ****  */
 143:..\..\..\arduinoLCD\test\Pain Drain\libraries\lvgl\src\draw\../misc/lv_mem.h **** static inline void * lv_memcpy_small(void * dst, const void * src, size_t len)
 144:..\..\..\arduinoLCD\test\Pain Drain\libraries\lvgl\src\draw\../misc/lv_mem.h **** {
 145:..\..\..\arduinoLCD\test\Pain Drain\libraries\lvgl\src\draw\../misc/lv_mem.h ****     return memcpy(dst, src, len);
 146:..\..\..\arduinoLCD\test\Pain Drain\libraries\lvgl\src\draw\../misc/lv_mem.h **** }
 147:..\..\..\arduinoLCD\test\Pain Drain\libraries\lvgl\src\draw\../misc/lv_mem.h **** 
 148:..\..\..\arduinoLCD\test\Pain Drain\libraries\lvgl\src\draw\../misc/lv_mem.h **** /**
 149:..\..\..\arduinoLCD\test\Pain Drain\libraries\lvgl\src\draw\../misc/lv_mem.h ****  * Wrapper for the standard memset
 150:..\..\..\arduinoLCD\test\Pain Drain\libraries\lvgl\src\draw\../misc/lv_mem.h ****  * @param dst pointer to the destination buffer
 151:..\..\..\arduinoLCD\test\Pain Drain\libraries\lvgl\src\draw\../misc/lv_mem.h ****  * @param v value to set [0..255]
 152:..\..\..\arduinoLCD\test\Pain Drain\libraries\lvgl\src\draw\../misc/lv_mem.h ****  * @param len number of byte to set
 153:..\..\..\arduinoLCD\test\Pain Drain\libraries\lvgl\src\draw\../misc/lv_mem.h ****  */
 154:..\..\..\arduinoLCD\test\Pain Drain\libraries\lvgl\src\draw\../misc/lv_mem.h **** static inline void lv_memset(void * dst, uint8_t v, size_t len)
 155:..\..\..\arduinoLCD\test\Pain Drain\libraries\lvgl\src\draw\../misc/lv_mem.h **** {
 156:..\..\..\arduinoLCD\test\Pain Drain\libraries\lvgl\src\draw\../misc/lv_mem.h ****     memset(dst, v, len);
 157:..\..\..\arduinoLCD\test\Pain Drain\libraries\lvgl\src\draw\../misc/lv_mem.h **** }
 158:..\..\..\arduinoLCD\test\Pain Drain\libraries\lvgl\src\draw\../misc/lv_mem.h **** 
 159:..\..\..\arduinoLCD\test\Pain Drain\libraries\lvgl\src\draw\../misc/lv_mem.h **** /**
 160:..\..\..\arduinoLCD\test\Pain Drain\libraries\lvgl\src\draw\../misc/lv_mem.h ****  * Wrapper for the standard memset with fixed 0x00 value
 161:..\..\..\arduinoLCD\test\Pain Drain\libraries\lvgl\src\draw\../misc/lv_mem.h ****  * @param dst pointer to the destination buffer
 162:..\..\..\arduinoLCD\test\Pain Drain\libraries\lvgl\src\draw\../misc/lv_mem.h ****  * @param len number of byte to set
 163:..\..\..\arduinoLCD\test\Pain Drain\libraries\lvgl\src\draw\../misc/lv_mem.h ****  */
 164:..\..\..\arduinoLCD\test\Pain Drain\libraries\lvgl\src\draw\../misc/lv_mem.h **** static inline void lv_memset_00(void * dst, size_t len)
 165:..\..\..\arduinoLCD\test\Pain Drain\libraries\lvgl\src\draw\../misc/lv_mem.h **** {
 166:..\..\..\arduinoLCD\test\Pain Drain\libraries\lvgl\src\draw\../misc/lv_mem.h ****     memset(dst, 0x00, len);
ARM GAS  C:\Users\haske\AppData\Local\Temp\ccF9IbRI.s 			page 17


 167:..\..\..\arduinoLCD\test\Pain Drain\libraries\lvgl\src\draw\../misc/lv_mem.h **** }
 168:..\..\..\arduinoLCD\test\Pain Drain\libraries\lvgl\src\draw\../misc/lv_mem.h **** 
 169:..\..\..\arduinoLCD\test\Pain Drain\libraries\lvgl\src\draw\../misc/lv_mem.h **** /**
 170:..\..\..\arduinoLCD\test\Pain Drain\libraries\lvgl\src\draw\../misc/lv_mem.h ****  * Wrapper for the standard memset with fixed 0xFF value
 171:..\..\..\arduinoLCD\test\Pain Drain\libraries\lvgl\src\draw\../misc/lv_mem.h ****  * @param dst pointer to the destination buffer
 172:..\..\..\arduinoLCD\test\Pain Drain\libraries\lvgl\src\draw\../misc/lv_mem.h ****  * @param len number of byte to set
 173:..\..\..\arduinoLCD\test\Pain Drain\libraries\lvgl\src\draw\../misc/lv_mem.h ****  */
 174:..\..\..\arduinoLCD\test\Pain Drain\libraries\lvgl\src\draw\../misc/lv_mem.h **** static inline void lv_memset_ff(void * dst, size_t len)
 175:..\..\..\arduinoLCD\test\Pain Drain\libraries\lvgl\src\draw\../misc/lv_mem.h **** {
 176:..\..\..\arduinoLCD\test\Pain Drain\libraries\lvgl\src\draw\../misc/lv_mem.h ****     memset(dst, 0xFF, len);
 177:..\..\..\arduinoLCD\test\Pain Drain\libraries\lvgl\src\draw\../misc/lv_mem.h **** }
 178:..\..\..\arduinoLCD\test\Pain Drain\libraries\lvgl\src\draw\../misc/lv_mem.h **** 
 179:..\..\..\arduinoLCD\test\Pain Drain\libraries\lvgl\src\draw\../misc/lv_mem.h **** #else
 180:..\..\..\arduinoLCD\test\Pain Drain\libraries\lvgl\src\draw\../misc/lv_mem.h **** /**
 181:..\..\..\arduinoLCD\test\Pain Drain\libraries\lvgl\src\draw\../misc/lv_mem.h ****  * Same as `memcpy` but optimized for 4 byte operation.
 182:..\..\..\arduinoLCD\test\Pain Drain\libraries\lvgl\src\draw\../misc/lv_mem.h ****  * @param dst pointer to the destination buffer
 183:..\..\..\arduinoLCD\test\Pain Drain\libraries\lvgl\src\draw\../misc/lv_mem.h ****  * @param src pointer to the source buffer
 184:..\..\..\arduinoLCD\test\Pain Drain\libraries\lvgl\src\draw\../misc/lv_mem.h ****  * @param len number of byte to copy
 185:..\..\..\arduinoLCD\test\Pain Drain\libraries\lvgl\src\draw\../misc/lv_mem.h ****  */
 186:..\..\..\arduinoLCD\test\Pain Drain\libraries\lvgl\src\draw\../misc/lv_mem.h **** LV_ATTRIBUTE_FAST_MEM void * lv_memcpy(void * dst, const void * src, size_t len);
 187:..\..\..\arduinoLCD\test\Pain Drain\libraries\lvgl\src\draw\../misc/lv_mem.h **** 
 188:..\..\..\arduinoLCD\test\Pain Drain\libraries\lvgl\src\draw\../misc/lv_mem.h **** /**
 189:..\..\..\arduinoLCD\test\Pain Drain\libraries\lvgl\src\draw\../misc/lv_mem.h ****  * Same as `memcpy` but optimized to copy only a few bytes.
 190:..\..\..\arduinoLCD\test\Pain Drain\libraries\lvgl\src\draw\../misc/lv_mem.h ****  * @param dst pointer to the destination buffer
 191:..\..\..\arduinoLCD\test\Pain Drain\libraries\lvgl\src\draw\../misc/lv_mem.h ****  * @param src pointer to the source buffer
 192:..\..\..\arduinoLCD\test\Pain Drain\libraries\lvgl\src\draw\../misc/lv_mem.h ****  * @param len number of byte to copy
 193:..\..\..\arduinoLCD\test\Pain Drain\libraries\lvgl\src\draw\../misc/lv_mem.h ****  */
 194:..\..\..\arduinoLCD\test\Pain Drain\libraries\lvgl\src\draw\../misc/lv_mem.h **** LV_ATTRIBUTE_FAST_MEM static inline void * lv_memcpy_small(void * dst, const void * src, size_t len
 195:..\..\..\arduinoLCD\test\Pain Drain\libraries\lvgl\src\draw\../misc/lv_mem.h **** {
 196:..\..\..\arduinoLCD\test\Pain Drain\libraries\lvgl\src\draw\../misc/lv_mem.h ****     uint8_t * d8 = (uint8_t *)dst;
  97              		.loc 3 196 0
  98 0046 01AA     		add	r2, sp, #4
  99              	.LVL9:
 100              	.LBE34:
 101              	.LBE33:
 102              		.loc 1 60 0
 103 0048 0223     		movs	r3, #2
 104 004a 04E0     		b	.L4
 105              	.LVL10:
 106              	.L5:
 107              	.LBB36:
 108              	.LBB35:
 197:..\..\..\arduinoLCD\test\Pain Drain\libraries\lvgl\src\draw\../misc/lv_mem.h ****     const uint8_t * s8 = (const uint8_t *)src;
 198:..\..\..\arduinoLCD\test\Pain Drain\libraries\lvgl\src\draw\../misc/lv_mem.h **** 
 199:..\..\..\arduinoLCD\test\Pain Drain\libraries\lvgl\src\draw\../misc/lv_mem.h ****     while(len) {
 200:..\..\..\arduinoLCD\test\Pain Drain\libraries\lvgl\src\draw\../misc/lv_mem.h ****         *d8 = *s8;
 109              		.loc 3 200 0
 110 004c 10F8011B 		ldrb	r1, [r0], #1	@ zero_extendqisi2
 111              	.LVL11:
 112 0050 02F8011B 		strb	r1, [r2], #1
 113              	.LVL12:
 201:..\..\..\arduinoLCD\test\Pain Drain\libraries\lvgl\src\draw\../misc/lv_mem.h ****         d8++;
 202:..\..\..\arduinoLCD\test\Pain Drain\libraries\lvgl\src\draw\../misc/lv_mem.h ****         s8++;
 203:..\..\..\arduinoLCD\test\Pain Drain\libraries\lvgl\src\draw\../misc/lv_mem.h ****         len--;
 114              		.loc 3 203 0
 115 0054 013B     		subs	r3, r3, #1
 116              	.LVL13:
ARM GAS  C:\Users\haske\AppData\Local\Temp\ccF9IbRI.s 			page 18


 117              	.L4:
 199:..\..\..\arduinoLCD\test\Pain Drain\libraries\lvgl\src\draw\../misc/lv_mem.h ****         *d8 = *s8;
 118              		.loc 3 199 0
 119 0056 002B     		cmp	r3, #0
 120 0058 F8D1     		bne	.L5
 121 005a 5FE0     		b	.L6
 122              	.LVL14:
 123              	.L3:
 124              	.LBE35:
 125              	.LBE36:
 126              	.LBE32:
  61:..\..\..\arduinoLCD\test\Pain Drain\libraries\lvgl\src\draw/lv_img_buf.c **** #if LV_COLOR_SIZE == 32
  62:..\..\..\arduinoLCD\test\Pain Drain\libraries\lvgl\src\draw/lv_img_buf.c ****         p_color.ch.alpha = 0xFF; /*Only the color should be get so use a default alpha value*/
  63:..\..\..\arduinoLCD\test\Pain Drain\libraries\lvgl\src\draw/lv_img_buf.c **** #endif
  64:..\..\..\arduinoLCD\test\Pain Drain\libraries\lvgl\src\draw/lv_img_buf.c ****     }
  65:..\..\..\arduinoLCD\test\Pain Drain\libraries\lvgl\src\draw/lv_img_buf.c ****     else if(dsc->header.cf == LV_IMG_CF_INDEXED_1BIT) {
 127              		.loc 1 65 0
 128 005c 072C     		cmp	r4, #7
 129 005e 15D1     		bne	.L7
 130              	.LVL15:
 131              	.LBB37:
  66:..\..\..\arduinoLCD\test\Pain Drain\libraries\lvgl\src\draw/lv_img_buf.c ****         buf_u8 += 4 * 2;
  67:..\..\..\arduinoLCD\test\Pain Drain\libraries\lvgl\src\draw/lv_img_buf.c ****         uint8_t bit = x & 0x7;
 132              		.loc 1 67 0
 133 0060 01F00704 		and	r4, r1, #7
 134              	.LVL16:
  68:..\..\..\arduinoLCD\test\Pain Drain\libraries\lvgl\src\draw/lv_img_buf.c ****         x           = x >> 3;
  69:..\..\..\arduinoLCD\test\Pain Drain\libraries\lvgl\src\draw/lv_img_buf.c **** 
  70:..\..\..\arduinoLCD\test\Pain Drain\libraries\lvgl\src\draw/lv_img_buf.c ****         /*Get the current pixel.
  71:..\..\..\arduinoLCD\test\Pain Drain\libraries\lvgl\src\draw/lv_img_buf.c ****          *dsc->header.w + 7 means rounding up to 8 because the lines are byte aligned
  72:..\..\..\arduinoLCD\test\Pain Drain\libraries\lvgl\src\draw/lv_img_buf.c ****          *so the possible real width are 8, 16, 24 ...*/
  73:..\..\..\arduinoLCD\test\Pain Drain\libraries\lvgl\src\draw/lv_img_buf.c ****         uint32_t px  = ((dsc->header.w + 7) >> 3) * y + x;
 135              		.loc 1 73 0
 136 0064 0068     		ldr	r0, [r0]
 137              	.LVL17:
 138 0066 C0F38A20 		ubfx	r0, r0, #10, #11
 139 006a 0730     		adds	r0, r0, #7
 140 006c C010     		asrs	r0, r0, #3
 141 006e 00FB02F2 		mul	r2, r0, r2
 142              	.LVL18:
 143 0072 02EBE101 		add	r1, r2, r1, asr #3
 144              	.LVL19:
  74:..\..\..\arduinoLCD\test\Pain Drain\libraries\lvgl\src\draw/lv_img_buf.c ****         p_color.full = (buf_u8[px] & (1 << (7 - bit))) >> (7 - bit);
 145              		.loc 1 74 0
 146 0076 6818     		adds	r0, r5, r1
 147 0078 037A     		ldrb	r3, [r0, #8]	@ zero_extendqisi2
 148              	.LVL20:
 149 007a C4F10701 		rsb	r1, r4, #7
 150              	.LVL21:
 151 007e 0122     		movs	r2, #1
 152 0080 8A40     		lsls	r2, r2, r1
 153 0082 1340     		ands	r3, r3, r2
 154 0084 0B41     		asrs	r3, r3, r1
 155 0086 ADF80430 		strh	r3, [sp, #4]	@ movhi
 156              	.LBE37:
 157 008a 47E0     		b	.L6
 158              	.LVL22:
ARM GAS  C:\Users\haske\AppData\Local\Temp\ccF9IbRI.s 			page 19


 159              	.L7:
  75:..\..\..\arduinoLCD\test\Pain Drain\libraries\lvgl\src\draw/lv_img_buf.c ****     }
  76:..\..\..\arduinoLCD\test\Pain Drain\libraries\lvgl\src\draw/lv_img_buf.c ****     else if(dsc->header.cf == LV_IMG_CF_INDEXED_2BIT) {
 160              		.loc 1 76 0
 161 008c 082C     		cmp	r4, #8
 162 008e 16D1     		bne	.L8
 163              	.LVL23:
 164              	.LBB38:
  77:..\..\..\arduinoLCD\test\Pain Drain\libraries\lvgl\src\draw/lv_img_buf.c ****         buf_u8 += 4 * 4;
  78:..\..\..\arduinoLCD\test\Pain Drain\libraries\lvgl\src\draw/lv_img_buf.c ****         uint8_t bit = (x & 0x3) * 2;
 165              		.loc 1 78 0
 166 0090 01F00304 		and	r4, r1, #3
 167 0094 6400     		lsls	r4, r4, #1
 168              	.LVL24:
  79:..\..\..\arduinoLCD\test\Pain Drain\libraries\lvgl\src\draw/lv_img_buf.c ****         x           = x >> 2;
  80:..\..\..\arduinoLCD\test\Pain Drain\libraries\lvgl\src\draw/lv_img_buf.c **** 
  81:..\..\..\arduinoLCD\test\Pain Drain\libraries\lvgl\src\draw/lv_img_buf.c ****         /*Get the current pixel.
  82:..\..\..\arduinoLCD\test\Pain Drain\libraries\lvgl\src\draw/lv_img_buf.c ****          *dsc->header.w + 3 means rounding up to 4 because the lines are byte aligned
  83:..\..\..\arduinoLCD\test\Pain Drain\libraries\lvgl\src\draw/lv_img_buf.c ****          *so the possible real width are 4, 8, 12 ...*/
  84:..\..\..\arduinoLCD\test\Pain Drain\libraries\lvgl\src\draw/lv_img_buf.c ****         uint32_t px  = ((dsc->header.w + 3) >> 2) * y + x;
 169              		.loc 1 84 0
 170 0096 0068     		ldr	r0, [r0]
 171              	.LVL25:
 172 0098 C0F38A20 		ubfx	r0, r0, #10, #11
 173 009c 0330     		adds	r0, r0, #3
 174 009e 8010     		asrs	r0, r0, #2
 175 00a0 00FB02F2 		mul	r2, r0, r2
 176              	.LVL26:
 177 00a4 02EBA101 		add	r1, r2, r1, asr #2
 178              	.LVL27:
  85:..\..\..\arduinoLCD\test\Pain Drain\libraries\lvgl\src\draw/lv_img_buf.c ****         p_color.full = (buf_u8[px] & (3 << (6 - bit))) >> (6 - bit);
 179              		.loc 1 85 0
 180 00a8 6818     		adds	r0, r5, r1
 181 00aa 037C     		ldrb	r3, [r0, #16]	@ zero_extendqisi2
 182              	.LVL28:
 183 00ac C4F10601 		rsb	r1, r4, #6
 184              	.LVL29:
 185 00b0 0322     		movs	r2, #3
 186 00b2 8A40     		lsls	r2, r2, r1
 187 00b4 1340     		ands	r3, r3, r2
 188 00b6 0B41     		asrs	r3, r3, r1
 189 00b8 ADF80430 		strh	r3, [sp, #4]	@ movhi
 190              	.LBE38:
 191 00bc 2EE0     		b	.L6
 192              	.LVL30:
 193              	.L8:
  86:..\..\..\arduinoLCD\test\Pain Drain\libraries\lvgl\src\draw/lv_img_buf.c ****     }
  87:..\..\..\arduinoLCD\test\Pain Drain\libraries\lvgl\src\draw/lv_img_buf.c ****     else if(dsc->header.cf == LV_IMG_CF_INDEXED_4BIT) {
 194              		.loc 1 87 0
 195 00be 092C     		cmp	r4, #9
 196 00c0 19D1     		bne	.L9
 197              	.LVL31:
 198              	.LBB39:
  88:..\..\..\arduinoLCD\test\Pain Drain\libraries\lvgl\src\draw/lv_img_buf.c ****         buf_u8 += 4 * 16;
  89:..\..\..\arduinoLCD\test\Pain Drain\libraries\lvgl\src\draw/lv_img_buf.c ****         uint8_t bit = (x & 0x1) * 4;
 199              		.loc 1 89 0
 200 00c2 01F00103 		and	r3, r1, #1
ARM GAS  C:\Users\haske\AppData\Local\Temp\ccF9IbRI.s 			page 20


 201              	.LVL32:
 202 00c6 9B00     		lsls	r3, r3, #2
 203 00c8 DBB2     		uxtb	r3, r3
 204              	.LVL33:
  90:..\..\..\arduinoLCD\test\Pain Drain\libraries\lvgl\src\draw/lv_img_buf.c ****         x           = x >> 1;
  91:..\..\..\arduinoLCD\test\Pain Drain\libraries\lvgl\src\draw/lv_img_buf.c **** 
  92:..\..\..\arduinoLCD\test\Pain Drain\libraries\lvgl\src\draw/lv_img_buf.c ****         /*Get the current pixel.
  93:..\..\..\arduinoLCD\test\Pain Drain\libraries\lvgl\src\draw/lv_img_buf.c ****          *dsc->header.w + 1 means rounding up to 2 because the lines are byte aligned
  94:..\..\..\arduinoLCD\test\Pain Drain\libraries\lvgl\src\draw/lv_img_buf.c ****          *so the possible real width are 2, 4, 6 ...*/
  95:..\..\..\arduinoLCD\test\Pain Drain\libraries\lvgl\src\draw/lv_img_buf.c ****         uint32_t px  = ((dsc->header.w + 1) >> 1) * y + x;
 205              		.loc 1 95 0
 206 00ca 0068     		ldr	r0, [r0]
 207              	.LVL34:
 208 00cc C0F38A20 		ubfx	r0, r0, #10, #11
 209 00d0 0130     		adds	r0, r0, #1
 210 00d2 4010     		asrs	r0, r0, #1
 211 00d4 00FB02F2 		mul	r2, r0, r2
 212              	.LVL35:
 213 00d8 02EB6101 		add	r1, r2, r1, asr #1
 214              	.LVL36:
  96:..\..\..\arduinoLCD\test\Pain Drain\libraries\lvgl\src\draw/lv_img_buf.c ****         p_color.full = (buf_u8[px] & (0xF << (4 - bit))) >> (4 - bit);
 215              		.loc 1 96 0
 216 00dc 6818     		adds	r0, r5, r1
 217 00de 90F84010 		ldrb	r1, [r0, #64]	@ zero_extendqisi2
 218              	.LVL37:
 219 00e2 C3F10403 		rsb	r3, r3, #4
 220              	.LVL38:
 221 00e6 0F22     		movs	r2, #15
 222 00e8 9A40     		lsls	r2, r2, r3
 223 00ea 0A40     		ands	r2, r2, r1
 224 00ec 42FA03F3 		asr	r3, r2, r3
 225 00f0 ADF80430 		strh	r3, [sp, #4]	@ movhi
 226              	.LBE39:
 227 00f4 12E0     		b	.L6
 228              	.LVL39:
 229              	.L9:
  97:..\..\..\arduinoLCD\test\Pain Drain\libraries\lvgl\src\draw/lv_img_buf.c ****     }
  98:..\..\..\arduinoLCD\test\Pain Drain\libraries\lvgl\src\draw/lv_img_buf.c ****     else if(dsc->header.cf == LV_IMG_CF_INDEXED_8BIT) {
 230              		.loc 1 98 0
 231 00f6 0A2C     		cmp	r4, #10
 232 00f8 0AD1     		bne	.L10
 233              	.LVL40:
 234              	.LBB40:
  99:..\..\..\arduinoLCD\test\Pain Drain\libraries\lvgl\src\draw/lv_img_buf.c ****         buf_u8 += 4 * 256;
 100:..\..\..\arduinoLCD\test\Pain Drain\libraries\lvgl\src\draw/lv_img_buf.c ****         uint32_t px  = dsc->header.w * y + x;
 235              		.loc 1 100 0
 236 00fa 0068     		ldr	r0, [r0]
 237              	.LVL41:
 238 00fc C0F38A20 		ubfx	r0, r0, #10, #11
 239 0100 02FB0012 		mla	r2, r2, r0, r1
 240              	.LVL42:
 101:..\..\..\arduinoLCD\test\Pain Drain\libraries\lvgl\src\draw/lv_img_buf.c ****         p_color.full = buf_u8[px];
 241              		.loc 1 101 0
 242 0104 A818     		adds	r0, r5, r2
 243 0106 90F80034 		ldrb	r3, [r0, #1024]	@ zero_extendqisi2
 244              	.LVL43:
 245 010a ADF80430 		strh	r3, [sp, #4]	@ movhi
ARM GAS  C:\Users\haske\AppData\Local\Temp\ccF9IbRI.s 			page 21


 246              	.LBE40:
 247 010e 05E0     		b	.L6
 248              	.LVL44:
 249              	.L10:
 102:..\..\..\arduinoLCD\test\Pain Drain\libraries\lvgl\src\draw/lv_img_buf.c ****     }
 103:..\..\..\arduinoLCD\test\Pain Drain\libraries\lvgl\src\draw/lv_img_buf.c ****     else if(dsc->header.cf == LV_IMG_CF_ALPHA_1BIT || dsc->header.cf == LV_IMG_CF_ALPHA_2BIT ||
 104:..\..\..\arduinoLCD\test\Pain Drain\libraries\lvgl\src\draw/lv_img_buf.c ****             dsc->header.cf == LV_IMG_CF_ALPHA_4BIT || dsc->header.cf == LV_IMG_CF_ALPHA_8BIT) {
 250              		.loc 1 104 0
 251 0110 0B3C     		subs	r4, r4, #11
 252 0112 E4B2     		uxtb	r4, r4
 103:..\..\..\arduinoLCD\test\Pain Drain\libraries\lvgl\src\draw/lv_img_buf.c ****             dsc->header.cf == LV_IMG_CF_ALPHA_4BIT || dsc->header.cf == LV_IMG_CF_ALPHA_8BIT) {
 253              		.loc 1 103 0
 254 0114 032C     		cmp	r4, #3
 255 0116 01D8     		bhi	.L6
 105:..\..\..\arduinoLCD\test\Pain Drain\libraries\lvgl\src\draw/lv_img_buf.c ****         p_color = color;
 256              		.loc 1 105 0
 257 0118 ADF80430 		strh	r3, [sp, #4]	@ movhi
 258              	.LVL45:
 259              	.L6:
 106:..\..\..\arduinoLCD\test\Pain Drain\libraries\lvgl\src\draw/lv_img_buf.c ****     }
 107:..\..\..\arduinoLCD\test\Pain Drain\libraries\lvgl\src\draw/lv_img_buf.c ****     return p_color;
 108:..\..\..\arduinoLCD\test\Pain Drain\libraries\lvgl\src\draw/lv_img_buf.c **** }
 260              		.loc 1 108 0
 261 011c BDF80400 		ldrh	r0, [sp, #4]
 262 0120 03B0     		add	sp, sp, #12
 263              		.cfi_def_cfa_offset 20
 264              		@ sp needed
 265 0122 F0BD     		pop	{r4, r5, r6, r7, pc}
 266              		.cfi_endproc
 267              	.LFE54:
 268              		.size	lv_img_buf_get_px_color, .-lv_img_buf_get_px_color
 269              		.section	.text.lv_img_buf_get_px_alpha,"ax",%progbits
 270              		.align	2
 271              		.global	lv_img_buf_get_px_alpha
 272              		.thumb
 273              		.thumb_func
 274              		.type	lv_img_buf_get_px_alpha, %function
 275              	lv_img_buf_get_px_alpha:
 276              	.LFB55:
 109:..\..\..\arduinoLCD\test\Pain Drain\libraries\lvgl\src\draw/lv_img_buf.c **** 
 110:..\..\..\arduinoLCD\test\Pain Drain\libraries\lvgl\src\draw/lv_img_buf.c **** /**
 111:..\..\..\arduinoLCD\test\Pain Drain\libraries\lvgl\src\draw/lv_img_buf.c ****  * Get the alpha value of an image's pixel
 112:..\..\..\arduinoLCD\test\Pain Drain\libraries\lvgl\src\draw/lv_img_buf.c ****  * @param dsc pointer to an image descriptor
 113:..\..\..\arduinoLCD\test\Pain Drain\libraries\lvgl\src\draw/lv_img_buf.c ****  * @param x x coordinate of the point to set
 114:..\..\..\arduinoLCD\test\Pain Drain\libraries\lvgl\src\draw/lv_img_buf.c ****  * @param y x coordinate of the point to set
 115:..\..\..\arduinoLCD\test\Pain Drain\libraries\lvgl\src\draw/lv_img_buf.c ****  * @param safe true: check out of bounds
 116:..\..\..\arduinoLCD\test\Pain Drain\libraries\lvgl\src\draw/lv_img_buf.c ****  * @return alpha value of the point
 117:..\..\..\arduinoLCD\test\Pain Drain\libraries\lvgl\src\draw/lv_img_buf.c ****  */
 118:..\..\..\arduinoLCD\test\Pain Drain\libraries\lvgl\src\draw/lv_img_buf.c **** lv_opa_t lv_img_buf_get_px_alpha(lv_img_dsc_t * dsc, lv_coord_t x, lv_coord_t y)
 119:..\..\..\arduinoLCD\test\Pain Drain\libraries\lvgl\src\draw/lv_img_buf.c **** {
 277              		.loc 1 119 0
 278              		.cfi_startproc
 279              		@ args = 0, pretend = 0, frame = 16
 280              		@ frame_needed = 0, uses_anonymous_args = 0
 281              	.LVL46:
 282 0000 F0B5     		push	{r4, r5, r6, r7, lr}
 283              		.cfi_def_cfa_offset 20
ARM GAS  C:\Users\haske\AppData\Local\Temp\ccF9IbRI.s 			page 22


 284              		.cfi_offset 4, -20
 285              		.cfi_offset 5, -16
 286              		.cfi_offset 6, -12
 287              		.cfi_offset 7, -8
 288              		.cfi_offset 14, -4
 289 0002 85B0     		sub	sp, sp, #20
 290              		.cfi_def_cfa_offset 40
 291 0004 0446     		mov	r4, r0
 292 0006 0E46     		mov	r6, r1
 293 0008 1746     		mov	r7, r2
 120:..\..\..\arduinoLCD\test\Pain Drain\libraries\lvgl\src\draw/lv_img_buf.c ****     uint8_t * buf_u8 = (uint8_t *)dsc->data;
 294              		.loc 1 120 0
 295 000a 8568     		ldr	r5, [r0, #8]
 296              	.LVL47:
 121:..\..\..\arduinoLCD\test\Pain Drain\libraries\lvgl\src\draw/lv_img_buf.c **** 
 122:..\..\..\arduinoLCD\test\Pain Drain\libraries\lvgl\src\draw/lv_img_buf.c ****     if(dsc->header.cf == LV_IMG_CF_TRUE_COLOR_ALPHA) {
 297              		.loc 1 122 0
 298 000c 0378     		ldrb	r3, [r0]	@ zero_extendqisi2
 299 000e 03F01F03 		and	r3, r3, #31
 300 0012 052B     		cmp	r3, #5
 301 0014 09D1     		bne	.L13
 302              	.LBB41:
 123:..\..\..\arduinoLCD\test\Pain Drain\libraries\lvgl\src\draw/lv_img_buf.c ****         uint32_t px = dsc->header.w * y * LV_IMG_PX_SIZE_ALPHA_BYTE + x * LV_IMG_PX_SIZE_ALPHA_BYTE
 303              		.loc 1 123 0
 304 0016 0168     		ldr	r1, [r0]
 305              	.LVL48:
 306 0018 C1F38A21 		ubfx	r1, r1, #10, #11
 307 001c 02FB0161 		mla	r1, r2, r1, r6
 308 0020 01EB4101 		add	r1, r1, r1, lsl #1
 309              	.LVL49:
 124:..\..\..\arduinoLCD\test\Pain Drain\libraries\lvgl\src\draw/lv_img_buf.c ****         return buf_u8[px + LV_IMG_PX_SIZE_ALPHA_BYTE - 1];
 310              		.loc 1 124 0
 311 0024 0231     		adds	r1, r1, #2
 312              	.LVL50:
 313 0026 685C     		ldrb	r0, [r5, r1]	@ zero_extendqisi2
 314              	.LVL51:
 315 0028 66E0     		b	.L14
 316              	.LVL52:
 317              	.L13:
 318              	.LBE41:
 125:..\..\..\arduinoLCD\test\Pain Drain\libraries\lvgl\src\draw/lv_img_buf.c ****     }
 126:..\..\..\arduinoLCD\test\Pain Drain\libraries\lvgl\src\draw/lv_img_buf.c ****     else if(dsc->header.cf == LV_IMG_CF_ALPHA_1BIT) {
 319              		.loc 1 126 0
 320 002a 0B2B     		cmp	r3, #11
 321 002c 16D1     		bne	.L15
 322              	.LBB42:
 127:..\..\..\arduinoLCD\test\Pain Drain\libraries\lvgl\src\draw/lv_img_buf.c ****         uint8_t bit = x & 0x7;
 323              		.loc 1 127 0
 324 002e 01F00702 		and	r2, r1, #7
 325              	.LVL53:
 128:..\..\..\arduinoLCD\test\Pain Drain\libraries\lvgl\src\draw/lv_img_buf.c ****         x           = x >> 3;
 129:..\..\..\arduinoLCD\test\Pain Drain\libraries\lvgl\src\draw/lv_img_buf.c **** 
 130:..\..\..\arduinoLCD\test\Pain Drain\libraries\lvgl\src\draw/lv_img_buf.c ****         /*Get the current pixel.
 131:..\..\..\arduinoLCD\test\Pain Drain\libraries\lvgl\src\draw/lv_img_buf.c ****          *dsc->header.w + 7 means rounding up to 8 because the lines are byte aligned
 132:..\..\..\arduinoLCD\test\Pain Drain\libraries\lvgl\src\draw/lv_img_buf.c ****          *so the possible real width are 8 ,16, 24 ...*/
 133:..\..\..\arduinoLCD\test\Pain Drain\libraries\lvgl\src\draw/lv_img_buf.c ****         uint32_t px    = ((dsc->header.w + 7) >> 3) * y + x;
 326              		.loc 1 133 0
ARM GAS  C:\Users\haske\AppData\Local\Temp\ccF9IbRI.s 			page 23


 327 0032 0168     		ldr	r1, [r0]
 328              	.LVL54:
 329 0034 C1F38A21 		ubfx	r1, r1, #10, #11
 330 0038 0731     		adds	r1, r1, #7
 331 003a C910     		asrs	r1, r1, #3
 332 003c 01FB07F1 		mul	r1, r1, r7
 333 0040 01EBE601 		add	r1, r1, r6, asr #3
 334              	.LVL55:
 134:..\..\..\arduinoLCD\test\Pain Drain\libraries\lvgl\src\draw/lv_img_buf.c ****         uint8_t px_opa = (buf_u8[px] & (1 << (7 - bit))) >> (7 - bit);
 335              		.loc 1 134 0
 336 0044 6B5C     		ldrb	r3, [r5, r1]	@ zero_extendqisi2
 337 0046 C2F10701 		rsb	r1, r2, #7
 338              	.LVL56:
 339 004a 0122     		movs	r2, #1
 340              	.LVL57:
 341 004c 8A40     		lsls	r2, r2, r1
 342 004e 1340     		ands	r3, r3, r2
 343 0050 0B41     		asrs	r3, r3, r1
 344              	.LVL58:
 135:..\..\..\arduinoLCD\test\Pain Drain\libraries\lvgl\src\draw/lv_img_buf.c ****         return px_opa ? LV_OPA_TRANSP : LV_OPA_COVER;
 345              		.loc 1 135 0
 346 0052 13F0FF0F 		tst	r3, #255
 347 0056 4CD0     		beq	.L18
 348 0058 0020     		movs	r0, #0
 349              	.LVL59:
 350 005a 4DE0     		b	.L14
 351              	.LVL60:
 352              	.L15:
 353              	.LBE42:
 136:..\..\..\arduinoLCD\test\Pain Drain\libraries\lvgl\src\draw/lv_img_buf.c ****     }
 137:..\..\..\arduinoLCD\test\Pain Drain\libraries\lvgl\src\draw/lv_img_buf.c ****     else if(dsc->header.cf == LV_IMG_CF_ALPHA_2BIT) {
 354              		.loc 1 137 0
 355 005c 0C2B     		cmp	r3, #12
 356 005e 1BD1     		bne	.L16
 357              	.LBB43:
 138:..\..\..\arduinoLCD\test\Pain Drain\libraries\lvgl\src\draw/lv_img_buf.c ****         const uint8_t opa_table[4] = {0, 85, 170, 255}; /*Opacity mapping with bpp = 2*/
 358              		.loc 1 138 0
 359 0060 264B     		ldr	r3, .L21
 360 0062 1868     		ldr	r0, [r3]	@ unaligned
 361              	.LVL61:
 362 0064 0090     		str	r0, [sp]	@ unaligned
 139:..\..\..\arduinoLCD\test\Pain Drain\libraries\lvgl\src\draw/lv_img_buf.c **** 
 140:..\..\..\arduinoLCD\test\Pain Drain\libraries\lvgl\src\draw/lv_img_buf.c ****         uint8_t bit = (x & 0x3) * 2;
 363              		.loc 1 140 0
 364 0066 01F00301 		and	r1, r1, #3
 365              	.LVL62:
 366 006a 4A00     		lsls	r2, r1, #1
 367              	.LVL63:
 141:..\..\..\arduinoLCD\test\Pain Drain\libraries\lvgl\src\draw/lv_img_buf.c ****         x           = x >> 2;
 142:..\..\..\arduinoLCD\test\Pain Drain\libraries\lvgl\src\draw/lv_img_buf.c **** 
 143:..\..\..\arduinoLCD\test\Pain Drain\libraries\lvgl\src\draw/lv_img_buf.c ****         /*Get the current pixel.
 144:..\..\..\arduinoLCD\test\Pain Drain\libraries\lvgl\src\draw/lv_img_buf.c ****          *dsc->header.w + 4 means rounding up to 8 because the lines are byte aligned
 145:..\..\..\arduinoLCD\test\Pain Drain\libraries\lvgl\src\draw/lv_img_buf.c ****          *so the possible real width are 4 ,8, 12 ...*/
 146:..\..\..\arduinoLCD\test\Pain Drain\libraries\lvgl\src\draw/lv_img_buf.c ****         uint32_t px    = ((dsc->header.w + 3) >> 2) * y + x;
 368              		.loc 1 146 0
 369 006c 2168     		ldr	r1, [r4]
 370 006e C1F38A21 		ubfx	r1, r1, #10, #11
ARM GAS  C:\Users\haske\AppData\Local\Temp\ccF9IbRI.s 			page 24


 371 0072 0331     		adds	r1, r1, #3
 372 0074 8910     		asrs	r1, r1, #2
 373 0076 01FB07F1 		mul	r1, r1, r7
 374 007a 01EBA601 		add	r1, r1, r6, asr #2
 375              	.LVL64:
 147:..\..\..\arduinoLCD\test\Pain Drain\libraries\lvgl\src\draw/lv_img_buf.c ****         uint8_t px_opa = (buf_u8[px] & (3 << (6 - bit))) >> (6 - bit);
 376              		.loc 1 147 0
 377 007e 6B5C     		ldrb	r3, [r5, r1]	@ zero_extendqisi2
 378 0080 C2F10601 		rsb	r1, r2, #6
 379              	.LVL65:
 380 0084 0322     		movs	r2, #3
 381              	.LVL66:
 382 0086 8A40     		lsls	r2, r2, r1
 383 0088 1340     		ands	r3, r3, r2
 384 008a 0B41     		asrs	r3, r3, r1
 385              	.LVL67:
 148:..\..\..\arduinoLCD\test\Pain Drain\libraries\lvgl\src\draw/lv_img_buf.c ****         return opa_table[px_opa];
 386              		.loc 1 148 0
 387 008c 04AA     		add	r2, sp, #16
 388 008e 52FA83F3 		uxtab	r3, r2, r3
 389              	.LVL68:
 390 0092 13F8100C 		ldrb	r0, [r3, #-16]	@ zero_extendqisi2
 391 0096 2FE0     		b	.L14
 392              	.LVL69:
 393              	.L16:
 394              	.LBE43:
 149:..\..\..\arduinoLCD\test\Pain Drain\libraries\lvgl\src\draw/lv_img_buf.c ****     }
 150:..\..\..\arduinoLCD\test\Pain Drain\libraries\lvgl\src\draw/lv_img_buf.c ****     else if(dsc->header.cf == LV_IMG_CF_ALPHA_4BIT) {
 395              		.loc 1 150 0
 396 0098 0D2B     		cmp	r3, #13
 397 009a 21D1     		bne	.L17
 398              	.LBB44:
 151:..\..\..\arduinoLCD\test\Pain Drain\libraries\lvgl\src\draw/lv_img_buf.c ****         const uint8_t opa_table[16] = {0,  17, 34,  51, /*Opacity mapping with bpp = 4*/
 399              		.loc 1 151 0
 400 009c EE46     		mov	lr, sp
 401 009e 174B     		ldr	r3, .L21
 402 00a0 53F8040F 		ldr	r0, [r3, #4]!	@ unaligned
 403              	.LVL70:
 404 00a4 5968     		ldr	r1, [r3, #4]	@ unaligned
 405              	.LVL71:
 406 00a6 9A68     		ldr	r2, [r3, #8]	@ unaligned
 407              	.LVL72:
 408 00a8 DB68     		ldr	r3, [r3, #12]	@ unaligned
 409 00aa AEE80F00 		stmia	lr!, {r0, r1, r2, r3}
 152:..\..\..\arduinoLCD\test\Pain Drain\libraries\lvgl\src\draw/lv_img_buf.c ****                                        68, 85, 102, 119, 136, 153, 170, 187, 204, 221, 238, 255
 153:..\..\..\arduinoLCD\test\Pain Drain\libraries\lvgl\src\draw/lv_img_buf.c ****                                       };
 154:..\..\..\arduinoLCD\test\Pain Drain\libraries\lvgl\src\draw/lv_img_buf.c **** 
 155:..\..\..\arduinoLCD\test\Pain Drain\libraries\lvgl\src\draw/lv_img_buf.c ****         uint8_t bit = (x & 0x1) * 4;
 410              		.loc 1 155 0
 411 00ae 06F00101 		and	r1, r6, #1
 412 00b2 8900     		lsls	r1, r1, #2
 413 00b4 CAB2     		uxtb	r2, r1
 414              	.LVL73:
 156:..\..\..\arduinoLCD\test\Pain Drain\libraries\lvgl\src\draw/lv_img_buf.c ****         x           = x >> 1;
 157:..\..\..\arduinoLCD\test\Pain Drain\libraries\lvgl\src\draw/lv_img_buf.c **** 
 158:..\..\..\arduinoLCD\test\Pain Drain\libraries\lvgl\src\draw/lv_img_buf.c ****         /*Get the current pixel.
 159:..\..\..\arduinoLCD\test\Pain Drain\libraries\lvgl\src\draw/lv_img_buf.c ****          *dsc->header.w + 1 means rounding up to 8 because the lines are byte aligned
ARM GAS  C:\Users\haske\AppData\Local\Temp\ccF9IbRI.s 			page 25


 160:..\..\..\arduinoLCD\test\Pain Drain\libraries\lvgl\src\draw/lv_img_buf.c ****          *so the possible real width are 2 ,4, 6 ...*/
 161:..\..\..\arduinoLCD\test\Pain Drain\libraries\lvgl\src\draw/lv_img_buf.c ****         uint32_t px    = ((dsc->header.w + 1) >> 1) * y + x;
 415              		.loc 1 161 0
 416 00b6 2168     		ldr	r1, [r4]
 417 00b8 C1F38A21 		ubfx	r1, r1, #10, #11
 418 00bc 0131     		adds	r1, r1, #1
 419 00be 4910     		asrs	r1, r1, #1
 420 00c0 01FB07F1 		mul	r1, r1, r7
 421 00c4 01EB6601 		add	r1, r1, r6, asr #1
 422              	.LVL74:
 162:..\..\..\arduinoLCD\test\Pain Drain\libraries\lvgl\src\draw/lv_img_buf.c ****         uint8_t px_opa = (buf_u8[px] & (0xF << (4 - bit))) >> (4 - bit);
 423              		.loc 1 162 0
 424 00c8 6B5C     		ldrb	r3, [r5, r1]	@ zero_extendqisi2
 425 00ca C2F10401 		rsb	r1, r2, #4
 426              	.LVL75:
 427 00ce 0F22     		movs	r2, #15
 428              	.LVL76:
 429 00d0 8A40     		lsls	r2, r2, r1
 430 00d2 1340     		ands	r3, r3, r2
 431 00d4 0B41     		asrs	r3, r3, r1
 432              	.LVL77:
 163:..\..\..\arduinoLCD\test\Pain Drain\libraries\lvgl\src\draw/lv_img_buf.c ****         return opa_table[px_opa];
 433              		.loc 1 163 0
 434 00d6 5EFA83F3 		uxtab	r3, lr, r3
 435              	.LVL78:
 436 00da 13F8100C 		ldrb	r0, [r3, #-16]	@ zero_extendqisi2
 437 00de 0BE0     		b	.L14
 438              	.LVL79:
 439              	.L17:
 440              	.LBE44:
 164:..\..\..\arduinoLCD\test\Pain Drain\libraries\lvgl\src\draw/lv_img_buf.c ****     }
 165:..\..\..\arduinoLCD\test\Pain Drain\libraries\lvgl\src\draw/lv_img_buf.c ****     else if(dsc->header.cf == LV_IMG_CF_ALPHA_8BIT) {
 441              		.loc 1 165 0
 442 00e0 0E2B     		cmp	r3, #14
 443 00e2 08D1     		bne	.L19
 444              	.LBB45:
 166:..\..\..\arduinoLCD\test\Pain Drain\libraries\lvgl\src\draw/lv_img_buf.c ****         uint32_t px = dsc->header.w * y + x;
 445              		.loc 1 166 0
 446 00e4 0168     		ldr	r1, [r0]
 447              	.LVL80:
 448 00e6 C1F38A21 		ubfx	r1, r1, #10, #11
 449 00ea 02FB0161 		mla	r1, r2, r1, r6
 450              	.LVL81:
 167:..\..\..\arduinoLCD\test\Pain Drain\libraries\lvgl\src\draw/lv_img_buf.c ****         return buf_u8[px];
 451              		.loc 1 167 0
 452 00ee 685C     		ldrb	r0, [r5, r1]	@ zero_extendqisi2
 453              	.LVL82:
 454 00f0 02E0     		b	.L14
 455              	.LVL83:
 456              	.L18:
 457              	.LBE45:
 458              	.LBB46:
 135:..\..\..\arduinoLCD\test\Pain Drain\libraries\lvgl\src\draw/lv_img_buf.c ****     }
 459              		.loc 1 135 0
 460 00f2 FF20     		movs	r0, #255
 461              	.LVL84:
 462 00f4 00E0     		b	.L14
ARM GAS  C:\Users\haske\AppData\Local\Temp\ccF9IbRI.s 			page 26


 463              	.LVL85:
 464              	.L19:
 465              	.LBE46:
 168:..\..\..\arduinoLCD\test\Pain Drain\libraries\lvgl\src\draw/lv_img_buf.c ****     }
 169:..\..\..\arduinoLCD\test\Pain Drain\libraries\lvgl\src\draw/lv_img_buf.c **** 
 170:..\..\..\arduinoLCD\test\Pain Drain\libraries\lvgl\src\draw/lv_img_buf.c ****     return LV_OPA_COVER;
 466              		.loc 1 170 0
 467 00f6 FF20     		movs	r0, #255
 468              	.LVL86:
 469              	.L14:
 171:..\..\..\arduinoLCD\test\Pain Drain\libraries\lvgl\src\draw/lv_img_buf.c **** }
 470              		.loc 1 171 0 discriminator 1
 471 00f8 05B0     		add	sp, sp, #20
 472              		.cfi_def_cfa_offset 20
 473              		@ sp needed
 474 00fa F0BD     		pop	{r4, r5, r6, r7, pc}
 475              	.LVL87:
 476              	.L22:
 477              		.align	2
 478              	.L21:
 479 00fc 00000000 		.word	.LANCHOR0
 480              		.cfi_endproc
 481              	.LFE55:
 482              		.size	lv_img_buf_get_px_alpha, .-lv_img_buf_get_px_alpha
 483              		.section	.text.lv_img_buf_set_px_alpha,"ax",%progbits
 484              		.align	2
 485              		.global	lv_img_buf_set_px_alpha
 486              		.thumb
 487              		.thumb_func
 488              		.type	lv_img_buf_set_px_alpha, %function
 489              	lv_img_buf_set_px_alpha:
 490              	.LFB56:
 172:..\..\..\arduinoLCD\test\Pain Drain\libraries\lvgl\src\draw/lv_img_buf.c **** 
 173:..\..\..\arduinoLCD\test\Pain Drain\libraries\lvgl\src\draw/lv_img_buf.c **** /**
 174:..\..\..\arduinoLCD\test\Pain Drain\libraries\lvgl\src\draw/lv_img_buf.c ****  * Set the alpha value of a pixel of an image. The color won't be affected
 175:..\..\..\arduinoLCD\test\Pain Drain\libraries\lvgl\src\draw/lv_img_buf.c ****  * @param dsc pointer to an image descriptor
 176:..\..\..\arduinoLCD\test\Pain Drain\libraries\lvgl\src\draw/lv_img_buf.c ****  * @param x x coordinate of the point to set
 177:..\..\..\arduinoLCD\test\Pain Drain\libraries\lvgl\src\draw/lv_img_buf.c ****  * @param y x coordinate of the point to set
 178:..\..\..\arduinoLCD\test\Pain Drain\libraries\lvgl\src\draw/lv_img_buf.c ****  * @param opa the desired opacity
 179:..\..\..\arduinoLCD\test\Pain Drain\libraries\lvgl\src\draw/lv_img_buf.c ****  * @param safe true: check out of bounds
 180:..\..\..\arduinoLCD\test\Pain Drain\libraries\lvgl\src\draw/lv_img_buf.c ****  */
 181:..\..\..\arduinoLCD\test\Pain Drain\libraries\lvgl\src\draw/lv_img_buf.c **** void lv_img_buf_set_px_alpha(lv_img_dsc_t * dsc, lv_coord_t x, lv_coord_t y, lv_opa_t opa)
 182:..\..\..\arduinoLCD\test\Pain Drain\libraries\lvgl\src\draw/lv_img_buf.c **** {
 491              		.loc 1 182 0
 492              		.cfi_startproc
 493              		@ args = 0, pretend = 0, frame = 0
 494              		@ frame_needed = 0, uses_anonymous_args = 0
 495              	.LVL88:
 496 0000 2DE9F041 		push	{r4, r5, r6, r7, r8, lr}
 497              		.cfi_def_cfa_offset 24
 498              		.cfi_offset 4, -24
 499              		.cfi_offset 5, -20
 500              		.cfi_offset 6, -16
 501              		.cfi_offset 7, -12
 502              		.cfi_offset 8, -8
 503              		.cfi_offset 14, -4
 183:..\..\..\arduinoLCD\test\Pain Drain\libraries\lvgl\src\draw/lv_img_buf.c ****     uint8_t * buf_u8 = (uint8_t *)dsc->data;
ARM GAS  C:\Users\haske\AppData\Local\Temp\ccF9IbRI.s 			page 27


 504              		.loc 1 183 0
 505 0004 8568     		ldr	r5, [r0, #8]
 506              	.LVL89:
 184:..\..\..\arduinoLCD\test\Pain Drain\libraries\lvgl\src\draw/lv_img_buf.c **** 
 185:..\..\..\arduinoLCD\test\Pain Drain\libraries\lvgl\src\draw/lv_img_buf.c ****     if(dsc->header.cf == LV_IMG_CF_TRUE_COLOR_ALPHA) {
 507              		.loc 1 185 0
 508 0006 0478     		ldrb	r4, [r0]	@ zero_extendqisi2
 509 0008 04F01F04 		and	r4, r4, #31
 510 000c 052C     		cmp	r4, #5
 511 000e 16D1     		bne	.L24
 512 0010 1C46     		mov	r4, r3
 513 0012 1646     		mov	r6, r2
 514 0014 0F46     		mov	r7, r1
 515 0016 8046     		mov	r8, r0
 516              	.LBB47:
 186:..\..\..\arduinoLCD\test\Pain Drain\libraries\lvgl\src\draw/lv_img_buf.c ****         uint8_t px_size          = lv_img_cf_get_px_size(dsc->header.cf) >> 3;
 517              		.loc 1 186 0
 518 0018 0078     		ldrb	r0, [r0]	@ zero_extendqisi2
 519              	.LVL90:
 520 001a 00F01F00 		and	r0, r0, #31
 521 001e FFF7FEFF 		bl	lv_img_cf_get_px_size
 522              	.LVL91:
 523 0022 C0F3C700 		ubfx	r0, r0, #3, #8
 524              	.LVL92:
 187:..\..\..\arduinoLCD\test\Pain Drain\libraries\lvgl\src\draw/lv_img_buf.c ****         uint32_t px              = dsc->header.w * y * px_size + x * px_size;
 525              		.loc 1 187 0
 526 0026 D8F80010 		ldr	r1, [r8]
 527 002a C1F38A21 		ubfx	r1, r1, #10, #11
 528 002e 06FB0171 		mla	r1, r6, r1, r7
 529              	.LVL93:
 188:..\..\..\arduinoLCD\test\Pain Drain\libraries\lvgl\src\draw/lv_img_buf.c ****         buf_u8[px + px_size - 1] = opa;
 530              		.loc 1 188 0
 531 0032 00FB0100 		mla	r0, r0, r1, r0
 532              	.LVL94:
 533 0036 0138     		subs	r0, r0, #1
 534 0038 2C54     		strb	r4, [r5, r0]
 535              	.LBE47:
 536 003a BDE8F081 		pop	{r4, r5, r6, r7, r8, pc}
 537              	.LVL95:
 538              	.L24:
 189:..\..\..\arduinoLCD\test\Pain Drain\libraries\lvgl\src\draw/lv_img_buf.c ****     }
 190:..\..\..\arduinoLCD\test\Pain Drain\libraries\lvgl\src\draw/lv_img_buf.c ****     else if(dsc->header.cf == LV_IMG_CF_ALPHA_1BIT) {
 539              		.loc 1 190 0
 540 003e 0B2C     		cmp	r4, #11
 541 0040 19D1     		bne	.L26
 542              	.LBB48:
 191:..\..\..\arduinoLCD\test\Pain Drain\libraries\lvgl\src\draw/lv_img_buf.c ****         opa         = opa >> 7; /*opa -> [0,1]*/
 543              		.loc 1 191 0
 544 0042 DC09     		lsrs	r4, r3, #7
 545              	.LVL96:
 192:..\..\..\arduinoLCD\test\Pain Drain\libraries\lvgl\src\draw/lv_img_buf.c ****         uint8_t bit = x & 0x7;
 546              		.loc 1 192 0
 547 0044 01F00703 		and	r3, r1, #7
 548              	.LVL97:
 193:..\..\..\arduinoLCD\test\Pain Drain\libraries\lvgl\src\draw/lv_img_buf.c ****         x           = x >> 3;
 194:..\..\..\arduinoLCD\test\Pain Drain\libraries\lvgl\src\draw/lv_img_buf.c **** 
 195:..\..\..\arduinoLCD\test\Pain Drain\libraries\lvgl\src\draw/lv_img_buf.c ****         /*Get the current pixel.
ARM GAS  C:\Users\haske\AppData\Local\Temp\ccF9IbRI.s 			page 28


 196:..\..\..\arduinoLCD\test\Pain Drain\libraries\lvgl\src\draw/lv_img_buf.c ****          *dsc->header.w + 7 means rounding up to 8 because the lines are byte aligned
 197:..\..\..\arduinoLCD\test\Pain Drain\libraries\lvgl\src\draw/lv_img_buf.c ****          *so the possible real width are 8 ,16, 24 ...*/
 198:..\..\..\arduinoLCD\test\Pain Drain\libraries\lvgl\src\draw/lv_img_buf.c ****         uint32_t px = ((dsc->header.w + 7) >> 3) * y + x;
 549              		.loc 1 198 0
 550 0048 0068     		ldr	r0, [r0]
 551              	.LVL98:
 552 004a C0F38A20 		ubfx	r0, r0, #10, #11
 553 004e 0730     		adds	r0, r0, #7
 554 0050 C010     		asrs	r0, r0, #3
 555 0052 00FB02F2 		mul	r2, r0, r2
 556              	.LVL99:
 557 0056 02EBE101 		add	r1, r2, r1, asr #3
 558              	.LVL100:
 199:..\..\..\arduinoLCD\test\Pain Drain\libraries\lvgl\src\draw/lv_img_buf.c ****         buf_u8[px]  = buf_u8[px] & ~(1 << (7 - bit));
 559              		.loc 1 199 0
 560 005a 685C     		ldrb	r0, [r5, r1]	@ zero_extendqisi2
 561 005c C3F10703 		rsb	r3, r3, #7
 562              	.LVL101:
 563 0060 0122     		movs	r2, #1
 564 0062 9A40     		lsls	r2, r2, r3
 565 0064 20EA0202 		bic	r2, r0, r2
 566 0068 52B2     		sxtb	r2, r2
 200:..\..\..\arduinoLCD\test\Pain Drain\libraries\lvgl\src\draw/lv_img_buf.c ****         buf_u8[px]  = buf_u8[px] | ((opa & 0x1) << (7 - bit));
 567              		.loc 1 200 0
 568 006a 04FA03F3 		lsl	r3, r4, r3
 569 006e 1343     		orrs	r3, r3, r2
 570 0070 6B54     		strb	r3, [r5, r1]
 571              	.LBE48:
 572 0072 BDE8F081 		pop	{r4, r5, r6, r7, r8, pc}
 573              	.LVL102:
 574              	.L26:
 201:..\..\..\arduinoLCD\test\Pain Drain\libraries\lvgl\src\draw/lv_img_buf.c ****     }
 202:..\..\..\arduinoLCD\test\Pain Drain\libraries\lvgl\src\draw/lv_img_buf.c ****     else if(dsc->header.cf == LV_IMG_CF_ALPHA_2BIT) {
 575              		.loc 1 202 0
 576 0076 0C2C     		cmp	r4, #12
 577 0078 1AD1     		bne	.L27
 578              	.LBB49:
 203:..\..\..\arduinoLCD\test\Pain Drain\libraries\lvgl\src\draw/lv_img_buf.c ****         opa         = opa >> 6; /*opa -> [0,3]*/
 579              		.loc 1 203 0
 580 007a 9C09     		lsrs	r4, r3, #6
 581              	.LVL103:
 204:..\..\..\arduinoLCD\test\Pain Drain\libraries\lvgl\src\draw/lv_img_buf.c ****         uint8_t bit = (x & 0x3) * 2;
 582              		.loc 1 204 0
 583 007c 01F00303 		and	r3, r1, #3
 584 0080 5B00     		lsls	r3, r3, #1
 585              	.LVL104:
 205:..\..\..\arduinoLCD\test\Pain Drain\libraries\lvgl\src\draw/lv_img_buf.c ****         x           = x >> 2;
 206:..\..\..\arduinoLCD\test\Pain Drain\libraries\lvgl\src\draw/lv_img_buf.c **** 
 207:..\..\..\arduinoLCD\test\Pain Drain\libraries\lvgl\src\draw/lv_img_buf.c ****         /*Get the current pixel.
 208:..\..\..\arduinoLCD\test\Pain Drain\libraries\lvgl\src\draw/lv_img_buf.c ****          *dsc->header.w + 4 means rounding up to 8 because the lines are byte aligned
 209:..\..\..\arduinoLCD\test\Pain Drain\libraries\lvgl\src\draw/lv_img_buf.c ****          *so the possible real width are 4 ,8, 12 ...*/
 210:..\..\..\arduinoLCD\test\Pain Drain\libraries\lvgl\src\draw/lv_img_buf.c ****         uint32_t px = ((dsc->header.w + 3) >> 2) * y + x;
 586              		.loc 1 210 0
 587 0082 0068     		ldr	r0, [r0]
 588              	.LVL105:
 589 0084 C0F38A20 		ubfx	r0, r0, #10, #11
 590 0088 0330     		adds	r0, r0, #3
ARM GAS  C:\Users\haske\AppData\Local\Temp\ccF9IbRI.s 			page 29


 591 008a 8010     		asrs	r0, r0, #2
 592 008c 00FB02F2 		mul	r2, r0, r2
 593              	.LVL106:
 594 0090 02EBA101 		add	r1, r2, r1, asr #2
 595              	.LVL107:
 211:..\..\..\arduinoLCD\test\Pain Drain\libraries\lvgl\src\draw/lv_img_buf.c ****         buf_u8[px]  = buf_u8[px] & ~(3 << (6 - bit));
 596              		.loc 1 211 0
 597 0094 685C     		ldrb	r0, [r5, r1]	@ zero_extendqisi2
 598 0096 C3F10603 		rsb	r3, r3, #6
 599              	.LVL108:
 600 009a 0322     		movs	r2, #3
 601 009c 9A40     		lsls	r2, r2, r3
 602 009e 20EA0202 		bic	r2, r0, r2
 603 00a2 52B2     		sxtb	r2, r2
 212:..\..\..\arduinoLCD\test\Pain Drain\libraries\lvgl\src\draw/lv_img_buf.c ****         buf_u8[px]  = buf_u8[px] | ((opa & 0x3) << (6 - bit));
 604              		.loc 1 212 0
 605 00a4 04FA03F3 		lsl	r3, r4, r3
 606 00a8 1343     		orrs	r3, r3, r2
 607 00aa 6B54     		strb	r3, [r5, r1]
 608              	.LBE49:
 609 00ac BDE8F081 		pop	{r4, r5, r6, r7, r8, pc}
 610              	.LVL109:
 611              	.L27:
 213:..\..\..\arduinoLCD\test\Pain Drain\libraries\lvgl\src\draw/lv_img_buf.c ****     }
 214:..\..\..\arduinoLCD\test\Pain Drain\libraries\lvgl\src\draw/lv_img_buf.c ****     else if(dsc->header.cf == LV_IMG_CF_ALPHA_4BIT) {
 612              		.loc 1 214 0
 613 00b0 0D2C     		cmp	r4, #13
 614 00b2 1BD1     		bne	.L28
 615              	.LBB50:
 215:..\..\..\arduinoLCD\test\Pain Drain\libraries\lvgl\src\draw/lv_img_buf.c ****         opa         = opa >> 4; /*opa -> [0,15]*/
 616              		.loc 1 215 0
 617 00b4 1C09     		lsrs	r4, r3, #4
 618              	.LVL110:
 216:..\..\..\arduinoLCD\test\Pain Drain\libraries\lvgl\src\draw/lv_img_buf.c ****         uint8_t bit = (x & 0x1) * 4;
 619              		.loc 1 216 0
 620 00b6 01F00103 		and	r3, r1, #1
 621 00ba 9B00     		lsls	r3, r3, #2
 622 00bc DBB2     		uxtb	r3, r3
 623              	.LVL111:
 217:..\..\..\arduinoLCD\test\Pain Drain\libraries\lvgl\src\draw/lv_img_buf.c ****         x           = x >> 1;
 218:..\..\..\arduinoLCD\test\Pain Drain\libraries\lvgl\src\draw/lv_img_buf.c **** 
 219:..\..\..\arduinoLCD\test\Pain Drain\libraries\lvgl\src\draw/lv_img_buf.c ****         /*Get the current pixel.
 220:..\..\..\arduinoLCD\test\Pain Drain\libraries\lvgl\src\draw/lv_img_buf.c ****          *dsc->header.w + 1 means rounding up to 8 because the lines are byte aligned
 221:..\..\..\arduinoLCD\test\Pain Drain\libraries\lvgl\src\draw/lv_img_buf.c ****          *so the possible real width are 2 ,4, 6 ...*/
 222:..\..\..\arduinoLCD\test\Pain Drain\libraries\lvgl\src\draw/lv_img_buf.c ****         uint32_t px = ((dsc->header.w + 1) >> 1) * y + x;
 624              		.loc 1 222 0
 625 00be 0068     		ldr	r0, [r0]
 626              	.LVL112:
 627 00c0 C0F38A20 		ubfx	r0, r0, #10, #11
 628 00c4 0130     		adds	r0, r0, #1
 629 00c6 4010     		asrs	r0, r0, #1
 630 00c8 00FB02F2 		mul	r2, r0, r2
 631              	.LVL113:
 632 00cc 02EB6101 		add	r1, r2, r1, asr #1
 633              	.LVL114:
 223:..\..\..\arduinoLCD\test\Pain Drain\libraries\lvgl\src\draw/lv_img_buf.c ****         buf_u8[px]  = buf_u8[px] & ~(0xF << (4 - bit));
 634              		.loc 1 223 0
ARM GAS  C:\Users\haske\AppData\Local\Temp\ccF9IbRI.s 			page 30


 635 00d0 685C     		ldrb	r0, [r5, r1]	@ zero_extendqisi2
 636 00d2 C3F10403 		rsb	r3, r3, #4
 637              	.LVL115:
 638 00d6 0F22     		movs	r2, #15
 639 00d8 9A40     		lsls	r2, r2, r3
 640 00da 20EA0202 		bic	r2, r0, r2
 641 00de 52B2     		sxtb	r2, r2
 224:..\..\..\arduinoLCD\test\Pain Drain\libraries\lvgl\src\draw/lv_img_buf.c ****         buf_u8[px]  = buf_u8[px] | ((opa & 0xF) << (4 - bit));
 642              		.loc 1 224 0
 643 00e0 04FA03F3 		lsl	r3, r4, r3
 644 00e4 1343     		orrs	r3, r3, r2
 645 00e6 6B54     		strb	r3, [r5, r1]
 646              	.LBE50:
 647 00e8 BDE8F081 		pop	{r4, r5, r6, r7, r8, pc}
 648              	.LVL116:
 649              	.L28:
 225:..\..\..\arduinoLCD\test\Pain Drain\libraries\lvgl\src\draw/lv_img_buf.c ****     }
 226:..\..\..\arduinoLCD\test\Pain Drain\libraries\lvgl\src\draw/lv_img_buf.c ****     else if(dsc->header.cf == LV_IMG_CF_ALPHA_8BIT) {
 650              		.loc 1 226 0
 651 00ec 0E2C     		cmp	r4, #14
 652 00ee 05D1     		bne	.L23
 653              	.LBB51:
 227:..\..\..\arduinoLCD\test\Pain Drain\libraries\lvgl\src\draw/lv_img_buf.c ****         uint32_t px = dsc->header.w * y + x;
 654              		.loc 1 227 0
 655 00f0 0068     		ldr	r0, [r0]
 656              	.LVL117:
 657 00f2 C0F38A20 		ubfx	r0, r0, #10, #11
 658 00f6 02FB0011 		mla	r1, r2, r0, r1
 659              	.LVL118:
 228:..\..\..\arduinoLCD\test\Pain Drain\libraries\lvgl\src\draw/lv_img_buf.c ****         buf_u8[px]  = opa;
 660              		.loc 1 228 0
 661 00fa 6B54     		strb	r3, [r5, r1]
 662              	.LVL119:
 663              	.L23:
 664 00fc BDE8F081 		pop	{r4, r5, r6, r7, r8, pc}
 665              	.LBE51:
 666              		.cfi_endproc
 667              	.LFE56:
 668              		.size	lv_img_buf_set_px_alpha, .-lv_img_buf_set_px_alpha
 669              		.section	.text.lv_img_buf_set_px_color,"ax",%progbits
 670              		.align	2
 671              		.global	lv_img_buf_set_px_color
 672              		.thumb
 673              		.thumb_func
 674              		.type	lv_img_buf_set_px_color, %function
 675              	lv_img_buf_set_px_color:
 676              	.LFB57:
 229:..\..\..\arduinoLCD\test\Pain Drain\libraries\lvgl\src\draw/lv_img_buf.c ****     }
 230:..\..\..\arduinoLCD\test\Pain Drain\libraries\lvgl\src\draw/lv_img_buf.c **** }
 231:..\..\..\arduinoLCD\test\Pain Drain\libraries\lvgl\src\draw/lv_img_buf.c **** 
 232:..\..\..\arduinoLCD\test\Pain Drain\libraries\lvgl\src\draw/lv_img_buf.c **** /**
 233:..\..\..\arduinoLCD\test\Pain Drain\libraries\lvgl\src\draw/lv_img_buf.c ****  * Set the color of a pixel of an image. The alpha channel won't be affected.
 234:..\..\..\arduinoLCD\test\Pain Drain\libraries\lvgl\src\draw/lv_img_buf.c ****  * @param dsc pointer to an image descriptor
 235:..\..\..\arduinoLCD\test\Pain Drain\libraries\lvgl\src\draw/lv_img_buf.c ****  * @param x x coordinate of the point to set
 236:..\..\..\arduinoLCD\test\Pain Drain\libraries\lvgl\src\draw/lv_img_buf.c ****  * @param y x coordinate of the point to set
 237:..\..\..\arduinoLCD\test\Pain Drain\libraries\lvgl\src\draw/lv_img_buf.c ****  * @param c color of the point
 238:..\..\..\arduinoLCD\test\Pain Drain\libraries\lvgl\src\draw/lv_img_buf.c ****  * @param safe true: check out of bounds
ARM GAS  C:\Users\haske\AppData\Local\Temp\ccF9IbRI.s 			page 31


 239:..\..\..\arduinoLCD\test\Pain Drain\libraries\lvgl\src\draw/lv_img_buf.c ****  */
 240:..\..\..\arduinoLCD\test\Pain Drain\libraries\lvgl\src\draw/lv_img_buf.c **** void lv_img_buf_set_px_color(lv_img_dsc_t * dsc, lv_coord_t x, lv_coord_t y, lv_color_t c)
 241:..\..\..\arduinoLCD\test\Pain Drain\libraries\lvgl\src\draw/lv_img_buf.c **** {
 677              		.loc 1 241 0
 678              		.cfi_startproc
 679              		@ args = 0, pretend = 0, frame = 8
 680              		@ frame_needed = 0, uses_anonymous_args = 0
 681              	.LVL120:
 682 0000 F0B5     		push	{r4, r5, r6, r7, lr}
 683              		.cfi_def_cfa_offset 20
 684              		.cfi_offset 4, -20
 685              		.cfi_offset 5, -16
 686              		.cfi_offset 6, -12
 687              		.cfi_offset 7, -8
 688              		.cfi_offset 14, -4
 689 0002 83B0     		sub	sp, sp, #12
 690              		.cfi_def_cfa_offset 32
 691 0004 0746     		mov	r7, r0
 692 0006 0D46     		mov	r5, r1
 693 0008 1646     		mov	r6, r2
 694 000a ADF80430 		strh	r3, [sp, #4]	@ movhi
 242:..\..\..\arduinoLCD\test\Pain Drain\libraries\lvgl\src\draw/lv_img_buf.c ****     uint8_t * buf_u8 = (uint8_t *)dsc->data;
 695              		.loc 1 242 0
 696 000e 8468     		ldr	r4, [r0, #8]
 697              	.LVL121:
 243:..\..\..\arduinoLCD\test\Pain Drain\libraries\lvgl\src\draw/lv_img_buf.c **** 
 244:..\..\..\arduinoLCD\test\Pain Drain\libraries\lvgl\src\draw/lv_img_buf.c ****     if(dsc->header.cf == LV_IMG_CF_TRUE_COLOR || dsc->header.cf == LV_IMG_CF_TRUE_COLOR_CHROMA_KEYE
 698              		.loc 1 244 0
 699 0010 0378     		ldrb	r3, [r0]	@ zero_extendqisi2
 700 0012 03F01F03 		and	r3, r3, #31
 701 0016 042B     		cmp	r3, #4
 702 0018 01D0     		beq	.L31
 703              		.loc 1 244 0 is_stmt 0 discriminator 1
 704 001a 062B     		cmp	r3, #6
 705 001c 17D1     		bne	.L32
 706              	.L31:
 707              	.LBB52:
 245:..\..\..\arduinoLCD\test\Pain Drain\libraries\lvgl\src\draw/lv_img_buf.c ****         uint8_t px_size = lv_img_cf_get_px_size(dsc->header.cf) >> 3;
 708              		.loc 1 245 0 is_stmt 1
 709 001e 3878     		ldrb	r0, [r7]	@ zero_extendqisi2
 710              	.LVL122:
 711 0020 00F01F00 		and	r0, r0, #31
 712 0024 FFF7FEFF 		bl	lv_img_cf_get_px_size
 713              	.LVL123:
 714 0028 C0F3C700 		ubfx	r0, r0, #3, #8
 715              	.LVL124:
 246:..\..\..\arduinoLCD\test\Pain Drain\libraries\lvgl\src\draw/lv_img_buf.c ****         uint32_t px     = dsc->header.w * y * px_size + x * px_size;
 716              		.loc 1 246 0
 717 002c 3A68     		ldr	r2, [r7]
 718 002e C2F38A22 		ubfx	r2, r2, #10, #11
 719 0032 06FB0252 		mla	r2, r6, r2, r5
 720              	.LVL125:
 247:..\..\..\arduinoLCD\test\Pain Drain\libraries\lvgl\src\draw/lv_img_buf.c ****         lv_memcpy_small(&buf_u8[px], &c, px_size);
 721              		.loc 1 247 0
 722 0036 00FB0242 		mla	r2, r0, r2, r4
 723              	.LVL126:
 724              	.LBB53:
ARM GAS  C:\Users\haske\AppData\Local\Temp\ccF9IbRI.s 			page 32


 725              	.LBB54:
 197:..\..\..\arduinoLCD\test\Pain Drain\libraries\lvgl\src\draw\../misc/lv_mem.h **** 
 726              		.loc 3 197 0
 727 003a 01AB     		add	r3, sp, #4
 728              	.LVL127:
 729 003c 04E0     		b	.L33
 730              	.LVL128:
 731              	.L34:
 200:..\..\..\arduinoLCD\test\Pain Drain\libraries\lvgl\src\draw\../misc/lv_mem.h ****         d8++;
 732              		.loc 3 200 0
 733 003e 13F8011B 		ldrb	r1, [r3], #1	@ zero_extendqisi2
 734              	.LVL129:
 735 0042 02F8011B 		strb	r1, [r2], #1
 736              	.LVL130:
 737              		.loc 3 203 0
 738 0046 0138     		subs	r0, r0, #1
 739              	.LVL131:
 740              	.L33:
 199:..\..\..\arduinoLCD\test\Pain Drain\libraries\lvgl\src\draw\../misc/lv_mem.h ****         *d8 = *s8;
 741              		.loc 3 199 0
 742 0048 0028     		cmp	r0, #0
 743 004a F8D1     		bne	.L34
 744 004c 8CE0     		b	.L30
 745              	.LVL132:
 746              	.L32:
 747              	.LBE54:
 748              	.LBE53:
 749              	.LBE52:
 248:..\..\..\arduinoLCD\test\Pain Drain\libraries\lvgl\src\draw/lv_img_buf.c ****     }
 249:..\..\..\arduinoLCD\test\Pain Drain\libraries\lvgl\src\draw/lv_img_buf.c ****     else if(dsc->header.cf == LV_IMG_CF_TRUE_COLOR_ALPHA) {
 750              		.loc 1 249 0
 751 004e 052B     		cmp	r3, #5
 752 0050 18D1     		bne	.L36
 753              	.LBB55:
 250:..\..\..\arduinoLCD\test\Pain Drain\libraries\lvgl\src\draw/lv_img_buf.c ****         uint8_t px_size = lv_img_cf_get_px_size(dsc->header.cf) >> 3;
 754              		.loc 1 250 0
 755 0052 0078     		ldrb	r0, [r0]	@ zero_extendqisi2
 756              	.LVL133:
 757 0054 00F01F00 		and	r0, r0, #31
 758 0058 FFF7FEFF 		bl	lv_img_cf_get_px_size
 759              	.LVL134:
 760 005c C0F3C700 		ubfx	r0, r0, #3, #8
 761              	.LVL135:
 251:..\..\..\arduinoLCD\test\Pain Drain\libraries\lvgl\src\draw/lv_img_buf.c ****         uint32_t px     = dsc->header.w * y * px_size + x * px_size;
 762              		.loc 1 251 0
 763 0060 3A68     		ldr	r2, [r7]
 764 0062 C2F38A22 		ubfx	r2, r2, #10, #11
 765 0066 06FB0252 		mla	r2, r6, r2, r5
 766              	.LVL136:
 252:..\..\..\arduinoLCD\test\Pain Drain\libraries\lvgl\src\draw/lv_img_buf.c ****         lv_memcpy_small(&buf_u8[px], &c, px_size - 1); /*-1 to not overwrite the alpha value*/
 767              		.loc 1 252 0
 768 006a 00FB0242 		mla	r2, r0, r2, r4
 769              	.LVL137:
 770 006e 0138     		subs	r0, r0, #1
 771              	.LVL138:
 772              	.LBB56:
 773              	.LBB57:
ARM GAS  C:\Users\haske\AppData\Local\Temp\ccF9IbRI.s 			page 33


 197:..\..\..\arduinoLCD\test\Pain Drain\libraries\lvgl\src\draw\../misc/lv_mem.h **** 
 774              		.loc 3 197 0
 775 0070 01AB     		add	r3, sp, #4
 776              	.LVL139:
 777 0072 04E0     		b	.L37
 778              	.LVL140:
 779              	.L38:
 200:..\..\..\arduinoLCD\test\Pain Drain\libraries\lvgl\src\draw\../misc/lv_mem.h ****         d8++;
 780              		.loc 3 200 0
 781 0074 13F8011B 		ldrb	r1, [r3], #1	@ zero_extendqisi2
 782              	.LVL141:
 783 0078 02F8011B 		strb	r1, [r2], #1
 784              	.LVL142:
 785              		.loc 3 203 0
 786 007c 0138     		subs	r0, r0, #1
 787              	.LVL143:
 788              	.L37:
 199:..\..\..\arduinoLCD\test\Pain Drain\libraries\lvgl\src\draw\../misc/lv_mem.h ****         *d8 = *s8;
 789              		.loc 3 199 0
 790 007e 0028     		cmp	r0, #0
 791 0080 F8D1     		bne	.L38
 792 0082 71E0     		b	.L30
 793              	.LVL144:
 794              	.L36:
 795              	.LBE57:
 796              	.LBE56:
 797              	.LBE55:
 253:..\..\..\arduinoLCD\test\Pain Drain\libraries\lvgl\src\draw/lv_img_buf.c ****     }
 254:..\..\..\arduinoLCD\test\Pain Drain\libraries\lvgl\src\draw/lv_img_buf.c ****     else if(dsc->header.cf == LV_IMG_CF_INDEXED_1BIT) {
 798              		.loc 1 254 0
 799 0084 072B     		cmp	r3, #7
 800 0086 1ED1     		bne	.L39
 801              	.LBB58:
 255:..\..\..\arduinoLCD\test\Pain Drain\libraries\lvgl\src\draw/lv_img_buf.c ****         buf_u8 += sizeof(lv_color32_t) * 2; /*Skip the palette*/
 802              		.loc 1 255 0
 803 0088 04F10802 		add	r2, r4, #8
 804              	.LVL145:
 256:..\..\..\arduinoLCD\test\Pain Drain\libraries\lvgl\src\draw/lv_img_buf.c **** 
 257:..\..\..\arduinoLCD\test\Pain Drain\libraries\lvgl\src\draw/lv_img_buf.c ****         uint8_t bit = x & 0x7;
 805              		.loc 1 257 0
 806 008c 01F00700 		and	r0, r1, #7
 807              	.LVL146:
 258:..\..\..\arduinoLCD\test\Pain Drain\libraries\lvgl\src\draw/lv_img_buf.c ****         x           = x >> 3;
 259:..\..\..\arduinoLCD\test\Pain Drain\libraries\lvgl\src\draw/lv_img_buf.c **** 
 260:..\..\..\arduinoLCD\test\Pain Drain\libraries\lvgl\src\draw/lv_img_buf.c ****         /*Get the current pixel.
 261:..\..\..\arduinoLCD\test\Pain Drain\libraries\lvgl\src\draw/lv_img_buf.c ****          *dsc->header.w + 7 means rounding up to 8 because the lines are byte aligned
 262:..\..\..\arduinoLCD\test\Pain Drain\libraries\lvgl\src\draw/lv_img_buf.c ****          *so the possible real width are 8 ,16, 24 ...*/
 263:..\..\..\arduinoLCD\test\Pain Drain\libraries\lvgl\src\draw/lv_img_buf.c ****         uint32_t px = ((dsc->header.w + 7) >> 3) * y + x;
 808              		.loc 1 263 0
 809 0090 3B68     		ldr	r3, [r7]
 810 0092 C3F38A23 		ubfx	r3, r3, #10, #11
 811 0096 0733     		adds	r3, r3, #7
 812 0098 DB10     		asrs	r3, r3, #3
 813 009a 03FB06F6 		mul	r6, r3, r6
 814 009e 06EBE105 		add	r5, r6, r1, asr #3
 815              	.LVL147:
 264:..\..\..\arduinoLCD\test\Pain Drain\libraries\lvgl\src\draw/lv_img_buf.c ****         buf_u8[px]  = buf_u8[px] & ~(1 << (7 - bit));
ARM GAS  C:\Users\haske\AppData\Local\Temp\ccF9IbRI.s 			page 34


 816              		.loc 1 264 0
 817 00a2 515D     		ldrb	r1, [r2, r5]	@ zero_extendqisi2
 818              	.LVL148:
 819 00a4 C0F10703 		rsb	r3, r0, #7
 820 00a8 0120     		movs	r0, #1
 821              	.LVL149:
 822 00aa 9840     		lsls	r0, r0, r3
 823 00ac 21EA0000 		bic	r0, r1, r0
 824 00b0 40B2     		sxtb	r0, r0
 825 00b2 5055     		strb	r0, [r2, r5]
 265:..\..\..\arduinoLCD\test\Pain Drain\libraries\lvgl\src\draw/lv_img_buf.c ****         buf_u8[px]  = buf_u8[px] | ((c.full & 0x1) << (7 - bit));
 826              		.loc 1 265 0
 827 00b4 BDF80410 		ldrh	r1, [sp, #4]
 828 00b8 01F00101 		and	r1, r1, #1
 829 00bc 01FA03F3 		lsl	r3, r1, r3
 830 00c0 0343     		orrs	r3, r3, r0
 831 00c2 5355     		strb	r3, [r2, r5]
 832              	.LBE58:
 833 00c4 50E0     		b	.L30
 834              	.LVL150:
 835              	.L39:
 266:..\..\..\arduinoLCD\test\Pain Drain\libraries\lvgl\src\draw/lv_img_buf.c ****     }
 267:..\..\..\arduinoLCD\test\Pain Drain\libraries\lvgl\src\draw/lv_img_buf.c ****     else if(dsc->header.cf == LV_IMG_CF_INDEXED_2BIT) {
 836              		.loc 1 267 0
 837 00c6 082B     		cmp	r3, #8
 838 00c8 1FD1     		bne	.L40
 839              	.LBB59:
 268:..\..\..\arduinoLCD\test\Pain Drain\libraries\lvgl\src\draw/lv_img_buf.c ****         buf_u8 += sizeof(lv_color32_t) * 4; /*Skip the palette*/
 840              		.loc 1 268 0
 841 00ca 04F11002 		add	r2, r4, #16
 842              	.LVL151:
 269:..\..\..\arduinoLCD\test\Pain Drain\libraries\lvgl\src\draw/lv_img_buf.c ****         uint8_t bit = (x & 0x3) * 2;
 843              		.loc 1 269 0
 844 00ce 01F00303 		and	r3, r1, #3
 845 00d2 5800     		lsls	r0, r3, #1
 846              	.LVL152:
 270:..\..\..\arduinoLCD\test\Pain Drain\libraries\lvgl\src\draw/lv_img_buf.c ****         x           = x >> 2;
 271:..\..\..\arduinoLCD\test\Pain Drain\libraries\lvgl\src\draw/lv_img_buf.c **** 
 272:..\..\..\arduinoLCD\test\Pain Drain\libraries\lvgl\src\draw/lv_img_buf.c ****         /*Get the current pixel.
 273:..\..\..\arduinoLCD\test\Pain Drain\libraries\lvgl\src\draw/lv_img_buf.c ****          *dsc->header.w + 3 means rounding up to 4 because the lines are byte aligned
 274:..\..\..\arduinoLCD\test\Pain Drain\libraries\lvgl\src\draw/lv_img_buf.c ****          *so the possible real width are 4, 8 ,12 ...*/
 275:..\..\..\arduinoLCD\test\Pain Drain\libraries\lvgl\src\draw/lv_img_buf.c ****         uint32_t px = ((dsc->header.w + 3) >> 2) * y + x;
 847              		.loc 1 275 0
 848 00d4 3B68     		ldr	r3, [r7]
 849 00d6 C3F38A23 		ubfx	r3, r3, #10, #11
 850 00da 0333     		adds	r3, r3, #3
 851 00dc 9B10     		asrs	r3, r3, #2
 852 00de 03FB06F6 		mul	r6, r3, r6
 853 00e2 06EBA105 		add	r5, r6, r1, asr #2
 854              	.LVL153:
 276:..\..\..\arduinoLCD\test\Pain Drain\libraries\lvgl\src\draw/lv_img_buf.c **** 
 277:..\..\..\arduinoLCD\test\Pain Drain\libraries\lvgl\src\draw/lv_img_buf.c ****         buf_u8[px] = buf_u8[px] & ~(3 << (6 - bit));
 855              		.loc 1 277 0
 856 00e6 515D     		ldrb	r1, [r2, r5]	@ zero_extendqisi2
 857              	.LVL154:
 858 00e8 C0F10603 		rsb	r3, r0, #6
 859 00ec 0320     		movs	r0, #3
ARM GAS  C:\Users\haske\AppData\Local\Temp\ccF9IbRI.s 			page 35


 860              	.LVL155:
 861 00ee 9840     		lsls	r0, r0, r3
 862 00f0 21EA0000 		bic	r0, r1, r0
 863 00f4 40B2     		sxtb	r0, r0
 864 00f6 5055     		strb	r0, [r2, r5]
 278:..\..\..\arduinoLCD\test\Pain Drain\libraries\lvgl\src\draw/lv_img_buf.c ****         buf_u8[px] = buf_u8[px] | ((c.full & 0x3) << (6 - bit));
 865              		.loc 1 278 0
 866 00f8 BDF80410 		ldrh	r1, [sp, #4]
 867 00fc 01F00301 		and	r1, r1, #3
 868 0100 01FA03F3 		lsl	r3, r1, r3
 869 0104 0343     		orrs	r3, r3, r0
 870 0106 5355     		strb	r3, [r2, r5]
 871              	.LBE59:
 872 0108 2EE0     		b	.L30
 873              	.LVL156:
 874              	.L40:
 279:..\..\..\arduinoLCD\test\Pain Drain\libraries\lvgl\src\draw/lv_img_buf.c ****     }
 280:..\..\..\arduinoLCD\test\Pain Drain\libraries\lvgl\src\draw/lv_img_buf.c ****     else if(dsc->header.cf == LV_IMG_CF_INDEXED_4BIT) {
 875              		.loc 1 280 0
 876 010a 092B     		cmp	r3, #9
 877 010c 20D1     		bne	.L41
 878              	.LBB60:
 281:..\..\..\arduinoLCD\test\Pain Drain\libraries\lvgl\src\draw/lv_img_buf.c ****         buf_u8 += sizeof(lv_color32_t) * 16; /*Skip the palette*/
 879              		.loc 1 281 0
 880 010e 04F14002 		add	r2, r4, #64
 881              	.LVL157:
 282:..\..\..\arduinoLCD\test\Pain Drain\libraries\lvgl\src\draw/lv_img_buf.c ****         uint8_t bit = (x & 0x1) * 4;
 882              		.loc 1 282 0
 883 0112 01F00103 		and	r3, r1, #1
 884 0116 9B00     		lsls	r3, r3, #2
 885 0118 D9B2     		uxtb	r1, r3
 886              	.LVL158:
 283:..\..\..\arduinoLCD\test\Pain Drain\libraries\lvgl\src\draw/lv_img_buf.c ****         x           = x >> 1;
 284:..\..\..\arduinoLCD\test\Pain Drain\libraries\lvgl\src\draw/lv_img_buf.c **** 
 285:..\..\..\arduinoLCD\test\Pain Drain\libraries\lvgl\src\draw/lv_img_buf.c ****         /*Get the current pixel.
 286:..\..\..\arduinoLCD\test\Pain Drain\libraries\lvgl\src\draw/lv_img_buf.c ****          *dsc->header.w + 1 means rounding up to 2 because the lines are byte aligned
 287:..\..\..\arduinoLCD\test\Pain Drain\libraries\lvgl\src\draw/lv_img_buf.c ****          *so the possible real width are 2 ,4, 6 ...*/
 288:..\..\..\arduinoLCD\test\Pain Drain\libraries\lvgl\src\draw/lv_img_buf.c ****         uint32_t px = ((dsc->header.w + 1) >> 1) * y + x;
 887              		.loc 1 288 0
 888 011a 0368     		ldr	r3, [r0]
 889 011c C3F38A23 		ubfx	r3, r3, #10, #11
 890 0120 0133     		adds	r3, r3, #1
 891 0122 5B10     		asrs	r3, r3, #1
 892 0124 03FB06F6 		mul	r6, r3, r6
 893 0128 06EB6505 		add	r5, r6, r5, asr #1
 894              	.LVL159:
 289:..\..\..\arduinoLCD\test\Pain Drain\libraries\lvgl\src\draw/lv_img_buf.c ****         buf_u8[px]  = buf_u8[px] & ~(0xF << (4 - bit));
 895              		.loc 1 289 0
 896 012c 545D     		ldrb	r4, [r2, r5]	@ zero_extendqisi2
 897 012e C1F10403 		rsb	r3, r1, #4
 898 0132 0F20     		movs	r0, #15
 899              	.LVL160:
 900 0134 9840     		lsls	r0, r0, r3
 901 0136 24EA0000 		bic	r0, r4, r0
 902 013a 40B2     		sxtb	r0, r0
 903 013c 5055     		strb	r0, [r2, r5]
 290:..\..\..\arduinoLCD\test\Pain Drain\libraries\lvgl\src\draw/lv_img_buf.c ****         buf_u8[px]  = buf_u8[px] | ((c.full & 0xF) << (4 - bit));
ARM GAS  C:\Users\haske\AppData\Local\Temp\ccF9IbRI.s 			page 36


 904              		.loc 1 290 0
 905 013e BDF80410 		ldrh	r1, [sp, #4]
 906              	.LVL161:
 907 0142 01F00F01 		and	r1, r1, #15
 908 0146 01FA03F3 		lsl	r3, r1, r3
 909 014a 0343     		orrs	r3, r3, r0
 910 014c 5355     		strb	r3, [r2, r5]
 911              	.LBE60:
 912 014e 0BE0     		b	.L30
 913              	.LVL162:
 914              	.L41:
 291:..\..\..\arduinoLCD\test\Pain Drain\libraries\lvgl\src\draw/lv_img_buf.c ****     }
 292:..\..\..\arduinoLCD\test\Pain Drain\libraries\lvgl\src\draw/lv_img_buf.c ****     else if(dsc->header.cf == LV_IMG_CF_INDEXED_8BIT) {
 915              		.loc 1 292 0
 916 0150 0A2B     		cmp	r3, #10
 917 0152 09D1     		bne	.L30
 918              	.LVL163:
 919              	.LBB61:
 293:..\..\..\arduinoLCD\test\Pain Drain\libraries\lvgl\src\draw/lv_img_buf.c ****         buf_u8 += sizeof(lv_color32_t) * 256; /*Skip the palette*/
 294:..\..\..\arduinoLCD\test\Pain Drain\libraries\lvgl\src\draw/lv_img_buf.c ****         uint32_t px = dsc->header.w * y + x;
 920              		.loc 1 294 0
 921 0154 0268     		ldr	r2, [r0]
 922              	.LVL164:
 923 0156 C2F38A22 		ubfx	r2, r2, #10, #11
 924 015a 06FB0212 		mla	r2, r6, r2, r1
 925              	.LVL165:
 295:..\..\..\arduinoLCD\test\Pain Drain\libraries\lvgl\src\draw/lv_img_buf.c ****         buf_u8[px]  = c.full;
 926              		.loc 1 295 0
 927 015e 02F58062 		add	r2, r2, #1024
 928              	.LVL166:
 929 0162 BDF80430 		ldrh	r3, [sp, #4]
 930 0166 A354     		strb	r3, [r4, r2]
 931              	.LVL167:
 932              	.L30:
 933              	.LBE61:
 296:..\..\..\arduinoLCD\test\Pain Drain\libraries\lvgl\src\draw/lv_img_buf.c ****     }
 297:..\..\..\arduinoLCD\test\Pain Drain\libraries\lvgl\src\draw/lv_img_buf.c **** }
 934              		.loc 1 297 0
 935 0168 03B0     		add	sp, sp, #12
 936              		.cfi_def_cfa_offset 20
 937              		@ sp needed
 938 016a F0BD     		pop	{r4, r5, r6, r7, pc}
 939              		.cfi_endproc
 940              	.LFE57:
 941              		.size	lv_img_buf_set_px_color, .-lv_img_buf_set_px_color
 942              		.section	.text.lv_img_buf_set_palette,"ax",%progbits
 943              		.align	2
 944              		.global	lv_img_buf_set_palette
 945              		.thumb
 946              		.thumb_func
 947              		.type	lv_img_buf_set_palette, %function
 948              	lv_img_buf_set_palette:
 949              	.LFB58:
 298:..\..\..\arduinoLCD\test\Pain Drain\libraries\lvgl\src\draw/lv_img_buf.c **** 
 299:..\..\..\arduinoLCD\test\Pain Drain\libraries\lvgl\src\draw/lv_img_buf.c **** /**
 300:..\..\..\arduinoLCD\test\Pain Drain\libraries\lvgl\src\draw/lv_img_buf.c ****  * Set the palette color of an indexed image. Valid only for `LV_IMG_CF_INDEXED1/2/4/8`
 301:..\..\..\arduinoLCD\test\Pain Drain\libraries\lvgl\src\draw/lv_img_buf.c ****  * @param dsc pointer to an image descriptor
ARM GAS  C:\Users\haske\AppData\Local\Temp\ccF9IbRI.s 			page 37


 302:..\..\..\arduinoLCD\test\Pain Drain\libraries\lvgl\src\draw/lv_img_buf.c ****  * @param id the palette color to set:
 303:..\..\..\arduinoLCD\test\Pain Drain\libraries\lvgl\src\draw/lv_img_buf.c ****  *   - for `LV_IMG_CF_INDEXED1`: 0..1
 304:..\..\..\arduinoLCD\test\Pain Drain\libraries\lvgl\src\draw/lv_img_buf.c ****  *   - for `LV_IMG_CF_INDEXED2`: 0..3
 305:..\..\..\arduinoLCD\test\Pain Drain\libraries\lvgl\src\draw/lv_img_buf.c ****  *   - for `LV_IMG_CF_INDEXED4`: 0..15
 306:..\..\..\arduinoLCD\test\Pain Drain\libraries\lvgl\src\draw/lv_img_buf.c ****  *   - for `LV_IMG_CF_INDEXED8`: 0..255
 307:..\..\..\arduinoLCD\test\Pain Drain\libraries\lvgl\src\draw/lv_img_buf.c ****  * @param c the color to set
 308:..\..\..\arduinoLCD\test\Pain Drain\libraries\lvgl\src\draw/lv_img_buf.c ****  */
 309:..\..\..\arduinoLCD\test\Pain Drain\libraries\lvgl\src\draw/lv_img_buf.c **** void lv_img_buf_set_palette(lv_img_dsc_t * dsc, uint8_t id, lv_color_t c)
 310:..\..\..\arduinoLCD\test\Pain Drain\libraries\lvgl\src\draw/lv_img_buf.c **** {
 950              		.loc 1 310 0
 951              		.cfi_startproc
 952              		@ args = 0, pretend = 0, frame = 8
 953              		@ frame_needed = 0, uses_anonymous_args = 0
 954              		@ link register save eliminated.
 955              	.LVL168:
 311:..\..\..\arduinoLCD\test\Pain Drain\libraries\lvgl\src\draw/lv_img_buf.c ****     if((dsc->header.cf == LV_IMG_CF_ALPHA_1BIT && id > 1) || (dsc->header.cf == LV_IMG_CF_ALPHA_2BI
 956              		.loc 1 311 0
 957 0000 0378     		ldrb	r3, [r0]	@ zero_extendqisi2
 958 0002 03F01F03 		and	r3, r3, #31
 959 0006 0B2B     		cmp	r3, #11
 960 0008 01D1     		bne	.L44
 961              		.loc 1 311 0 is_stmt 0 discriminator 1
 962 000a 0129     		cmp	r1, #1
 963 000c 40D8     		bhi	.L53
 964              	.L44:
 965              		.loc 1 311 0 discriminator 3
 966 000e 0C2B     		cmp	r3, #12
 967 0010 01D1     		bne	.L46
 968              		.loc 1 311 0 discriminator 4
 969 0012 0329     		cmp	r1, #3
 970 0014 3CD8     		bhi	.L53
 971              	.L46:
 972              		.loc 1 311 0 discriminator 6
 973 0016 0D2B     		cmp	r3, #13
 974 0018 01D1     		bne	.L47
 312:..\..\..\arduinoLCD\test\Pain Drain\libraries\lvgl\src\draw/lv_img_buf.c ****        (dsc->header.cf == LV_IMG_CF_ALPHA_4BIT && id > 15) || (dsc->header.cf == LV_IMG_CF_ALPHA_8B
 975              		.loc 1 312 0 is_stmt 1
 976 001a 0F29     		cmp	r1, #15
 977 001c 38D8     		bhi	.L53
 978              	.L47:
 979              		.loc 1 312 0 is_stmt 0 discriminator 1
 980 001e 0E2B     		cmp	r3, #14
 981 0020 36D0     		beq	.L53
 310:..\..\..\arduinoLCD\test\Pain Drain\libraries\lvgl\src\draw/lv_img_buf.c ****     if((dsc->header.cf == LV_IMG_CF_ALPHA_1BIT && id > 1) || (dsc->header.cf == LV_IMG_CF_ALPHA_2BI
 982              		.loc 1 310 0 is_stmt 1
 983 0022 30B4     		push	{r4, r5}
 984              		.cfi_def_cfa_offset 8
 985              		.cfi_offset 4, -8
 986              		.cfi_offset 5, -4
 987 0024 82B0     		sub	sp, sp, #8
 988              		.cfi_def_cfa_offset 16
 989              	.LBB62:
 990              	.LBB63:
 420:..\..\..\arduinoLCD\test\Pain Drain\libraries\lvgl\src\draw\../misc/lv_color.h ****     LV_COLOR_SET_G32(ret, (LV_COLOR_GET_G(color) * 259 + 3) >> 6);
 991              		.loc 2 420 0
 992 0026 C2F3C423 		ubfx	r3, r2, #11, #5
 993 002a 03EB4314 		add	r4, r3, r3, lsl #5
ARM GAS  C:\Users\haske\AppData\Local\Temp\ccF9IbRI.s 			page 38


 994 002e C3EBC403 		rsb	r3, r3, r4, lsl #3
 995 0032 0733     		adds	r3, r3, #7
 996 0034 C3F34713 		ubfx	r3, r3, #5, #8
 997 0038 0024     		movs	r4, #0
 998              	.LVL169:
 999 003a 63F31744 		bfi	r4, r3, #16, #8
 1000              	.LVL170:
 421:..\..\..\arduinoLCD\test\Pain Drain\libraries\lvgl\src\draw\../misc/lv_color.h ****     LV_COLOR_SET_B32(ret, (LV_COLOR_GET_B(color) * 263 + 7) >> 5);
 1001              		.loc 2 421 0
 1002 003e C2F34513 		ubfx	r3, r2, #5, #6
 1003 0042 03EBC315 		add	r5, r3, r3, lsl #7
 1004 0046 03EB4503 		add	r3, r3, r5, lsl #1
 1005 004a 0333     		adds	r3, r3, #3
 1006 004c C3F38713 		ubfx	r3, r3, #6, #8
 1007 0050 63F30F24 		bfi	r4, r3, #8, #8
 422:..\..\..\arduinoLCD\test\Pain Drain\libraries\lvgl\src\draw\../misc/lv_color.h ****     LV_COLOR_SET_A32(ret, 0xFF);
 1008              		.loc 2 422 0
 1009 0054 02F01F02 		and	r2, r2, #31
 1010              	.LVL171:
 1011 0058 02EB4213 		add	r3, r2, r2, lsl #5
 1012 005c C2EBC302 		rsb	r2, r2, r3, lsl #3
 1013 0060 0732     		adds	r2, r2, #7
 1014 0062 C2F34712 		ubfx	r2, r2, #5, #8
 1015 0066 62F30704 		bfi	r4, r2, #0, #8
 423:..\..\..\arduinoLCD\test\Pain Drain\libraries\lvgl\src\draw\../misc/lv_color.h ****     return ret.full;
 1016              		.loc 2 423 0
 1017 006a 44F07F44 		orr	r4, r4, #-16777216
 1018              	.LVL172:
 1019              	.LBE63:
 1020              	.LBE62:
 313:..\..\..\arduinoLCD\test\Pain Drain\libraries\lvgl\src\draw/lv_img_buf.c ****         LV_LOG_WARN("lv_img_buf_set_px_alpha: invalid 'id'");
 314:..\..\..\arduinoLCD\test\Pain Drain\libraries\lvgl\src\draw/lv_img_buf.c ****         return;
 315:..\..\..\arduinoLCD\test\Pain Drain\libraries\lvgl\src\draw/lv_img_buf.c ****     }
 316:..\..\..\arduinoLCD\test\Pain Drain\libraries\lvgl\src\draw/lv_img_buf.c **** 
 317:..\..\..\arduinoLCD\test\Pain Drain\libraries\lvgl\src\draw/lv_img_buf.c ****     lv_color32_t c32;
 318:..\..\..\arduinoLCD\test\Pain Drain\libraries\lvgl\src\draw/lv_img_buf.c ****     c32.full      = lv_color_to32(c);
 1021              		.loc 1 318 0
 1022 006e 02AA     		add	r2, sp, #8
 1023              	.LVL173:
 1024 0070 42F8044D 		str	r4, [r2, #-4]!
 319:..\..\..\arduinoLCD\test\Pain Drain\libraries\lvgl\src\draw/lv_img_buf.c ****     uint8_t * buf = (uint8_t *)dsc->data;
 1025              		.loc 1 319 0
 1026 0074 8368     		ldr	r3, [r0, #8]
 1027              	.LVL174:
 320:..\..\..\arduinoLCD\test\Pain Drain\libraries\lvgl\src\draw/lv_img_buf.c ****     lv_memcpy_small(&buf[id * sizeof(c32)], &c32, sizeof(c32));
 1028              		.loc 1 320 0
 1029 0076 03EB8101 		add	r1, r3, r1, lsl #2
 1030              	.LVL175:
 1031 007a 0423     		movs	r3, #4
 1032              	.LVL176:
 1033 007c 04E0     		b	.L48
 1034              	.LVL177:
 1035              	.L49:
 1036              	.LBB64:
 1037              	.LBB65:
 200:..\..\..\arduinoLCD\test\Pain Drain\libraries\lvgl\src\draw\../misc/lv_mem.h ****         d8++;
 1038              		.loc 3 200 0
ARM GAS  C:\Users\haske\AppData\Local\Temp\ccF9IbRI.s 			page 39


 1039 007e 12F8010B 		ldrb	r0, [r2], #1	@ zero_extendqisi2
 1040              	.LVL178:
 1041 0082 01F8010B 		strb	r0, [r1], #1
 1042              	.LVL179:
 1043              		.loc 3 203 0
 1044 0086 013B     		subs	r3, r3, #1
 1045              	.LVL180:
 1046              	.L48:
 199:..\..\..\arduinoLCD\test\Pain Drain\libraries\lvgl\src\draw\../misc/lv_mem.h ****         *d8 = *s8;
 1047              		.loc 3 199 0
 1048 0088 002B     		cmp	r3, #0
 1049 008a F8D1     		bne	.L49
 1050              	.LBE65:
 1051              	.LBE64:
 321:..\..\..\arduinoLCD\test\Pain Drain\libraries\lvgl\src\draw/lv_img_buf.c **** }
 1052              		.loc 1 321 0
 1053 008c 02B0     		add	sp, sp, #8
 1054              		.cfi_def_cfa_offset 8
 1055              		@ sp needed
 1056 008e 30BC     		pop	{r4, r5}
 1057              		.cfi_restore 5
 1058              		.cfi_restore 4
 1059              		.cfi_def_cfa_offset 0
 1060              	.LVL181:
 1061              	.L53:
 1062 0090 7047     		bx	lr
 1063              		.cfi_endproc
 1064              	.LFE58:
 1065              		.size	lv_img_buf_set_palette, .-lv_img_buf_set_palette
 1066 0092 00BF     		.section	.text.lv_img_buf_free,"ax",%progbits
 1067              		.align	2
 1068              		.global	lv_img_buf_free
 1069              		.thumb
 1070              		.thumb_func
 1071              		.type	lv_img_buf_free, %function
 1072              	lv_img_buf_free:
 1073              	.LFB60:
 322:..\..\..\arduinoLCD\test\Pain Drain\libraries\lvgl\src\draw/lv_img_buf.c **** 
 323:..\..\..\arduinoLCD\test\Pain Drain\libraries\lvgl\src\draw/lv_img_buf.c **** /**
 324:..\..\..\arduinoLCD\test\Pain Drain\libraries\lvgl\src\draw/lv_img_buf.c ****  * Allocate an image buffer in RAM
 325:..\..\..\arduinoLCD\test\Pain Drain\libraries\lvgl\src\draw/lv_img_buf.c ****  * @param w width of image
 326:..\..\..\arduinoLCD\test\Pain Drain\libraries\lvgl\src\draw/lv_img_buf.c ****  * @param h height of image
 327:..\..\..\arduinoLCD\test\Pain Drain\libraries\lvgl\src\draw/lv_img_buf.c ****  * @param cf a color format (`LV_IMG_CF_...`)
 328:..\..\..\arduinoLCD\test\Pain Drain\libraries\lvgl\src\draw/lv_img_buf.c ****  * @return an allocated image, or NULL on failure
 329:..\..\..\arduinoLCD\test\Pain Drain\libraries\lvgl\src\draw/lv_img_buf.c ****  */
 330:..\..\..\arduinoLCD\test\Pain Drain\libraries\lvgl\src\draw/lv_img_buf.c **** lv_img_dsc_t * lv_img_buf_alloc(lv_coord_t w, lv_coord_t h, lv_img_cf_t cf)
 331:..\..\..\arduinoLCD\test\Pain Drain\libraries\lvgl\src\draw/lv_img_buf.c **** {
 332:..\..\..\arduinoLCD\test\Pain Drain\libraries\lvgl\src\draw/lv_img_buf.c ****     /*Allocate image descriptor*/
 333:..\..\..\arduinoLCD\test\Pain Drain\libraries\lvgl\src\draw/lv_img_buf.c ****     lv_img_dsc_t * dsc = lv_mem_alloc(sizeof(lv_img_dsc_t));
 334:..\..\..\arduinoLCD\test\Pain Drain\libraries\lvgl\src\draw/lv_img_buf.c ****     if(dsc == NULL)
 335:..\..\..\arduinoLCD\test\Pain Drain\libraries\lvgl\src\draw/lv_img_buf.c ****         return NULL;
 336:..\..\..\arduinoLCD\test\Pain Drain\libraries\lvgl\src\draw/lv_img_buf.c **** 
 337:..\..\..\arduinoLCD\test\Pain Drain\libraries\lvgl\src\draw/lv_img_buf.c ****     lv_memset_00(dsc, sizeof(lv_img_dsc_t));
 338:..\..\..\arduinoLCD\test\Pain Drain\libraries\lvgl\src\draw/lv_img_buf.c **** 
 339:..\..\..\arduinoLCD\test\Pain Drain\libraries\lvgl\src\draw/lv_img_buf.c ****     /*Get image data size*/
 340:..\..\..\arduinoLCD\test\Pain Drain\libraries\lvgl\src\draw/lv_img_buf.c ****     dsc->data_size = lv_img_buf_get_img_size(w, h, cf);
 341:..\..\..\arduinoLCD\test\Pain Drain\libraries\lvgl\src\draw/lv_img_buf.c ****     if(dsc->data_size == 0) {
ARM GAS  C:\Users\haske\AppData\Local\Temp\ccF9IbRI.s 			page 40


 342:..\..\..\arduinoLCD\test\Pain Drain\libraries\lvgl\src\draw/lv_img_buf.c ****         lv_mem_free(dsc);
 343:..\..\..\arduinoLCD\test\Pain Drain\libraries\lvgl\src\draw/lv_img_buf.c ****         return NULL;
 344:..\..\..\arduinoLCD\test\Pain Drain\libraries\lvgl\src\draw/lv_img_buf.c ****     }
 345:..\..\..\arduinoLCD\test\Pain Drain\libraries\lvgl\src\draw/lv_img_buf.c **** 
 346:..\..\..\arduinoLCD\test\Pain Drain\libraries\lvgl\src\draw/lv_img_buf.c ****     /*Allocate raw buffer*/
 347:..\..\..\arduinoLCD\test\Pain Drain\libraries\lvgl\src\draw/lv_img_buf.c ****     dsc->data = lv_mem_alloc(dsc->data_size);
 348:..\..\..\arduinoLCD\test\Pain Drain\libraries\lvgl\src\draw/lv_img_buf.c ****     if(dsc->data == NULL) {
 349:..\..\..\arduinoLCD\test\Pain Drain\libraries\lvgl\src\draw/lv_img_buf.c ****         lv_mem_free(dsc);
 350:..\..\..\arduinoLCD\test\Pain Drain\libraries\lvgl\src\draw/lv_img_buf.c ****         return NULL;
 351:..\..\..\arduinoLCD\test\Pain Drain\libraries\lvgl\src\draw/lv_img_buf.c ****     }
 352:..\..\..\arduinoLCD\test\Pain Drain\libraries\lvgl\src\draw/lv_img_buf.c ****     lv_memset_00((uint8_t *)dsc->data, dsc->data_size);
 353:..\..\..\arduinoLCD\test\Pain Drain\libraries\lvgl\src\draw/lv_img_buf.c **** 
 354:..\..\..\arduinoLCD\test\Pain Drain\libraries\lvgl\src\draw/lv_img_buf.c ****     /*Fill in header*/
 355:..\..\..\arduinoLCD\test\Pain Drain\libraries\lvgl\src\draw/lv_img_buf.c ****     dsc->header.always_zero = 0;
 356:..\..\..\arduinoLCD\test\Pain Drain\libraries\lvgl\src\draw/lv_img_buf.c ****     dsc->header.w = w;
 357:..\..\..\arduinoLCD\test\Pain Drain\libraries\lvgl\src\draw/lv_img_buf.c ****     dsc->header.h = h;
 358:..\..\..\arduinoLCD\test\Pain Drain\libraries\lvgl\src\draw/lv_img_buf.c ****     dsc->header.cf = cf;
 359:..\..\..\arduinoLCD\test\Pain Drain\libraries\lvgl\src\draw/lv_img_buf.c ****     return dsc;
 360:..\..\..\arduinoLCD\test\Pain Drain\libraries\lvgl\src\draw/lv_img_buf.c **** }
 361:..\..\..\arduinoLCD\test\Pain Drain\libraries\lvgl\src\draw/lv_img_buf.c **** 
 362:..\..\..\arduinoLCD\test\Pain Drain\libraries\lvgl\src\draw/lv_img_buf.c **** /**
 363:..\..\..\arduinoLCD\test\Pain Drain\libraries\lvgl\src\draw/lv_img_buf.c ****  * Free an allocated image buffer
 364:..\..\..\arduinoLCD\test\Pain Drain\libraries\lvgl\src\draw/lv_img_buf.c ****  * @param dsc image buffer to free
 365:..\..\..\arduinoLCD\test\Pain Drain\libraries\lvgl\src\draw/lv_img_buf.c ****  */
 366:..\..\..\arduinoLCD\test\Pain Drain\libraries\lvgl\src\draw/lv_img_buf.c **** void lv_img_buf_free(lv_img_dsc_t * dsc)
 367:..\..\..\arduinoLCD\test\Pain Drain\libraries\lvgl\src\draw/lv_img_buf.c **** {
 1074              		.loc 1 367 0
 1075              		.cfi_startproc
 1076              		@ args = 0, pretend = 0, frame = 0
 1077              		@ frame_needed = 0, uses_anonymous_args = 0
 1078              	.LVL182:
 368:..\..\..\arduinoLCD\test\Pain Drain\libraries\lvgl\src\draw/lv_img_buf.c ****     if(dsc != NULL) {
 1079              		.loc 1 368 0
 1080 0000 48B1     		cbz	r0, .L58
 367:..\..\..\arduinoLCD\test\Pain Drain\libraries\lvgl\src\draw/lv_img_buf.c ****     if(dsc != NULL) {
 1081              		.loc 1 367 0
 1082 0002 10B5     		push	{r4, lr}
 1083              		.cfi_def_cfa_offset 8
 1084              		.cfi_offset 4, -8
 1085              		.cfi_offset 14, -4
 1086 0004 0446     		mov	r4, r0
 369:..\..\..\arduinoLCD\test\Pain Drain\libraries\lvgl\src\draw/lv_img_buf.c ****         if(dsc->data != NULL)
 1087              		.loc 1 369 0
 1088 0006 8068     		ldr	r0, [r0, #8]
 1089              	.LVL183:
 1090 0008 08B1     		cbz	r0, .L56
 370:..\..\..\arduinoLCD\test\Pain Drain\libraries\lvgl\src\draw/lv_img_buf.c ****             lv_mem_free((void *)dsc->data);
 1091              		.loc 1 370 0
 1092 000a FFF7FEFF 		bl	lv_mem_free
 1093              	.LVL184:
 1094              	.L56:
 371:..\..\..\arduinoLCD\test\Pain Drain\libraries\lvgl\src\draw/lv_img_buf.c **** 
 372:..\..\..\arduinoLCD\test\Pain Drain\libraries\lvgl\src\draw/lv_img_buf.c ****         lv_mem_free(dsc);
 1095              		.loc 1 372 0
 1096 000e 2046     		mov	r0, r4
 1097 0010 FFF7FEFF 		bl	lv_mem_free
 1098              	.LVL185:
ARM GAS  C:\Users\haske\AppData\Local\Temp\ccF9IbRI.s 			page 41


 1099 0014 10BD     		pop	{r4, pc}
 1100              	.LVL186:
 1101              	.L58:
 1102              		.cfi_def_cfa_offset 0
 1103              		.cfi_restore 4
 1104              		.cfi_restore 14
 1105 0016 7047     		bx	lr
 1106              		.cfi_endproc
 1107              	.LFE60:
 1108              		.size	lv_img_buf_free, .-lv_img_buf_free
 1109              		.section	.text.lv_img_buf_get_img_size,"ax",%progbits
 1110              		.align	2
 1111              		.global	lv_img_buf_get_img_size
 1112              		.thumb
 1113              		.thumb_func
 1114              		.type	lv_img_buf_get_img_size, %function
 1115              	lv_img_buf_get_img_size:
 1116              	.LFB61:
 373:..\..\..\arduinoLCD\test\Pain Drain\libraries\lvgl\src\draw/lv_img_buf.c ****     }
 374:..\..\..\arduinoLCD\test\Pain Drain\libraries\lvgl\src\draw/lv_img_buf.c **** }
 375:..\..\..\arduinoLCD\test\Pain Drain\libraries\lvgl\src\draw/lv_img_buf.c **** 
 376:..\..\..\arduinoLCD\test\Pain Drain\libraries\lvgl\src\draw/lv_img_buf.c **** /**
 377:..\..\..\arduinoLCD\test\Pain Drain\libraries\lvgl\src\draw/lv_img_buf.c ****  * Get the memory consumption of a raw bitmap, given color format and dimensions.
 378:..\..\..\arduinoLCD\test\Pain Drain\libraries\lvgl\src\draw/lv_img_buf.c ****  * @param w width
 379:..\..\..\arduinoLCD\test\Pain Drain\libraries\lvgl\src\draw/lv_img_buf.c ****  * @param h height
 380:..\..\..\arduinoLCD\test\Pain Drain\libraries\lvgl\src\draw/lv_img_buf.c ****  * @param cf color format
 381:..\..\..\arduinoLCD\test\Pain Drain\libraries\lvgl\src\draw/lv_img_buf.c ****  * @return size in bytes
 382:..\..\..\arduinoLCD\test\Pain Drain\libraries\lvgl\src\draw/lv_img_buf.c ****  */
 383:..\..\..\arduinoLCD\test\Pain Drain\libraries\lvgl\src\draw/lv_img_buf.c **** uint32_t lv_img_buf_get_img_size(lv_coord_t w, lv_coord_t h, lv_img_cf_t cf)
 384:..\..\..\arduinoLCD\test\Pain Drain\libraries\lvgl\src\draw/lv_img_buf.c **** {
 1117              		.loc 1 384 0
 1118              		.cfi_startproc
 1119              		@ args = 0, pretend = 0, frame = 0
 1120              		@ frame_needed = 0, uses_anonymous_args = 0
 1121              		@ link register save eliminated.
 1122              	.LVL187:
 385:..\..\..\arduinoLCD\test\Pain Drain\libraries\lvgl\src\draw/lv_img_buf.c ****     switch(cf) {
 1123              		.loc 1 385 0
 1124 0000 043A     		subs	r2, r2, #4
 1125              	.LVL188:
 1126 0002 102A     		cmp	r2, #16
 1127 0004 51D8     		bhi	.L77
 1128 0006 DFE802F0 		tbb	[pc, r2]
 1129              	.L62:
 1130 000a 09       		.byte	(.L61-.L62)/2
 1131 000b 0D       		.byte	(.L63-.L62)/2
 1132 000c 12       		.byte	(.L64-.L62)/2
 1133 000d 2F       		.byte	(.L65-.L62)/2
 1134 000e 39       		.byte	(.L66-.L62)/2
 1135 000f 43       		.byte	(.L67-.L62)/2
 1136 0010 4B       		.byte	(.L68-.L62)/2
 1137 0011 16       		.byte	(.L69-.L62)/2
 1138 0012 1E       		.byte	(.L70-.L62)/2
 1139 0013 26       		.byte	(.L71-.L62)/2
 1140 0014 2C       		.byte	(.L72-.L62)/2
 1141 0015 50       		.byte	(.L77-.L62)/2
 1142 0016 50       		.byte	(.L77-.L62)/2
ARM GAS  C:\Users\haske\AppData\Local\Temp\ccF9IbRI.s 			page 42


 1143 0017 50       		.byte	(.L77-.L62)/2
 1144 0018 50       		.byte	(.L77-.L62)/2
 1145 0019 50       		.byte	(.L77-.L62)/2
 1146 001a 0D       		.byte	(.L63-.L62)/2
 1147 001b 00       		.p2align 1
 1148              	.L61:
 386:..\..\..\arduinoLCD\test\Pain Drain\libraries\lvgl\src\draw/lv_img_buf.c ****         case LV_IMG_CF_TRUE_COLOR:
 387:..\..\..\arduinoLCD\test\Pain Drain\libraries\lvgl\src\draw/lv_img_buf.c ****             return LV_IMG_BUF_SIZE_TRUE_COLOR(w, h);
 1149              		.loc 1 387 0
 1150 001c 4000     		lsls	r0, r0, #1
 1151              	.LVL189:
 1152 001e 00FB01F0 		mul	r0, r0, r1
 1153 0022 7047     		bx	lr
 1154              	.LVL190:
 1155              	.L63:
 388:..\..\..\arduinoLCD\test\Pain Drain\libraries\lvgl\src\draw/lv_img_buf.c ****         case LV_IMG_CF_TRUE_COLOR_ALPHA:
 389:..\..\..\arduinoLCD\test\Pain Drain\libraries\lvgl\src\draw/lv_img_buf.c ****         case LV_IMG_CF_RGB565A8:
 390:..\..\..\arduinoLCD\test\Pain Drain\libraries\lvgl\src\draw/lv_img_buf.c ****             return LV_IMG_BUF_SIZE_TRUE_COLOR_ALPHA(w, h);
 1156              		.loc 1 390 0
 1157 0024 00EB4000 		add	r0, r0, r0, lsl #1
 1158              	.LVL191:
 1159 0028 00FB01F0 		mul	r0, r0, r1
 1160 002c 7047     		bx	lr
 1161              	.LVL192:
 1162              	.L64:
 391:..\..\..\arduinoLCD\test\Pain Drain\libraries\lvgl\src\draw/lv_img_buf.c ****         case LV_IMG_CF_TRUE_COLOR_CHROMA_KEYED:
 392:..\..\..\arduinoLCD\test\Pain Drain\libraries\lvgl\src\draw/lv_img_buf.c ****             return LV_IMG_BUF_SIZE_TRUE_COLOR_CHROMA_KEYED(w, h);
 1163              		.loc 1 392 0
 1164 002e 4000     		lsls	r0, r0, #1
 1165              	.LVL193:
 1166 0030 00FB01F0 		mul	r0, r0, r1
 1167 0034 7047     		bx	lr
 1168              	.LVL194:
 1169              	.L69:
 393:..\..\..\arduinoLCD\test\Pain Drain\libraries\lvgl\src\draw/lv_img_buf.c ****         case LV_IMG_CF_ALPHA_1BIT:
 394:..\..\..\arduinoLCD\test\Pain Drain\libraries\lvgl\src\draw/lv_img_buf.c ****             return LV_IMG_BUF_SIZE_ALPHA_1BIT(w, h);
 1170              		.loc 1 394 0
 1171 0036 0346     		mov	r3, r0
 1172 0038 0028     		cmp	r0, #0
 1173 003a 00DA     		bge	.L73
 1174 003c C31D     		adds	r3, r0, #7
 1175              	.L73:
 1176 003e D810     		asrs	r0, r3, #3
 1177              	.LVL195:
 1178 0040 00FB0110 		mla	r0, r0, r1, r1
 1179 0044 7047     		bx	lr
 1180              	.LVL196:
 1181              	.L70:
 395:..\..\..\arduinoLCD\test\Pain Drain\libraries\lvgl\src\draw/lv_img_buf.c ****         case LV_IMG_CF_ALPHA_2BIT:
 396:..\..\..\arduinoLCD\test\Pain Drain\libraries\lvgl\src\draw/lv_img_buf.c ****             return LV_IMG_BUF_SIZE_ALPHA_2BIT(w, h);
 1182              		.loc 1 396 0
 1183 0046 0346     		mov	r3, r0
 1184 0048 0028     		cmp	r0, #0
 1185 004a 00DA     		bge	.L74
 1186 004c C31C     		adds	r3, r0, #3
 1187              	.L74:
 1188 004e 9810     		asrs	r0, r3, #2
ARM GAS  C:\Users\haske\AppData\Local\Temp\ccF9IbRI.s 			page 43


 1189              	.LVL197:
 1190 0050 00FB0110 		mla	r0, r0, r1, r1
 1191 0054 7047     		bx	lr
 1192              	.LVL198:
 1193              	.L71:
 397:..\..\..\arduinoLCD\test\Pain Drain\libraries\lvgl\src\draw/lv_img_buf.c ****         case LV_IMG_CF_ALPHA_4BIT:
 398:..\..\..\arduinoLCD\test\Pain Drain\libraries\lvgl\src\draw/lv_img_buf.c ****             return LV_IMG_BUF_SIZE_ALPHA_4BIT(w, h);
 1194              		.loc 1 398 0
 1195 0056 00EBD070 		add	r0, r0, r0, lsr #31
 1196              	.LVL199:
 1197 005a 4010     		asrs	r0, r0, #1
 1198 005c 00FB0110 		mla	r0, r0, r1, r1
 1199 0060 7047     		bx	lr
 1200              	.LVL200:
 1201              	.L72:
 399:..\..\..\arduinoLCD\test\Pain Drain\libraries\lvgl\src\draw/lv_img_buf.c ****         case LV_IMG_CF_ALPHA_8BIT:
 400:..\..\..\arduinoLCD\test\Pain Drain\libraries\lvgl\src\draw/lv_img_buf.c ****             return LV_IMG_BUF_SIZE_ALPHA_8BIT(w, h);
 1202              		.loc 1 400 0
 1203 0062 01FB00F0 		mul	r0, r1, r0
 1204              	.LVL201:
 1205 0066 7047     		bx	lr
 1206              	.LVL202:
 1207              	.L65:
 401:..\..\..\arduinoLCD\test\Pain Drain\libraries\lvgl\src\draw/lv_img_buf.c ****         case LV_IMG_CF_INDEXED_1BIT:
 402:..\..\..\arduinoLCD\test\Pain Drain\libraries\lvgl\src\draw/lv_img_buf.c ****             return LV_IMG_BUF_SIZE_INDEXED_1BIT(w, h);
 1208              		.loc 1 402 0
 1209 0068 0346     		mov	r3, r0
 1210 006a 0028     		cmp	r0, #0
 1211 006c 00DA     		bge	.L75
 1212 006e C31D     		adds	r3, r0, #7
 1213              	.L75:
 1214 0070 D810     		asrs	r0, r3, #3
 1215              	.LVL203:
 1216 0072 00FB0111 		mla	r1, r0, r1, r1
 1217              	.LVL204:
 1218 0076 01F10800 		add	r0, r1, #8
 1219 007a 7047     		bx	lr
 1220              	.LVL205:
 1221              	.L66:
 403:..\..\..\arduinoLCD\test\Pain Drain\libraries\lvgl\src\draw/lv_img_buf.c ****         case LV_IMG_CF_INDEXED_2BIT:
 404:..\..\..\arduinoLCD\test\Pain Drain\libraries\lvgl\src\draw/lv_img_buf.c ****             return LV_IMG_BUF_SIZE_INDEXED_2BIT(w, h);
 1222              		.loc 1 404 0
 1223 007c 0346     		mov	r3, r0
 1224 007e 0028     		cmp	r0, #0
 1225 0080 00DA     		bge	.L76
 1226 0082 C31C     		adds	r3, r0, #3
 1227              	.L76:
 1228 0084 9810     		asrs	r0, r3, #2
 1229              	.LVL206:
 1230 0086 00FB0111 		mla	r1, r0, r1, r1
 1231              	.LVL207:
 1232 008a 01F11000 		add	r0, r1, #16
 1233 008e 7047     		bx	lr
 1234              	.LVL208:
 1235              	.L67:
 405:..\..\..\arduinoLCD\test\Pain Drain\libraries\lvgl\src\draw/lv_img_buf.c ****         case LV_IMG_CF_INDEXED_4BIT:
 406:..\..\..\arduinoLCD\test\Pain Drain\libraries\lvgl\src\draw/lv_img_buf.c ****             return LV_IMG_BUF_SIZE_INDEXED_4BIT(w, h);
ARM GAS  C:\Users\haske\AppData\Local\Temp\ccF9IbRI.s 			page 44


 1236              		.loc 1 406 0
 1237 0090 00EBD070 		add	r0, r0, r0, lsr #31
 1238              	.LVL209:
 1239 0094 4010     		asrs	r0, r0, #1
 1240 0096 00FB0111 		mla	r1, r0, r1, r1
 1241              	.LVL210:
 1242 009a 01F14000 		add	r0, r1, #64
 1243 009e 7047     		bx	lr
 1244              	.LVL211:
 1245              	.L68:
 407:..\..\..\arduinoLCD\test\Pain Drain\libraries\lvgl\src\draw/lv_img_buf.c ****         case LV_IMG_CF_INDEXED_8BIT:
 408:..\..\..\arduinoLCD\test\Pain Drain\libraries\lvgl\src\draw/lv_img_buf.c ****             return LV_IMG_BUF_SIZE_INDEXED_8BIT(w, h);
 1246              		.loc 1 408 0
 1247 00a0 01FB00F1 		mul	r1, r1, r0
 1248              	.LVL212:
 1249 00a4 01F58060 		add	r0, r1, #1024
 1250              	.LVL213:
 1251 00a8 7047     		bx	lr
 1252              	.LVL214:
 1253              	.L77:
 409:..\..\..\arduinoLCD\test\Pain Drain\libraries\lvgl\src\draw/lv_img_buf.c ****         default:
 410:..\..\..\arduinoLCD\test\Pain Drain\libraries\lvgl\src\draw/lv_img_buf.c ****             return 0;
 1254              		.loc 1 410 0
 1255 00aa 0020     		movs	r0, #0
 1256              	.LVL215:
 411:..\..\..\arduinoLCD\test\Pain Drain\libraries\lvgl\src\draw/lv_img_buf.c ****     }
 412:..\..\..\arduinoLCD\test\Pain Drain\libraries\lvgl\src\draw/lv_img_buf.c **** }
 1257              		.loc 1 412 0
 1258 00ac 7047     		bx	lr
 1259              		.cfi_endproc
 1260              	.LFE61:
 1261              		.size	lv_img_buf_get_img_size, .-lv_img_buf_get_img_size
 1262 00ae 00BF     		.section	.text.lv_img_buf_alloc,"ax",%progbits
 1263              		.align	2
 1264              		.global	lv_img_buf_alloc
 1265              		.thumb
 1266              		.thumb_func
 1267              		.type	lv_img_buf_alloc, %function
 1268              	lv_img_buf_alloc:
 1269              	.LFB59:
 331:..\..\..\arduinoLCD\test\Pain Drain\libraries\lvgl\src\draw/lv_img_buf.c ****     /*Allocate image descriptor*/
 1270              		.loc 1 331 0
 1271              		.cfi_startproc
 1272              		@ args = 0, pretend = 0, frame = 0
 1273              		@ frame_needed = 0, uses_anonymous_args = 0
 1274              	.LVL216:
 1275 0000 F8B5     		push	{r3, r4, r5, r6, r7, lr}
 1276              		.cfi_def_cfa_offset 24
 1277              		.cfi_offset 3, -24
 1278              		.cfi_offset 4, -20
 1279              		.cfi_offset 5, -16
 1280              		.cfi_offset 6, -12
 1281              		.cfi_offset 7, -8
 1282              		.cfi_offset 14, -4
 1283 0002 0746     		mov	r7, r0
 1284 0004 0E46     		mov	r6, r1
 1285 0006 1546     		mov	r5, r2
ARM GAS  C:\Users\haske\AppData\Local\Temp\ccF9IbRI.s 			page 45


 333:..\..\..\arduinoLCD\test\Pain Drain\libraries\lvgl\src\draw/lv_img_buf.c ****     if(dsc == NULL)
 1286              		.loc 1 333 0
 1287 0008 0C20     		movs	r0, #12
 1288              	.LVL217:
 1289 000a FFF7FEFF 		bl	lv_mem_alloc
 1290              	.LVL218:
 334:..\..\..\arduinoLCD\test\Pain Drain\libraries\lvgl\src\draw/lv_img_buf.c ****         return NULL;
 1291              		.loc 1 334 0
 1292 000e 60B3     		cbz	r0, .L82
 1293 0010 0446     		mov	r4, r0
 337:..\..\..\arduinoLCD\test\Pain Drain\libraries\lvgl\src\draw/lv_img_buf.c **** 
 1294              		.loc 1 337 0
 1295 0012 0C21     		movs	r1, #12
 1296 0014 FFF7FEFF 		bl	lv_memset_00
 1297              	.LVL219:
 340:..\..\..\arduinoLCD\test\Pain Drain\libraries\lvgl\src\draw/lv_img_buf.c ****     if(dsc->data_size == 0) {
 1298              		.loc 1 340 0
 1299 0018 2A46     		mov	r2, r5
 1300 001a 3146     		mov	r1, r6
 1301 001c 3846     		mov	r0, r7
 1302 001e FFF7FEFF 		bl	lv_img_buf_get_img_size
 1303              	.LVL220:
 1304 0022 6060     		str	r0, [r4, #4]
 341:..\..\..\arduinoLCD\test\Pain Drain\libraries\lvgl\src\draw/lv_img_buf.c ****         lv_mem_free(dsc);
 1305              		.loc 1 341 0
 1306 0024 20B9     		cbnz	r0, .L80
 342:..\..\..\arduinoLCD\test\Pain Drain\libraries\lvgl\src\draw/lv_img_buf.c ****         return NULL;
 1307              		.loc 1 342 0
 1308 0026 2046     		mov	r0, r4
 1309 0028 FFF7FEFF 		bl	lv_mem_free
 1310              	.LVL221:
 343:..\..\..\arduinoLCD\test\Pain Drain\libraries\lvgl\src\draw/lv_img_buf.c ****     }
 1311              		.loc 1 343 0
 1312 002c 0020     		movs	r0, #0
 1313 002e F8BD     		pop	{r3, r4, r5, r6, r7, pc}
 1314              	.LVL222:
 1315              	.L80:
 347:..\..\..\arduinoLCD\test\Pain Drain\libraries\lvgl\src\draw/lv_img_buf.c ****     if(dsc->data == NULL) {
 1316              		.loc 1 347 0
 1317 0030 FFF7FEFF 		bl	lv_mem_alloc
 1318              	.LVL223:
 1319 0034 A060     		str	r0, [r4, #8]
 348:..\..\..\arduinoLCD\test\Pain Drain\libraries\lvgl\src\draw/lv_img_buf.c ****         lv_mem_free(dsc);
 1320              		.loc 1 348 0
 1321 0036 20B9     		cbnz	r0, .L81
 349:..\..\..\arduinoLCD\test\Pain Drain\libraries\lvgl\src\draw/lv_img_buf.c ****         return NULL;
 1322              		.loc 1 349 0
 1323 0038 2046     		mov	r0, r4
 1324 003a FFF7FEFF 		bl	lv_mem_free
 1325              	.LVL224:
 350:..\..\..\arduinoLCD\test\Pain Drain\libraries\lvgl\src\draw/lv_img_buf.c ****     }
 1326              		.loc 1 350 0
 1327 003e 0020     		movs	r0, #0
 1328 0040 F8BD     		pop	{r3, r4, r5, r6, r7, pc}
 1329              	.LVL225:
 1330              	.L81:
 352:..\..\..\arduinoLCD\test\Pain Drain\libraries\lvgl\src\draw/lv_img_buf.c **** 
ARM GAS  C:\Users\haske\AppData\Local\Temp\ccF9IbRI.s 			page 46


 1331              		.loc 1 352 0
 1332 0042 6168     		ldr	r1, [r4, #4]
 1333 0044 FFF7FEFF 		bl	lv_memset_00
 1334              	.LVL226:
 355:..\..\..\arduinoLCD\test\Pain Drain\libraries\lvgl\src\draw/lv_img_buf.c ****     dsc->header.w = w;
 1335              		.loc 1 355 0
 1336 0048 2378     		ldrb	r3, [r4]	@ zero_extendqisi2
 1337 004a 6FF34713 		bfc	r3, #5, #3
 1338 004e 2370     		strb	r3, [r4]
 356:..\..\..\arduinoLCD\test\Pain Drain\libraries\lvgl\src\draw/lv_img_buf.c ****     dsc->header.h = h;
 1339              		.loc 1 356 0
 1340 0050 2368     		ldr	r3, [r4]
 1341 0052 67F39423 		bfi	r3, r7, #10, #11
 1342 0056 2360     		str	r3, [r4]
 357:..\..\..\arduinoLCD\test\Pain Drain\libraries\lvgl\src\draw/lv_img_buf.c ****     dsc->header.cf = cf;
 1343              		.loc 1 357 0
 1344 0058 1A0C     		lsrs	r2, r3, #16
 1345 005a 66F34F12 		bfi	r2, r6, #5, #11
 1346 005e 6280     		strh	r2, [r4, #2]	@ movhi
 358:..\..\..\arduinoLCD\test\Pain Drain\libraries\lvgl\src\draw/lv_img_buf.c ****     return dsc;
 1347              		.loc 1 358 0
 1348 0060 65F30403 		bfi	r3, r5, #0, #5
 1349 0064 2370     		strb	r3, [r4]
 359:..\..\..\arduinoLCD\test\Pain Drain\libraries\lvgl\src\draw/lv_img_buf.c **** }
 1350              		.loc 1 359 0
 1351 0066 2046     		mov	r0, r4
 1352 0068 F8BD     		pop	{r3, r4, r5, r6, r7, pc}
 1353              	.LVL227:
 1354              	.L82:
 335:..\..\..\arduinoLCD\test\Pain Drain\libraries\lvgl\src\draw/lv_img_buf.c **** 
 1355              		.loc 1 335 0
 1356 006a 0020     		movs	r0, #0
 1357              	.LVL228:
 360:..\..\..\arduinoLCD\test\Pain Drain\libraries\lvgl\src\draw/lv_img_buf.c **** 
 1358              		.loc 1 360 0
 1359 006c F8BD     		pop	{r3, r4, r5, r6, r7, pc}
 1360              		.cfi_endproc
 1361              	.LFE59:
 1362              		.size	lv_img_buf_alloc, .-lv_img_buf_alloc
 1363 006e 00BF     		.section	.text._lv_img_buf_get_transformed_area,"ax",%progbits
 1364              		.align	2
 1365              		.global	_lv_img_buf_get_transformed_area
 1366              		.thumb
 1367              		.thumb_func
 1368              		.type	_lv_img_buf_get_transformed_area, %function
 1369              	_lv_img_buf_get_transformed_area:
 1370              	.LFB62:
 413:..\..\..\arduinoLCD\test\Pain Drain\libraries\lvgl\src\draw/lv_img_buf.c **** 
 414:..\..\..\arduinoLCD\test\Pain Drain\libraries\lvgl\src\draw/lv_img_buf.c **** /**
 415:..\..\..\arduinoLCD\test\Pain Drain\libraries\lvgl\src\draw/lv_img_buf.c ****  * Get the area of a rectangle if its rotated and scaled
 416:..\..\..\arduinoLCD\test\Pain Drain\libraries\lvgl\src\draw/lv_img_buf.c ****  * @param res store the coordinates here
 417:..\..\..\arduinoLCD\test\Pain Drain\libraries\lvgl\src\draw/lv_img_buf.c ****  * @param w width of the rectangle to transform
 418:..\..\..\arduinoLCD\test\Pain Drain\libraries\lvgl\src\draw/lv_img_buf.c ****  * @param h height of the rectangle to transform
 419:..\..\..\arduinoLCD\test\Pain Drain\libraries\lvgl\src\draw/lv_img_buf.c ****  * @param angle angle of rotation
 420:..\..\..\arduinoLCD\test\Pain Drain\libraries\lvgl\src\draw/lv_img_buf.c ****  * @param zoom zoom, (256 no zoom)
 421:..\..\..\arduinoLCD\test\Pain Drain\libraries\lvgl\src\draw/lv_img_buf.c ****  * @param pivot x,y pivot coordinates of rotation
 422:..\..\..\arduinoLCD\test\Pain Drain\libraries\lvgl\src\draw/lv_img_buf.c ****  */
ARM GAS  C:\Users\haske\AppData\Local\Temp\ccF9IbRI.s 			page 47


 423:..\..\..\arduinoLCD\test\Pain Drain\libraries\lvgl\src\draw/lv_img_buf.c **** void _lv_img_buf_get_transformed_area(lv_area_t * res, lv_coord_t w, lv_coord_t h, int16_t angle, u
 424:..\..\..\arduinoLCD\test\Pain Drain\libraries\lvgl\src\draw/lv_img_buf.c ****                                       const lv_point_t * pivot)
 425:..\..\..\arduinoLCD\test\Pain Drain\libraries\lvgl\src\draw/lv_img_buf.c **** {
 1371              		.loc 1 425 0
 1372              		.cfi_startproc
 1373              		@ args = 8, pretend = 0, frame = 16
 1374              		@ frame_needed = 0, uses_anonymous_args = 0
 1375              	.LVL229:
 1376 0000 70B5     		push	{r4, r5, r6, lr}
 1377              		.cfi_def_cfa_offset 16
 1378              		.cfi_offset 4, -16
 1379              		.cfi_offset 5, -12
 1380              		.cfi_offset 6, -8
 1381              		.cfi_offset 14, -4
 1382 0002 84B0     		sub	sp, sp, #16
 1383              		.cfi_def_cfa_offset 32
 1384 0004 BDF82060 		ldrh	r6, [sp, #32]
 426:..\..\..\arduinoLCD\test\Pain Drain\libraries\lvgl\src\draw/lv_img_buf.c **** #if LV_DRAW_COMPLEX
 427:..\..\..\arduinoLCD\test\Pain Drain\libraries\lvgl\src\draw/lv_img_buf.c ****     if(angle == 0 && zoom == LV_IMG_ZOOM_NONE) {
 1385              		.loc 1 427 0
 1386 0008 1D46     		mov	r5, r3
 1387 000a 4BB9     		cbnz	r3, .L85
 1388              		.loc 1 427 0 is_stmt 0 discriminator 1
 1389 000c B6F5807F 		cmp	r6, #256
 1390 0010 06D1     		bne	.L85
 428:..\..\..\arduinoLCD\test\Pain Drain\libraries\lvgl\src\draw/lv_img_buf.c ****         res->x1 = 0;
 1391              		.loc 1 428 0 is_stmt 1
 1392 0012 0380     		strh	r3, [r0]	@ movhi
 429:..\..\..\arduinoLCD\test\Pain Drain\libraries\lvgl\src\draw/lv_img_buf.c ****         res->y1 = 0;
 1393              		.loc 1 429 0
 1394 0014 4380     		strh	r3, [r0, #2]	@ movhi
 430:..\..\..\arduinoLCD\test\Pain Drain\libraries\lvgl\src\draw/lv_img_buf.c ****         res->x2 = w - 1;
 1395              		.loc 1 430 0
 1396 0016 0139     		subs	r1, r1, #1
 1397              	.LVL230:
 1398 0018 8180     		strh	r1, [r0, #4]	@ movhi
 431:..\..\..\arduinoLCD\test\Pain Drain\libraries\lvgl\src\draw/lv_img_buf.c ****         res->y2 = h - 1;
 1399              		.loc 1 431 0
 1400 001a 013A     		subs	r2, r2, #1
 1401              	.LVL231:
 1402 001c C280     		strh	r2, [r0, #6]	@ movhi
 1403 001e 69E0     		b	.L84
 1404              	.LVL232:
 1405              	.L85:
 1406 0020 0446     		mov	r4, r0
 432:..\..\..\arduinoLCD\test\Pain Drain\libraries\lvgl\src\draw/lv_img_buf.c ****         return;
 433:..\..\..\arduinoLCD\test\Pain Drain\libraries\lvgl\src\draw/lv_img_buf.c ****     }
 434:..\..\..\arduinoLCD\test\Pain Drain\libraries\lvgl\src\draw/lv_img_buf.c **** 
 435:..\..\..\arduinoLCD\test\Pain Drain\libraries\lvgl\src\draw/lv_img_buf.c ****     lv_point_t p[4] = {
 1407              		.loc 1 435 0
 1408 0022 0023     		movs	r3, #0
 1409              	.LVL233:
 1410 0024 ADF80030 		strh	r3, [sp]	@ movhi
 1411 0028 ADF80230 		strh	r3, [sp, #2]	@ movhi
 1412 002c ADF80410 		strh	r1, [sp, #4]	@ movhi
 1413 0030 ADF80630 		strh	r3, [sp, #6]	@ movhi
 1414 0034 ADF80830 		strh	r3, [sp, #8]	@ movhi
ARM GAS  C:\Users\haske\AppData\Local\Temp\ccF9IbRI.s 			page 48


 1415 0038 ADF80A20 		strh	r2, [sp, #10]	@ movhi
 1416 003c ADF80C10 		strh	r1, [sp, #12]	@ movhi
 1417 0040 ADF80E20 		strh	r2, [sp, #14]	@ movhi
 436:..\..\..\arduinoLCD\test\Pain Drain\libraries\lvgl\src\draw/lv_img_buf.c ****         {0, 0},
 437:..\..\..\arduinoLCD\test\Pain Drain\libraries\lvgl\src\draw/lv_img_buf.c ****         {w, 0},
 438:..\..\..\arduinoLCD\test\Pain Drain\libraries\lvgl\src\draw/lv_img_buf.c ****         {0, h},
 439:..\..\..\arduinoLCD\test\Pain Drain\libraries\lvgl\src\draw/lv_img_buf.c ****         {w, h},
 440:..\..\..\arduinoLCD\test\Pain Drain\libraries\lvgl\src\draw/lv_img_buf.c ****     };
 441:..\..\..\arduinoLCD\test\Pain Drain\libraries\lvgl\src\draw/lv_img_buf.c ****     lv_point_transform(&p[0], angle, zoom, pivot);
 1418              		.loc 1 441 0
 1419 0044 099B     		ldr	r3, [sp, #36]
 1420 0046 3246     		mov	r2, r6
 1421              	.LVL234:
 1422 0048 2946     		mov	r1, r5
 1423              	.LVL235:
 1424 004a 6846     		mov	r0, sp
 1425              	.LVL236:
 1426 004c FFF7FEFF 		bl	lv_point_transform
 1427              	.LVL237:
 442:..\..\..\arduinoLCD\test\Pain Drain\libraries\lvgl\src\draw/lv_img_buf.c ****     lv_point_transform(&p[1], angle, zoom, pivot);
 1428              		.loc 1 442 0
 1429 0050 099B     		ldr	r3, [sp, #36]
 1430 0052 3246     		mov	r2, r6
 1431 0054 2946     		mov	r1, r5
 1432 0056 01A8     		add	r0, sp, #4
 1433 0058 FFF7FEFF 		bl	lv_point_transform
 1434              	.LVL238:
 443:..\..\..\arduinoLCD\test\Pain Drain\libraries\lvgl\src\draw/lv_img_buf.c ****     lv_point_transform(&p[2], angle, zoom, pivot);
 1435              		.loc 1 443 0
 1436 005c 099B     		ldr	r3, [sp, #36]
 1437 005e 3246     		mov	r2, r6
 1438 0060 2946     		mov	r1, r5
 1439 0062 02A8     		add	r0, sp, #8
 1440 0064 FFF7FEFF 		bl	lv_point_transform
 1441              	.LVL239:
 444:..\..\..\arduinoLCD\test\Pain Drain\libraries\lvgl\src\draw/lv_img_buf.c ****     lv_point_transform(&p[3], angle, zoom, pivot);
 1442              		.loc 1 444 0
 1443 0068 099B     		ldr	r3, [sp, #36]
 1444 006a 3246     		mov	r2, r6
 1445 006c 2946     		mov	r1, r5
 1446 006e 03A8     		add	r0, sp, #12
 1447 0070 FFF7FEFF 		bl	lv_point_transform
 1448              	.LVL240:
 445:..\..\..\arduinoLCD\test\Pain Drain\libraries\lvgl\src\draw/lv_img_buf.c ****     res->x1 = LV_MIN4(p[0].x, p[1].x, p[2].x, p[3].x) - 2;
 1449              		.loc 1 445 0
 1450 0074 BDF90C50 		ldrsh	r5, [sp, #12]
 1451 0078 BDF90810 		ldrsh	r1, [sp, #8]
 1452 007c 2E46     		mov	r6, r5
 1453 007e 8D42     		cmp	r5, r1
 1454 0080 A8BF     		it	ge
 1455 0082 0E46     		movge	r6, r1
 1456 0084 BDF90400 		ldrsh	r0, [sp, #4]
 1457 0088 BDF90030 		ldrsh	r3, [sp]
 1458 008c 0246     		mov	r2, r0
 1459 008e 9842     		cmp	r0, r3
 1460 0090 A8BF     		it	ge
 1461 0092 1A46     		movge	r2, r3
ARM GAS  C:\Users\haske\AppData\Local\Temp\ccF9IbRI.s 			page 49


 1462 0094 B242     		cmp	r2, r6
 1463 0096 A8BF     		it	ge
 1464 0098 3246     		movge	r2, r6
 1465 009a 023A     		subs	r2, r2, #2
 1466 009c 2280     		strh	r2, [r4]	@ movhi
 446:..\..\..\arduinoLCD\test\Pain Drain\libraries\lvgl\src\draw/lv_img_buf.c ****     res->x2 = LV_MAX4(p[0].x, p[1].x, p[2].x, p[3].x) + 2;
 1467              		.loc 1 446 0
 1468 009e A942     		cmp	r1, r5
 1469 00a0 B8BF     		it	lt
 1470 00a2 2946     		movlt	r1, r5
 1471 00a4 8342     		cmp	r3, r0
 1472 00a6 B8BF     		it	lt
 1473 00a8 0346     		movlt	r3, r0
 1474 00aa 8B42     		cmp	r3, r1
 1475 00ac B8BF     		it	lt
 1476 00ae 0B46     		movlt	r3, r1
 1477 00b0 0233     		adds	r3, r3, #2
 1478 00b2 A380     		strh	r3, [r4, #4]	@ movhi
 447:..\..\..\arduinoLCD\test\Pain Drain\libraries\lvgl\src\draw/lv_img_buf.c ****     res->y1 = LV_MIN4(p[0].y, p[1].y, p[2].y, p[3].y) - 2;
 1479              		.loc 1 447 0
 1480 00b4 BDF90E50 		ldrsh	r5, [sp, #14]
 1481 00b8 BDF90A10 		ldrsh	r1, [sp, #10]
 1482 00bc 2E46     		mov	r6, r5
 1483 00be 8D42     		cmp	r5, r1
 1484 00c0 A8BF     		it	ge
 1485 00c2 0E46     		movge	r6, r1
 1486 00c4 BDF90600 		ldrsh	r0, [sp, #6]
 1487 00c8 BDF90230 		ldrsh	r3, [sp, #2]
 1488 00cc 0246     		mov	r2, r0
 1489 00ce 9842     		cmp	r0, r3
 1490 00d0 A8BF     		it	ge
 1491 00d2 1A46     		movge	r2, r3
 1492 00d4 B242     		cmp	r2, r6
 1493 00d6 A8BF     		it	ge
 1494 00d8 3246     		movge	r2, r6
 1495 00da 023A     		subs	r2, r2, #2
 1496 00dc 6280     		strh	r2, [r4, #2]	@ movhi
 448:..\..\..\arduinoLCD\test\Pain Drain\libraries\lvgl\src\draw/lv_img_buf.c ****     res->y2 = LV_MAX4(p[0].y, p[1].y, p[2].y, p[3].y) + 2;
 1497              		.loc 1 448 0
 1498 00de A942     		cmp	r1, r5
 1499 00e0 B8BF     		it	lt
 1500 00e2 2946     		movlt	r1, r5
 1501 00e4 8342     		cmp	r3, r0
 1502 00e6 B8BF     		it	lt
 1503 00e8 0346     		movlt	r3, r0
 1504 00ea 8B42     		cmp	r3, r1
 1505 00ec B8BF     		it	lt
 1506 00ee 0B46     		movlt	r3, r1
 1507 00f0 0233     		adds	r3, r3, #2
 1508 00f2 E380     		strh	r3, [r4, #6]	@ movhi
 1509              	.LVL241:
 1510              	.L84:
 449:..\..\..\arduinoLCD\test\Pain Drain\libraries\lvgl\src\draw/lv_img_buf.c **** 
 450:..\..\..\arduinoLCD\test\Pain Drain\libraries\lvgl\src\draw/lv_img_buf.c **** #else
 451:..\..\..\arduinoLCD\test\Pain Drain\libraries\lvgl\src\draw/lv_img_buf.c ****     LV_UNUSED(angle);
 452:..\..\..\arduinoLCD\test\Pain Drain\libraries\lvgl\src\draw/lv_img_buf.c ****     LV_UNUSED(zoom);
 453:..\..\..\arduinoLCD\test\Pain Drain\libraries\lvgl\src\draw/lv_img_buf.c ****     LV_UNUSED(pivot);
ARM GAS  C:\Users\haske\AppData\Local\Temp\ccF9IbRI.s 			page 50


 454:..\..\..\arduinoLCD\test\Pain Drain\libraries\lvgl\src\draw/lv_img_buf.c ****     res->x1 = 0;
 455:..\..\..\arduinoLCD\test\Pain Drain\libraries\lvgl\src\draw/lv_img_buf.c ****     res->y1 = 0;
 456:..\..\..\arduinoLCD\test\Pain Drain\libraries\lvgl\src\draw/lv_img_buf.c ****     res->x2 = w - 1;
 457:..\..\..\arduinoLCD\test\Pain Drain\libraries\lvgl\src\draw/lv_img_buf.c ****     res->y2 = h - 1;
 458:..\..\..\arduinoLCD\test\Pain Drain\libraries\lvgl\src\draw/lv_img_buf.c **** #endif
 459:..\..\..\arduinoLCD\test\Pain Drain\libraries\lvgl\src\draw/lv_img_buf.c **** }
 1511              		.loc 1 459 0
 1512 00f4 04B0     		add	sp, sp, #16
 1513              		.cfi_def_cfa_offset 16
 1514              		@ sp needed
 1515 00f6 70BD     		pop	{r4, r5, r6, pc}
 1516              		.cfi_endproc
 1517              	.LFE62:
 1518              		.size	_lv_img_buf_get_transformed_area, .-_lv_img_buf_get_transformed_area
 1519              		.section	.rodata
 1520              		.align	2
 1521              		.set	.LANCHOR0,. + 0
 1522              	.LC0:
 1523 0000 00       		.byte	0
 1524 0001 55       		.byte	85
 1525 0002 AA       		.byte	-86
 1526 0003 FF       		.byte	-1
 1527              	.LC1:
 1528 0004 00       		.byte	0
 1529 0005 11       		.byte	17
 1530 0006 22       		.byte	34
 1531 0007 33       		.byte	51
 1532 0008 44       		.byte	68
 1533 0009 55       		.byte	85
 1534 000a 66       		.byte	102
 1535 000b 77       		.byte	119
 1536 000c 88       		.byte	-120
 1537 000d 99       		.byte	-103
 1538 000e AA       		.byte	-86
 1539 000f BB       		.byte	-69
 1540 0010 CC       		.byte	-52
 1541 0011 DD       		.byte	-35
 1542 0012 EE       		.byte	-18
 1543 0013 FF       		.byte	-1
 1544              		.text
 1545              	.Letext0:
 1546              		.file 4 "c:\\program files (x86)\\cypress\\psoc creator\\4.4\\psoc creator\\import\\gnu\\arm\\5.4.
 1547              		.file 5 "c:\\program files (x86)\\cypress\\psoc creator\\4.4\\psoc creator\\import\\gnu\\arm\\5.4.
 1548              		.file 6 "c:\\program files (x86)\\cypress\\psoc creator\\4.4\\psoc creator\\import\\gnu\\arm\\5.4.
 1549              		.file 7 "..\\..\\..\\arduinoLCD\\test\\Pain Drain\\libraries\\lvgl\\src\\draw\\../misc/lv_area.h"
 1550              		.file 8 "..\\..\\..\\arduinoLCD\\test\\Pain Drain\\libraries\\lvgl\\src\\draw\\lv_img_buf.h"
 1551              		.file 9 "c:\\projects\\paindrain\\arduinolcd\\test\\pain drain\\libraries\\lvgl\\src\\font\\lv_fon
 1552              		.file 10 "..\\..\\..\\arduinoLCD\\test\\Pain Drain\\libraries\\lvgl\\src\\draw\\lv_draw_img.h"