ARM GAS  C:\Users\haske\AppData\Local\Temp\cc2IOi1w.s 			page 1


   1              		.syntax unified
   2              		.cpu cortex-m4
   3              		.eabi_attribute 27, 1
   4              		.fpu fpv4-sp-d16
   5              		.eabi_attribute 20, 1
   6              		.eabi_attribute 21, 1
   7              		.eabi_attribute 23, 3
   8              		.eabi_attribute 24, 1
   9              		.eabi_attribute 25, 1
  10              		.eabi_attribute 26, 1
  11              		.eabi_attribute 30, 1
  12              		.eabi_attribute 34, 1
  13              		.eabi_attribute 18, 4
  14              		.thumb
  15              		.syntax unified
  16              		.file	"lv_obj_scroll.c"
  17              		.text
  18              	.Ltext0:
  19              		.cfi_sections	.debug_frame
  20              		.section	.text.scroll_anim_ready_cb,"ax",%progbits
  21              		.align	2
  22              		.thumb
  23              		.thumb_func
  24              		.type	scroll_anim_ready_cb, %function
  25              	scroll_anim_ready_cb:
  26              	.LFB195:
  27              		.file 1 "..\\..\\..\\arduinoLCD\\test\\Pain Drain\\libraries\\lvgl\\src\\core\\lv_obj_scroll.c"
   1:..\..\..\arduinoLCD\test\Pain Drain\libraries\lvgl\src\core/lv_obj_scroll.c **** /**
   2:..\..\..\arduinoLCD\test\Pain Drain\libraries\lvgl\src\core/lv_obj_scroll.c ****  * @file lv_obj_scroll.c
   3:..\..\..\arduinoLCD\test\Pain Drain\libraries\lvgl\src\core/lv_obj_scroll.c ****  *
   4:..\..\..\arduinoLCD\test\Pain Drain\libraries\lvgl\src\core/lv_obj_scroll.c ****  */
   5:..\..\..\arduinoLCD\test\Pain Drain\libraries\lvgl\src\core/lv_obj_scroll.c **** 
   6:..\..\..\arduinoLCD\test\Pain Drain\libraries\lvgl\src\core/lv_obj_scroll.c **** /*********************
   7:..\..\..\arduinoLCD\test\Pain Drain\libraries\lvgl\src\core/lv_obj_scroll.c ****  *      INCLUDES
   8:..\..\..\arduinoLCD\test\Pain Drain\libraries\lvgl\src\core/lv_obj_scroll.c ****  *********************/
   9:..\..\..\arduinoLCD\test\Pain Drain\libraries\lvgl\src\core/lv_obj_scroll.c **** #include "lv_obj_scroll.h"
  10:..\..\..\arduinoLCD\test\Pain Drain\libraries\lvgl\src\core/lv_obj_scroll.c **** #include "lv_obj.h"
  11:..\..\..\arduinoLCD\test\Pain Drain\libraries\lvgl\src\core/lv_obj_scroll.c **** #include "lv_indev.h"
  12:..\..\..\arduinoLCD\test\Pain Drain\libraries\lvgl\src\core/lv_obj_scroll.c **** #include "lv_disp.h"
  13:..\..\..\arduinoLCD\test\Pain Drain\libraries\lvgl\src\core/lv_obj_scroll.c **** #include "lv_indev_scroll.h"
  14:..\..\..\arduinoLCD\test\Pain Drain\libraries\lvgl\src\core/lv_obj_scroll.c **** 
  15:..\..\..\arduinoLCD\test\Pain Drain\libraries\lvgl\src\core/lv_obj_scroll.c **** /*********************
  16:..\..\..\arduinoLCD\test\Pain Drain\libraries\lvgl\src\core/lv_obj_scroll.c ****  *      DEFINES
  17:..\..\..\arduinoLCD\test\Pain Drain\libraries\lvgl\src\core/lv_obj_scroll.c ****  *********************/
  18:..\..\..\arduinoLCD\test\Pain Drain\libraries\lvgl\src\core/lv_obj_scroll.c **** #define MY_CLASS &lv_obj_class
  19:..\..\..\arduinoLCD\test\Pain Drain\libraries\lvgl\src\core/lv_obj_scroll.c **** #define SCROLL_ANIM_TIME_MIN    200    /*ms*/
  20:..\..\..\arduinoLCD\test\Pain Drain\libraries\lvgl\src\core/lv_obj_scroll.c **** #define SCROLL_ANIM_TIME_MAX    400    /*ms*/
  21:..\..\..\arduinoLCD\test\Pain Drain\libraries\lvgl\src\core/lv_obj_scroll.c **** #define SCROLLBAR_MIN_SIZE      (LV_DPX(10))
  22:..\..\..\arduinoLCD\test\Pain Drain\libraries\lvgl\src\core/lv_obj_scroll.c **** 
  23:..\..\..\arduinoLCD\test\Pain Drain\libraries\lvgl\src\core/lv_obj_scroll.c **** /**********************
  24:..\..\..\arduinoLCD\test\Pain Drain\libraries\lvgl\src\core/lv_obj_scroll.c ****  *      TYPEDEFS
  25:..\..\..\arduinoLCD\test\Pain Drain\libraries\lvgl\src\core/lv_obj_scroll.c ****  **********************/
  26:..\..\..\arduinoLCD\test\Pain Drain\libraries\lvgl\src\core/lv_obj_scroll.c **** 
  27:..\..\..\arduinoLCD\test\Pain Drain\libraries\lvgl\src\core/lv_obj_scroll.c **** /**********************
  28:..\..\..\arduinoLCD\test\Pain Drain\libraries\lvgl\src\core/lv_obj_scroll.c ****  *  GLOBAL PROTOTYPES
  29:..\..\..\arduinoLCD\test\Pain Drain\libraries\lvgl\src\core/lv_obj_scroll.c ****  **********************/
  30:..\..\..\arduinoLCD\test\Pain Drain\libraries\lvgl\src\core/lv_obj_scroll.c **** 
ARM GAS  C:\Users\haske\AppData\Local\Temp\cc2IOi1w.s 			page 2


  31:..\..\..\arduinoLCD\test\Pain Drain\libraries\lvgl\src\core/lv_obj_scroll.c **** /**********************
  32:..\..\..\arduinoLCD\test\Pain Drain\libraries\lvgl\src\core/lv_obj_scroll.c ****  *  STATIC PROTOTYPES
  33:..\..\..\arduinoLCD\test\Pain Drain\libraries\lvgl\src\core/lv_obj_scroll.c ****  **********************/
  34:..\..\..\arduinoLCD\test\Pain Drain\libraries\lvgl\src\core/lv_obj_scroll.c **** static void scroll_x_anim(void * obj, int32_t v);
  35:..\..\..\arduinoLCD\test\Pain Drain\libraries\lvgl\src\core/lv_obj_scroll.c **** static void scroll_y_anim(void * obj, int32_t v);
  36:..\..\..\arduinoLCD\test\Pain Drain\libraries\lvgl\src\core/lv_obj_scroll.c **** static void scroll_anim_ready_cb(lv_anim_t * a);
  37:..\..\..\arduinoLCD\test\Pain Drain\libraries\lvgl\src\core/lv_obj_scroll.c **** static void scroll_area_into_view(const lv_area_t * area, lv_obj_t * child, lv_point_t * scroll_val
  38:..\..\..\arduinoLCD\test\Pain Drain\libraries\lvgl\src\core/lv_obj_scroll.c ****                                   lv_anim_enable_t anim_en);
  39:..\..\..\arduinoLCD\test\Pain Drain\libraries\lvgl\src\core/lv_obj_scroll.c **** 
  40:..\..\..\arduinoLCD\test\Pain Drain\libraries\lvgl\src\core/lv_obj_scroll.c **** /**********************
  41:..\..\..\arduinoLCD\test\Pain Drain\libraries\lvgl\src\core/lv_obj_scroll.c ****  *  STATIC VARIABLES
  42:..\..\..\arduinoLCD\test\Pain Drain\libraries\lvgl\src\core/lv_obj_scroll.c ****  **********************/
  43:..\..\..\arduinoLCD\test\Pain Drain\libraries\lvgl\src\core/lv_obj_scroll.c **** 
  44:..\..\..\arduinoLCD\test\Pain Drain\libraries\lvgl\src\core/lv_obj_scroll.c **** /**********************
  45:..\..\..\arduinoLCD\test\Pain Drain\libraries\lvgl\src\core/lv_obj_scroll.c ****  *      MACROS
  46:..\..\..\arduinoLCD\test\Pain Drain\libraries\lvgl\src\core/lv_obj_scroll.c ****  **********************/
  47:..\..\..\arduinoLCD\test\Pain Drain\libraries\lvgl\src\core/lv_obj_scroll.c **** 
  48:..\..\..\arduinoLCD\test\Pain Drain\libraries\lvgl\src\core/lv_obj_scroll.c **** /**********************
  49:..\..\..\arduinoLCD\test\Pain Drain\libraries\lvgl\src\core/lv_obj_scroll.c ****  *   GLOBAL FUNCTIONS
  50:..\..\..\arduinoLCD\test\Pain Drain\libraries\lvgl\src\core/lv_obj_scroll.c ****  **********************/
  51:..\..\..\arduinoLCD\test\Pain Drain\libraries\lvgl\src\core/lv_obj_scroll.c **** 
  52:..\..\..\arduinoLCD\test\Pain Drain\libraries\lvgl\src\core/lv_obj_scroll.c **** /*=====================
  53:..\..\..\arduinoLCD\test\Pain Drain\libraries\lvgl\src\core/lv_obj_scroll.c ****  * Setter functions
  54:..\..\..\arduinoLCD\test\Pain Drain\libraries\lvgl\src\core/lv_obj_scroll.c ****  *====================*/
  55:..\..\..\arduinoLCD\test\Pain Drain\libraries\lvgl\src\core/lv_obj_scroll.c **** 
  56:..\..\..\arduinoLCD\test\Pain Drain\libraries\lvgl\src\core/lv_obj_scroll.c **** void lv_obj_set_scrollbar_mode(lv_obj_t * obj, lv_scrollbar_mode_t mode)
  57:..\..\..\arduinoLCD\test\Pain Drain\libraries\lvgl\src\core/lv_obj_scroll.c **** {
  58:..\..\..\arduinoLCD\test\Pain Drain\libraries\lvgl\src\core/lv_obj_scroll.c ****     LV_ASSERT_OBJ(obj, MY_CLASS);
  59:..\..\..\arduinoLCD\test\Pain Drain\libraries\lvgl\src\core/lv_obj_scroll.c **** 
  60:..\..\..\arduinoLCD\test\Pain Drain\libraries\lvgl\src\core/lv_obj_scroll.c ****     lv_obj_allocate_spec_attr(obj);
  61:..\..\..\arduinoLCD\test\Pain Drain\libraries\lvgl\src\core/lv_obj_scroll.c **** 
  62:..\..\..\arduinoLCD\test\Pain Drain\libraries\lvgl\src\core/lv_obj_scroll.c ****     if(obj->spec_attr->scrollbar_mode == mode) return;
  63:..\..\..\arduinoLCD\test\Pain Drain\libraries\lvgl\src\core/lv_obj_scroll.c ****     obj->spec_attr->scrollbar_mode = mode;
  64:..\..\..\arduinoLCD\test\Pain Drain\libraries\lvgl\src\core/lv_obj_scroll.c ****     lv_obj_invalidate(obj);
  65:..\..\..\arduinoLCD\test\Pain Drain\libraries\lvgl\src\core/lv_obj_scroll.c **** }
  66:..\..\..\arduinoLCD\test\Pain Drain\libraries\lvgl\src\core/lv_obj_scroll.c **** 
  67:..\..\..\arduinoLCD\test\Pain Drain\libraries\lvgl\src\core/lv_obj_scroll.c **** void lv_obj_set_scroll_dir(lv_obj_t * obj, lv_dir_t dir)
  68:..\..\..\arduinoLCD\test\Pain Drain\libraries\lvgl\src\core/lv_obj_scroll.c **** {
  69:..\..\..\arduinoLCD\test\Pain Drain\libraries\lvgl\src\core/lv_obj_scroll.c ****     lv_obj_allocate_spec_attr(obj);
  70:..\..\..\arduinoLCD\test\Pain Drain\libraries\lvgl\src\core/lv_obj_scroll.c **** 
  71:..\..\..\arduinoLCD\test\Pain Drain\libraries\lvgl\src\core/lv_obj_scroll.c ****     if(dir != obj->spec_attr->scroll_dir) {
  72:..\..\..\arduinoLCD\test\Pain Drain\libraries\lvgl\src\core/lv_obj_scroll.c ****         obj->spec_attr->scroll_dir = dir;
  73:..\..\..\arduinoLCD\test\Pain Drain\libraries\lvgl\src\core/lv_obj_scroll.c ****     }
  74:..\..\..\arduinoLCD\test\Pain Drain\libraries\lvgl\src\core/lv_obj_scroll.c **** }
  75:..\..\..\arduinoLCD\test\Pain Drain\libraries\lvgl\src\core/lv_obj_scroll.c **** 
  76:..\..\..\arduinoLCD\test\Pain Drain\libraries\lvgl\src\core/lv_obj_scroll.c **** void lv_obj_set_scroll_snap_x(lv_obj_t * obj, lv_scroll_snap_t align)
  77:..\..\..\arduinoLCD\test\Pain Drain\libraries\lvgl\src\core/lv_obj_scroll.c **** {
  78:..\..\..\arduinoLCD\test\Pain Drain\libraries\lvgl\src\core/lv_obj_scroll.c ****     lv_obj_allocate_spec_attr(obj);
  79:..\..\..\arduinoLCD\test\Pain Drain\libraries\lvgl\src\core/lv_obj_scroll.c ****     obj->spec_attr->scroll_snap_x = align;
  80:..\..\..\arduinoLCD\test\Pain Drain\libraries\lvgl\src\core/lv_obj_scroll.c **** }
  81:..\..\..\arduinoLCD\test\Pain Drain\libraries\lvgl\src\core/lv_obj_scroll.c **** 
  82:..\..\..\arduinoLCD\test\Pain Drain\libraries\lvgl\src\core/lv_obj_scroll.c **** void lv_obj_set_scroll_snap_y(lv_obj_t * obj, lv_scroll_snap_t align)
  83:..\..\..\arduinoLCD\test\Pain Drain\libraries\lvgl\src\core/lv_obj_scroll.c **** {
  84:..\..\..\arduinoLCD\test\Pain Drain\libraries\lvgl\src\core/lv_obj_scroll.c ****     lv_obj_allocate_spec_attr(obj);
  85:..\..\..\arduinoLCD\test\Pain Drain\libraries\lvgl\src\core/lv_obj_scroll.c ****     obj->spec_attr->scroll_snap_y = align;
  86:..\..\..\arduinoLCD\test\Pain Drain\libraries\lvgl\src\core/lv_obj_scroll.c **** }
  87:..\..\..\arduinoLCD\test\Pain Drain\libraries\lvgl\src\core/lv_obj_scroll.c **** 
ARM GAS  C:\Users\haske\AppData\Local\Temp\cc2IOi1w.s 			page 3


  88:..\..\..\arduinoLCD\test\Pain Drain\libraries\lvgl\src\core/lv_obj_scroll.c **** /*=====================
  89:..\..\..\arduinoLCD\test\Pain Drain\libraries\lvgl\src\core/lv_obj_scroll.c ****  * Getter functions
  90:..\..\..\arduinoLCD\test\Pain Drain\libraries\lvgl\src\core/lv_obj_scroll.c ****  *====================*/
  91:..\..\..\arduinoLCD\test\Pain Drain\libraries\lvgl\src\core/lv_obj_scroll.c **** 
  92:..\..\..\arduinoLCD\test\Pain Drain\libraries\lvgl\src\core/lv_obj_scroll.c **** lv_scrollbar_mode_t lv_obj_get_scrollbar_mode(const lv_obj_t * obj)
  93:..\..\..\arduinoLCD\test\Pain Drain\libraries\lvgl\src\core/lv_obj_scroll.c **** {
  94:..\..\..\arduinoLCD\test\Pain Drain\libraries\lvgl\src\core/lv_obj_scroll.c ****     if(obj->spec_attr) return obj->spec_attr->scrollbar_mode;
  95:..\..\..\arduinoLCD\test\Pain Drain\libraries\lvgl\src\core/lv_obj_scroll.c ****     else return LV_SCROLLBAR_MODE_AUTO;
  96:..\..\..\arduinoLCD\test\Pain Drain\libraries\lvgl\src\core/lv_obj_scroll.c **** }
  97:..\..\..\arduinoLCD\test\Pain Drain\libraries\lvgl\src\core/lv_obj_scroll.c **** 
  98:..\..\..\arduinoLCD\test\Pain Drain\libraries\lvgl\src\core/lv_obj_scroll.c **** lv_dir_t lv_obj_get_scroll_dir(const lv_obj_t * obj)
  99:..\..\..\arduinoLCD\test\Pain Drain\libraries\lvgl\src\core/lv_obj_scroll.c **** {
 100:..\..\..\arduinoLCD\test\Pain Drain\libraries\lvgl\src\core/lv_obj_scroll.c ****     if(obj->spec_attr) return obj->spec_attr->scroll_dir;
 101:..\..\..\arduinoLCD\test\Pain Drain\libraries\lvgl\src\core/lv_obj_scroll.c ****     else return LV_DIR_ALL;
 102:..\..\..\arduinoLCD\test\Pain Drain\libraries\lvgl\src\core/lv_obj_scroll.c **** }
 103:..\..\..\arduinoLCD\test\Pain Drain\libraries\lvgl\src\core/lv_obj_scroll.c **** 
 104:..\..\..\arduinoLCD\test\Pain Drain\libraries\lvgl\src\core/lv_obj_scroll.c **** lv_scroll_snap_t lv_obj_get_scroll_snap_x(const lv_obj_t * obj)
 105:..\..\..\arduinoLCD\test\Pain Drain\libraries\lvgl\src\core/lv_obj_scroll.c **** {
 106:..\..\..\arduinoLCD\test\Pain Drain\libraries\lvgl\src\core/lv_obj_scroll.c ****     if(obj->spec_attr) return obj->spec_attr->scroll_snap_x;
 107:..\..\..\arduinoLCD\test\Pain Drain\libraries\lvgl\src\core/lv_obj_scroll.c ****     else return LV_SCROLL_SNAP_NONE;
 108:..\..\..\arduinoLCD\test\Pain Drain\libraries\lvgl\src\core/lv_obj_scroll.c **** }
 109:..\..\..\arduinoLCD\test\Pain Drain\libraries\lvgl\src\core/lv_obj_scroll.c **** 
 110:..\..\..\arduinoLCD\test\Pain Drain\libraries\lvgl\src\core/lv_obj_scroll.c **** lv_scroll_snap_t lv_obj_get_scroll_snap_y(const lv_obj_t * obj)
 111:..\..\..\arduinoLCD\test\Pain Drain\libraries\lvgl\src\core/lv_obj_scroll.c **** {
 112:..\..\..\arduinoLCD\test\Pain Drain\libraries\lvgl\src\core/lv_obj_scroll.c ****     if(obj->spec_attr) return obj->spec_attr->scroll_snap_y;
 113:..\..\..\arduinoLCD\test\Pain Drain\libraries\lvgl\src\core/lv_obj_scroll.c ****     else return LV_SCROLL_SNAP_NONE;
 114:..\..\..\arduinoLCD\test\Pain Drain\libraries\lvgl\src\core/lv_obj_scroll.c **** }
 115:..\..\..\arduinoLCD\test\Pain Drain\libraries\lvgl\src\core/lv_obj_scroll.c **** 
 116:..\..\..\arduinoLCD\test\Pain Drain\libraries\lvgl\src\core/lv_obj_scroll.c **** lv_coord_t lv_obj_get_scroll_x(const lv_obj_t * obj)
 117:..\..\..\arduinoLCD\test\Pain Drain\libraries\lvgl\src\core/lv_obj_scroll.c **** {
 118:..\..\..\arduinoLCD\test\Pain Drain\libraries\lvgl\src\core/lv_obj_scroll.c ****     if(obj->spec_attr == NULL) return 0;
 119:..\..\..\arduinoLCD\test\Pain Drain\libraries\lvgl\src\core/lv_obj_scroll.c ****     return -obj->spec_attr->scroll.x;
 120:..\..\..\arduinoLCD\test\Pain Drain\libraries\lvgl\src\core/lv_obj_scroll.c **** }
 121:..\..\..\arduinoLCD\test\Pain Drain\libraries\lvgl\src\core/lv_obj_scroll.c **** 
 122:..\..\..\arduinoLCD\test\Pain Drain\libraries\lvgl\src\core/lv_obj_scroll.c **** lv_coord_t lv_obj_get_scroll_y(const lv_obj_t * obj)
 123:..\..\..\arduinoLCD\test\Pain Drain\libraries\lvgl\src\core/lv_obj_scroll.c **** {
 124:..\..\..\arduinoLCD\test\Pain Drain\libraries\lvgl\src\core/lv_obj_scroll.c ****     if(obj->spec_attr == NULL) return 0;
 125:..\..\..\arduinoLCD\test\Pain Drain\libraries\lvgl\src\core/lv_obj_scroll.c ****     return -obj->spec_attr->scroll.y;
 126:..\..\..\arduinoLCD\test\Pain Drain\libraries\lvgl\src\core/lv_obj_scroll.c **** }
 127:..\..\..\arduinoLCD\test\Pain Drain\libraries\lvgl\src\core/lv_obj_scroll.c **** 
 128:..\..\..\arduinoLCD\test\Pain Drain\libraries\lvgl\src\core/lv_obj_scroll.c **** lv_coord_t lv_obj_get_scroll_top(lv_obj_t * obj)
 129:..\..\..\arduinoLCD\test\Pain Drain\libraries\lvgl\src\core/lv_obj_scroll.c **** {
 130:..\..\..\arduinoLCD\test\Pain Drain\libraries\lvgl\src\core/lv_obj_scroll.c ****     if(obj->spec_attr == NULL) return 0;
 131:..\..\..\arduinoLCD\test\Pain Drain\libraries\lvgl\src\core/lv_obj_scroll.c ****     return -obj->spec_attr->scroll.y;
 132:..\..\..\arduinoLCD\test\Pain Drain\libraries\lvgl\src\core/lv_obj_scroll.c **** }
 133:..\..\..\arduinoLCD\test\Pain Drain\libraries\lvgl\src\core/lv_obj_scroll.c **** 
 134:..\..\..\arduinoLCD\test\Pain Drain\libraries\lvgl\src\core/lv_obj_scroll.c **** lv_coord_t lv_obj_get_scroll_bottom(lv_obj_t * obj)
 135:..\..\..\arduinoLCD\test\Pain Drain\libraries\lvgl\src\core/lv_obj_scroll.c **** {
 136:..\..\..\arduinoLCD\test\Pain Drain\libraries\lvgl\src\core/lv_obj_scroll.c ****     LV_ASSERT_OBJ(obj, MY_CLASS);
 137:..\..\..\arduinoLCD\test\Pain Drain\libraries\lvgl\src\core/lv_obj_scroll.c **** 
 138:..\..\..\arduinoLCD\test\Pain Drain\libraries\lvgl\src\core/lv_obj_scroll.c ****     lv_coord_t child_res = LV_COORD_MIN;
 139:..\..\..\arduinoLCD\test\Pain Drain\libraries\lvgl\src\core/lv_obj_scroll.c ****     uint32_t i;
 140:..\..\..\arduinoLCD\test\Pain Drain\libraries\lvgl\src\core/lv_obj_scroll.c ****     uint32_t child_cnt = lv_obj_get_child_cnt(obj);
 141:..\..\..\arduinoLCD\test\Pain Drain\libraries\lvgl\src\core/lv_obj_scroll.c ****     for(i = 0; i < child_cnt; i++) {
 142:..\..\..\arduinoLCD\test\Pain Drain\libraries\lvgl\src\core/lv_obj_scroll.c ****         lv_obj_t * child = obj->spec_attr->children[i];
 143:..\..\..\arduinoLCD\test\Pain Drain\libraries\lvgl\src\core/lv_obj_scroll.c ****         if(lv_obj_has_flag_any(child,  LV_OBJ_FLAG_HIDDEN | LV_OBJ_FLAG_FLOATING)) continue;
 144:..\..\..\arduinoLCD\test\Pain Drain\libraries\lvgl\src\core/lv_obj_scroll.c ****         child_res = LV_MAX(child_res, child->coords.y2);
ARM GAS  C:\Users\haske\AppData\Local\Temp\cc2IOi1w.s 			page 4


 145:..\..\..\arduinoLCD\test\Pain Drain\libraries\lvgl\src\core/lv_obj_scroll.c ****     }
 146:..\..\..\arduinoLCD\test\Pain Drain\libraries\lvgl\src\core/lv_obj_scroll.c **** 
 147:..\..\..\arduinoLCD\test\Pain Drain\libraries\lvgl\src\core/lv_obj_scroll.c ****     lv_coord_t pad_top = lv_obj_get_style_pad_top(obj, LV_PART_MAIN);
 148:..\..\..\arduinoLCD\test\Pain Drain\libraries\lvgl\src\core/lv_obj_scroll.c ****     lv_coord_t pad_bottom = lv_obj_get_style_pad_bottom(obj, LV_PART_MAIN);
 149:..\..\..\arduinoLCD\test\Pain Drain\libraries\lvgl\src\core/lv_obj_scroll.c ****     lv_coord_t border_width = lv_obj_get_style_border_width(obj, LV_PART_MAIN);
 150:..\..\..\arduinoLCD\test\Pain Drain\libraries\lvgl\src\core/lv_obj_scroll.c **** 
 151:..\..\..\arduinoLCD\test\Pain Drain\libraries\lvgl\src\core/lv_obj_scroll.c ****     if(child_res != LV_COORD_MIN) {
 152:..\..\..\arduinoLCD\test\Pain Drain\libraries\lvgl\src\core/lv_obj_scroll.c ****         child_res -= (obj->coords.y2 - pad_bottom - border_width);
 153:..\..\..\arduinoLCD\test\Pain Drain\libraries\lvgl\src\core/lv_obj_scroll.c ****     }
 154:..\..\..\arduinoLCD\test\Pain Drain\libraries\lvgl\src\core/lv_obj_scroll.c **** 
 155:..\..\..\arduinoLCD\test\Pain Drain\libraries\lvgl\src\core/lv_obj_scroll.c ****     lv_coord_t self_h = lv_obj_get_self_height(obj);
 156:..\..\..\arduinoLCD\test\Pain Drain\libraries\lvgl\src\core/lv_obj_scroll.c ****     self_h = self_h - (lv_obj_get_height(obj) - pad_top - pad_bottom - 2 * border_width);
 157:..\..\..\arduinoLCD\test\Pain Drain\libraries\lvgl\src\core/lv_obj_scroll.c ****     self_h -= lv_obj_get_scroll_y(obj);
 158:..\..\..\arduinoLCD\test\Pain Drain\libraries\lvgl\src\core/lv_obj_scroll.c ****     return LV_MAX(child_res, self_h);
 159:..\..\..\arduinoLCD\test\Pain Drain\libraries\lvgl\src\core/lv_obj_scroll.c **** }
 160:..\..\..\arduinoLCD\test\Pain Drain\libraries\lvgl\src\core/lv_obj_scroll.c **** 
 161:..\..\..\arduinoLCD\test\Pain Drain\libraries\lvgl\src\core/lv_obj_scroll.c **** lv_coord_t lv_obj_get_scroll_left(lv_obj_t * obj)
 162:..\..\..\arduinoLCD\test\Pain Drain\libraries\lvgl\src\core/lv_obj_scroll.c **** {
 163:..\..\..\arduinoLCD\test\Pain Drain\libraries\lvgl\src\core/lv_obj_scroll.c ****     LV_ASSERT_OBJ(obj, MY_CLASS);
 164:..\..\..\arduinoLCD\test\Pain Drain\libraries\lvgl\src\core/lv_obj_scroll.c **** 
 165:..\..\..\arduinoLCD\test\Pain Drain\libraries\lvgl\src\core/lv_obj_scroll.c ****     /*Normally can't scroll the object out on the left.
 166:..\..\..\arduinoLCD\test\Pain Drain\libraries\lvgl\src\core/lv_obj_scroll.c ****      *So simply use the current scroll position as "left size"*/
 167:..\..\..\arduinoLCD\test\Pain Drain\libraries\lvgl\src\core/lv_obj_scroll.c ****     if(lv_obj_get_style_base_dir(obj, LV_PART_MAIN) != LV_BASE_DIR_RTL) {
 168:..\..\..\arduinoLCD\test\Pain Drain\libraries\lvgl\src\core/lv_obj_scroll.c ****         if(obj->spec_attr == NULL) return 0;
 169:..\..\..\arduinoLCD\test\Pain Drain\libraries\lvgl\src\core/lv_obj_scroll.c ****         return -obj->spec_attr->scroll.x;
 170:..\..\..\arduinoLCD\test\Pain Drain\libraries\lvgl\src\core/lv_obj_scroll.c ****     }
 171:..\..\..\arduinoLCD\test\Pain Drain\libraries\lvgl\src\core/lv_obj_scroll.c **** 
 172:..\..\..\arduinoLCD\test\Pain Drain\libraries\lvgl\src\core/lv_obj_scroll.c ****     /*With RTL base direction scrolling the left is normal so find the left most coordinate*/
 173:..\..\..\arduinoLCD\test\Pain Drain\libraries\lvgl\src\core/lv_obj_scroll.c ****     lv_coord_t pad_right = lv_obj_get_style_pad_right(obj, LV_PART_MAIN);
 174:..\..\..\arduinoLCD\test\Pain Drain\libraries\lvgl\src\core/lv_obj_scroll.c ****     lv_coord_t pad_left = lv_obj_get_style_pad_left(obj, LV_PART_MAIN);
 175:..\..\..\arduinoLCD\test\Pain Drain\libraries\lvgl\src\core/lv_obj_scroll.c ****     lv_coord_t border_width = lv_obj_get_style_border_width(obj, LV_PART_MAIN);
 176:..\..\..\arduinoLCD\test\Pain Drain\libraries\lvgl\src\core/lv_obj_scroll.c **** 
 177:..\..\..\arduinoLCD\test\Pain Drain\libraries\lvgl\src\core/lv_obj_scroll.c ****     lv_coord_t child_res = 0;
 178:..\..\..\arduinoLCD\test\Pain Drain\libraries\lvgl\src\core/lv_obj_scroll.c **** 
 179:..\..\..\arduinoLCD\test\Pain Drain\libraries\lvgl\src\core/lv_obj_scroll.c ****     uint32_t i;
 180:..\..\..\arduinoLCD\test\Pain Drain\libraries\lvgl\src\core/lv_obj_scroll.c ****     lv_coord_t x1 = LV_COORD_MAX;
 181:..\..\..\arduinoLCD\test\Pain Drain\libraries\lvgl\src\core/lv_obj_scroll.c ****     uint32_t child_cnt = lv_obj_get_child_cnt(obj);
 182:..\..\..\arduinoLCD\test\Pain Drain\libraries\lvgl\src\core/lv_obj_scroll.c ****     for(i = 0; i < child_cnt; i++) {
 183:..\..\..\arduinoLCD\test\Pain Drain\libraries\lvgl\src\core/lv_obj_scroll.c ****         lv_obj_t * child = obj->spec_attr->children[i];
 184:..\..\..\arduinoLCD\test\Pain Drain\libraries\lvgl\src\core/lv_obj_scroll.c ****         if(lv_obj_has_flag_any(child,  LV_OBJ_FLAG_HIDDEN | LV_OBJ_FLAG_FLOATING)) continue;
 185:..\..\..\arduinoLCD\test\Pain Drain\libraries\lvgl\src\core/lv_obj_scroll.c ****         x1 = LV_MIN(x1, child->coords.x1);
 186:..\..\..\arduinoLCD\test\Pain Drain\libraries\lvgl\src\core/lv_obj_scroll.c **** 
 187:..\..\..\arduinoLCD\test\Pain Drain\libraries\lvgl\src\core/lv_obj_scroll.c ****     }
 188:..\..\..\arduinoLCD\test\Pain Drain\libraries\lvgl\src\core/lv_obj_scroll.c **** 
 189:..\..\..\arduinoLCD\test\Pain Drain\libraries\lvgl\src\core/lv_obj_scroll.c ****     if(x1 != LV_COORD_MAX) {
 190:..\..\..\arduinoLCD\test\Pain Drain\libraries\lvgl\src\core/lv_obj_scroll.c ****         child_res = x1;
 191:..\..\..\arduinoLCD\test\Pain Drain\libraries\lvgl\src\core/lv_obj_scroll.c ****         child_res = (obj->coords.x1 + pad_left + border_width) - child_res;
 192:..\..\..\arduinoLCD\test\Pain Drain\libraries\lvgl\src\core/lv_obj_scroll.c ****     }
 193:..\..\..\arduinoLCD\test\Pain Drain\libraries\lvgl\src\core/lv_obj_scroll.c ****     else {
 194:..\..\..\arduinoLCD\test\Pain Drain\libraries\lvgl\src\core/lv_obj_scroll.c ****         child_res = LV_COORD_MIN;
 195:..\..\..\arduinoLCD\test\Pain Drain\libraries\lvgl\src\core/lv_obj_scroll.c ****     }
 196:..\..\..\arduinoLCD\test\Pain Drain\libraries\lvgl\src\core/lv_obj_scroll.c **** 
 197:..\..\..\arduinoLCD\test\Pain Drain\libraries\lvgl\src\core/lv_obj_scroll.c ****     lv_coord_t self_w = lv_obj_get_self_width(obj);
 198:..\..\..\arduinoLCD\test\Pain Drain\libraries\lvgl\src\core/lv_obj_scroll.c ****     self_w = self_w - (lv_obj_get_width(obj) - pad_right - pad_left - 2 * border_width);
 199:..\..\..\arduinoLCD\test\Pain Drain\libraries\lvgl\src\core/lv_obj_scroll.c ****     self_w += lv_obj_get_scroll_x(obj);
 200:..\..\..\arduinoLCD\test\Pain Drain\libraries\lvgl\src\core/lv_obj_scroll.c **** 
 201:..\..\..\arduinoLCD\test\Pain Drain\libraries\lvgl\src\core/lv_obj_scroll.c ****     return LV_MAX(child_res, self_w);
ARM GAS  C:\Users\haske\AppData\Local\Temp\cc2IOi1w.s 			page 5


 202:..\..\..\arduinoLCD\test\Pain Drain\libraries\lvgl\src\core/lv_obj_scroll.c **** }
 203:..\..\..\arduinoLCD\test\Pain Drain\libraries\lvgl\src\core/lv_obj_scroll.c **** 
 204:..\..\..\arduinoLCD\test\Pain Drain\libraries\lvgl\src\core/lv_obj_scroll.c **** lv_coord_t lv_obj_get_scroll_right(lv_obj_t * obj)
 205:..\..\..\arduinoLCD\test\Pain Drain\libraries\lvgl\src\core/lv_obj_scroll.c **** {
 206:..\..\..\arduinoLCD\test\Pain Drain\libraries\lvgl\src\core/lv_obj_scroll.c ****     LV_ASSERT_OBJ(obj, MY_CLASS);
 207:..\..\..\arduinoLCD\test\Pain Drain\libraries\lvgl\src\core/lv_obj_scroll.c **** 
 208:..\..\..\arduinoLCD\test\Pain Drain\libraries\lvgl\src\core/lv_obj_scroll.c ****     /*With RTL base dir can't scroll to the object out on the right.
 209:..\..\..\arduinoLCD\test\Pain Drain\libraries\lvgl\src\core/lv_obj_scroll.c ****      *So simply use the current scroll position as "right size"*/
 210:..\..\..\arduinoLCD\test\Pain Drain\libraries\lvgl\src\core/lv_obj_scroll.c ****     if(lv_obj_get_style_base_dir(obj, LV_PART_MAIN) == LV_BASE_DIR_RTL) {
 211:..\..\..\arduinoLCD\test\Pain Drain\libraries\lvgl\src\core/lv_obj_scroll.c ****         if(obj->spec_attr == NULL) return 0;
 212:..\..\..\arduinoLCD\test\Pain Drain\libraries\lvgl\src\core/lv_obj_scroll.c ****         return obj->spec_attr->scroll.x;
 213:..\..\..\arduinoLCD\test\Pain Drain\libraries\lvgl\src\core/lv_obj_scroll.c ****     }
 214:..\..\..\arduinoLCD\test\Pain Drain\libraries\lvgl\src\core/lv_obj_scroll.c **** 
 215:..\..\..\arduinoLCD\test\Pain Drain\libraries\lvgl\src\core/lv_obj_scroll.c ****     /*With other base direction (LTR) scrolling to the right is normal so find the right most coord
 216:..\..\..\arduinoLCD\test\Pain Drain\libraries\lvgl\src\core/lv_obj_scroll.c ****     lv_coord_t child_res = LV_COORD_MIN;
 217:..\..\..\arduinoLCD\test\Pain Drain\libraries\lvgl\src\core/lv_obj_scroll.c ****     uint32_t i;
 218:..\..\..\arduinoLCD\test\Pain Drain\libraries\lvgl\src\core/lv_obj_scroll.c ****     uint32_t child_cnt = lv_obj_get_child_cnt(obj);
 219:..\..\..\arduinoLCD\test\Pain Drain\libraries\lvgl\src\core/lv_obj_scroll.c ****     for(i = 0; i < child_cnt; i++) {
 220:..\..\..\arduinoLCD\test\Pain Drain\libraries\lvgl\src\core/lv_obj_scroll.c ****         lv_obj_t * child = obj->spec_attr->children[i];
 221:..\..\..\arduinoLCD\test\Pain Drain\libraries\lvgl\src\core/lv_obj_scroll.c ****         if(lv_obj_has_flag_any(child,  LV_OBJ_FLAG_HIDDEN | LV_OBJ_FLAG_FLOATING)) continue;
 222:..\..\..\arduinoLCD\test\Pain Drain\libraries\lvgl\src\core/lv_obj_scroll.c ****         child_res = LV_MAX(child_res, child->coords.x2);
 223:..\..\..\arduinoLCD\test\Pain Drain\libraries\lvgl\src\core/lv_obj_scroll.c ****     }
 224:..\..\..\arduinoLCD\test\Pain Drain\libraries\lvgl\src\core/lv_obj_scroll.c **** 
 225:..\..\..\arduinoLCD\test\Pain Drain\libraries\lvgl\src\core/lv_obj_scroll.c ****     lv_coord_t pad_right = lv_obj_get_style_pad_right(obj, LV_PART_MAIN);
 226:..\..\..\arduinoLCD\test\Pain Drain\libraries\lvgl\src\core/lv_obj_scroll.c ****     lv_coord_t pad_left = lv_obj_get_style_pad_left(obj, LV_PART_MAIN);
 227:..\..\..\arduinoLCD\test\Pain Drain\libraries\lvgl\src\core/lv_obj_scroll.c ****     lv_coord_t border_width = lv_obj_get_style_border_width(obj, LV_PART_MAIN);
 228:..\..\..\arduinoLCD\test\Pain Drain\libraries\lvgl\src\core/lv_obj_scroll.c **** 
 229:..\..\..\arduinoLCD\test\Pain Drain\libraries\lvgl\src\core/lv_obj_scroll.c ****     if(child_res != LV_COORD_MIN) {
 230:..\..\..\arduinoLCD\test\Pain Drain\libraries\lvgl\src\core/lv_obj_scroll.c ****         child_res -= (obj->coords.x2 - pad_right - border_width);
 231:..\..\..\arduinoLCD\test\Pain Drain\libraries\lvgl\src\core/lv_obj_scroll.c ****     }
 232:..\..\..\arduinoLCD\test\Pain Drain\libraries\lvgl\src\core/lv_obj_scroll.c **** 
 233:..\..\..\arduinoLCD\test\Pain Drain\libraries\lvgl\src\core/lv_obj_scroll.c ****     lv_coord_t self_w;
 234:..\..\..\arduinoLCD\test\Pain Drain\libraries\lvgl\src\core/lv_obj_scroll.c ****     self_w = lv_obj_get_self_width(obj);
 235:..\..\..\arduinoLCD\test\Pain Drain\libraries\lvgl\src\core/lv_obj_scroll.c ****     self_w = self_w - (lv_obj_get_width(obj) - pad_right - pad_left - 2 * border_width);
 236:..\..\..\arduinoLCD\test\Pain Drain\libraries\lvgl\src\core/lv_obj_scroll.c ****     self_w -= lv_obj_get_scroll_x(obj);
 237:..\..\..\arduinoLCD\test\Pain Drain\libraries\lvgl\src\core/lv_obj_scroll.c ****     return LV_MAX(child_res, self_w);
 238:..\..\..\arduinoLCD\test\Pain Drain\libraries\lvgl\src\core/lv_obj_scroll.c **** }
 239:..\..\..\arduinoLCD\test\Pain Drain\libraries\lvgl\src\core/lv_obj_scroll.c **** 
 240:..\..\..\arduinoLCD\test\Pain Drain\libraries\lvgl\src\core/lv_obj_scroll.c **** void lv_obj_get_scroll_end(struct _lv_obj_t  * obj, lv_point_t * end)
 241:..\..\..\arduinoLCD\test\Pain Drain\libraries\lvgl\src\core/lv_obj_scroll.c **** {
 242:..\..\..\arduinoLCD\test\Pain Drain\libraries\lvgl\src\core/lv_obj_scroll.c ****     lv_anim_t * a;
 243:..\..\..\arduinoLCD\test\Pain Drain\libraries\lvgl\src\core/lv_obj_scroll.c ****     a = lv_anim_get(obj, scroll_x_anim);
 244:..\..\..\arduinoLCD\test\Pain Drain\libraries\lvgl\src\core/lv_obj_scroll.c ****     end->x = a ? -a->end_value : lv_obj_get_scroll_x(obj);
 245:..\..\..\arduinoLCD\test\Pain Drain\libraries\lvgl\src\core/lv_obj_scroll.c **** 
 246:..\..\..\arduinoLCD\test\Pain Drain\libraries\lvgl\src\core/lv_obj_scroll.c ****     a = lv_anim_get(obj, scroll_y_anim);
 247:..\..\..\arduinoLCD\test\Pain Drain\libraries\lvgl\src\core/lv_obj_scroll.c ****     end->y = a ? -a->end_value : lv_obj_get_scroll_y(obj);
 248:..\..\..\arduinoLCD\test\Pain Drain\libraries\lvgl\src\core/lv_obj_scroll.c **** }
 249:..\..\..\arduinoLCD\test\Pain Drain\libraries\lvgl\src\core/lv_obj_scroll.c **** 
 250:..\..\..\arduinoLCD\test\Pain Drain\libraries\lvgl\src\core/lv_obj_scroll.c **** /*=====================
 251:..\..\..\arduinoLCD\test\Pain Drain\libraries\lvgl\src\core/lv_obj_scroll.c ****  * Other functions
 252:..\..\..\arduinoLCD\test\Pain Drain\libraries\lvgl\src\core/lv_obj_scroll.c ****  *====================*/
 253:..\..\..\arduinoLCD\test\Pain Drain\libraries\lvgl\src\core/lv_obj_scroll.c **** 
 254:..\..\..\arduinoLCD\test\Pain Drain\libraries\lvgl\src\core/lv_obj_scroll.c **** void lv_obj_scroll_by_bounded(lv_obj_t * obj, lv_coord_t dx, lv_coord_t dy, lv_anim_enable_t anim_e
 255:..\..\..\arduinoLCD\test\Pain Drain\libraries\lvgl\src\core/lv_obj_scroll.c **** {
 256:..\..\..\arduinoLCD\test\Pain Drain\libraries\lvgl\src\core/lv_obj_scroll.c ****     if(dx == 0 && dy == 0) return;
 257:..\..\..\arduinoLCD\test\Pain Drain\libraries\lvgl\src\core/lv_obj_scroll.c **** 
 258:..\..\..\arduinoLCD\test\Pain Drain\libraries\lvgl\src\core/lv_obj_scroll.c ****     /*We need to know the final sizes for bound check*/
ARM GAS  C:\Users\haske\AppData\Local\Temp\cc2IOi1w.s 			page 6


 259:..\..\..\arduinoLCD\test\Pain Drain\libraries\lvgl\src\core/lv_obj_scroll.c ****     lv_obj_update_layout(obj);
 260:..\..\..\arduinoLCD\test\Pain Drain\libraries\lvgl\src\core/lv_obj_scroll.c **** 
 261:..\..\..\arduinoLCD\test\Pain Drain\libraries\lvgl\src\core/lv_obj_scroll.c ****     /*Don't let scroll more then naturally possible by the size of the content*/
 262:..\..\..\arduinoLCD\test\Pain Drain\libraries\lvgl\src\core/lv_obj_scroll.c ****     lv_coord_t x_current = -lv_obj_get_scroll_x(obj);
 263:..\..\..\arduinoLCD\test\Pain Drain\libraries\lvgl\src\core/lv_obj_scroll.c ****     lv_coord_t x_bounded = x_current + dx;
 264:..\..\..\arduinoLCD\test\Pain Drain\libraries\lvgl\src\core/lv_obj_scroll.c **** 
 265:..\..\..\arduinoLCD\test\Pain Drain\libraries\lvgl\src\core/lv_obj_scroll.c ****     if(lv_obj_get_style_base_dir(obj, LV_PART_MAIN) != LV_BASE_DIR_RTL) {
 266:..\..\..\arduinoLCD\test\Pain Drain\libraries\lvgl\src\core/lv_obj_scroll.c ****         if(x_bounded > 0) x_bounded = 0;
 267:..\..\..\arduinoLCD\test\Pain Drain\libraries\lvgl\src\core/lv_obj_scroll.c ****         if(x_bounded < 0) {
 268:..\..\..\arduinoLCD\test\Pain Drain\libraries\lvgl\src\core/lv_obj_scroll.c ****             lv_coord_t  scroll_max = lv_obj_get_scroll_left(obj) + lv_obj_get_scroll_right(obj);
 269:..\..\..\arduinoLCD\test\Pain Drain\libraries\lvgl\src\core/lv_obj_scroll.c ****             if(scroll_max < 0) scroll_max = 0;
 270:..\..\..\arduinoLCD\test\Pain Drain\libraries\lvgl\src\core/lv_obj_scroll.c **** 
 271:..\..\..\arduinoLCD\test\Pain Drain\libraries\lvgl\src\core/lv_obj_scroll.c ****             if(x_bounded < -scroll_max) x_bounded = -scroll_max;
 272:..\..\..\arduinoLCD\test\Pain Drain\libraries\lvgl\src\core/lv_obj_scroll.c ****         }
 273:..\..\..\arduinoLCD\test\Pain Drain\libraries\lvgl\src\core/lv_obj_scroll.c ****     }
 274:..\..\..\arduinoLCD\test\Pain Drain\libraries\lvgl\src\core/lv_obj_scroll.c ****     else {
 275:..\..\..\arduinoLCD\test\Pain Drain\libraries\lvgl\src\core/lv_obj_scroll.c ****         if(x_bounded < 0) x_bounded = 0;
 276:..\..\..\arduinoLCD\test\Pain Drain\libraries\lvgl\src\core/lv_obj_scroll.c ****         if(x_bounded > 0) {
 277:..\..\..\arduinoLCD\test\Pain Drain\libraries\lvgl\src\core/lv_obj_scroll.c ****             lv_coord_t  scroll_max = lv_obj_get_scroll_left(obj) + lv_obj_get_scroll_right(obj);
 278:..\..\..\arduinoLCD\test\Pain Drain\libraries\lvgl\src\core/lv_obj_scroll.c ****             if(scroll_max < 0) scroll_max = 0;
 279:..\..\..\arduinoLCD\test\Pain Drain\libraries\lvgl\src\core/lv_obj_scroll.c **** 
 280:..\..\..\arduinoLCD\test\Pain Drain\libraries\lvgl\src\core/lv_obj_scroll.c ****             if(x_bounded > scroll_max) x_bounded = scroll_max;
 281:..\..\..\arduinoLCD\test\Pain Drain\libraries\lvgl\src\core/lv_obj_scroll.c ****         }
 282:..\..\..\arduinoLCD\test\Pain Drain\libraries\lvgl\src\core/lv_obj_scroll.c ****     }
 283:..\..\..\arduinoLCD\test\Pain Drain\libraries\lvgl\src\core/lv_obj_scroll.c **** 
 284:..\..\..\arduinoLCD\test\Pain Drain\libraries\lvgl\src\core/lv_obj_scroll.c ****     /*Don't let scroll more then naturally possible by the size of the content*/
 285:..\..\..\arduinoLCD\test\Pain Drain\libraries\lvgl\src\core/lv_obj_scroll.c ****     lv_coord_t y_current = -lv_obj_get_scroll_y(obj);
 286:..\..\..\arduinoLCD\test\Pain Drain\libraries\lvgl\src\core/lv_obj_scroll.c ****     lv_coord_t y_bounded = y_current + dy;
 287:..\..\..\arduinoLCD\test\Pain Drain\libraries\lvgl\src\core/lv_obj_scroll.c **** 
 288:..\..\..\arduinoLCD\test\Pain Drain\libraries\lvgl\src\core/lv_obj_scroll.c ****     if(y_bounded > 0) y_bounded = 0;
 289:..\..\..\arduinoLCD\test\Pain Drain\libraries\lvgl\src\core/lv_obj_scroll.c ****     if(y_bounded < 0) {
 290:..\..\..\arduinoLCD\test\Pain Drain\libraries\lvgl\src\core/lv_obj_scroll.c ****         lv_coord_t  scroll_max = lv_obj_get_scroll_top(obj) + lv_obj_get_scroll_bottom(obj);
 291:..\..\..\arduinoLCD\test\Pain Drain\libraries\lvgl\src\core/lv_obj_scroll.c ****         if(scroll_max < 0) scroll_max = 0;
 292:..\..\..\arduinoLCD\test\Pain Drain\libraries\lvgl\src\core/lv_obj_scroll.c ****         if(y_bounded < -scroll_max) y_bounded = -scroll_max;
 293:..\..\..\arduinoLCD\test\Pain Drain\libraries\lvgl\src\core/lv_obj_scroll.c ****     }
 294:..\..\..\arduinoLCD\test\Pain Drain\libraries\lvgl\src\core/lv_obj_scroll.c **** 
 295:..\..\..\arduinoLCD\test\Pain Drain\libraries\lvgl\src\core/lv_obj_scroll.c ****     dx = x_bounded - x_current;
 296:..\..\..\arduinoLCD\test\Pain Drain\libraries\lvgl\src\core/lv_obj_scroll.c ****     dy = y_bounded - y_current;
 297:..\..\..\arduinoLCD\test\Pain Drain\libraries\lvgl\src\core/lv_obj_scroll.c ****     if(dx || dy) {
 298:..\..\..\arduinoLCD\test\Pain Drain\libraries\lvgl\src\core/lv_obj_scroll.c ****         lv_obj_scroll_by(obj, dx, dy, anim_en);
 299:..\..\..\arduinoLCD\test\Pain Drain\libraries\lvgl\src\core/lv_obj_scroll.c ****     }
 300:..\..\..\arduinoLCD\test\Pain Drain\libraries\lvgl\src\core/lv_obj_scroll.c **** }
 301:..\..\..\arduinoLCD\test\Pain Drain\libraries\lvgl\src\core/lv_obj_scroll.c **** 
 302:..\..\..\arduinoLCD\test\Pain Drain\libraries\lvgl\src\core/lv_obj_scroll.c **** 
 303:..\..\..\arduinoLCD\test\Pain Drain\libraries\lvgl\src\core/lv_obj_scroll.c **** void lv_obj_scroll_by(lv_obj_t * obj, lv_coord_t dx, lv_coord_t dy, lv_anim_enable_t anim_en)
 304:..\..\..\arduinoLCD\test\Pain Drain\libraries\lvgl\src\core/lv_obj_scroll.c **** {
 305:..\..\..\arduinoLCD\test\Pain Drain\libraries\lvgl\src\core/lv_obj_scroll.c ****     if(dx == 0 && dy == 0) return;
 306:..\..\..\arduinoLCD\test\Pain Drain\libraries\lvgl\src\core/lv_obj_scroll.c ****     if(anim_en == LV_ANIM_ON) {
 307:..\..\..\arduinoLCD\test\Pain Drain\libraries\lvgl\src\core/lv_obj_scroll.c ****         lv_disp_t * d = lv_obj_get_disp(obj);
 308:..\..\..\arduinoLCD\test\Pain Drain\libraries\lvgl\src\core/lv_obj_scroll.c ****         lv_anim_t a;
 309:..\..\..\arduinoLCD\test\Pain Drain\libraries\lvgl\src\core/lv_obj_scroll.c ****         lv_anim_init(&a);
 310:..\..\..\arduinoLCD\test\Pain Drain\libraries\lvgl\src\core/lv_obj_scroll.c ****         lv_anim_set_var(&a, obj);
 311:..\..\..\arduinoLCD\test\Pain Drain\libraries\lvgl\src\core/lv_obj_scroll.c ****         lv_anim_set_ready_cb(&a, scroll_anim_ready_cb);
 312:..\..\..\arduinoLCD\test\Pain Drain\libraries\lvgl\src\core/lv_obj_scroll.c **** 
 313:..\..\..\arduinoLCD\test\Pain Drain\libraries\lvgl\src\core/lv_obj_scroll.c ****         if(dx) {
 314:..\..\..\arduinoLCD\test\Pain Drain\libraries\lvgl\src\core/lv_obj_scroll.c ****             uint32_t t = lv_anim_speed_to_time((lv_disp_get_hor_res(d) * 2) >> 2, 0, dx);
 315:..\..\..\arduinoLCD\test\Pain Drain\libraries\lvgl\src\core/lv_obj_scroll.c ****             if(t < SCROLL_ANIM_TIME_MIN) t = SCROLL_ANIM_TIME_MIN;
ARM GAS  C:\Users\haske\AppData\Local\Temp\cc2IOi1w.s 			page 7


 316:..\..\..\arduinoLCD\test\Pain Drain\libraries\lvgl\src\core/lv_obj_scroll.c ****             if(t > SCROLL_ANIM_TIME_MAX) t = SCROLL_ANIM_TIME_MAX;
 317:..\..\..\arduinoLCD\test\Pain Drain\libraries\lvgl\src\core/lv_obj_scroll.c ****             lv_anim_set_time(&a, t);
 318:..\..\..\arduinoLCD\test\Pain Drain\libraries\lvgl\src\core/lv_obj_scroll.c ****             lv_coord_t sx = lv_obj_get_scroll_x(obj);
 319:..\..\..\arduinoLCD\test\Pain Drain\libraries\lvgl\src\core/lv_obj_scroll.c ****             lv_anim_set_values(&a, -sx, -sx + dx);
 320:..\..\..\arduinoLCD\test\Pain Drain\libraries\lvgl\src\core/lv_obj_scroll.c ****             lv_anim_set_exec_cb(&a, scroll_x_anim);
 321:..\..\..\arduinoLCD\test\Pain Drain\libraries\lvgl\src\core/lv_obj_scroll.c ****             lv_anim_set_path_cb(&a, lv_anim_path_ease_out);
 322:..\..\..\arduinoLCD\test\Pain Drain\libraries\lvgl\src\core/lv_obj_scroll.c **** 
 323:..\..\..\arduinoLCD\test\Pain Drain\libraries\lvgl\src\core/lv_obj_scroll.c ****             lv_res_t res;
 324:..\..\..\arduinoLCD\test\Pain Drain\libraries\lvgl\src\core/lv_obj_scroll.c ****             res = lv_event_send(obj, LV_EVENT_SCROLL_BEGIN, &a);
 325:..\..\..\arduinoLCD\test\Pain Drain\libraries\lvgl\src\core/lv_obj_scroll.c ****             if(res != LV_RES_OK) return;
 326:..\..\..\arduinoLCD\test\Pain Drain\libraries\lvgl\src\core/lv_obj_scroll.c ****             lv_anim_start(&a);
 327:..\..\..\arduinoLCD\test\Pain Drain\libraries\lvgl\src\core/lv_obj_scroll.c ****         }
 328:..\..\..\arduinoLCD\test\Pain Drain\libraries\lvgl\src\core/lv_obj_scroll.c **** 
 329:..\..\..\arduinoLCD\test\Pain Drain\libraries\lvgl\src\core/lv_obj_scroll.c ****         if(dy) {
 330:..\..\..\arduinoLCD\test\Pain Drain\libraries\lvgl\src\core/lv_obj_scroll.c ****             uint32_t t = lv_anim_speed_to_time((lv_disp_get_ver_res(d) * 2) >> 2, 0, dy);
 331:..\..\..\arduinoLCD\test\Pain Drain\libraries\lvgl\src\core/lv_obj_scroll.c ****             if(t < SCROLL_ANIM_TIME_MIN) t = SCROLL_ANIM_TIME_MIN;
 332:..\..\..\arduinoLCD\test\Pain Drain\libraries\lvgl\src\core/lv_obj_scroll.c ****             if(t > SCROLL_ANIM_TIME_MAX) t = SCROLL_ANIM_TIME_MAX;
 333:..\..\..\arduinoLCD\test\Pain Drain\libraries\lvgl\src\core/lv_obj_scroll.c ****             lv_anim_set_time(&a, t);
 334:..\..\..\arduinoLCD\test\Pain Drain\libraries\lvgl\src\core/lv_obj_scroll.c ****             lv_coord_t sy = lv_obj_get_scroll_y(obj);
 335:..\..\..\arduinoLCD\test\Pain Drain\libraries\lvgl\src\core/lv_obj_scroll.c ****             lv_anim_set_values(&a, -sy, -sy + dy);
 336:..\..\..\arduinoLCD\test\Pain Drain\libraries\lvgl\src\core/lv_obj_scroll.c ****             lv_anim_set_exec_cb(&a,  scroll_y_anim);
 337:..\..\..\arduinoLCD\test\Pain Drain\libraries\lvgl\src\core/lv_obj_scroll.c ****             lv_anim_set_path_cb(&a, lv_anim_path_ease_out);
 338:..\..\..\arduinoLCD\test\Pain Drain\libraries\lvgl\src\core/lv_obj_scroll.c **** 
 339:..\..\..\arduinoLCD\test\Pain Drain\libraries\lvgl\src\core/lv_obj_scroll.c ****             lv_res_t res;
 340:..\..\..\arduinoLCD\test\Pain Drain\libraries\lvgl\src\core/lv_obj_scroll.c ****             res = lv_event_send(obj, LV_EVENT_SCROLL_BEGIN, &a);
 341:..\..\..\arduinoLCD\test\Pain Drain\libraries\lvgl\src\core/lv_obj_scroll.c ****             if(res != LV_RES_OK) return;
 342:..\..\..\arduinoLCD\test\Pain Drain\libraries\lvgl\src\core/lv_obj_scroll.c ****             lv_anim_start(&a);
 343:..\..\..\arduinoLCD\test\Pain Drain\libraries\lvgl\src\core/lv_obj_scroll.c ****         }
 344:..\..\..\arduinoLCD\test\Pain Drain\libraries\lvgl\src\core/lv_obj_scroll.c ****     }
 345:..\..\..\arduinoLCD\test\Pain Drain\libraries\lvgl\src\core/lv_obj_scroll.c ****     else {
 346:..\..\..\arduinoLCD\test\Pain Drain\libraries\lvgl\src\core/lv_obj_scroll.c ****         /*Remove pending animations*/
 347:..\..\..\arduinoLCD\test\Pain Drain\libraries\lvgl\src\core/lv_obj_scroll.c ****         lv_anim_del(obj, scroll_y_anim);
 348:..\..\..\arduinoLCD\test\Pain Drain\libraries\lvgl\src\core/lv_obj_scroll.c ****         lv_anim_del(obj, scroll_x_anim);
 349:..\..\..\arduinoLCD\test\Pain Drain\libraries\lvgl\src\core/lv_obj_scroll.c **** 
 350:..\..\..\arduinoLCD\test\Pain Drain\libraries\lvgl\src\core/lv_obj_scroll.c ****         lv_res_t res;
 351:..\..\..\arduinoLCD\test\Pain Drain\libraries\lvgl\src\core/lv_obj_scroll.c ****         res = lv_event_send(obj, LV_EVENT_SCROLL_BEGIN, NULL);
 352:..\..\..\arduinoLCD\test\Pain Drain\libraries\lvgl\src\core/lv_obj_scroll.c ****         if(res != LV_RES_OK) return;
 353:..\..\..\arduinoLCD\test\Pain Drain\libraries\lvgl\src\core/lv_obj_scroll.c **** 
 354:..\..\..\arduinoLCD\test\Pain Drain\libraries\lvgl\src\core/lv_obj_scroll.c ****         res = _lv_obj_scroll_by_raw(obj, dx, dy);
 355:..\..\..\arduinoLCD\test\Pain Drain\libraries\lvgl\src\core/lv_obj_scroll.c ****         if(res != LV_RES_OK) return;
 356:..\..\..\arduinoLCD\test\Pain Drain\libraries\lvgl\src\core/lv_obj_scroll.c **** 
 357:..\..\..\arduinoLCD\test\Pain Drain\libraries\lvgl\src\core/lv_obj_scroll.c ****         res = lv_event_send(obj, LV_EVENT_SCROLL_END, NULL);
 358:..\..\..\arduinoLCD\test\Pain Drain\libraries\lvgl\src\core/lv_obj_scroll.c ****         if(res != LV_RES_OK) return;
 359:..\..\..\arduinoLCD\test\Pain Drain\libraries\lvgl\src\core/lv_obj_scroll.c ****     }
 360:..\..\..\arduinoLCD\test\Pain Drain\libraries\lvgl\src\core/lv_obj_scroll.c **** }
 361:..\..\..\arduinoLCD\test\Pain Drain\libraries\lvgl\src\core/lv_obj_scroll.c **** 
 362:..\..\..\arduinoLCD\test\Pain Drain\libraries\lvgl\src\core/lv_obj_scroll.c **** void lv_obj_scroll_to(lv_obj_t * obj, lv_coord_t x, lv_coord_t y, lv_anim_enable_t anim_en)
 363:..\..\..\arduinoLCD\test\Pain Drain\libraries\lvgl\src\core/lv_obj_scroll.c **** {
 364:..\..\..\arduinoLCD\test\Pain Drain\libraries\lvgl\src\core/lv_obj_scroll.c ****     lv_obj_scroll_to_x(obj, x, anim_en);
 365:..\..\..\arduinoLCD\test\Pain Drain\libraries\lvgl\src\core/lv_obj_scroll.c ****     lv_obj_scroll_to_y(obj, y, anim_en);
 366:..\..\..\arduinoLCD\test\Pain Drain\libraries\lvgl\src\core/lv_obj_scroll.c **** }
 367:..\..\..\arduinoLCD\test\Pain Drain\libraries\lvgl\src\core/lv_obj_scroll.c **** 
 368:..\..\..\arduinoLCD\test\Pain Drain\libraries\lvgl\src\core/lv_obj_scroll.c **** void lv_obj_scroll_to_x(lv_obj_t * obj, lv_coord_t x, lv_anim_enable_t anim_en)
 369:..\..\..\arduinoLCD\test\Pain Drain\libraries\lvgl\src\core/lv_obj_scroll.c **** {
 370:..\..\..\arduinoLCD\test\Pain Drain\libraries\lvgl\src\core/lv_obj_scroll.c ****     lv_anim_del(obj, scroll_x_anim);
 371:..\..\..\arduinoLCD\test\Pain Drain\libraries\lvgl\src\core/lv_obj_scroll.c **** 
 372:..\..\..\arduinoLCD\test\Pain Drain\libraries\lvgl\src\core/lv_obj_scroll.c ****     lv_coord_t scroll_x = lv_obj_get_scroll_x(obj);
ARM GAS  C:\Users\haske\AppData\Local\Temp\cc2IOi1w.s 			page 8


 373:..\..\..\arduinoLCD\test\Pain Drain\libraries\lvgl\src\core/lv_obj_scroll.c ****     lv_coord_t diff = -x + scroll_x;
 374:..\..\..\arduinoLCD\test\Pain Drain\libraries\lvgl\src\core/lv_obj_scroll.c **** 
 375:..\..\..\arduinoLCD\test\Pain Drain\libraries\lvgl\src\core/lv_obj_scroll.c ****     lv_obj_scroll_by_bounded(obj, diff, 0, anim_en);
 376:..\..\..\arduinoLCD\test\Pain Drain\libraries\lvgl\src\core/lv_obj_scroll.c **** }
 377:..\..\..\arduinoLCD\test\Pain Drain\libraries\lvgl\src\core/lv_obj_scroll.c **** 
 378:..\..\..\arduinoLCD\test\Pain Drain\libraries\lvgl\src\core/lv_obj_scroll.c **** void lv_obj_scroll_to_y(lv_obj_t * obj, lv_coord_t y, lv_anim_enable_t anim_en)
 379:..\..\..\arduinoLCD\test\Pain Drain\libraries\lvgl\src\core/lv_obj_scroll.c **** {
 380:..\..\..\arduinoLCD\test\Pain Drain\libraries\lvgl\src\core/lv_obj_scroll.c ****     lv_anim_del(obj, scroll_y_anim);
 381:..\..\..\arduinoLCD\test\Pain Drain\libraries\lvgl\src\core/lv_obj_scroll.c **** 
 382:..\..\..\arduinoLCD\test\Pain Drain\libraries\lvgl\src\core/lv_obj_scroll.c ****     lv_coord_t scroll_y = lv_obj_get_scroll_y(obj);
 383:..\..\..\arduinoLCD\test\Pain Drain\libraries\lvgl\src\core/lv_obj_scroll.c ****     lv_coord_t diff = -y + scroll_y;
 384:..\..\..\arduinoLCD\test\Pain Drain\libraries\lvgl\src\core/lv_obj_scroll.c **** 
 385:..\..\..\arduinoLCD\test\Pain Drain\libraries\lvgl\src\core/lv_obj_scroll.c ****     lv_obj_scroll_by_bounded(obj, 0, diff, anim_en);
 386:..\..\..\arduinoLCD\test\Pain Drain\libraries\lvgl\src\core/lv_obj_scroll.c **** }
 387:..\..\..\arduinoLCD\test\Pain Drain\libraries\lvgl\src\core/lv_obj_scroll.c **** 
 388:..\..\..\arduinoLCD\test\Pain Drain\libraries\lvgl\src\core/lv_obj_scroll.c **** void lv_obj_scroll_to_view(lv_obj_t * obj, lv_anim_enable_t anim_en)
 389:..\..\..\arduinoLCD\test\Pain Drain\libraries\lvgl\src\core/lv_obj_scroll.c **** {
 390:..\..\..\arduinoLCD\test\Pain Drain\libraries\lvgl\src\core/lv_obj_scroll.c ****     /*Be sure the screens layout is correct*/
 391:..\..\..\arduinoLCD\test\Pain Drain\libraries\lvgl\src\core/lv_obj_scroll.c ****     lv_obj_update_layout(obj);
 392:..\..\..\arduinoLCD\test\Pain Drain\libraries\lvgl\src\core/lv_obj_scroll.c **** 
 393:..\..\..\arduinoLCD\test\Pain Drain\libraries\lvgl\src\core/lv_obj_scroll.c ****     lv_point_t p = {0, 0};
 394:..\..\..\arduinoLCD\test\Pain Drain\libraries\lvgl\src\core/lv_obj_scroll.c ****     scroll_area_into_view(&obj->coords, obj, &p, anim_en);
 395:..\..\..\arduinoLCD\test\Pain Drain\libraries\lvgl\src\core/lv_obj_scroll.c **** }
 396:..\..\..\arduinoLCD\test\Pain Drain\libraries\lvgl\src\core/lv_obj_scroll.c **** 
 397:..\..\..\arduinoLCD\test\Pain Drain\libraries\lvgl\src\core/lv_obj_scroll.c **** void lv_obj_scroll_to_view_recursive(lv_obj_t * obj, lv_anim_enable_t anim_en)
 398:..\..\..\arduinoLCD\test\Pain Drain\libraries\lvgl\src\core/lv_obj_scroll.c **** {
 399:..\..\..\arduinoLCD\test\Pain Drain\libraries\lvgl\src\core/lv_obj_scroll.c ****     /*Be sure the screens layout is correct*/
 400:..\..\..\arduinoLCD\test\Pain Drain\libraries\lvgl\src\core/lv_obj_scroll.c ****     lv_obj_update_layout(obj);
 401:..\..\..\arduinoLCD\test\Pain Drain\libraries\lvgl\src\core/lv_obj_scroll.c **** 
 402:..\..\..\arduinoLCD\test\Pain Drain\libraries\lvgl\src\core/lv_obj_scroll.c ****     lv_point_t p = {0, 0};
 403:..\..\..\arduinoLCD\test\Pain Drain\libraries\lvgl\src\core/lv_obj_scroll.c ****     lv_obj_t * child = obj;
 404:..\..\..\arduinoLCD\test\Pain Drain\libraries\lvgl\src\core/lv_obj_scroll.c ****     lv_obj_t * parent = lv_obj_get_parent(child);
 405:..\..\..\arduinoLCD\test\Pain Drain\libraries\lvgl\src\core/lv_obj_scroll.c ****     while(parent) {
 406:..\..\..\arduinoLCD\test\Pain Drain\libraries\lvgl\src\core/lv_obj_scroll.c ****         scroll_area_into_view(&obj->coords, child, &p, anim_en);
 407:..\..\..\arduinoLCD\test\Pain Drain\libraries\lvgl\src\core/lv_obj_scroll.c ****         child = parent;
 408:..\..\..\arduinoLCD\test\Pain Drain\libraries\lvgl\src\core/lv_obj_scroll.c ****         parent = lv_obj_get_parent(parent);
 409:..\..\..\arduinoLCD\test\Pain Drain\libraries\lvgl\src\core/lv_obj_scroll.c ****     }
 410:..\..\..\arduinoLCD\test\Pain Drain\libraries\lvgl\src\core/lv_obj_scroll.c **** }
 411:..\..\..\arduinoLCD\test\Pain Drain\libraries\lvgl\src\core/lv_obj_scroll.c **** 
 412:..\..\..\arduinoLCD\test\Pain Drain\libraries\lvgl\src\core/lv_obj_scroll.c **** lv_res_t _lv_obj_scroll_by_raw(lv_obj_t * obj, lv_coord_t x, lv_coord_t y)
 413:..\..\..\arduinoLCD\test\Pain Drain\libraries\lvgl\src\core/lv_obj_scroll.c **** {
 414:..\..\..\arduinoLCD\test\Pain Drain\libraries\lvgl\src\core/lv_obj_scroll.c ****     if(x == 0 && y == 0) return LV_RES_OK;
 415:..\..\..\arduinoLCD\test\Pain Drain\libraries\lvgl\src\core/lv_obj_scroll.c **** 
 416:..\..\..\arduinoLCD\test\Pain Drain\libraries\lvgl\src\core/lv_obj_scroll.c ****     lv_obj_allocate_spec_attr(obj);
 417:..\..\..\arduinoLCD\test\Pain Drain\libraries\lvgl\src\core/lv_obj_scroll.c **** 
 418:..\..\..\arduinoLCD\test\Pain Drain\libraries\lvgl\src\core/lv_obj_scroll.c ****     obj->spec_attr->scroll.x += x;
 419:..\..\..\arduinoLCD\test\Pain Drain\libraries\lvgl\src\core/lv_obj_scroll.c ****     obj->spec_attr->scroll.y += y;
 420:..\..\..\arduinoLCD\test\Pain Drain\libraries\lvgl\src\core/lv_obj_scroll.c **** 
 421:..\..\..\arduinoLCD\test\Pain Drain\libraries\lvgl\src\core/lv_obj_scroll.c ****     lv_obj_move_children_by(obj, x, y, true);
 422:..\..\..\arduinoLCD\test\Pain Drain\libraries\lvgl\src\core/lv_obj_scroll.c ****     lv_res_t res = lv_event_send(obj, LV_EVENT_SCROLL, NULL);
 423:..\..\..\arduinoLCD\test\Pain Drain\libraries\lvgl\src\core/lv_obj_scroll.c ****     if(res != LV_RES_OK) return res;
 424:..\..\..\arduinoLCD\test\Pain Drain\libraries\lvgl\src\core/lv_obj_scroll.c ****     lv_obj_invalidate(obj);
 425:..\..\..\arduinoLCD\test\Pain Drain\libraries\lvgl\src\core/lv_obj_scroll.c ****     return LV_RES_OK;
 426:..\..\..\arduinoLCD\test\Pain Drain\libraries\lvgl\src\core/lv_obj_scroll.c **** }
 427:..\..\..\arduinoLCD\test\Pain Drain\libraries\lvgl\src\core/lv_obj_scroll.c **** 
 428:..\..\..\arduinoLCD\test\Pain Drain\libraries\lvgl\src\core/lv_obj_scroll.c **** 
 429:..\..\..\arduinoLCD\test\Pain Drain\libraries\lvgl\src\core/lv_obj_scroll.c **** bool lv_obj_is_scrolling(const lv_obj_t * obj)
ARM GAS  C:\Users\haske\AppData\Local\Temp\cc2IOi1w.s 			page 9


 430:..\..\..\arduinoLCD\test\Pain Drain\libraries\lvgl\src\core/lv_obj_scroll.c **** {
 431:..\..\..\arduinoLCD\test\Pain Drain\libraries\lvgl\src\core/lv_obj_scroll.c ****     lv_indev_t * indev = lv_indev_get_next(NULL);
 432:..\..\..\arduinoLCD\test\Pain Drain\libraries\lvgl\src\core/lv_obj_scroll.c ****     while(indev) {
 433:..\..\..\arduinoLCD\test\Pain Drain\libraries\lvgl\src\core/lv_obj_scroll.c ****         if(lv_indev_get_scroll_obj(indev) == obj) return true;
 434:..\..\..\arduinoLCD\test\Pain Drain\libraries\lvgl\src\core/lv_obj_scroll.c ****         indev = lv_indev_get_next(indev);
 435:..\..\..\arduinoLCD\test\Pain Drain\libraries\lvgl\src\core/lv_obj_scroll.c ****     }
 436:..\..\..\arduinoLCD\test\Pain Drain\libraries\lvgl\src\core/lv_obj_scroll.c **** 
 437:..\..\..\arduinoLCD\test\Pain Drain\libraries\lvgl\src\core/lv_obj_scroll.c ****     return false;
 438:..\..\..\arduinoLCD\test\Pain Drain\libraries\lvgl\src\core/lv_obj_scroll.c **** }
 439:..\..\..\arduinoLCD\test\Pain Drain\libraries\lvgl\src\core/lv_obj_scroll.c **** 
 440:..\..\..\arduinoLCD\test\Pain Drain\libraries\lvgl\src\core/lv_obj_scroll.c **** void lv_obj_update_snap(lv_obj_t * obj, lv_anim_enable_t anim_en)
 441:..\..\..\arduinoLCD\test\Pain Drain\libraries\lvgl\src\core/lv_obj_scroll.c **** {
 442:..\..\..\arduinoLCD\test\Pain Drain\libraries\lvgl\src\core/lv_obj_scroll.c ****     lv_obj_update_layout(obj);
 443:..\..\..\arduinoLCD\test\Pain Drain\libraries\lvgl\src\core/lv_obj_scroll.c ****     lv_point_t p;
 444:..\..\..\arduinoLCD\test\Pain Drain\libraries\lvgl\src\core/lv_obj_scroll.c ****     lv_indev_scroll_get_snap_dist(obj, &p);
 445:..\..\..\arduinoLCD\test\Pain Drain\libraries\lvgl\src\core/lv_obj_scroll.c ****     lv_obj_scroll_by(obj, p.x, p.y, anim_en);
 446:..\..\..\arduinoLCD\test\Pain Drain\libraries\lvgl\src\core/lv_obj_scroll.c **** }
 447:..\..\..\arduinoLCD\test\Pain Drain\libraries\lvgl\src\core/lv_obj_scroll.c **** 
 448:..\..\..\arduinoLCD\test\Pain Drain\libraries\lvgl\src\core/lv_obj_scroll.c **** void lv_obj_get_scrollbar_area(lv_obj_t * obj, lv_area_t * hor_area, lv_area_t * ver_area)
 449:..\..\..\arduinoLCD\test\Pain Drain\libraries\lvgl\src\core/lv_obj_scroll.c **** {
 450:..\..\..\arduinoLCD\test\Pain Drain\libraries\lvgl\src\core/lv_obj_scroll.c ****     lv_area_set(hor_area, 0, 0, -1, -1);
 451:..\..\..\arduinoLCD\test\Pain Drain\libraries\lvgl\src\core/lv_obj_scroll.c ****     lv_area_set(ver_area, 0, 0, -1, -1);
 452:..\..\..\arduinoLCD\test\Pain Drain\libraries\lvgl\src\core/lv_obj_scroll.c **** 
 453:..\..\..\arduinoLCD\test\Pain Drain\libraries\lvgl\src\core/lv_obj_scroll.c ****     if(lv_obj_has_flag(obj, LV_OBJ_FLAG_SCROLLABLE) == false) return;
 454:..\..\..\arduinoLCD\test\Pain Drain\libraries\lvgl\src\core/lv_obj_scroll.c **** 
 455:..\..\..\arduinoLCD\test\Pain Drain\libraries\lvgl\src\core/lv_obj_scroll.c ****     lv_dir_t sm = lv_obj_get_scrollbar_mode(obj);
 456:..\..\..\arduinoLCD\test\Pain Drain\libraries\lvgl\src\core/lv_obj_scroll.c ****     if(sm == LV_SCROLLBAR_MODE_OFF)  return;
 457:..\..\..\arduinoLCD\test\Pain Drain\libraries\lvgl\src\core/lv_obj_scroll.c **** 
 458:..\..\..\arduinoLCD\test\Pain Drain\libraries\lvgl\src\core/lv_obj_scroll.c ****     /*If there is no indev scrolling this object but `mode==active` return*/
 459:..\..\..\arduinoLCD\test\Pain Drain\libraries\lvgl\src\core/lv_obj_scroll.c ****     lv_indev_t * indev = lv_indev_get_next(NULL);
 460:..\..\..\arduinoLCD\test\Pain Drain\libraries\lvgl\src\core/lv_obj_scroll.c ****     if(sm == LV_SCROLLBAR_MODE_ACTIVE) {
 461:..\..\..\arduinoLCD\test\Pain Drain\libraries\lvgl\src\core/lv_obj_scroll.c ****         while(indev) {
 462:..\..\..\arduinoLCD\test\Pain Drain\libraries\lvgl\src\core/lv_obj_scroll.c ****             if(lv_indev_get_scroll_obj(indev) == obj) break;
 463:..\..\..\arduinoLCD\test\Pain Drain\libraries\lvgl\src\core/lv_obj_scroll.c ****             indev = lv_indev_get_next(indev);
 464:..\..\..\arduinoLCD\test\Pain Drain\libraries\lvgl\src\core/lv_obj_scroll.c ****         }
 465:..\..\..\arduinoLCD\test\Pain Drain\libraries\lvgl\src\core/lv_obj_scroll.c ****         if(indev == NULL)  return;
 466:..\..\..\arduinoLCD\test\Pain Drain\libraries\lvgl\src\core/lv_obj_scroll.c ****     }
 467:..\..\..\arduinoLCD\test\Pain Drain\libraries\lvgl\src\core/lv_obj_scroll.c **** 
 468:..\..\..\arduinoLCD\test\Pain Drain\libraries\lvgl\src\core/lv_obj_scroll.c ****     lv_coord_t st = lv_obj_get_scroll_top(obj);
 469:..\..\..\arduinoLCD\test\Pain Drain\libraries\lvgl\src\core/lv_obj_scroll.c ****     lv_coord_t sb = lv_obj_get_scroll_bottom(obj);
 470:..\..\..\arduinoLCD\test\Pain Drain\libraries\lvgl\src\core/lv_obj_scroll.c ****     lv_coord_t sl = lv_obj_get_scroll_left(obj);
 471:..\..\..\arduinoLCD\test\Pain Drain\libraries\lvgl\src\core/lv_obj_scroll.c ****     lv_coord_t sr = lv_obj_get_scroll_right(obj);
 472:..\..\..\arduinoLCD\test\Pain Drain\libraries\lvgl\src\core/lv_obj_scroll.c **** 
 473:..\..\..\arduinoLCD\test\Pain Drain\libraries\lvgl\src\core/lv_obj_scroll.c ****     lv_dir_t dir = lv_obj_get_scroll_dir(obj);
 474:..\..\..\arduinoLCD\test\Pain Drain\libraries\lvgl\src\core/lv_obj_scroll.c **** 
 475:..\..\..\arduinoLCD\test\Pain Drain\libraries\lvgl\src\core/lv_obj_scroll.c ****     bool ver_draw = false;
 476:..\..\..\arduinoLCD\test\Pain Drain\libraries\lvgl\src\core/lv_obj_scroll.c ****     if((dir & LV_DIR_VER) &&
 477:..\..\..\arduinoLCD\test\Pain Drain\libraries\lvgl\src\core/lv_obj_scroll.c ****        ((sm == LV_SCROLLBAR_MODE_ON) ||
 478:..\..\..\arduinoLCD\test\Pain Drain\libraries\lvgl\src\core/lv_obj_scroll.c ****         (sm == LV_SCROLLBAR_MODE_AUTO && (st > 0 || sb > 0)) ||
 479:..\..\..\arduinoLCD\test\Pain Drain\libraries\lvgl\src\core/lv_obj_scroll.c ****         (sm == LV_SCROLLBAR_MODE_ACTIVE && lv_indev_get_scroll_dir(indev) == LV_DIR_VER))) {
 480:..\..\..\arduinoLCD\test\Pain Drain\libraries\lvgl\src\core/lv_obj_scroll.c ****         ver_draw = true;
 481:..\..\..\arduinoLCD\test\Pain Drain\libraries\lvgl\src\core/lv_obj_scroll.c ****     }
 482:..\..\..\arduinoLCD\test\Pain Drain\libraries\lvgl\src\core/lv_obj_scroll.c **** 
 483:..\..\..\arduinoLCD\test\Pain Drain\libraries\lvgl\src\core/lv_obj_scroll.c **** 
 484:..\..\..\arduinoLCD\test\Pain Drain\libraries\lvgl\src\core/lv_obj_scroll.c ****     bool hor_draw = false;
 485:..\..\..\arduinoLCD\test\Pain Drain\libraries\lvgl\src\core/lv_obj_scroll.c ****     if((dir & LV_DIR_HOR) &&
 486:..\..\..\arduinoLCD\test\Pain Drain\libraries\lvgl\src\core/lv_obj_scroll.c ****        ((sm == LV_SCROLLBAR_MODE_ON) ||
ARM GAS  C:\Users\haske\AppData\Local\Temp\cc2IOi1w.s 			page 10


 487:..\..\..\arduinoLCD\test\Pain Drain\libraries\lvgl\src\core/lv_obj_scroll.c ****         (sm == LV_SCROLLBAR_MODE_AUTO && (sl > 0 || sr > 0)) ||
 488:..\..\..\arduinoLCD\test\Pain Drain\libraries\lvgl\src\core/lv_obj_scroll.c ****         (sm == LV_SCROLLBAR_MODE_ACTIVE && lv_indev_get_scroll_dir(indev) == LV_DIR_HOR))) {
 489:..\..\..\arduinoLCD\test\Pain Drain\libraries\lvgl\src\core/lv_obj_scroll.c ****         hor_draw = true;
 490:..\..\..\arduinoLCD\test\Pain Drain\libraries\lvgl\src\core/lv_obj_scroll.c ****     }
 491:..\..\..\arduinoLCD\test\Pain Drain\libraries\lvgl\src\core/lv_obj_scroll.c **** 
 492:..\..\..\arduinoLCD\test\Pain Drain\libraries\lvgl\src\core/lv_obj_scroll.c ****     if(!hor_draw && !ver_draw) return;
 493:..\..\..\arduinoLCD\test\Pain Drain\libraries\lvgl\src\core/lv_obj_scroll.c **** 
 494:..\..\..\arduinoLCD\test\Pain Drain\libraries\lvgl\src\core/lv_obj_scroll.c ****     bool rtl = lv_obj_get_style_base_dir(obj, LV_PART_SCROLLBAR) == LV_BASE_DIR_RTL ? true : false;
 495:..\..\..\arduinoLCD\test\Pain Drain\libraries\lvgl\src\core/lv_obj_scroll.c **** 
 496:..\..\..\arduinoLCD\test\Pain Drain\libraries\lvgl\src\core/lv_obj_scroll.c ****     lv_coord_t top_space = lv_obj_get_style_pad_top(obj, LV_PART_SCROLLBAR);
 497:..\..\..\arduinoLCD\test\Pain Drain\libraries\lvgl\src\core/lv_obj_scroll.c ****     lv_coord_t bottom_space = lv_obj_get_style_pad_bottom(obj, LV_PART_SCROLLBAR);
 498:..\..\..\arduinoLCD\test\Pain Drain\libraries\lvgl\src\core/lv_obj_scroll.c ****     lv_coord_t left_space = lv_obj_get_style_pad_left(obj, LV_PART_SCROLLBAR);
 499:..\..\..\arduinoLCD\test\Pain Drain\libraries\lvgl\src\core/lv_obj_scroll.c ****     lv_coord_t right_space = lv_obj_get_style_pad_right(obj, LV_PART_SCROLLBAR);
 500:..\..\..\arduinoLCD\test\Pain Drain\libraries\lvgl\src\core/lv_obj_scroll.c ****     lv_coord_t tickness = lv_obj_get_style_width(obj, LV_PART_SCROLLBAR);
 501:..\..\..\arduinoLCD\test\Pain Drain\libraries\lvgl\src\core/lv_obj_scroll.c **** 
 502:..\..\..\arduinoLCD\test\Pain Drain\libraries\lvgl\src\core/lv_obj_scroll.c ****     lv_coord_t obj_h = lv_obj_get_height(obj);
 503:..\..\..\arduinoLCD\test\Pain Drain\libraries\lvgl\src\core/lv_obj_scroll.c ****     lv_coord_t obj_w = lv_obj_get_width(obj);
 504:..\..\..\arduinoLCD\test\Pain Drain\libraries\lvgl\src\core/lv_obj_scroll.c **** 
 505:..\..\..\arduinoLCD\test\Pain Drain\libraries\lvgl\src\core/lv_obj_scroll.c ****     /*Space required for the vertical and horizontal scrollbars*/
 506:..\..\..\arduinoLCD\test\Pain Drain\libraries\lvgl\src\core/lv_obj_scroll.c ****     lv_coord_t ver_reg_space = ver_draw ? tickness : 0;
 507:..\..\..\arduinoLCD\test\Pain Drain\libraries\lvgl\src\core/lv_obj_scroll.c ****     lv_coord_t hor_req_space = hor_draw ? tickness : 0;
 508:..\..\..\arduinoLCD\test\Pain Drain\libraries\lvgl\src\core/lv_obj_scroll.c ****     lv_coord_t rem;
 509:..\..\..\arduinoLCD\test\Pain Drain\libraries\lvgl\src\core/lv_obj_scroll.c **** 
 510:..\..\..\arduinoLCD\test\Pain Drain\libraries\lvgl\src\core/lv_obj_scroll.c ****     if(lv_obj_get_style_bg_opa(obj, LV_PART_SCROLLBAR) < LV_OPA_MIN &&
 511:..\..\..\arduinoLCD\test\Pain Drain\libraries\lvgl\src\core/lv_obj_scroll.c ****        lv_obj_get_style_border_opa(obj, LV_PART_SCROLLBAR) < LV_OPA_MIN) {
 512:..\..\..\arduinoLCD\test\Pain Drain\libraries\lvgl\src\core/lv_obj_scroll.c ****         return;
 513:..\..\..\arduinoLCD\test\Pain Drain\libraries\lvgl\src\core/lv_obj_scroll.c ****     }
 514:..\..\..\arduinoLCD\test\Pain Drain\libraries\lvgl\src\core/lv_obj_scroll.c **** 
 515:..\..\..\arduinoLCD\test\Pain Drain\libraries\lvgl\src\core/lv_obj_scroll.c ****     /*Draw vertical scrollbar if the mode is ON or can be scrolled in this direction*/
 516:..\..\..\arduinoLCD\test\Pain Drain\libraries\lvgl\src\core/lv_obj_scroll.c ****     lv_coord_t content_h = obj_h + st + sb;
 517:..\..\..\arduinoLCD\test\Pain Drain\libraries\lvgl\src\core/lv_obj_scroll.c ****     if(ver_draw && content_h) {
 518:..\..\..\arduinoLCD\test\Pain Drain\libraries\lvgl\src\core/lv_obj_scroll.c ****         ver_area->y1 = obj->coords.y1;
 519:..\..\..\arduinoLCD\test\Pain Drain\libraries\lvgl\src\core/lv_obj_scroll.c ****         ver_area->y2 = obj->coords.y2;
 520:..\..\..\arduinoLCD\test\Pain Drain\libraries\lvgl\src\core/lv_obj_scroll.c ****         if(rtl) {
 521:..\..\..\arduinoLCD\test\Pain Drain\libraries\lvgl\src\core/lv_obj_scroll.c ****             ver_area->x1 = obj->coords.x1 + left_space;
 522:..\..\..\arduinoLCD\test\Pain Drain\libraries\lvgl\src\core/lv_obj_scroll.c ****             ver_area->x2 = ver_area->x1 + tickness - 1;
 523:..\..\..\arduinoLCD\test\Pain Drain\libraries\lvgl\src\core/lv_obj_scroll.c ****         }
 524:..\..\..\arduinoLCD\test\Pain Drain\libraries\lvgl\src\core/lv_obj_scroll.c ****         else {
 525:..\..\..\arduinoLCD\test\Pain Drain\libraries\lvgl\src\core/lv_obj_scroll.c ****             ver_area->x2 = obj->coords.x2 - right_space;
 526:..\..\..\arduinoLCD\test\Pain Drain\libraries\lvgl\src\core/lv_obj_scroll.c ****             ver_area->x1 = ver_area->x2 - tickness + 1;
 527:..\..\..\arduinoLCD\test\Pain Drain\libraries\lvgl\src\core/lv_obj_scroll.c ****         }
 528:..\..\..\arduinoLCD\test\Pain Drain\libraries\lvgl\src\core/lv_obj_scroll.c **** 
 529:..\..\..\arduinoLCD\test\Pain Drain\libraries\lvgl\src\core/lv_obj_scroll.c ****         lv_coord_t sb_h = ((obj_h - top_space - bottom_space - hor_req_space) * obj_h) / content_h;
 530:..\..\..\arduinoLCD\test\Pain Drain\libraries\lvgl\src\core/lv_obj_scroll.c ****         sb_h = LV_MAX(sb_h, SCROLLBAR_MIN_SIZE);
 531:..\..\..\arduinoLCD\test\Pain Drain\libraries\lvgl\src\core/lv_obj_scroll.c ****         rem = (obj_h - top_space - bottom_space - hor_req_space) -
 532:..\..\..\arduinoLCD\test\Pain Drain\libraries\lvgl\src\core/lv_obj_scroll.c ****               sb_h;  /*Remaining size from the scrollbar track that is not the scrollbar itself*/
 533:..\..\..\arduinoLCD\test\Pain Drain\libraries\lvgl\src\core/lv_obj_scroll.c ****         lv_coord_t scroll_h = content_h - obj_h; /*The size of the content which can be really scro
 534:..\..\..\arduinoLCD\test\Pain Drain\libraries\lvgl\src\core/lv_obj_scroll.c ****         if(scroll_h <= 0) {
 535:..\..\..\arduinoLCD\test\Pain Drain\libraries\lvgl\src\core/lv_obj_scroll.c ****             ver_area->y1 = obj->coords.y1 + top_space;
 536:..\..\..\arduinoLCD\test\Pain Drain\libraries\lvgl\src\core/lv_obj_scroll.c ****             ver_area->y2 = obj->coords.y2 - bottom_space - hor_req_space - 1;
 537:..\..\..\arduinoLCD\test\Pain Drain\libraries\lvgl\src\core/lv_obj_scroll.c ****         }
 538:..\..\..\arduinoLCD\test\Pain Drain\libraries\lvgl\src\core/lv_obj_scroll.c ****         else {
 539:..\..\..\arduinoLCD\test\Pain Drain\libraries\lvgl\src\core/lv_obj_scroll.c ****             lv_coord_t sb_y = (rem * sb) / scroll_h;
 540:..\..\..\arduinoLCD\test\Pain Drain\libraries\lvgl\src\core/lv_obj_scroll.c ****             sb_y = rem - sb_y;
 541:..\..\..\arduinoLCD\test\Pain Drain\libraries\lvgl\src\core/lv_obj_scroll.c **** 
 542:..\..\..\arduinoLCD\test\Pain Drain\libraries\lvgl\src\core/lv_obj_scroll.c ****             ver_area->y1 = obj->coords.y1 + sb_y + top_space;
 543:..\..\..\arduinoLCD\test\Pain Drain\libraries\lvgl\src\core/lv_obj_scroll.c ****             ver_area->y2 = ver_area->y1 + sb_h - 1;
ARM GAS  C:\Users\haske\AppData\Local\Temp\cc2IOi1w.s 			page 11


 544:..\..\..\arduinoLCD\test\Pain Drain\libraries\lvgl\src\core/lv_obj_scroll.c ****             if(ver_area->y1 < obj->coords.y1 + top_space) {
 545:..\..\..\arduinoLCD\test\Pain Drain\libraries\lvgl\src\core/lv_obj_scroll.c ****                 ver_area->y1 = obj->coords.y1 + top_space;
 546:..\..\..\arduinoLCD\test\Pain Drain\libraries\lvgl\src\core/lv_obj_scroll.c ****                 if(ver_area->y1 + SCROLLBAR_MIN_SIZE > ver_area->y2) {
 547:..\..\..\arduinoLCD\test\Pain Drain\libraries\lvgl\src\core/lv_obj_scroll.c ****                     ver_area->y2 = ver_area->y1 + SCROLLBAR_MIN_SIZE;
 548:..\..\..\arduinoLCD\test\Pain Drain\libraries\lvgl\src\core/lv_obj_scroll.c ****                 }
 549:..\..\..\arduinoLCD\test\Pain Drain\libraries\lvgl\src\core/lv_obj_scroll.c ****             }
 550:..\..\..\arduinoLCD\test\Pain Drain\libraries\lvgl\src\core/lv_obj_scroll.c ****             if(ver_area->y2 > obj->coords.y2 - hor_req_space - bottom_space) {
 551:..\..\..\arduinoLCD\test\Pain Drain\libraries\lvgl\src\core/lv_obj_scroll.c ****                 ver_area->y2 = obj->coords.y2 - hor_req_space - bottom_space;
 552:..\..\..\arduinoLCD\test\Pain Drain\libraries\lvgl\src\core/lv_obj_scroll.c ****                 if(ver_area->y2 - SCROLLBAR_MIN_SIZE < ver_area->y1) {
 553:..\..\..\arduinoLCD\test\Pain Drain\libraries\lvgl\src\core/lv_obj_scroll.c ****                     ver_area->y1 = ver_area->y2 - SCROLLBAR_MIN_SIZE;
 554:..\..\..\arduinoLCD\test\Pain Drain\libraries\lvgl\src\core/lv_obj_scroll.c ****                 }
 555:..\..\..\arduinoLCD\test\Pain Drain\libraries\lvgl\src\core/lv_obj_scroll.c ****             }
 556:..\..\..\arduinoLCD\test\Pain Drain\libraries\lvgl\src\core/lv_obj_scroll.c ****         }
 557:..\..\..\arduinoLCD\test\Pain Drain\libraries\lvgl\src\core/lv_obj_scroll.c ****     }
 558:..\..\..\arduinoLCD\test\Pain Drain\libraries\lvgl\src\core/lv_obj_scroll.c **** 
 559:..\..\..\arduinoLCD\test\Pain Drain\libraries\lvgl\src\core/lv_obj_scroll.c ****     /*Draw horizontal scrollbar if the mode is ON or can be scrolled in this direction*/
 560:..\..\..\arduinoLCD\test\Pain Drain\libraries\lvgl\src\core/lv_obj_scroll.c ****     lv_coord_t content_w = obj_w + sl + sr;
 561:..\..\..\arduinoLCD\test\Pain Drain\libraries\lvgl\src\core/lv_obj_scroll.c ****     if(hor_draw && content_w) {
 562:..\..\..\arduinoLCD\test\Pain Drain\libraries\lvgl\src\core/lv_obj_scroll.c ****         hor_area->y2 = obj->coords.y2 - bottom_space;
 563:..\..\..\arduinoLCD\test\Pain Drain\libraries\lvgl\src\core/lv_obj_scroll.c ****         hor_area->y1 = hor_area->y2 - tickness + 1;
 564:..\..\..\arduinoLCD\test\Pain Drain\libraries\lvgl\src\core/lv_obj_scroll.c ****         hor_area->x1 = obj->coords.x1;
 565:..\..\..\arduinoLCD\test\Pain Drain\libraries\lvgl\src\core/lv_obj_scroll.c ****         hor_area->x2 = obj->coords.x2;
 566:..\..\..\arduinoLCD\test\Pain Drain\libraries\lvgl\src\core/lv_obj_scroll.c **** 
 567:..\..\..\arduinoLCD\test\Pain Drain\libraries\lvgl\src\core/lv_obj_scroll.c ****         lv_coord_t sb_w = ((obj_w - left_space - right_space - ver_reg_space) * obj_w) / content_w;
 568:..\..\..\arduinoLCD\test\Pain Drain\libraries\lvgl\src\core/lv_obj_scroll.c ****         sb_w = LV_MAX(sb_w, SCROLLBAR_MIN_SIZE);
 569:..\..\..\arduinoLCD\test\Pain Drain\libraries\lvgl\src\core/lv_obj_scroll.c ****         rem = (obj_w - left_space - right_space - ver_reg_space) -
 570:..\..\..\arduinoLCD\test\Pain Drain\libraries\lvgl\src\core/lv_obj_scroll.c ****               sb_w;  /*Remaining size from the scrollbar track that is not the scrollbar itself*/
 571:..\..\..\arduinoLCD\test\Pain Drain\libraries\lvgl\src\core/lv_obj_scroll.c ****         lv_coord_t scroll_w = content_w - obj_w; /*The size of the content which can be really scro
 572:..\..\..\arduinoLCD\test\Pain Drain\libraries\lvgl\src\core/lv_obj_scroll.c ****         if(scroll_w <= 0) {
 573:..\..\..\arduinoLCD\test\Pain Drain\libraries\lvgl\src\core/lv_obj_scroll.c ****             if(rtl) {
 574:..\..\..\arduinoLCD\test\Pain Drain\libraries\lvgl\src\core/lv_obj_scroll.c ****                 hor_area->x1 = obj->coords.x1 + left_space + ver_reg_space - 1;
 575:..\..\..\arduinoLCD\test\Pain Drain\libraries\lvgl\src\core/lv_obj_scroll.c ****                 hor_area->x2 = obj->coords.x2 - right_space;
 576:..\..\..\arduinoLCD\test\Pain Drain\libraries\lvgl\src\core/lv_obj_scroll.c ****             }
 577:..\..\..\arduinoLCD\test\Pain Drain\libraries\lvgl\src\core/lv_obj_scroll.c ****             else {
 578:..\..\..\arduinoLCD\test\Pain Drain\libraries\lvgl\src\core/lv_obj_scroll.c ****                 hor_area->x1 = obj->coords.x1 + left_space;
 579:..\..\..\arduinoLCD\test\Pain Drain\libraries\lvgl\src\core/lv_obj_scroll.c ****                 hor_area->x2 = obj->coords.x2 - right_space - ver_reg_space - 1;
 580:..\..\..\arduinoLCD\test\Pain Drain\libraries\lvgl\src\core/lv_obj_scroll.c ****             }
 581:..\..\..\arduinoLCD\test\Pain Drain\libraries\lvgl\src\core/lv_obj_scroll.c ****         }
 582:..\..\..\arduinoLCD\test\Pain Drain\libraries\lvgl\src\core/lv_obj_scroll.c ****         else {
 583:..\..\..\arduinoLCD\test\Pain Drain\libraries\lvgl\src\core/lv_obj_scroll.c ****             lv_coord_t sb_x = (rem * sr) / scroll_w;
 584:..\..\..\arduinoLCD\test\Pain Drain\libraries\lvgl\src\core/lv_obj_scroll.c ****             sb_x = rem - sb_x;
 585:..\..\..\arduinoLCD\test\Pain Drain\libraries\lvgl\src\core/lv_obj_scroll.c **** 
 586:..\..\..\arduinoLCD\test\Pain Drain\libraries\lvgl\src\core/lv_obj_scroll.c ****             if(rtl) {
 587:..\..\..\arduinoLCD\test\Pain Drain\libraries\lvgl\src\core/lv_obj_scroll.c ****                 hor_area->x1 = obj->coords.x1 + sb_x + left_space + ver_reg_space;
 588:..\..\..\arduinoLCD\test\Pain Drain\libraries\lvgl\src\core/lv_obj_scroll.c ****                 hor_area->x2 = hor_area->x1 + sb_w - 1;
 589:..\..\..\arduinoLCD\test\Pain Drain\libraries\lvgl\src\core/lv_obj_scroll.c ****                 if(hor_area->x1 < obj->coords.x1 + left_space + ver_reg_space) {
 590:..\..\..\arduinoLCD\test\Pain Drain\libraries\lvgl\src\core/lv_obj_scroll.c ****                     hor_area->x1 = obj->coords.x1 + left_space + ver_reg_space;
 591:..\..\..\arduinoLCD\test\Pain Drain\libraries\lvgl\src\core/lv_obj_scroll.c ****                     if(hor_area->x1 + SCROLLBAR_MIN_SIZE > hor_area->x2) {
 592:..\..\..\arduinoLCD\test\Pain Drain\libraries\lvgl\src\core/lv_obj_scroll.c ****                         hor_area->x2 = hor_area->x1 + SCROLLBAR_MIN_SIZE;
 593:..\..\..\arduinoLCD\test\Pain Drain\libraries\lvgl\src\core/lv_obj_scroll.c ****                     }
 594:..\..\..\arduinoLCD\test\Pain Drain\libraries\lvgl\src\core/lv_obj_scroll.c ****                 }
 595:..\..\..\arduinoLCD\test\Pain Drain\libraries\lvgl\src\core/lv_obj_scroll.c ****                 if(hor_area->x2 > obj->coords.x2 - right_space) {
 596:..\..\..\arduinoLCD\test\Pain Drain\libraries\lvgl\src\core/lv_obj_scroll.c ****                     hor_area->x2 = obj->coords.x2 - right_space;
 597:..\..\..\arduinoLCD\test\Pain Drain\libraries\lvgl\src\core/lv_obj_scroll.c ****                     if(hor_area->x2 - SCROLLBAR_MIN_SIZE < hor_area->x1) {
 598:..\..\..\arduinoLCD\test\Pain Drain\libraries\lvgl\src\core/lv_obj_scroll.c ****                         hor_area->x1 = hor_area->x2 - SCROLLBAR_MIN_SIZE;
 599:..\..\..\arduinoLCD\test\Pain Drain\libraries\lvgl\src\core/lv_obj_scroll.c ****                     }
 600:..\..\..\arduinoLCD\test\Pain Drain\libraries\lvgl\src\core/lv_obj_scroll.c ****                 }
ARM GAS  C:\Users\haske\AppData\Local\Temp\cc2IOi1w.s 			page 12


 601:..\..\..\arduinoLCD\test\Pain Drain\libraries\lvgl\src\core/lv_obj_scroll.c ****             }
 602:..\..\..\arduinoLCD\test\Pain Drain\libraries\lvgl\src\core/lv_obj_scroll.c ****             else {
 603:..\..\..\arduinoLCD\test\Pain Drain\libraries\lvgl\src\core/lv_obj_scroll.c ****                 hor_area->x1 = obj->coords.x1 + sb_x + left_space;
 604:..\..\..\arduinoLCD\test\Pain Drain\libraries\lvgl\src\core/lv_obj_scroll.c ****                 hor_area->x2 = hor_area->x1 + sb_w - 1;
 605:..\..\..\arduinoLCD\test\Pain Drain\libraries\lvgl\src\core/lv_obj_scroll.c ****                 if(hor_area->x1 < obj->coords.x1 + left_space) {
 606:..\..\..\arduinoLCD\test\Pain Drain\libraries\lvgl\src\core/lv_obj_scroll.c ****                     hor_area->x1 = obj->coords.x1 + left_space;
 607:..\..\..\arduinoLCD\test\Pain Drain\libraries\lvgl\src\core/lv_obj_scroll.c ****                     if(hor_area->x1 + SCROLLBAR_MIN_SIZE > hor_area->x2) {
 608:..\..\..\arduinoLCD\test\Pain Drain\libraries\lvgl\src\core/lv_obj_scroll.c ****                         hor_area->x2 = hor_area->x1 + SCROLLBAR_MIN_SIZE;
 609:..\..\..\arduinoLCD\test\Pain Drain\libraries\lvgl\src\core/lv_obj_scroll.c ****                     }
 610:..\..\..\arduinoLCD\test\Pain Drain\libraries\lvgl\src\core/lv_obj_scroll.c ****                 }
 611:..\..\..\arduinoLCD\test\Pain Drain\libraries\lvgl\src\core/lv_obj_scroll.c ****                 if(hor_area->x2 > obj->coords.x2 - ver_reg_space - right_space) {
 612:..\..\..\arduinoLCD\test\Pain Drain\libraries\lvgl\src\core/lv_obj_scroll.c ****                     hor_area->x2 = obj->coords.x2 - ver_reg_space - right_space;
 613:..\..\..\arduinoLCD\test\Pain Drain\libraries\lvgl\src\core/lv_obj_scroll.c ****                     if(hor_area->x2 - SCROLLBAR_MIN_SIZE < hor_area->x1) {
 614:..\..\..\arduinoLCD\test\Pain Drain\libraries\lvgl\src\core/lv_obj_scroll.c ****                         hor_area->x1 = hor_area->x2 - SCROLLBAR_MIN_SIZE;
 615:..\..\..\arduinoLCD\test\Pain Drain\libraries\lvgl\src\core/lv_obj_scroll.c ****                     }
 616:..\..\..\arduinoLCD\test\Pain Drain\libraries\lvgl\src\core/lv_obj_scroll.c ****                 }
 617:..\..\..\arduinoLCD\test\Pain Drain\libraries\lvgl\src\core/lv_obj_scroll.c ****             }
 618:..\..\..\arduinoLCD\test\Pain Drain\libraries\lvgl\src\core/lv_obj_scroll.c ****         }
 619:..\..\..\arduinoLCD\test\Pain Drain\libraries\lvgl\src\core/lv_obj_scroll.c ****     }
 620:..\..\..\arduinoLCD\test\Pain Drain\libraries\lvgl\src\core/lv_obj_scroll.c **** }
 621:..\..\..\arduinoLCD\test\Pain Drain\libraries\lvgl\src\core/lv_obj_scroll.c **** 
 622:..\..\..\arduinoLCD\test\Pain Drain\libraries\lvgl\src\core/lv_obj_scroll.c **** void lv_obj_scrollbar_invalidate(lv_obj_t * obj)
 623:..\..\..\arduinoLCD\test\Pain Drain\libraries\lvgl\src\core/lv_obj_scroll.c **** {
 624:..\..\..\arduinoLCD\test\Pain Drain\libraries\lvgl\src\core/lv_obj_scroll.c ****     lv_area_t hor_area;
 625:..\..\..\arduinoLCD\test\Pain Drain\libraries\lvgl\src\core/lv_obj_scroll.c ****     lv_area_t ver_area;
 626:..\..\..\arduinoLCD\test\Pain Drain\libraries\lvgl\src\core/lv_obj_scroll.c ****     lv_obj_get_scrollbar_area(obj, &hor_area, &ver_area);
 627:..\..\..\arduinoLCD\test\Pain Drain\libraries\lvgl\src\core/lv_obj_scroll.c **** 
 628:..\..\..\arduinoLCD\test\Pain Drain\libraries\lvgl\src\core/lv_obj_scroll.c ****     if(lv_area_get_size(&hor_area) <= 0 && lv_area_get_size(&ver_area) <= 0) return;
 629:..\..\..\arduinoLCD\test\Pain Drain\libraries\lvgl\src\core/lv_obj_scroll.c **** 
 630:..\..\..\arduinoLCD\test\Pain Drain\libraries\lvgl\src\core/lv_obj_scroll.c ****     if(lv_area_get_size(&hor_area) > 0) lv_obj_invalidate_area(obj, &hor_area);
 631:..\..\..\arduinoLCD\test\Pain Drain\libraries\lvgl\src\core/lv_obj_scroll.c ****     if(lv_area_get_size(&ver_area) > 0) lv_obj_invalidate_area(obj, &ver_area);
 632:..\..\..\arduinoLCD\test\Pain Drain\libraries\lvgl\src\core/lv_obj_scroll.c **** }
 633:..\..\..\arduinoLCD\test\Pain Drain\libraries\lvgl\src\core/lv_obj_scroll.c **** 
 634:..\..\..\arduinoLCD\test\Pain Drain\libraries\lvgl\src\core/lv_obj_scroll.c **** void lv_obj_readjust_scroll(lv_obj_t * obj, lv_anim_enable_t anim_en)
 635:..\..\..\arduinoLCD\test\Pain Drain\libraries\lvgl\src\core/lv_obj_scroll.c **** {
 636:..\..\..\arduinoLCD\test\Pain Drain\libraries\lvgl\src\core/lv_obj_scroll.c ****     /*Be sure the bottom side is not remains scrolled in*/
 637:..\..\..\arduinoLCD\test\Pain Drain\libraries\lvgl\src\core/lv_obj_scroll.c ****     /*With snapping the content can't be scrolled in*/
 638:..\..\..\arduinoLCD\test\Pain Drain\libraries\lvgl\src\core/lv_obj_scroll.c ****     if(lv_obj_get_scroll_snap_y(obj) == LV_SCROLL_SNAP_NONE) {
 639:..\..\..\arduinoLCD\test\Pain Drain\libraries\lvgl\src\core/lv_obj_scroll.c ****         lv_coord_t st = lv_obj_get_scroll_top(obj);
 640:..\..\..\arduinoLCD\test\Pain Drain\libraries\lvgl\src\core/lv_obj_scroll.c ****         lv_coord_t sb = lv_obj_get_scroll_bottom(obj);
 641:..\..\..\arduinoLCD\test\Pain Drain\libraries\lvgl\src\core/lv_obj_scroll.c ****         if(sb < 0 && st > 0) {
 642:..\..\..\arduinoLCD\test\Pain Drain\libraries\lvgl\src\core/lv_obj_scroll.c ****             sb = LV_MIN(st, -sb);
 643:..\..\..\arduinoLCD\test\Pain Drain\libraries\lvgl\src\core/lv_obj_scroll.c ****             lv_obj_scroll_by(obj, 0, sb, anim_en);
 644:..\..\..\arduinoLCD\test\Pain Drain\libraries\lvgl\src\core/lv_obj_scroll.c ****         }
 645:..\..\..\arduinoLCD\test\Pain Drain\libraries\lvgl\src\core/lv_obj_scroll.c ****     }
 646:..\..\..\arduinoLCD\test\Pain Drain\libraries\lvgl\src\core/lv_obj_scroll.c **** 
 647:..\..\..\arduinoLCD\test\Pain Drain\libraries\lvgl\src\core/lv_obj_scroll.c ****     if(lv_obj_get_scroll_snap_x(obj) == LV_SCROLL_SNAP_NONE) {
 648:..\..\..\arduinoLCD\test\Pain Drain\libraries\lvgl\src\core/lv_obj_scroll.c ****         lv_coord_t sl = lv_obj_get_scroll_left(obj);
 649:..\..\..\arduinoLCD\test\Pain Drain\libraries\lvgl\src\core/lv_obj_scroll.c ****         lv_coord_t sr = lv_obj_get_scroll_right(obj);
 650:..\..\..\arduinoLCD\test\Pain Drain\libraries\lvgl\src\core/lv_obj_scroll.c ****         if(lv_obj_get_style_base_dir(obj, LV_PART_MAIN) != LV_BASE_DIR_RTL) {
 651:..\..\..\arduinoLCD\test\Pain Drain\libraries\lvgl\src\core/lv_obj_scroll.c ****             /*Be sure the left side is not remains scrolled in*/
 652:..\..\..\arduinoLCD\test\Pain Drain\libraries\lvgl\src\core/lv_obj_scroll.c ****             if(sr < 0 && sl > 0) {
 653:..\..\..\arduinoLCD\test\Pain Drain\libraries\lvgl\src\core/lv_obj_scroll.c ****                 sr = LV_MIN(sl, -sr);
 654:..\..\..\arduinoLCD\test\Pain Drain\libraries\lvgl\src\core/lv_obj_scroll.c ****                 lv_obj_scroll_by(obj, sr, 0, anim_en);
 655:..\..\..\arduinoLCD\test\Pain Drain\libraries\lvgl\src\core/lv_obj_scroll.c ****             }
 656:..\..\..\arduinoLCD\test\Pain Drain\libraries\lvgl\src\core/lv_obj_scroll.c ****         }
 657:..\..\..\arduinoLCD\test\Pain Drain\libraries\lvgl\src\core/lv_obj_scroll.c ****         else {
ARM GAS  C:\Users\haske\AppData\Local\Temp\cc2IOi1w.s 			page 13


 658:..\..\..\arduinoLCD\test\Pain Drain\libraries\lvgl\src\core/lv_obj_scroll.c ****             /*Be sure the right side is not remains scrolled in*/
 659:..\..\..\arduinoLCD\test\Pain Drain\libraries\lvgl\src\core/lv_obj_scroll.c ****             if(sl < 0 && sr > 0) {
 660:..\..\..\arduinoLCD\test\Pain Drain\libraries\lvgl\src\core/lv_obj_scroll.c ****                 sr = LV_MIN(sr, -sl);
 661:..\..\..\arduinoLCD\test\Pain Drain\libraries\lvgl\src\core/lv_obj_scroll.c ****                 lv_obj_scroll_by(obj, sl, 0, anim_en);
 662:..\..\..\arduinoLCD\test\Pain Drain\libraries\lvgl\src\core/lv_obj_scroll.c ****             }
 663:..\..\..\arduinoLCD\test\Pain Drain\libraries\lvgl\src\core/lv_obj_scroll.c ****         }
 664:..\..\..\arduinoLCD\test\Pain Drain\libraries\lvgl\src\core/lv_obj_scroll.c ****     }
 665:..\..\..\arduinoLCD\test\Pain Drain\libraries\lvgl\src\core/lv_obj_scroll.c **** }
 666:..\..\..\arduinoLCD\test\Pain Drain\libraries\lvgl\src\core/lv_obj_scroll.c **** 
 667:..\..\..\arduinoLCD\test\Pain Drain\libraries\lvgl\src\core/lv_obj_scroll.c **** /**********************
 668:..\..\..\arduinoLCD\test\Pain Drain\libraries\lvgl\src\core/lv_obj_scroll.c ****  *   STATIC FUNCTIONS
 669:..\..\..\arduinoLCD\test\Pain Drain\libraries\lvgl\src\core/lv_obj_scroll.c ****  **********************/
 670:..\..\..\arduinoLCD\test\Pain Drain\libraries\lvgl\src\core/lv_obj_scroll.c **** 
 671:..\..\..\arduinoLCD\test\Pain Drain\libraries\lvgl\src\core/lv_obj_scroll.c **** 
 672:..\..\..\arduinoLCD\test\Pain Drain\libraries\lvgl\src\core/lv_obj_scroll.c **** static void scroll_x_anim(void * obj, int32_t v)
 673:..\..\..\arduinoLCD\test\Pain Drain\libraries\lvgl\src\core/lv_obj_scroll.c **** {
 674:..\..\..\arduinoLCD\test\Pain Drain\libraries\lvgl\src\core/lv_obj_scroll.c ****     _lv_obj_scroll_by_raw(obj, v + lv_obj_get_scroll_x(obj), 0);
 675:..\..\..\arduinoLCD\test\Pain Drain\libraries\lvgl\src\core/lv_obj_scroll.c **** }
 676:..\..\..\arduinoLCD\test\Pain Drain\libraries\lvgl\src\core/lv_obj_scroll.c **** 
 677:..\..\..\arduinoLCD\test\Pain Drain\libraries\lvgl\src\core/lv_obj_scroll.c **** static void scroll_y_anim(void * obj, int32_t v)
 678:..\..\..\arduinoLCD\test\Pain Drain\libraries\lvgl\src\core/lv_obj_scroll.c **** {
 679:..\..\..\arduinoLCD\test\Pain Drain\libraries\lvgl\src\core/lv_obj_scroll.c ****     _lv_obj_scroll_by_raw(obj, 0, v + lv_obj_get_scroll_y(obj));
 680:..\..\..\arduinoLCD\test\Pain Drain\libraries\lvgl\src\core/lv_obj_scroll.c **** }
 681:..\..\..\arduinoLCD\test\Pain Drain\libraries\lvgl\src\core/lv_obj_scroll.c **** 
 682:..\..\..\arduinoLCD\test\Pain Drain\libraries\lvgl\src\core/lv_obj_scroll.c **** static void scroll_anim_ready_cb(lv_anim_t * a)
 683:..\..\..\arduinoLCD\test\Pain Drain\libraries\lvgl\src\core/lv_obj_scroll.c **** {
  28              		.loc 1 683 0
  29              		.cfi_startproc
  30              		@ args = 0, pretend = 0, frame = 0
  31              		@ frame_needed = 0, uses_anonymous_args = 0
  32              	.LVL0:
  33 0000 08B5     		push	{r3, lr}
  34              		.cfi_def_cfa_offset 8
  35              		.cfi_offset 3, -8
  36              		.cfi_offset 14, -4
 684:..\..\..\arduinoLCD\test\Pain Drain\libraries\lvgl\src\core/lv_obj_scroll.c ****     lv_event_send(a->var, LV_EVENT_SCROLL_END, NULL);
  37              		.loc 1 684 0
  38 0002 0022     		movs	r2, #0
  39 0004 0A21     		movs	r1, #10
  40 0006 0068     		ldr	r0, [r0]
  41              	.LVL1:
  42 0008 FFF7FEFF 		bl	lv_event_send
  43              	.LVL2:
  44 000c 08BD     		pop	{r3, pc}
  45              		.cfi_endproc
  46              	.LFE195:
  47              		.size	scroll_anim_ready_cb, .-scroll_anim_ready_cb
  48 000e 00BF     		.section	.text.lv_obj_set_scrollbar_mode,"ax",%progbits
  49              		.align	2
  50              		.global	lv_obj_set_scrollbar_mode
  51              		.thumb
  52              		.thumb_func
  53              		.type	lv_obj_set_scrollbar_mode, %function
  54              	lv_obj_set_scrollbar_mode:
  55              	.LFB165:
  57:..\..\..\arduinoLCD\test\Pain Drain\libraries\lvgl\src\core/lv_obj_scroll.c ****     LV_ASSERT_OBJ(obj, MY_CLASS);
  56              		.loc 1 57 0
ARM GAS  C:\Users\haske\AppData\Local\Temp\cc2IOi1w.s 			page 14


  57              		.cfi_startproc
  58              		@ args = 0, pretend = 0, frame = 0
  59              		@ frame_needed = 0, uses_anonymous_args = 0
  60              	.LVL3:
  61 0000 38B5     		push	{r3, r4, r5, lr}
  62              		.cfi_def_cfa_offset 16
  63              		.cfi_offset 3, -16
  64              		.cfi_offset 4, -12
  65              		.cfi_offset 5, -8
  66              		.cfi_offset 14, -4
  67 0002 0446     		mov	r4, r0
  68 0004 0D46     		mov	r5, r1
  60:..\..\..\arduinoLCD\test\Pain Drain\libraries\lvgl\src\core/lv_obj_scroll.c **** 
  69              		.loc 1 60 0
  70 0006 FFF7FEFF 		bl	lv_obj_allocate_spec_attr
  71              	.LVL4:
  62:..\..\..\arduinoLCD\test\Pain Drain\libraries\lvgl\src\core/lv_obj_scroll.c ****     obj->spec_attr->scrollbar_mode = mode;
  72              		.loc 1 62 0
  73 000a A268     		ldr	r2, [r4, #8]
  74 000c 137E     		ldrb	r3, [r2, #24]	@ zero_extendqisi2
  75 000e 03F00303 		and	r3, r3, #3
  76 0012 AB42     		cmp	r3, r5
  77 0014 06D0     		beq	.L3
  63:..\..\..\arduinoLCD\test\Pain Drain\libraries\lvgl\src\core/lv_obj_scroll.c ****     lv_obj_invalidate(obj);
  78              		.loc 1 63 0
  79 0016 137E     		ldrb	r3, [r2, #24]	@ zero_extendqisi2
  80 0018 65F30103 		bfi	r3, r5, #0, #2
  81 001c 1376     		strb	r3, [r2, #24]
  64:..\..\..\arduinoLCD\test\Pain Drain\libraries\lvgl\src\core/lv_obj_scroll.c **** }
  82              		.loc 1 64 0
  83 001e 2046     		mov	r0, r4
  84 0020 FFF7FEFF 		bl	lv_obj_invalidate
  85              	.LVL5:
  86              	.L3:
  87 0024 38BD     		pop	{r3, r4, r5, pc}
  88              		.cfi_endproc
  89              	.LFE165:
  90              		.size	lv_obj_set_scrollbar_mode, .-lv_obj_set_scrollbar_mode
  91 0026 00BF     		.section	.text.lv_obj_set_scroll_dir,"ax",%progbits
  92              		.align	2
  93              		.global	lv_obj_set_scroll_dir
  94              		.thumb
  95              		.thumb_func
  96              		.type	lv_obj_set_scroll_dir, %function
  97              	lv_obj_set_scroll_dir:
  98              	.LFB166:
  68:..\..\..\arduinoLCD\test\Pain Drain\libraries\lvgl\src\core/lv_obj_scroll.c ****     lv_obj_allocate_spec_attr(obj);
  99              		.loc 1 68 0
 100              		.cfi_startproc
 101              		@ args = 0, pretend = 0, frame = 0
 102              		@ frame_needed = 0, uses_anonymous_args = 0
 103              	.LVL6:
 104 0000 38B5     		push	{r3, r4, r5, lr}
 105              		.cfi_def_cfa_offset 16
 106              		.cfi_offset 3, -16
 107              		.cfi_offset 4, -12
 108              		.cfi_offset 5, -8
ARM GAS  C:\Users\haske\AppData\Local\Temp\cc2IOi1w.s 			page 15


 109              		.cfi_offset 14, -4
 110 0002 0546     		mov	r5, r0
 111 0004 0C46     		mov	r4, r1
  69:..\..\..\arduinoLCD\test\Pain Drain\libraries\lvgl\src\core/lv_obj_scroll.c **** 
 112              		.loc 1 69 0
 113 0006 FFF7FEFF 		bl	lv_obj_allocate_spec_attr
 114              	.LVL7:
  71:..\..\..\arduinoLCD\test\Pain Drain\libraries\lvgl\src\core/lv_obj_scroll.c ****         obj->spec_attr->scroll_dir = dir;
 115              		.loc 1 71 0
 116 000a AA68     		ldr	r2, [r5, #8]
 117 000c 537E     		ldrb	r3, [r2, #25]	@ zero_extendqisi2
 118 000e 03F00F03 		and	r3, r3, #15
 119 0012 A342     		cmp	r3, r4
 120 0014 03D0     		beq	.L6
  72:..\..\..\arduinoLCD\test\Pain Drain\libraries\lvgl\src\core/lv_obj_scroll.c ****     }
 121              		.loc 1 72 0
 122 0016 537E     		ldrb	r3, [r2, #25]	@ zero_extendqisi2
 123 0018 64F30303 		bfi	r3, r4, #0, #4
 124              	.LVL8:
 125 001c 5376     		strb	r3, [r2, #25]
 126              	.L6:
 127 001e 38BD     		pop	{r3, r4, r5, pc}
 128              		.cfi_endproc
 129              	.LFE166:
 130              		.size	lv_obj_set_scroll_dir, .-lv_obj_set_scroll_dir
 131              		.section	.text.lv_obj_set_scroll_snap_x,"ax",%progbits
 132              		.align	2
 133              		.global	lv_obj_set_scroll_snap_x
 134              		.thumb
 135              		.thumb_func
 136              		.type	lv_obj_set_scroll_snap_x, %function
 137              	lv_obj_set_scroll_snap_x:
 138              	.LFB167:
  77:..\..\..\arduinoLCD\test\Pain Drain\libraries\lvgl\src\core/lv_obj_scroll.c ****     lv_obj_allocate_spec_attr(obj);
 139              		.loc 1 77 0
 140              		.cfi_startproc
 141              		@ args = 0, pretend = 0, frame = 0
 142              		@ frame_needed = 0, uses_anonymous_args = 0
 143              	.LVL9:
 144 0000 38B5     		push	{r3, r4, r5, lr}
 145              		.cfi_def_cfa_offset 16
 146              		.cfi_offset 3, -16
 147              		.cfi_offset 4, -12
 148              		.cfi_offset 5, -8
 149              		.cfi_offset 14, -4
 150 0002 0546     		mov	r5, r0
 151 0004 0C46     		mov	r4, r1
  78:..\..\..\arduinoLCD\test\Pain Drain\libraries\lvgl\src\core/lv_obj_scroll.c ****     obj->spec_attr->scroll_snap_x = align;
 152              		.loc 1 78 0
 153 0006 FFF7FEFF 		bl	lv_obj_allocate_spec_attr
 154              	.LVL10:
  79:..\..\..\arduinoLCD\test\Pain Drain\libraries\lvgl\src\core/lv_obj_scroll.c **** }
 155              		.loc 1 79 0
 156 000a AB68     		ldr	r3, [r5, #8]
 157 000c 1A7E     		ldrb	r2, [r3, #24]	@ zero_extendqisi2
 158 000e 64F38302 		bfi	r2, r4, #2, #2
 159 0012 1A76     		strb	r2, [r3, #24]
ARM GAS  C:\Users\haske\AppData\Local\Temp\cc2IOi1w.s 			page 16


 160 0014 38BD     		pop	{r3, r4, r5, pc}
 161              		.cfi_endproc
 162              	.LFE167:
 163              		.size	lv_obj_set_scroll_snap_x, .-lv_obj_set_scroll_snap_x
 164 0016 00BF     		.section	.text.lv_obj_set_scroll_snap_y,"ax",%progbits
 165              		.align	2
 166              		.global	lv_obj_set_scroll_snap_y
 167              		.thumb
 168              		.thumb_func
 169              		.type	lv_obj_set_scroll_snap_y, %function
 170              	lv_obj_set_scroll_snap_y:
 171              	.LFB168:
  83:..\..\..\arduinoLCD\test\Pain Drain\libraries\lvgl\src\core/lv_obj_scroll.c ****     lv_obj_allocate_spec_attr(obj);
 172              		.loc 1 83 0
 173              		.cfi_startproc
 174              		@ args = 0, pretend = 0, frame = 0
 175              		@ frame_needed = 0, uses_anonymous_args = 0
 176              	.LVL11:
 177 0000 38B5     		push	{r3, r4, r5, lr}
 178              		.cfi_def_cfa_offset 16
 179              		.cfi_offset 3, -16
 180              		.cfi_offset 4, -12
 181              		.cfi_offset 5, -8
 182              		.cfi_offset 14, -4
 183 0002 0546     		mov	r5, r0
 184 0004 0C46     		mov	r4, r1
  84:..\..\..\arduinoLCD\test\Pain Drain\libraries\lvgl\src\core/lv_obj_scroll.c ****     obj->spec_attr->scroll_snap_y = align;
 185              		.loc 1 84 0
 186 0006 FFF7FEFF 		bl	lv_obj_allocate_spec_attr
 187              	.LVL12:
  85:..\..\..\arduinoLCD\test\Pain Drain\libraries\lvgl\src\core/lv_obj_scroll.c **** }
 188              		.loc 1 85 0
 189 000a AB68     		ldr	r3, [r5, #8]
 190 000c 1A7E     		ldrb	r2, [r3, #24]	@ zero_extendqisi2
 191 000e 64F30512 		bfi	r2, r4, #4, #2
 192 0012 1A76     		strb	r2, [r3, #24]
 193 0014 38BD     		pop	{r3, r4, r5, pc}
 194              		.cfi_endproc
 195              	.LFE168:
 196              		.size	lv_obj_set_scroll_snap_y, .-lv_obj_set_scroll_snap_y
 197 0016 00BF     		.section	.text.lv_obj_get_scrollbar_mode,"ax",%progbits
 198              		.align	2
 199              		.global	lv_obj_get_scrollbar_mode
 200              		.thumb
 201              		.thumb_func
 202              		.type	lv_obj_get_scrollbar_mode, %function
 203              	lv_obj_get_scrollbar_mode:
 204              	.LFB169:
  93:..\..\..\arduinoLCD\test\Pain Drain\libraries\lvgl\src\core/lv_obj_scroll.c ****     if(obj->spec_attr) return obj->spec_attr->scrollbar_mode;
 205              		.loc 1 93 0
 206              		.cfi_startproc
 207              		@ args = 0, pretend = 0, frame = 0
 208              		@ frame_needed = 0, uses_anonymous_args = 0
 209              		@ link register save eliminated.
 210              	.LVL13:
  94:..\..\..\arduinoLCD\test\Pain Drain\libraries\lvgl\src\core/lv_obj_scroll.c ****     else return LV_SCROLLBAR_MODE_AUTO;
 211              		.loc 1 94 0
ARM GAS  C:\Users\haske\AppData\Local\Temp\cc2IOi1w.s 			page 17


 212 0000 8368     		ldr	r3, [r0, #8]
 213 0002 1BB1     		cbz	r3, .L15
  94:..\..\..\arduinoLCD\test\Pain Drain\libraries\lvgl\src\core/lv_obj_scroll.c ****     else return LV_SCROLLBAR_MODE_AUTO;
 214              		.loc 1 94 0 is_stmt 0 discriminator 1
 215 0004 187E     		ldrb	r0, [r3, #24]	@ zero_extendqisi2
 216              	.LVL14:
 217 0006 00F00300 		and	r0, r0, #3
 218 000a 7047     		bx	lr
 219              	.LVL15:
 220              	.L15:
  95:..\..\..\arduinoLCD\test\Pain Drain\libraries\lvgl\src\core/lv_obj_scroll.c **** }
 221              		.loc 1 95 0 is_stmt 1
 222 000c 0320     		movs	r0, #3
 223              	.LVL16:
  96:..\..\..\arduinoLCD\test\Pain Drain\libraries\lvgl\src\core/lv_obj_scroll.c **** 
 224              		.loc 1 96 0
 225 000e 7047     		bx	lr
 226              		.cfi_endproc
 227              	.LFE169:
 228              		.size	lv_obj_get_scrollbar_mode, .-lv_obj_get_scrollbar_mode
 229              		.section	.text.lv_obj_get_scroll_dir,"ax",%progbits
 230              		.align	2
 231              		.global	lv_obj_get_scroll_dir
 232              		.thumb
 233              		.thumb_func
 234              		.type	lv_obj_get_scroll_dir, %function
 235              	lv_obj_get_scroll_dir:
 236              	.LFB170:
  99:..\..\..\arduinoLCD\test\Pain Drain\libraries\lvgl\src\core/lv_obj_scroll.c ****     if(obj->spec_attr) return obj->spec_attr->scroll_dir;
 237              		.loc 1 99 0
 238              		.cfi_startproc
 239              		@ args = 0, pretend = 0, frame = 0
 240              		@ frame_needed = 0, uses_anonymous_args = 0
 241              		@ link register save eliminated.
 242              	.LVL17:
 100:..\..\..\arduinoLCD\test\Pain Drain\libraries\lvgl\src\core/lv_obj_scroll.c ****     else return LV_DIR_ALL;
 243              		.loc 1 100 0
 244 0000 8368     		ldr	r3, [r0, #8]
 245 0002 1BB1     		cbz	r3, .L18
 100:..\..\..\arduinoLCD\test\Pain Drain\libraries\lvgl\src\core/lv_obj_scroll.c ****     else return LV_DIR_ALL;
 246              		.loc 1 100 0 is_stmt 0 discriminator 1
 247 0004 587E     		ldrb	r0, [r3, #25]	@ zero_extendqisi2
 248              	.LVL18:
 249 0006 00F00F00 		and	r0, r0, #15
 250 000a 7047     		bx	lr
 251              	.LVL19:
 252              	.L18:
 101:..\..\..\arduinoLCD\test\Pain Drain\libraries\lvgl\src\core/lv_obj_scroll.c **** }
 253              		.loc 1 101 0 is_stmt 1
 254 000c 0F20     		movs	r0, #15
 255              	.LVL20:
 102:..\..\..\arduinoLCD\test\Pain Drain\libraries\lvgl\src\core/lv_obj_scroll.c **** 
 256              		.loc 1 102 0
 257 000e 7047     		bx	lr
 258              		.cfi_endproc
 259              	.LFE170:
 260              		.size	lv_obj_get_scroll_dir, .-lv_obj_get_scroll_dir
ARM GAS  C:\Users\haske\AppData\Local\Temp\cc2IOi1w.s 			page 18


 261              		.section	.text.lv_obj_get_scroll_snap_x,"ax",%progbits
 262              		.align	2
 263              		.global	lv_obj_get_scroll_snap_x
 264              		.thumb
 265              		.thumb_func
 266              		.type	lv_obj_get_scroll_snap_x, %function
 267              	lv_obj_get_scroll_snap_x:
 268              	.LFB171:
 105:..\..\..\arduinoLCD\test\Pain Drain\libraries\lvgl\src\core/lv_obj_scroll.c ****     if(obj->spec_attr) return obj->spec_attr->scroll_snap_x;
 269              		.loc 1 105 0
 270              		.cfi_startproc
 271              		@ args = 0, pretend = 0, frame = 0
 272              		@ frame_needed = 0, uses_anonymous_args = 0
 273              		@ link register save eliminated.
 274              	.LVL21:
 106:..\..\..\arduinoLCD\test\Pain Drain\libraries\lvgl\src\core/lv_obj_scroll.c ****     else return LV_SCROLL_SNAP_NONE;
 275              		.loc 1 106 0
 276 0000 8368     		ldr	r3, [r0, #8]
 277 0002 1BB1     		cbz	r3, .L21
 106:..\..\..\arduinoLCD\test\Pain Drain\libraries\lvgl\src\core/lv_obj_scroll.c ****     else return LV_SCROLL_SNAP_NONE;
 278              		.loc 1 106 0 is_stmt 0 discriminator 1
 279 0004 187E     		ldrb	r0, [r3, #24]	@ zero_extendqisi2
 280              	.LVL22:
 281 0006 C0F38100 		ubfx	r0, r0, #2, #2
 282 000a 7047     		bx	lr
 283              	.LVL23:
 284              	.L21:
 107:..\..\..\arduinoLCD\test\Pain Drain\libraries\lvgl\src\core/lv_obj_scroll.c **** }
 285              		.loc 1 107 0 is_stmt 1
 286 000c 0020     		movs	r0, #0
 287              	.LVL24:
 108:..\..\..\arduinoLCD\test\Pain Drain\libraries\lvgl\src\core/lv_obj_scroll.c **** 
 288              		.loc 1 108 0
 289 000e 7047     		bx	lr
 290              		.cfi_endproc
 291              	.LFE171:
 292              		.size	lv_obj_get_scroll_snap_x, .-lv_obj_get_scroll_snap_x
 293              		.section	.text.lv_obj_get_scroll_snap_y,"ax",%progbits
 294              		.align	2
 295              		.global	lv_obj_get_scroll_snap_y
 296              		.thumb
 297              		.thumb_func
 298              		.type	lv_obj_get_scroll_snap_y, %function
 299              	lv_obj_get_scroll_snap_y:
 300              	.LFB172:
 111:..\..\..\arduinoLCD\test\Pain Drain\libraries\lvgl\src\core/lv_obj_scroll.c ****     if(obj->spec_attr) return obj->spec_attr->scroll_snap_y;
 301              		.loc 1 111 0
 302              		.cfi_startproc
 303              		@ args = 0, pretend = 0, frame = 0
 304              		@ frame_needed = 0, uses_anonymous_args = 0
 305              		@ link register save eliminated.
 306              	.LVL25:
 112:..\..\..\arduinoLCD\test\Pain Drain\libraries\lvgl\src\core/lv_obj_scroll.c ****     else return LV_SCROLL_SNAP_NONE;
 307              		.loc 1 112 0
 308 0000 8368     		ldr	r3, [r0, #8]
 309 0002 1BB1     		cbz	r3, .L24
 112:..\..\..\arduinoLCD\test\Pain Drain\libraries\lvgl\src\core/lv_obj_scroll.c ****     else return LV_SCROLL_SNAP_NONE;
ARM GAS  C:\Users\haske\AppData\Local\Temp\cc2IOi1w.s 			page 19


 310              		.loc 1 112 0 is_stmt 0 discriminator 1
 311 0004 187E     		ldrb	r0, [r3, #24]	@ zero_extendqisi2
 312              	.LVL26:
 313 0006 C0F30110 		ubfx	r0, r0, #4, #2
 314 000a 7047     		bx	lr
 315              	.LVL27:
 316              	.L24:
 113:..\..\..\arduinoLCD\test\Pain Drain\libraries\lvgl\src\core/lv_obj_scroll.c **** }
 317              		.loc 1 113 0 is_stmt 1
 318 000c 0020     		movs	r0, #0
 319              	.LVL28:
 114:..\..\..\arduinoLCD\test\Pain Drain\libraries\lvgl\src\core/lv_obj_scroll.c **** 
 320              		.loc 1 114 0
 321 000e 7047     		bx	lr
 322              		.cfi_endproc
 323              	.LFE172:
 324              		.size	lv_obj_get_scroll_snap_y, .-lv_obj_get_scroll_snap_y
 325              		.section	.text.lv_obj_get_scroll_x,"ax",%progbits
 326              		.align	2
 327              		.global	lv_obj_get_scroll_x
 328              		.thumb
 329              		.thumb_func
 330              		.type	lv_obj_get_scroll_x, %function
 331              	lv_obj_get_scroll_x:
 332              	.LFB173:
 117:..\..\..\arduinoLCD\test\Pain Drain\libraries\lvgl\src\core/lv_obj_scroll.c ****     if(obj->spec_attr == NULL) return 0;
 333              		.loc 1 117 0
 334              		.cfi_startproc
 335              		@ args = 0, pretend = 0, frame = 0
 336              		@ frame_needed = 0, uses_anonymous_args = 0
 337              		@ link register save eliminated.
 338              	.LVL29:
 118:..\..\..\arduinoLCD\test\Pain Drain\libraries\lvgl\src\core/lv_obj_scroll.c ****     return -obj->spec_attr->scroll.x;
 339              		.loc 1 118 0
 340 0000 8368     		ldr	r3, [r0, #8]
 341 0002 23B1     		cbz	r3, .L27
 119:..\..\..\arduinoLCD\test\Pain Drain\libraries\lvgl\src\core/lv_obj_scroll.c **** }
 342              		.loc 1 119 0
 343 0004 B3F91000 		ldrsh	r0, [r3, #16]
 344              	.LVL30:
 345 0008 4042     		negs	r0, r0
 346 000a 00B2     		sxth	r0, r0
 347 000c 7047     		bx	lr
 348              	.LVL31:
 349              	.L27:
 118:..\..\..\arduinoLCD\test\Pain Drain\libraries\lvgl\src\core/lv_obj_scroll.c ****     return -obj->spec_attr->scroll.x;
 350              		.loc 1 118 0
 351 000e 0020     		movs	r0, #0
 352              	.LVL32:
 120:..\..\..\arduinoLCD\test\Pain Drain\libraries\lvgl\src\core/lv_obj_scroll.c **** 
 353              		.loc 1 120 0
 354 0010 7047     		bx	lr
 355              		.cfi_endproc
 356              	.LFE173:
 357              		.size	lv_obj_get_scroll_x, .-lv_obj_get_scroll_x
 358 0012 00BF     		.section	.text.lv_obj_get_scroll_y,"ax",%progbits
 359              		.align	2
ARM GAS  C:\Users\haske\AppData\Local\Temp\cc2IOi1w.s 			page 20


 360              		.global	lv_obj_get_scroll_y
 361              		.thumb
 362              		.thumb_func
 363              		.type	lv_obj_get_scroll_y, %function
 364              	lv_obj_get_scroll_y:
 365              	.LFB174:
 123:..\..\..\arduinoLCD\test\Pain Drain\libraries\lvgl\src\core/lv_obj_scroll.c ****     if(obj->spec_attr == NULL) return 0;
 366              		.loc 1 123 0
 367              		.cfi_startproc
 368              		@ args = 0, pretend = 0, frame = 0
 369              		@ frame_needed = 0, uses_anonymous_args = 0
 370              		@ link register save eliminated.
 371              	.LVL33:
 124:..\..\..\arduinoLCD\test\Pain Drain\libraries\lvgl\src\core/lv_obj_scroll.c ****     return -obj->spec_attr->scroll.y;
 372              		.loc 1 124 0
 373 0000 8368     		ldr	r3, [r0, #8]
 374 0002 23B1     		cbz	r3, .L30
 125:..\..\..\arduinoLCD\test\Pain Drain\libraries\lvgl\src\core/lv_obj_scroll.c **** }
 375              		.loc 1 125 0
 376 0004 B3F91200 		ldrsh	r0, [r3, #18]
 377              	.LVL34:
 378 0008 4042     		negs	r0, r0
 379 000a 00B2     		sxth	r0, r0
 380 000c 7047     		bx	lr
 381              	.LVL35:
 382              	.L30:
 124:..\..\..\arduinoLCD\test\Pain Drain\libraries\lvgl\src\core/lv_obj_scroll.c ****     return -obj->spec_attr->scroll.y;
 383              		.loc 1 124 0
 384 000e 0020     		movs	r0, #0
 385              	.LVL36:
 126:..\..\..\arduinoLCD\test\Pain Drain\libraries\lvgl\src\core/lv_obj_scroll.c **** 
 386              		.loc 1 126 0
 387 0010 7047     		bx	lr
 388              		.cfi_endproc
 389              	.LFE174:
 390              		.size	lv_obj_get_scroll_y, .-lv_obj_get_scroll_y
 391 0012 00BF     		.section	.text.lv_obj_get_scroll_top,"ax",%progbits
 392              		.align	2
 393              		.global	lv_obj_get_scroll_top
 394              		.thumb
 395              		.thumb_func
 396              		.type	lv_obj_get_scroll_top, %function
 397              	lv_obj_get_scroll_top:
 398              	.LFB175:
 129:..\..\..\arduinoLCD\test\Pain Drain\libraries\lvgl\src\core/lv_obj_scroll.c ****     if(obj->spec_attr == NULL) return 0;
 399              		.loc 1 129 0
 400              		.cfi_startproc
 401              		@ args = 0, pretend = 0, frame = 0
 402              		@ frame_needed = 0, uses_anonymous_args = 0
 403              		@ link register save eliminated.
 404              	.LVL37:
 130:..\..\..\arduinoLCD\test\Pain Drain\libraries\lvgl\src\core/lv_obj_scroll.c ****     return -obj->spec_attr->scroll.y;
 405              		.loc 1 130 0
 406 0000 8368     		ldr	r3, [r0, #8]
 407 0002 23B1     		cbz	r3, .L33
 131:..\..\..\arduinoLCD\test\Pain Drain\libraries\lvgl\src\core/lv_obj_scroll.c **** }
 408              		.loc 1 131 0
ARM GAS  C:\Users\haske\AppData\Local\Temp\cc2IOi1w.s 			page 21


 409 0004 B3F91200 		ldrsh	r0, [r3, #18]
 410              	.LVL38:
 411 0008 4042     		negs	r0, r0
 412 000a 00B2     		sxth	r0, r0
 413 000c 7047     		bx	lr
 414              	.LVL39:
 415              	.L33:
 130:..\..\..\arduinoLCD\test\Pain Drain\libraries\lvgl\src\core/lv_obj_scroll.c ****     return -obj->spec_attr->scroll.y;
 416              		.loc 1 130 0
 417 000e 0020     		movs	r0, #0
 418              	.LVL40:
 132:..\..\..\arduinoLCD\test\Pain Drain\libraries\lvgl\src\core/lv_obj_scroll.c **** 
 419              		.loc 1 132 0
 420 0010 7047     		bx	lr
 421              		.cfi_endproc
 422              	.LFE175:
 423              		.size	lv_obj_get_scroll_top, .-lv_obj_get_scroll_top
 424 0012 00BF     		.section	.text.lv_obj_get_scroll_bottom,"ax",%progbits
 425              		.align	2
 426              		.global	lv_obj_get_scroll_bottom
 427              		.thumb
 428              		.thumb_func
 429              		.type	lv_obj_get_scroll_bottom, %function
 430              	lv_obj_get_scroll_bottom:
 431              	.LFB176:
 135:..\..\..\arduinoLCD\test\Pain Drain\libraries\lvgl\src\core/lv_obj_scroll.c ****     LV_ASSERT_OBJ(obj, MY_CLASS);
 432              		.loc 1 135 0
 433              		.cfi_startproc
 434              		@ args = 0, pretend = 0, frame = 0
 435              		@ frame_needed = 0, uses_anonymous_args = 0
 436              	.LVL41:
 437 0000 2DE9F843 		push	{r3, r4, r5, r6, r7, r8, r9, lr}
 438              		.cfi_def_cfa_offset 32
 439              		.cfi_offset 3, -32
 440              		.cfi_offset 4, -28
 441              		.cfi_offset 5, -24
 442              		.cfi_offset 6, -20
 443              		.cfi_offset 7, -16
 444              		.cfi_offset 8, -12
 445              		.cfi_offset 9, -8
 446              		.cfi_offset 14, -4
 447 0004 0646     		mov	r6, r0
 448              	.LVL42:
 140:..\..\..\arduinoLCD\test\Pain Drain\libraries\lvgl\src\core/lv_obj_scroll.c ****     for(i = 0; i < child_cnt; i++) {
 449              		.loc 1 140 0
 450 0006 FFF7FEFF 		bl	lv_obj_get_child_cnt
 451              	.LVL43:
 452 000a 8046     		mov	r8, r0
 453              	.LVL44:
 141:..\..\..\arduinoLCD\test\Pain Drain\libraries\lvgl\src\core/lv_obj_scroll.c ****         lv_obj_t * child = obj->spec_attr->children[i];
 454              		.loc 1 141 0
 455 000c 0024     		movs	r4, #0
 138:..\..\..\arduinoLCD\test\Pain Drain\libraries\lvgl\src\core/lv_obj_scroll.c ****     uint32_t i;
 456              		.loc 1 138 0
 457 000e 234F     		ldr	r7, .L40
 141:..\..\..\arduinoLCD\test\Pain Drain\libraries\lvgl\src\core/lv_obj_scroll.c ****         lv_obj_t * child = obj->spec_attr->children[i];
 458              		.loc 1 141 0
ARM GAS  C:\Users\haske\AppData\Local\Temp\cc2IOi1w.s 			page 22


 459 0010 0EE0     		b	.L35
 460              	.LVL45:
 461              	.L37:
 462              	.LBB99:
 142:..\..\..\arduinoLCD\test\Pain Drain\libraries\lvgl\src\core/lv_obj_scroll.c ****         if(lv_obj_has_flag_any(child,  LV_OBJ_FLAG_HIDDEN | LV_OBJ_FLAG_FLOATING)) continue;
 463              		.loc 1 142 0
 464 0012 B368     		ldr	r3, [r6, #8]
 465 0014 1B68     		ldr	r3, [r3]
 466 0016 53F82450 		ldr	r5, [r3, r4, lsl #2]
 467              	.LVL46:
 143:..\..\..\arduinoLCD\test\Pain Drain\libraries\lvgl\src\core/lv_obj_scroll.c ****         child_res = LV_MAX(child_res, child->coords.y2);
 468              		.loc 1 143 0
 469 001a 2149     		ldr	r1, .L40+4
 470 001c 2846     		mov	r0, r5
 471 001e FFF7FEFF 		bl	lv_obj_has_flag_any
 472              	.LVL47:
 473 0022 20B9     		cbnz	r0, .L36
 144:..\..\..\arduinoLCD\test\Pain Drain\libraries\lvgl\src\core/lv_obj_scroll.c ****     }
 474              		.loc 1 144 0
 475 0024 B5F91A30 		ldrsh	r3, [r5, #26]
 476 0028 9F42     		cmp	r7, r3
 477 002a B8BF     		it	lt
 478 002c 1F46     		movlt	r7, r3
 479              	.LVL48:
 480              	.L36:
 481              	.LBE99:
 141:..\..\..\arduinoLCD\test\Pain Drain\libraries\lvgl\src\core/lv_obj_scroll.c ****         lv_obj_t * child = obj->spec_attr->children[i];
 482              		.loc 1 141 0 discriminator 2
 483 002e 0134     		adds	r4, r4, #1
 484              	.LVL49:
 485              	.L35:
 141:..\..\..\arduinoLCD\test\Pain Drain\libraries\lvgl\src\core/lv_obj_scroll.c ****         lv_obj_t * child = obj->spec_attr->children[i];
 486              		.loc 1 141 0 is_stmt 0 discriminator 1
 487 0030 4445     		cmp	r4, r8
 488 0032 EED3     		bcc	.L37
 489              	.LVL50:
 490              	.LBB100:
 491              	.LBB101:
 492              		.file 2 "..\\..\\..\\arduinoLCD\\test\\Pain Drain\\libraries\\lvgl\\src\\core\\lv_obj_style_gen.h"
   1:..\..\..\arduinoLCD\test\Pain Drain\libraries\lvgl\src\core/lv_obj_style_gen.h **** static inline lv_coord_t lv_obj_get_style_width(const struct _lv_obj_t * obj, uint32_t part)
   2:..\..\..\arduinoLCD\test\Pain Drain\libraries\lvgl\src\core/lv_obj_style_gen.h **** {
   3:..\..\..\arduinoLCD\test\Pain Drain\libraries\lvgl\src\core/lv_obj_style_gen.h ****     lv_style_value_t v = lv_obj_get_style_prop(obj, part, LV_STYLE_WIDTH);
   4:..\..\..\arduinoLCD\test\Pain Drain\libraries\lvgl\src\core/lv_obj_style_gen.h ****     return (lv_coord_t)v.num;
   5:..\..\..\arduinoLCD\test\Pain Drain\libraries\lvgl\src\core/lv_obj_style_gen.h **** }
   6:..\..\..\arduinoLCD\test\Pain Drain\libraries\lvgl\src\core/lv_obj_style_gen.h **** 
   7:..\..\..\arduinoLCD\test\Pain Drain\libraries\lvgl\src\core/lv_obj_style_gen.h **** static inline lv_coord_t lv_obj_get_style_min_width(const struct _lv_obj_t * obj, uint32_t part)
   8:..\..\..\arduinoLCD\test\Pain Drain\libraries\lvgl\src\core/lv_obj_style_gen.h **** {
   9:..\..\..\arduinoLCD\test\Pain Drain\libraries\lvgl\src\core/lv_obj_style_gen.h ****     lv_style_value_t v = lv_obj_get_style_prop(obj, part, LV_STYLE_MIN_WIDTH);
  10:..\..\..\arduinoLCD\test\Pain Drain\libraries\lvgl\src\core/lv_obj_style_gen.h ****     return (lv_coord_t)v.num;
  11:..\..\..\arduinoLCD\test\Pain Drain\libraries\lvgl\src\core/lv_obj_style_gen.h **** }
  12:..\..\..\arduinoLCD\test\Pain Drain\libraries\lvgl\src\core/lv_obj_style_gen.h **** 
  13:..\..\..\arduinoLCD\test\Pain Drain\libraries\lvgl\src\core/lv_obj_style_gen.h **** static inline lv_coord_t lv_obj_get_style_max_width(const struct _lv_obj_t * obj, uint32_t part)
  14:..\..\..\arduinoLCD\test\Pain Drain\libraries\lvgl\src\core/lv_obj_style_gen.h **** {
  15:..\..\..\arduinoLCD\test\Pain Drain\libraries\lvgl\src\core/lv_obj_style_gen.h ****     lv_style_value_t v = lv_obj_get_style_prop(obj, part, LV_STYLE_MAX_WIDTH);
  16:..\..\..\arduinoLCD\test\Pain Drain\libraries\lvgl\src\core/lv_obj_style_gen.h ****     return (lv_coord_t)v.num;
  17:..\..\..\arduinoLCD\test\Pain Drain\libraries\lvgl\src\core/lv_obj_style_gen.h **** }
  18:..\..\..\arduinoLCD\test\Pain Drain\libraries\lvgl\src\core/lv_obj_style_gen.h **** 
ARM GAS  C:\Users\haske\AppData\Local\Temp\cc2IOi1w.s 			page 23


  19:..\..\..\arduinoLCD\test\Pain Drain\libraries\lvgl\src\core/lv_obj_style_gen.h **** static inline lv_coord_t lv_obj_get_style_height(const struct _lv_obj_t * obj, uint32_t part)
  20:..\..\..\arduinoLCD\test\Pain Drain\libraries\lvgl\src\core/lv_obj_style_gen.h **** {
  21:..\..\..\arduinoLCD\test\Pain Drain\libraries\lvgl\src\core/lv_obj_style_gen.h ****     lv_style_value_t v = lv_obj_get_style_prop(obj, part, LV_STYLE_HEIGHT);
  22:..\..\..\arduinoLCD\test\Pain Drain\libraries\lvgl\src\core/lv_obj_style_gen.h ****     return (lv_coord_t)v.num;
  23:..\..\..\arduinoLCD\test\Pain Drain\libraries\lvgl\src\core/lv_obj_style_gen.h **** }
  24:..\..\..\arduinoLCD\test\Pain Drain\libraries\lvgl\src\core/lv_obj_style_gen.h **** 
  25:..\..\..\arduinoLCD\test\Pain Drain\libraries\lvgl\src\core/lv_obj_style_gen.h **** static inline lv_coord_t lv_obj_get_style_min_height(const struct _lv_obj_t * obj, uint32_t part)
  26:..\..\..\arduinoLCD\test\Pain Drain\libraries\lvgl\src\core/lv_obj_style_gen.h **** {
  27:..\..\..\arduinoLCD\test\Pain Drain\libraries\lvgl\src\core/lv_obj_style_gen.h ****     lv_style_value_t v = lv_obj_get_style_prop(obj, part, LV_STYLE_MIN_HEIGHT);
  28:..\..\..\arduinoLCD\test\Pain Drain\libraries\lvgl\src\core/lv_obj_style_gen.h ****     return (lv_coord_t)v.num;
  29:..\..\..\arduinoLCD\test\Pain Drain\libraries\lvgl\src\core/lv_obj_style_gen.h **** }
  30:..\..\..\arduinoLCD\test\Pain Drain\libraries\lvgl\src\core/lv_obj_style_gen.h **** 
  31:..\..\..\arduinoLCD\test\Pain Drain\libraries\lvgl\src\core/lv_obj_style_gen.h **** static inline lv_coord_t lv_obj_get_style_max_height(const struct _lv_obj_t * obj, uint32_t part)
  32:..\..\..\arduinoLCD\test\Pain Drain\libraries\lvgl\src\core/lv_obj_style_gen.h **** {
  33:..\..\..\arduinoLCD\test\Pain Drain\libraries\lvgl\src\core/lv_obj_style_gen.h ****     lv_style_value_t v = lv_obj_get_style_prop(obj, part, LV_STYLE_MAX_HEIGHT);
  34:..\..\..\arduinoLCD\test\Pain Drain\libraries\lvgl\src\core/lv_obj_style_gen.h ****     return (lv_coord_t)v.num;
  35:..\..\..\arduinoLCD\test\Pain Drain\libraries\lvgl\src\core/lv_obj_style_gen.h **** }
  36:..\..\..\arduinoLCD\test\Pain Drain\libraries\lvgl\src\core/lv_obj_style_gen.h **** 
  37:..\..\..\arduinoLCD\test\Pain Drain\libraries\lvgl\src\core/lv_obj_style_gen.h **** static inline lv_coord_t lv_obj_get_style_x(const struct _lv_obj_t * obj, uint32_t part)
  38:..\..\..\arduinoLCD\test\Pain Drain\libraries\lvgl\src\core/lv_obj_style_gen.h **** {
  39:..\..\..\arduinoLCD\test\Pain Drain\libraries\lvgl\src\core/lv_obj_style_gen.h ****     lv_style_value_t v = lv_obj_get_style_prop(obj, part, LV_STYLE_X);
  40:..\..\..\arduinoLCD\test\Pain Drain\libraries\lvgl\src\core/lv_obj_style_gen.h ****     return (lv_coord_t)v.num;
  41:..\..\..\arduinoLCD\test\Pain Drain\libraries\lvgl\src\core/lv_obj_style_gen.h **** }
  42:..\..\..\arduinoLCD\test\Pain Drain\libraries\lvgl\src\core/lv_obj_style_gen.h **** 
  43:..\..\..\arduinoLCD\test\Pain Drain\libraries\lvgl\src\core/lv_obj_style_gen.h **** static inline lv_coord_t lv_obj_get_style_y(const struct _lv_obj_t * obj, uint32_t part)
  44:..\..\..\arduinoLCD\test\Pain Drain\libraries\lvgl\src\core/lv_obj_style_gen.h **** {
  45:..\..\..\arduinoLCD\test\Pain Drain\libraries\lvgl\src\core/lv_obj_style_gen.h ****     lv_style_value_t v = lv_obj_get_style_prop(obj, part, LV_STYLE_Y);
  46:..\..\..\arduinoLCD\test\Pain Drain\libraries\lvgl\src\core/lv_obj_style_gen.h ****     return (lv_coord_t)v.num;
  47:..\..\..\arduinoLCD\test\Pain Drain\libraries\lvgl\src\core/lv_obj_style_gen.h **** }
  48:..\..\..\arduinoLCD\test\Pain Drain\libraries\lvgl\src\core/lv_obj_style_gen.h **** 
  49:..\..\..\arduinoLCD\test\Pain Drain\libraries\lvgl\src\core/lv_obj_style_gen.h **** static inline lv_align_t lv_obj_get_style_align(const struct _lv_obj_t * obj, uint32_t part)
  50:..\..\..\arduinoLCD\test\Pain Drain\libraries\lvgl\src\core/lv_obj_style_gen.h **** {
  51:..\..\..\arduinoLCD\test\Pain Drain\libraries\lvgl\src\core/lv_obj_style_gen.h ****     lv_style_value_t v = lv_obj_get_style_prop(obj, part, LV_STYLE_ALIGN);
  52:..\..\..\arduinoLCD\test\Pain Drain\libraries\lvgl\src\core/lv_obj_style_gen.h ****     return (lv_align_t)v.num;
  53:..\..\..\arduinoLCD\test\Pain Drain\libraries\lvgl\src\core/lv_obj_style_gen.h **** }
  54:..\..\..\arduinoLCD\test\Pain Drain\libraries\lvgl\src\core/lv_obj_style_gen.h **** 
  55:..\..\..\arduinoLCD\test\Pain Drain\libraries\lvgl\src\core/lv_obj_style_gen.h **** static inline lv_coord_t lv_obj_get_style_transform_width(const struct _lv_obj_t * obj, uint32_t pa
  56:..\..\..\arduinoLCD\test\Pain Drain\libraries\lvgl\src\core/lv_obj_style_gen.h **** {
  57:..\..\..\arduinoLCD\test\Pain Drain\libraries\lvgl\src\core/lv_obj_style_gen.h ****     lv_style_value_t v = lv_obj_get_style_prop(obj, part, LV_STYLE_TRANSFORM_WIDTH);
  58:..\..\..\arduinoLCD\test\Pain Drain\libraries\lvgl\src\core/lv_obj_style_gen.h ****     return (lv_coord_t)v.num;
  59:..\..\..\arduinoLCD\test\Pain Drain\libraries\lvgl\src\core/lv_obj_style_gen.h **** }
  60:..\..\..\arduinoLCD\test\Pain Drain\libraries\lvgl\src\core/lv_obj_style_gen.h **** 
  61:..\..\..\arduinoLCD\test\Pain Drain\libraries\lvgl\src\core/lv_obj_style_gen.h **** static inline lv_coord_t lv_obj_get_style_transform_height(const struct _lv_obj_t * obj, uint32_t p
  62:..\..\..\arduinoLCD\test\Pain Drain\libraries\lvgl\src\core/lv_obj_style_gen.h **** {
  63:..\..\..\arduinoLCD\test\Pain Drain\libraries\lvgl\src\core/lv_obj_style_gen.h ****     lv_style_value_t v = lv_obj_get_style_prop(obj, part, LV_STYLE_TRANSFORM_HEIGHT);
  64:..\..\..\arduinoLCD\test\Pain Drain\libraries\lvgl\src\core/lv_obj_style_gen.h ****     return (lv_coord_t)v.num;
  65:..\..\..\arduinoLCD\test\Pain Drain\libraries\lvgl\src\core/lv_obj_style_gen.h **** }
  66:..\..\..\arduinoLCD\test\Pain Drain\libraries\lvgl\src\core/lv_obj_style_gen.h **** 
  67:..\..\..\arduinoLCD\test\Pain Drain\libraries\lvgl\src\core/lv_obj_style_gen.h **** static inline lv_coord_t lv_obj_get_style_translate_x(const struct _lv_obj_t * obj, uint32_t part)
  68:..\..\..\arduinoLCD\test\Pain Drain\libraries\lvgl\src\core/lv_obj_style_gen.h **** {
  69:..\..\..\arduinoLCD\test\Pain Drain\libraries\lvgl\src\core/lv_obj_style_gen.h ****     lv_style_value_t v = lv_obj_get_style_prop(obj, part, LV_STYLE_TRANSLATE_X);
  70:..\..\..\arduinoLCD\test\Pain Drain\libraries\lvgl\src\core/lv_obj_style_gen.h ****     return (lv_coord_t)v.num;
  71:..\..\..\arduinoLCD\test\Pain Drain\libraries\lvgl\src\core/lv_obj_style_gen.h **** }
  72:..\..\..\arduinoLCD\test\Pain Drain\libraries\lvgl\src\core/lv_obj_style_gen.h **** 
  73:..\..\..\arduinoLCD\test\Pain Drain\libraries\lvgl\src\core/lv_obj_style_gen.h **** static inline lv_coord_t lv_obj_get_style_translate_y(const struct _lv_obj_t * obj, uint32_t part)
  74:..\..\..\arduinoLCD\test\Pain Drain\libraries\lvgl\src\core/lv_obj_style_gen.h **** {
  75:..\..\..\arduinoLCD\test\Pain Drain\libraries\lvgl\src\core/lv_obj_style_gen.h ****     lv_style_value_t v = lv_obj_get_style_prop(obj, part, LV_STYLE_TRANSLATE_Y);
ARM GAS  C:\Users\haske\AppData\Local\Temp\cc2IOi1w.s 			page 24


  76:..\..\..\arduinoLCD\test\Pain Drain\libraries\lvgl\src\core/lv_obj_style_gen.h ****     return (lv_coord_t)v.num;
  77:..\..\..\arduinoLCD\test\Pain Drain\libraries\lvgl\src\core/lv_obj_style_gen.h **** }
  78:..\..\..\arduinoLCD\test\Pain Drain\libraries\lvgl\src\core/lv_obj_style_gen.h **** 
  79:..\..\..\arduinoLCD\test\Pain Drain\libraries\lvgl\src\core/lv_obj_style_gen.h **** static inline lv_coord_t lv_obj_get_style_transform_zoom(const struct _lv_obj_t * obj, uint32_t par
  80:..\..\..\arduinoLCD\test\Pain Drain\libraries\lvgl\src\core/lv_obj_style_gen.h **** {
  81:..\..\..\arduinoLCD\test\Pain Drain\libraries\lvgl\src\core/lv_obj_style_gen.h ****     lv_style_value_t v = lv_obj_get_style_prop(obj, part, LV_STYLE_TRANSFORM_ZOOM);
  82:..\..\..\arduinoLCD\test\Pain Drain\libraries\lvgl\src\core/lv_obj_style_gen.h ****     return (lv_coord_t)v.num;
  83:..\..\..\arduinoLCD\test\Pain Drain\libraries\lvgl\src\core/lv_obj_style_gen.h **** }
  84:..\..\..\arduinoLCD\test\Pain Drain\libraries\lvgl\src\core/lv_obj_style_gen.h **** 
  85:..\..\..\arduinoLCD\test\Pain Drain\libraries\lvgl\src\core/lv_obj_style_gen.h **** static inline lv_coord_t lv_obj_get_style_transform_angle(const struct _lv_obj_t * obj, uint32_t pa
  86:..\..\..\arduinoLCD\test\Pain Drain\libraries\lvgl\src\core/lv_obj_style_gen.h **** {
  87:..\..\..\arduinoLCD\test\Pain Drain\libraries\lvgl\src\core/lv_obj_style_gen.h ****     lv_style_value_t v = lv_obj_get_style_prop(obj, part, LV_STYLE_TRANSFORM_ANGLE);
  88:..\..\..\arduinoLCD\test\Pain Drain\libraries\lvgl\src\core/lv_obj_style_gen.h ****     return (lv_coord_t)v.num;
  89:..\..\..\arduinoLCD\test\Pain Drain\libraries\lvgl\src\core/lv_obj_style_gen.h **** }
  90:..\..\..\arduinoLCD\test\Pain Drain\libraries\lvgl\src\core/lv_obj_style_gen.h **** 
  91:..\..\..\arduinoLCD\test\Pain Drain\libraries\lvgl\src\core/lv_obj_style_gen.h **** static inline lv_coord_t lv_obj_get_style_transform_pivot_x(const struct _lv_obj_t * obj, uint32_t 
  92:..\..\..\arduinoLCD\test\Pain Drain\libraries\lvgl\src\core/lv_obj_style_gen.h **** {
  93:..\..\..\arduinoLCD\test\Pain Drain\libraries\lvgl\src\core/lv_obj_style_gen.h ****     lv_style_value_t v = lv_obj_get_style_prop(obj, part, LV_STYLE_TRANSFORM_PIVOT_X);
  94:..\..\..\arduinoLCD\test\Pain Drain\libraries\lvgl\src\core/lv_obj_style_gen.h ****     return (lv_coord_t)v.num;
  95:..\..\..\arduinoLCD\test\Pain Drain\libraries\lvgl\src\core/lv_obj_style_gen.h **** }
  96:..\..\..\arduinoLCD\test\Pain Drain\libraries\lvgl\src\core/lv_obj_style_gen.h **** 
  97:..\..\..\arduinoLCD\test\Pain Drain\libraries\lvgl\src\core/lv_obj_style_gen.h **** static inline lv_coord_t lv_obj_get_style_transform_pivot_y(const struct _lv_obj_t * obj, uint32_t 
  98:..\..\..\arduinoLCD\test\Pain Drain\libraries\lvgl\src\core/lv_obj_style_gen.h **** {
  99:..\..\..\arduinoLCD\test\Pain Drain\libraries\lvgl\src\core/lv_obj_style_gen.h ****     lv_style_value_t v = lv_obj_get_style_prop(obj, part, LV_STYLE_TRANSFORM_PIVOT_Y);
 100:..\..\..\arduinoLCD\test\Pain Drain\libraries\lvgl\src\core/lv_obj_style_gen.h ****     return (lv_coord_t)v.num;
 101:..\..\..\arduinoLCD\test\Pain Drain\libraries\lvgl\src\core/lv_obj_style_gen.h **** }
 102:..\..\..\arduinoLCD\test\Pain Drain\libraries\lvgl\src\core/lv_obj_style_gen.h **** 
 103:..\..\..\arduinoLCD\test\Pain Drain\libraries\lvgl\src\core/lv_obj_style_gen.h **** static inline lv_coord_t lv_obj_get_style_pad_top(const struct _lv_obj_t * obj, uint32_t part)
 104:..\..\..\arduinoLCD\test\Pain Drain\libraries\lvgl\src\core/lv_obj_style_gen.h **** {
 105:..\..\..\arduinoLCD\test\Pain Drain\libraries\lvgl\src\core/lv_obj_style_gen.h ****     lv_style_value_t v = lv_obj_get_style_prop(obj, part, LV_STYLE_PAD_TOP);
 493              		.loc 2 105 0 is_stmt 1
 494 0034 1022     		movs	r2, #16
 495 0036 0021     		movs	r1, #0
 496 0038 3046     		mov	r0, r6
 497 003a FFF7FEFF 		bl	lv_obj_get_style_prop
 498              	.LVL51:
 499 003e 8146     		mov	r9, r0
 500              	.LVL52:
 501              	.LBE101:
 502              	.LBE100:
 503              	.LBB102:
 504              	.LBB103:
 106:..\..\..\arduinoLCD\test\Pain Drain\libraries\lvgl\src\core/lv_obj_style_gen.h ****     return (lv_coord_t)v.num;
 107:..\..\..\arduinoLCD\test\Pain Drain\libraries\lvgl\src\core/lv_obj_style_gen.h **** }
 108:..\..\..\arduinoLCD\test\Pain Drain\libraries\lvgl\src\core/lv_obj_style_gen.h **** 
 109:..\..\..\arduinoLCD\test\Pain Drain\libraries\lvgl\src\core/lv_obj_style_gen.h **** static inline lv_coord_t lv_obj_get_style_pad_bottom(const struct _lv_obj_t * obj, uint32_t part)
 110:..\..\..\arduinoLCD\test\Pain Drain\libraries\lvgl\src\core/lv_obj_style_gen.h **** {
 111:..\..\..\arduinoLCD\test\Pain Drain\libraries\lvgl\src\core/lv_obj_style_gen.h ****     lv_style_value_t v = lv_obj_get_style_prop(obj, part, LV_STYLE_PAD_BOTTOM);
 505              		.loc 2 111 0
 506 0040 1122     		movs	r2, #17
 507 0042 0021     		movs	r1, #0
 508 0044 3046     		mov	r0, r6
 509 0046 FFF7FEFF 		bl	lv_obj_get_style_prop
 510              	.LVL53:
 511 004a 8046     		mov	r8, r0
 512              	.LVL54:
 513              	.LBE103:
ARM GAS  C:\Users\haske\AppData\Local\Temp\cc2IOi1w.s 			page 25


 514              	.LBE102:
 515              	.LBB104:
 516              	.LBB105:
 112:..\..\..\arduinoLCD\test\Pain Drain\libraries\lvgl\src\core/lv_obj_style_gen.h ****     return (lv_coord_t)v.num;
 113:..\..\..\arduinoLCD\test\Pain Drain\libraries\lvgl\src\core/lv_obj_style_gen.h **** }
 114:..\..\..\arduinoLCD\test\Pain Drain\libraries\lvgl\src\core/lv_obj_style_gen.h **** 
 115:..\..\..\arduinoLCD\test\Pain Drain\libraries\lvgl\src\core/lv_obj_style_gen.h **** static inline lv_coord_t lv_obj_get_style_pad_left(const struct _lv_obj_t * obj, uint32_t part)
 116:..\..\..\arduinoLCD\test\Pain Drain\libraries\lvgl\src\core/lv_obj_style_gen.h **** {
 117:..\..\..\arduinoLCD\test\Pain Drain\libraries\lvgl\src\core/lv_obj_style_gen.h ****     lv_style_value_t v = lv_obj_get_style_prop(obj, part, LV_STYLE_PAD_LEFT);
 118:..\..\..\arduinoLCD\test\Pain Drain\libraries\lvgl\src\core/lv_obj_style_gen.h ****     return (lv_coord_t)v.num;
 119:..\..\..\arduinoLCD\test\Pain Drain\libraries\lvgl\src\core/lv_obj_style_gen.h **** }
 120:..\..\..\arduinoLCD\test\Pain Drain\libraries\lvgl\src\core/lv_obj_style_gen.h **** 
 121:..\..\..\arduinoLCD\test\Pain Drain\libraries\lvgl\src\core/lv_obj_style_gen.h **** static inline lv_coord_t lv_obj_get_style_pad_right(const struct _lv_obj_t * obj, uint32_t part)
 122:..\..\..\arduinoLCD\test\Pain Drain\libraries\lvgl\src\core/lv_obj_style_gen.h **** {
 123:..\..\..\arduinoLCD\test\Pain Drain\libraries\lvgl\src\core/lv_obj_style_gen.h ****     lv_style_value_t v = lv_obj_get_style_prop(obj, part, LV_STYLE_PAD_RIGHT);
 124:..\..\..\arduinoLCD\test\Pain Drain\libraries\lvgl\src\core/lv_obj_style_gen.h ****     return (lv_coord_t)v.num;
 125:..\..\..\arduinoLCD\test\Pain Drain\libraries\lvgl\src\core/lv_obj_style_gen.h **** }
 126:..\..\..\arduinoLCD\test\Pain Drain\libraries\lvgl\src\core/lv_obj_style_gen.h **** 
 127:..\..\..\arduinoLCD\test\Pain Drain\libraries\lvgl\src\core/lv_obj_style_gen.h **** static inline lv_coord_t lv_obj_get_style_pad_row(const struct _lv_obj_t * obj, uint32_t part)
 128:..\..\..\arduinoLCD\test\Pain Drain\libraries\lvgl\src\core/lv_obj_style_gen.h **** {
 129:..\..\..\arduinoLCD\test\Pain Drain\libraries\lvgl\src\core/lv_obj_style_gen.h ****     lv_style_value_t v = lv_obj_get_style_prop(obj, part, LV_STYLE_PAD_ROW);
 130:..\..\..\arduinoLCD\test\Pain Drain\libraries\lvgl\src\core/lv_obj_style_gen.h ****     return (lv_coord_t)v.num;
 131:..\..\..\arduinoLCD\test\Pain Drain\libraries\lvgl\src\core/lv_obj_style_gen.h **** }
 132:..\..\..\arduinoLCD\test\Pain Drain\libraries\lvgl\src\core/lv_obj_style_gen.h **** 
 133:..\..\..\arduinoLCD\test\Pain Drain\libraries\lvgl\src\core/lv_obj_style_gen.h **** static inline lv_coord_t lv_obj_get_style_pad_column(const struct _lv_obj_t * obj, uint32_t part)
 134:..\..\..\arduinoLCD\test\Pain Drain\libraries\lvgl\src\core/lv_obj_style_gen.h **** {
 135:..\..\..\arduinoLCD\test\Pain Drain\libraries\lvgl\src\core/lv_obj_style_gen.h ****     lv_style_value_t v = lv_obj_get_style_prop(obj, part, LV_STYLE_PAD_COLUMN);
 136:..\..\..\arduinoLCD\test\Pain Drain\libraries\lvgl\src\core/lv_obj_style_gen.h ****     return (lv_coord_t)v.num;
 137:..\..\..\arduinoLCD\test\Pain Drain\libraries\lvgl\src\core/lv_obj_style_gen.h **** }
 138:..\..\..\arduinoLCD\test\Pain Drain\libraries\lvgl\src\core/lv_obj_style_gen.h **** 
 139:..\..\..\arduinoLCD\test\Pain Drain\libraries\lvgl\src\core/lv_obj_style_gen.h **** static inline lv_color_t lv_obj_get_style_bg_color(const struct _lv_obj_t * obj, uint32_t part)
 140:..\..\..\arduinoLCD\test\Pain Drain\libraries\lvgl\src\core/lv_obj_style_gen.h **** {
 141:..\..\..\arduinoLCD\test\Pain Drain\libraries\lvgl\src\core/lv_obj_style_gen.h ****     lv_style_value_t v = lv_obj_get_style_prop(obj, part, LV_STYLE_BG_COLOR);
 142:..\..\..\arduinoLCD\test\Pain Drain\libraries\lvgl\src\core/lv_obj_style_gen.h ****     return v.color;
 143:..\..\..\arduinoLCD\test\Pain Drain\libraries\lvgl\src\core/lv_obj_style_gen.h **** }
 144:..\..\..\arduinoLCD\test\Pain Drain\libraries\lvgl\src\core/lv_obj_style_gen.h **** 
 145:..\..\..\arduinoLCD\test\Pain Drain\libraries\lvgl\src\core/lv_obj_style_gen.h **** static inline lv_color_t lv_obj_get_style_bg_color_filtered(const struct _lv_obj_t * obj, uint32_t 
 146:..\..\..\arduinoLCD\test\Pain Drain\libraries\lvgl\src\core/lv_obj_style_gen.h **** {
 147:..\..\..\arduinoLCD\test\Pain Drain\libraries\lvgl\src\core/lv_obj_style_gen.h ****     lv_style_value_t v = _lv_obj_style_apply_color_filter(obj, part, lv_obj_get_style_prop(obj, par
 148:..\..\..\arduinoLCD\test\Pain Drain\libraries\lvgl\src\core/lv_obj_style_gen.h ****     return v.color;
 149:..\..\..\arduinoLCD\test\Pain Drain\libraries\lvgl\src\core/lv_obj_style_gen.h **** }
 150:..\..\..\arduinoLCD\test\Pain Drain\libraries\lvgl\src\core/lv_obj_style_gen.h **** 
 151:..\..\..\arduinoLCD\test\Pain Drain\libraries\lvgl\src\core/lv_obj_style_gen.h **** static inline lv_opa_t lv_obj_get_style_bg_opa(const struct _lv_obj_t * obj, uint32_t part)
 152:..\..\..\arduinoLCD\test\Pain Drain\libraries\lvgl\src\core/lv_obj_style_gen.h **** {
 153:..\..\..\arduinoLCD\test\Pain Drain\libraries\lvgl\src\core/lv_obj_style_gen.h ****     lv_style_value_t v = lv_obj_get_style_prop(obj, part, LV_STYLE_BG_OPA);
 154:..\..\..\arduinoLCD\test\Pain Drain\libraries\lvgl\src\core/lv_obj_style_gen.h ****     return (lv_opa_t)v.num;
 155:..\..\..\arduinoLCD\test\Pain Drain\libraries\lvgl\src\core/lv_obj_style_gen.h **** }
 156:..\..\..\arduinoLCD\test\Pain Drain\libraries\lvgl\src\core/lv_obj_style_gen.h **** 
 157:..\..\..\arduinoLCD\test\Pain Drain\libraries\lvgl\src\core/lv_obj_style_gen.h **** static inline lv_color_t lv_obj_get_style_bg_grad_color(const struct _lv_obj_t * obj, uint32_t part
 158:..\..\..\arduinoLCD\test\Pain Drain\libraries\lvgl\src\core/lv_obj_style_gen.h **** {
 159:..\..\..\arduinoLCD\test\Pain Drain\libraries\lvgl\src\core/lv_obj_style_gen.h ****     lv_style_value_t v = lv_obj_get_style_prop(obj, part, LV_STYLE_BG_GRAD_COLOR);
 160:..\..\..\arduinoLCD\test\Pain Drain\libraries\lvgl\src\core/lv_obj_style_gen.h ****     return v.color;
 161:..\..\..\arduinoLCD\test\Pain Drain\libraries\lvgl\src\core/lv_obj_style_gen.h **** }
 162:..\..\..\arduinoLCD\test\Pain Drain\libraries\lvgl\src\core/lv_obj_style_gen.h **** 
 163:..\..\..\arduinoLCD\test\Pain Drain\libraries\lvgl\src\core/lv_obj_style_gen.h **** static inline lv_color_t lv_obj_get_style_bg_grad_color_filtered(const struct _lv_obj_t * obj, uint
 164:..\..\..\arduinoLCD\test\Pain Drain\libraries\lvgl\src\core/lv_obj_style_gen.h **** {
 165:..\..\..\arduinoLCD\test\Pain Drain\libraries\lvgl\src\core/lv_obj_style_gen.h ****     lv_style_value_t v = _lv_obj_style_apply_color_filter(obj, part, lv_obj_get_style_prop(obj, par
ARM GAS  C:\Users\haske\AppData\Local\Temp\cc2IOi1w.s 			page 26


 166:..\..\..\arduinoLCD\test\Pain Drain\libraries\lvgl\src\core/lv_obj_style_gen.h ****     return v.color;
 167:..\..\..\arduinoLCD\test\Pain Drain\libraries\lvgl\src\core/lv_obj_style_gen.h **** }
 168:..\..\..\arduinoLCD\test\Pain Drain\libraries\lvgl\src\core/lv_obj_style_gen.h **** 
 169:..\..\..\arduinoLCD\test\Pain Drain\libraries\lvgl\src\core/lv_obj_style_gen.h **** static inline lv_grad_dir_t lv_obj_get_style_bg_grad_dir(const struct _lv_obj_t * obj, uint32_t par
 170:..\..\..\arduinoLCD\test\Pain Drain\libraries\lvgl\src\core/lv_obj_style_gen.h **** {
 171:..\..\..\arduinoLCD\test\Pain Drain\libraries\lvgl\src\core/lv_obj_style_gen.h ****     lv_style_value_t v = lv_obj_get_style_prop(obj, part, LV_STYLE_BG_GRAD_DIR);
 172:..\..\..\arduinoLCD\test\Pain Drain\libraries\lvgl\src\core/lv_obj_style_gen.h ****     return (lv_grad_dir_t)v.num;
 173:..\..\..\arduinoLCD\test\Pain Drain\libraries\lvgl\src\core/lv_obj_style_gen.h **** }
 174:..\..\..\arduinoLCD\test\Pain Drain\libraries\lvgl\src\core/lv_obj_style_gen.h **** 
 175:..\..\..\arduinoLCD\test\Pain Drain\libraries\lvgl\src\core/lv_obj_style_gen.h **** static inline lv_coord_t lv_obj_get_style_bg_main_stop(const struct _lv_obj_t * obj, uint32_t part)
 176:..\..\..\arduinoLCD\test\Pain Drain\libraries\lvgl\src\core/lv_obj_style_gen.h **** {
 177:..\..\..\arduinoLCD\test\Pain Drain\libraries\lvgl\src\core/lv_obj_style_gen.h ****     lv_style_value_t v = lv_obj_get_style_prop(obj, part, LV_STYLE_BG_MAIN_STOP);
 178:..\..\..\arduinoLCD\test\Pain Drain\libraries\lvgl\src\core/lv_obj_style_gen.h ****     return (lv_coord_t)v.num;
 179:..\..\..\arduinoLCD\test\Pain Drain\libraries\lvgl\src\core/lv_obj_style_gen.h **** }
 180:..\..\..\arduinoLCD\test\Pain Drain\libraries\lvgl\src\core/lv_obj_style_gen.h **** 
 181:..\..\..\arduinoLCD\test\Pain Drain\libraries\lvgl\src\core/lv_obj_style_gen.h **** static inline lv_coord_t lv_obj_get_style_bg_grad_stop(const struct _lv_obj_t * obj, uint32_t part)
 182:..\..\..\arduinoLCD\test\Pain Drain\libraries\lvgl\src\core/lv_obj_style_gen.h **** {
 183:..\..\..\arduinoLCD\test\Pain Drain\libraries\lvgl\src\core/lv_obj_style_gen.h ****     lv_style_value_t v = lv_obj_get_style_prop(obj, part, LV_STYLE_BG_GRAD_STOP);
 184:..\..\..\arduinoLCD\test\Pain Drain\libraries\lvgl\src\core/lv_obj_style_gen.h ****     return (lv_coord_t)v.num;
 185:..\..\..\arduinoLCD\test\Pain Drain\libraries\lvgl\src\core/lv_obj_style_gen.h **** }
 186:..\..\..\arduinoLCD\test\Pain Drain\libraries\lvgl\src\core/lv_obj_style_gen.h **** 
 187:..\..\..\arduinoLCD\test\Pain Drain\libraries\lvgl\src\core/lv_obj_style_gen.h **** static inline const lv_grad_dsc_t * lv_obj_get_style_bg_grad(const struct _lv_obj_t * obj, uint32_t
 188:..\..\..\arduinoLCD\test\Pain Drain\libraries\lvgl\src\core/lv_obj_style_gen.h **** {
 189:..\..\..\arduinoLCD\test\Pain Drain\libraries\lvgl\src\core/lv_obj_style_gen.h ****     lv_style_value_t v = lv_obj_get_style_prop(obj, part, LV_STYLE_BG_GRAD);
 190:..\..\..\arduinoLCD\test\Pain Drain\libraries\lvgl\src\core/lv_obj_style_gen.h ****     return (const lv_grad_dsc_t *)v.ptr;
 191:..\..\..\arduinoLCD\test\Pain Drain\libraries\lvgl\src\core/lv_obj_style_gen.h **** }
 192:..\..\..\arduinoLCD\test\Pain Drain\libraries\lvgl\src\core/lv_obj_style_gen.h **** 
 193:..\..\..\arduinoLCD\test\Pain Drain\libraries\lvgl\src\core/lv_obj_style_gen.h **** static inline lv_dither_mode_t lv_obj_get_style_bg_dither_mode(const struct _lv_obj_t * obj, uint32
 194:..\..\..\arduinoLCD\test\Pain Drain\libraries\lvgl\src\core/lv_obj_style_gen.h **** {
 195:..\..\..\arduinoLCD\test\Pain Drain\libraries\lvgl\src\core/lv_obj_style_gen.h ****     lv_style_value_t v = lv_obj_get_style_prop(obj, part, LV_STYLE_BG_DITHER_MODE);
 196:..\..\..\arduinoLCD\test\Pain Drain\libraries\lvgl\src\core/lv_obj_style_gen.h ****     return (lv_dither_mode_t)v.num;
 197:..\..\..\arduinoLCD\test\Pain Drain\libraries\lvgl\src\core/lv_obj_style_gen.h **** }
 198:..\..\..\arduinoLCD\test\Pain Drain\libraries\lvgl\src\core/lv_obj_style_gen.h **** 
 199:..\..\..\arduinoLCD\test\Pain Drain\libraries\lvgl\src\core/lv_obj_style_gen.h **** static inline const void * lv_obj_get_style_bg_img_src(const struct _lv_obj_t * obj, uint32_t part)
 200:..\..\..\arduinoLCD\test\Pain Drain\libraries\lvgl\src\core/lv_obj_style_gen.h **** {
 201:..\..\..\arduinoLCD\test\Pain Drain\libraries\lvgl\src\core/lv_obj_style_gen.h ****     lv_style_value_t v = lv_obj_get_style_prop(obj, part, LV_STYLE_BG_IMG_SRC);
 202:..\..\..\arduinoLCD\test\Pain Drain\libraries\lvgl\src\core/lv_obj_style_gen.h ****     return (const void *)v.ptr;
 203:..\..\..\arduinoLCD\test\Pain Drain\libraries\lvgl\src\core/lv_obj_style_gen.h **** }
 204:..\..\..\arduinoLCD\test\Pain Drain\libraries\lvgl\src\core/lv_obj_style_gen.h **** 
 205:..\..\..\arduinoLCD\test\Pain Drain\libraries\lvgl\src\core/lv_obj_style_gen.h **** static inline lv_opa_t lv_obj_get_style_bg_img_opa(const struct _lv_obj_t * obj, uint32_t part)
 206:..\..\..\arduinoLCD\test\Pain Drain\libraries\lvgl\src\core/lv_obj_style_gen.h **** {
 207:..\..\..\arduinoLCD\test\Pain Drain\libraries\lvgl\src\core/lv_obj_style_gen.h ****     lv_style_value_t v = lv_obj_get_style_prop(obj, part, LV_STYLE_BG_IMG_OPA);
 208:..\..\..\arduinoLCD\test\Pain Drain\libraries\lvgl\src\core/lv_obj_style_gen.h ****     return (lv_opa_t)v.num;
 209:..\..\..\arduinoLCD\test\Pain Drain\libraries\lvgl\src\core/lv_obj_style_gen.h **** }
 210:..\..\..\arduinoLCD\test\Pain Drain\libraries\lvgl\src\core/lv_obj_style_gen.h **** 
 211:..\..\..\arduinoLCD\test\Pain Drain\libraries\lvgl\src\core/lv_obj_style_gen.h **** static inline lv_color_t lv_obj_get_style_bg_img_recolor(const struct _lv_obj_t * obj, uint32_t par
 212:..\..\..\arduinoLCD\test\Pain Drain\libraries\lvgl\src\core/lv_obj_style_gen.h **** {
 213:..\..\..\arduinoLCD\test\Pain Drain\libraries\lvgl\src\core/lv_obj_style_gen.h ****     lv_style_value_t v = lv_obj_get_style_prop(obj, part, LV_STYLE_BG_IMG_RECOLOR);
 214:..\..\..\arduinoLCD\test\Pain Drain\libraries\lvgl\src\core/lv_obj_style_gen.h ****     return v.color;
 215:..\..\..\arduinoLCD\test\Pain Drain\libraries\lvgl\src\core/lv_obj_style_gen.h **** }
 216:..\..\..\arduinoLCD\test\Pain Drain\libraries\lvgl\src\core/lv_obj_style_gen.h **** 
 217:..\..\..\arduinoLCD\test\Pain Drain\libraries\lvgl\src\core/lv_obj_style_gen.h **** static inline lv_color_t lv_obj_get_style_bg_img_recolor_filtered(const struct _lv_obj_t * obj, uin
 218:..\..\..\arduinoLCD\test\Pain Drain\libraries\lvgl\src\core/lv_obj_style_gen.h **** {
 219:..\..\..\arduinoLCD\test\Pain Drain\libraries\lvgl\src\core/lv_obj_style_gen.h ****     lv_style_value_t v = _lv_obj_style_apply_color_filter(obj, part, lv_obj_get_style_prop(obj, par
 220:..\..\..\arduinoLCD\test\Pain Drain\libraries\lvgl\src\core/lv_obj_style_gen.h ****     return v.color;
 221:..\..\..\arduinoLCD\test\Pain Drain\libraries\lvgl\src\core/lv_obj_style_gen.h **** }
 222:..\..\..\arduinoLCD\test\Pain Drain\libraries\lvgl\src\core/lv_obj_style_gen.h **** 
ARM GAS  C:\Users\haske\AppData\Local\Temp\cc2IOi1w.s 			page 27


 223:..\..\..\arduinoLCD\test\Pain Drain\libraries\lvgl\src\core/lv_obj_style_gen.h **** static inline lv_opa_t lv_obj_get_style_bg_img_recolor_opa(const struct _lv_obj_t * obj, uint32_t p
 224:..\..\..\arduinoLCD\test\Pain Drain\libraries\lvgl\src\core/lv_obj_style_gen.h **** {
 225:..\..\..\arduinoLCD\test\Pain Drain\libraries\lvgl\src\core/lv_obj_style_gen.h ****     lv_style_value_t v = lv_obj_get_style_prop(obj, part, LV_STYLE_BG_IMG_RECOLOR_OPA);
 226:..\..\..\arduinoLCD\test\Pain Drain\libraries\lvgl\src\core/lv_obj_style_gen.h ****     return (lv_opa_t)v.num;
 227:..\..\..\arduinoLCD\test\Pain Drain\libraries\lvgl\src\core/lv_obj_style_gen.h **** }
 228:..\..\..\arduinoLCD\test\Pain Drain\libraries\lvgl\src\core/lv_obj_style_gen.h **** 
 229:..\..\..\arduinoLCD\test\Pain Drain\libraries\lvgl\src\core/lv_obj_style_gen.h **** static inline bool lv_obj_get_style_bg_img_tiled(const struct _lv_obj_t * obj, uint32_t part)
 230:..\..\..\arduinoLCD\test\Pain Drain\libraries\lvgl\src\core/lv_obj_style_gen.h **** {
 231:..\..\..\arduinoLCD\test\Pain Drain\libraries\lvgl\src\core/lv_obj_style_gen.h ****     lv_style_value_t v = lv_obj_get_style_prop(obj, part, LV_STYLE_BG_IMG_TILED);
 232:..\..\..\arduinoLCD\test\Pain Drain\libraries\lvgl\src\core/lv_obj_style_gen.h ****     return (bool)v.num;
 233:..\..\..\arduinoLCD\test\Pain Drain\libraries\lvgl\src\core/lv_obj_style_gen.h **** }
 234:..\..\..\arduinoLCD\test\Pain Drain\libraries\lvgl\src\core/lv_obj_style_gen.h **** 
 235:..\..\..\arduinoLCD\test\Pain Drain\libraries\lvgl\src\core/lv_obj_style_gen.h **** static inline lv_color_t lv_obj_get_style_border_color(const struct _lv_obj_t * obj, uint32_t part)
 236:..\..\..\arduinoLCD\test\Pain Drain\libraries\lvgl\src\core/lv_obj_style_gen.h **** {
 237:..\..\..\arduinoLCD\test\Pain Drain\libraries\lvgl\src\core/lv_obj_style_gen.h ****     lv_style_value_t v = lv_obj_get_style_prop(obj, part, LV_STYLE_BORDER_COLOR);
 238:..\..\..\arduinoLCD\test\Pain Drain\libraries\lvgl\src\core/lv_obj_style_gen.h ****     return v.color;
 239:..\..\..\arduinoLCD\test\Pain Drain\libraries\lvgl\src\core/lv_obj_style_gen.h **** }
 240:..\..\..\arduinoLCD\test\Pain Drain\libraries\lvgl\src\core/lv_obj_style_gen.h **** 
 241:..\..\..\arduinoLCD\test\Pain Drain\libraries\lvgl\src\core/lv_obj_style_gen.h **** static inline lv_color_t lv_obj_get_style_border_color_filtered(const struct _lv_obj_t * obj, uint3
 242:..\..\..\arduinoLCD\test\Pain Drain\libraries\lvgl\src\core/lv_obj_style_gen.h **** {
 243:..\..\..\arduinoLCD\test\Pain Drain\libraries\lvgl\src\core/lv_obj_style_gen.h ****     lv_style_value_t v = _lv_obj_style_apply_color_filter(obj, part, lv_obj_get_style_prop(obj, par
 244:..\..\..\arduinoLCD\test\Pain Drain\libraries\lvgl\src\core/lv_obj_style_gen.h ****     return v.color;
 245:..\..\..\arduinoLCD\test\Pain Drain\libraries\lvgl\src\core/lv_obj_style_gen.h **** }
 246:..\..\..\arduinoLCD\test\Pain Drain\libraries\lvgl\src\core/lv_obj_style_gen.h **** 
 247:..\..\..\arduinoLCD\test\Pain Drain\libraries\lvgl\src\core/lv_obj_style_gen.h **** static inline lv_opa_t lv_obj_get_style_border_opa(const struct _lv_obj_t * obj, uint32_t part)
 248:..\..\..\arduinoLCD\test\Pain Drain\libraries\lvgl\src\core/lv_obj_style_gen.h **** {
 249:..\..\..\arduinoLCD\test\Pain Drain\libraries\lvgl\src\core/lv_obj_style_gen.h ****     lv_style_value_t v = lv_obj_get_style_prop(obj, part, LV_STYLE_BORDER_OPA);
 250:..\..\..\arduinoLCD\test\Pain Drain\libraries\lvgl\src\core/lv_obj_style_gen.h ****     return (lv_opa_t)v.num;
 251:..\..\..\arduinoLCD\test\Pain Drain\libraries\lvgl\src\core/lv_obj_style_gen.h **** }
 252:..\..\..\arduinoLCD\test\Pain Drain\libraries\lvgl\src\core/lv_obj_style_gen.h **** 
 253:..\..\..\arduinoLCD\test\Pain Drain\libraries\lvgl\src\core/lv_obj_style_gen.h **** static inline lv_coord_t lv_obj_get_style_border_width(const struct _lv_obj_t * obj, uint32_t part)
 254:..\..\..\arduinoLCD\test\Pain Drain\libraries\lvgl\src\core/lv_obj_style_gen.h **** {
 255:..\..\..\arduinoLCD\test\Pain Drain\libraries\lvgl\src\core/lv_obj_style_gen.h ****     lv_style_value_t v = lv_obj_get_style_prop(obj, part, LV_STYLE_BORDER_WIDTH);
 517              		.loc 2 255 0
 518 004c 3222     		movs	r2, #50
 519 004e 0021     		movs	r1, #0
 520 0050 3046     		mov	r0, r6
 521 0052 FFF7FEFF 		bl	lv_obj_get_style_prop
 522              	.LVL55:
 523 0056 0446     		mov	r4, r0
 524              	.LVL56:
 525              	.LBE105:
 526              	.LBE104:
 151:..\..\..\arduinoLCD\test\Pain Drain\libraries\lvgl\src\core/lv_obj_scroll.c ****         child_res -= (obj->coords.y2 - pad_bottom - border_width);
 527              		.loc 1 151 0
 528 0058 104B     		ldr	r3, .L40
 529 005a 9F42     		cmp	r7, r3
 530 005c 06D0     		beq	.L38
 152:..\..\..\arduinoLCD\test\Pain Drain\libraries\lvgl\src\core/lv_obj_scroll.c ****     }
 531              		.loc 1 152 0
 532 005e B6F91A30 		ldrsh	r3, [r6, #26]
 533 0062 C3EB0803 		rsb	r3, r3, r8
 534 0066 0344     		add	r3, r3, r0
 535 0068 1F44     		add	r7, r7, r3
 536              	.LVL57:
 537 006a 3FB2     		sxth	r7, r7
 538              	.LVL58:
ARM GAS  C:\Users\haske\AppData\Local\Temp\cc2IOi1w.s 			page 28


 539              	.L38:
 155:..\..\..\arduinoLCD\test\Pain Drain\libraries\lvgl\src\core/lv_obj_scroll.c ****     self_h = self_h - (lv_obj_get_height(obj) - pad_top - pad_bottom - 2 * border_width);
 540              		.loc 1 155 0
 541 006c 3046     		mov	r0, r6
 542 006e FFF7FEFF 		bl	lv_obj_get_self_height
 543              	.LVL59:
 544 0072 0546     		mov	r5, r0
 545              	.LVL60:
 156:..\..\..\arduinoLCD\test\Pain Drain\libraries\lvgl\src\core/lv_obj_scroll.c ****     self_h -= lv_obj_get_scroll_y(obj);
 546              		.loc 1 156 0
 547 0074 3046     		mov	r0, r6
 548 0076 FFF7FEFF 		bl	lv_obj_get_height
 549              	.LVL61:
 550 007a C0EB0900 		rsb	r0, r0, r9
 551 007e 8044     		add	r8, r8, r0
 552 0080 08EB4404 		add	r4, r8, r4, lsl #1
 553 0084 2C44     		add	r4, r4, r5
 554 0086 A4B2     		uxth	r4, r4
 555              	.LVL62:
 157:..\..\..\arduinoLCD\test\Pain Drain\libraries\lvgl\src\core/lv_obj_scroll.c ****     return LV_MAX(child_res, self_h);
 556              		.loc 1 157 0
 557 0088 3046     		mov	r0, r6
 558 008a FFF7FEFF 		bl	lv_obj_get_scroll_y
 559              	.LVL63:
 560 008e 201A     		subs	r0, r4, r0
 561 0090 00B2     		sxth	r0, r0
 562              	.LVL64:
 159:..\..\..\arduinoLCD\test\Pain Drain\libraries\lvgl\src\core/lv_obj_scroll.c **** 
 563              		.loc 1 159 0
 564 0092 B842     		cmp	r0, r7
 565 0094 B8BF     		it	lt
 566 0096 3846     		movlt	r0, r7
 567              	.LVL65:
 568 0098 BDE8F883 		pop	{r3, r4, r5, r6, r7, r8, r9, pc}
 569              	.LVL66:
 570              	.L41:
 571              		.align	2
 572              	.L40:
 573 009c 01E0FFFF 		.word	-8191
 574 00a0 01000400 		.word	262145
 575              		.cfi_endproc
 576              	.LFE176:
 577              		.size	lv_obj_get_scroll_bottom, .-lv_obj_get_scroll_bottom
 578              		.section	.text.lv_obj_get_scroll_left,"ax",%progbits
 579              		.align	2
 580              		.global	lv_obj_get_scroll_left
 581              		.thumb
 582              		.thumb_func
 583              		.type	lv_obj_get_scroll_left, %function
 584              	lv_obj_get_scroll_left:
 585              	.LFB177:
 162:..\..\..\arduinoLCD\test\Pain Drain\libraries\lvgl\src\core/lv_obj_scroll.c ****     LV_ASSERT_OBJ(obj, MY_CLASS);
 586              		.loc 1 162 0
 587              		.cfi_startproc
 588              		@ args = 0, pretend = 0, frame = 0
 589              		@ frame_needed = 0, uses_anonymous_args = 0
 590              	.LVL67:
ARM GAS  C:\Users\haske\AppData\Local\Temp\cc2IOi1w.s 			page 29


 591 0000 2DE9F84F 		push	{r3, r4, r5, r6, r7, r8, r9, r10, fp, lr}
 592              		.cfi_def_cfa_offset 40
 593              		.cfi_offset 3, -40
 594              		.cfi_offset 4, -36
 595              		.cfi_offset 5, -32
 596              		.cfi_offset 6, -28
 597              		.cfi_offset 7, -24
 598              		.cfi_offset 8, -20
 599              		.cfi_offset 9, -16
 600              		.cfi_offset 10, -12
 601              		.cfi_offset 11, -8
 602              		.cfi_offset 14, -4
 603 0004 0746     		mov	r7, r0
 604              	.LVL68:
 605              	.LBB106:
 606              	.LBB107:
 256:..\..\..\arduinoLCD\test\Pain Drain\libraries\lvgl\src\core/lv_obj_style_gen.h ****     return (lv_coord_t)v.num;
 257:..\..\..\arduinoLCD\test\Pain Drain\libraries\lvgl\src\core/lv_obj_style_gen.h **** }
 258:..\..\..\arduinoLCD\test\Pain Drain\libraries\lvgl\src\core/lv_obj_style_gen.h **** 
 259:..\..\..\arduinoLCD\test\Pain Drain\libraries\lvgl\src\core/lv_obj_style_gen.h **** static inline lv_border_side_t lv_obj_get_style_border_side(const struct _lv_obj_t * obj, uint32_t 
 260:..\..\..\arduinoLCD\test\Pain Drain\libraries\lvgl\src\core/lv_obj_style_gen.h **** {
 261:..\..\..\arduinoLCD\test\Pain Drain\libraries\lvgl\src\core/lv_obj_style_gen.h ****     lv_style_value_t v = lv_obj_get_style_prop(obj, part, LV_STYLE_BORDER_SIDE);
 262:..\..\..\arduinoLCD\test\Pain Drain\libraries\lvgl\src\core/lv_obj_style_gen.h ****     return (lv_border_side_t)v.num;
 263:..\..\..\arduinoLCD\test\Pain Drain\libraries\lvgl\src\core/lv_obj_style_gen.h **** }
 264:..\..\..\arduinoLCD\test\Pain Drain\libraries\lvgl\src\core/lv_obj_style_gen.h **** 
 265:..\..\..\arduinoLCD\test\Pain Drain\libraries\lvgl\src\core/lv_obj_style_gen.h **** static inline bool lv_obj_get_style_border_post(const struct _lv_obj_t * obj, uint32_t part)
 266:..\..\..\arduinoLCD\test\Pain Drain\libraries\lvgl\src\core/lv_obj_style_gen.h **** {
 267:..\..\..\arduinoLCD\test\Pain Drain\libraries\lvgl\src\core/lv_obj_style_gen.h ****     lv_style_value_t v = lv_obj_get_style_prop(obj, part, LV_STYLE_BORDER_POST);
 268:..\..\..\arduinoLCD\test\Pain Drain\libraries\lvgl\src\core/lv_obj_style_gen.h ****     return (bool)v.num;
 269:..\..\..\arduinoLCD\test\Pain Drain\libraries\lvgl\src\core/lv_obj_style_gen.h **** }
 270:..\..\..\arduinoLCD\test\Pain Drain\libraries\lvgl\src\core/lv_obj_style_gen.h **** 
 271:..\..\..\arduinoLCD\test\Pain Drain\libraries\lvgl\src\core/lv_obj_style_gen.h **** static inline lv_coord_t lv_obj_get_style_outline_width(const struct _lv_obj_t * obj, uint32_t part
 272:..\..\..\arduinoLCD\test\Pain Drain\libraries\lvgl\src\core/lv_obj_style_gen.h **** {
 273:..\..\..\arduinoLCD\test\Pain Drain\libraries\lvgl\src\core/lv_obj_style_gen.h ****     lv_style_value_t v = lv_obj_get_style_prop(obj, part, LV_STYLE_OUTLINE_WIDTH);
 274:..\..\..\arduinoLCD\test\Pain Drain\libraries\lvgl\src\core/lv_obj_style_gen.h ****     return (lv_coord_t)v.num;
 275:..\..\..\arduinoLCD\test\Pain Drain\libraries\lvgl\src\core/lv_obj_style_gen.h **** }
 276:..\..\..\arduinoLCD\test\Pain Drain\libraries\lvgl\src\core/lv_obj_style_gen.h **** 
 277:..\..\..\arduinoLCD\test\Pain Drain\libraries\lvgl\src\core/lv_obj_style_gen.h **** static inline lv_color_t lv_obj_get_style_outline_color(const struct _lv_obj_t * obj, uint32_t part
 278:..\..\..\arduinoLCD\test\Pain Drain\libraries\lvgl\src\core/lv_obj_style_gen.h **** {
 279:..\..\..\arduinoLCD\test\Pain Drain\libraries\lvgl\src\core/lv_obj_style_gen.h ****     lv_style_value_t v = lv_obj_get_style_prop(obj, part, LV_STYLE_OUTLINE_COLOR);
 280:..\..\..\arduinoLCD\test\Pain Drain\libraries\lvgl\src\core/lv_obj_style_gen.h ****     return v.color;
 281:..\..\..\arduinoLCD\test\Pain Drain\libraries\lvgl\src\core/lv_obj_style_gen.h **** }
 282:..\..\..\arduinoLCD\test\Pain Drain\libraries\lvgl\src\core/lv_obj_style_gen.h **** 
 283:..\..\..\arduinoLCD\test\Pain Drain\libraries\lvgl\src\core/lv_obj_style_gen.h **** static inline lv_color_t lv_obj_get_style_outline_color_filtered(const struct _lv_obj_t * obj, uint
 284:..\..\..\arduinoLCD\test\Pain Drain\libraries\lvgl\src\core/lv_obj_style_gen.h **** {
 285:..\..\..\arduinoLCD\test\Pain Drain\libraries\lvgl\src\core/lv_obj_style_gen.h ****     lv_style_value_t v = _lv_obj_style_apply_color_filter(obj, part, lv_obj_get_style_prop(obj, par
 286:..\..\..\arduinoLCD\test\Pain Drain\libraries\lvgl\src\core/lv_obj_style_gen.h ****     return v.color;
 287:..\..\..\arduinoLCD\test\Pain Drain\libraries\lvgl\src\core/lv_obj_style_gen.h **** }
 288:..\..\..\arduinoLCD\test\Pain Drain\libraries\lvgl\src\core/lv_obj_style_gen.h **** 
 289:..\..\..\arduinoLCD\test\Pain Drain\libraries\lvgl\src\core/lv_obj_style_gen.h **** static inline lv_opa_t lv_obj_get_style_outline_opa(const struct _lv_obj_t * obj, uint32_t part)
 290:..\..\..\arduinoLCD\test\Pain Drain\libraries\lvgl\src\core/lv_obj_style_gen.h **** {
 291:..\..\..\arduinoLCD\test\Pain Drain\libraries\lvgl\src\core/lv_obj_style_gen.h ****     lv_style_value_t v = lv_obj_get_style_prop(obj, part, LV_STYLE_OUTLINE_OPA);
 292:..\..\..\arduinoLCD\test\Pain Drain\libraries\lvgl\src\core/lv_obj_style_gen.h ****     return (lv_opa_t)v.num;
 293:..\..\..\arduinoLCD\test\Pain Drain\libraries\lvgl\src\core/lv_obj_style_gen.h **** }
 294:..\..\..\arduinoLCD\test\Pain Drain\libraries\lvgl\src\core/lv_obj_style_gen.h **** 
 295:..\..\..\arduinoLCD\test\Pain Drain\libraries\lvgl\src\core/lv_obj_style_gen.h **** static inline lv_coord_t lv_obj_get_style_outline_pad(const struct _lv_obj_t * obj, uint32_t part)
 296:..\..\..\arduinoLCD\test\Pain Drain\libraries\lvgl\src\core/lv_obj_style_gen.h **** {
ARM GAS  C:\Users\haske\AppData\Local\Temp\cc2IOi1w.s 			page 30


 297:..\..\..\arduinoLCD\test\Pain Drain\libraries\lvgl\src\core/lv_obj_style_gen.h ****     lv_style_value_t v = lv_obj_get_style_prop(obj, part, LV_STYLE_OUTLINE_PAD);
 298:..\..\..\arduinoLCD\test\Pain Drain\libraries\lvgl\src\core/lv_obj_style_gen.h ****     return (lv_coord_t)v.num;
 299:..\..\..\arduinoLCD\test\Pain Drain\libraries\lvgl\src\core/lv_obj_style_gen.h **** }
 300:..\..\..\arduinoLCD\test\Pain Drain\libraries\lvgl\src\core/lv_obj_style_gen.h **** 
 301:..\..\..\arduinoLCD\test\Pain Drain\libraries\lvgl\src\core/lv_obj_style_gen.h **** static inline lv_coord_t lv_obj_get_style_shadow_width(const struct _lv_obj_t * obj, uint32_t part)
 302:..\..\..\arduinoLCD\test\Pain Drain\libraries\lvgl\src\core/lv_obj_style_gen.h **** {
 303:..\..\..\arduinoLCD\test\Pain Drain\libraries\lvgl\src\core/lv_obj_style_gen.h ****     lv_style_value_t v = lv_obj_get_style_prop(obj, part, LV_STYLE_SHADOW_WIDTH);
 304:..\..\..\arduinoLCD\test\Pain Drain\libraries\lvgl\src\core/lv_obj_style_gen.h ****     return (lv_coord_t)v.num;
 305:..\..\..\arduinoLCD\test\Pain Drain\libraries\lvgl\src\core/lv_obj_style_gen.h **** }
 306:..\..\..\arduinoLCD\test\Pain Drain\libraries\lvgl\src\core/lv_obj_style_gen.h **** 
 307:..\..\..\arduinoLCD\test\Pain Drain\libraries\lvgl\src\core/lv_obj_style_gen.h **** static inline lv_coord_t lv_obj_get_style_shadow_ofs_x(const struct _lv_obj_t * obj, uint32_t part)
 308:..\..\..\arduinoLCD\test\Pain Drain\libraries\lvgl\src\core/lv_obj_style_gen.h **** {
 309:..\..\..\arduinoLCD\test\Pain Drain\libraries\lvgl\src\core/lv_obj_style_gen.h ****     lv_style_value_t v = lv_obj_get_style_prop(obj, part, LV_STYLE_SHADOW_OFS_X);
 310:..\..\..\arduinoLCD\test\Pain Drain\libraries\lvgl\src\core/lv_obj_style_gen.h ****     return (lv_coord_t)v.num;
 311:..\..\..\arduinoLCD\test\Pain Drain\libraries\lvgl\src\core/lv_obj_style_gen.h **** }
 312:..\..\..\arduinoLCD\test\Pain Drain\libraries\lvgl\src\core/lv_obj_style_gen.h **** 
 313:..\..\..\arduinoLCD\test\Pain Drain\libraries\lvgl\src\core/lv_obj_style_gen.h **** static inline lv_coord_t lv_obj_get_style_shadow_ofs_y(const struct _lv_obj_t * obj, uint32_t part)
 314:..\..\..\arduinoLCD\test\Pain Drain\libraries\lvgl\src\core/lv_obj_style_gen.h **** {
 315:..\..\..\arduinoLCD\test\Pain Drain\libraries\lvgl\src\core/lv_obj_style_gen.h ****     lv_style_value_t v = lv_obj_get_style_prop(obj, part, LV_STYLE_SHADOW_OFS_Y);
 316:..\..\..\arduinoLCD\test\Pain Drain\libraries\lvgl\src\core/lv_obj_style_gen.h ****     return (lv_coord_t)v.num;
 317:..\..\..\arduinoLCD\test\Pain Drain\libraries\lvgl\src\core/lv_obj_style_gen.h **** }
 318:..\..\..\arduinoLCD\test\Pain Drain\libraries\lvgl\src\core/lv_obj_style_gen.h **** 
 319:..\..\..\arduinoLCD\test\Pain Drain\libraries\lvgl\src\core/lv_obj_style_gen.h **** static inline lv_coord_t lv_obj_get_style_shadow_spread(const struct _lv_obj_t * obj, uint32_t part
 320:..\..\..\arduinoLCD\test\Pain Drain\libraries\lvgl\src\core/lv_obj_style_gen.h **** {
 321:..\..\..\arduinoLCD\test\Pain Drain\libraries\lvgl\src\core/lv_obj_style_gen.h ****     lv_style_value_t v = lv_obj_get_style_prop(obj, part, LV_STYLE_SHADOW_SPREAD);
 322:..\..\..\arduinoLCD\test\Pain Drain\libraries\lvgl\src\core/lv_obj_style_gen.h ****     return (lv_coord_t)v.num;
 323:..\..\..\arduinoLCD\test\Pain Drain\libraries\lvgl\src\core/lv_obj_style_gen.h **** }
 324:..\..\..\arduinoLCD\test\Pain Drain\libraries\lvgl\src\core/lv_obj_style_gen.h **** 
 325:..\..\..\arduinoLCD\test\Pain Drain\libraries\lvgl\src\core/lv_obj_style_gen.h **** static inline lv_color_t lv_obj_get_style_shadow_color(const struct _lv_obj_t * obj, uint32_t part)
 326:..\..\..\arduinoLCD\test\Pain Drain\libraries\lvgl\src\core/lv_obj_style_gen.h **** {
 327:..\..\..\arduinoLCD\test\Pain Drain\libraries\lvgl\src\core/lv_obj_style_gen.h ****     lv_style_value_t v = lv_obj_get_style_prop(obj, part, LV_STYLE_SHADOW_COLOR);
 328:..\..\..\arduinoLCD\test\Pain Drain\libraries\lvgl\src\core/lv_obj_style_gen.h ****     return v.color;
 329:..\..\..\arduinoLCD\test\Pain Drain\libraries\lvgl\src\core/lv_obj_style_gen.h **** }
 330:..\..\..\arduinoLCD\test\Pain Drain\libraries\lvgl\src\core/lv_obj_style_gen.h **** 
 331:..\..\..\arduinoLCD\test\Pain Drain\libraries\lvgl\src\core/lv_obj_style_gen.h **** static inline lv_color_t lv_obj_get_style_shadow_color_filtered(const struct _lv_obj_t * obj, uint3
 332:..\..\..\arduinoLCD\test\Pain Drain\libraries\lvgl\src\core/lv_obj_style_gen.h **** {
 333:..\..\..\arduinoLCD\test\Pain Drain\libraries\lvgl\src\core/lv_obj_style_gen.h ****     lv_style_value_t v = _lv_obj_style_apply_color_filter(obj, part, lv_obj_get_style_prop(obj, par
 334:..\..\..\arduinoLCD\test\Pain Drain\libraries\lvgl\src\core/lv_obj_style_gen.h ****     return v.color;
 335:..\..\..\arduinoLCD\test\Pain Drain\libraries\lvgl\src\core/lv_obj_style_gen.h **** }
 336:..\..\..\arduinoLCD\test\Pain Drain\libraries\lvgl\src\core/lv_obj_style_gen.h **** 
 337:..\..\..\arduinoLCD\test\Pain Drain\libraries\lvgl\src\core/lv_obj_style_gen.h **** static inline lv_opa_t lv_obj_get_style_shadow_opa(const struct _lv_obj_t * obj, uint32_t part)
 338:..\..\..\arduinoLCD\test\Pain Drain\libraries\lvgl\src\core/lv_obj_style_gen.h **** {
 339:..\..\..\arduinoLCD\test\Pain Drain\libraries\lvgl\src\core/lv_obj_style_gen.h ****     lv_style_value_t v = lv_obj_get_style_prop(obj, part, LV_STYLE_SHADOW_OPA);
 340:..\..\..\arduinoLCD\test\Pain Drain\libraries\lvgl\src\core/lv_obj_style_gen.h ****     return (lv_opa_t)v.num;
 341:..\..\..\arduinoLCD\test\Pain Drain\libraries\lvgl\src\core/lv_obj_style_gen.h **** }
 342:..\..\..\arduinoLCD\test\Pain Drain\libraries\lvgl\src\core/lv_obj_style_gen.h **** 
 343:..\..\..\arduinoLCD\test\Pain Drain\libraries\lvgl\src\core/lv_obj_style_gen.h **** static inline lv_opa_t lv_obj_get_style_img_opa(const struct _lv_obj_t * obj, uint32_t part)
 344:..\..\..\arduinoLCD\test\Pain Drain\libraries\lvgl\src\core/lv_obj_style_gen.h **** {
 345:..\..\..\arduinoLCD\test\Pain Drain\libraries\lvgl\src\core/lv_obj_style_gen.h ****     lv_style_value_t v = lv_obj_get_style_prop(obj, part, LV_STYLE_IMG_OPA);
 346:..\..\..\arduinoLCD\test\Pain Drain\libraries\lvgl\src\core/lv_obj_style_gen.h ****     return (lv_opa_t)v.num;
 347:..\..\..\arduinoLCD\test\Pain Drain\libraries\lvgl\src\core/lv_obj_style_gen.h **** }
 348:..\..\..\arduinoLCD\test\Pain Drain\libraries\lvgl\src\core/lv_obj_style_gen.h **** 
 349:..\..\..\arduinoLCD\test\Pain Drain\libraries\lvgl\src\core/lv_obj_style_gen.h **** static inline lv_color_t lv_obj_get_style_img_recolor(const struct _lv_obj_t * obj, uint32_t part)
 350:..\..\..\arduinoLCD\test\Pain Drain\libraries\lvgl\src\core/lv_obj_style_gen.h **** {
 351:..\..\..\arduinoLCD\test\Pain Drain\libraries\lvgl\src\core/lv_obj_style_gen.h ****     lv_style_value_t v = lv_obj_get_style_prop(obj, part, LV_STYLE_IMG_RECOLOR);
 352:..\..\..\arduinoLCD\test\Pain Drain\libraries\lvgl\src\core/lv_obj_style_gen.h ****     return v.color;
 353:..\..\..\arduinoLCD\test\Pain Drain\libraries\lvgl\src\core/lv_obj_style_gen.h **** }
ARM GAS  C:\Users\haske\AppData\Local\Temp\cc2IOi1w.s 			page 31


 354:..\..\..\arduinoLCD\test\Pain Drain\libraries\lvgl\src\core/lv_obj_style_gen.h **** 
 355:..\..\..\arduinoLCD\test\Pain Drain\libraries\lvgl\src\core/lv_obj_style_gen.h **** static inline lv_color_t lv_obj_get_style_img_recolor_filtered(const struct _lv_obj_t * obj, uint32
 356:..\..\..\arduinoLCD\test\Pain Drain\libraries\lvgl\src\core/lv_obj_style_gen.h **** {
 357:..\..\..\arduinoLCD\test\Pain Drain\libraries\lvgl\src\core/lv_obj_style_gen.h ****     lv_style_value_t v = _lv_obj_style_apply_color_filter(obj, part, lv_obj_get_style_prop(obj, par
 358:..\..\..\arduinoLCD\test\Pain Drain\libraries\lvgl\src\core/lv_obj_style_gen.h ****     return v.color;
 359:..\..\..\arduinoLCD\test\Pain Drain\libraries\lvgl\src\core/lv_obj_style_gen.h **** }
 360:..\..\..\arduinoLCD\test\Pain Drain\libraries\lvgl\src\core/lv_obj_style_gen.h **** 
 361:..\..\..\arduinoLCD\test\Pain Drain\libraries\lvgl\src\core/lv_obj_style_gen.h **** static inline lv_opa_t lv_obj_get_style_img_recolor_opa(const struct _lv_obj_t * obj, uint32_t part
 362:..\..\..\arduinoLCD\test\Pain Drain\libraries\lvgl\src\core/lv_obj_style_gen.h **** {
 363:..\..\..\arduinoLCD\test\Pain Drain\libraries\lvgl\src\core/lv_obj_style_gen.h ****     lv_style_value_t v = lv_obj_get_style_prop(obj, part, LV_STYLE_IMG_RECOLOR_OPA);
 364:..\..\..\arduinoLCD\test\Pain Drain\libraries\lvgl\src\core/lv_obj_style_gen.h ****     return (lv_opa_t)v.num;
 365:..\..\..\arduinoLCD\test\Pain Drain\libraries\lvgl\src\core/lv_obj_style_gen.h **** }
 366:..\..\..\arduinoLCD\test\Pain Drain\libraries\lvgl\src\core/lv_obj_style_gen.h **** 
 367:..\..\..\arduinoLCD\test\Pain Drain\libraries\lvgl\src\core/lv_obj_style_gen.h **** static inline lv_coord_t lv_obj_get_style_line_width(const struct _lv_obj_t * obj, uint32_t part)
 368:..\..\..\arduinoLCD\test\Pain Drain\libraries\lvgl\src\core/lv_obj_style_gen.h **** {
 369:..\..\..\arduinoLCD\test\Pain Drain\libraries\lvgl\src\core/lv_obj_style_gen.h ****     lv_style_value_t v = lv_obj_get_style_prop(obj, part, LV_STYLE_LINE_WIDTH);
 370:..\..\..\arduinoLCD\test\Pain Drain\libraries\lvgl\src\core/lv_obj_style_gen.h ****     return (lv_coord_t)v.num;
 371:..\..\..\arduinoLCD\test\Pain Drain\libraries\lvgl\src\core/lv_obj_style_gen.h **** }
 372:..\..\..\arduinoLCD\test\Pain Drain\libraries\lvgl\src\core/lv_obj_style_gen.h **** 
 373:..\..\..\arduinoLCD\test\Pain Drain\libraries\lvgl\src\core/lv_obj_style_gen.h **** static inline lv_coord_t lv_obj_get_style_line_dash_width(const struct _lv_obj_t * obj, uint32_t pa
 374:..\..\..\arduinoLCD\test\Pain Drain\libraries\lvgl\src\core/lv_obj_style_gen.h **** {
 375:..\..\..\arduinoLCD\test\Pain Drain\libraries\lvgl\src\core/lv_obj_style_gen.h ****     lv_style_value_t v = lv_obj_get_style_prop(obj, part, LV_STYLE_LINE_DASH_WIDTH);
 376:..\..\..\arduinoLCD\test\Pain Drain\libraries\lvgl\src\core/lv_obj_style_gen.h ****     return (lv_coord_t)v.num;
 377:..\..\..\arduinoLCD\test\Pain Drain\libraries\lvgl\src\core/lv_obj_style_gen.h **** }
 378:..\..\..\arduinoLCD\test\Pain Drain\libraries\lvgl\src\core/lv_obj_style_gen.h **** 
 379:..\..\..\arduinoLCD\test\Pain Drain\libraries\lvgl\src\core/lv_obj_style_gen.h **** static inline lv_coord_t lv_obj_get_style_line_dash_gap(const struct _lv_obj_t * obj, uint32_t part
 380:..\..\..\arduinoLCD\test\Pain Drain\libraries\lvgl\src\core/lv_obj_style_gen.h **** {
 381:..\..\..\arduinoLCD\test\Pain Drain\libraries\lvgl\src\core/lv_obj_style_gen.h ****     lv_style_value_t v = lv_obj_get_style_prop(obj, part, LV_STYLE_LINE_DASH_GAP);
 382:..\..\..\arduinoLCD\test\Pain Drain\libraries\lvgl\src\core/lv_obj_style_gen.h ****     return (lv_coord_t)v.num;
 383:..\..\..\arduinoLCD\test\Pain Drain\libraries\lvgl\src\core/lv_obj_style_gen.h **** }
 384:..\..\..\arduinoLCD\test\Pain Drain\libraries\lvgl\src\core/lv_obj_style_gen.h **** 
 385:..\..\..\arduinoLCD\test\Pain Drain\libraries\lvgl\src\core/lv_obj_style_gen.h **** static inline bool lv_obj_get_style_line_rounded(const struct _lv_obj_t * obj, uint32_t part)
 386:..\..\..\arduinoLCD\test\Pain Drain\libraries\lvgl\src\core/lv_obj_style_gen.h **** {
 387:..\..\..\arduinoLCD\test\Pain Drain\libraries\lvgl\src\core/lv_obj_style_gen.h ****     lv_style_value_t v = lv_obj_get_style_prop(obj, part, LV_STYLE_LINE_ROUNDED);
 388:..\..\..\arduinoLCD\test\Pain Drain\libraries\lvgl\src\core/lv_obj_style_gen.h ****     return (bool)v.num;
 389:..\..\..\arduinoLCD\test\Pain Drain\libraries\lvgl\src\core/lv_obj_style_gen.h **** }
 390:..\..\..\arduinoLCD\test\Pain Drain\libraries\lvgl\src\core/lv_obj_style_gen.h **** 
 391:..\..\..\arduinoLCD\test\Pain Drain\libraries\lvgl\src\core/lv_obj_style_gen.h **** static inline lv_color_t lv_obj_get_style_line_color(const struct _lv_obj_t * obj, uint32_t part)
 392:..\..\..\arduinoLCD\test\Pain Drain\libraries\lvgl\src\core/lv_obj_style_gen.h **** {
 393:..\..\..\arduinoLCD\test\Pain Drain\libraries\lvgl\src\core/lv_obj_style_gen.h ****     lv_style_value_t v = lv_obj_get_style_prop(obj, part, LV_STYLE_LINE_COLOR);
 394:..\..\..\arduinoLCD\test\Pain Drain\libraries\lvgl\src\core/lv_obj_style_gen.h ****     return v.color;
 395:..\..\..\arduinoLCD\test\Pain Drain\libraries\lvgl\src\core/lv_obj_style_gen.h **** }
 396:..\..\..\arduinoLCD\test\Pain Drain\libraries\lvgl\src\core/lv_obj_style_gen.h **** 
 397:..\..\..\arduinoLCD\test\Pain Drain\libraries\lvgl\src\core/lv_obj_style_gen.h **** static inline lv_color_t lv_obj_get_style_line_color_filtered(const struct _lv_obj_t * obj, uint32_
 398:..\..\..\arduinoLCD\test\Pain Drain\libraries\lvgl\src\core/lv_obj_style_gen.h **** {
 399:..\..\..\arduinoLCD\test\Pain Drain\libraries\lvgl\src\core/lv_obj_style_gen.h ****     lv_style_value_t v = _lv_obj_style_apply_color_filter(obj, part, lv_obj_get_style_prop(obj, par
 400:..\..\..\arduinoLCD\test\Pain Drain\libraries\lvgl\src\core/lv_obj_style_gen.h ****     return v.color;
 401:..\..\..\arduinoLCD\test\Pain Drain\libraries\lvgl\src\core/lv_obj_style_gen.h **** }
 402:..\..\..\arduinoLCD\test\Pain Drain\libraries\lvgl\src\core/lv_obj_style_gen.h **** 
 403:..\..\..\arduinoLCD\test\Pain Drain\libraries\lvgl\src\core/lv_obj_style_gen.h **** static inline lv_opa_t lv_obj_get_style_line_opa(const struct _lv_obj_t * obj, uint32_t part)
 404:..\..\..\arduinoLCD\test\Pain Drain\libraries\lvgl\src\core/lv_obj_style_gen.h **** {
 405:..\..\..\arduinoLCD\test\Pain Drain\libraries\lvgl\src\core/lv_obj_style_gen.h ****     lv_style_value_t v = lv_obj_get_style_prop(obj, part, LV_STYLE_LINE_OPA);
 406:..\..\..\arduinoLCD\test\Pain Drain\libraries\lvgl\src\core/lv_obj_style_gen.h ****     return (lv_opa_t)v.num;
 407:..\..\..\arduinoLCD\test\Pain Drain\libraries\lvgl\src\core/lv_obj_style_gen.h **** }
 408:..\..\..\arduinoLCD\test\Pain Drain\libraries\lvgl\src\core/lv_obj_style_gen.h **** 
 409:..\..\..\arduinoLCD\test\Pain Drain\libraries\lvgl\src\core/lv_obj_style_gen.h **** static inline lv_coord_t lv_obj_get_style_arc_width(const struct _lv_obj_t * obj, uint32_t part)
 410:..\..\..\arduinoLCD\test\Pain Drain\libraries\lvgl\src\core/lv_obj_style_gen.h **** {
ARM GAS  C:\Users\haske\AppData\Local\Temp\cc2IOi1w.s 			page 32


 411:..\..\..\arduinoLCD\test\Pain Drain\libraries\lvgl\src\core/lv_obj_style_gen.h ****     lv_style_value_t v = lv_obj_get_style_prop(obj, part, LV_STYLE_ARC_WIDTH);
 412:..\..\..\arduinoLCD\test\Pain Drain\libraries\lvgl\src\core/lv_obj_style_gen.h ****     return (lv_coord_t)v.num;
 413:..\..\..\arduinoLCD\test\Pain Drain\libraries\lvgl\src\core/lv_obj_style_gen.h **** }
 414:..\..\..\arduinoLCD\test\Pain Drain\libraries\lvgl\src\core/lv_obj_style_gen.h **** 
 415:..\..\..\arduinoLCD\test\Pain Drain\libraries\lvgl\src\core/lv_obj_style_gen.h **** static inline bool lv_obj_get_style_arc_rounded(const struct _lv_obj_t * obj, uint32_t part)
 416:..\..\..\arduinoLCD\test\Pain Drain\libraries\lvgl\src\core/lv_obj_style_gen.h **** {
 417:..\..\..\arduinoLCD\test\Pain Drain\libraries\lvgl\src\core/lv_obj_style_gen.h ****     lv_style_value_t v = lv_obj_get_style_prop(obj, part, LV_STYLE_ARC_ROUNDED);
 418:..\..\..\arduinoLCD\test\Pain Drain\libraries\lvgl\src\core/lv_obj_style_gen.h ****     return (bool)v.num;
 419:..\..\..\arduinoLCD\test\Pain Drain\libraries\lvgl\src\core/lv_obj_style_gen.h **** }
 420:..\..\..\arduinoLCD\test\Pain Drain\libraries\lvgl\src\core/lv_obj_style_gen.h **** 
 421:..\..\..\arduinoLCD\test\Pain Drain\libraries\lvgl\src\core/lv_obj_style_gen.h **** static inline lv_color_t lv_obj_get_style_arc_color(const struct _lv_obj_t * obj, uint32_t part)
 422:..\..\..\arduinoLCD\test\Pain Drain\libraries\lvgl\src\core/lv_obj_style_gen.h **** {
 423:..\..\..\arduinoLCD\test\Pain Drain\libraries\lvgl\src\core/lv_obj_style_gen.h ****     lv_style_value_t v = lv_obj_get_style_prop(obj, part, LV_STYLE_ARC_COLOR);
 424:..\..\..\arduinoLCD\test\Pain Drain\libraries\lvgl\src\core/lv_obj_style_gen.h ****     return v.color;
 425:..\..\..\arduinoLCD\test\Pain Drain\libraries\lvgl\src\core/lv_obj_style_gen.h **** }
 426:..\..\..\arduinoLCD\test\Pain Drain\libraries\lvgl\src\core/lv_obj_style_gen.h **** 
 427:..\..\..\arduinoLCD\test\Pain Drain\libraries\lvgl\src\core/lv_obj_style_gen.h **** static inline lv_color_t lv_obj_get_style_arc_color_filtered(const struct _lv_obj_t * obj, uint32_t
 428:..\..\..\arduinoLCD\test\Pain Drain\libraries\lvgl\src\core/lv_obj_style_gen.h **** {
 429:..\..\..\arduinoLCD\test\Pain Drain\libraries\lvgl\src\core/lv_obj_style_gen.h ****     lv_style_value_t v = _lv_obj_style_apply_color_filter(obj, part, lv_obj_get_style_prop(obj, par
 430:..\..\..\arduinoLCD\test\Pain Drain\libraries\lvgl\src\core/lv_obj_style_gen.h ****     return v.color;
 431:..\..\..\arduinoLCD\test\Pain Drain\libraries\lvgl\src\core/lv_obj_style_gen.h **** }
 432:..\..\..\arduinoLCD\test\Pain Drain\libraries\lvgl\src\core/lv_obj_style_gen.h **** 
 433:..\..\..\arduinoLCD\test\Pain Drain\libraries\lvgl\src\core/lv_obj_style_gen.h **** static inline lv_opa_t lv_obj_get_style_arc_opa(const struct _lv_obj_t * obj, uint32_t part)
 434:..\..\..\arduinoLCD\test\Pain Drain\libraries\lvgl\src\core/lv_obj_style_gen.h **** {
 435:..\..\..\arduinoLCD\test\Pain Drain\libraries\lvgl\src\core/lv_obj_style_gen.h ****     lv_style_value_t v = lv_obj_get_style_prop(obj, part, LV_STYLE_ARC_OPA);
 436:..\..\..\arduinoLCD\test\Pain Drain\libraries\lvgl\src\core/lv_obj_style_gen.h ****     return (lv_opa_t)v.num;
 437:..\..\..\arduinoLCD\test\Pain Drain\libraries\lvgl\src\core/lv_obj_style_gen.h **** }
 438:..\..\..\arduinoLCD\test\Pain Drain\libraries\lvgl\src\core/lv_obj_style_gen.h **** 
 439:..\..\..\arduinoLCD\test\Pain Drain\libraries\lvgl\src\core/lv_obj_style_gen.h **** static inline const void * lv_obj_get_style_arc_img_src(const struct _lv_obj_t * obj, uint32_t part
 440:..\..\..\arduinoLCD\test\Pain Drain\libraries\lvgl\src\core/lv_obj_style_gen.h **** {
 441:..\..\..\arduinoLCD\test\Pain Drain\libraries\lvgl\src\core/lv_obj_style_gen.h ****     lv_style_value_t v = lv_obj_get_style_prop(obj, part, LV_STYLE_ARC_IMG_SRC);
 442:..\..\..\arduinoLCD\test\Pain Drain\libraries\lvgl\src\core/lv_obj_style_gen.h ****     return (const void *)v.ptr;
 443:..\..\..\arduinoLCD\test\Pain Drain\libraries\lvgl\src\core/lv_obj_style_gen.h **** }
 444:..\..\..\arduinoLCD\test\Pain Drain\libraries\lvgl\src\core/lv_obj_style_gen.h **** 
 445:..\..\..\arduinoLCD\test\Pain Drain\libraries\lvgl\src\core/lv_obj_style_gen.h **** static inline lv_color_t lv_obj_get_style_text_color(const struct _lv_obj_t * obj, uint32_t part)
 446:..\..\..\arduinoLCD\test\Pain Drain\libraries\lvgl\src\core/lv_obj_style_gen.h **** {
 447:..\..\..\arduinoLCD\test\Pain Drain\libraries\lvgl\src\core/lv_obj_style_gen.h ****     lv_style_value_t v = lv_obj_get_style_prop(obj, part, LV_STYLE_TEXT_COLOR);
 448:..\..\..\arduinoLCD\test\Pain Drain\libraries\lvgl\src\core/lv_obj_style_gen.h ****     return v.color;
 449:..\..\..\arduinoLCD\test\Pain Drain\libraries\lvgl\src\core/lv_obj_style_gen.h **** }
 450:..\..\..\arduinoLCD\test\Pain Drain\libraries\lvgl\src\core/lv_obj_style_gen.h **** 
 451:..\..\..\arduinoLCD\test\Pain Drain\libraries\lvgl\src\core/lv_obj_style_gen.h **** static inline lv_color_t lv_obj_get_style_text_color_filtered(const struct _lv_obj_t * obj, uint32_
 452:..\..\..\arduinoLCD\test\Pain Drain\libraries\lvgl\src\core/lv_obj_style_gen.h **** {
 453:..\..\..\arduinoLCD\test\Pain Drain\libraries\lvgl\src\core/lv_obj_style_gen.h ****     lv_style_value_t v = _lv_obj_style_apply_color_filter(obj, part, lv_obj_get_style_prop(obj, par
 454:..\..\..\arduinoLCD\test\Pain Drain\libraries\lvgl\src\core/lv_obj_style_gen.h ****     return v.color;
 455:..\..\..\arduinoLCD\test\Pain Drain\libraries\lvgl\src\core/lv_obj_style_gen.h **** }
 456:..\..\..\arduinoLCD\test\Pain Drain\libraries\lvgl\src\core/lv_obj_style_gen.h **** 
 457:..\..\..\arduinoLCD\test\Pain Drain\libraries\lvgl\src\core/lv_obj_style_gen.h **** static inline lv_opa_t lv_obj_get_style_text_opa(const struct _lv_obj_t * obj, uint32_t part)
 458:..\..\..\arduinoLCD\test\Pain Drain\libraries\lvgl\src\core/lv_obj_style_gen.h **** {
 459:..\..\..\arduinoLCD\test\Pain Drain\libraries\lvgl\src\core/lv_obj_style_gen.h ****     lv_style_value_t v = lv_obj_get_style_prop(obj, part, LV_STYLE_TEXT_OPA);
 460:..\..\..\arduinoLCD\test\Pain Drain\libraries\lvgl\src\core/lv_obj_style_gen.h ****     return (lv_opa_t)v.num;
 461:..\..\..\arduinoLCD\test\Pain Drain\libraries\lvgl\src\core/lv_obj_style_gen.h **** }
 462:..\..\..\arduinoLCD\test\Pain Drain\libraries\lvgl\src\core/lv_obj_style_gen.h **** 
 463:..\..\..\arduinoLCD\test\Pain Drain\libraries\lvgl\src\core/lv_obj_style_gen.h **** static inline const lv_font_t * lv_obj_get_style_text_font(const struct _lv_obj_t * obj, uint32_t p
 464:..\..\..\arduinoLCD\test\Pain Drain\libraries\lvgl\src\core/lv_obj_style_gen.h **** {
 465:..\..\..\arduinoLCD\test\Pain Drain\libraries\lvgl\src\core/lv_obj_style_gen.h ****     lv_style_value_t v = lv_obj_get_style_prop(obj, part, LV_STYLE_TEXT_FONT);
 466:..\..\..\arduinoLCD\test\Pain Drain\libraries\lvgl\src\core/lv_obj_style_gen.h ****     return (const lv_font_t *)v.ptr;
 467:..\..\..\arduinoLCD\test\Pain Drain\libraries\lvgl\src\core/lv_obj_style_gen.h **** }
ARM GAS  C:\Users\haske\AppData\Local\Temp\cc2IOi1w.s 			page 33


 468:..\..\..\arduinoLCD\test\Pain Drain\libraries\lvgl\src\core/lv_obj_style_gen.h **** 
 469:..\..\..\arduinoLCD\test\Pain Drain\libraries\lvgl\src\core/lv_obj_style_gen.h **** static inline lv_coord_t lv_obj_get_style_text_letter_space(const struct _lv_obj_t * obj, uint32_t 
 470:..\..\..\arduinoLCD\test\Pain Drain\libraries\lvgl\src\core/lv_obj_style_gen.h **** {
 471:..\..\..\arduinoLCD\test\Pain Drain\libraries\lvgl\src\core/lv_obj_style_gen.h ****     lv_style_value_t v = lv_obj_get_style_prop(obj, part, LV_STYLE_TEXT_LETTER_SPACE);
 472:..\..\..\arduinoLCD\test\Pain Drain\libraries\lvgl\src\core/lv_obj_style_gen.h ****     return (lv_coord_t)v.num;
 473:..\..\..\arduinoLCD\test\Pain Drain\libraries\lvgl\src\core/lv_obj_style_gen.h **** }
 474:..\..\..\arduinoLCD\test\Pain Drain\libraries\lvgl\src\core/lv_obj_style_gen.h **** 
 475:..\..\..\arduinoLCD\test\Pain Drain\libraries\lvgl\src\core/lv_obj_style_gen.h **** static inline lv_coord_t lv_obj_get_style_text_line_space(const struct _lv_obj_t * obj, uint32_t pa
 476:..\..\..\arduinoLCD\test\Pain Drain\libraries\lvgl\src\core/lv_obj_style_gen.h **** {
 477:..\..\..\arduinoLCD\test\Pain Drain\libraries\lvgl\src\core/lv_obj_style_gen.h ****     lv_style_value_t v = lv_obj_get_style_prop(obj, part, LV_STYLE_TEXT_LINE_SPACE);
 478:..\..\..\arduinoLCD\test\Pain Drain\libraries\lvgl\src\core/lv_obj_style_gen.h ****     return (lv_coord_t)v.num;
 479:..\..\..\arduinoLCD\test\Pain Drain\libraries\lvgl\src\core/lv_obj_style_gen.h **** }
 480:..\..\..\arduinoLCD\test\Pain Drain\libraries\lvgl\src\core/lv_obj_style_gen.h **** 
 481:..\..\..\arduinoLCD\test\Pain Drain\libraries\lvgl\src\core/lv_obj_style_gen.h **** static inline lv_text_decor_t lv_obj_get_style_text_decor(const struct _lv_obj_t * obj, uint32_t pa
 482:..\..\..\arduinoLCD\test\Pain Drain\libraries\lvgl\src\core/lv_obj_style_gen.h **** {
 483:..\..\..\arduinoLCD\test\Pain Drain\libraries\lvgl\src\core/lv_obj_style_gen.h ****     lv_style_value_t v = lv_obj_get_style_prop(obj, part, LV_STYLE_TEXT_DECOR);
 484:..\..\..\arduinoLCD\test\Pain Drain\libraries\lvgl\src\core/lv_obj_style_gen.h ****     return (lv_text_decor_t)v.num;
 485:..\..\..\arduinoLCD\test\Pain Drain\libraries\lvgl\src\core/lv_obj_style_gen.h **** }
 486:..\..\..\arduinoLCD\test\Pain Drain\libraries\lvgl\src\core/lv_obj_style_gen.h **** 
 487:..\..\..\arduinoLCD\test\Pain Drain\libraries\lvgl\src\core/lv_obj_style_gen.h **** static inline lv_text_align_t lv_obj_get_style_text_align(const struct _lv_obj_t * obj, uint32_t pa
 488:..\..\..\arduinoLCD\test\Pain Drain\libraries\lvgl\src\core/lv_obj_style_gen.h **** {
 489:..\..\..\arduinoLCD\test\Pain Drain\libraries\lvgl\src\core/lv_obj_style_gen.h ****     lv_style_value_t v = lv_obj_get_style_prop(obj, part, LV_STYLE_TEXT_ALIGN);
 490:..\..\..\arduinoLCD\test\Pain Drain\libraries\lvgl\src\core/lv_obj_style_gen.h ****     return (lv_text_align_t)v.num;
 491:..\..\..\arduinoLCD\test\Pain Drain\libraries\lvgl\src\core/lv_obj_style_gen.h **** }
 492:..\..\..\arduinoLCD\test\Pain Drain\libraries\lvgl\src\core/lv_obj_style_gen.h **** 
 493:..\..\..\arduinoLCD\test\Pain Drain\libraries\lvgl\src\core/lv_obj_style_gen.h **** static inline lv_coord_t lv_obj_get_style_radius(const struct _lv_obj_t * obj, uint32_t part)
 494:..\..\..\arduinoLCD\test\Pain Drain\libraries\lvgl\src\core/lv_obj_style_gen.h **** {
 495:..\..\..\arduinoLCD\test\Pain Drain\libraries\lvgl\src\core/lv_obj_style_gen.h ****     lv_style_value_t v = lv_obj_get_style_prop(obj, part, LV_STYLE_RADIUS);
 496:..\..\..\arduinoLCD\test\Pain Drain\libraries\lvgl\src\core/lv_obj_style_gen.h ****     return (lv_coord_t)v.num;
 497:..\..\..\arduinoLCD\test\Pain Drain\libraries\lvgl\src\core/lv_obj_style_gen.h **** }
 498:..\..\..\arduinoLCD\test\Pain Drain\libraries\lvgl\src\core/lv_obj_style_gen.h **** 
 499:..\..\..\arduinoLCD\test\Pain Drain\libraries\lvgl\src\core/lv_obj_style_gen.h **** static inline bool lv_obj_get_style_clip_corner(const struct _lv_obj_t * obj, uint32_t part)
 500:..\..\..\arduinoLCD\test\Pain Drain\libraries\lvgl\src\core/lv_obj_style_gen.h **** {
 501:..\..\..\arduinoLCD\test\Pain Drain\libraries\lvgl\src\core/lv_obj_style_gen.h ****     lv_style_value_t v = lv_obj_get_style_prop(obj, part, LV_STYLE_CLIP_CORNER);
 502:..\..\..\arduinoLCD\test\Pain Drain\libraries\lvgl\src\core/lv_obj_style_gen.h ****     return (bool)v.num;
 503:..\..\..\arduinoLCD\test\Pain Drain\libraries\lvgl\src\core/lv_obj_style_gen.h **** }
 504:..\..\..\arduinoLCD\test\Pain Drain\libraries\lvgl\src\core/lv_obj_style_gen.h **** 
 505:..\..\..\arduinoLCD\test\Pain Drain\libraries\lvgl\src\core/lv_obj_style_gen.h **** static inline lv_opa_t lv_obj_get_style_opa(const struct _lv_obj_t * obj, uint32_t part)
 506:..\..\..\arduinoLCD\test\Pain Drain\libraries\lvgl\src\core/lv_obj_style_gen.h **** {
 507:..\..\..\arduinoLCD\test\Pain Drain\libraries\lvgl\src\core/lv_obj_style_gen.h ****     lv_style_value_t v = lv_obj_get_style_prop(obj, part, LV_STYLE_OPA);
 508:..\..\..\arduinoLCD\test\Pain Drain\libraries\lvgl\src\core/lv_obj_style_gen.h ****     return (lv_opa_t)v.num;
 509:..\..\..\arduinoLCD\test\Pain Drain\libraries\lvgl\src\core/lv_obj_style_gen.h **** }
 510:..\..\..\arduinoLCD\test\Pain Drain\libraries\lvgl\src\core/lv_obj_style_gen.h **** 
 511:..\..\..\arduinoLCD\test\Pain Drain\libraries\lvgl\src\core/lv_obj_style_gen.h **** static inline const lv_color_filter_dsc_t * lv_obj_get_style_color_filter_dsc(const struct _lv_obj_
 512:..\..\..\arduinoLCD\test\Pain Drain\libraries\lvgl\src\core/lv_obj_style_gen.h **** {
 513:..\..\..\arduinoLCD\test\Pain Drain\libraries\lvgl\src\core/lv_obj_style_gen.h ****     lv_style_value_t v = lv_obj_get_style_prop(obj, part, LV_STYLE_COLOR_FILTER_DSC);
 514:..\..\..\arduinoLCD\test\Pain Drain\libraries\lvgl\src\core/lv_obj_style_gen.h ****     return (const lv_color_filter_dsc_t *)v.ptr;
 515:..\..\..\arduinoLCD\test\Pain Drain\libraries\lvgl\src\core/lv_obj_style_gen.h **** }
 516:..\..\..\arduinoLCD\test\Pain Drain\libraries\lvgl\src\core/lv_obj_style_gen.h **** 
 517:..\..\..\arduinoLCD\test\Pain Drain\libraries\lvgl\src\core/lv_obj_style_gen.h **** static inline lv_opa_t lv_obj_get_style_color_filter_opa(const struct _lv_obj_t * obj, uint32_t par
 518:..\..\..\arduinoLCD\test\Pain Drain\libraries\lvgl\src\core/lv_obj_style_gen.h **** {
 519:..\..\..\arduinoLCD\test\Pain Drain\libraries\lvgl\src\core/lv_obj_style_gen.h ****     lv_style_value_t v = lv_obj_get_style_prop(obj, part, LV_STYLE_COLOR_FILTER_OPA);
 520:..\..\..\arduinoLCD\test\Pain Drain\libraries\lvgl\src\core/lv_obj_style_gen.h ****     return (lv_opa_t)v.num;
 521:..\..\..\arduinoLCD\test\Pain Drain\libraries\lvgl\src\core/lv_obj_style_gen.h **** }
 522:..\..\..\arduinoLCD\test\Pain Drain\libraries\lvgl\src\core/lv_obj_style_gen.h **** 
 523:..\..\..\arduinoLCD\test\Pain Drain\libraries\lvgl\src\core/lv_obj_style_gen.h **** static inline const lv_anim_t * lv_obj_get_style_anim(const struct _lv_obj_t * obj, uint32_t part)
 524:..\..\..\arduinoLCD\test\Pain Drain\libraries\lvgl\src\core/lv_obj_style_gen.h **** {
ARM GAS  C:\Users\haske\AppData\Local\Temp\cc2IOi1w.s 			page 34


 525:..\..\..\arduinoLCD\test\Pain Drain\libraries\lvgl\src\core/lv_obj_style_gen.h ****     lv_style_value_t v = lv_obj_get_style_prop(obj, part, LV_STYLE_ANIM);
 526:..\..\..\arduinoLCD\test\Pain Drain\libraries\lvgl\src\core/lv_obj_style_gen.h ****     return (const lv_anim_t *)v.ptr;
 527:..\..\..\arduinoLCD\test\Pain Drain\libraries\lvgl\src\core/lv_obj_style_gen.h **** }
 528:..\..\..\arduinoLCD\test\Pain Drain\libraries\lvgl\src\core/lv_obj_style_gen.h **** 
 529:..\..\..\arduinoLCD\test\Pain Drain\libraries\lvgl\src\core/lv_obj_style_gen.h **** static inline uint32_t lv_obj_get_style_anim_time(const struct _lv_obj_t * obj, uint32_t part)
 530:..\..\..\arduinoLCD\test\Pain Drain\libraries\lvgl\src\core/lv_obj_style_gen.h **** {
 531:..\..\..\arduinoLCD\test\Pain Drain\libraries\lvgl\src\core/lv_obj_style_gen.h ****     lv_style_value_t v = lv_obj_get_style_prop(obj, part, LV_STYLE_ANIM_TIME);
 532:..\..\..\arduinoLCD\test\Pain Drain\libraries\lvgl\src\core/lv_obj_style_gen.h ****     return (uint32_t)v.num;
 533:..\..\..\arduinoLCD\test\Pain Drain\libraries\lvgl\src\core/lv_obj_style_gen.h **** }
 534:..\..\..\arduinoLCD\test\Pain Drain\libraries\lvgl\src\core/lv_obj_style_gen.h **** 
 535:..\..\..\arduinoLCD\test\Pain Drain\libraries\lvgl\src\core/lv_obj_style_gen.h **** static inline uint32_t lv_obj_get_style_anim_speed(const struct _lv_obj_t * obj, uint32_t part)
 536:..\..\..\arduinoLCD\test\Pain Drain\libraries\lvgl\src\core/lv_obj_style_gen.h **** {
 537:..\..\..\arduinoLCD\test\Pain Drain\libraries\lvgl\src\core/lv_obj_style_gen.h ****     lv_style_value_t v = lv_obj_get_style_prop(obj, part, LV_STYLE_ANIM_SPEED);
 538:..\..\..\arduinoLCD\test\Pain Drain\libraries\lvgl\src\core/lv_obj_style_gen.h ****     return (uint32_t)v.num;
 539:..\..\..\arduinoLCD\test\Pain Drain\libraries\lvgl\src\core/lv_obj_style_gen.h **** }
 540:..\..\..\arduinoLCD\test\Pain Drain\libraries\lvgl\src\core/lv_obj_style_gen.h **** 
 541:..\..\..\arduinoLCD\test\Pain Drain\libraries\lvgl\src\core/lv_obj_style_gen.h **** static inline const lv_style_transition_dsc_t * lv_obj_get_style_transition(const struct _lv_obj_t 
 542:..\..\..\arduinoLCD\test\Pain Drain\libraries\lvgl\src\core/lv_obj_style_gen.h **** {
 543:..\..\..\arduinoLCD\test\Pain Drain\libraries\lvgl\src\core/lv_obj_style_gen.h ****     lv_style_value_t v = lv_obj_get_style_prop(obj, part, LV_STYLE_TRANSITION);
 544:..\..\..\arduinoLCD\test\Pain Drain\libraries\lvgl\src\core/lv_obj_style_gen.h ****     return (const lv_style_transition_dsc_t *)v.ptr;
 545:..\..\..\arduinoLCD\test\Pain Drain\libraries\lvgl\src\core/lv_obj_style_gen.h **** }
 546:..\..\..\arduinoLCD\test\Pain Drain\libraries\lvgl\src\core/lv_obj_style_gen.h **** 
 547:..\..\..\arduinoLCD\test\Pain Drain\libraries\lvgl\src\core/lv_obj_style_gen.h **** static inline lv_blend_mode_t lv_obj_get_style_blend_mode(const struct _lv_obj_t * obj, uint32_t pa
 548:..\..\..\arduinoLCD\test\Pain Drain\libraries\lvgl\src\core/lv_obj_style_gen.h **** {
 549:..\..\..\arduinoLCD\test\Pain Drain\libraries\lvgl\src\core/lv_obj_style_gen.h ****     lv_style_value_t v = lv_obj_get_style_prop(obj, part, LV_STYLE_BLEND_MODE);
 550:..\..\..\arduinoLCD\test\Pain Drain\libraries\lvgl\src\core/lv_obj_style_gen.h ****     return (lv_blend_mode_t)v.num;
 551:..\..\..\arduinoLCD\test\Pain Drain\libraries\lvgl\src\core/lv_obj_style_gen.h **** }
 552:..\..\..\arduinoLCD\test\Pain Drain\libraries\lvgl\src\core/lv_obj_style_gen.h **** 
 553:..\..\..\arduinoLCD\test\Pain Drain\libraries\lvgl\src\core/lv_obj_style_gen.h **** static inline uint16_t lv_obj_get_style_layout(const struct _lv_obj_t * obj, uint32_t part)
 554:..\..\..\arduinoLCD\test\Pain Drain\libraries\lvgl\src\core/lv_obj_style_gen.h **** {
 555:..\..\..\arduinoLCD\test\Pain Drain\libraries\lvgl\src\core/lv_obj_style_gen.h ****     lv_style_value_t v = lv_obj_get_style_prop(obj, part, LV_STYLE_LAYOUT);
 556:..\..\..\arduinoLCD\test\Pain Drain\libraries\lvgl\src\core/lv_obj_style_gen.h ****     return (uint16_t)v.num;
 557:..\..\..\arduinoLCD\test\Pain Drain\libraries\lvgl\src\core/lv_obj_style_gen.h **** }
 558:..\..\..\arduinoLCD\test\Pain Drain\libraries\lvgl\src\core/lv_obj_style_gen.h **** 
 559:..\..\..\arduinoLCD\test\Pain Drain\libraries\lvgl\src\core/lv_obj_style_gen.h **** static inline lv_base_dir_t lv_obj_get_style_base_dir(const struct _lv_obj_t * obj, uint32_t part)
 560:..\..\..\arduinoLCD\test\Pain Drain\libraries\lvgl\src\core/lv_obj_style_gen.h **** {
 561:..\..\..\arduinoLCD\test\Pain Drain\libraries\lvgl\src\core/lv_obj_style_gen.h ****     lv_style_value_t v = lv_obj_get_style_prop(obj, part, LV_STYLE_BASE_DIR);
 607              		.loc 2 561 0
 608 0006 1622     		movs	r2, #22
 609 0008 0021     		movs	r1, #0
 610 000a FFF7FEFF 		bl	lv_obj_get_style_prop
 611              	.LVL69:
 562:..\..\..\arduinoLCD\test\Pain Drain\libraries\lvgl\src\core/lv_obj_style_gen.h ****     return (lv_base_dir_t)v.num;
 612              		.loc 2 562 0
 613 000e C0B2     		uxtb	r0, r0
 614              	.LVL70:
 615              	.LBE107:
 616              	.LBE106:
 167:..\..\..\arduinoLCD\test\Pain Drain\libraries\lvgl\src\core/lv_obj_scroll.c ****         if(obj->spec_attr == NULL) return 0;
 617              		.loc 1 167 0
 618 0010 0128     		cmp	r0, #1
 619 0012 08D0     		beq	.L43
 168:..\..\..\arduinoLCD\test\Pain Drain\libraries\lvgl\src\core/lv_obj_scroll.c ****         return -obj->spec_attr->scroll.x;
 620              		.loc 1 168 0
 621 0014 BB68     		ldr	r3, [r7, #8]
 622 0016 002B     		cmp	r3, #0
 623 0018 55D0     		beq	.L49
ARM GAS  C:\Users\haske\AppData\Local\Temp\cc2IOi1w.s 			page 35


 169:..\..\..\arduinoLCD\test\Pain Drain\libraries\lvgl\src\core/lv_obj_scroll.c ****     }
 624              		.loc 1 169 0
 625 001a B3F91000 		ldrsh	r0, [r3, #16]
 626 001e 4042     		negs	r0, r0
 627 0020 00B2     		sxth	r0, r0
 628 0022 BDE8F88F 		pop	{r3, r4, r5, r6, r7, r8, r9, r10, fp, pc}
 629              	.LVL71:
 630              	.L43:
 631              	.LBB108:
 632              	.LBB109:
 123:..\..\..\arduinoLCD\test\Pain Drain\libraries\lvgl\src\core/lv_obj_style_gen.h ****     return (lv_coord_t)v.num;
 633              		.loc 2 123 0
 634 0026 1322     		movs	r2, #19
 635 0028 0021     		movs	r1, #0
 636 002a 3846     		mov	r0, r7
 637 002c FFF7FEFF 		bl	lv_obj_get_style_prop
 638              	.LVL72:
 639 0030 8146     		mov	r9, r0
 640              	.LVL73:
 641              	.LBE109:
 642              	.LBE108:
 643              	.LBB110:
 644              	.LBB111:
 117:..\..\..\arduinoLCD\test\Pain Drain\libraries\lvgl\src\core/lv_obj_style_gen.h ****     return (lv_coord_t)v.num;
 645              		.loc 2 117 0
 646 0032 1222     		movs	r2, #18
 647 0034 0021     		movs	r1, #0
 648 0036 3846     		mov	r0, r7
 649 0038 FFF7FEFF 		bl	lv_obj_get_style_prop
 650              	.LVL74:
 651 003c 8046     		mov	r8, r0
 652              	.LVL75:
 653              	.LBE111:
 654              	.LBE110:
 655              	.LBB112:
 656              	.LBB113:
 255:..\..\..\arduinoLCD\test\Pain Drain\libraries\lvgl\src\core/lv_obj_style_gen.h ****     return (lv_coord_t)v.num;
 657              		.loc 2 255 0
 658 003e 3222     		movs	r2, #50
 659 0040 0021     		movs	r1, #0
 660 0042 3846     		mov	r0, r7
 661 0044 FFF7FEFF 		bl	lv_obj_get_style_prop
 662              	.LVL76:
 663 0048 8246     		mov	r10, r0
 664              	.LVL77:
 665              	.LBE113:
 666              	.LBE112:
 181:..\..\..\arduinoLCD\test\Pain Drain\libraries\lvgl\src\core/lv_obj_scroll.c ****     for(i = 0; i < child_cnt; i++) {
 667              		.loc 1 181 0
 668 004a 3846     		mov	r0, r7
 669 004c FFF7FEFF 		bl	lv_obj_get_child_cnt
 670              	.LVL78:
 671 0050 8346     		mov	fp, r0
 672              	.LVL79:
 180:..\..\..\arduinoLCD\test\Pain Drain\libraries\lvgl\src\core/lv_obj_scroll.c ****     uint32_t child_cnt = lv_obj_get_child_cnt(obj);
 673              		.loc 1 180 0
 674 0052 41F6FF75 		movw	r5, #8191
ARM GAS  C:\Users\haske\AppData\Local\Temp\cc2IOi1w.s 			page 36


 182:..\..\..\arduinoLCD\test\Pain Drain\libraries\lvgl\src\core/lv_obj_scroll.c ****         lv_obj_t * child = obj->spec_attr->children[i];
 675              		.loc 1 182 0
 676 0056 0026     		movs	r6, #0
 677 0058 0EE0     		b	.L45
 678              	.LVL80:
 679              	.L47:
 680              	.LBB114:
 183:..\..\..\arduinoLCD\test\Pain Drain\libraries\lvgl\src\core/lv_obj_scroll.c ****         if(lv_obj_has_flag_any(child,  LV_OBJ_FLAG_HIDDEN | LV_OBJ_FLAG_FLOATING)) continue;
 681              		.loc 1 183 0
 682 005a BB68     		ldr	r3, [r7, #8]
 683 005c 1B68     		ldr	r3, [r3]
 684 005e 53F82640 		ldr	r4, [r3, r6, lsl #2]
 685              	.LVL81:
 184:..\..\..\arduinoLCD\test\Pain Drain\libraries\lvgl\src\core/lv_obj_scroll.c ****         x1 = LV_MIN(x1, child->coords.x1);
 686              		.loc 1 184 0
 687 0062 1A49     		ldr	r1, .L52
 688 0064 2046     		mov	r0, r4
 689 0066 FFF7FEFF 		bl	lv_obj_has_flag_any
 690              	.LVL82:
 691 006a 20B9     		cbnz	r0, .L46
 185:..\..\..\arduinoLCD\test\Pain Drain\libraries\lvgl\src\core/lv_obj_scroll.c **** 
 692              		.loc 1 185 0
 693 006c B4F91430 		ldrsh	r3, [r4, #20]
 694 0070 9D42     		cmp	r5, r3
 695 0072 A8BF     		it	ge
 696 0074 1D46     		movge	r5, r3
 697              	.LVL83:
 698              	.L46:
 699              	.LBE114:
 182:..\..\..\arduinoLCD\test\Pain Drain\libraries\lvgl\src\core/lv_obj_scroll.c ****         lv_obj_t * child = obj->spec_attr->children[i];
 700              		.loc 1 182 0 discriminator 2
 701 0076 0136     		adds	r6, r6, #1
 702              	.LVL84:
 703              	.L45:
 182:..\..\..\arduinoLCD\test\Pain Drain\libraries\lvgl\src\core/lv_obj_scroll.c ****         lv_obj_t * child = obj->spec_attr->children[i];
 704              		.loc 1 182 0 is_stmt 0 discriminator 1
 705 0078 5E45     		cmp	r6, fp
 706 007a EED3     		bcc	.L47
 189:..\..\..\arduinoLCD\test\Pain Drain\libraries\lvgl\src\core/lv_obj_scroll.c ****         child_res = x1;
 707              		.loc 1 189 0 is_stmt 1
 708 007c 41F6FF73 		movw	r3, #8191
 709 0080 9D42     		cmp	r5, r3
 710 0082 06D0     		beq	.L50
 711              	.LVL85:
 191:..\..\..\arduinoLCD\test\Pain Drain\libraries\lvgl\src\core/lv_obj_scroll.c ****     }
 712              		.loc 1 191 0
 713 0084 B7F91400 		ldrsh	r0, [r7, #20]
 714 0088 4044     		add	r0, r0, r8
 715 008a 5044     		add	r0, r0, r10
 716 008c 401B     		subs	r0, r0, r5
 717 008e 06B2     		sxth	r6, r0
 718              	.LVL86:
 719 0090 00E0     		b	.L48
 720              	.LVL87:
 721              	.L50:
 194:..\..\..\arduinoLCD\test\Pain Drain\libraries\lvgl\src\core/lv_obj_scroll.c ****     }
 722              		.loc 1 194 0
ARM GAS  C:\Users\haske\AppData\Local\Temp\cc2IOi1w.s 			page 37


 723 0092 0F4E     		ldr	r6, .L52+4
 724              	.LVL88:
 725              	.L48:
 197:..\..\..\arduinoLCD\test\Pain Drain\libraries\lvgl\src\core/lv_obj_scroll.c ****     self_w = self_w - (lv_obj_get_width(obj) - pad_right - pad_left - 2 * border_width);
 726              		.loc 1 197 0
 727 0094 3846     		mov	r0, r7
 728 0096 FFF7FEFF 		bl	lv_obj_get_self_width
 729              	.LVL89:
 730 009a 0546     		mov	r5, r0
 731              	.LVL90:
 198:..\..\..\arduinoLCD\test\Pain Drain\libraries\lvgl\src\core/lv_obj_scroll.c ****     self_w += lv_obj_get_scroll_x(obj);
 732              		.loc 1 198 0
 733 009c 3846     		mov	r0, r7
 734 009e FFF7FEFF 		bl	lv_obj_get_width
 735              	.LVL91:
 736 00a2 C0EB0900 		rsb	r0, r0, r9
 737 00a6 00EB0804 		add	r4, r0, r8
 738 00aa 04EB4A04 		add	r4, r4, r10, lsl #1
 739 00ae 2C44     		add	r4, r4, r5
 740 00b0 A4B2     		uxth	r4, r4
 741              	.LVL92:
 199:..\..\..\arduinoLCD\test\Pain Drain\libraries\lvgl\src\core/lv_obj_scroll.c **** 
 742              		.loc 1 199 0
 743 00b2 3846     		mov	r0, r7
 744 00b4 FFF7FEFF 		bl	lv_obj_get_scroll_x
 745              	.LVL93:
 746 00b8 2044     		add	r0, r0, r4
 747 00ba 00B2     		sxth	r0, r0
 748              	.LVL94:
 201:..\..\..\arduinoLCD\test\Pain Drain\libraries\lvgl\src\core/lv_obj_scroll.c **** }
 749              		.loc 1 201 0
 750 00bc B042     		cmp	r0, r6
 751 00be B8BF     		it	lt
 752 00c0 3046     		movlt	r0, r6
 753              	.LVL95:
 754 00c2 BDE8F88F 		pop	{r3, r4, r5, r6, r7, r8, r9, r10, fp, pc}
 755              	.LVL96:
 756              	.L49:
 168:..\..\..\arduinoLCD\test\Pain Drain\libraries\lvgl\src\core/lv_obj_scroll.c ****         return -obj->spec_attr->scroll.x;
 757              		.loc 1 168 0
 758 00c6 0020     		movs	r0, #0
 202:..\..\..\arduinoLCD\test\Pain Drain\libraries\lvgl\src\core/lv_obj_scroll.c **** 
 759              		.loc 1 202 0
 760 00c8 BDE8F88F 		pop	{r3, r4, r5, r6, r7, r8, r9, r10, fp, pc}
 761              	.LVL97:
 762              	.L53:
 763              		.align	2
 764              	.L52:
 765 00cc 01000400 		.word	262145
 766 00d0 01E0FFFF 		.word	-8191
 767              		.cfi_endproc
 768              	.LFE177:
 769              		.size	lv_obj_get_scroll_left, .-lv_obj_get_scroll_left
 770              		.section	.text.lv_obj_get_scroll_right,"ax",%progbits
 771              		.align	2
 772              		.global	lv_obj_get_scroll_right
 773              		.thumb
ARM GAS  C:\Users\haske\AppData\Local\Temp\cc2IOi1w.s 			page 38


 774              		.thumb_func
 775              		.type	lv_obj_get_scroll_right, %function
 776              	lv_obj_get_scroll_right:
 777              	.LFB178:
 205:..\..\..\arduinoLCD\test\Pain Drain\libraries\lvgl\src\core/lv_obj_scroll.c ****     LV_ASSERT_OBJ(obj, MY_CLASS);
 778              		.loc 1 205 0
 779              		.cfi_startproc
 780              		@ args = 0, pretend = 0, frame = 0
 781              		@ frame_needed = 0, uses_anonymous_args = 0
 782              	.LVL98:
 783 0000 2DE9F843 		push	{r3, r4, r5, r6, r7, r8, r9, lr}
 784              		.cfi_def_cfa_offset 32
 785              		.cfi_offset 3, -32
 786              		.cfi_offset 4, -28
 787              		.cfi_offset 5, -24
 788              		.cfi_offset 6, -20
 789              		.cfi_offset 7, -16
 790              		.cfi_offset 8, -12
 791              		.cfi_offset 9, -8
 792              		.cfi_offset 14, -4
 793 0004 0646     		mov	r6, r0
 794              	.LVL99:
 795              	.LBB115:
 796              	.LBB116:
 561:..\..\..\arduinoLCD\test\Pain Drain\libraries\lvgl\src\core/lv_obj_style_gen.h ****     return (lv_base_dir_t)v.num;
 797              		.loc 2 561 0
 798 0006 1622     		movs	r2, #22
 799 0008 0021     		movs	r1, #0
 800 000a FFF7FEFF 		bl	lv_obj_get_style_prop
 801              	.LVL100:
 802              		.loc 2 562 0
 803 000e C0B2     		uxtb	r0, r0
 804              	.LVL101:
 805              	.LBE116:
 806              	.LBE115:
 210:..\..\..\arduinoLCD\test\Pain Drain\libraries\lvgl\src\core/lv_obj_scroll.c ****         if(obj->spec_attr == NULL) return 0;
 807              		.loc 1 210 0
 808 0010 0128     		cmp	r0, #1
 809 0012 06D1     		bne	.L55
 211:..\..\..\arduinoLCD\test\Pain Drain\libraries\lvgl\src\core/lv_obj_scroll.c ****         return obj->spec_attr->scroll.x;
 810              		.loc 1 211 0
 811 0014 B368     		ldr	r3, [r6, #8]
 812 0016 002B     		cmp	r3, #0
 813 0018 4FD0     		beq	.L61
 212:..\..\..\arduinoLCD\test\Pain Drain\libraries\lvgl\src\core/lv_obj_scroll.c ****     }
 814              		.loc 1 212 0
 815 001a B3F91000 		ldrsh	r0, [r3, #16]
 816 001e BDE8F883 		pop	{r3, r4, r5, r6, r7, r8, r9, pc}
 817              	.LVL102:
 818              	.L55:
 218:..\..\..\arduinoLCD\test\Pain Drain\libraries\lvgl\src\core/lv_obj_scroll.c ****     for(i = 0; i < child_cnt; i++) {
 819              		.loc 1 218 0
 820 0022 3046     		mov	r0, r6
 821 0024 FFF7FEFF 		bl	lv_obj_get_child_cnt
 822              	.LVL103:
 823 0028 8046     		mov	r8, r0
 824              	.LVL104:
ARM GAS  C:\Users\haske\AppData\Local\Temp\cc2IOi1w.s 			page 39


 219:..\..\..\arduinoLCD\test\Pain Drain\libraries\lvgl\src\core/lv_obj_scroll.c ****         lv_obj_t * child = obj->spec_attr->children[i];
 825              		.loc 1 219 0
 826 002a 0024     		movs	r4, #0
 216:..\..\..\arduinoLCD\test\Pain Drain\libraries\lvgl\src\core/lv_obj_scroll.c ****     uint32_t i;
 827              		.loc 1 216 0
 828 002c 244F     		ldr	r7, .L63
 219:..\..\..\arduinoLCD\test\Pain Drain\libraries\lvgl\src\core/lv_obj_scroll.c ****         lv_obj_t * child = obj->spec_attr->children[i];
 829              		.loc 1 219 0
 830 002e 0EE0     		b	.L57
 831              	.LVL105:
 832              	.L59:
 833              	.LBB117:
 220:..\..\..\arduinoLCD\test\Pain Drain\libraries\lvgl\src\core/lv_obj_scroll.c ****         if(lv_obj_has_flag_any(child,  LV_OBJ_FLAG_HIDDEN | LV_OBJ_FLAG_FLOATING)) continue;
 834              		.loc 1 220 0
 835 0030 B368     		ldr	r3, [r6, #8]
 836 0032 1B68     		ldr	r3, [r3]
 837 0034 53F82450 		ldr	r5, [r3, r4, lsl #2]
 838              	.LVL106:
 221:..\..\..\arduinoLCD\test\Pain Drain\libraries\lvgl\src\core/lv_obj_scroll.c ****         child_res = LV_MAX(child_res, child->coords.x2);
 839              		.loc 1 221 0
 840 0038 2249     		ldr	r1, .L63+4
 841 003a 2846     		mov	r0, r5
 842 003c FFF7FEFF 		bl	lv_obj_has_flag_any
 843              	.LVL107:
 844 0040 20B9     		cbnz	r0, .L58
 222:..\..\..\arduinoLCD\test\Pain Drain\libraries\lvgl\src\core/lv_obj_scroll.c ****     }
 845              		.loc 1 222 0
 846 0042 B5F91830 		ldrsh	r3, [r5, #24]
 847 0046 9F42     		cmp	r7, r3
 848 0048 B8BF     		it	lt
 849 004a 1F46     		movlt	r7, r3
 850              	.LVL108:
 851              	.L58:
 852              	.LBE117:
 219:..\..\..\arduinoLCD\test\Pain Drain\libraries\lvgl\src\core/lv_obj_scroll.c ****         lv_obj_t * child = obj->spec_attr->children[i];
 853              		.loc 1 219 0 discriminator 2
 854 004c 0134     		adds	r4, r4, #1
 855              	.LVL109:
 856              	.L57:
 219:..\..\..\arduinoLCD\test\Pain Drain\libraries\lvgl\src\core/lv_obj_scroll.c ****         lv_obj_t * child = obj->spec_attr->children[i];
 857              		.loc 1 219 0 is_stmt 0 discriminator 1
 858 004e 4445     		cmp	r4, r8
 859 0050 EED3     		bcc	.L59
 860              	.LVL110:
 861              	.LBB118:
 862              	.LBB119:
 123:..\..\..\arduinoLCD\test\Pain Drain\libraries\lvgl\src\core/lv_obj_style_gen.h ****     return (lv_coord_t)v.num;
 863              		.loc 2 123 0 is_stmt 1
 864 0052 1322     		movs	r2, #19
 865 0054 0021     		movs	r1, #0
 866 0056 3046     		mov	r0, r6
 867 0058 FFF7FEFF 		bl	lv_obj_get_style_prop
 868              	.LVL111:
 869 005c 8146     		mov	r9, r0
 870              	.LVL112:
 871              	.LBE119:
 872              	.LBE118:
ARM GAS  C:\Users\haske\AppData\Local\Temp\cc2IOi1w.s 			page 40


 873              	.LBB120:
 874              	.LBB121:
 117:..\..\..\arduinoLCD\test\Pain Drain\libraries\lvgl\src\core/lv_obj_style_gen.h ****     return (lv_coord_t)v.num;
 875              		.loc 2 117 0
 876 005e 1222     		movs	r2, #18
 877 0060 0021     		movs	r1, #0
 878 0062 3046     		mov	r0, r6
 879 0064 FFF7FEFF 		bl	lv_obj_get_style_prop
 880              	.LVL113:
 881 0068 8046     		mov	r8, r0
 882              	.LVL114:
 883              	.LBE121:
 884              	.LBE120:
 885              	.LBB122:
 886              	.LBB123:
 255:..\..\..\arduinoLCD\test\Pain Drain\libraries\lvgl\src\core/lv_obj_style_gen.h ****     return (lv_coord_t)v.num;
 887              		.loc 2 255 0
 888 006a 3222     		movs	r2, #50
 889 006c 0021     		movs	r1, #0
 890 006e 3046     		mov	r0, r6
 891 0070 FFF7FEFF 		bl	lv_obj_get_style_prop
 892              	.LVL115:
 893 0074 0446     		mov	r4, r0
 894              	.LVL116:
 895              	.LBE123:
 896              	.LBE122:
 229:..\..\..\arduinoLCD\test\Pain Drain\libraries\lvgl\src\core/lv_obj_scroll.c ****         child_res -= (obj->coords.x2 - pad_right - border_width);
 897              		.loc 1 229 0
 898 0076 124B     		ldr	r3, .L63
 899 0078 9F42     		cmp	r7, r3
 900 007a 06D0     		beq	.L60
 230:..\..\..\arduinoLCD\test\Pain Drain\libraries\lvgl\src\core/lv_obj_scroll.c ****     }
 901              		.loc 1 230 0
 902 007c B6F91800 		ldrsh	r0, [r6, #24]
 903 0080 C0EB0900 		rsb	r0, r0, r9
 904 0084 2044     		add	r0, r0, r4
 905 0086 0744     		add	r7, r7, r0
 906              	.LVL117:
 907 0088 3FB2     		sxth	r7, r7
 908              	.LVL118:
 909              	.L60:
 234:..\..\..\arduinoLCD\test\Pain Drain\libraries\lvgl\src\core/lv_obj_scroll.c ****     self_w = self_w - (lv_obj_get_width(obj) - pad_right - pad_left - 2 * border_width);
 910              		.loc 1 234 0
 911 008a 3046     		mov	r0, r6
 912 008c FFF7FEFF 		bl	lv_obj_get_self_width
 913              	.LVL119:
 914 0090 0546     		mov	r5, r0
 915              	.LVL120:
 235:..\..\..\arduinoLCD\test\Pain Drain\libraries\lvgl\src\core/lv_obj_scroll.c ****     self_w -= lv_obj_get_scroll_x(obj);
 916              		.loc 1 235 0
 917 0092 3046     		mov	r0, r6
 918 0094 FFF7FEFF 		bl	lv_obj_get_width
 919              	.LVL121:
 920 0098 C0EB0900 		rsb	r0, r0, r9
 921 009c 8044     		add	r8, r8, r0
 922 009e 08EB4404 		add	r4, r8, r4, lsl #1
 923 00a2 2C44     		add	r4, r4, r5
ARM GAS  C:\Users\haske\AppData\Local\Temp\cc2IOi1w.s 			page 41


 924 00a4 A4B2     		uxth	r4, r4
 925              	.LVL122:
 236:..\..\..\arduinoLCD\test\Pain Drain\libraries\lvgl\src\core/lv_obj_scroll.c ****     return LV_MAX(child_res, self_w);
 926              		.loc 1 236 0
 927 00a6 3046     		mov	r0, r6
 928 00a8 FFF7FEFF 		bl	lv_obj_get_scroll_x
 929              	.LVL123:
 930 00ac 201A     		subs	r0, r4, r0
 931 00ae 00B2     		sxth	r0, r0
 932              	.LVL124:
 237:..\..\..\arduinoLCD\test\Pain Drain\libraries\lvgl\src\core/lv_obj_scroll.c **** }
 933              		.loc 1 237 0
 934 00b0 B842     		cmp	r0, r7
 935 00b2 B8BF     		it	lt
 936 00b4 3846     		movlt	r0, r7
 937              	.LVL125:
 938 00b6 BDE8F883 		pop	{r3, r4, r5, r6, r7, r8, r9, pc}
 939              	.LVL126:
 940              	.L61:
 211:..\..\..\arduinoLCD\test\Pain Drain\libraries\lvgl\src\core/lv_obj_scroll.c ****         return obj->spec_attr->scroll.x;
 941              		.loc 1 211 0
 942 00ba 0020     		movs	r0, #0
 238:..\..\..\arduinoLCD\test\Pain Drain\libraries\lvgl\src\core/lv_obj_scroll.c **** 
 943              		.loc 1 238 0
 944 00bc BDE8F883 		pop	{r3, r4, r5, r6, r7, r8, r9, pc}
 945              	.LVL127:
 946              	.L64:
 947              		.align	2
 948              	.L63:
 949 00c0 01E0FFFF 		.word	-8191
 950 00c4 01000400 		.word	262145
 951              		.cfi_endproc
 952              	.LFE178:
 953              		.size	lv_obj_get_scroll_right, .-lv_obj_get_scroll_right
 954              		.section	.text.lv_obj_get_scroll_end,"ax",%progbits
 955              		.align	2
 956              		.global	lv_obj_get_scroll_end
 957              		.thumb
 958              		.thumb_func
 959              		.type	lv_obj_get_scroll_end, %function
 960              	lv_obj_get_scroll_end:
 961              	.LFB179:
 241:..\..\..\arduinoLCD\test\Pain Drain\libraries\lvgl\src\core/lv_obj_scroll.c ****     lv_anim_t * a;
 962              		.loc 1 241 0
 963              		.cfi_startproc
 964              		@ args = 0, pretend = 0, frame = 0
 965              		@ frame_needed = 0, uses_anonymous_args = 0
 966              	.LVL128:
 967 0000 38B5     		push	{r3, r4, r5, lr}
 968              		.cfi_def_cfa_offset 16
 969              		.cfi_offset 3, -16
 970              		.cfi_offset 4, -12
 971              		.cfi_offset 5, -8
 972              		.cfi_offset 14, -4
 973 0002 0546     		mov	r5, r0
 974 0004 0C46     		mov	r4, r1
 243:..\..\..\arduinoLCD\test\Pain Drain\libraries\lvgl\src\core/lv_obj_scroll.c ****     end->x = a ? -a->end_value : lv_obj_get_scroll_x(obj);
ARM GAS  C:\Users\haske\AppData\Local\Temp\cc2IOi1w.s 			page 42


 975              		.loc 1 243 0
 976 0006 0D49     		ldr	r1, .L71
 977              	.LVL129:
 978 0008 FFF7FEFF 		bl	lv_anim_get
 979              	.LVL130:
 244:..\..\..\arduinoLCD\test\Pain Drain\libraries\lvgl\src\core/lv_obj_scroll.c **** 
 980              		.loc 1 244 0
 981 000c 18B1     		cbz	r0, .L66
 244:..\..\..\arduinoLCD\test\Pain Drain\libraries\lvgl\src\core/lv_obj_scroll.c **** 
 982              		.loc 1 244 0 is_stmt 0 discriminator 1
 983 000e 806A     		ldr	r0, [r0, #40]
 984              	.LVL131:
 985 0010 4042     		negs	r0, r0
 986 0012 00B2     		sxth	r0, r0
 987 0014 02E0     		b	.L67
 988              	.LVL132:
 989              	.L66:
 244:..\..\..\arduinoLCD\test\Pain Drain\libraries\lvgl\src\core/lv_obj_scroll.c **** 
 990              		.loc 1 244 0 discriminator 2
 991 0016 2846     		mov	r0, r5
 992              	.LVL133:
 993 0018 FFF7FEFF 		bl	lv_obj_get_scroll_x
 994              	.LVL134:
 995              	.L67:
 244:..\..\..\arduinoLCD\test\Pain Drain\libraries\lvgl\src\core/lv_obj_scroll.c **** 
 996              		.loc 1 244 0 discriminator 4
 997 001c 2080     		strh	r0, [r4]	@ movhi
 246:..\..\..\arduinoLCD\test\Pain Drain\libraries\lvgl\src\core/lv_obj_scroll.c ****     end->y = a ? -a->end_value : lv_obj_get_scroll_y(obj);
 998              		.loc 1 246 0 is_stmt 1 discriminator 4
 999 001e 0849     		ldr	r1, .L71+4
 1000 0020 2846     		mov	r0, r5
 1001 0022 FFF7FEFF 		bl	lv_anim_get
 1002              	.LVL135:
 247:..\..\..\arduinoLCD\test\Pain Drain\libraries\lvgl\src\core/lv_obj_scroll.c **** }
 1003              		.loc 1 247 0 discriminator 4
 1004 0026 18B1     		cbz	r0, .L68
 247:..\..\..\arduinoLCD\test\Pain Drain\libraries\lvgl\src\core/lv_obj_scroll.c **** }
 1005              		.loc 1 247 0 is_stmt 0 discriminator 1
 1006 0028 806A     		ldr	r0, [r0, #40]
 1007              	.LVL136:
 1008 002a 4042     		negs	r0, r0
 1009 002c 00B2     		sxth	r0, r0
 1010 002e 02E0     		b	.L69
 1011              	.LVL137:
 1012              	.L68:
 247:..\..\..\arduinoLCD\test\Pain Drain\libraries\lvgl\src\core/lv_obj_scroll.c **** }
 1013              		.loc 1 247 0 discriminator 2
 1014 0030 2846     		mov	r0, r5
 1015              	.LVL138:
 1016 0032 FFF7FEFF 		bl	lv_obj_get_scroll_y
 1017              	.LVL139:
 1018              	.L69:
 247:..\..\..\arduinoLCD\test\Pain Drain\libraries\lvgl\src\core/lv_obj_scroll.c **** }
 1019              		.loc 1 247 0 discriminator 4
 1020 0036 6080     		strh	r0, [r4, #2]	@ movhi
 1021 0038 38BD     		pop	{r3, r4, r5, pc}
 1022              	.LVL140:
ARM GAS  C:\Users\haske\AppData\Local\Temp\cc2IOi1w.s 			page 43


 1023              	.L72:
 1024 003a 00BF     		.align	2
 1025              	.L71:
 1026 003c 00000000 		.word	scroll_x_anim
 1027 0040 00000000 		.word	scroll_y_anim
 1028              		.cfi_endproc
 1029              	.LFE179:
 1030              		.size	lv_obj_get_scroll_end, .-lv_obj_get_scroll_end
 1031              		.section	.text._lv_obj_scroll_by_raw,"ax",%progbits
 1032              		.align	2
 1033              		.global	_lv_obj_scroll_by_raw
 1034              		.thumb
 1035              		.thumb_func
 1036              		.type	_lv_obj_scroll_by_raw, %function
 1037              	_lv_obj_scroll_by_raw:
 1038              	.LFB187:
 413:..\..\..\arduinoLCD\test\Pain Drain\libraries\lvgl\src\core/lv_obj_scroll.c ****     if(x == 0 && y == 0) return LV_RES_OK;
 1039              		.loc 1 413 0 is_stmt 1
 1040              		.cfi_startproc
 1041              		@ args = 0, pretend = 0, frame = 0
 1042              		@ frame_needed = 0, uses_anonymous_args = 0
 1043              	.LVL141:
 1044 0000 70B5     		push	{r4, r5, r6, lr}
 1045              		.cfi_def_cfa_offset 16
 1046              		.cfi_offset 4, -16
 1047              		.cfi_offset 5, -12
 1048              		.cfi_offset 6, -8
 1049              		.cfi_offset 14, -4
 414:..\..\..\arduinoLCD\test\Pain Drain\libraries\lvgl\src\core/lv_obj_scroll.c **** 
 1050              		.loc 1 414 0
 1051 0002 0E46     		mov	r6, r1
 1052 0004 01B9     		cbnz	r1, .L74
 414:..\..\..\arduinoLCD\test\Pain Drain\libraries\lvgl\src\core/lv_obj_scroll.c **** 
 1053              		.loc 1 414 0 is_stmt 0 discriminator 1
 1054 0006 EAB1     		cbz	r2, .L76
 1055              	.L74:
 1056 0008 1546     		mov	r5, r2
 1057 000a 0446     		mov	r4, r0
 416:..\..\..\arduinoLCD\test\Pain Drain\libraries\lvgl\src\core/lv_obj_scroll.c **** 
 1058              		.loc 1 416 0 is_stmt 1
 1059 000c FFF7FEFF 		bl	lv_obj_allocate_spec_attr
 1060              	.LVL142:
 418:..\..\..\arduinoLCD\test\Pain Drain\libraries\lvgl\src\core/lv_obj_scroll.c ****     obj->spec_attr->scroll.y += y;
 1061              		.loc 1 418 0
 1062 0010 A268     		ldr	r2, [r4, #8]
 1063 0012 138A     		ldrh	r3, [r2, #16]
 1064 0014 3344     		add	r3, r3, r6
 1065 0016 1382     		strh	r3, [r2, #16]	@ movhi
 419:..\..\..\arduinoLCD\test\Pain Drain\libraries\lvgl\src\core/lv_obj_scroll.c **** 
 1066              		.loc 1 419 0
 1067 0018 A268     		ldr	r2, [r4, #8]
 1068 001a 538A     		ldrh	r3, [r2, #18]
 1069 001c 2B44     		add	r3, r3, r5
 1070 001e 5382     		strh	r3, [r2, #18]	@ movhi
 421:..\..\..\arduinoLCD\test\Pain Drain\libraries\lvgl\src\core/lv_obj_scroll.c ****     lv_res_t res = lv_event_send(obj, LV_EVENT_SCROLL, NULL);
 1071              		.loc 1 421 0
 1072 0020 0123     		movs	r3, #1
ARM GAS  C:\Users\haske\AppData\Local\Temp\cc2IOi1w.s 			page 44


 1073 0022 2A46     		mov	r2, r5
 1074 0024 3146     		mov	r1, r6
 1075 0026 2046     		mov	r0, r4
 1076 0028 FFF7FEFF 		bl	lv_obj_move_children_by
 1077              	.LVL143:
 422:..\..\..\arduinoLCD\test\Pain Drain\libraries\lvgl\src\core/lv_obj_scroll.c ****     if(res != LV_RES_OK) return res;
 1078              		.loc 1 422 0
 1079 002c 0022     		movs	r2, #0
 1080 002e 0B21     		movs	r1, #11
 1081 0030 2046     		mov	r0, r4
 1082 0032 FFF7FEFF 		bl	lv_event_send
 1083              	.LVL144:
 423:..\..\..\arduinoLCD\test\Pain Drain\libraries\lvgl\src\core/lv_obj_scroll.c ****     lv_obj_invalidate(obj);
 1084              		.loc 1 423 0
 1085 0036 0128     		cmp	r0, #1
 1086 0038 05D1     		bne	.L75
 424:..\..\..\arduinoLCD\test\Pain Drain\libraries\lvgl\src\core/lv_obj_scroll.c ****     return LV_RES_OK;
 1087              		.loc 1 424 0
 1088 003a 2046     		mov	r0, r4
 1089              	.LVL145:
 1090 003c FFF7FEFF 		bl	lv_obj_invalidate
 1091              	.LVL146:
 425:..\..\..\arduinoLCD\test\Pain Drain\libraries\lvgl\src\core/lv_obj_scroll.c **** }
 1092              		.loc 1 425 0
 1093 0040 0120     		movs	r0, #1
 1094 0042 70BD     		pop	{r4, r5, r6, pc}
 1095              	.LVL147:
 1096              	.L76:
 414:..\..\..\arduinoLCD\test\Pain Drain\libraries\lvgl\src\core/lv_obj_scroll.c **** 
 1097              		.loc 1 414 0
 1098 0044 0120     		movs	r0, #1
 1099              	.LVL148:
 1100              	.L75:
 426:..\..\..\arduinoLCD\test\Pain Drain\libraries\lvgl\src\core/lv_obj_scroll.c **** 
 1101              		.loc 1 426 0
 1102 0046 70BD     		pop	{r4, r5, r6, pc}
 1103              		.cfi_endproc
 1104              	.LFE187:
 1105              		.size	_lv_obj_scroll_by_raw, .-_lv_obj_scroll_by_raw
 1106              		.section	.text.scroll_y_anim,"ax",%progbits
 1107              		.align	2
 1108              		.thumb
 1109              		.thumb_func
 1110              		.type	scroll_y_anim, %function
 1111              	scroll_y_anim:
 1112              	.LFB194:
 678:..\..\..\arduinoLCD\test\Pain Drain\libraries\lvgl\src\core/lv_obj_scroll.c ****     _lv_obj_scroll_by_raw(obj, 0, v + lv_obj_get_scroll_y(obj));
 1113              		.loc 1 678 0
 1114              		.cfi_startproc
 1115              		@ args = 0, pretend = 0, frame = 0
 1116              		@ frame_needed = 0, uses_anonymous_args = 0
 1117              	.LVL149:
 1118 0000 38B5     		push	{r3, r4, r5, lr}
 1119              		.cfi_def_cfa_offset 16
 1120              		.cfi_offset 3, -16
 1121              		.cfi_offset 4, -12
 1122              		.cfi_offset 5, -8
ARM GAS  C:\Users\haske\AppData\Local\Temp\cc2IOi1w.s 			page 45


 1123              		.cfi_offset 14, -4
 1124 0002 0546     		mov	r5, r0
 1125 0004 0C46     		mov	r4, r1
 679:..\..\..\arduinoLCD\test\Pain Drain\libraries\lvgl\src\core/lv_obj_scroll.c **** }
 1126              		.loc 1 679 0
 1127 0006 FFF7FEFF 		bl	lv_obj_get_scroll_y
 1128              	.LVL150:
 1129 000a 0219     		adds	r2, r0, r4
 1130 000c 12B2     		sxth	r2, r2
 1131 000e 0021     		movs	r1, #0
 1132 0010 2846     		mov	r0, r5
 1133 0012 FFF7FEFF 		bl	_lv_obj_scroll_by_raw
 1134              	.LVL151:
 1135 0016 38BD     		pop	{r3, r4, r5, pc}
 1136              		.cfi_endproc
 1137              	.LFE194:
 1138              		.size	scroll_y_anim, .-scroll_y_anim
 1139              		.section	.text.scroll_x_anim,"ax",%progbits
 1140              		.align	2
 1141              		.thumb
 1142              		.thumb_func
 1143              		.type	scroll_x_anim, %function
 1144              	scroll_x_anim:
 1145              	.LFB193:
 673:..\..\..\arduinoLCD\test\Pain Drain\libraries\lvgl\src\core/lv_obj_scroll.c ****     _lv_obj_scroll_by_raw(obj, v + lv_obj_get_scroll_x(obj), 0);
 1146              		.loc 1 673 0
 1147              		.cfi_startproc
 1148              		@ args = 0, pretend = 0, frame = 0
 1149              		@ frame_needed = 0, uses_anonymous_args = 0
 1150              	.LVL152:
 1151 0000 38B5     		push	{r3, r4, r5, lr}
 1152              		.cfi_def_cfa_offset 16
 1153              		.cfi_offset 3, -16
 1154              		.cfi_offset 4, -12
 1155              		.cfi_offset 5, -8
 1156              		.cfi_offset 14, -4
 1157 0002 0546     		mov	r5, r0
 1158 0004 0C46     		mov	r4, r1
 674:..\..\..\arduinoLCD\test\Pain Drain\libraries\lvgl\src\core/lv_obj_scroll.c **** }
 1159              		.loc 1 674 0
 1160 0006 FFF7FEFF 		bl	lv_obj_get_scroll_x
 1161              	.LVL153:
 1162 000a 0119     		adds	r1, r0, r4
 1163 000c 0022     		movs	r2, #0
 1164 000e 09B2     		sxth	r1, r1
 1165 0010 2846     		mov	r0, r5
 1166 0012 FFF7FEFF 		bl	_lv_obj_scroll_by_raw
 1167              	.LVL154:
 1168 0016 38BD     		pop	{r3, r4, r5, pc}
 1169              		.cfi_endproc
 1170              	.LFE193:
 1171              		.size	scroll_x_anim, .-scroll_x_anim
 1172              		.section	.text.lv_obj_scroll_by,"ax",%progbits
 1173              		.align	2
 1174              		.global	lv_obj_scroll_by
 1175              		.thumb
 1176              		.thumb_func
ARM GAS  C:\Users\haske\AppData\Local\Temp\cc2IOi1w.s 			page 46


 1177              		.type	lv_obj_scroll_by, %function
 1178              	lv_obj_scroll_by:
 1179              	.LFB181:
 304:..\..\..\arduinoLCD\test\Pain Drain\libraries\lvgl\src\core/lv_obj_scroll.c ****     if(dx == 0 && dy == 0) return;
 1180              		.loc 1 304 0
 1181              		.cfi_startproc
 1182              		@ args = 0, pretend = 0, frame = 72
 1183              		@ frame_needed = 0, uses_anonymous_args = 0
 1184              	.LVL155:
 1185 0000 F0B5     		push	{r4, r5, r6, r7, lr}
 1186              		.cfi_def_cfa_offset 20
 1187              		.cfi_offset 4, -20
 1188              		.cfi_offset 5, -16
 1189              		.cfi_offset 6, -12
 1190              		.cfi_offset 7, -8
 1191              		.cfi_offset 14, -4
 1192 0002 93B0     		sub	sp, sp, #76
 1193              		.cfi_def_cfa_offset 96
 305:..\..\..\arduinoLCD\test\Pain Drain\libraries\lvgl\src\core/lv_obj_scroll.c ****     if(anim_en == LV_ANIM_ON) {
 1194              		.loc 1 305 0
 1195 0004 0C46     		mov	r4, r1
 1196 0006 09B9     		cbnz	r1, .L84
 305:..\..\..\arduinoLCD\test\Pain Drain\libraries\lvgl\src\core/lv_obj_scroll.c ****     if(anim_en == LV_ANIM_ON) {
 1197              		.loc 1 305 0 is_stmt 0 discriminator 1
 1198 0008 002A     		cmp	r2, #0
 1199 000a 7BD0     		beq	.L83
 1200              	.L84:
 1201 000c 2646     		mov	r6, r4
 1202 000e 1546     		mov	r5, r2
 1203 0010 0446     		mov	r4, r0
 306:..\..\..\arduinoLCD\test\Pain Drain\libraries\lvgl\src\core/lv_obj_scroll.c ****         lv_disp_t * d = lv_obj_get_disp(obj);
 1204              		.loc 1 306 0 is_stmt 1
 1205 0012 012B     		cmp	r3, #1
 1206 0014 5CD1     		bne	.L86
 1207              	.LBB124:
 307:..\..\..\arduinoLCD\test\Pain Drain\libraries\lvgl\src\core/lv_obj_scroll.c ****         lv_anim_t a;
 1208              		.loc 1 307 0
 1209 0016 FFF7FEFF 		bl	lv_obj_get_disp
 1210              	.LVL156:
 1211 001a 0746     		mov	r7, r0
 1212              	.LVL157:
 309:..\..\..\arduinoLCD\test\Pain Drain\libraries\lvgl\src\core/lv_obj_scroll.c ****         lv_anim_set_var(&a, obj);
 1213              		.loc 1 309 0
 1214 001c 01A8     		add	r0, sp, #4
 1215              	.LVL158:
 1216 001e FFF7FEFF 		bl	lv_anim_init
 1217              	.LVL159:
 1218              	.LBB125:
 1219              	.LBB126:
 1220              		.file 3 "..\\..\\..\\arduinoLCD\\test\\Pain Drain\\libraries\\lvgl\\src\\core\\../misc/lv_anim.h"
   1:..\..\..\arduinoLCD\test\Pain Drain\libraries\lvgl\src\core\../misc/lv_anim.h **** /**
   2:..\..\..\arduinoLCD\test\Pain Drain\libraries\lvgl\src\core\../misc/lv_anim.h ****  * @file lv_anim.h
   3:..\..\..\arduinoLCD\test\Pain Drain\libraries\lvgl\src\core\../misc/lv_anim.h ****  *
   4:..\..\..\arduinoLCD\test\Pain Drain\libraries\lvgl\src\core\../misc/lv_anim.h ****  */
   5:..\..\..\arduinoLCD\test\Pain Drain\libraries\lvgl\src\core\../misc/lv_anim.h **** 
   6:..\..\..\arduinoLCD\test\Pain Drain\libraries\lvgl\src\core\../misc/lv_anim.h **** #ifndef LV_ANIM_H
   7:..\..\..\arduinoLCD\test\Pain Drain\libraries\lvgl\src\core\../misc/lv_anim.h **** #define LV_ANIM_H
ARM GAS  C:\Users\haske\AppData\Local\Temp\cc2IOi1w.s 			page 47


   8:..\..\..\arduinoLCD\test\Pain Drain\libraries\lvgl\src\core\../misc/lv_anim.h **** 
   9:..\..\..\arduinoLCD\test\Pain Drain\libraries\lvgl\src\core\../misc/lv_anim.h **** #ifdef __cplusplus
  10:..\..\..\arduinoLCD\test\Pain Drain\libraries\lvgl\src\core\../misc/lv_anim.h **** extern "C" {
  11:..\..\..\arduinoLCD\test\Pain Drain\libraries\lvgl\src\core\../misc/lv_anim.h **** #endif
  12:..\..\..\arduinoLCD\test\Pain Drain\libraries\lvgl\src\core\../misc/lv_anim.h **** 
  13:..\..\..\arduinoLCD\test\Pain Drain\libraries\lvgl\src\core\../misc/lv_anim.h **** /*********************
  14:..\..\..\arduinoLCD\test\Pain Drain\libraries\lvgl\src\core\../misc/lv_anim.h ****  *      INCLUDES
  15:..\..\..\arduinoLCD\test\Pain Drain\libraries\lvgl\src\core\../misc/lv_anim.h ****  *********************/
  16:..\..\..\arduinoLCD\test\Pain Drain\libraries\lvgl\src\core\../misc/lv_anim.h **** #include "../lv_conf_internal.h"
  17:..\..\..\arduinoLCD\test\Pain Drain\libraries\lvgl\src\core\../misc/lv_anim.h **** 
  18:..\..\..\arduinoLCD\test\Pain Drain\libraries\lvgl\src\core\../misc/lv_anim.h **** #include <stdint.h>
  19:..\..\..\arduinoLCD\test\Pain Drain\libraries\lvgl\src\core\../misc/lv_anim.h **** #include <stdbool.h>
  20:..\..\..\arduinoLCD\test\Pain Drain\libraries\lvgl\src\core\../misc/lv_anim.h **** #include <stddef.h>
  21:..\..\..\arduinoLCD\test\Pain Drain\libraries\lvgl\src\core\../misc/lv_anim.h **** 
  22:..\..\..\arduinoLCD\test\Pain Drain\libraries\lvgl\src\core\../misc/lv_anim.h **** /*********************
  23:..\..\..\arduinoLCD\test\Pain Drain\libraries\lvgl\src\core\../misc/lv_anim.h ****  *      DEFINES
  24:..\..\..\arduinoLCD\test\Pain Drain\libraries\lvgl\src\core\../misc/lv_anim.h ****  *********************/
  25:..\..\..\arduinoLCD\test\Pain Drain\libraries\lvgl\src\core\../misc/lv_anim.h **** 
  26:..\..\..\arduinoLCD\test\Pain Drain\libraries\lvgl\src\core\../misc/lv_anim.h **** #define LV_ANIM_REPEAT_INFINITE      0xFFFF
  27:..\..\..\arduinoLCD\test\Pain Drain\libraries\lvgl\src\core\../misc/lv_anim.h **** #define LV_ANIM_PLAYTIME_INFINITE    0xFFFFFFFF
  28:..\..\..\arduinoLCD\test\Pain Drain\libraries\lvgl\src\core\../misc/lv_anim.h **** 
  29:..\..\..\arduinoLCD\test\Pain Drain\libraries\lvgl\src\core\../misc/lv_anim.h **** LV_EXPORT_CONST_INT(LV_ANIM_REPEAT_INFINITE);
  30:..\..\..\arduinoLCD\test\Pain Drain\libraries\lvgl\src\core\../misc/lv_anim.h **** LV_EXPORT_CONST_INT(LV_ANIM_PLAYTIME_INFINITE);
  31:..\..\..\arduinoLCD\test\Pain Drain\libraries\lvgl\src\core\../misc/lv_anim.h **** 
  32:..\..\..\arduinoLCD\test\Pain Drain\libraries\lvgl\src\core\../misc/lv_anim.h **** /**********************
  33:..\..\..\arduinoLCD\test\Pain Drain\libraries\lvgl\src\core\../misc/lv_anim.h ****  *      TYPEDEFS
  34:..\..\..\arduinoLCD\test\Pain Drain\libraries\lvgl\src\core\../misc/lv_anim.h ****  **********************/
  35:..\..\..\arduinoLCD\test\Pain Drain\libraries\lvgl\src\core\../misc/lv_anim.h **** 
  36:..\..\..\arduinoLCD\test\Pain Drain\libraries\lvgl\src\core\../misc/lv_anim.h **** /** Can be used to indicate if animations are enabled or disabled in a case*/
  37:..\..\..\arduinoLCD\test\Pain Drain\libraries\lvgl\src\core\../misc/lv_anim.h **** typedef enum {
  38:..\..\..\arduinoLCD\test\Pain Drain\libraries\lvgl\src\core\../misc/lv_anim.h ****     LV_ANIM_OFF,
  39:..\..\..\arduinoLCD\test\Pain Drain\libraries\lvgl\src\core\../misc/lv_anim.h ****     LV_ANIM_ON,
  40:..\..\..\arduinoLCD\test\Pain Drain\libraries\lvgl\src\core\../misc/lv_anim.h **** } lv_anim_enable_t;
  41:..\..\..\arduinoLCD\test\Pain Drain\libraries\lvgl\src\core\../misc/lv_anim.h **** 
  42:..\..\..\arduinoLCD\test\Pain Drain\libraries\lvgl\src\core\../misc/lv_anim.h **** struct _lv_anim_t;
  43:..\..\..\arduinoLCD\test\Pain Drain\libraries\lvgl\src\core\../misc/lv_anim.h **** struct _lv_timer_t;
  44:..\..\..\arduinoLCD\test\Pain Drain\libraries\lvgl\src\core\../misc/lv_anim.h **** 
  45:..\..\..\arduinoLCD\test\Pain Drain\libraries\lvgl\src\core\../misc/lv_anim.h **** /** Get the current value during an animation*/
  46:..\..\..\arduinoLCD\test\Pain Drain\libraries\lvgl\src\core\../misc/lv_anim.h **** typedef int32_t (*lv_anim_path_cb_t)(const struct _lv_anim_t *);
  47:..\..\..\arduinoLCD\test\Pain Drain\libraries\lvgl\src\core\../misc/lv_anim.h **** 
  48:..\..\..\arduinoLCD\test\Pain Drain\libraries\lvgl\src\core\../misc/lv_anim.h **** /** Generic prototype of "animator" functions.
  49:..\..\..\arduinoLCD\test\Pain Drain\libraries\lvgl\src\core\../misc/lv_anim.h ****  * First parameter is the variable to animate.
  50:..\..\..\arduinoLCD\test\Pain Drain\libraries\lvgl\src\core\../misc/lv_anim.h ****  * Second parameter is the value to set.
  51:..\..\..\arduinoLCD\test\Pain Drain\libraries\lvgl\src\core\../misc/lv_anim.h ****  * Compatible with `lv_xxx_set_yyy(obj, value)` functions
  52:..\..\..\arduinoLCD\test\Pain Drain\libraries\lvgl\src\core\../misc/lv_anim.h ****  * The `x` in `_xcb_t` means it's not a fully generic prototype because
  53:..\..\..\arduinoLCD\test\Pain Drain\libraries\lvgl\src\core\../misc/lv_anim.h ****  * it doesn't receive `lv_anim_t *` as its first argument*/
  54:..\..\..\arduinoLCD\test\Pain Drain\libraries\lvgl\src\core\../misc/lv_anim.h **** typedef void (*lv_anim_exec_xcb_t)(void *, int32_t);
  55:..\..\..\arduinoLCD\test\Pain Drain\libraries\lvgl\src\core\../misc/lv_anim.h **** 
  56:..\..\..\arduinoLCD\test\Pain Drain\libraries\lvgl\src\core\../misc/lv_anim.h **** /** Same as `lv_anim_exec_xcb_t` but receives `lv_anim_t *` as the first parameter.
  57:..\..\..\arduinoLCD\test\Pain Drain\libraries\lvgl\src\core\../misc/lv_anim.h ****  * It's more consistent but less convenient. Might be used by binding generator functions.*/
  58:..\..\..\arduinoLCD\test\Pain Drain\libraries\lvgl\src\core\../misc/lv_anim.h **** typedef void (*lv_anim_custom_exec_cb_t)(struct _lv_anim_t *, int32_t);
  59:..\..\..\arduinoLCD\test\Pain Drain\libraries\lvgl\src\core\../misc/lv_anim.h **** 
  60:..\..\..\arduinoLCD\test\Pain Drain\libraries\lvgl\src\core\../misc/lv_anim.h **** /** Callback to call when the animation is ready*/
  61:..\..\..\arduinoLCD\test\Pain Drain\libraries\lvgl\src\core\../misc/lv_anim.h **** typedef void (*lv_anim_ready_cb_t)(struct _lv_anim_t *);
  62:..\..\..\arduinoLCD\test\Pain Drain\libraries\lvgl\src\core\../misc/lv_anim.h **** 
  63:..\..\..\arduinoLCD\test\Pain Drain\libraries\lvgl\src\core\../misc/lv_anim.h **** /** Callback to call when the animation really stars (considering `delay`)*/
  64:..\..\..\arduinoLCD\test\Pain Drain\libraries\lvgl\src\core\../misc/lv_anim.h **** typedef void (*lv_anim_start_cb_t)(struct _lv_anim_t *);
ARM GAS  C:\Users\haske\AppData\Local\Temp\cc2IOi1w.s 			page 48


  65:..\..\..\arduinoLCD\test\Pain Drain\libraries\lvgl\src\core\../misc/lv_anim.h **** 
  66:..\..\..\arduinoLCD\test\Pain Drain\libraries\lvgl\src\core\../misc/lv_anim.h **** /** Callback used when the animation values are relative to get the current value*/
  67:..\..\..\arduinoLCD\test\Pain Drain\libraries\lvgl\src\core\../misc/lv_anim.h **** typedef int32_t (*lv_anim_get_value_cb_t)(struct _lv_anim_t *);
  68:..\..\..\arduinoLCD\test\Pain Drain\libraries\lvgl\src\core\../misc/lv_anim.h **** 
  69:..\..\..\arduinoLCD\test\Pain Drain\libraries\lvgl\src\core\../misc/lv_anim.h **** /** Callback used when the animation is deleted*/
  70:..\..\..\arduinoLCD\test\Pain Drain\libraries\lvgl\src\core\../misc/lv_anim.h **** typedef void (*lv_anim_deleted_cb_t)(struct _lv_anim_t *);
  71:..\..\..\arduinoLCD\test\Pain Drain\libraries\lvgl\src\core\../misc/lv_anim.h **** 
  72:..\..\..\arduinoLCD\test\Pain Drain\libraries\lvgl\src\core\../misc/lv_anim.h **** /** Describes an animation*/
  73:..\..\..\arduinoLCD\test\Pain Drain\libraries\lvgl\src\core\../misc/lv_anim.h **** typedef struct _lv_anim_t {
  74:..\..\..\arduinoLCD\test\Pain Drain\libraries\lvgl\src\core\../misc/lv_anim.h ****     void * var;                          /**<Variable to animate*/
  75:..\..\..\arduinoLCD\test\Pain Drain\libraries\lvgl\src\core\../misc/lv_anim.h ****     lv_anim_exec_xcb_t exec_cb;          /**< Function to execute to animate*/
  76:..\..\..\arduinoLCD\test\Pain Drain\libraries\lvgl\src\core\../misc/lv_anim.h ****     lv_anim_start_cb_t start_cb;         /**< Call it when the animation is starts (considering `de
  77:..\..\..\arduinoLCD\test\Pain Drain\libraries\lvgl\src\core\../misc/lv_anim.h ****     lv_anim_ready_cb_t ready_cb;         /**< Call it when the animation is ready*/
  78:..\..\..\arduinoLCD\test\Pain Drain\libraries\lvgl\src\core\../misc/lv_anim.h ****     lv_anim_deleted_cb_t deleted_cb;     /**< Call it when the animation is deleted*/
  79:..\..\..\arduinoLCD\test\Pain Drain\libraries\lvgl\src\core\../misc/lv_anim.h ****     lv_anim_get_value_cb_t get_value_cb; /**< Get the current value in relative mode*/
  80:..\..\..\arduinoLCD\test\Pain Drain\libraries\lvgl\src\core\../misc/lv_anim.h **** #if LV_USE_USER_DATA
  81:..\..\..\arduinoLCD\test\Pain Drain\libraries\lvgl\src\core\../misc/lv_anim.h ****     void * user_data; /**< Custom user data*/
  82:..\..\..\arduinoLCD\test\Pain Drain\libraries\lvgl\src\core\../misc/lv_anim.h **** #endif
  83:..\..\..\arduinoLCD\test\Pain Drain\libraries\lvgl\src\core\../misc/lv_anim.h ****     lv_anim_path_cb_t path_cb;         /**< Describe the path (curve) of animations*/
  84:..\..\..\arduinoLCD\test\Pain Drain\libraries\lvgl\src\core\../misc/lv_anim.h ****     int32_t start_value;               /**< Start value*/
  85:..\..\..\arduinoLCD\test\Pain Drain\libraries\lvgl\src\core\../misc/lv_anim.h ****     int32_t current_value;             /**< Current value*/
  86:..\..\..\arduinoLCD\test\Pain Drain\libraries\lvgl\src\core\../misc/lv_anim.h ****     int32_t end_value;                 /**< End value*/
  87:..\..\..\arduinoLCD\test\Pain Drain\libraries\lvgl\src\core\../misc/lv_anim.h ****     int32_t time;                /**< Animation time in ms*/
  88:..\..\..\arduinoLCD\test\Pain Drain\libraries\lvgl\src\core\../misc/lv_anim.h ****     int32_t act_time;            /**< Current time in animation. Set to negative to make delay.*/
  89:..\..\..\arduinoLCD\test\Pain Drain\libraries\lvgl\src\core\../misc/lv_anim.h ****     uint32_t playback_delay;     /**< Wait before play back*/
  90:..\..\..\arduinoLCD\test\Pain Drain\libraries\lvgl\src\core\../misc/lv_anim.h ****     uint32_t playback_time;      /**< Duration of playback animation*/
  91:..\..\..\arduinoLCD\test\Pain Drain\libraries\lvgl\src\core\../misc/lv_anim.h ****     uint32_t repeat_delay;       /**< Wait before repeat*/
  92:..\..\..\arduinoLCD\test\Pain Drain\libraries\lvgl\src\core\../misc/lv_anim.h ****     uint16_t repeat_cnt;         /**< Repeat count for the animation*/
  93:..\..\..\arduinoLCD\test\Pain Drain\libraries\lvgl\src\core\../misc/lv_anim.h ****     uint8_t early_apply  : 1;    /**< 1: Apply start value immediately even is there is `delay`*/
  94:..\..\..\arduinoLCD\test\Pain Drain\libraries\lvgl\src\core\../misc/lv_anim.h **** 
  95:..\..\..\arduinoLCD\test\Pain Drain\libraries\lvgl\src\core\../misc/lv_anim.h ****     /*Animation system use these - user shouldn't set*/
  96:..\..\..\arduinoLCD\test\Pain Drain\libraries\lvgl\src\core\../misc/lv_anim.h ****     uint8_t playback_now : 1; /**< Play back is in progress*/
  97:..\..\..\arduinoLCD\test\Pain Drain\libraries\lvgl\src\core\../misc/lv_anim.h ****     uint8_t run_round : 1;    /**< Indicates the animation has run in this round*/
  98:..\..\..\arduinoLCD\test\Pain Drain\libraries\lvgl\src\core\../misc/lv_anim.h ****     uint8_t start_cb_called : 1;    /**< Indicates that the `start_cb` was already called*/
  99:..\..\..\arduinoLCD\test\Pain Drain\libraries\lvgl\src\core\../misc/lv_anim.h **** } lv_anim_t;
 100:..\..\..\arduinoLCD\test\Pain Drain\libraries\lvgl\src\core\../misc/lv_anim.h **** 
 101:..\..\..\arduinoLCD\test\Pain Drain\libraries\lvgl\src\core\../misc/lv_anim.h **** /**********************
 102:..\..\..\arduinoLCD\test\Pain Drain\libraries\lvgl\src\core\../misc/lv_anim.h ****  * GLOBAL PROTOTYPES
 103:..\..\..\arduinoLCD\test\Pain Drain\libraries\lvgl\src\core\../misc/lv_anim.h ****  **********************/
 104:..\..\..\arduinoLCD\test\Pain Drain\libraries\lvgl\src\core\../misc/lv_anim.h **** 
 105:..\..\..\arduinoLCD\test\Pain Drain\libraries\lvgl\src\core\../misc/lv_anim.h **** /**
 106:..\..\..\arduinoLCD\test\Pain Drain\libraries\lvgl\src\core\../misc/lv_anim.h ****  * Init. the animation module
 107:..\..\..\arduinoLCD\test\Pain Drain\libraries\lvgl\src\core\../misc/lv_anim.h ****  */
 108:..\..\..\arduinoLCD\test\Pain Drain\libraries\lvgl\src\core\../misc/lv_anim.h **** void _lv_anim_core_init(void);
 109:..\..\..\arduinoLCD\test\Pain Drain\libraries\lvgl\src\core\../misc/lv_anim.h **** 
 110:..\..\..\arduinoLCD\test\Pain Drain\libraries\lvgl\src\core\../misc/lv_anim.h **** /**
 111:..\..\..\arduinoLCD\test\Pain Drain\libraries\lvgl\src\core\../misc/lv_anim.h ****  * Initialize an animation variable.
 112:..\..\..\arduinoLCD\test\Pain Drain\libraries\lvgl\src\core\../misc/lv_anim.h ****  * E.g.:
 113:..\..\..\arduinoLCD\test\Pain Drain\libraries\lvgl\src\core\../misc/lv_anim.h ****  * lv_anim_t a;
 114:..\..\..\arduinoLCD\test\Pain Drain\libraries\lvgl\src\core\../misc/lv_anim.h ****  * lv_anim_init(&a);
 115:..\..\..\arduinoLCD\test\Pain Drain\libraries\lvgl\src\core\../misc/lv_anim.h ****  * lv_anim_set_...(&a);
 116:..\..\..\arduinoLCD\test\Pain Drain\libraries\lvgl\src\core\../misc/lv_anim.h ****  * lv_anim_start(&a);
 117:..\..\..\arduinoLCD\test\Pain Drain\libraries\lvgl\src\core\../misc/lv_anim.h ****  * @param a     pointer to an `lv_anim_t` variable to initialize
 118:..\..\..\arduinoLCD\test\Pain Drain\libraries\lvgl\src\core\../misc/lv_anim.h ****  */
 119:..\..\..\arduinoLCD\test\Pain Drain\libraries\lvgl\src\core\../misc/lv_anim.h **** void lv_anim_init(lv_anim_t * a);
 120:..\..\..\arduinoLCD\test\Pain Drain\libraries\lvgl\src\core\../misc/lv_anim.h **** 
 121:..\..\..\arduinoLCD\test\Pain Drain\libraries\lvgl\src\core\../misc/lv_anim.h **** /**
ARM GAS  C:\Users\haske\AppData\Local\Temp\cc2IOi1w.s 			page 49


 122:..\..\..\arduinoLCD\test\Pain Drain\libraries\lvgl\src\core\../misc/lv_anim.h ****  * Set a variable to animate
 123:..\..\..\arduinoLCD\test\Pain Drain\libraries\lvgl\src\core\../misc/lv_anim.h ****  * @param a     pointer to an initialized `lv_anim_t` variable
 124:..\..\..\arduinoLCD\test\Pain Drain\libraries\lvgl\src\core\../misc/lv_anim.h ****  * @param var   pointer to a variable to animate
 125:..\..\..\arduinoLCD\test\Pain Drain\libraries\lvgl\src\core\../misc/lv_anim.h ****  */
 126:..\..\..\arduinoLCD\test\Pain Drain\libraries\lvgl\src\core\../misc/lv_anim.h **** static inline void lv_anim_set_var(lv_anim_t * a, void * var)
 127:..\..\..\arduinoLCD\test\Pain Drain\libraries\lvgl\src\core\../misc/lv_anim.h **** {
 128:..\..\..\arduinoLCD\test\Pain Drain\libraries\lvgl\src\core\../misc/lv_anim.h ****     a->var = var;
 1221              		.loc 3 128 0
 1222 0022 0194     		str	r4, [sp, #4]
 1223              	.LVL160:
 1224              	.LBE126:
 1225              	.LBE125:
 1226              	.LBB127:
 1227              	.LBB128:
 129:..\..\..\arduinoLCD\test\Pain Drain\libraries\lvgl\src\core\../misc/lv_anim.h **** }
 130:..\..\..\arduinoLCD\test\Pain Drain\libraries\lvgl\src\core\../misc/lv_anim.h **** 
 131:..\..\..\arduinoLCD\test\Pain Drain\libraries\lvgl\src\core\../misc/lv_anim.h **** /**
 132:..\..\..\arduinoLCD\test\Pain Drain\libraries\lvgl\src\core\../misc/lv_anim.h ****  * Set a function to animate `var`
 133:..\..\..\arduinoLCD\test\Pain Drain\libraries\lvgl\src\core\../misc/lv_anim.h ****  * @param a         pointer to an initialized `lv_anim_t` variable
 134:..\..\..\arduinoLCD\test\Pain Drain\libraries\lvgl\src\core\../misc/lv_anim.h ****  * @param exec_cb   a function to execute during animation
 135:..\..\..\arduinoLCD\test\Pain Drain\libraries\lvgl\src\core\../misc/lv_anim.h ****  *                  LVGL's built-in functions can be used.
 136:..\..\..\arduinoLCD\test\Pain Drain\libraries\lvgl\src\core\../misc/lv_anim.h ****  *                  E.g. lv_obj_set_x
 137:..\..\..\arduinoLCD\test\Pain Drain\libraries\lvgl\src\core\../misc/lv_anim.h ****  */
 138:..\..\..\arduinoLCD\test\Pain Drain\libraries\lvgl\src\core\../misc/lv_anim.h **** static inline void lv_anim_set_exec_cb(lv_anim_t * a, lv_anim_exec_xcb_t exec_cb)
 139:..\..\..\arduinoLCD\test\Pain Drain\libraries\lvgl\src\core\../misc/lv_anim.h **** {
 140:..\..\..\arduinoLCD\test\Pain Drain\libraries\lvgl\src\core\../misc/lv_anim.h ****     a->exec_cb = exec_cb;
 141:..\..\..\arduinoLCD\test\Pain Drain\libraries\lvgl\src\core\../misc/lv_anim.h **** }
 142:..\..\..\arduinoLCD\test\Pain Drain\libraries\lvgl\src\core\../misc/lv_anim.h **** 
 143:..\..\..\arduinoLCD\test\Pain Drain\libraries\lvgl\src\core\../misc/lv_anim.h **** /**
 144:..\..\..\arduinoLCD\test\Pain Drain\libraries\lvgl\src\core\../misc/lv_anim.h ****  * Set the duration of an animation
 145:..\..\..\arduinoLCD\test\Pain Drain\libraries\lvgl\src\core\../misc/lv_anim.h ****  * @param a         pointer to an initialized `lv_anim_t` variable
 146:..\..\..\arduinoLCD\test\Pain Drain\libraries\lvgl\src\core\../misc/lv_anim.h ****  * @param duration  duration of the animation in milliseconds
 147:..\..\..\arduinoLCD\test\Pain Drain\libraries\lvgl\src\core\../misc/lv_anim.h ****  */
 148:..\..\..\arduinoLCD\test\Pain Drain\libraries\lvgl\src\core\../misc/lv_anim.h **** static inline void lv_anim_set_time(lv_anim_t * a, uint32_t duration)
 149:..\..\..\arduinoLCD\test\Pain Drain\libraries\lvgl\src\core\../misc/lv_anim.h **** {
 150:..\..\..\arduinoLCD\test\Pain Drain\libraries\lvgl\src\core\../misc/lv_anim.h ****     a->time = duration;
 151:..\..\..\arduinoLCD\test\Pain Drain\libraries\lvgl\src\core\../misc/lv_anim.h **** }
 152:..\..\..\arduinoLCD\test\Pain Drain\libraries\lvgl\src\core\../misc/lv_anim.h **** 
 153:..\..\..\arduinoLCD\test\Pain Drain\libraries\lvgl\src\core\../misc/lv_anim.h **** /**
 154:..\..\..\arduinoLCD\test\Pain Drain\libraries\lvgl\src\core\../misc/lv_anim.h ****  * Set a delay before starting the animation
 155:..\..\..\arduinoLCD\test\Pain Drain\libraries\lvgl\src\core\../misc/lv_anim.h ****  * @param a         pointer to an initialized `lv_anim_t` variable
 156:..\..\..\arduinoLCD\test\Pain Drain\libraries\lvgl\src\core\../misc/lv_anim.h ****  * @param delay     delay before the animation in milliseconds
 157:..\..\..\arduinoLCD\test\Pain Drain\libraries\lvgl\src\core\../misc/lv_anim.h ****  */
 158:..\..\..\arduinoLCD\test\Pain Drain\libraries\lvgl\src\core\../misc/lv_anim.h **** static inline void lv_anim_set_delay(lv_anim_t * a, uint32_t delay)
 159:..\..\..\arduinoLCD\test\Pain Drain\libraries\lvgl\src\core\../misc/lv_anim.h **** {
 160:..\..\..\arduinoLCD\test\Pain Drain\libraries\lvgl\src\core\../misc/lv_anim.h ****     a->act_time = -(int32_t)(delay);
 161:..\..\..\arduinoLCD\test\Pain Drain\libraries\lvgl\src\core\../misc/lv_anim.h **** }
 162:..\..\..\arduinoLCD\test\Pain Drain\libraries\lvgl\src\core\../misc/lv_anim.h **** 
 163:..\..\..\arduinoLCD\test\Pain Drain\libraries\lvgl\src\core\../misc/lv_anim.h **** /**
 164:..\..\..\arduinoLCD\test\Pain Drain\libraries\lvgl\src\core\../misc/lv_anim.h ****  * Set the start and end values of an animation
 165:..\..\..\arduinoLCD\test\Pain Drain\libraries\lvgl\src\core\../misc/lv_anim.h ****  * @param a         pointer to an initialized `lv_anim_t` variable
 166:..\..\..\arduinoLCD\test\Pain Drain\libraries\lvgl\src\core\../misc/lv_anim.h ****  * @param start     the start value
 167:..\..\..\arduinoLCD\test\Pain Drain\libraries\lvgl\src\core\../misc/lv_anim.h ****  * @param end       the end value
 168:..\..\..\arduinoLCD\test\Pain Drain\libraries\lvgl\src\core\../misc/lv_anim.h ****  */
 169:..\..\..\arduinoLCD\test\Pain Drain\libraries\lvgl\src\core\../misc/lv_anim.h **** static inline void lv_anim_set_values(lv_anim_t * a, int32_t start, int32_t end)
 170:..\..\..\arduinoLCD\test\Pain Drain\libraries\lvgl\src\core\../misc/lv_anim.h **** {
 171:..\..\..\arduinoLCD\test\Pain Drain\libraries\lvgl\src\core\../misc/lv_anim.h ****     a->start_value = start;
ARM GAS  C:\Users\haske\AppData\Local\Temp\cc2IOi1w.s 			page 50


 172:..\..\..\arduinoLCD\test\Pain Drain\libraries\lvgl\src\core\../misc/lv_anim.h ****     a->current_value = start;
 173:..\..\..\arduinoLCD\test\Pain Drain\libraries\lvgl\src\core\../misc/lv_anim.h ****     a->end_value = end;
 174:..\..\..\arduinoLCD\test\Pain Drain\libraries\lvgl\src\core\../misc/lv_anim.h **** }
 175:..\..\..\arduinoLCD\test\Pain Drain\libraries\lvgl\src\core\../misc/lv_anim.h **** 
 176:..\..\..\arduinoLCD\test\Pain Drain\libraries\lvgl\src\core\../misc/lv_anim.h **** /**
 177:..\..\..\arduinoLCD\test\Pain Drain\libraries\lvgl\src\core\../misc/lv_anim.h ****  * Similar to `lv_anim_set_exec_cb` but `lv_anim_custom_exec_cb_t` receives
 178:..\..\..\arduinoLCD\test\Pain Drain\libraries\lvgl\src\core\../misc/lv_anim.h ****  * `lv_anim_t * ` as its first parameter instead of `void *`.
 179:..\..\..\arduinoLCD\test\Pain Drain\libraries\lvgl\src\core\../misc/lv_anim.h ****  * This function might be used when LVGL is bound to other languages because
 180:..\..\..\arduinoLCD\test\Pain Drain\libraries\lvgl\src\core\../misc/lv_anim.h ****  * it's more consistent to have `lv_anim_t *` as first parameter.
 181:..\..\..\arduinoLCD\test\Pain Drain\libraries\lvgl\src\core\../misc/lv_anim.h ****  * The variable to animate can be stored in the animation's `user_data`
 182:..\..\..\arduinoLCD\test\Pain Drain\libraries\lvgl\src\core\../misc/lv_anim.h ****  * @param a         pointer to an initialized `lv_anim_t` variable
 183:..\..\..\arduinoLCD\test\Pain Drain\libraries\lvgl\src\core\../misc/lv_anim.h ****  * @param exec_cb   a function to execute.
 184:..\..\..\arduinoLCD\test\Pain Drain\libraries\lvgl\src\core\../misc/lv_anim.h ****  */
 185:..\..\..\arduinoLCD\test\Pain Drain\libraries\lvgl\src\core\../misc/lv_anim.h **** static inline void lv_anim_set_custom_exec_cb(lv_anim_t * a, lv_anim_custom_exec_cb_t exec_cb)
 186:..\..\..\arduinoLCD\test\Pain Drain\libraries\lvgl\src\core\../misc/lv_anim.h **** {
 187:..\..\..\arduinoLCD\test\Pain Drain\libraries\lvgl\src\core\../misc/lv_anim.h ****     a->var     = a;
 188:..\..\..\arduinoLCD\test\Pain Drain\libraries\lvgl\src\core\../misc/lv_anim.h ****     a->exec_cb = (lv_anim_exec_xcb_t)exec_cb;
 189:..\..\..\arduinoLCD\test\Pain Drain\libraries\lvgl\src\core\../misc/lv_anim.h **** }
 190:..\..\..\arduinoLCD\test\Pain Drain\libraries\lvgl\src\core\../misc/lv_anim.h **** 
 191:..\..\..\arduinoLCD\test\Pain Drain\libraries\lvgl\src\core\../misc/lv_anim.h **** /**
 192:..\..\..\arduinoLCD\test\Pain Drain\libraries\lvgl\src\core\../misc/lv_anim.h ****  * Set the path (curve) of the animation.
 193:..\..\..\arduinoLCD\test\Pain Drain\libraries\lvgl\src\core\../misc/lv_anim.h ****  * @param a         pointer to an initialized `lv_anim_t` variable
 194:..\..\..\arduinoLCD\test\Pain Drain\libraries\lvgl\src\core\../misc/lv_anim.h ****  * @param path_cb a function to set the current value of the animation.
 195:..\..\..\arduinoLCD\test\Pain Drain\libraries\lvgl\src\core\../misc/lv_anim.h ****  */
 196:..\..\..\arduinoLCD\test\Pain Drain\libraries\lvgl\src\core\../misc/lv_anim.h **** static inline void lv_anim_set_path_cb(lv_anim_t * a, lv_anim_path_cb_t path_cb)
 197:..\..\..\arduinoLCD\test\Pain Drain\libraries\lvgl\src\core\../misc/lv_anim.h **** {
 198:..\..\..\arduinoLCD\test\Pain Drain\libraries\lvgl\src\core\../misc/lv_anim.h ****     a->path_cb = path_cb;
 199:..\..\..\arduinoLCD\test\Pain Drain\libraries\lvgl\src\core\../misc/lv_anim.h **** }
 200:..\..\..\arduinoLCD\test\Pain Drain\libraries\lvgl\src\core\../misc/lv_anim.h **** 
 201:..\..\..\arduinoLCD\test\Pain Drain\libraries\lvgl\src\core\../misc/lv_anim.h **** /**
 202:..\..\..\arduinoLCD\test\Pain Drain\libraries\lvgl\src\core\../misc/lv_anim.h ****  * Set a function call when the animation really starts (considering `delay`)
 203:..\..\..\arduinoLCD\test\Pain Drain\libraries\lvgl\src\core\../misc/lv_anim.h ****  * @param a         pointer to an initialized `lv_anim_t` variable
 204:..\..\..\arduinoLCD\test\Pain Drain\libraries\lvgl\src\core\../misc/lv_anim.h ****  * @param start_cb  a function call when the animation starts
 205:..\..\..\arduinoLCD\test\Pain Drain\libraries\lvgl\src\core\../misc/lv_anim.h ****  */
 206:..\..\..\arduinoLCD\test\Pain Drain\libraries\lvgl\src\core\../misc/lv_anim.h **** static inline void lv_anim_set_start_cb(lv_anim_t * a, lv_anim_start_cb_t start_cb)
 207:..\..\..\arduinoLCD\test\Pain Drain\libraries\lvgl\src\core\../misc/lv_anim.h **** {
 208:..\..\..\arduinoLCD\test\Pain Drain\libraries\lvgl\src\core\../misc/lv_anim.h ****     a->start_cb = start_cb;
 209:..\..\..\arduinoLCD\test\Pain Drain\libraries\lvgl\src\core\../misc/lv_anim.h **** }
 210:..\..\..\arduinoLCD\test\Pain Drain\libraries\lvgl\src\core\../misc/lv_anim.h **** 
 211:..\..\..\arduinoLCD\test\Pain Drain\libraries\lvgl\src\core\../misc/lv_anim.h **** /**
 212:..\..\..\arduinoLCD\test\Pain Drain\libraries\lvgl\src\core\../misc/lv_anim.h ****  * Set a function to use the current value of the variable and make start and end value
 213:..\..\..\arduinoLCD\test\Pain Drain\libraries\lvgl\src\core\../misc/lv_anim.h ****  * relative to the returned current value.
 214:..\..\..\arduinoLCD\test\Pain Drain\libraries\lvgl\src\core\../misc/lv_anim.h ****  * @param a             pointer to an initialized `lv_anim_t` variable
 215:..\..\..\arduinoLCD\test\Pain Drain\libraries\lvgl\src\core\../misc/lv_anim.h ****  * @param get_value_cb  a function call when the animation starts
 216:..\..\..\arduinoLCD\test\Pain Drain\libraries\lvgl\src\core\../misc/lv_anim.h ****  */
 217:..\..\..\arduinoLCD\test\Pain Drain\libraries\lvgl\src\core\../misc/lv_anim.h **** static inline void lv_anim_set_get_value_cb(lv_anim_t * a, lv_anim_get_value_cb_t get_value_cb)
 218:..\..\..\arduinoLCD\test\Pain Drain\libraries\lvgl\src\core\../misc/lv_anim.h **** {
 219:..\..\..\arduinoLCD\test\Pain Drain\libraries\lvgl\src\core\../misc/lv_anim.h ****     a->get_value_cb = get_value_cb;
 220:..\..\..\arduinoLCD\test\Pain Drain\libraries\lvgl\src\core\../misc/lv_anim.h **** }
 221:..\..\..\arduinoLCD\test\Pain Drain\libraries\lvgl\src\core\../misc/lv_anim.h **** 
 222:..\..\..\arduinoLCD\test\Pain Drain\libraries\lvgl\src\core\../misc/lv_anim.h **** /**
 223:..\..\..\arduinoLCD\test\Pain Drain\libraries\lvgl\src\core\../misc/lv_anim.h ****  * Set a function call when the animation is ready
 224:..\..\..\arduinoLCD\test\Pain Drain\libraries\lvgl\src\core\../misc/lv_anim.h ****  * @param a         pointer to an initialized `lv_anim_t` variable
 225:..\..\..\arduinoLCD\test\Pain Drain\libraries\lvgl\src\core\../misc/lv_anim.h ****  * @param ready_cb  a function call when the animation is ready
 226:..\..\..\arduinoLCD\test\Pain Drain\libraries\lvgl\src\core\../misc/lv_anim.h ****  */
 227:..\..\..\arduinoLCD\test\Pain Drain\libraries\lvgl\src\core\../misc/lv_anim.h **** static inline void lv_anim_set_ready_cb(lv_anim_t * a, lv_anim_ready_cb_t ready_cb)
 228:..\..\..\arduinoLCD\test\Pain Drain\libraries\lvgl\src\core\../misc/lv_anim.h **** {
ARM GAS  C:\Users\haske\AppData\Local\Temp\cc2IOi1w.s 			page 51


 229:..\..\..\arduinoLCD\test\Pain Drain\libraries\lvgl\src\core\../misc/lv_anim.h ****     a->ready_cb = ready_cb;
 1228              		.loc 3 229 0
 1229 0024 384B     		ldr	r3, .L99
 1230 0026 0493     		str	r3, [sp, #16]
 1231              	.LVL161:
 1232              	.LBE128:
 1233              	.LBE127:
 313:..\..\..\arduinoLCD\test\Pain Drain\libraries\lvgl\src\core/lv_obj_scroll.c ****             uint32_t t = lv_anim_speed_to_time((lv_disp_get_hor_res(d) * 2) >> 2, 0, dx);
 1234              		.loc 1 313 0
 1235 0028 3EB3     		cbz	r6, .L87
 1236              	.LBB129:
 314:..\..\..\arduinoLCD\test\Pain Drain\libraries\lvgl\src\core/lv_obj_scroll.c ****             if(t < SCROLL_ANIM_TIME_MIN) t = SCROLL_ANIM_TIME_MIN;
 1237              		.loc 1 314 0
 1238 002a 3846     		mov	r0, r7
 1239 002c FFF7FEFF 		bl	lv_disp_get_hor_res
 1240              	.LVL162:
 1241 0030 3246     		mov	r2, r6
 1242 0032 0021     		movs	r1, #0
 1243 0034 40F35D00 		sbfx	r0, r0, #1, #30
 1244 0038 FFF7FEFF 		bl	lv_anim_speed_to_time
 1245              	.LVL163:
 315:..\..\..\arduinoLCD\test\Pain Drain\libraries\lvgl\src\core/lv_obj_scroll.c ****             if(t > SCROLL_ANIM_TIME_MAX) t = SCROLL_ANIM_TIME_MAX;
 1246              		.loc 1 315 0
 1247 003c C728     		cmp	r0, #199
 1248 003e 00D8     		bhi	.L88
 1249 0040 C820     		movs	r0, #200
 1250              	.LVL164:
 1251              	.L88:
 316:..\..\..\arduinoLCD\test\Pain Drain\libraries\lvgl\src\core/lv_obj_scroll.c ****             lv_anim_set_time(&a, t);
 1252              		.loc 1 316 0
 1253 0042 B0F5C87F 		cmp	r0, #400
 1254 0046 01D9     		bls	.L89
 1255 0048 4FF4C870 		mov	r0, #400
 1256              	.LVL165:
 1257              	.L89:
 1258              	.LBB130:
 1259              	.LBB131:
 150:..\..\..\arduinoLCD\test\Pain Drain\libraries\lvgl\src\core\../misc/lv_anim.h **** }
 1260              		.loc 3 150 0
 1261 004c 0C90     		str	r0, [sp, #48]
 1262              	.LVL166:
 1263              	.LBE131:
 1264              	.LBE130:
 318:..\..\..\arduinoLCD\test\Pain Drain\libraries\lvgl\src\core/lv_obj_scroll.c ****             lv_anim_set_values(&a, -sx, -sx + dx);
 1265              		.loc 1 318 0
 1266 004e 2046     		mov	r0, r4
 1267              	.LVL167:
 1268 0050 FFF7FEFF 		bl	lv_obj_get_scroll_x
 1269              	.LVL168:
 319:..\..\..\arduinoLCD\test\Pain Drain\libraries\lvgl\src\core/lv_obj_scroll.c ****             lv_anim_set_exec_cb(&a, scroll_x_anim);
 1270              		.loc 1 319 0
 1271 0054 4342     		negs	r3, r0
 1272 0056 301A     		subs	r0, r6, r0
 1273              	.LVL169:
 1274              	.LBB132:
 1275              	.LBB133:
 171:..\..\..\arduinoLCD\test\Pain Drain\libraries\lvgl\src\core\../misc/lv_anim.h ****     a->current_value = start;
ARM GAS  C:\Users\haske\AppData\Local\Temp\cc2IOi1w.s 			page 52


 1276              		.loc 3 171 0
 1277 0058 0993     		str	r3, [sp, #36]
 172:..\..\..\arduinoLCD\test\Pain Drain\libraries\lvgl\src\core\../misc/lv_anim.h ****     a->end_value = end;
 1278              		.loc 3 172 0
 1279 005a 0A93     		str	r3, [sp, #40]
 173:..\..\..\arduinoLCD\test\Pain Drain\libraries\lvgl\src\core\../misc/lv_anim.h **** }
 1280              		.loc 3 173 0
 1281 005c 0B90     		str	r0, [sp, #44]
 1282              	.LVL170:
 1283              	.LBE133:
 1284              	.LBE132:
 1285              	.LBB134:
 1286              	.LBB135:
 140:..\..\..\arduinoLCD\test\Pain Drain\libraries\lvgl\src\core\../misc/lv_anim.h **** }
 1287              		.loc 3 140 0
 1288 005e 2B4B     		ldr	r3, .L99+4
 1289 0060 0293     		str	r3, [sp, #8]
 1290              	.LVL171:
 1291              	.LBE135:
 1292              	.LBE134:
 1293              	.LBB136:
 1294              	.LBB137:
 198:..\..\..\arduinoLCD\test\Pain Drain\libraries\lvgl\src\core\../misc/lv_anim.h **** }
 1295              		.loc 3 198 0
 1296 0062 2B4B     		ldr	r3, .L99+8
 1297 0064 0893     		str	r3, [sp, #32]
 1298              	.LVL172:
 1299              	.LBE137:
 1300              	.LBE136:
 324:..\..\..\arduinoLCD\test\Pain Drain\libraries\lvgl\src\core/lv_obj_scroll.c ****             if(res != LV_RES_OK) return;
