ARM GAS  C:\Users\haske\AppData\Local\Temp\ccFGJ08j.s 			page 1


   1              		.syntax unified
   2              		.cpu cortex-m4
   3              		.eabi_attribute 27, 1
   4              		.fpu fpv4-sp-d16
   5              		.eabi_attribute 20, 1
   6              		.eabi_attribute 21, 1
   7              		.eabi_attribute 23, 3
   8              		.eabi_attribute 24, 1
   9              		.eabi_attribute 25, 1
  10              		.eabi_attribute 26, 1
  11              		.eabi_attribute 30, 1
  12              		.eabi_attribute 34, 1
  13              		.eabi_attribute 18, 4
  14              		.thumb
  15              		.syntax unified
  16              		.file	"lv_obj_tree.c"
  17              		.text
  18              	.Ltext0:
  19              		.cfi_sections	.debug_frame
  20              		.section	.text.lv_obj_del_delayed,"ax",%progbits
  21              		.align	2
  22              		.global	lv_obj_del_delayed
  23              		.thumb
  24              		.thumb_func
  25              		.type	lv_obj_del_delayed, %function
  26              	lv_obj_del_delayed:
  27              	.LFB161:
  28              		.file 1 "..\\..\\..\\arduinoLCD\\test\\Pain Drain\\libraries\\lvgl\\src\\core\\lv_obj_tree.c"
   1:..\..\..\arduinoLCD\test\Pain Drain\libraries\lvgl\src\core/lv_obj_tree.c **** /**
   2:..\..\..\arduinoLCD\test\Pain Drain\libraries\lvgl\src\core/lv_obj_tree.c ****  * @file lv_obj_tree.c
   3:..\..\..\arduinoLCD\test\Pain Drain\libraries\lvgl\src\core/lv_obj_tree.c ****  *
   4:..\..\..\arduinoLCD\test\Pain Drain\libraries\lvgl\src\core/lv_obj_tree.c ****  */
   5:..\..\..\arduinoLCD\test\Pain Drain\libraries\lvgl\src\core/lv_obj_tree.c **** 
   6:..\..\..\arduinoLCD\test\Pain Drain\libraries\lvgl\src\core/lv_obj_tree.c **** /*********************
   7:..\..\..\arduinoLCD\test\Pain Drain\libraries\lvgl\src\core/lv_obj_tree.c ****  *      INCLUDES
   8:..\..\..\arduinoLCD\test\Pain Drain\libraries\lvgl\src\core/lv_obj_tree.c ****  *********************/
   9:..\..\..\arduinoLCD\test\Pain Drain\libraries\lvgl\src\core/lv_obj_tree.c **** #include <stdlib.h>
  10:..\..\..\arduinoLCD\test\Pain Drain\libraries\lvgl\src\core/lv_obj_tree.c **** 
  11:..\..\..\arduinoLCD\test\Pain Drain\libraries\lvgl\src\core/lv_obj_tree.c **** #include "lv_obj.h"
  12:..\..\..\arduinoLCD\test\Pain Drain\libraries\lvgl\src\core/lv_obj_tree.c **** #include "lv_indev.h"
  13:..\..\..\arduinoLCD\test\Pain Drain\libraries\lvgl\src\core/lv_obj_tree.c **** #include "../misc/lv_anim.h"
  14:..\..\..\arduinoLCD\test\Pain Drain\libraries\lvgl\src\core/lv_obj_tree.c **** #include "../misc/lv_gc.h"
  15:..\..\..\arduinoLCD\test\Pain Drain\libraries\lvgl\src\core/lv_obj_tree.c **** #include "../misc/lv_async.h"
  16:..\..\..\arduinoLCD\test\Pain Drain\libraries\lvgl\src\core/lv_obj_tree.c **** 
  17:..\..\..\arduinoLCD\test\Pain Drain\libraries\lvgl\src\core/lv_obj_tree.c **** /*********************
  18:..\..\..\arduinoLCD\test\Pain Drain\libraries\lvgl\src\core/lv_obj_tree.c ****  *      DEFINES
  19:..\..\..\arduinoLCD\test\Pain Drain\libraries\lvgl\src\core/lv_obj_tree.c ****  *********************/
  20:..\..\..\arduinoLCD\test\Pain Drain\libraries\lvgl\src\core/lv_obj_tree.c **** #define MY_CLASS &lv_obj_class
  21:..\..\..\arduinoLCD\test\Pain Drain\libraries\lvgl\src\core/lv_obj_tree.c **** 
  22:..\..\..\arduinoLCD\test\Pain Drain\libraries\lvgl\src\core/lv_obj_tree.c **** /**********************
  23:..\..\..\arduinoLCD\test\Pain Drain\libraries\lvgl\src\core/lv_obj_tree.c ****  *      TYPEDEFS
  24:..\..\..\arduinoLCD\test\Pain Drain\libraries\lvgl\src\core/lv_obj_tree.c ****  **********************/
  25:..\..\..\arduinoLCD\test\Pain Drain\libraries\lvgl\src\core/lv_obj_tree.c **** 
  26:..\..\..\arduinoLCD\test\Pain Drain\libraries\lvgl\src\core/lv_obj_tree.c **** /**********************
  27:..\..\..\arduinoLCD\test\Pain Drain\libraries\lvgl\src\core/lv_obj_tree.c ****  *  STATIC PROTOTYPES
  28:..\..\..\arduinoLCD\test\Pain Drain\libraries\lvgl\src\core/lv_obj_tree.c ****  **********************/
  29:..\..\..\arduinoLCD\test\Pain Drain\libraries\lvgl\src\core/lv_obj_tree.c **** static void lv_obj_del_async_cb(void * obj);
ARM GAS  C:\Users\haske\AppData\Local\Temp\ccFGJ08j.s 			page 2


  30:..\..\..\arduinoLCD\test\Pain Drain\libraries\lvgl\src\core/lv_obj_tree.c **** static void obj_del_core(lv_obj_t * obj);
  31:..\..\..\arduinoLCD\test\Pain Drain\libraries\lvgl\src\core/lv_obj_tree.c **** static lv_obj_tree_walk_res_t walk_core(lv_obj_t * obj, lv_obj_tree_walk_cb_t cb, void * user_data)
  32:..\..\..\arduinoLCD\test\Pain Drain\libraries\lvgl\src\core/lv_obj_tree.c **** 
  33:..\..\..\arduinoLCD\test\Pain Drain\libraries\lvgl\src\core/lv_obj_tree.c **** /**********************
  34:..\..\..\arduinoLCD\test\Pain Drain\libraries\lvgl\src\core/lv_obj_tree.c ****  *  STATIC VARIABLES
  35:..\..\..\arduinoLCD\test\Pain Drain\libraries\lvgl\src\core/lv_obj_tree.c ****  **********************/
  36:..\..\..\arduinoLCD\test\Pain Drain\libraries\lvgl\src\core/lv_obj_tree.c **** 
  37:..\..\..\arduinoLCD\test\Pain Drain\libraries\lvgl\src\core/lv_obj_tree.c **** /**********************
  38:..\..\..\arduinoLCD\test\Pain Drain\libraries\lvgl\src\core/lv_obj_tree.c ****  *      MACROS
  39:..\..\..\arduinoLCD\test\Pain Drain\libraries\lvgl\src\core/lv_obj_tree.c ****  **********************/
  40:..\..\..\arduinoLCD\test\Pain Drain\libraries\lvgl\src\core/lv_obj_tree.c **** 
  41:..\..\..\arduinoLCD\test\Pain Drain\libraries\lvgl\src\core/lv_obj_tree.c **** /**********************
  42:..\..\..\arduinoLCD\test\Pain Drain\libraries\lvgl\src\core/lv_obj_tree.c ****  *   GLOBAL FUNCTIONS
  43:..\..\..\arduinoLCD\test\Pain Drain\libraries\lvgl\src\core/lv_obj_tree.c ****  **********************/
  44:..\..\..\arduinoLCD\test\Pain Drain\libraries\lvgl\src\core/lv_obj_tree.c **** 
  45:..\..\..\arduinoLCD\test\Pain Drain\libraries\lvgl\src\core/lv_obj_tree.c **** void lv_obj_del(lv_obj_t * obj)
  46:..\..\..\arduinoLCD\test\Pain Drain\libraries\lvgl\src\core/lv_obj_tree.c **** {
  47:..\..\..\arduinoLCD\test\Pain Drain\libraries\lvgl\src\core/lv_obj_tree.c ****     LV_LOG_TRACE("begin (delete %p)", (void *)obj);
  48:..\..\..\arduinoLCD\test\Pain Drain\libraries\lvgl\src\core/lv_obj_tree.c ****     LV_ASSERT_OBJ(obj, MY_CLASS);
  49:..\..\..\arduinoLCD\test\Pain Drain\libraries\lvgl\src\core/lv_obj_tree.c ****     lv_obj_invalidate(obj);
  50:..\..\..\arduinoLCD\test\Pain Drain\libraries\lvgl\src\core/lv_obj_tree.c **** 
  51:..\..\..\arduinoLCD\test\Pain Drain\libraries\lvgl\src\core/lv_obj_tree.c ****     lv_obj_t * par = lv_obj_get_parent(obj);
  52:..\..\..\arduinoLCD\test\Pain Drain\libraries\lvgl\src\core/lv_obj_tree.c ****     if(par) {
  53:..\..\..\arduinoLCD\test\Pain Drain\libraries\lvgl\src\core/lv_obj_tree.c ****         lv_obj_scrollbar_invalidate(par);
  54:..\..\..\arduinoLCD\test\Pain Drain\libraries\lvgl\src\core/lv_obj_tree.c ****     }
  55:..\..\..\arduinoLCD\test\Pain Drain\libraries\lvgl\src\core/lv_obj_tree.c **** 
  56:..\..\..\arduinoLCD\test\Pain Drain\libraries\lvgl\src\core/lv_obj_tree.c ****     lv_disp_t * disp = NULL;
  57:..\..\..\arduinoLCD\test\Pain Drain\libraries\lvgl\src\core/lv_obj_tree.c ****     bool act_scr_del = false;
  58:..\..\..\arduinoLCD\test\Pain Drain\libraries\lvgl\src\core/lv_obj_tree.c ****     if(par == NULL) {
  59:..\..\..\arduinoLCD\test\Pain Drain\libraries\lvgl\src\core/lv_obj_tree.c ****         disp = lv_obj_get_disp(obj);
  60:..\..\..\arduinoLCD\test\Pain Drain\libraries\lvgl\src\core/lv_obj_tree.c ****         if(!disp) return;   /*Shouldn't happen*/
  61:..\..\..\arduinoLCD\test\Pain Drain\libraries\lvgl\src\core/lv_obj_tree.c ****         if(disp->act_scr == obj) act_scr_del = true;
  62:..\..\..\arduinoLCD\test\Pain Drain\libraries\lvgl\src\core/lv_obj_tree.c ****     }
  63:..\..\..\arduinoLCD\test\Pain Drain\libraries\lvgl\src\core/lv_obj_tree.c **** 
  64:..\..\..\arduinoLCD\test\Pain Drain\libraries\lvgl\src\core/lv_obj_tree.c ****     obj_del_core(obj);
  65:..\..\..\arduinoLCD\test\Pain Drain\libraries\lvgl\src\core/lv_obj_tree.c **** 
  66:..\..\..\arduinoLCD\test\Pain Drain\libraries\lvgl\src\core/lv_obj_tree.c ****     /*Call the ancestor's event handler to the parent to notify it about the child delete*/
  67:..\..\..\arduinoLCD\test\Pain Drain\libraries\lvgl\src\core/lv_obj_tree.c ****     if(par) {
  68:..\..\..\arduinoLCD\test\Pain Drain\libraries\lvgl\src\core/lv_obj_tree.c ****         lv_obj_update_layout(par);
  69:..\..\..\arduinoLCD\test\Pain Drain\libraries\lvgl\src\core/lv_obj_tree.c ****         lv_obj_readjust_scroll(par, LV_ANIM_OFF);
  70:..\..\..\arduinoLCD\test\Pain Drain\libraries\lvgl\src\core/lv_obj_tree.c ****         lv_obj_scrollbar_invalidate(par);
  71:..\..\..\arduinoLCD\test\Pain Drain\libraries\lvgl\src\core/lv_obj_tree.c ****         lv_event_send(par, LV_EVENT_CHILD_CHANGED, NULL);
  72:..\..\..\arduinoLCD\test\Pain Drain\libraries\lvgl\src\core/lv_obj_tree.c ****         lv_event_send(par, LV_EVENT_CHILD_DELETED, NULL);
  73:..\..\..\arduinoLCD\test\Pain Drain\libraries\lvgl\src\core/lv_obj_tree.c ****     }
  74:..\..\..\arduinoLCD\test\Pain Drain\libraries\lvgl\src\core/lv_obj_tree.c **** 
  75:..\..\..\arduinoLCD\test\Pain Drain\libraries\lvgl\src\core/lv_obj_tree.c ****     /*Handle if the active screen was deleted*/
  76:..\..\..\arduinoLCD\test\Pain Drain\libraries\lvgl\src\core/lv_obj_tree.c ****     if(act_scr_del) {
  77:..\..\..\arduinoLCD\test\Pain Drain\libraries\lvgl\src\core/lv_obj_tree.c ****         LV_LOG_WARN("the active screen was deleted");
  78:..\..\..\arduinoLCD\test\Pain Drain\libraries\lvgl\src\core/lv_obj_tree.c ****         disp->act_scr = NULL;
  79:..\..\..\arduinoLCD\test\Pain Drain\libraries\lvgl\src\core/lv_obj_tree.c ****     }
  80:..\..\..\arduinoLCD\test\Pain Drain\libraries\lvgl\src\core/lv_obj_tree.c **** 
  81:..\..\..\arduinoLCD\test\Pain Drain\libraries\lvgl\src\core/lv_obj_tree.c ****     LV_ASSERT_MEM_INTEGRITY();
  82:..\..\..\arduinoLCD\test\Pain Drain\libraries\lvgl\src\core/lv_obj_tree.c ****     LV_LOG_TRACE("finished (delete %p)", (void *)obj);
  83:..\..\..\arduinoLCD\test\Pain Drain\libraries\lvgl\src\core/lv_obj_tree.c **** }
  84:..\..\..\arduinoLCD\test\Pain Drain\libraries\lvgl\src\core/lv_obj_tree.c **** 
  85:..\..\..\arduinoLCD\test\Pain Drain\libraries\lvgl\src\core/lv_obj_tree.c **** void lv_obj_clean(lv_obj_t * obj)
  86:..\..\..\arduinoLCD\test\Pain Drain\libraries\lvgl\src\core/lv_obj_tree.c **** {
ARM GAS  C:\Users\haske\AppData\Local\Temp\ccFGJ08j.s 			page 3


  87:..\..\..\arduinoLCD\test\Pain Drain\libraries\lvgl\src\core/lv_obj_tree.c ****     LV_LOG_TRACE("begin (delete %p)", (void *)obj);
  88:..\..\..\arduinoLCD\test\Pain Drain\libraries\lvgl\src\core/lv_obj_tree.c ****     LV_ASSERT_OBJ(obj, MY_CLASS);
  89:..\..\..\arduinoLCD\test\Pain Drain\libraries\lvgl\src\core/lv_obj_tree.c **** 
  90:..\..\..\arduinoLCD\test\Pain Drain\libraries\lvgl\src\core/lv_obj_tree.c ****     lv_obj_invalidate(obj);
  91:..\..\..\arduinoLCD\test\Pain Drain\libraries\lvgl\src\core/lv_obj_tree.c **** 
  92:..\..\..\arduinoLCD\test\Pain Drain\libraries\lvgl\src\core/lv_obj_tree.c ****     lv_obj_t * child = lv_obj_get_child(obj, 0);
  93:..\..\..\arduinoLCD\test\Pain Drain\libraries\lvgl\src\core/lv_obj_tree.c ****     while(child) {
  94:..\..\..\arduinoLCD\test\Pain Drain\libraries\lvgl\src\core/lv_obj_tree.c ****         obj_del_core(child);
  95:..\..\..\arduinoLCD\test\Pain Drain\libraries\lvgl\src\core/lv_obj_tree.c ****         child = lv_obj_get_child(obj, 0);
  96:..\..\..\arduinoLCD\test\Pain Drain\libraries\lvgl\src\core/lv_obj_tree.c ****     }
  97:..\..\..\arduinoLCD\test\Pain Drain\libraries\lvgl\src\core/lv_obj_tree.c ****     /*Just to remove scroll animations if any*/
  98:..\..\..\arduinoLCD\test\Pain Drain\libraries\lvgl\src\core/lv_obj_tree.c ****     lv_obj_scroll_to(obj, 0, 0, LV_ANIM_OFF);
  99:..\..\..\arduinoLCD\test\Pain Drain\libraries\lvgl\src\core/lv_obj_tree.c ****     if(obj->spec_attr) {
 100:..\..\..\arduinoLCD\test\Pain Drain\libraries\lvgl\src\core/lv_obj_tree.c ****         obj->spec_attr->scroll.x = 0;
 101:..\..\..\arduinoLCD\test\Pain Drain\libraries\lvgl\src\core/lv_obj_tree.c ****         obj->spec_attr->scroll.y = 0;
 102:..\..\..\arduinoLCD\test\Pain Drain\libraries\lvgl\src\core/lv_obj_tree.c ****     }
 103:..\..\..\arduinoLCD\test\Pain Drain\libraries\lvgl\src\core/lv_obj_tree.c **** 
 104:..\..\..\arduinoLCD\test\Pain Drain\libraries\lvgl\src\core/lv_obj_tree.c ****     LV_ASSERT_MEM_INTEGRITY();
 105:..\..\..\arduinoLCD\test\Pain Drain\libraries\lvgl\src\core/lv_obj_tree.c **** 
 106:..\..\..\arduinoLCD\test\Pain Drain\libraries\lvgl\src\core/lv_obj_tree.c ****     LV_LOG_TRACE("finished (delete %p)", (void *)obj);
 107:..\..\..\arduinoLCD\test\Pain Drain\libraries\lvgl\src\core/lv_obj_tree.c **** }
 108:..\..\..\arduinoLCD\test\Pain Drain\libraries\lvgl\src\core/lv_obj_tree.c **** 
 109:..\..\..\arduinoLCD\test\Pain Drain\libraries\lvgl\src\core/lv_obj_tree.c **** void lv_obj_del_delayed(lv_obj_t * obj, uint32_t delay_ms)
 110:..\..\..\arduinoLCD\test\Pain Drain\libraries\lvgl\src\core/lv_obj_tree.c **** {
  29              		.loc 1 110 0
  30              		.cfi_startproc
  31              		@ args = 0, pretend = 0, frame = 72
  32              		@ frame_needed = 0, uses_anonymous_args = 0
  33              	.LVL0:
  34 0000 30B5     		push	{r4, r5, lr}
  35              		.cfi_def_cfa_offset 12
  36              		.cfi_offset 4, -12
  37              		.cfi_offset 5, -8
  38              		.cfi_offset 14, -4
  39 0002 93B0     		sub	sp, sp, #76
  40              		.cfi_def_cfa_offset 88
  41 0004 0546     		mov	r5, r0
  42 0006 0C46     		mov	r4, r1
 111:..\..\..\arduinoLCD\test\Pain Drain\libraries\lvgl\src\core/lv_obj_tree.c ****     lv_anim_t a;
 112:..\..\..\arduinoLCD\test\Pain Drain\libraries\lvgl\src\core/lv_obj_tree.c ****     lv_anim_init(&a);
  43              		.loc 1 112 0
  44 0008 01A8     		add	r0, sp, #4
  45              	.LVL1:
  46 000a FFF7FEFF 		bl	lv_anim_init
  47              	.LVL2:
  48              	.LBB12:
  49              	.LBB13:
  50              		.file 2 "..\\..\\..\\arduinoLCD\\test\\Pain Drain\\libraries\\lvgl\\src\\core\\../misc/lv_anim.h"
   1:..\..\..\arduinoLCD\test\Pain Drain\libraries\lvgl\src\core\../misc/lv_anim.h **** /**
   2:..\..\..\arduinoLCD\test\Pain Drain\libraries\lvgl\src\core\../misc/lv_anim.h ****  * @file lv_anim.h
   3:..\..\..\arduinoLCD\test\Pain Drain\libraries\lvgl\src\core\../misc/lv_anim.h ****  *
   4:..\..\..\arduinoLCD\test\Pain Drain\libraries\lvgl\src\core\../misc/lv_anim.h ****  */
   5:..\..\..\arduinoLCD\test\Pain Drain\libraries\lvgl\src\core\../misc/lv_anim.h **** 
   6:..\..\..\arduinoLCD\test\Pain Drain\libraries\lvgl\src\core\../misc/lv_anim.h **** #ifndef LV_ANIM_H
   7:..\..\..\arduinoLCD\test\Pain Drain\libraries\lvgl\src\core\../misc/lv_anim.h **** #define LV_ANIM_H
   8:..\..\..\arduinoLCD\test\Pain Drain\libraries\lvgl\src\core\../misc/lv_anim.h **** 
   9:..\..\..\arduinoLCD\test\Pain Drain\libraries\lvgl\src\core\../misc/lv_anim.h **** #ifdef __cplusplus
ARM GAS  C:\Users\haske\AppData\Local\Temp\ccFGJ08j.s 			page 4


  10:..\..\..\arduinoLCD\test\Pain Drain\libraries\lvgl\src\core\../misc/lv_anim.h **** extern "C" {
  11:..\..\..\arduinoLCD\test\Pain Drain\libraries\lvgl\src\core\../misc/lv_anim.h **** #endif
  12:..\..\..\arduinoLCD\test\Pain Drain\libraries\lvgl\src\core\../misc/lv_anim.h **** 
  13:..\..\..\arduinoLCD\test\Pain Drain\libraries\lvgl\src\core\../misc/lv_anim.h **** /*********************
  14:..\..\..\arduinoLCD\test\Pain Drain\libraries\lvgl\src\core\../misc/lv_anim.h ****  *      INCLUDES
  15:..\..\..\arduinoLCD\test\Pain Drain\libraries\lvgl\src\core\../misc/lv_anim.h ****  *********************/
  16:..\..\..\arduinoLCD\test\Pain Drain\libraries\lvgl\src\core\../misc/lv_anim.h **** #include "../lv_conf_internal.h"
  17:..\..\..\arduinoLCD\test\Pain Drain\libraries\lvgl\src\core\../misc/lv_anim.h **** 
  18:..\..\..\arduinoLCD\test\Pain Drain\libraries\lvgl\src\core\../misc/lv_anim.h **** #include <stdint.h>
  19:..\..\..\arduinoLCD\test\Pain Drain\libraries\lvgl\src\core\../misc/lv_anim.h **** #include <stdbool.h>
  20:..\..\..\arduinoLCD\test\Pain Drain\libraries\lvgl\src\core\../misc/lv_anim.h **** #include <stddef.h>
  21:..\..\..\arduinoLCD\test\Pain Drain\libraries\lvgl\src\core\../misc/lv_anim.h **** 
  22:..\..\..\arduinoLCD\test\Pain Drain\libraries\lvgl\src\core\../misc/lv_anim.h **** /*********************
  23:..\..\..\arduinoLCD\test\Pain Drain\libraries\lvgl\src\core\../misc/lv_anim.h ****  *      DEFINES
  24:..\..\..\arduinoLCD\test\Pain Drain\libraries\lvgl\src\core\../misc/lv_anim.h ****  *********************/
  25:..\..\..\arduinoLCD\test\Pain Drain\libraries\lvgl\src\core\../misc/lv_anim.h **** 
  26:..\..\..\arduinoLCD\test\Pain Drain\libraries\lvgl\src\core\../misc/lv_anim.h **** #define LV_ANIM_REPEAT_INFINITE      0xFFFF
  27:..\..\..\arduinoLCD\test\Pain Drain\libraries\lvgl\src\core\../misc/lv_anim.h **** #define LV_ANIM_PLAYTIME_INFINITE    0xFFFFFFFF
  28:..\..\..\arduinoLCD\test\Pain Drain\libraries\lvgl\src\core\../misc/lv_anim.h **** 
  29:..\..\..\arduinoLCD\test\Pain Drain\libraries\lvgl\src\core\../misc/lv_anim.h **** LV_EXPORT_CONST_INT(LV_ANIM_REPEAT_INFINITE);
  30:..\..\..\arduinoLCD\test\Pain Drain\libraries\lvgl\src\core\../misc/lv_anim.h **** LV_EXPORT_CONST_INT(LV_ANIM_PLAYTIME_INFINITE);
  31:..\..\..\arduinoLCD\test\Pain Drain\libraries\lvgl\src\core\../misc/lv_anim.h **** 
  32:..\..\..\arduinoLCD\test\Pain Drain\libraries\lvgl\src\core\../misc/lv_anim.h **** /**********************
  33:..\..\..\arduinoLCD\test\Pain Drain\libraries\lvgl\src\core\../misc/lv_anim.h ****  *      TYPEDEFS
  34:..\..\..\arduinoLCD\test\Pain Drain\libraries\lvgl\src\core\../misc/lv_anim.h ****  **********************/
  35:..\..\..\arduinoLCD\test\Pain Drain\libraries\lvgl\src\core\../misc/lv_anim.h **** 
  36:..\..\..\arduinoLCD\test\Pain Drain\libraries\lvgl\src\core\../misc/lv_anim.h **** /** Can be used to indicate if animations are enabled or disabled in a case*/
  37:..\..\..\arduinoLCD\test\Pain Drain\libraries\lvgl\src\core\../misc/lv_anim.h **** typedef enum {
  38:..\..\..\arduinoLCD\test\Pain Drain\libraries\lvgl\src\core\../misc/lv_anim.h ****     LV_ANIM_OFF,
  39:..\..\..\arduinoLCD\test\Pain Drain\libraries\lvgl\src\core\../misc/lv_anim.h ****     LV_ANIM_ON,
  40:..\..\..\arduinoLCD\test\Pain Drain\libraries\lvgl\src\core\../misc/lv_anim.h **** } lv_anim_enable_t;
  41:..\..\..\arduinoLCD\test\Pain Drain\libraries\lvgl\src\core\../misc/lv_anim.h **** 
  42:..\..\..\arduinoLCD\test\Pain Drain\libraries\lvgl\src\core\../misc/lv_anim.h **** struct _lv_anim_t;
  43:..\..\..\arduinoLCD\test\Pain Drain\libraries\lvgl\src\core\../misc/lv_anim.h **** struct _lv_timer_t;
  44:..\..\..\arduinoLCD\test\Pain Drain\libraries\lvgl\src\core\../misc/lv_anim.h **** 
  45:..\..\..\arduinoLCD\test\Pain Drain\libraries\lvgl\src\core\../misc/lv_anim.h **** /** Get the current value during an animation*/
  46:..\..\..\arduinoLCD\test\Pain Drain\libraries\lvgl\src\core\../misc/lv_anim.h **** typedef int32_t (*lv_anim_path_cb_t)(const struct _lv_anim_t *);
  47:..\..\..\arduinoLCD\test\Pain Drain\libraries\lvgl\src\core\../misc/lv_anim.h **** 
  48:..\..\..\arduinoLCD\test\Pain Drain\libraries\lvgl\src\core\../misc/lv_anim.h **** /** Generic prototype of "animator" functions.
  49:..\..\..\arduinoLCD\test\Pain Drain\libraries\lvgl\src\core\../misc/lv_anim.h ****  * First parameter is the variable to animate.
  50:..\..\..\arduinoLCD\test\Pain Drain\libraries\lvgl\src\core\../misc/lv_anim.h ****  * Second parameter is the value to set.
  51:..\..\..\arduinoLCD\test\Pain Drain\libraries\lvgl\src\core\../misc/lv_anim.h ****  * Compatible with `lv_xxx_set_yyy(obj, value)` functions
  52:..\..\..\arduinoLCD\test\Pain Drain\libraries\lvgl\src\core\../misc/lv_anim.h ****  * The `x` in `_xcb_t` means it's not a fully generic prototype because
  53:..\..\..\arduinoLCD\test\Pain Drain\libraries\lvgl\src\core\../misc/lv_anim.h ****  * it doesn't receive `lv_anim_t *` as its first argument*/
  54:..\..\..\arduinoLCD\test\Pain Drain\libraries\lvgl\src\core\../misc/lv_anim.h **** typedef void (*lv_anim_exec_xcb_t)(void *, int32_t);
  55:..\..\..\arduinoLCD\test\Pain Drain\libraries\lvgl\src\core\../misc/lv_anim.h **** 
  56:..\..\..\arduinoLCD\test\Pain Drain\libraries\lvgl\src\core\../misc/lv_anim.h **** /** Same as `lv_anim_exec_xcb_t` but receives `lv_anim_t *` as the first parameter.
  57:..\..\..\arduinoLCD\test\Pain Drain\libraries\lvgl\src\core\../misc/lv_anim.h ****  * It's more consistent but less convenient. Might be used by binding generator functions.*/
  58:..\..\..\arduinoLCD\test\Pain Drain\libraries\lvgl\src\core\../misc/lv_anim.h **** typedef void (*lv_anim_custom_exec_cb_t)(struct _lv_anim_t *, int32_t);
  59:..\..\..\arduinoLCD\test\Pain Drain\libraries\lvgl\src\core\../misc/lv_anim.h **** 
  60:..\..\..\arduinoLCD\test\Pain Drain\libraries\lvgl\src\core\../misc/lv_anim.h **** /** Callback to call when the animation is ready*/
  61:..\..\..\arduinoLCD\test\Pain Drain\libraries\lvgl\src\core\../misc/lv_anim.h **** typedef void (*lv_anim_ready_cb_t)(struct _lv_anim_t *);
  62:..\..\..\arduinoLCD\test\Pain Drain\libraries\lvgl\src\core\../misc/lv_anim.h **** 
  63:..\..\..\arduinoLCD\test\Pain Drain\libraries\lvgl\src\core\../misc/lv_anim.h **** /** Callback to call when the animation really stars (considering `delay`)*/
  64:..\..\..\arduinoLCD\test\Pain Drain\libraries\lvgl\src\core\../misc/lv_anim.h **** typedef void (*lv_anim_start_cb_t)(struct _lv_anim_t *);
  65:..\..\..\arduinoLCD\test\Pain Drain\libraries\lvgl\src\core\../misc/lv_anim.h **** 
  66:..\..\..\arduinoLCD\test\Pain Drain\libraries\lvgl\src\core\../misc/lv_anim.h **** /** Callback used when the animation values are relative to get the current value*/
ARM GAS  C:\Users\haske\AppData\Local\Temp\ccFGJ08j.s 			page 5


  67:..\..\..\arduinoLCD\test\Pain Drain\libraries\lvgl\src\core\../misc/lv_anim.h **** typedef int32_t (*lv_anim_get_value_cb_t)(struct _lv_anim_t *);
  68:..\..\..\arduinoLCD\test\Pain Drain\libraries\lvgl\src\core\../misc/lv_anim.h **** 
  69:..\..\..\arduinoLCD\test\Pain Drain\libraries\lvgl\src\core\../misc/lv_anim.h **** /** Callback used when the animation is deleted*/
  70:..\..\..\arduinoLCD\test\Pain Drain\libraries\lvgl\src\core\../misc/lv_anim.h **** typedef void (*lv_anim_deleted_cb_t)(struct _lv_anim_t *);
  71:..\..\..\arduinoLCD\test\Pain Drain\libraries\lvgl\src\core\../misc/lv_anim.h **** 
  72:..\..\..\arduinoLCD\test\Pain Drain\libraries\lvgl\src\core\../misc/lv_anim.h **** /** Describes an animation*/
  73:..\..\..\arduinoLCD\test\Pain Drain\libraries\lvgl\src\core\../misc/lv_anim.h **** typedef struct _lv_anim_t {
  74:..\..\..\arduinoLCD\test\Pain Drain\libraries\lvgl\src\core\../misc/lv_anim.h ****     void * var;                          /**<Variable to animate*/
  75:..\..\..\arduinoLCD\test\Pain Drain\libraries\lvgl\src\core\../misc/lv_anim.h ****     lv_anim_exec_xcb_t exec_cb;          /**< Function to execute to animate*/
  76:..\..\..\arduinoLCD\test\Pain Drain\libraries\lvgl\src\core\../misc/lv_anim.h ****     lv_anim_start_cb_t start_cb;         /**< Call it when the animation is starts (considering `de
  77:..\..\..\arduinoLCD\test\Pain Drain\libraries\lvgl\src\core\../misc/lv_anim.h ****     lv_anim_ready_cb_t ready_cb;         /**< Call it when the animation is ready*/
  78:..\..\..\arduinoLCD\test\Pain Drain\libraries\lvgl\src\core\../misc/lv_anim.h ****     lv_anim_deleted_cb_t deleted_cb;     /**< Call it when the animation is deleted*/
  79:..\..\..\arduinoLCD\test\Pain Drain\libraries\lvgl\src\core\../misc/lv_anim.h ****     lv_anim_get_value_cb_t get_value_cb; /**< Get the current value in relative mode*/
  80:..\..\..\arduinoLCD\test\Pain Drain\libraries\lvgl\src\core\../misc/lv_anim.h **** #if LV_USE_USER_DATA
  81:..\..\..\arduinoLCD\test\Pain Drain\libraries\lvgl\src\core\../misc/lv_anim.h ****     void * user_data; /**< Custom user data*/
  82:..\..\..\arduinoLCD\test\Pain Drain\libraries\lvgl\src\core\../misc/lv_anim.h **** #endif
  83:..\..\..\arduinoLCD\test\Pain Drain\libraries\lvgl\src\core\../misc/lv_anim.h ****     lv_anim_path_cb_t path_cb;         /**< Describe the path (curve) of animations*/
  84:..\..\..\arduinoLCD\test\Pain Drain\libraries\lvgl\src\core\../misc/lv_anim.h ****     int32_t start_value;               /**< Start value*/
  85:..\..\..\arduinoLCD\test\Pain Drain\libraries\lvgl\src\core\../misc/lv_anim.h ****     int32_t current_value;             /**< Current value*/
  86:..\..\..\arduinoLCD\test\Pain Drain\libraries\lvgl\src\core\../misc/lv_anim.h ****     int32_t end_value;                 /**< End value*/
  87:..\..\..\arduinoLCD\test\Pain Drain\libraries\lvgl\src\core\../misc/lv_anim.h ****     int32_t time;                /**< Animation time in ms*/
  88:..\..\..\arduinoLCD\test\Pain Drain\libraries\lvgl\src\core\../misc/lv_anim.h ****     int32_t act_time;            /**< Current time in animation. Set to negative to make delay.*/
  89:..\..\..\arduinoLCD\test\Pain Drain\libraries\lvgl\src\core\../misc/lv_anim.h ****     uint32_t playback_delay;     /**< Wait before play back*/
  90:..\..\..\arduinoLCD\test\Pain Drain\libraries\lvgl\src\core\../misc/lv_anim.h ****     uint32_t playback_time;      /**< Duration of playback animation*/
  91:..\..\..\arduinoLCD\test\Pain Drain\libraries\lvgl\src\core\../misc/lv_anim.h ****     uint32_t repeat_delay;       /**< Wait before repeat*/
  92:..\..\..\arduinoLCD\test\Pain Drain\libraries\lvgl\src\core\../misc/lv_anim.h ****     uint16_t repeat_cnt;         /**< Repeat count for the animation*/
  93:..\..\..\arduinoLCD\test\Pain Drain\libraries\lvgl\src\core\../misc/lv_anim.h ****     uint8_t early_apply  : 1;    /**< 1: Apply start value immediately even is there is `delay`*/
  94:..\..\..\arduinoLCD\test\Pain Drain\libraries\lvgl\src\core\../misc/lv_anim.h **** 
  95:..\..\..\arduinoLCD\test\Pain Drain\libraries\lvgl\src\core\../misc/lv_anim.h ****     /*Animation system use these - user shouldn't set*/
  96:..\..\..\arduinoLCD\test\Pain Drain\libraries\lvgl\src\core\../misc/lv_anim.h ****     uint8_t playback_now : 1; /**< Play back is in progress*/
  97:..\..\..\arduinoLCD\test\Pain Drain\libraries\lvgl\src\core\../misc/lv_anim.h ****     uint8_t run_round : 1;    /**< Indicates the animation has run in this round*/
  98:..\..\..\arduinoLCD\test\Pain Drain\libraries\lvgl\src\core\../misc/lv_anim.h ****     uint8_t start_cb_called : 1;    /**< Indicates that the `start_cb` was already called*/
  99:..\..\..\arduinoLCD\test\Pain Drain\libraries\lvgl\src\core\../misc/lv_anim.h **** } lv_anim_t;
 100:..\..\..\arduinoLCD\test\Pain Drain\libraries\lvgl\src\core\../misc/lv_anim.h **** 
 101:..\..\..\arduinoLCD\test\Pain Drain\libraries\lvgl\src\core\../misc/lv_anim.h **** /**********************
 102:..\..\..\arduinoLCD\test\Pain Drain\libraries\lvgl\src\core\../misc/lv_anim.h ****  * GLOBAL PROTOTYPES
 103:..\..\..\arduinoLCD\test\Pain Drain\libraries\lvgl\src\core\../misc/lv_anim.h ****  **********************/
 104:..\..\..\arduinoLCD\test\Pain Drain\libraries\lvgl\src\core\../misc/lv_anim.h **** 
 105:..\..\..\arduinoLCD\test\Pain Drain\libraries\lvgl\src\core\../misc/lv_anim.h **** /**
 106:..\..\..\arduinoLCD\test\Pain Drain\libraries\lvgl\src\core\../misc/lv_anim.h ****  * Init. the animation module
 107:..\..\..\arduinoLCD\test\Pain Drain\libraries\lvgl\src\core\../misc/lv_anim.h ****  */
 108:..\..\..\arduinoLCD\test\Pain Drain\libraries\lvgl\src\core\../misc/lv_anim.h **** void _lv_anim_core_init(void);
 109:..\..\..\arduinoLCD\test\Pain Drain\libraries\lvgl\src\core\../misc/lv_anim.h **** 
 110:..\..\..\arduinoLCD\test\Pain Drain\libraries\lvgl\src\core\../misc/lv_anim.h **** /**
 111:..\..\..\arduinoLCD\test\Pain Drain\libraries\lvgl\src\core\../misc/lv_anim.h ****  * Initialize an animation variable.
 112:..\..\..\arduinoLCD\test\Pain Drain\libraries\lvgl\src\core\../misc/lv_anim.h ****  * E.g.:
 113:..\..\..\arduinoLCD\test\Pain Drain\libraries\lvgl\src\core\../misc/lv_anim.h ****  * lv_anim_t a;
 114:..\..\..\arduinoLCD\test\Pain Drain\libraries\lvgl\src\core\../misc/lv_anim.h ****  * lv_anim_init(&a);
 115:..\..\..\arduinoLCD\test\Pain Drain\libraries\lvgl\src\core\../misc/lv_anim.h ****  * lv_anim_set_...(&a);
 116:..\..\..\arduinoLCD\test\Pain Drain\libraries\lvgl\src\core\../misc/lv_anim.h ****  * lv_anim_start(&a);
 117:..\..\..\arduinoLCD\test\Pain Drain\libraries\lvgl\src\core\../misc/lv_anim.h ****  * @param a     pointer to an `lv_anim_t` variable to initialize
 118:..\..\..\arduinoLCD\test\Pain Drain\libraries\lvgl\src\core\../misc/lv_anim.h ****  */
 119:..\..\..\arduinoLCD\test\Pain Drain\libraries\lvgl\src\core\../misc/lv_anim.h **** void lv_anim_init(lv_anim_t * a);
 120:..\..\..\arduinoLCD\test\Pain Drain\libraries\lvgl\src\core\../misc/lv_anim.h **** 
 121:..\..\..\arduinoLCD\test\Pain Drain\libraries\lvgl\src\core\../misc/lv_anim.h **** /**
 122:..\..\..\arduinoLCD\test\Pain Drain\libraries\lvgl\src\core\../misc/lv_anim.h ****  * Set a variable to animate
 123:..\..\..\arduinoLCD\test\Pain Drain\libraries\lvgl\src\core\../misc/lv_anim.h ****  * @param a     pointer to an initialized `lv_anim_t` variable
ARM GAS  C:\Users\haske\AppData\Local\Temp\ccFGJ08j.s 			page 6


 124:..\..\..\arduinoLCD\test\Pain Drain\libraries\lvgl\src\core\../misc/lv_anim.h ****  * @param var   pointer to a variable to animate
 125:..\..\..\arduinoLCD\test\Pain Drain\libraries\lvgl\src\core\../misc/lv_anim.h ****  */
 126:..\..\..\arduinoLCD\test\Pain Drain\libraries\lvgl\src\core\../misc/lv_anim.h **** static inline void lv_anim_set_var(lv_anim_t * a, void * var)
 127:..\..\..\arduinoLCD\test\Pain Drain\libraries\lvgl\src\core\../misc/lv_anim.h **** {
 128:..\..\..\arduinoLCD\test\Pain Drain\libraries\lvgl\src\core\../misc/lv_anim.h ****     a->var = var;
  51              		.loc 2 128 0
  52 000e 0195     		str	r5, [sp, #4]
  53              	.LVL3:
  54              	.LBE13:
  55              	.LBE12:
  56              	.LBB14:
  57              	.LBB15:
 129:..\..\..\arduinoLCD\test\Pain Drain\libraries\lvgl\src\core\../misc/lv_anim.h **** }
 130:..\..\..\arduinoLCD\test\Pain Drain\libraries\lvgl\src\core\../misc/lv_anim.h **** 
 131:..\..\..\arduinoLCD\test\Pain Drain\libraries\lvgl\src\core\../misc/lv_anim.h **** /**
 132:..\..\..\arduinoLCD\test\Pain Drain\libraries\lvgl\src\core\../misc/lv_anim.h ****  * Set a function to animate `var`
 133:..\..\..\arduinoLCD\test\Pain Drain\libraries\lvgl\src\core\../misc/lv_anim.h ****  * @param a         pointer to an initialized `lv_anim_t` variable
 134:..\..\..\arduinoLCD\test\Pain Drain\libraries\lvgl\src\core\../misc/lv_anim.h ****  * @param exec_cb   a function to execute during animation
 135:..\..\..\arduinoLCD\test\Pain Drain\libraries\lvgl\src\core\../misc/lv_anim.h ****  *                  LVGL's built-in functions can be used.
 136:..\..\..\arduinoLCD\test\Pain Drain\libraries\lvgl\src\core\../misc/lv_anim.h ****  *                  E.g. lv_obj_set_x
 137:..\..\..\arduinoLCD\test\Pain Drain\libraries\lvgl\src\core\../misc/lv_anim.h ****  */
 138:..\..\..\arduinoLCD\test\Pain Drain\libraries\lvgl\src\core\../misc/lv_anim.h **** static inline void lv_anim_set_exec_cb(lv_anim_t * a, lv_anim_exec_xcb_t exec_cb)
 139:..\..\..\arduinoLCD\test\Pain Drain\libraries\lvgl\src\core\../misc/lv_anim.h **** {
 140:..\..\..\arduinoLCD\test\Pain Drain\libraries\lvgl\src\core\../misc/lv_anim.h ****     a->exec_cb = exec_cb;
  58              		.loc 2 140 0
  59 0010 0023     		movs	r3, #0
  60 0012 0293     		str	r3, [sp, #8]
  61              	.LVL4:
  62              	.LBE15:
  63              	.LBE14:
  64              	.LBB16:
  65              	.LBB17:
 141:..\..\..\arduinoLCD\test\Pain Drain\libraries\lvgl\src\core\../misc/lv_anim.h **** }
 142:..\..\..\arduinoLCD\test\Pain Drain\libraries\lvgl\src\core\../misc/lv_anim.h **** 
 143:..\..\..\arduinoLCD\test\Pain Drain\libraries\lvgl\src\core\../misc/lv_anim.h **** /**
 144:..\..\..\arduinoLCD\test\Pain Drain\libraries\lvgl\src\core\../misc/lv_anim.h ****  * Set the duration of an animation
 145:..\..\..\arduinoLCD\test\Pain Drain\libraries\lvgl\src\core\../misc/lv_anim.h ****  * @param a         pointer to an initialized `lv_anim_t` variable
 146:..\..\..\arduinoLCD\test\Pain Drain\libraries\lvgl\src\core\../misc/lv_anim.h ****  * @param duration  duration of the animation in milliseconds
 147:..\..\..\arduinoLCD\test\Pain Drain\libraries\lvgl\src\core\../misc/lv_anim.h ****  */
 148:..\..\..\arduinoLCD\test\Pain Drain\libraries\lvgl\src\core\../misc/lv_anim.h **** static inline void lv_anim_set_time(lv_anim_t * a, uint32_t duration)
 149:..\..\..\arduinoLCD\test\Pain Drain\libraries\lvgl\src\core\../misc/lv_anim.h **** {
 150:..\..\..\arduinoLCD\test\Pain Drain\libraries\lvgl\src\core\../misc/lv_anim.h ****     a->time = duration;
  66              		.loc 2 150 0
  67 0014 0123     		movs	r3, #1
  68 0016 0C93     		str	r3, [sp, #48]
  69              	.LVL5:
  70              	.LBE17:
  71              	.LBE16:
  72              	.LBB18:
  73              	.LBB19:
 151:..\..\..\arduinoLCD\test\Pain Drain\libraries\lvgl\src\core\../misc/lv_anim.h **** }
 152:..\..\..\arduinoLCD\test\Pain Drain\libraries\lvgl\src\core\../misc/lv_anim.h **** 
 153:..\..\..\arduinoLCD\test\Pain Drain\libraries\lvgl\src\core\../misc/lv_anim.h **** /**
 154:..\..\..\arduinoLCD\test\Pain Drain\libraries\lvgl\src\core\../misc/lv_anim.h ****  * Set a delay before starting the animation
 155:..\..\..\arduinoLCD\test\Pain Drain\libraries\lvgl\src\core\../misc/lv_anim.h ****  * @param a         pointer to an initialized `lv_anim_t` variable
 156:..\..\..\arduinoLCD\test\Pain Drain\libraries\lvgl\src\core\../misc/lv_anim.h ****  * @param delay     delay before the animation in milliseconds
 157:..\..\..\arduinoLCD\test\Pain Drain\libraries\lvgl\src\core\../misc/lv_anim.h ****  */
ARM GAS  C:\Users\haske\AppData\Local\Temp\ccFGJ08j.s 			page 7


 158:..\..\..\arduinoLCD\test\Pain Drain\libraries\lvgl\src\core\../misc/lv_anim.h **** static inline void lv_anim_set_delay(lv_anim_t * a, uint32_t delay)
 159:..\..\..\arduinoLCD\test\Pain Drain\libraries\lvgl\src\core\../misc/lv_anim.h **** {
 160:..\..\..\arduinoLCD\test\Pain Drain\libraries\lvgl\src\core\../misc/lv_anim.h ****     a->act_time = -(int32_t)(delay);
  74              		.loc 2 160 0
  75 0018 6442     		negs	r4, r4
  76              	.LVL6:
  77 001a 0D94     		str	r4, [sp, #52]
  78              	.LVL7:
  79              	.LBE19:
  80              	.LBE18:
  81              	.LBB20:
  82              	.LBB21:
 161:..\..\..\arduinoLCD\test\Pain Drain\libraries\lvgl\src\core\../misc/lv_anim.h **** }
 162:..\..\..\arduinoLCD\test\Pain Drain\libraries\lvgl\src\core\../misc/lv_anim.h **** 
 163:..\..\..\arduinoLCD\test\Pain Drain\libraries\lvgl\src\core\../misc/lv_anim.h **** /**
 164:..\..\..\arduinoLCD\test\Pain Drain\libraries\lvgl\src\core\../misc/lv_anim.h ****  * Set the start and end values of an animation
 165:..\..\..\arduinoLCD\test\Pain Drain\libraries\lvgl\src\core\../misc/lv_anim.h ****  * @param a         pointer to an initialized `lv_anim_t` variable
 166:..\..\..\arduinoLCD\test\Pain Drain\libraries\lvgl\src\core\../misc/lv_anim.h ****  * @param start     the start value
 167:..\..\..\arduinoLCD\test\Pain Drain\libraries\lvgl\src\core\../misc/lv_anim.h ****  * @param end       the end value
 168:..\..\..\arduinoLCD\test\Pain Drain\libraries\lvgl\src\core\../misc/lv_anim.h ****  */
 169:..\..\..\arduinoLCD\test\Pain Drain\libraries\lvgl\src\core\../misc/lv_anim.h **** static inline void lv_anim_set_values(lv_anim_t * a, int32_t start, int32_t end)
 170:..\..\..\arduinoLCD\test\Pain Drain\libraries\lvgl\src\core\../misc/lv_anim.h **** {
 171:..\..\..\arduinoLCD\test\Pain Drain\libraries\lvgl\src\core\../misc/lv_anim.h ****     a->start_value = start;
 172:..\..\..\arduinoLCD\test\Pain Drain\libraries\lvgl\src\core\../misc/lv_anim.h ****     a->current_value = start;
 173:..\..\..\arduinoLCD\test\Pain Drain\libraries\lvgl\src\core\../misc/lv_anim.h ****     a->end_value = end;
 174:..\..\..\arduinoLCD\test\Pain Drain\libraries\lvgl\src\core\../misc/lv_anim.h **** }
 175:..\..\..\arduinoLCD\test\Pain Drain\libraries\lvgl\src\core\../misc/lv_anim.h **** 
 176:..\..\..\arduinoLCD\test\Pain Drain\libraries\lvgl\src\core\../misc/lv_anim.h **** /**
 177:..\..\..\arduinoLCD\test\Pain Drain\libraries\lvgl\src\core\../misc/lv_anim.h ****  * Similar to `lv_anim_set_exec_cb` but `lv_anim_custom_exec_cb_t` receives
 178:..\..\..\arduinoLCD\test\Pain Drain\libraries\lvgl\src\core\../misc/lv_anim.h ****  * `lv_anim_t * ` as its first parameter instead of `void *`.
 179:..\..\..\arduinoLCD\test\Pain Drain\libraries\lvgl\src\core\../misc/lv_anim.h ****  * This function might be used when LVGL is bound to other languages because
 180:..\..\..\arduinoLCD\test\Pain Drain\libraries\lvgl\src\core\../misc/lv_anim.h ****  * it's more consistent to have `lv_anim_t *` as first parameter.
 181:..\..\..\arduinoLCD\test\Pain Drain\libraries\lvgl\src\core\../misc/lv_anim.h ****  * The variable to animate can be stored in the animation's `user_data`
 182:..\..\..\arduinoLCD\test\Pain Drain\libraries\lvgl\src\core\../misc/lv_anim.h ****  * @param a         pointer to an initialized `lv_anim_t` variable
 183:..\..\..\arduinoLCD\test\Pain Drain\libraries\lvgl\src\core\../misc/lv_anim.h ****  * @param exec_cb   a function to execute.
 184:..\..\..\arduinoLCD\test\Pain Drain\libraries\lvgl\src\core\../misc/lv_anim.h ****  */
 185:..\..\..\arduinoLCD\test\Pain Drain\libraries\lvgl\src\core\../misc/lv_anim.h **** static inline void lv_anim_set_custom_exec_cb(lv_anim_t * a, lv_anim_custom_exec_cb_t exec_cb)
 186:..\..\..\arduinoLCD\test\Pain Drain\libraries\lvgl\src\core\../misc/lv_anim.h **** {
 187:..\..\..\arduinoLCD\test\Pain Drain\libraries\lvgl\src\core\../misc/lv_anim.h ****     a->var     = a;
 188:..\..\..\arduinoLCD\test\Pain Drain\libraries\lvgl\src\core\../misc/lv_anim.h ****     a->exec_cb = (lv_anim_exec_xcb_t)exec_cb;
 189:..\..\..\arduinoLCD\test\Pain Drain\libraries\lvgl\src\core\../misc/lv_anim.h **** }
 190:..\..\..\arduinoLCD\test\Pain Drain\libraries\lvgl\src\core\../misc/lv_anim.h **** 
 191:..\..\..\arduinoLCD\test\Pain Drain\libraries\lvgl\src\core\../misc/lv_anim.h **** /**
 192:..\..\..\arduinoLCD\test\Pain Drain\libraries\lvgl\src\core\../misc/lv_anim.h ****  * Set the path (curve) of the animation.
 193:..\..\..\arduinoLCD\test\Pain Drain\libraries\lvgl\src\core\../misc/lv_anim.h ****  * @param a         pointer to an initialized `lv_anim_t` variable
 194:..\..\..\arduinoLCD\test\Pain Drain\libraries\lvgl\src\core\../misc/lv_anim.h ****  * @param path_cb a function to set the current value of the animation.
 195:..\..\..\arduinoLCD\test\Pain Drain\libraries\lvgl\src\core\../misc/lv_anim.h ****  */
 196:..\..\..\arduinoLCD\test\Pain Drain\libraries\lvgl\src\core\../misc/lv_anim.h **** static inline void lv_anim_set_path_cb(lv_anim_t * a, lv_anim_path_cb_t path_cb)
 197:..\..\..\arduinoLCD\test\Pain Drain\libraries\lvgl\src\core\../misc/lv_anim.h **** {
 198:..\..\..\arduinoLCD\test\Pain Drain\libraries\lvgl\src\core\../misc/lv_anim.h ****     a->path_cb = path_cb;
 199:..\..\..\arduinoLCD\test\Pain Drain\libraries\lvgl\src\core\../misc/lv_anim.h **** }
 200:..\..\..\arduinoLCD\test\Pain Drain\libraries\lvgl\src\core\../misc/lv_anim.h **** 
 201:..\..\..\arduinoLCD\test\Pain Drain\libraries\lvgl\src\core\../misc/lv_anim.h **** /**
 202:..\..\..\arduinoLCD\test\Pain Drain\libraries\lvgl\src\core\../misc/lv_anim.h ****  * Set a function call when the animation really starts (considering `delay`)
 203:..\..\..\arduinoLCD\test\Pain Drain\libraries\lvgl\src\core\../misc/lv_anim.h ****  * @param a         pointer to an initialized `lv_anim_t` variable
 204:..\..\..\arduinoLCD\test\Pain Drain\libraries\lvgl\src\core\../misc/lv_anim.h ****  * @param start_cb  a function call when the animation starts
 205:..\..\..\arduinoLCD\test\Pain Drain\libraries\lvgl\src\core\../misc/lv_anim.h ****  */
ARM GAS  C:\Users\haske\AppData\Local\Temp\ccFGJ08j.s 			page 8


 206:..\..\..\arduinoLCD\test\Pain Drain\libraries\lvgl\src\core\../misc/lv_anim.h **** static inline void lv_anim_set_start_cb(lv_anim_t * a, lv_anim_start_cb_t start_cb)
 207:..\..\..\arduinoLCD\test\Pain Drain\libraries\lvgl\src\core\../misc/lv_anim.h **** {
 208:..\..\..\arduinoLCD\test\Pain Drain\libraries\lvgl\src\core\../misc/lv_anim.h ****     a->start_cb = start_cb;
 209:..\..\..\arduinoLCD\test\Pain Drain\libraries\lvgl\src\core\../misc/lv_anim.h **** }
 210:..\..\..\arduinoLCD\test\Pain Drain\libraries\lvgl\src\core\../misc/lv_anim.h **** 
 211:..\..\..\arduinoLCD\test\Pain Drain\libraries\lvgl\src\core\../misc/lv_anim.h **** /**
 212:..\..\..\arduinoLCD\test\Pain Drain\libraries\lvgl\src\core\../misc/lv_anim.h ****  * Set a function to use the current value of the variable and make start and end value
 213:..\..\..\arduinoLCD\test\Pain Drain\libraries\lvgl\src\core\../misc/lv_anim.h ****  * relative to the returned current value.
 214:..\..\..\arduinoLCD\test\Pain Drain\libraries\lvgl\src\core\../misc/lv_anim.h ****  * @param a             pointer to an initialized `lv_anim_t` variable
 215:..\..\..\arduinoLCD\test\Pain Drain\libraries\lvgl\src\core\../misc/lv_anim.h ****  * @param get_value_cb  a function call when the animation starts
 216:..\..\..\arduinoLCD\test\Pain Drain\libraries\lvgl\src\core\../misc/lv_anim.h ****  */
 217:..\..\..\arduinoLCD\test\Pain Drain\libraries\lvgl\src\core\../misc/lv_anim.h **** static inline void lv_anim_set_get_value_cb(lv_anim_t * a, lv_anim_get_value_cb_t get_value_cb)
 218:..\..\..\arduinoLCD\test\Pain Drain\libraries\lvgl\src\core\../misc/lv_anim.h **** {
 219:..\..\..\arduinoLCD\test\Pain Drain\libraries\lvgl\src\core\../misc/lv_anim.h ****     a->get_value_cb = get_value_cb;
 220:..\..\..\arduinoLCD\test\Pain Drain\libraries\lvgl\src\core\../misc/lv_anim.h **** }
 221:..\..\..\arduinoLCD\test\Pain Drain\libraries\lvgl\src\core\../misc/lv_anim.h **** 
 222:..\..\..\arduinoLCD\test\Pain Drain\libraries\lvgl\src\core\../misc/lv_anim.h **** /**
 223:..\..\..\arduinoLCD\test\Pain Drain\libraries\lvgl\src\core\../misc/lv_anim.h ****  * Set a function call when the animation is ready
 224:..\..\..\arduinoLCD\test\Pain Drain\libraries\lvgl\src\core\../misc/lv_anim.h ****  * @param a         pointer to an initialized `lv_anim_t` variable
 225:..\..\..\arduinoLCD\test\Pain Drain\libraries\lvgl\src\core\../misc/lv_anim.h ****  * @param ready_cb  a function call when the animation is ready
 226:..\..\..\arduinoLCD\test\Pain Drain\libraries\lvgl\src\core\../misc/lv_anim.h ****  */
 227:..\..\..\arduinoLCD\test\Pain Drain\libraries\lvgl\src\core\../misc/lv_anim.h **** static inline void lv_anim_set_ready_cb(lv_anim_t * a, lv_anim_ready_cb_t ready_cb)
 228:..\..\..\arduinoLCD\test\Pain Drain\libraries\lvgl\src\core\../misc/lv_anim.h **** {
 229:..\..\..\arduinoLCD\test\Pain Drain\libraries\lvgl\src\core\../misc/lv_anim.h ****     a->ready_cb = ready_cb;
  83              		.loc 2 229 0
  84 001c 034B     		ldr	r3, .L3
  85 001e 0493     		str	r3, [sp, #16]
  86              	.LVL8:
  87              	.LBE21:
  88              	.LBE20:
 113:..\..\..\arduinoLCD\test\Pain Drain\libraries\lvgl\src\core/lv_obj_tree.c ****     lv_anim_set_var(&a, obj);
 114:..\..\..\arduinoLCD\test\Pain Drain\libraries\lvgl\src\core/lv_obj_tree.c ****     lv_anim_set_exec_cb(&a, NULL);
 115:..\..\..\arduinoLCD\test\Pain Drain\libraries\lvgl\src\core/lv_obj_tree.c ****     lv_anim_set_time(&a, 1);
 116:..\..\..\arduinoLCD\test\Pain Drain\libraries\lvgl\src\core/lv_obj_tree.c ****     lv_anim_set_delay(&a, delay_ms);
 117:..\..\..\arduinoLCD\test\Pain Drain\libraries\lvgl\src\core/lv_obj_tree.c ****     lv_anim_set_ready_cb(&a, lv_obj_del_anim_ready_cb);
 118:..\..\..\arduinoLCD\test\Pain Drain\libraries\lvgl\src\core/lv_obj_tree.c ****     lv_anim_start(&a);
  89              		.loc 1 118 0
  90 0020 01A8     		add	r0, sp, #4
  91 0022 FFF7FEFF 		bl	lv_anim_start
  92              	.LVL9:
 119:..\..\..\arduinoLCD\test\Pain Drain\libraries\lvgl\src\core/lv_obj_tree.c **** }
  93              		.loc 1 119 0
  94 0026 13B0     		add	sp, sp, #76
  95              		.cfi_def_cfa_offset 12
  96              		@ sp needed
  97 0028 30BD     		pop	{r4, r5, pc}
  98              	.LVL10:
  99              	.L4:
 100 002a 00BF     		.align	2
 101              	.L3:
 102 002c 00000000 		.word	lv_obj_del_anim_ready_cb
 103              		.cfi_endproc
 104              	.LFE161:
 105              		.size	lv_obj_del_delayed, .-lv_obj_del_delayed
 106              		.section	.text.lv_obj_del_async,"ax",%progbits
 107              		.align	2
 108              		.global	lv_obj_del_async
ARM GAS  C:\Users\haske\AppData\Local\Temp\ccFGJ08j.s 			page 9


 109              		.thumb
 110              		.thumb_func
 111              		.type	lv_obj_del_async, %function
 112              	lv_obj_del_async:
 113              	.LFB163:
 120:..\..\..\arduinoLCD\test\Pain Drain\libraries\lvgl\src\core/lv_obj_tree.c **** 
 121:..\..\..\arduinoLCD\test\Pain Drain\libraries\lvgl\src\core/lv_obj_tree.c **** void lv_obj_del_anim_ready_cb(lv_anim_t * a)
 122:..\..\..\arduinoLCD\test\Pain Drain\libraries\lvgl\src\core/lv_obj_tree.c **** {
 123:..\..\..\arduinoLCD\test\Pain Drain\libraries\lvgl\src\core/lv_obj_tree.c ****     lv_obj_del(a->var);
 124:..\..\..\arduinoLCD\test\Pain Drain\libraries\lvgl\src\core/lv_obj_tree.c **** }
 125:..\..\..\arduinoLCD\test\Pain Drain\libraries\lvgl\src\core/lv_obj_tree.c **** 
 126:..\..\..\arduinoLCD\test\Pain Drain\libraries\lvgl\src\core/lv_obj_tree.c **** void lv_obj_del_async(lv_obj_t * obj)
 127:..\..\..\arduinoLCD\test\Pain Drain\libraries\lvgl\src\core/lv_obj_tree.c **** {
 114              		.loc 1 127 0
 115              		.cfi_startproc
 116              		@ args = 0, pretend = 0, frame = 0
 117              		@ frame_needed = 0, uses_anonymous_args = 0
 118              	.LVL11:
 119 0000 08B5     		push	{r3, lr}
 120              		.cfi_def_cfa_offset 8
 121              		.cfi_offset 3, -8
 122              		.cfi_offset 14, -4
 128:..\..\..\arduinoLCD\test\Pain Drain\libraries\lvgl\src\core/lv_obj_tree.c ****     LV_ASSERT_OBJ(obj, MY_CLASS);
 129:..\..\..\arduinoLCD\test\Pain Drain\libraries\lvgl\src\core/lv_obj_tree.c ****     lv_async_call(lv_obj_del_async_cb, obj);
 123              		.loc 1 129 0
 124 0002 0146     		mov	r1, r0
 125 0004 0148     		ldr	r0, .L7
 126              	.LVL12:
 127 0006 FFF7FEFF 		bl	lv_async_call
 128              	.LVL13:
 129 000a 08BD     		pop	{r3, pc}
 130              	.L8:
 131              		.align	2
 132              	.L7:
 133 000c 00000000 		.word	lv_obj_del_async_cb
 134              		.cfi_endproc
 135              	.LFE163:
 136              		.size	lv_obj_del_async, .-lv_obj_del_async
 137              		.section	.text.lv_obj_get_parent,"ax",%progbits
 138              		.align	2
 139              		.global	lv_obj_get_parent
 140              		.thumb
 141              		.thumb_func
 142              		.type	lv_obj_get_parent, %function
 143              	lv_obj_get_parent:
 144              	.LFB169:
 130:..\..\..\arduinoLCD\test\Pain Drain\libraries\lvgl\src\core/lv_obj_tree.c **** }
 131:..\..\..\arduinoLCD\test\Pain Drain\libraries\lvgl\src\core/lv_obj_tree.c **** 
 132:..\..\..\arduinoLCD\test\Pain Drain\libraries\lvgl\src\core/lv_obj_tree.c **** void lv_obj_set_parent(lv_obj_t * obj, lv_obj_t * parent)
 133:..\..\..\arduinoLCD\test\Pain Drain\libraries\lvgl\src\core/lv_obj_tree.c **** {
 134:..\..\..\arduinoLCD\test\Pain Drain\libraries\lvgl\src\core/lv_obj_tree.c ****     LV_ASSERT_OBJ(obj, MY_CLASS);
 135:..\..\..\arduinoLCD\test\Pain Drain\libraries\lvgl\src\core/lv_obj_tree.c ****     LV_ASSERT_OBJ(parent, MY_CLASS);
 136:..\..\..\arduinoLCD\test\Pain Drain\libraries\lvgl\src\core/lv_obj_tree.c **** 
 137:..\..\..\arduinoLCD\test\Pain Drain\libraries\lvgl\src\core/lv_obj_tree.c ****     if(obj->parent == NULL) {
 138:..\..\..\arduinoLCD\test\Pain Drain\libraries\lvgl\src\core/lv_obj_tree.c ****         LV_LOG_WARN("Can't set the parent of a screen");
 139:..\..\..\arduinoLCD\test\Pain Drain\libraries\lvgl\src\core/lv_obj_tree.c ****         return;
 140:..\..\..\arduinoLCD\test\Pain Drain\libraries\lvgl\src\core/lv_obj_tree.c ****     }
ARM GAS  C:\Users\haske\AppData\Local\Temp\ccFGJ08j.s 			page 10


 141:..\..\..\arduinoLCD\test\Pain Drain\libraries\lvgl\src\core/lv_obj_tree.c **** 
 142:..\..\..\arduinoLCD\test\Pain Drain\libraries\lvgl\src\core/lv_obj_tree.c ****     if(parent == NULL) {
 143:..\..\..\arduinoLCD\test\Pain Drain\libraries\lvgl\src\core/lv_obj_tree.c ****         LV_LOG_WARN("Can't set parent == NULL to an object");
 144:..\..\..\arduinoLCD\test\Pain Drain\libraries\lvgl\src\core/lv_obj_tree.c ****         return;
 145:..\..\..\arduinoLCD\test\Pain Drain\libraries\lvgl\src\core/lv_obj_tree.c ****     }
 146:..\..\..\arduinoLCD\test\Pain Drain\libraries\lvgl\src\core/lv_obj_tree.c **** 
 147:..\..\..\arduinoLCD\test\Pain Drain\libraries\lvgl\src\core/lv_obj_tree.c ****     lv_obj_invalidate(obj);
 148:..\..\..\arduinoLCD\test\Pain Drain\libraries\lvgl\src\core/lv_obj_tree.c **** 
 149:..\..\..\arduinoLCD\test\Pain Drain\libraries\lvgl\src\core/lv_obj_tree.c ****     lv_obj_allocate_spec_attr(parent);
 150:..\..\..\arduinoLCD\test\Pain Drain\libraries\lvgl\src\core/lv_obj_tree.c **** 
 151:..\..\..\arduinoLCD\test\Pain Drain\libraries\lvgl\src\core/lv_obj_tree.c ****     lv_obj_t * old_parent = obj->parent;
 152:..\..\..\arduinoLCD\test\Pain Drain\libraries\lvgl\src\core/lv_obj_tree.c ****     /*Remove the object from the old parent's child list*/
 153:..\..\..\arduinoLCD\test\Pain Drain\libraries\lvgl\src\core/lv_obj_tree.c ****     int32_t i;
 154:..\..\..\arduinoLCD\test\Pain Drain\libraries\lvgl\src\core/lv_obj_tree.c ****     for(i = lv_obj_get_index(obj); i <= (int32_t)lv_obj_get_child_cnt(old_parent) - 2; i++) {
 155:..\..\..\arduinoLCD\test\Pain Drain\libraries\lvgl\src\core/lv_obj_tree.c ****         old_parent->spec_attr->children[i] = old_parent->spec_attr->children[i + 1];
 156:..\..\..\arduinoLCD\test\Pain Drain\libraries\lvgl\src\core/lv_obj_tree.c ****     }
 157:..\..\..\arduinoLCD\test\Pain Drain\libraries\lvgl\src\core/lv_obj_tree.c ****     old_parent->spec_attr->child_cnt--;
 158:..\..\..\arduinoLCD\test\Pain Drain\libraries\lvgl\src\core/lv_obj_tree.c ****     if(old_parent->spec_attr->child_cnt) {
 159:..\..\..\arduinoLCD\test\Pain Drain\libraries\lvgl\src\core/lv_obj_tree.c ****         old_parent->spec_attr->children = lv_mem_realloc(old_parent->spec_attr->children,
 160:..\..\..\arduinoLCD\test\Pain Drain\libraries\lvgl\src\core/lv_obj_tree.c ****                                                          old_parent->spec_attr->child_cnt * (sizeof
 161:..\..\..\arduinoLCD\test\Pain Drain\libraries\lvgl\src\core/lv_obj_tree.c ****     }
 162:..\..\..\arduinoLCD\test\Pain Drain\libraries\lvgl\src\core/lv_obj_tree.c ****     else {
 163:..\..\..\arduinoLCD\test\Pain Drain\libraries\lvgl\src\core/lv_obj_tree.c ****         lv_mem_free(old_parent->spec_attr->children);
 164:..\..\..\arduinoLCD\test\Pain Drain\libraries\lvgl\src\core/lv_obj_tree.c ****         old_parent->spec_attr->children = NULL;
 165:..\..\..\arduinoLCD\test\Pain Drain\libraries\lvgl\src\core/lv_obj_tree.c ****     }
 166:..\..\..\arduinoLCD\test\Pain Drain\libraries\lvgl\src\core/lv_obj_tree.c **** 
 167:..\..\..\arduinoLCD\test\Pain Drain\libraries\lvgl\src\core/lv_obj_tree.c ****     /*Add the child to the new parent as the last (newest child)*/
 168:..\..\..\arduinoLCD\test\Pain Drain\libraries\lvgl\src\core/lv_obj_tree.c ****     parent->spec_attr->child_cnt++;
 169:..\..\..\arduinoLCD\test\Pain Drain\libraries\lvgl\src\core/lv_obj_tree.c ****     parent->spec_attr->children = lv_mem_realloc(parent->spec_attr->children,
 170:..\..\..\arduinoLCD\test\Pain Drain\libraries\lvgl\src\core/lv_obj_tree.c ****                                                  parent->spec_attr->child_cnt * (sizeof(lv_obj_t *)
 171:..\..\..\arduinoLCD\test\Pain Drain\libraries\lvgl\src\core/lv_obj_tree.c ****     parent->spec_attr->children[lv_obj_get_child_cnt(parent) - 1] = obj;
 172:..\..\..\arduinoLCD\test\Pain Drain\libraries\lvgl\src\core/lv_obj_tree.c **** 
 173:..\..\..\arduinoLCD\test\Pain Drain\libraries\lvgl\src\core/lv_obj_tree.c ****     obj->parent = parent;
 174:..\..\..\arduinoLCD\test\Pain Drain\libraries\lvgl\src\core/lv_obj_tree.c **** 
 175:..\..\..\arduinoLCD\test\Pain Drain\libraries\lvgl\src\core/lv_obj_tree.c ****     /*Notify the original parent because one of its children is lost*/
 176:..\..\..\arduinoLCD\test\Pain Drain\libraries\lvgl\src\core/lv_obj_tree.c ****     lv_obj_readjust_scroll(old_parent, LV_ANIM_OFF);
 177:..\..\..\arduinoLCD\test\Pain Drain\libraries\lvgl\src\core/lv_obj_tree.c ****     lv_obj_scrollbar_invalidate(old_parent);
 178:..\..\..\arduinoLCD\test\Pain Drain\libraries\lvgl\src\core/lv_obj_tree.c ****     lv_event_send(old_parent, LV_EVENT_CHILD_CHANGED, obj);
 179:..\..\..\arduinoLCD\test\Pain Drain\libraries\lvgl\src\core/lv_obj_tree.c ****     lv_event_send(old_parent, LV_EVENT_CHILD_DELETED, NULL);
 180:..\..\..\arduinoLCD\test\Pain Drain\libraries\lvgl\src\core/lv_obj_tree.c **** 
 181:..\..\..\arduinoLCD\test\Pain Drain\libraries\lvgl\src\core/lv_obj_tree.c ****     /*Notify the new parent about the child*/
 182:..\..\..\arduinoLCD\test\Pain Drain\libraries\lvgl\src\core/lv_obj_tree.c ****     lv_event_send(parent, LV_EVENT_CHILD_CHANGED, obj);
 183:..\..\..\arduinoLCD\test\Pain Drain\libraries\lvgl\src\core/lv_obj_tree.c ****     lv_event_send(parent, LV_EVENT_CHILD_CREATED, NULL);
 184:..\..\..\arduinoLCD\test\Pain Drain\libraries\lvgl\src\core/lv_obj_tree.c **** 
 185:..\..\..\arduinoLCD\test\Pain Drain\libraries\lvgl\src\core/lv_obj_tree.c ****     lv_obj_mark_layout_as_dirty(obj);
 186:..\..\..\arduinoLCD\test\Pain Drain\libraries\lvgl\src\core/lv_obj_tree.c **** 
 187:..\..\..\arduinoLCD\test\Pain Drain\libraries\lvgl\src\core/lv_obj_tree.c ****     lv_obj_invalidate(obj);
 188:..\..\..\arduinoLCD\test\Pain Drain\libraries\lvgl\src\core/lv_obj_tree.c **** }
 189:..\..\..\arduinoLCD\test\Pain Drain\libraries\lvgl\src\core/lv_obj_tree.c **** 
 190:..\..\..\arduinoLCD\test\Pain Drain\libraries\lvgl\src\core/lv_obj_tree.c **** void lv_obj_move_to_index(lv_obj_t * obj, int32_t index)
 191:..\..\..\arduinoLCD\test\Pain Drain\libraries\lvgl\src\core/lv_obj_tree.c **** {
 192:..\..\..\arduinoLCD\test\Pain Drain\libraries\lvgl\src\core/lv_obj_tree.c ****     LV_ASSERT_OBJ(obj, MY_CLASS);
 193:..\..\..\arduinoLCD\test\Pain Drain\libraries\lvgl\src\core/lv_obj_tree.c **** 
 194:..\..\..\arduinoLCD\test\Pain Drain\libraries\lvgl\src\core/lv_obj_tree.c ****     if(index < 0) {
 195:..\..\..\arduinoLCD\test\Pain Drain\libraries\lvgl\src\core/lv_obj_tree.c ****         index = lv_obj_get_child_cnt(lv_obj_get_parent(obj)) + index;
 196:..\..\..\arduinoLCD\test\Pain Drain\libraries\lvgl\src\core/lv_obj_tree.c ****     }
 197:..\..\..\arduinoLCD\test\Pain Drain\libraries\lvgl\src\core/lv_obj_tree.c **** 
ARM GAS  C:\Users\haske\AppData\Local\Temp\ccFGJ08j.s 			page 11


 198:..\..\..\arduinoLCD\test\Pain Drain\libraries\lvgl\src\core/lv_obj_tree.c ****     const int32_t old_index = lv_obj_get_index(obj);
 199:..\..\..\arduinoLCD\test\Pain Drain\libraries\lvgl\src\core/lv_obj_tree.c **** 
 200:..\..\..\arduinoLCD\test\Pain Drain\libraries\lvgl\src\core/lv_obj_tree.c ****     lv_obj_t * parent = lv_obj_get_parent(obj);
 201:..\..\..\arduinoLCD\test\Pain Drain\libraries\lvgl\src\core/lv_obj_tree.c **** 
 202:..\..\..\arduinoLCD\test\Pain Drain\libraries\lvgl\src\core/lv_obj_tree.c ****     if(index < 0) return;
 203:..\..\..\arduinoLCD\test\Pain Drain\libraries\lvgl\src\core/lv_obj_tree.c ****     if(index >= (int32_t) lv_obj_get_child_cnt(parent)) return;
 204:..\..\..\arduinoLCD\test\Pain Drain\libraries\lvgl\src\core/lv_obj_tree.c ****     if(index == old_index) return;
 205:..\..\..\arduinoLCD\test\Pain Drain\libraries\lvgl\src\core/lv_obj_tree.c **** 
 206:..\..\..\arduinoLCD\test\Pain Drain\libraries\lvgl\src\core/lv_obj_tree.c ****     int32_t i = old_index;
 207:..\..\..\arduinoLCD\test\Pain Drain\libraries\lvgl\src\core/lv_obj_tree.c ****     if(index < old_index) {
 208:..\..\..\arduinoLCD\test\Pain Drain\libraries\lvgl\src\core/lv_obj_tree.c ****         while(i > index)  {
 209:..\..\..\arduinoLCD\test\Pain Drain\libraries\lvgl\src\core/lv_obj_tree.c ****             parent->spec_attr->children[i] = parent->spec_attr->children[i - 1];
 210:..\..\..\arduinoLCD\test\Pain Drain\libraries\lvgl\src\core/lv_obj_tree.c ****             i--;
 211:..\..\..\arduinoLCD\test\Pain Drain\libraries\lvgl\src\core/lv_obj_tree.c ****         }
 212:..\..\..\arduinoLCD\test\Pain Drain\libraries\lvgl\src\core/lv_obj_tree.c ****     }
 213:..\..\..\arduinoLCD\test\Pain Drain\libraries\lvgl\src\core/lv_obj_tree.c ****     else {
 214:..\..\..\arduinoLCD\test\Pain Drain\libraries\lvgl\src\core/lv_obj_tree.c ****         while(i < index) {
 215:..\..\..\arduinoLCD\test\Pain Drain\libraries\lvgl\src\core/lv_obj_tree.c ****             parent->spec_attr->children[i] = parent->spec_attr->children[i + 1];
 216:..\..\..\arduinoLCD\test\Pain Drain\libraries\lvgl\src\core/lv_obj_tree.c ****             i++;
 217:..\..\..\arduinoLCD\test\Pain Drain\libraries\lvgl\src\core/lv_obj_tree.c ****         }
 218:..\..\..\arduinoLCD\test\Pain Drain\libraries\lvgl\src\core/lv_obj_tree.c ****     }
 219:..\..\..\arduinoLCD\test\Pain Drain\libraries\lvgl\src\core/lv_obj_tree.c **** 
 220:..\..\..\arduinoLCD\test\Pain Drain\libraries\lvgl\src\core/lv_obj_tree.c ****     parent->spec_attr->children[index] = obj;
 221:..\..\..\arduinoLCD\test\Pain Drain\libraries\lvgl\src\core/lv_obj_tree.c ****     lv_event_send(parent, LV_EVENT_CHILD_CHANGED, NULL);
 222:..\..\..\arduinoLCD\test\Pain Drain\libraries\lvgl\src\core/lv_obj_tree.c ****     lv_obj_invalidate(parent);
 223:..\..\..\arduinoLCD\test\Pain Drain\libraries\lvgl\src\core/lv_obj_tree.c **** }
 224:..\..\..\arduinoLCD\test\Pain Drain\libraries\lvgl\src\core/lv_obj_tree.c **** 
 225:..\..\..\arduinoLCD\test\Pain Drain\libraries\lvgl\src\core/lv_obj_tree.c **** void lv_obj_swap(lv_obj_t * obj1, lv_obj_t * obj2)
 226:..\..\..\arduinoLCD\test\Pain Drain\libraries\lvgl\src\core/lv_obj_tree.c **** {
 227:..\..\..\arduinoLCD\test\Pain Drain\libraries\lvgl\src\core/lv_obj_tree.c ****     LV_ASSERT_OBJ(obj1, MY_CLASS);
 228:..\..\..\arduinoLCD\test\Pain Drain\libraries\lvgl\src\core/lv_obj_tree.c ****     LV_ASSERT_OBJ(obj2, MY_CLASS);
 229:..\..\..\arduinoLCD\test\Pain Drain\libraries\lvgl\src\core/lv_obj_tree.c **** 
 230:..\..\..\arduinoLCD\test\Pain Drain\libraries\lvgl\src\core/lv_obj_tree.c ****     lv_obj_t * parent = lv_obj_get_parent(obj1);
 231:..\..\..\arduinoLCD\test\Pain Drain\libraries\lvgl\src\core/lv_obj_tree.c ****     lv_obj_t * parent2 = lv_obj_get_parent(obj2);
 232:..\..\..\arduinoLCD\test\Pain Drain\libraries\lvgl\src\core/lv_obj_tree.c **** 
 233:..\..\..\arduinoLCD\test\Pain Drain\libraries\lvgl\src\core/lv_obj_tree.c ****     uint_fast32_t index1 = lv_obj_get_index(obj1);
 234:..\..\..\arduinoLCD\test\Pain Drain\libraries\lvgl\src\core/lv_obj_tree.c ****     uint_fast32_t index2 = lv_obj_get_index(obj2);
 235:..\..\..\arduinoLCD\test\Pain Drain\libraries\lvgl\src\core/lv_obj_tree.c **** 
 236:..\..\..\arduinoLCD\test\Pain Drain\libraries\lvgl\src\core/lv_obj_tree.c ****     lv_event_send(parent2, LV_EVENT_CHILD_DELETED, obj2);
 237:..\..\..\arduinoLCD\test\Pain Drain\libraries\lvgl\src\core/lv_obj_tree.c ****     lv_event_send(parent, LV_EVENT_CHILD_DELETED, obj1);
 238:..\..\..\arduinoLCD\test\Pain Drain\libraries\lvgl\src\core/lv_obj_tree.c **** 
 239:..\..\..\arduinoLCD\test\Pain Drain\libraries\lvgl\src\core/lv_obj_tree.c ****     parent->spec_attr->children[index1] = obj2;
 240:..\..\..\arduinoLCD\test\Pain Drain\libraries\lvgl\src\core/lv_obj_tree.c ****     parent2->spec_attr->children[index2] = obj1;
 241:..\..\..\arduinoLCD\test\Pain Drain\libraries\lvgl\src\core/lv_obj_tree.c **** 
 242:..\..\..\arduinoLCD\test\Pain Drain\libraries\lvgl\src\core/lv_obj_tree.c ****     lv_event_send(parent, LV_EVENT_CHILD_CHANGED, obj2);
 243:..\..\..\arduinoLCD\test\Pain Drain\libraries\lvgl\src\core/lv_obj_tree.c ****     lv_event_send(parent, LV_EVENT_CHILD_CREATED, obj2);
 244:..\..\..\arduinoLCD\test\Pain Drain\libraries\lvgl\src\core/lv_obj_tree.c ****     lv_event_send(parent2, LV_EVENT_CHILD_CHANGED, obj1);
 245:..\..\..\arduinoLCD\test\Pain Drain\libraries\lvgl\src\core/lv_obj_tree.c ****     lv_event_send(parent2, LV_EVENT_CHILD_CREATED, obj1);
 246:..\..\..\arduinoLCD\test\Pain Drain\libraries\lvgl\src\core/lv_obj_tree.c **** 
 247:..\..\..\arduinoLCD\test\Pain Drain\libraries\lvgl\src\core/lv_obj_tree.c ****     lv_obj_invalidate(parent);
 248:..\..\..\arduinoLCD\test\Pain Drain\libraries\lvgl\src\core/lv_obj_tree.c **** 
 249:..\..\..\arduinoLCD\test\Pain Drain\libraries\lvgl\src\core/lv_obj_tree.c ****     if(parent != parent2) {
 250:..\..\..\arduinoLCD\test\Pain Drain\libraries\lvgl\src\core/lv_obj_tree.c ****         lv_obj_invalidate(parent2);
 251:..\..\..\arduinoLCD\test\Pain Drain\libraries\lvgl\src\core/lv_obj_tree.c ****     }
 252:..\..\..\arduinoLCD\test\Pain Drain\libraries\lvgl\src\core/lv_obj_tree.c ****     lv_group_swap_obj(obj1, obj2);
 253:..\..\..\arduinoLCD\test\Pain Drain\libraries\lvgl\src\core/lv_obj_tree.c **** }
 254:..\..\..\arduinoLCD\test\Pain Drain\libraries\lvgl\src\core/lv_obj_tree.c **** 
ARM GAS  C:\Users\haske\AppData\Local\Temp\ccFGJ08j.s 			page 12


 255:..\..\..\arduinoLCD\test\Pain Drain\libraries\lvgl\src\core/lv_obj_tree.c **** lv_obj_t * lv_obj_get_screen(const lv_obj_t * obj)
 256:..\..\..\arduinoLCD\test\Pain Drain\libraries\lvgl\src\core/lv_obj_tree.c **** {
 257:..\..\..\arduinoLCD\test\Pain Drain\libraries\lvgl\src\core/lv_obj_tree.c ****     LV_ASSERT_OBJ(obj, MY_CLASS);
 258:..\..\..\arduinoLCD\test\Pain Drain\libraries\lvgl\src\core/lv_obj_tree.c **** 
 259:..\..\..\arduinoLCD\test\Pain Drain\libraries\lvgl\src\core/lv_obj_tree.c ****     const lv_obj_t * par = obj;
 260:..\..\..\arduinoLCD\test\Pain Drain\libraries\lvgl\src\core/lv_obj_tree.c ****     const lv_obj_t * act_par;
 261:..\..\..\arduinoLCD\test\Pain Drain\libraries\lvgl\src\core/lv_obj_tree.c **** 
 262:..\..\..\arduinoLCD\test\Pain Drain\libraries\lvgl\src\core/lv_obj_tree.c ****     do {
 263:..\..\..\arduinoLCD\test\Pain Drain\libraries\lvgl\src\core/lv_obj_tree.c ****         act_par = par;
 264:..\..\..\arduinoLCD\test\Pain Drain\libraries\lvgl\src\core/lv_obj_tree.c ****         par = lv_obj_get_parent(act_par);
 265:..\..\..\arduinoLCD\test\Pain Drain\libraries\lvgl\src\core/lv_obj_tree.c ****     } while(par != NULL);
 266:..\..\..\arduinoLCD\test\Pain Drain\libraries\lvgl\src\core/lv_obj_tree.c **** 
 267:..\..\..\arduinoLCD\test\Pain Drain\libraries\lvgl\src\core/lv_obj_tree.c ****     return (lv_obj_t *)act_par;
 268:..\..\..\arduinoLCD\test\Pain Drain\libraries\lvgl\src\core/lv_obj_tree.c **** }
 269:..\..\..\arduinoLCD\test\Pain Drain\libraries\lvgl\src\core/lv_obj_tree.c **** 
 270:..\..\..\arduinoLCD\test\Pain Drain\libraries\lvgl\src\core/lv_obj_tree.c **** lv_disp_t * lv_obj_get_disp(const lv_obj_t * obj)
 271:..\..\..\arduinoLCD\test\Pain Drain\libraries\lvgl\src\core/lv_obj_tree.c **** {
 272:..\..\..\arduinoLCD\test\Pain Drain\libraries\lvgl\src\core/lv_obj_tree.c ****     LV_ASSERT_OBJ(obj, MY_CLASS);
 273:..\..\..\arduinoLCD\test\Pain Drain\libraries\lvgl\src\core/lv_obj_tree.c **** 
 274:..\..\..\arduinoLCD\test\Pain Drain\libraries\lvgl\src\core/lv_obj_tree.c ****     const lv_obj_t * scr;
 275:..\..\..\arduinoLCD\test\Pain Drain\libraries\lvgl\src\core/lv_obj_tree.c **** 
 276:..\..\..\arduinoLCD\test\Pain Drain\libraries\lvgl\src\core/lv_obj_tree.c ****     if(obj->parent == NULL) scr = obj;  /*`obj` is a screen*/
 277:..\..\..\arduinoLCD\test\Pain Drain\libraries\lvgl\src\core/lv_obj_tree.c ****     else scr = lv_obj_get_screen(obj);  /*get the screen of `obj`*/
 278:..\..\..\arduinoLCD\test\Pain Drain\libraries\lvgl\src\core/lv_obj_tree.c **** 
 279:..\..\..\arduinoLCD\test\Pain Drain\libraries\lvgl\src\core/lv_obj_tree.c ****     lv_disp_t * d;
 280:..\..\..\arduinoLCD\test\Pain Drain\libraries\lvgl\src\core/lv_obj_tree.c ****     _LV_LL_READ(&LV_GC_ROOT(_lv_disp_ll), d) {
 281:..\..\..\arduinoLCD\test\Pain Drain\libraries\lvgl\src\core/lv_obj_tree.c ****         uint32_t i;
 282:..\..\..\arduinoLCD\test\Pain Drain\libraries\lvgl\src\core/lv_obj_tree.c ****         for(i = 0; i < d->screen_cnt; i++) {
 283:..\..\..\arduinoLCD\test\Pain Drain\libraries\lvgl\src\core/lv_obj_tree.c ****             if(d->screens[i] == scr) return d;
 284:..\..\..\arduinoLCD\test\Pain Drain\libraries\lvgl\src\core/lv_obj_tree.c ****         }
 285:..\..\..\arduinoLCD\test\Pain Drain\libraries\lvgl\src\core/lv_obj_tree.c ****     }
 286:..\..\..\arduinoLCD\test\Pain Drain\libraries\lvgl\src\core/lv_obj_tree.c **** 
 287:..\..\..\arduinoLCD\test\Pain Drain\libraries\lvgl\src\core/lv_obj_tree.c ****     LV_LOG_WARN("No screen found");
 288:..\..\..\arduinoLCD\test\Pain Drain\libraries\lvgl\src\core/lv_obj_tree.c ****     return NULL;
 289:..\..\..\arduinoLCD\test\Pain Drain\libraries\lvgl\src\core/lv_obj_tree.c **** }
 290:..\..\..\arduinoLCD\test\Pain Drain\libraries\lvgl\src\core/lv_obj_tree.c **** 
 291:..\..\..\arduinoLCD\test\Pain Drain\libraries\lvgl\src\core/lv_obj_tree.c **** lv_obj_t * lv_obj_get_parent(const lv_obj_t * obj)
 292:..\..\..\arduinoLCD\test\Pain Drain\libraries\lvgl\src\core/lv_obj_tree.c **** {
 145              		.loc 1 292 0
 146              		.cfi_startproc
 147              		@ args = 0, pretend = 0, frame = 0
 148              		@ frame_needed = 0, uses_anonymous_args = 0
 149              		@ link register save eliminated.
 150              	.LVL14:
 293:..\..\..\arduinoLCD\test\Pain Drain\libraries\lvgl\src\core/lv_obj_tree.c ****     if(obj == NULL) return NULL;
 151              		.loc 1 293 0
 152 0000 08B1     		cbz	r0, .L11
 294:..\..\..\arduinoLCD\test\Pain Drain\libraries\lvgl\src\core/lv_obj_tree.c ****     LV_ASSERT_OBJ(obj, MY_CLASS);
 295:..\..\..\arduinoLCD\test\Pain Drain\libraries\lvgl\src\core/lv_obj_tree.c **** 
 296:..\..\..\arduinoLCD\test\Pain Drain\libraries\lvgl\src\core/lv_obj_tree.c ****     return obj->parent;
 153              		.loc 1 296 0
 154 0002 4068     		ldr	r0, [r0, #4]
 155              	.LVL15:
 156 0004 7047     		bx	lr
 157              	.LVL16:
 158              	.L11:
 293:..\..\..\arduinoLCD\test\Pain Drain\libraries\lvgl\src\core/lv_obj_tree.c ****     if(obj == NULL) return NULL;
ARM GAS  C:\Users\haske\AppData\Local\Temp\ccFGJ08j.s 			page 13


 159              		.loc 1 293 0
 160 0006 0020     		movs	r0, #0
 161              	.LVL17:
 297:..\..\..\arduinoLCD\test\Pain Drain\libraries\lvgl\src\core/lv_obj_tree.c **** }
 162              		.loc 1 297 0
 163 0008 7047     		bx	lr
 164              		.cfi_endproc
 165              	.LFE169:
 166              		.size	lv_obj_get_parent, .-lv_obj_get_parent
 167 000a 00BF     		.section	.text.lv_obj_get_screen,"ax",%progbits
 168              		.align	2
 169              		.global	lv_obj_get_screen
 170              		.thumb
 171              		.thumb_func
 172              		.type	lv_obj_get_screen, %function
 173              	lv_obj_get_screen:
 174              	.LFB167:
 256:..\..\..\arduinoLCD\test\Pain Drain\libraries\lvgl\src\core/lv_obj_tree.c ****     LV_ASSERT_OBJ(obj, MY_CLASS);
 175              		.loc 1 256 0
 176              		.cfi_startproc
 177              		@ args = 0, pretend = 0, frame = 0
 178              		@ frame_needed = 0, uses_anonymous_args = 0
 179              	.LVL18:
 180 0000 10B5     		push	{r4, lr}
 181              		.cfi_def_cfa_offset 8
 182              		.cfi_offset 4, -8
 183              		.cfi_offset 14, -4
 184 0002 0446     		mov	r4, r0
 185              	.LVL19:
 186 0004 00E0     		b	.L13
 187              	.LVL20:
 188              	.L14:
 264:..\..\..\arduinoLCD\test\Pain Drain\libraries\lvgl\src\core/lv_obj_tree.c ****     } while(par != NULL);
 189              		.loc 1 264 0
 190 0006 1C46     		mov	r4, r3
 191              	.LVL21:
 192              	.L13:
 264:..\..\..\arduinoLCD\test\Pain Drain\libraries\lvgl\src\core/lv_obj_tree.c ****     } while(par != NULL);
 193              		.loc 1 264 0 is_stmt 0 discriminator 1
 194 0008 2046     		mov	r0, r4
 195 000a FFF7FEFF 		bl	lv_obj_get_parent
 196              	.LVL22:
 265:..\..\..\arduinoLCD\test\Pain Drain\libraries\lvgl\src\core/lv_obj_tree.c **** 
 197              		.loc 1 265 0 is_stmt 1 discriminator 1
 198 000e 0346     		mov	r3, r0
 199 0010 0028     		cmp	r0, #0
 200 0012 F8D1     		bne	.L14
 268:..\..\..\arduinoLCD\test\Pain Drain\libraries\lvgl\src\core/lv_obj_tree.c **** 
 201              		.loc 1 268 0
 202 0014 2046     		mov	r0, r4
 203              	.LVL23:
 204 0016 10BD     		pop	{r4, pc}
 205              		.cfi_endproc
 206              	.LFE167:
 207              		.size	lv_obj_get_screen, .-lv_obj_get_screen
 208              		.section	.text.lv_obj_get_disp,"ax",%progbits
 209              		.align	2
ARM GAS  C:\Users\haske\AppData\Local\Temp\ccFGJ08j.s 			page 14


 210              		.global	lv_obj_get_disp
 211              		.thumb
 212              		.thumb_func
 213              		.type	lv_obj_get_disp, %function
 214              	lv_obj_get_disp:
 215              	.LFB168:
 271:..\..\..\arduinoLCD\test\Pain Drain\libraries\lvgl\src\core/lv_obj_tree.c ****     LV_ASSERT_OBJ(obj, MY_CLASS);
 216              		.loc 1 271 0
 217              		.cfi_startproc
 218              		@ args = 0, pretend = 0, frame = 0
 219              		@ frame_needed = 0, uses_anonymous_args = 0
 220              	.LVL24:
 221 0000 10B5     		push	{r4, lr}
 222              		.cfi_def_cfa_offset 8
 223              		.cfi_offset 4, -8
 224              		.cfi_offset 14, -4
 225 0002 0446     		mov	r4, r0
 276:..\..\..\arduinoLCD\test\Pain Drain\libraries\lvgl\src\core/lv_obj_tree.c ****     else scr = lv_obj_get_screen(obj);  /*get the screen of `obj`*/
 226              		.loc 1 276 0
 227 0004 4368     		ldr	r3, [r0, #4]
 228 0006 13B1     		cbz	r3, .L17
 277:..\..\..\arduinoLCD\test\Pain Drain\libraries\lvgl\src\core/lv_obj_tree.c **** 
 229              		.loc 1 277 0
 230 0008 FFF7FEFF 		bl	lv_obj_get_screen
 231              	.LVL25:
 232 000c 0446     		mov	r4, r0
 233              	.LVL26:
 234              	.L17:
 280:..\..\..\arduinoLCD\test\Pain Drain\libraries\lvgl\src\core/lv_obj_tree.c ****         uint32_t i;
 235              		.loc 1 280 0
 236 000e 0B48     		ldr	r0, .L25
 237 0010 FFF7FEFF 		bl	_lv_ll_get_head
 238              	.LVL27:
 239 0014 0EE0     		b	.L18
 240              	.LVL28:
 241              	.L20:
 242              	.LBB22:
 283:..\..\..\arduinoLCD\test\Pain Drain\libraries\lvgl\src\core/lv_obj_tree.c ****         }
 243              		.loc 1 283 0
 244 0016 C268     		ldr	r2, [r0, #12]
 245 0018 52F82320 		ldr	r2, [r2, r3, lsl #2]
 246 001c 9442     		cmp	r4, r2
 247 001e 0BD0     		beq	.L19
 282:..\..\..\arduinoLCD\test\Pain Drain\libraries\lvgl\src\core/lv_obj_tree.c ****             if(d->screens[i] == scr) return d;
 248              		.loc 1 282 0 discriminator 2
 249 0020 0133     		adds	r3, r3, #1
 250              	.LVL29:
 251 0022 00E0     		b	.L21
 252              	.LVL30:
 253              	.L23:
 254              	.LBE22:
 255 0024 0023     		movs	r3, #0
 256              	.L21:
 257              	.LVL31:
 258              	.LBB23:
 282:..\..\..\arduinoLCD\test\Pain Drain\libraries\lvgl\src\core/lv_obj_tree.c ****             if(d->screens[i] == scr) return d;
 259              		.loc 1 282 0 is_stmt 0 discriminator 1
ARM GAS  C:\Users\haske\AppData\Local\Temp\ccFGJ08j.s 			page 15


 260 0026 426A     		ldr	r2, [r0, #36]
 261 0028 9342     		cmp	r3, r2
 262 002a F4D3     		bcc	.L20
 263              	.LBE23:
 280:..\..\..\arduinoLCD\test\Pain Drain\libraries\lvgl\src\core/lv_obj_tree.c ****         uint32_t i;
 264              		.loc 1 280 0 is_stmt 1 discriminator 2
 265 002c 0146     		mov	r1, r0
 266 002e 0348     		ldr	r0, .L25
 267              	.LVL32:
 268 0030 FFF7FEFF 		bl	_lv_ll_get_next
 269              	.LVL33:
 270              	.L18:
 280:..\..\..\arduinoLCD\test\Pain Drain\libraries\lvgl\src\core/lv_obj_tree.c ****         uint32_t i;
 271              		.loc 1 280 0 is_stmt 0 discriminator 1
 272 0034 0028     		cmp	r0, #0
 273 0036 F5D1     		bne	.L23
 274              	.L19:
 289:..\..\..\arduinoLCD\test\Pain Drain\libraries\lvgl\src\core/lv_obj_tree.c **** 
 275              		.loc 1 289 0 is_stmt 1
 276 0038 10BD     		pop	{r4, pc}
 277              	.LVL34:
 278              	.L26:
 279 003a 00BF     		.align	2
 280              	.L25:
 281 003c 00000000 		.word	_lv_disp_ll
 282              		.cfi_endproc
 283              	.LFE168:
 284              		.size	lv_obj_get_disp, .-lv_obj_get_disp
 285              		.section	.text.lv_obj_get_child,"ax",%progbits
 286              		.align	2
 287              		.global	lv_obj_get_child
 288              		.thumb
 289              		.thumb_func
 290              		.type	lv_obj_get_child, %function
 291              	lv_obj_get_child:
 292              	.LFB170:
 298:..\..\..\arduinoLCD\test\Pain Drain\libraries\lvgl\src\core/lv_obj_tree.c **** 
 299:..\..\..\arduinoLCD\test\Pain Drain\libraries\lvgl\src\core/lv_obj_tree.c **** lv_obj_t * lv_obj_get_child(const lv_obj_t * obj, int32_t id)
 300:..\..\..\arduinoLCD\test\Pain Drain\libraries\lvgl\src\core/lv_obj_tree.c **** {
 293              		.loc 1 300 0
 294              		.cfi_startproc
 295              		@ args = 0, pretend = 0, frame = 0
 296              		@ frame_needed = 0, uses_anonymous_args = 0
 297              		@ link register save eliminated.
 298              	.LVL35:
 301:..\..\..\arduinoLCD\test\Pain Drain\libraries\lvgl\src\core/lv_obj_tree.c ****     LV_ASSERT_OBJ(obj, MY_CLASS);
 302:..\..\..\arduinoLCD\test\Pain Drain\libraries\lvgl\src\core/lv_obj_tree.c **** 
 303:..\..\..\arduinoLCD\test\Pain Drain\libraries\lvgl\src\core/lv_obj_tree.c ****     if(obj->spec_attr == NULL) return NULL;
 299              		.loc 1 303 0
 300 0000 8368     		ldr	r3, [r0, #8]
 301 0002 7BB1     		cbz	r3, .L31
 304:..\..\..\arduinoLCD\test\Pain Drain\libraries\lvgl\src\core/lv_obj_tree.c **** 
 305:..\..\..\arduinoLCD\test\Pain Drain\libraries\lvgl\src\core/lv_obj_tree.c ****     uint32_t idu;
 306:..\..\..\arduinoLCD\test\Pain Drain\libraries\lvgl\src\core/lv_obj_tree.c ****     if(id < 0) {
 302              		.loc 1 306 0
 303 0004 0029     		cmp	r1, #0
 304 0006 05DA     		bge	.L29
ARM GAS  C:\Users\haske\AppData\Local\Temp\ccFGJ08j.s 			page 16


 307:..\..\..\arduinoLCD\test\Pain Drain\libraries\lvgl\src\core/lv_obj_tree.c ****         id = obj->spec_attr->child_cnt + id;
 305              		.loc 1 307 0
 306 0008 5A68     		ldr	r2, [r3, #4]
 307 000a 1144     		add	r1, r1, r2
 308              	.LVL36:
 309 000c 0A46     		mov	r2, r1
 310              	.LVL37:
 308:..\..\..\arduinoLCD\test\Pain Drain\libraries\lvgl\src\core/lv_obj_tree.c ****         if(id < 0) return NULL;
 311              		.loc 1 308 0
 312 000e 0029     		cmp	r1, #0
 313 0010 01DA     		bge	.L30
 314 0012 09E0     		b	.L32
 315              	.L29:
 309:..\..\..\arduinoLCD\test\Pain Drain\libraries\lvgl\src\core/lv_obj_tree.c ****         idu = (uint32_t) id;
 310:..\..\..\arduinoLCD\test\Pain Drain\libraries\lvgl\src\core/lv_obj_tree.c ****     }
 311:..\..\..\arduinoLCD\test\Pain Drain\libraries\lvgl\src\core/lv_obj_tree.c ****     else {
 312:..\..\..\arduinoLCD\test\Pain Drain\libraries\lvgl\src\core/lv_obj_tree.c ****         idu = id;
 316              		.loc 1 312 0
 317 0014 0A46     		mov	r2, r1
 318              	.LVL38:
 319              	.L30:
 313:..\..\..\arduinoLCD\test\Pain Drain\libraries\lvgl\src\core/lv_obj_tree.c ****     }
 314:..\..\..\arduinoLCD\test\Pain Drain\libraries\lvgl\src\core/lv_obj_tree.c **** 
 315:..\..\..\arduinoLCD\test\Pain Drain\libraries\lvgl\src\core/lv_obj_tree.c ****     if(idu >= obj->spec_attr->child_cnt) return NULL;
 320              		.loc 1 315 0
 321 0016 5868     		ldr	r0, [r3, #4]
 322              	.LVL39:
 323 0018 8242     		cmp	r2, r0
 324 001a 07D2     		bcs	.L33
 316:..\..\..\arduinoLCD\test\Pain Drain\libraries\lvgl\src\core/lv_obj_tree.c ****     else return obj->spec_attr->children[id];
 325              		.loc 1 316 0
 326 001c 1B68     		ldr	r3, [r3]
 327 001e 53F82100 		ldr	r0, [r3, r1, lsl #2]
 328 0022 7047     		bx	lr
 329              	.LVL40:
 330              	.L31:
 303:..\..\..\arduinoLCD\test\Pain Drain\libraries\lvgl\src\core/lv_obj_tree.c **** 
 331              		.loc 1 303 0
 332 0024 0020     		movs	r0, #0
 333              	.LVL41:
 334 0026 7047     		bx	lr
 335              	.LVL42:
 336              	.L32:
 308:..\..\..\arduinoLCD\test\Pain Drain\libraries\lvgl\src\core/lv_obj_tree.c ****         idu = (uint32_t) id;
 337              		.loc 1 308 0
 338 0028 0020     		movs	r0, #0
 339              	.LVL43:
 340 002a 7047     		bx	lr
 341              	.LVL44:
 342              	.L33:
 315:..\..\..\arduinoLCD\test\Pain Drain\libraries\lvgl\src\core/lv_obj_tree.c ****     else return obj->spec_attr->children[id];
 343              		.loc 1 315 0
 344 002c 0020     		movs	r0, #0
 317:..\..\..\arduinoLCD\test\Pain Drain\libraries\lvgl\src\core/lv_obj_tree.c **** }
 345              		.loc 1 317 0
 346 002e 7047     		bx	lr
 347              		.cfi_endproc
ARM GAS  C:\Users\haske\AppData\Local\Temp\ccFGJ08j.s 			page 17


 348              	.LFE170:
 349              		.size	lv_obj_get_child, .-lv_obj_get_child
 350              		.section	.text.lv_obj_get_child_cnt,"ax",%progbits
 351              		.align	2
 352              		.global	lv_obj_get_child_cnt
 353              		.thumb
 354              		.thumb_func
 355              		.type	lv_obj_get_child_cnt, %function
 356              	lv_obj_get_child_cnt:
 357              	.LFB171:
 318:..\..\..\arduinoLCD\test\Pain Drain\libraries\lvgl\src\core/lv_obj_tree.c **** 
 319:..\..\..\arduinoLCD\test\Pain Drain\libraries\lvgl\src\core/lv_obj_tree.c **** uint32_t lv_obj_get_child_cnt(const lv_obj_t * obj)
 320:..\..\..\arduinoLCD\test\Pain Drain\libraries\lvgl\src\core/lv_obj_tree.c **** {
 358              		.loc 1 320 0
 359              		.cfi_startproc
 360              		@ args = 0, pretend = 0, frame = 0
 361              		@ frame_needed = 0, uses_anonymous_args = 0
 362              		@ link register save eliminated.
 363              	.LVL45:
 321:..\..\..\arduinoLCD\test\Pain Drain\libraries\lvgl\src\core/lv_obj_tree.c ****     LV_ASSERT_OBJ(obj, MY_CLASS);
 322:..\..\..\arduinoLCD\test\Pain Drain\libraries\lvgl\src\core/lv_obj_tree.c ****     if(obj->spec_attr == NULL) return 0;
 364              		.loc 1 322 0
 365 0000 8368     		ldr	r3, [r0, #8]
 366 0002 0BB1     		cbz	r3, .L36
 323:..\..\..\arduinoLCD\test\Pain Drain\libraries\lvgl\src\core/lv_obj_tree.c ****     return obj->spec_attr->child_cnt;
 367              		.loc 1 323 0
 368 0004 5868     		ldr	r0, [r3, #4]
 369              	.LVL46:
 370 0006 7047     		bx	lr
 371              	.LVL47:
 372              	.L36:
 322:..\..\..\arduinoLCD\test\Pain Drain\libraries\lvgl\src\core/lv_obj_tree.c ****     return obj->spec_attr->child_cnt;
 373              		.loc 1 322 0
 374 0008 0020     		movs	r0, #0
 375              	.LVL48:
 324:..\..\..\arduinoLCD\test\Pain Drain\libraries\lvgl\src\core/lv_obj_tree.c **** }
 376              		.loc 1 324 0
 377 000a 7047     		bx	lr
 378              		.cfi_endproc
 379              	.LFE171:
 380              		.size	lv_obj_get_child_cnt, .-lv_obj_get_child_cnt
 381              		.section	.text.walk_core,"ax",%progbits
 382              		.align	2
 383              		.thumb
 384              		.thumb_func
 385              		.type	walk_core, %function
 386              	walk_core:
 387              	.LFB176:
 325:..\..\..\arduinoLCD\test\Pain Drain\libraries\lvgl\src\core/lv_obj_tree.c **** 
 326:..\..\..\arduinoLCD\test\Pain Drain\libraries\lvgl\src\core/lv_obj_tree.c **** uint32_t lv_obj_get_index(const lv_obj_t * obj)
 327:..\..\..\arduinoLCD\test\Pain Drain\libraries\lvgl\src\core/lv_obj_tree.c **** {
 328:..\..\..\arduinoLCD\test\Pain Drain\libraries\lvgl\src\core/lv_obj_tree.c ****     LV_ASSERT_OBJ(obj, MY_CLASS);
 329:..\..\..\arduinoLCD\test\Pain Drain\libraries\lvgl\src\core/lv_obj_tree.c **** 
 330:..\..\..\arduinoLCD\test\Pain Drain\libraries\lvgl\src\core/lv_obj_tree.c ****     lv_obj_t * parent = lv_obj_get_parent(obj);
 331:..\..\..\arduinoLCD\test\Pain Drain\libraries\lvgl\src\core/lv_obj_tree.c ****     if(parent == NULL) return 0;
 332:..\..\..\arduinoLCD\test\Pain Drain\libraries\lvgl\src\core/lv_obj_tree.c **** 
 333:..\..\..\arduinoLCD\test\Pain Drain\libraries\lvgl\src\core/lv_obj_tree.c ****     uint32_t i = 0;
ARM GAS  C:\Users\haske\AppData\Local\Temp\ccFGJ08j.s 			page 18


 334:..\..\..\arduinoLCD\test\Pain Drain\libraries\lvgl\src\core/lv_obj_tree.c ****     for(i = 0; i < lv_obj_get_child_cnt(parent); i++) {
 335:..\..\..\arduinoLCD\test\Pain Drain\libraries\lvgl\src\core/lv_obj_tree.c ****         if(lv_obj_get_child(parent, i) == obj) return i;
 336:..\..\..\arduinoLCD\test\Pain Drain\libraries\lvgl\src\core/lv_obj_tree.c ****     }
 337:..\..\..\arduinoLCD\test\Pain Drain\libraries\lvgl\src\core/lv_obj_tree.c **** 
 338:..\..\..\arduinoLCD\test\Pain Drain\libraries\lvgl\src\core/lv_obj_tree.c ****     return 0xFFFFFFFF; /*Shouldn't happen*/
 339:..\..\..\arduinoLCD\test\Pain Drain\libraries\lvgl\src\core/lv_obj_tree.c **** }
 340:..\..\..\arduinoLCD\test\Pain Drain\libraries\lvgl\src\core/lv_obj_tree.c **** 
 341:..\..\..\arduinoLCD\test\Pain Drain\libraries\lvgl\src\core/lv_obj_tree.c **** void lv_obj_tree_walk(lv_obj_t * start_obj, lv_obj_tree_walk_cb_t cb, void * user_data)
 342:..\..\..\arduinoLCD\test\Pain Drain\libraries\lvgl\src\core/lv_obj_tree.c **** {
 343:..\..\..\arduinoLCD\test\Pain Drain\libraries\lvgl\src\core/lv_obj_tree.c ****     walk_core(start_obj, cb, user_data);
 344:..\..\..\arduinoLCD\test\Pain Drain\libraries\lvgl\src\core/lv_obj_tree.c **** }
 345:..\..\..\arduinoLCD\test\Pain Drain\libraries\lvgl\src\core/lv_obj_tree.c **** 
 346:..\..\..\arduinoLCD\test\Pain Drain\libraries\lvgl\src\core/lv_obj_tree.c **** /**********************
 347:..\..\..\arduinoLCD\test\Pain Drain\libraries\lvgl\src\core/lv_obj_tree.c ****  *   STATIC FUNCTIONS
 348:..\..\..\arduinoLCD\test\Pain Drain\libraries\lvgl\src\core/lv_obj_tree.c ****  **********************/
 349:..\..\..\arduinoLCD\test\Pain Drain\libraries\lvgl\src\core/lv_obj_tree.c **** 
 350:..\..\..\arduinoLCD\test\Pain Drain\libraries\lvgl\src\core/lv_obj_tree.c **** static void lv_obj_del_async_cb(void * obj)
 351:..\..\..\arduinoLCD\test\Pain Drain\libraries\lvgl\src\core/lv_obj_tree.c **** {
 352:..\..\..\arduinoLCD\test\Pain Drain\libraries\lvgl\src\core/lv_obj_tree.c ****     LV_ASSERT_OBJ(obj, MY_CLASS);
 353:..\..\..\arduinoLCD\test\Pain Drain\libraries\lvgl\src\core/lv_obj_tree.c **** 
 354:..\..\..\arduinoLCD\test\Pain Drain\libraries\lvgl\src\core/lv_obj_tree.c ****     lv_obj_del(obj);
 355:..\..\..\arduinoLCD\test\Pain Drain\libraries\lvgl\src\core/lv_obj_tree.c **** }
 356:..\..\..\arduinoLCD\test\Pain Drain\libraries\lvgl\src\core/lv_obj_tree.c **** 
 357:..\..\..\arduinoLCD\test\Pain Drain\libraries\lvgl\src\core/lv_obj_tree.c **** static void obj_del_core(lv_obj_t * obj)
 358:..\..\..\arduinoLCD\test\Pain Drain\libraries\lvgl\src\core/lv_obj_tree.c **** {
 359:..\..\..\arduinoLCD\test\Pain Drain\libraries\lvgl\src\core/lv_obj_tree.c ****     /*Let the user free the resources used in `LV_EVENT_DELETE`*/
 360:..\..\..\arduinoLCD\test\Pain Drain\libraries\lvgl\src\core/lv_obj_tree.c ****     lv_res_t res = lv_event_send(obj, LV_EVENT_DELETE, NULL);
 361:..\..\..\arduinoLCD\test\Pain Drain\libraries\lvgl\src\core/lv_obj_tree.c ****     if(res == LV_RES_INV) return;
 362:..\..\..\arduinoLCD\test\Pain Drain\libraries\lvgl\src\core/lv_obj_tree.c **** 
 363:..\..\..\arduinoLCD\test\Pain Drain\libraries\lvgl\src\core/lv_obj_tree.c ****     /*Recursively delete the children*/
 364:..\..\..\arduinoLCD\test\Pain Drain\libraries\lvgl\src\core/lv_obj_tree.c ****     lv_obj_t * child = lv_obj_get_child(obj, 0);
 365:..\..\..\arduinoLCD\test\Pain Drain\libraries\lvgl\src\core/lv_obj_tree.c ****     while(child) {
 366:..\..\..\arduinoLCD\test\Pain Drain\libraries\lvgl\src\core/lv_obj_tree.c ****         obj_del_core(child);
 367:..\..\..\arduinoLCD\test\Pain Drain\libraries\lvgl\src\core/lv_obj_tree.c ****         child = lv_obj_get_child(obj, 0);
 368:..\..\..\arduinoLCD\test\Pain Drain\libraries\lvgl\src\core/lv_obj_tree.c ****     }
 369:..\..\..\arduinoLCD\test\Pain Drain\libraries\lvgl\src\core/lv_obj_tree.c **** 
 370:..\..\..\arduinoLCD\test\Pain Drain\libraries\lvgl\src\core/lv_obj_tree.c ****     lv_group_t * group = lv_obj_get_group(obj);
 371:..\..\..\arduinoLCD\test\Pain Drain\libraries\lvgl\src\core/lv_obj_tree.c **** 
 372:..\..\..\arduinoLCD\test\Pain Drain\libraries\lvgl\src\core/lv_obj_tree.c ****     /*Reset all input devices if the object to delete is used*/
 373:..\..\..\arduinoLCD\test\Pain Drain\libraries\lvgl\src\core/lv_obj_tree.c ****     lv_indev_t * indev = lv_indev_get_next(NULL);
 374:..\..\..\arduinoLCD\test\Pain Drain\libraries\lvgl\src\core/lv_obj_tree.c ****     while(indev) {
 375:..\..\..\arduinoLCD\test\Pain Drain\libraries\lvgl\src\core/lv_obj_tree.c ****         if(indev->proc.types.pointer.act_obj == obj || indev->proc.types.pointer.last_obj == obj) {
 376:..\..\..\arduinoLCD\test\Pain Drain\libraries\lvgl\src\core/lv_obj_tree.c ****             lv_indev_reset(indev, obj);
 377:..\..\..\arduinoLCD\test\Pain Drain\libraries\lvgl\src\core/lv_obj_tree.c ****         }
 378:..\..\..\arduinoLCD\test\Pain Drain\libraries\lvgl\src\core/lv_obj_tree.c ****         if(indev->proc.types.pointer.last_pressed == obj) {
 379:..\..\..\arduinoLCD\test\Pain Drain\libraries\lvgl\src\core/lv_obj_tree.c ****             indev->proc.types.pointer.last_pressed = NULL;
 380:..\..\..\arduinoLCD\test\Pain Drain\libraries\lvgl\src\core/lv_obj_tree.c ****         }
 381:..\..\..\arduinoLCD\test\Pain Drain\libraries\lvgl\src\core/lv_obj_tree.c **** 
 382:..\..\..\arduinoLCD\test\Pain Drain\libraries\lvgl\src\core/lv_obj_tree.c ****         if(indev->group == group && obj == lv_indev_get_obj_act()) {
 383:..\..\..\arduinoLCD\test\Pain Drain\libraries\lvgl\src\core/lv_obj_tree.c ****             lv_indev_reset(indev, obj);
 384:..\..\..\arduinoLCD\test\Pain Drain\libraries\lvgl\src\core/lv_obj_tree.c ****         }
 385:..\..\..\arduinoLCD\test\Pain Drain\libraries\lvgl\src\core/lv_obj_tree.c ****         indev = lv_indev_get_next(indev);
 386:..\..\..\arduinoLCD\test\Pain Drain\libraries\lvgl\src\core/lv_obj_tree.c ****     }
 387:..\..\..\arduinoLCD\test\Pain Drain\libraries\lvgl\src\core/lv_obj_tree.c **** 
 388:..\..\..\arduinoLCD\test\Pain Drain\libraries\lvgl\src\core/lv_obj_tree.c ****     /*All children deleted. Now clean up the object specific data*/
 389:..\..\..\arduinoLCD\test\Pain Drain\libraries\lvgl\src\core/lv_obj_tree.c ****     _lv_obj_destruct(obj);
 390:..\..\..\arduinoLCD\test\Pain Drain\libraries\lvgl\src\core/lv_obj_tree.c **** 
ARM GAS  C:\Users\haske\AppData\Local\Temp\ccFGJ08j.s 			page 19


 391:..\..\..\arduinoLCD\test\Pain Drain\libraries\lvgl\src\core/lv_obj_tree.c ****     /*Remove the screen for the screen list*/
 392:..\..\..\arduinoLCD\test\Pain Drain\libraries\lvgl\src\core/lv_obj_tree.c ****     if(obj->parent == NULL) {
 393:..\..\..\arduinoLCD\test\Pain Drain\libraries\lvgl\src\core/lv_obj_tree.c ****         lv_disp_t * disp = lv_obj_get_disp(obj);
 394:..\..\..\arduinoLCD\test\Pain Drain\libraries\lvgl\src\core/lv_obj_tree.c ****         uint32_t i;
 395:..\..\..\arduinoLCD\test\Pain Drain\libraries\lvgl\src\core/lv_obj_tree.c ****         /*Find the screen in the list*/
 396:..\..\..\arduinoLCD\test\Pain Drain\libraries\lvgl\src\core/lv_obj_tree.c ****         for(i = 0; i < disp->screen_cnt; i++) {
 397:..\..\..\arduinoLCD\test\Pain Drain\libraries\lvgl\src\core/lv_obj_tree.c ****             if(disp->screens[i] == obj) break;
 398:..\..\..\arduinoLCD\test\Pain Drain\libraries\lvgl\src\core/lv_obj_tree.c ****         }
 399:..\..\..\arduinoLCD\test\Pain Drain\libraries\lvgl\src\core/lv_obj_tree.c **** 
 400:..\..\..\arduinoLCD\test\Pain Drain\libraries\lvgl\src\core/lv_obj_tree.c ****         uint32_t id = i;
 401:..\..\..\arduinoLCD\test\Pain Drain\libraries\lvgl\src\core/lv_obj_tree.c ****         for(i = id; i < disp->screen_cnt - 1; i++) {
 402:..\..\..\arduinoLCD\test\Pain Drain\libraries\lvgl\src\core/lv_obj_tree.c ****             disp->screens[i] = disp->screens[i + 1];
 403:..\..\..\arduinoLCD\test\Pain Drain\libraries\lvgl\src\core/lv_obj_tree.c ****         }
 404:..\..\..\arduinoLCD\test\Pain Drain\libraries\lvgl\src\core/lv_obj_tree.c ****         disp->screen_cnt--;
 405:..\..\..\arduinoLCD\test\Pain Drain\libraries\lvgl\src\core/lv_obj_tree.c ****         disp->screens = lv_mem_realloc(disp->screens, disp->screen_cnt * sizeof(lv_obj_t *));
 406:..\..\..\arduinoLCD\test\Pain Drain\libraries\lvgl\src\core/lv_obj_tree.c ****     }
 407:..\..\..\arduinoLCD\test\Pain Drain\libraries\lvgl\src\core/lv_obj_tree.c ****     /*Remove the object from the child list of its parent*/
 408:..\..\..\arduinoLCD\test\Pain Drain\libraries\lvgl\src\core/lv_obj_tree.c ****     else {
 409:..\..\..\arduinoLCD\test\Pain Drain\libraries\lvgl\src\core/lv_obj_tree.c ****         uint32_t id = lv_obj_get_index(obj);
 410:..\..\..\arduinoLCD\test\Pain Drain\libraries\lvgl\src\core/lv_obj_tree.c ****         uint32_t i;
 411:..\..\..\arduinoLCD\test\Pain Drain\libraries\lvgl\src\core/lv_obj_tree.c ****         for(i = id; i < obj->parent->spec_attr->child_cnt - 1; i++) {
 412:..\..\..\arduinoLCD\test\Pain Drain\libraries\lvgl\src\core/lv_obj_tree.c ****             obj->parent->spec_attr->children[i] = obj->parent->spec_attr->children[i + 1];
 413:..\..\..\arduinoLCD\test\Pain Drain\libraries\lvgl\src\core/lv_obj_tree.c ****         }
 414:..\..\..\arduinoLCD\test\Pain Drain\libraries\lvgl\src\core/lv_obj_tree.c ****         obj->parent->spec_attr->child_cnt--;
 415:..\..\..\arduinoLCD\test\Pain Drain\libraries\lvgl\src\core/lv_obj_tree.c ****         obj->parent->spec_attr->children = lv_mem_realloc(obj->parent->spec_attr->children,
 416:..\..\..\arduinoLCD\test\Pain Drain\libraries\lvgl\src\core/lv_obj_tree.c ****                                                           obj->parent->spec_attr->child_cnt * sizeo
 417:..\..\..\arduinoLCD\test\Pain Drain\libraries\lvgl\src\core/lv_obj_tree.c ****     }
 418:..\..\..\arduinoLCD\test\Pain Drain\libraries\lvgl\src\core/lv_obj_tree.c **** 
 419:..\..\..\arduinoLCD\test\Pain Drain\libraries\lvgl\src\core/lv_obj_tree.c ****     /*Free the object itself*/
 420:..\..\..\arduinoLCD\test\Pain Drain\libraries\lvgl\src\core/lv_obj_tree.c ****     lv_mem_free(obj);
 421:..\..\..\arduinoLCD\test\Pain Drain\libraries\lvgl\src\core/lv_obj_tree.c **** }
 422:..\..\..\arduinoLCD\test\Pain Drain\libraries\lvgl\src\core/lv_obj_tree.c **** 
 423:..\..\..\arduinoLCD\test\Pain Drain\libraries\lvgl\src\core/lv_obj_tree.c **** 
 424:..\..\..\arduinoLCD\test\Pain Drain\libraries\lvgl\src\core/lv_obj_tree.c **** static lv_obj_tree_walk_res_t walk_core(lv_obj_t * obj, lv_obj_tree_walk_cb_t cb, void * user_data)
 425:..\..\..\arduinoLCD\test\Pain Drain\libraries\lvgl\src\core/lv_obj_tree.c **** {
 388              		.loc 1 425 0
 389              		.cfi_startproc
 390              		@ args = 0, pretend = 0, frame = 0
 391              		@ frame_needed = 0, uses_anonymous_args = 0
 392              	.LVL49:
 393 0000 F8B5     		push	{r3, r4, r5, r6, r7, lr}
 394              		.cfi_def_cfa_offset 24
 395              		.cfi_offset 3, -24
 396              		.cfi_offset 4, -20
 397              		.cfi_offset 5, -16
 398              		.cfi_offset 6, -12
 399              		.cfi_offset 7, -8
 400              		.cfi_offset 14, -4
 401 0002 0E46     		mov	r6, r1
 402 0004 1746     		mov	r7, r2
 403              	.LVL50:
 426:..\..\..\arduinoLCD\test\Pain Drain\libraries\lvgl\src\core/lv_obj_tree.c ****     lv_obj_tree_walk_res_t res = LV_OBJ_TREE_WALK_NEXT;
 427:..\..\..\arduinoLCD\test\Pain Drain\libraries\lvgl\src\core/lv_obj_tree.c **** 
 428:..\..\..\arduinoLCD\test\Pain Drain\libraries\lvgl\src\core/lv_obj_tree.c ****     if(obj == NULL) {
 404              		.loc 1 428 0
 405 0006 C0B9     		cbnz	r0, .L38
 406              	.LBB24:
ARM GAS  C:\Users\haske\AppData\Local\Temp\ccFGJ08j.s 			page 20


 429:..\..\..\arduinoLCD\test\Pain Drain\libraries\lvgl\src\core/lv_obj_tree.c ****         lv_disp_t * disp = lv_disp_get_next(NULL);
 407              		.loc 1 429 0
 408 0008 FFF7FEFF 		bl	lv_disp_get_next
 409              	.LVL51:
 410 000c 0546     		mov	r5, r0
 411              	.LVL52:
 430:..\..\..\arduinoLCD\test\Pain Drain\libraries\lvgl\src\core/lv_obj_tree.c ****         while(disp) {
 412              		.loc 1 430 0
 413 000e 10E0     		b	.L39
 414              	.LVL53:
 415              	.L40:
 416              	.LBB25:
 431:..\..\..\arduinoLCD\test\Pain Drain\libraries\lvgl\src\core/lv_obj_tree.c ****             uint32_t i;
 432:..\..\..\arduinoLCD\test\Pain Drain\libraries\lvgl\src\core/lv_obj_tree.c ****             for(i = 0; i < disp->screen_cnt; i++) {
 433:..\..\..\arduinoLCD\test\Pain Drain\libraries\lvgl\src\core/lv_obj_tree.c ****                 walk_core(disp->screens[i], cb, user_data);
 417              		.loc 1 433 0 discriminator 3
 418 0010 EB68     		ldr	r3, [r5, #12]
 419 0012 3A46     		mov	r2, r7
 420 0014 3146     		mov	r1, r6
 421 0016 53F82400 		ldr	r0, [r3, r4, lsl #2]
 422 001a FFF7F1FF 		bl	walk_core
 423              	.LVL54:
 432:..\..\..\arduinoLCD\test\Pain Drain\libraries\lvgl\src\core/lv_obj_tree.c ****                 walk_core(disp->screens[i], cb, user_data);
 424              		.loc 1 432 0 discriminator 3
 425 001e 0134     		adds	r4, r4, #1
 426              	.LVL55:
 427 0020 00E0     		b	.L41
 428              	.LVL56:
 429              	.L45:
 430              	.LBE25:
 431 0022 0024     		movs	r4, #0
 432              	.LVL57:
 433              	.L41:
 434              	.LBB26:
 432:..\..\..\arduinoLCD\test\Pain Drain\libraries\lvgl\src\core/lv_obj_tree.c ****                 walk_core(disp->screens[i], cb, user_data);
 435              		.loc 1 432 0 is_stmt 0 discriminator 1
 436 0024 6B6A     		ldr	r3, [r5, #36]
 437 0026 9C42     		cmp	r4, r3
 438 0028 F2D3     		bcc	.L40
 434:..\..\..\arduinoLCD\test\Pain Drain\libraries\lvgl\src\core/lv_obj_tree.c ****             }
 435:..\..\..\arduinoLCD\test\Pain Drain\libraries\lvgl\src\core/lv_obj_tree.c ****             disp = lv_disp_get_next(disp);
 439              		.loc 1 435 0 is_stmt 1
 440 002a 2846     		mov	r0, r5
 441 002c FFF7FEFF 		bl	lv_disp_get_next
 442              	.LVL58:
 443 0030 0546     		mov	r5, r0
 444              	.LVL59:
 445              	.L39:
 446              	.LBE26:
 430:..\..\..\arduinoLCD\test\Pain Drain\libraries\lvgl\src\core/lv_obj_tree.c ****             uint32_t i;
 447              		.loc 1 430 0
 448 0032 002D     		cmp	r5, #0
 449 0034 F5D1     		bne	.L45
 436:..\..\..\arduinoLCD\test\Pain Drain\libraries\lvgl\src\core/lv_obj_tree.c ****         }
 437:..\..\..\arduinoLCD\test\Pain Drain\libraries\lvgl\src\core/lv_obj_tree.c ****         return LV_OBJ_TREE_WALK_END;    /*The value doesn't matter as it wasn't called recursively*
 450              		.loc 1 437 0
 451 0036 0220     		movs	r0, #2
ARM GAS  C:\Users\haske\AppData\Local\Temp\ccFGJ08j.s 			page 21


 452              	.LVL60:
 453 0038 F8BD     		pop	{r3, r4, r5, r6, r7, pc}
 454              	.LVL61:
 455              	.L38:
 456 003a 0546     		mov	r5, r0
 457              	.LBE24:
 438:..\..\..\arduinoLCD\test\Pain Drain\libraries\lvgl\src\core/lv_obj_tree.c ****     }
 439:..\..\..\arduinoLCD\test\Pain Drain\libraries\lvgl\src\core/lv_obj_tree.c **** 
 440:..\..\..\arduinoLCD\test\Pain Drain\libraries\lvgl\src\core/lv_obj_tree.c ****     res = cb(obj, user_data);
 458              		.loc 1 440 0
 459 003c 1146     		mov	r1, r2
 460              	.LVL62:
 461 003e B047     		blx	r6
 462              	.LVL63:
 441:..\..\..\arduinoLCD\test\Pain Drain\libraries\lvgl\src\core/lv_obj_tree.c **** 
 442:..\..\..\arduinoLCD\test\Pain Drain\libraries\lvgl\src\core/lv_obj_tree.c ****     if(res == LV_OBJ_TREE_WALK_END) return LV_OBJ_TREE_WALK_END;
 463              		.loc 1 442 0
 464 0040 0228     		cmp	r0, #2
 465 0042 17D0     		beq	.L46
 443:..\..\..\arduinoLCD\test\Pain Drain\libraries\lvgl\src\core/lv_obj_tree.c **** 
 444:..\..\..\arduinoLCD\test\Pain Drain\libraries\lvgl\src\core/lv_obj_tree.c ****     if(res != LV_OBJ_TREE_WALK_SKIP_CHILDREN) {
 466              		.loc 1 444 0
 467 0044 0128     		cmp	r0, #1
 468 0046 0DD1     		bne	.L47
 445:..\..\..\arduinoLCD\test\Pain Drain\libraries\lvgl\src\core/lv_obj_tree.c ****         uint32_t i;
 446:..\..\..\arduinoLCD\test\Pain Drain\libraries\lvgl\src\core/lv_obj_tree.c ****         for(i = 0; i < lv_obj_get_child_cnt(obj); i++) {
 447:..\..\..\arduinoLCD\test\Pain Drain\libraries\lvgl\src\core/lv_obj_tree.c ****             res = walk_core(lv_obj_get_child(obj, i), cb, user_data);
 448:..\..\..\arduinoLCD\test\Pain Drain\libraries\lvgl\src\core/lv_obj_tree.c ****             if(res == LV_OBJ_TREE_WALK_END) return LV_OBJ_TREE_WALK_END;
 449:..\..\..\arduinoLCD\test\Pain Drain\libraries\lvgl\src\core/lv_obj_tree.c ****         }
 450:..\..\..\arduinoLCD\test\Pain Drain\libraries\lvgl\src\core/lv_obj_tree.c ****     }
 451:..\..\..\arduinoLCD\test\Pain Drain\libraries\lvgl\src\core/lv_obj_tree.c ****     return LV_OBJ_TREE_WALK_NEXT;
 469              		.loc 1 451 0
 470 0048 0020     		movs	r0, #0
 471              	.LVL64:
 472 004a F8BD     		pop	{r3, r4, r5, r6, r7, pc}
 473              	.LVL65:
 474              	.L44:
 475              	.LBB27:
 447:..\..\..\arduinoLCD\test\Pain Drain\libraries\lvgl\src\core/lv_obj_tree.c ****             if(res == LV_OBJ_TREE_WALK_END) return LV_OBJ_TREE_WALK_END;
 476              		.loc 1 447 0
 477 004c 2146     		mov	r1, r4
 478 004e 2846     		mov	r0, r5
 479 0050 FFF7FEFF 		bl	lv_obj_get_child
 480              	.LVL66:
 481 0054 3A46     		mov	r2, r7
 482 0056 3146     		mov	r1, r6
 483 0058 FFF7D2FF 		bl	walk_core
 484              	.LVL67:
 448:..\..\..\arduinoLCD\test\Pain Drain\libraries\lvgl\src\core/lv_obj_tree.c ****         }
 485              		.loc 1 448 0
 486 005c 0228     		cmp	r0, #2
 487 005e 0BD0     		beq	.L48
 446:..\..\..\arduinoLCD\test\Pain Drain\libraries\lvgl\src\core/lv_obj_tree.c ****             res = walk_core(lv_obj_get_child(obj, i), cb, user_data);
 488              		.loc 1 446 0 discriminator 2
 489 0060 0134     		adds	r4, r4, #1
 490              	.LVL68:
 491 0062 00E0     		b	.L43
ARM GAS  C:\Users\haske\AppData\Local\Temp\ccFGJ08j.s 			page 22


 492              	.LVL69:
 493              	.L47:
 494              	.LBE27:
 495 0064 0024     		movs	r4, #0
 496              	.L43:
 497              	.LVL70:
 498              	.LBB28:
 446:..\..\..\arduinoLCD\test\Pain Drain\libraries\lvgl\src\core/lv_obj_tree.c ****             res = walk_core(lv_obj_get_child(obj, i), cb, user_data);
 499              		.loc 1 446 0 is_stmt 0 discriminator 1
 500 0066 2846     		mov	r0, r5
 501              	.LVL71:
 502 0068 FFF7FEFF 		bl	lv_obj_get_child_cnt
 503              	.LVL72:
 504 006c 8442     		cmp	r4, r0
 505 006e EDD3     		bcc	.L44
 506              	.LBE28:
 507              		.loc 1 451 0 is_stmt 1
 508 0070 0020     		movs	r0, #0
 509              	.LBB29:
 510 0072 F8BD     		pop	{r3, r4, r5, r6, r7, pc}
 511              	.LVL73:
 512              	.L46:
 513              	.LBE29:
 442:..\..\..\arduinoLCD\test\Pain Drain\libraries\lvgl\src\core/lv_obj_tree.c **** 
 514              		.loc 1 442 0
 515 0074 0220     		movs	r0, #2
 516              	.LVL74:
 517 0076 F8BD     		pop	{r3, r4, r5, r6, r7, pc}
 518              	.LVL75:
 519              	.L48:
 520              	.LBB30:
 448:..\..\..\arduinoLCD\test\Pain Drain\libraries\lvgl\src\core/lv_obj_tree.c ****         }
 521              		.loc 1 448 0
 522 0078 0220     		movs	r0, #2
 523              	.LVL76:
 524              	.LBE30:
 452:..\..\..\arduinoLCD\test\Pain Drain\libraries\lvgl\src\core/lv_obj_tree.c **** }
 525              		.loc 1 452 0
 526 007a F8BD     		pop	{r3, r4, r5, r6, r7, pc}
 527              		.cfi_endproc
 528              	.LFE176:
 529              		.size	walk_core, .-walk_core
 530              		.section	.text.lv_obj_get_index,"ax",%progbits
 531              		.align	2
 532              		.global	lv_obj_get_index
 533              		.thumb
 534              		.thumb_func
 535              		.type	lv_obj_get_index, %function
 536              	lv_obj_get_index:
 537              	.LFB172:
 327:..\..\..\arduinoLCD\test\Pain Drain\libraries\lvgl\src\core/lv_obj_tree.c ****     LV_ASSERT_OBJ(obj, MY_CLASS);
 538              		.loc 1 327 0
 539              		.cfi_startproc
 540              		@ args = 0, pretend = 0, frame = 0
 541              		@ frame_needed = 0, uses_anonymous_args = 0
 542              	.LVL77:
 543 0000 70B5     		push	{r4, r5, r6, lr}
ARM GAS  C:\Users\haske\AppData\Local\Temp\ccFGJ08j.s 			page 23


 544              		.cfi_def_cfa_offset 16
 545              		.cfi_offset 4, -16
 546              		.cfi_offset 5, -12
 547              		.cfi_offset 6, -8
 548              		.cfi_offset 14, -4
 549 0002 0646     		mov	r6, r0
 330:..\..\..\arduinoLCD\test\Pain Drain\libraries\lvgl\src\core/lv_obj_tree.c ****     if(parent == NULL) return 0;
 550              		.loc 1 330 0
 551 0004 FFF7FEFF 		bl	lv_obj_get_parent
 552              	.LVL78:
 331:..\..\..\arduinoLCD\test\Pain Drain\libraries\lvgl\src\core/lv_obj_tree.c **** 
 553              		.loc 1 331 0
 554 0008 88B1     		cbz	r0, .L54
 555 000a 0546     		mov	r5, r0
 556 000c 0024     		movs	r4, #0
 557 000e 06E0     		b	.L52
 558              	.LVL79:
 559              	.L53:
 335:..\..\..\arduinoLCD\test\Pain Drain\libraries\lvgl\src\core/lv_obj_tree.c ****     }
 560              		.loc 1 335 0
 561 0010 2146     		mov	r1, r4
 562 0012 2846     		mov	r0, r5
 563 0014 FFF7FEFF 		bl	lv_obj_get_child
 564              	.LVL80:
 565 0018 8642     		cmp	r6, r0
 566 001a 0AD0     		beq	.L55
 334:..\..\..\arduinoLCD\test\Pain Drain\libraries\lvgl\src\core/lv_obj_tree.c ****         if(lv_obj_get_child(parent, i) == obj) return i;
 567              		.loc 1 334 0 discriminator 2
 568 001c 0134     		adds	r4, r4, #1
 569              	.LVL81:
 570              	.L52:
 334:..\..\..\arduinoLCD\test\Pain Drain\libraries\lvgl\src\core/lv_obj_tree.c ****         if(lv_obj_get_child(parent, i) == obj) return i;
 571              		.loc 1 334 0 is_stmt 0 discriminator 1
 572 001e 2846     		mov	r0, r5
 573 0020 FFF7FEFF 		bl	lv_obj_get_child_cnt
 574              	.LVL82:
 575 0024 8442     		cmp	r4, r0
 576 0026 F3D3     		bcc	.L53
 338:..\..\..\arduinoLCD\test\Pain Drain\libraries\lvgl\src\core/lv_obj_tree.c **** }
 577              		.loc 1 338 0 is_stmt 1
 578 0028 4FF0FF30 		mov	r0, #-1
 579 002c 70BD     		pop	{r4, r5, r6, pc}
 580              	.LVL83:
 581              	.L54:
 331:..\..\..\arduinoLCD\test\Pain Drain\libraries\lvgl\src\core/lv_obj_tree.c **** 
 582              		.loc 1 331 0
 583 002e 0020     		movs	r0, #0
 584              	.LVL84:
 585 0030 70BD     		pop	{r4, r5, r6, pc}
 586              	.LVL85:
 587              	.L55:
 335:..\..\..\arduinoLCD\test\Pain Drain\libraries\lvgl\src\core/lv_obj_tree.c ****     }
 588              		.loc 1 335 0
 589 0032 2046     		mov	r0, r4
 339:..\..\..\arduinoLCD\test\Pain Drain\libraries\lvgl\src\core/lv_obj_tree.c **** 
 590              		.loc 1 339 0
 591 0034 70BD     		pop	{r4, r5, r6, pc}
ARM GAS  C:\Users\haske\AppData\Local\Temp\ccFGJ08j.s 			page 24


 592              		.cfi_endproc
 593              	.LFE172:
 594              		.size	lv_obj_get_index, .-lv_obj_get_index
 595 0036 00BF     		.section	.text.obj_del_core,"ax",%progbits
 596              		.align	2
 597              		.thumb
 598              		.thumb_func
 599              		.type	obj_del_core, %function
 600              	obj_del_core:
 601              	.LFB175:
 358:..\..\..\arduinoLCD\test\Pain Drain\libraries\lvgl\src\core/lv_obj_tree.c ****     /*Let the user free the resources used in `LV_EVENT_DELETE`*/
 602              		.loc 1 358 0
 603              		.cfi_startproc
 604              		@ args = 0, pretend = 0, frame = 0
 605              		@ frame_needed = 0, uses_anonymous_args = 0
 606              	.LVL86:
 607 0000 70B5     		push	{r4, r5, r6, lr}
 608              		.cfi_def_cfa_offset 16
 609              		.cfi_offset 4, -16
 610              		.cfi_offset 5, -12
 611              		.cfi_offset 6, -8
 612              		.cfi_offset 14, -4
 613 0002 0546     		mov	r5, r0
 360:..\..\..\arduinoLCD\test\Pain Drain\libraries\lvgl\src\core/lv_obj_tree.c ****     if(res == LV_RES_INV) return;
 614              		.loc 1 360 0
 615 0004 0022     		movs	r2, #0
 616 0006 2121     		movs	r1, #33
 617 0008 FFF7FEFF 		bl	lv_event_send
 618              	.LVL87:
 361:..\..\..\arduinoLCD\test\Pain Drain\libraries\lvgl\src\core/lv_obj_tree.c **** 
 619              		.loc 1 361 0
 620 000c 0028     		cmp	r0, #0
 621 000e 77D0     		beq	.L57
 364:..\..\..\arduinoLCD\test\Pain Drain\libraries\lvgl\src\core/lv_obj_tree.c ****     while(child) {
 622              		.loc 1 364 0
 623 0010 0021     		movs	r1, #0
 624 0012 2846     		mov	r0, r5
 625              	.LVL88:
 626 0014 FFF7FEFF 		bl	lv_obj_get_child
 627              	.LVL89:
 365:..\..\..\arduinoLCD\test\Pain Drain\libraries\lvgl\src\core/lv_obj_tree.c ****         obj_del_core(child);
 628              		.loc 1 365 0
 629 0018 05E0     		b	.L59
 630              	.L60:
 366:..\..\..\arduinoLCD\test\Pain Drain\libraries\lvgl\src\core/lv_obj_tree.c ****         child = lv_obj_get_child(obj, 0);
 631              		.loc 1 366 0
 632 001a FFF7F1FF 		bl	obj_del_core
 633              	.LVL90:
 367:..\..\..\arduinoLCD\test\Pain Drain\libraries\lvgl\src\core/lv_obj_tree.c ****     }
 634              		.loc 1 367 0
 635 001e 0021     		movs	r1, #0
 636 0020 2846     		mov	r0, r5
 637 0022 FFF7FEFF 		bl	lv_obj_get_child
 638              	.LVL91:
 639              	.L59:
 365:..\..\..\arduinoLCD\test\Pain Drain\libraries\lvgl\src\core/lv_obj_tree.c ****         obj_del_core(child);
 640              		.loc 1 365 0
ARM GAS  C:\Users\haske\AppData\Local\Temp\ccFGJ08j.s 			page 25


 641 0026 0028     		cmp	r0, #0
 642 0028 F7D1     		bne	.L60
 370:..\..\..\arduinoLCD\test\Pain Drain\libraries\lvgl\src\core/lv_obj_tree.c **** 
 643              		.loc 1 370 0
 644 002a 2846     		mov	r0, r5
 645              	.LVL92:
 646 002c FFF7FEFF 		bl	lv_obj_get_group
 647              	.LVL93:
 648 0030 0646     		mov	r6, r0
 649              	.LVL94:
 373:..\..\..\arduinoLCD\test\Pain Drain\libraries\lvgl\src\core/lv_obj_tree.c ****     while(indev) {
 650              		.loc 1 373 0
 651 0032 0020     		movs	r0, #0
 652              	.LVL95:
 653 0034 FFF7FEFF 		bl	lv_indev_get_next
 654              	.LVL96:
 655 0038 0446     		mov	r4, r0
 656              	.LVL97:
 374:..\..\..\arduinoLCD\test\Pain Drain\libraries\lvgl\src\core/lv_obj_tree.c ****         if(indev->proc.types.pointer.act_obj == obj || indev->proc.types.pointer.last_obj == obj) {
 657              		.loc 1 374 0
 658 003a 1DE0     		b	.L61
 659              	.L66:
 375:..\..\..\arduinoLCD\test\Pain Drain\libraries\lvgl\src\core/lv_obj_tree.c ****             lv_indev_reset(indev, obj);
 660              		.loc 1 375 0
 661 003c A36A     		ldr	r3, [r4, #40]
 662 003e 9D42     		cmp	r5, r3
 663 0040 02D0     		beq	.L62
 375:..\..\..\arduinoLCD\test\Pain Drain\libraries\lvgl\src\core/lv_obj_tree.c ****             lv_indev_reset(indev, obj);
 664              		.loc 1 375 0 is_stmt 0 discriminator 1
 665 0042 E36A     		ldr	r3, [r4, #44]
 666 0044 9D42     		cmp	r5, r3
 667 0046 03D1     		bne	.L63
 668              	.L62:
 376:..\..\..\arduinoLCD\test\Pain Drain\libraries\lvgl\src\core/lv_obj_tree.c ****         }
 669              		.loc 1 376 0 is_stmt 1
 670 0048 2946     		mov	r1, r5
 671 004a 2046     		mov	r0, r4
 672              	.LVL98:
 673 004c FFF7FEFF 		bl	lv_indev_reset
 674              	.LVL99:
 675              	.L63:
 378:..\..\..\arduinoLCD\test\Pain Drain\libraries\lvgl\src\core/lv_obj_tree.c ****             indev->proc.types.pointer.last_pressed = NULL;
 676              		.loc 1 378 0
 677 0050 636B     		ldr	r3, [r4, #52]
 678 0052 9D42     		cmp	r5, r3
 679 0054 01D1     		bne	.L64
 379:..\..\..\arduinoLCD\test\Pain Drain\libraries\lvgl\src\core/lv_obj_tree.c ****         }
 680              		.loc 1 379 0
 681 0056 0023     		movs	r3, #0
 682 0058 6363     		str	r3, [r4, #52]
 683              	.L64:
 382:..\..\..\arduinoLCD\test\Pain Drain\libraries\lvgl\src\core/lv_obj_tree.c ****             lv_indev_reset(indev, obj);
 684              		.loc 1 382 0
 685 005a 636D     		ldr	r3, [r4, #84]
 686 005c 9E42     		cmp	r6, r3
 687 005e 07D1     		bne	.L65
 382:..\..\..\arduinoLCD\test\Pain Drain\libraries\lvgl\src\core/lv_obj_tree.c ****             lv_indev_reset(indev, obj);
ARM GAS  C:\Users\haske\AppData\Local\Temp\ccFGJ08j.s 			page 26


 688              		.loc 1 382 0 is_stmt 0 discriminator 1
 689 0060 FFF7FEFF 		bl	lv_indev_get_obj_act
 690              	.LVL100:
 691 0064 8542     		cmp	r5, r0
 692 0066 03D1     		bne	.L65
 383:..\..\..\arduinoLCD\test\Pain Drain\libraries\lvgl\src\core/lv_obj_tree.c ****         }
 693              		.loc 1 383 0 is_stmt 1
 694 0068 2946     		mov	r1, r5
 695 006a 2046     		mov	r0, r4
 696 006c FFF7FEFF 		bl	lv_indev_reset
 697              	.LVL101:
 698              	.L65:
 385:..\..\..\arduinoLCD\test\Pain Drain\libraries\lvgl\src\core/lv_obj_tree.c ****     }
 699              		.loc 1 385 0
 700 0070 2046     		mov	r0, r4
 701 0072 FFF7FEFF 		bl	lv_indev_get_next
 702              	.LVL102:
 703 0076 0446     		mov	r4, r0
 704              	.LVL103:
 705              	.L61:
 374:..\..\..\arduinoLCD\test\Pain Drain\libraries\lvgl\src\core/lv_obj_tree.c ****         if(indev->proc.types.pointer.act_obj == obj || indev->proc.types.pointer.last_obj == obj) {
 706              		.loc 1 374 0
 707 0078 002C     		cmp	r4, #0
 708 007a DFD1     		bne	.L66
 389:..\..\..\arduinoLCD\test\Pain Drain\libraries\lvgl\src\core/lv_obj_tree.c **** 
 709              		.loc 1 389 0
 710 007c 2846     		mov	r0, r5
 711              	.LVL104:
 712 007e FFF7FEFF 		bl	_lv_obj_destruct
 713              	.LVL105:
 392:..\..\..\arduinoLCD\test\Pain Drain\libraries\lvgl\src\core/lv_obj_tree.c ****         lv_disp_t * disp = lv_obj_get_disp(obj);
 714              		.loc 1 392 0
 715 0082 6B68     		ldr	r3, [r5, #4]
 716 0084 03BB     		cbnz	r3, .L67
 717              	.LBB31:
 393:..\..\..\arduinoLCD\test\Pain Drain\libraries\lvgl\src\core/lv_obj_tree.c ****         uint32_t i;
 718              		.loc 1 393 0
 719 0086 2846     		mov	r0, r5
 720 0088 FFF7FEFF 		bl	lv_obj_get_disp
 721              	.LVL106:
 722 008c 0446     		mov	r4, r0
 723              	.LVL107:
 396:..\..\..\arduinoLCD\test\Pain Drain\libraries\lvgl\src\core/lv_obj_tree.c ****             if(disp->screens[i] == obj) break;
 724              		.loc 1 396 0
 725 008e 0023     		movs	r3, #0
 726 0090 05E0     		b	.L68
 727              	.LVL108:
 728              	.L70:
 397:..\..\..\arduinoLCD\test\Pain Drain\libraries\lvgl\src\core/lv_obj_tree.c ****         }
 729              		.loc 1 397 0
 730 0092 E268     		ldr	r2, [r4, #12]
 731 0094 52F82320 		ldr	r2, [r2, r3, lsl #2]
 732 0098 9542     		cmp	r5, r2
 733 009a 0AD0     		beq	.L69
 396:..\..\..\arduinoLCD\test\Pain Drain\libraries\lvgl\src\core/lv_obj_tree.c ****             if(disp->screens[i] == obj) break;
 734              		.loc 1 396 0 discriminator 2
 735 009c 0133     		adds	r3, r3, #1
ARM GAS  C:\Users\haske\AppData\Local\Temp\ccFGJ08j.s 			page 27


 736              	.LVL109:
 737              	.L68:
 396:..\..\..\arduinoLCD\test\Pain Drain\libraries\lvgl\src\core/lv_obj_tree.c ****             if(disp->screens[i] == obj) break;
 738              		.loc 1 396 0 is_stmt 0 discriminator 1
 739 009e 626A     		ldr	r2, [r4, #36]
 740 00a0 9342     		cmp	r3, r2
 741 00a2 F6D3     		bcc	.L70
 742 00a4 05E0     		b	.L69
 743              	.LVL110:
 744              	.L71:
 402:..\..\..\arduinoLCD\test\Pain Drain\libraries\lvgl\src\core/lv_obj_tree.c ****         }
 745              		.loc 1 402 0 is_stmt 1 discriminator 3
 746 00a6 E268     		ldr	r2, [r4, #12]
 747 00a8 9900     		lsls	r1, r3, #2
 748 00aa 0133     		adds	r3, r3, #1
 749              	.LVL111:
 750 00ac 52F82300 		ldr	r0, [r2, r3, lsl #2]
 751 00b0 5050     		str	r0, [r2, r1]
 752              	.LVL112:
 753              	.L69:
 401:..\..\..\arduinoLCD\test\Pain Drain\libraries\lvgl\src\core/lv_obj_tree.c ****             disp->screens[i] = disp->screens[i + 1];
 754              		.loc 1 401 0 discriminator 1
 755 00b2 616A     		ldr	r1, [r4, #36]
 756 00b4 0139     		subs	r1, r1, #1
 757 00b6 8B42     		cmp	r3, r1
 758 00b8 F5D3     		bcc	.L71
 404:..\..\..\arduinoLCD\test\Pain Drain\libraries\lvgl\src\core/lv_obj_tree.c ****         disp->screens = lv_mem_realloc(disp->screens, disp->screen_cnt * sizeof(lv_obj_t *));
 759              		.loc 1 404 0
 760 00ba 6162     		str	r1, [r4, #36]
 405:..\..\..\arduinoLCD\test\Pain Drain\libraries\lvgl\src\core/lv_obj_tree.c ****     }
 761              		.loc 1 405 0
 762 00bc 8900     		lsls	r1, r1, #2
 763 00be E068     		ldr	r0, [r4, #12]
 764 00c0 FFF7FEFF 		bl	lv_mem_realloc
 765              	.LVL113:
 766 00c4 E060     		str	r0, [r4, #12]
 767              	.LBE31:
 768 00c6 18E0     		b	.L72
 769              	.LVL114:
 770              	.L67:
 771              	.LBB32:
 409:..\..\..\arduinoLCD\test\Pain Drain\libraries\lvgl\src\core/lv_obj_tree.c ****         uint32_t i;
 772              		.loc 1 409 0
 773 00c8 2846     		mov	r0, r5
 774 00ca FFF7FEFF 		bl	lv_obj_get_index
 775              	.LVL115:
 411:..\..\..\arduinoLCD\test\Pain Drain\libraries\lvgl\src\core/lv_obj_tree.c ****             obj->parent->spec_attr->children[i] = obj->parent->spec_attr->children[i + 1];
 776              		.loc 1 411 0
 777 00ce 05E0     		b	.L73
 778              	.LVL116:
 779              	.L74:
 412:..\..\..\arduinoLCD\test\Pain Drain\libraries\lvgl\src\core/lv_obj_tree.c ****         }
 780              		.loc 1 412 0 discriminator 3
 781 00d0 1368     		ldr	r3, [r2]
 782 00d2 8200     		lsls	r2, r0, #2
 783 00d4 0130     		adds	r0, r0, #1
 784              	.LVL117:
ARM GAS  C:\Users\haske\AppData\Local\Temp\ccFGJ08j.s 			page 28


 785 00d6 53F82010 		ldr	r1, [r3, r0, lsl #2]
 786 00da 9950     		str	r1, [r3, r2]
 787              	.LVL118:
 788              	.L73:
 411:..\..\..\arduinoLCD\test\Pain Drain\libraries\lvgl\src\core/lv_obj_tree.c ****             obj->parent->spec_attr->children[i] = obj->parent->spec_attr->children[i + 1];
 789              		.loc 1 411 0 discriminator 1
 790 00dc 6B68     		ldr	r3, [r5, #4]
 791 00de 9A68     		ldr	r2, [r3, #8]
 792 00e0 5368     		ldr	r3, [r2, #4]
 793 00e2 013B     		subs	r3, r3, #1
 794 00e4 9842     		cmp	r0, r3
 795 00e6 F3D3     		bcc	.L74
 414:..\..\..\arduinoLCD\test\Pain Drain\libraries\lvgl\src\core/lv_obj_tree.c ****         obj->parent->spec_attr->children = lv_mem_realloc(obj->parent->spec_attr->children,
 796              		.loc 1 414 0
 797 00e8 5360     		str	r3, [r2, #4]
 415:..\..\..\arduinoLCD\test\Pain Drain\libraries\lvgl\src\core/lv_obj_tree.c ****                                                           obj->parent->spec_attr->child_cnt * sizeo
 798              		.loc 1 415 0
 799 00ea 6B68     		ldr	r3, [r5, #4]
 800 00ec 9C68     		ldr	r4, [r3, #8]
 801              	.LVL119:
 416:..\..\..\arduinoLCD\test\Pain Drain\libraries\lvgl\src\core/lv_obj_tree.c ****     }
 802              		.loc 1 416 0
 803 00ee 6168     		ldr	r1, [r4, #4]
 415:..\..\..\arduinoLCD\test\Pain Drain\libraries\lvgl\src\core/lv_obj_tree.c ****                                                           obj->parent->spec_attr->child_cnt * sizeo
 804              		.loc 1 415 0
 805 00f0 8900     		lsls	r1, r1, #2
 806 00f2 2068     		ldr	r0, [r4]
 807              	.LVL120:
 808 00f4 FFF7FEFF 		bl	lv_mem_realloc
 809              	.LVL121:
 810 00f8 2060     		str	r0, [r4]
 811              	.L72:
 812              	.LBE32:
 420:..\..\..\arduinoLCD\test\Pain Drain\libraries\lvgl\src\core/lv_obj_tree.c **** }
 813              		.loc 1 420 0
 814 00fa 2846     		mov	r0, r5
 815 00fc FFF7FEFF 		bl	lv_mem_free
 816              	.LVL122:
 817              	.L57:
 818 0100 70BD     		pop	{r4, r5, r6, pc}
 819              		.cfi_endproc
 820              	.LFE175:
 821              		.size	obj_del_core, .-obj_del_core
 822 0102 00BF     		.section	.text.lv_obj_del,"ax",%progbits
 823              		.align	2
 824              		.global	lv_obj_del
 825              		.thumb
 826              		.thumb_func
 827              		.type	lv_obj_del, %function
 828              	lv_obj_del:
 829              	.LFB159:
  46:..\..\..\arduinoLCD\test\Pain Drain\libraries\lvgl\src\core/lv_obj_tree.c ****     LV_LOG_TRACE("begin (delete %p)", (void *)obj);
 830              		.loc 1 46 0
 831              		.cfi_startproc
 832              		@ args = 0, pretend = 0, frame = 0
 833              		@ frame_needed = 0, uses_anonymous_args = 0
 834              	.LVL123:
ARM GAS  C:\Users\haske\AppData\Local\Temp\ccFGJ08j.s 			page 29


 835 0000 F8B5     		push	{r3, r4, r5, r6, r7, lr}
 836              		.cfi_def_cfa_offset 24
 837              		.cfi_offset 3, -24
 838              		.cfi_offset 4, -20
 839              		.cfi_offset 5, -16
 840              		.cfi_offset 6, -12
 841              		.cfi_offset 7, -8
 842              		.cfi_offset 14, -4
 843 0002 0546     		mov	r5, r0
  49:..\..\..\arduinoLCD\test\Pain Drain\libraries\lvgl\src\core/lv_obj_tree.c **** 
 844              		.loc 1 49 0
 845 0004 FFF7FEFF 		bl	lv_obj_invalidate
 846              	.LVL124:
  51:..\..\..\arduinoLCD\test\Pain Drain\libraries\lvgl\src\core/lv_obj_tree.c ****     if(par) {
 847              		.loc 1 51 0
 848 0008 2846     		mov	r0, r5
 849 000a FFF7FEFF 		bl	lv_obj_get_parent
 850              	.LVL125:
  52:..\..\..\arduinoLCD\test\Pain Drain\libraries\lvgl\src\core/lv_obj_tree.c ****         lv_obj_scrollbar_invalidate(par);
 851              		.loc 1 52 0
 852 000e 0446     		mov	r4, r0
 853 0010 08B1     		cbz	r0, .L77
  53:..\..\..\arduinoLCD\test\Pain Drain\libraries\lvgl\src\core/lv_obj_tree.c ****     }
 854              		.loc 1 53 0
 855 0012 FFF7FEFF 		bl	lv_obj_scrollbar_invalidate
 856              	.LVL126:
 857              	.L77:
  58:..\..\..\arduinoLCD\test\Pain Drain\libraries\lvgl\src\core/lv_obj_tree.c ****         disp = lv_obj_get_disp(obj);
 858              		.loc 1 58 0
 859 0016 4CB9     		cbnz	r4, .L81
  59:..\..\..\arduinoLCD\test\Pain Drain\libraries\lvgl\src\core/lv_obj_tree.c ****         if(!disp) return;   /*Shouldn't happen*/
 860              		.loc 1 59 0
 861 0018 2846     		mov	r0, r5
 862 001a FFF7FEFF 		bl	lv_obj_get_disp
 863              	.LVL127:
  60:..\..\..\arduinoLCD\test\Pain Drain\libraries\lvgl\src\core/lv_obj_tree.c ****         if(disp->act_scr == obj) act_scr_del = true;
 864              		.loc 1 60 0
 865 001e 0746     		mov	r7, r0
 866 0020 18B3     		cbz	r0, .L76
  61:..\..\..\arduinoLCD\test\Pain Drain\libraries\lvgl\src\core/lv_obj_tree.c ****     }
 867              		.loc 1 61 0
 868 0022 0369     		ldr	r3, [r0, #16]
 869 0024 9D42     		cmp	r5, r3
 870 0026 04D0     		beq	.L82
  57:..\..\..\arduinoLCD\test\Pain Drain\libraries\lvgl\src\core/lv_obj_tree.c ****     if(par == NULL) {
 871              		.loc 1 57 0
 872 0028 0026     		movs	r6, #0
 873 002a 03E0     		b	.L78
 874              	.LVL128:
 875              	.L81:
 876 002c 0026     		movs	r6, #0
  56:..\..\..\arduinoLCD\test\Pain Drain\libraries\lvgl\src\core/lv_obj_tree.c ****     bool act_scr_del = false;
 877              		.loc 1 56 0
 878 002e 3746     		mov	r7, r6
 879 0030 00E0     		b	.L78
 880              	.LVL129:
 881              	.L82:
ARM GAS  C:\Users\haske\AppData\Local\Temp\ccFGJ08j.s 			page 30


  61:..\..\..\arduinoLCD\test\Pain Drain\libraries\lvgl\src\core/lv_obj_tree.c ****     }
 882              		.loc 1 61 0
 883 0032 0126     		movs	r6, #1
 884              	.LVL130:
 885              	.L78:
  64:..\..\..\arduinoLCD\test\Pain Drain\libraries\lvgl\src\core/lv_obj_tree.c **** 
 886              		.loc 1 64 0
 887 0034 2846     		mov	r0, r5
 888 0036 FFF7FEFF 		bl	obj_del_core
 889              	.LVL131:
  67:..\..\..\arduinoLCD\test\Pain Drain\libraries\lvgl\src\core/lv_obj_tree.c ****         lv_obj_update_layout(par);
 890              		.loc 1 67 0
 891 003a 9CB1     		cbz	r4, .L80
  68:..\..\..\arduinoLCD\test\Pain Drain\libraries\lvgl\src\core/lv_obj_tree.c ****         lv_obj_readjust_scroll(par, LV_ANIM_OFF);
 892              		.loc 1 68 0
 893 003c 2046     		mov	r0, r4
 894 003e FFF7FEFF 		bl	lv_obj_update_layout
 895              	.LVL132:
  69:..\..\..\arduinoLCD\test\Pain Drain\libraries\lvgl\src\core/lv_obj_tree.c ****         lv_obj_scrollbar_invalidate(par);
 896              		.loc 1 69 0
 897 0042 0021     		movs	r1, #0
 898 0044 2046     		mov	r0, r4
 899 0046 FFF7FEFF 		bl	lv_obj_readjust_scroll
 900              	.LVL133:
  70:..\..\..\arduinoLCD\test\Pain Drain\libraries\lvgl\src\core/lv_obj_tree.c ****         lv_event_send(par, LV_EVENT_CHILD_CHANGED, NULL);
 901              		.loc 1 70 0
 902 004a 2046     		mov	r0, r4
 903 004c FFF7FEFF 		bl	lv_obj_scrollbar_invalidate
 904              	.LVL134:
  71:..\..\..\arduinoLCD\test\Pain Drain\libraries\lvgl\src\core/lv_obj_tree.c ****         lv_event_send(par, LV_EVENT_CHILD_DELETED, NULL);
 905              		.loc 1 71 0
 906 0050 0022     		movs	r2, #0
 907 0052 2221     		movs	r1, #34
 908 0054 2046     		mov	r0, r4
 909 0056 FFF7FEFF 		bl	lv_event_send
 910              	.LVL135:
  72:..\..\..\arduinoLCD\test\Pain Drain\libraries\lvgl\src\core/lv_obj_tree.c ****     }
 911              		.loc 1 72 0
 912 005a 0022     		movs	r2, #0
 913 005c 2421     		movs	r1, #36
 914 005e 2046     		mov	r0, r4
 915 0060 FFF7FEFF 		bl	lv_event_send
 916              	.LVL136:
 917              	.L80:
  76:..\..\..\arduinoLCD\test\Pain Drain\libraries\lvgl\src\core/lv_obj_tree.c ****         LV_LOG_WARN("the active screen was deleted");
 918              		.loc 1 76 0
 919 0064 0EB1     		cbz	r6, .L76
  78:..\..\..\arduinoLCD\test\Pain Drain\libraries\lvgl\src\core/lv_obj_tree.c ****     }
 920              		.loc 1 78 0
 921 0066 0023     		movs	r3, #0
 922 0068 3B61     		str	r3, [r7, #16]
 923              	.LVL137:
 924              	.L76:
 925 006a F8BD     		pop	{r3, r4, r5, r6, r7, pc}
 926              		.cfi_endproc
 927              	.LFE159:
 928              		.size	lv_obj_del, .-lv_obj_del
ARM GAS  C:\Users\haske\AppData\Local\Temp\ccFGJ08j.s 			page 31


 929              		.section	.text.lv_obj_del_anim_ready_cb,"ax",%progbits
 930              		.align	2
 931              		.global	lv_obj_del_anim_ready_cb
 932              		.thumb
 933              		.thumb_func
 934              		.type	lv_obj_del_anim_ready_cb, %function
 935              	lv_obj_del_anim_ready_cb:
 936              	.LFB162:
 122:..\..\..\arduinoLCD\test\Pain Drain\libraries\lvgl\src\core/lv_obj_tree.c ****     lv_obj_del(a->var);
 937              		.loc 1 122 0
 938              		.cfi_startproc
 939              		@ args = 0, pretend = 0, frame = 0
 940              		@ frame_needed = 0, uses_anonymous_args = 0
 941              	.LVL138:
 942 0000 08B5     		push	{r3, lr}
 943              		.cfi_def_cfa_offset 8
 944              		.cfi_offset 3, -8
 945              		.cfi_offset 14, -4
 123:..\..\..\arduinoLCD\test\Pain Drain\libraries\lvgl\src\core/lv_obj_tree.c **** }
 946              		.loc 1 123 0
 947 0002 0068     		ldr	r0, [r0]
 948              	.LVL139:
 949 0004 FFF7FEFF 		bl	lv_obj_del
 950              	.LVL140:
 951 0008 08BD     		pop	{r3, pc}
 952              		.cfi_endproc
 953              	.LFE162:
 954              		.size	lv_obj_del_anim_ready_cb, .-lv_obj_del_anim_ready_cb
 955 000a 00BF     		.section	.text.lv_obj_del_async_cb,"ax",%progbits
 956              		.align	2
 957              		.thumb
 958              		.thumb_func
 959              		.type	lv_obj_del_async_cb, %function
 960              	lv_obj_del_async_cb:
 961              	.LFB174:
 351:..\..\..\arduinoLCD\test\Pain Drain\libraries\lvgl\src\core/lv_obj_tree.c ****     LV_ASSERT_OBJ(obj, MY_CLASS);
 962              		.loc 1 351 0
 963              		.cfi_startproc
 964              		@ args = 0, pretend = 0, frame = 0
 965              		@ frame_needed = 0, uses_anonymous_args = 0
 966              	.LVL141:
 967 0000 08B5     		push	{r3, lr}
 968              		.cfi_def_cfa_offset 8
 969              		.cfi_offset 3, -8
 970              		.cfi_offset 14, -4
 354:..\..\..\arduinoLCD\test\Pain Drain\libraries\lvgl\src\core/lv_obj_tree.c **** }
 971              		.loc 1 354 0
 972 0002 FFF7FEFF 		bl	lv_obj_del
 973              	.LVL142:
 974 0006 08BD     		pop	{r3, pc}
 975              		.cfi_endproc
 976              	.LFE174:
 977              		.size	lv_obj_del_async_cb, .-lv_obj_del_async_cb
 978              		.section	.text.lv_obj_clean,"ax",%progbits
 979              		.align	2
 980              		.global	lv_obj_clean
 981              		.thumb
ARM GAS  C:\Users\haske\AppData\Local\Temp\ccFGJ08j.s 			page 32


 982              		.thumb_func
 983              		.type	lv_obj_clean, %function
 984              	lv_obj_clean:
 985              	.LFB160:
  86:..\..\..\arduinoLCD\test\Pain Drain\libraries\lvgl\src\core/lv_obj_tree.c ****     LV_LOG_TRACE("begin (delete %p)", (void *)obj);
 986              		.loc 1 86 0
 987              		.cfi_startproc
 988              		@ args = 0, pretend = 0, frame = 0
 989              		@ frame_needed = 0, uses_anonymous_args = 0
 990              	.LVL143:
 991 0000 10B5     		push	{r4, lr}
 992              		.cfi_def_cfa_offset 8
 993              		.cfi_offset 4, -8
 994              		.cfi_offset 14, -4
 995 0002 0446     		mov	r4, r0
  90:..\..\..\arduinoLCD\test\Pain Drain\libraries\lvgl\src\core/lv_obj_tree.c **** 
 996              		.loc 1 90 0
 997 0004 FFF7FEFF 		bl	lv_obj_invalidate
 998              	.LVL144:
  92:..\..\..\arduinoLCD\test\Pain Drain\libraries\lvgl\src\core/lv_obj_tree.c ****     while(child) {
 999              		.loc 1 92 0
 1000 0008 0021     		movs	r1, #0
 1001 000a 2046     		mov	r0, r4
 1002 000c FFF7FEFF 		bl	lv_obj_get_child
 1003              	.LVL145:
  93:..\..\..\arduinoLCD\test\Pain Drain\libraries\lvgl\src\core/lv_obj_tree.c ****         obj_del_core(child);
 1004              		.loc 1 93 0
 1005 0010 05E0     		b	.L89
 1006              	.L90:
  94:..\..\..\arduinoLCD\test\Pain Drain\libraries\lvgl\src\core/lv_obj_tree.c ****         child = lv_obj_get_child(obj, 0);
 1007              		.loc 1 94 0
 1008 0012 FFF7FEFF 		bl	obj_del_core
 1009              	.LVL146:
  95:..\..\..\arduinoLCD\test\Pain Drain\libraries\lvgl\src\core/lv_obj_tree.c ****     }
 1010              		.loc 1 95 0
 1011 0016 0021     		movs	r1, #0
 1012 0018 2046     		mov	r0, r4
 1013 001a FFF7FEFF 		bl	lv_obj_get_child
 1014              	.LVL147:
 1015              	.L89:
  93:..\..\..\arduinoLCD\test\Pain Drain\libraries\lvgl\src\core/lv_obj_tree.c ****         obj_del_core(child);
 1016              		.loc 1 93 0
 1017 001e 0028     		cmp	r0, #0
 1018 0020 F7D1     		bne	.L90
  98:..\..\..\arduinoLCD\test\Pain Drain\libraries\lvgl\src\core/lv_obj_tree.c ****     if(obj->spec_attr) {
 1019              		.loc 1 98 0
 1020 0022 0023     		movs	r3, #0
 1021 0024 1A46     		mov	r2, r3
 1022 0026 1946     		mov	r1, r3
 1023 0028 2046     		mov	r0, r4
 1024              	.LVL148:
 1025 002a FFF7FEFF 		bl	lv_obj_scroll_to
 1026              	.LVL149:
  99:..\..\..\arduinoLCD\test\Pain Drain\libraries\lvgl\src\core/lv_obj_tree.c ****         obj->spec_attr->scroll.x = 0;
 1027              		.loc 1 99 0
 1028 002e A368     		ldr	r3, [r4, #8]
 1029 0030 1BB1     		cbz	r3, .L88
ARM GAS  C:\Users\haske\AppData\Local\Temp\ccFGJ08j.s 			page 33


 100:..\..\..\arduinoLCD\test\Pain Drain\libraries\lvgl\src\core/lv_obj_tree.c ****         obj->spec_attr->scroll.y = 0;
 1030              		.loc 1 100 0
 1031 0032 0022     		movs	r2, #0
 1032 0034 1A82     		strh	r2, [r3, #16]	@ movhi
 101:..\..\..\arduinoLCD\test\Pain Drain\libraries\lvgl\src\core/lv_obj_tree.c ****     }
 1033              		.loc 1 101 0
 1034 0036 A368     		ldr	r3, [r4, #8]
 1035 0038 5A82     		strh	r2, [r3, #18]	@ movhi
 1036              	.L88:
 1037 003a 10BD     		pop	{r4, pc}
 1038              		.cfi_endproc
 1039              	.LFE160:
 1040              		.size	lv_obj_clean, .-lv_obj_clean
 1041              		.section	.text.lv_obj_set_parent,"ax",%progbits
 1042              		.align	2
 1043              		.global	lv_obj_set_parent
 1044              		.thumb
 1045              		.thumb_func
 1046              		.type	lv_obj_set_parent, %function
 1047              	lv_obj_set_parent:
 1048              	.LFB164:
 133:..\..\..\arduinoLCD\test\Pain Drain\libraries\lvgl\src\core/lv_obj_tree.c ****     LV_ASSERT_OBJ(obj, MY_CLASS);
 1049              		.loc 1 133 0
 1050              		.cfi_startproc
 1051              		@ args = 0, pretend = 0, frame = 0
 1052              		@ frame_needed = 0, uses_anonymous_args = 0
 1053              	.LVL150:
 1054 0000 F8B5     		push	{r3, r4, r5, r6, r7, lr}
 1055              		.cfi_def_cfa_offset 24
 1056              		.cfi_offset 3, -24
 1057              		.cfi_offset 4, -20
 1058              		.cfi_offset 5, -16
 1059              		.cfi_offset 6, -12
 1060              		.cfi_offset 7, -8
 1061              		.cfi_offset 14, -4
 137:..\..\..\arduinoLCD\test\Pain Drain\libraries\lvgl\src\core/lv_obj_tree.c ****         LV_LOG_WARN("Can't set the parent of a screen");
 1062              		.loc 1 137 0
 1063 0002 4368     		ldr	r3, [r0, #4]
 1064 0004 002B     		cmp	r3, #0
 1065 0006 66D0     		beq	.L93
 142:..\..\..\arduinoLCD\test\Pain Drain\libraries\lvgl\src\core/lv_obj_tree.c ****         LV_LOG_WARN("Can't set parent == NULL to an object");
 1066              		.loc 1 142 0
 1067 0008 0029     		cmp	r1, #0
 1068 000a 64D0     		beq	.L93
 1069 000c 0E46     		mov	r6, r1
 1070 000e 0746     		mov	r7, r0
 147:..\..\..\arduinoLCD\test\Pain Drain\libraries\lvgl\src\core/lv_obj_tree.c **** 
 1071              		.loc 1 147 0
 1072 0010 FFF7FEFF 		bl	lv_obj_invalidate
 1073              	.LVL151:
 149:..\..\..\arduinoLCD\test\Pain Drain\libraries\lvgl\src\core/lv_obj_tree.c **** 
 1074              		.loc 1 149 0
 1075 0014 3046     		mov	r0, r6
 1076 0016 FFF7FEFF 		bl	lv_obj_allocate_spec_attr
 1077              	.LVL152:
 151:..\..\..\arduinoLCD\test\Pain Drain\libraries\lvgl\src\core/lv_obj_tree.c ****     /*Remove the object from the old parent's child list*/
 1078              		.loc 1 151 0
ARM GAS  C:\Users\haske\AppData\Local\Temp\ccFGJ08j.s 			page 34


 1079 001a 7D68     		ldr	r5, [r7, #4]
 1080              	.LVL153:
 154:..\..\..\arduinoLCD\test\Pain Drain\libraries\lvgl\src\core/lv_obj_tree.c ****         old_parent->spec_attr->children[i] = old_parent->spec_attr->children[i + 1];
 1081              		.loc 1 154 0
 1082 001c 3846     		mov	r0, r7
 1083 001e FFF7FEFF 		bl	lv_obj_get_index
 1084              	.LVL154:
 1085 0022 0446     		mov	r4, r0
 1086              	.LVL155:
 1087 0024 07E0     		b	.L95
 1088              	.LVL156:
 1089              	.L96:
 155:..\..\..\arduinoLCD\test\Pain Drain\libraries\lvgl\src\core/lv_obj_tree.c ****     }
 1090              		.loc 1 155 0 discriminator 3
 1091 0026 AB68     		ldr	r3, [r5, #8]
 1092 0028 1A68     		ldr	r2, [r3]
 1093 002a 631C     		adds	r3, r4, #1
 1094 002c 52F82310 		ldr	r1, [r2, r3, lsl #2]
 1095 0030 42F82410 		str	r1, [r2, r4, lsl #2]
 154:..\..\..\arduinoLCD\test\Pain Drain\libraries\lvgl\src\core/lv_obj_tree.c ****         old_parent->spec_attr->children[i] = old_parent->spec_attr->children[i + 1];
 1096              		.loc 1 154 0 discriminator 3
 1097 0034 1C46     		mov	r4, r3
 1098              	.LVL157:
 1099              	.L95:
 154:..\..\..\arduinoLCD\test\Pain Drain\libraries\lvgl\src\core/lv_obj_tree.c ****         old_parent->spec_attr->children[i] = old_parent->spec_attr->children[i + 1];
 1100              		.loc 1 154 0 is_stmt 0 discriminator 1
 1101 0036 2846     		mov	r0, r5
 1102 0038 FFF7FEFF 		bl	lv_obj_get_child_cnt
 1103              	.LVL158:
 1104 003c 0238     		subs	r0, r0, #2
 1105 003e 8442     		cmp	r4, r0
 1106 0040 F1DD     		ble	.L96
 157:..\..\..\arduinoLCD\test\Pain Drain\libraries\lvgl\src\core/lv_obj_tree.c ****     if(old_parent->spec_attr->child_cnt) {
 1107              		.loc 1 157 0 is_stmt 1
 1108 0042 AA68     		ldr	r2, [r5, #8]
 1109 0044 5368     		ldr	r3, [r2, #4]
 1110 0046 013B     		subs	r3, r3, #1
 1111 0048 5360     		str	r3, [r2, #4]
 158:..\..\..\arduinoLCD\test\Pain Drain\libraries\lvgl\src\core/lv_obj_tree.c ****         old_parent->spec_attr->children = lv_mem_realloc(old_parent->spec_attr->children,
 1112              		.loc 1 158 0
 1113 004a AC68     		ldr	r4, [r5, #8]
 1114              	.LVL159:
 1115 004c 6168     		ldr	r1, [r4, #4]
 1116 004e 29B1     		cbz	r1, .L97
 159:..\..\..\arduinoLCD\test\Pain Drain\libraries\lvgl\src\core/lv_obj_tree.c ****                                                          old_parent->spec_attr->child_cnt * (sizeof
 1117              		.loc 1 159 0
 1118 0050 8900     		lsls	r1, r1, #2
 1119 0052 2068     		ldr	r0, [r4]
 1120 0054 FFF7FEFF 		bl	lv_mem_realloc
 1121              	.LVL160:
 1122 0058 2060     		str	r0, [r4]
 1123 005a 05E0     		b	.L98
 1124              	.L97:
 163:..\..\..\arduinoLCD\test\Pain Drain\libraries\lvgl\src\core/lv_obj_tree.c ****         old_parent->spec_attr->children = NULL;
 1125              		.loc 1 163 0
 1126 005c 2068     		ldr	r0, [r4]
 1127 005e FFF7FEFF 		bl	lv_mem_free
ARM GAS  C:\Users\haske\AppData\Local\Temp\ccFGJ08j.s 			page 35


 1128              	.LVL161:
 164:..\..\..\arduinoLCD\test\Pain Drain\libraries\lvgl\src\core/lv_obj_tree.c ****     }
 1129              		.loc 1 164 0
 1130 0062 AB68     		ldr	r3, [r5, #8]
 1131 0064 0022     		movs	r2, #0
 1132 0066 1A60     		str	r2, [r3]
 1133              	.L98:
 168:..\..\..\arduinoLCD\test\Pain Drain\libraries\lvgl\src\core/lv_obj_tree.c ****     parent->spec_attr->children = lv_mem_realloc(parent->spec_attr->children,
 1134              		.loc 1 168 0
 1135 0068 B268     		ldr	r2, [r6, #8]
 1136 006a 5368     		ldr	r3, [r2, #4]
 1137 006c 0133     		adds	r3, r3, #1
 1138 006e 5360     		str	r3, [r2, #4]
 169:..\..\..\arduinoLCD\test\Pain Drain\libraries\lvgl\src\core/lv_obj_tree.c ****                                                  parent->spec_attr->child_cnt * (sizeof(lv_obj_t *)
 1139              		.loc 1 169 0
 1140 0070 B468     		ldr	r4, [r6, #8]
 170:..\..\..\arduinoLCD\test\Pain Drain\libraries\lvgl\src\core/lv_obj_tree.c ****     parent->spec_attr->children[lv_obj_get_child_cnt(parent) - 1] = obj;
 1141              		.loc 1 170 0
 1142 0072 6168     		ldr	r1, [r4, #4]
 169:..\..\..\arduinoLCD\test\Pain Drain\libraries\lvgl\src\core/lv_obj_tree.c ****                                                  parent->spec_attr->child_cnt * (sizeof(lv_obj_t *)
 1143              		.loc 1 169 0
 1144 0074 8900     		lsls	r1, r1, #2
 1145 0076 2068     		ldr	r0, [r4]
 1146 0078 FFF7FEFF 		bl	lv_mem_realloc
 1147              	.LVL162:
 1148 007c 2060     		str	r0, [r4]
 171:..\..\..\arduinoLCD\test\Pain Drain\libraries\lvgl\src\core/lv_obj_tree.c **** 
 1149              		.loc 1 171 0
 1150 007e B368     		ldr	r3, [r6, #8]
 1151 0080 1C68     		ldr	r4, [r3]
 1152 0082 3046     		mov	r0, r6
 1153 0084 FFF7FEFF 		bl	lv_obj_get_child_cnt
 1154              	.LVL163:
 1155 0088 00F18040 		add	r0, r0, #1073741824
 1156 008c 0138     		subs	r0, r0, #1
 1157 008e 44F82070 		str	r7, [r4, r0, lsl #2]
 173:..\..\..\arduinoLCD\test\Pain Drain\libraries\lvgl\src\core/lv_obj_tree.c **** 
 1158              		.loc 1 173 0
 1159 0092 7E60     		str	r6, [r7, #4]
 176:..\..\..\arduinoLCD\test\Pain Drain\libraries\lvgl\src\core/lv_obj_tree.c ****     lv_obj_scrollbar_invalidate(old_parent);
 1160              		.loc 1 176 0
 1161 0094 0021     		movs	r1, #0
 1162 0096 2846     		mov	r0, r5
 1163 0098 FFF7FEFF 		bl	lv_obj_readjust_scroll
 1164              	.LVL164:
 177:..\..\..\arduinoLCD\test\Pain Drain\libraries\lvgl\src\core/lv_obj_tree.c ****     lv_event_send(old_parent, LV_EVENT_CHILD_CHANGED, obj);
 1165              		.loc 1 177 0
 1166 009c 2846     		mov	r0, r5
 1167 009e FFF7FEFF 		bl	lv_obj_scrollbar_invalidate
 1168              	.LVL165:
 178:..\..\..\arduinoLCD\test\Pain Drain\libraries\lvgl\src\core/lv_obj_tree.c ****     lv_event_send(old_parent, LV_EVENT_CHILD_DELETED, NULL);
 1169              		.loc 1 178 0
 1170 00a2 3A46     		mov	r2, r7
 1171 00a4 2221     		movs	r1, #34
 1172 00a6 2846     		mov	r0, r5
 1173 00a8 FFF7FEFF 		bl	lv_event_send
 1174              	.LVL166:
ARM GAS  C:\Users\haske\AppData\Local\Temp\ccFGJ08j.s 			page 36


 179:..\..\..\arduinoLCD\test\Pain Drain\libraries\lvgl\src\core/lv_obj_tree.c **** 
 1175              		.loc 1 179 0
 1176 00ac 0022     		movs	r2, #0
 1177 00ae 2421     		movs	r1, #36
 1178 00b0 2846     		mov	r0, r5
 1179 00b2 FFF7FEFF 		bl	lv_event_send
 1180              	.LVL167:
 182:..\..\..\arduinoLCD\test\Pain Drain\libraries\lvgl\src\core/lv_obj_tree.c ****     lv_event_send(parent, LV_EVENT_CHILD_CREATED, NULL);
 1181              		.loc 1 182 0
 1182 00b6 3A46     		mov	r2, r7
 1183 00b8 2221     		movs	r1, #34
 1184 00ba 3046     		mov	r0, r6
 1185 00bc FFF7FEFF 		bl	lv_event_send
 1186              	.LVL168:
 183:..\..\..\arduinoLCD\test\Pain Drain\libraries\lvgl\src\core/lv_obj_tree.c **** 
 1187              		.loc 1 183 0
 1188 00c0 0022     		movs	r2, #0
 1189 00c2 2321     		movs	r1, #35
 1190 00c4 3046     		mov	r0, r6
 1191 00c6 FFF7FEFF 		bl	lv_event_send
 1192              	.LVL169:
 185:..\..\..\arduinoLCD\test\Pain Drain\libraries\lvgl\src\core/lv_obj_tree.c **** 
 1193              		.loc 1 185 0
 1194 00ca 3846     		mov	r0, r7
 1195 00cc FFF7FEFF 		bl	lv_obj_mark_layout_as_dirty
 1196              	.LVL170:
 187:..\..\..\arduinoLCD\test\Pain Drain\libraries\lvgl\src\core/lv_obj_tree.c **** }
 1197              		.loc 1 187 0
 1198 00d0 3846     		mov	r0, r7
 1199 00d2 FFF7FEFF 		bl	lv_obj_invalidate
 1200              	.LVL171:
 1201              	.L93:
 1202 00d6 F8BD     		pop	{r3, r4, r5, r6, r7, pc}
 1203              		.cfi_endproc
 1204              	.LFE164:
 1205              		.size	lv_obj_set_parent, .-lv_obj_set_parent
 1206              		.section	.text.lv_obj_move_to_index,"ax",%progbits
 1207              		.align	2
 1208              		.global	lv_obj_move_to_index
 1209              		.thumb
 1210              		.thumb_func
 1211              		.type	lv_obj_move_to_index, %function
 1212              	lv_obj_move_to_index:
 1213              	.LFB165:
 191:..\..\..\arduinoLCD\test\Pain Drain\libraries\lvgl\src\core/lv_obj_tree.c ****     LV_ASSERT_OBJ(obj, MY_CLASS);
 1214              		.loc 1 191 0
 1215              		.cfi_startproc
 1216              		@ args = 0, pretend = 0, frame = 0
 1217              		@ frame_needed = 0, uses_anonymous_args = 0
 1218              	.LVL172:
 1219 0000 F8B5     		push	{r3, r4, r5, r6, r7, lr}
 1220              		.cfi_def_cfa_offset 24
 1221              		.cfi_offset 3, -24
 1222              		.cfi_offset 4, -20
 1223              		.cfi_offset 5, -16
 1224              		.cfi_offset 6, -12
 1225              		.cfi_offset 7, -8
ARM GAS  C:\Users\haske\AppData\Local\Temp\ccFGJ08j.s 			page 37


 1226              		.cfi_offset 14, -4
 1227 0002 0746     		mov	r7, r0
 194:..\..\..\arduinoLCD\test\Pain Drain\libraries\lvgl\src\core/lv_obj_tree.c ****         index = lv_obj_get_child_cnt(lv_obj_get_parent(obj)) + index;
 1228              		.loc 1 194 0
 1229 0004 0D1E     		subs	r5, r1, #0
 1230 0006 04DA     		bge	.L101
 195:..\..\..\arduinoLCD\test\Pain Drain\libraries\lvgl\src\core/lv_obj_tree.c ****     }
 1231              		.loc 1 195 0
 1232 0008 FFF7FEFF 		bl	lv_obj_get_parent
 1233              	.LVL173:
 1234 000c FFF7FEFF 		bl	lv_obj_get_child_cnt
 1235              	.LVL174:
 1236 0010 0544     		add	r5, r5, r0
 1237              	.LVL175:
 1238              	.L101:
 198:..\..\..\arduinoLCD\test\Pain Drain\libraries\lvgl\src\core/lv_obj_tree.c **** 
 1239              		.loc 1 198 0
 1240 0012 3846     		mov	r0, r7
 1241 0014 FFF7FEFF 		bl	lv_obj_get_index
 1242              	.LVL176:
 1243 0018 0446     		mov	r4, r0
 1244              	.LVL177:
 200:..\..\..\arduinoLCD\test\Pain Drain\libraries\lvgl\src\core/lv_obj_tree.c **** 
 1245              		.loc 1 200 0
 1246 001a 3846     		mov	r0, r7
 1247              	.LVL178:
 1248 001c FFF7FEFF 		bl	lv_obj_get_parent
 1249              	.LVL179:
 1250 0020 0646     		mov	r6, r0
 1251              	.LVL180:
 202:..\..\..\arduinoLCD\test\Pain Drain\libraries\lvgl\src\core/lv_obj_tree.c ****     if(index >= (int32_t) lv_obj_get_child_cnt(parent)) return;
 1252              		.loc 1 202 0
 1253 0022 002D     		cmp	r5, #0
 1254 0024 2ADB     		blt	.L100
 203:..\..\..\arduinoLCD\test\Pain Drain\libraries\lvgl\src\core/lv_obj_tree.c ****     if(index == old_index) return;
 1255              		.loc 1 203 0
 1256 0026 FFF7FEFF 		bl	lv_obj_get_child_cnt
 1257              	.LVL181:
 1258 002a 8542     		cmp	r5, r0
 1259 002c 26DA     		bge	.L100
 204:..\..\..\arduinoLCD\test\Pain Drain\libraries\lvgl\src\core/lv_obj_tree.c **** 
 1260              		.loc 1 204 0
 1261 002e A542     		cmp	r5, r4
 1262 0030 24D0     		beq	.L100
 1263              	.LVL182:
 207:..\..\..\arduinoLCD\test\Pain Drain\libraries\lvgl\src\core/lv_obj_tree.c ****         while(i > index)  {
 1264              		.loc 1 207 0
 1265 0032 0ADB     		blt	.L103
 1266 0034 14E0     		b	.L104
 1267              	.LVL183:
 1268              	.L105:
 209:..\..\..\arduinoLCD\test\Pain Drain\libraries\lvgl\src\core/lv_obj_tree.c ****             i--;
 1269              		.loc 1 209 0
 1270 0036 B368     		ldr	r3, [r6, #8]
 1271 0038 1A68     		ldr	r2, [r3]
 1272 003a 04F18043 		add	r3, r4, #1073741824
 1273 003e 013B     		subs	r3, r3, #1
ARM GAS  C:\Users\haske\AppData\Local\Temp\ccFGJ08j.s 			page 38


 1274 0040 52F82330 		ldr	r3, [r2, r3, lsl #2]
 1275 0044 42F82430 		str	r3, [r2, r4, lsl #2]
 210:..\..\..\arduinoLCD\test\Pain Drain\libraries\lvgl\src\core/lv_obj_tree.c ****         }
 1276              		.loc 1 210 0
 1277 0048 013C     		subs	r4, r4, #1
 1278              	.LVL184:
 1279              	.L103:
 208:..\..\..\arduinoLCD\test\Pain Drain\libraries\lvgl\src\core/lv_obj_tree.c ****             parent->spec_attr->children[i] = parent->spec_attr->children[i - 1];
 1280              		.loc 1 208 0
 1281 004a A542     		cmp	r5, r4
 1282 004c F3DB     		blt	.L105
 1283 004e 09E0     		b	.L106
 1284              	.L107:
 215:..\..\..\arduinoLCD\test\Pain Drain\libraries\lvgl\src\core/lv_obj_tree.c ****             i++;
 1285              		.loc 1 215 0
 1286 0050 B368     		ldr	r3, [r6, #8]
 1287 0052 1A68     		ldr	r2, [r3]
 1288 0054 631C     		adds	r3, r4, #1
 1289 0056 52F82310 		ldr	r1, [r2, r3, lsl #2]
 1290 005a 42F82410 		str	r1, [r2, r4, lsl #2]
 216:..\..\..\arduinoLCD\test\Pain Drain\libraries\lvgl\src\core/lv_obj_tree.c ****         }
 1291              		.loc 1 216 0
 1292 005e 1C46     		mov	r4, r3
 1293              	.LVL185:
 1294              	.L104:
 214:..\..\..\arduinoLCD\test\Pain Drain\libraries\lvgl\src\core/lv_obj_tree.c ****             parent->spec_attr->children[i] = parent->spec_attr->children[i + 1];
 1295              		.loc 1 214 0
 1296 0060 A542     		cmp	r5, r4
 1297 0062 F5DC     		bgt	.L107
 1298              	.L106:
 220:..\..\..\arduinoLCD\test\Pain Drain\libraries\lvgl\src\core/lv_obj_tree.c ****     lv_event_send(parent, LV_EVENT_CHILD_CHANGED, NULL);
 1299              		.loc 1 220 0
 1300 0064 B368     		ldr	r3, [r6, #8]
 1301 0066 1B68     		ldr	r3, [r3]
 1302 0068 43F82570 		str	r7, [r3, r5, lsl #2]
 221:..\..\..\arduinoLCD\test\Pain Drain\libraries\lvgl\src\core/lv_obj_tree.c ****     lv_obj_invalidate(parent);
 1303              		.loc 1 221 0
 1304 006c 0022     		movs	r2, #0
 1305 006e 2221     		movs	r1, #34
 1306 0070 3046     		mov	r0, r6
 1307 0072 FFF7FEFF 		bl	lv_event_send
 1308              	.LVL186:
 222:..\..\..\arduinoLCD\test\Pain Drain\libraries\lvgl\src\core/lv_obj_tree.c **** }
 1309              		.loc 1 222 0
 1310 0076 3046     		mov	r0, r6
 1311 0078 FFF7FEFF 		bl	lv_obj_invalidate
 1312              	.LVL187:
 1313              	.L100:
 1314 007c F8BD     		pop	{r3, r4, r5, r6, r7, pc}
 1315              		.cfi_endproc
 1316              	.LFE165:
 1317              		.size	lv_obj_move_to_index, .-lv_obj_move_to_index
 1318 007e 00BF     		.section	.text.lv_obj_swap,"ax",%progbits
 1319              		.align	2
 1320              		.global	lv_obj_swap
 1321              		.thumb
 1322              		.thumb_func
ARM GAS  C:\Users\haske\AppData\Local\Temp\ccFGJ08j.s 			page 39


 1323              		.type	lv_obj_swap, %function
 1324              	lv_obj_swap:
 1325              	.LFB166:
 226:..\..\..\arduinoLCD\test\Pain Drain\libraries\lvgl\src\core/lv_obj_tree.c ****     LV_ASSERT_OBJ(obj1, MY_CLASS);
 1326              		.loc 1 226 0
 1327              		.cfi_startproc
 1328              		@ args = 0, pretend = 0, frame = 0
 1329              		@ frame_needed = 0, uses_anonymous_args = 0
 1330              	.LVL188:
 1331 0000 2DE9F843 		push	{r3, r4, r5, r6, r7, r8, r9, lr}
 1332              		.cfi_def_cfa_offset 32
 1333              		.cfi_offset 3, -32
 1334              		.cfi_offset 4, -28
 1335              		.cfi_offset 5, -24
 1336              		.cfi_offset 6, -20
 1337              		.cfi_offset 7, -16
 1338              		.cfi_offset 8, -12
 1339              		.cfi_offset 9, -8
 1340              		.cfi_offset 14, -4
 1341 0004 0546     		mov	r5, r0
 1342 0006 0C46     		mov	r4, r1
 230:..\..\..\arduinoLCD\test\Pain Drain\libraries\lvgl\src\core/lv_obj_tree.c ****     lv_obj_t * parent2 = lv_obj_get_parent(obj2);
 1343              		.loc 1 230 0
 1344 0008 FFF7FEFF 		bl	lv_obj_get_parent
 1345              	.LVL189:
 1346 000c 0646     		mov	r6, r0
 1347              	.LVL190:
 231:..\..\..\arduinoLCD\test\Pain Drain\libraries\lvgl\src\core/lv_obj_tree.c **** 
 1348              		.loc 1 231 0
 1349 000e 2046     		mov	r0, r4
 1350              	.LVL191:
 1351 0010 FFF7FEFF 		bl	lv_obj_get_parent
 1352              	.LVL192:
 1353 0014 0746     		mov	r7, r0
 1354              	.LVL193:
 233:..\..\..\arduinoLCD\test\Pain Drain\libraries\lvgl\src\core/lv_obj_tree.c ****     uint_fast32_t index2 = lv_obj_get_index(obj2);
 1355              		.loc 1 233 0
 1356 0016 2846     		mov	r0, r5
 1357              	.LVL194:
 1358 0018 FFF7FEFF 		bl	lv_obj_get_index
 1359              	.LVL195:
 1360 001c 8146     		mov	r9, r0
 1361              	.LVL196:
 234:..\..\..\arduinoLCD\test\Pain Drain\libraries\lvgl\src\core/lv_obj_tree.c **** 
 1362              		.loc 1 234 0
 1363 001e 2046     		mov	r0, r4
 1364              	.LVL197:
 1365 0020 FFF7FEFF 		bl	lv_obj_get_index
 1366              	.LVL198:
 1367 0024 8046     		mov	r8, r0
 1368              	.LVL199:
 236:..\..\..\arduinoLCD\test\Pain Drain\libraries\lvgl\src\core/lv_obj_tree.c ****     lv_event_send(parent, LV_EVENT_CHILD_DELETED, obj1);
 1369              		.loc 1 236 0
 1370 0026 2246     		mov	r2, r4
 1371 0028 2421     		movs	r1, #36
 1372 002a 3846     		mov	r0, r7
 1373              	.LVL200:
ARM GAS  C:\Users\haske\AppData\Local\Temp\ccFGJ08j.s 			page 40


 1374 002c FFF7FEFF 		bl	lv_event_send
 1375              	.LVL201:
 237:..\..\..\arduinoLCD\test\Pain Drain\libraries\lvgl\src\core/lv_obj_tree.c **** 
 1376              		.loc 1 237 0
 1377 0030 2A46     		mov	r2, r5
 1378 0032 2421     		movs	r1, #36
 1379 0034 3046     		mov	r0, r6
 1380 0036 FFF7FEFF 		bl	lv_event_send
 1381              	.LVL202:
 239:..\..\..\arduinoLCD\test\Pain Drain\libraries\lvgl\src\core/lv_obj_tree.c ****     parent2->spec_attr->children[index2] = obj1;
 1382              		.loc 1 239 0
 1383 003a B368     		ldr	r3, [r6, #8]
 1384 003c 1B68     		ldr	r3, [r3]
 1385 003e 43F82940 		str	r4, [r3, r9, lsl #2]
 240:..\..\..\arduinoLCD\test\Pain Drain\libraries\lvgl\src\core/lv_obj_tree.c **** 
 1386              		.loc 1 240 0
 1387 0042 BB68     		ldr	r3, [r7, #8]
 1388 0044 1B68     		ldr	r3, [r3]
 1389 0046 43F82850 		str	r5, [r3, r8, lsl #2]
 242:..\..\..\arduinoLCD\test\Pain Drain\libraries\lvgl\src\core/lv_obj_tree.c ****     lv_event_send(parent, LV_EVENT_CHILD_CREATED, obj2);
 1390              		.loc 1 242 0
 1391 004a 2246     		mov	r2, r4
 1392 004c 2221     		movs	r1, #34
 1393 004e 3046     		mov	r0, r6
 1394 0050 FFF7FEFF 		bl	lv_event_send
 1395              	.LVL203:
 243:..\..\..\arduinoLCD\test\Pain Drain\libraries\lvgl\src\core/lv_obj_tree.c ****     lv_event_send(parent2, LV_EVENT_CHILD_CHANGED, obj1);
 1396              		.loc 1 243 0
 1397 0054 2246     		mov	r2, r4
 1398 0056 2321     		movs	r1, #35
 1399 0058 3046     		mov	r0, r6
 1400 005a FFF7FEFF 		bl	lv_event_send
 1401              	.LVL204:
 244:..\..\..\arduinoLCD\test\Pain Drain\libraries\lvgl\src\core/lv_obj_tree.c ****     lv_event_send(parent2, LV_EVENT_CHILD_CREATED, obj1);
 1402              		.loc 1 244 0
 1403 005e 2A46     		mov	r2, r5
 1404 0060 2221     		movs	r1, #34
 1405 0062 3846     		mov	r0, r7
 1406 0064 FFF7FEFF 		bl	lv_event_send
 1407              	.LVL205:
 245:..\..\..\arduinoLCD\test\Pain Drain\libraries\lvgl\src\core/lv_obj_tree.c **** 
 1408              		.loc 1 245 0
 1409 0068 2A46     		mov	r2, r5
 1410 006a 2321     		movs	r1, #35
 1411 006c 3846     		mov	r0, r7
 1412 006e FFF7FEFF 		bl	lv_event_send
 1413              	.LVL206:
 247:..\..\..\arduinoLCD\test\Pain Drain\libraries\lvgl\src\core/lv_obj_tree.c **** 
 1414              		.loc 1 247 0
 1415 0072 3046     		mov	r0, r6
 1416 0074 FFF7FEFF 		bl	lv_obj_invalidate
 1417              	.LVL207:
 249:..\..\..\arduinoLCD\test\Pain Drain\libraries\lvgl\src\core/lv_obj_tree.c ****         lv_obj_invalidate(parent2);
 1418              		.loc 1 249 0
 1419 0078 BE42     		cmp	r6, r7
 1420 007a 02D0     		beq	.L110
 250:..\..\..\arduinoLCD\test\Pain Drain\libraries\lvgl\src\core/lv_obj_tree.c ****     }
ARM GAS  C:\Users\haske\AppData\Local\Temp\ccFGJ08j.s 			page 41


 1421              		.loc 1 250 0
 1422 007c 3846     		mov	r0, r7
 1423 007e FFF7FEFF 		bl	lv_obj_invalidate
 1424              	.LVL208:
 1425              	.L110:
 252:..\..\..\arduinoLCD\test\Pain Drain\libraries\lvgl\src\core/lv_obj_tree.c **** }
 1426              		.loc 1 252 0
 1427 0082 2146     		mov	r1, r4
 1428 0084 2846     		mov	r0, r5
 1429 0086 FFF7FEFF 		bl	lv_group_swap_obj
 1430              	.LVL209:
 1431 008a BDE8F883 		pop	{r3, r4, r5, r6, r7, r8, r9, pc}
 1432              		.cfi_endproc
 1433              	.LFE166:
 1434              		.size	lv_obj_swap, .-lv_obj_swap
 1435 008e 00BF     		.section	.text.lv_obj_tree_walk,"ax",%progbits
 1436              		.align	2
 1437              		.global	lv_obj_tree_walk
 1438              		.thumb
 1439              		.thumb_func
 1440              		.type	lv_obj_tree_walk, %function
 1441              	lv_obj_tree_walk:
 1442              	.LFB173:
 342:..\..\..\arduinoLCD\test\Pain Drain\libraries\lvgl\src\core/lv_obj_tree.c ****     walk_core(start_obj, cb, user_data);
 1443              		.loc 1 342 0
 1444              		.cfi_startproc
 1445              		@ args = 0, pretend = 0, frame = 0
 1446              		@ frame_needed = 0, uses_anonymous_args = 0
 1447              	.LVL210:
 1448 0000 08B5     		push	{r3, lr}
 1449              		.cfi_def_cfa_offset 8
 1450              		.cfi_offset 3, -8
 1451              		.cfi_offset 14, -4
 343:..\..\..\arduinoLCD\test\Pain Drain\libraries\lvgl\src\core/lv_obj_tree.c **** }
 1452              		.loc 1 343 0
 1453 0002 FFF7FEFF 		bl	walk_core
 1454              	.LVL211:
 1455 0006 08BD     		pop	{r3, pc}
 1456              		.cfi_endproc
 1457              	.LFE173:
 1458              		.size	lv_obj_tree_walk, .-lv_obj_tree_walk
 1459              		.text
 1460              	.Letext0:
 1461              		.file 3 "c:\\program files (x86)\\cypress\\psoc creator\\4.4\\psoc creator\\import\\gnu\\arm\\5.4.
 1462              		.file 4 "c:\\program files (x86)\\cypress\\psoc creator\\4.4\\psoc creator\\import\\gnu\\arm\\5.4.
 1463              		.file 5 "c:\\program files (x86)\\cypress\\psoc creator\\4.4\\psoc creator\\import\\gnu\\arm\\5.4.
 1464              		.file 6 "c:\\program files (x86)\\cypress\\psoc creator\\4.4\\psoc creator\\import\\gnu\\arm\\5.4.
 1465              		.file 7 "c:\\projects\\paindrain\\arduinolcd\\test\\pain drain\\libraries\\lvgl\\src\\misc\\lv_are
 1466              		.file 8 "c:\\projects\\paindrain\\arduinolcd\\test\\pain drain\\libraries\\lvgl\\src\\font\\lv_fon
 1467              		.file 9 "..\\..\\..\\arduinoLCD\\test\\Pain Drain\\libraries\\lvgl\\src\\core\\../misc/lv_types.h"
 1468              		.file 10 "..\\..\\..\\arduinoLCD\\test\\Pain Drain\\libraries\\lvgl\\src\\core\\../misc/lv_color.h
 1469              		.file 11 "..\\..\\..\\arduinoLCD\\test\\Pain Drain\\libraries\\lvgl\\src\\core\\../misc/lv_txt.h"
 1470              		.file 12 "..\\..\\..\\arduinoLCD\\test\\Pain Drain\\libraries\\lvgl\\src\\core\\../misc/lv_bidi.h"
 1471              		.file 13 "..\\..\\..\\arduinoLCD\\test\\Pain Drain\\libraries\\lvgl\\src\\core\\../misc/lv_style.h
 1472              		.file 14 "c:\\projects\\paindrain\\arduinolcd\\test\\pain drain\\libraries\\lvgl\\src\\draw\\lv_im
 1473              		.file 15 "..\\..\\..\\arduinoLCD\\test\\Pain Drain\\libraries\\lvgl\\src\\core\\lv_obj.h"
 1474              		.file 16 "c:\\projects\\paindrain\\arduinolcd\\test\\pain drain\\libraries\\lvgl\\src\\draw\\lv_dr
ARM GAS  C:\Users\haske\AppData\Local\Temp\ccFGJ08j.s 			page 42


 1475              		.file 17 "c:\\projects\\paindrain\\arduinolcd\\test\\pain drain\\libraries\\lvgl\\src\\draw\\lv_dr
 1476              		.file 18 "c:\\projects\\paindrain\\arduinolcd\\test\\pain drain\\libraries\\lvgl\\src\\draw\\lv_dr
 1477              		.file 19 "c:\\projects\\paindrain\\arduinolcd\\test\\pain drain\\libraries\\lvgl\\src\\draw\\lv_dr
 1478              		.file 20 "c:\\projects\\paindrain\\arduinolcd\\test\\pain drain\\libraries\\lvgl\\src\\draw\\lv_dr
 1479              		.file 21 "c:\\projects\\paindrain\\arduinolcd\\test\\pain drain\\libraries\\lvgl\\src\\draw\\lv_dr
 1480              		.file 22 "c:\\projects\\paindrain\\arduinolcd\\test\\pain drain\\libraries\\lvgl\\src\\draw\\lv_dr
 1481              		.file 23 "c:\\projects\\paindrain\\arduinolcd\\test\\pain drain\\libraries\\lvgl\\src\\misc\\lv_ll
 1482              		.file 24 "c:\\projects\\paindrain\\arduinolcd\\test\\pain drain\\libraries\\lvgl\\src\\misc\\lv_ti
 1483              		.file 25 "..\\..\\..\\arduinoLCD\\test\\Pain Drain\\libraries\\lvgl\\src\\core\\../hal/lv_hal_disp
 1484              		.file 26 "..\\..\\..\\arduinoLCD\\test\\Pain Drain\\libraries\\lvgl\\src\\core\\../hal/lv_hal_inde
 1485              		.file 27 "..\\..\\..\\arduinoLCD\\test\\Pain Drain\\libraries\\lvgl\\src\\core\\lv_group.h"
 1486              		.file 28 "..\\..\\..\\arduinoLCD\\test\\Pain Drain\\libraries\\lvgl\\src\\core\\lv_obj_tree.h"
 1487              		.file 29 "..\\..\\..\\arduinoLCD\\test\\Pain Drain\\libraries\\lvgl\\src\\core\\lv_obj_scroll.h"
 1488              		.file 30 "..\\..\\..\\arduinoLCD\\test\\Pain Drain\\libraries\\lvgl\\src\\core\\lv_obj_style.h"
 1489              		.file 31 "..\\..\\..\\arduinoLCD\\test\\Pain Drain\\libraries\\lvgl\\src\\core\\lv_obj_class.h"
 1490              		.file 32 "..\\..\\..\\arduinoLCD\\test\\Pain Drain\\libraries\\lvgl\\src\\core\\lv_event.h"
 1491              		.file 33 "..\\..\\..\\arduinoLCD\\test\\Pain Drain\\libraries\\lvgl\\src\\core\\../misc/lv_gc.h"
 1492              		.file 34 "..\\..\\..\\arduinoLCD\\test\\Pain Drain\\libraries\\lvgl\\src\\core\\../misc/lv_async.h
 1493              		.file 35 "..\\..\\..\\arduinoLCD\\test\\Pain Drain\\libraries\\lvgl\\src\\core\\../misc/lv_mem.h"
 1494              		.file 36 "..\\..\\..\\arduinoLCD\\test\\Pain Drain\\libraries\\lvgl\\src\\core\\lv_indev.h"
 1495              		.file 37 "c:\\projects\\paindrain\\arduinolcd\\test\\pain drain\\libraries\\lvgl\\src\\core\\lv_ob
 1496              		.section	.debug_info,"",%progbits
 1497              	.Ldebug_info0:
 1498 0000 342F0000 		.4byte	0x2f34
 1499 0004 0400     		.2byte	0x4
 1500 0006 00000000 		.4byte	.Ldebug_abbrev0
 1501 000a 04       		.byte	0x4
 1502 000b 01       		.uleb128 0x1
 1503 000c 07100000 		.4byte	.LASF615
 1504 0010 0C       		.byte	0xc
 1505 0011 920D0000 		.4byte	.LASF616
 1506 0015 841E0000 		.4byte	.LASF617
 1507 0019 58000000 		.4byte	.Ldebug_ranges0+0x58
 1508 001d 00000000 		.4byte	0
 1509 0021 00000000 		.4byte	.Ldebug_line0
 1510 0025 02       		.uleb128 0x2
 1511 0026 67000000 		.4byte	.LASF3
 1512 002a 03       		.byte	0x3
 1513 002b D8       		.byte	0xd8
 1514 002c 30000000 		.4byte	0x30
 1515 0030 03       		.uleb128 0x3
 1516 0031 04       		.byte	0x4
 1517 0032 07       		.byte	0x7
 1518 0033 4C140000 		.4byte	.LASF0
 1519 0037 04       		.uleb128 0x4
 1520 0038 04       		.byte	0x4
 1521 0039 05       		.byte	0x5
 1522 003a 696E7400 		.ascii	"int\000"
 1523 003e 03       		.uleb128 0x3
 1524 003f 08       		.byte	0x8
 1525 0040 05       		.byte	0x5
 1526 0041 9E120000 		.4byte	.LASF1
 1527 0045 03       		.uleb128 0x3
 1528 0046 08       		.byte	0x8
 1529 0047 04       		.byte	0x4
 1530 0048 2B170000 		.4byte	.LASF2
 1531 004c 02       		.uleb128 0x2
ARM GAS  C:\Users\haske\AppData\Local\Temp\ccFGJ08j.s 			page 43


 1532 004d 7A180000 		.4byte	.LASF4
 1533 0051 04       		.byte	0x4
 1534 0052 1B       		.byte	0x1b
 1535 0053 57000000 		.4byte	0x57
 1536 0057 03       		.uleb128 0x3
 1537 0058 01       		.byte	0x1
 1538 0059 06       		.byte	0x6
 1539 005a C1060000 		.4byte	.LASF5
 1540 005e 02       		.uleb128 0x2
 1541 005f EC030000 		.4byte	.LASF6
 1542 0063 04       		.byte	0x4
 1543 0064 1D       		.byte	0x1d
 1544 0065 69000000 		.4byte	0x69
 1545 0069 03       		.uleb128 0x3
 1546 006a 01       		.byte	0x1
 1547 006b 08       		.byte	0x8
 1548 006c 7E070000 		.4byte	.LASF7
 1549 0070 02       		.uleb128 0x2
 1550 0071 E91A0000 		.4byte	.LASF8
 1551 0075 04       		.byte	0x4
 1552 0076 29       		.byte	0x29
 1553 0077 7B000000 		.4byte	0x7b
 1554 007b 03       		.uleb128 0x3
 1555 007c 02       		.byte	0x2
 1556 007d 05       		.byte	0x5
 1557 007e D01C0000 		.4byte	.LASF9
 1558 0082 02       		.uleb128 0x2
 1559 0083 5F0A0000 		.4byte	.LASF10
 1560 0087 04       		.byte	0x4
 1561 0088 2B       		.byte	0x2b
 1562 0089 8D000000 		.4byte	0x8d
 1563 008d 03       		.uleb128 0x3
 1564 008e 02       		.byte	0x2
 1565 008f 07       		.byte	0x7
 1566 0090 D2200000 		.4byte	.LASF11
 1567 0094 02       		.uleb128 0x2
 1568 0095 A7210000 		.4byte	.LASF12
 1569 0099 04       		.byte	0x4
 1570 009a 3F       		.byte	0x3f
 1571 009b 9F000000 		.4byte	0x9f
 1572 009f 03       		.uleb128 0x3
 1573 00a0 04       		.byte	0x4
 1574 00a1 05       		.byte	0x5
 1575 00a2 FD040000 		.4byte	.LASF13
 1576 00a6 02       		.uleb128 0x2
 1577 00a7 5E120000 		.4byte	.LASF14
 1578 00ab 04       		.byte	0x4
 1579 00ac 41       		.byte	0x41
 1580 00ad B1000000 		.4byte	0xb1
 1581 00b1 03       		.uleb128 0x3
 1582 00b2 04       		.byte	0x4
 1583 00b3 07       		.byte	0x7
 1584 00b4 1B0F0000 		.4byte	.LASF15
 1585 00b8 03       		.uleb128 0x3
 1586 00b9 08       		.byte	0x8
 1587 00ba 07       		.byte	0x7
 1588 00bb D8180000 		.4byte	.LASF16
ARM GAS  C:\Users\haske\AppData\Local\Temp\ccFGJ08j.s 			page 44


 1589 00bf 03       		.uleb128 0x3
 1590 00c0 04       		.byte	0x4
 1591 00c1 07       		.byte	0x7
 1592 00c2 8A000000 		.4byte	.LASF17
 1593 00c6 05       		.uleb128 0x5
 1594 00c7 04       		.byte	0x4
 1595 00c8 03       		.uleb128 0x3
 1596 00c9 01       		.byte	0x1
 1597 00ca 08       		.byte	0x8
 1598 00cb 6E090000 		.4byte	.LASF18
 1599 00cf 06       		.uleb128 0x6
 1600 00d0 04       		.byte	0x4
 1601 00d1 D5000000 		.4byte	0xd5
 1602 00d5 07       		.uleb128 0x7
 1603 00d6 02       		.uleb128 0x2
 1604 00d7 09000000 		.4byte	.LASF19
 1605 00db 05       		.byte	0x5
 1606 00dc 14       		.byte	0x14
 1607 00dd 4C000000 		.4byte	0x4c
 1608 00e1 02       		.uleb128 0x2
 1609 00e2 CD060000 		.4byte	.LASF20
 1610 00e6 05       		.byte	0x5
 1611 00e7 18       		.byte	0x18
 1612 00e8 5E000000 		.4byte	0x5e
 1613 00ec 02       		.uleb128 0x2
 1614 00ed 931D0000 		.4byte	.LASF21
 1615 00f1 05       		.byte	0x5
 1616 00f2 20       		.byte	0x20
 1617 00f3 70000000 		.4byte	0x70
 1618 00f7 02       		.uleb128 0x2
 1619 00f8 5B190000 		.4byte	.LASF22
 1620 00fc 05       		.byte	0x5
 1621 00fd 24       		.byte	0x24
 1622 00fe 82000000 		.4byte	0x82
 1623 0102 02       		.uleb128 0x2
 1624 0103 41010000 		.4byte	.LASF23
 1625 0107 05       		.byte	0x5
 1626 0108 2C       		.byte	0x2c
 1627 0109 94000000 		.4byte	0x94
 1628 010d 02       		.uleb128 0x2
 1629 010e 19200000 		.4byte	.LASF24
 1630 0112 05       		.byte	0x5
 1631 0113 30       		.byte	0x30
 1632 0114 A6000000 		.4byte	0xa6
 1633 0118 02       		.uleb128 0x2
 1634 0119 D2030000 		.4byte	.LASF25
 1635 011d 06       		.byte	0x6
 1636 011e 48       		.byte	0x48
 1637 011f 30000000 		.4byte	0x30
 1638 0123 02       		.uleb128 0x2
 1639 0124 F2200000 		.4byte	.LASF26
 1640 0128 07       		.byte	0x7
 1641 0129 1B       		.byte	0x1b
 1642 012a EC000000 		.4byte	0xec
 1643 012e 08       		.uleb128 0x8
 1644 012f 04       		.byte	0x4
 1645 0130 07       		.byte	0x7
ARM GAS  C:\Users\haske\AppData\Local\Temp\ccFGJ08j.s 			page 45


 1646 0131 25       		.byte	0x25
 1647 0132 4B010000 		.4byte	0x14b
 1648 0136 09       		.uleb128 0x9
 1649 0137 7800     		.ascii	"x\000"
 1650 0139 07       		.byte	0x7
 1651 013a 26       		.byte	0x26
 1652 013b 23010000 		.4byte	0x123
 1653 013f 00       		.byte	0
 1654 0140 09       		.uleb128 0x9
 1655 0141 7900     		.ascii	"y\000"
 1656 0143 07       		.byte	0x7
 1657 0144 27       		.byte	0x27
 1658 0145 23010000 		.4byte	0x123
 1659 0149 02       		.byte	0x2
 1660 014a 00       		.byte	0
 1661 014b 02       		.uleb128 0x2
 1662 014c 7E010000 		.4byte	.LASF27
 1663 0150 07       		.byte	0x7
 1664 0151 28       		.byte	0x28
 1665 0152 2E010000 		.4byte	0x12e
 1666 0156 08       		.uleb128 0x8
 1667 0157 08       		.byte	0x8
 1668 0158 07       		.byte	0x7
 1669 0159 2B       		.byte	0x2b
 1670 015a 8B010000 		.4byte	0x18b
 1671 015e 09       		.uleb128 0x9
 1672 015f 783100   		.ascii	"x1\000"
 1673 0162 07       		.byte	0x7
 1674 0163 2C       		.byte	0x2c
 1675 0164 23010000 		.4byte	0x123
 1676 0168 00       		.byte	0
 1677 0169 09       		.uleb128 0x9
 1678 016a 793100   		.ascii	"y1\000"
 1679 016d 07       		.byte	0x7
 1680 016e 2D       		.byte	0x2d
 1681 016f 23010000 		.4byte	0x123
 1682 0173 02       		.byte	0x2
 1683 0174 09       		.uleb128 0x9
 1684 0175 783200   		.ascii	"x2\000"
 1685 0178 07       		.byte	0x7
 1686 0179 2E       		.byte	0x2e
 1687 017a 23010000 		.4byte	0x123
 1688 017e 04       		.byte	0x4
 1689 017f 09       		.uleb128 0x9
 1690 0180 793200   		.ascii	"y2\000"
 1691 0183 07       		.byte	0x7
 1692 0184 2F       		.byte	0x2f
 1693 0185 23010000 		.4byte	0x123
 1694 0189 06       		.byte	0x6
 1695 018a 00       		.byte	0
 1696 018b 02       		.uleb128 0x2
 1697 018c 600C0000 		.4byte	.LASF28
 1698 0190 07       		.byte	0x7
 1699 0191 30       		.byte	0x30
 1700 0192 56010000 		.4byte	0x156
 1701 0196 02       		.uleb128 0x2
 1702 0197 180B0000 		.4byte	.LASF29
ARM GAS  C:\Users\haske\AppData\Local\Temp\ccFGJ08j.s 			page 46


 1703 019b 07       		.byte	0x7
 1704 019c 59       		.byte	0x59
 1705 019d E1000000 		.4byte	0xe1
 1706 01a1 08       		.uleb128 0x8
 1707 01a2 10       		.byte	0x10
 1708 01a3 08       		.byte	0x8
 1709 01a4 29       		.byte	0x29
 1710 01a5 10020000 		.4byte	0x210
 1711 01a9 0A       		.uleb128 0xa
 1712 01aa D50F0000 		.4byte	.LASF30
 1713 01ae 08       		.byte	0x8
 1714 01af 2B       		.byte	0x2b
 1715 01b0 98020000 		.4byte	0x298
 1716 01b4 00       		.byte	0
 1717 01b5 0A       		.uleb128 0xa
 1718 01b6 6E000000 		.4byte	.LASF31
 1719 01ba 08       		.byte	0x8
 1720 01bb 2C       		.byte	0x2c
 1721 01bc F7000000 		.4byte	0xf7
 1722 01c0 04       		.byte	0x4
 1723 01c1 0A       		.uleb128 0xa
 1724 01c2 CA1C0000 		.4byte	.LASF32
 1725 01c6 08       		.byte	0x8
 1726 01c7 2D       		.byte	0x2d
 1727 01c8 F7000000 		.4byte	0xf7
 1728 01cc 06       		.byte	0x6
 1729 01cd 0A       		.uleb128 0xa
 1730 01ce 951C0000 		.4byte	.LASF33
 1731 01d2 08       		.byte	0x8
 1732 01d3 2E       		.byte	0x2e
 1733 01d4 F7000000 		.4byte	0xf7
 1734 01d8 08       		.byte	0x8
 1735 01d9 0A       		.uleb128 0xa
 1736 01da 63080000 		.4byte	.LASF34
 1737 01de 08       		.byte	0x8
 1738 01df 2F       		.byte	0x2f
 1739 01e0 EC000000 		.4byte	0xec
 1740 01e4 0A       		.byte	0xa
 1741 01e5 0A       		.uleb128 0xa
 1742 01e6 69080000 		.4byte	.LASF35
 1743 01ea 08       		.byte	0x8
 1744 01eb 30       		.byte	0x30
 1745 01ec EC000000 		.4byte	0xec
 1746 01f0 0C       		.byte	0xc
 1747 01f1 0B       		.uleb128 0xb
 1748 01f2 62707000 		.ascii	"bpp\000"
 1749 01f6 08       		.byte	0x8
 1750 01f7 31       		.byte	0x31
 1751 01f8 E1000000 		.4byte	0xe1
 1752 01fc 01       		.byte	0x1
 1753 01fd 04       		.byte	0x4
 1754 01fe 04       		.byte	0x4
 1755 01ff 0E       		.byte	0xe
 1756 0200 0C       		.uleb128 0xc
 1757 0201 F5220000 		.4byte	.LASF36
 1758 0205 08       		.byte	0x8
 1759 0206 32       		.byte	0x32
ARM GAS  C:\Users\haske\AppData\Local\Temp\ccFGJ08j.s 			page 47


 1760 0207 E1000000 		.4byte	0xe1
 1761 020b 01       		.byte	0x1
 1762 020c 01       		.byte	0x1
 1763 020d 03       		.byte	0x3
 1764 020e 0E       		.byte	0xe
 1765 020f 00       		.byte	0
 1766 0210 0D       		.uleb128 0xd
 1767 0211 4B120000 		.4byte	.LASF61
 1768 0215 1C       		.byte	0x1c
 1769 0216 08       		.byte	0x8
 1770 0217 40       		.byte	0x40
 1771 0218 98020000 		.4byte	0x298
 1772 021c 0A       		.uleb128 0xa
 1773 021d 99210000 		.4byte	.LASF37
 1774 0221 08       		.byte	0x8
 1775 0222 42       		.byte	0x42
 1776 0223 D9020000 		.4byte	0x2d9
 1777 0227 00       		.byte	0
 1778 0228 0A       		.uleb128 0xa
 1779 0229 1E070000 		.4byte	.LASF38
 1780 022d 08       		.byte	0x8
 1781 022e 45       		.byte	0x45
 1782 022f FE020000 		.4byte	0x2fe
 1783 0233 04       		.byte	0x4
 1784 0234 0A       		.uleb128 0xa
 1785 0235 AD010000 		.4byte	.LASF39
 1786 0239 08       		.byte	0x8
 1787 023a 48       		.byte	0x48
 1788 023b 23010000 		.4byte	0x123
 1789 023f 08       		.byte	0x8
 1790 0240 0A       		.uleb128 0xa
 1791 0241 DA1C0000 		.4byte	.LASF40
 1792 0245 08       		.byte	0x8
 1793 0246 49       		.byte	0x49
 1794 0247 23010000 		.4byte	0x123
 1795 024b 0A       		.byte	0xa
 1796 024c 0C       		.uleb128 0xc
 1797 024d 87170000 		.4byte	.LASF41
 1798 0251 08       		.byte	0x8
 1799 0252 4A       		.byte	0x4a
 1800 0253 E1000000 		.4byte	0xe1
 1801 0257 01       		.byte	0x1
 1802 0258 02       		.byte	0x2
 1803 0259 06       		.byte	0x6
 1804 025a 0C       		.byte	0xc
 1805 025b 0A       		.uleb128 0xa
 1806 025c B5090000 		.4byte	.LASF42
 1807 0260 08       		.byte	0x8
 1808 0261 4C       		.byte	0x4c
 1809 0262 D6000000 		.4byte	0xd6
 1810 0266 0D       		.byte	0xd
 1811 0267 0A       		.uleb128 0xa
 1812 0268 66130000 		.4byte	.LASF43
 1813 026c 08       		.byte	0x8
 1814 026d 4D       		.byte	0x4d
 1815 026e D6000000 		.4byte	0xd6
 1816 0272 0E       		.byte	0xe
ARM GAS  C:\Users\haske\AppData\Local\Temp\ccFGJ08j.s 			page 48


 1817 0273 09       		.uleb128 0x9
 1818 0274 64736300 		.ascii	"dsc\000"
 1819 0278 08       		.byte	0x8
 1820 0279 4F       		.byte	0x4f
 1821 027a CF000000 		.4byte	0xcf
 1822 027e 10       		.byte	0x10
 1823 027f 0A       		.uleb128 0xa
 1824 0280 F60B0000 		.4byte	.LASF44
 1825 0284 08       		.byte	0x8
 1826 0285 50       		.byte	0x50
 1827 0286 98020000 		.4byte	0x298
 1828 028a 14       		.byte	0x14
 1829 028b 0A       		.uleb128 0xa
 1830 028c 30210000 		.4byte	.LASF45
 1831 0290 08       		.byte	0x8
 1832 0291 52       		.byte	0x52
 1833 0292 C6000000 		.4byte	0xc6
 1834 0296 18       		.byte	0x18
 1835 0297 00       		.byte	0
 1836 0298 06       		.uleb128 0x6
 1837 0299 04       		.byte	0x4
 1838 029a 9E020000 		.4byte	0x29e
 1839 029e 0E       		.uleb128 0xe
 1840 029f 10020000 		.4byte	0x210
 1841 02a3 02       		.uleb128 0x2
 1842 02a4 DD150000 		.4byte	.LASF46
 1843 02a8 08       		.byte	0x8
 1844 02a9 33       		.byte	0x33
 1845 02aa A1010000 		.4byte	0x1a1
 1846 02ae 0F       		.uleb128 0xf
 1847 02af CC020000 		.4byte	0x2cc
 1848 02b3 CC020000 		.4byte	0x2cc
 1849 02b7 10       		.uleb128 0x10
 1850 02b8 98020000 		.4byte	0x298
 1851 02bc 10       		.uleb128 0x10
 1852 02bd D3020000 		.4byte	0x2d3
 1853 02c1 10       		.uleb128 0x10
 1854 02c2 0D010000 		.4byte	0x10d
 1855 02c6 10       		.uleb128 0x10
 1856 02c7 0D010000 		.4byte	0x10d
 1857 02cb 00       		.byte	0
 1858 02cc 03       		.uleb128 0x3
 1859 02cd 01       		.byte	0x1
 1860 02ce 02       		.byte	0x2
 1861 02cf C7080000 		.4byte	.LASF47
 1862 02d3 06       		.uleb128 0x6
 1863 02d4 04       		.byte	0x4
 1864 02d5 A3020000 		.4byte	0x2a3
 1865 02d9 06       		.uleb128 0x6
 1866 02da 04       		.byte	0x4
 1867 02db AE020000 		.4byte	0x2ae
 1868 02df 0F       		.uleb128 0xf
 1869 02e0 F3020000 		.4byte	0x2f3
 1870 02e4 F3020000 		.4byte	0x2f3
 1871 02e8 10       		.uleb128 0x10
 1872 02e9 98020000 		.4byte	0x298
 1873 02ed 10       		.uleb128 0x10
ARM GAS  C:\Users\haske\AppData\Local\Temp\ccFGJ08j.s 			page 49


 1874 02ee 0D010000 		.4byte	0x10d
 1875 02f2 00       		.byte	0
 1876 02f3 06       		.uleb128 0x6
 1877 02f4 04       		.byte	0x4
 1878 02f5 F9020000 		.4byte	0x2f9
 1879 02f9 0E       		.uleb128 0xe
 1880 02fa E1000000 		.4byte	0xe1
 1881 02fe 06       		.uleb128 0x6
 1882 02ff 04       		.byte	0x4
 1883 0300 DF020000 		.4byte	0x2df
 1884 0304 02       		.uleb128 0x2
 1885 0305 7F200000 		.4byte	.LASF48
 1886 0309 08       		.byte	0x8
 1887 030a 54       		.byte	0x54
 1888 030b 10020000 		.4byte	0x210
 1889 030f 11       		.uleb128 0x11
 1890 0310 01       		.byte	0x1
 1891 0311 69000000 		.4byte	0x69
 1892 0315 09       		.byte	0x9
 1893 0316 2A       		.byte	0x2a
 1894 0317 28030000 		.4byte	0x328
 1895 031b 12       		.uleb128 0x12
 1896 031c 9D020000 		.4byte	.LASF49
 1897 0320 00       		.byte	0
 1898 0321 12       		.uleb128 0x12
 1899 0322 64190000 		.4byte	.LASF50
 1900 0326 01       		.byte	0x1
 1901 0327 00       		.byte	0
 1902 0328 02       		.uleb128 0x2
 1903 0329 00170000 		.4byte	.LASF51
 1904 032d 09       		.byte	0x9
 1905 032e 2F       		.byte	0x2f
 1906 032f E1000000 		.4byte	0xe1
 1907 0333 08       		.uleb128 0x8
 1908 0334 02       		.byte	0x2
 1909 0335 0A       		.byte	0xa
 1910 0336 D1       		.byte	0xd1
 1911 0337 69030000 		.4byte	0x369
 1912 033b 0C       		.uleb128 0xc
 1913 033c 42070000 		.4byte	.LASF52
 1914 0340 0A       		.byte	0xa
 1915 0341 D3       		.byte	0xd3
 1916 0342 F7000000 		.4byte	0xf7
 1917 0346 02       		.byte	0x2
 1918 0347 05       		.byte	0x5
 1919 0348 0B       		.byte	0xb
 1920 0349 00       		.byte	0
 1921 034a 0C       		.uleb128 0xc
 1922 034b 79200000 		.4byte	.LASF53
 1923 034f 0A       		.byte	0xa
 1924 0350 D4       		.byte	0xd4
 1925 0351 F7000000 		.4byte	0xf7
 1926 0355 02       		.byte	0x2
 1927 0356 06       		.byte	0x6
 1928 0357 05       		.byte	0x5
 1929 0358 00       		.byte	0
 1930 0359 0B       		.uleb128 0xb
ARM GAS  C:\Users\haske\AppData\Local\Temp\ccFGJ08j.s 			page 50


 1931 035a 72656400 		.ascii	"red\000"
 1932 035e 0A       		.byte	0xa
 1933 035f D5       		.byte	0xd5
 1934 0360 F7000000 		.4byte	0xf7
 1935 0364 02       		.byte	0x2
 1936 0365 05       		.byte	0x5
 1937 0366 00       		.byte	0
 1938 0367 00       		.byte	0
 1939 0368 00       		.byte	0
 1940 0369 13       		.uleb128 0x13
 1941 036a 02       		.byte	0x2
 1942 036b 0A       		.byte	0xa
 1943 036c D0       		.byte	0xd0
 1944 036d 87030000 		.4byte	0x387
 1945 0371 14       		.uleb128 0x14
 1946 0372 636800   		.ascii	"ch\000"
 1947 0375 0A       		.byte	0xa
 1948 0376 DC       		.byte	0xdc
 1949 0377 33030000 		.4byte	0x333
 1950 037b 15       		.uleb128 0x15
 1951 037c 641B0000 		.4byte	.LASF54
 1952 0380 0A       		.byte	0xa
 1953 0381 DD       		.byte	0xdd
 1954 0382 F7000000 		.4byte	0xf7
 1955 0386 00       		.byte	0
 1956 0387 02       		.uleb128 0x2
 1957 0388 BD1C0000 		.4byte	.LASF55
 1958 038c 0A       		.byte	0xa
 1959 038d DE       		.byte	0xde
 1960 038e 69030000 		.4byte	0x369
 1961 0392 02       		.uleb128 0x2
 1962 0393 86190000 		.4byte	.LASF56
 1963 0397 0A       		.byte	0xa
 1964 0398 EB       		.byte	0xeb
 1965 0399 87030000 		.4byte	0x387
 1966 039d 02       		.uleb128 0x2
 1967 039e 1F010000 		.4byte	.LASF57
 1968 03a2 0A       		.byte	0xa
 1969 03a3 F5       		.byte	0xf5
 1970 03a4 E1000000 		.4byte	0xe1
 1971 03a8 11       		.uleb128 0x11
 1972 03a9 01       		.byte	0x1
 1973 03aa 69000000 		.4byte	0x69
 1974 03ae 02       		.byte	0x2
 1975 03af 25       		.byte	0x25
 1976 03b0 C1030000 		.4byte	0x3c1
 1977 03b4 12       		.uleb128 0x12
 1978 03b5 E7060000 		.4byte	.LASF58
 1979 03b9 00       		.byte	0
 1980 03ba 12       		.uleb128 0x12
 1981 03bb D3000000 		.4byte	.LASF59
 1982 03bf 01       		.byte	0x1
 1983 03c0 00       		.byte	0
 1984 03c1 02       		.uleb128 0x2
 1985 03c2 65140000 		.4byte	.LASF60
 1986 03c6 02       		.byte	0x2
 1987 03c7 2E       		.byte	0x2e
ARM GAS  C:\Users\haske\AppData\Local\Temp\ccFGJ08j.s 			page 51


 1988 03c8 CC030000 		.4byte	0x3cc
 1989 03cc 06       		.uleb128 0x6
 1990 03cd 04       		.byte	0x4
 1991 03ce D2030000 		.4byte	0x3d2
 1992 03d2 0F       		.uleb128 0xf
 1993 03d3 02010000 		.4byte	0x102
 1994 03d7 E1030000 		.4byte	0x3e1
 1995 03db 10       		.uleb128 0x10
 1996 03dc E1030000 		.4byte	0x3e1
 1997 03e0 00       		.byte	0
 1998 03e1 06       		.uleb128 0x6
 1999 03e2 04       		.byte	0x4
 2000 03e3 FC040000 		.4byte	0x4fc
 2001 03e7 0D       		.uleb128 0xd
 2002 03e8 9A220000 		.4byte	.LASF62
 2003 03ec 44       		.byte	0x44
 2004 03ed 02       		.byte	0x2
 2005 03ee 49       		.byte	0x49
 2006 03ef FC040000 		.4byte	0x4fc
 2007 03f3 09       		.uleb128 0x9
 2008 03f4 76617200 		.ascii	"var\000"
 2009 03f8 02       		.byte	0x2
 2010 03f9 4A       		.byte	0x4a
 2011 03fa C6000000 		.4byte	0xc6
 2012 03fe 00       		.byte	0
 2013 03ff 0A       		.uleb128 0xa
 2014 0400 381A0000 		.4byte	.LASF63
 2015 0404 02       		.byte	0x2
 2016 0405 4B       		.byte	0x4b
 2017 0406 01050000 		.4byte	0x501
 2018 040a 04       		.byte	0x4
 2019 040b 0A       		.uleb128 0xa
 2020 040c 2F070000 		.4byte	.LASF64
 2021 0410 02       		.byte	0x2
 2022 0411 4C       		.byte	0x4c
 2023 0412 44050000 		.4byte	0x544
 2024 0416 08       		.byte	0x8
 2025 0417 0A       		.uleb128 0xa
 2026 0418 910B0000 		.4byte	.LASF65
 2027 041c 02       		.byte	0x2
 2028 041d 4D       		.byte	0x4d
 2029 041e 28050000 		.4byte	0x528
 2030 0422 0C       		.byte	0xc
 2031 0423 0A       		.uleb128 0xa
 2032 0424 CA210000 		.4byte	.LASF66
 2033 0428 02       		.byte	0x2
 2034 0429 4E       		.byte	0x4e
 2035 042a 6F050000 		.4byte	0x56f
 2036 042e 10       		.byte	0x10
 2037 042f 0A       		.uleb128 0xa
 2038 0430 E8160000 		.4byte	.LASF67
 2039 0434 02       		.byte	0x2
 2040 0435 4F       		.byte	0x4f
 2041 0436 4F050000 		.4byte	0x54f
 2042 043a 14       		.byte	0x14
 2043 043b 0A       		.uleb128 0xa
 2044 043c 30210000 		.4byte	.LASF45
ARM GAS  C:\Users\haske\AppData\Local\Temp\ccFGJ08j.s 			page 52


 2045 0440 02       		.byte	0x2
 2046 0441 51       		.byte	0x51
 2047 0442 C6000000 		.4byte	0xc6
 2048 0446 18       		.byte	0x18
 2049 0447 0A       		.uleb128 0xa
 2050 0448 B9010000 		.4byte	.LASF68
 2051 044c 02       		.byte	0x2
 2052 044d 53       		.byte	0x53
 2053 044e C1030000 		.4byte	0x3c1
 2054 0452 1C       		.byte	0x1c
 2055 0453 0A       		.uleb128 0xa
 2056 0454 63070000 		.4byte	.LASF69
 2057 0458 02       		.byte	0x2
 2058 0459 54       		.byte	0x54
 2059 045a 02010000 		.4byte	0x102
 2060 045e 20       		.byte	0x20
 2061 045f 0A       		.uleb128 0xa
 2062 0460 3E140000 		.4byte	.LASF70
 2063 0464 02       		.byte	0x2
 2064 0465 55       		.byte	0x55
 2065 0466 02010000 		.4byte	0x102
 2066 046a 24       		.byte	0x24
 2067 046b 0A       		.uleb128 0xa
 2068 046c 6E190000 		.4byte	.LASF71
 2069 0470 02       		.byte	0x2
 2070 0471 56       		.byte	0x56
 2071 0472 02010000 		.4byte	0x102
 2072 0476 28       		.byte	0x28
 2073 0477 0A       		.uleb128 0xa
 2074 0478 831B0000 		.4byte	.LASF72
 2075 047c 02       		.byte	0x2
 2076 047d 57       		.byte	0x57
 2077 047e 02010000 		.4byte	0x102
 2078 0482 2C       		.byte	0x2c
 2079 0483 0A       		.uleb128 0xa
 2080 0484 E41E0000 		.4byte	.LASF73
 2081 0488 02       		.byte	0x2
 2082 0489 58       		.byte	0x58
 2083 048a 02010000 		.4byte	0x102
 2084 048e 30       		.byte	0x30
 2085 048f 0A       		.uleb128 0xa
 2086 0490 130E0000 		.4byte	.LASF74
 2087 0494 02       		.byte	0x2
 2088 0495 59       		.byte	0x59
 2089 0496 0D010000 		.4byte	0x10d
 2090 049a 34       		.byte	0x34
 2091 049b 0A       		.uleb128 0xa
 2092 049c 691A0000 		.4byte	.LASF75
 2093 04a0 02       		.byte	0x2
 2094 04a1 5A       		.byte	0x5a
 2095 04a2 0D010000 		.4byte	0x10d
 2096 04a6 38       		.byte	0x38
 2097 04a7 0A       		.uleb128 0xa
 2098 04a8 B5160000 		.4byte	.LASF76
 2099 04ac 02       		.byte	0x2
 2100 04ad 5B       		.byte	0x5b
 2101 04ae 0D010000 		.4byte	0x10d
ARM GAS  C:\Users\haske\AppData\Local\Temp\ccFGJ08j.s 			page 53


 2102 04b2 3C       		.byte	0x3c
 2103 04b3 0A       		.uleb128 0xa
 2104 04b4 9D170000 		.4byte	.LASF77
 2105 04b8 02       		.byte	0x2
 2106 04b9 5C       		.byte	0x5c
 2107 04ba F7000000 		.4byte	0xf7
 2108 04be 40       		.byte	0x40
 2109 04bf 0C       		.uleb128 0xc
 2110 04c0 4D060000 		.4byte	.LASF78
 2111 04c4 02       		.byte	0x2
 2112 04c5 5D       		.byte	0x5d
 2113 04c6 E1000000 		.4byte	0xe1
 2114 04ca 01       		.byte	0x1
 2115 04cb 01       		.byte	0x1
 2116 04cc 07       		.byte	0x7
 2117 04cd 42       		.byte	0x42
 2118 04ce 0C       		.uleb128 0xc
 2119 04cf 4E210000 		.4byte	.LASF79
 2120 04d3 02       		.byte	0x2
 2121 04d4 60       		.byte	0x60
 2122 04d5 E1000000 		.4byte	0xe1
 2123 04d9 01       		.byte	0x1
 2124 04da 01       		.byte	0x1
 2125 04db 06       		.byte	0x6
 2126 04dc 42       		.byte	0x42
 2127 04dd 0C       		.uleb128 0xc
 2128 04de 59040000 		.4byte	.LASF80
 2129 04e2 02       		.byte	0x2
 2130 04e3 61       		.byte	0x61
 2131 04e4 E1000000 		.4byte	0xe1
 2132 04e8 01       		.byte	0x1
 2133 04e9 01       		.byte	0x1
 2134 04ea 05       		.byte	0x5
 2135 04eb 42       		.byte	0x42
 2136 04ec 0C       		.uleb128 0xc
 2137 04ed E8100000 		.4byte	.LASF81
 2138 04f1 02       		.byte	0x2
 2139 04f2 62       		.byte	0x62
 2140 04f3 E1000000 		.4byte	0xe1
 2141 04f7 01       		.byte	0x1
 2142 04f8 01       		.byte	0x1
 2143 04f9 04       		.byte	0x4
 2144 04fa 42       		.byte	0x42
 2145 04fb 00       		.byte	0
 2146 04fc 0E       		.uleb128 0xe
 2147 04fd E7030000 		.4byte	0x3e7
 2148 0501 02       		.uleb128 0x2
 2149 0502 8C090000 		.4byte	.LASF82
 2150 0506 02       		.byte	0x2
 2151 0507 36       		.byte	0x36
 2152 0508 0C050000 		.4byte	0x50c
 2153 050c 06       		.uleb128 0x6
 2154 050d 04       		.byte	0x4
 2155 050e 12050000 		.4byte	0x512
 2156 0512 16       		.uleb128 0x16
 2157 0513 22050000 		.4byte	0x522
 2158 0517 10       		.uleb128 0x10
ARM GAS  C:\Users\haske\AppData\Local\Temp\ccFGJ08j.s 			page 54


 2159 0518 C6000000 		.4byte	0xc6
 2160 051c 10       		.uleb128 0x10
 2161 051d 02010000 		.4byte	0x102
 2162 0521 00       		.byte	0
 2163 0522 06       		.uleb128 0x6
 2164 0523 04       		.byte	0x4
 2165 0524 E7030000 		.4byte	0x3e7
 2166 0528 02       		.uleb128 0x2
 2167 0529 5C0D0000 		.4byte	.LASF83
 2168 052d 02       		.byte	0x2
 2169 052e 3D       		.byte	0x3d
 2170 052f 33050000 		.4byte	0x533
 2171 0533 06       		.uleb128 0x6
 2172 0534 04       		.byte	0x4
 2173 0535 39050000 		.4byte	0x539
 2174 0539 16       		.uleb128 0x16
 2175 053a 44050000 		.4byte	0x544
 2176 053e 10       		.uleb128 0x10
 2177 053f 22050000 		.4byte	0x522
 2178 0543 00       		.byte	0
 2179 0544 02       		.uleb128 0x2
 2180 0545 9B1C0000 		.4byte	.LASF84
 2181 0549 02       		.byte	0x2
 2182 054a 40       		.byte	0x40
 2183 054b 33050000 		.4byte	0x533
 2184 054f 02       		.uleb128 0x2
 2185 0550 D8010000 		.4byte	.LASF85
 2186 0554 02       		.byte	0x2
 2187 0555 43       		.byte	0x43
 2188 0556 5A050000 		.4byte	0x55a
 2189 055a 06       		.uleb128 0x6
 2190 055b 04       		.byte	0x4
 2191 055c 60050000 		.4byte	0x560
 2192 0560 0F       		.uleb128 0xf
 2193 0561 02010000 		.4byte	0x102
 2194 0565 6F050000 		.4byte	0x56f
 2195 0569 10       		.uleb128 0x10
 2196 056a 22050000 		.4byte	0x522
 2197 056e 00       		.byte	0
 2198 056f 02       		.uleb128 0x2
 2199 0570 8E140000 		.4byte	.LASF86
 2200 0574 02       		.byte	0x2
 2201 0575 46       		.byte	0x46
 2202 0576 33050000 		.4byte	0x533
 2203 057a 02       		.uleb128 0x2
 2204 057b 110F0000 		.4byte	.LASF87
 2205 057f 02       		.byte	0x2
 2206 0580 63       		.byte	0x63
 2207 0581 E7030000 		.4byte	0x3e7
 2208 0585 02       		.uleb128 0x2
 2209 0586 FD190000 		.4byte	.LASF88
 2210 058a 0B       		.byte	0xb
 2211 058b 30       		.byte	0x30
 2212 058c E1000000 		.4byte	0xe1
 2213 0590 02       		.uleb128 0x2
 2214 0591 49130000 		.4byte	.LASF89
 2215 0595 0B       		.byte	0xb
ARM GAS  C:\Users\haske\AppData\Local\Temp\ccFGJ08j.s 			page 55


 2216 0596 42       		.byte	0x42
 2217 0597 E1000000 		.4byte	0xe1
 2218 059b 02       		.uleb128 0x2
 2219 059c 78080000 		.4byte	.LASF90
 2220 05a0 0C       		.byte	0xc
 2221 05a1 2A       		.byte	0x2a
 2222 05a2 E1000000 		.4byte	0xe1
 2223 05a6 02       		.uleb128 0x2
 2224 05a7 BF0E0000 		.4byte	.LASF91
 2225 05ab 0D       		.byte	0xd
 2226 05ac 5E       		.byte	0x5e
 2227 05ad E1000000 		.4byte	0xe1
 2228 05b1 02       		.uleb128 0x2
 2229 05b2 82120000 		.4byte	.LASF92
 2230 05b6 0D       		.byte	0xd
 2231 05b7 6A       		.byte	0x6a
 2232 05b8 E1000000 		.4byte	0xe1
 2233 05bc 02       		.uleb128 0x2
 2234 05bd FD1B0000 		.4byte	.LASF93
 2235 05c1 0D       		.byte	0xd
 2236 05c2 79       		.byte	0x79
 2237 05c3 E1000000 		.4byte	0xe1
 2238 05c7 02       		.uleb128 0x2
 2239 05c8 D5210000 		.4byte	.LASF94
 2240 05cc 0D       		.byte	0xd
 2241 05cd 84       		.byte	0x84
 2242 05ce E1000000 		.4byte	0xe1
 2243 05d2 02       		.uleb128 0x2
 2244 05d3 3D170000 		.4byte	.LASF95
 2245 05d7 0D       		.byte	0xd
 2246 05d8 90       		.byte	0x90
 2247 05d9 E1000000 		.4byte	0xe1
 2248 05dd 08       		.uleb128 0x8
 2249 05de 04       		.byte	0x4
 2250 05df 0D       		.byte	0xd
 2251 05e0 95       		.byte	0x95
 2252 05e1 FE050000 		.4byte	0x5fe
 2253 05e5 0A       		.uleb128 0xa
 2254 05e6 7D1B0000 		.4byte	.LASF96
 2255 05ea 0D       		.byte	0xd
 2256 05eb 96       		.byte	0x96
 2257 05ec 92030000 		.4byte	0x392
 2258 05f0 00       		.byte	0
 2259 05f1 0A       		.uleb128 0xa
 2260 05f2 0E1C0000 		.4byte	.LASF97
 2261 05f6 0D       		.byte	0xd
 2262 05f7 97       		.byte	0x97
 2263 05f8 E1000000 		.4byte	0xe1
 2264 05fc 02       		.byte	0x2
 2265 05fd 00       		.byte	0
 2266 05fe 02       		.uleb128 0x2
 2267 05ff 6C1F0000 		.4byte	.LASF98
 2268 0603 0D       		.byte	0xd
 2269 0604 98       		.byte	0x98
 2270 0605 DD050000 		.4byte	0x5dd
 2271 0609 08       		.uleb128 0x8
 2272 060a 0A       		.byte	0xa
ARM GAS  C:\Users\haske\AppData\Local\Temp\ccFGJ08j.s 			page 56


 2273 060b 0D       		.byte	0xd
 2274 060c 9B       		.byte	0x9b
 2275 060d 48060000 		.4byte	0x648
 2276 0611 0A       		.uleb128 0xa
 2277 0612 961B0000 		.4byte	.LASF99
 2278 0616 0D       		.byte	0xd
 2279 0617 9C       		.byte	0x9c
 2280 0618 48060000 		.4byte	0x648
 2281 061c 00       		.byte	0
 2282 061d 0A       		.uleb128 0xa
 2283 061e 460A0000 		.4byte	.LASF100
 2284 0622 0D       		.byte	0xd
 2285 0623 9D       		.byte	0x9d
 2286 0624 E1000000 		.4byte	0xe1
 2287 0628 08       		.byte	0x8
 2288 0629 0B       		.uleb128 0xb
 2289 062a 64697200 		.ascii	"dir\000"
 2290 062e 0D       		.byte	0xd
 2291 062f 9E       		.byte	0x9e
 2292 0630 C7050000 		.4byte	0x5c7
 2293 0634 01       		.byte	0x1
 2294 0635 03       		.byte	0x3
 2295 0636 05       		.byte	0x5
 2296 0637 09       		.byte	0x9
 2297 0638 0C       		.uleb128 0xc
 2298 0639 B6200000 		.4byte	.LASF101
 2299 063d 0D       		.byte	0xd
 2300 063e A0       		.byte	0xa0
 2301 063f D2050000 		.4byte	0x5d2
 2302 0643 01       		.byte	0x1
 2303 0644 03       		.byte	0x3
 2304 0645 02       		.byte	0x2
 2305 0646 09       		.byte	0x9
 2306 0647 00       		.byte	0
 2307 0648 17       		.uleb128 0x17
 2308 0649 FE050000 		.4byte	0x5fe
 2309 064d 58060000 		.4byte	0x658
 2310 0651 18       		.uleb128 0x18
 2311 0652 BF000000 		.4byte	0xbf
 2312 0656 01       		.byte	0x1
 2313 0657 00       		.byte	0
 2314 0658 02       		.uleb128 0x2
 2315 0659 AA220000 		.4byte	.LASF102
 2316 065d 0D       		.byte	0xd
 2317 065e A2       		.byte	0xa2
 2318 065f 09060000 		.4byte	0x609
 2319 0663 13       		.uleb128 0x13
 2320 0664 04       		.byte	0x4
 2321 0665 0D       		.byte	0xd
 2322 0666 A7       		.byte	0xa7
 2323 0667 8D060000 		.4byte	0x68d
 2324 066b 14       		.uleb128 0x14
 2325 066c 6E756D00 		.ascii	"num\000"
 2326 0670 0D       		.byte	0xd
 2327 0671 A8       		.byte	0xa8
 2328 0672 02010000 		.4byte	0x102
 2329 0676 14       		.uleb128 0x14
ARM GAS  C:\Users\haske\AppData\Local\Temp\ccFGJ08j.s 			page 57


 2330 0677 70747200 		.ascii	"ptr\000"
 2331 067b 0D       		.byte	0xd
 2332 067c A9       		.byte	0xa9
 2333 067d CF000000 		.4byte	0xcf
 2334 0681 15       		.uleb128 0x15
 2335 0682 7D1B0000 		.4byte	.LASF96
 2336 0686 0D       		.byte	0xd
 2337 0687 AA       		.byte	0xaa
 2338 0688 92030000 		.4byte	0x392
 2339 068c 00       		.byte	0
 2340 068d 02       		.uleb128 0x2
 2341 068e CC140000 		.4byte	.LASF103
 2342 0692 0D       		.byte	0xd
 2343 0693 AB       		.byte	0xab
 2344 0694 63060000 		.4byte	0x663
 2345 0698 11       		.uleb128 0x11
 2346 0699 02       		.byte	0x2
 2347 069a 8D000000 		.4byte	0x8d
 2348 069e 0D       		.byte	0xd
 2349 069f B2       		.byte	0xb2
 2350 06a0 BD080000 		.4byte	0x8bd
 2351 06a4 12       		.uleb128 0x12
 2352 06a5 CF0C0000 		.4byte	.LASF104
 2353 06a9 00       		.byte	0
 2354 06aa 12       		.uleb128 0x12
 2355 06ab CE190000 		.4byte	.LASF105
 2356 06af 01       		.byte	0x1
 2357 06b0 12       		.uleb128 0x12
 2358 06b1 EA190000 		.4byte	.LASF106
 2359 06b5 02       		.byte	0x2
 2360 06b6 12       		.uleb128 0x12
 2361 06b7 46040000 		.4byte	.LASF107
 2362 06bb 03       		.byte	0x3
 2363 06bc 12       		.uleb128 0x12
 2364 06bd 47020000 		.4byte	.LASF108
 2365 06c1 04       		.byte	0x4
 2366 06c2 12       		.uleb128 0x12
 2367 06c3 F81E0000 		.4byte	.LASF109
 2368 06c7 05       		.byte	0x5
 2369 06c8 12       		.uleb128 0x12
 2370 06c9 3C1C0000 		.4byte	.LASF110
 2371 06cd 06       		.byte	0x6
 2372 06ce 12       		.uleb128 0x12
 2373 06cf FE110000 		.4byte	.LASF111
 2374 06d3 07       		.byte	0x7
 2375 06d4 12       		.uleb128 0x12
 2376 06d5 7F1F0000 		.4byte	.LASF112
 2377 06d9 08       		.byte	0x8
 2378 06da 12       		.uleb128 0x12
 2379 06db 6F070000 		.4byte	.LASF113
 2380 06df 09       		.byte	0x9
 2381 06e0 12       		.uleb128 0x12
 2382 06e1 CD150000 		.4byte	.LASF114
 2383 06e5 0A       		.byte	0xa
 2384 06e6 12       		.uleb128 0x12
 2385 06e7 1F040000 		.4byte	.LASF115
 2386 06eb 0B       		.byte	0xb
ARM GAS  C:\Users\haske\AppData\Local\Temp\ccFGJ08j.s 			page 58


 2387 06ec 12       		.uleb128 0x12
 2388 06ed 031E0000 		.4byte	.LASF116
 2389 06f1 10       		.byte	0x10
 2390 06f2 12       		.uleb128 0x12
 2391 06f3 350E0000 		.4byte	.LASF117
 2392 06f7 11       		.byte	0x11
 2393 06f8 12       		.uleb128 0x12
 2394 06f9 25110000 		.4byte	.LASF118
 2395 06fd 12       		.byte	0x12
 2396 06fe 12       		.uleb128 0x12
 2397 06ff CA040000 		.4byte	.LASF119
 2398 0703 13       		.byte	0x13
 2399 0704 12       		.uleb128 0x12
 2400 0705 BA100000 		.4byte	.LASF120
 2401 0709 14       		.byte	0x14
 2402 070a 12       		.uleb128 0x12
 2403 070b 87030000 		.4byte	.LASF121
 2404 070f 15       		.byte	0x15
 2405 0710 12       		.uleb128 0x12
 2406 0711 150A0000 		.4byte	.LASF122
 2407 0715 16       		.byte	0x16
 2408 0716 12       		.uleb128 0x12
 2409 0717 62160000 		.4byte	.LASF123
 2410 071b 17       		.byte	0x17
 2411 071c 12       		.uleb128 0x12
 2412 071d C70A0000 		.4byte	.LASF124
 2413 0721 20       		.byte	0x20
 2414 0722 12       		.uleb128 0x12
 2415 0723 5C0E0000 		.4byte	.LASF125
 2416 0727 21       		.byte	0x21
 2417 0728 12       		.uleb128 0x12
 2418 0729 751C0000 		.4byte	.LASF126
 2419 072d 22       		.byte	0x22
 2420 072e 12       		.uleb128 0x12
 2421 072f 09070000 		.4byte	.LASF127
 2422 0733 23       		.byte	0x23
 2423 0734 12       		.uleb128 0x12
 2424 0735 910E0000 		.4byte	.LASF128
 2425 0739 24       		.byte	0x24
 2426 073a 12       		.uleb128 0x12
 2427 073b F9180000 		.4byte	.LASF129
 2428 073f 25       		.byte	0x25
 2429 0740 12       		.uleb128 0x12
 2430 0741 D2220000 		.4byte	.LASF130
 2431 0745 26       		.byte	0x26
 2432 0746 12       		.uleb128 0x12
 2433 0747 BA030000 		.4byte	.LASF131
 2434 074b 27       		.byte	0x27
 2435 074c 12       		.uleb128 0x12
 2436 074d 551A0000 		.4byte	.LASF132
 2437 0751 28       		.byte	0x28
 2438 0752 12       		.uleb128 0x12
 2439 0753 491E0000 		.4byte	.LASF133
 2440 0757 29       		.byte	0x29
 2441 0758 12       		.uleb128 0x12
 2442 0759 6B040000 		.4byte	.LASF134
 2443 075d 2A       		.byte	0x2a
ARM GAS  C:\Users\haske\AppData\Local\Temp\ccFGJ08j.s 			page 59


 2444 075e 12       		.uleb128 0x12
 2445 075f 20090000 		.4byte	.LASF135
 2446 0763 2B       		.byte	0x2b
 2447 0764 12       		.uleb128 0x12
 2448 0765 A8050000 		.4byte	.LASF136
 2449 0769 2C       		.byte	0x2c
 2450 076a 12       		.uleb128 0x12
 2451 076b 1F180000 		.4byte	.LASF137
 2452 076f 30       		.byte	0x30
 2453 0770 12       		.uleb128 0x12
 2454 0771 ED050000 		.4byte	.LASF138
 2455 0775 31       		.byte	0x31
 2456 0776 12       		.uleb128 0x12
 2457 0777 2B030000 		.4byte	.LASF139
 2458 077b 32       		.byte	0x32
 2459 077c 12       		.uleb128 0x12
 2460 077d 0F190000 		.4byte	.LASF140
 2461 0781 33       		.byte	0x33
 2462 0782 12       		.uleb128 0x12
 2463 0783 451F0000 		.4byte	.LASF141
 2464 0787 34       		.byte	0x34
 2465 0788 12       		.uleb128 0x12
 2466 0789 750C0000 		.4byte	.LASF142
 2467 078d 35       		.byte	0x35
 2468 078e 12       		.uleb128 0x12
 2469 078f 19210000 		.4byte	.LASF143
 2470 0793 36       		.byte	0x36
 2471 0794 12       		.uleb128 0x12
 2472 0795 310A0000 		.4byte	.LASF144
 2473 0799 37       		.byte	0x37
 2474 079a 12       		.uleb128 0x12
 2475 079b 04230000 		.4byte	.LASF145
 2476 079f 38       		.byte	0x38
 2477 07a0 12       		.uleb128 0x12
 2478 07a1 28160000 		.4byte	.LASF146
 2479 07a5 40       		.byte	0x40
 2480 07a6 12       		.uleb128 0x12
 2481 07a7 221A0000 		.4byte	.LASF147
 2482 07ab 41       		.byte	0x41
 2483 07ac 12       		.uleb128 0x12
 2484 07ad 45110000 		.4byte	.LASF148
 2485 07b1 42       		.byte	0x42
 2486 07b2 12       		.uleb128 0x12
 2487 07b3 6B210000 		.4byte	.LASF149
 2488 07b7 43       		.byte	0x43
 2489 07b8 12       		.uleb128 0x12
 2490 07b9 96060000 		.4byte	.LASF150
 2491 07bd 44       		.byte	0x44
 2492 07be 12       		.uleb128 0x12
 2493 07bf 83040000 		.4byte	.LASF151
 2494 07c3 45       		.byte	0x45
 2495 07c4 12       		.uleb128 0x12
 2496 07c5 D90E0000 		.4byte	.LASF152
 2497 07c9 46       		.byte	0x46
 2498 07ca 12       		.uleb128 0x12
 2499 07cb 32080000 		.4byte	.LASF153
 2500 07cf 47       		.byte	0x47
ARM GAS  C:\Users\haske\AppData\Local\Temp\ccFGJ08j.s 			page 60


 2501 07d0 12       		.uleb128 0x12
 2502 07d1 D90A0000 		.4byte	.LASF154
 2503 07d5 48       		.byte	0x48
 2504 07d6 12       		.uleb128 0x12
 2505 07d7 5D1E0000 		.4byte	.LASF155
 2506 07db 49       		.byte	0x49
 2507 07dc 12       		.uleb128 0x12
 2508 07dd 780B0000 		.4byte	.LASF156
 2509 07e1 4A       		.byte	0x4a
 2510 07e2 12       		.uleb128 0x12
 2511 07e3 BC000000 		.4byte	.LASF157
 2512 07e7 4B       		.byte	0x4b
 2513 07e8 12       		.uleb128 0x12
 2514 07e9 8A1F0000 		.4byte	.LASF158
 2515 07ed 4C       		.byte	0x4c
 2516 07ee 12       		.uleb128 0x12
 2517 07ef F30F0000 		.4byte	.LASF159
 2518 07f3 4D       		.byte	0x4d
 2519 07f4 12       		.uleb128 0x12
 2520 07f5 6C0E0000 		.4byte	.LASF160
 2521 07f9 4E       		.byte	0x4e
 2522 07fa 12       		.uleb128 0x12
 2523 07fb 50080000 		.4byte	.LASF161
 2524 07ff 50       		.byte	0x50
 2525 0800 12       		.uleb128 0x12
 2526 0801 AA130000 		.4byte	.LASF162
 2527 0805 51       		.byte	0x51
 2528 0806 12       		.uleb128 0x12
 2529 0807 711D0000 		.4byte	.LASF163
 2530 080b 52       		.byte	0x52
 2531 080c 12       		.uleb128 0x12
 2532 080d 28010000 		.4byte	.LASF164
 2533 0811 53       		.byte	0x53
 2534 0812 12       		.uleb128 0x12
 2535 0813 8E1A0000 		.4byte	.LASF165
 2536 0817 54       		.byte	0x54
 2537 0818 12       		.uleb128 0x12
 2538 0819 12140000 		.4byte	.LASF166
 2539 081d 55       		.byte	0x55
 2540 081e 12       		.uleb128 0x12
 2541 081f 470F0000 		.4byte	.LASF167
 2542 0823 56       		.byte	0x56
 2543 0824 12       		.uleb128 0x12
 2544 0825 001B0000 		.4byte	.LASF168
 2545 0829 57       		.byte	0x57
 2546 082a 12       		.uleb128 0x12
 2547 082b 39230000 		.4byte	.LASF169
 2548 082f 58       		.byte	0x58
 2549 0830 12       		.uleb128 0x12
 2550 0831 E10C0000 		.4byte	.LASF170
 2551 0835 59       		.byte	0x59
 2552 0836 12       		.uleb128 0x12
 2553 0837 7A130000 		.4byte	.LASF171
 2554 083b 5A       		.byte	0x5a
 2555 083c 12       		.uleb128 0x12
 2556 083d 22120000 		.4byte	.LASF172
 2557 0841 5B       		.byte	0x5b
ARM GAS  C:\Users\haske\AppData\Local\Temp\ccFGJ08j.s 			page 61


 2558 0842 12       		.uleb128 0x12
 2559 0843 10000000 		.4byte	.LASF173
 2560 0847 60       		.byte	0x60
 2561 0848 12       		.uleb128 0x12
 2562 0849 2F130000 		.4byte	.LASF174
 2563 084d 61       		.byte	0x61
 2564 084e 12       		.uleb128 0x12
 2565 084f 09170000 		.4byte	.LASF175
 2566 0853 62       		.byte	0x62
 2567 0854 12       		.uleb128 0x12
 2568 0855 F0110000 		.4byte	.LASF176
 2569 0859 63       		.byte	0x63
 2570 085a 12       		.uleb128 0x12
 2571 085b 000E0000 		.4byte	.LASF177
 2572 085f 64       		.byte	0x64
 2573 0860 12       		.uleb128 0x12
 2574 0861 4C0C0000 		.4byte	.LASF178
 2575 0865 65       		.byte	0x65
 2576 0866 12       		.uleb128 0x12
 2577 0867 06050000 		.4byte	.LASF179
 2578 086b 66       		.byte	0x66
 2579 086c 12       		.uleb128 0x12
 2580 086d 040B0000 		.4byte	.LASF180
 2581 0871 67       		.byte	0x67
 2582 0872 12       		.uleb128 0x12
 2583 0873 A70B0000 		.4byte	.LASF181
 2584 0877 68       		.byte	0x68
 2585 0878 12       		.uleb128 0x12
 2586 0879 B0040000 		.4byte	.LASF182
 2587 087d 69       		.byte	0x69
 2588 087e 12       		.uleb128 0x12
 2589 087f F6080000 		.4byte	.LASF183
 2590 0883 6A       		.byte	0x6a
 2591 0884 12       		.uleb128 0x12
 2592 0885 0B090000 		.4byte	.LASF184
 2593 0889 6B       		.byte	0x6b
 2594 088a 12       		.uleb128 0x12
 2595 088b EA0E0000 		.4byte	.LASF185
 2596 088f 6C       		.byte	0x6c
 2597 0890 12       		.uleb128 0x12
 2598 0891 EB120000 		.4byte	.LASF186
 2599 0895 6D       		.byte	0x6d
 2600 0896 12       		.uleb128 0x12
 2601 0897 D9070000 		.4byte	.LASF187
 2602 089b 6E       		.byte	0x6e
 2603 089c 12       		.uleb128 0x12
 2604 089d F4070000 		.4byte	.LASF188
 2605 08a1 6F       		.byte	0x6f
 2606 08a2 12       		.uleb128 0x12
 2607 08a3 C8020000 		.4byte	.LASF189
 2608 08a7 6F       		.byte	0x6f
 2609 08a8 12       		.uleb128 0x12
 2610 08a9 E61D0000 		.4byte	.LASF190
 2611 08ad 70       		.byte	0x70
 2612 08ae 19       		.uleb128 0x19
 2613 08af 521B0000 		.4byte	.LASF191
 2614 08b3 FFFF     		.2byte	0xffff
ARM GAS  C:\Users\haske\AppData\Local\Temp\ccFGJ08j.s 			page 62


 2615 08b5 19       		.uleb128 0x19
 2616 08b6 F9140000 		.4byte	.LASF192
 2617 08ba FFFF     		.2byte	0xffff
 2618 08bc 00       		.byte	0
 2619 08bd 1A       		.uleb128 0x1a
 2620 08be D30B0000 		.4byte	.LASF193
 2621 08c2 0D       		.byte	0xd
 2622 08c3 1C01     		.2byte	0x11c
 2623 08c5 98060000 		.4byte	0x698
 2624 08c9 1B       		.uleb128 0x1b
 2625 08ca 08       		.byte	0x8
 2626 08cb 0D       		.byte	0xd
 2627 08cc 3601     		.2byte	0x136
 2628 08ce ED080000 		.4byte	0x8ed
 2629 08d2 1C       		.uleb128 0x1c
 2630 08d3 380B0000 		.4byte	.LASF194
 2631 08d7 0D       		.byte	0xd
 2632 08d8 3701     		.2byte	0x137
 2633 08da BD080000 		.4byte	0x8bd
 2634 08de 00       		.byte	0
 2635 08df 1C       		.uleb128 0x1c
 2636 08e0 4C090000 		.4byte	.LASF195
 2637 08e4 0D       		.byte	0xd
 2638 08e5 3801     		.2byte	0x138
 2639 08e7 8D060000 		.4byte	0x68d
 2640 08eb 04       		.byte	0x4
 2641 08ec 00       		.byte	0
 2642 08ed 1A       		.uleb128 0x1a
 2643 08ee 090D0000 		.4byte	.LASF196
 2644 08f2 0D       		.byte	0xd
 2645 08f3 3901     		.2byte	0x139
 2646 08f5 C9080000 		.4byte	0x8c9
 2647 08f9 1D       		.uleb128 0x1d
 2648 08fa 04       		.byte	0x4
 2649 08fb 0D       		.byte	0xd
 2650 08fc 4601     		.2byte	0x146
 2651 08fe 27090000 		.4byte	0x927
 2652 0902 1E       		.uleb128 0x1e
 2653 0903 A31A0000 		.4byte	.LASF197
 2654 0907 0D       		.byte	0xd
 2655 0908 4701     		.2byte	0x147
 2656 090a 8D060000 		.4byte	0x68d
 2657 090e 1E       		.uleb128 0x1e
 2658 090f FF0B0000 		.4byte	.LASF198
 2659 0913 0D       		.byte	0xd
 2660 0914 4801     		.2byte	0x148
 2661 0916 27090000 		.4byte	0x927
 2662 091a 1E       		.uleb128 0x1e
 2663 091b 3D0B0000 		.4byte	.LASF199
 2664 091f 0D       		.byte	0xd
 2665 0920 4901     		.2byte	0x149
 2666 0922 2D090000 		.4byte	0x92d
 2667 0926 00       		.byte	0
 2668 0927 06       		.uleb128 0x6
 2669 0928 04       		.byte	0x4
 2670 0929 E1000000 		.4byte	0xe1
 2671 092d 06       		.uleb128 0x6
ARM GAS  C:\Users\haske\AppData\Local\Temp\ccFGJ08j.s 			page 63


 2672 092e 04       		.byte	0x4
 2673 092f 33090000 		.4byte	0x933
 2674 0933 0E       		.uleb128 0xe
 2675 0934 ED080000 		.4byte	0x8ed
 2676 0938 1B       		.uleb128 0x1b
 2677 0939 08       		.byte	0x8
 2678 093a 0D       		.byte	0xd
 2679 093b 3E01     		.2byte	0x13e
 2680 093d 76090000 		.4byte	0x976
 2681 0941 1F       		.uleb128 0x1f
 2682 0942 765F7000 		.ascii	"v_p\000"
 2683 0946 0D       		.byte	0xd
 2684 0947 4A01     		.2byte	0x14a
 2685 0949 F9080000 		.4byte	0x8f9
 2686 094d 00       		.byte	0
 2687 094e 1C       		.uleb128 0x1c
 2688 094f BD1E0000 		.4byte	.LASF200
 2689 0953 0D       		.byte	0xd
 2690 0954 4C01     		.2byte	0x14c
 2691 0956 F7000000 		.4byte	0xf7
 2692 095a 04       		.byte	0x4
 2693 095b 1C       		.uleb128 0x1c
 2694 095c 5D010000 		.4byte	.LASF201
 2695 0960 0D       		.byte	0xd
 2696 0961 4D01     		.2byte	0x14d
 2697 0963 E1000000 		.4byte	0xe1
 2698 0967 06       		.byte	0x6
 2699 0968 1C       		.uleb128 0x1c
 2700 0969 00000000 		.4byte	.LASF202
 2701 096d 0D       		.byte	0xd
 2702 096e 4E01     		.2byte	0x14e
 2703 0970 E1000000 		.4byte	0xe1
 2704 0974 07       		.byte	0x7
 2705 0975 00       		.byte	0
 2706 0976 1A       		.uleb128 0x1a
 2707 0977 7E0E0000 		.4byte	.LASF203
 2708 097b 0D       		.byte	0xd
 2709 097c 4F01     		.2byte	0x14f
 2710 097e 38090000 		.4byte	0x938
 2711 0982 02       		.uleb128 0x2
 2712 0983 3B0F0000 		.4byte	.LASF204
 2713 0987 0E       		.byte	0xe
 2714 0988 69       		.byte	0x69
 2715 0989 E1000000 		.4byte	0xe1
 2716 098d 06       		.uleb128 0x6
 2717 098e 04       		.byte	0x4
 2718 098f 93090000 		.4byte	0x993
 2719 0993 0D       		.uleb128 0xd
 2720 0994 131C0000 		.4byte	.LASF205
 2721 0998 24       		.byte	0x24
 2722 0999 0F       		.byte	0xf
 2723 099a AE       		.byte	0xae
 2724 099b 5A0A0000 		.4byte	0xa5a
 2725 099f 0A       		.uleb128 0xa
 2726 09a0 36140000 		.4byte	.LASF206
 2727 09a4 0F       		.byte	0xf
 2728 09a5 AF       		.byte	0xaf
ARM GAS  C:\Users\haske\AppData\Local\Temp\ccFGJ08j.s 			page 64


 2729 09a6 BD1F0000 		.4byte	0x1fbd
 2730 09aa 00       		.byte	0
 2731 09ab 0A       		.uleb128 0xa
 2732 09ac 3E0D0000 		.4byte	.LASF207
 2733 09b0 0F       		.byte	0xf
 2734 09b1 B0       		.byte	0xb0
 2735 09b2 8D090000 		.4byte	0x98d
 2736 09b6 04       		.byte	0x4
 2737 09b7 0A       		.uleb128 0xa
 2738 09b8 270A0000 		.4byte	.LASF208
 2739 09bc 0F       		.byte	0xf
 2740 09bd B1       		.byte	0xb1
 2741 09be C81F0000 		.4byte	0x1fc8
 2742 09c2 08       		.byte	0x8
 2743 09c3 0A       		.uleb128 0xa
 2744 09c4 A70E0000 		.4byte	.LASF209
 2745 09c8 0F       		.byte	0xf
 2746 09c9 B2       		.byte	0xb2
 2747 09ca CE1F0000 		.4byte	0x1fce
 2748 09ce 0C       		.byte	0xc
 2749 09cf 0A       		.uleb128 0xa
 2750 09d0 30210000 		.4byte	.LASF45
 2751 09d4 0F       		.byte	0xf
 2752 09d5 B4       		.byte	0xb4
 2753 09d6 C6000000 		.4byte	0xc6
 2754 09da 10       		.byte	0x10
 2755 09db 0A       		.uleb128 0xa
 2756 09dc C51D0000 		.4byte	.LASF210
 2757 09e0 0F       		.byte	0xf
 2758 09e1 B6       		.byte	0xb6
 2759 09e2 8B010000 		.4byte	0x18b
 2760 09e6 14       		.byte	0x14
 2761 09e7 0A       		.uleb128 0xa
 2762 09e8 52090000 		.4byte	.LASF211
 2763 09ec 0F       		.byte	0xf
 2764 09ed B7       		.byte	0xb7
 2765 09ee 551B0000 		.4byte	0x1b55
 2766 09f2 1C       		.byte	0x1c
 2767 09f3 0A       		.uleb128 0xa
 2768 09f4 41020000 		.4byte	.LASF212
 2769 09f8 0F       		.byte	0xf
 2770 09f9 B8       		.byte	0xb8
 2771 09fa 4A1B0000 		.4byte	0x1b4a
 2772 09fe 20       		.byte	0x20
 2773 09ff 0C       		.uleb128 0xc
 2774 0a00 B6060000 		.4byte	.LASF213
 2775 0a04 0F       		.byte	0xf
 2776 0a05 B9       		.byte	0xb9
 2777 0a06 F7000000 		.4byte	0xf7
 2778 0a0a 02       		.byte	0x2
 2779 0a0b 01       		.byte	0x1
 2780 0a0c 0F       		.byte	0xf
 2781 0a0d 22       		.byte	0x22
 2782 0a0e 0C       		.uleb128 0xc
 2783 0a0f 37040000 		.4byte	.LASF214
 2784 0a13 0F       		.byte	0xf
 2785 0a14 BA       		.byte	0xba
ARM GAS  C:\Users\haske\AppData\Local\Temp\ccFGJ08j.s 			page 65


 2786 0a15 F7000000 		.4byte	0xf7
 2787 0a19 02       		.byte	0x2
 2788 0a1a 01       		.byte	0x1
 2789 0a1b 0E       		.byte	0xe
 2790 0a1c 22       		.byte	0x22
 2791 0a1d 0C       		.uleb128 0xc
 2792 0a1e DC130000 		.4byte	.LASF215
 2793 0a22 0F       		.byte	0xf
 2794 0a23 BB       		.byte	0xbb
 2795 0a24 F7000000 		.4byte	0xf7
 2796 0a28 02       		.byte	0x2
 2797 0a29 01       		.byte	0x1
 2798 0a2a 0D       		.byte	0xd
 2799 0a2b 22       		.byte	0x22
 2800 0a2c 0C       		.uleb128 0xc
 2801 0a2d AC060000 		.4byte	.LASF216
 2802 0a31 0F       		.byte	0xf
 2803 0a32 BC       		.byte	0xbc
 2804 0a33 F7000000 		.4byte	0xf7
 2805 0a37 02       		.byte	0x2
 2806 0a38 06       		.byte	0x6
 2807 0a39 07       		.byte	0x7
 2808 0a3a 22       		.byte	0x22
 2809 0a3b 0C       		.uleb128 0xc
 2810 0a3c B0080000 		.4byte	.LASF217
 2811 0a40 0F       		.byte	0xf
 2812 0a41 BD       		.byte	0xbd
 2813 0a42 F7000000 		.4byte	0xf7
 2814 0a46 02       		.byte	0x2
 2815 0a47 01       		.byte	0x1
 2816 0a48 06       		.byte	0x6
 2817 0a49 22       		.byte	0x22
 2818 0a4a 0C       		.uleb128 0xc
 2819 0a4b F6030000 		.4byte	.LASF218
 2820 0a4f 0F       		.byte	0xf
 2821 0a50 BE       		.byte	0xbe
 2822 0a51 F7000000 		.4byte	0xf7
 2823 0a55 02       		.byte	0x2
 2824 0a56 01       		.byte	0x1
 2825 0a57 05       		.byte	0x5
 2826 0a58 22       		.byte	0x22
 2827 0a59 00       		.byte	0
 2828 0a5a 06       		.uleb128 0x6
 2829 0a5b 04       		.byte	0x4
 2830 0a5c 92030000 		.4byte	0x392
 2831 0a60 08       		.uleb128 0x8
 2832 0a61 38       		.byte	0x38
 2833 0a62 10       		.byte	0x10
 2834 0a63 20       		.byte	0x20
 2835 0a64 A70B0000 		.4byte	0xba7
 2836 0a68 0A       		.uleb128 0xa
 2837 0a69 9D010000 		.4byte	.LASF219
 2838 0a6d 10       		.byte	0x10
 2839 0a6e 21       		.byte	0x21
 2840 0a6f 23010000 		.4byte	0x123
 2841 0a73 00       		.byte	0
 2842 0a74 0A       		.uleb128 0xa
ARM GAS  C:\Users\haske\AppData\Local\Temp\ccFGJ08j.s 			page 66


 2843 0a75 FF030000 		.4byte	.LASF220
 2844 0a79 10       		.byte	0x10
 2845 0a7a 22       		.byte	0x22
 2846 0a7b A6050000 		.4byte	0x5a6
 2847 0a7f 02       		.byte	0x2
 2848 0a80 0A       		.uleb128 0xa
 2849 0a81 52050000 		.4byte	.LASF221
 2850 0a85 10       		.byte	0x10
 2851 0a86 25       		.byte	0x25
 2852 0a87 9D030000 		.4byte	0x39d
 2853 0a8b 03       		.byte	0x3
 2854 0a8c 0A       		.uleb128 0xa
 2855 0a8d A4010000 		.4byte	.LASF222
 2856 0a91 10       		.byte	0x10
 2857 0a92 26       		.byte	0x26
 2858 0a93 92030000 		.4byte	0x392
 2859 0a97 04       		.byte	0x4
 2860 0a98 0A       		.uleb128 0xa
 2861 0a99 2D1F0000 		.4byte	.LASF223
 2862 0a9d 10       		.byte	0x10
 2863 0a9e 27       		.byte	0x27
 2864 0a9f 58060000 		.4byte	0x658
 2865 0aa3 06       		.byte	0x6
 2866 0aa4 0A       		.uleb128 0xa
 2867 0aa5 20030000 		.4byte	.LASF224
 2868 0aa9 10       		.byte	0x10
 2869 0aaa 2A       		.byte	0x2a
 2870 0aab CF000000 		.4byte	0xcf
 2871 0aaf 10       		.byte	0x10
 2872 0ab0 0A       		.uleb128 0xa
 2873 0ab1 7A220000 		.4byte	.LASF225
 2874 0ab5 10       		.byte	0x10
 2875 0ab6 2B       		.byte	0x2b
 2876 0ab7 CF000000 		.4byte	0xcf
 2877 0abb 14       		.byte	0x14
 2878 0abc 0A       		.uleb128 0xa
 2879 0abd AE1C0000 		.4byte	.LASF226
 2880 0ac1 10       		.byte	0x10
 2881 0ac2 2C       		.byte	0x2c
 2882 0ac3 92030000 		.4byte	0x392
 2883 0ac7 18       		.byte	0x18
 2884 0ac8 0A       		.uleb128 0xa
 2885 0ac9 47070000 		.4byte	.LASF227
 2886 0acd 10       		.byte	0x10
 2887 0ace 2D       		.byte	0x2d
 2888 0acf 9D030000 		.4byte	0x39d
 2889 0ad3 1A       		.byte	0x1a
 2890 0ad4 0A       		.uleb128 0xa
 2891 0ad5 A8170000 		.4byte	.LASF228
 2892 0ad9 10       		.byte	0x10
 2893 0ada 2E       		.byte	0x2e
 2894 0adb 9D030000 		.4byte	0x39d
 2895 0adf 1B       		.byte	0x1b
 2896 0ae0 0A       		.uleb128 0xa
 2897 0ae1 FC060000 		.4byte	.LASF229
 2898 0ae5 10       		.byte	0x10
 2899 0ae6 2F       		.byte	0x2f
ARM GAS  C:\Users\haske\AppData\Local\Temp\ccFGJ08j.s 			page 67


 2900 0ae7 E1000000 		.4byte	0xe1
 2901 0aeb 1C       		.byte	0x1c
 2902 0aec 0A       		.uleb128 0xa
 2903 0aed F70A0000 		.4byte	.LASF230
 2904 0af1 10       		.byte	0x10
 2905 0af2 32       		.byte	0x32
 2906 0af3 92030000 		.4byte	0x392
 2907 0af7 1E       		.byte	0x1e
 2908 0af8 0A       		.uleb128 0xa
 2909 0af9 DD190000 		.4byte	.LASF231
 2910 0afd 10       		.byte	0x10
 2911 0afe 33       		.byte	0x33
 2912 0aff 23010000 		.4byte	0x123
 2913 0b03 20       		.byte	0x20
 2914 0b04 0A       		.uleb128 0xa
 2915 0b05 ED1E0000 		.4byte	.LASF232
 2916 0b09 10       		.byte	0x10
 2917 0b0a 34       		.byte	0x34
 2918 0b0b 9D030000 		.4byte	0x39d
 2919 0b0f 22       		.byte	0x22
 2920 0b10 0C       		.uleb128 0xc
 2921 0b11 590B0000 		.4byte	.LASF233
 2922 0b15 10       		.byte	0x10
 2923 0b16 35       		.byte	0x35
 2924 0b17 E1000000 		.4byte	0xe1
 2925 0b1b 01       		.byte	0x1
 2926 0b1c 01       		.byte	0x1
 2927 0b1d 07       		.byte	0x7
 2928 0b1e 23       		.byte	0x23
 2929 0b1f 0C       		.uleb128 0xc
 2930 0b20 E0030000 		.4byte	.LASF234
 2931 0b24 10       		.byte	0x10
 2932 0b25 36       		.byte	0x36
 2933 0b26 BC050000 		.4byte	0x5bc
 2934 0b2a 01       		.byte	0x1
 2935 0b2b 05       		.byte	0x5
 2936 0b2c 02       		.byte	0x2
 2937 0b2d 23       		.byte	0x23
 2938 0b2e 0A       		.uleb128 0xa
 2939 0b2f 88060000 		.4byte	.LASF235
 2940 0b33 10       		.byte	0x10
 2941 0b34 39       		.byte	0x39
 2942 0b35 92030000 		.4byte	0x392
 2943 0b39 24       		.byte	0x24
 2944 0b3a 0A       		.uleb128 0xa
 2945 0b3b 1A160000 		.4byte	.LASF236
 2946 0b3f 10       		.byte	0x10
 2947 0b40 3A       		.byte	0x3a
 2948 0b41 23010000 		.4byte	0x123
 2949 0b45 26       		.byte	0x26
 2950 0b46 0A       		.uleb128 0xa
 2951 0b47 9C0A0000 		.4byte	.LASF237
 2952 0b4b 10       		.byte	0x10
 2953 0b4c 3B       		.byte	0x3b
 2954 0b4d 23010000 		.4byte	0x123
 2955 0b51 28       		.byte	0x28
 2956 0b52 0A       		.uleb128 0xa
ARM GAS  C:\Users\haske\AppData\Local\Temp\ccFGJ08j.s 			page 68


 2957 0b53 66150000 		.4byte	.LASF238
 2958 0b57 10       		.byte	0x10
 2959 0b58 3C       		.byte	0x3c
 2960 0b59 9D030000 		.4byte	0x39d
 2961 0b5d 2A       		.byte	0x2a
 2962 0b5e 0A       		.uleb128 0xa
 2963 0b5f AC120000 		.4byte	.LASF239
 2964 0b63 10       		.byte	0x10
 2965 0b64 3F       		.byte	0x3f
 2966 0b65 92030000 		.4byte	0x392
 2967 0b69 2C       		.byte	0x2c
 2968 0b6a 0A       		.uleb128 0xa
 2969 0b6b 63200000 		.4byte	.LASF240
 2970 0b6f 10       		.byte	0x10
 2971 0b70 40       		.byte	0x40
 2972 0b71 23010000 		.4byte	0x123
 2973 0b75 2E       		.byte	0x2e
 2974 0b76 0A       		.uleb128 0xa
 2975 0b77 9A0B0000 		.4byte	.LASF241
 2976 0b7b 10       		.byte	0x10
 2977 0b7c 41       		.byte	0x41
 2978 0b7d 23010000 		.4byte	0x123
 2979 0b81 30       		.byte	0x30
 2980 0b82 0A       		.uleb128 0xa
 2981 0b83 8D220000 		.4byte	.LASF242
 2982 0b87 10       		.byte	0x10
 2983 0b88 42       		.byte	0x42
 2984 0b89 23010000 		.4byte	0x123
 2985 0b8d 32       		.byte	0x32
 2986 0b8e 0A       		.uleb128 0xa
 2987 0b8f F20D0000 		.4byte	.LASF243
 2988 0b93 10       		.byte	0x10
 2989 0b94 43       		.byte	0x43
 2990 0b95 23010000 		.4byte	0x123
 2991 0b99 34       		.byte	0x34
 2992 0b9a 0A       		.uleb128 0xa
 2993 0b9b 661D0000 		.4byte	.LASF244
 2994 0b9f 10       		.byte	0x10
 2995 0ba0 44       		.byte	0x44
 2996 0ba1 9D030000 		.4byte	0x39d
 2997 0ba5 36       		.byte	0x36
 2998 0ba6 00       		.byte	0
 2999 0ba7 02       		.uleb128 0x2
 3000 0ba8 48190000 		.4byte	.LASF245
 3001 0bac 10       		.byte	0x10
 3002 0bad 45       		.byte	0x45
 3003 0bae 600A0000 		.4byte	0xa60
 3004 0bb2 08       		.uleb128 0x8
 3005 0bb3 20       		.byte	0x20
 3006 0bb4 11       		.byte	0x11
 3007 0bb5 1E       		.byte	0x1e
 3008 0bb6 810C0000 		.4byte	0xc81
 3009 0bba 0A       		.uleb128 0xa
 3010 0bbb 1D1C0000 		.4byte	.LASF246
 3011 0bbf 11       		.byte	0x11
 3012 0bc0 1F       		.byte	0x1f
 3013 0bc1 810C0000 		.4byte	0xc81
ARM GAS  C:\Users\haske\AppData\Local\Temp\ccFGJ08j.s 			page 69


 3014 0bc5 00       		.byte	0
 3015 0bc6 0A       		.uleb128 0xa
 3016 0bc7 FC1F0000 		.4byte	.LASF247
 3017 0bcb 11       		.byte	0x11
 3018 0bcc 20       		.byte	0x20
 3019 0bcd 0D010000 		.4byte	0x10d
 3020 0bd1 04       		.byte	0x4
 3021 0bd2 0A       		.uleb128 0xa
 3022 0bd3 F1140000 		.4byte	.LASF248
 3023 0bd7 11       		.byte	0x11
 3024 0bd8 21       		.byte	0x21
 3025 0bd9 0D010000 		.4byte	0x10d
 3026 0bdd 08       		.byte	0x8
 3027 0bde 0A       		.uleb128 0xa
 3028 0bdf 7D1B0000 		.4byte	.LASF96
 3029 0be3 11       		.byte	0x11
 3030 0be4 22       		.byte	0x22
 3031 0be5 92030000 		.4byte	0x392
 3032 0be9 0C       		.byte	0xc
 3033 0bea 0A       		.uleb128 0xa
 3034 0beb 70220000 		.4byte	.LASF249
 3035 0bef 11       		.byte	0x11
 3036 0bf0 23       		.byte	0x23
 3037 0bf1 92030000 		.4byte	0x392
 3038 0bf5 0E       		.byte	0xe
 3039 0bf6 0A       		.uleb128 0xa
 3040 0bf7 83050000 		.4byte	.LASF250
 3041 0bfb 11       		.byte	0x11
 3042 0bfc 24       		.byte	0x24
 3043 0bfd 92030000 		.4byte	0x392
 3044 0c01 10       		.byte	0x10
 3045 0c02 0A       		.uleb128 0xa
 3046 0c03 A51B0000 		.4byte	.LASF251
 3047 0c07 11       		.byte	0x11
 3048 0c08 25       		.byte	0x25
 3049 0c09 23010000 		.4byte	0x123
 3050 0c0d 12       		.byte	0x12
 3051 0c0e 0A       		.uleb128 0xa
 3052 0c0f 221C0000 		.4byte	.LASF252
 3053 0c13 11       		.byte	0x11
 3054 0c14 26       		.byte	0x26
 3055 0c15 23010000 		.4byte	0x123
 3056 0c19 14       		.byte	0x14
 3057 0c1a 0A       		.uleb128 0xa
 3058 0c1b 63080000 		.4byte	.LASF34
 3059 0c1f 11       		.byte	0x11
 3060 0c20 27       		.byte	0x27
 3061 0c21 23010000 		.4byte	0x123
 3062 0c25 16       		.byte	0x16
 3063 0c26 0A       		.uleb128 0xa
 3064 0c27 69080000 		.4byte	.LASF35
 3065 0c2b 11       		.byte	0x11
 3066 0c2c 28       		.byte	0x28
 3067 0c2d 23010000 		.4byte	0x123
 3068 0c31 18       		.byte	0x18
 3069 0c32 09       		.uleb128 0x9
 3070 0c33 6F706100 		.ascii	"opa\000"
ARM GAS  C:\Users\haske\AppData\Local\Temp\ccFGJ08j.s 			page 70


 3071 0c37 11       		.byte	0x11
 3072 0c38 29       		.byte	0x29
 3073 0c39 9D030000 		.4byte	0x39d
 3074 0c3d 1A       		.byte	0x1a
 3075 0c3e 0A       		.uleb128 0xa
 3076 0c3f C1010000 		.4byte	.LASF253
 3077 0c43 11       		.byte	0x11
 3078 0c44 2A       		.byte	0x2a
 3079 0c45 9B050000 		.4byte	0x59b
 3080 0c49 1B       		.byte	0x1b
 3081 0c4a 0A       		.uleb128 0xa
 3082 0c4b A4130000 		.4byte	.LASF254
 3083 0c4f 11       		.byte	0x11
 3084 0c50 2B       		.byte	0x2b
 3085 0c51 90050000 		.4byte	0x590
 3086 0c55 1C       		.byte	0x1c
 3087 0c56 0A       		.uleb128 0xa
 3088 0c57 2A150000 		.4byte	.LASF255
 3089 0c5b 11       		.byte	0x11
 3090 0c5c 2C       		.byte	0x2c
 3091 0c5d 85050000 		.4byte	0x585
 3092 0c61 1D       		.byte	0x1d
 3093 0c62 0C       		.uleb128 0xc
 3094 0c63 D31A0000 		.4byte	.LASF256
 3095 0c67 11       		.byte	0x11
 3096 0c68 2D       		.byte	0x2d
 3097 0c69 B1050000 		.4byte	0x5b1
 3098 0c6d 01       		.byte	0x1
 3099 0c6e 03       		.byte	0x3
 3100 0c6f 05       		.byte	0x5
 3101 0c70 1E       		.byte	0x1e
 3102 0c71 0C       		.uleb128 0xc
 3103 0c72 FF030000 		.4byte	.LASF220
 3104 0c76 11       		.byte	0x11
 3105 0c77 2E       		.byte	0x2e
 3106 0c78 A6050000 		.4byte	0x5a6
 3107 0c7c 01       		.byte	0x1
 3108 0c7d 03       		.byte	0x3
 3109 0c7e 02       		.byte	0x2
 3110 0c7f 1E       		.byte	0x1e
 3111 0c80 00       		.byte	0
 3112 0c81 06       		.uleb128 0x6
 3113 0c82 04       		.byte	0x4
 3114 0c83 870C0000 		.4byte	0xc87
 3115 0c87 0E       		.uleb128 0xe
 3116 0c88 04030000 		.4byte	0x304
 3117 0c8c 02       		.uleb128 0x2
 3118 0c8d 64050000 		.4byte	.LASF257
 3119 0c91 11       		.byte	0x11
 3120 0c92 2F       		.byte	0x2f
 3121 0c93 B20B0000 		.4byte	0xbb2
 3122 0c97 08       		.uleb128 0x8
 3123 0c98 18       		.byte	0x18
 3124 0c99 12       		.byte	0x12
 3125 0c9a 20       		.byte	0x20
 3126 0c9b 120D0000 		.4byte	0xd12
 3127 0c9f 0A       		.uleb128 0xa
ARM GAS  C:\Users\haske\AppData\Local\Temp\ccFGJ08j.s 			page 71


 3128 0ca0 1F110000 		.4byte	.LASF258
 3129 0ca4 12       		.byte	0x12
 3130 0ca5 22       		.byte	0x22
 3131 0ca6 EC000000 		.4byte	0xec
 3132 0caa 00       		.byte	0
 3133 0cab 0A       		.uleb128 0xa
 3134 0cac 64020000 		.4byte	.LASF259
 3135 0cb0 12       		.byte	0x12
 3136 0cb1 23       		.byte	0x23
 3137 0cb2 F7000000 		.4byte	0xf7
 3138 0cb6 02       		.byte	0x2
 3139 0cb7 0A       		.uleb128 0xa
 3140 0cb8 881A0000 		.4byte	.LASF260
 3141 0cbc 12       		.byte	0x12
 3142 0cbd 24       		.byte	0x24
 3143 0cbe 4B010000 		.4byte	0x14b
 3144 0cc2 04       		.byte	0x4
 3145 0cc3 0A       		.uleb128 0xa
 3146 0cc4 F8100000 		.4byte	.LASF261
 3147 0cc8 12       		.byte	0x12
 3148 0cc9 26       		.byte	0x26
 3149 0cca 92030000 		.4byte	0x392
 3150 0cce 08       		.byte	0x8
 3151 0ccf 0A       		.uleb128 0xa
 3152 0cd0 C1150000 		.4byte	.LASF262
 3153 0cd4 12       		.byte	0x12
 3154 0cd5 27       		.byte	0x27
 3155 0cd6 9D030000 		.4byte	0x39d
 3156 0cda 0A       		.byte	0xa
 3157 0cdb 09       		.uleb128 0x9
 3158 0cdc 6F706100 		.ascii	"opa\000"
 3159 0ce0 12       		.byte	0x12
 3160 0ce1 29       		.byte	0x29
 3161 0ce2 9D030000 		.4byte	0x39d
 3162 0ce6 0B       		.byte	0xb
 3163 0ce7 0C       		.uleb128 0xc
 3164 0ce8 FF030000 		.4byte	.LASF220
 3165 0cec 12       		.byte	0x12
 3166 0ced 2A       		.byte	0x2a
 3167 0cee A6050000 		.4byte	0x5a6
 3168 0cf2 01       		.byte	0x1
 3169 0cf3 04       		.byte	0x4
 3170 0cf4 04       		.byte	0x4
 3171 0cf5 0C       		.byte	0xc
 3172 0cf6 0A       		.uleb128 0xa
 3173 0cf7 B8150000 		.4byte	.LASF263
 3174 0cfb 12       		.byte	0x12
 3175 0cfc 2C       		.byte	0x2c
 3176 0cfd 02010000 		.4byte	0x102
 3177 0d01 10       		.byte	0x10
 3178 0d02 0C       		.uleb128 0xc
 3179 0d03 77160000 		.4byte	.LASF264
 3180 0d07 12       		.byte	0x12
 3181 0d08 2D       		.byte	0x2d
 3182 0d09 E1000000 		.4byte	0xe1
 3183 0d0d 01       		.byte	0x1
 3184 0d0e 01       		.byte	0x1
ARM GAS  C:\Users\haske\AppData\Local\Temp\ccFGJ08j.s 			page 72


 3185 0d0f 07       		.byte	0x7
 3186 0d10 14       		.byte	0x14
 3187 0d11 00       		.byte	0
 3188 0d12 02       		.uleb128 0x2
 3189 0d13 73090000 		.4byte	.LASF265
 3190 0d17 12       		.byte	0x12
 3191 0d18 2E       		.byte	0x2e
 3192 0d19 970C0000 		.4byte	0xc97
 3193 0d1d 08       		.uleb128 0x8
 3194 0d1e 0A       		.byte	0xa
 3195 0d1f 13       		.byte	0x13
 3196 0d20 1C       		.byte	0x1c
 3197 0d21 9E0D0000 		.4byte	0xd9e
 3198 0d25 0A       		.uleb128 0xa
 3199 0d26 7D1B0000 		.4byte	.LASF96
 3200 0d2a 13       		.byte	0x13
 3201 0d2b 1D       		.byte	0x1d
 3202 0d2c 92030000 		.4byte	0x392
 3203 0d30 00       		.byte	0
 3204 0d31 0A       		.uleb128 0xa
 3205 0d32 C1120000 		.4byte	.LASF266
 3206 0d36 13       		.byte	0x13
 3207 0d37 1E       		.byte	0x1e
 3208 0d38 23010000 		.4byte	0x123
 3209 0d3c 02       		.byte	0x2
 3210 0d3d 0A       		.uleb128 0xa
 3211 0d3e 930F0000 		.4byte	.LASF267
 3212 0d42 13       		.byte	0x13
 3213 0d43 1F       		.byte	0x1f
 3214 0d44 23010000 		.4byte	0x123
 3215 0d48 04       		.byte	0x4
 3216 0d49 0A       		.uleb128 0xa
 3217 0d4a DC090000 		.4byte	.LASF268
 3218 0d4e 13       		.byte	0x13
 3219 0d4f 20       		.byte	0x20
 3220 0d50 23010000 		.4byte	0x123
 3221 0d54 06       		.byte	0x6
 3222 0d55 09       		.uleb128 0x9
 3223 0d56 6F706100 		.ascii	"opa\000"
 3224 0d5a 13       		.byte	0x13
 3225 0d5b 21       		.byte	0x21
 3226 0d5c 9D030000 		.4byte	0x39d
 3227 0d60 08       		.byte	0x8
 3228 0d61 0C       		.uleb128 0xc
 3229 0d62 FF030000 		.4byte	.LASF220
 3230 0d66 13       		.byte	0x13
 3231 0d67 22       		.byte	0x22
 3232 0d68 A6050000 		.4byte	0x5a6
 3233 0d6c 01       		.byte	0x1
 3234 0d6d 02       		.byte	0x2
 3235 0d6e 06       		.byte	0x6
 3236 0d6f 09       		.byte	0x9
 3237 0d70 0C       		.uleb128 0xc
 3238 0d71 E30B0000 		.4byte	.LASF269
 3239 0d75 13       		.byte	0x13
 3240 0d76 23       		.byte	0x23
 3241 0d77 E1000000 		.4byte	0xe1
ARM GAS  C:\Users\haske\AppData\Local\Temp\ccFGJ08j.s 			page 73


 3242 0d7b 01       		.byte	0x1
 3243 0d7c 01       		.byte	0x1
 3244 0d7d 05       		.byte	0x5
 3245 0d7e 09       		.byte	0x9
 3246 0d7f 0C       		.uleb128 0xc
 3247 0d80 520D0000 		.4byte	.LASF270
 3248 0d84 13       		.byte	0x13
 3249 0d85 24       		.byte	0x24
 3250 0d86 E1000000 		.4byte	0xe1
 3251 0d8a 01       		.byte	0x1
 3252 0d8b 01       		.byte	0x1
 3253 0d8c 04       		.byte	0x4
 3254 0d8d 09       		.byte	0x9
 3255 0d8e 0C       		.uleb128 0xc
 3256 0d8f 39010000 		.4byte	.LASF271
 3257 0d93 13       		.byte	0x13
 3258 0d94 25       		.byte	0x25
 3259 0d95 E1000000 		.4byte	0xe1
 3260 0d99 01       		.byte	0x1
 3261 0d9a 01       		.byte	0x1
 3262 0d9b 03       		.byte	0x3
 3263 0d9c 09       		.byte	0x9
 3264 0d9d 00       		.byte	0
 3265 0d9e 02       		.uleb128 0x2
 3266 0d9f C6070000 		.4byte	.LASF272
 3267 0da3 13       		.byte	0x13
 3268 0da4 26       		.byte	0x26
 3269 0da5 1D0D0000 		.4byte	0xd1d
 3270 0da9 08       		.uleb128 0x8
 3271 0daa 10       		.byte	0x10
 3272 0dab 14       		.byte	0x14
 3273 0dac 1C       		.byte	0x1c
 3274 0dad 180E0000 		.4byte	0xe18
 3275 0db1 0A       		.uleb128 0xa
 3276 0db2 7D1B0000 		.4byte	.LASF96
 3277 0db6 14       		.byte	0x14
 3278 0db7 1D       		.byte	0x1d
 3279 0db8 92030000 		.4byte	0x392
 3280 0dbc 00       		.byte	0
 3281 0dbd 0A       		.uleb128 0xa
 3282 0dbe C1120000 		.4byte	.LASF266
 3283 0dc2 14       		.byte	0x14
 3284 0dc3 1E       		.byte	0x1e
 3285 0dc4 23010000 		.4byte	0x123
 3286 0dc8 02       		.byte	0x2
 3287 0dc9 0A       		.uleb128 0xa
 3288 0dca 590F0000 		.4byte	.LASF273
 3289 0dce 14       		.byte	0x14
 3290 0dcf 1F       		.byte	0x1f
 3291 0dd0 F7000000 		.4byte	0xf7
 3292 0dd4 04       		.byte	0x4
 3293 0dd5 0A       		.uleb128 0xa
 3294 0dd6 38070000 		.4byte	.LASF274
 3295 0dda 14       		.byte	0x14
 3296 0ddb 20       		.byte	0x20
 3297 0ddc F7000000 		.4byte	0xf7
 3298 0de0 06       		.byte	0x6
ARM GAS  C:\Users\haske\AppData\Local\Temp\ccFGJ08j.s 			page 74


 3299 0de1 0A       		.uleb128 0xa
 3300 0de2 6F0D0000 		.4byte	.LASF275
 3301 0de6 14       		.byte	0x14
 3302 0de7 21       		.byte	0x21
 3303 0de8 CF000000 		.4byte	0xcf
 3304 0dec 08       		.byte	0x8
 3305 0ded 09       		.uleb128 0x9
 3306 0dee 6F706100 		.ascii	"opa\000"
 3307 0df2 14       		.byte	0x14
 3308 0df3 22       		.byte	0x22
 3309 0df4 9D030000 		.4byte	0x39d
 3310 0df8 0C       		.byte	0xc
 3311 0df9 0C       		.uleb128 0xc
 3312 0dfa FF030000 		.4byte	.LASF220
 3313 0dfe 14       		.byte	0x14
 3314 0dff 23       		.byte	0x23
 3315 0e00 A6050000 		.4byte	0x5a6
 3316 0e04 01       		.byte	0x1
 3317 0e05 02       		.byte	0x2
 3318 0e06 06       		.byte	0x6
 3319 0e07 0D       		.byte	0xd
 3320 0e08 0C       		.uleb128 0xc
 3321 0e09 C0020000 		.4byte	.LASF276
 3322 0e0d 14       		.byte	0x14
 3323 0e0e 24       		.byte	0x24
 3324 0e0f E1000000 		.4byte	0xe1
 3325 0e13 01       		.byte	0x1
 3326 0e14 01       		.byte	0x1
 3327 0e15 05       		.byte	0x5
 3328 0e16 0D       		.byte	0xd
 3329 0e17 00       		.byte	0
 3330 0e18 02       		.uleb128 0x2
 3331 0e19 631C0000 		.4byte	.LASF277
 3332 0e1d 14       		.byte	0x14
 3333 0e1e 25       		.byte	0x25
 3334 0e1f A90D0000 		.4byte	0xda9
 3335 0e23 06       		.uleb128 0x6
 3336 0e24 04       		.byte	0x4
 3337 0e25 9D030000 		.4byte	0x39d
 3338 0e29 11       		.uleb128 0x11
 3339 0e2a 01       		.byte	0x1
 3340 0e2b 69000000 		.4byte	0x69
 3341 0e2f 15       		.byte	0x15
 3342 0e30 1C       		.byte	0x1c
 3343 0e31 480E0000 		.4byte	0xe48
 3344 0e35 12       		.uleb128 0x12
 3345 0e36 17130000 		.4byte	.LASF278
 3346 0e3a 00       		.byte	0
 3347 0e3b 12       		.uleb128 0x12
 3348 0e3c FD010000 		.4byte	.LASF279
 3349 0e40 01       		.byte	0x1
 3350 0e41 12       		.uleb128 0x12
 3351 0e42 BB170000 		.4byte	.LASF280
 3352 0e46 02       		.byte	0x2
 3353 0e47 00       		.byte	0
 3354 0e48 02       		.uleb128 0x2
 3355 0e49 58090000 		.4byte	.LASF281
ARM GAS  C:\Users\haske\AppData\Local\Temp\ccFGJ08j.s 			page 75


 3356 0e4d 15       		.byte	0x15
 3357 0e4e 20       		.byte	0x20
 3358 0e4f 290E0000 		.4byte	0xe29
 3359 0e53 08       		.uleb128 0x8
 3360 0e54 10       		.byte	0x10
 3361 0e55 16       		.byte	0x16
 3362 0e56 33       		.byte	0x33
 3363 0e57 8C0E0000 		.4byte	0xe8c
 3364 0e5b 0A       		.uleb128 0xa
 3365 0e5c C2140000 		.4byte	.LASF282
 3366 0e60 16       		.byte	0x16
 3367 0e61 34       		.byte	0x34
 3368 0e62 8C0E0000 		.4byte	0xe8c
 3369 0e66 00       		.byte	0
 3370 0e67 0A       		.uleb128 0xa
 3371 0e68 DF100000 		.4byte	.LASF283
 3372 0e6c 16       		.byte	0x16
 3373 0e6d 35       		.byte	0x35
 3374 0e6e 970E0000 		.4byte	0xe97
 3375 0e72 04       		.byte	0x4
 3376 0e73 09       		.uleb128 0x9
 3377 0e74 62756600 		.ascii	"buf\000"
 3378 0e78 16       		.byte	0x16
 3379 0e79 36       		.byte	0x36
 3380 0e7a C6000000 		.4byte	0xc6
 3381 0e7e 08       		.byte	0x8
 3382 0e7f 0A       		.uleb128 0xa
 3383 0e80 B71D0000 		.4byte	.LASF284
 3384 0e84 16       		.byte	0x16
 3385 0e85 37       		.byte	0x37
 3386 0e86 CC020000 		.4byte	0x2cc
 3387 0e8a 0C       		.byte	0xc
 3388 0e8b 00       		.byte	0
 3389 0e8c 06       		.uleb128 0x6
 3390 0e8d 04       		.byte	0x4
 3391 0e8e 920E0000 		.4byte	0xe92
 3392 0e92 0E       		.uleb128 0xe
 3393 0e93 8B010000 		.4byte	0x18b
 3394 0e97 06       		.uleb128 0x6
 3395 0e98 04       		.byte	0x4
 3396 0e99 8B010000 		.4byte	0x18b
 3397 0e9d 0D       		.uleb128 0xd
 3398 0e9e 51150000 		.4byte	.LASF285
 3399 0ea2 28       		.byte	0x28
 3400 0ea3 16       		.byte	0x16
 3401 0ea4 2D       		.byte	0x2d
 3402 0ea5 F20E0000 		.4byte	0xef2
 3403 0ea9 0A       		.uleb128 0xa
 3404 0eaa 0E150000 		.4byte	.LASF286
 3405 0eae 16       		.byte	0x16
 3406 0eaf 2E       		.byte	0x2e
 3407 0eb0 8B010000 		.4byte	0x18b
 3408 0eb4 00       		.byte	0
 3409 0eb5 0A       		.uleb128 0xa
 3410 0eb6 47080000 		.4byte	.LASF287
 3411 0eba 16       		.byte	0x16
 3412 0ebb 2F       		.byte	0x2f
ARM GAS  C:\Users\haske\AppData\Local\Temp\ccFGJ08j.s 			page 76


 3413 0ebc 8B010000 		.4byte	0x18b
 3414 0ec0 08       		.byte	0x8
 3415 0ec1 0A       		.uleb128 0xa
 3416 0ec2 7C150000 		.4byte	.LASF288
 3417 0ec6 16       		.byte	0x16
 3418 0ec7 30       		.byte	0x30
 3419 0ec8 23010000 		.4byte	0x123
 3420 0ecc 10       		.byte	0x10
 3421 0ecd 0A       		.uleb128 0xa
 3422 0ece B2180000 		.4byte	.LASF289
 3423 0ed2 16       		.byte	0x16
 3424 0ed3 31       		.byte	0x31
 3425 0ed4 23010000 		.4byte	0x123
 3426 0ed8 12       		.byte	0x12
 3427 0ed9 09       		.uleb128 0x9
 3428 0eda 62756600 		.ascii	"buf\000"
 3429 0ede 16       		.byte	0x16
 3430 0edf 32       		.byte	0x32
 3431 0ee0 C6000000 		.4byte	0xc6
 3432 0ee4 14       		.byte	0x14
 3433 0ee5 0A       		.uleb128 0xa
 3434 0ee6 ED080000 		.4byte	.LASF290
 3435 0eea 16       		.byte	0x16
 3436 0eeb 38       		.byte	0x38
 3437 0eec 530E0000 		.4byte	0xe53
 3438 0ef0 18       		.byte	0x18
 3439 0ef1 00       		.byte	0
 3440 0ef2 02       		.uleb128 0x2
 3441 0ef3 691B0000 		.4byte	.LASF291
 3442 0ef7 16       		.byte	0x16
 3443 0ef8 39       		.byte	0x39
 3444 0ef9 9D0E0000 		.4byte	0xe9d
 3445 0efd 0D       		.uleb128 0xd
 3446 0efe E5020000 		.4byte	.LASF292
 3447 0f02 54       		.byte	0x54
 3448 0f03 16       		.byte	0x16
 3449 0f04 3B       		.byte	0x3b
 3450 0f05 06100000 		.4byte	0x1006
 3451 0f09 09       		.uleb128 0x9
 3452 0f0a 62756600 		.ascii	"buf\000"
 3453 0f0e 16       		.byte	0x16
 3454 0f0f 3F       		.byte	0x3f
 3455 0f10 C6000000 		.4byte	0xc6
 3456 0f14 00       		.byte	0
 3457 0f15 0A       		.uleb128 0xa
 3458 0f16 DF100000 		.4byte	.LASF283
 3459 0f1a 16       		.byte	0x16
 3460 0f1b 44       		.byte	0x44
 3461 0f1c 970E0000 		.4byte	0xe97
 3462 0f20 04       		.byte	0x4
 3463 0f21 0A       		.uleb128 0xa
 3464 0f22 C2140000 		.4byte	.LASF282
 3465 0f26 16       		.byte	0x16
 3466 0f27 49       		.byte	0x49
 3467 0f28 8C0E0000 		.4byte	0xe8c
 3468 0f2c 08       		.byte	0x8
 3469 0f2d 0A       		.uleb128 0xa
ARM GAS  C:\Users\haske\AppData\Local\Temp\ccFGJ08j.s 			page 77


 3470 0f2e A8020000 		.4byte	.LASF293
 3471 0f32 16       		.byte	0x16
 3472 0f33 4B       		.byte	0x4b
 3473 0f34 17100000 		.4byte	0x1017
 3474 0f38 0C       		.byte	0xc
 3475 0f39 0A       		.uleb128 0xa
 3476 0f3a 72020000 		.4byte	.LASF294
 3477 0f3e 16       		.byte	0x16
 3478 0f3f 4D       		.byte	0x4d
 3479 0f40 3D100000 		.4byte	0x103d
 3480 0f44 10       		.byte	0x10
 3481 0f45 0A       		.uleb128 0xa
 3482 0f46 EA0F0000 		.4byte	.LASF295
 3483 0f4a 16       		.byte	0x16
 3484 0f4b 4F       		.byte	0x4f
 3485 0f4c 7D100000 		.4byte	0x107d
 3486 0f50 14       		.byte	0x14
 3487 0f51 0A       		.uleb128 0xa
 3488 0f52 D1110000 		.4byte	.LASF296
 3489 0f56 16       		.byte	0x16
 3490 0f57 52       		.byte	0x52
 3491 0f58 AD100000 		.4byte	0x10ad
 3492 0f5c 18       		.byte	0x18
 3493 0f5d 0A       		.uleb128 0xa
 3494 0f5e 631F0000 		.4byte	.LASF297
 3495 0f62 16       		.byte	0x16
 3496 0f63 55       		.byte	0x55
 3497 0f64 D1100000 		.4byte	0x10d1
 3498 0f68 1C       		.byte	0x1c
 3499 0f69 0A       		.uleb128 0xa
 3500 0f6a 91190000 		.4byte	.LASF298
 3501 0f6e 16       		.byte	0x16
 3502 0f6f 58       		.byte	0x58
 3503 0f70 FC100000 		.4byte	0x10fc
 3504 0f74 20       		.byte	0x20
 3505 0f75 0A       		.uleb128 0xa
 3506 0f76 D5060000 		.4byte	.LASF299
 3507 0f7a 16       		.byte	0x16
 3508 0f7b 5C       		.byte	0x5c
 3509 0f7c 27110000 		.4byte	0x1127
 3510 0f80 24       		.byte	0x24
 3511 0f81 0A       		.uleb128 0xa
 3512 0f82 C91F0000 		.4byte	.LASF300
 3513 0f86 16       		.byte	0x16
 3514 0f87 60       		.byte	0x60
 3515 0f88 47110000 		.4byte	0x1147
 3516 0f8c 28       		.byte	0x28
 3517 0f8d 0A       		.uleb128 0xa
 3518 0f8e E5090000 		.4byte	.LASF301
 3519 0f92 16       		.byte	0x16
 3520 0f93 71       		.byte	0x71
 3521 0f94 85110000 		.4byte	0x1185
 3522 0f98 2C       		.byte	0x2c
 3523 0f99 0A       		.uleb128 0xa
 3524 0f9a 0B010000 		.4byte	.LASF302
 3525 0f9e 16       		.byte	0x16
 3526 0f9f 78       		.byte	0x78
ARM GAS  C:\Users\haske\AppData\Local\Temp\ccFGJ08j.s 			page 78


 3527 0fa0 3D100000 		.4byte	0x103d
 3528 0fa4 30       		.byte	0x30
 3529 0fa5 0A       		.uleb128 0xa
 3530 0fa6 8D170000 		.4byte	.LASF303
 3531 0faa 16       		.byte	0x16
 3532 0fab 7D       		.byte	0x7d
 3533 0fac 17100000 		.4byte	0x1017
 3534 0fb0 34       		.byte	0x34
 3535 0fb1 0A       		.uleb128 0xa
 3536 0fb2 6F060000 		.4byte	.LASF304
 3537 0fb6 16       		.byte	0x16
 3538 0fb7 8D       		.byte	0x8d
 3539 0fb8 B4110000 		.4byte	0x11b4
 3540 0fbc 38       		.byte	0x38
 3541 0fbd 0A       		.uleb128 0xa
 3542 0fbe 6A0C0000 		.4byte	.LASF305
 3543 0fc2 16       		.byte	0x16
 3544 0fc3 99       		.byte	0x99
 3545 0fc4 D9110000 		.4byte	0x11d9
 3546 0fc8 3C       		.byte	0x3c
 3547 0fc9 0A       		.uleb128 0xa
 3548 0fca F31A0000 		.4byte	.LASF306
 3549 0fce 16       		.byte	0x16
 3550 0fcf A3       		.byte	0xa3
 3551 0fd0 F4110000 		.4byte	0x11f4
 3552 0fd4 40       		.byte	0x40
 3553 0fd5 0A       		.uleb128 0xa
 3554 0fd6 C81B0000 		.4byte	.LASF307
 3555 0fda 16       		.byte	0x16
 3556 0fdb AC       		.byte	0xac
 3557 0fdc 0F120000 		.4byte	0x120f
 3558 0fe0 44       		.byte	0x44
 3559 0fe1 0A       		.uleb128 0xa
 3560 0fe2 850F0000 		.4byte	.LASF308
 3561 0fe6 16       		.byte	0x16
 3562 0fe7 B5       		.byte	0xb5
 3563 0fe8 2B120000 		.4byte	0x122b
 3564 0fec 48       		.byte	0x48
 3565 0fed 0A       		.uleb128 0xa
 3566 0fee C8090000 		.4byte	.LASF309
 3567 0ff2 16       		.byte	0x16
 3568 0ff3 BA       		.byte	0xba
 3569 0ff4 25000000 		.4byte	0x25
 3570 0ff8 4C       		.byte	0x4c
 3571 0ff9 0A       		.uleb128 0xa
 3572 0ffa 30210000 		.4byte	.LASF45
 3573 0ffe 16       		.byte	0x16
 3574 0fff BD       		.byte	0xbd
 3575 1000 C6000000 		.4byte	0xc6
 3576 1004 50       		.byte	0x50
 3577 1005 00       		.byte	0
 3578 1006 16       		.uleb128 0x16
 3579 1007 11100000 		.4byte	0x1011
 3580 100b 10       		.uleb128 0x10
 3581 100c 11100000 		.4byte	0x1011
 3582 1010 00       		.byte	0
 3583 1011 06       		.uleb128 0x6
ARM GAS  C:\Users\haske\AppData\Local\Temp\ccFGJ08j.s 			page 79


 3584 1012 04       		.byte	0x4
 3585 1013 FD0E0000 		.4byte	0xefd
 3586 1017 06       		.uleb128 0x6
 3587 1018 04       		.byte	0x4
 3588 1019 06100000 		.4byte	0x1006
 3589 101d 16       		.uleb128 0x16
 3590 101e 32100000 		.4byte	0x1032
 3591 1022 10       		.uleb128 0x10
 3592 1023 11100000 		.4byte	0x1011
 3593 1027 10       		.uleb128 0x10
 3594 1028 32100000 		.4byte	0x1032
 3595 102c 10       		.uleb128 0x10
 3596 102d 8C0E0000 		.4byte	0xe8c
 3597 1031 00       		.byte	0
 3598 1032 06       		.uleb128 0x6
 3599 1033 04       		.byte	0x4
 3600 1034 38100000 		.4byte	0x1038
 3601 1038 0E       		.uleb128 0xe
 3602 1039 A70B0000 		.4byte	0xba7
 3603 103d 06       		.uleb128 0x6
 3604 103e 04       		.byte	0x4
 3605 103f 1D100000 		.4byte	0x101d
 3606 1043 16       		.uleb128 0x16
 3607 1044 67100000 		.4byte	0x1067
 3608 1048 10       		.uleb128 0x10
 3609 1049 11100000 		.4byte	0x1011
 3610 104d 10       		.uleb128 0x10
 3611 104e 67100000 		.4byte	0x1067
 3612 1052 10       		.uleb128 0x10
 3613 1053 72100000 		.4byte	0x1072
 3614 1057 10       		.uleb128 0x10
 3615 1058 F7000000 		.4byte	0xf7
 3616 105c 10       		.uleb128 0x10
 3617 105d F7000000 		.4byte	0xf7
 3618 1061 10       		.uleb128 0x10
 3619 1062 F7000000 		.4byte	0xf7
 3620 1066 00       		.byte	0
 3621 1067 06       		.uleb128 0x6
 3622 1068 04       		.byte	0x4
 3623 1069 6D100000 		.4byte	0x106d
 3624 106d 0E       		.uleb128 0xe
 3625 106e 180E0000 		.4byte	0xe18
 3626 1072 06       		.uleb128 0x6
 3627 1073 04       		.byte	0x4
 3628 1074 78100000 		.4byte	0x1078
 3629 1078 0E       		.uleb128 0xe
 3630 1079 4B010000 		.4byte	0x14b
 3631 107d 06       		.uleb128 0x6
 3632 107e 04       		.byte	0x4
 3633 107f 43100000 		.4byte	0x1043
 3634 1083 16       		.uleb128 0x16
 3635 1084 A2100000 		.4byte	0x10a2
 3636 1088 10       		.uleb128 0x10
 3637 1089 11100000 		.4byte	0x1011
 3638 108d 10       		.uleb128 0x10
 3639 108e A2100000 		.4byte	0x10a2
 3640 1092 10       		.uleb128 0x10
ARM GAS  C:\Users\haske\AppData\Local\Temp\ccFGJ08j.s 			page 80


 3641 1093 8C0E0000 		.4byte	0xe8c
 3642 1097 10       		.uleb128 0x10
 3643 1098 F3020000 		.4byte	0x2f3
 3644 109c 10       		.uleb128 0x10
 3645 109d 82090000 		.4byte	0x982
 3646 10a1 00       		.byte	0
 3647 10a2 06       		.uleb128 0x6
 3648 10a3 04       		.byte	0x4
 3649 10a4 A8100000 		.4byte	0x10a8
 3650 10a8 0E       		.uleb128 0xe
 3651 10a9 120D0000 		.4byte	0xd12
 3652 10ad 06       		.uleb128 0x6
 3653 10ae 04       		.byte	0x4
 3654 10af 83100000 		.4byte	0x1083
 3655 10b3 0F       		.uleb128 0xf
 3656 10b4 28030000 		.4byte	0x328
 3657 10b8 D1100000 		.4byte	0x10d1
 3658 10bc 10       		.uleb128 0x10
 3659 10bd 11100000 		.4byte	0x1011
 3660 10c1 10       		.uleb128 0x10
 3661 10c2 A2100000 		.4byte	0x10a2
 3662 10c6 10       		.uleb128 0x10
 3663 10c7 8C0E0000 		.4byte	0xe8c
 3664 10cb 10       		.uleb128 0x10
 3665 10cc CF000000 		.4byte	0xcf
 3666 10d0 00       		.byte	0
 3667 10d1 06       		.uleb128 0x6
 3668 10d2 04       		.byte	0x4
 3669 10d3 B3100000 		.4byte	0x10b3
 3670 10d7 16       		.uleb128 0x16
 3671 10d8 F1100000 		.4byte	0x10f1
 3672 10dc 10       		.uleb128 0x10
 3673 10dd 11100000 		.4byte	0x1011
 3674 10e1 10       		.uleb128 0x10
 3675 10e2 F1100000 		.4byte	0x10f1
 3676 10e6 10       		.uleb128 0x10
 3677 10e7 72100000 		.4byte	0x1072
 3678 10eb 10       		.uleb128 0x10
 3679 10ec 0D010000 		.4byte	0x10d
 3680 10f0 00       		.byte	0
 3681 10f1 06       		.uleb128 0x6
 3682 10f2 04       		.byte	0x4
 3683 10f3 F7100000 		.4byte	0x10f7
 3684 10f7 0E       		.uleb128 0xe
 3685 10f8 8C0C0000 		.4byte	0xc8c
 3686 10fc 06       		.uleb128 0x6
 3687 10fd 04       		.byte	0x4
 3688 10fe D7100000 		.4byte	0x10d7
 3689 1102 16       		.uleb128 0x16
 3690 1103 1C110000 		.4byte	0x111c
 3691 1107 10       		.uleb128 0x10
 3692 1108 11100000 		.4byte	0x1011
 3693 110c 10       		.uleb128 0x10
 3694 110d 1C110000 		.4byte	0x111c
 3695 1111 10       		.uleb128 0x10
 3696 1112 72100000 		.4byte	0x1072
 3697 1116 10       		.uleb128 0x10
ARM GAS  C:\Users\haske\AppData\Local\Temp\ccFGJ08j.s 			page 81


 3698 1117 72100000 		.4byte	0x1072
 3699 111b 00       		.byte	0
 3700 111c 06       		.uleb128 0x6
 3701 111d 04       		.byte	0x4
 3702 111e 22110000 		.4byte	0x1122
 3703 1122 0E       		.uleb128 0xe
 3704 1123 9E0D0000 		.4byte	0xd9e
 3705 1127 06       		.uleb128 0x6
 3706 1128 04       		.byte	0x4
 3707 1129 02110000 		.4byte	0x1102
 3708 112d 16       		.uleb128 0x16
 3709 112e 47110000 		.4byte	0x1147
 3710 1132 10       		.uleb128 0x10
 3711 1133 11100000 		.4byte	0x1011
 3712 1137 10       		.uleb128 0x10
 3713 1138 32100000 		.4byte	0x1032
 3714 113c 10       		.uleb128 0x10
 3715 113d 72100000 		.4byte	0x1072
 3716 1141 10       		.uleb128 0x10
 3717 1142 F7000000 		.4byte	0xf7
 3718 1146 00       		.byte	0
 3719 1147 06       		.uleb128 0x6
 3720 1148 04       		.byte	0x4
 3721 1149 2D110000 		.4byte	0x112d
 3722 114d 16       		.uleb128 0x16
 3723 114e 85110000 		.4byte	0x1185
 3724 1152 10       		.uleb128 0x10
 3725 1153 11100000 		.4byte	0x1011
 3726 1157 10       		.uleb128 0x10
 3727 1158 8C0E0000 		.4byte	0xe8c
 3728 115c 10       		.uleb128 0x10
 3729 115d CF000000 		.4byte	0xcf
 3730 1161 10       		.uleb128 0x10
 3731 1162 23010000 		.4byte	0x123
 3732 1166 10       		.uleb128 0x10
 3733 1167 23010000 		.4byte	0x123
 3734 116b 10       		.uleb128 0x10
 3735 116c 23010000 		.4byte	0x123
 3736 1170 10       		.uleb128 0x10
 3737 1171 A2100000 		.4byte	0x10a2
 3738 1175 10       		.uleb128 0x10
 3739 1176 82090000 		.4byte	0x982
 3740 117a 10       		.uleb128 0x10
 3741 117b 5A0A0000 		.4byte	0xa5a
 3742 117f 10       		.uleb128 0x10
 3743 1180 230E0000 		.4byte	0xe23
 3744 1184 00       		.byte	0
 3745 1185 06       		.uleb128 0x6
 3746 1186 04       		.byte	0x4
 3747 1187 4D110000 		.4byte	0x114d
 3748 118b 16       		.uleb128 0x16
 3749 118c B4110000 		.4byte	0x11b4
 3750 1190 10       		.uleb128 0x10
 3751 1191 11100000 		.4byte	0x1011
 3752 1195 10       		.uleb128 0x10
 3753 1196 C6000000 		.4byte	0xc6
 3754 119a 10       		.uleb128 0x10
ARM GAS  C:\Users\haske\AppData\Local\Temp\ccFGJ08j.s 			page 82


 3755 119b 23010000 		.4byte	0x123
 3756 119f 10       		.uleb128 0x10
 3757 11a0 8C0E0000 		.4byte	0xe8c
 3758 11a4 10       		.uleb128 0x10
 3759 11a5 C6000000 		.4byte	0xc6
 3760 11a9 10       		.uleb128 0x10
 3761 11aa 23010000 		.4byte	0x123
 3762 11ae 10       		.uleb128 0x10
 3763 11af 8C0E0000 		.4byte	0xe8c
 3764 11b3 00       		.byte	0
 3765 11b4 06       		.uleb128 0x6
 3766 11b5 04       		.byte	0x4
 3767 11b6 8B110000 		.4byte	0x118b
 3768 11ba 0F       		.uleb128 0xf
 3769 11bb D3110000 		.4byte	0x11d3
 3770 11bf D3110000 		.4byte	0x11d3
 3771 11c3 10       		.uleb128 0x10
 3772 11c4 11100000 		.4byte	0x1011
 3773 11c8 10       		.uleb128 0x10
 3774 11c9 D3110000 		.4byte	0x11d3
 3775 11cd 10       		.uleb128 0x10
 3776 11ce 480E0000 		.4byte	0xe48
 3777 11d2 00       		.byte	0
 3778 11d3 06       		.uleb128 0x6
 3779 11d4 04       		.byte	0x4
 3780 11d5 9D0E0000 		.4byte	0xe9d
 3781 11d9 06       		.uleb128 0x6
 3782 11da 04       		.byte	0x4
 3783 11db BA110000 		.4byte	0x11ba
 3784 11df 16       		.uleb128 0x16
 3785 11e0 F4110000 		.4byte	0x11f4
 3786 11e4 10       		.uleb128 0x10
 3787 11e5 11100000 		.4byte	0x1011
 3788 11e9 10       		.uleb128 0x10
 3789 11ea D3110000 		.4byte	0x11d3
 3790 11ee 10       		.uleb128 0x10
 3791 11ef 480E0000 		.4byte	0xe48
 3792 11f3 00       		.byte	0
 3793 11f4 06       		.uleb128 0x6
 3794 11f5 04       		.byte	0x4
 3795 11f6 DF110000 		.4byte	0x11df
 3796 11fa 16       		.uleb128 0x16
 3797 11fb 0F120000 		.4byte	0x120f
 3798 11ff 10       		.uleb128 0x10
 3799 1200 11100000 		.4byte	0x1011
 3800 1204 10       		.uleb128 0x10
 3801 1205 D3110000 		.4byte	0x11d3
 3802 1209 10       		.uleb128 0x10
 3803 120a A2100000 		.4byte	0x10a2
 3804 120e 00       		.byte	0
 3805 120f 06       		.uleb128 0x6
 3806 1210 04       		.byte	0x4
 3807 1211 FA110000 		.4byte	0x11fa
 3808 1215 16       		.uleb128 0x16
 3809 1216 25120000 		.4byte	0x1225
 3810 121a 10       		.uleb128 0x10
 3811 121b 11100000 		.4byte	0x1011
ARM GAS  C:\Users\haske\AppData\Local\Temp\ccFGJ08j.s 			page 83


 3812 121f 10       		.uleb128 0x10
 3813 1220 25120000 		.4byte	0x1225
 3814 1224 00       		.byte	0
 3815 1225 06       		.uleb128 0x6
 3816 1226 04       		.byte	0x4
 3817 1227 F20E0000 		.4byte	0xef2
 3818 122b 06       		.uleb128 0x6
 3819 122c 04       		.byte	0x4
 3820 122d 15120000 		.4byte	0x1215
 3821 1231 02       		.uleb128 0x2
 3822 1232 B90A0000 		.4byte	.LASF310
 3823 1236 16       		.byte	0x16
 3824 1237 C0       		.byte	0xc0
 3825 1238 FD0E0000 		.4byte	0xefd
 3826 123c 02       		.uleb128 0x2
 3827 123d 47000000 		.4byte	.LASF311
 3828 1241 17       		.byte	0x17
 3829 1242 1D       		.byte	0x1d
 3830 1243 E1000000 		.4byte	0xe1
 3831 1247 08       		.uleb128 0x8
 3832 1248 0C       		.byte	0xc
 3833 1249 17       		.byte	0x17
 3834 124a 20       		.byte	0x20
 3835 124b 74120000 		.4byte	0x1274
 3836 124f 0A       		.uleb128 0xa
 3837 1250 B8220000 		.4byte	.LASF312
 3838 1254 17       		.byte	0x17
 3839 1255 21       		.byte	0x21
 3840 1256 0D010000 		.4byte	0x10d
 3841 125a 00       		.byte	0
 3842 125b 0A       		.uleb128 0xa
 3843 125c E8050000 		.4byte	.LASF313
 3844 1260 17       		.byte	0x17
 3845 1261 22       		.byte	0x22
 3846 1262 74120000 		.4byte	0x1274
 3847 1266 04       		.byte	0x4
 3848 1267 0A       		.uleb128 0xa
 3849 1268 DE000000 		.4byte	.LASF314
 3850 126c 17       		.byte	0x17
 3851 126d 23       		.byte	0x23
 3852 126e 74120000 		.4byte	0x1274
 3853 1272 08       		.byte	0x8
 3854 1273 00       		.byte	0
 3855 1274 06       		.uleb128 0x6
 3856 1275 04       		.byte	0x4
 3857 1276 3C120000 		.4byte	0x123c
 3858 127a 02       		.uleb128 0x2
 3859 127b EA1C0000 		.4byte	.LASF315
 3860 127f 17       		.byte	0x17
 3861 1280 24       		.byte	0x24
 3862 1281 47120000 		.4byte	0x1247
 3863 1285 02       		.uleb128 0x2
 3864 1286 E2110000 		.4byte	.LASF316
 3865 128a 18       		.byte	0x18
 3866 128b 27       		.byte	0x27
 3867 128c 90120000 		.4byte	0x1290
 3868 1290 06       		.uleb128 0x6
ARM GAS  C:\Users\haske\AppData\Local\Temp\ccFGJ08j.s 			page 84


 3869 1291 04       		.byte	0x4
 3870 1292 96120000 		.4byte	0x1296
 3871 1296 16       		.uleb128 0x16
 3872 1297 A1120000 		.4byte	0x12a1
 3873 129b 10       		.uleb128 0x10
 3874 129c A1120000 		.4byte	0x12a1
 3875 12a0 00       		.byte	0
 3876 12a1 06       		.uleb128 0x6
 3877 12a2 04       		.byte	0x4
 3878 12a3 A7120000 		.4byte	0x12a7
 3879 12a7 0D       		.uleb128 0xd
 3880 12a8 7C020000 		.4byte	.LASF317
 3881 12ac 18       		.byte	0x18
 3882 12ad 18       		.byte	0x18
 3883 12ae 2C       		.byte	0x2c
 3884 12af FF120000 		.4byte	0x12ff
 3885 12b3 0A       		.uleb128 0xa
 3886 12b4 C11A0000 		.4byte	.LASF318
 3887 12b8 18       		.byte	0x18
 3888 12b9 2D       		.byte	0x2d
 3889 12ba 0D010000 		.4byte	0x10d
 3890 12be 00       		.byte	0
 3891 12bf 0A       		.uleb128 0xa
 3892 12c0 78190000 		.4byte	.LASF319
 3893 12c4 18       		.byte	0x18
 3894 12c5 2E       		.byte	0x2e
 3895 12c6 0D010000 		.4byte	0x10d
 3896 12ca 04       		.byte	0x4
 3897 12cb 0A       		.uleb128 0xa
 3898 12cc E8170000 		.4byte	.LASF320
 3899 12d0 18       		.byte	0x18
 3900 12d1 2F       		.byte	0x2f
 3901 12d2 85120000 		.4byte	0x1285
 3902 12d6 08       		.byte	0x8
 3903 12d7 0A       		.uleb128 0xa
 3904 12d8 30210000 		.4byte	.LASF45
 3905 12dc 18       		.byte	0x18
 3906 12dd 30       		.byte	0x30
 3907 12de C6000000 		.4byte	0xc6
 3908 12e2 0C       		.byte	0xc
 3909 12e3 0A       		.uleb128 0xa
 3910 12e4 57020000 		.4byte	.LASF321
 3911 12e8 18       		.byte	0x18
 3912 12e9 31       		.byte	0x31
 3913 12ea 02010000 		.4byte	0x102
 3914 12ee 10       		.byte	0x10
 3915 12ef 0C       		.uleb128 0xc
 3916 12f0 A8140000 		.4byte	.LASF322
 3917 12f4 18       		.byte	0x18
 3918 12f5 32       		.byte	0x32
 3919 12f6 0D010000 		.4byte	0x10d
 3920 12fa 04       		.byte	0x4
 3921 12fb 01       		.byte	0x1
 3922 12fc 1F       		.byte	0x1f
 3923 12fd 14       		.byte	0x14
 3924 12fe 00       		.byte	0
 3925 12ff 02       		.uleb128 0x2
ARM GAS  C:\Users\haske\AppData\Local\Temp\ccFGJ08j.s 			page 85


 3926 1300 C00B0000 		.4byte	.LASF323
 3927 1304 18       		.byte	0x18
 3928 1305 33       		.byte	0x33
 3929 1306 A7120000 		.4byte	0x12a7
 3930 130a 0D       		.uleb128 0xd
 3931 130b CB100000 		.4byte	.LASF324
 3932 130f 1C       		.byte	0x1c
 3933 1310 19       		.byte	0x19
 3934 1311 32       		.byte	0x32
 3935 1312 7D130000 		.4byte	0x137d
 3936 1316 0A       		.uleb128 0xa
 3937 1317 E1120000 		.4byte	.LASF325
 3938 131b 19       		.byte	0x19
 3939 131c 33       		.byte	0x33
 3940 131d C6000000 		.4byte	0xc6
 3941 1321 00       		.byte	0
 3942 1322 0A       		.uleb128 0xa
 3943 1323 E6120000 		.4byte	.LASF326
 3944 1327 19       		.byte	0x19
 3945 1328 34       		.byte	0x34
 3946 1329 C6000000 		.4byte	0xc6
 3947 132d 04       		.byte	0x4
 3948 132e 0A       		.uleb128 0xa
 3949 132f 23170000 		.4byte	.LASF327
 3950 1333 19       		.byte	0x19
 3951 1334 37       		.byte	0x37
 3952 1335 C6000000 		.4byte	0xc6
 3953 1339 08       		.byte	0x8
 3954 133a 0A       		.uleb128 0xa
 3955 133b AD180000 		.4byte	.LASF328
 3956 133f 19       		.byte	0x19
 3957 1340 38       		.byte	0x38
 3958 1341 0D010000 		.4byte	0x10d
 3959 1345 0C       		.byte	0xc
 3960 1346 0A       		.uleb128 0xa
 3961 1347 6F0B0000 		.4byte	.LASF329
 3962 134b 19       		.byte	0x19
 3963 134c 3A       		.byte	0x3a
 3964 134d 7D130000 		.4byte	0x137d
 3965 1351 10       		.byte	0x10
 3966 1352 0A       		.uleb128 0xa
 3967 1353 B9080000 		.4byte	.LASF330
 3968 1357 19       		.byte	0x19
 3969 1358 3C       		.byte	0x3c
 3970 1359 7D130000 		.4byte	0x137d
 3971 135d 14       		.byte	0x14
 3972 135e 0C       		.uleb128 0xc
 3973 135f 59060000 		.4byte	.LASF331
 3974 1363 19       		.byte	0x19
 3975 1364 3D       		.byte	0x3d
 3976 1365 82130000 		.4byte	0x1382
 3977 1369 04       		.byte	0x4
 3978 136a 01       		.byte	0x1
 3979 136b 1F       		.byte	0x1f
 3980 136c 18       		.byte	0x18
 3981 136d 0C       		.uleb128 0xc
 3982 136e 9E0F0000 		.4byte	.LASF332
ARM GAS  C:\Users\haske\AppData\Local\Temp\ccFGJ08j.s 			page 86


 3983 1372 19       		.byte	0x19
 3984 1373 3E       		.byte	0x3e
 3985 1374 82130000 		.4byte	0x1382
 3986 1378 04       		.byte	0x4
 3987 1379 01       		.byte	0x1
 3988 137a 1E       		.byte	0x1e
 3989 137b 18       		.byte	0x18
 3990 137c 00       		.byte	0
 3991 137d 20       		.uleb128 0x20
 3992 137e 37000000 		.4byte	0x37
 3993 1382 20       		.uleb128 0x20
 3994 1383 0D010000 		.4byte	0x10d
 3995 1387 02       		.uleb128 0x2
 3996 1388 54000000 		.4byte	.LASF333
 3997 138c 19       		.byte	0x19
 3998 138d 3F       		.byte	0x3f
 3999 138e 0A130000 		.4byte	0x130a
 4000 1392 0D       		.uleb128 0xd
 4001 1393 01220000 		.4byte	.LASF334
 4002 1397 50       		.byte	0x50
 4003 1398 19       		.byte	0x19
 4004 1399 4D       		.byte	0x4d
 4005 139a 10150000 		.4byte	0x1510
 4006 139e 0A       		.uleb128 0xa
 4007 139f DF060000 		.4byte	.LASF335
 4008 13a3 19       		.byte	0x19
 4009 13a4 4F       		.byte	0x4f
 4010 13a5 23010000 		.4byte	0x123
 4011 13a9 00       		.byte	0
 4012 13aa 0A       		.uleb128 0xa
 4013 13ab 2F040000 		.4byte	.LASF336
 4014 13af 19       		.byte	0x19
 4015 13b0 50       		.byte	0x50
 4016 13b1 23010000 		.4byte	0x123
 4017 13b5 02       		.byte	0x2
 4018 13b6 0A       		.uleb128 0xa
 4019 13b7 9C180000 		.4byte	.LASF337
 4020 13bb 19       		.byte	0x19
 4021 13bc 53       		.byte	0x53
 4022 13bd 23010000 		.4byte	0x123
 4023 13c1 04       		.byte	0x4
 4024 13c2 0A       		.uleb128 0xa
 4025 13c3 DC080000 		.4byte	.LASF338
 4026 13c7 19       		.byte	0x19
 4027 13c8 55       		.byte	0x55
 4028 13c9 23010000 		.4byte	0x123
 4029 13cd 06       		.byte	0x6
 4030 13ce 0A       		.uleb128 0xa
 4031 13cf C30F0000 		.4byte	.LASF339
 4032 13d3 19       		.byte	0x19
 4033 13d4 57       		.byte	0x57
 4034 13d5 23010000 		.4byte	0x123
 4035 13d9 08       		.byte	0x8
 4036 13da 0A       		.uleb128 0xa
 4037 13db CC0F0000 		.4byte	.LASF340
 4038 13df 19       		.byte	0x19
 4039 13e0 58       		.byte	0x58
ARM GAS  C:\Users\haske\AppData\Local\Temp\ccFGJ08j.s 			page 87


 4040 13e1 23010000 		.4byte	0x123
 4041 13e5 0A       		.byte	0xa
 4042 13e6 0A       		.uleb128 0xa
 4043 13e7 B81A0000 		.4byte	.LASF341
 4044 13eb 19       		.byte	0x19
 4045 13ec 5C       		.byte	0x5c
 4046 13ed 10150000 		.4byte	0x1510
 4047 13f1 0C       		.byte	0xc
 4048 13f2 0C       		.uleb128 0xc
 4049 13f3 F4090000 		.4byte	.LASF342
 4050 13f7 19       		.byte	0x19
 4051 13f8 5E       		.byte	0x5e
 4052 13f9 0D010000 		.4byte	0x10d
 4053 13fd 04       		.byte	0x4
 4054 13fe 01       		.byte	0x1
 4055 13ff 1F       		.byte	0x1f
 4056 1400 10       		.byte	0x10
 4057 1401 0C       		.uleb128 0xc
 4058 1402 450D0000 		.4byte	.LASF343
 4059 1406 19       		.byte	0x19
 4060 1407 5F       		.byte	0x5f
 4061 1408 0D010000 		.4byte	0x10d
 4062 140c 04       		.byte	0x4
 4063 140d 01       		.byte	0x1
 4064 140e 1E       		.byte	0x1e
 4065 140f 10       		.byte	0x10
 4066 1410 0C       		.uleb128 0xc
 4067 1411 370C0000 		.4byte	.LASF344
 4068 1415 19       		.byte	0x19
 4069 1416 60       		.byte	0x60
 4070 1417 0D010000 		.4byte	0x10d
 4071 141b 04       		.byte	0x4
 4072 141c 01       		.byte	0x1
 4073 141d 1D       		.byte	0x1d
 4074 141e 10       		.byte	0x10
 4075 141f 0C       		.uleb128 0xc
 4076 1420 520A0000 		.4byte	.LASF345
 4077 1424 19       		.byte	0x19
 4078 1425 61       		.byte	0x61
 4079 1426 0D010000 		.4byte	0x10d
 4080 142a 04       		.byte	0x4
 4081 142b 01       		.byte	0x1
 4082 142c 1C       		.byte	0x1c
 4083 142d 10       		.byte	0x10
 4084 142e 0C       		.uleb128 0xc
 4085 142f 1A050000 		.4byte	.LASF346
 4086 1433 19       		.byte	0x19
 4087 1434 62       		.byte	0x62
 4088 1435 0D010000 		.4byte	0x10d
 4089 1439 04       		.byte	0x4
 4090 143a 02       		.byte	0x2
 4091 143b 1A       		.byte	0x1a
 4092 143c 10       		.byte	0x10
 4093 143d 0C       		.uleb128 0xc
 4094 143e B71D0000 		.4byte	.LASF284
 4095 1442 19       		.byte	0x19
 4096 1443 63       		.byte	0x63
ARM GAS  C:\Users\haske\AppData\Local\Temp\ccFGJ08j.s 			page 88


 4097 1444 0D010000 		.4byte	0x10d
 4098 1448 04       		.byte	0x4
 4099 1449 01       		.byte	0x1
 4100 144a 19       		.byte	0x19
 4101 144b 10       		.byte	0x10
 4102 144c 0B       		.uleb128 0xb
 4103 144d 64706900 		.ascii	"dpi\000"
 4104 1451 19       		.byte	0x19
 4105 1452 66       		.byte	0x66
 4106 1453 0D010000 		.4byte	0x10d
 4107 1457 04       		.byte	0x4
 4108 1458 0A       		.byte	0xa
 4109 1459 0F       		.byte	0xf
 4110 145a 10       		.byte	0x10
 4111 145b 0A       		.uleb128 0xa
 4112 145c 10210000 		.4byte	.LASF347
 4113 1460 19       		.byte	0x19
 4114 1461 6A       		.byte	0x6a
 4115 1462 31150000 		.4byte	0x1531
 4116 1466 14       		.byte	0x14
 4117 1467 0A       		.uleb128 0xa
 4118 1468 C81A0000 		.4byte	.LASF348
 4119 146c 19       		.byte	0x19
 4120 146d 6E       		.byte	0x6e
 4121 146e 47150000 		.4byte	0x1547
 4122 1472 18       		.byte	0x18
 4123 1473 0A       		.uleb128 0xa
 4124 1474 C31E0000 		.4byte	.LASF349
 4125 1478 19       		.byte	0x19
 4126 1479 73       		.byte	0x73
 4127 147a 76150000 		.4byte	0x1576
 4128 147e 1C       		.byte	0x1c
 4129 147f 0A       		.uleb128 0xa
 4130 1480 530E0000 		.4byte	.LASF350
 4131 1484 19       		.byte	0x19
 4132 1485 76       		.byte	0x76
 4133 1486 91150000 		.4byte	0x1591
 4134 148a 20       		.byte	0x20
 4135 148b 0A       		.uleb128 0xa
 4136 148c D1130000 		.4byte	.LASF351
 4137 1490 19       		.byte	0x19
 4138 1491 7B       		.byte	0x7b
 4139 1492 AC150000 		.4byte	0x15ac
 4140 1496 24       		.byte	0x24
 4141 1497 0A       		.uleb128 0xa
 4142 1498 56120000 		.4byte	.LASF352
 4143 149c 19       		.byte	0x19
 4144 149d 80       		.byte	0x80
 4145 149e BD150000 		.4byte	0x15bd
 4146 14a2 28       		.byte	0x28
 4147 14a3 0A       		.uleb128 0xa
 4148 14a4 52220000 		.4byte	.LASF353
 4149 14a8 19       		.byte	0x19
 4150 14a9 83       		.byte	0x83
 4151 14aa BD150000 		.4byte	0x15bd
 4152 14ae 2C       		.byte	0x2c
 4153 14af 0A       		.uleb128 0xa
ARM GAS  C:\Users\haske\AppData\Local\Temp\ccFGJ08j.s 			page 89


 4154 14b0 45180000 		.4byte	.LASF354
 4155 14b4 19       		.byte	0x19
 4156 14b5 86       		.byte	0x86
 4157 14b6 BD150000 		.4byte	0x15bd
 4158 14ba 30       		.byte	0x30
 4159 14bb 0A       		.uleb128 0xa
 4160 14bc 35180000 		.4byte	.LASF355
 4161 14c0 19       		.byte	0x19
 4162 14c1 89       		.byte	0x89
 4163 14c2 BD150000 		.4byte	0x15bd
 4164 14c6 34       		.byte	0x34
 4165 14c7 0A       		.uleb128 0xa
 4166 14c8 1D000000 		.4byte	.LASF356
 4167 14cc 19       		.byte	0x19
 4168 14cd 8D       		.byte	0x8d
 4169 14ce 92030000 		.4byte	0x392
 4170 14d2 38       		.byte	0x38
 4171 14d3 0A       		.uleb128 0xa
 4172 14d4 5A1F0000 		.4byte	.LASF357
 4173 14d8 19       		.byte	0x19
 4174 14d9 8F       		.byte	0x8f
 4175 14da C3150000 		.4byte	0x15c3
 4176 14de 3C       		.byte	0x3c
 4177 14df 0A       		.uleb128 0xa
 4178 14e0 37110000 		.4byte	.LASF358
 4179 14e4 19       		.byte	0x19
 4180 14e5 90       		.byte	0x90
 4181 14e6 D9150000 		.4byte	0x15d9
 4182 14ea 40       		.byte	0x40
 4183 14eb 0A       		.uleb128 0xa
 4184 14ec 37050000 		.4byte	.LASF359
 4185 14f0 19       		.byte	0x19
 4186 14f1 91       		.byte	0x91
 4187 14f2 D9150000 		.4byte	0x15d9
 4188 14f6 44       		.byte	0x44
 4189 14f7 0A       		.uleb128 0xa
 4190 14f8 CA010000 		.4byte	.LASF360
 4191 14fc 19       		.byte	0x19
 4192 14fd 92       		.byte	0x92
 4193 14fe 25000000 		.4byte	0x25
 4194 1502 48       		.byte	0x48
 4195 1503 0A       		.uleb128 0xa
 4196 1504 30210000 		.4byte	.LASF45
 4197 1508 19       		.byte	0x19
 4198 1509 95       		.byte	0x95
 4199 150a C6000000 		.4byte	0xc6
 4200 150e 4C       		.byte	0x4c
 4201 150f 00       		.byte	0
 4202 1510 06       		.uleb128 0x6
 4203 1511 04       		.byte	0x4
 4204 1512 87130000 		.4byte	0x1387
 4205 1516 16       		.uleb128 0x16
 4206 1517 2B150000 		.4byte	0x152b
 4207 151b 10       		.uleb128 0x10
 4208 151c 2B150000 		.4byte	0x152b
 4209 1520 10       		.uleb128 0x10
 4210 1521 8C0E0000 		.4byte	0xe8c
ARM GAS  C:\Users\haske\AppData\Local\Temp\ccFGJ08j.s 			page 90


 4211 1525 10       		.uleb128 0x10
 4212 1526 5A0A0000 		.4byte	0xa5a
 4213 152a 00       		.byte	0
 4214 152b 06       		.uleb128 0x6
 4215 152c 04       		.byte	0x4
 4216 152d 92130000 		.4byte	0x1392
 4217 1531 06       		.uleb128 0x6
 4218 1532 04       		.byte	0x4
 4219 1533 16150000 		.4byte	0x1516
 4220 1537 16       		.uleb128 0x16
 4221 1538 47150000 		.4byte	0x1547
 4222 153c 10       		.uleb128 0x10
 4223 153d 2B150000 		.4byte	0x152b
 4224 1541 10       		.uleb128 0x10
 4225 1542 970E0000 		.4byte	0xe97
 4226 1546 00       		.byte	0
 4227 1547 06       		.uleb128 0x6
 4228 1548 04       		.byte	0x4
 4229 1549 37150000 		.4byte	0x1537
 4230 154d 16       		.uleb128 0x16
 4231 154e 76150000 		.4byte	0x1576
 4232 1552 10       		.uleb128 0x10
 4233 1553 2B150000 		.4byte	0x152b
 4234 1557 10       		.uleb128 0x10
 4235 1558 27090000 		.4byte	0x927
 4236 155c 10       		.uleb128 0x10
 4237 155d 23010000 		.4byte	0x123
 4238 1561 10       		.uleb128 0x10
 4239 1562 23010000 		.4byte	0x123
 4240 1566 10       		.uleb128 0x10
 4241 1567 23010000 		.4byte	0x123
 4242 156b 10       		.uleb128 0x10
 4243 156c 92030000 		.4byte	0x392
 4244 1570 10       		.uleb128 0x10
 4245 1571 9D030000 		.4byte	0x39d
 4246 1575 00       		.byte	0
 4247 1576 06       		.uleb128 0x6
 4248 1577 04       		.byte	0x4
 4249 1578 4D150000 		.4byte	0x154d
 4250 157c 16       		.uleb128 0x16
 4251 157d 91150000 		.4byte	0x1591
 4252 1581 10       		.uleb128 0x10
 4253 1582 2B150000 		.4byte	0x152b
 4254 1586 10       		.uleb128 0x10
 4255 1587 27090000 		.4byte	0x927
 4256 158b 10       		.uleb128 0x10
 4257 158c 0D010000 		.4byte	0x10d
 4258 1590 00       		.byte	0
 4259 1591 06       		.uleb128 0x6
 4260 1592 04       		.byte	0x4
 4261 1593 7C150000 		.4byte	0x157c
 4262 1597 16       		.uleb128 0x16
 4263 1598 AC150000 		.4byte	0x15ac
 4264 159c 10       		.uleb128 0x10
 4265 159d 2B150000 		.4byte	0x152b
 4266 15a1 10       		.uleb128 0x10
 4267 15a2 0D010000 		.4byte	0x10d
ARM GAS  C:\Users\haske\AppData\Local\Temp\ccFGJ08j.s 			page 91


 4268 15a6 10       		.uleb128 0x10
 4269 15a7 0D010000 		.4byte	0x10d
 4270 15ab 00       		.byte	0
 4271 15ac 06       		.uleb128 0x6
 4272 15ad 04       		.byte	0x4
 4273 15ae 97150000 		.4byte	0x1597
 4274 15b2 16       		.uleb128 0x16
 4275 15b3 BD150000 		.4byte	0x15bd
 4276 15b7 10       		.uleb128 0x10
 4277 15b8 2B150000 		.4byte	0x152b
 4278 15bc 00       		.byte	0
 4279 15bd 06       		.uleb128 0x6
 4280 15be 04       		.byte	0x4
 4281 15bf B2150000 		.4byte	0x15b2
 4282 15c3 06       		.uleb128 0x6
 4283 15c4 04       		.byte	0x4
 4284 15c5 31120000 		.4byte	0x1231
 4285 15c9 16       		.uleb128 0x16
 4286 15ca D9150000 		.4byte	0x15d9
 4287 15ce 10       		.uleb128 0x10
 4288 15cf 2B150000 		.4byte	0x152b
 4289 15d3 10       		.uleb128 0x10
 4290 15d4 C3150000 		.4byte	0x15c3
 4291 15d8 00       		.byte	0
 4292 15d9 06       		.uleb128 0x6
 4293 15da 04       		.byte	0x4
 4294 15db C9150000 		.4byte	0x15c9
 4295 15df 21       		.uleb128 0x21
 4296 15e0 2F150000 		.4byte	.LASF361
 4297 15e4 5C01     		.2byte	0x15c
 4298 15e6 19       		.byte	0x19
 4299 15e7 9E       		.byte	0x9e
 4300 15e8 F6160000 		.4byte	0x16f6
 4301 15ec 0A       		.uleb128 0xa
 4302 15ed 501C0000 		.4byte	.LASF362
 4303 15f1 19       		.byte	0x19
 4304 15f2 A0       		.byte	0xa0
 4305 15f3 2B150000 		.4byte	0x152b
 4306 15f7 00       		.byte	0
 4307 15f8 0A       		.uleb128 0xa
 4308 15f9 59050000 		.4byte	.LASF363
 4309 15fd 19       		.byte	0x19
 4310 15fe A3       		.byte	0xa3
 4311 15ff F6160000 		.4byte	0x16f6
 4312 1603 04       		.byte	0x4
 4313 1604 0A       		.uleb128 0xa
 4314 1605 BD0F0000 		.4byte	.LASF364
 4315 1609 19       		.byte	0x19
 4316 160a A6       		.byte	0xa6
 4317 160b 01170000 		.4byte	0x1701
 4318 160f 08       		.byte	0x8
 4319 1610 0A       		.uleb128 0xa
 4320 1611 63040000 		.4byte	.LASF365
 4321 1615 19       		.byte	0x19
 4322 1616 A9       		.byte	0xa9
 4323 1617 07170000 		.4byte	0x1707
 4324 161b 0C       		.byte	0xc
ARM GAS  C:\Users\haske\AppData\Local\Temp\ccFGJ08j.s 			page 92


 4325 161c 0A       		.uleb128 0xa
 4326 161d F8000000 		.4byte	.LASF366
 4327 1621 19       		.byte	0x19
 4328 1622 AA       		.byte	0xaa
 4329 1623 8D090000 		.4byte	0x98d
 4330 1627 10       		.byte	0x10
 4331 1628 0A       		.uleb128 0xa
 4332 1629 8C1C0000 		.4byte	.LASF367
 4333 162d 19       		.byte	0x19
 4334 162e AB       		.byte	0xab
 4335 162f 8D090000 		.4byte	0x98d
 4336 1633 14       		.byte	0x14
 4337 1634 0A       		.uleb128 0xa
 4338 1635 BE050000 		.4byte	.LASF368
 4339 1639 19       		.byte	0x19
 4340 163a AC       		.byte	0xac
 4341 163b 8D090000 		.4byte	0x98d
 4342 163f 18       		.byte	0x18
 4343 1640 0A       		.uleb128 0xa
 4344 1641 8C070000 		.4byte	.LASF369
 4345 1645 19       		.byte	0x19
 4346 1646 AD       		.byte	0xad
 4347 1647 8D090000 		.4byte	0x98d
 4348 164b 1C       		.byte	0x1c
 4349 164c 0A       		.uleb128 0xa
 4350 164d EF180000 		.4byte	.LASF370
 4351 1651 19       		.byte	0x19
 4352 1652 AE       		.byte	0xae
 4353 1653 8D090000 		.4byte	0x98d
 4354 1657 20       		.byte	0x20
 4355 1658 0A       		.uleb128 0xa
 4356 1659 00010000 		.4byte	.LASF371
 4357 165d 19       		.byte	0x19
 4358 165e AF       		.byte	0xaf
 4359 165f 0D010000 		.4byte	0x10d
 4360 1663 24       		.byte	0x24
 4361 1664 0C       		.uleb128 0xc
 4362 1665 720F0000 		.4byte	.LASF372
 4363 1669 19       		.byte	0x19
 4364 166a B0       		.byte	0xb0
 4365 166b E1000000 		.4byte	0xe1
 4366 166f 01       		.byte	0x1
 4367 1670 01       		.byte	0x1
 4368 1671 07       		.byte	0x7
 4369 1672 28       		.byte	0x28
 4370 1673 0C       		.uleb128 0xc
 4371 1674 141E0000 		.4byte	.LASF373
 4372 1678 19       		.byte	0x19
 4373 1679 B2       		.byte	0xb2
 4374 167a E1000000 		.4byte	0xe1
 4375 167e 01       		.byte	0x1
 4376 167f 01       		.byte	0x1
 4377 1680 06       		.byte	0x6
 4378 1681 28       		.byte	0x28
 4379 1682 0C       		.uleb128 0xc
 4380 1683 86080000 		.4byte	.LASF374
 4381 1687 19       		.byte	0x19
ARM GAS  C:\Users\haske\AppData\Local\Temp\ccFGJ08j.s 			page 93


 4382 1688 B4       		.byte	0xb4
 4383 1689 E1000000 		.4byte	0xe1
 4384 168d 01       		.byte	0x1
 4385 168e 01       		.byte	0x1
 4386 168f 05       		.byte	0x5
 4387 1690 28       		.byte	0x28
 4388 1691 0A       		.uleb128 0xa
 4389 1692 52050000 		.4byte	.LASF221
 4390 1696 19       		.byte	0x19
 4391 1697 B6       		.byte	0xb6
 4392 1698 9D030000 		.4byte	0x39d
 4393 169c 29       		.byte	0x29
 4394 169d 0A       		.uleb128 0xa
 4395 169e A4010000 		.4byte	.LASF222
 4396 16a2 19       		.byte	0x19
 4397 16a3 B7       		.byte	0xb7
 4398 16a4 92030000 		.4byte	0x392
 4399 16a8 2A       		.byte	0x2a
 4400 16a9 0A       		.uleb128 0xa
 4401 16aa 2C1E0000 		.4byte	.LASF375
 4402 16ae 19       		.byte	0x19
 4403 16af B8       		.byte	0xb8
 4404 16b0 CF000000 		.4byte	0xcf
 4405 16b4 2C       		.byte	0x2c
 4406 16b5 0A       		.uleb128 0xa
 4407 16b6 72150000 		.4byte	.LASF376
 4408 16ba 19       		.byte	0x19
 4409 16bb BB       		.byte	0xbb
 4410 16bc 0D170000 		.4byte	0x170d
 4411 16c0 30       		.byte	0x30
 4412 16c1 22       		.uleb128 0x22
 4413 16c2 98050000 		.4byte	.LASF377
 4414 16c6 19       		.byte	0x19
 4415 16c7 BC       		.byte	0xbc
 4416 16c8 1D170000 		.4byte	0x171d
 4417 16cc 3001     		.2byte	0x130
 4418 16ce 22       		.uleb128 0x22
 4419 16cf E41C0000 		.4byte	.LASF378
 4420 16d3 19       		.byte	0x19
 4421 16d4 BD       		.byte	0xbd
 4422 16d5 F7000000 		.4byte	0xf7
 4423 16d9 5001     		.2byte	0x150
 4424 16db 22       		.uleb128 0x22
 4425 16dc 9B1D0000 		.4byte	.LASF379
 4426 16e0 19       		.byte	0x19
 4427 16e1 BE       		.byte	0xbe
 4428 16e2 02010000 		.4byte	0x102
 4429 16e6 5401     		.2byte	0x154
 4430 16e8 22       		.uleb128 0x22
 4431 16e9 EA040000 		.4byte	.LASF380
 4432 16ed 19       		.byte	0x19
 4433 16ee C1       		.byte	0xc1
 4434 16ef 0D010000 		.4byte	0x10d
 4435 16f3 5801     		.2byte	0x158
 4436 16f5 00       		.byte	0
 4437 16f6 06       		.uleb128 0x6
 4438 16f7 04       		.byte	0x4
ARM GAS  C:\Users\haske\AppData\Local\Temp\ccFGJ08j.s 			page 94


 4439 16f8 FF120000 		.4byte	0x12ff
 4440 16fc 23       		.uleb128 0x23
 4441 16fd 571C0000 		.4byte	.LASF549
 4442 1701 06       		.uleb128 0x6
 4443 1702 04       		.byte	0x4
 4444 1703 FC160000 		.4byte	0x16fc
 4445 1707 06       		.uleb128 0x6
 4446 1708 04       		.byte	0x4
 4447 1709 8D090000 		.4byte	0x98d
 4448 170d 17       		.uleb128 0x17
 4449 170e 8B010000 		.4byte	0x18b
 4450 1712 1D170000 		.4byte	0x171d
 4451 1716 18       		.uleb128 0x18
 4452 1717 BF000000 		.4byte	0xbf
 4453 171b 1F       		.byte	0x1f
 4454 171c 00       		.byte	0
 4455 171d 17       		.uleb128 0x17
 4456 171e E1000000 		.4byte	0xe1
 4457 1722 2D170000 		.4byte	0x172d
 4458 1726 18       		.uleb128 0x18
 4459 1727 BF000000 		.4byte	0xbf
 4460 172b 1F       		.byte	0x1f
 4461 172c 00       		.byte	0
 4462 172d 02       		.uleb128 0x2
 4463 172e 93000000 		.4byte	.LASF381
 4464 1732 19       		.byte	0x19
 4465 1733 C2       		.byte	0xc2
 4466 1734 DF150000 		.4byte	0x15df
 4467 1738 11       		.uleb128 0x11
 4468 1739 01       		.byte	0x1
 4469 173a 69000000 		.4byte	0x69
 4470 173e 1A       		.byte	0x1a
 4471 173f 3E       		.byte	0x3e
 4472 1740 63170000 		.4byte	0x1763
 4473 1744 12       		.uleb128 0x12
 4474 1745 FD200000 		.4byte	.LASF382
 4475 1749 00       		.byte	0
 4476 174a 12       		.uleb128 0x12
 4477 174b 5F170000 		.4byte	.LASF383
 4478 174f 01       		.byte	0x1
 4479 1750 12       		.uleb128 0x12
 4480 1751 401A0000 		.4byte	.LASF384
 4481 1755 02       		.byte	0x2
 4482 1756 12       		.uleb128 0x12
 4483 1757 36120000 		.4byte	.LASF385
 4484 175b 03       		.byte	0x3
 4485 175c 12       		.uleb128 0x12
 4486 175d 74000000 		.4byte	.LASF386
 4487 1761 04       		.byte	0x4
 4488 1762 00       		.byte	0
 4489 1763 02       		.uleb128 0x2
 4490 1764 12120000 		.4byte	.LASF387
 4491 1768 1A       		.byte	0x1a
 4492 1769 44       		.byte	0x44
 4493 176a 38170000 		.4byte	0x1738
 4494 176e 11       		.uleb128 0x11
 4495 176f 01       		.byte	0x1
ARM GAS  C:\Users\haske\AppData\Local\Temp\ccFGJ08j.s 			page 95


 4496 1770 69000000 		.4byte	0x69
 4497 1774 1A       		.byte	0x1a
 4498 1775 47       		.byte	0x47
 4499 1776 87170000 		.4byte	0x1787
 4500 177a 12       		.uleb128 0x12
 4501 177b 1A080000 		.4byte	.LASF388
 4502 177f 00       		.byte	0
 4503 1780 12       		.uleb128 0x12
 4504 1781 A5110000 		.4byte	.LASF389
 4505 1785 01       		.byte	0x1
 4506 1786 00       		.byte	0
 4507 1787 02       		.uleb128 0x2
 4508 1788 260C0000 		.4byte	.LASF390
 4509 178c 1A       		.byte	0x1a
 4510 178d 4A       		.byte	0x4a
 4511 178e 6E170000 		.4byte	0x176e
 4512 1792 08       		.uleb128 0x8
 4513 1793 10       		.byte	0x10
 4514 1794 1A       		.byte	0x1a
 4515 1795 4D       		.byte	0x4d
 4516 1796 E3170000 		.4byte	0x17e3
 4517 179a 0A       		.uleb128 0xa
 4518 179b B4030000 		.4byte	.LASF391
 4519 179f 1A       		.byte	0x1a
 4520 17a0 4E       		.byte	0x4e
 4521 17a1 4B010000 		.4byte	0x14b
 4522 17a5 00       		.byte	0
 4523 17a6 09       		.uleb128 0x9
 4524 17a7 6B657900 		.ascii	"key\000"
 4525 17ab 1A       		.byte	0x1a
 4526 17ac 4F       		.byte	0x4f
 4527 17ad 0D010000 		.4byte	0x10d
 4528 17b1 04       		.byte	0x4
 4529 17b2 0A       		.uleb128 0xa
 4530 17b3 85090000 		.4byte	.LASF392
 4531 17b7 1A       		.byte	0x1a
 4532 17b8 50       		.byte	0x50
 4533 17b9 0D010000 		.4byte	0x10d
 4534 17bd 08       		.byte	0x8
 4535 17be 0A       		.uleb128 0xa
 4536 17bf E8140000 		.4byte	.LASF393
 4537 17c3 1A       		.byte	0x1a
 4538 17c4 51       		.byte	0x51
 4539 17c5 EC000000 		.4byte	0xec
 4540 17c9 0C       		.byte	0xc
 4541 17ca 0A       		.uleb128 0xa
 4542 17cb 41020000 		.4byte	.LASF212
 4543 17cf 1A       		.byte	0x1a
 4544 17d0 53       		.byte	0x53
 4545 17d1 87170000 		.4byte	0x1787
 4546 17d5 0E       		.byte	0xe
 4547 17d6 0A       		.uleb128 0xa
 4548 17d7 AE0E0000 		.4byte	.LASF394
 4549 17db 1A       		.byte	0x1a
 4550 17dc 54       		.byte	0x54
 4551 17dd CC020000 		.4byte	0x2cc
 4552 17e1 0F       		.byte	0xf
ARM GAS  C:\Users\haske\AppData\Local\Temp\ccFGJ08j.s 			page 96


 4553 17e2 00       		.byte	0
 4554 17e3 02       		.uleb128 0x2
 4555 17e4 351F0000 		.4byte	.LASF395
 4556 17e8 1A       		.byte	0x1a
 4557 17e9 55       		.byte	0x55
 4558 17ea 92170000 		.4byte	0x1792
 4559 17ee 0D       		.uleb128 0xd
 4560 17ef 9B030000 		.4byte	.LASF396
 4561 17f3 20       		.byte	0x20
 4562 17f4 1A       		.byte	0x1a
 4563 17f5 58       		.byte	0x58
 4564 17f6 8B180000 		.4byte	0x188b
 4565 17fa 0A       		.uleb128 0xa
 4566 17fb F4020000 		.4byte	.LASF397
 4567 17ff 1A       		.byte	0x1a
 4568 1800 5B       		.byte	0x5b
 4569 1801 63170000 		.4byte	0x1763
 4570 1805 00       		.byte	0
 4571 1806 0A       		.uleb128 0xa
 4572 1807 12060000 		.4byte	.LASF398
 4573 180b 1A       		.byte	0x1a
 4574 180c 5E       		.byte	0x5e
 4575 180d A7180000 		.4byte	0x18a7
 4576 1811 04       		.byte	0x4
 4577 1812 0A       		.uleb128 0xa
 4578 1813 DC170000 		.4byte	.LASF399
 4579 1817 1A       		.byte	0x1a
 4580 1818 62       		.byte	0x62
 4581 1819 BD180000 		.4byte	0x18bd
 4582 181d 08       		.byte	0x8
 4583 181e 0A       		.uleb128 0xa
 4584 181f 30210000 		.4byte	.LASF45
 4585 1823 1A       		.byte	0x1a
 4586 1824 65       		.byte	0x65
 4587 1825 C6000000 		.4byte	0xc6
 4588 1829 0C       		.byte	0xc
 4589 182a 0A       		.uleb128 0xa
 4590 182b A3140000 		.4byte	.LASF400
 4591 182f 1A       		.byte	0x1a
 4592 1830 69       		.byte	0x69
 4593 1831 C3180000 		.4byte	0x18c3
 4594 1835 10       		.byte	0x10
 4595 1836 0A       		.uleb128 0xa
 4596 1837 F5160000 		.4byte	.LASF401
 4597 183b 1A       		.byte	0x1a
 4598 183c 6C       		.byte	0x6c
 4599 183d F6160000 		.4byte	0x16f6
 4600 1841 14       		.byte	0x14
 4601 1842 0A       		.uleb128 0xa
 4602 1843 2F1C0000 		.4byte	.LASF402
 4603 1847 1A       		.byte	0x1a
 4604 1848 6F       		.byte	0x6f
 4605 1849 E1000000 		.4byte	0xe1
 4606 184d 18       		.byte	0x18
 4607 184e 0A       		.uleb128 0xa
 4608 184f F1170000 		.4byte	.LASF403
 4609 1853 1A       		.byte	0x1a
ARM GAS  C:\Users\haske\AppData\Local\Temp\ccFGJ08j.s 			page 97


 4610 1854 72       		.byte	0x72
 4611 1855 E1000000 		.4byte	0xe1
 4612 1859 19       		.byte	0x19
 4613 185a 0A       		.uleb128 0xa
 4614 185b A1200000 		.4byte	.LASF404
 4615 185f 1A       		.byte	0x1a
 4616 1860 75       		.byte	0x75
 4617 1861 E1000000 		.4byte	0xe1
 4618 1865 1A       		.byte	0x1a
 4619 1866 0A       		.uleb128 0xa
 4620 1867 62220000 		.4byte	.LASF405
 4621 186b 1A       		.byte	0x1a
 4622 186c 78       		.byte	0x78
 4623 186d E1000000 		.4byte	0xe1
 4624 1871 1B       		.byte	0x1b
 4625 1872 0A       		.uleb128 0xa
 4626 1873 C8180000 		.4byte	.LASF406
 4627 1877 1A       		.byte	0x1a
 4628 1878 7B       		.byte	0x7b
 4629 1879 F7000000 		.4byte	0xf7
 4630 187d 1C       		.byte	0x1c
 4631 187e 0A       		.uleb128 0xa
 4632 187f CD1E0000 		.4byte	.LASF407
 4633 1883 1A       		.byte	0x1a
 4634 1884 7E       		.byte	0x7e
 4635 1885 F7000000 		.4byte	0xf7
 4636 1889 1E       		.byte	0x1e
 4637 188a 00       		.byte	0
 4638 188b 16       		.uleb128 0x16
 4639 188c 9B180000 		.4byte	0x189b
 4640 1890 10       		.uleb128 0x10
 4641 1891 9B180000 		.4byte	0x189b
 4642 1895 10       		.uleb128 0x10
 4643 1896 A1180000 		.4byte	0x18a1
 4644 189a 00       		.byte	0
 4645 189b 06       		.uleb128 0x6
 4646 189c 04       		.byte	0x4
 4647 189d EE170000 		.4byte	0x17ee
 4648 18a1 06       		.uleb128 0x6
 4649 18a2 04       		.byte	0x4
 4650 18a3 E3170000 		.4byte	0x17e3
 4651 18a7 06       		.uleb128 0x6
 4652 18a8 04       		.byte	0x4
 4653 18a9 8B180000 		.4byte	0x188b
 4654 18ad 16       		.uleb128 0x16
 4655 18ae BD180000 		.4byte	0x18bd
 4656 18b2 10       		.uleb128 0x10
 4657 18b3 9B180000 		.4byte	0x189b
 4658 18b7 10       		.uleb128 0x10
 4659 18b8 E1000000 		.4byte	0xe1
 4660 18bc 00       		.byte	0
 4661 18bd 06       		.uleb128 0x6
 4662 18be 04       		.byte	0x4
 4663 18bf AD180000 		.4byte	0x18ad
 4664 18c3 06       		.uleb128 0x6
 4665 18c4 04       		.byte	0x4
 4666 18c5 DF150000 		.4byte	0x15df
ARM GAS  C:\Users\haske\AppData\Local\Temp\ccFGJ08j.s 			page 98


 4667 18c9 08       		.uleb128 0x8
 4668 18ca 40       		.byte	0x40
 4669 18cb 1A       		.byte	0x1a
 4670 18cc 8D       		.byte	0x8d
 4671 18cd A7190000 		.4byte	0x19a7
 4672 18d1 0A       		.uleb128 0xa
 4673 18d2 021D0000 		.4byte	.LASF408
 4674 18d6 1A       		.byte	0x1a
 4675 18d7 8F       		.byte	0x8f
 4676 18d8 4B010000 		.4byte	0x14b
 4677 18dc 00       		.byte	0
 4678 18dd 0A       		.uleb128 0xa
 4679 18de 59140000 		.4byte	.LASF409
 4680 18e2 1A       		.byte	0x1a
 4681 18e3 90       		.byte	0x90
 4682 18e4 4B010000 		.4byte	0x14b
 4683 18e8 04       		.byte	0x4
 4684 18e9 0A       		.uleb128 0xa
 4685 18ea 04130000 		.4byte	.LASF410
 4686 18ee 1A       		.byte	0x1a
 4687 18ef 91       		.byte	0x91
 4688 18f0 4B010000 		.4byte	0x14b
 4689 18f4 08       		.byte	0x8
 4690 18f5 0A       		.uleb128 0xa
 4691 18f6 E3210000 		.4byte	.LASF411
 4692 18fa 1A       		.byte	0x1a
 4693 18fb 92       		.byte	0x92
 4694 18fc 4B010000 		.4byte	0x14b
 4695 1900 0C       		.byte	0xc
 4696 1901 0A       		.uleb128 0xa
 4697 1902 2A230000 		.4byte	.LASF412
 4698 1906 1A       		.byte	0x1a
 4699 1907 93       		.byte	0x93
 4700 1908 4B010000 		.4byte	0x14b
 4701 190c 10       		.byte	0x10
 4702 190d 0A       		.uleb128 0xa
 4703 190e DD140000 		.4byte	.LASF413
 4704 1912 1A       		.byte	0x1a
 4705 1913 94       		.byte	0x94
 4706 1914 4B010000 		.4byte	0x14b
 4707 1918 14       		.byte	0x14
 4708 1919 0A       		.uleb128 0xa
 4709 191a 68180000 		.4byte	.LASF414
 4710 191e 1A       		.byte	0x1a
 4711 191f 95       		.byte	0x95
 4712 1920 4B010000 		.4byte	0x14b
 4713 1924 18       		.byte	0x18
 4714 1925 0A       		.uleb128 0xa
 4715 1926 0C1A0000 		.4byte	.LASF415
 4716 192a 1A       		.byte	0x1a
 4717 192b 96       		.byte	0x96
 4718 192c 4B010000 		.4byte	0x14b
 4719 1930 1C       		.byte	0x1c
 4720 1931 0A       		.uleb128 0xa
 4721 1932 0F130000 		.4byte	.LASF416
 4722 1936 1A       		.byte	0x1a
 4723 1937 97       		.byte	0x97
ARM GAS  C:\Users\haske\AppData\Local\Temp\ccFGJ08j.s 			page 99


 4724 1938 8D090000 		.4byte	0x98d
 4725 193c 20       		.byte	0x20
 4726 193d 0A       		.uleb128 0xa
 4727 193e 09120000 		.4byte	.LASF417
 4728 1942 1A       		.byte	0x1a
 4729 1943 98       		.byte	0x98
 4730 1944 8D090000 		.4byte	0x98d
 4731 1948 24       		.byte	0x24
 4732 1949 0A       		.uleb128 0xa
 4733 194a A5040000 		.4byte	.LASF418
 4734 194e 1A       		.byte	0x1a
 4735 194f 99       		.byte	0x99
 4736 1950 8D090000 		.4byte	0x98d
 4737 1954 28       		.byte	0x28
 4738 1955 0A       		.uleb128 0xa
 4739 1956 7B060000 		.4byte	.LASF419
 4740 195a 1A       		.byte	0x1a
 4741 195b 9A       		.byte	0x9a
 4742 195c 8D090000 		.4byte	0x98d
 4743 1960 2C       		.byte	0x2c
 4744 1961 0A       		.uleb128 0xa
 4745 1962 6A0A0000 		.4byte	.LASF420
 4746 1966 1A       		.byte	0x1a
 4747 1967 9B       		.byte	0x9b
 4748 1968 8B010000 		.4byte	0x18b
 4749 196c 30       		.byte	0x30
 4750 196d 0A       		.uleb128 0xa
 4751 196e 63060000 		.4byte	.LASF421
 4752 1972 1A       		.byte	0x1a
 4753 1973 9D       		.byte	0x9d
 4754 1974 4B010000 		.4byte	0x14b
 4755 1978 38       		.byte	0x38
 4756 1979 0C       		.uleb128 0xc
 4757 197a 22050000 		.4byte	.LASF422
 4758 197e 1A       		.byte	0x1a
 4759 197f 9F       		.byte	0x9f
 4760 1980 96010000 		.4byte	0x196
 4761 1984 01       		.byte	0x1
 4762 1985 04       		.byte	0x4
 4763 1986 04       		.byte	0x4
 4764 1987 3C       		.byte	0x3c
 4765 1988 0C       		.uleb128 0xc
 4766 1989 BC1B0000 		.4byte	.LASF423
 4767 198d 1A       		.byte	0x1a
 4768 198e A0       		.byte	0xa0
 4769 198f 96010000 		.4byte	0x196
 4770 1993 01       		.byte	0x1
 4771 1994 04       		.byte	0x4
 4772 1995 00       		.byte	0
 4773 1996 3C       		.byte	0x3c
 4774 1997 0C       		.uleb128 0xc
 4775 1998 D41B0000 		.4byte	.LASF424
 4776 199c 1A       		.byte	0x1a
 4777 199d A1       		.byte	0xa1
 4778 199e E1000000 		.4byte	0xe1
 4779 19a2 01       		.byte	0x1
 4780 19a3 01       		.byte	0x1
ARM GAS  C:\Users\haske\AppData\Local\Temp\ccFGJ08j.s 			page 100


 4781 19a4 07       		.byte	0x7
 4782 19a5 3D       		.byte	0x3d
 4783 19a6 00       		.byte	0
 4784 19a7 08       		.uleb128 0x8
 4785 19a8 08       		.byte	0x8
 4786 19a9 1A       		.byte	0x1a
 4787 19aa A3       		.byte	0xa3
 4788 19ab C8190000 		.4byte	0x19c8
 4789 19af 0A       		.uleb128 0xa
 4790 19b0 47050000 		.4byte	.LASF425
 4791 19b4 1A       		.byte	0x1a
 4792 19b5 A5       		.byte	0xa5
 4793 19b6 87170000 		.4byte	0x1787
 4794 19ba 00       		.byte	0
 4795 19bb 0A       		.uleb128 0xa
 4796 19bc 9C1B0000 		.4byte	.LASF426
 4797 19c0 1A       		.byte	0x1a
 4798 19c1 A6       		.byte	0xa6
 4799 19c2 0D010000 		.4byte	0x10d
 4800 19c6 04       		.byte	0x4
 4801 19c7 00       		.byte	0
 4802 19c8 13       		.uleb128 0x13
 4803 19c9 40       		.byte	0x40
 4804 19ca 1A       		.byte	0x1a
 4805 19cb 8C       		.byte	0x8c
 4806 19cc E7190000 		.4byte	0x19e7
 4807 19d0 15       		.uleb128 0x15
 4808 19d1 360D0000 		.4byte	.LASF427
 4809 19d5 1A       		.byte	0x1a
 4810 19d6 A2       		.byte	0xa2
 4811 19d7 C9180000 		.4byte	0x18c9
 4812 19db 15       		.uleb128 0x15
 4813 19dc 4E1D0000 		.4byte	.LASF428
 4814 19e0 1A       		.byte	0x1a
 4815 19e1 A7       		.byte	0xa7
 4816 19e2 A7190000 		.4byte	0x19a7
 4817 19e6 00       		.byte	0
 4818 19e7 0D       		.uleb128 0xd
 4819 19e8 83180000 		.4byte	.LASF429
 4820 19ec 4C       		.byte	0x4c
 4821 19ed 1A       		.byte	0x1a
 4822 19ee 84       		.byte	0x84
 4823 19ef 601A0000 		.4byte	0x1a60
 4824 19f3 0A       		.uleb128 0xa
 4825 19f4 41020000 		.4byte	.LASF212
 4826 19f8 1A       		.byte	0x1a
 4827 19f9 85       		.byte	0x85
 4828 19fa 87170000 		.4byte	0x1787
 4829 19fe 00       		.byte	0
 4830 19ff 0C       		.uleb128 0xc
 4831 1a00 10220000 		.4byte	.LASF430
 4832 1a04 1A       		.byte	0x1a
 4833 1a05 87       		.byte	0x87
 4834 1a06 E1000000 		.4byte	0xe1
 4835 1a0a 01       		.byte	0x1
 4836 1a0b 01       		.byte	0x1
 4837 1a0c 07       		.byte	0x7
ARM GAS  C:\Users\haske\AppData\Local\Temp\ccFGJ08j.s 			page 101


 4838 1a0d 01       		.byte	0x1
 4839 1a0e 0C       		.uleb128 0xc
 4840 1a0f B6190000 		.4byte	.LASF431
 4841 1a13 1A       		.byte	0x1a
 4842 1a14 88       		.byte	0x88
 4843 1a15 E1000000 		.4byte	0xe1
 4844 1a19 01       		.byte	0x1
 4845 1a1a 01       		.byte	0x1
 4846 1a1b 06       		.byte	0x6
 4847 1a1c 01       		.byte	0x1
 4848 1a1d 0C       		.uleb128 0xc
 4849 1a1e 70200000 		.4byte	.LASF432
 4850 1a22 1A       		.byte	0x1a
 4851 1a23 89       		.byte	0x89
 4852 1a24 E1000000 		.4byte	0xe1
 4853 1a28 01       		.byte	0x1
 4854 1a29 01       		.byte	0x1
 4855 1a2a 05       		.byte	0x5
 4856 1a2b 01       		.byte	0x1
 4857 1a2c 0C       		.uleb128 0xc
 4858 1a2d 220E0000 		.4byte	.LASF433
 4859 1a31 1A       		.byte	0x1a
 4860 1a32 8A       		.byte	0x8a
 4861 1a33 E1000000 		.4byte	0xe1
 4862 1a37 01       		.byte	0x1
 4863 1a38 01       		.byte	0x1
 4864 1a39 04       		.byte	0x4
 4865 1a3a 01       		.byte	0x1
 4866 1a3b 0A       		.uleb128 0xa
 4867 1a3c 96070000 		.4byte	.LASF434
 4868 1a40 1A       		.byte	0x1a
 4869 1a41 A8       		.byte	0xa8
 4870 1a42 C8190000 		.4byte	0x19c8
 4871 1a46 04       		.byte	0x4
 4872 1a47 0A       		.uleb128 0xa
 4873 1a48 75170000 		.4byte	.LASF435
 4874 1a4c 1A       		.byte	0x1a
 4875 1a4d AA       		.byte	0xaa
 4876 1a4e 0D010000 		.4byte	0x10d
 4877 1a52 44       		.byte	0x44
 4878 1a53 0A       		.uleb128 0xa
 4879 1a54 8F150000 		.4byte	.LASF436
 4880 1a58 1A       		.byte	0x1a
 4881 1a59 AB       		.byte	0xab
 4882 1a5a 0D010000 		.4byte	0x10d
 4883 1a5e 48       		.byte	0x48
 4884 1a5f 00       		.byte	0
 4885 1a60 02       		.uleb128 0x2
 4886 1a61 83180000 		.4byte	.LASF429
 4887 1a65 1A       		.byte	0x1a
 4888 1a66 AC       		.byte	0xac
 4889 1a67 E7190000 		.4byte	0x19e7
 4890 1a6b 0D       		.uleb128 0xd
 4891 1a6c B01B0000 		.4byte	.LASF437
 4892 1a70 5C       		.byte	0x5c
 4893 1a71 1A       		.byte	0x1a
 4894 1a72 B0       		.byte	0xb0
ARM GAS  C:\Users\haske\AppData\Local\Temp\ccFGJ08j.s 			page 102


 4895 1a73 B41A0000 		.4byte	0x1ab4
 4896 1a77 0A       		.uleb128 0xa
 4897 1a78 501C0000 		.4byte	.LASF362
 4898 1a7c 1A       		.byte	0x1a
 4899 1a7d B1       		.byte	0xb1
 4900 1a7e 9B180000 		.4byte	0x189b
 4901 1a82 00       		.byte	0
 4902 1a83 0A       		.uleb128 0xa
 4903 1a84 F20A0000 		.4byte	.LASF438
 4904 1a88 1A       		.byte	0x1a
 4905 1a89 B2       		.byte	0xb2
 4906 1a8a 601A0000 		.4byte	0x1a60
 4907 1a8e 04       		.byte	0x4
 4908 1a8f 0A       		.uleb128 0xa
 4909 1a90 BF220000 		.4byte	.LASF439
 4910 1a94 1A       		.byte	0x1a
 4911 1a95 B3       		.byte	0xb3
 4912 1a96 8D090000 		.4byte	0x98d
 4913 1a9a 50       		.byte	0x50
 4914 1a9b 0A       		.uleb128 0xa
 4915 1a9c 72110000 		.4byte	.LASF440
 4916 1aa0 1A       		.byte	0x1a
 4917 1aa1 B4       		.byte	0xb4
 4918 1aa2 391B0000 		.4byte	0x1b39
 4919 1aa6 54       		.byte	0x54
 4920 1aa7 0A       		.uleb128 0xa
 4921 1aa8 E70D0000 		.4byte	.LASF441
 4922 1aac 1A       		.byte	0x1a
 4923 1aad B5       		.byte	0xb5
 4924 1aae 72100000 		.4byte	0x1072
 4925 1ab2 58       		.byte	0x58
 4926 1ab3 00       		.byte	0
 4927 1ab4 0D       		.uleb128 0xd
 4928 1ab5 C6220000 		.4byte	.LASF442
 4929 1ab9 20       		.byte	0x20
 4930 1aba 1B       		.byte	0x1b
 4931 1abb 3B       		.byte	0x3b
 4932 1abc 391B0000 		.4byte	0x1b39
 4933 1ac0 0A       		.uleb128 0xa
 4934 1ac1 E30F0000 		.4byte	.LASF443
 4935 1ac5 1B       		.byte	0x1b
 4936 1ac6 3C       		.byte	0x3c
 4937 1ac7 7A120000 		.4byte	0x127a
 4938 1acb 00       		.byte	0
 4939 1acc 0A       		.uleb128 0xa
 4940 1acd 2F230000 		.4byte	.LASF444
 4941 1ad1 1B       		.byte	0x1b
 4942 1ad2 3D       		.byte	0x3d
 4943 1ad3 07170000 		.4byte	0x1707
 4944 1ad7 0C       		.byte	0xc
 4945 1ad8 0A       		.uleb128 0xa
 4946 1ad9 DF160000 		.4byte	.LASF445
 4947 1add 1B       		.byte	0x1b
 4948 1ade 3F       		.byte	0x3f
 4949 1adf A21E0000 		.4byte	0x1ea2
 4950 1ae3 10       		.byte	0x10
 4951 1ae4 0A       		.uleb128 0xa
ARM GAS  C:\Users\haske\AppData\Local\Temp\ccFGJ08j.s 			page 103


 4952 1ae5 90050000 		.4byte	.LASF446
 4953 1ae9 1B       		.byte	0x1b
 4954 1aea 40       		.byte	0x40
 4955 1aeb BE1E0000 		.4byte	0x1ebe
 4956 1aef 14       		.byte	0x14
 4957 1af0 0A       		.uleb128 0xa
 4958 1af1 30210000 		.4byte	.LASF45
 4959 1af5 1B       		.byte	0x1b
 4960 1af6 45       		.byte	0x45
 4961 1af7 C6000000 		.4byte	0xc6
 4962 1afb 18       		.byte	0x18
 4963 1afc 0C       		.uleb128 0xc
 4964 1afd 77010000 		.4byte	.LASF447
 4965 1b01 1B       		.byte	0x1b
 4966 1b02 48       		.byte	0x48
 4967 1b03 E1000000 		.4byte	0xe1
 4968 1b07 01       		.byte	0x1
 4969 1b08 01       		.byte	0x1
 4970 1b09 07       		.byte	0x7
 4971 1b0a 1C       		.byte	0x1c
 4972 1b0b 0C       		.uleb128 0xc
 4973 1b0c 94180000 		.4byte	.LASF448
 4974 1b10 1B       		.byte	0x1b
 4975 1b11 49       		.byte	0x49
 4976 1b12 E1000000 		.4byte	0xe1
 4977 1b16 01       		.byte	0x1
 4978 1b17 01       		.byte	0x1
 4979 1b18 06       		.byte	0x6
 4980 1b19 1C       		.byte	0x1c
 4981 1b1a 0C       		.uleb128 0xc
 4982 1b1b F2210000 		.4byte	.LASF449
 4983 1b1f 1B       		.byte	0x1b
 4984 1b20 4A       		.byte	0x4a
 4985 1b21 E1000000 		.4byte	0xe1
 4986 1b25 01       		.byte	0x1
 4987 1b26 01       		.byte	0x1
 4988 1b27 05       		.byte	0x5
 4989 1b28 1C       		.byte	0x1c
 4990 1b29 0C       		.uleb128 0xc
 4991 1b2a 81190000 		.4byte	.LASF450
 4992 1b2e 1B       		.byte	0x1b
 4993 1b2f 4C       		.byte	0x4c
 4994 1b30 E1000000 		.4byte	0xe1
 4995 1b34 01       		.byte	0x1
 4996 1b35 01       		.byte	0x1
 4997 1b36 04       		.byte	0x4
 4998 1b37 1C       		.byte	0x1c
 4999 1b38 00       		.byte	0
 5000 1b39 06       		.uleb128 0x6
 5001 1b3a 04       		.byte	0x4
 5002 1b3b B41A0000 		.4byte	0x1ab4
 5003 1b3f 02       		.uleb128 0x2
 5004 1b40 DC0D0000 		.4byte	.LASF451
 5005 1b44 1A       		.byte	0x1a
 5006 1b45 B7       		.byte	0xb7
 5007 1b46 6B1A0000 		.4byte	0x1a6b
 5008 1b4a 02       		.uleb128 0x2
ARM GAS  C:\Users\haske\AppData\Local\Temp\ccFGJ08j.s 			page 104


 5009 1b4b 78050000 		.4byte	.LASF452
 5010 1b4f 0F       		.byte	0xf
 5011 1b50 3C       		.byte	0x3c
 5012 1b51 F7000000 		.4byte	0xf7
 5013 1b55 02       		.uleb128 0x2
 5014 1b56 3F200000 		.4byte	.LASF453
 5015 1b5a 0F       		.byte	0xf
 5016 1b5b 7D       		.byte	0x7d
 5017 1b5c 0D010000 		.4byte	0x10d
 5018 1b60 11       		.uleb128 0x11
 5019 1b61 01       		.byte	0x1
 5020 1b62 69000000 		.4byte	0x69
 5021 1b66 1C       		.byte	0x1c
 5022 1b67 1F       		.byte	0x1f
 5023 1b68 7F1B0000 		.4byte	0x1b7f
 5024 1b6c 12       		.uleb128 0x12
 5025 1b6d 9F090000 		.4byte	.LASF454
 5026 1b71 00       		.byte	0
 5027 1b72 12       		.uleb128 0x12
 5028 1b73 68030000 		.4byte	.LASF455
 5029 1b77 01       		.byte	0x1
 5030 1b78 12       		.uleb128 0x12
 5031 1b79 53180000 		.4byte	.LASF456
 5032 1b7d 02       		.byte	0x2
 5033 1b7e 00       		.byte	0
 5034 1b7f 02       		.uleb128 0x2
 5035 1b80 82210000 		.4byte	.LASF457
 5036 1b84 1C       		.byte	0x1c
 5037 1b85 23       		.byte	0x23
 5038 1b86 601B0000 		.4byte	0x1b60
 5039 1b8a 02       		.uleb128 0x2
 5040 1b8b 331E0000 		.4byte	.LASF458
 5041 1b8f 1C       		.byte	0x1c
 5042 1b90 25       		.byte	0x25
 5043 1b91 951B0000 		.4byte	0x1b95
 5044 1b95 06       		.uleb128 0x6
 5045 1b96 04       		.byte	0x4
 5046 1b97 9B1B0000 		.4byte	0x1b9b
 5047 1b9b 0F       		.uleb128 0xf
 5048 1b9c 7F1B0000 		.4byte	0x1b7f
 5049 1ba0 AF1B0000 		.4byte	0x1baf
 5050 1ba4 10       		.uleb128 0x10
 5051 1ba5 8D090000 		.4byte	0x98d
 5052 1ba9 10       		.uleb128 0x10
 5053 1baa C6000000 		.4byte	0xc6
 5054 1bae 00       		.byte	0
 5055 1baf 02       		.uleb128 0x2
 5056 1bb0 49010000 		.4byte	.LASF459
 5057 1bb4 1D       		.byte	0x1d
 5058 1bb5 26       		.byte	0x26
 5059 1bb6 E1000000 		.4byte	0xe1
 5060 1bba 02       		.uleb128 0x2
 5061 1bbb 4E170000 		.4byte	.LASF460
 5062 1bbf 1D       		.byte	0x1d
 5063 1bc0 30       		.byte	0x30
 5064 1bc1 E1000000 		.4byte	0xe1
 5065 1bc5 08       		.uleb128 0x8
ARM GAS  C:\Users\haske\AppData\Local\Temp\ccFGJ08j.s 			page 105


 5066 1bc6 08       		.byte	0x8
 5067 1bc7 1E       		.byte	0x1e
 5068 1bc8 27       		.byte	0x27
 5069 1bc9 071C0000 		.4byte	0x1c07
 5070 1bcd 0A       		.uleb128 0xa
 5071 1bce 37170000 		.4byte	.LASF461
 5072 1bd2 1E       		.byte	0x1e
 5073 1bd3 28       		.byte	0x28
 5074 1bd4 071C0000 		.4byte	0x1c07
 5075 1bd8 00       		.byte	0
 5076 1bd9 0C       		.uleb128 0xc
 5077 1bda C1210000 		.4byte	.LASF462
 5078 1bde 1E       		.byte	0x1e
 5079 1bdf 29       		.byte	0x29
 5080 1be0 0D010000 		.4byte	0x10d
 5081 1be4 04       		.byte	0x4
 5082 1be5 18       		.byte	0x18
 5083 1be6 08       		.byte	0x8
 5084 1be7 04       		.byte	0x4
 5085 1be8 0C       		.uleb128 0xc
 5086 1be9 69020000 		.4byte	.LASF463
 5087 1bed 1E       		.byte	0x1e
 5088 1bee 2A       		.byte	0x2a
 5089 1bef 0D010000 		.4byte	0x10d
 5090 1bf3 04       		.byte	0x4
 5091 1bf4 01       		.byte	0x1
 5092 1bf5 07       		.byte	0x7
 5093 1bf6 04       		.byte	0x4
 5094 1bf7 0C       		.uleb128 0xc
 5095 1bf8 770D0000 		.4byte	.LASF464
 5096 1bfc 1E       		.byte	0x1e
 5097 1bfd 2B       		.byte	0x2b
 5098 1bfe 0D010000 		.4byte	0x10d
 5099 1c02 04       		.byte	0x4
 5100 1c03 01       		.byte	0x1
 5101 1c04 06       		.byte	0x6
 5102 1c05 04       		.byte	0x4
 5103 1c06 00       		.byte	0
 5104 1c07 06       		.uleb128 0x6
 5105 1c08 04       		.byte	0x4
 5106 1c09 76090000 		.4byte	0x976
 5107 1c0d 02       		.uleb128 0x2
 5108 1c0e 490B0000 		.4byte	.LASF465
 5109 1c12 1E       		.byte	0x1e
 5110 1c13 2C       		.byte	0x2c
 5111 1c14 C51B0000 		.4byte	0x1bc5
 5112 1c18 0D       		.uleb128 0xd
 5113 1c19 38190000 		.4byte	.LASF466
 5114 1c1d 1C       		.byte	0x1c
 5115 1c1e 1F       		.byte	0x1f
 5116 1c1f 31       		.byte	0x31
 5117 1c20 A61C0000 		.4byte	0x1ca6
 5118 1c24 0A       		.uleb128 0xa
 5119 1c25 81160000 		.4byte	.LASF467
 5120 1c29 1F       		.byte	0x1f
 5121 1c2a 32       		.byte	0x32
 5122 1c2b A61C0000 		.4byte	0x1ca6
ARM GAS  C:\Users\haske\AppData\Local\Temp\ccFGJ08j.s 			page 106


 5123 1c2f 00       		.byte	0
 5124 1c30 0A       		.uleb128 0xa
 5125 1c31 B1020000 		.4byte	.LASF468
 5126 1c35 1F       		.byte	0x1f
 5127 1c36 33       		.byte	0x33
 5128 1c37 491D0000 		.4byte	0x1d49
 5129 1c3b 04       		.byte	0x4
 5130 1c3c 0A       		.uleb128 0xa
 5131 1c3d EF1B0000 		.4byte	.LASF469
 5132 1c41 1F       		.byte	0x1f
 5133 1c42 34       		.byte	0x34
 5134 1c43 491D0000 		.4byte	0x1d49
 5135 1c47 08       		.byte	0x8
 5136 1c48 0A       		.uleb128 0xa
 5137 1c49 30210000 		.4byte	.LASF45
 5138 1c4d 1F       		.byte	0x1f
 5139 1c4e 36       		.byte	0x36
 5140 1c4f C6000000 		.4byte	0xc6
 5141 1c53 0C       		.byte	0xc
 5142 1c54 0A       		.uleb128 0xa
 5143 1c55 69120000 		.4byte	.LASF470
 5144 1c59 1F       		.byte	0x1f
 5145 1c5a 38       		.byte	0x38
 5146 1c5b 5F1D0000 		.4byte	0x1d5f
 5147 1c5f 10       		.byte	0x10
 5148 1c60 0A       		.uleb128 0xa
 5149 1c61 490E0000 		.4byte	.LASF471
 5150 1c65 1F       		.byte	0x1f
 5151 1c66 3A       		.byte	0x3a
 5152 1c67 23010000 		.4byte	0x123
 5153 1c6b 14       		.byte	0x14
 5154 1c6c 0A       		.uleb128 0xa
 5155 1c6d 1D220000 		.4byte	.LASF472
 5156 1c71 1F       		.byte	0x1f
 5157 1c72 3B       		.byte	0x3b
 5158 1c73 23010000 		.4byte	0x123
 5159 1c77 16       		.byte	0x16
 5160 1c78 0C       		.uleb128 0xc
 5161 1c79 B40F0000 		.4byte	.LASF473
 5162 1c7d 1F       		.byte	0x1f
 5163 1c7e 3C       		.byte	0x3c
 5164 1c7f 0D010000 		.4byte	0x10d
 5165 1c83 04       		.byte	0x4
 5166 1c84 02       		.byte	0x2
 5167 1c85 1E       		.byte	0x1e
 5168 1c86 18       		.byte	0x18
 5169 1c87 0C       		.uleb128 0xc
 5170 1c88 2D050000 		.4byte	.LASF474
 5171 1c8c 1F       		.byte	0x1f
 5172 1c8d 3D       		.byte	0x3d
 5173 1c8e 0D010000 		.4byte	0x10d
 5174 1c92 04       		.byte	0x4
 5175 1c93 02       		.byte	0x2
 5176 1c94 1C       		.byte	0x1c
 5177 1c95 18       		.byte	0x18
 5178 1c96 0C       		.uleb128 0xc
 5179 1c97 11110000 		.4byte	.LASF475
ARM GAS  C:\Users\haske\AppData\Local\Temp\ccFGJ08j.s 			page 107


 5180 1c9b 1F       		.byte	0x1f
 5181 1c9c 3E       		.byte	0x3e
 5182 1c9d 0D010000 		.4byte	0x10d
 5183 1ca1 04       		.byte	0x4
 5184 1ca2 10       		.byte	0x10
 5185 1ca3 0C       		.byte	0xc
 5186 1ca4 18       		.byte	0x18
 5187 1ca5 00       		.byte	0
 5188 1ca6 06       		.uleb128 0x6
 5189 1ca7 04       		.byte	0x4
 5190 1ca8 AC1C0000 		.4byte	0x1cac
 5191 1cac 0E       		.uleb128 0xe
 5192 1cad 181C0000 		.4byte	0x1c18
 5193 1cb1 06       		.uleb128 0x6
 5194 1cb2 04       		.byte	0x4
 5195 1cb3 B71C0000 		.4byte	0x1cb7
 5196 1cb7 0D       		.uleb128 0xd
 5197 1cb8 92120000 		.4byte	.LASF476
 5198 1cbc 1C       		.byte	0x1c
 5199 1cbd 20       		.byte	0x20
 5200 1cbe 5E       		.byte	0x5e
 5201 1cbf 391D0000 		.4byte	0x1d39
 5202 1cc3 0A       		.uleb128 0xa
 5203 1cc4 6B0F0000 		.4byte	.LASF477
 5204 1cc8 20       		.byte	0x20
 5205 1cc9 5F       		.byte	0x5f
 5206 1cca 8D090000 		.4byte	0x98d
 5207 1cce 00       		.byte	0
 5208 1ccf 0A       		.uleb128 0xa
 5209 1cd0 841D0000 		.4byte	.LASF478
 5210 1cd4 20       		.byte	0x20
 5211 1cd5 60       		.byte	0x60
 5212 1cd6 8D090000 		.4byte	0x98d
 5213 1cda 04       		.byte	0x4
 5214 1cdb 0A       		.uleb128 0xa
 5215 1cdc 82170000 		.4byte	.LASF479
 5216 1ce0 20       		.byte	0x20
 5217 1ce1 61       		.byte	0x61
 5218 1ce2 971E0000 		.4byte	0x1e97
 5219 1ce6 08       		.byte	0x8
 5220 1ce7 0A       		.uleb128 0xa
 5221 1ce8 30210000 		.4byte	.LASF45
 5222 1cec 20       		.byte	0x20
 5223 1ced 62       		.byte	0x62
 5224 1cee C6000000 		.4byte	0xc6
 5225 1cf2 0C       		.byte	0xc
 5226 1cf3 0A       		.uleb128 0xa
 5227 1cf4 650F0000 		.4byte	.LASF480
 5228 1cf8 20       		.byte	0x20
 5229 1cf9 63       		.byte	0x63
 5230 1cfa C6000000 		.4byte	0xc6
 5231 1cfe 10       		.byte	0x10
 5232 1cff 0A       		.uleb128 0xa
 5233 1d00 A5220000 		.4byte	.LASF481
 5234 1d04 20       		.byte	0x20
 5235 1d05 64       		.byte	0x64
 5236 1d06 B11C0000 		.4byte	0x1cb1
ARM GAS  C:\Users\haske\AppData\Local\Temp\ccFGJ08j.s 			page 108


 5237 1d0a 14       		.byte	0x14
 5238 1d0b 0C       		.uleb128 0xc
 5239 1d0c B9120000 		.4byte	.LASF482
 5240 1d10 20       		.byte	0x20
 5241 1d11 65       		.byte	0x65
 5242 1d12 E1000000 		.4byte	0xe1
 5243 1d16 01       		.byte	0x1
 5244 1d17 01       		.byte	0x1
 5245 1d18 07       		.byte	0x7
 5246 1d19 18       		.byte	0x18
 5247 1d1a 0C       		.uleb128 0xc
 5248 1d1b 3C090000 		.4byte	.LASF483
 5249 1d1f 20       		.byte	0x20
 5250 1d20 66       		.byte	0x66
 5251 1d21 E1000000 		.4byte	0xe1
 5252 1d25 01       		.byte	0x1
 5253 1d26 01       		.byte	0x1
 5254 1d27 06       		.byte	0x6
 5255 1d28 18       		.byte	0x18
 5256 1d29 0C       		.uleb128 0xc
 5257 1d2a 0C160000 		.4byte	.LASF484
 5258 1d2e 20       		.byte	0x20
 5259 1d2f 67       		.byte	0x67
 5260 1d30 E1000000 		.4byte	0xe1
 5261 1d34 01       		.byte	0x1
 5262 1d35 01       		.byte	0x1
 5263 1d36 05       		.byte	0x5
 5264 1d37 18       		.byte	0x18
 5265 1d38 00       		.byte	0
 5266 1d39 16       		.uleb128 0x16
 5267 1d3a 491D0000 		.4byte	0x1d49
 5268 1d3e 10       		.uleb128 0x10
 5269 1d3f A61C0000 		.4byte	0x1ca6
 5270 1d43 10       		.uleb128 0x10
 5271 1d44 8D090000 		.4byte	0x98d
 5272 1d48 00       		.byte	0
 5273 1d49 06       		.uleb128 0x6
 5274 1d4a 04       		.byte	0x4
 5275 1d4b 391D0000 		.4byte	0x1d39
 5276 1d4f 16       		.uleb128 0x16
 5277 1d50 5F1D0000 		.4byte	0x1d5f
 5278 1d54 10       		.uleb128 0x10
 5279 1d55 A61C0000 		.4byte	0x1ca6
 5280 1d59 10       		.uleb128 0x10
 5281 1d5a B11C0000 		.4byte	0x1cb1
 5282 1d5e 00       		.byte	0
 5283 1d5f 06       		.uleb128 0x6
 5284 1d60 04       		.byte	0x4
 5285 1d61 4F1D0000 		.4byte	0x1d4f
 5286 1d65 02       		.uleb128 0x2
 5287 1d66 FA0C0000 		.4byte	.LASF485
 5288 1d6a 1F       		.byte	0x1f
 5289 1d6b 3F       		.byte	0x3f
 5290 1d6c 181C0000 		.4byte	0x1c18
 5291 1d70 11       		.uleb128 0x11
 5292 1d71 01       		.byte	0x1
 5293 1d72 69000000 		.4byte	0x69
ARM GAS  C:\Users\haske\AppData\Local\Temp\ccFGJ08j.s 			page 109


 5294 1d76 20       		.byte	0x20
 5295 1d77 20       		.byte	0x20
 5296 1d78 971E0000 		.4byte	0x1e97
 5297 1d7c 12       		.uleb128 0x12
 5298 1d7d DD040000 		.4byte	.LASF486
 5299 1d81 00       		.byte	0
 5300 1d82 12       		.uleb128 0x12
 5301 1d83 FE170000 		.4byte	.LASF487
 5302 1d87 01       		.byte	0x1
 5303 1d88 12       		.uleb128 0x12
 5304 1d89 3E160000 		.4byte	.LASF488
 5305 1d8d 02       		.byte	0x2
 5306 1d8e 12       		.uleb128 0x12
 5307 1d8f 3A210000 		.4byte	.LASF489
 5308 1d93 03       		.byte	0x3
 5309 1d94 12       		.uleb128 0x12
 5310 1d95 8C160000 		.4byte	.LASF490
 5311 1d99 04       		.byte	0x4
 5312 1d9a 12       		.uleb128 0x12
 5313 1d9b 0A030000 		.4byte	.LASF491
 5314 1d9f 05       		.byte	0x5
 5315 1da0 12       		.uleb128 0x12
 5316 1da1 C2160000 		.4byte	.LASF492
 5317 1da5 06       		.byte	0x6
 5318 1da6 12       		.uleb128 0x12
 5319 1da7 BE0C0000 		.4byte	.LASF493
 5320 1dab 07       		.byte	0x7
 5321 1dac 12       		.uleb128 0x12
 5322 1dad E3220000 		.4byte	.LASF494
 5323 1db1 08       		.byte	0x8
 5324 1db2 12       		.uleb128 0x12
 5325 1db3 8E130000 		.4byte	.LASF495
 5326 1db7 09       		.byte	0x9
 5327 1db8 12       		.uleb128 0x12
 5328 1db9 89010000 		.4byte	.LASF496
 5329 1dbd 0A       		.byte	0xa
 5330 1dbe 12       		.uleb128 0x12
 5331 1dbf C7120000 		.4byte	.LASF497
 5332 1dc3 0B       		.byte	0xb
 5333 1dc4 12       		.uleb128 0x12
 5334 1dc5 F9020000 		.4byte	.LASF498
 5335 1dc9 0C       		.byte	0xc
 5336 1dca 12       		.uleb128 0x12
 5337 1dcb E5200000 		.4byte	.LASF499
 5338 1dcf 0D       		.byte	0xd
 5339 1dd0 12       		.uleb128 0x12
 5340 1dd1 52070000 		.4byte	.LASF500
 5341 1dd5 0E       		.byte	0xe
 5342 1dd6 12       		.uleb128 0x12
 5343 1dd7 711E0000 		.4byte	.LASF501
 5344 1ddb 0F       		.byte	0xf
 5345 1ddc 12       		.uleb128 0x12
 5346 1ddd 020F0000 		.4byte	.LASF502
 5347 1de1 10       		.byte	0x10
 5348 1de2 12       		.uleb128 0x12
 5349 1de3 760A0000 		.4byte	.LASF503
 5350 1de7 11       		.byte	0x11
ARM GAS  C:\Users\haske\AppData\Local\Temp\ccFGJ08j.s 			page 110


 5351 1de8 12       		.uleb128 0x12
 5352 1de9 000A0000 		.4byte	.LASF504
 5353 1ded 12       		.byte	0x12
 5354 1dee 12       		.uleb128 0x12
 5355 1def 89110000 		.4byte	.LASF505
 5356 1df3 13       		.byte	0x13
 5357 1df4 12       		.uleb128 0x12
 5358 1df5 9D000000 		.4byte	.LASF506
 5359 1df9 14       		.byte	0x14
 5360 1dfa 12       		.uleb128 0x12
 5361 1dfb B3070000 		.4byte	.LASF507
 5362 1dff 15       		.byte	0x15
 5363 1e00 12       		.uleb128 0x12
 5364 1e01 1F0D0000 		.4byte	.LASF508
 5365 1e05 16       		.byte	0x16
 5366 1e06 12       		.uleb128 0x12
 5367 1e07 9D190000 		.4byte	.LASF509
 5368 1e0b 17       		.byte	0x17
 5369 1e0c 12       		.uleb128 0x12
 5370 1e0d 06200000 		.4byte	.LASF510
 5371 1e11 18       		.byte	0x18
 5372 1e12 12       		.uleb128 0x12
 5373 1e13 1E1D0000 		.4byte	.LASF511
 5374 1e17 19       		.byte	0x19
 5375 1e18 12       		.uleb128 0x12
 5376 1e19 351D0000 		.4byte	.LASF512
 5377 1e1d 1A       		.byte	0x1a
 5378 1e1e 12       		.uleb128 0x12
 5379 1e1f 36060000 		.4byte	.LASF513
 5380 1e23 1B       		.byte	0x1b
 5381 1e24 12       		.uleb128 0x12
 5382 1e25 3A150000 		.4byte	.LASF514
 5383 1e29 1C       		.byte	0x1c
 5384 1e2a 12       		.uleb128 0x12
 5385 1e2b 67010000 		.4byte	.LASF515
 5386 1e2f 1D       		.byte	0x1d
 5387 1e30 12       		.uleb128 0x12
 5388 1e31 00110000 		.4byte	.LASF516
 5389 1e35 1E       		.byte	0x1e
 5390 1e36 12       		.uleb128 0x12
 5391 1e37 ED1F0000 		.4byte	.LASF517
 5392 1e3b 1F       		.byte	0x1f
 5393 1e3c 12       		.uleb128 0x12
 5394 1e3d 0F180000 		.4byte	.LASF518
 5395 1e41 20       		.byte	0x20
 5396 1e42 12       		.uleb128 0x12
 5397 1e43 26140000 		.4byte	.LASF519
 5398 1e47 21       		.byte	0x21
 5399 1e48 12       		.uleb128 0x12
 5400 1e49 2A020000 		.4byte	.LASF520
 5401 1e4d 22       		.byte	0x22
 5402 1e4e 12       		.uleb128 0x12
 5403 1e4f 51030000 		.4byte	.LASF521
 5404 1e53 23       		.byte	0x23
 5405 1e54 12       		.uleb128 0x12
 5406 1e55 5B110000 		.4byte	.LASF522
 5407 1e59 24       		.byte	0x24
ARM GAS  C:\Users\haske\AppData\Local\Temp\ccFGJ08j.s 			page 111


 5408 1e5a 12       		.uleb128 0x12
 5409 1e5b 28220000 		.4byte	.LASF523
 5410 1e5f 25       		.byte	0x25
 5411 1e60 12       		.uleb128 0x12
 5412 1e61 F1150000 		.4byte	.LASF524
 5413 1e65 26       		.byte	0x26
 5414 1e66 12       		.uleb128 0x12
 5415 1e67 210B0000 		.4byte	.LASF525
 5416 1e6b 27       		.byte	0x27
 5417 1e6c 12       		.uleb128 0x12
 5418 1e6d 281B0000 		.4byte	.LASF526
 5419 1e71 28       		.byte	0x28
 5420 1e72 12       		.uleb128 0x12
 5421 1e73 4D200000 		.4byte	.LASF527
 5422 1e77 29       		.byte	0x29
 5423 1e78 12       		.uleb128 0x12
 5424 1e79 D61F0000 		.4byte	.LASF528
 5425 1e7d 2A       		.byte	0x2a
 5426 1e7e 12       		.uleb128 0x12
 5427 1e7f 89200000 		.4byte	.LASF529
 5428 1e83 2B       		.byte	0x2b
 5429 1e84 12       		.uleb128 0x12
 5430 1e85 9C070000 		.4byte	.LASF530
 5431 1e89 2C       		.byte	0x2c
 5432 1e8a 12       		.uleb128 0x12
 5433 1e8b 1D1E0000 		.4byte	.LASF531
 5434 1e8f 2D       		.byte	0x2d
 5435 1e90 12       		.uleb128 0x12
 5436 1e91 A4150000 		.4byte	.LASF532
 5437 1e95 80       		.byte	0x80
 5438 1e96 00       		.byte	0
 5439 1e97 02       		.uleb128 0x2
 5440 1e98 72120000 		.4byte	.LASF533
 5441 1e9c 20       		.byte	0x20
 5442 1e9d 5C       		.byte	0x5c
 5443 1e9e 701D0000 		.4byte	0x1d70
 5444 1ea2 02       		.uleb128 0x2
 5445 1ea3 24190000 		.4byte	.LASF534
 5446 1ea7 1B       		.byte	0x1b
 5447 1ea8 34       		.byte	0x34
 5448 1ea9 AD1E0000 		.4byte	0x1ead
 5449 1ead 06       		.uleb128 0x6
 5450 1eae 04       		.byte	0x4
 5451 1eaf B31E0000 		.4byte	0x1eb3
 5452 1eb3 16       		.uleb128 0x16
 5453 1eb4 BE1E0000 		.4byte	0x1ebe
 5454 1eb8 10       		.uleb128 0x10
 5455 1eb9 391B0000 		.4byte	0x1b39
 5456 1ebd 00       		.byte	0
 5457 1ebe 02       		.uleb128 0x2
 5458 1ebf AB0C0000 		.4byte	.LASF535
 5459 1ec3 1B       		.byte	0x1b
 5460 1ec4 35       		.byte	0x35
 5461 1ec5 C91E0000 		.4byte	0x1ec9
 5462 1ec9 06       		.uleb128 0x6
 5463 1eca 04       		.byte	0x4
 5464 1ecb CF1E0000 		.4byte	0x1ecf
ARM GAS  C:\Users\haske\AppData\Local\Temp\ccFGJ08j.s 			page 112


 5465 1ecf 16       		.uleb128 0x16
 5466 1ed0 DF1E0000 		.4byte	0x1edf
 5467 1ed4 10       		.uleb128 0x10
 5468 1ed5 391B0000 		.4byte	0x1b39
 5469 1ed9 10       		.uleb128 0x10
 5470 1eda CC020000 		.4byte	0x2cc
 5471 1ede 00       		.byte	0
 5472 1edf 02       		.uleb128 0x2
 5473 1ee0 0F080000 		.4byte	.LASF536
 5474 1ee4 1B       		.byte	0x1b
 5475 1ee5 4E       		.byte	0x4e
 5476 1ee6 B41A0000 		.4byte	0x1ab4
 5477 1eea 08       		.uleb128 0x8
 5478 1eeb 1C       		.byte	0x1c
 5479 1eec 0F       		.byte	0xf
 5480 1eed 9B       		.byte	0x9b
 5481 1eee A11F0000 		.4byte	0x1fa1
 5482 1ef2 0A       		.uleb128 0xa
 5483 1ef3 AB030000 		.4byte	.LASF537
 5484 1ef7 0F       		.byte	0xf
 5485 1ef8 9C       		.byte	0x9c
 5486 1ef9 07170000 		.4byte	0x1707
 5487 1efd 00       		.byte	0
 5488 1efe 0A       		.uleb128 0xa
 5489 1eff CF0E0000 		.4byte	.LASF538
 5490 1f03 0F       		.byte	0xf
 5491 1f04 9D       		.byte	0x9d
 5492 1f05 0D010000 		.4byte	0x10d
 5493 1f09 04       		.byte	0x4
 5494 1f0a 0A       		.uleb128 0xa
 5495 1f0b CB0B0000 		.4byte	.LASF539
 5496 1f0f 0F       		.byte	0xf
 5497 1f10 9E       		.byte	0x9e
 5498 1f11 A11F0000 		.4byte	0x1fa1
 5499 1f15 08       		.byte	0x8
 5500 1f16 0A       		.uleb128 0xa
 5501 1f17 650B0000 		.4byte	.LASF540
 5502 1f1b 0F       		.byte	0xf
 5503 1f1c A0       		.byte	0xa0
 5504 1f1d AC1F0000 		.4byte	0x1fac
 5505 1f21 0C       		.byte	0xc
 5506 1f22 0A       		.uleb128 0xa
 5507 1f23 EF0B0000 		.4byte	.LASF541
 5508 1f27 0F       		.byte	0xf
 5509 1f28 A1       		.byte	0xa1
 5510 1f29 4B010000 		.4byte	0x14b
 5511 1f2d 10       		.byte	0x10
 5512 1f2e 0A       		.uleb128 0xa
 5513 1f2f CC1D0000 		.4byte	.LASF542
 5514 1f33 0F       		.byte	0xf
 5515 1f34 A3       		.byte	0xa3
 5516 1f35 23010000 		.4byte	0x123
 5517 1f39 14       		.byte	0x14
 5518 1f3a 0A       		.uleb128 0xa
 5519 1f3b 9D0C0000 		.4byte	.LASF543
 5520 1f3f 0F       		.byte	0xf
 5521 1f40 A4       		.byte	0xa4
ARM GAS  C:\Users\haske\AppData\Local\Temp\ccFGJ08j.s 			page 113


 5522 1f41 23010000 		.4byte	0x123
 5523 1f45 16       		.byte	0x16
 5524 1f46 0C       		.uleb128 0xc
 5525 1f47 CD080000 		.4byte	.LASF544
 5526 1f4b 0F       		.byte	0xf
 5527 1f4c A6       		.byte	0xa6
 5528 1f4d AF1B0000 		.4byte	0x1baf
 5529 1f51 01       		.byte	0x1
 5530 1f52 02       		.byte	0x2
 5531 1f53 06       		.byte	0x6
 5532 1f54 18       		.byte	0x18
 5533 1f55 0C       		.uleb128 0xc
 5534 1f56 EF010000 		.4byte	.LASF545
 5535 1f5a 0F       		.byte	0xf
 5536 1f5b A7       		.byte	0xa7
 5537 1f5c BA1B0000 		.4byte	0x1bba
 5538 1f60 01       		.byte	0x1
 5539 1f61 02       		.byte	0x2
 5540 1f62 04       		.byte	0x4
 5541 1f63 18       		.byte	0x18
 5542 1f64 0C       		.uleb128 0xc
 5543 1f65 2D0F0000 		.4byte	.LASF546
 5544 1f69 0F       		.byte	0xf
 5545 1f6a A8       		.byte	0xa8
 5546 1f6b BA1B0000 		.4byte	0x1bba
 5547 1f6f 01       		.byte	0x1
 5548 1f70 02       		.byte	0x2
 5549 1f71 02       		.byte	0x2
 5550 1f72 18       		.byte	0x18
 5551 1f73 0C       		.uleb128 0xc
 5552 1f74 22050000 		.4byte	.LASF422
 5553 1f78 0F       		.byte	0xf
 5554 1f79 A9       		.byte	0xa9
 5555 1f7a 96010000 		.4byte	0x196
 5556 1f7e 01       		.byte	0x1
 5557 1f7f 04       		.byte	0x4
 5558 1f80 04       		.byte	0x4
 5559 1f81 19       		.byte	0x19
 5560 1f82 0C       		.uleb128 0xc
 5561 1f83 5D230000 		.4byte	.LASF547
 5562 1f87 0F       		.byte	0xf
 5563 1f88 AA       		.byte	0xaa
 5564 1f89 E1000000 		.4byte	0xe1
 5565 1f8d 01       		.byte	0x1
 5566 1f8e 06       		.byte	0x6
 5567 1f8f 02       		.byte	0x2
 5568 1f90 1A       		.byte	0x1a
 5569 1f91 0C       		.uleb128 0xc
 5570 1f92 410C0000 		.4byte	.LASF548
 5571 1f96 0F       		.byte	0xf
 5572 1f97 AB       		.byte	0xab
 5573 1f98 E1000000 		.4byte	0xe1
 5574 1f9c 01       		.byte	0x1
 5575 1f9d 02       		.byte	0x2
 5576 1f9e 00       		.byte	0
 5577 1f9f 1A       		.byte	0x1a
 5578 1fa0 00       		.byte	0
ARM GAS  C:\Users\haske\AppData\Local\Temp\ccFGJ08j.s 			page 114


 5579 1fa1 06       		.uleb128 0x6
 5580 1fa2 04       		.byte	0x4
 5581 1fa3 DF1E0000 		.4byte	0x1edf
 5582 1fa7 23       		.uleb128 0x23
 5583 1fa8 5B210000 		.4byte	.LASF550
 5584 1fac 06       		.uleb128 0x6
 5585 1fad 04       		.byte	0x4
 5586 1fae A71F0000 		.4byte	0x1fa7
 5587 1fb2 02       		.uleb128 0x2
 5588 1fb3 880A0000 		.4byte	.LASF551
 5589 1fb7 0F       		.byte	0xf
 5590 1fb8 AC       		.byte	0xac
 5591 1fb9 EA1E0000 		.4byte	0x1eea
 5592 1fbd 06       		.uleb128 0x6
 5593 1fbe 04       		.byte	0x4
 5594 1fbf C31F0000 		.4byte	0x1fc3
 5595 1fc3 0E       		.uleb128 0xe
 5596 1fc4 651D0000 		.4byte	0x1d65
 5597 1fc8 06       		.uleb128 0x6
 5598 1fc9 04       		.byte	0x4
 5599 1fca B21F0000 		.4byte	0x1fb2
 5600 1fce 06       		.uleb128 0x6
 5601 1fcf 04       		.byte	0x4
 5602 1fd0 0D1C0000 		.4byte	0x1c0d
 5603 1fd4 02       		.uleb128 0x2
 5604 1fd5 54230000 		.4byte	.LASF552
 5605 1fd9 0F       		.byte	0xf
 5606 1fda BF       		.byte	0xbf
 5607 1fdb 93090000 		.4byte	0x993
 5608 1fdf 24       		.uleb128 0x24
 5609 1fe0 E3000000 		.4byte	.LASF553
 5610 1fe4 02       		.byte	0x2
 5611 1fe5 E3       		.byte	0xe3
 5612 1fe6 03       		.byte	0x3
 5613 1fe7 00200000 		.4byte	0x2000
 5614 1feb 25       		.uleb128 0x25
 5615 1fec 6100     		.ascii	"a\000"
 5616 1fee 02       		.byte	0x2
 5617 1fef E3       		.byte	0xe3
 5618 1ff0 00200000 		.4byte	0x2000
 5619 1ff4 26       		.uleb128 0x26
 5620 1ff5 910B0000 		.4byte	.LASF65
 5621 1ff9 02       		.byte	0x2
 5622 1ffa E3       		.byte	0xe3
 5623 1ffb 28050000 		.4byte	0x528
 5624 1fff 00       		.byte	0
 5625 2000 06       		.uleb128 0x6
 5626 2001 04       		.byte	0x4
 5627 2002 7A050000 		.4byte	0x57a
 5628 2006 24       		.uleb128 0x24
 5629 2007 18150000 		.4byte	.LASF554
 5630 200b 02       		.byte	0x2
 5631 200c 9E       		.byte	0x9e
 5632 200d 03       		.byte	0x3
 5633 200e 27200000 		.4byte	0x2027
 5634 2012 25       		.uleb128 0x25
 5635 2013 6100     		.ascii	"a\000"
ARM GAS  C:\Users\haske\AppData\Local\Temp\ccFGJ08j.s 			page 115


 5636 2015 02       		.byte	0x2
 5637 2016 9E       		.byte	0x9e
 5638 2017 00200000 		.4byte	0x2000
 5639 201b 26       		.uleb128 0x26
 5640 201c 4B030000 		.4byte	.LASF555
 5641 2020 02       		.byte	0x2
 5642 2021 9E       		.byte	0x9e
 5643 2022 0D010000 		.4byte	0x10d
 5644 2026 00       		.byte	0
 5645 2027 24       		.uleb128 0x24
 5646 2028 78110000 		.4byte	.LASF556
 5647 202c 02       		.byte	0x2
 5648 202d 94       		.byte	0x94
 5649 202e 03       		.byte	0x3
 5650 202f 48200000 		.4byte	0x2048
 5651 2033 25       		.uleb128 0x25
 5652 2034 6100     		.ascii	"a\000"
 5653 2036 02       		.byte	0x2
 5654 2037 94       		.byte	0x94
 5655 2038 00200000 		.4byte	0x2000
 5656 203c 26       		.uleb128 0x26
 5657 203d F3060000 		.4byte	.LASF557
 5658 2041 02       		.byte	0x2
 5659 2042 94       		.byte	0x94
 5660 2043 0D010000 		.4byte	0x10d
 5661 2047 00       		.byte	0
 5662 2048 24       		.uleb128 0x24
 5663 2049 0C1F0000 		.4byte	.LASF558
 5664 204d 02       		.byte	0x2
 5665 204e 8A       		.byte	0x8a
 5666 204f 03       		.byte	0x3
 5667 2050 69200000 		.4byte	0x2069
 5668 2054 25       		.uleb128 0x25
 5669 2055 6100     		.ascii	"a\000"
 5670 2057 02       		.byte	0x2
 5671 2058 8A       		.byte	0x8a
 5672 2059 00200000 		.4byte	0x2000
 5673 205d 26       		.uleb128 0x26
 5674 205e 381A0000 		.4byte	.LASF63
 5675 2062 02       		.byte	0x2
 5676 2063 8A       		.byte	0x8a
 5677 2064 01050000 		.4byte	0x501
 5678 2068 00       		.byte	0
 5679 2069 24       		.uleb128 0x24
 5680 206a 1A020000 		.4byte	.LASF559
 5681 206e 02       		.byte	0x2
 5682 206f 7E       		.byte	0x7e
 5683 2070 03       		.byte	0x3
 5684 2071 8A200000 		.4byte	0x208a
 5685 2075 25       		.uleb128 0x25
 5686 2076 6100     		.ascii	"a\000"
 5687 2078 02       		.byte	0x2
 5688 2079 7E       		.byte	0x7e
 5689 207a 00200000 		.4byte	0x2000
 5690 207e 25       		.uleb128 0x25
 5691 207f 76617200 		.ascii	"var\000"
 5692 2083 02       		.byte	0x2
ARM GAS  C:\Users\haske\AppData\Local\Temp\ccFGJ08j.s 			page 116


 5693 2084 7E       		.byte	0x7e
 5694 2085 C6000000 		.4byte	0xc6
 5695 2089 00       		.byte	0
 5696 208a 27       		.uleb128 0x27
 5697 208b AF140000 		.4byte	.LASF561
 5698 208f 01       		.byte	0x1
 5699 2090 6D       		.byte	0x6d
 5700 2091 00000000 		.4byte	.LFB161
 5701 2095 30000000 		.4byte	.LFE161-.LFB161
 5702 2099 01       		.uleb128 0x1
 5703 209a 9C       		.byte	0x9c
 5704 209b AF210000 		.4byte	0x21af
 5705 209f 28       		.uleb128 0x28
 5706 20a0 6F626A00 		.ascii	"obj\000"
 5707 20a4 01       		.byte	0x1
 5708 20a5 6D       		.byte	0x6d
 5709 20a6 AF210000 		.4byte	0x21af
 5710 20aa 00000000 		.4byte	.LLST0
 5711 20ae 29       		.uleb128 0x29
 5712 20af 6F080000 		.4byte	.LASF560
 5713 20b3 01       		.byte	0x1
 5714 20b4 6D       		.byte	0x6d
 5715 20b5 0D010000 		.4byte	0x10d
 5716 20b9 2C000000 		.4byte	.LLST1
 5717 20bd 2A       		.uleb128 0x2a
 5718 20be 6100     		.ascii	"a\000"
 5719 20c0 01       		.byte	0x1
 5720 20c1 6F       		.byte	0x6f
 5721 20c2 7A050000 		.4byte	0x57a
 5722 20c6 03       		.uleb128 0x3
 5723 20c7 91       		.byte	0x91
 5724 20c8 AC7F     		.sleb128 -84
 5725 20ca 2B       		.uleb128 0x2b
 5726 20cb 69200000 		.4byte	0x2069
 5727 20cf 0E000000 		.4byte	.LBB12
 5728 20d3 02000000 		.4byte	.LBE12-.LBB12
 5729 20d7 01       		.byte	0x1
 5730 20d8 71       		.byte	0x71
 5731 20d9 F0200000 		.4byte	0x20f0
 5732 20dd 2C       		.uleb128 0x2c
 5733 20de 7E200000 		.4byte	0x207e
 5734 20e2 66000000 		.4byte	.LLST2
 5735 20e6 2C       		.uleb128 0x2c
 5736 20e7 75200000 		.4byte	0x2075
 5737 20eb 79000000 		.4byte	.LLST3
 5738 20ef 00       		.byte	0
 5739 20f0 2B       		.uleb128 0x2b
 5740 20f1 48200000 		.4byte	0x2048
 5741 20f5 10000000 		.4byte	.LBB14
 5742 20f9 04000000 		.4byte	.LBE14-.LBB14
 5743 20fd 01       		.byte	0x1
 5744 20fe 72       		.byte	0x72
 5745 20ff 16210000 		.4byte	0x2116
 5746 2103 2C       		.uleb128 0x2c
 5747 2104 5D200000 		.4byte	0x205d
 5748 2108 8F000000 		.4byte	.LLST4
 5749 210c 2C       		.uleb128 0x2c
ARM GAS  C:\Users\haske\AppData\Local\Temp\ccFGJ08j.s 			page 117


 5750 210d 54200000 		.4byte	0x2054
 5751 2111 A3000000 		.4byte	.LLST5
 5752 2115 00       		.byte	0
 5753 2116 2B       		.uleb128 0x2b
 5754 2117 27200000 		.4byte	0x2027
 5755 211b 14000000 		.4byte	.LBB16
 5756 211f 04000000 		.4byte	.LBE16-.LBB16
 5757 2123 01       		.byte	0x1
 5758 2124 73       		.byte	0x73
 5759 2125 3C210000 		.4byte	0x213c
 5760 2129 2C       		.uleb128 0x2c
 5761 212a 3C200000 		.4byte	0x203c
 5762 212e B9000000 		.4byte	.LLST6
 5763 2132 2C       		.uleb128 0x2c
 5764 2133 33200000 		.4byte	0x2033
 5765 2137 CD000000 		.4byte	.LLST7
 5766 213b 00       		.byte	0
 5767 213c 2B       		.uleb128 0x2b
 5768 213d 06200000 		.4byte	0x2006
 5769 2141 18000000 		.4byte	.LBB18
 5770 2145 04000000 		.4byte	.LBE18-.LBB18
 5771 2149 01       		.byte	0x1
 5772 214a 74       		.byte	0x74
 5773 214b 62210000 		.4byte	0x2162
 5774 214f 2C       		.uleb128 0x2c
 5775 2150 1B200000 		.4byte	0x201b
 5776 2154 E3000000 		.4byte	.LLST8
 5777 2158 2C       		.uleb128 0x2c
 5778 2159 12200000 		.4byte	0x2012
 5779 215d 04010000 		.4byte	.LLST9
 5780 2161 00       		.byte	0
 5781 2162 2B       		.uleb128 0x2b
 5782 2163 DF1F0000 		.4byte	0x1fdf
 5783 2167 1C000000 		.4byte	.LBB20
 5784 216b 04000000 		.4byte	.LBE20-.LBB20
 5785 216f 01       		.byte	0x1
 5786 2170 75       		.byte	0x75
 5787 2171 88210000 		.4byte	0x2188
 5788 2175 2C       		.uleb128 0x2c
 5789 2176 F41F0000 		.4byte	0x1ff4
 5790 217a 1A010000 		.4byte	.LLST10
 5791 217e 2C       		.uleb128 0x2c
 5792 217f EB1F0000 		.4byte	0x1feb
 5793 2183 32010000 		.4byte	.LLST11
 5794 2187 00       		.byte	0
 5795 2188 2D       		.uleb128 0x2d
 5796 2189 0E000000 		.4byte	.LVL2
 5797 218d 3E2E0000 		.4byte	0x2e3e
 5798 2191 9D210000 		.4byte	0x219d
 5799 2195 2E       		.uleb128 0x2e
 5800 2196 01       		.uleb128 0x1
 5801 2197 50       		.byte	0x50
 5802 2198 03       		.uleb128 0x3
 5803 2199 91       		.byte	0x91
 5804 219a AC7F     		.sleb128 -84
 5805 219c 00       		.byte	0
 5806 219d 2F       		.uleb128 0x2f
ARM GAS  C:\Users\haske\AppData\Local\Temp\ccFGJ08j.s 			page 118


 5807 219e 26000000 		.4byte	.LVL9
 5808 21a2 492E0000 		.4byte	0x2e49
 5809 21a6 2E       		.uleb128 0x2e
 5810 21a7 01       		.uleb128 0x1
 5811 21a8 50       		.byte	0x50
 5812 21a9 03       		.uleb128 0x3
 5813 21aa 91       		.byte	0x91
 5814 21ab AC7F     		.sleb128 -84
 5815 21ad 00       		.byte	0
 5816 21ae 00       		.byte	0
 5817 21af 06       		.uleb128 0x6
 5818 21b0 04       		.byte	0x4
 5819 21b1 D41F0000 		.4byte	0x1fd4
 5820 21b5 27       		.uleb128 0x27
 5821 21b6 8C0C0000 		.4byte	.LASF562
 5822 21ba 01       		.byte	0x1
 5823 21bb 7E       		.byte	0x7e
 5824 21bc 00000000 		.4byte	.LFB163
 5825 21c0 10000000 		.4byte	.LFE163-.LFB163
 5826 21c4 01       		.uleb128 0x1
 5827 21c5 9C       		.byte	0x9c
 5828 21c6 F4210000 		.4byte	0x21f4
 5829 21ca 28       		.uleb128 0x28
 5830 21cb 6F626A00 		.ascii	"obj\000"
 5831 21cf 01       		.byte	0x1
 5832 21d0 7E       		.byte	0x7e
 5833 21d1 AF210000 		.4byte	0x21af
 5834 21d5 48010000 		.4byte	.LLST12
 5835 21d9 2F       		.uleb128 0x2f
 5836 21da 0A000000 		.4byte	.LVL13
 5837 21de 552E0000 		.4byte	0x2e55
 5838 21e2 2E       		.uleb128 0x2e
 5839 21e3 01       		.uleb128 0x1
 5840 21e4 50       		.byte	0x50
 5841 21e5 05       		.uleb128 0x5
 5842 21e6 03       		.byte	0x3
 5843 21e7 00000000 		.4byte	lv_obj_del_async_cb
 5844 21eb 2E       		.uleb128 0x2e
 5845 21ec 01       		.uleb128 0x1
 5846 21ed 51       		.byte	0x51
 5847 21ee 03       		.uleb128 0x3
 5848 21ef F3       		.byte	0xf3
 5849 21f0 01       		.uleb128 0x1
 5850 21f1 50       		.byte	0x50
 5851 21f2 00       		.byte	0
 5852 21f3 00       		.byte	0
 5853 21f4 30       		.uleb128 0x30
 5854 21f5 50160000 		.4byte	.LASF563
 5855 21f9 01       		.byte	0x1
 5856 21fa 2301     		.2byte	0x123
 5857 21fc AF210000 		.4byte	0x21af
 5858 2200 00000000 		.4byte	.LFB169
 5859 2204 0A000000 		.4byte	.LFE169-.LFB169
 5860 2208 01       		.uleb128 0x1
 5861 2209 9C       		.byte	0x9c
 5862 220a 1F220000 		.4byte	0x221f
 5863 220e 31       		.uleb128 0x31
ARM GAS  C:\Users\haske\AppData\Local\Temp\ccFGJ08j.s 			page 119


 5864 220f 6F626A00 		.ascii	"obj\000"
 5865 2213 01       		.byte	0x1
 5866 2214 2301     		.2byte	0x123
 5867 2216 1F220000 		.4byte	0x221f
 5868 221a 74010000 		.4byte	.LLST13
 5869 221e 00       		.byte	0
 5870 221f 06       		.uleb128 0x6
 5871 2220 04       		.byte	0x4
 5872 2221 25220000 		.4byte	0x2225
 5873 2225 0E       		.uleb128 0xe
 5874 2226 D41F0000 		.4byte	0x1fd4
 5875 222a 32       		.uleb128 0x32
 5876 222b D6050000 		.4byte	.LASF564
 5877 222f 01       		.byte	0x1
 5878 2230 FF       		.byte	0xff
 5879 2231 AF210000 		.4byte	0x21af
 5880 2235 00000000 		.4byte	.LFB167
 5881 2239 18000000 		.4byte	.LFE167-.LFB167
 5882 223d 01       		.uleb128 0x1
 5883 223e 9C       		.byte	0x9c
 5884 223f 83220000 		.4byte	0x2283
 5885 2243 28       		.uleb128 0x28
 5886 2244 6F626A00 		.ascii	"obj\000"
 5887 2248 01       		.byte	0x1
 5888 2249 FF       		.byte	0xff
 5889 224a 1F220000 		.4byte	0x221f
 5890 224e AE010000 		.4byte	.LLST14
 5891 2252 33       		.uleb128 0x33
 5892 2253 70617200 		.ascii	"par\000"
 5893 2257 01       		.byte	0x1
 5894 2258 0301     		.2byte	0x103
 5895 225a 1F220000 		.4byte	0x221f
 5896 225e CF010000 		.4byte	.LLST15
 5897 2262 34       		.uleb128 0x34
 5898 2263 800D0000 		.4byte	.LASF565
 5899 2267 01       		.byte	0x1
 5900 2268 0401     		.2byte	0x104
 5901 226a 1F220000 		.4byte	0x221f
 5902 226e 03020000 		.4byte	.LLST16
 5903 2272 2F       		.uleb128 0x2f
 5904 2273 0E000000 		.4byte	.LVL22
 5905 2277 F4210000 		.4byte	0x21f4
 5906 227b 2E       		.uleb128 0x2e
 5907 227c 01       		.uleb128 0x1
 5908 227d 50       		.byte	0x50
 5909 227e 02       		.uleb128 0x2
 5910 227f 74       		.byte	0x74
 5911 2280 00       		.sleb128 0
 5912 2281 00       		.byte	0
 5913 2282 00       		.byte	0
 5914 2283 30       		.uleb128 0x30
 5915 2284 F21C0000 		.4byte	.LASF566
 5916 2288 01       		.byte	0x1
 5917 2289 0E01     		.2byte	0x10e
 5918 228b 0A230000 		.4byte	0x230a
 5919 228f 00000000 		.4byte	.LFB168
 5920 2293 40000000 		.4byte	.LFE168-.LFB168
ARM GAS  C:\Users\haske\AppData\Local\Temp\ccFGJ08j.s 			page 120


 5921 2297 01       		.uleb128 0x1
 5922 2298 9C       		.byte	0x9c
 5923 2299 0A230000 		.4byte	0x230a
 5924 229d 31       		.uleb128 0x31
 5925 229e 6F626A00 		.ascii	"obj\000"
 5926 22a2 01       		.byte	0x1
 5927 22a3 0E01     		.2byte	0x10e
 5928 22a5 1F220000 		.4byte	0x221f
 5929 22a9 2C020000 		.4byte	.LLST17
 5930 22ad 33       		.uleb128 0x33
 5931 22ae 73637200 		.ascii	"scr\000"
 5932 22b2 01       		.byte	0x1
 5933 22b3 1201     		.2byte	0x112
 5934 22b5 1F220000 		.4byte	0x221f
 5935 22b9 58020000 		.4byte	.LLST18
 5936 22bd 33       		.uleb128 0x33
 5937 22be 6400     		.ascii	"d\000"
 5938 22c0 01       		.byte	0x1
 5939 22c1 1701     		.2byte	0x117
 5940 22c3 0A230000 		.4byte	0x230a
 5941 22c7 6B020000 		.4byte	.LLST19
 5942 22cb 35       		.uleb128 0x35
 5943 22cc 00000000 		.4byte	.Ldebug_ranges0+0
 5944 22d0 E3220000 		.4byte	0x22e3
 5945 22d4 33       		.uleb128 0x33
 5946 22d5 6900     		.ascii	"i\000"
 5947 22d7 01       		.byte	0x1
 5948 22d8 1901     		.2byte	0x119
 5949 22da 0D010000 		.4byte	0x10d
 5950 22de 94020000 		.4byte	.LLST20
 5951 22e2 00       		.byte	0
 5952 22e3 2D       		.uleb128 0x2d
 5953 22e4 0C000000 		.4byte	.LVL25
 5954 22e8 2A220000 		.4byte	0x222a
 5955 22ec F7220000 		.4byte	0x22f7
 5956 22f0 2E       		.uleb128 0x2e
 5957 22f1 01       		.uleb128 0x1
 5958 22f2 50       		.byte	0x50
 5959 22f3 02       		.uleb128 0x2
 5960 22f4 74       		.byte	0x74
 5961 22f5 00       		.sleb128 0
 5962 22f6 00       		.byte	0
 5963 22f7 36       		.uleb128 0x36
 5964 22f8 14000000 		.4byte	.LVL27
 5965 22fc 602E0000 		.4byte	0x2e60
 5966 2300 36       		.uleb128 0x36
 5967 2301 34000000 		.4byte	.LVL33
 5968 2305 6B2E0000 		.4byte	0x2e6b
 5969 2309 00       		.byte	0
 5970 230a 06       		.uleb128 0x6
 5971 230b 04       		.byte	0x4
 5972 230c 2D170000 		.4byte	0x172d
 5973 2310 30       		.uleb128 0x30
 5974 2311 A61D0000 		.4byte	.LASF567
 5975 2315 01       		.byte	0x1
 5976 2316 2B01     		.2byte	0x12b
 5977 2318 AF210000 		.4byte	0x21af
ARM GAS  C:\Users\haske\AppData\Local\Temp\ccFGJ08j.s 			page 121


 5978 231c 00000000 		.4byte	.LFB170
 5979 2320 30000000 		.4byte	.LFE170-.LFB170
 5980 2324 01       		.uleb128 0x1
 5981 2325 9C       		.byte	0x9c
 5982 2326 5A230000 		.4byte	0x235a
 5983 232a 31       		.uleb128 0x31
 5984 232b 6F626A00 		.ascii	"obj\000"
 5985 232f 01       		.byte	0x1
 5986 2330 2B01     		.2byte	0x12b
 5987 2332 1F220000 		.4byte	0x221f
 5988 2336 B2020000 		.4byte	.LLST21
 5989 233a 31       		.uleb128 0x31
 5990 233b 696400   		.ascii	"id\000"
 5991 233e 01       		.byte	0x1
 5992 233f 2B01     		.2byte	0x12b
 5993 2341 02010000 		.4byte	0x102
 5994 2345 05030000 		.4byte	.LLST22
 5995 2349 33       		.uleb128 0x33
 5996 234a 69647500 		.ascii	"idu\000"
 5997 234e 01       		.byte	0x1
 5998 234f 3101     		.2byte	0x131
 5999 2351 0D010000 		.4byte	0x10d
 6000 2355 31030000 		.4byte	.LLST23
 6001 2359 00       		.byte	0
 6002 235a 30       		.uleb128 0x30
 6003 235b 131B0000 		.4byte	.LASF568
 6004 235f 01       		.byte	0x1
 6005 2360 3F01     		.2byte	0x13f
 6006 2362 0D010000 		.4byte	0x10d
 6007 2366 00000000 		.4byte	.LFB171
 6008 236a 0C000000 		.4byte	.LFE171-.LFB171
 6009 236e 01       		.uleb128 0x1
 6010 236f 9C       		.byte	0x9c
 6011 2370 85230000 		.4byte	0x2385
 6012 2374 31       		.uleb128 0x31
 6013 2375 6F626A00 		.ascii	"obj\000"
 6014 2379 01       		.byte	0x1
 6015 237a 3F01     		.2byte	0x13f
 6016 237c 1F220000 		.4byte	0x221f
 6017 2380 4F030000 		.4byte	.LLST24
 6018 2384 00       		.byte	0
 6019 2385 37       		.uleb128 0x37
 6020 2386 BD200000 		.4byte	.LASF618
 6021 238a 01       		.byte	0x1
 6022 238b A801     		.2byte	0x1a8
 6023 238d 7F1B0000 		.4byte	0x1b7f
 6024 2391 00000000 		.4byte	.LFB176
 6025 2395 7C000000 		.4byte	.LFE176-.LFB176
 6026 2399 01       		.uleb128 0x1
 6027 239a 9C       		.byte	0x9c
 6028 239b BE240000 		.4byte	0x24be
 6029 239f 31       		.uleb128 0x31
 6030 23a0 6F626A00 		.ascii	"obj\000"
 6031 23a4 01       		.byte	0x1
 6032 23a5 A801     		.2byte	0x1a8
 6033 23a7 AF210000 		.4byte	0x21af
 6034 23ab 89030000 		.4byte	.LLST25
ARM GAS  C:\Users\haske\AppData\Local\Temp\ccFGJ08j.s 			page 122


 6035 23af 31       		.uleb128 0x31
 6036 23b0 636200   		.ascii	"cb\000"
 6037 23b3 01       		.byte	0x1
 6038 23b4 A801     		.2byte	0x1a8
 6039 23b6 8A1B0000 		.4byte	0x1b8a
 6040 23ba C0030000 		.4byte	.LLST26
 6041 23be 38       		.uleb128 0x38
 6042 23bf 30210000 		.4byte	.LASF45
 6043 23c3 01       		.byte	0x1
 6044 23c4 A801     		.2byte	0x1a8
 6045 23c6 C6000000 		.4byte	0xc6
 6046 23ca F4030000 		.4byte	.LLST27
 6047 23ce 33       		.uleb128 0x33
 6048 23cf 72657300 		.ascii	"res\000"
 6049 23d3 01       		.byte	0x1
 6050 23d4 AA01     		.2byte	0x1aa
 6051 23d6 7F1B0000 		.4byte	0x1b7f
 6052 23da 28040000 		.4byte	.LLST28
 6053 23de 39       		.uleb128 0x39
 6054 23df 08000000 		.4byte	.LBB24
 6055 23e3 34000000 		.4byte	.LBE24-.LBB24
 6056 23e7 4F240000 		.4byte	0x244f
 6057 23eb 34       		.uleb128 0x34
 6058 23ec A3140000 		.4byte	.LASF400
 6059 23f0 01       		.byte	0x1
 6060 23f1 AD01     		.2byte	0x1ad
 6061 23f3 0A230000 		.4byte	0x230a
 6062 23f7 68040000 		.4byte	.LLST29
 6063 23fb 35       		.uleb128 0x35
 6064 23fc 18000000 		.4byte	.Ldebug_ranges0+0x18
 6065 2400 3D240000 		.4byte	0x243d
 6066 2404 33       		.uleb128 0x33
 6067 2405 6900     		.ascii	"i\000"
 6068 2407 01       		.byte	0x1
 6069 2408 AF01     		.2byte	0x1af
 6070 240a 0D010000 		.4byte	0x10d
 6071 240e B2040000 		.4byte	.LLST30
 6072 2412 2D       		.uleb128 0x2d
 6073 2413 1E000000 		.4byte	.LVL54
 6074 2417 85230000 		.4byte	0x2385
 6075 241b 2C240000 		.4byte	0x242c
 6076 241f 2E       		.uleb128 0x2e
 6077 2420 01       		.uleb128 0x1
 6078 2421 51       		.byte	0x51
 6079 2422 02       		.uleb128 0x2
 6080 2423 76       		.byte	0x76
 6081 2424 00       		.sleb128 0
 6082 2425 2E       		.uleb128 0x2e
 6083 2426 01       		.uleb128 0x1
 6084 2427 52       		.byte	0x52
 6085 2428 02       		.uleb128 0x2
 6086 2429 77       		.byte	0x77
 6087 242a 00       		.sleb128 0
 6088 242b 00       		.byte	0
 6089 242c 2F       		.uleb128 0x2f
 6090 242d 30000000 		.4byte	.LVL58
 6091 2431 762E0000 		.4byte	0x2e76
ARM GAS  C:\Users\haske\AppData\Local\Temp\ccFGJ08j.s 			page 123


 6092 2435 2E       		.uleb128 0x2e
 6093 2436 01       		.uleb128 0x1
 6094 2437 50       		.byte	0x50
 6095 2438 02       		.uleb128 0x2
 6096 2439 75       		.byte	0x75
 6097 243a 00       		.sleb128 0
 6098 243b 00       		.byte	0
 6099 243c 00       		.byte	0
 6100 243d 2F       		.uleb128 0x2f
 6101 243e 0C000000 		.4byte	.LVL51
 6102 2442 762E0000 		.4byte	0x2e76
 6103 2446 2E       		.uleb128 0x2e
 6104 2447 01       		.uleb128 0x1
 6105 2448 50       		.byte	0x50
 6106 2449 03       		.uleb128 0x3
 6107 244a F3       		.byte	0xf3
 6108 244b 01       		.uleb128 0x1
 6109 244c 50       		.byte	0x50
 6110 244d 00       		.byte	0
 6111 244e 00       		.byte	0
 6112 244f 35       		.uleb128 0x35
 6113 2450 30000000 		.4byte	.Ldebug_ranges0+0x30
 6114 2454 AB240000 		.4byte	0x24ab
 6115 2458 33       		.uleb128 0x33
 6116 2459 6900     		.ascii	"i\000"
 6117 245b 01       		.byte	0x1
 6118 245c BD01     		.2byte	0x1bd
 6119 245e 0D010000 		.4byte	0x10d
 6120 2462 D0040000 		.4byte	.LLST31
 6121 2466 2D       		.uleb128 0x2d
 6122 2467 54000000 		.4byte	.LVL66
 6123 246b 10230000 		.4byte	0x2310
 6124 246f 80240000 		.4byte	0x2480
 6125 2473 2E       		.uleb128 0x2e
 6126 2474 01       		.uleb128 0x1
 6127 2475 50       		.byte	0x50
 6128 2476 02       		.uleb128 0x2
 6129 2477 75       		.byte	0x75
 6130 2478 00       		.sleb128 0
 6131 2479 2E       		.uleb128 0x2e
 6132 247a 01       		.uleb128 0x1
 6133 247b 51       		.byte	0x51
 6134 247c 02       		.uleb128 0x2
 6135 247d 74       		.byte	0x74
 6136 247e 00       		.sleb128 0
 6137 247f 00       		.byte	0
 6138 2480 2D       		.uleb128 0x2d
 6139 2481 5C000000 		.4byte	.LVL67
 6140 2485 85230000 		.4byte	0x2385
 6141 2489 9A240000 		.4byte	0x249a
 6142 248d 2E       		.uleb128 0x2e
 6143 248e 01       		.uleb128 0x1
 6144 248f 51       		.byte	0x51
 6145 2490 02       		.uleb128 0x2
 6146 2491 76       		.byte	0x76
 6147 2492 00       		.sleb128 0
 6148 2493 2E       		.uleb128 0x2e
ARM GAS  C:\Users\haske\AppData\Local\Temp\ccFGJ08j.s 			page 124


 6149 2494 01       		.uleb128 0x1
 6150 2495 52       		.byte	0x52
 6151 2496 02       		.uleb128 0x2
 6152 2497 77       		.byte	0x77
 6153 2498 00       		.sleb128 0
 6154 2499 00       		.byte	0
 6155 249a 2F       		.uleb128 0x2f
 6156 249b 6C000000 		.4byte	.LVL72
 6157 249f 5A230000 		.4byte	0x235a
 6158 24a3 2E       		.uleb128 0x2e
 6159 24a4 01       		.uleb128 0x1
 6160 24a5 50       		.byte	0x50
 6161 24a6 02       		.uleb128 0x2
 6162 24a7 75       		.byte	0x75
 6163 24a8 00       		.sleb128 0
 6164 24a9 00       		.byte	0
 6165 24aa 00       		.byte	0
 6166 24ab 3A       		.uleb128 0x3a
 6167 24ac 40000000 		.4byte	.LVL63
 6168 24b0 2E       		.uleb128 0x2e
 6169 24b1 01       		.uleb128 0x1
 6170 24b2 50       		.byte	0x50
 6171 24b3 02       		.uleb128 0x2
 6172 24b4 75       		.byte	0x75
 6173 24b5 00       		.sleb128 0
 6174 24b6 2E       		.uleb128 0x2e
 6175 24b7 01       		.uleb128 0x1
 6176 24b8 51       		.byte	0x51
 6177 24b9 02       		.uleb128 0x2
 6178 24ba 77       		.byte	0x77
 6179 24bb 00       		.sleb128 0
 6180 24bc 00       		.byte	0
 6181 24bd 00       		.byte	0
 6182 24be 30       		.uleb128 0x30
 6183 24bf A80A0000 		.4byte	.LASF569
 6184 24c3 01       		.byte	0x1
 6185 24c4 4601     		.2byte	0x146
 6186 24c6 0D010000 		.4byte	0x10d
 6187 24ca 00000000 		.4byte	.LFB172
 6188 24ce 36000000 		.4byte	.LFE172-.LFB172
 6189 24d2 01       		.uleb128 0x1
 6190 24d3 9C       		.byte	0x9c
 6191 24d4 45250000 		.4byte	0x2545
 6192 24d8 31       		.uleb128 0x31
 6193 24d9 6F626A00 		.ascii	"obj\000"
 6194 24dd 01       		.byte	0x1
 6195 24de 4601     		.2byte	0x146
 6196 24e0 1F220000 		.4byte	0x221f
 6197 24e4 F9040000 		.4byte	.LLST32
 6198 24e8 34       		.uleb128 0x34
 6199 24e9 3E0D0000 		.4byte	.LASF207
 6200 24ed 01       		.byte	0x1
 6201 24ee 4A01     		.2byte	0x14a
 6202 24f0 AF210000 		.4byte	0x21af
 6203 24f4 17050000 		.4byte	.LLST33
 6204 24f8 33       		.uleb128 0x33
 6205 24f9 6900     		.ascii	"i\000"
ARM GAS  C:\Users\haske\AppData\Local\Temp\ccFGJ08j.s 			page 125


 6206 24fb 01       		.byte	0x1
 6207 24fc 4D01     		.2byte	0x14d
 6208 24fe 0D010000 		.4byte	0x10d
 6209 2502 4B050000 		.4byte	.LLST34
 6210 2506 2D       		.uleb128 0x2d
 6211 2507 08000000 		.4byte	.LVL78
 6212 250b F4210000 		.4byte	0x21f4
 6213 250f 1A250000 		.4byte	0x251a
 6214 2513 2E       		.uleb128 0x2e
 6215 2514 01       		.uleb128 0x1
 6216 2515 50       		.byte	0x50
 6217 2516 02       		.uleb128 0x2
 6218 2517 76       		.byte	0x76
 6219 2518 00       		.sleb128 0
 6220 2519 00       		.byte	0
 6221 251a 2D       		.uleb128 0x2d
 6222 251b 18000000 		.4byte	.LVL80
 6223 251f 10230000 		.4byte	0x2310
 6224 2523 34250000 		.4byte	0x2534
 6225 2527 2E       		.uleb128 0x2e
 6226 2528 01       		.uleb128 0x1
 6227 2529 50       		.byte	0x50
 6228 252a 02       		.uleb128 0x2
 6229 252b 75       		.byte	0x75
 6230 252c 00       		.sleb128 0
 6231 252d 2E       		.uleb128 0x2e
 6232 252e 01       		.uleb128 0x1
 6233 252f 51       		.byte	0x51
 6234 2530 02       		.uleb128 0x2
 6235 2531 74       		.byte	0x74
 6236 2532 00       		.sleb128 0
 6237 2533 00       		.byte	0
 6238 2534 2F       		.uleb128 0x2f
 6239 2535 24000000 		.4byte	.LVL82
 6240 2539 5A230000 		.4byte	0x235a
 6241 253d 2E       		.uleb128 0x2e
 6242 253e 01       		.uleb128 0x1
 6243 253f 50       		.byte	0x50
 6244 2540 02       		.uleb128 0x2
 6245 2541 75       		.byte	0x75
 6246 2542 00       		.sleb128 0
 6247 2543 00       		.byte	0
 6248 2544 00       		.byte	0
 6249 2545 3B       		.uleb128 0x3b
 6250 2546 59130000 		.4byte	.LASF575
 6251 254a 01       		.byte	0x1
 6252 254b 6501     		.2byte	0x165
 6253 254d 00000000 		.4byte	.LFB175
 6254 2551 02010000 		.4byte	.LFE175-.LFB175
 6255 2555 01       		.uleb128 0x1
 6256 2556 9C       		.byte	0x9c
 6257 2557 3E270000 		.4byte	0x273e
 6258 255b 31       		.uleb128 0x31
 6259 255c 6F626A00 		.ascii	"obj\000"
 6260 2560 01       		.byte	0x1
 6261 2561 6501     		.2byte	0x165
 6262 2563 AF210000 		.4byte	0x21af
ARM GAS  C:\Users\haske\AppData\Local\Temp\ccFGJ08j.s 			page 126


 6263 2567 69050000 		.4byte	.LLST35
 6264 256b 33       		.uleb128 0x33
 6265 256c 72657300 		.ascii	"res\000"
 6266 2570 01       		.byte	0x1
 6267 2571 6801     		.2byte	0x168
 6268 2573 28030000 		.4byte	0x328
 6269 2577 87050000 		.4byte	.LLST36
 6270 257b 34       		.uleb128 0x34
 6271 257c B6000000 		.4byte	.LASF570
 6272 2580 01       		.byte	0x1
 6273 2581 6C01     		.2byte	0x16c
 6274 2583 AF210000 		.4byte	0x21af
 6275 2587 9A050000 		.4byte	.LLST37
 6276 258b 34       		.uleb128 0x34
 6277 258c 72110000 		.4byte	.LASF440
 6278 2590 01       		.byte	0x1
 6279 2591 7201     		.2byte	0x172
 6280 2593 A11F0000 		.4byte	0x1fa1
 6281 2597 B8050000 		.4byte	.LLST38
 6282 259b 34       		.uleb128 0x34
 6283 259c DA1D0000 		.4byte	.LASF571
 6284 25a0 01       		.byte	0x1
 6285 25a1 7501     		.2byte	0x175
 6286 25a3 3E270000 		.4byte	0x273e
 6287 25a7 D6050000 		.4byte	.LLST39
 6288 25ab 39       		.uleb128 0x39
 6289 25ac 86000000 		.4byte	.LBB31
 6290 25b0 40000000 		.4byte	.LBE31-.LBB31
 6291 25b4 FF250000 		.4byte	0x25ff
 6292 25b8 34       		.uleb128 0x34
 6293 25b9 A3140000 		.4byte	.LASF400
 6294 25bd 01       		.byte	0x1
 6295 25be 8901     		.2byte	0x189
 6296 25c0 0A230000 		.4byte	0x230a
 6297 25c4 15060000 		.4byte	.LLST40
 6298 25c8 33       		.uleb128 0x33
 6299 25c9 6900     		.ascii	"i\000"
 6300 25cb 01       		.byte	0x1
 6301 25cc 8A01     		.2byte	0x18a
 6302 25ce 0D010000 		.4byte	0x10d
 6303 25d2 33060000 		.4byte	.LLST41
 6304 25d6 3C       		.uleb128 0x3c
 6305 25d7 696400   		.ascii	"id\000"
 6306 25da 01       		.byte	0x1
 6307 25db 9001     		.2byte	0x190
 6308 25dd 0D010000 		.4byte	0x10d
 6309 25e1 2D       		.uleb128 0x2d
 6310 25e2 8C000000 		.4byte	.LVL106
 6311 25e6 83220000 		.4byte	0x2283
 6312 25ea F5250000 		.4byte	0x25f5
 6313 25ee 2E       		.uleb128 0x2e
 6314 25ef 01       		.uleb128 0x1
 6315 25f0 50       		.byte	0x50
 6316 25f1 02       		.uleb128 0x2
 6317 25f2 75       		.byte	0x75
 6318 25f3 00       		.sleb128 0
 6319 25f4 00       		.byte	0
ARM GAS  C:\Users\haske\AppData\Local\Temp\ccFGJ08j.s 			page 127


 6320 25f5 36       		.uleb128 0x36
 6321 25f6 C4000000 		.4byte	.LVL113
 6322 25fa 822E0000 		.4byte	0x2e82
 6323 25fe 00       		.byte	0
 6324 25ff 39       		.uleb128 0x39
 6325 2600 C8000000 		.4byte	.LBB32
 6326 2604 32000000 		.4byte	.LBE32-.LBB32
 6327 2608 47260000 		.4byte	0x2647
 6328 260c 33       		.uleb128 0x33
 6329 260d 696400   		.ascii	"id\000"
 6330 2610 01       		.byte	0x1
 6331 2611 9901     		.2byte	0x199
 6332 2613 0D010000 		.4byte	0x10d
 6333 2617 6A060000 		.4byte	.LLST42
 6334 261b 33       		.uleb128 0x33
 6335 261c 6900     		.ascii	"i\000"
 6336 261e 01       		.byte	0x1
 6337 261f 9A01     		.2byte	0x19a
 6338 2621 0D010000 		.4byte	0x10d
 6339 2625 7D060000 		.4byte	.LLST43
 6340 2629 2D       		.uleb128 0x2d
 6341 262a CE000000 		.4byte	.LVL115
 6342 262e BE240000 		.4byte	0x24be
 6343 2632 3D260000 		.4byte	0x263d
 6344 2636 2E       		.uleb128 0x2e
 6345 2637 01       		.uleb128 0x1
 6346 2638 50       		.byte	0x50
 6347 2639 02       		.uleb128 0x2
 6348 263a 75       		.byte	0x75
 6349 263b 00       		.sleb128 0
 6350 263c 00       		.byte	0
 6351 263d 36       		.uleb128 0x36
 6352 263e F8000000 		.4byte	.LVL121
 6353 2642 822E0000 		.4byte	0x2e82
 6354 2646 00       		.byte	0
 6355 2647 2D       		.uleb128 0x2d
 6356 2648 0C000000 		.4byte	.LVL87
 6357 264c 8D2E0000 		.4byte	0x2e8d
 6358 2650 66260000 		.4byte	0x2666
 6359 2654 2E       		.uleb128 0x2e
 6360 2655 01       		.uleb128 0x1
 6361 2656 50       		.byte	0x50
 6362 2657 02       		.uleb128 0x2
 6363 2658 75       		.byte	0x75
 6364 2659 00       		.sleb128 0
 6365 265a 2E       		.uleb128 0x2e
 6366 265b 01       		.uleb128 0x1
 6367 265c 51       		.byte	0x51
 6368 265d 02       		.uleb128 0x2
 6369 265e 08       		.byte	0x8
 6370 265f 21       		.byte	0x21
 6371 2660 2E       		.uleb128 0x2e
 6372 2661 01       		.uleb128 0x1
 6373 2662 52       		.byte	0x52
 6374 2663 01       		.uleb128 0x1
 6375 2664 30       		.byte	0x30
 6376 2665 00       		.byte	0
ARM GAS  C:\Users\haske\AppData\Local\Temp\ccFGJ08j.s 			page 128


 6377 2666 2D       		.uleb128 0x2d
 6378 2667 18000000 		.4byte	.LVL89
 6379 266b 10230000 		.4byte	0x2310
 6380 266f 7F260000 		.4byte	0x267f
 6381 2673 2E       		.uleb128 0x2e
 6382 2674 01       		.uleb128 0x1
 6383 2675 50       		.byte	0x50
 6384 2676 02       		.uleb128 0x2
 6385 2677 75       		.byte	0x75
 6386 2678 00       		.sleb128 0
 6387 2679 2E       		.uleb128 0x2e
 6388 267a 01       		.uleb128 0x1
 6389 267b 51       		.byte	0x51
 6390 267c 01       		.uleb128 0x1
 6391 267d 30       		.byte	0x30
 6392 267e 00       		.byte	0
 6393 267f 36       		.uleb128 0x36
 6394 2680 1E000000 		.4byte	.LVL90
 6395 2684 45250000 		.4byte	0x2545
 6396 2688 2D       		.uleb128 0x2d
 6397 2689 26000000 		.4byte	.LVL91
 6398 268d 10230000 		.4byte	0x2310
 6399 2691 A1260000 		.4byte	0x26a1
 6400 2695 2E       		.uleb128 0x2e
 6401 2696 01       		.uleb128 0x1
 6402 2697 50       		.byte	0x50
 6403 2698 02       		.uleb128 0x2
 6404 2699 75       		.byte	0x75
 6405 269a 00       		.sleb128 0
 6406 269b 2E       		.uleb128 0x2e
 6407 269c 01       		.uleb128 0x1
 6408 269d 51       		.byte	0x51
 6409 269e 01       		.uleb128 0x1
 6410 269f 30       		.byte	0x30
 6411 26a0 00       		.byte	0
 6412 26a1 2D       		.uleb128 0x2d
 6413 26a2 30000000 		.4byte	.LVL93
 6414 26a6 982E0000 		.4byte	0x2e98
 6415 26aa B5260000 		.4byte	0x26b5
 6416 26ae 2E       		.uleb128 0x2e
 6417 26af 01       		.uleb128 0x1
 6418 26b0 50       		.byte	0x50
 6419 26b1 02       		.uleb128 0x2
 6420 26b2 75       		.byte	0x75
 6421 26b3 00       		.sleb128 0
 6422 26b4 00       		.byte	0
 6423 26b5 2D       		.uleb128 0x2d
 6424 26b6 38000000 		.4byte	.LVL96
 6425 26ba A42E0000 		.4byte	0x2ea4
 6426 26be C8260000 		.4byte	0x26c8
 6427 26c2 2E       		.uleb128 0x2e
 6428 26c3 01       		.uleb128 0x1
 6429 26c4 50       		.byte	0x50
 6430 26c5 01       		.uleb128 0x1
 6431 26c6 30       		.byte	0x30
 6432 26c7 00       		.byte	0
 6433 26c8 2D       		.uleb128 0x2d
ARM GAS  C:\Users\haske\AppData\Local\Temp\ccFGJ08j.s 			page 129


 6434 26c9 50000000 		.4byte	.LVL99
 6435 26cd AF2E0000 		.4byte	0x2eaf
 6436 26d1 E2260000 		.4byte	0x26e2
 6437 26d5 2E       		.uleb128 0x2e
 6438 26d6 01       		.uleb128 0x1
 6439 26d7 50       		.byte	0x50
 6440 26d8 02       		.uleb128 0x2
 6441 26d9 74       		.byte	0x74
 6442 26da 00       		.sleb128 0
 6443 26db 2E       		.uleb128 0x2e
 6444 26dc 01       		.uleb128 0x1
 6445 26dd 51       		.byte	0x51
 6446 26de 02       		.uleb128 0x2
 6447 26df 75       		.byte	0x75
 6448 26e0 00       		.sleb128 0
 6449 26e1 00       		.byte	0
 6450 26e2 36       		.uleb128 0x36
 6451 26e3 64000000 		.4byte	.LVL100
 6452 26e7 BA2E0000 		.4byte	0x2eba
 6453 26eb 2D       		.uleb128 0x2d
 6454 26ec 70000000 		.4byte	.LVL101
 6455 26f0 AF2E0000 		.4byte	0x2eaf
 6456 26f4 05270000 		.4byte	0x2705
 6457 26f8 2E       		.uleb128 0x2e
 6458 26f9 01       		.uleb128 0x1
 6459 26fa 50       		.byte	0x50
 6460 26fb 02       		.uleb128 0x2
 6461 26fc 74       		.byte	0x74
 6462 26fd 00       		.sleb128 0
 6463 26fe 2E       		.uleb128 0x2e
 6464 26ff 01       		.uleb128 0x1
 6465 2700 51       		.byte	0x51
 6466 2701 02       		.uleb128 0x2
 6467 2702 75       		.byte	0x75
 6468 2703 00       		.sleb128 0
 6469 2704 00       		.byte	0
 6470 2705 2D       		.uleb128 0x2d
 6471 2706 76000000 		.4byte	.LVL102
 6472 270a A42E0000 		.4byte	0x2ea4
 6473 270e 19270000 		.4byte	0x2719
 6474 2712 2E       		.uleb128 0x2e
 6475 2713 01       		.uleb128 0x1
 6476 2714 50       		.byte	0x50
 6477 2715 02       		.uleb128 0x2
 6478 2716 74       		.byte	0x74
 6479 2717 00       		.sleb128 0
 6480 2718 00       		.byte	0
 6481 2719 2D       		.uleb128 0x2d
 6482 271a 82000000 		.4byte	.LVL105
 6483 271e C52E0000 		.4byte	0x2ec5
 6484 2722 2D270000 		.4byte	0x272d
 6485 2726 2E       		.uleb128 0x2e
 6486 2727 01       		.uleb128 0x1
 6487 2728 50       		.byte	0x50
 6488 2729 02       		.uleb128 0x2
 6489 272a 75       		.byte	0x75
 6490 272b 00       		.sleb128 0
ARM GAS  C:\Users\haske\AppData\Local\Temp\ccFGJ08j.s 			page 130


 6491 272c 00       		.byte	0
 6492 272d 2F       		.uleb128 0x2f
 6493 272e 00010000 		.4byte	.LVL122
 6494 2732 D02E0000 		.4byte	0x2ed0
 6495 2736 2E       		.uleb128 0x2e
 6496 2737 01       		.uleb128 0x1
 6497 2738 50       		.byte	0x50
 6498 2739 02       		.uleb128 0x2
 6499 273a 75       		.byte	0x75
 6500 273b 00       		.sleb128 0
 6501 273c 00       		.byte	0
 6502 273d 00       		.byte	0
 6503 273e 06       		.uleb128 0x6
 6504 273f 04       		.byte	0x4
 6505 2740 3F1B0000 		.4byte	0x1b3f
 6506 2744 27       		.uleb128 0x27
 6507 2745 C7200000 		.4byte	.LASF572
 6508 2749 01       		.byte	0x1
 6509 274a 2D       		.byte	0x2d
 6510 274b 00000000 		.4byte	.LFB159
 6511 274f 6C000000 		.4byte	.LFE159-.LFB159
 6512 2753 01       		.uleb128 0x1
 6513 2754 9C       		.byte	0x9c
 6514 2755 75280000 		.4byte	0x2875
 6515 2759 28       		.uleb128 0x28
 6516 275a 6F626A00 		.ascii	"obj\000"
 6517 275e 01       		.byte	0x1
 6518 275f 2D       		.byte	0x2d
 6519 2760 AF210000 		.4byte	0x21af
 6520 2764 A8060000 		.4byte	.LLST44
 6521 2768 3D       		.uleb128 0x3d
 6522 2769 70617200 		.ascii	"par\000"
 6523 276d 01       		.byte	0x1
 6524 276e 33       		.byte	0x33
 6525 276f AF210000 		.4byte	0x21af
 6526 2773 C6060000 		.4byte	.LLST45
 6527 2777 3E       		.uleb128 0x3e
 6528 2778 A3140000 		.4byte	.LASF400
 6529 277c 01       		.byte	0x1
 6530 277d 38       		.byte	0x38
 6531 277e 0A230000 		.4byte	0x230a
 6532 2782 E4060000 		.4byte	.LLST46
 6533 2786 3E       		.uleb128 0x3e
 6534 2787 C2190000 		.4byte	.LASF573
 6535 278b 01       		.byte	0x1
 6536 278c 39       		.byte	0x39
 6537 278d CC020000 		.4byte	0x2cc
 6538 2791 25070000 		.4byte	.LLST47
 6539 2795 2D       		.uleb128 0x2d
 6540 2796 08000000 		.4byte	.LVL124
 6541 279a DB2E0000 		.4byte	0x2edb
 6542 279e A9270000 		.4byte	0x27a9
 6543 27a2 2E       		.uleb128 0x2e
 6544 27a3 01       		.uleb128 0x1
 6545 27a4 50       		.byte	0x50
 6546 27a5 02       		.uleb128 0x2
 6547 27a6 75       		.byte	0x75
ARM GAS  C:\Users\haske\AppData\Local\Temp\ccFGJ08j.s 			page 131


 6548 27a7 00       		.sleb128 0
 6549 27a8 00       		.byte	0
 6550 27a9 2D       		.uleb128 0x2d
 6551 27aa 0E000000 		.4byte	.LVL125
 6552 27ae F4210000 		.4byte	0x21f4
 6553 27b2 BD270000 		.4byte	0x27bd
 6554 27b6 2E       		.uleb128 0x2e
 6555 27b7 01       		.uleb128 0x1
 6556 27b8 50       		.byte	0x50
 6557 27b9 02       		.uleb128 0x2
 6558 27ba 75       		.byte	0x75
 6559 27bb 00       		.sleb128 0
 6560 27bc 00       		.byte	0
 6561 27bd 2D       		.uleb128 0x2d
 6562 27be 16000000 		.4byte	.LVL126
 6563 27c2 E72E0000 		.4byte	0x2ee7
 6564 27c6 D1270000 		.4byte	0x27d1
 6565 27ca 2E       		.uleb128 0x2e
 6566 27cb 01       		.uleb128 0x1
 6567 27cc 50       		.byte	0x50
 6568 27cd 02       		.uleb128 0x2
 6569 27ce 74       		.byte	0x74
 6570 27cf 00       		.sleb128 0
 6571 27d0 00       		.byte	0
 6572 27d1 2D       		.uleb128 0x2d
 6573 27d2 1E000000 		.4byte	.LVL127
 6574 27d6 83220000 		.4byte	0x2283
 6575 27da E5270000 		.4byte	0x27e5
 6576 27de 2E       		.uleb128 0x2e
 6577 27df 01       		.uleb128 0x1
 6578 27e0 50       		.byte	0x50
 6579 27e1 02       		.uleb128 0x2
 6580 27e2 75       		.byte	0x75
 6581 27e3 00       		.sleb128 0
 6582 27e4 00       		.byte	0
 6583 27e5 2D       		.uleb128 0x2d
 6584 27e6 3A000000 		.4byte	.LVL131
 6585 27ea 45250000 		.4byte	0x2545
 6586 27ee F9270000 		.4byte	0x27f9
 6587 27f2 2E       		.uleb128 0x2e
 6588 27f3 01       		.uleb128 0x1
 6589 27f4 50       		.byte	0x50
 6590 27f5 02       		.uleb128 0x2
 6591 27f6 75       		.byte	0x75
 6592 27f7 00       		.sleb128 0
 6593 27f8 00       		.byte	0
 6594 27f9 2D       		.uleb128 0x2d
 6595 27fa 42000000 		.4byte	.LVL132
 6596 27fe F32E0000 		.4byte	0x2ef3
 6597 2802 0D280000 		.4byte	0x280d
 6598 2806 2E       		.uleb128 0x2e
 6599 2807 01       		.uleb128 0x1
 6600 2808 50       		.byte	0x50
 6601 2809 02       		.uleb128 0x2
 6602 280a 74       		.byte	0x74
 6603 280b 00       		.sleb128 0
 6604 280c 00       		.byte	0
ARM GAS  C:\Users\haske\AppData\Local\Temp\ccFGJ08j.s 			page 132


 6605 280d 2D       		.uleb128 0x2d
 6606 280e 4A000000 		.4byte	.LVL133
 6607 2812 FE2E0000 		.4byte	0x2efe
 6608 2816 26280000 		.4byte	0x2826
 6609 281a 2E       		.uleb128 0x2e
 6610 281b 01       		.uleb128 0x1
 6611 281c 50       		.byte	0x50
 6612 281d 02       		.uleb128 0x2
 6613 281e 74       		.byte	0x74
 6614 281f 00       		.sleb128 0
 6615 2820 2E       		.uleb128 0x2e
 6616 2821 01       		.uleb128 0x1
 6617 2822 51       		.byte	0x51
 6618 2823 01       		.uleb128 0x1
 6619 2824 30       		.byte	0x30
 6620 2825 00       		.byte	0
 6621 2826 2D       		.uleb128 0x2d
 6622 2827 50000000 		.4byte	.LVL134
 6623 282b E72E0000 		.4byte	0x2ee7
 6624 282f 3A280000 		.4byte	0x283a
 6625 2833 2E       		.uleb128 0x2e
 6626 2834 01       		.uleb128 0x1
 6627 2835 50       		.byte	0x50
 6628 2836 02       		.uleb128 0x2
 6629 2837 74       		.byte	0x74
 6630 2838 00       		.sleb128 0
 6631 2839 00       		.byte	0
 6632 283a 2D       		.uleb128 0x2d
 6633 283b 5A000000 		.4byte	.LVL135
 6634 283f 8D2E0000 		.4byte	0x2e8d
 6635 2843 59280000 		.4byte	0x2859
 6636 2847 2E       		.uleb128 0x2e
 6637 2848 01       		.uleb128 0x1
 6638 2849 50       		.byte	0x50
 6639 284a 02       		.uleb128 0x2
 6640 284b 74       		.byte	0x74
 6641 284c 00       		.sleb128 0
 6642 284d 2E       		.uleb128 0x2e
 6643 284e 01       		.uleb128 0x1
 6644 284f 51       		.byte	0x51
 6645 2850 02       		.uleb128 0x2
 6646 2851 08       		.byte	0x8
 6647 2852 22       		.byte	0x22
 6648 2853 2E       		.uleb128 0x2e
 6649 2854 01       		.uleb128 0x1
 6650 2855 52       		.byte	0x52
 6651 2856 01       		.uleb128 0x1
 6652 2857 30       		.byte	0x30
 6653 2858 00       		.byte	0
 6654 2859 2F       		.uleb128 0x2f
 6655 285a 64000000 		.4byte	.LVL136
 6656 285e 8D2E0000 		.4byte	0x2e8d
 6657 2862 2E       		.uleb128 0x2e
 6658 2863 01       		.uleb128 0x1
 6659 2864 50       		.byte	0x50
 6660 2865 02       		.uleb128 0x2
 6661 2866 74       		.byte	0x74
ARM GAS  C:\Users\haske\AppData\Local\Temp\ccFGJ08j.s 			page 133


 6662 2867 00       		.sleb128 0
 6663 2868 2E       		.uleb128 0x2e
 6664 2869 01       		.uleb128 0x1
 6665 286a 51       		.byte	0x51
 6666 286b 02       		.uleb128 0x2
 6667 286c 08       		.byte	0x8
 6668 286d 24       		.byte	0x24
 6669 286e 2E       		.uleb128 0x2e
 6670 286f 01       		.uleb128 0x1
 6671 2870 52       		.byte	0x52
 6672 2871 01       		.uleb128 0x1
 6673 2872 30       		.byte	0x30
 6674 2873 00       		.byte	0
 6675 2874 00       		.byte	0
 6676 2875 27       		.uleb128 0x27
 6677 2876 2E000000 		.4byte	.LASF574
 6678 287a 01       		.byte	0x1
 6679 287b 79       		.byte	0x79
 6680 287c 00000000 		.4byte	.LFB162
 6681 2880 0A000000 		.4byte	.LFE162-.LFB162
 6682 2884 01       		.uleb128 0x1
 6683 2885 9C       		.byte	0x9c
 6684 2886 A1280000 		.4byte	0x28a1
 6685 288a 28       		.uleb128 0x28
 6686 288b 6100     		.ascii	"a\000"
 6687 288d 01       		.byte	0x1
 6688 288e 79       		.byte	0x79
 6689 288f 00200000 		.4byte	0x2000
 6690 2893 44070000 		.4byte	.LLST48
 6691 2897 36       		.uleb128 0x36
 6692 2898 08000000 		.4byte	.LVL140
 6693 289c 44270000 		.4byte	0x2744
 6694 28a0 00       		.byte	0
 6695 28a1 3B       		.uleb128 0x3b
 6696 28a2 9C080000 		.4byte	.LASF576
 6697 28a6 01       		.byte	0x1
 6698 28a7 5E01     		.2byte	0x15e
 6699 28a9 00000000 		.4byte	.LFB174
 6700 28ad 08000000 		.4byte	.LFE174-.LFB174
 6701 28b1 01       		.uleb128 0x1
 6702 28b2 9C       		.byte	0x9c
 6703 28b3 D9280000 		.4byte	0x28d9
 6704 28b7 31       		.uleb128 0x31
 6705 28b8 6F626A00 		.ascii	"obj\000"
 6706 28bc 01       		.byte	0x1
 6707 28bd 5E01     		.2byte	0x15e
 6708 28bf C6000000 		.4byte	0xc6
 6709 28c3 65070000 		.4byte	.LLST49
 6710 28c7 2F       		.uleb128 0x2f
 6711 28c8 06000000 		.4byte	.LVL142
 6712 28cc 44270000 		.4byte	0x2744
 6713 28d0 2E       		.uleb128 0x2e
 6714 28d1 01       		.uleb128 0x1
 6715 28d2 50       		.byte	0x50
 6716 28d3 03       		.uleb128 0x3
 6717 28d4 F3       		.byte	0xf3
 6718 28d5 01       		.uleb128 0x1
ARM GAS  C:\Users\haske\AppData\Local\Temp\ccFGJ08j.s 			page 134


 6719 28d6 50       		.byte	0x50
 6720 28d7 00       		.byte	0
 6721 28d8 00       		.byte	0
 6722 28d9 27       		.uleb128 0x27
 6723 28da 45220000 		.4byte	.LASF577
 6724 28de 01       		.byte	0x1
 6725 28df 55       		.byte	0x55
 6726 28e0 00000000 		.4byte	.LFB160
 6727 28e4 3C000000 		.4byte	.LFE160-.LFB160
 6728 28e8 01       		.uleb128 0x1
 6729 28e9 9C       		.byte	0x9c
 6730 28ea 7B290000 		.4byte	0x297b
 6731 28ee 28       		.uleb128 0x28
 6732 28ef 6F626A00 		.ascii	"obj\000"
 6733 28f3 01       		.byte	0x1
 6734 28f4 55       		.byte	0x55
 6735 28f5 AF210000 		.4byte	0x21af
 6736 28f9 86070000 		.4byte	.LLST50
 6737 28fd 3E       		.uleb128 0x3e
 6738 28fe B6000000 		.4byte	.LASF570
 6739 2902 01       		.byte	0x1
 6740 2903 5C       		.byte	0x5c
 6741 2904 AF210000 		.4byte	0x21af
 6742 2908 A4070000 		.4byte	.LLST51
 6743 290c 2D       		.uleb128 0x2d
 6744 290d 08000000 		.4byte	.LVL144
 6745 2911 DB2E0000 		.4byte	0x2edb
 6746 2915 20290000 		.4byte	0x2920
 6747 2919 2E       		.uleb128 0x2e
 6748 291a 01       		.uleb128 0x1
 6749 291b 50       		.byte	0x50
 6750 291c 02       		.uleb128 0x2
 6751 291d 74       		.byte	0x74
 6752 291e 00       		.sleb128 0
 6753 291f 00       		.byte	0
 6754 2920 2D       		.uleb128 0x2d
 6755 2921 10000000 		.4byte	.LVL145
 6756 2925 10230000 		.4byte	0x2310
 6757 2929 39290000 		.4byte	0x2939
 6758 292d 2E       		.uleb128 0x2e
 6759 292e 01       		.uleb128 0x1
 6760 292f 50       		.byte	0x50
 6761 2930 02       		.uleb128 0x2
 6762 2931 74       		.byte	0x74
 6763 2932 00       		.sleb128 0
 6764 2933 2E       		.uleb128 0x2e
 6765 2934 01       		.uleb128 0x1
 6766 2935 51       		.byte	0x51
 6767 2936 01       		.uleb128 0x1
 6768 2937 30       		.byte	0x30
 6769 2938 00       		.byte	0
 6770 2939 36       		.uleb128 0x36
 6771 293a 16000000 		.4byte	.LVL146
 6772 293e 45250000 		.4byte	0x2545
 6773 2942 2D       		.uleb128 0x2d
 6774 2943 1E000000 		.4byte	.LVL147
 6775 2947 10230000 		.4byte	0x2310
ARM GAS  C:\Users\haske\AppData\Local\Temp\ccFGJ08j.s 			page 135


 6776 294b 5B290000 		.4byte	0x295b
 6777 294f 2E       		.uleb128 0x2e
 6778 2950 01       		.uleb128 0x1
 6779 2951 50       		.byte	0x50
 6780 2952 02       		.uleb128 0x2
 6781 2953 74       		.byte	0x74
 6782 2954 00       		.sleb128 0
 6783 2955 2E       		.uleb128 0x2e
 6784 2956 01       		.uleb128 0x1
 6785 2957 51       		.byte	0x51
 6786 2958 01       		.uleb128 0x1
 6787 2959 30       		.byte	0x30
 6788 295a 00       		.byte	0
 6789 295b 2F       		.uleb128 0x2f
 6790 295c 2E000000 		.4byte	.LVL149
 6791 2960 0A2F0000 		.4byte	0x2f0a
 6792 2964 2E       		.uleb128 0x2e
 6793 2965 01       		.uleb128 0x1
 6794 2966 50       		.byte	0x50
 6795 2967 02       		.uleb128 0x2
 6796 2968 74       		.byte	0x74
 6797 2969 00       		.sleb128 0
 6798 296a 2E       		.uleb128 0x2e
 6799 296b 01       		.uleb128 0x1
 6800 296c 51       		.byte	0x51
 6801 296d 01       		.uleb128 0x1
 6802 296e 30       		.byte	0x30
 6803 296f 2E       		.uleb128 0x2e
 6804 2970 01       		.uleb128 0x1
 6805 2971 52       		.byte	0x52
 6806 2972 01       		.uleb128 0x1
 6807 2973 30       		.byte	0x30
 6808 2974 2E       		.uleb128 0x2e
 6809 2975 01       		.uleb128 0x1
 6810 2976 53       		.byte	0x53
 6811 2977 01       		.uleb128 0x1
 6812 2978 30       		.byte	0x30
 6813 2979 00       		.byte	0
 6814 297a 00       		.byte	0
 6815 297b 27       		.uleb128 0x27
 6816 297c BF130000 		.4byte	.LASF578
 6817 2980 01       		.byte	0x1
 6818 2981 84       		.byte	0x84
 6819 2982 00000000 		.4byte	.LFB164
 6820 2986 D8000000 		.4byte	.LFE164-.LFB164
 6821 298a 01       		.uleb128 0x1
 6822 298b 9C       		.byte	0x9c
 6823 298c 192B0000 		.4byte	0x2b19
 6824 2990 28       		.uleb128 0x28
 6825 2991 6F626A00 		.ascii	"obj\000"
 6826 2995 01       		.byte	0x1
 6827 2996 84       		.byte	0x84
 6828 2997 AF210000 		.4byte	0x21af
 6829 299b C2070000 		.4byte	.LLST52
 6830 299f 29       		.uleb128 0x29
 6831 29a0 3E0D0000 		.4byte	.LASF207
 6832 29a4 01       		.byte	0x1
ARM GAS  C:\Users\haske\AppData\Local\Temp\ccFGJ08j.s 			page 136


 6833 29a5 84       		.byte	0x84
 6834 29a6 AF210000 		.4byte	0x21af
 6835 29aa EE070000 		.4byte	.LLST53
 6836 29ae 3E       		.uleb128 0x3e
 6837 29af 34200000 		.4byte	.LASF579
 6838 29b3 01       		.byte	0x1
 6839 29b4 97       		.byte	0x97
 6840 29b5 AF210000 		.4byte	0x21af
 6841 29b9 1A080000 		.4byte	.LLST54
 6842 29bd 3D       		.uleb128 0x3d
 6843 29be 6900     		.ascii	"i\000"
 6844 29c0 01       		.byte	0x1
 6845 29c1 99       		.byte	0x99
 6846 29c2 02010000 		.4byte	0x102
 6847 29c6 2D080000 		.4byte	.LLST55
 6848 29ca 2D       		.uleb128 0x2d
 6849 29cb 14000000 		.4byte	.LVL151
 6850 29cf DB2E0000 		.4byte	0x2edb
 6851 29d3 DE290000 		.4byte	0x29de
 6852 29d7 2E       		.uleb128 0x2e
 6853 29d8 01       		.uleb128 0x1
 6854 29d9 50       		.byte	0x50
 6855 29da 02       		.uleb128 0x2
 6856 29db 77       		.byte	0x77
 6857 29dc 00       		.sleb128 0
 6858 29dd 00       		.byte	0
 6859 29de 2D       		.uleb128 0x2d
 6860 29df 1A000000 		.4byte	.LVL152
 6861 29e3 152F0000 		.4byte	0x2f15
 6862 29e7 F2290000 		.4byte	0x29f2
 6863 29eb 2E       		.uleb128 0x2e
 6864 29ec 01       		.uleb128 0x1
 6865 29ed 50       		.byte	0x50
 6866 29ee 02       		.uleb128 0x2
 6867 29ef 76       		.byte	0x76
 6868 29f0 00       		.sleb128 0
 6869 29f1 00       		.byte	0
 6870 29f2 2D       		.uleb128 0x2d
 6871 29f3 22000000 		.4byte	.LVL154
 6872 29f7 BE240000 		.4byte	0x24be
 6873 29fb 062A0000 		.4byte	0x2a06
 6874 29ff 2E       		.uleb128 0x2e
 6875 2a00 01       		.uleb128 0x1
 6876 2a01 50       		.byte	0x50
 6877 2a02 02       		.uleb128 0x2
 6878 2a03 77       		.byte	0x77
 6879 2a04 00       		.sleb128 0
 6880 2a05 00       		.byte	0
 6881 2a06 2D       		.uleb128 0x2d
 6882 2a07 3C000000 		.4byte	.LVL158
 6883 2a0b 5A230000 		.4byte	0x235a
 6884 2a0f 1A2A0000 		.4byte	0x2a1a
 6885 2a13 2E       		.uleb128 0x2e
 6886 2a14 01       		.uleb128 0x1
 6887 2a15 50       		.byte	0x50
 6888 2a16 02       		.uleb128 0x2
 6889 2a17 75       		.byte	0x75
ARM GAS  C:\Users\haske\AppData\Local\Temp\ccFGJ08j.s 			page 137


 6890 2a18 00       		.sleb128 0
 6891 2a19 00       		.byte	0
 6892 2a1a 36       		.uleb128 0x36
 6893 2a1b 58000000 		.4byte	.LVL160
 6894 2a1f 822E0000 		.4byte	0x2e82
 6895 2a23 36       		.uleb128 0x36
 6896 2a24 62000000 		.4byte	.LVL161
 6897 2a28 D02E0000 		.4byte	0x2ed0
 6898 2a2c 36       		.uleb128 0x36
 6899 2a2d 7C000000 		.4byte	.LVL162
 6900 2a31 822E0000 		.4byte	0x2e82
 6901 2a35 2D       		.uleb128 0x2d
 6902 2a36 88000000 		.4byte	.LVL163
 6903 2a3a 5A230000 		.4byte	0x235a
 6904 2a3e 492A0000 		.4byte	0x2a49
 6905 2a42 2E       		.uleb128 0x2e
 6906 2a43 01       		.uleb128 0x1
 6907 2a44 50       		.byte	0x50
 6908 2a45 02       		.uleb128 0x2
 6909 2a46 76       		.byte	0x76
 6910 2a47 00       		.sleb128 0
 6911 2a48 00       		.byte	0
 6912 2a49 2D       		.uleb128 0x2d
 6913 2a4a 9C000000 		.4byte	.LVL164
 6914 2a4e FE2E0000 		.4byte	0x2efe
 6915 2a52 622A0000 		.4byte	0x2a62
 6916 2a56 2E       		.uleb128 0x2e
 6917 2a57 01       		.uleb128 0x1
 6918 2a58 50       		.byte	0x50
 6919 2a59 02       		.uleb128 0x2
 6920 2a5a 75       		.byte	0x75
 6921 2a5b 00       		.sleb128 0
 6922 2a5c 2E       		.uleb128 0x2e
 6923 2a5d 01       		.uleb128 0x1
 6924 2a5e 51       		.byte	0x51
 6925 2a5f 01       		.uleb128 0x1
 6926 2a60 30       		.byte	0x30
 6927 2a61 00       		.byte	0
 6928 2a62 2D       		.uleb128 0x2d
 6929 2a63 A2000000 		.4byte	.LVL165
 6930 2a67 E72E0000 		.4byte	0x2ee7
 6931 2a6b 762A0000 		.4byte	0x2a76
 6932 2a6f 2E       		.uleb128 0x2e
 6933 2a70 01       		.uleb128 0x1
 6934 2a71 50       		.byte	0x50
 6935 2a72 02       		.uleb128 0x2
 6936 2a73 75       		.byte	0x75
 6937 2a74 00       		.sleb128 0
 6938 2a75 00       		.byte	0
 6939 2a76 2D       		.uleb128 0x2d
 6940 2a77 AC000000 		.4byte	.LVL166
 6941 2a7b 8D2E0000 		.4byte	0x2e8d
 6942 2a7f 962A0000 		.4byte	0x2a96
 6943 2a83 2E       		.uleb128 0x2e
 6944 2a84 01       		.uleb128 0x1
 6945 2a85 50       		.byte	0x50
 6946 2a86 02       		.uleb128 0x2
ARM GAS  C:\Users\haske\AppData\Local\Temp\ccFGJ08j.s 			page 138


 6947 2a87 75       		.byte	0x75
 6948 2a88 00       		.sleb128 0
 6949 2a89 2E       		.uleb128 0x2e
 6950 2a8a 01       		.uleb128 0x1
 6951 2a8b 51       		.byte	0x51
 6952 2a8c 02       		.uleb128 0x2
 6953 2a8d 08       		.byte	0x8
 6954 2a8e 22       		.byte	0x22
 6955 2a8f 2E       		.uleb128 0x2e
 6956 2a90 01       		.uleb128 0x1
 6957 2a91 52       		.byte	0x52
 6958 2a92 02       		.uleb128 0x2
 6959 2a93 77       		.byte	0x77
 6960 2a94 00       		.sleb128 0
 6961 2a95 00       		.byte	0
 6962 2a96 2D       		.uleb128 0x2d
 6963 2a97 B6000000 		.4byte	.LVL167
 6964 2a9b 8D2E0000 		.4byte	0x2e8d
 6965 2a9f B52A0000 		.4byte	0x2ab5
 6966 2aa3 2E       		.uleb128 0x2e
 6967 2aa4 01       		.uleb128 0x1
 6968 2aa5 50       		.byte	0x50
 6969 2aa6 02       		.uleb128 0x2
 6970 2aa7 75       		.byte	0x75
 6971 2aa8 00       		.sleb128 0
 6972 2aa9 2E       		.uleb128 0x2e
 6973 2aaa 01       		.uleb128 0x1
 6974 2aab 51       		.byte	0x51
 6975 2aac 02       		.uleb128 0x2
 6976 2aad 08       		.byte	0x8
 6977 2aae 24       		.byte	0x24
 6978 2aaf 2E       		.uleb128 0x2e
 6979 2ab0 01       		.uleb128 0x1
 6980 2ab1 52       		.byte	0x52
 6981 2ab2 01       		.uleb128 0x1
 6982 2ab3 30       		.byte	0x30
 6983 2ab4 00       		.byte	0
 6984 2ab5 2D       		.uleb128 0x2d
 6985 2ab6 C0000000 		.4byte	.LVL168
 6986 2aba 8D2E0000 		.4byte	0x2e8d
 6987 2abe D52A0000 		.4byte	0x2ad5
 6988 2ac2 2E       		.uleb128 0x2e
 6989 2ac3 01       		.uleb128 0x1
 6990 2ac4 50       		.byte	0x50
 6991 2ac5 02       		.uleb128 0x2
 6992 2ac6 76       		.byte	0x76
 6993 2ac7 00       		.sleb128 0
 6994 2ac8 2E       		.uleb128 0x2e
 6995 2ac9 01       		.uleb128 0x1
 6996 2aca 51       		.byte	0x51
 6997 2acb 02       		.uleb128 0x2
 6998 2acc 08       		.byte	0x8
 6999 2acd 22       		.byte	0x22
 7000 2ace 2E       		.uleb128 0x2e
 7001 2acf 01       		.uleb128 0x1
 7002 2ad0 52       		.byte	0x52
 7003 2ad1 02       		.uleb128 0x2
ARM GAS  C:\Users\haske\AppData\Local\Temp\ccFGJ08j.s 			page 139


 7004 2ad2 77       		.byte	0x77
 7005 2ad3 00       		.sleb128 0
 7006 2ad4 00       		.byte	0
 7007 2ad5 2D       		.uleb128 0x2d
 7008 2ad6 CA000000 		.4byte	.LVL169
 7009 2ada 8D2E0000 		.4byte	0x2e8d
 7010 2ade F42A0000 		.4byte	0x2af4
 7011 2ae2 2E       		.uleb128 0x2e
 7012 2ae3 01       		.uleb128 0x1
 7013 2ae4 50       		.byte	0x50
 7014 2ae5 02       		.uleb128 0x2
 7015 2ae6 76       		.byte	0x76
 7016 2ae7 00       		.sleb128 0
 7017 2ae8 2E       		.uleb128 0x2e
 7018 2ae9 01       		.uleb128 0x1
 7019 2aea 51       		.byte	0x51
 7020 2aeb 02       		.uleb128 0x2
 7021 2aec 08       		.byte	0x8
 7022 2aed 23       		.byte	0x23
 7023 2aee 2E       		.uleb128 0x2e
 7024 2aef 01       		.uleb128 0x1
 7025 2af0 52       		.byte	0x52
 7026 2af1 01       		.uleb128 0x1
 7027 2af2 30       		.byte	0x30
 7028 2af3 00       		.byte	0
 7029 2af4 2D       		.uleb128 0x2d
 7030 2af5 D0000000 		.4byte	.LVL170
 7031 2af9 212F0000 		.4byte	0x2f21
 7032 2afd 082B0000 		.4byte	0x2b08
 7033 2b01 2E       		.uleb128 0x2e
 7034 2b02 01       		.uleb128 0x1
 7035 2b03 50       		.byte	0x50
 7036 2b04 02       		.uleb128 0x2
 7037 2b05 77       		.byte	0x77
 7038 2b06 00       		.sleb128 0
 7039 2b07 00       		.byte	0
 7040 2b08 2F       		.uleb128 0x2f
 7041 2b09 D6000000 		.4byte	.LVL171
 7042 2b0d DB2E0000 		.4byte	0x2edb
 7043 2b11 2E       		.uleb128 0x2e
 7044 2b12 01       		.uleb128 0x1
 7045 2b13 50       		.byte	0x50
 7046 2b14 02       		.uleb128 0x2
 7047 2b15 77       		.byte	0x77
 7048 2b16 00       		.sleb128 0
 7049 2b17 00       		.byte	0
 7050 2b18 00       		.byte	0
 7051 2b19 27       		.uleb128 0x27
 7052 2b1a 88020000 		.4byte	.LASF580
 7053 2b1e 01       		.byte	0x1
 7054 2b1f BE       		.byte	0xbe
 7055 2b20 00000000 		.4byte	.LFB165
 7056 2b24 7E000000 		.4byte	.LFE165-.LFB165
 7057 2b28 01       		.uleb128 0x1
 7058 2b29 9C       		.byte	0x9c
 7059 2b2a 002C0000 		.4byte	0x2c00
 7060 2b2e 28       		.uleb128 0x28
ARM GAS  C:\Users\haske\AppData\Local\Temp\ccFGJ08j.s 			page 140


 7061 2b2f 6F626A00 		.ascii	"obj\000"
 7062 2b33 01       		.byte	0x1
 7063 2b34 BE       		.byte	0xbe
 7064 2b35 AF210000 		.4byte	0x21af
 7065 2b39 4B080000 		.4byte	.LLST56
 7066 2b3d 29       		.uleb128 0x29
 7067 2b3e E01D0000 		.4byte	.LASF581
 7068 2b42 01       		.byte	0x1
 7069 2b43 BE       		.byte	0xbe
 7070 2b44 02010000 		.4byte	0x102
 7071 2b48 69080000 		.4byte	.LLST57
 7072 2b4c 3E       		.uleb128 0x3e
 7073 2b4d 41030000 		.4byte	.LASF582
 7074 2b51 01       		.byte	0x1
 7075 2b52 C6       		.byte	0xc6
 7076 2b53 002C0000 		.4byte	0x2c00
 7077 2b57 87080000 		.4byte	.LLST58
 7078 2b5b 3E       		.uleb128 0x3e
 7079 2b5c 3E0D0000 		.4byte	.LASF207
 7080 2b60 01       		.byte	0x1
 7081 2b61 C8       		.byte	0xc8
 7082 2b62 AF210000 		.4byte	0x21af
 7083 2b66 A5080000 		.4byte	.LLST59
 7084 2b6a 3D       		.uleb128 0x3d
 7085 2b6b 6900     		.ascii	"i\000"
 7086 2b6d 01       		.byte	0x1
 7087 2b6e CE       		.byte	0xce
 7088 2b6f 02010000 		.4byte	0x102
 7089 2b73 C3080000 		.4byte	.LLST60
 7090 2b77 2D       		.uleb128 0x2d
 7091 2b78 0C000000 		.4byte	.LVL173
 7092 2b7c F4210000 		.4byte	0x21f4
 7093 2b80 8B2B0000 		.4byte	0x2b8b
 7094 2b84 2E       		.uleb128 0x2e
 7095 2b85 01       		.uleb128 0x1
 7096 2b86 50       		.byte	0x50
 7097 2b87 02       		.uleb128 0x2
 7098 2b88 77       		.byte	0x77
 7099 2b89 00       		.sleb128 0
 7100 2b8a 00       		.byte	0
 7101 2b8b 36       		.uleb128 0x36
 7102 2b8c 10000000 		.4byte	.LVL174
 7103 2b90 5A230000 		.4byte	0x235a
 7104 2b94 2D       		.uleb128 0x2d
 7105 2b95 18000000 		.4byte	.LVL176
 7106 2b99 BE240000 		.4byte	0x24be
 7107 2b9d A82B0000 		.4byte	0x2ba8
 7108 2ba1 2E       		.uleb128 0x2e
 7109 2ba2 01       		.uleb128 0x1
 7110 2ba3 50       		.byte	0x50
 7111 2ba4 02       		.uleb128 0x2
 7112 2ba5 77       		.byte	0x77
 7113 2ba6 00       		.sleb128 0
 7114 2ba7 00       		.byte	0
 7115 2ba8 2D       		.uleb128 0x2d
 7116 2ba9 20000000 		.4byte	.LVL179
 7117 2bad F4210000 		.4byte	0x21f4
ARM GAS  C:\Users\haske\AppData\Local\Temp\ccFGJ08j.s 			page 141


 7118 2bb1 BC2B0000 		.4byte	0x2bbc
 7119 2bb5 2E       		.uleb128 0x2e
 7120 2bb6 01       		.uleb128 0x1
 7121 2bb7 50       		.byte	0x50
 7122 2bb8 02       		.uleb128 0x2
 7123 2bb9 77       		.byte	0x77
 7124 2bba 00       		.sleb128 0
 7125 2bbb 00       		.byte	0
 7126 2bbc 2D       		.uleb128 0x2d
 7127 2bbd 2A000000 		.4byte	.LVL181
 7128 2bc1 5A230000 		.4byte	0x235a
 7129 2bc5 D02B0000 		.4byte	0x2bd0
 7130 2bc9 2E       		.uleb128 0x2e
 7131 2bca 01       		.uleb128 0x1
 7132 2bcb 50       		.byte	0x50
 7133 2bcc 02       		.uleb128 0x2
 7134 2bcd 76       		.byte	0x76
 7135 2bce 00       		.sleb128 0
 7136 2bcf 00       		.byte	0
 7137 2bd0 2D       		.uleb128 0x2d
 7138 2bd1 76000000 		.4byte	.LVL186
 7139 2bd5 8D2E0000 		.4byte	0x2e8d
 7140 2bd9 EF2B0000 		.4byte	0x2bef
 7141 2bdd 2E       		.uleb128 0x2e
 7142 2bde 01       		.uleb128 0x1
 7143 2bdf 50       		.byte	0x50
 7144 2be0 02       		.uleb128 0x2
 7145 2be1 76       		.byte	0x76
 7146 2be2 00       		.sleb128 0
 7147 2be3 2E       		.uleb128 0x2e
 7148 2be4 01       		.uleb128 0x1
 7149 2be5 51       		.byte	0x51
 7150 2be6 02       		.uleb128 0x2
 7151 2be7 08       		.byte	0x8
 7152 2be8 22       		.byte	0x22
 7153 2be9 2E       		.uleb128 0x2e
 7154 2bea 01       		.uleb128 0x1
 7155 2beb 52       		.byte	0x52
 7156 2bec 01       		.uleb128 0x1
 7157 2bed 30       		.byte	0x30
 7158 2bee 00       		.byte	0
 7159 2bef 2F       		.uleb128 0x2f
 7160 2bf0 7C000000 		.4byte	.LVL187
 7161 2bf4 DB2E0000 		.4byte	0x2edb
 7162 2bf8 2E       		.uleb128 0x2e
 7163 2bf9 01       		.uleb128 0x1
 7164 2bfa 50       		.byte	0x50
 7165 2bfb 02       		.uleb128 0x2
 7166 2bfc 76       		.byte	0x76
 7167 2bfd 00       		.sleb128 0
 7168 2bfe 00       		.byte	0
 7169 2bff 00       		.byte	0
 7170 2c00 0E       		.uleb128 0xe
 7171 2c01 02010000 		.4byte	0x102
 7172 2c05 27       		.uleb128 0x27
 7173 2c06 A80F0000 		.4byte	.LASF583
 7174 2c0a 01       		.byte	0x1
ARM GAS  C:\Users\haske\AppData\Local\Temp\ccFGJ08j.s 			page 142


 7175 2c0b E1       		.byte	0xe1
 7176 2c0c 00000000 		.4byte	.LFB166
 7177 2c10 8E000000 		.4byte	.LFE166-.LFB166
 7178 2c14 01       		.uleb128 0x1
 7179 2c15 9C       		.byte	0x9c
 7180 2c16 C32D0000 		.4byte	0x2dc3
 7181 2c1a 29       		.uleb128 0x29
 7182 2c1b 880D0000 		.4byte	.LASF584
 7183 2c1f 01       		.byte	0x1
 7184 2c20 E1       		.byte	0xe1
 7185 2c21 AF210000 		.4byte	0x21af
 7186 2c25 D6080000 		.4byte	.LLST61
 7187 2c29 29       		.uleb128 0x29
 7188 2c2a 8D0D0000 		.4byte	.LASF585
 7189 2c2e 01       		.byte	0x1
 7190 2c2f E1       		.byte	0xe1
 7191 2c30 AF210000 		.4byte	0x21af
 7192 2c34 F4080000 		.4byte	.LLST62
 7193 2c38 3E       		.uleb128 0x3e
 7194 2c39 3E0D0000 		.4byte	.LASF207
 7195 2c3d 01       		.byte	0x1
 7196 2c3e E6       		.byte	0xe6
 7197 2c3f AF210000 		.4byte	0x21af
 7198 2c43 12090000 		.4byte	.LLST63
 7199 2c47 3E       		.uleb128 0x3e
 7200 2c48 890E0000 		.4byte	.LASF586
 7201 2c4c 01       		.byte	0x1
 7202 2c4d E7       		.byte	0xe7
 7203 2c4e AF210000 		.4byte	0x21af
 7204 2c52 30090000 		.4byte	.LLST64
 7205 2c56 3E       		.uleb128 0x3e
 7206 2c57 E11B0000 		.4byte	.LASF587
 7207 2c5b 01       		.byte	0x1
 7208 2c5c E9       		.byte	0xe9
 7209 2c5d 18010000 		.4byte	0x118
 7210 2c61 4E090000 		.4byte	.LLST65
 7211 2c65 3E       		.uleb128 0x3e
 7212 2c66 E81B0000 		.4byte	.LASF588
 7213 2c6a 01       		.byte	0x1
 7214 2c6b EA       		.byte	0xea
 7215 2c6c 18010000 		.4byte	0x118
 7216 2c70 6C090000 		.4byte	.LLST66
 7217 2c74 2D       		.uleb128 0x2d
 7218 2c75 0C000000 		.4byte	.LVL189
 7219 2c79 F4210000 		.4byte	0x21f4
 7220 2c7d 882C0000 		.4byte	0x2c88
 7221 2c81 2E       		.uleb128 0x2e
 7222 2c82 01       		.uleb128 0x1
 7223 2c83 50       		.byte	0x50
 7224 2c84 02       		.uleb128 0x2
 7225 2c85 75       		.byte	0x75
 7226 2c86 00       		.sleb128 0
 7227 2c87 00       		.byte	0
 7228 2c88 2D       		.uleb128 0x2d
 7229 2c89 14000000 		.4byte	.LVL192
 7230 2c8d F4210000 		.4byte	0x21f4
 7231 2c91 9C2C0000 		.4byte	0x2c9c
ARM GAS  C:\Users\haske\AppData\Local\Temp\ccFGJ08j.s 			page 143


 7232 2c95 2E       		.uleb128 0x2e
 7233 2c96 01       		.uleb128 0x1
 7234 2c97 50       		.byte	0x50
 7235 2c98 02       		.uleb128 0x2
 7236 2c99 74       		.byte	0x74
 7237 2c9a 00       		.sleb128 0
 7238 2c9b 00       		.byte	0
 7239 2c9c 2D       		.uleb128 0x2d
 7240 2c9d 1C000000 		.4byte	.LVL195
 7241 2ca1 BE240000 		.4byte	0x24be
 7242 2ca5 B02C0000 		.4byte	0x2cb0
 7243 2ca9 2E       		.uleb128 0x2e
 7244 2caa 01       		.uleb128 0x1
 7245 2cab 50       		.byte	0x50
 7246 2cac 02       		.uleb128 0x2
 7247 2cad 75       		.byte	0x75
 7248 2cae 00       		.sleb128 0
 7249 2caf 00       		.byte	0
 7250 2cb0 2D       		.uleb128 0x2d
 7251 2cb1 24000000 		.4byte	.LVL198
 7252 2cb5 BE240000 		.4byte	0x24be
 7253 2cb9 C42C0000 		.4byte	0x2cc4
 7254 2cbd 2E       		.uleb128 0x2e
 7255 2cbe 01       		.uleb128 0x1
 7256 2cbf 50       		.byte	0x50
 7257 2cc0 02       		.uleb128 0x2
 7258 2cc1 74       		.byte	0x74
 7259 2cc2 00       		.sleb128 0
 7260 2cc3 00       		.byte	0
 7261 2cc4 2D       		.uleb128 0x2d
 7262 2cc5 30000000 		.4byte	.LVL201
 7263 2cc9 8D2E0000 		.4byte	0x2e8d
 7264 2ccd E42C0000 		.4byte	0x2ce4
 7265 2cd1 2E       		.uleb128 0x2e
 7266 2cd2 01       		.uleb128 0x1
 7267 2cd3 50       		.byte	0x50
 7268 2cd4 02       		.uleb128 0x2
 7269 2cd5 77       		.byte	0x77
 7270 2cd6 00       		.sleb128 0
 7271 2cd7 2E       		.uleb128 0x2e
 7272 2cd8 01       		.uleb128 0x1
 7273 2cd9 51       		.byte	0x51
 7274 2cda 02       		.uleb128 0x2
 7275 2cdb 08       		.byte	0x8
 7276 2cdc 24       		.byte	0x24
 7277 2cdd 2E       		.uleb128 0x2e
 7278 2cde 01       		.uleb128 0x1
 7279 2cdf 52       		.byte	0x52
 7280 2ce0 02       		.uleb128 0x2
 7281 2ce1 74       		.byte	0x74
 7282 2ce2 00       		.sleb128 0
 7283 2ce3 00       		.byte	0
 7284 2ce4 2D       		.uleb128 0x2d
 7285 2ce5 3A000000 		.4byte	.LVL202
 7286 2ce9 8D2E0000 		.4byte	0x2e8d
 7287 2ced 042D0000 		.4byte	0x2d04
 7288 2cf1 2E       		.uleb128 0x2e
ARM GAS  C:\Users\haske\AppData\Local\Temp\ccFGJ08j.s 			page 144


 7289 2cf2 01       		.uleb128 0x1
 7290 2cf3 50       		.byte	0x50
 7291 2cf4 02       		.uleb128 0x2
 7292 2cf5 76       		.byte	0x76
 7293 2cf6 00       		.sleb128 0
 7294 2cf7 2E       		.uleb128 0x2e
 7295 2cf8 01       		.uleb128 0x1
 7296 2cf9 51       		.byte	0x51
 7297 2cfa 02       		.uleb128 0x2
 7298 2cfb 08       		.byte	0x8
 7299 2cfc 24       		.byte	0x24
 7300 2cfd 2E       		.uleb128 0x2e
 7301 2cfe 01       		.uleb128 0x1
 7302 2cff 52       		.byte	0x52
 7303 2d00 02       		.uleb128 0x2
 7304 2d01 75       		.byte	0x75
 7305 2d02 00       		.sleb128 0
 7306 2d03 00       		.byte	0
 7307 2d04 2D       		.uleb128 0x2d
 7308 2d05 54000000 		.4byte	.LVL203
 7309 2d09 8D2E0000 		.4byte	0x2e8d
 7310 2d0d 242D0000 		.4byte	0x2d24
 7311 2d11 2E       		.uleb128 0x2e
 7312 2d12 01       		.uleb128 0x1
 7313 2d13 50       		.byte	0x50
 7314 2d14 02       		.uleb128 0x2
 7315 2d15 76       		.byte	0x76
 7316 2d16 00       		.sleb128 0
 7317 2d17 2E       		.uleb128 0x2e
 7318 2d18 01       		.uleb128 0x1
 7319 2d19 51       		.byte	0x51
 7320 2d1a 02       		.uleb128 0x2
 7321 2d1b 08       		.byte	0x8
 7322 2d1c 22       		.byte	0x22
 7323 2d1d 2E       		.uleb128 0x2e
 7324 2d1e 01       		.uleb128 0x1
 7325 2d1f 52       		.byte	0x52
 7326 2d20 02       		.uleb128 0x2
 7327 2d21 74       		.byte	0x74
 7328 2d22 00       		.sleb128 0
 7329 2d23 00       		.byte	0
 7330 2d24 2D       		.uleb128 0x2d
 7331 2d25 5E000000 		.4byte	.LVL204
 7332 2d29 8D2E0000 		.4byte	0x2e8d
 7333 2d2d 442D0000 		.4byte	0x2d44
 7334 2d31 2E       		.uleb128 0x2e
 7335 2d32 01       		.uleb128 0x1
 7336 2d33 50       		.byte	0x50
 7337 2d34 02       		.uleb128 0x2
 7338 2d35 76       		.byte	0x76
 7339 2d36 00       		.sleb128 0
 7340 2d37 2E       		.uleb128 0x2e
 7341 2d38 01       		.uleb128 0x1
 7342 2d39 51       		.byte	0x51
 7343 2d3a 02       		.uleb128 0x2
 7344 2d3b 08       		.byte	0x8
 7345 2d3c 23       		.byte	0x23
ARM GAS  C:\Users\haske\AppData\Local\Temp\ccFGJ08j.s 			page 145


 7346 2d3d 2E       		.uleb128 0x2e
 7347 2d3e 01       		.uleb128 0x1
 7348 2d3f 52       		.byte	0x52
 7349 2d40 02       		.uleb128 0x2
 7350 2d41 74       		.byte	0x74
 7351 2d42 00       		.sleb128 0
 7352 2d43 00       		.byte	0
 7353 2d44 2D       		.uleb128 0x2d
 7354 2d45 68000000 		.4byte	.LVL205
 7355 2d49 8D2E0000 		.4byte	0x2e8d
 7356 2d4d 642D0000 		.4byte	0x2d64
 7357 2d51 2E       		.uleb128 0x2e
 7358 2d52 01       		.uleb128 0x1
 7359 2d53 50       		.byte	0x50
 7360 2d54 02       		.uleb128 0x2
 7361 2d55 77       		.byte	0x77
 7362 2d56 00       		.sleb128 0
 7363 2d57 2E       		.uleb128 0x2e
 7364 2d58 01       		.uleb128 0x1
 7365 2d59 51       		.byte	0x51
 7366 2d5a 02       		.uleb128 0x2
 7367 2d5b 08       		.byte	0x8
 7368 2d5c 22       		.byte	0x22
 7369 2d5d 2E       		.uleb128 0x2e
 7370 2d5e 01       		.uleb128 0x1
 7371 2d5f 52       		.byte	0x52
 7372 2d60 02       		.uleb128 0x2
 7373 2d61 75       		.byte	0x75
 7374 2d62 00       		.sleb128 0
 7375 2d63 00       		.byte	0
 7376 2d64 2D       		.uleb128 0x2d
 7377 2d65 72000000 		.4byte	.LVL206
 7378 2d69 8D2E0000 		.4byte	0x2e8d
 7379 2d6d 842D0000 		.4byte	0x2d84
 7380 2d71 2E       		.uleb128 0x2e
 7381 2d72 01       		.uleb128 0x1
 7382 2d73 50       		.byte	0x50
 7383 2d74 02       		.uleb128 0x2
 7384 2d75 77       		.byte	0x77
 7385 2d76 00       		.sleb128 0
 7386 2d77 2E       		.uleb128 0x2e
 7387 2d78 01       		.uleb128 0x1
 7388 2d79 51       		.byte	0x51
 7389 2d7a 02       		.uleb128 0x2
 7390 2d7b 08       		.byte	0x8
 7391 2d7c 23       		.byte	0x23
 7392 2d7d 2E       		.uleb128 0x2e
 7393 2d7e 01       		.uleb128 0x1
 7394 2d7f 52       		.byte	0x52
 7395 2d80 02       		.uleb128 0x2
 7396 2d81 75       		.byte	0x75
 7397 2d82 00       		.sleb128 0
 7398 2d83 00       		.byte	0
 7399 2d84 2D       		.uleb128 0x2d
 7400 2d85 78000000 		.4byte	.LVL207
 7401 2d89 DB2E0000 		.4byte	0x2edb
 7402 2d8d 982D0000 		.4byte	0x2d98
ARM GAS  C:\Users\haske\AppData\Local\Temp\ccFGJ08j.s 			page 146


 7403 2d91 2E       		.uleb128 0x2e
 7404 2d92 01       		.uleb128 0x1
 7405 2d93 50       		.byte	0x50
 7406 2d94 02       		.uleb128 0x2
 7407 2d95 76       		.byte	0x76
 7408 2d96 00       		.sleb128 0
 7409 2d97 00       		.byte	0
 7410 2d98 2D       		.uleb128 0x2d
 7411 2d99 82000000 		.4byte	.LVL208
 7412 2d9d DB2E0000 		.4byte	0x2edb
 7413 2da1 AC2D0000 		.4byte	0x2dac
 7414 2da5 2E       		.uleb128 0x2e
 7415 2da6 01       		.uleb128 0x1
 7416 2da7 50       		.byte	0x50
 7417 2da8 02       		.uleb128 0x2
 7418 2da9 77       		.byte	0x77
 7419 2daa 00       		.sleb128 0
 7420 2dab 00       		.byte	0
 7421 2dac 2F       		.uleb128 0x2f
 7422 2dad 8A000000 		.4byte	.LVL209
 7423 2db1 2C2F0000 		.4byte	0x2f2c
 7424 2db5 2E       		.uleb128 0x2e
 7425 2db6 01       		.uleb128 0x1
 7426 2db7 50       		.byte	0x50
 7427 2db8 02       		.uleb128 0x2
 7428 2db9 75       		.byte	0x75
 7429 2dba 00       		.sleb128 0
 7430 2dbb 2E       		.uleb128 0x2e
 7431 2dbc 01       		.uleb128 0x1
 7432 2dbd 51       		.byte	0x51
 7433 2dbe 02       		.uleb128 0x2
 7434 2dbf 74       		.byte	0x74
 7435 2dc0 00       		.sleb128 0
 7436 2dc1 00       		.byte	0
 7437 2dc2 00       		.byte	0
 7438 2dc3 3F       		.uleb128 0x3f
 7439 2dc4 411B0000 		.4byte	.LASF589
 7440 2dc8 01       		.byte	0x1
 7441 2dc9 5501     		.2byte	0x155
 7442 2dcb 00000000 		.4byte	.LFB173
 7443 2dcf 08000000 		.4byte	.LFE173-.LFB173
 7444 2dd3 01       		.uleb128 0x1
 7445 2dd4 9C       		.byte	0x9c
 7446 2dd5 282E0000 		.4byte	0x2e28
 7447 2dd9 38       		.uleb128 0x38
 7448 2dda D7120000 		.4byte	.LASF590
 7449 2dde 01       		.byte	0x1
 7450 2ddf 5501     		.2byte	0x155
 7451 2de1 AF210000 		.4byte	0x21af
 7452 2de5 8A090000 		.4byte	.LLST67
 7453 2de9 31       		.uleb128 0x31
 7454 2dea 636200   		.ascii	"cb\000"
 7455 2ded 01       		.byte	0x1
 7456 2dee 5501     		.2byte	0x155
 7457 2df0 8A1B0000 		.4byte	0x1b8a
 7458 2df4 AB090000 		.4byte	.LLST68
 7459 2df8 38       		.uleb128 0x38
ARM GAS  C:\Users\haske\AppData\Local\Temp\ccFGJ08j.s 			page 147


 7460 2df9 30210000 		.4byte	.LASF45
 7461 2dfd 01       		.byte	0x1
 7462 2dfe 5501     		.2byte	0x155
 7463 2e00 C6000000 		.4byte	0xc6
 7464 2e04 CC090000 		.4byte	.LLST69
 7465 2e08 2F       		.uleb128 0x2f
 7466 2e09 06000000 		.4byte	.LVL211
 7467 2e0d 85230000 		.4byte	0x2385
 7468 2e11 2E       		.uleb128 0x2e
 7469 2e12 01       		.uleb128 0x1
 7470 2e13 50       		.byte	0x50
 7471 2e14 03       		.uleb128 0x3
 7472 2e15 F3       		.byte	0xf3
 7473 2e16 01       		.uleb128 0x1
 7474 2e17 50       		.byte	0x50
 7475 2e18 2E       		.uleb128 0x2e
 7476 2e19 01       		.uleb128 0x1
 7477 2e1a 51       		.byte	0x51
 7478 2e1b 03       		.uleb128 0x3
 7479 2e1c F3       		.byte	0xf3
 7480 2e1d 01       		.uleb128 0x1
 7481 2e1e 51       		.byte	0x51
 7482 2e1f 2E       		.uleb128 0x2e
 7483 2e20 01       		.uleb128 0x1
 7484 2e21 52       		.byte	0x52
 7485 2e22 03       		.uleb128 0x3
 7486 2e23 F3       		.byte	0xf3
 7487 2e24 01       		.uleb128 0x1
 7488 2e25 52       		.byte	0x52
 7489 2e26 00       		.byte	0
 7490 2e27 00       		.byte	0
 7491 2e28 40       		.uleb128 0x40
 7492 2e29 100C0000 		.4byte	.LASF591
 7493 2e2d 08       		.byte	0x8
 7494 2e2e 94       		.byte	0x94
 7495 2e2f 870C0000 		.4byte	0xc87
 7496 2e33 40       		.uleb128 0x40
 7497 2e34 CA050000 		.4byte	.LASF592
 7498 2e38 21       		.byte	0x21
 7499 2e39 4C       		.byte	0x4c
 7500 2e3a 7A120000 		.4byte	0x127a
 7501 2e3e 41       		.uleb128 0x41
 7502 2e3f 201F0000 		.4byte	.LASF593
 7503 2e43 201F0000 		.4byte	.LASF593
 7504 2e47 02       		.byte	0x2
 7505 2e48 77       		.byte	0x77
 7506 2e49 42       		.uleb128 0x42
 7507 2e4a 881B0000 		.4byte	.LASF594
 7508 2e4e 881B0000 		.4byte	.LASF594
 7509 2e52 02       		.byte	0x2
 7510 2e53 3601     		.2byte	0x136
 7511 2e55 41       		.uleb128 0x41
 7512 2e56 AA1A0000 		.4byte	.LASF595
 7513 2e5a AA1A0000 		.4byte	.LASF595
 7514 2e5e 22       		.byte	0x22
 7515 2e5f 2C       		.byte	0x2c
 7516 2e60 41       		.uleb128 0x41
ARM GAS  C:\Users\haske\AppData\Local\Temp\ccFGJ08j.s 			page 148


 7517 2e61 B1210000 		.4byte	.LASF596
 7518 2e65 B1210000 		.4byte	.LASF596
 7519 2e69 17       		.byte	0x17
 7520 2e6a 64       		.byte	0x64
 7521 2e6b 41       		.uleb128 0x41
 7522 2e6c D91A0000 		.4byte	.LASF597
 7523 2e70 D91A0000 		.4byte	.LASF597
 7524 2e74 17       		.byte	0x17
 7525 2e75 73       		.byte	0x73
 7526 2e76 42       		.uleb128 0x42
 7527 2e77 01060000 		.4byte	.LASF598
 7528 2e7b 01060000 		.4byte	.LASF598
 7529 2e7f 19       		.byte	0x19
 7530 2e80 6001     		.2byte	0x160
 7531 2e82 41       		.uleb128 0x41
 7532 2e83 BA1F0000 		.4byte	.LASF599
 7533 2e87 BA1F0000 		.4byte	.LASF599
 7534 2e8b 23       		.byte	0x23
 7535 2e8c 59       		.byte	0x59
 7536 2e8d 41       		.uleb128 0x41
 7537 2e8e 97040000 		.4byte	.LASF600
 7538 2e92 97040000 		.4byte	.LASF600
 7539 2e96 20       		.byte	0x20
 7540 2e97 92       		.byte	0x92
 7541 2e98 42       		.uleb128 0x42
 7542 2e99 19230000 		.4byte	.LASF601
 7543 2e9d 19230000 		.4byte	.LASF601
 7544 2ea1 0F       		.byte	0xf
 7545 2ea2 3A01     		.2byte	0x13a
 7546 2ea4 41       		.uleb128 0x41
 7547 2ea5 A3160000 		.4byte	.LASF602
 7548 2ea9 A3160000 		.4byte	.LASF602
 7549 2ead 1A       		.byte	0x1a
 7550 2eae DF       		.byte	0xdf
 7551 2eaf 41       		.uleb128 0x41
 7552 2eb0 E7130000 		.4byte	.LASF603
 7553 2eb4 E7130000 		.4byte	.LASF603
 7554 2eb8 24       		.byte	0x24
 7555 2eb9 40       		.byte	0x40
 7556 2eba 41       		.uleb128 0x41
 7557 2ebb 0A040000 		.4byte	.LASF604
 7558 2ebf 0A040000 		.4byte	.LASF604
 7559 2ec3 24       		.byte	0x24
 7560 2ec4 96       		.byte	0x96
 7561 2ec5 41       		.uleb128 0x41
 7562 2ec6 551D0000 		.4byte	.LASF605
 7563 2eca 551D0000 		.4byte	.LASF605
 7564 2ece 1F       		.byte	0x1f
 7565 2ecf 4F       		.byte	0x4f
 7566 2ed0 41       		.uleb128 0x41
 7567 2ed1 13010000 		.4byte	.LASF606
 7568 2ed5 13010000 		.4byte	.LASF606
 7569 2ed9 23       		.byte	0x23
 7570 2eda 50       		.byte	0x50
 7571 2edb 42       		.uleb128 0x42
 7572 2edc 22200000 		.4byte	.LASF607
 7573 2ee0 22200000 		.4byte	.LASF607
ARM GAS  C:\Users\haske\AppData\Local\Temp\ccFGJ08j.s 			page 149


 7574 2ee4 25       		.byte	0x25
 7575 2ee5 7D01     		.2byte	0x17d
 7576 2ee7 42       		.uleb128 0x42
 7577 2ee8 F6130000 		.4byte	.LASF608
 7578 2eec F6130000 		.4byte	.LASF608
 7579 2ef0 1D       		.byte	0x1d
 7580 2ef1 2201     		.2byte	0x122
 7581 2ef3 41       		.uleb128 0x41
 7582 2ef4 BC110000 		.4byte	.LASF609
 7583 2ef8 BC110000 		.4byte	.LASF609
 7584 2efc 25       		.byte	0x25
 7585 2efd 99       		.byte	0x99
 7586 2efe 42       		.uleb128 0x42
 7587 2eff 77140000 		.4byte	.LASF610
 7588 2f03 77140000 		.4byte	.LASF610
 7589 2f07 1D       		.byte	0x1d
 7590 2f08 2901     		.2byte	0x129
 7591 2f0a 41       		.uleb128 0x41
 7592 2f0b 771A0000 		.4byte	.LASF611
 7593 2f0f 771A0000 		.4byte	.LASF611
 7594 2f13 1D       		.byte	0x1d
 7595 2f14 D8       		.byte	0xd8
 7596 2f15 42       		.uleb128 0x42
 7597 2f16 A01F0000 		.4byte	.LASF612
 7598 2f1a A01F0000 		.4byte	.LASF612
 7599 2f1e 0F       		.byte	0xf
 7600 2f1f 5001     		.2byte	0x150
 7601 2f21 41       		.uleb128 0x41
 7602 2f22 1A060000 		.4byte	.LASF613
 7603 2f26 1A060000 		.4byte	.LASF613
 7604 2f2a 25       		.byte	0x25
 7605 2f2b 93       		.byte	0x93
 7606 2f2c 41       		.uleb128 0x41
 7607 2f2d 0C1D0000 		.4byte	.LASF614
 7608 2f31 0C1D0000 		.4byte	.LASF614
 7609 2f35 1B       		.byte	0x1b
 7610 2f36 84       		.byte	0x84
 7611 2f37 00       		.byte	0
 7612              		.section	.debug_abbrev,"",%progbits
 7613              	.Ldebug_abbrev0:
 7614 0000 01       		.uleb128 0x1
 7615 0001 11       		.uleb128 0x11
 7616 0002 01       		.byte	0x1
 7617 0003 25       		.uleb128 0x25
 7618 0004 0E       		.uleb128 0xe
 7619 0005 13       		.uleb128 0x13
 7620 0006 0B       		.uleb128 0xb
 7621 0007 03       		.uleb128 0x3
 7622 0008 0E       		.uleb128 0xe
 7623 0009 1B       		.uleb128 0x1b
 7624 000a 0E       		.uleb128 0xe
 7625 000b 55       		.uleb128 0x55
 7626 000c 17       		.uleb128 0x17
 7627 000d 11       		.uleb128 0x11
 7628 000e 01       		.uleb128 0x1
 7629 000f 10       		.uleb128 0x10
 7630 0010 17       		.uleb128 0x17
ARM GAS  C:\Users\haske\AppData\Local\Temp\ccFGJ08j.s 			page 150


 7631 0011 00       		.byte	0
 7632 0012 00       		.byte	0
 7633 0013 02       		.uleb128 0x2
 7634 0014 16       		.uleb128 0x16
 7635 0015 00       		.byte	0
 7636 0016 03       		.uleb128 0x3
 7637 0017 0E       		.uleb128 0xe
 7638 0018 3A       		.uleb128 0x3a
 7639 0019 0B       		.uleb128 0xb
 7640 001a 3B       		.uleb128 0x3b
 7641 001b 0B       		.uleb128 0xb
 7642 001c 49       		.uleb128 0x49
 7643 001d 13       		.uleb128 0x13
 7644 001e 00       		.byte	0
 7645 001f 00       		.byte	0
 7646 0020 03       		.uleb128 0x3
 7647 0021 24       		.uleb128 0x24
 7648 0022 00       		.byte	0
 7649 0023 0B       		.uleb128 0xb
 7650 0024 0B       		.uleb128 0xb
 7651 0025 3E       		.uleb128 0x3e
 7652 0026 0B       		.uleb128 0xb
 7653 0027 03       		.uleb128 0x3
 7654 0028 0E       		.uleb128 0xe
 7655 0029 00       		.byte	0
 7656 002a 00       		.byte	0
 7657 002b 04       		.uleb128 0x4
 7658 002c 24       		.uleb128 0x24
 7659 002d 00       		.byte	0
 7660 002e 0B       		.uleb128 0xb
 7661 002f 0B       		.uleb128 0xb
 7662 0030 3E       		.uleb128 0x3e
 7663 0031 0B       		.uleb128 0xb
 7664 0032 03       		.uleb128 0x3
 7665 0033 08       		.uleb128 0x8
 7666 0034 00       		.byte	0
 7667 0035 00       		.byte	0
 7668 0036 05       		.uleb128 0x5
 7669 0037 0F       		.uleb128 0xf
 7670 0038 00       		.byte	0
 7671 0039 0B       		.uleb128 0xb
 7672 003a 0B       		.uleb128 0xb
 7673 003b 00       		.byte	0
 7674 003c 00       		.byte	0
 7675 003d 06       		.uleb128 0x6
 7676 003e 0F       		.uleb128 0xf
 7677 003f 00       		.byte	0
 7678 0040 0B       		.uleb128 0xb
 7679 0041 0B       		.uleb128 0xb
 7680 0042 49       		.uleb128 0x49
 7681 0043 13       		.uleb128 0x13
 7682 0044 00       		.byte	0
 7683 0045 00       		.byte	0
 7684 0046 07       		.uleb128 0x7
 7685 0047 26       		.uleb128 0x26
 7686 0048 00       		.byte	0
 7687 0049 00       		.byte	0
ARM GAS  C:\Users\haske\AppData\Local\Temp\ccFGJ08j.s 			page 151


 7688 004a 00       		.byte	0
 7689 004b 08       		.uleb128 0x8
 7690 004c 13       		.uleb128 0x13
 7691 004d 01       		.byte	0x1
 7692 004e 0B       		.uleb128 0xb
 7693 004f 0B       		.uleb128 0xb
 7694 0050 3A       		.uleb128 0x3a
 7695 0051 0B       		.uleb128 0xb
 7696 0052 3B       		.uleb128 0x3b
 7697 0053 0B       		.uleb128 0xb
 7698 0054 01       		.uleb128 0x1
 7699 0055 13       		.uleb128 0x13
 7700 0056 00       		.byte	0
 7701 0057 00       		.byte	0
 7702 0058 09       		.uleb128 0x9
 7703 0059 0D       		.uleb128 0xd
 7704 005a 00       		.byte	0
 7705 005b 03       		.uleb128 0x3
 7706 005c 08       		.uleb128 0x8
 7707 005d 3A       		.uleb128 0x3a
 7708 005e 0B       		.uleb128 0xb
 7709 005f 3B       		.uleb128 0x3b
 7710 0060 0B       		.uleb128 0xb
 7711 0061 49       		.uleb128 0x49
 7712 0062 13       		.uleb128 0x13
 7713 0063 38       		.uleb128 0x38
 7714 0064 0B       		.uleb128 0xb
 7715 0065 00       		.byte	0
 7716 0066 00       		.byte	0
 7717 0067 0A       		.uleb128 0xa
 7718 0068 0D       		.uleb128 0xd
 7719 0069 00       		.byte	0
 7720 006a 03       		.uleb128 0x3
 7721 006b 0E       		.uleb128 0xe
 7722 006c 3A       		.uleb128 0x3a
 7723 006d 0B       		.uleb128 0xb
 7724 006e 3B       		.uleb128 0x3b
 7725 006f 0B       		.uleb128 0xb
 7726 0070 49       		.uleb128 0x49
 7727 0071 13       		.uleb128 0x13
 7728 0072 38       		.uleb128 0x38
 7729 0073 0B       		.uleb128 0xb
 7730 0074 00       		.byte	0
 7731 0075 00       		.byte	0
 7732 0076 0B       		.uleb128 0xb
 7733 0077 0D       		.uleb128 0xd
 7734 0078 00       		.byte	0
 7735 0079 03       		.uleb128 0x3
 7736 007a 08       		.uleb128 0x8
 7737 007b 3A       		.uleb128 0x3a
 7738 007c 0B       		.uleb128 0xb
 7739 007d 3B       		.uleb128 0x3b
 7740 007e 0B       		.uleb128 0xb
 7741 007f 49       		.uleb128 0x49
 7742 0080 13       		.uleb128 0x13
 7743 0081 0B       		.uleb128 0xb
 7744 0082 0B       		.uleb128 0xb
ARM GAS  C:\Users\haske\AppData\Local\Temp\ccFGJ08j.s 			page 152


 7745 0083 0D       		.uleb128 0xd
 7746 0084 0B       		.uleb128 0xb
 7747 0085 0C       		.uleb128 0xc
 7748 0086 0B       		.uleb128 0xb
 7749 0087 38       		.uleb128 0x38
 7750 0088 0B       		.uleb128 0xb
 7751 0089 00       		.byte	0
 7752 008a 00       		.byte	0
 7753 008b 0C       		.uleb128 0xc
 7754 008c 0D       		.uleb128 0xd
 7755 008d 00       		.byte	0
 7756 008e 03       		.uleb128 0x3
 7757 008f 0E       		.uleb128 0xe
 7758 0090 3A       		.uleb128 0x3a
 7759 0091 0B       		.uleb128 0xb
 7760 0092 3B       		.uleb128 0x3b
 7761 0093 0B       		.uleb128 0xb
 7762 0094 49       		.uleb128 0x49
 7763 0095 13       		.uleb128 0x13
 7764 0096 0B       		.uleb128 0xb
 7765 0097 0B       		.uleb128 0xb
 7766 0098 0D       		.uleb128 0xd
 7767 0099 0B       		.uleb128 0xb
 7768 009a 0C       		.uleb128 0xc
 7769 009b 0B       		.uleb128 0xb
 7770 009c 38       		.uleb128 0x38
 7771 009d 0B       		.uleb128 0xb
 7772 009e 00       		.byte	0
 7773 009f 00       		.byte	0
 7774 00a0 0D       		.uleb128 0xd
 7775 00a1 13       		.uleb128 0x13
 7776 00a2 01       		.byte	0x1
 7777 00a3 03       		.uleb128 0x3
 7778 00a4 0E       		.uleb128 0xe
 7779 00a5 0B       		.uleb128 0xb
 7780 00a6 0B       		.uleb128 0xb
 7781 00a7 3A       		.uleb128 0x3a
 7782 00a8 0B       		.uleb128 0xb
 7783 00a9 3B       		.uleb128 0x3b
 7784 00aa 0B       		.uleb128 0xb
 7785 00ab 01       		.uleb128 0x1
 7786 00ac 13       		.uleb128 0x13
 7787 00ad 00       		.byte	0
 7788 00ae 00       		.byte	0
 7789 00af 0E       		.uleb128 0xe
 7790 00b0 26       		.uleb128 0x26
 7791 00b1 00       		.byte	0
 7792 00b2 49       		.uleb128 0x49
 7793 00b3 13       		.uleb128 0x13
 7794 00b4 00       		.byte	0
 7795 00b5 00       		.byte	0
 7796 00b6 0F       		.uleb128 0xf
 7797 00b7 15       		.uleb128 0x15
 7798 00b8 01       		.byte	0x1
 7799 00b9 27       		.uleb128 0x27
 7800 00ba 19       		.uleb128 0x19
 7801 00bb 49       		.uleb128 0x49
ARM GAS  C:\Users\haske\AppData\Local\Temp\ccFGJ08j.s 			page 153


 7802 00bc 13       		.uleb128 0x13
 7803 00bd 01       		.uleb128 0x1
 7804 00be 13       		.uleb128 0x13
 7805 00bf 00       		.byte	0
 7806 00c0 00       		.byte	0
 7807 00c1 10       		.uleb128 0x10
 7808 00c2 05       		.uleb128 0x5
 7809 00c3 00       		.byte	0
 7810 00c4 49       		.uleb128 0x49
 7811 00c5 13       		.uleb128 0x13
 7812 00c6 00       		.byte	0
 7813 00c7 00       		.byte	0
 7814 00c8 11       		.uleb128 0x11
 7815 00c9 04       		.uleb128 0x4
 7816 00ca 01       		.byte	0x1
 7817 00cb 0B       		.uleb128 0xb
 7818 00cc 0B       		.uleb128 0xb
 7819 00cd 49       		.uleb128 0x49
 7820 00ce 13       		.uleb128 0x13
 7821 00cf 3A       		.uleb128 0x3a
 7822 00d0 0B       		.uleb128 0xb
 7823 00d1 3B       		.uleb128 0x3b
 7824 00d2 0B       		.uleb128 0xb
 7825 00d3 01       		.uleb128 0x1
 7826 00d4 13       		.uleb128 0x13
 7827 00d5 00       		.byte	0
 7828 00d6 00       		.byte	0
 7829 00d7 12       		.uleb128 0x12
 7830 00d8 28       		.uleb128 0x28
 7831 00d9 00       		.byte	0
 7832 00da 03       		.uleb128 0x3
 7833 00db 0E       		.uleb128 0xe
 7834 00dc 1C       		.uleb128 0x1c
 7835 00dd 0B       		.uleb128 0xb
 7836 00de 00       		.byte	0
 7837 00df 00       		.byte	0
 7838 00e0 13       		.uleb128 0x13
 7839 00e1 17       		.uleb128 0x17
 7840 00e2 01       		.byte	0x1
 7841 00e3 0B       		.uleb128 0xb
 7842 00e4 0B       		.uleb128 0xb
 7843 00e5 3A       		.uleb128 0x3a
 7844 00e6 0B       		.uleb128 0xb
 7845 00e7 3B       		.uleb128 0x3b
 7846 00e8 0B       		.uleb128 0xb
 7847 00e9 01       		.uleb128 0x1
 7848 00ea 13       		.uleb128 0x13
 7849 00eb 00       		.byte	0
 7850 00ec 00       		.byte	0
 7851 00ed 14       		.uleb128 0x14
 7852 00ee 0D       		.uleb128 0xd
 7853 00ef 00       		.byte	0
 7854 00f0 03       		.uleb128 0x3
 7855 00f1 08       		.uleb128 0x8
 7856 00f2 3A       		.uleb128 0x3a
 7857 00f3 0B       		.uleb128 0xb
 7858 00f4 3B       		.uleb128 0x3b
ARM GAS  C:\Users\haske\AppData\Local\Temp\ccFGJ08j.s 			page 154


 7859 00f5 0B       		.uleb128 0xb
 7860 00f6 49       		.uleb128 0x49
 7861 00f7 13       		.uleb128 0x13
 7862 00f8 00       		.byte	0
 7863 00f9 00       		.byte	0
 7864 00fa 15       		.uleb128 0x15
 7865 00fb 0D       		.uleb128 0xd
 7866 00fc 00       		.byte	0
 7867 00fd 03       		.uleb128 0x3
 7868 00fe 0E       		.uleb128 0xe
 7869 00ff 3A       		.uleb128 0x3a
 7870 0100 0B       		.uleb128 0xb
 7871 0101 3B       		.uleb128 0x3b
 7872 0102 0B       		.uleb128 0xb
 7873 0103 49       		.uleb128 0x49
 7874 0104 13       		.uleb128 0x13
 7875 0105 00       		.byte	0
 7876 0106 00       		.byte	0
 7877 0107 16       		.uleb128 0x16
 7878 0108 15       		.uleb128 0x15
 7879 0109 01       		.byte	0x1
 7880 010a 27       		.uleb128 0x27
 7881 010b 19       		.uleb128 0x19
 7882 010c 01       		.uleb128 0x1
 7883 010d 13       		.uleb128 0x13
 7884 010e 00       		.byte	0
 7885 010f 00       		.byte	0
 7886 0110 17       		.uleb128 0x17
 7887 0111 01       		.uleb128 0x1
 7888 0112 01       		.byte	0x1
 7889 0113 49       		.uleb128 0x49
 7890 0114 13       		.uleb128 0x13
 7891 0115 01       		.uleb128 0x1
 7892 0116 13       		.uleb128 0x13
 7893 0117 00       		.byte	0
 7894 0118 00       		.byte	0
 7895 0119 18       		.uleb128 0x18
 7896 011a 21       		.uleb128 0x21
 7897 011b 00       		.byte	0
 7898 011c 49       		.uleb128 0x49
 7899 011d 13       		.uleb128 0x13
 7900 011e 2F       		.uleb128 0x2f
 7901 011f 0B       		.uleb128 0xb
 7902 0120 00       		.byte	0
 7903 0121 00       		.byte	0
 7904 0122 19       		.uleb128 0x19
 7905 0123 28       		.uleb128 0x28
 7906 0124 00       		.byte	0
 7907 0125 03       		.uleb128 0x3
 7908 0126 0E       		.uleb128 0xe
 7909 0127 1C       		.uleb128 0x1c
 7910 0128 05       		.uleb128 0x5
 7911 0129 00       		.byte	0
 7912 012a 00       		.byte	0
 7913 012b 1A       		.uleb128 0x1a
 7914 012c 16       		.uleb128 0x16
 7915 012d 00       		.byte	0
ARM GAS  C:\Users\haske\AppData\Local\Temp\ccFGJ08j.s 			page 155


 7916 012e 03       		.uleb128 0x3
 7917 012f 0E       		.uleb128 0xe
 7918 0130 3A       		.uleb128 0x3a
 7919 0131 0B       		.uleb128 0xb
 7920 0132 3B       		.uleb128 0x3b
 7921 0133 05       		.uleb128 0x5
 7922 0134 49       		.uleb128 0x49
 7923 0135 13       		.uleb128 0x13
 7924 0136 00       		.byte	0
 7925 0137 00       		.byte	0
 7926 0138 1B       		.uleb128 0x1b
 7927 0139 13       		.uleb128 0x13
 7928 013a 01       		.byte	0x1
 7929 013b 0B       		.uleb128 0xb
 7930 013c 0B       		.uleb128 0xb
 7931 013d 3A       		.uleb128 0x3a
 7932 013e 0B       		.uleb128 0xb
 7933 013f 3B       		.uleb128 0x3b
 7934 0140 05       		.uleb128 0x5
 7935 0141 01       		.uleb128 0x1
 7936 0142 13       		.uleb128 0x13
 7937 0143 00       		.byte	0
 7938 0144 00       		.byte	0
 7939 0145 1C       		.uleb128 0x1c
 7940 0146 0D       		.uleb128 0xd
 7941 0147 00       		.byte	0
 7942 0148 03       		.uleb128 0x3
 7943 0149 0E       		.uleb128 0xe
 7944 014a 3A       		.uleb128 0x3a
 7945 014b 0B       		.uleb128 0xb
 7946 014c 3B       		.uleb128 0x3b
 7947 014d 05       		.uleb128 0x5
 7948 014e 49       		.uleb128 0x49
 7949 014f 13       		.uleb128 0x13
 7950 0150 38       		.uleb128 0x38
 7951 0151 0B       		.uleb128 0xb
 7952 0152 00       		.byte	0
 7953 0153 00       		.byte	0
 7954 0154 1D       		.uleb128 0x1d
 7955 0155 17       		.uleb128 0x17
 7956 0156 01       		.byte	0x1
 7957 0157 0B       		.uleb128 0xb
 7958 0158 0B       		.uleb128 0xb
 7959 0159 3A       		.uleb128 0x3a
 7960 015a 0B       		.uleb128 0xb
 7961 015b 3B       		.uleb128 0x3b
 7962 015c 05       		.uleb128 0x5
 7963 015d 01       		.uleb128 0x1
 7964 015e 13       		.uleb128 0x13
 7965 015f 00       		.byte	0
 7966 0160 00       		.byte	0
 7967 0161 1E       		.uleb128 0x1e
 7968 0162 0D       		.uleb128 0xd
 7969 0163 00       		.byte	0
 7970 0164 03       		.uleb128 0x3
 7971 0165 0E       		.uleb128 0xe
 7972 0166 3A       		.uleb128 0x3a
ARM GAS  C:\Users\haske\AppData\Local\Temp\ccFGJ08j.s 			page 156


 7973 0167 0B       		.uleb128 0xb
 7974 0168 3B       		.uleb128 0x3b
 7975 0169 05       		.uleb128 0x5
 7976 016a 49       		.uleb128 0x49
 7977 016b 13       		.uleb128 0x13
 7978 016c 00       		.byte	0
 7979 016d 00       		.byte	0
 7980 016e 1F       		.uleb128 0x1f
 7981 016f 0D       		.uleb128 0xd
 7982 0170 00       		.byte	0
 7983 0171 03       		.uleb128 0x3
 7984 0172 08       		.uleb128 0x8
 7985 0173 3A       		.uleb128 0x3a
 7986 0174 0B       		.uleb128 0xb
 7987 0175 3B       		.uleb128 0x3b
 7988 0176 05       		.uleb128 0x5
 7989 0177 49       		.uleb128 0x49
 7990 0178 13       		.uleb128 0x13
 7991 0179 38       		.uleb128 0x38
 7992 017a 0B       		.uleb128 0xb
 7993 017b 00       		.byte	0
 7994 017c 00       		.byte	0
 7995 017d 20       		.uleb128 0x20
 7996 017e 35       		.uleb128 0x35
 7997 017f 00       		.byte	0
 7998 0180 49       		.uleb128 0x49
 7999 0181 13       		.uleb128 0x13
 8000 0182 00       		.byte	0
 8001 0183 00       		.byte	0
 8002 0184 21       		.uleb128 0x21
 8003 0185 13       		.uleb128 0x13
 8004 0186 01       		.byte	0x1
 8005 0187 03       		.uleb128 0x3
 8006 0188 0E       		.uleb128 0xe
 8007 0189 0B       		.uleb128 0xb
 8008 018a 05       		.uleb128 0x5
 8009 018b 3A       		.uleb128 0x3a
 8010 018c 0B       		.uleb128 0xb
 8011 018d 3B       		.uleb128 0x3b
 8012 018e 0B       		.uleb128 0xb
 8013 018f 01       		.uleb128 0x1
 8014 0190 13       		.uleb128 0x13
 8015 0191 00       		.byte	0
 8016 0192 00       		.byte	0
 8017 0193 22       		.uleb128 0x22
 8018 0194 0D       		.uleb128 0xd
 8019 0195 00       		.byte	0
 8020 0196 03       		.uleb128 0x3
 8021 0197 0E       		.uleb128 0xe
 8022 0198 3A       		.uleb128 0x3a
 8023 0199 0B       		.uleb128 0xb
 8024 019a 3B       		.uleb128 0x3b
 8025 019b 0B       		.uleb128 0xb
 8026 019c 49       		.uleb128 0x49
 8027 019d 13       		.uleb128 0x13
 8028 019e 38       		.uleb128 0x38
 8029 019f 05       		.uleb128 0x5
ARM GAS  C:\Users\haske\AppData\Local\Temp\ccFGJ08j.s 			page 157


 8030 01a0 00       		.byte	0
 8031 01a1 00       		.byte	0
 8032 01a2 23       		.uleb128 0x23
 8033 01a3 13       		.uleb128 0x13
 8034 01a4 00       		.byte	0
 8035 01a5 03       		.uleb128 0x3
 8036 01a6 0E       		.uleb128 0xe
 8037 01a7 3C       		.uleb128 0x3c
 8038 01a8 19       		.uleb128 0x19
 8039 01a9 00       		.byte	0
 8040 01aa 00       		.byte	0
 8041 01ab 24       		.uleb128 0x24
 8042 01ac 2E       		.uleb128 0x2e
 8043 01ad 01       		.byte	0x1
 8044 01ae 03       		.uleb128 0x3
 8045 01af 0E       		.uleb128 0xe
 8046 01b0 3A       		.uleb128 0x3a
 8047 01b1 0B       		.uleb128 0xb
 8048 01b2 3B       		.uleb128 0x3b
 8049 01b3 0B       		.uleb128 0xb
 8050 01b4 27       		.uleb128 0x27
 8051 01b5 19       		.uleb128 0x19
 8052 01b6 20       		.uleb128 0x20
 8053 01b7 0B       		.uleb128 0xb
 8054 01b8 01       		.uleb128 0x1
 8055 01b9 13       		.uleb128 0x13
 8056 01ba 00       		.byte	0
 8057 01bb 00       		.byte	0
 8058 01bc 25       		.uleb128 0x25
 8059 01bd 05       		.uleb128 0x5
 8060 01be 00       		.byte	0
 8061 01bf 03       		.uleb128 0x3
 8062 01c0 08       		.uleb128 0x8
 8063 01c1 3A       		.uleb128 0x3a
 8064 01c2 0B       		.uleb128 0xb
 8065 01c3 3B       		.uleb128 0x3b
 8066 01c4 0B       		.uleb128 0xb
 8067 01c5 49       		.uleb128 0x49
 8068 01c6 13       		.uleb128 0x13
 8069 01c7 00       		.byte	0
 8070 01c8 00       		.byte	0
 8071 01c9 26       		.uleb128 0x26
 8072 01ca 05       		.uleb128 0x5
 8073 01cb 00       		.byte	0
 8074 01cc 03       		.uleb128 0x3
 8075 01cd 0E       		.uleb128 0xe
 8076 01ce 3A       		.uleb128 0x3a
 8077 01cf 0B       		.uleb128 0xb
 8078 01d0 3B       		.uleb128 0x3b
 8079 01d1 0B       		.uleb128 0xb
 8080 01d2 49       		.uleb128 0x49
 8081 01d3 13       		.uleb128 0x13
 8082 01d4 00       		.byte	0
 8083 01d5 00       		.byte	0
 8084 01d6 27       		.uleb128 0x27
 8085 01d7 2E       		.uleb128 0x2e
 8086 01d8 01       		.byte	0x1
ARM GAS  C:\Users\haske\AppData\Local\Temp\ccFGJ08j.s 			page 158


 8087 01d9 3F       		.uleb128 0x3f
 8088 01da 19       		.uleb128 0x19
 8089 01db 03       		.uleb128 0x3
 8090 01dc 0E       		.uleb128 0xe
 8091 01dd 3A       		.uleb128 0x3a
 8092 01de 0B       		.uleb128 0xb
 8093 01df 3B       		.uleb128 0x3b
 8094 01e0 0B       		.uleb128 0xb
 8095 01e1 27       		.uleb128 0x27
 8096 01e2 19       		.uleb128 0x19
 8097 01e3 11       		.uleb128 0x11
 8098 01e4 01       		.uleb128 0x1
 8099 01e5 12       		.uleb128 0x12
 8100 01e6 06       		.uleb128 0x6
 8101 01e7 40       		.uleb128 0x40
 8102 01e8 18       		.uleb128 0x18
 8103 01e9 9742     		.uleb128 0x2117
 8104 01eb 19       		.uleb128 0x19
 8105 01ec 01       		.uleb128 0x1
 8106 01ed 13       		.uleb128 0x13
 8107 01ee 00       		.byte	0
 8108 01ef 00       		.byte	0
 8109 01f0 28       		.uleb128 0x28
 8110 01f1 05       		.uleb128 0x5
 8111 01f2 00       		.byte	0
 8112 01f3 03       		.uleb128 0x3
 8113 01f4 08       		.uleb128 0x8
 8114 01f5 3A       		.uleb128 0x3a
 8115 01f6 0B       		.uleb128 0xb
 8116 01f7 3B       		.uleb128 0x3b
 8117 01f8 0B       		.uleb128 0xb
 8118 01f9 49       		.uleb128 0x49
 8119 01fa 13       		.uleb128 0x13
 8120 01fb 02       		.uleb128 0x2
 8121 01fc 17       		.uleb128 0x17
 8122 01fd 00       		.byte	0
 8123 01fe 00       		.byte	0
 8124 01ff 29       		.uleb128 0x29
 8125 0200 05       		.uleb128 0x5
 8126 0201 00       		.byte	0
 8127 0202 03       		.uleb128 0x3
 8128 0203 0E       		.uleb128 0xe
 8129 0204 3A       		.uleb128 0x3a
 8130 0205 0B       		.uleb128 0xb
 8131 0206 3B       		.uleb128 0x3b
 8132 0207 0B       		.uleb128 0xb
 8133 0208 49       		.uleb128 0x49
 8134 0209 13       		.uleb128 0x13
 8135 020a 02       		.uleb128 0x2
 8136 020b 17       		.uleb128 0x17
 8137 020c 00       		.byte	0
 8138 020d 00       		.byte	0
 8139 020e 2A       		.uleb128 0x2a
 8140 020f 34       		.uleb128 0x34
 8141 0210 00       		.byte	0
 8142 0211 03       		.uleb128 0x3
 8143 0212 08       		.uleb128 0x8
ARM GAS  C:\Users\haske\AppData\Local\Temp\ccFGJ08j.s 			page 159


 8144 0213 3A       		.uleb128 0x3a
 8145 0214 0B       		.uleb128 0xb
 8146 0215 3B       		.uleb128 0x3b
 8147 0216 0B       		.uleb128 0xb
 8148 0217 49       		.uleb128 0x49
 8149 0218 13       		.uleb128 0x13
 8150 0219 02       		.uleb128 0x2
 8151 021a 18       		.uleb128 0x18
 8152 021b 00       		.byte	0
 8153 021c 00       		.byte	0
 8154 021d 2B       		.uleb128 0x2b
 8155 021e 1D       		.uleb128 0x1d
 8156 021f 01       		.byte	0x1
 8157 0220 31       		.uleb128 0x31
 8158 0221 13       		.uleb128 0x13
 8159 0222 11       		.uleb128 0x11
 8160 0223 01       		.uleb128 0x1
 8161 0224 12       		.uleb128 0x12
 8162 0225 06       		.uleb128 0x6
 8163 0226 58       		.uleb128 0x58
 8164 0227 0B       		.uleb128 0xb
 8165 0228 59       		.uleb128 0x59
 8166 0229 0B       		.uleb128 0xb
 8167 022a 01       		.uleb128 0x1
 8168 022b 13       		.uleb128 0x13
 8169 022c 00       		.byte	0
 8170 022d 00       		.byte	0
 8171 022e 2C       		.uleb128 0x2c
 8172 022f 05       		.uleb128 0x5
 8173 0230 00       		.byte	0
 8174 0231 31       		.uleb128 0x31
 8175 0232 13       		.uleb128 0x13
 8176 0233 02       		.uleb128 0x2
 8177 0234 17       		.uleb128 0x17
 8178 0235 00       		.byte	0
 8179 0236 00       		.byte	0
 8180 0237 2D       		.uleb128 0x2d
 8181 0238 898201   		.uleb128 0x4109
 8182 023b 01       		.byte	0x1
 8183 023c 11       		.uleb128 0x11
 8184 023d 01       		.uleb128 0x1
 8185 023e 31       		.uleb128 0x31
 8186 023f 13       		.uleb128 0x13
 8187 0240 01       		.uleb128 0x1
 8188 0241 13       		.uleb128 0x13
 8189 0242 00       		.byte	0
 8190 0243 00       		.byte	0
 8191 0244 2E       		.uleb128 0x2e
 8192 0245 8A8201   		.uleb128 0x410a
 8193 0248 00       		.byte	0
 8194 0249 02       		.uleb128 0x2
 8195 024a 18       		.uleb128 0x18
 8196 024b 9142     		.uleb128 0x2111
 8197 024d 18       		.uleb128 0x18
 8198 024e 00       		.byte	0
 8199 024f 00       		.byte	0
 8200 0250 2F       		.uleb128 0x2f
ARM GAS  C:\Users\haske\AppData\Local\Temp\ccFGJ08j.s 			page 160


 8201 0251 898201   		.uleb128 0x4109
 8202 0254 01       		.byte	0x1
 8203 0255 11       		.uleb128 0x11
 8204 0256 01       		.uleb128 0x1
 8205 0257 31       		.uleb128 0x31
 8206 0258 13       		.uleb128 0x13
 8207 0259 00       		.byte	0
 8208 025a 00       		.byte	0
 8209 025b 30       		.uleb128 0x30
 8210 025c 2E       		.uleb128 0x2e
 8211 025d 01       		.byte	0x1
 8212 025e 3F       		.uleb128 0x3f
 8213 025f 19       		.uleb128 0x19
 8214 0260 03       		.uleb128 0x3
 8215 0261 0E       		.uleb128 0xe
 8216 0262 3A       		.uleb128 0x3a
 8217 0263 0B       		.uleb128 0xb
 8218 0264 3B       		.uleb128 0x3b
 8219 0265 05       		.uleb128 0x5
 8220 0266 27       		.uleb128 0x27
 8221 0267 19       		.uleb128 0x19
 8222 0268 49       		.uleb128 0x49
 8223 0269 13       		.uleb128 0x13
 8224 026a 11       		.uleb128 0x11
 8225 026b 01       		.uleb128 0x1
 8226 026c 12       		.uleb128 0x12
 8227 026d 06       		.uleb128 0x6
 8228 026e 40       		.uleb128 0x40
 8229 026f 18       		.uleb128 0x18
 8230 0270 9742     		.uleb128 0x2117
 8231 0272 19       		.uleb128 0x19
 8232 0273 01       		.uleb128 0x1
 8233 0274 13       		.uleb128 0x13
 8234 0275 00       		.byte	0
 8235 0276 00       		.byte	0
 8236 0277 31       		.uleb128 0x31
 8237 0278 05       		.uleb128 0x5
 8238 0279 00       		.byte	0
 8239 027a 03       		.uleb128 0x3
 8240 027b 08       		.uleb128 0x8
 8241 027c 3A       		.uleb128 0x3a
 8242 027d 0B       		.uleb128 0xb
 8243 027e 3B       		.uleb128 0x3b
 8244 027f 05       		.uleb128 0x5
 8245 0280 49       		.uleb128 0x49
 8246 0281 13       		.uleb128 0x13
 8247 0282 02       		.uleb128 0x2
 8248 0283 17       		.uleb128 0x17
 8249 0284 00       		.byte	0
 8250 0285 00       		.byte	0
 8251 0286 32       		.uleb128 0x32
 8252 0287 2E       		.uleb128 0x2e
 8253 0288 01       		.byte	0x1
 8254 0289 3F       		.uleb128 0x3f
 8255 028a 19       		.uleb128 0x19
 8256 028b 03       		.uleb128 0x3
 8257 028c 0E       		.uleb128 0xe
ARM GAS  C:\Users\haske\AppData\Local\Temp\ccFGJ08j.s 			page 161


 8258 028d 3A       		.uleb128 0x3a
 8259 028e 0B       		.uleb128 0xb
 8260 028f 3B       		.uleb128 0x3b
 8261 0290 0B       		.uleb128 0xb
 8262 0291 27       		.uleb128 0x27
 8263 0292 19       		.uleb128 0x19
 8264 0293 49       		.uleb128 0x49
 8265 0294 13       		.uleb128 0x13
 8266 0295 11       		.uleb128 0x11
 8267 0296 01       		.uleb128 0x1
 8268 0297 12       		.uleb128 0x12
 8269 0298 06       		.uleb128 0x6
 8270 0299 40       		.uleb128 0x40
 8271 029a 18       		.uleb128 0x18
 8272 029b 9742     		.uleb128 0x2117
 8273 029d 19       		.uleb128 0x19
 8274 029e 01       		.uleb128 0x1
 8275 029f 13       		.uleb128 0x13
 8276 02a0 00       		.byte	0
 8277 02a1 00       		.byte	0
 8278 02a2 33       		.uleb128 0x33
 8279 02a3 34       		.uleb128 0x34
 8280 02a4 00       		.byte	0
 8281 02a5 03       		.uleb128 0x3
 8282 02a6 08       		.uleb128 0x8
 8283 02a7 3A       		.uleb128 0x3a
 8284 02a8 0B       		.uleb128 0xb
 8285 02a9 3B       		.uleb128 0x3b
 8286 02aa 05       		.uleb128 0x5
 8287 02ab 49       		.uleb128 0x49
 8288 02ac 13       		.uleb128 0x13
 8289 02ad 02       		.uleb128 0x2
 8290 02ae 17       		.uleb128 0x17
 8291 02af 00       		.byte	0
 8292 02b0 00       		.byte	0
 8293 02b1 34       		.uleb128 0x34
 8294 02b2 34       		.uleb128 0x34
 8295 02b3 00       		.byte	0
 8296 02b4 03       		.uleb128 0x3
 8297 02b5 0E       		.uleb128 0xe
 8298 02b6 3A       		.uleb128 0x3a
 8299 02b7 0B       		.uleb128 0xb
 8300 02b8 3B       		.uleb128 0x3b
 8301 02b9 05       		.uleb128 0x5
 8302 02ba 49       		.uleb128 0x49
 8303 02bb 13       		.uleb128 0x13
 8304 02bc 02       		.uleb128 0x2
 8305 02bd 17       		.uleb128 0x17
 8306 02be 00       		.byte	0
 8307 02bf 00       		.byte	0
 8308 02c0 35       		.uleb128 0x35
 8309 02c1 0B       		.uleb128 0xb
 8310 02c2 01       		.byte	0x1
 8311 02c3 55       		.uleb128 0x55
 8312 02c4 17       		.uleb128 0x17
 8313 02c5 01       		.uleb128 0x1
 8314 02c6 13       		.uleb128 0x13
ARM GAS  C:\Users\haske\AppData\Local\Temp\ccFGJ08j.s 			page 162


 8315 02c7 00       		.byte	0
 8316 02c8 00       		.byte	0
 8317 02c9 36       		.uleb128 0x36
 8318 02ca 898201   		.uleb128 0x4109
 8319 02cd 00       		.byte	0
 8320 02ce 11       		.uleb128 0x11
 8321 02cf 01       		.uleb128 0x1
 8322 02d0 31       		.uleb128 0x31
 8323 02d1 13       		.uleb128 0x13
 8324 02d2 00       		.byte	0
 8325 02d3 00       		.byte	0
 8326 02d4 37       		.uleb128 0x37
 8327 02d5 2E       		.uleb128 0x2e
 8328 02d6 01       		.byte	0x1
 8329 02d7 03       		.uleb128 0x3
 8330 02d8 0E       		.uleb128 0xe
 8331 02d9 3A       		.uleb128 0x3a
 8332 02da 0B       		.uleb128 0xb
 8333 02db 3B       		.uleb128 0x3b
 8334 02dc 05       		.uleb128 0x5
 8335 02dd 27       		.uleb128 0x27
 8336 02de 19       		.uleb128 0x19
 8337 02df 49       		.uleb128 0x49
 8338 02e0 13       		.uleb128 0x13
 8339 02e1 11       		.uleb128 0x11
 8340 02e2 01       		.uleb128 0x1
 8341 02e3 12       		.uleb128 0x12
 8342 02e4 06       		.uleb128 0x6
 8343 02e5 40       		.uleb128 0x40
 8344 02e6 18       		.uleb128 0x18
 8345 02e7 9742     		.uleb128 0x2117
 8346 02e9 19       		.uleb128 0x19
 8347 02ea 01       		.uleb128 0x1
 8348 02eb 13       		.uleb128 0x13
 8349 02ec 00       		.byte	0
 8350 02ed 00       		.byte	0
 8351 02ee 38       		.uleb128 0x38
 8352 02ef 05       		.uleb128 0x5
 8353 02f0 00       		.byte	0
 8354 02f1 03       		.uleb128 0x3
 8355 02f2 0E       		.uleb128 0xe
 8356 02f3 3A       		.uleb128 0x3a
 8357 02f4 0B       		.uleb128 0xb
 8358 02f5 3B       		.uleb128 0x3b
 8359 02f6 05       		.uleb128 0x5
 8360 02f7 49       		.uleb128 0x49
 8361 02f8 13       		.uleb128 0x13
 8362 02f9 02       		.uleb128 0x2
 8363 02fa 17       		.uleb128 0x17
 8364 02fb 00       		.byte	0
 8365 02fc 00       		.byte	0
 8366 02fd 39       		.uleb128 0x39
 8367 02fe 0B       		.uleb128 0xb
 8368 02ff 01       		.byte	0x1
 8369 0300 11       		.uleb128 0x11
 8370 0301 01       		.uleb128 0x1
 8371 0302 12       		.uleb128 0x12
ARM GAS  C:\Users\haske\AppData\Local\Temp\ccFGJ08j.s 			page 163


 8372 0303 06       		.uleb128 0x6
 8373 0304 01       		.uleb128 0x1
 8374 0305 13       		.uleb128 0x13
 8375 0306 00       		.byte	0
 8376 0307 00       		.byte	0
 8377 0308 3A       		.uleb128 0x3a
 8378 0309 898201   		.uleb128 0x4109
 8379 030c 01       		.byte	0x1
 8380 030d 11       		.uleb128 0x11
 8381 030e 01       		.uleb128 0x1
 8382 030f 00       		.byte	0
 8383 0310 00       		.byte	0
 8384 0311 3B       		.uleb128 0x3b
 8385 0312 2E       		.uleb128 0x2e
 8386 0313 01       		.byte	0x1
 8387 0314 03       		.uleb128 0x3
 8388 0315 0E       		.uleb128 0xe
 8389 0316 3A       		.uleb128 0x3a
 8390 0317 0B       		.uleb128 0xb
 8391 0318 3B       		.uleb128 0x3b
 8392 0319 05       		.uleb128 0x5
 8393 031a 27       		.uleb128 0x27
 8394 031b 19       		.uleb128 0x19
 8395 031c 11       		.uleb128 0x11
 8396 031d 01       		.uleb128 0x1
 8397 031e 12       		.uleb128 0x12
 8398 031f 06       		.uleb128 0x6
 8399 0320 40       		.uleb128 0x40
 8400 0321 18       		.uleb128 0x18
 8401 0322 9742     		.uleb128 0x2117
 8402 0324 19       		.uleb128 0x19
 8403 0325 01       		.uleb128 0x1
 8404 0326 13       		.uleb128 0x13
 8405 0327 00       		.byte	0
 8406 0328 00       		.byte	0
 8407 0329 3C       		.uleb128 0x3c
 8408 032a 34       		.uleb128 0x34
 8409 032b 00       		.byte	0
 8410 032c 03       		.uleb128 0x3
 8411 032d 08       		.uleb128 0x8
 8412 032e 3A       		.uleb128 0x3a
 8413 032f 0B       		.uleb128 0xb
 8414 0330 3B       		.uleb128 0x3b
 8415 0331 05       		.uleb128 0x5
 8416 0332 49       		.uleb128 0x49
 8417 0333 13       		.uleb128 0x13
 8418 0334 00       		.byte	0
 8419 0335 00       		.byte	0
 8420 0336 3D       		.uleb128 0x3d
 8421 0337 34       		.uleb128 0x34
 8422 0338 00       		.byte	0
 8423 0339 03       		.uleb128 0x3
 8424 033a 08       		.uleb128 0x8
 8425 033b 3A       		.uleb128 0x3a
 8426 033c 0B       		.uleb128 0xb
 8427 033d 3B       		.uleb128 0x3b
 8428 033e 0B       		.uleb128 0xb
ARM GAS  C:\Users\haske\AppData\Local\Temp\ccFGJ08j.s 			page 164


 8429 033f 49       		.uleb128 0x49
 8430 0340 13       		.uleb128 0x13
 8431 0341 02       		.uleb128 0x2
 8432 0342 17       		.uleb128 0x17
 8433 0343 00       		.byte	0
 8434 0344 00       		.byte	0
 8435 0345 3E       		.uleb128 0x3e
 8436 0346 34       		.uleb128 0x34
 8437 0347 00       		.byte	0
 8438 0348 03       		.uleb128 0x3
 8439 0349 0E       		.uleb128 0xe
 8440 034a 3A       		.uleb128 0x3a
 8441 034b 0B       		.uleb128 0xb
 8442 034c 3B       		.uleb128 0x3b
 8443 034d 0B       		.uleb128 0xb
 8444 034e 49       		.uleb128 0x49
 8445 034f 13       		.uleb128 0x13
 8446 0350 02       		.uleb128 0x2
 8447 0351 17       		.uleb128 0x17
 8448 0352 00       		.byte	0
 8449 0353 00       		.byte	0
 8450 0354 3F       		.uleb128 0x3f
 8451 0355 2E       		.uleb128 0x2e
 8452 0356 01       		.byte	0x1
 8453 0357 3F       		.uleb128 0x3f
 8454 0358 19       		.uleb128 0x19
 8455 0359 03       		.uleb128 0x3
 8456 035a 0E       		.uleb128 0xe
 8457 035b 3A       		.uleb128 0x3a
 8458 035c 0B       		.uleb128 0xb
 8459 035d 3B       		.uleb128 0x3b
 8460 035e 05       		.uleb128 0x5
 8461 035f 27       		.uleb128 0x27
 8462 0360 19       		.uleb128 0x19
 8463 0361 11       		.uleb128 0x11
 8464 0362 01       		.uleb128 0x1
 8465 0363 12       		.uleb128 0x12
 8466 0364 06       		.uleb128 0x6
 8467 0365 40       		.uleb128 0x40
 8468 0366 18       		.uleb128 0x18
 8469 0367 9742     		.uleb128 0x2117
 8470 0369 19       		.uleb128 0x19
 8471 036a 01       		.uleb128 0x1
 8472 036b 13       		.uleb128 0x13
 8473 036c 00       		.byte	0
 8474 036d 00       		.byte	0
 8475 036e 40       		.uleb128 0x40
 8476 036f 34       		.uleb128 0x34
 8477 0370 00       		.byte	0
 8478 0371 03       		.uleb128 0x3
 8479 0372 0E       		.uleb128 0xe
 8480 0373 3A       		.uleb128 0x3a
 8481 0374 0B       		.uleb128 0xb
 8482 0375 3B       		.uleb128 0x3b
 8483 0376 0B       		.uleb128 0xb
 8484 0377 49       		.uleb128 0x49
 8485 0378 13       		.uleb128 0x13
ARM GAS  C:\Users\haske\AppData\Local\Temp\ccFGJ08j.s 			page 165


 8486 0379 3F       		.uleb128 0x3f
 8487 037a 19       		.uleb128 0x19
 8488 037b 3C       		.uleb128 0x3c
 8489 037c 19       		.uleb128 0x19
 8490 037d 00       		.byte	0
 8491 037e 00       		.byte	0
 8492 037f 41       		.uleb128 0x41
 8493 0380 2E       		.uleb128 0x2e
 8494 0381 00       		.byte	0
 8495 0382 3F       		.uleb128 0x3f
 8496 0383 19       		.uleb128 0x19
 8497 0384 3C       		.uleb128 0x3c
 8498 0385 19       		.uleb128 0x19
 8499 0386 6E       		.uleb128 0x6e
 8500 0387 0E       		.uleb128 0xe
 8501 0388 03       		.uleb128 0x3
 8502 0389 0E       		.uleb128 0xe
 8503 038a 3A       		.uleb128 0x3a
 8504 038b 0B       		.uleb128 0xb
 8505 038c 3B       		.uleb128 0x3b
 8506 038d 0B       		.uleb128 0xb
 8507 038e 00       		.byte	0
 8508 038f 00       		.byte	0
 8509 0390 42       		.uleb128 0x42
 8510 0391 2E       		.uleb128 0x2e
 8511 0392 00       		.byte	0
 8512 0393 3F       		.uleb128 0x3f
 8513 0394 19       		.uleb128 0x19
 8514 0395 3C       		.uleb128 0x3c
 8515 0396 19       		.uleb128 0x19
 8516 0397 6E       		.uleb128 0x6e
 8517 0398 0E       		.uleb128 0xe
 8518 0399 03       		.uleb128 0x3
 8519 039a 0E       		.uleb128 0xe
 8520 039b 3A       		.uleb128 0x3a
 8521 039c 0B       		.uleb128 0xb
 8522 039d 3B       		.uleb128 0x3b
 8523 039e 05       		.uleb128 0x5
 8524 039f 00       		.byte	0
 8525 03a0 00       		.byte	0
 8526 03a1 00       		.byte	0
 8527              		.section	.debug_loc,"",%progbits
 8528              	.Ldebug_loc0:
 8529              	.LLST0:
 8530 0000 00000000 		.4byte	.LVL0
 8531 0004 0A000000 		.4byte	.LVL1
 8532 0008 0100     		.2byte	0x1
 8533 000a 50       		.byte	0x50
 8534 000b 0A000000 		.4byte	.LVL1
 8535 000f 2A000000 		.4byte	.LVL10
 8536 0013 0100     		.2byte	0x1
 8537 0015 55       		.byte	0x55
 8538 0016 2A000000 		.4byte	.LVL10
 8539 001a 30000000 		.4byte	.LFE161
 8540 001e 0400     		.2byte	0x4
 8541 0020 F3       		.byte	0xf3
 8542 0021 01       		.uleb128 0x1
ARM GAS  C:\Users\haske\AppData\Local\Temp\ccFGJ08j.s 			page 166


 8543 0022 50       		.byte	0x50
 8544 0023 9F       		.byte	0x9f
 8545 0024 00000000 		.4byte	0
 8546 0028 00000000 		.4byte	0
 8547              	.LLST1:
 8548 002c 00000000 		.4byte	.LVL0
 8549 0030 0D000000 		.4byte	.LVL2-1
 8550 0034 0100     		.2byte	0x1
 8551 0036 51       		.byte	0x51
 8552 0037 0D000000 		.4byte	.LVL2-1
 8553 003b 1A000000 		.4byte	.LVL6
 8554 003f 0100     		.2byte	0x1
 8555 0041 54       		.byte	0x54
 8556 0042 1A000000 		.4byte	.LVL6
 8557 0046 2A000000 		.4byte	.LVL10
 8558 004a 0400     		.2byte	0x4
 8559 004c 74       		.byte	0x74
 8560 004d 00       		.sleb128 0
 8561 004e 1F       		.byte	0x1f
 8562 004f 9F       		.byte	0x9f
 8563 0050 2A000000 		.4byte	.LVL10
 8564 0054 30000000 		.4byte	.LFE161
 8565 0058 0400     		.2byte	0x4
 8566 005a F3       		.byte	0xf3
 8567 005b 01       		.uleb128 0x1
 8568 005c 51       		.byte	0x51
 8569 005d 9F       		.byte	0x9f
 8570 005e 00000000 		.4byte	0
 8571 0062 00000000 		.4byte	0
 8572              	.LLST2:
 8573 0066 0E000000 		.4byte	.LVL2
 8574 006a 10000000 		.4byte	.LVL3
 8575 006e 0100     		.2byte	0x1
 8576 0070 55       		.byte	0x55
 8577 0071 00000000 		.4byte	0
 8578 0075 00000000 		.4byte	0
 8579              	.LLST3:
 8580 0079 0E000000 		.4byte	.LVL2
 8581 007d 10000000 		.4byte	.LVL3
 8582 0081 0400     		.2byte	0x4
 8583 0083 91       		.byte	0x91
 8584 0084 AC7F     		.sleb128 -84
 8585 0086 9F       		.byte	0x9f
 8586 0087 00000000 		.4byte	0
 8587 008b 00000000 		.4byte	0
 8588              	.LLST4:
 8589 008f 10000000 		.4byte	.LVL3
 8590 0093 14000000 		.4byte	.LVL4
 8591 0097 0200     		.2byte	0x2
 8592 0099 30       		.byte	0x30
 8593 009a 9F       		.byte	0x9f
 8594 009b 00000000 		.4byte	0
 8595 009f 00000000 		.4byte	0
 8596              	.LLST5:
 8597 00a3 10000000 		.4byte	.LVL3
 8598 00a7 14000000 		.4byte	.LVL4
 8599 00ab 0400     		.2byte	0x4
ARM GAS  C:\Users\haske\AppData\Local\Temp\ccFGJ08j.s 			page 167


 8600 00ad 91       		.byte	0x91
 8601 00ae AC7F     		.sleb128 -84
 8602 00b0 9F       		.byte	0x9f
 8603 00b1 00000000 		.4byte	0
 8604 00b5 00000000 		.4byte	0
 8605              	.LLST6:
 8606 00b9 14000000 		.4byte	.LVL4
 8607 00bd 18000000 		.4byte	.LVL5
 8608 00c1 0200     		.2byte	0x2
 8609 00c3 31       		.byte	0x31
 8610 00c4 9F       		.byte	0x9f
 8611 00c5 00000000 		.4byte	0
 8612 00c9 00000000 		.4byte	0
 8613              	.LLST7:
 8614 00cd 14000000 		.4byte	.LVL4
 8615 00d1 18000000 		.4byte	.LVL5
 8616 00d5 0400     		.2byte	0x4
 8617 00d7 91       		.byte	0x91
 8618 00d8 AC7F     		.sleb128 -84
 8619 00da 9F       		.byte	0x9f
 8620 00db 00000000 		.4byte	0
 8621 00df 00000000 		.4byte	0
 8622              	.LLST8:
 8623 00e3 18000000 		.4byte	.LVL5
 8624 00e7 1A000000 		.4byte	.LVL6
 8625 00eb 0100     		.2byte	0x1
 8626 00ed 54       		.byte	0x54
 8627 00ee 1A000000 		.4byte	.LVL6
 8628 00f2 1C000000 		.4byte	.LVL7
 8629 00f6 0400     		.2byte	0x4
 8630 00f8 74       		.byte	0x74
 8631 00f9 00       		.sleb128 0
 8632 00fa 1F       		.byte	0x1f
 8633 00fb 9F       		.byte	0x9f
 8634 00fc 00000000 		.4byte	0
 8635 0100 00000000 		.4byte	0
 8636              	.LLST9:
 8637 0104 18000000 		.4byte	.LVL5
 8638 0108 1C000000 		.4byte	.LVL7
 8639 010c 0400     		.2byte	0x4
 8640 010e 91       		.byte	0x91
 8641 010f AC7F     		.sleb128 -84
 8642 0111 9F       		.byte	0x9f
 8643 0112 00000000 		.4byte	0
 8644 0116 00000000 		.4byte	0
 8645              	.LLST10:
 8646 011a 1C000000 		.4byte	.LVL7
 8647 011e 20000000 		.4byte	.LVL8
 8648 0122 0600     		.2byte	0x6
 8649 0124 03       		.byte	0x3
 8650 0125 00000000 		.4byte	lv_obj_del_anim_ready_cb
 8651 0129 9F       		.byte	0x9f
 8652 012a 00000000 		.4byte	0
 8653 012e 00000000 		.4byte	0
 8654              	.LLST11:
 8655 0132 1C000000 		.4byte	.LVL7
 8656 0136 20000000 		.4byte	.LVL8
ARM GAS  C:\Users\haske\AppData\Local\Temp\ccFGJ08j.s 			page 168


 8657 013a 0400     		.2byte	0x4
 8658 013c 91       		.byte	0x91
 8659 013d AC7F     		.sleb128 -84
 8660 013f 9F       		.byte	0x9f
 8661 0140 00000000 		.4byte	0
 8662 0144 00000000 		.4byte	0
 8663              	.LLST12:
 8664 0148 00000000 		.4byte	.LVL11
 8665 014c 06000000 		.4byte	.LVL12
 8666 0150 0100     		.2byte	0x1
 8667 0152 50       		.byte	0x50
 8668 0153 06000000 		.4byte	.LVL12
 8669 0157 09000000 		.4byte	.LVL13-1
 8670 015b 0100     		.2byte	0x1
 8671 015d 51       		.byte	0x51
 8672 015e 09000000 		.4byte	.LVL13-1
 8673 0162 10000000 		.4byte	.LFE163
 8674 0166 0400     		.2byte	0x4
 8675 0168 F3       		.byte	0xf3
 8676 0169 01       		.uleb128 0x1
 8677 016a 50       		.byte	0x50
 8678 016b 9F       		.byte	0x9f
 8679 016c 00000000 		.4byte	0
 8680 0170 00000000 		.4byte	0
 8681              	.LLST13:
 8682 0174 00000000 		.4byte	.LVL14
 8683 0178 04000000 		.4byte	.LVL15
 8684 017c 0100     		.2byte	0x1
 8685 017e 50       		.byte	0x50
 8686 017f 04000000 		.4byte	.LVL15
 8687 0183 06000000 		.4byte	.LVL16
 8688 0187 0400     		.2byte	0x4
 8689 0189 F3       		.byte	0xf3
 8690 018a 01       		.uleb128 0x1
 8691 018b 50       		.byte	0x50
 8692 018c 9F       		.byte	0x9f
 8693 018d 06000000 		.4byte	.LVL16
 8694 0191 08000000 		.4byte	.LVL17
 8695 0195 0100     		.2byte	0x1
 8696 0197 50       		.byte	0x50
 8697 0198 08000000 		.4byte	.LVL17
 8698 019c 0A000000 		.4byte	.LFE169
 8699 01a0 0400     		.2byte	0x4
 8700 01a2 F3       		.byte	0xf3
 8701 01a3 01       		.uleb128 0x1
 8702 01a4 50       		.byte	0x50
 8703 01a5 9F       		.byte	0x9f
 8704 01a6 00000000 		.4byte	0
 8705 01aa 00000000 		.4byte	0
 8706              	.LLST14:
 8707 01ae 00000000 		.4byte	.LVL18
 8708 01b2 06000000 		.4byte	.LVL20
 8709 01b6 0100     		.2byte	0x1
 8710 01b8 50       		.byte	0x50
 8711 01b9 06000000 		.4byte	.LVL20
 8712 01bd 18000000 		.4byte	.LFE167
 8713 01c1 0400     		.2byte	0x4
ARM GAS  C:\Users\haske\AppData\Local\Temp\ccFGJ08j.s 			page 169


 8714 01c3 F3       		.byte	0xf3
 8715 01c4 01       		.uleb128 0x1
 8716 01c5 50       		.byte	0x50
 8717 01c6 9F       		.byte	0x9f
 8718 01c7 00000000 		.4byte	0
 8719 01cb 00000000 		.4byte	0
 8720              	.LLST15:
 8721 01cf 04000000 		.4byte	.LVL19
 8722 01d3 0D000000 		.4byte	.LVL22-1
 8723 01d7 0100     		.2byte	0x1
 8724 01d9 50       		.byte	0x50
 8725 01da 0D000000 		.4byte	.LVL22-1
 8726 01de 0E000000 		.4byte	.LVL22
 8727 01e2 0100     		.2byte	0x1
 8728 01e4 54       		.byte	0x54
 8729 01e5 0E000000 		.4byte	.LVL22
 8730 01e9 16000000 		.4byte	.LVL23
 8731 01ed 0100     		.2byte	0x1
 8732 01ef 50       		.byte	0x50
 8733 01f0 16000000 		.4byte	.LVL23
 8734 01f4 18000000 		.4byte	.LFE167
 8735 01f8 0100     		.2byte	0x1
 8736 01fa 53       		.byte	0x53
 8737 01fb 00000000 		.4byte	0
 8738 01ff 00000000 		.4byte	0
 8739              	.LLST16:
 8740 0203 06000000 		.4byte	.LVL20
 8741 0207 08000000 		.4byte	.LVL21
 8742 020b 0100     		.2byte	0x1
 8743 020d 54       		.byte	0x54
 8744 020e 08000000 		.4byte	.LVL21
 8745 0212 0D000000 		.4byte	.LVL22-1
 8746 0216 0100     		.2byte	0x1
 8747 0218 50       		.byte	0x50
 8748 0219 0D000000 		.4byte	.LVL22-1
 8749 021d 18000000 		.4byte	.LFE167
 8750 0221 0100     		.2byte	0x1
 8751 0223 54       		.byte	0x54
 8752 0224 00000000 		.4byte	0
 8753 0228 00000000 		.4byte	0
 8754              	.LLST17:
 8755 022c 00000000 		.4byte	.LVL24
 8756 0230 0B000000 		.4byte	.LVL25-1
 8757 0234 0100     		.2byte	0x1
 8758 0236 50       		.byte	0x50
 8759 0237 0B000000 		.4byte	.LVL25-1
 8760 023b 0E000000 		.4byte	.LVL26
 8761 023f 0100     		.2byte	0x1
 8762 0241 54       		.byte	0x54
 8763 0242 0E000000 		.4byte	.LVL26
 8764 0246 40000000 		.4byte	.LFE168
 8765 024a 0400     		.2byte	0x4
 8766 024c F3       		.byte	0xf3
 8767 024d 01       		.uleb128 0x1
 8768 024e 50       		.byte	0x50
 8769 024f 9F       		.byte	0x9f
 8770 0250 00000000 		.4byte	0
ARM GAS  C:\Users\haske\AppData\Local\Temp\ccFGJ08j.s 			page 170


 8771 0254 00000000 		.4byte	0
 8772              	.LLST18:
 8773 0258 0E000000 		.4byte	.LVL26
 8774 025c 3A000000 		.4byte	.LVL34
 8775 0260 0100     		.2byte	0x1
 8776 0262 54       		.byte	0x54
 8777 0263 00000000 		.4byte	0
 8778 0267 00000000 		.4byte	0
 8779              	.LLST19:
 8780 026b 14000000 		.4byte	.LVL27
 8781 026f 30000000 		.4byte	.LVL32
 8782 0273 0100     		.2byte	0x1
 8783 0275 50       		.byte	0x50
 8784 0276 30000000 		.4byte	.LVL32
 8785 027a 33000000 		.4byte	.LVL33-1
 8786 027e 0100     		.2byte	0x1
 8787 0280 51       		.byte	0x51
 8788 0281 34000000 		.4byte	.LVL33
 8789 0285 40000000 		.4byte	.LFE168
 8790 0289 0100     		.2byte	0x1
 8791 028b 50       		.byte	0x50
 8792 028c 00000000 		.4byte	0
 8793 0290 00000000 		.4byte	0
 8794              	.LLST20:
 8795 0294 16000000 		.4byte	.LVL28
 8796 0298 24000000 		.4byte	.LVL30
 8797 029c 0100     		.2byte	0x1
 8798 029e 53       		.byte	0x53
 8799 029f 26000000 		.4byte	.LVL31
 8800 02a3 33000000 		.4byte	.LVL33-1
 8801 02a7 0100     		.2byte	0x1
 8802 02a9 53       		.byte	0x53
 8803 02aa 00000000 		.4byte	0
 8804 02ae 00000000 		.4byte	0
 8805              	.LLST21:
 8806 02b2 00000000 		.4byte	.LVL35
 8807 02b6 18000000 		.4byte	.LVL39
 8808 02ba 0100     		.2byte	0x1
 8809 02bc 50       		.byte	0x50
 8810 02bd 18000000 		.4byte	.LVL39
 8811 02c1 24000000 		.4byte	.LVL40
 8812 02c5 0400     		.2byte	0x4
 8813 02c7 F3       		.byte	0xf3
 8814 02c8 01       		.uleb128 0x1
 8815 02c9 50       		.byte	0x50
 8816 02ca 9F       		.byte	0x9f
 8817 02cb 24000000 		.4byte	.LVL40
 8818 02cf 26000000 		.4byte	.LVL41
 8819 02d3 0100     		.2byte	0x1
 8820 02d5 50       		.byte	0x50
 8821 02d6 26000000 		.4byte	.LVL41
 8822 02da 28000000 		.4byte	.LVL42
 8823 02de 0400     		.2byte	0x4
 8824 02e0 F3       		.byte	0xf3
 8825 02e1 01       		.uleb128 0x1
 8826 02e2 50       		.byte	0x50
 8827 02e3 9F       		.byte	0x9f
ARM GAS  C:\Users\haske\AppData\Local\Temp\ccFGJ08j.s 			page 171


 8828 02e4 28000000 		.4byte	.LVL42
 8829 02e8 2A000000 		.4byte	.LVL43
 8830 02ec 0100     		.2byte	0x1
 8831 02ee 50       		.byte	0x50
 8832 02ef 2A000000 		.4byte	.LVL43
 8833 02f3 30000000 		.4byte	.LFE170
 8834 02f7 0400     		.2byte	0x4
 8835 02f9 F3       		.byte	0xf3
 8836 02fa 01       		.uleb128 0x1
 8837 02fb 50       		.byte	0x50
 8838 02fc 9F       		.byte	0x9f
 8839 02fd 00000000 		.4byte	0
 8840 0301 00000000 		.4byte	0
 8841              	.LLST22:
 8842 0305 00000000 		.4byte	.LVL35
 8843 0309 0C000000 		.4byte	.LVL36
 8844 030d 0100     		.2byte	0x1
 8845 030f 51       		.byte	0x51
 8846 0310 0C000000 		.4byte	.LVL36
 8847 0314 0E000000 		.4byte	.LVL37
 8848 0318 0400     		.2byte	0x4
 8849 031a F3       		.byte	0xf3
 8850 031b 01       		.uleb128 0x1
 8851 031c 51       		.byte	0x51
 8852 031d 9F       		.byte	0x9f
 8853 031e 0E000000 		.4byte	.LVL37
 8854 0322 30000000 		.4byte	.LFE170
 8855 0326 0100     		.2byte	0x1
 8856 0328 51       		.byte	0x51
 8857 0329 00000000 		.4byte	0
 8858 032d 00000000 		.4byte	0
 8859              	.LLST23:
 8860 0331 16000000 		.4byte	.LVL38
 8861 0335 24000000 		.4byte	.LVL40
 8862 0339 0100     		.2byte	0x1
 8863 033b 51       		.byte	0x51
 8864 033c 2C000000 		.4byte	.LVL44
 8865 0340 30000000 		.4byte	.LFE170
 8866 0344 0100     		.2byte	0x1
 8867 0346 51       		.byte	0x51
 8868 0347 00000000 		.4byte	0
 8869 034b 00000000 		.4byte	0
 8870              	.LLST24:
 8871 034f 00000000 		.4byte	.LVL45
 8872 0353 06000000 		.4byte	.LVL46
 8873 0357 0100     		.2byte	0x1
 8874 0359 50       		.byte	0x50
 8875 035a 06000000 		.4byte	.LVL46
 8876 035e 08000000 		.4byte	.LVL47
 8877 0362 0400     		.2byte	0x4
 8878 0364 F3       		.byte	0xf3
 8879 0365 01       		.uleb128 0x1
 8880 0366 50       		.byte	0x50
 8881 0367 9F       		.byte	0x9f
 8882 0368 08000000 		.4byte	.LVL47
 8883 036c 0A000000 		.4byte	.LVL48
 8884 0370 0100     		.2byte	0x1
ARM GAS  C:\Users\haske\AppData\Local\Temp\ccFGJ08j.s 			page 172


 8885 0372 50       		.byte	0x50
 8886 0373 0A000000 		.4byte	.LVL48
 8887 0377 0C000000 		.4byte	.LFE171
 8888 037b 0400     		.2byte	0x4
 8889 037d F3       		.byte	0xf3
 8890 037e 01       		.uleb128 0x1
 8891 037f 50       		.byte	0x50
 8892 0380 9F       		.byte	0x9f
 8893 0381 00000000 		.4byte	0
 8894 0385 00000000 		.4byte	0
 8895              	.LLST25:
 8896 0389 00000000 		.4byte	.LVL49
 8897 038d 0B000000 		.4byte	.LVL51-1
 8898 0391 0100     		.2byte	0x1
 8899 0393 50       		.byte	0x50
 8900 0394 0B000000 		.4byte	.LVL51-1
 8901 0398 3A000000 		.4byte	.LVL61
 8902 039c 0400     		.2byte	0x4
 8903 039e F3       		.byte	0xf3
 8904 039f 01       		.uleb128 0x1
 8905 03a0 50       		.byte	0x50
 8906 03a1 9F       		.byte	0x9f
 8907 03a2 3A000000 		.4byte	.LVL61
 8908 03a6 3F000000 		.4byte	.LVL63-1
 8909 03aa 0100     		.2byte	0x1
 8910 03ac 50       		.byte	0x50
 8911 03ad 3F000000 		.4byte	.LVL63-1
 8912 03b1 7C000000 		.4byte	.LFE176
 8913 03b5 0100     		.2byte	0x1
 8914 03b7 55       		.byte	0x55
 8915 03b8 00000000 		.4byte	0
 8916 03bc 00000000 		.4byte	0
 8917              	.LLST26:
 8918 03c0 00000000 		.4byte	.LVL49
 8919 03c4 0B000000 		.4byte	.LVL51-1
 8920 03c8 0100     		.2byte	0x1
 8921 03ca 51       		.byte	0x51
 8922 03cb 0B000000 		.4byte	.LVL51-1
 8923 03cf 3A000000 		.4byte	.LVL61
 8924 03d3 0100     		.2byte	0x1
 8925 03d5 56       		.byte	0x56
 8926 03d6 3A000000 		.4byte	.LVL61
 8927 03da 3E000000 		.4byte	.LVL62
 8928 03de 0100     		.2byte	0x1
 8929 03e0 51       		.byte	0x51
 8930 03e1 3E000000 		.4byte	.LVL62
 8931 03e5 7C000000 		.4byte	.LFE176
 8932 03e9 0100     		.2byte	0x1
 8933 03eb 56       		.byte	0x56
 8934 03ec 00000000 		.4byte	0
 8935 03f0 00000000 		.4byte	0
 8936              	.LLST27:
 8937 03f4 00000000 		.4byte	.LVL49
 8938 03f8 0B000000 		.4byte	.LVL51-1
 8939 03fc 0100     		.2byte	0x1
 8940 03fe 52       		.byte	0x52
 8941 03ff 0B000000 		.4byte	.LVL51-1
ARM GAS  C:\Users\haske\AppData\Local\Temp\ccFGJ08j.s 			page 173


 8942 0403 3A000000 		.4byte	.LVL61
 8943 0407 0100     		.2byte	0x1
 8944 0409 57       		.byte	0x57
 8945 040a 3A000000 		.4byte	.LVL61
 8946 040e 3F000000 		.4byte	.LVL63-1
 8947 0412 0100     		.2byte	0x1
 8948 0414 52       		.byte	0x52
 8949 0415 3F000000 		.4byte	.LVL63-1
 8950 0419 7C000000 		.4byte	.LFE176
 8951 041d 0100     		.2byte	0x1
 8952 041f 57       		.byte	0x57
 8953 0420 00000000 		.4byte	0
 8954 0424 00000000 		.4byte	0
 8955              	.LLST28:
 8956 0428 06000000 		.4byte	.LVL50
 8957 042c 40000000 		.4byte	.LVL63
 8958 0430 0200     		.2byte	0x2
 8959 0432 30       		.byte	0x30
 8960 0433 9F       		.byte	0x9f
 8961 0434 40000000 		.4byte	.LVL63
 8962 0438 4A000000 		.4byte	.LVL64
 8963 043c 0100     		.2byte	0x1
 8964 043e 50       		.byte	0x50
 8965 043f 5C000000 		.4byte	.LVL67
 8966 0443 68000000 		.4byte	.LVL71
 8967 0447 0100     		.2byte	0x1
 8968 0449 50       		.byte	0x50
 8969 044a 74000000 		.4byte	.LVL73
 8970 044e 76000000 		.4byte	.LVL74
 8971 0452 0100     		.2byte	0x1
 8972 0454 50       		.byte	0x50
 8973 0455 78000000 		.4byte	.LVL75
 8974 0459 7A000000 		.4byte	.LVL76
 8975 045d 0100     		.2byte	0x1
 8976 045f 50       		.byte	0x50
 8977 0460 00000000 		.4byte	0
 8978 0464 00000000 		.4byte	0
 8979              	.LLST29:
 8980 0468 0E000000 		.4byte	.LVL52
 8981 046c 10000000 		.4byte	.LVL53
 8982 0470 0100     		.2byte	0x1
 8983 0472 50       		.byte	0x50
 8984 0473 10000000 		.4byte	.LVL53
 8985 0477 22000000 		.4byte	.LVL56
 8986 047b 0100     		.2byte	0x1
 8987 047d 55       		.byte	0x55
 8988 047e 22000000 		.4byte	.LVL56
 8989 0482 24000000 		.4byte	.LVL57
 8990 0486 0100     		.2byte	0x1
 8991 0488 50       		.byte	0x50
 8992 0489 24000000 		.4byte	.LVL57
 8993 048d 32000000 		.4byte	.LVL59
 8994 0491 0100     		.2byte	0x1
 8995 0493 55       		.byte	0x55
 8996 0494 32000000 		.4byte	.LVL59
 8997 0498 38000000 		.4byte	.LVL60
 8998 049c 0100     		.2byte	0x1
ARM GAS  C:\Users\haske\AppData\Local\Temp\ccFGJ08j.s 			page 174


 8999 049e 50       		.byte	0x50
 9000 049f 38000000 		.4byte	.LVL60
 9001 04a3 3A000000 		.4byte	.LVL61
 9002 04a7 0100     		.2byte	0x1
 9003 04a9 55       		.byte	0x55
 9004 04aa 00000000 		.4byte	0
 9005 04ae 00000000 		.4byte	0
 9006              	.LLST30:
 9007 04b2 10000000 		.4byte	.LVL53
 9008 04b6 22000000 		.4byte	.LVL56
 9009 04ba 0100     		.2byte	0x1
 9010 04bc 54       		.byte	0x54
 9011 04bd 24000000 		.4byte	.LVL57
 9012 04c1 32000000 		.4byte	.LVL59
 9013 04c5 0100     		.2byte	0x1
 9014 04c7 54       		.byte	0x54
 9015 04c8 00000000 		.4byte	0
 9016 04cc 00000000 		.4byte	0
 9017              	.LLST31:
 9018 04d0 4C000000 		.4byte	.LVL65
 9019 04d4 64000000 		.4byte	.LVL69
 9020 04d8 0100     		.2byte	0x1
 9021 04da 54       		.byte	0x54
 9022 04db 66000000 		.4byte	.LVL70
 9023 04df 74000000 		.4byte	.LVL73
 9024 04e3 0100     		.2byte	0x1
 9025 04e5 54       		.byte	0x54
 9026 04e6 78000000 		.4byte	.LVL75
 9027 04ea 7C000000 		.4byte	.LFE176
 9028 04ee 0100     		.2byte	0x1
 9029 04f0 54       		.byte	0x54
 9030 04f1 00000000 		.4byte	0
 9031 04f5 00000000 		.4byte	0
 9032              	.LLST32:
 9033 04f9 00000000 		.4byte	.LVL77
 9034 04fd 07000000 		.4byte	.LVL78-1
 9035 0501 0100     		.2byte	0x1
 9036 0503 50       		.byte	0x50
 9037 0504 07000000 		.4byte	.LVL78-1
 9038 0508 36000000 		.4byte	.LFE172
 9039 050c 0100     		.2byte	0x1
 9040 050e 56       		.byte	0x56
 9041 050f 00000000 		.4byte	0
 9042 0513 00000000 		.4byte	0
 9043              	.LLST33:
 9044 0517 08000000 		.4byte	.LVL78
 9045 051b 10000000 		.4byte	.LVL79
 9046 051f 0100     		.2byte	0x1
 9047 0521 50       		.byte	0x50
 9048 0522 10000000 		.4byte	.LVL79
 9049 0526 2E000000 		.4byte	.LVL83
 9050 052a 0100     		.2byte	0x1
 9051 052c 55       		.byte	0x55
 9052 052d 2E000000 		.4byte	.LVL83
 9053 0531 30000000 		.4byte	.LVL84
 9054 0535 0100     		.2byte	0x1
 9055 0537 50       		.byte	0x50
ARM GAS  C:\Users\haske\AppData\Local\Temp\ccFGJ08j.s 			page 175


 9056 0538 32000000 		.4byte	.LVL85
 9057 053c 36000000 		.4byte	.LFE172
 9058 0540 0100     		.2byte	0x1
 9059 0542 55       		.byte	0x55
 9060 0543 00000000 		.4byte	0
 9061 0547 00000000 		.4byte	0
 9062              	.LLST34:
 9063 054b 10000000 		.4byte	.LVL79
 9064 054f 2E000000 		.4byte	.LVL83
 9065 0553 0100     		.2byte	0x1
 9066 0555 54       		.byte	0x54
 9067 0556 32000000 		.4byte	.LVL85
 9068 055a 36000000 		.4byte	.LFE172
 9069 055e 0100     		.2byte	0x1
 9070 0560 54       		.byte	0x54
 9071 0561 00000000 		.4byte	0
 9072 0565 00000000 		.4byte	0
 9073              	.LLST35:
 9074 0569 00000000 		.4byte	.LVL86
 9075 056d 0B000000 		.4byte	.LVL87-1
 9076 0571 0100     		.2byte	0x1
 9077 0573 50       		.byte	0x50
 9078 0574 0B000000 		.4byte	.LVL87-1
 9079 0578 02010000 		.4byte	.LFE175
 9080 057c 0100     		.2byte	0x1
 9081 057e 55       		.byte	0x55
 9082 057f 00000000 		.4byte	0
 9083 0583 00000000 		.4byte	0
 9084              	.LLST36:
 9085 0587 0C000000 		.4byte	.LVL87
 9086 058b 14000000 		.4byte	.LVL88
 9087 058f 0100     		.2byte	0x1
 9088 0591 50       		.byte	0x50
 9089 0592 00000000 		.4byte	0
 9090 0596 00000000 		.4byte	0
 9091              	.LLST37:
 9092 059a 18000000 		.4byte	.LVL89
 9093 059e 1D000000 		.4byte	.LVL90-1
 9094 05a2 0100     		.2byte	0x1
 9095 05a4 50       		.byte	0x50
 9096 05a5 26000000 		.4byte	.LVL91
 9097 05a9 2C000000 		.4byte	.LVL92
 9098 05ad 0100     		.2byte	0x1
 9099 05af 50       		.byte	0x50
 9100 05b0 00000000 		.4byte	0
 9101 05b4 00000000 		.4byte	0
 9102              	.LLST38:
 9103 05b8 32000000 		.4byte	.LVL94
 9104 05bc 34000000 		.4byte	.LVL95
 9105 05c0 0100     		.2byte	0x1
 9106 05c2 50       		.byte	0x50
 9107 05c3 34000000 		.4byte	.LVL95
 9108 05c7 00010000 		.4byte	.LVL122
 9109 05cb 0100     		.2byte	0x1
 9110 05cd 56       		.byte	0x56
 9111 05ce 00000000 		.4byte	0
 9112 05d2 00000000 		.4byte	0
ARM GAS  C:\Users\haske\AppData\Local\Temp\ccFGJ08j.s 			page 176


 9113              	.LLST39:
 9114 05d6 3A000000 		.4byte	.LVL97
 9115 05da 4C000000 		.4byte	.LVL98
 9116 05de 0100     		.2byte	0x1
 9117 05e0 50       		.byte	0x50
 9118 05e1 4C000000 		.4byte	.LVL98
 9119 05e5 78000000 		.4byte	.LVL103
 9120 05e9 0100     		.2byte	0x1
 9121 05eb 54       		.byte	0x54
 9122 05ec 78000000 		.4byte	.LVL103
 9123 05f0 7E000000 		.4byte	.LVL104
 9124 05f4 0100     		.2byte	0x1
 9125 05f6 50       		.byte	0x50
 9126 05f7 7E000000 		.4byte	.LVL104
 9127 05fb 8E000000 		.4byte	.LVL107
 9128 05ff 0100     		.2byte	0x1
 9129 0601 54       		.byte	0x54
 9130 0602 C8000000 		.4byte	.LVL114
 9131 0606 EE000000 		.4byte	.LVL119
 9132 060a 0100     		.2byte	0x1
 9133 060c 54       		.byte	0x54
 9134 060d 00000000 		.4byte	0
 9135 0611 00000000 		.4byte	0
 9136              	.LLST40:
 9137 0615 8E000000 		.4byte	.LVL107
 9138 0619 A6000000 		.4byte	.LVL110
 9139 061d 0100     		.2byte	0x1
 9140 061f 50       		.byte	0x50
 9141 0620 A6000000 		.4byte	.LVL110
 9142 0624 C8000000 		.4byte	.LVL114
 9143 0628 0100     		.2byte	0x1
 9144 062a 54       		.byte	0x54
 9145 062b 00000000 		.4byte	0
 9146 062f 00000000 		.4byte	0
 9147              	.LLST41:
 9148 0633 8E000000 		.4byte	.LVL107
 9149 0637 92000000 		.4byte	.LVL108
 9150 063b 0200     		.2byte	0x2
 9151 063d 30       		.byte	0x30
 9152 063e 9F       		.byte	0x9f
 9153 063f 92000000 		.4byte	.LVL108
 9154 0643 AC000000 		.4byte	.LVL111
 9155 0647 0100     		.2byte	0x1
 9156 0649 53       		.byte	0x53
 9157 064a AC000000 		.4byte	.LVL111
 9158 064e B2000000 		.4byte	.LVL112
 9159 0652 0300     		.2byte	0x3
 9160 0654 73       		.byte	0x73
 9161 0655 7F       		.sleb128 -1
 9162 0656 9F       		.byte	0x9f
 9163 0657 B2000000 		.4byte	.LVL112
 9164 065b C3000000 		.4byte	.LVL113-1
 9165 065f 0100     		.2byte	0x1
 9166 0661 53       		.byte	0x53
 9167 0662 00000000 		.4byte	0
 9168 0666 00000000 		.4byte	0
 9169              	.LLST42:
ARM GAS  C:\Users\haske\AppData\Local\Temp\ccFGJ08j.s 			page 177


 9170 066a CE000000 		.4byte	.LVL115
 9171 066e D0000000 		.4byte	.LVL116
 9172 0672 0100     		.2byte	0x1
 9173 0674 50       		.byte	0x50
 9174 0675 00000000 		.4byte	0
 9175 0679 00000000 		.4byte	0
 9176              	.LLST43:
 9177 067d CE000000 		.4byte	.LVL115
 9178 0681 D6000000 		.4byte	.LVL117
 9179 0685 0100     		.2byte	0x1
 9180 0687 50       		.byte	0x50
 9181 0688 D6000000 		.4byte	.LVL117
 9182 068c DC000000 		.4byte	.LVL118
 9183 0690 0300     		.2byte	0x3
 9184 0692 70       		.byte	0x70
 9185 0693 7F       		.sleb128 -1
 9186 0694 9F       		.byte	0x9f
 9187 0695 DC000000 		.4byte	.LVL118
 9188 0699 F4000000 		.4byte	.LVL120
 9189 069d 0100     		.2byte	0x1
 9190 069f 50       		.byte	0x50
 9191 06a0 00000000 		.4byte	0
 9192 06a4 00000000 		.4byte	0
 9193              	.LLST44:
 9194 06a8 00000000 		.4byte	.LVL123
 9195 06ac 07000000 		.4byte	.LVL124-1
 9196 06b0 0100     		.2byte	0x1
 9197 06b2 50       		.byte	0x50
 9198 06b3 07000000 		.4byte	.LVL124-1
 9199 06b7 6C000000 		.4byte	.LFE159
 9200 06bb 0100     		.2byte	0x1
 9201 06bd 55       		.byte	0x55
 9202 06be 00000000 		.4byte	0
 9203 06c2 00000000 		.4byte	0
 9204              	.LLST45:
 9205 06c6 0E000000 		.4byte	.LVL125
 9206 06ca 15000000 		.4byte	.LVL126-1
 9207 06ce 0100     		.2byte	0x1
 9208 06d0 50       		.byte	0x50
 9209 06d1 15000000 		.4byte	.LVL126-1
 9210 06d5 6C000000 		.4byte	.LFE159
 9211 06d9 0100     		.2byte	0x1
 9212 06db 54       		.byte	0x54
 9213 06dc 00000000 		.4byte	0
 9214 06e0 00000000 		.4byte	0
 9215              	.LLST46:
 9216 06e4 16000000 		.4byte	.LVL126
 9217 06e8 1E000000 		.4byte	.LVL127
 9218 06ec 0200     		.2byte	0x2
 9219 06ee 30       		.byte	0x30
 9220 06ef 9F       		.byte	0x9f
 9221 06f0 1E000000 		.4byte	.LVL127
 9222 06f4 2C000000 		.4byte	.LVL128
 9223 06f8 0100     		.2byte	0x1
 9224 06fa 50       		.byte	0x50
 9225 06fb 2C000000 		.4byte	.LVL128
 9226 06ff 32000000 		.4byte	.LVL129
ARM GAS  C:\Users\haske\AppData\Local\Temp\ccFGJ08j.s 			page 178


 9227 0703 0200     		.2byte	0x2
 9228 0705 30       		.byte	0x30
 9229 0706 9F       		.byte	0x9f
 9230 0707 32000000 		.4byte	.LVL129
 9231 070b 34000000 		.4byte	.LVL130
 9232 070f 0100     		.2byte	0x1
 9233 0711 50       		.byte	0x50
 9234 0712 34000000 		.4byte	.LVL130
 9235 0716 6C000000 		.4byte	.LFE159
 9236 071a 0100     		.2byte	0x1
 9237 071c 57       		.byte	0x57
 9238 071d 00000000 		.4byte	0
 9239 0721 00000000 		.4byte	0
 9240              	.LLST47:
 9241 0725 16000000 		.4byte	.LVL126
 9242 0729 34000000 		.4byte	.LVL130
 9243 072d 0200     		.2byte	0x2
 9244 072f 30       		.byte	0x30
 9245 0730 9F       		.byte	0x9f
 9246 0731 34000000 		.4byte	.LVL130
 9247 0735 6A000000 		.4byte	.LVL137
 9248 0739 0100     		.2byte	0x1
 9249 073b 56       		.byte	0x56
 9250 073c 00000000 		.4byte	0
 9251 0740 00000000 		.4byte	0
 9252              	.LLST48:
 9253 0744 00000000 		.4byte	.LVL138
 9254 0748 04000000 		.4byte	.LVL139
 9255 074c 0100     		.2byte	0x1
 9256 074e 50       		.byte	0x50
 9257 074f 04000000 		.4byte	.LVL139
 9258 0753 0A000000 		.4byte	.LFE162
 9259 0757 0400     		.2byte	0x4
 9260 0759 F3       		.byte	0xf3
 9261 075a 01       		.uleb128 0x1
 9262 075b 50       		.byte	0x50
 9263 075c 9F       		.byte	0x9f
 9264 075d 00000000 		.4byte	0
 9265 0761 00000000 		.4byte	0
 9266              	.LLST49:
 9267 0765 00000000 		.4byte	.LVL141
 9268 0769 05000000 		.4byte	.LVL142-1
 9269 076d 0100     		.2byte	0x1
 9270 076f 50       		.byte	0x50
 9271 0770 05000000 		.4byte	.LVL142-1
 9272 0774 08000000 		.4byte	.LFE174
 9273 0778 0400     		.2byte	0x4
 9274 077a F3       		.byte	0xf3
 9275 077b 01       		.uleb128 0x1
 9276 077c 50       		.byte	0x50
 9277 077d 9F       		.byte	0x9f
 9278 077e 00000000 		.4byte	0
 9279 0782 00000000 		.4byte	0
 9280              	.LLST50:
 9281 0786 00000000 		.4byte	.LVL143
 9282 078a 07000000 		.4byte	.LVL144-1
 9283 078e 0100     		.2byte	0x1
ARM GAS  C:\Users\haske\AppData\Local\Temp\ccFGJ08j.s 			page 179


 9284 0790 50       		.byte	0x50
 9285 0791 07000000 		.4byte	.LVL144-1
 9286 0795 3C000000 		.4byte	.LFE160
 9287 0799 0100     		.2byte	0x1
 9288 079b 54       		.byte	0x54
 9289 079c 00000000 		.4byte	0
 9290 07a0 00000000 		.4byte	0
 9291              	.LLST51:
 9292 07a4 10000000 		.4byte	.LVL145
 9293 07a8 15000000 		.4byte	.LVL146-1
 9294 07ac 0100     		.2byte	0x1
 9295 07ae 50       		.byte	0x50
 9296 07af 1E000000 		.4byte	.LVL147
 9297 07b3 2A000000 		.4byte	.LVL148
 9298 07b7 0100     		.2byte	0x1
 9299 07b9 50       		.byte	0x50
 9300 07ba 00000000 		.4byte	0
 9301 07be 00000000 		.4byte	0
 9302              	.LLST52:
 9303 07c2 00000000 		.4byte	.LVL150
 9304 07c6 13000000 		.4byte	.LVL151-1
 9305 07ca 0100     		.2byte	0x1
 9306 07cc 50       		.byte	0x50
 9307 07cd 13000000 		.4byte	.LVL151-1
 9308 07d1 D6000000 		.4byte	.LVL171
 9309 07d5 0100     		.2byte	0x1
 9310 07d7 57       		.byte	0x57
 9311 07d8 D6000000 		.4byte	.LVL171
 9312 07dc D8000000 		.4byte	.LFE164
 9313 07e0 0400     		.2byte	0x4
 9314 07e2 F3       		.byte	0xf3
 9315 07e3 01       		.uleb128 0x1
 9316 07e4 50       		.byte	0x50
 9317 07e5 9F       		.byte	0x9f
 9318 07e6 00000000 		.4byte	0
 9319 07ea 00000000 		.4byte	0
 9320              	.LLST53:
 9321 07ee 00000000 		.4byte	.LVL150
 9322 07f2 13000000 		.4byte	.LVL151-1
 9323 07f6 0100     		.2byte	0x1
 9324 07f8 51       		.byte	0x51
 9325 07f9 13000000 		.4byte	.LVL151-1
 9326 07fd D6000000 		.4byte	.LVL171
 9327 0801 0100     		.2byte	0x1
 9328 0803 56       		.byte	0x56
 9329 0804 D6000000 		.4byte	.LVL171
 9330 0808 D8000000 		.4byte	.LFE164
 9331 080c 0400     		.2byte	0x4
 9332 080e F3       		.byte	0xf3
 9333 080f 01       		.uleb128 0x1
 9334 0810 51       		.byte	0x51
 9335 0811 9F       		.byte	0x9f
 9336 0812 00000000 		.4byte	0
 9337 0816 00000000 		.4byte	0
 9338              	.LLST54:
 9339 081a 1C000000 		.4byte	.LVL153
 9340 081e D6000000 		.4byte	.LVL171
ARM GAS  C:\Users\haske\AppData\Local\Temp\ccFGJ08j.s 			page 180


 9341 0822 0100     		.2byte	0x1
 9342 0824 55       		.byte	0x55
 9343 0825 00000000 		.4byte	0
 9344 0829 00000000 		.4byte	0
 9345              	.LLST55:
 9346 082d 24000000 		.4byte	.LVL155
 9347 0831 26000000 		.4byte	.LVL156
 9348 0835 0100     		.2byte	0x1
 9349 0837 50       		.byte	0x50
 9350 0838 26000000 		.4byte	.LVL156
 9351 083c 4C000000 		.4byte	.LVL159
 9352 0840 0100     		.2byte	0x1
 9353 0842 54       		.byte	0x54
 9354 0843 00000000 		.4byte	0
 9355 0847 00000000 		.4byte	0
 9356              	.LLST56:
 9357 084b 00000000 		.4byte	.LVL172
 9358 084f 0B000000 		.4byte	.LVL173-1
 9359 0853 0100     		.2byte	0x1
 9360 0855 50       		.byte	0x50
 9361 0856 0B000000 		.4byte	.LVL173-1
 9362 085a 7E000000 		.4byte	.LFE165
 9363 085e 0100     		.2byte	0x1
 9364 0860 57       		.byte	0x57
 9365 0861 00000000 		.4byte	0
 9366 0865 00000000 		.4byte	0
 9367              	.LLST57:
 9368 0869 00000000 		.4byte	.LVL172
 9369 086d 0B000000 		.4byte	.LVL173-1
 9370 0871 0100     		.2byte	0x1
 9371 0873 51       		.byte	0x51
 9372 0874 0B000000 		.4byte	.LVL173-1
 9373 0878 7E000000 		.4byte	.LFE165
 9374 087c 0100     		.2byte	0x1
 9375 087e 55       		.byte	0x55
 9376 087f 00000000 		.4byte	0
 9377 0883 00000000 		.4byte	0
 9378              	.LLST58:
 9379 0887 1A000000 		.4byte	.LVL177
 9380 088b 1C000000 		.4byte	.LVL178
 9381 088f 0100     		.2byte	0x1
 9382 0891 50       		.byte	0x50
 9383 0892 1C000000 		.4byte	.LVL178
 9384 0896 36000000 		.4byte	.LVL183
 9385 089a 0100     		.2byte	0x1
 9386 089c 54       		.byte	0x54
 9387 089d 00000000 		.4byte	0
 9388 08a1 00000000 		.4byte	0
 9389              	.LLST59:
 9390 08a5 22000000 		.4byte	.LVL180
 9391 08a9 29000000 		.4byte	.LVL181-1
 9392 08ad 0100     		.2byte	0x1
 9393 08af 50       		.byte	0x50
 9394 08b0 29000000 		.4byte	.LVL181-1
 9395 08b4 7E000000 		.4byte	.LFE165
 9396 08b8 0100     		.2byte	0x1
 9397 08ba 56       		.byte	0x56
ARM GAS  C:\Users\haske\AppData\Local\Temp\ccFGJ08j.s 			page 181


 9398 08bb 00000000 		.4byte	0
 9399 08bf 00000000 		.4byte	0
 9400              	.LLST60:
 9401 08c3 32000000 		.4byte	.LVL182
 9402 08c7 7C000000 		.4byte	.LVL187
 9403 08cb 0100     		.2byte	0x1
 9404 08cd 54       		.byte	0x54
 9405 08ce 00000000 		.4byte	0
 9406 08d2 00000000 		.4byte	0
 9407              	.LLST61:
 9408 08d6 00000000 		.4byte	.LVL188
 9409 08da 0B000000 		.4byte	.LVL189-1
 9410 08de 0100     		.2byte	0x1
 9411 08e0 50       		.byte	0x50
 9412 08e1 0B000000 		.4byte	.LVL189-1
 9413 08e5 8E000000 		.4byte	.LFE166
 9414 08e9 0100     		.2byte	0x1
 9415 08eb 55       		.byte	0x55
 9416 08ec 00000000 		.4byte	0
 9417 08f0 00000000 		.4byte	0
 9418              	.LLST62:
 9419 08f4 00000000 		.4byte	.LVL188
 9420 08f8 0B000000 		.4byte	.LVL189-1
 9421 08fc 0100     		.2byte	0x1
 9422 08fe 51       		.byte	0x51
 9423 08ff 0B000000 		.4byte	.LVL189-1
 9424 0903 8E000000 		.4byte	.LFE166
 9425 0907 0100     		.2byte	0x1
 9426 0909 54       		.byte	0x54
 9427 090a 00000000 		.4byte	0
 9428 090e 00000000 		.4byte	0
 9429              	.LLST63:
 9430 0912 0E000000 		.4byte	.LVL190
 9431 0916 10000000 		.4byte	.LVL191
 9432 091a 0100     		.2byte	0x1
 9433 091c 50       		.byte	0x50
 9434 091d 10000000 		.4byte	.LVL191
 9435 0921 8E000000 		.4byte	.LFE166
 9436 0925 0100     		.2byte	0x1
 9437 0927 56       		.byte	0x56
 9438 0928 00000000 		.4byte	0
 9439 092c 00000000 		.4byte	0
 9440              	.LLST64:
 9441 0930 16000000 		.4byte	.LVL193
 9442 0934 18000000 		.4byte	.LVL194
 9443 0938 0100     		.2byte	0x1
 9444 093a 50       		.byte	0x50
 9445 093b 18000000 		.4byte	.LVL194
 9446 093f 8E000000 		.4byte	.LFE166
 9447 0943 0100     		.2byte	0x1
 9448 0945 57       		.byte	0x57
 9449 0946 00000000 		.4byte	0
 9450 094a 00000000 		.4byte	0
 9451              	.LLST65:
 9452 094e 1E000000 		.4byte	.LVL196
 9453 0952 20000000 		.4byte	.LVL197
 9454 0956 0100     		.2byte	0x1
ARM GAS  C:\Users\haske\AppData\Local\Temp\ccFGJ08j.s 			page 182


 9455 0958 50       		.byte	0x50
 9456 0959 20000000 		.4byte	.LVL197
 9457 095d 8E000000 		.4byte	.LFE166
 9458 0961 0100     		.2byte	0x1
 9459 0963 59       		.byte	0x59
 9460 0964 00000000 		.4byte	0
 9461 0968 00000000 		.4byte	0
 9462              	.LLST66:
 9463 096c 26000000 		.4byte	.LVL199
 9464 0970 2C000000 		.4byte	.LVL200
 9465 0974 0100     		.2byte	0x1
 9466 0976 50       		.byte	0x50
 9467 0977 2C000000 		.4byte	.LVL200
 9468 097b 8E000000 		.4byte	.LFE166
 9469 097f 0100     		.2byte	0x1
 9470 0981 58       		.byte	0x58
 9471 0982 00000000 		.4byte	0
 9472 0986 00000000 		.4byte	0
 9473              	.LLST67:
 9474 098a 00000000 		.4byte	.LVL210
 9475 098e 05000000 		.4byte	.LVL211-1
 9476 0992 0100     		.2byte	0x1
 9477 0994 50       		.byte	0x50
 9478 0995 05000000 		.4byte	.LVL211-1
 9479 0999 08000000 		.4byte	.LFE173
 9480 099d 0400     		.2byte	0x4
 9481 099f F3       		.byte	0xf3
 9482 09a0 01       		.uleb128 0x1
 9483 09a1 50       		.byte	0x50
 9484 09a2 9F       		.byte	0x9f
 9485 09a3 00000000 		.4byte	0
 9486 09a7 00000000 		.4byte	0
 9487              	.LLST68:
 9488 09ab 00000000 		.4byte	.LVL210
 9489 09af 05000000 		.4byte	.LVL211-1
 9490 09b3 0100     		.2byte	0x1
 9491 09b5 51       		.byte	0x51
 9492 09b6 05000000 		.4byte	.LVL211-1
 9493 09ba 08000000 		.4byte	.LFE173
 9494 09be 0400     		.2byte	0x4
 9495 09c0 F3       		.byte	0xf3
 9496 09c1 01       		.uleb128 0x1
 9497 09c2 51       		.byte	0x51
 9498 09c3 9F       		.byte	0x9f
 9499 09c4 00000000 		.4byte	0
 9500 09c8 00000000 		.4byte	0
 9501              	.LLST69:
 9502 09cc 00000000 		.4byte	.LVL210
 9503 09d0 05000000 		.4byte	.LVL211-1
 9504 09d4 0100     		.2byte	0x1
 9505 09d6 52       		.byte	0x52
 9506 09d7 05000000 		.4byte	.LVL211-1
 9507 09db 08000000 		.4byte	.LFE173
 9508 09df 0400     		.2byte	0x4
 9509 09e1 F3       		.byte	0xf3
 9510 09e2 01       		.uleb128 0x1
 9511 09e3 52       		.byte	0x52
ARM GAS  C:\Users\haske\AppData\Local\Temp\ccFGJ08j.s 			page 183


 9512 09e4 9F       		.byte	0x9f
 9513 09e5 00000000 		.4byte	0
 9514 09e9 00000000 		.4byte	0
 9515              		.section	.debug_aranges,"",%progbits
 9516 0000 A4000000 		.4byte	0xa4
 9517 0004 0200     		.2byte	0x2
 9518 0006 00000000 		.4byte	.Ldebug_info0
 9519 000a 04       		.byte	0x4
 9520 000b 00       		.byte	0
 9521 000c 0000     		.2byte	0
 9522 000e 0000     		.2byte	0
 9523 0010 00000000 		.4byte	.LFB161
 9524 0014 30000000 		.4byte	.LFE161-.LFB161
 9525 0018 00000000 		.4byte	.LFB163
 9526 001c 10000000 		.4byte	.LFE163-.LFB163
 9527 0020 00000000 		.4byte	.LFB169
 9528 0024 0A000000 		.4byte	.LFE169-.LFB169
 9529 0028 00000000 		.4byte	.LFB167
 9530 002c 18000000 		.4byte	.LFE167-.LFB167
 9531 0030 00000000 		.4byte	.LFB168
 9532 0034 40000000 		.4byte	.LFE168-.LFB168
 9533 0038 00000000 		.4byte	.LFB170
 9534 003c 30000000 		.4byte	.LFE170-.LFB170
 9535 0040 00000000 		.4byte	.LFB171
 9536 0044 0C000000 		.4byte	.LFE171-.LFB171
 9537 0048 00000000 		.4byte	.LFB176
 9538 004c 7C000000 		.4byte	.LFE176-.LFB176
 9539 0050 00000000 		.4byte	.LFB172
 9540 0054 36000000 		.4byte	.LFE172-.LFB172
 9541 0058 00000000 		.4byte	.LFB175
 9542 005c 02010000 		.4byte	.LFE175-.LFB175
 9543 0060 00000000 		.4byte	.LFB159
 9544 0064 6C000000 		.4byte	.LFE159-.LFB159
 9545 0068 00000000 		.4byte	.LFB162
 9546 006c 0A000000 		.4byte	.LFE162-.LFB162
 9547 0070 00000000 		.4byte	.LFB174
 9548 0074 08000000 		.4byte	.LFE174-.LFB174
 9549 0078 00000000 		.4byte	.LFB160
 9550 007c 3C000000 		.4byte	.LFE160-.LFB160
 9551 0080 00000000 		.4byte	.LFB164
 9552 0084 D8000000 		.4byte	.LFE164-.LFB164
 9553 0088 00000000 		.4byte	.LFB165
 9554 008c 7E000000 		.4byte	.LFE165-.LFB165
 9555 0090 00000000 		.4byte	.LFB166
 9556 0094 8E000000 		.4byte	.LFE166-.LFB166
 9557 0098 00000000 		.4byte	.LFB173
 9558 009c 08000000 		.4byte	.LFE173-.LFB173
 9559 00a0 00000000 		.4byte	0
 9560 00a4 00000000 		.4byte	0
 9561              		.section	.debug_ranges,"",%progbits
 9562              	.Ldebug_ranges0:
 9563 0000 16000000 		.4byte	.LBB22
 9564 0004 24000000 		.4byte	.LBE22
 9565 0008 26000000 		.4byte	.LBB23
 9566 000c 2C000000 		.4byte	.LBE23
 9567 0010 00000000 		.4byte	0
 9568 0014 00000000 		.4byte	0
ARM GAS  C:\Users\haske\AppData\Local\Temp\ccFGJ08j.s 			page 184


 9569 0018 10000000 		.4byte	.LBB25
 9570 001c 22000000 		.4byte	.LBE25
 9571 0020 24000000 		.4byte	.LBB26
 9572 0024 32000000 		.4byte	.LBE26
 9573 0028 00000000 		.4byte	0
 9574 002c 00000000 		.4byte	0
 9575 0030 4C000000 		.4byte	.LBB27
 9576 0034 64000000 		.4byte	.LBE27
 9577 0038 66000000 		.4byte	.LBB28
 9578 003c 70000000 		.4byte	.LBE28
 9579 0040 72000000 		.4byte	.LBB29
 9580 0044 74000000 		.4byte	.LBE29
 9581 0048 78000000 		.4byte	.LBB30
 9582 004c 7A000000 		.4byte	.LBE30
 9583 0050 00000000 		.4byte	0
 9584 0054 00000000 		.4byte	0
 9585 0058 00000000 		.4byte	.LFB161
 9586 005c 30000000 		.4byte	.LFE161
 9587 0060 00000000 		.4byte	.LFB163
 9588 0064 10000000 		.4byte	.LFE163
 9589 0068 00000000 		.4byte	.LFB169
 9590 006c 0A000000 		.4byte	.LFE169
 9591 0070 00000000 		.4byte	.LFB167
 9592 0074 18000000 		.4byte	.LFE167
 9593 0078 00000000 		.4byte	.LFB168
 9594 007c 40000000 		.4byte	.LFE168
 9595 0080 00000000 		.4byte	.LFB170
 9596 0084 30000000 		.4byte	.LFE170
 9597 0088 00000000 		.4byte	.LFB171
 9598 008c 0C000000 		.4byte	.LFE171
 9599 0090 00000000 		.4byte	.LFB176
 9600 0094 7C000000 		.4byte	.LFE176
 9601 0098 00000000 		.4byte	.LFB172
 9602 009c 36000000 		.4byte	.LFE172
 9603 00a0 00000000 		.4byte	.LFB175
 9604 00a4 02010000 		.4byte	.LFE175
 9605 00a8 00000000 		.4byte	.LFB159
 9606 00ac 6C000000 		.4byte	.LFE159
 9607 00b0 00000000 		.4byte	.LFB162
 9608 00b4 0A000000 		.4byte	.LFE162
 9609 00b8 00000000 		.4byte	.LFB174
 9610 00bc 08000000 		.4byte	.LFE174
 9611 00c0 00000000 		.4byte	.LFB160
 9612 00c4 3C000000 		.4byte	.LFE160
 9613 00c8 00000000 		.4byte	.LFB164
 9614 00cc D8000000 		.4byte	.LFE164
 9615 00d0 00000000 		.4byte	.LFB165
 9616 00d4 7E000000 		.4byte	.LFE165
 9617 00d8 00000000 		.4byte	.LFB166
 9618 00dc 8E000000 		.4byte	.LFE166
 9619 00e0 00000000 		.4byte	.LFB173
 9620 00e4 08000000 		.4byte	.LFE173
 9621 00e8 00000000 		.4byte	0
 9622 00ec 00000000 		.4byte	0
 9623              		.section	.debug_line,"",%progbits
 9624              	.Ldebug_line0:
 9625 0000 64080000 		.section	.debug_str,"MS",%progbits,1
ARM GAS  C:\Users\haske\AppData\Local\Temp\ccFGJ08j.s 			page 185


 9625      0200E005 
 9625      00000201 
 9625      FB0E0D00 
 9625      01010101 
 9626              	.LASF202:
 9627 0000 70726F70 		.ascii	"prop_cnt\000"
 9627      5F636E74 
 9627      00
 9628              	.LASF19:
 9629 0009 696E7438 		.ascii	"int8_t\000"
 9629      5F7400
 9630              	.LASF173:
 9631 0010 4C565F53 		.ascii	"LV_STYLE_OPA\000"
 9631      54594C45 
 9631      5F4F5041 
 9631      00
 9632              	.LASF356:
 9633 001d 636F6C6F 		.ascii	"color_chroma_key\000"
 9633      725F6368 
 9633      726F6D61 
 9633      5F6B6579 
 9633      00
 9634              	.LASF574:
 9635 002e 6C765F6F 		.ascii	"lv_obj_del_anim_ready_cb\000"
 9635      626A5F64 
 9635      656C5F61 
 9635      6E696D5F 
 9635      72656164 
 9636              	.LASF311:
 9637 0047 6C765F6C 		.ascii	"lv_ll_node_t\000"
 9637      6C5F6E6F 
 9637      64655F74 
 9637      00
 9638              	.LASF333:
 9639 0054 6C765F64 		.ascii	"lv_disp_draw_buf_t\000"
 9639      6973705F 
 9639      64726177 
 9639      5F627566 
 9639      5F7400
 9640              	.LASF3:
 9641 0067 73697A65 		.ascii	"size_t\000"
 9641      5F7400
 9642              	.LASF31:
 9643 006e 6164765F 		.ascii	"adv_w\000"
 9643      7700
 9644              	.LASF386:
 9645 0074 4C565F49 		.ascii	"LV_INDEV_TYPE_ENCODER\000"
 9645      4E444556 
 9645      5F545950 
 9645      455F454E 
 9645      434F4445 
 9646              	.LASF17:
 9647 008a 73697A65 		.ascii	"sizetype\000"
 9647      74797065 
 9647      00
 9648              	.LASF381:
 9649 0093 6C765F64 		.ascii	"lv_disp_t\000"
ARM GAS  C:\Users\haske\AppData\Local\Temp\ccFGJ08j.s 			page 186


 9649      6973705F 
 9649      7400
 9650              	.LASF506:
 9651 009d 4C565F45 		.ascii	"LV_EVENT_DRAW_MAIN_BEGIN\000"
 9651      56454E54 
 9651      5F445241 
 9651      575F4D41 
 9651      494E5F42 
 9652              	.LASF570:
 9653 00b6 6368696C 		.ascii	"child\000"
 9653      6400
 9654              	.LASF157:
 9655 00bc 4C565F53 		.ascii	"LV_STYLE_LINE_DASH_GAP\000"
 9655      54594C45 
 9655      5F4C494E 
 9655      455F4441 
 9655      53485F47 
 9656              	.LASF59:
 9657 00d3 4C565F41 		.ascii	"LV_ANIM_ON\000"
 9657      4E494D5F 
 9657      4F4E00
 9658              	.LASF314:
 9659 00de 7461696C 		.ascii	"tail\000"
 9659      00
 9660              	.LASF553:
 9661 00e3 6C765F61 		.ascii	"lv_anim_set_ready_cb\000"
 9661      6E696D5F 
 9661      7365745F 
 9661      72656164 
 9661      795F6362 
 9662              	.LASF366:
 9663 00f8 6163745F 		.ascii	"act_scr\000"
 9663      73637200 
 9664              	.LASF371:
 9665 0100 73637265 		.ascii	"screen_cnt\000"
 9665      656E5F63 
 9665      6E7400
 9666              	.LASF302:
 9667 010b 64726177 		.ascii	"draw_bg\000"
 9667      5F626700 
 9668              	.LASF606:
 9669 0113 6C765F6D 		.ascii	"lv_mem_free\000"
 9669      656D5F66 
 9669      72656500 
 9670              	.LASF57:
 9671 011f 6C765F6F 		.ascii	"lv_opa_t\000"
 9671      70615F74 
 9671      00
 9672              	.LASF164:
 9673 0128 4C565F53 		.ascii	"LV_STYLE_ARC_OPA\000"
 9673      54594C45 
 9673      5F415243 
 9673      5F4F5041 
 9673      00
 9674              	.LASF271:
 9675 0139 7261775F 		.ascii	"raw_end\000"
 9675      656E6400 
ARM GAS  C:\Users\haske\AppData\Local\Temp\ccFGJ08j.s 			page 187


 9676              	.LASF23:
 9677 0141 696E7433 		.ascii	"int32_t\000"
 9677      325F7400 
 9678              	.LASF459:
 9679 0149 6C765F73 		.ascii	"lv_scrollbar_mode_t\000"
 9679      63726F6C 
 9679      6C626172 
 9679      5F6D6F64 
 9679      655F7400 
 9680              	.LASF201:
 9681 015d 6861735F 		.ascii	"has_group\000"
 9681      67726F75 
 9681      7000
 9682              	.LASF515:
 9683 0167 4C565F45 		.ascii	"LV_EVENT_INSERT\000"
 9683      56454E54 
 9683      5F494E53 
 9683      45525400 
 9684              	.LASF447:
 9685 0177 66726F7A 		.ascii	"frozen\000"
 9685      656E00
 9686              	.LASF27:
 9687 017e 6C765F70 		.ascii	"lv_point_t\000"
 9687      6F696E74 
 9687      5F7400
 9688              	.LASF496:
 9689 0189 4C565F45 		.ascii	"LV_EVENT_SCROLL_END\000"
 9689      56454E54 
 9689      5F534352 
 9689      4F4C4C5F 
 9689      454E4400 
 9690              	.LASF219:
 9691 019d 72616469 		.ascii	"radius\000"
 9691      757300
 9692              	.LASF222:
 9693 01a4 62675F63 		.ascii	"bg_color\000"
 9693      6F6C6F72 
 9693      00
 9694              	.LASF39:
 9695 01ad 6C696E65 		.ascii	"line_height\000"
 9695      5F686569 
 9695      67687400 
 9696              	.LASF68:
 9697 01b9 70617468 		.ascii	"path_cb\000"
 9697      5F636200 
 9698              	.LASF253:
 9699 01c1 62696469 		.ascii	"bidi_dir\000"
 9699      5F646972 
 9699      00
 9700              	.LASF360:
 9701 01ca 64726177 		.ascii	"draw_ctx_size\000"
 9701      5F637478 
 9701      5F73697A 
 9701      6500
 9702              	.LASF85:
 9703 01d8 6C765F61 		.ascii	"lv_anim_get_value_cb_t\000"
 9703      6E696D5F 
ARM GAS  C:\Users\haske\AppData\Local\Temp\ccFGJ08j.s 			page 188


 9703      6765745F 
 9703      76616C75 
 9703      655F6362 
 9704              	.LASF545:
 9705 01ef 7363726F 		.ascii	"scroll_snap_x\000"
 9705      6C6C5F73 
 9705      6E61705F 
 9705      7800
 9706              	.LASF279:
 9707 01fd 4C565F44 		.ascii	"LV_DRAW_LAYER_FLAG_HAS_ALPHA\000"
 9707      5241575F 
 9707      4C415945 
 9707      525F464C 
 9707      41475F48 
 9708              	.LASF559:
 9709 021a 6C765F61 		.ascii	"lv_anim_set_var\000"
 9709      6E696D5F 
 9709      7365745F 
 9709      76617200 
 9710              	.LASF520:
 9711 022a 4C565F45 		.ascii	"LV_EVENT_CHILD_CHANGED\000"
 9711      56454E54 
 9711      5F434849 
 9711      4C445F43 
 9711      48414E47 
 9712              	.LASF212:
 9713 0241 73746174 		.ascii	"state\000"
 9713      6500
 9714              	.LASF108:
 9715 0247 4C565F53 		.ascii	"LV_STYLE_HEIGHT\000"
 9715      54594C45 
 9715      5F484549 
 9715      47485400 
 9716              	.LASF321:
 9717 0257 72657065 		.ascii	"repeat_count\000"
 9717      61745F63 
 9717      6F756E74 
 9717      00
 9718              	.LASF259:
 9719 0264 7A6F6F6D 		.ascii	"zoom\000"
 9719      00
 9720              	.LASF463:
 9721 0269 69735F6C 		.ascii	"is_local\000"
 9721      6F63616C 
 9721      00
 9722              	.LASF294:
 9723 0272 64726177 		.ascii	"draw_rect\000"
 9723      5F726563 
 9723      7400
 9724              	.LASF317:
 9725 027c 5F6C765F 		.ascii	"_lv_timer_t\000"
 9725      74696D65 
 9725      725F7400 
 9726              	.LASF580:
 9727 0288 6C765F6F 		.ascii	"lv_obj_move_to_index\000"
 9727      626A5F6D 
 9727      6F76655F 
ARM GAS  C:\Users\haske\AppData\Local\Temp\ccFGJ08j.s 			page 189


 9727      746F5F69 
 9727      6E646578 
 9728              	.LASF49:
 9729 029d 4C565F52 		.ascii	"LV_RES_INV\000"
 9729      45535F49 
 9729      4E5600
 9730              	.LASF293:
 9731 02a8 696E6974 		.ascii	"init_buf\000"
 9731      5F627566 
 9731      00
 9732              	.LASF468:
 9733 02b1 636F6E73 		.ascii	"constructor_cb\000"
 9733      74727563 
 9733      746F725F 
 9733      636200
 9734              	.LASF276:
 9735 02c0 726F756E 		.ascii	"rounded\000"
 9735      64656400 
 9736              	.LASF189:
 9737 02c8 5F4C565F 		.ascii	"_LV_STYLE_LAST_BUILT_IN_PROP\000"
 9737      5354594C 
 9737      455F4C41 
 9737      53545F42 
 9737      55494C54 
 9738              	.LASF292:
 9739 02e5 5F6C765F 		.ascii	"_lv_draw_ctx_t\000"
 9739      64726177 
 9739      5F637478 
 9739      5F7400
 9740              	.LASF397:
 9741 02f4 74797065 		.ascii	"type\000"
 9741      00
 9742              	.LASF498:
 9743 02f9 4C565F45 		.ascii	"LV_EVENT_GESTURE\000"
 9743      56454E54 
 9743      5F474553 
 9743      54555245 
 9743      00
 9744              	.LASF491:
 9745 030a 4C565F45 		.ascii	"LV_EVENT_LONG_PRESSED\000"
 9745      56454E54 
 9745      5F4C4F4E 
 9745      475F5052 
 9745      45535345 
 9746              	.LASF224:
 9747 0320 62675F69 		.ascii	"bg_img_src\000"
 9747      6D675F73 
 9747      726300
 9748              	.LASF139:
 9749 032b 4C565F53 		.ascii	"LV_STYLE_BORDER_WIDTH\000"
 9749      54594C45 
 9749      5F424F52 
 9749      4445525F 
 9749      57494454 
 9750              	.LASF582:
 9751 0341 6F6C645F 		.ascii	"old_index\000"
 9751      696E6465 
ARM GAS  C:\Users\haske\AppData\Local\Temp\ccFGJ08j.s 			page 190


 9751      7800
 9752              	.LASF555:
 9753 034b 64656C61 		.ascii	"delay\000"
 9753      7900
 9754              	.LASF521:
 9755 0351 4C565F45 		.ascii	"LV_EVENT_CHILD_CREATED\000"
 9755      56454E54 
 9755      5F434849 
 9755      4C445F43 
 9755      52454154 
 9756              	.LASF455:
 9757 0368 4C565F4F 		.ascii	"LV_OBJ_TREE_WALK_SKIP_CHILDREN\000"
 9757      424A5F54 
 9757      5245455F 
 9757      57414C4B 
 9757      5F534B49 
 9758              	.LASF121:
 9759 0387 4C565F53 		.ascii	"LV_STYLE_PAD_COLUMN\000"
 9759      54594C45 
 9759      5F504144 
 9759      5F434F4C 
 9759      554D4E00 
 9760              	.LASF396:
 9761 039b 5F6C765F 		.ascii	"_lv_indev_drv_t\000"
 9761      696E6465 
 9761      765F6472 
 9761      765F7400 
 9762              	.LASF537:
 9763 03ab 6368696C 		.ascii	"children\000"
 9763      6472656E 
 9763      00
 9764              	.LASF391:
 9765 03b4 706F696E 		.ascii	"point\000"
 9765      7400
 9766              	.LASF131:
 9767 03ba 4C565F53 		.ascii	"LV_STYLE_BG_DITHER_MODE\000"
 9767      54594C45 
 9767      5F42475F 
 9767      44495448 
 9767      45525F4D 
 9768              	.LASF25:
 9769 03d2 75696E74 		.ascii	"uint_fast32_t\000"
 9769      5F666173 
 9769      7433325F 
 9769      7400
 9770              	.LASF234:
 9771 03e0 626F7264 		.ascii	"border_side\000"
 9771      65725F73 
 9771      69646500 
 9772              	.LASF6:
 9773 03ec 5F5F7569 		.ascii	"__uint8_t\000"
 9773      6E74385F 
 9773      7400
 9774              	.LASF218:
 9775 03f6 775F6C61 		.ascii	"w_layout\000"
 9775      796F7574 
 9775      00
ARM GAS  C:\Users\haske\AppData\Local\Temp\ccFGJ08j.s 			page 191


 9776              	.LASF220:
 9777 03ff 626C656E 		.ascii	"blend_mode\000"
 9777      645F6D6F 
 9777      646500
 9778              	.LASF604:
 9779 040a 6C765F69 		.ascii	"lv_indev_get_obj_act\000"
 9779      6E646576 
 9779      5F676574 
 9779      5F6F626A 
 9779      5F616374 
 9780              	.LASF115:
 9781 041f 4C565F53 		.ascii	"LV_STYLE_RADIUS\000"
 9781      54594C45 
 9781      5F524144 
 9781      49555300 
 9782              	.LASF336:
 9783 042f 7665725F 		.ascii	"ver_res\000"
 9783      72657300 
 9784              	.LASF214:
 9785 0437 7363725F 		.ascii	"scr_layout_inv\000"
 9785      6C61796F 
 9785      75745F69 
 9785      6E7600
 9786              	.LASF107:
 9787 0446 4C565F53 		.ascii	"LV_STYLE_MAX_WIDTH\000"
 9787      54594C45 
 9787      5F4D4158 
 9787      5F574944 
 9787      544800
 9788              	.LASF80:
 9789 0459 72756E5F 		.ascii	"run_round\000"
 9789      726F756E 
 9789      6400
 9790              	.LASF365:
 9791 0463 73637265 		.ascii	"screens\000"
 9791      656E7300 
 9792              	.LASF134:
 9793 046b 4C565F53 		.ascii	"LV_STYLE_BG_IMG_RECOLOR\000"
 9793      54594C45 
 9793      5F42475F 
 9793      494D475F 
 9793      5245434F 
 9794              	.LASF151:
 9795 0483 4C565F53 		.ascii	"LV_STYLE_SHADOW_OPA\000"
 9795      54594C45 
 9795      5F534841 
 9795      444F575F 
 9795      4F504100 
 9796              	.LASF600:
 9797 0497 6C765F65 		.ascii	"lv_event_send\000"
 9797      76656E74 
 9797      5F73656E 
 9797      6400
 9798              	.LASF418:
 9799 04a5 7363726F 		.ascii	"scroll_obj\000"
 9799      6C6C5F6F 
 9799      626A00
ARM GAS  C:\Users\haske\AppData\Local\Temp\ccFGJ08j.s 			page 192


 9800              	.LASF182:
 9801 04b0 4C565F53 		.ascii	"LV_STYLE_TRANSFORM_HEIGHT\000"
 9801      54594C45 
 9801      5F545241 
 9801      4E53464F 
 9801      524D5F48 
 9802              	.LASF119:
 9803 04ca 4C565F53 		.ascii	"LV_STYLE_PAD_RIGHT\000"
 9803      54594C45 
 9803      5F504144 
 9803      5F524947 
 9803      485400
 9804              	.LASF486:
 9805 04dd 4C565F45 		.ascii	"LV_EVENT_ALL\000"
 9805      56454E54 
 9805      5F414C4C 
 9805      00
 9806              	.LASF380:
 9807 04ea 6C617374 		.ascii	"last_activity_time\000"
 9807      5F616374 
 9807      69766974 
 9807      795F7469 
 9807      6D6500
 9808              	.LASF13:
 9809 04fd 6C6F6E67 		.ascii	"long int\000"
 9809      20696E74 
 9809      00
 9810              	.LASF179:
 9811 0506 4C565F53 		.ascii	"LV_STYLE_TRANSITION\000"
 9811      54594C45 
 9811      5F545241 
 9811      4E534954 
 9811      494F4E00 
 9812              	.LASF346:
 9813 051a 726F7461 		.ascii	"rotated\000"
 9813      74656400 
 9814              	.LASF422:
 9815 0522 7363726F 		.ascii	"scroll_dir\000"
 9815      6C6C5F64 
 9815      697200
 9816              	.LASF474:
 9817 052d 67726F75 		.ascii	"group_def\000"
 9817      705F6465 
 9817      6600
 9818              	.LASF359:
 9819 0537 64726177 		.ascii	"draw_ctx_deinit\000"
 9819      5F637478 
 9819      5F646569 
 9819      6E697400 
 9820              	.LASF425:
 9821 0547 6C617374 		.ascii	"last_state\000"
 9821      5F737461 
 9821      746500
 9822              	.LASF221:
 9823 0552 62675F6F 		.ascii	"bg_opa\000"
 9823      706100
 9824              	.LASF363:
ARM GAS  C:\Users\haske\AppData\Local\Temp\ccFGJ08j.s 			page 193


 9825 0559 72656672 		.ascii	"refr_timer\000"
 9825      5F74696D 
 9825      657200
 9826              	.LASF257:
 9827 0564 6C765F64 		.ascii	"lv_draw_label_dsc_t\000"
 9827      7261775F 
 9827      6C616265 
 9827      6C5F6473 
 9827      635F7400 
 9828              	.LASF452:
 9829 0578 6C765F73 		.ascii	"lv_state_t\000"
 9829      74617465 
 9829      5F7400
 9830              	.LASF250:
 9831 0583 73656C5F 		.ascii	"sel_bg_color\000"
 9831      62675F63 
 9831      6F6C6F72 
 9831      00
 9832              	.LASF446:
 9833 0590 65646765 		.ascii	"edge_cb\000"
 9833      5F636200 
 9834              	.LASF377:
 9835 0598 696E765F 		.ascii	"inv_area_joined\000"
 9835      61726561 
 9835      5F6A6F69 
 9835      6E656400 
 9836              	.LASF136:
 9837 05a8 4C565F53 		.ascii	"LV_STYLE_BG_IMG_TILED\000"
 9837      54594C45 
 9837      5F42475F 
 9837      494D475F 
 9837      54494C45 
 9838              	.LASF368:
 9839 05be 7363725F 		.ascii	"scr_to_load\000"
 9839      746F5F6C 
 9839      6F616400 
 9840              	.LASF592:
 9841 05ca 5F6C765F 		.ascii	"_lv_disp_ll\000"
 9841      64697370 
 9841      5F6C6C00 
 9842              	.LASF564:
 9843 05d6 6C765F6F 		.ascii	"lv_obj_get_screen\000"
 9843      626A5F67 
 9843      65745F73 
 9843      63726565 
 9843      6E00
 9844              	.LASF313:
 9845 05e8 68656164 		.ascii	"head\000"
 9845      00
 9846              	.LASF138:
 9847 05ed 4C565F53 		.ascii	"LV_STYLE_BORDER_OPA\000"
 9847      54594C45 
 9847      5F424F52 
 9847      4445525F 
 9847      4F504100 
 9848              	.LASF598:
 9849 0601 6C765F64 		.ascii	"lv_disp_get_next\000"
ARM GAS  C:\Users\haske\AppData\Local\Temp\ccFGJ08j.s 			page 194


 9849      6973705F 
 9849      6765745F 
 9849      6E657874 
 9849      00
 9850              	.LASF398:
 9851 0612 72656164 		.ascii	"read_cb\000"
 9851      5F636200 
 9852              	.LASF613:
 9853 061a 6C765F6F 		.ascii	"lv_obj_mark_layout_as_dirty\000"
 9853      626A5F6D 
 9853      61726B5F 
 9853      6C61796F 
 9853      75745F61 
 9854              	.LASF513:
 9855 0636 4C565F45 		.ascii	"LV_EVENT_DRAW_PART_END\000"
 9855      56454E54 
 9855      5F445241 
 9855      575F5041 
 9855      52545F45 
 9856              	.LASF78:
 9857 064d 6561726C 		.ascii	"early_apply\000"
 9857      795F6170 
 9857      706C7900 
 9858              	.LASF331:
 9859 0659 6C617374 		.ascii	"last_area\000"
 9859      5F617265 
 9859      6100
 9860              	.LASF421:
 9861 0663 67657374 		.ascii	"gesture_sum\000"
 9861      7572655F 
 9861      73756D00 
 9862              	.LASF304:
 9863 066f 62756666 		.ascii	"buffer_copy\000"
 9863      65725F63 
 9863      6F707900 
 9864              	.LASF419:
 9865 067b 6C617374 		.ascii	"last_pressed\000"
 9865      5F707265 
 9865      73736564 
 9865      00
 9866              	.LASF235:
 9867 0688 6F75746C 		.ascii	"outline_color\000"
 9867      696E655F 
 9867      636F6C6F 
 9867      7200
 9868              	.LASF150:
 9869 0696 4C565F53 		.ascii	"LV_STYLE_SHADOW_COLOR\000"
 9869      54594C45 
 9869      5F534841 
 9869      444F575F 
 9869      434F4C4F 
 9870              	.LASF216:
 9871 06ac 7374796C 		.ascii	"style_cnt\000"
 9871      655F636E 
 9871      7400
 9872              	.LASF213:
 9873 06b6 6C61796F 		.ascii	"layout_inv\000"
ARM GAS  C:\Users\haske\AppData\Local\Temp\ccFGJ08j.s 			page 195


 9873      75745F69 
 9873      6E7600
 9874              	.LASF5:
 9875 06c1 7369676E 		.ascii	"signed char\000"
 9875      65642063 
 9875      68617200 
 9876              	.LASF20:
 9877 06cd 75696E74 		.ascii	"uint8_t\000"
 9877      385F7400 
 9878              	.LASF299:
 9879 06d5 64726177 		.ascii	"draw_line\000"
 9879      5F6C696E 
 9879      6500
 9880              	.LASF335:
 9881 06df 686F725F 		.ascii	"hor_res\000"
 9881      72657300 
 9882              	.LASF58:
 9883 06e7 4C565F41 		.ascii	"LV_ANIM_OFF\000"
 9883      4E494D5F 
 9883      4F464600 
 9884              	.LASF557:
 9885 06f3 64757261 		.ascii	"duration\000"
 9885      74696F6E 
 9885      00
 9886              	.LASF229:
 9887 06fc 62675F69 		.ascii	"bg_img_tiled\000"
 9887      6D675F74 
 9887      696C6564 
 9887      00
 9888              	.LASF127:
 9889 0709 4C565F53 		.ascii	"LV_STYLE_BG_GRAD_DIR\000"
 9889      54594C45 
 9889      5F42475F 
 9889      47524144 
 9889      5F444952 
 9890              	.LASF38:
 9891 071e 6765745F 		.ascii	"get_glyph_bitmap\000"
 9891      676C7970 
 9891      685F6269 
 9891      746D6170 
 9891      00
 9892              	.LASF64:
 9893 072f 73746172 		.ascii	"start_cb\000"
 9893      745F6362 
 9893      00
 9894              	.LASF274:
 9895 0738 656E645F 		.ascii	"end_angle\000"
 9895      616E676C 
 9895      6500
 9896              	.LASF52:
 9897 0742 626C7565 		.ascii	"blue\000"
 9897      00
 9898              	.LASF227:
 9899 0747 62675F69 		.ascii	"bg_img_opa\000"
 9899      6D675F6F 
 9899      706100
 9900              	.LASF500:
ARM GAS  C:\Users\haske\AppData\Local\Temp\ccFGJ08j.s 			page 196


 9901 0752 4C565F45 		.ascii	"LV_EVENT_FOCUSED\000"
 9901      56454E54 
 9901      5F464F43 
 9901      55534544 
 9901      00
 9902              	.LASF69:
 9903 0763 73746172 		.ascii	"start_value\000"
 9903      745F7661 
 9903      6C756500 
 9904              	.LASF113:
 9905 076f 4C565F53 		.ascii	"LV_STYLE_ALIGN\000"
 9905      54594C45 
 9905      5F414C49 
 9905      474E00
 9906              	.LASF7:
 9907 077e 756E7369 		.ascii	"unsigned char\000"
 9907      676E6564 
 9907      20636861 
 9907      7200
 9908              	.LASF369:
 9909 078c 746F705F 		.ascii	"top_layer\000"
 9909      6C617965 
 9909      7200
 9910              	.LASF434:
 9911 0796 74797065 		.ascii	"types\000"
 9911      7300
 9912              	.LASF530:
 9913 079c 4C565F45 		.ascii	"LV_EVENT_GET_SELF_SIZE\000"
 9913      56454E54 
 9913      5F474554 
 9913      5F53454C 
 9913      465F5349 
 9914              	.LASF507:
 9915 07b3 4C565F45 		.ascii	"LV_EVENT_DRAW_MAIN\000"
 9915      56454E54 
 9915      5F445241 
 9915      575F4D41 
 9915      494E00
 9916              	.LASF272:
 9917 07c6 6C765F64 		.ascii	"lv_draw_line_dsc_t\000"
 9917      7261775F 
 9917      6C696E65 
 9917      5F647363 
 9917      5F7400
 9918              	.LASF187:
 9919 07d9 4C565F53 		.ascii	"LV_STYLE_TRANSFORM_PIVOT_X\000"
 9919      54594C45 
 9919      5F545241 
 9919      4E53464F 
 9919      524D5F50 
 9920              	.LASF188:
 9921 07f4 4C565F53 		.ascii	"LV_STYLE_TRANSFORM_PIVOT_Y\000"
 9921      54594C45 
 9921      5F545241 
 9921      4E53464F 
 9921      524D5F50 
 9922              	.LASF536:
ARM GAS  C:\Users\haske\AppData\Local\Temp\ccFGJ08j.s 			page 197


 9923 080f 6C765F67 		.ascii	"lv_group_t\000"
 9923      726F7570 
 9923      5F7400
 9924              	.LASF388:
 9925 081a 4C565F49 		.ascii	"LV_INDEV_STATE_RELEASED\000"
 9925      4E444556 
 9925      5F535441 
 9925      54455F52 
 9925      454C4541 
 9926              	.LASF153:
 9927 0832 4C565F53 		.ascii	"LV_STYLE_IMG_RECOLOR\000"
 9927      54594C45 
 9927      5F494D47 
 9927      5F524543 
 9927      4F4C4F52 
 9928              	.LASF287:
 9929 0847 61726561 		.ascii	"area_act\000"
 9929      5F616374 
 9929      00
 9930              	.LASF161:
 9931 0850 4C565F53 		.ascii	"LV_STYLE_ARC_WIDTH\000"
 9931      54594C45 
 9931      5F415243 
 9931      5F574944 
 9931      544800
 9932              	.LASF34:
 9933 0863 6F66735F 		.ascii	"ofs_x\000"
 9933      7800
 9934              	.LASF35:
 9935 0869 6F66735F 		.ascii	"ofs_y\000"
 9935      7900
 9936              	.LASF560:
 9937 086f 64656C61 		.ascii	"delay_ms\000"
 9937      795F6D73 
 9937      00
 9938              	.LASF90:
 9939 0878 6C765F62 		.ascii	"lv_base_dir_t\000"
 9939      6173655F 
 9939      6469725F 
 9939      7400
 9940              	.LASF374:
 9941 0886 72656E64 		.ascii	"rendering_in_progress\000"
 9941      6572696E 
 9941      675F696E 
 9941      5F70726F 
 9941      67726573 
 9942              	.LASF576:
 9943 089c 6C765F6F 		.ascii	"lv_obj_del_async_cb\000"
 9943      626A5F64 
 9943      656C5F61 
 9943      73796E63 
 9943      5F636200 
 9944              	.LASF217:
 9945 08b0 685F6C61 		.ascii	"h_layout\000"
 9945      796F7574 
 9945      00
 9946              	.LASF330:
ARM GAS  C:\Users\haske\AppData\Local\Temp\ccFGJ08j.s 			page 198


 9947 08b9 666C7573 		.ascii	"flushing_last\000"
 9947      68696E67 
 9947      5F6C6173 
 9947      7400
 9948              	.LASF47:
 9949 08c7 5F426F6F 		.ascii	"_Bool\000"
 9949      6C00
 9950              	.LASF544:
 9951 08cd 7363726F 		.ascii	"scrollbar_mode\000"
 9951      6C6C6261 
 9951      725F6D6F 
 9951      646500
 9952              	.LASF338:
 9953 08dc 70687973 		.ascii	"physical_ver_res\000"
 9953      6963616C 
 9953      5F766572 
 9953      5F726573 
 9953      00
 9954              	.LASF290:
 9955 08ed 6F726967 		.ascii	"original\000"
 9955      696E616C 
 9955      00
 9956              	.LASF183:
 9957 08f6 4C565F53 		.ascii	"LV_STYLE_TRANSLATE_X\000"
 9957      54594C45 
 9957      5F545241 
 9957      4E534C41 
 9957      54455F58 
 9958              	.LASF184:
 9959 090b 4C565F53 		.ascii	"LV_STYLE_TRANSLATE_Y\000"
 9959      54594C45 
 9959      5F545241 
 9959      4E534C41 
 9959      54455F59 
 9960              	.LASF135:
 9961 0920 4C565F53 		.ascii	"LV_STYLE_BG_IMG_RECOLOR_OPA\000"
 9961      54594C45 
 9961      5F42475F 
 9961      494D475F 
 9961      5245434F 
 9962              	.LASF483:
 9963 093c 73746F70 		.ascii	"stop_processing\000"
 9963      5F70726F 
 9963      63657373 
 9963      696E6700 
 9964              	.LASF195:
 9965 094c 76616C75 		.ascii	"value\000"
 9965      6500
 9966              	.LASF211:
 9967 0952 666C6167 		.ascii	"flags\000"
 9967      7300
 9968              	.LASF281:
 9969 0958 6C765F64 		.ascii	"lv_draw_layer_flags_t\000"
 9969      7261775F 
 9969      6C617965 
 9969      725F666C 
 9969      6167735F 
ARM GAS  C:\Users\haske\AppData\Local\Temp\ccFGJ08j.s 			page 199


 9970              	.LASF18:
 9971 096e 63686172 		.ascii	"char\000"
 9971      00
 9972              	.LASF265:
 9973 0973 6C765F64 		.ascii	"lv_draw_img_dsc_t\000"
 9973      7261775F 
 9973      696D675F 
 9973      6473635F 
 9973      7400
 9974              	.LASF392:
 9975 0985 62746E5F 		.ascii	"btn_id\000"
 9975      696400
 9976              	.LASF82:
 9977 098c 6C765F61 		.ascii	"lv_anim_exec_xcb_t\000"
 9977      6E696D5F 
 9977      65786563 
 9977      5F786362 
 9977      5F7400
 9978              	.LASF454:
 9979 099f 4C565F4F 		.ascii	"LV_OBJ_TREE_WALK_NEXT\000"
 9979      424A5F54 
 9979      5245455F 
 9979      57414C4B 
 9979      5F4E4558 
 9980              	.LASF42:
 9981 09b5 756E6465 		.ascii	"underline_position\000"
 9981      726C696E 
 9981      655F706F 
 9981      73697469 
 9981      6F6E00
 9982              	.LASF309:
 9983 09c8 6C617965 		.ascii	"layer_instance_size\000"
 9983      725F696E 
 9983      7374616E 
 9983      63655F73 
 9983      697A6500 
 9984              	.LASF268:
 9985 09dc 64617368 		.ascii	"dash_gap\000"
 9985      5F676170 
 9985      00
 9986              	.LASF301:
 9987 09e5 64726177 		.ascii	"draw_transform\000"
 9987      5F747261 
 9987      6E73666F 
 9987      726D00
 9988              	.LASF342:
 9989 09f4 64697265 		.ascii	"direct_mode\000"
 9989      63745F6D 
 9989      6F646500 
 9990              	.LASF504:
 9991 0a00 4C565F45 		.ascii	"LV_EVENT_COVER_CHECK\000"
 9991      56454E54 
 9991      5F434F56 
 9991      45525F43 
 9991      4845434B 
 9992              	.LASF122:
 9993 0a15 4C565F53 		.ascii	"LV_STYLE_BASE_DIR\000"
ARM GAS  C:\Users\haske\AppData\Local\Temp\ccFGJ08j.s 			page 200


 9993      54594C45 
 9993      5F424153 
 9993      455F4449 
 9993      5200
 9994              	.LASF208:
 9995 0a27 73706563 		.ascii	"spec_attr\000"
 9995      5F617474 
 9995      7200
 9996              	.LASF144:
 9997 0a31 4C565F53 		.ascii	"LV_STYLE_OUTLINE_OPA\000"
 9997      54594C45 
 9997      5F4F5554 
 9997      4C494E45 
 9997      5F4F5041 
 9998              	.LASF100:
 9999 0a46 73746F70 		.ascii	"stops_count\000"
 9999      735F636F 
 9999      756E7400 
 10000              	.LASF345:
 10001 0a52 616E7469 		.ascii	"antialiasing\000"
 10001      616C6961 
 10001      73696E67 
 10001      00
 10002              	.LASF10:
 10003 0a5f 5F5F7569 		.ascii	"__uint16_t\000"
 10003      6E743136 
 10003      5F7400
 10004              	.LASF420:
 10005 0a6a 7363726F 		.ascii	"scroll_area\000"
 10005      6C6C5F61 
 10005      72656100 
 10006              	.LASF503:
 10007 0a76 4C565F45 		.ascii	"LV_EVENT_HIT_TEST\000"
 10007      56454E54 
 10007      5F484954 
 10007      5F544553 
 10007      5400
 10008              	.LASF551:
 10009 0a88 5F6C765F 		.ascii	"_lv_obj_spec_attr_t\000"
 10009      6F626A5F 
 10009      73706563 
 10009      5F617474 
 10009      725F7400 
 10010              	.LASF237:
 10011 0a9c 6F75746C 		.ascii	"outline_pad\000"
 10011      696E655F 
 10011      70616400 
 10012              	.LASF569:
 10013 0aa8 6C765F6F 		.ascii	"lv_obj_get_index\000"
 10013      626A5F67 
 10013      65745F69 
 10013      6E646578 
 10013      00
 10014              	.LASF310:
 10015 0ab9 6C765F64 		.ascii	"lv_draw_ctx_t\000"
 10015      7261775F 
 10015      6374785F 
ARM GAS  C:\Users\haske\AppData\Local\Temp\ccFGJ08j.s 			page 201


 10015      7400
 10016              	.LASF124:
 10017 0ac7 4C565F53 		.ascii	"LV_STYLE_BG_COLOR\000"
 10017      54594C45 
 10017      5F42475F 
 10017      434F4C4F 
 10017      5200
 10018              	.LASF154:
 10019 0ad9 4C565F53 		.ascii	"LV_STYLE_IMG_RECOLOR_OPA\000"
 10019      54594C45 
 10019      5F494D47 
 10019      5F524543 
 10019      4F4C4F52 
 10020              	.LASF438:
 10021 0af2 70726F63 		.ascii	"proc\000"
 10021      00
 10022              	.LASF230:
 10023 0af7 626F7264 		.ascii	"border_color\000"
 10023      65725F63 
 10023      6F6C6F72 
 10023      00
 10024              	.LASF180:
 10025 0b04 4C565F53 		.ascii	"LV_STYLE_BLEND_MODE\000"
 10025      54594C45 
 10025      5F424C45 
 10025      4E445F4D 
 10025      4F444500 
 10026              	.LASF29:
 10027 0b18 6C765F64 		.ascii	"lv_dir_t\000"
 10027      69725F74 
 10027      00
 10028              	.LASF525:
 10029 0b21 4C565F45 		.ascii	"LV_EVENT_SCREEN_LOADED\000"
 10029      56454E54 
 10029      5F534352 
 10029      45454E5F 
 10029      4C4F4144 
 10030              	.LASF194:
 10031 0b38 70726F70 		.ascii	"prop\000"
 10031      00
 10032              	.LASF199:
 10033 0b3d 636F6E73 		.ascii	"const_props\000"
 10033      745F7072 
 10033      6F707300 
 10034              	.LASF465:
 10035 0b49 5F6C765F 		.ascii	"_lv_obj_style_t\000"
 10035      6F626A5F 
 10035      7374796C 
 10035      655F7400 
 10036              	.LASF233:
 10037 0b59 626F7264 		.ascii	"border_post\000"
 10037      65725F70 
 10037      6F737400 
 10038              	.LASF540:
 10039 0b65 6576656E 		.ascii	"event_dsc\000"
 10039      745F6473 
 10039      6300
ARM GAS  C:\Users\haske\AppData\Local\Temp\ccFGJ08j.s 			page 202


 10040              	.LASF329:
 10041 0b6f 666C7573 		.ascii	"flushing\000"
 10041      68696E67 
 10041      00
 10042              	.LASF156:
 10043 0b78 4C565F53 		.ascii	"LV_STYLE_LINE_DASH_WIDTH\000"
 10043      54594C45 
 10043      5F4C494E 
 10043      455F4441 
 10043      53485F57 
 10044              	.LASF65:
 10045 0b91 72656164 		.ascii	"ready_cb\000"
 10045      795F6362 
 10045      00
 10046              	.LASF241:
 10047 0b9a 73686164 		.ascii	"shadow_ofs_x\000"
 10047      6F775F6F 
 10047      66735F78 
 10047      00
 10048              	.LASF181:
 10049 0ba7 4C565F53 		.ascii	"LV_STYLE_TRANSFORM_WIDTH\000"
 10049      54594C45 
 10049      5F545241 
 10049      4E53464F 
 10049      524D5F57 
 10050              	.LASF323:
 10051 0bc0 6C765F74 		.ascii	"lv_timer_t\000"
 10051      696D6572 
 10051      5F7400
 10052              	.LASF539:
 10053 0bcb 67726F75 		.ascii	"group_p\000"
 10053      705F7000 
 10054              	.LASF193:
 10055 0bd3 6C765F73 		.ascii	"lv_style_prop_t\000"
 10055      74796C65 
 10055      5F70726F 
 10055      705F7400 
 10056              	.LASF269:
 10057 0be3 726F756E 		.ascii	"round_start\000"
 10057      645F7374 
 10057      61727400 
 10058              	.LASF541:
 10059 0bef 7363726F 		.ascii	"scroll\000"
 10059      6C6C00
 10060              	.LASF44:
 10061 0bf6 66616C6C 		.ascii	"fallback\000"
 10061      6261636B 
 10061      00
 10062              	.LASF198:
 10063 0bff 76616C75 		.ascii	"values_and_props\000"
 10063      65735F61 
 10063      6E645F70 
 10063      726F7073 
 10063      00
 10064              	.LASF591:
 10065 0c10 6C765F66 		.ascii	"lv_font_montserrat_14\000"
 10065      6F6E745F 
ARM GAS  C:\Users\haske\AppData\Local\Temp\ccFGJ08j.s 			page 203


 10065      6D6F6E74 
 10065      73657272 
 10065      61745F31 
 10066              	.LASF390:
 10067 0c26 6C765F69 		.ascii	"lv_indev_state_t\000"
 10067      6E646576 
 10067      5F737461 
 10067      74655F74 
 10067      00
 10068              	.LASF344:
 10069 0c37 73775F72 		.ascii	"sw_rotate\000"
 10069      6F746174 
 10069      6500
 10070              	.LASF548:
 10071 0c41 6C617965 		.ascii	"layer_type\000"
 10071      725F7479 
 10071      706500
 10072              	.LASF178:
 10073 0c4c 4C565F53 		.ascii	"LV_STYLE_ANIM_SPEED\000"
 10073      54594C45 
 10073      5F414E49 
 10073      4D5F5350 
 10073      45454400 
 10074              	.LASF28:
 10075 0c60 6C765F61 		.ascii	"lv_area_t\000"
 10075      7265615F 
 10075      7400
 10076              	.LASF305:
 10077 0c6a 6C617965 		.ascii	"layer_init\000"
 10077      725F696E 
 10077      697400
 10078              	.LASF142:
 10079 0c75 4C565F53 		.ascii	"LV_STYLE_OUTLINE_WIDTH\000"
 10079      54594C45 
 10079      5F4F5554 
 10079      4C494E45 
 10079      5F574944 
 10080              	.LASF562:
 10081 0c8c 6C765F6F 		.ascii	"lv_obj_del_async\000"
 10081      626A5F64 
 10081      656C5F61 
 10081      73796E63 
 10081      00
 10082              	.LASF543:
 10083 0c9d 6578745F 		.ascii	"ext_draw_size\000"
 10083      64726177 
 10083      5F73697A 
 10083      6500
 10084              	.LASF535:
 10085 0cab 6C765F67 		.ascii	"lv_group_edge_cb_t\000"
 10085      726F7570 
 10085      5F656467 
 10085      655F6362 
 10085      5F7400
 10086              	.LASF493:
 10087 0cbe 4C565F45 		.ascii	"LV_EVENT_CLICKED\000"
 10087      56454E54 
ARM GAS  C:\Users\haske\AppData\Local\Temp\ccFGJ08j.s 			page 204


 10087      5F434C49 
 10087      434B4544 
 10087      00
 10088              	.LASF104:
 10089 0ccf 4C565F53 		.ascii	"LV_STYLE_PROP_INV\000"
 10089      54594C45 
 10089      5F50524F 
 10089      505F494E 
 10089      5600
 10090              	.LASF170:
 10091 0ce1 4C565F53 		.ascii	"LV_STYLE_TEXT_LINE_SPACE\000"
 10091      54594C45 
 10091      5F544558 
 10091      545F4C49 
 10091      4E455F53 
 10092              	.LASF485:
 10093 0cfa 6C765F6F 		.ascii	"lv_obj_class_t\000"
 10093      626A5F63 
 10093      6C617373 
 10093      5F7400
 10094              	.LASF196:
 10095 0d09 6C765F73 		.ascii	"lv_style_const_prop_t\000"
 10095      74796C65 
 10095      5F636F6E 
 10095      73745F70 
 10095      726F705F 
 10096              	.LASF508:
 10097 0d1f 4C565F45 		.ascii	"LV_EVENT_DRAW_MAIN_END\000"
 10097      56454E54 
 10097      5F445241 
 10097      575F4D41 
 10097      494E5F45 
 10098              	.LASF427:
 10099 0d36 706F696E 		.ascii	"pointer\000"
 10099      74657200 
 10100              	.LASF207:
 10101 0d3e 70617265 		.ascii	"parent\000"
 10101      6E7400
 10102              	.LASF343:
 10103 0d45 66756C6C 		.ascii	"full_refresh\000"
 10103      5F726566 
 10103      72657368 
 10103      00
 10104              	.LASF270:
 10105 0d52 726F756E 		.ascii	"round_end\000"
 10105      645F656E 
 10105      6400
 10106              	.LASF83:
 10107 0d5c 6C765F61 		.ascii	"lv_anim_ready_cb_t\000"
 10107      6E696D5F 
 10107      72656164 
 10107      795F6362 
 10107      5F7400
 10108              	.LASF275:
 10109 0d6f 696D675F 		.ascii	"img_src\000"
 10109      73726300 
 10110              	.LASF464:
ARM GAS  C:\Users\haske\AppData\Local\Temp\ccFGJ08j.s 			page 205


 10111 0d77 69735F74 		.ascii	"is_trans\000"
 10111      72616E73 
 10111      00
 10112              	.LASF565:
 10113 0d80 6163745F 		.ascii	"act_par\000"
 10113      70617200 
 10114              	.LASF584:
 10115 0d88 6F626A31 		.ascii	"obj1\000"
 10115      00
 10116              	.LASF585:
 10117 0d8d 6F626A32 		.ascii	"obj2\000"
 10117      00
 10118              	.LASF616:
 10119 0d92 2E2E5C2E 		.ascii	"..\\..\\..\\arduinoLCD\\test\\Pain Drain\\libraries"
 10119      2E5C2E2E 
 10119      5C617264 
 10119      75696E6F 
 10119      4C43445C 
 10120 0dbf 5C6C7667 		.ascii	"\\lvgl\\src\\core\\lv_obj_tree.c\000"
 10120      6C5C7372 
 10120      635C636F 
 10120      72655C6C 
 10120      765F6F62 
 10121              	.LASF451:
 10122 0ddc 6C765F69 		.ascii	"lv_indev_t\000"
 10122      6E646576 
 10122      5F7400
 10123              	.LASF441:
 10124 0de7 62746E5F 		.ascii	"btn_points\000"
 10124      706F696E 
 10124      747300
 10125              	.LASF243:
 10126 0df2 73686164 		.ascii	"shadow_spread\000"
 10126      6F775F73 
 10126      70726561 
 10126      6400
 10127              	.LASF177:
 10128 0e00 4C565F53 		.ascii	"LV_STYLE_ANIM_TIME\000"
 10128      54594C45 
 10128      5F414E49 
 10128      4D5F5449 
 10128      4D4500
 10129              	.LASF74:
 10130 0e13 706C6179 		.ascii	"playback_delay\000"
 10130      6261636B 
 10130      5F64656C 
 10130      617900
 10131              	.LASF433:
 10132 0e22 77616974 		.ascii	"wait_until_release\000"
 10132      5F756E74 
 10132      696C5F72 
 10132      656C6561 
 10132      736500
 10133              	.LASF117:
 10134 0e35 4C565F53 		.ascii	"LV_STYLE_PAD_BOTTOM\000"
 10134      54594C45 
 10134      5F504144 
ARM GAS  C:\Users\haske\AppData\Local\Temp\ccFGJ08j.s 			page 206


 10134      5F424F54 
 10134      544F4D00 
 10135              	.LASF471:
 10136 0e49 77696474 		.ascii	"width_def\000"
 10136      685F6465 
 10136      6600
 10137              	.LASF350:
 10138 0e53 636C6561 		.ascii	"clear_cb\000"
 10138      725F6362 
 10138      00
 10139              	.LASF125:
 10140 0e5c 4C565F53 		.ascii	"LV_STYLE_BG_OPA\000"
 10140      54594C45 
 10140      5F42475F 
 10140      4F504100 
 10141              	.LASF160:
 10142 0e6c 4C565F53 		.ascii	"LV_STYLE_LINE_OPA\000"
 10142      54594C45 
 10142      5F4C494E 
 10142      455F4F50 
 10142      4100
 10143              	.LASF203:
 10144 0e7e 6C765F73 		.ascii	"lv_style_t\000"
 10144      74796C65 
 10144      5F7400
 10145              	.LASF586:
 10146 0e89 70617265 		.ascii	"parent2\000"
 10146      6E743200 
 10147              	.LASF128:
 10148 0e91 4C565F53 		.ascii	"LV_STYLE_BG_MAIN_STOP\000"
 10148      54594C45 
 10148      5F42475F 
 10148      4D41494E 
 10148      5F53544F 
 10149              	.LASF209:
 10150 0ea7 7374796C 		.ascii	"styles\000"
 10150      657300
 10151              	.LASF394:
 10152 0eae 636F6E74 		.ascii	"continue_reading\000"
 10152      696E7565 
 10152      5F726561 
 10152      64696E67 
 10152      00
 10153              	.LASF91:
 10154 0ebf 6C765F62 		.ascii	"lv_blend_mode_t\000"
 10154      6C656E64 
 10154      5F6D6F64 
 10154      655F7400 
 10155              	.LASF538:
 10156 0ecf 6368696C 		.ascii	"child_cnt\000"
 10156      645F636E 
 10156      7400
 10157              	.LASF152:
 10158 0ed9 4C565F53 		.ascii	"LV_STYLE_IMG_OPA\000"
 10158      54594C45 
 10158      5F494D47 
 10158      5F4F5041 
ARM GAS  C:\Users\haske\AppData\Local\Temp\ccFGJ08j.s 			page 207


 10158      00
 10159              	.LASF185:
 10160 0eea 4C565F53 		.ascii	"LV_STYLE_TRANSFORM_ZOOM\000"
 10160      54594C45 
 10160      5F545241 
 10160      4E53464F 
 10160      524D5F5A 
 10161              	.LASF502:
 10162 0f02 4C565F45 		.ascii	"LV_EVENT_LEAVE\000"
 10162      56454E54 
 10162      5F4C4541 
 10162      564500
 10163              	.LASF87:
 10164 0f11 6C765F61 		.ascii	"lv_anim_t\000"
 10164      6E696D5F 
 10164      7400
 10165              	.LASF15:
 10166 0f1b 6C6F6E67 		.ascii	"long unsigned int\000"
 10166      20756E73 
 10166      69676E65 
 10166      6420696E 
 10166      7400
 10167              	.LASF546:
 10168 0f2d 7363726F 		.ascii	"scroll_snap_y\000"
 10168      6C6C5F73 
 10168      6E61705F 
 10168      7900
 10169              	.LASF204:
 10170 0f3b 6C765F69 		.ascii	"lv_img_cf_t\000"
 10170      6D675F63 
 10170      665F7400 
 10171              	.LASF167:
 10172 0f47 4C565F53 		.ascii	"LV_STYLE_TEXT_OPA\000"
 10172      54594C45 
 10172      5F544558 
 10172      545F4F50 
 10172      4100
 10173              	.LASF273:
 10174 0f59 73746172 		.ascii	"start_angle\000"
 10174      745F616E 
 10174      676C6500 
 10175              	.LASF480:
 10176 0f65 70617261 		.ascii	"param\000"
 10176      6D00
 10177              	.LASF477:
 10178 0f6b 74617267 		.ascii	"target\000"
 10178      657400
 10179              	.LASF372:
 10180 0f72 64726177 		.ascii	"draw_prev_over_act\000"
 10180      5F707265 
 10180      765F6F76 
 10180      65725F61 
 10180      637400
 10181              	.LASF308:
 10182 0f85 6C617965 		.ascii	"layer_destroy\000"
 10182      725F6465 
 10182      7374726F 
ARM GAS  C:\Users\haske\AppData\Local\Temp\ccFGJ08j.s 			page 208


 10182      7900
 10183              	.LASF267:
 10184 0f93 64617368 		.ascii	"dash_width\000"
 10184      5F776964 
 10184      746800
 10185              	.LASF332:
 10186 0f9e 6C617374 		.ascii	"last_part\000"
 10186      5F706172 
 10186      7400
 10187              	.LASF583:
 10188 0fa8 6C765F6F 		.ascii	"lv_obj_swap\000"
 10188      626A5F73 
 10188      77617000 
 10189              	.LASF473:
 10190 0fb4 65646974 		.ascii	"editable\000"
 10190      61626C65 
 10190      00
 10191              	.LASF364:
 10192 0fbd 7468656D 		.ascii	"theme\000"
 10192      6500
 10193              	.LASF339:
 10194 0fc3 6F666673 		.ascii	"offset_x\000"
 10194      65745F78 
 10194      00
 10195              	.LASF340:
 10196 0fcc 6F666673 		.ascii	"offset_y\000"
 10196      65745F79 
 10196      00
 10197              	.LASF30:
 10198 0fd5 7265736F 		.ascii	"resolved_font\000"
 10198      6C766564 
 10198      5F666F6E 
 10198      7400
 10199              	.LASF443:
 10200 0fe3 6F626A5F 		.ascii	"obj_ll\000"
 10200      6C6C00
 10201              	.LASF295:
 10202 0fea 64726177 		.ascii	"draw_arc\000"
 10202      5F617263 
 10202      00
 10203              	.LASF159:
 10204 0ff3 4C565F53 		.ascii	"LV_STYLE_LINE_COLOR\000"
 10204      54594C45 
 10204      5F4C494E 
 10204      455F434F 
 10204      4C4F5200 
 10205              	.LASF615:
 10206 1007 474E5520 		.ascii	"GNU C11 5.4.1 20160609 (release) [ARM/embedded-5-br"
 10206      43313120 
 10206      352E342E 
 10206      31203230 
 10206      31363036 
 10207 103a 616E6368 		.ascii	"anch revision 237715] -mcpu=cortex-m4 -mfloat-abi=s"
 10207      20726576 
 10207      6973696F 
 10207      6E203233 
 10207      37373135 
ARM GAS  C:\Users\haske\AppData\Local\Temp\ccFGJ08j.s 			page 209


 10208 106d 6F667466 		.ascii	"oftfp -mfpu=fpv4-sp-d16 -mthumb -g -Og -ffunction-s"
 10208      70202D6D 
 10208      6670753D 
 10208      66707634 
 10208      2D73702D 
 10209 10a0 65637469 		.ascii	"ections -ffat-lto-objects\000"
 10209      6F6E7320 
 10209      2D666661 
 10209      742D6C74 
 10209      6F2D6F62 
 10210              	.LASF120:
 10211 10ba 4C565F53 		.ascii	"LV_STYLE_PAD_ROW\000"
 10211      54594C45 
 10211      5F504144 
 10211      5F524F57 
 10211      00
 10212              	.LASF324:
 10213 10cb 5F6C765F 		.ascii	"_lv_disp_draw_buf_t\000"
 10213      64697370 
 10213      5F647261 
 10213      775F6275 
 10213      665F7400 
 10214              	.LASF283:
 10215 10df 6275665F 		.ascii	"buf_area\000"
 10215      61726561 
 10215      00
 10216              	.LASF81:
 10217 10e8 73746172 		.ascii	"start_cb_called\000"
 10217      745F6362 
 10217      5F63616C 
 10217      6C656400 
 10218              	.LASF261:
 10219 10f8 7265636F 		.ascii	"recolor\000"
 10219      6C6F7200 
 10220              	.LASF516:
 10221 1100 4C565F45 		.ascii	"LV_EVENT_REFRESH\000"
 10221      56454E54 
 10221      5F524546 
 10221      52455348 
 10221      00
 10222              	.LASF475:
 10223 1111 696E7374 		.ascii	"instance_size\000"
 10223      616E6365 
 10223      5F73697A 
 10223      6500
 10224              	.LASF258:
 10225 111f 616E676C 		.ascii	"angle\000"
 10225      6500
 10226              	.LASF118:
 10227 1125 4C565F53 		.ascii	"LV_STYLE_PAD_LEFT\000"
 10227      54594C45 
 10227      5F504144 
 10227      5F4C4546 
 10227      5400
 10228              	.LASF358:
 10229 1137 64726177 		.ascii	"draw_ctx_init\000"
 10229      5F637478 
ARM GAS  C:\Users\haske\AppData\Local\Temp\ccFGJ08j.s 			page 210


 10229      5F696E69 
 10229      7400
 10230              	.LASF148:
 10231 1145 4C565F53 		.ascii	"LV_STYLE_SHADOW_OFS_Y\000"
 10231      54594C45 
 10231      5F534841 
 10231      444F575F 
 10231      4F46535F 
 10232              	.LASF522:
 10233 115b 4C565F45 		.ascii	"LV_EVENT_CHILD_DELETED\000"
 10233      56454E54 
 10233      5F434849 
 10233      4C445F44 
 10233      454C4554 
 10234              	.LASF440:
 10235 1172 67726F75 		.ascii	"group\000"
 10235      7000
 10236              	.LASF556:
 10237 1178 6C765F61 		.ascii	"lv_anim_set_time\000"
 10237      6E696D5F 
 10237      7365745F 
 10237      74696D65 
 10237      00
 10238              	.LASF505:
 10239 1189 4C565F45 		.ascii	"LV_EVENT_REFR_EXT_DRAW_SIZE\000"
 10239      56454E54 
 10239      5F524546 
 10239      525F4558 
 10239      545F4452 
 10240              	.LASF389:
 10241 11a5 4C565F49 		.ascii	"LV_INDEV_STATE_PRESSED\000"
 10241      4E444556 
 10241      5F535441 
 10241      54455F50 
 10241      52455353 
 10242              	.LASF609:
 10243 11bc 6C765F6F 		.ascii	"lv_obj_update_layout\000"
 10243      626A5F75 
 10243      70646174 
 10243      655F6C61 
 10243      796F7574 
 10244              	.LASF296:
 10245 11d1 64726177 		.ascii	"draw_img_decoded\000"
 10245      5F696D67 
 10245      5F646563 
 10245      6F646564 
 10245      00
 10246              	.LASF316:
 10247 11e2 6C765F74 		.ascii	"lv_timer_cb_t\000"
 10247      696D6572 
 10247      5F63625F 
 10247      7400
 10248              	.LASF176:
 10249 11f0 4C565F53 		.ascii	"LV_STYLE_ANIM\000"
 10249      54594C45 
 10249      5F414E49 
 10249      4D00
ARM GAS  C:\Users\haske\AppData\Local\Temp\ccFGJ08j.s 			page 211


 10250              	.LASF111:
 10251 11fe 4C565F53 		.ascii	"LV_STYLE_X\000"
 10251      54594C45 
 10251      5F5800
 10252              	.LASF417:
 10253 1209 6C617374 		.ascii	"last_obj\000"
 10253      5F6F626A 
 10253      00
 10254              	.LASF387:
 10255 1212 6C765F69 		.ascii	"lv_indev_type_t\000"
 10255      6E646576 
 10255      5F747970 
 10255      655F7400 
 10256              	.LASF172:
 10257 1222 4C565F53 		.ascii	"LV_STYLE_TEXT_ALIGN\000"
 10257      54594C45 
 10257      5F544558 
 10257      545F414C 
 10257      49474E00 
 10258              	.LASF385:
 10259 1236 4C565F49 		.ascii	"LV_INDEV_TYPE_BUTTON\000"
 10259      4E444556 
 10259      5F545950 
 10259      455F4255 
 10259      54544F4E 
 10260              	.LASF61:
 10261 124b 5F6C765F 		.ascii	"_lv_font_t\000"
 10261      666F6E74 
 10261      5F7400
 10262              	.LASF352:
 10263 1256 77616974 		.ascii	"wait_cb\000"
 10263      5F636200 
 10264              	.LASF14:
 10265 125e 5F5F7569 		.ascii	"__uint32_t\000"
 10265      6E743332 
 10265      5F7400
 10266              	.LASF470:
 10267 1269 6576656E 		.ascii	"event_cb\000"
 10267      745F6362 
 10267      00
 10268              	.LASF533:
 10269 1272 6C765F65 		.ascii	"lv_event_code_t\000"
 10269      76656E74 
 10269      5F636F64 
 10269      655F7400 
 10270              	.LASF92:
 10271 1282 6C765F74 		.ascii	"lv_text_decor_t\000"
 10271      6578745F 
 10271      6465636F 
 10271      725F7400 
 10272              	.LASF476:
 10273 1292 5F6C765F 		.ascii	"_lv_event_t\000"
 10273      6576656E 
 10273      745F7400 
 10274              	.LASF1:
 10275 129e 6C6F6E67 		.ascii	"long long int\000"
 10275      206C6F6E 
ARM GAS  C:\Users\haske\AppData\Local\Temp\ccFGJ08j.s 			page 212


 10275      6720696E 
 10275      7400
 10276              	.LASF239:
 10277 12ac 73686164 		.ascii	"shadow_color\000"
 10277      6F775F63 
 10277      6F6C6F72 
 10277      00
 10278              	.LASF482:
 10279 12b9 64656C65 		.ascii	"deleted\000"
 10279      74656400 
 10280              	.LASF266:
 10281 12c1 77696474 		.ascii	"width\000"
 10281      6800
 10282              	.LASF497:
 10283 12c7 4C565F45 		.ascii	"LV_EVENT_SCROLL\000"
 10283      56454E54 
 10283      5F534352 
 10283      4F4C4C00 
 10284              	.LASF590:
 10285 12d7 73746172 		.ascii	"start_obj\000"
 10285      745F6F62 
 10285      6A00
 10286              	.LASF325:
 10287 12e1 62756631 		.ascii	"buf1\000"
 10287      00
 10288              	.LASF326:
 10289 12e6 62756632 		.ascii	"buf2\000"
 10289      00
 10290              	.LASF186:
 10291 12eb 4C565F53 		.ascii	"LV_STYLE_TRANSFORM_ANGLE\000"
 10291      54594C45 
 10291      5F545241 
 10291      4E53464F 
 10291      524D5F41 
 10292              	.LASF410:
 10293 1304 6C617374 		.ascii	"last_point\000"
 10293      5F706F69 
 10293      6E7400
 10294              	.LASF416:
 10295 130f 6163745F 		.ascii	"act_obj\000"
 10295      6F626A00 
 10296              	.LASF278:
 10297 1317 4C565F44 		.ascii	"LV_DRAW_LAYER_FLAG_NONE\000"
 10297      5241575F 
 10297      4C415945 
 10297      525F464C 
 10297      41475F4E 
 10298              	.LASF174:
 10299 132f 4C565F53 		.ascii	"LV_STYLE_COLOR_FILTER_DSC\000"
 10299      54594C45 
 10299      5F434F4C 
 10299      4F525F46 
 10299      494C5445 
 10300              	.LASF89:
 10301 1349 6C765F74 		.ascii	"lv_text_align_t\000"
 10301      6578745F 
 10301      616C6967 
ARM GAS  C:\Users\haske\AppData\Local\Temp\ccFGJ08j.s 			page 213


 10301      6E5F7400 
 10302              	.LASF575:
 10303 1359 6F626A5F 		.ascii	"obj_del_core\000"
 10303      64656C5F 
 10303      636F7265 
 10303      00
 10304              	.LASF43:
 10305 1366 756E6465 		.ascii	"underline_thickness\000"
 10305      726C696E 
 10305      655F7468 
 10305      69636B6E 
 10305      65737300 
 10306              	.LASF171:
 10307 137a 4C565F53 		.ascii	"LV_STYLE_TEXT_DECOR\000"
 10307      54594C45 
 10307      5F544558 
 10307      545F4445 
 10307      434F5200 
 10308              	.LASF495:
 10309 138e 4C565F45 		.ascii	"LV_EVENT_SCROLL_BEGIN\000"
 10309      56454E54 
 10309      5F534352 
 10309      4F4C4C5F 
 10309      42454749 
 10310              	.LASF254:
 10311 13a4 616C6967 		.ascii	"align\000"
 10311      6E00
 10312              	.LASF162:
 10313 13aa 4C565F53 		.ascii	"LV_STYLE_ARC_ROUNDED\000"
 10313      54594C45 
 10313      5F415243 
 10313      5F524F55 
 10313      4E444544 
 10314              	.LASF578:
 10315 13bf 6C765F6F 		.ascii	"lv_obj_set_parent\000"
 10315      626A5F73 
 10315      65745F70 
 10315      6172656E 
 10315      7400
 10316              	.LASF351:
 10317 13d1 6D6F6E69 		.ascii	"monitor_cb\000"
 10317      746F725F 
 10317      636200
 10318              	.LASF215:
 10319 13dc 736B6970 		.ascii	"skip_trans\000"
 10319      5F747261 
 10319      6E7300
 10320              	.LASF603:
 10321 13e7 6C765F69 		.ascii	"lv_indev_reset\000"
 10321      6E646576 
 10321      5F726573 
 10321      657400
 10322              	.LASF608:
 10323 13f6 6C765F6F 		.ascii	"lv_obj_scrollbar_invalidate\000"
 10323      626A5F73 
 10323      63726F6C 
 10323      6C626172 
ARM GAS  C:\Users\haske\AppData\Local\Temp\ccFGJ08j.s 			page 214


 10323      5F696E76 
 10324              	.LASF166:
 10325 1412 4C565F53 		.ascii	"LV_STYLE_TEXT_COLOR\000"
 10325      54594C45 
 10325      5F544558 
 10325      545F434F 
 10325      4C4F5200 
 10326              	.LASF519:
 10327 1426 4C565F45 		.ascii	"LV_EVENT_DELETE\000"
 10327      56454E54 
 10327      5F44454C 
 10327      45544500 
 10328              	.LASF206:
 10329 1436 636C6173 		.ascii	"class_p\000"
 10329      735F7000 
 10330              	.LASF70:
 10331 143e 63757272 		.ascii	"current_value\000"
 10331      656E745F 
 10331      76616C75 
 10331      6500
 10332              	.LASF0:
 10333 144c 756E7369 		.ascii	"unsigned int\000"
 10333      676E6564 
 10333      20696E74 
 10333      00
 10334              	.LASF409:
 10335 1459 696E6465 		.ascii	"indev_point\000"
 10335      765F706F 
 10335      696E7400 
 10336              	.LASF60:
 10337 1465 6C765F61 		.ascii	"lv_anim_path_cb_t\000"
 10337      6E696D5F 
 10337      70617468 
 10337      5F63625F 
 10337      7400
 10338              	.LASF610:
 10339 1477 6C765F6F 		.ascii	"lv_obj_readjust_scroll\000"
 10339      626A5F72 
 10339      6561646A 
 10339      7573745F 
 10339      7363726F 
 10340              	.LASF86:
 10341 148e 6C765F61 		.ascii	"lv_anim_deleted_cb_t\000"
 10341      6E696D5F 
 10341      64656C65 
 10341      7465645F 
 10341      63625F74 
 10342              	.LASF400:
 10343 14a3 64697370 		.ascii	"disp\000"
 10343      00
 10344              	.LASF322:
 10345 14a8 70617573 		.ascii	"paused\000"
 10345      656400
 10346              	.LASF561:
 10347 14af 6C765F6F 		.ascii	"lv_obj_del_delayed\000"
 10347      626A5F64 
 10347      656C5F64 
ARM GAS  C:\Users\haske\AppData\Local\Temp\ccFGJ08j.s 			page 215


 10347      656C6179 
 10347      656400
 10348              	.LASF282:
 10349 14c2 636C6970 		.ascii	"clip_area\000"
 10349      5F617265 
 10349      6100
 10350              	.LASF103:
 10351 14cc 6C765F73 		.ascii	"lv_style_value_t\000"
 10351      74796C65 
 10351      5F76616C 
 10351      75655F74 
 10351      00
 10352              	.LASF413:
 10353 14dd 7363726F 		.ascii	"scroll_sum\000"
 10353      6C6C5F73 
 10353      756D00
 10354              	.LASF393:
 10355 14e8 656E635F 		.ascii	"enc_diff\000"
 10355      64696666 
 10355      00
 10356              	.LASF248:
 10357 14f1 73656C5F 		.ascii	"sel_end\000"
 10357      656E6400 
 10358              	.LASF192:
 10359 14f9 5F4C565F 		.ascii	"_LV_STYLE_PROP_CONST\000"
 10359      5354594C 
 10359      455F5052 
 10359      4F505F43 
 10359      4F4E5354 
 10360              	.LASF286:
 10361 150e 61726561 		.ascii	"area_full\000"
 10361      5F66756C 
 10361      6C00
 10362              	.LASF554:
 10363 1518 6C765F61 		.ascii	"lv_anim_set_delay\000"
 10363      6E696D5F 
 10363      7365745F 
 10363      64656C61 
 10363      7900
 10364              	.LASF255:
 10365 152a 666C6167 		.ascii	"flag\000"
 10365      00
 10366              	.LASF361:
 10367 152f 5F6C765F 		.ascii	"_lv_disp_t\000"
 10367      64697370 
 10367      5F7400
 10368              	.LASF514:
 10369 153a 4C565F45 		.ascii	"LV_EVENT_VALUE_CHANGED\000"
 10369      56454E54 
 10369      5F56414C 
 10369      55455F43 
 10369      48414E47 
 10370              	.LASF285:
 10371 1551 5F6C765F 		.ascii	"_lv_draw_layer_ctx_t\000"
 10371      64726177 
 10371      5F6C6179 
 10371      65725F63 
ARM GAS  C:\Users\haske\AppData\Local\Temp\ccFGJ08j.s 			page 216


 10371      74785F74 
 10372              	.LASF238:
 10373 1566 6F75746C 		.ascii	"outline_opa\000"
 10373      696E655F 
 10373      6F706100 
 10374              	.LASF376:
 10375 1572 696E765F 		.ascii	"inv_areas\000"
 10375      61726561 
 10375      7300
 10376              	.LASF288:
 10377 157c 6D61785F 		.ascii	"max_row_with_alpha\000"
 10377      726F775F 
 10377      77697468 
 10377      5F616C70 
 10377      686100
 10378              	.LASF436:
 10379 158f 6C6F6E67 		.ascii	"longpr_rep_timestamp\000"
 10379      70725F72 
 10379      65705F74 
 10379      696D6573 
 10379      74616D70 
 10380              	.LASF532:
 10381 15a4 4C565F45 		.ascii	"LV_EVENT_PREPROCESS\000"
 10381      56454E54 
 10381      5F505245 
 10381      50524F43 
 10381      45535300 
 10382              	.LASF263:
 10383 15b8 6672616D 		.ascii	"frame_id\000"
 10383      655F6964 
 10383      00
 10384              	.LASF262:
 10385 15c1 7265636F 		.ascii	"recolor_opa\000"
 10385      6C6F725F 
 10385      6F706100 
 10386              	.LASF114:
 10387 15cd 4C565F53 		.ascii	"LV_STYLE_LAYOUT\000"
 10387      54594C45 
 10387      5F4C4159 
 10387      4F555400 
 10388              	.LASF46:
 10389 15dd 6C765F66 		.ascii	"lv_font_glyph_dsc_t\000"
 10389      6F6E745F 
 10389      676C7970 
 10389      685F6473 
 10389      635F7400 
 10390              	.LASF524:
 10391 15f1 4C565F45 		.ascii	"LV_EVENT_SCREEN_LOAD_START\000"
 10391      56454E54 
 10391      5F534352 
 10391      45454E5F 
 10391      4C4F4144 
 10392              	.LASF484:
 10393 160c 73746F70 		.ascii	"stop_bubbling\000"
 10393      5F627562 
 10393      626C696E 
 10393      6700
ARM GAS  C:\Users\haske\AppData\Local\Temp\ccFGJ08j.s 			page 217


 10394              	.LASF236:
 10395 161a 6F75746C 		.ascii	"outline_width\000"
 10395      696E655F 
 10395      77696474 
 10395      6800
 10396              	.LASF146:
 10397 1628 4C565F53 		.ascii	"LV_STYLE_SHADOW_WIDTH\000"
 10397      54594C45 
 10397      5F534841 
 10397      444F575F 
 10397      57494454 
 10398              	.LASF488:
 10399 163e 4C565F45 		.ascii	"LV_EVENT_PRESSING\000"
 10399      56454E54 
 10399      5F505245 
 10399      5353494E 
 10399      4700
 10400              	.LASF563:
 10401 1650 6C765F6F 		.ascii	"lv_obj_get_parent\000"
 10401      626A5F67 
 10401      65745F70 
 10401      6172656E 
 10401      7400
 10402              	.LASF123:
 10403 1662 4C565F53 		.ascii	"LV_STYLE_CLIP_CORNER\000"
 10403      54594C45 
 10403      5F434C49 
 10403      505F434F 
 10403      524E4552 
 10404              	.LASF264:
 10405 1677 616E7469 		.ascii	"antialias\000"
 10405      616C6961 
 10405      7300
 10406              	.LASF467:
 10407 1681 62617365 		.ascii	"base_class\000"
 10407      5F636C61 
 10407      737300
 10408              	.LASF490:
 10409 168c 4C565F45 		.ascii	"LV_EVENT_SHORT_CLICKED\000"
 10409      56454E54 
 10409      5F53484F 
 10409      52545F43 
 10409      4C49434B 
 10410              	.LASF602:
 10411 16a3 6C765F69 		.ascii	"lv_indev_get_next\000"
 10411      6E646576 
 10411      5F676574 
 10411      5F6E6578 
 10411      7400
 10412              	.LASF76:
 10413 16b5 72657065 		.ascii	"repeat_delay\000"
 10413      61745F64 
 10413      656C6179 
 10413      00
 10414              	.LASF492:
 10415 16c2 4C565F45 		.ascii	"LV_EVENT_LONG_PRESSED_REPEAT\000"
 10415      56454E54 
ARM GAS  C:\Users\haske\AppData\Local\Temp\ccFGJ08j.s 			page 218


 10415      5F4C4F4E 
 10415      475F5052 
 10415      45535345 
 10416              	.LASF445:
 10417 16df 666F6375 		.ascii	"focus_cb\000"
 10417      735F6362 
 10417      00
 10418              	.LASF67:
 10419 16e8 6765745F 		.ascii	"get_value_cb\000"
 10419      76616C75 
 10419      655F6362 
 10419      00
 10420              	.LASF401:
 10421 16f5 72656164 		.ascii	"read_timer\000"
 10421      5F74696D 
 10421      657200
 10422              	.LASF51:
 10423 1700 6C765F72 		.ascii	"lv_res_t\000"
 10423      65735F74 
 10423      00
 10424              	.LASF175:
 10425 1709 4C565F53 		.ascii	"LV_STYLE_COLOR_FILTER_OPA\000"
 10425      54594C45 
 10425      5F434F4C 
 10425      4F525F46 
 10425      494C5445 
 10426              	.LASF327:
 10427 1723 6275665F 		.ascii	"buf_act\000"
 10427      61637400 
 10428              	.LASF2:
 10429 172b 6C6F6E67 		.ascii	"long double\000"
 10429      20646F75 
 10429      626C6500 
 10430              	.LASF461:
 10431 1737 7374796C 		.ascii	"style\000"
 10431      6500
 10432              	.LASF95:
 10433 173d 6C765F64 		.ascii	"lv_dither_mode_t\000"
 10433      69746865 
 10433      725F6D6F 
 10433      64655F74 
 10433      00
 10434              	.LASF460:
 10435 174e 6C765F73 		.ascii	"lv_scroll_snap_t\000"
 10435      63726F6C 
 10435      6C5F736E 
 10435      61705F74 
 10435      00
 10436              	.LASF383:
 10437 175f 4C565F49 		.ascii	"LV_INDEV_TYPE_POINTER\000"
 10437      4E444556 
 10437      5F545950 
 10437      455F504F 
 10437      494E5445 
 10438              	.LASF435:
 10439 1775 70725F74 		.ascii	"pr_timestamp\000"
 10439      696D6573 
ARM GAS  C:\Users\haske\AppData\Local\Temp\ccFGJ08j.s 			page 219


 10439      74616D70 
 10439      00
 10440              	.LASF479:
 10441 1782 636F6465 		.ascii	"code\000"
 10441      00
 10442              	.LASF41:
 10443 1787 73756270 		.ascii	"subpx\000"
 10443      7800
 10444              	.LASF303:
 10445 178d 77616974 		.ascii	"wait_for_finish\000"
 10445      5F666F72 
 10445      5F66696E 
 10445      69736800 
 10446              	.LASF77:
 10447 179d 72657065 		.ascii	"repeat_cnt\000"
 10447      61745F63 
 10447      6E7400
 10448              	.LASF228:
 10449 17a8 62675F69 		.ascii	"bg_img_recolor_opa\000"
 10449      6D675F72 
 10449      65636F6C 
 10449      6F725F6F 
 10449      706100
 10450              	.LASF280:
 10451 17bb 4C565F44 		.ascii	"LV_DRAW_LAYER_FLAG_CAN_SUBDIVIDE\000"
 10451      5241575F 
 10451      4C415945 
 10451      525F464C 
 10451      41475F43 
 10452              	.LASF399:
 10453 17dc 66656564 		.ascii	"feedback_cb\000"
 10453      6261636B 
 10453      5F636200 
 10454              	.LASF320:
 10455 17e8 74696D65 		.ascii	"timer_cb\000"
 10455      725F6362 
 10455      00
 10456              	.LASF403:
 10457 17f1 7363726F 		.ascii	"scroll_throw\000"
 10457      6C6C5F74 
 10457      68726F77 
 10457      00
 10458              	.LASF487:
 10459 17fe 4C565F45 		.ascii	"LV_EVENT_PRESSED\000"
 10459      56454E54 
 10459      5F505245 
 10459      53534544 
 10459      00
 10460              	.LASF518:
 10461 180f 4C565F45 		.ascii	"LV_EVENT_CANCEL\000"
 10461      56454E54 
 10461      5F43414E 
 10461      43454C00 
 10462              	.LASF137:
 10463 181f 4C565F53 		.ascii	"LV_STYLE_BORDER_COLOR\000"
 10463      54594C45 
 10463      5F424F52 
ARM GAS  C:\Users\haske\AppData\Local\Temp\ccFGJ08j.s 			page 220


 10463      4445525F 
 10463      434F4C4F 
 10464              	.LASF355:
 10465 1835 72656E64 		.ascii	"render_start_cb\000"
 10465      65725F73 
 10465      74617274 
 10465      5F636200 
 10466              	.LASF354:
 10467 1845 6472765F 		.ascii	"drv_update_cb\000"
 10467      75706461 
 10467      74655F63 
 10467      6200
 10468              	.LASF456:
 10469 1853 4C565F4F 		.ascii	"LV_OBJ_TREE_WALK_END\000"
 10469      424A5F54 
 10469      5245455F 
 10469      57414C4B 
 10469      5F454E44 
 10470              	.LASF414:
 10471 1868 7363726F 		.ascii	"scroll_throw_vect\000"
 10471      6C6C5F74 
 10471      68726F77 
 10471      5F766563 
 10471      7400
 10472              	.LASF4:
 10473 187a 5F5F696E 		.ascii	"__int8_t\000"
 10473      74385F74 
 10473      00
 10474              	.LASF429:
 10475 1883 5F6C765F 		.ascii	"_lv_indev_proc_t\000"
 10475      696E6465 
 10475      765F7072 
 10475      6F635F74 
 10475      00
 10476              	.LASF448:
 10477 1894 65646974 		.ascii	"editing\000"
 10477      696E6700 
 10478              	.LASF337:
 10479 189c 70687973 		.ascii	"physical_hor_res\000"
 10479      6963616C 
 10479      5F686F72 
 10479      5F726573 
 10479      00
 10480              	.LASF328:
 10481 18ad 73697A65 		.ascii	"size\000"
 10481      00
 10482              	.LASF289:
 10483 18b2 6D61785F 		.ascii	"max_row_with_no_alpha\000"
 10483      726F775F 
 10483      77697468 
 10483      5F6E6F5F 
 10483      616C7068 
 10484              	.LASF406:
 10485 18c8 6C6F6E67 		.ascii	"long_press_time\000"
 10485      5F707265 
 10485      73735F74 
 10485      696D6500 
ARM GAS  C:\Users\haske\AppData\Local\Temp\ccFGJ08j.s 			page 221


 10486              	.LASF16:
 10487 18d8 6C6F6E67 		.ascii	"long long unsigned int\000"
 10487      206C6F6E 
 10487      6720756E 
 10487      7369676E 
 10487      65642069 
 10488              	.LASF370:
 10489 18ef 7379735F 		.ascii	"sys_layer\000"
 10489      6C617965 
 10489      7200
 10490              	.LASF129:
 10491 18f9 4C565F53 		.ascii	"LV_STYLE_BG_GRAD_STOP\000"
 10491      54594C45 
 10491      5F42475F 
 10491      47524144 
 10491      5F53544F 
 10492              	.LASF140:
 10493 190f 4C565F53 		.ascii	"LV_STYLE_BORDER_SIDE\000"
 10493      54594C45 
 10493      5F424F52 
 10493      4445525F 
 10493      53494445 
 10494              	.LASF534:
 10495 1924 6C765F67 		.ascii	"lv_group_focus_cb_t\000"
 10495      726F7570 
 10495      5F666F63 
 10495      75735F63 
 10495      625F7400 
 10496              	.LASF466:
 10497 1938 5F6C765F 		.ascii	"_lv_obj_class_t\000"
 10497      6F626A5F 
 10497      636C6173 
 10497      735F7400 
 10498              	.LASF245:
 10499 1948 6C765F64 		.ascii	"lv_draw_rect_dsc_t\000"
 10499      7261775F 
 10499      72656374 
 10499      5F647363 
 10499      5F7400
 10500              	.LASF22:
 10501 195b 75696E74 		.ascii	"uint16_t\000"
 10501      31365F74 
 10501      00
 10502              	.LASF50:
 10503 1964 4C565F52 		.ascii	"LV_RES_OK\000"
 10503      45535F4F 
 10503      4B00
 10504              	.LASF71:
 10505 196e 656E645F 		.ascii	"end_value\000"
 10505      76616C75 
 10505      6500
 10506              	.LASF319:
 10507 1978 6C617374 		.ascii	"last_run\000"
 10507      5F72756E 
 10507      00
 10508              	.LASF450:
 10509 1981 77726170 		.ascii	"wrap\000"
ARM GAS  C:\Users\haske\AppData\Local\Temp\ccFGJ08j.s 			page 222


 10509      00
 10510              	.LASF56:
 10511 1986 6C765F63 		.ascii	"lv_color_t\000"
 10511      6F6C6F72 
 10511      5F7400
 10512              	.LASF298:
 10513 1991 64726177 		.ascii	"draw_letter\000"
 10513      5F6C6574 
 10513      74657200 
 10514              	.LASF509:
 10515 199d 4C565F45 		.ascii	"LV_EVENT_DRAW_POST_BEGIN\000"
 10515      56454E54 
 10515      5F445241 
 10515      575F504F 
 10515      53545F42 
 10516              	.LASF431:
 10517 19b6 72657365 		.ascii	"reset_query\000"
 10517      745F7175 
 10517      65727900 
 10518              	.LASF573:
 10519 19c2 6163745F 		.ascii	"act_scr_del\000"
 10519      7363725F 
 10519      64656C00 
 10520              	.LASF105:
 10521 19ce 4C565F53 		.ascii	"LV_STYLE_WIDTH\000"
 10521      54594C45 
 10521      5F574944 
 10521      544800
 10522              	.LASF231:
 10523 19dd 626F7264 		.ascii	"border_width\000"
 10523      65725F77 
 10523      69647468 
 10523      00
 10524              	.LASF106:
 10525 19ea 4C565F53 		.ascii	"LV_STYLE_MIN_WIDTH\000"
 10525      54594C45 
 10525      5F4D494E 
 10525      5F574944 
 10525      544800
 10526              	.LASF88:
 10527 19fd 6C765F74 		.ascii	"lv_text_flag_t\000"
 10527      6578745F 
 10527      666C6167 
 10527      5F7400
 10528              	.LASF415:
 10529 1a0c 7363726F 		.ascii	"scroll_throw_vect_ori\000"
 10529      6C6C5F74 
 10529      68726F77 
 10529      5F766563 
 10529      745F6F72 
 10530              	.LASF147:
 10531 1a22 4C565F53 		.ascii	"LV_STYLE_SHADOW_OFS_X\000"
 10531      54594C45 
 10531      5F534841 
 10531      444F575F 
 10531      4F46535F 
 10532              	.LASF63:
ARM GAS  C:\Users\haske\AppData\Local\Temp\ccFGJ08j.s 			page 223


 10533 1a38 65786563 		.ascii	"exec_cb\000"
 10533      5F636200 
 10534              	.LASF384:
 10535 1a40 4C565F49 		.ascii	"LV_INDEV_TYPE_KEYPAD\000"
 10535      4E444556 
 10535      5F545950 
 10535      455F4B45 
 10535      59504144 
 10536              	.LASF132:
 10537 1a55 4C565F53 		.ascii	"LV_STYLE_BG_IMG_SRC\000"
 10537      54594C45 
 10537      5F42475F 
 10537      494D475F 
 10537      53524300 
 10538              	.LASF75:
 10539 1a69 706C6179 		.ascii	"playback_time\000"
 10539      6261636B 
 10539      5F74696D 
 10539      6500
 10540              	.LASF611:
 10541 1a77 6C765F6F 		.ascii	"lv_obj_scroll_to\000"
 10541      626A5F73 
 10541      63726F6C 
 10541      6C5F746F 
 10541      00
 10542              	.LASF260:
 10543 1a88 7069766F 		.ascii	"pivot\000"
 10543      7400
 10544              	.LASF165:
 10545 1a8e 4C565F53 		.ascii	"LV_STYLE_ARC_IMG_SRC\000"
 10545      54594C45 
 10545      5F415243 
 10545      5F494D47 
 10545      5F535243 
 10546              	.LASF197:
 10547 1aa3 76616C75 		.ascii	"value1\000"
 10547      653100
 10548              	.LASF595:
 10549 1aaa 6C765F61 		.ascii	"lv_async_call\000"
 10549      73796E63 
 10549      5F63616C 
 10549      6C00
 10550              	.LASF341:
 10551 1ab8 64726177 		.ascii	"draw_buf\000"
 10551      5F627566 
 10551      00
 10552              	.LASF318:
 10553 1ac1 70657269 		.ascii	"period\000"
 10553      6F6400
 10554              	.LASF348:
 10555 1ac8 726F756E 		.ascii	"rounder_cb\000"
 10555      6465725F 
 10555      636200
 10556              	.LASF256:
 10557 1ad3 6465636F 		.ascii	"decor\000"
 10557      7200
 10558              	.LASF597:
ARM GAS  C:\Users\haske\AppData\Local\Temp\ccFGJ08j.s 			page 224


 10559 1ad9 5F6C765F 		.ascii	"_lv_ll_get_next\000"
 10559      6C6C5F67 
 10559      65745F6E 
 10559      65787400 
 10560              	.LASF8:
 10561 1ae9 5F5F696E 		.ascii	"__int16_t\000"
 10561      7431365F 
 10561      7400
 10562              	.LASF306:
 10563 1af3 6C617965 		.ascii	"layer_adjust\000"
 10563      725F6164 
 10563      6A757374 
 10563      00
 10564              	.LASF168:
 10565 1b00 4C565F53 		.ascii	"LV_STYLE_TEXT_FONT\000"
 10565      54594C45 
 10565      5F544558 
 10565      545F464F 
 10565      4E5400
 10566              	.LASF568:
 10567 1b13 6C765F6F 		.ascii	"lv_obj_get_child_cnt\000"
 10567      626A5F67 
 10567      65745F63 
 10567      68696C64 
 10567      5F636E74 
 10568              	.LASF526:
 10569 1b28 4C565F45 		.ascii	"LV_EVENT_SCREEN_UNLOADED\000"
 10569      56454E54 
 10569      5F534352 
 10569      45454E5F 
 10569      554E4C4F 
 10570              	.LASF589:
 10571 1b41 6C765F6F 		.ascii	"lv_obj_tree_walk\000"
 10571      626A5F74 
 10571      7265655F 
 10571      77616C6B 
 10571      00
 10572              	.LASF191:
 10573 1b52 4C565F53 		.ascii	"LV_STYLE_PROP_ANY\000"
 10573      54594C45 
 10573      5F50524F 
 10573      505F414E 
 10573      5900
 10574              	.LASF54:
 10575 1b64 66756C6C 		.ascii	"full\000"
 10575      00
 10576              	.LASF291:
 10577 1b69 6C765F64 		.ascii	"lv_draw_layer_ctx_t\000"
 10577      7261775F 
 10577      6C617965 
 10577      725F6374 
 10577      785F7400 
 10578              	.LASF96:
 10579 1b7d 636F6C6F 		.ascii	"color\000"
 10579      7200
 10580              	.LASF72:
 10581 1b83 74696D65 		.ascii	"time\000"
ARM GAS  C:\Users\haske\AppData\Local\Temp\ccFGJ08j.s 			page 225


 10581      00
 10582              	.LASF594:
 10583 1b88 6C765F61 		.ascii	"lv_anim_start\000"
 10583      6E696D5F 
 10583      73746172 
 10583      7400
 10584              	.LASF99:
 10585 1b96 73746F70 		.ascii	"stops\000"
 10585      7300
 10586              	.LASF426:
 10587 1b9c 6C617374 		.ascii	"last_key\000"
 10587      5F6B6579 
 10587      00
 10588              	.LASF251:
 10589 1ba5 6C696E65 		.ascii	"line_space\000"
 10589      5F737061 
 10589      636500
 10590              	.LASF437:
 10591 1bb0 5F6C765F 		.ascii	"_lv_indev_t\000"
 10591      696E6465 
 10591      765F7400 
 10592              	.LASF423:
 10593 1bbc 67657374 		.ascii	"gesture_dir\000"
 10593      7572655F 
 10593      64697200 
 10594              	.LASF307:
 10595 1bc8 6C617965 		.ascii	"layer_blend\000"
 10595      725F626C 
 10595      656E6400 
 10596              	.LASF424:
 10597 1bd4 67657374 		.ascii	"gesture_sent\000"
 10597      7572655F 
 10597      73656E74 
 10597      00
 10598              	.LASF587:
 10599 1be1 696E6465 		.ascii	"index1\000"
 10599      783100
 10600              	.LASF588:
 10601 1be8 696E6465 		.ascii	"index2\000"
 10601      783200
 10602              	.LASF469:
 10603 1bef 64657374 		.ascii	"destructor_cb\000"
 10603      72756374 
 10603      6F725F63 
 10603      6200
 10604              	.LASF93:
 10605 1bfd 6C765F62 		.ascii	"lv_border_side_t\000"
 10605      6F726465 
 10605      725F7369 
 10605      64655F74 
 10605      00
 10606              	.LASF97:
 10607 1c0e 66726163 		.ascii	"frac\000"
 10607      00
 10608              	.LASF205:
 10609 1c13 5F6C765F 		.ascii	"_lv_obj_t\000"
 10609      6F626A5F 
ARM GAS  C:\Users\haske\AppData\Local\Temp\ccFGJ08j.s 			page 226


 10609      7400
 10610              	.LASF246:
 10611 1c1d 666F6E74 		.ascii	"font\000"
 10611      00
 10612              	.LASF252:
 10613 1c22 6C657474 		.ascii	"letter_space\000"
 10613      65725F73 
 10613      70616365 
 10613      00
 10614              	.LASF402:
 10615 1c2f 7363726F 		.ascii	"scroll_limit\000"
 10615      6C6C5F6C 
 10615      696D6974 
 10615      00
 10616              	.LASF110:
 10617 1c3c 4C565F53 		.ascii	"LV_STYLE_MAX_HEIGHT\000"
 10617      54594C45 
 10617      5F4D4158 
 10617      5F484549 
 10617      47485400 
 10618              	.LASF362:
 10619 1c50 64726976 		.ascii	"driver\000"
 10619      657200
 10620              	.LASF549:
 10621 1c57 5F6C765F 		.ascii	"_lv_theme_t\000"
 10621      7468656D 
 10621      655F7400 
 10622              	.LASF277:
 10623 1c63 6C765F64 		.ascii	"lv_draw_arc_dsc_t\000"
 10623      7261775F 
 10623      6172635F 
 10623      6473635F 
 10623      7400
 10624              	.LASF126:
 10625 1c75 4C565F53 		.ascii	"LV_STYLE_BG_GRAD_COLOR\000"
 10625      54594C45 
 10625      5F42475F 
 10625      47524144 
 10625      5F434F4C 
 10626              	.LASF367:
 10627 1c8c 70726576 		.ascii	"prev_scr\000"
 10627      5F736372 
 10627      00
 10628              	.LASF33:
 10629 1c95 626F785F 		.ascii	"box_h\000"
 10629      6800
 10630              	.LASF84:
 10631 1c9b 6C765F61 		.ascii	"lv_anim_start_cb_t\000"
 10631      6E696D5F 
 10631      73746172 
 10631      745F6362 
 10631      5F7400
 10632              	.LASF226:
 10633 1cae 62675F69 		.ascii	"bg_img_recolor\000"
 10633      6D675F72 
 10633      65636F6C 
 10633      6F7200
ARM GAS  C:\Users\haske\AppData\Local\Temp\ccFGJ08j.s 			page 227


 10634              	.LASF55:
 10635 1cbd 6C765F63 		.ascii	"lv_color16_t\000"
 10635      6F6C6F72 
 10635      31365F74 
 10635      00
 10636              	.LASF32:
 10637 1cca 626F785F 		.ascii	"box_w\000"
 10637      7700
 10638              	.LASF9:
 10639 1cd0 73686F72 		.ascii	"short int\000"
 10639      7420696E 
 10639      7400
 10640              	.LASF40:
 10641 1cda 62617365 		.ascii	"base_line\000"
 10641      5F6C696E 
 10641      6500
 10642              	.LASF378:
 10643 1ce4 696E765F 		.ascii	"inv_p\000"
 10643      7000
 10644              	.LASF315:
 10645 1cea 6C765F6C 		.ascii	"lv_ll_t\000"
 10645      6C5F7400 
 10646              	.LASF566:
 10647 1cf2 6C765F6F 		.ascii	"lv_obj_get_disp\000"
 10647      626A5F67 
 10647      65745F64 
 10647      69737000 
 10648              	.LASF408:
 10649 1d02 6163745F 		.ascii	"act_point\000"
 10649      706F696E 
 10649      7400
 10650              	.LASF614:
 10651 1d0c 6C765F67 		.ascii	"lv_group_swap_obj\000"
 10651      726F7570 
 10651      5F737761 
 10651      705F6F62 
 10651      6A00
 10652              	.LASF511:
 10653 1d1e 4C565F45 		.ascii	"LV_EVENT_DRAW_POST_END\000"
 10653      56454E54 
 10653      5F445241 
 10653      575F504F 
 10653      53545F45 
 10654              	.LASF512:
 10655 1d35 4C565F45 		.ascii	"LV_EVENT_DRAW_PART_BEGIN\000"
 10655      56454E54 
 10655      5F445241 
 10655      575F5041 
 10655      52545F42 
 10656              	.LASF428:
 10657 1d4e 6B657970 		.ascii	"keypad\000"
 10657      616400
 10658              	.LASF605:
 10659 1d55 5F6C765F 		.ascii	"_lv_obj_destruct\000"
 10659      6F626A5F 
 10659      64657374 
 10659      72756374 
ARM GAS  C:\Users\haske\AppData\Local\Temp\ccFGJ08j.s 			page 228


 10659      00
 10660              	.LASF244:
 10661 1d66 73686164 		.ascii	"shadow_opa\000"
 10661      6F775F6F 
 10661      706100
 10662              	.LASF163:
 10663 1d71 4C565F53 		.ascii	"LV_STYLE_ARC_COLOR\000"
 10663      54594C45 
 10663      5F415243 
 10663      5F434F4C 
 10663      4F5200
 10664              	.LASF478:
 10665 1d84 63757272 		.ascii	"current_target\000"
 10665      656E745F 
 10665      74617267 
 10665      657400
 10666              	.LASF21:
 10667 1d93 696E7431 		.ascii	"int16_t\000"
 10667      365F7400 
 10668              	.LASF379:
 10669 1d9b 696E765F 		.ascii	"inv_en_cnt\000"
 10669      656E5F63 
 10669      6E7400
 10670              	.LASF567:
 10671 1da6 6C765F6F 		.ascii	"lv_obj_get_child\000"
 10671      626A5F67 
 10671      65745F63 
 10671      68696C64 
 10671      00
 10672              	.LASF284:
 10673 1db7 73637265 		.ascii	"screen_transp\000"
 10673      656E5F74 
 10673      72616E73 
 10673      7000
 10674              	.LASF210:
 10675 1dc5 636F6F72 		.ascii	"coords\000"
 10675      647300
 10676              	.LASF542:
 10677 1dcc 6578745F 		.ascii	"ext_click_pad\000"
 10677      636C6963 
 10677      6B5F7061 
 10677      6400
 10678              	.LASF571:
 10679 1dda 696E6465 		.ascii	"indev\000"
 10679      7600
 10680              	.LASF581:
 10681 1de0 696E6465 		.ascii	"index\000"
 10681      7800
 10682              	.LASF190:
 10683 1de6 5F4C565F 		.ascii	"_LV_STYLE_NUM_BUILT_IN_PROPS\000"
 10683      5354594C 
 10683      455F4E55 
 10683      4D5F4255 
 10683      494C545F 
 10684              	.LASF116:
 10685 1e03 4C565F53 		.ascii	"LV_STYLE_PAD_TOP\000"
 10685      54594C45 
ARM GAS  C:\Users\haske\AppData\Local\Temp\ccFGJ08j.s 			page 229


 10685      5F504144 
 10685      5F544F50 
 10685      00
 10686              	.LASF373:
 10687 1e14 64656C5F 		.ascii	"del_prev\000"
 10687      70726576 
 10687      00
 10688              	.LASF531:
 10689 1e1d 5F4C565F 		.ascii	"_LV_EVENT_LAST\000"
 10689      4556454E 
 10689      545F4C41 
 10689      535400
 10690              	.LASF375:
 10691 1e2c 62675F69 		.ascii	"bg_img\000"
 10691      6D6700
 10692              	.LASF458:
 10693 1e33 6C765F6F 		.ascii	"lv_obj_tree_walk_cb_t\000"
 10693      626A5F74 
 10693      7265655F 
 10693      77616C6B 
 10693      5F63625F 
 10694              	.LASF133:
 10695 1e49 4C565F53 		.ascii	"LV_STYLE_BG_IMG_OPA\000"
 10695      54594C45 
 10695      5F42475F 
 10695      494D475F 
 10695      4F504100 
 10696              	.LASF155:
 10697 1e5d 4C565F53 		.ascii	"LV_STYLE_LINE_WIDTH\000"
 10697      54594C45 
 10697      5F4C494E 
 10697      455F5749 
 10697      44544800 
 10698              	.LASF501:
 10699 1e71 4C565F45 		.ascii	"LV_EVENT_DEFOCUSED\000"
 10699      56454E54 
 10699      5F444546 
 10699      4F435553 
 10699      454400
 10700              	.LASF617:
 10701 1e84 433A5C50 		.ascii	"C:\\Projects\\PainDrain\\firmware\\PainDrain\\PainD"
 10701      726F6A65 
 10701      6374735C 
 10701      5061696E 
 10701      44726169 
 10702 1eb2 7261696E 		.ascii	"rain.cydsn\000"
 10702      2E637964 
 10702      736E00
 10703              	.LASF200:
 10704 1ebd 70726F70 		.ascii	"prop1\000"
 10704      3100
 10705              	.LASF349:
 10706 1ec3 7365745F 		.ascii	"set_px_cb\000"
 10706      70785F63 
 10706      6200
 10707              	.LASF407:
 10708 1ecd 6C6F6E67 		.ascii	"long_press_repeat_time\000"
ARM GAS  C:\Users\haske\AppData\Local\Temp\ccFGJ08j.s 			page 230


 10708      5F707265 
 10708      73735F72 
 10708      65706561 
 10708      745F7469 
 10709              	.LASF73:
 10710 1ee4 6163745F 		.ascii	"act_time\000"
 10710      74696D65 
 10710      00
 10711              	.LASF232:
 10712 1eed 626F7264 		.ascii	"border_opa\000"
 10712      65725F6F 
 10712      706100
 10713              	.LASF109:
 10714 1ef8 4C565F53 		.ascii	"LV_STYLE_MIN_HEIGHT\000"
 10714      54594C45 
 10714      5F4D494E 
 10714      5F484549 
 10714      47485400 
 10715              	.LASF558:
 10716 1f0c 6C765F61 		.ascii	"lv_anim_set_exec_cb\000"
 10716      6E696D5F 
 10716      7365745F 
 10716      65786563 
 10716      5F636200 
 10717              	.LASF593:
 10718 1f20 6C765F61 		.ascii	"lv_anim_init\000"
 10718      6E696D5F 
 10718      696E6974 
 10718      00
 10719              	.LASF223:
 10720 1f2d 62675F67 		.ascii	"bg_grad\000"
 10720      72616400 
 10721              	.LASF395:
 10722 1f35 6C765F69 		.ascii	"lv_indev_data_t\000"
 10722      6E646576 
 10722      5F646174 
 10722      615F7400 
 10723              	.LASF141:
 10724 1f45 4C565F53 		.ascii	"LV_STYLE_BORDER_POST\000"
 10724      54594C45 
 10724      5F424F52 
 10724      4445525F 
 10724      504F5354 
 10725              	.LASF357:
 10726 1f5a 64726177 		.ascii	"draw_ctx\000"
 10726      5F637478 
 10726      00
 10727              	.LASF297:
 10728 1f63 64726177 		.ascii	"draw_img\000"
 10728      5F696D67 
 10728      00
 10729              	.LASF98:
 10730 1f6c 6C765F67 		.ascii	"lv_gradient_stop_t\000"
 10730      72616469 
 10730      656E745F 
 10730      73746F70 
 10730      5F7400
ARM GAS  C:\Users\haske\AppData\Local\Temp\ccFGJ08j.s 			page 231


 10731              	.LASF112:
 10732 1f7f 4C565F53 		.ascii	"LV_STYLE_Y\000"
 10732      54594C45 
 10732      5F5900
 10733              	.LASF158:
 10734 1f8a 4C565F53 		.ascii	"LV_STYLE_LINE_ROUNDED\000"
 10734      54594C45 
 10734      5F4C494E 
 10734      455F524F 
 10734      554E4445 
 10735              	.LASF612:
 10736 1fa0 6C765F6F 		.ascii	"lv_obj_allocate_spec_attr\000"
 10736      626A5F61 
 10736      6C6C6F63 
 10736      6174655F 
 10736      73706563 
 10737              	.LASF599:
 10738 1fba 6C765F6D 		.ascii	"lv_mem_realloc\000"
 10738      656D5F72 
 10738      65616C6C 
 10738      6F6300
 10739              	.LASF300:
 10740 1fc9 64726177 		.ascii	"draw_polygon\000"
 10740      5F706F6C 
 10740      79676F6E 
 10740      00
 10741              	.LASF528:
 10742 1fd6 4C565F45 		.ascii	"LV_EVENT_STYLE_CHANGED\000"
 10742      56454E54 
 10742      5F535459 
 10742      4C455F43 
 10742      48414E47 
 10743              	.LASF517:
 10744 1fed 4C565F45 		.ascii	"LV_EVENT_READY\000"
 10744      56454E54 
 10744      5F524541 
 10744      445900
 10745              	.LASF247:
 10746 1ffc 73656C5F 		.ascii	"sel_start\000"
 10746      73746172 
 10746      7400
 10747              	.LASF510:
 10748 2006 4C565F45 		.ascii	"LV_EVENT_DRAW_POST\000"
 10748      56454E54 
 10748      5F445241 
 10748      575F504F 
 10748      535400
 10749              	.LASF24:
 10750 2019 75696E74 		.ascii	"uint32_t\000"
 10750      33325F74 
 10750      00
 10751              	.LASF607:
 10752 2022 6C765F6F 		.ascii	"lv_obj_invalidate\000"
 10752      626A5F69 
 10752      6E76616C 
 10752      69646174 
 10752      6500
ARM GAS  C:\Users\haske\AppData\Local\Temp\ccFGJ08j.s 			page 232


 10753              	.LASF579:
 10754 2034 6F6C645F 		.ascii	"old_parent\000"
 10754      70617265 
 10754      6E7400
 10755              	.LASF453:
 10756 203f 6C765F6F 		.ascii	"lv_obj_flag_t\000"
 10756      626A5F66 
 10756      6C61675F 
 10756      7400
 10757              	.LASF527:
 10758 204d 4C565F45 		.ascii	"LV_EVENT_SIZE_CHANGED\000"
 10758      56454E54 
 10758      5F53495A 
 10758      455F4348 
 10758      414E4745 
 10759              	.LASF240:
 10760 2063 73686164 		.ascii	"shadow_width\000"
 10760      6F775F77 
 10760      69647468 
 10760      00
 10761              	.LASF432:
 10762 2070 64697361 		.ascii	"disabled\000"
 10762      626C6564 
 10762      00
 10763              	.LASF53:
 10764 2079 67726565 		.ascii	"green\000"
 10764      6E00
 10765              	.LASF48:
 10766 207f 6C765F66 		.ascii	"lv_font_t\000"
 10766      6F6E745F 
 10766      7400
 10767              	.LASF529:
 10768 2089 4C565F45 		.ascii	"LV_EVENT_LAYOUT_CHANGED\000"
 10768      56454E54 
 10768      5F4C4159 
 10768      4F55545F 
 10768      4348414E 
 10769              	.LASF404:
 10770 20a1 67657374 		.ascii	"gesture_min_velocity\000"
 10770      7572655F 
 10770      6D696E5F 
 10770      76656C6F 
 10770      63697479 
 10771              	.LASF101:
 10772 20b6 64697468 		.ascii	"dither\000"
 10772      657200
 10773              	.LASF618:
 10774 20bd 77616C6B 		.ascii	"walk_core\000"
 10774      5F636F72 
 10774      6500
 10775              	.LASF572:
 10776 20c7 6C765F6F 		.ascii	"lv_obj_del\000"
 10776      626A5F64 
 10776      656C00
 10777              	.LASF11:
 10778 20d2 73686F72 		.ascii	"short unsigned int\000"
 10778      7420756E 
ARM GAS  C:\Users\haske\AppData\Local\Temp\ccFGJ08j.s 			page 233


 10778      7369676E 
 10778      65642069 
 10778      6E7400
 10779              	.LASF499:
 10780 20e5 4C565F45 		.ascii	"LV_EVENT_KEY\000"
 10780      56454E54 
 10780      5F4B4559 
 10780      00
 10781              	.LASF26:
 10782 20f2 6C765F63 		.ascii	"lv_coord_t\000"
 10782      6F6F7264 
 10782      5F7400
 10783              	.LASF382:
 10784 20fd 4C565F49 		.ascii	"LV_INDEV_TYPE_NONE\000"
 10784      4E444556 
 10784      5F545950 
 10784      455F4E4F 
 10784      4E4500
 10785              	.LASF347:
 10786 2110 666C7573 		.ascii	"flush_cb\000"
 10786      685F6362 
 10786      00
 10787              	.LASF143:
 10788 2119 4C565F53 		.ascii	"LV_STYLE_OUTLINE_COLOR\000"
 10788      54594C45 
 10788      5F4F5554 
 10788      4C494E45 
 10788      5F434F4C 
 10789              	.LASF45:
 10790 2130 75736572 		.ascii	"user_data\000"
 10790      5F646174 
 10790      6100
 10791              	.LASF489:
 10792 213a 4C565F45 		.ascii	"LV_EVENT_PRESS_LOST\000"
 10792      56454E54 
 10792      5F505245 
 10792      53535F4C 
 10792      4F535400 
 10793              	.LASF79:
 10794 214e 706C6179 		.ascii	"playback_now\000"
 10794      6261636B 
 10794      5F6E6F77 
 10794      00
 10795              	.LASF550:
 10796 215b 5F6C765F 		.ascii	"_lv_event_dsc_t\000"
 10796      6576656E 
 10796      745F6473 
 10796      635F7400 
 10797              	.LASF149:
 10798 216b 4C565F53 		.ascii	"LV_STYLE_SHADOW_SPREAD\000"
 10798      54594C45 
 10798      5F534841 
 10798      444F575F 
 10798      53505245 
 10799              	.LASF457:
 10800 2182 6C765F6F 		.ascii	"lv_obj_tree_walk_res_t\000"
 10800      626A5F74 
ARM GAS  C:\Users\haske\AppData\Local\Temp\ccFGJ08j.s 			page 234


 10800      7265655F 
 10800      77616C6B 
 10800      5F726573 
 10801              	.LASF37:
 10802 2199 6765745F 		.ascii	"get_glyph_dsc\000"
 10802      676C7970 
 10802      685F6473 
 10802      6300
 10803              	.LASF12:
 10804 21a7 5F5F696E 		.ascii	"__int32_t\000"
 10804      7433325F 
 10804      7400
 10805              	.LASF596:
 10806 21b1 5F6C765F 		.ascii	"_lv_ll_get_head\000"
 10806      6C6C5F67 
 10806      65745F68 
 10806      65616400 
 10807              	.LASF462:
 10808 21c1 73656C65 		.ascii	"selector\000"
 10808      63746F72 
 10808      00
 10809              	.LASF66:
 10810 21ca 64656C65 		.ascii	"deleted_cb\000"
 10810      7465645F 
 10810      636200
 10811              	.LASF94:
 10812 21d5 6C765F67 		.ascii	"lv_grad_dir_t\000"
 10812      7261645F 
 10812      6469725F 
 10812      7400
 10813              	.LASF411:
 10814 21e3 6C617374 		.ascii	"last_raw_point\000"
 10814      5F726177 
 10814      5F706F69 
 10814      6E7400
 10815              	.LASF449:
 10816 21f2 7265666F 		.ascii	"refocus_policy\000"
 10816      6375735F 
 10816      706F6C69 
 10816      637900
 10817              	.LASF334:
 10818 2201 5F6C765F 		.ascii	"_lv_disp_drv_t\000"
 10818      64697370 
 10818      5F647276 
 10818      5F7400
 10819              	.LASF430:
 10820 2210 6C6F6E67 		.ascii	"long_pr_sent\000"
 10820      5F70725F 
 10820      73656E74 
 10820      00
 10821              	.LASF472:
 10822 221d 68656967 		.ascii	"height_def\000"
 10822      68745F64 
 10822      656600
 10823              	.LASF523:
 10824 2228 4C565F45 		.ascii	"LV_EVENT_SCREEN_UNLOAD_START\000"
 10824      56454E54 
ARM GAS  C:\Users\haske\AppData\Local\Temp\ccFGJ08j.s 			page 235


 10824      5F534352 
 10824      45454E5F 
 10824      554E4C4F 
 10825              	.LASF577:
 10826 2245 6C765F6F 		.ascii	"lv_obj_clean\000"
 10826      626A5F63 
 10826      6C65616E 
 10826      00
 10827              	.LASF353:
 10828 2252 636C6561 		.ascii	"clean_dcache_cb\000"
 10828      6E5F6463 
 10828      61636865 
 10828      5F636200 
 10829              	.LASF405:
 10830 2262 67657374 		.ascii	"gesture_limit\000"
 10830      7572655F 
 10830      6C696D69 
 10830      7400
 10831              	.LASF249:
 10832 2270 73656C5F 		.ascii	"sel_color\000"
 10832      636F6C6F 
 10832      7200
 10833              	.LASF225:
 10834 227a 62675F69 		.ascii	"bg_img_symbol_font\000"
 10834      6D675F73 
 10834      796D626F 
 10834      6C5F666F 
 10834      6E7400
 10835              	.LASF242:
 10836 228d 73686164 		.ascii	"shadow_ofs_y\000"
 10836      6F775F6F 
 10836      66735F79 
 10836      00
 10837              	.LASF62:
 10838 229a 5F6C765F 		.ascii	"_lv_anim_t\000"
 10838      616E696D 
 10838      5F7400
 10839              	.LASF481:
 10840 22a5 70726576 		.ascii	"prev\000"
 10840      00
 10841              	.LASF102:
 10842 22aa 6C765F67 		.ascii	"lv_grad_dsc_t\000"
 10842      7261645F 
 10842      6473635F 
 10842      7400
 10843              	.LASF312:
 10844 22b8 6E5F7369 		.ascii	"n_size\000"
 10844      7A6500
 10845              	.LASF439:
 10846 22bf 63757273 		.ascii	"cursor\000"
 10846      6F7200
 10847              	.LASF442:
 10848 22c6 5F6C765F 		.ascii	"_lv_group_t\000"
 10848      67726F75 
 10848      705F7400 
 10849              	.LASF130:
 10850 22d2 4C565F53 		.ascii	"LV_STYLE_BG_GRAD\000"
ARM GAS  C:\Users\haske\AppData\Local\Temp\ccFGJ08j.s 			page 236


 10850      54594C45 
 10850      5F42475F 
 10850      47524144 
 10850      00
 10851              	.LASF494:
 10852 22e3 4C565F45 		.ascii	"LV_EVENT_RELEASED\000"
 10852      56454E54 
 10852      5F52454C 
 10852      45415345 
 10852      4400
 10853              	.LASF36:
 10854 22f5 69735F70 		.ascii	"is_placeholder\000"
 10854      6C616365 
 10854      686F6C64 
 10854      657200
 10855              	.LASF145:
 10856 2304 4C565F53 		.ascii	"LV_STYLE_OUTLINE_PAD\000"
 10856      54594C45 
 10856      5F4F5554 
 10856      4C494E45 
 10856      5F504144 
 10857              	.LASF601:
 10858 2319 6C765F6F 		.ascii	"lv_obj_get_group\000"
 10858      626A5F67 
 10858      65745F67 
 10858      726F7570 
 10858      00
 10859              	.LASF412:
 10860 232a 76656374 		.ascii	"vect\000"
 10860      00
 10861              	.LASF444:
 10862 232f 6F626A5F 		.ascii	"obj_focus\000"
 10862      666F6375 
 10862      7300
 10863              	.LASF169:
 10864 2339 4C565F53 		.ascii	"LV_STYLE_TEXT_LETTER_SPACE\000"
 10864      54594C45 
 10864      5F544558 
 10864      545F4C45 
 10864      54544552 
 10865              	.LASF552:
 10866 2354 6C765F6F 		.ascii	"lv_obj_t\000"
 10866      626A5F74 
 10866      00
 10867              	.LASF547:
 10868 235d 6576656E 		.ascii	"event_dsc_cnt\000"
 10868      745F6473 
 10868      635F636E 
 10868      7400
 10869              		.ident	"GCC: (GNU Tools for ARM Embedded Processors) 5.4.1 20160609 (release) [ARM/embedded-5-bran
