ARM GAS  C:\Users\haske\AppData\Local\Temp\ccRnOnFL.s 			page 1


   1              		.syntax unified
   2              		.cpu cortex-m4
   3              		.eabi_attribute 27, 1
   4              		.fpu fpv4-sp-d16
   5              		.eabi_attribute 20, 1
   6              		.eabi_attribute 21, 1
   7              		.eabi_attribute 23, 3
   8              		.eabi_attribute 24, 1
   9              		.eabi_attribute 25, 1
  10              		.eabi_attribute 26, 1
  11              		.eabi_attribute 30, 1
  12              		.eabi_attribute 34, 1
  13              		.eabi_attribute 18, 4
  14              		.thumb
  15              		.syntax unified
  16              		.file	"lv_obj_class.c"
  17              		.text
  18              	.Ltext0:
  19              		.cfi_sections	.debug_frame
  20              		.section	.text.lv_obj_construct,"ax",%progbits
  21              		.align	2
  22              		.thumb
  23              		.thumb_func
  24              		.type	lv_obj_construct, %function
  25              	lv_obj_construct:
  26              	.LFB164:
  27              		.file 1 "..\\..\\..\\arduinoLCD\\test\\Pain Drain\\libraries\\lvgl\\src\\core\\lv_obj_class.c"
   1:..\..\..\arduinoLCD\test\Pain Drain\libraries\lvgl\src\core/lv_obj_class.c **** /**
   2:..\..\..\arduinoLCD\test\Pain Drain\libraries\lvgl\src\core/lv_obj_class.c ****  * @file lv_obj_class.c
   3:..\..\..\arduinoLCD\test\Pain Drain\libraries\lvgl\src\core/lv_obj_class.c ****  *
   4:..\..\..\arduinoLCD\test\Pain Drain\libraries\lvgl\src\core/lv_obj_class.c ****  */
   5:..\..\..\arduinoLCD\test\Pain Drain\libraries\lvgl\src\core/lv_obj_class.c **** 
   6:..\..\..\arduinoLCD\test\Pain Drain\libraries\lvgl\src\core/lv_obj_class.c **** /*********************
   7:..\..\..\arduinoLCD\test\Pain Drain\libraries\lvgl\src\core/lv_obj_class.c ****  *      INCLUDES
   8:..\..\..\arduinoLCD\test\Pain Drain\libraries\lvgl\src\core/lv_obj_class.c ****  *********************/
   9:..\..\..\arduinoLCD\test\Pain Drain\libraries\lvgl\src\core/lv_obj_class.c **** #include "lv_obj.h"
  10:..\..\..\arduinoLCD\test\Pain Drain\libraries\lvgl\src\core/lv_obj_class.c **** #include "lv_theme.h"
  11:..\..\..\arduinoLCD\test\Pain Drain\libraries\lvgl\src\core/lv_obj_class.c **** 
  12:..\..\..\arduinoLCD\test\Pain Drain\libraries\lvgl\src\core/lv_obj_class.c **** /*********************
  13:..\..\..\arduinoLCD\test\Pain Drain\libraries\lvgl\src\core/lv_obj_class.c ****  *      DEFINES
  14:..\..\..\arduinoLCD\test\Pain Drain\libraries\lvgl\src\core/lv_obj_class.c ****  *********************/
  15:..\..\..\arduinoLCD\test\Pain Drain\libraries\lvgl\src\core/lv_obj_class.c **** #define MY_CLASS &lv_obj_class
  16:..\..\..\arduinoLCD\test\Pain Drain\libraries\lvgl\src\core/lv_obj_class.c **** 
  17:..\..\..\arduinoLCD\test\Pain Drain\libraries\lvgl\src\core/lv_obj_class.c **** /**********************
  18:..\..\..\arduinoLCD\test\Pain Drain\libraries\lvgl\src\core/lv_obj_class.c ****  *      TYPEDEFS
  19:..\..\..\arduinoLCD\test\Pain Drain\libraries\lvgl\src\core/lv_obj_class.c ****  **********************/
  20:..\..\..\arduinoLCD\test\Pain Drain\libraries\lvgl\src\core/lv_obj_class.c **** 
  21:..\..\..\arduinoLCD\test\Pain Drain\libraries\lvgl\src\core/lv_obj_class.c **** /**********************
  22:..\..\..\arduinoLCD\test\Pain Drain\libraries\lvgl\src\core/lv_obj_class.c ****  *  GLOBAL PROTOTYPES
  23:..\..\..\arduinoLCD\test\Pain Drain\libraries\lvgl\src\core/lv_obj_class.c ****  **********************/
  24:..\..\..\arduinoLCD\test\Pain Drain\libraries\lvgl\src\core/lv_obj_class.c **** 
  25:..\..\..\arduinoLCD\test\Pain Drain\libraries\lvgl\src\core/lv_obj_class.c **** /**********************
  26:..\..\..\arduinoLCD\test\Pain Drain\libraries\lvgl\src\core/lv_obj_class.c ****  *  STATIC PROTOTYPES
  27:..\..\..\arduinoLCD\test\Pain Drain\libraries\lvgl\src\core/lv_obj_class.c ****  **********************/
  28:..\..\..\arduinoLCD\test\Pain Drain\libraries\lvgl\src\core/lv_obj_class.c **** static void lv_obj_construct(lv_obj_t * obj);
  29:..\..\..\arduinoLCD\test\Pain Drain\libraries\lvgl\src\core/lv_obj_class.c **** static uint32_t get_instance_size(const lv_obj_class_t * class_p);
  30:..\..\..\arduinoLCD\test\Pain Drain\libraries\lvgl\src\core/lv_obj_class.c **** 
ARM GAS  C:\Users\haske\AppData\Local\Temp\ccRnOnFL.s 			page 2


  31:..\..\..\arduinoLCD\test\Pain Drain\libraries\lvgl\src\core/lv_obj_class.c **** /**********************
  32:..\..\..\arduinoLCD\test\Pain Drain\libraries\lvgl\src\core/lv_obj_class.c ****  *  STATIC VARIABLES
  33:..\..\..\arduinoLCD\test\Pain Drain\libraries\lvgl\src\core/lv_obj_class.c ****  **********************/
  34:..\..\..\arduinoLCD\test\Pain Drain\libraries\lvgl\src\core/lv_obj_class.c **** 
  35:..\..\..\arduinoLCD\test\Pain Drain\libraries\lvgl\src\core/lv_obj_class.c **** /**********************
  36:..\..\..\arduinoLCD\test\Pain Drain\libraries\lvgl\src\core/lv_obj_class.c ****  *      MACROS
  37:..\..\..\arduinoLCD\test\Pain Drain\libraries\lvgl\src\core/lv_obj_class.c ****  **********************/
  38:..\..\..\arduinoLCD\test\Pain Drain\libraries\lvgl\src\core/lv_obj_class.c **** 
  39:..\..\..\arduinoLCD\test\Pain Drain\libraries\lvgl\src\core/lv_obj_class.c **** /**********************
  40:..\..\..\arduinoLCD\test\Pain Drain\libraries\lvgl\src\core/lv_obj_class.c ****  *   GLOBAL FUNCTIONS
  41:..\..\..\arduinoLCD\test\Pain Drain\libraries\lvgl\src\core/lv_obj_class.c ****  **********************/
  42:..\..\..\arduinoLCD\test\Pain Drain\libraries\lvgl\src\core/lv_obj_class.c **** 
  43:..\..\..\arduinoLCD\test\Pain Drain\libraries\lvgl\src\core/lv_obj_class.c **** lv_obj_t * lv_obj_class_create_obj(const lv_obj_class_t * class_p, lv_obj_t * parent)
  44:..\..\..\arduinoLCD\test\Pain Drain\libraries\lvgl\src\core/lv_obj_class.c **** {
  45:..\..\..\arduinoLCD\test\Pain Drain\libraries\lvgl\src\core/lv_obj_class.c ****     LV_TRACE_OBJ_CREATE("Creating object with %p class on %p parent", (void *)class_p, (void *)pare
  46:..\..\..\arduinoLCD\test\Pain Drain\libraries\lvgl\src\core/lv_obj_class.c ****     uint32_t s = get_instance_size(class_p);
  47:..\..\..\arduinoLCD\test\Pain Drain\libraries\lvgl\src\core/lv_obj_class.c ****     lv_obj_t * obj = lv_mem_alloc(s);
  48:..\..\..\arduinoLCD\test\Pain Drain\libraries\lvgl\src\core/lv_obj_class.c ****     if(obj == NULL) return NULL;
  49:..\..\..\arduinoLCD\test\Pain Drain\libraries\lvgl\src\core/lv_obj_class.c ****     lv_memset_00(obj, s);
  50:..\..\..\arduinoLCD\test\Pain Drain\libraries\lvgl\src\core/lv_obj_class.c ****     obj->class_p = class_p;
  51:..\..\..\arduinoLCD\test\Pain Drain\libraries\lvgl\src\core/lv_obj_class.c ****     obj->parent = parent;
  52:..\..\..\arduinoLCD\test\Pain Drain\libraries\lvgl\src\core/lv_obj_class.c **** 
  53:..\..\..\arduinoLCD\test\Pain Drain\libraries\lvgl\src\core/lv_obj_class.c ****     /*Create a screen*/
  54:..\..\..\arduinoLCD\test\Pain Drain\libraries\lvgl\src\core/lv_obj_class.c ****     if(parent == NULL) {
  55:..\..\..\arduinoLCD\test\Pain Drain\libraries\lvgl\src\core/lv_obj_class.c ****         LV_TRACE_OBJ_CREATE("creating a screen");
  56:..\..\..\arduinoLCD\test\Pain Drain\libraries\lvgl\src\core/lv_obj_class.c ****         lv_disp_t * disp = lv_disp_get_default();
  57:..\..\..\arduinoLCD\test\Pain Drain\libraries\lvgl\src\core/lv_obj_class.c ****         if(!disp) {
  58:..\..\..\arduinoLCD\test\Pain Drain\libraries\lvgl\src\core/lv_obj_class.c ****             LV_LOG_WARN("No display created yet. No place to assign the new screen");
  59:..\..\..\arduinoLCD\test\Pain Drain\libraries\lvgl\src\core/lv_obj_class.c ****             lv_mem_free(obj);
  60:..\..\..\arduinoLCD\test\Pain Drain\libraries\lvgl\src\core/lv_obj_class.c ****             return NULL;
  61:..\..\..\arduinoLCD\test\Pain Drain\libraries\lvgl\src\core/lv_obj_class.c ****         }
  62:..\..\..\arduinoLCD\test\Pain Drain\libraries\lvgl\src\core/lv_obj_class.c **** 
  63:..\..\..\arduinoLCD\test\Pain Drain\libraries\lvgl\src\core/lv_obj_class.c ****         if(disp->screens == NULL) {
  64:..\..\..\arduinoLCD\test\Pain Drain\libraries\lvgl\src\core/lv_obj_class.c ****             disp->screens = lv_mem_alloc(sizeof(lv_obj_t *));
  65:..\..\..\arduinoLCD\test\Pain Drain\libraries\lvgl\src\core/lv_obj_class.c ****             disp->screens[0] = obj;
  66:..\..\..\arduinoLCD\test\Pain Drain\libraries\lvgl\src\core/lv_obj_class.c ****             disp->screen_cnt = 1;
  67:..\..\..\arduinoLCD\test\Pain Drain\libraries\lvgl\src\core/lv_obj_class.c ****         }
  68:..\..\..\arduinoLCD\test\Pain Drain\libraries\lvgl\src\core/lv_obj_class.c ****         else {
  69:..\..\..\arduinoLCD\test\Pain Drain\libraries\lvgl\src\core/lv_obj_class.c ****             disp->screen_cnt++;
  70:..\..\..\arduinoLCD\test\Pain Drain\libraries\lvgl\src\core/lv_obj_class.c ****             disp->screens = lv_mem_realloc(disp->screens, sizeof(lv_obj_t *) * disp->screen_cnt);
  71:..\..\..\arduinoLCD\test\Pain Drain\libraries\lvgl\src\core/lv_obj_class.c ****             disp->screens[disp->screen_cnt - 1] = obj;
  72:..\..\..\arduinoLCD\test\Pain Drain\libraries\lvgl\src\core/lv_obj_class.c ****         }
  73:..\..\..\arduinoLCD\test\Pain Drain\libraries\lvgl\src\core/lv_obj_class.c **** 
  74:..\..\..\arduinoLCD\test\Pain Drain\libraries\lvgl\src\core/lv_obj_class.c ****         /*Set coordinates to full screen size*/
  75:..\..\..\arduinoLCD\test\Pain Drain\libraries\lvgl\src\core/lv_obj_class.c ****         obj->coords.x1 = 0;
  76:..\..\..\arduinoLCD\test\Pain Drain\libraries\lvgl\src\core/lv_obj_class.c ****         obj->coords.y1 = 0;
  77:..\..\..\arduinoLCD\test\Pain Drain\libraries\lvgl\src\core/lv_obj_class.c ****         obj->coords.x2 = lv_disp_get_hor_res(NULL) - 1;
  78:..\..\..\arduinoLCD\test\Pain Drain\libraries\lvgl\src\core/lv_obj_class.c ****         obj->coords.y2 = lv_disp_get_ver_res(NULL) - 1;
  79:..\..\..\arduinoLCD\test\Pain Drain\libraries\lvgl\src\core/lv_obj_class.c ****     }
  80:..\..\..\arduinoLCD\test\Pain Drain\libraries\lvgl\src\core/lv_obj_class.c ****     /*Create a normal object*/
  81:..\..\..\arduinoLCD\test\Pain Drain\libraries\lvgl\src\core/lv_obj_class.c ****     else {
  82:..\..\..\arduinoLCD\test\Pain Drain\libraries\lvgl\src\core/lv_obj_class.c ****         LV_TRACE_OBJ_CREATE("creating normal object");
  83:..\..\..\arduinoLCD\test\Pain Drain\libraries\lvgl\src\core/lv_obj_class.c ****         LV_ASSERT_OBJ(parent, MY_CLASS);
  84:..\..\..\arduinoLCD\test\Pain Drain\libraries\lvgl\src\core/lv_obj_class.c ****         if(parent->spec_attr == NULL) {
  85:..\..\..\arduinoLCD\test\Pain Drain\libraries\lvgl\src\core/lv_obj_class.c ****             lv_obj_allocate_spec_attr(parent);
  86:..\..\..\arduinoLCD\test\Pain Drain\libraries\lvgl\src\core/lv_obj_class.c ****         }
  87:..\..\..\arduinoLCD\test\Pain Drain\libraries\lvgl\src\core/lv_obj_class.c **** 
ARM GAS  C:\Users\haske\AppData\Local\Temp\ccRnOnFL.s 			page 3


  88:..\..\..\arduinoLCD\test\Pain Drain\libraries\lvgl\src\core/lv_obj_class.c ****         if(parent->spec_attr->children == NULL) {
  89:..\..\..\arduinoLCD\test\Pain Drain\libraries\lvgl\src\core/lv_obj_class.c ****             parent->spec_attr->children = lv_mem_alloc(sizeof(lv_obj_t *));
  90:..\..\..\arduinoLCD\test\Pain Drain\libraries\lvgl\src\core/lv_obj_class.c ****             parent->spec_attr->children[0] = obj;
  91:..\..\..\arduinoLCD\test\Pain Drain\libraries\lvgl\src\core/lv_obj_class.c ****             parent->spec_attr->child_cnt = 1;
  92:..\..\..\arduinoLCD\test\Pain Drain\libraries\lvgl\src\core/lv_obj_class.c ****         }
  93:..\..\..\arduinoLCD\test\Pain Drain\libraries\lvgl\src\core/lv_obj_class.c ****         else {
  94:..\..\..\arduinoLCD\test\Pain Drain\libraries\lvgl\src\core/lv_obj_class.c ****             parent->spec_attr->child_cnt++;
  95:..\..\..\arduinoLCD\test\Pain Drain\libraries\lvgl\src\core/lv_obj_class.c ****             parent->spec_attr->children = lv_mem_realloc(parent->spec_attr->children,
  96:..\..\..\arduinoLCD\test\Pain Drain\libraries\lvgl\src\core/lv_obj_class.c ****                                                          sizeof(lv_obj_t *) * parent->spec_attr->ch
  97:..\..\..\arduinoLCD\test\Pain Drain\libraries\lvgl\src\core/lv_obj_class.c ****             parent->spec_attr->children[parent->spec_attr->child_cnt - 1] = obj;
  98:..\..\..\arduinoLCD\test\Pain Drain\libraries\lvgl\src\core/lv_obj_class.c ****         }
  99:..\..\..\arduinoLCD\test\Pain Drain\libraries\lvgl\src\core/lv_obj_class.c ****     }
 100:..\..\..\arduinoLCD\test\Pain Drain\libraries\lvgl\src\core/lv_obj_class.c **** 
 101:..\..\..\arduinoLCD\test\Pain Drain\libraries\lvgl\src\core/lv_obj_class.c ****     return obj;
 102:..\..\..\arduinoLCD\test\Pain Drain\libraries\lvgl\src\core/lv_obj_class.c **** }
 103:..\..\..\arduinoLCD\test\Pain Drain\libraries\lvgl\src\core/lv_obj_class.c **** 
 104:..\..\..\arduinoLCD\test\Pain Drain\libraries\lvgl\src\core/lv_obj_class.c **** void lv_obj_class_init_obj(lv_obj_t * obj)
 105:..\..\..\arduinoLCD\test\Pain Drain\libraries\lvgl\src\core/lv_obj_class.c **** {
 106:..\..\..\arduinoLCD\test\Pain Drain\libraries\lvgl\src\core/lv_obj_class.c ****     lv_obj_mark_layout_as_dirty(obj);
 107:..\..\..\arduinoLCD\test\Pain Drain\libraries\lvgl\src\core/lv_obj_class.c ****     lv_obj_enable_style_refresh(false);
 108:..\..\..\arduinoLCD\test\Pain Drain\libraries\lvgl\src\core/lv_obj_class.c **** 
 109:..\..\..\arduinoLCD\test\Pain Drain\libraries\lvgl\src\core/lv_obj_class.c ****     lv_theme_apply(obj);
 110:..\..\..\arduinoLCD\test\Pain Drain\libraries\lvgl\src\core/lv_obj_class.c ****     lv_obj_construct(obj);
 111:..\..\..\arduinoLCD\test\Pain Drain\libraries\lvgl\src\core/lv_obj_class.c **** 
 112:..\..\..\arduinoLCD\test\Pain Drain\libraries\lvgl\src\core/lv_obj_class.c ****     lv_obj_enable_style_refresh(true);
 113:..\..\..\arduinoLCD\test\Pain Drain\libraries\lvgl\src\core/lv_obj_class.c ****     lv_obj_refresh_style(obj, LV_PART_ANY, LV_STYLE_PROP_ANY);
 114:..\..\..\arduinoLCD\test\Pain Drain\libraries\lvgl\src\core/lv_obj_class.c **** 
 115:..\..\..\arduinoLCD\test\Pain Drain\libraries\lvgl\src\core/lv_obj_class.c ****     lv_obj_refresh_self_size(obj);
 116:..\..\..\arduinoLCD\test\Pain Drain\libraries\lvgl\src\core/lv_obj_class.c **** 
 117:..\..\..\arduinoLCD\test\Pain Drain\libraries\lvgl\src\core/lv_obj_class.c ****     lv_group_t * def_group = lv_group_get_default();
 118:..\..\..\arduinoLCD\test\Pain Drain\libraries\lvgl\src\core/lv_obj_class.c ****     if(def_group && lv_obj_is_group_def(obj)) {
 119:..\..\..\arduinoLCD\test\Pain Drain\libraries\lvgl\src\core/lv_obj_class.c ****         lv_group_add_obj(def_group, obj);
 120:..\..\..\arduinoLCD\test\Pain Drain\libraries\lvgl\src\core/lv_obj_class.c ****     }
 121:..\..\..\arduinoLCD\test\Pain Drain\libraries\lvgl\src\core/lv_obj_class.c **** 
 122:..\..\..\arduinoLCD\test\Pain Drain\libraries\lvgl\src\core/lv_obj_class.c ****     lv_obj_t * parent = lv_obj_get_parent(obj);
 123:..\..\..\arduinoLCD\test\Pain Drain\libraries\lvgl\src\core/lv_obj_class.c ****     if(parent) {
 124:..\..\..\arduinoLCD\test\Pain Drain\libraries\lvgl\src\core/lv_obj_class.c ****         /*Call the ancestor's event handler to the parent to notify it about the new child.
 125:..\..\..\arduinoLCD\test\Pain Drain\libraries\lvgl\src\core/lv_obj_class.c ****          *Also triggers layout update*/
 126:..\..\..\arduinoLCD\test\Pain Drain\libraries\lvgl\src\core/lv_obj_class.c ****         lv_event_send(parent, LV_EVENT_CHILD_CHANGED, obj);
 127:..\..\..\arduinoLCD\test\Pain Drain\libraries\lvgl\src\core/lv_obj_class.c ****         lv_event_send(parent, LV_EVENT_CHILD_CREATED, obj);
 128:..\..\..\arduinoLCD\test\Pain Drain\libraries\lvgl\src\core/lv_obj_class.c **** 
 129:..\..\..\arduinoLCD\test\Pain Drain\libraries\lvgl\src\core/lv_obj_class.c ****         /*Invalidate the area if not screen created*/
 130:..\..\..\arduinoLCD\test\Pain Drain\libraries\lvgl\src\core/lv_obj_class.c ****         lv_obj_invalidate(obj);
 131:..\..\..\arduinoLCD\test\Pain Drain\libraries\lvgl\src\core/lv_obj_class.c ****     }
 132:..\..\..\arduinoLCD\test\Pain Drain\libraries\lvgl\src\core/lv_obj_class.c **** }
 133:..\..\..\arduinoLCD\test\Pain Drain\libraries\lvgl\src\core/lv_obj_class.c **** 
 134:..\..\..\arduinoLCD\test\Pain Drain\libraries\lvgl\src\core/lv_obj_class.c **** void _lv_obj_destruct(lv_obj_t * obj)
 135:..\..\..\arduinoLCD\test\Pain Drain\libraries\lvgl\src\core/lv_obj_class.c **** {
 136:..\..\..\arduinoLCD\test\Pain Drain\libraries\lvgl\src\core/lv_obj_class.c ****     if(obj->class_p->destructor_cb) obj->class_p->destructor_cb(obj->class_p, obj);
 137:..\..\..\arduinoLCD\test\Pain Drain\libraries\lvgl\src\core/lv_obj_class.c **** 
 138:..\..\..\arduinoLCD\test\Pain Drain\libraries\lvgl\src\core/lv_obj_class.c ****     if(obj->class_p->base_class) {
 139:..\..\..\arduinoLCD\test\Pain Drain\libraries\lvgl\src\core/lv_obj_class.c ****         /*Don't let the descendant methods run during destructing the ancestor type*/
 140:..\..\..\arduinoLCD\test\Pain Drain\libraries\lvgl\src\core/lv_obj_class.c ****         obj->class_p = obj->class_p->base_class;
 141:..\..\..\arduinoLCD\test\Pain Drain\libraries\lvgl\src\core/lv_obj_class.c **** 
 142:..\..\..\arduinoLCD\test\Pain Drain\libraries\lvgl\src\core/lv_obj_class.c ****         /*Call the base class's destructor too*/
 143:..\..\..\arduinoLCD\test\Pain Drain\libraries\lvgl\src\core/lv_obj_class.c ****         _lv_obj_destruct(obj);
 144:..\..\..\arduinoLCD\test\Pain Drain\libraries\lvgl\src\core/lv_obj_class.c ****     }
ARM GAS  C:\Users\haske\AppData\Local\Temp\ccRnOnFL.s 			page 4


 145:..\..\..\arduinoLCD\test\Pain Drain\libraries\lvgl\src\core/lv_obj_class.c **** }
 146:..\..\..\arduinoLCD\test\Pain Drain\libraries\lvgl\src\core/lv_obj_class.c **** 
 147:..\..\..\arduinoLCD\test\Pain Drain\libraries\lvgl\src\core/lv_obj_class.c **** bool lv_obj_is_editable(lv_obj_t * obj)
 148:..\..\..\arduinoLCD\test\Pain Drain\libraries\lvgl\src\core/lv_obj_class.c **** {
 149:..\..\..\arduinoLCD\test\Pain Drain\libraries\lvgl\src\core/lv_obj_class.c ****     const lv_obj_class_t * class_p = obj->class_p;
 150:..\..\..\arduinoLCD\test\Pain Drain\libraries\lvgl\src\core/lv_obj_class.c **** 
 151:..\..\..\arduinoLCD\test\Pain Drain\libraries\lvgl\src\core/lv_obj_class.c ****     /*Find a base in which editable is set*/
 152:..\..\..\arduinoLCD\test\Pain Drain\libraries\lvgl\src\core/lv_obj_class.c ****     while(class_p && class_p->editable == LV_OBJ_CLASS_EDITABLE_INHERIT) class_p = class_p->base_cl
 153:..\..\..\arduinoLCD\test\Pain Drain\libraries\lvgl\src\core/lv_obj_class.c **** 
 154:..\..\..\arduinoLCD\test\Pain Drain\libraries\lvgl\src\core/lv_obj_class.c ****     if(class_p == NULL) return false;
 155:..\..\..\arduinoLCD\test\Pain Drain\libraries\lvgl\src\core/lv_obj_class.c **** 
 156:..\..\..\arduinoLCD\test\Pain Drain\libraries\lvgl\src\core/lv_obj_class.c ****     return class_p->editable == LV_OBJ_CLASS_EDITABLE_TRUE ? true : false;
 157:..\..\..\arduinoLCD\test\Pain Drain\libraries\lvgl\src\core/lv_obj_class.c **** }
 158:..\..\..\arduinoLCD\test\Pain Drain\libraries\lvgl\src\core/lv_obj_class.c **** 
 159:..\..\..\arduinoLCD\test\Pain Drain\libraries\lvgl\src\core/lv_obj_class.c **** bool lv_obj_is_group_def(lv_obj_t * obj)
 160:..\..\..\arduinoLCD\test\Pain Drain\libraries\lvgl\src\core/lv_obj_class.c **** {
 161:..\..\..\arduinoLCD\test\Pain Drain\libraries\lvgl\src\core/lv_obj_class.c ****     const lv_obj_class_t * class_p = obj->class_p;
 162:..\..\..\arduinoLCD\test\Pain Drain\libraries\lvgl\src\core/lv_obj_class.c **** 
 163:..\..\..\arduinoLCD\test\Pain Drain\libraries\lvgl\src\core/lv_obj_class.c ****     /*Find a base in which group_def is set*/
 164:..\..\..\arduinoLCD\test\Pain Drain\libraries\lvgl\src\core/lv_obj_class.c ****     while(class_p && class_p->group_def == LV_OBJ_CLASS_GROUP_DEF_INHERIT) class_p = class_p->base_
 165:..\..\..\arduinoLCD\test\Pain Drain\libraries\lvgl\src\core/lv_obj_class.c **** 
 166:..\..\..\arduinoLCD\test\Pain Drain\libraries\lvgl\src\core/lv_obj_class.c ****     if(class_p == NULL) return false;
 167:..\..\..\arduinoLCD\test\Pain Drain\libraries\lvgl\src\core/lv_obj_class.c **** 
 168:..\..\..\arduinoLCD\test\Pain Drain\libraries\lvgl\src\core/lv_obj_class.c ****     return class_p->group_def == LV_OBJ_CLASS_GROUP_DEF_TRUE ? true : false;
 169:..\..\..\arduinoLCD\test\Pain Drain\libraries\lvgl\src\core/lv_obj_class.c **** }
 170:..\..\..\arduinoLCD\test\Pain Drain\libraries\lvgl\src\core/lv_obj_class.c **** 
 171:..\..\..\arduinoLCD\test\Pain Drain\libraries\lvgl\src\core/lv_obj_class.c **** /**********************
 172:..\..\..\arduinoLCD\test\Pain Drain\libraries\lvgl\src\core/lv_obj_class.c ****  *   STATIC FUNCTIONS
 173:..\..\..\arduinoLCD\test\Pain Drain\libraries\lvgl\src\core/lv_obj_class.c ****  **********************/
 174:..\..\..\arduinoLCD\test\Pain Drain\libraries\lvgl\src\core/lv_obj_class.c **** 
 175:..\..\..\arduinoLCD\test\Pain Drain\libraries\lvgl\src\core/lv_obj_class.c **** static void lv_obj_construct(lv_obj_t * obj)
 176:..\..\..\arduinoLCD\test\Pain Drain\libraries\lvgl\src\core/lv_obj_class.c **** {
  28              		.loc 1 176 0
  29              		.cfi_startproc
  30              		@ args = 0, pretend = 0, frame = 0
  31              		@ frame_needed = 0, uses_anonymous_args = 0
  32              	.LVL0:
  33 0000 38B5     		push	{r3, r4, r5, lr}
  34              		.cfi_def_cfa_offset 16
  35              		.cfi_offset 3, -16
  36              		.cfi_offset 4, -12
  37              		.cfi_offset 5, -8
  38              		.cfi_offset 14, -4
  39 0002 0446     		mov	r4, r0
 177:..\..\..\arduinoLCD\test\Pain Drain\libraries\lvgl\src\core/lv_obj_class.c ****     const lv_obj_class_t * original_class_p = obj->class_p;
  40              		.loc 1 177 0
  41 0004 0568     		ldr	r5, [r0]
  42              	.LVL1:
 178:..\..\..\arduinoLCD\test\Pain Drain\libraries\lvgl\src\core/lv_obj_class.c **** 
 179:..\..\..\arduinoLCD\test\Pain Drain\libraries\lvgl\src\core/lv_obj_class.c ****     if(obj->class_p->base_class) {
  43              		.loc 1 179 0
  44 0006 2B68     		ldr	r3, [r5]
  45 0008 13B1     		cbz	r3, .L2
 180:..\..\..\arduinoLCD\test\Pain Drain\libraries\lvgl\src\core/lv_obj_class.c ****         /*Don't let the descendant methods run during constructing the ancestor type*/
 181:..\..\..\arduinoLCD\test\Pain Drain\libraries\lvgl\src\core/lv_obj_class.c ****         obj->class_p = obj->class_p->base_class;
  46              		.loc 1 181 0
  47 000a 0360     		str	r3, [r0]
ARM GAS  C:\Users\haske\AppData\Local\Temp\ccRnOnFL.s 			page 5


 182:..\..\..\arduinoLCD\test\Pain Drain\libraries\lvgl\src\core/lv_obj_class.c **** 
 183:..\..\..\arduinoLCD\test\Pain Drain\libraries\lvgl\src\core/lv_obj_class.c ****         /*Construct the base first*/
 184:..\..\..\arduinoLCD\test\Pain Drain\libraries\lvgl\src\core/lv_obj_class.c ****         lv_obj_construct(obj);
  48              		.loc 1 184 0
  49 000c FFF7F8FF 		bl	lv_obj_construct
  50              	.LVL2:
  51              	.L2:
 185:..\..\..\arduinoLCD\test\Pain Drain\libraries\lvgl\src\core/lv_obj_class.c ****     }
 186:..\..\..\arduinoLCD\test\Pain Drain\libraries\lvgl\src\core/lv_obj_class.c **** 
 187:..\..\..\arduinoLCD\test\Pain Drain\libraries\lvgl\src\core/lv_obj_class.c ****     /*Restore the original class*/
 188:..\..\..\arduinoLCD\test\Pain Drain\libraries\lvgl\src\core/lv_obj_class.c ****     obj->class_p = original_class_p;
  52              		.loc 1 188 0
  53 0010 2560     		str	r5, [r4]
 189:..\..\..\arduinoLCD\test\Pain Drain\libraries\lvgl\src\core/lv_obj_class.c **** 
 190:..\..\..\arduinoLCD\test\Pain Drain\libraries\lvgl\src\core/lv_obj_class.c ****     if(obj->class_p->constructor_cb) obj->class_p->constructor_cb(obj->class_p, obj);
  54              		.loc 1 190 0
  55 0012 6B68     		ldr	r3, [r5, #4]
  56 0014 13B1     		cbz	r3, .L1
  57              		.loc 1 190 0 is_stmt 0 discriminator 1
  58 0016 2146     		mov	r1, r4
  59 0018 2846     		mov	r0, r5
  60 001a 9847     		blx	r3
  61              	.LVL3:
  62              	.L1:
  63 001c 38BD     		pop	{r3, r4, r5, pc}
  64              		.cfi_endproc
  65              	.LFE164:
  66              		.size	lv_obj_construct, .-lv_obj_construct
  67              		.section	.text.get_instance_size,"ax",%progbits
  68              		.align	2
  69              		.thumb
  70              		.thumb_func
  71              		.type	get_instance_size, %function
  72              	get_instance_size:
  73              	.LFB165:
 191:..\..\..\arduinoLCD\test\Pain Drain\libraries\lvgl\src\core/lv_obj_class.c **** }
 192:..\..\..\arduinoLCD\test\Pain Drain\libraries\lvgl\src\core/lv_obj_class.c **** 
 193:..\..\..\arduinoLCD\test\Pain Drain\libraries\lvgl\src\core/lv_obj_class.c **** static uint32_t get_instance_size(const lv_obj_class_t * class_p)
 194:..\..\..\arduinoLCD\test\Pain Drain\libraries\lvgl\src\core/lv_obj_class.c **** {
  74              		.loc 1 194 0 is_stmt 1
  75              		.cfi_startproc
  76              		@ args = 0, pretend = 0, frame = 0
  77              		@ frame_needed = 0, uses_anonymous_args = 0
  78              		@ link register save eliminated.
  79              	.LVL4:
 195:..\..\..\arduinoLCD\test\Pain Drain\libraries\lvgl\src\core/lv_obj_class.c ****     /*Find a base in which instance size is set*/
 196:..\..\..\arduinoLCD\test\Pain Drain\libraries\lvgl\src\core/lv_obj_class.c ****     const lv_obj_class_t * base = class_p;
 197:..\..\..\arduinoLCD\test\Pain Drain\libraries\lvgl\src\core/lv_obj_class.c ****     while(base && base->instance_size == 0) base = base->base_class;
  80              		.loc 1 197 0
  81 0000 00E0     		b	.L6
  82              	.LVL5:
  83              	.L8:
  84              		.loc 1 197 0 is_stmt 0 discriminator 3
  85 0002 0068     		ldr	r0, [r0]
  86              	.LVL6:
  87              	.L6:
  88              		.loc 1 197 0 discriminator 1
ARM GAS  C:\Users\haske\AppData\Local\Temp\ccRnOnFL.s 			page 6


  89 0004 20B1     		cbz	r0, .L7
  90              		.loc 1 197 0 discriminator 2
  91 0006 8269     		ldr	r2, [r0, #24]
  92 0008 054B     		ldr	r3, .L11
  93 000a 1340     		ands	r3, r3, r2
  94 000c 002B     		cmp	r3, #0
  95 000e F8D0     		beq	.L8
  96              	.L7:
 198:..\..\..\arduinoLCD\test\Pain Drain\libraries\lvgl\src\core/lv_obj_class.c **** 
 199:..\..\..\arduinoLCD\test\Pain Drain\libraries\lvgl\src\core/lv_obj_class.c ****     if(base == NULL) return 0;  /*Never happens: set at least in `lv_obj` class*/
  97              		.loc 1 199 0 is_stmt 1
  98 0010 18B1     		cbz	r0, .L10
 200:..\..\..\arduinoLCD\test\Pain Drain\libraries\lvgl\src\core/lv_obj_class.c **** 
 201:..\..\..\arduinoLCD\test\Pain Drain\libraries\lvgl\src\core/lv_obj_class.c ****     return base->instance_size;
  99              		.loc 1 201 0
 100 0012 8069     		ldr	r0, [r0, #24]
 101              	.LVL7:
 102 0014 C0F30F10 		ubfx	r0, r0, #4, #16
 103 0018 7047     		bx	lr
 104              	.LVL8:
 105              	.L10:
 199:..\..\..\arduinoLCD\test\Pain Drain\libraries\lvgl\src\core/lv_obj_class.c **** 
 106              		.loc 1 199 0
 107 001a 0020     		movs	r0, #0
 108              	.LVL9:
 202:..\..\..\arduinoLCD\test\Pain Drain\libraries\lvgl\src\core/lv_obj_class.c **** }
 109              		.loc 1 202 0
 110 001c 7047     		bx	lr
 111              	.L12:
 112 001e 00BF     		.align	2
 113              	.L11:
 114 0020 F0FF0F00 		.word	1048560
 115              		.cfi_endproc
 116              	.LFE165:
 117              		.size	get_instance_size, .-get_instance_size
 118              		.section	.text.lv_obj_class_create_obj,"ax",%progbits
 119              		.align	2
 120              		.global	lv_obj_class_create_obj
 121              		.thumb
 122              		.thumb_func
 123              		.type	lv_obj_class_create_obj, %function
 124              	lv_obj_class_create_obj:
 125              	.LFB159:
  44:..\..\..\arduinoLCD\test\Pain Drain\libraries\lvgl\src\core/lv_obj_class.c ****     LV_TRACE_OBJ_CREATE("Creating object with %p class on %p parent", (void *)class_p, (void *)pare
 126              		.loc 1 44 0
 127              		.cfi_startproc
 128              		@ args = 0, pretend = 0, frame = 0
 129              		@ frame_needed = 0, uses_anonymous_args = 0
 130              	.LVL10:
 131 0000 F8B5     		push	{r3, r4, r5, r6, r7, lr}
 132              		.cfi_def_cfa_offset 24
 133              		.cfi_offset 3, -24
 134              		.cfi_offset 4, -20
 135              		.cfi_offset 5, -16
 136              		.cfi_offset 6, -12
 137              		.cfi_offset 7, -8
 138              		.cfi_offset 14, -4
ARM GAS  C:\Users\haske\AppData\Local\Temp\ccRnOnFL.s 			page 7


 139 0002 0646     		mov	r6, r0
 140 0004 0D46     		mov	r5, r1
  46:..\..\..\arduinoLCD\test\Pain Drain\libraries\lvgl\src\core/lv_obj_class.c ****     lv_obj_t * obj = lv_mem_alloc(s);
 141              		.loc 1 46 0
 142 0006 FFF7FEFF 		bl	get_instance_size
 143              	.LVL11:
 144 000a 0746     		mov	r7, r0
 145              	.LVL12:
  47:..\..\..\arduinoLCD\test\Pain Drain\libraries\lvgl\src\core/lv_obj_class.c ****     if(obj == NULL) return NULL;
 146              		.loc 1 47 0
 147 000c FFF7FEFF 		bl	lv_mem_alloc
 148              	.LVL13:
  48:..\..\..\arduinoLCD\test\Pain Drain\libraries\lvgl\src\core/lv_obj_class.c ****     lv_memset_00(obj, s);
 149              		.loc 1 48 0
 150 0010 0028     		cmp	r0, #0
 151 0012 5DD0     		beq	.L21
 152 0014 0446     		mov	r4, r0
  49:..\..\..\arduinoLCD\test\Pain Drain\libraries\lvgl\src\core/lv_obj_class.c ****     obj->class_p = class_p;
 153              		.loc 1 49 0
 154 0016 3946     		mov	r1, r7
 155 0018 FFF7FEFF 		bl	lv_memset_00
 156              	.LVL14:
  50:..\..\..\arduinoLCD\test\Pain Drain\libraries\lvgl\src\core/lv_obj_class.c ****     obj->parent = parent;
 157              		.loc 1 50 0
 158 001c 2660     		str	r6, [r4]
  51:..\..\..\arduinoLCD\test\Pain Drain\libraries\lvgl\src\core/lv_obj_class.c **** 
 159              		.loc 1 51 0
 160 001e 6560     		str	r5, [r4, #4]
  54:..\..\..\arduinoLCD\test\Pain Drain\libraries\lvgl\src\core/lv_obj_class.c ****         LV_TRACE_OBJ_CREATE("creating a screen");
 161              		.loc 1 54 0
 162 0020 75BB     		cbnz	r5, .L15
 163              	.LBB2:
  56:..\..\..\arduinoLCD\test\Pain Drain\libraries\lvgl\src\core/lv_obj_class.c ****         if(!disp) {
 164              		.loc 1 56 0
 165 0022 FFF7FEFF 		bl	lv_disp_get_default
 166              	.LVL15:
  57:..\..\..\arduinoLCD\test\Pain Drain\libraries\lvgl\src\core/lv_obj_class.c ****             LV_LOG_WARN("No display created yet. No place to assign the new screen");
 167              		.loc 1 57 0
 168 0026 0546     		mov	r5, r0
 169              	.LVL16:
 170 0028 20B9     		cbnz	r0, .L16
  59:..\..\..\arduinoLCD\test\Pain Drain\libraries\lvgl\src\core/lv_obj_class.c ****             return NULL;
 171              		.loc 1 59 0
 172 002a 2046     		mov	r0, r4
 173              	.LVL17:
 174 002c FFF7FEFF 		bl	lv_mem_free
 175              	.LVL18:
  60:..\..\..\arduinoLCD\test\Pain Drain\libraries\lvgl\src\core/lv_obj_class.c ****         }
 176              		.loc 1 60 0
 177 0030 0020     		movs	r0, #0
 178 0032 F8BD     		pop	{r3, r4, r5, r6, r7, pc}
 179              	.LVL19:
 180              	.L16:
  63:..\..\..\arduinoLCD\test\Pain Drain\libraries\lvgl\src\core/lv_obj_class.c ****             disp->screens = lv_mem_alloc(sizeof(lv_obj_t *));
 181              		.loc 1 63 0
 182 0034 C068     		ldr	r0, [r0, #12]
 183              	.LVL20:
ARM GAS  C:\Users\haske\AppData\Local\Temp\ccRnOnFL.s 			page 8


 184 0036 38B9     		cbnz	r0, .L17
  64:..\..\..\arduinoLCD\test\Pain Drain\libraries\lvgl\src\core/lv_obj_class.c ****             disp->screens[0] = obj;
 185              		.loc 1 64 0
 186 0038 0420     		movs	r0, #4
 187 003a FFF7FEFF 		bl	lv_mem_alloc
 188              	.LVL21:
 189 003e E860     		str	r0, [r5, #12]
  65:..\..\..\arduinoLCD\test\Pain Drain\libraries\lvgl\src\core/lv_obj_class.c ****             disp->screen_cnt = 1;
 190              		.loc 1 65 0
 191 0040 0460     		str	r4, [r0]
  66:..\..\..\arduinoLCD\test\Pain Drain\libraries\lvgl\src\core/lv_obj_class.c ****         }
 192              		.loc 1 66 0
 193 0042 0123     		movs	r3, #1
 194 0044 6B62     		str	r3, [r5, #36]
 195 0046 0CE0     		b	.L18
 196              	.L17:
  69:..\..\..\arduinoLCD\test\Pain Drain\libraries\lvgl\src\core/lv_obj_class.c ****             disp->screens = lv_mem_realloc(disp->screens, sizeof(lv_obj_t *) * disp->screen_cnt);
 197              		.loc 1 69 0
 198 0048 696A     		ldr	r1, [r5, #36]
 199 004a 0131     		adds	r1, r1, #1
 200 004c 6962     		str	r1, [r5, #36]
  70:..\..\..\arduinoLCD\test\Pain Drain\libraries\lvgl\src\core/lv_obj_class.c ****             disp->screens[disp->screen_cnt - 1] = obj;
 201              		.loc 1 70 0
 202 004e 8900     		lsls	r1, r1, #2
 203 0050 FFF7FEFF 		bl	lv_mem_realloc
 204              	.LVL22:
 205 0054 E860     		str	r0, [r5, #12]
  71:..\..\..\arduinoLCD\test\Pain Drain\libraries\lvgl\src\core/lv_obj_class.c ****         }
 206              		.loc 1 71 0
 207 0056 6B6A     		ldr	r3, [r5, #36]
 208 0058 03F18043 		add	r3, r3, #1073741824
 209 005c 013B     		subs	r3, r3, #1
 210 005e 40F82340 		str	r4, [r0, r3, lsl #2]
 211              	.L18:
  75:..\..\..\arduinoLCD\test\Pain Drain\libraries\lvgl\src\core/lv_obj_class.c ****         obj->coords.y1 = 0;
 212              		.loc 1 75 0
 213 0062 0025     		movs	r5, #0
 214              	.LVL23:
 215 0064 A582     		strh	r5, [r4, #20]	@ movhi
  76:..\..\..\arduinoLCD\test\Pain Drain\libraries\lvgl\src\core/lv_obj_class.c ****         obj->coords.x2 = lv_disp_get_hor_res(NULL) - 1;
 216              		.loc 1 76 0
 217 0066 E582     		strh	r5, [r4, #22]	@ movhi
  77:..\..\..\arduinoLCD\test\Pain Drain\libraries\lvgl\src\core/lv_obj_class.c ****         obj->coords.y2 = lv_disp_get_ver_res(NULL) - 1;
 218              		.loc 1 77 0
 219 0068 2846     		mov	r0, r5
 220 006a FFF7FEFF 		bl	lv_disp_get_hor_res
 221              	.LVL24:
 222 006e 0138     		subs	r0, r0, #1
 223 0070 2083     		strh	r0, [r4, #24]	@ movhi
  78:..\..\..\arduinoLCD\test\Pain Drain\libraries\lvgl\src\core/lv_obj_class.c ****     }
 224              		.loc 1 78 0
 225 0072 2846     		mov	r0, r5
 226 0074 FFF7FEFF 		bl	lv_disp_get_ver_res
 227              	.LVL25:
 228 0078 0138     		subs	r0, r0, #1
 229 007a 6083     		strh	r0, [r4, #26]	@ movhi
 230              	.LBE2:
ARM GAS  C:\Users\haske\AppData\Local\Temp\ccRnOnFL.s 			page 9


 101:..\..\..\arduinoLCD\test\Pain Drain\libraries\lvgl\src\core/lv_obj_class.c **** }
 231              		.loc 1 101 0
 232 007c 2046     		mov	r0, r4
 233 007e F8BD     		pop	{r3, r4, r5, r6, r7, pc}
 234              	.LVL26:
 235              	.L15:
  84:..\..\..\arduinoLCD\test\Pain Drain\libraries\lvgl\src\core/lv_obj_class.c ****             lv_obj_allocate_spec_attr(parent);
 236              		.loc 1 84 0
 237 0080 AB68     		ldr	r3, [r5, #8]
 238 0082 13B9     		cbnz	r3, .L19
  85:..\..\..\arduinoLCD\test\Pain Drain\libraries\lvgl\src\core/lv_obj_class.c ****         }
 239              		.loc 1 85 0
 240 0084 2846     		mov	r0, r5
 241 0086 FFF7FEFF 		bl	lv_obj_allocate_spec_attr
 242              	.LVL27:
 243              	.L19:
  88:..\..\..\arduinoLCD\test\Pain Drain\libraries\lvgl\src\core/lv_obj_class.c ****             parent->spec_attr->children = lv_mem_alloc(sizeof(lv_obj_t *));
 244              		.loc 1 88 0
 245 008a AE68     		ldr	r6, [r5, #8]
 246              	.LVL28:
 247 008c 3368     		ldr	r3, [r6]
 248 008e 5BB9     		cbnz	r3, .L20
  89:..\..\..\arduinoLCD\test\Pain Drain\libraries\lvgl\src\core/lv_obj_class.c ****             parent->spec_attr->children[0] = obj;
 249              		.loc 1 89 0
 250 0090 0420     		movs	r0, #4
 251 0092 FFF7FEFF 		bl	lv_mem_alloc
 252              	.LVL29:
 253 0096 3060     		str	r0, [r6]
  90:..\..\..\arduinoLCD\test\Pain Drain\libraries\lvgl\src\core/lv_obj_class.c ****             parent->spec_attr->child_cnt = 1;
 254              		.loc 1 90 0
 255 0098 AB68     		ldr	r3, [r5, #8]
 256 009a 1B68     		ldr	r3, [r3]
 257 009c 1C60     		str	r4, [r3]
  91:..\..\..\arduinoLCD\test\Pain Drain\libraries\lvgl\src\core/lv_obj_class.c ****         }
 258              		.loc 1 91 0
 259 009e AB68     		ldr	r3, [r5, #8]
 260 00a0 0122     		movs	r2, #1
 261 00a2 5A60     		str	r2, [r3, #4]
 101:..\..\..\arduinoLCD\test\Pain Drain\libraries\lvgl\src\core/lv_obj_class.c **** }
 262              		.loc 1 101 0
 263 00a4 2046     		mov	r0, r4
 264 00a6 F8BD     		pop	{r3, r4, r5, r6, r7, pc}
 265              	.LVL30:
 266              	.L20:
  94:..\..\..\arduinoLCD\test\Pain Drain\libraries\lvgl\src\core/lv_obj_class.c ****             parent->spec_attr->children = lv_mem_realloc(parent->spec_attr->children,
 267              		.loc 1 94 0
 268 00a8 7368     		ldr	r3, [r6, #4]
 269 00aa 0133     		adds	r3, r3, #1
 270 00ac 7360     		str	r3, [r6, #4]
  95:..\..\..\arduinoLCD\test\Pain Drain\libraries\lvgl\src\core/lv_obj_class.c ****                                                          sizeof(lv_obj_t *) * parent->spec_attr->ch
 271              		.loc 1 95 0
 272 00ae AE68     		ldr	r6, [r5, #8]
  96:..\..\..\arduinoLCD\test\Pain Drain\libraries\lvgl\src\core/lv_obj_class.c ****             parent->spec_attr->children[parent->spec_attr->child_cnt - 1] = obj;
 273              		.loc 1 96 0
 274 00b0 7168     		ldr	r1, [r6, #4]
  95:..\..\..\arduinoLCD\test\Pain Drain\libraries\lvgl\src\core/lv_obj_class.c ****                                                          sizeof(lv_obj_t *) * parent->spec_attr->ch
 275              		.loc 1 95 0
ARM GAS  C:\Users\haske\AppData\Local\Temp\ccRnOnFL.s 			page 10


 276 00b2 8900     		lsls	r1, r1, #2
 277 00b4 3068     		ldr	r0, [r6]
 278 00b6 FFF7FEFF 		bl	lv_mem_realloc
 279              	.LVL31:
 280 00ba 3060     		str	r0, [r6]
  97:..\..\..\arduinoLCD\test\Pain Drain\libraries\lvgl\src\core/lv_obj_class.c ****         }
 281              		.loc 1 97 0
 282 00bc AB68     		ldr	r3, [r5, #8]
 283 00be 1A68     		ldr	r2, [r3]
 284 00c0 5B68     		ldr	r3, [r3, #4]
 285 00c2 03F18043 		add	r3, r3, #1073741824
 286 00c6 013B     		subs	r3, r3, #1
 287 00c8 42F82340 		str	r4, [r2, r3, lsl #2]
 101:..\..\..\arduinoLCD\test\Pain Drain\libraries\lvgl\src\core/lv_obj_class.c **** }
 288              		.loc 1 101 0
 289 00cc 2046     		mov	r0, r4
 290 00ce F8BD     		pop	{r3, r4, r5, r6, r7, pc}
 291              	.LVL32:
 292              	.L21:
  48:..\..\..\arduinoLCD\test\Pain Drain\libraries\lvgl\src\core/lv_obj_class.c ****     lv_memset_00(obj, s);
 293              		.loc 1 48 0
 294 00d0 0020     		movs	r0, #0
 295              	.LVL33:
 102:..\..\..\arduinoLCD\test\Pain Drain\libraries\lvgl\src\core/lv_obj_class.c **** 
 296              		.loc 1 102 0
 297 00d2 F8BD     		pop	{r3, r4, r5, r6, r7, pc}
 298              		.cfi_endproc
 299              	.LFE159:
 300              		.size	lv_obj_class_create_obj, .-lv_obj_class_create_obj
 301              		.section	.text._lv_obj_destruct,"ax",%progbits
 302              		.align	2
 303              		.global	_lv_obj_destruct
 304              		.thumb
 305              		.thumb_func
 306              		.type	_lv_obj_destruct, %function
 307              	_lv_obj_destruct:
 308              	.LFB161:
 135:..\..\..\arduinoLCD\test\Pain Drain\libraries\lvgl\src\core/lv_obj_class.c ****     if(obj->class_p->destructor_cb) obj->class_p->destructor_cb(obj->class_p, obj);
 309              		.loc 1 135 0
 310              		.cfi_startproc
 311              		@ args = 0, pretend = 0, frame = 0
 312              		@ frame_needed = 0, uses_anonymous_args = 0
 313              	.LVL34:
 314 0000 10B5     		push	{r4, lr}
 315              		.cfi_def_cfa_offset 8
 316              		.cfi_offset 4, -8
 317              		.cfi_offset 14, -4
 318 0002 0446     		mov	r4, r0
 136:..\..\..\arduinoLCD\test\Pain Drain\libraries\lvgl\src\core/lv_obj_class.c **** 
 319              		.loc 1 136 0
 320 0004 0068     		ldr	r0, [r0]
 321              	.LVL35:
 322 0006 8368     		ldr	r3, [r0, #8]
 323 0008 0BB1     		cbz	r3, .L24
 136:..\..\..\arduinoLCD\test\Pain Drain\libraries\lvgl\src\core/lv_obj_class.c **** 
 324              		.loc 1 136 0 is_stmt 0 discriminator 1
 325 000a 2146     		mov	r1, r4
ARM GAS  C:\Users\haske\AppData\Local\Temp\ccRnOnFL.s 			page 11


 326 000c 9847     		blx	r3
 327              	.LVL36:
 328              	.L24:
 138:..\..\..\arduinoLCD\test\Pain Drain\libraries\lvgl\src\core/lv_obj_class.c ****         /*Don't let the descendant methods run during destructing the ancestor type*/
 329              		.loc 1 138 0 is_stmt 1
 330 000e 2368     		ldr	r3, [r4]
 331 0010 1B68     		ldr	r3, [r3]
 332 0012 1BB1     		cbz	r3, .L23
 140:..\..\..\arduinoLCD\test\Pain Drain\libraries\lvgl\src\core/lv_obj_class.c **** 
 333              		.loc 1 140 0
 334 0014 2360     		str	r3, [r4]
 143:..\..\..\arduinoLCD\test\Pain Drain\libraries\lvgl\src\core/lv_obj_class.c ****     }
 335              		.loc 1 143 0
 336 0016 2046     		mov	r0, r4
 337 0018 FFF7FEFF 		bl	_lv_obj_destruct
 338              	.LVL37:
 339              	.L23:
 340 001c 10BD     		pop	{r4, pc}
 341              		.cfi_endproc
 342              	.LFE161:
 343              		.size	_lv_obj_destruct, .-_lv_obj_destruct
 344 001e 00BF     		.section	.text.lv_obj_is_editable,"ax",%progbits
 345              		.align	2
 346              		.global	lv_obj_is_editable
 347              		.thumb
 348              		.thumb_func
 349              		.type	lv_obj_is_editable, %function
 350              	lv_obj_is_editable:
 351              	.LFB162:
 148:..\..\..\arduinoLCD\test\Pain Drain\libraries\lvgl\src\core/lv_obj_class.c ****     const lv_obj_class_t * class_p = obj->class_p;
 352              		.loc 1 148 0
 353              		.cfi_startproc
 354              		@ args = 0, pretend = 0, frame = 0
 355              		@ frame_needed = 0, uses_anonymous_args = 0
 356              		@ link register save eliminated.
 357              	.LVL38:
 149:..\..\..\arduinoLCD\test\Pain Drain\libraries\lvgl\src\core/lv_obj_class.c **** 
 358              		.loc 1 149 0
 359 0000 0368     		ldr	r3, [r0]
 360              	.LVL39:
 152:..\..\..\arduinoLCD\test\Pain Drain\libraries\lvgl\src\core/lv_obj_class.c **** 
 361              		.loc 1 152 0
 362 0002 00E0     		b	.L28
 363              	.L30:
 152:..\..\..\arduinoLCD\test\Pain Drain\libraries\lvgl\src\core/lv_obj_class.c **** 
 364              		.loc 1 152 0 is_stmt 0 discriminator 3
 365 0004 1B68     		ldr	r3, [r3]
 366              	.LVL40:
 367              	.L28:
 152:..\..\..\arduinoLCD\test\Pain Drain\libraries\lvgl\src\core/lv_obj_class.c **** 
 368              		.loc 1 152 0 discriminator 1
 369 0006 1BB1     		cbz	r3, .L29
 152:..\..\..\arduinoLCD\test\Pain Drain\libraries\lvgl\src\core/lv_obj_class.c **** 
 370              		.loc 1 152 0 discriminator 2
 371 0008 1A7E     		ldrb	r2, [r3, #24]	@ zero_extendqisi2
 372 000a 12F0030F 		tst	r2, #3
 373 000e F9D0     		beq	.L30
ARM GAS  C:\Users\haske\AppData\Local\Temp\ccRnOnFL.s 			page 12


 374              	.L29:
 154:..\..\..\arduinoLCD\test\Pain Drain\libraries\lvgl\src\core/lv_obj_class.c **** 
 375              		.loc 1 154 0 is_stmt 1
 376 0010 3BB1     		cbz	r3, .L32
 156:..\..\..\arduinoLCD\test\Pain Drain\libraries\lvgl\src\core/lv_obj_class.c **** }
 377              		.loc 1 156 0
 378 0012 187E     		ldrb	r0, [r3, #24]	@ zero_extendqisi2
 379              	.LVL41:
 380 0014 00F00300 		and	r0, r0, #3
 381 0018 0128     		cmp	r0, #1
 382 001a 14BF     		ite	ne
 383 001c 0020     		movne	r0, #0
 384 001e 0120     		moveq	r0, #1
 385 0020 7047     		bx	lr
 386              	.LVL42:
 387              	.L32:
 154:..\..\..\arduinoLCD\test\Pain Drain\libraries\lvgl\src\core/lv_obj_class.c **** 
 388              		.loc 1 154 0
 389 0022 0020     		movs	r0, #0
 390              	.LVL43:
 157:..\..\..\arduinoLCD\test\Pain Drain\libraries\lvgl\src\core/lv_obj_class.c **** 
 391              		.loc 1 157 0
 392 0024 7047     		bx	lr
 393              		.cfi_endproc
 394              	.LFE162:
 395              		.size	lv_obj_is_editable, .-lv_obj_is_editable
 396 0026 00BF     		.section	.text.lv_obj_is_group_def,"ax",%progbits
 397              		.align	2
 398              		.global	lv_obj_is_group_def
 399              		.thumb
 400              		.thumb_func
 401              		.type	lv_obj_is_group_def, %function
 402              	lv_obj_is_group_def:
 403              	.LFB163:
 160:..\..\..\arduinoLCD\test\Pain Drain\libraries\lvgl\src\core/lv_obj_class.c ****     const lv_obj_class_t * class_p = obj->class_p;
 404              		.loc 1 160 0
 405              		.cfi_startproc
 406              		@ args = 0, pretend = 0, frame = 0
 407              		@ frame_needed = 0, uses_anonymous_args = 0
 408              		@ link register save eliminated.
 409              	.LVL44:
 161:..\..\..\arduinoLCD\test\Pain Drain\libraries\lvgl\src\core/lv_obj_class.c **** 
 410              		.loc 1 161 0
 411 0000 0368     		ldr	r3, [r0]
 412              	.LVL45:
 164:..\..\..\arduinoLCD\test\Pain Drain\libraries\lvgl\src\core/lv_obj_class.c **** 
 413              		.loc 1 164 0
 414 0002 00E0     		b	.L34
 415              	.L36:
 164:..\..\..\arduinoLCD\test\Pain Drain\libraries\lvgl\src\core/lv_obj_class.c **** 
 416              		.loc 1 164 0 is_stmt 0 discriminator 3
 417 0004 1B68     		ldr	r3, [r3]
 418              	.LVL46:
 419              	.L34:
 164:..\..\..\arduinoLCD\test\Pain Drain\libraries\lvgl\src\core/lv_obj_class.c **** 
 420              		.loc 1 164 0 discriminator 1
 421 0006 1BB1     		cbz	r3, .L35
ARM GAS  C:\Users\haske\AppData\Local\Temp\ccRnOnFL.s 			page 13


 164:..\..\..\arduinoLCD\test\Pain Drain\libraries\lvgl\src\core/lv_obj_class.c **** 
 422              		.loc 1 164 0 discriminator 2
 423 0008 1A7E     		ldrb	r2, [r3, #24]	@ zero_extendqisi2
 424 000a 12F00C0F 		tst	r2, #12
 425 000e F9D0     		beq	.L36
 426              	.L35:
 166:..\..\..\arduinoLCD\test\Pain Drain\libraries\lvgl\src\core/lv_obj_class.c **** 
 427              		.loc 1 166 0 is_stmt 1
 428 0010 3BB1     		cbz	r3, .L38
 168:..\..\..\arduinoLCD\test\Pain Drain\libraries\lvgl\src\core/lv_obj_class.c **** }
 429              		.loc 1 168 0
 430 0012 187E     		ldrb	r0, [r3, #24]	@ zero_extendqisi2
 431              	.LVL47:
 432 0014 00F00C00 		and	r0, r0, #12
 433 0018 0428     		cmp	r0, #4
 434 001a 14BF     		ite	ne
 435 001c 0020     		movne	r0, #0
 436 001e 0120     		moveq	r0, #1
 437 0020 7047     		bx	lr
 438              	.LVL48:
 439              	.L38:
 166:..\..\..\arduinoLCD\test\Pain Drain\libraries\lvgl\src\core/lv_obj_class.c **** 
 440              		.loc 1 166 0
 441 0022 0020     		movs	r0, #0
 442              	.LVL49:
 169:..\..\..\arduinoLCD\test\Pain Drain\libraries\lvgl\src\core/lv_obj_class.c **** 
 443              		.loc 1 169 0
 444 0024 7047     		bx	lr
 445              		.cfi_endproc
 446              	.LFE163:
 447              		.size	lv_obj_is_group_def, .-lv_obj_is_group_def
 448 0026 00BF     		.section	.text.lv_obj_class_init_obj,"ax",%progbits
 449              		.align	2
 450              		.global	lv_obj_class_init_obj
 451              		.thumb
 452              		.thumb_func
 453              		.type	lv_obj_class_init_obj, %function
 454              	lv_obj_class_init_obj:
 455              	.LFB160:
 105:..\..\..\arduinoLCD\test\Pain Drain\libraries\lvgl\src\core/lv_obj_class.c ****     lv_obj_mark_layout_as_dirty(obj);
 456              		.loc 1 105 0
 457              		.cfi_startproc
 458              		@ args = 0, pretend = 0, frame = 0
 459              		@ frame_needed = 0, uses_anonymous_args = 0
 460              	.LVL50:
 461 0000 38B5     		push	{r3, r4, r5, lr}
 462              		.cfi_def_cfa_offset 16
 463              		.cfi_offset 3, -16
 464              		.cfi_offset 4, -12
 465              		.cfi_offset 5, -8
 466              		.cfi_offset 14, -4
 467 0002 0446     		mov	r4, r0
 106:..\..\..\arduinoLCD\test\Pain Drain\libraries\lvgl\src\core/lv_obj_class.c ****     lv_obj_enable_style_refresh(false);
 468              		.loc 1 106 0
 469 0004 FFF7FEFF 		bl	lv_obj_mark_layout_as_dirty
 470              	.LVL51:
 107:..\..\..\arduinoLCD\test\Pain Drain\libraries\lvgl\src\core/lv_obj_class.c **** 
ARM GAS  C:\Users\haske\AppData\Local\Temp\ccRnOnFL.s 			page 14


 471              		.loc 1 107 0
 472 0008 0020     		movs	r0, #0
 473 000a FFF7FEFF 		bl	lv_obj_enable_style_refresh
 474              	.LVL52:
 109:..\..\..\arduinoLCD\test\Pain Drain\libraries\lvgl\src\core/lv_obj_class.c ****     lv_obj_construct(obj);
 475              		.loc 1 109 0
 476 000e 2046     		mov	r0, r4
 477 0010 FFF7FEFF 		bl	lv_theme_apply
 478              	.LVL53:
 110:..\..\..\arduinoLCD\test\Pain Drain\libraries\lvgl\src\core/lv_obj_class.c **** 
 479              		.loc 1 110 0
 480 0014 2046     		mov	r0, r4
 481 0016 FFF7FEFF 		bl	lv_obj_construct
 482              	.LVL54:
 112:..\..\..\arduinoLCD\test\Pain Drain\libraries\lvgl\src\core/lv_obj_class.c ****     lv_obj_refresh_style(obj, LV_PART_ANY, LV_STYLE_PROP_ANY);
 483              		.loc 1 112 0
 484 001a 0120     		movs	r0, #1
 485 001c FFF7FEFF 		bl	lv_obj_enable_style_refresh
 486              	.LVL55:
 113:..\..\..\arduinoLCD\test\Pain Drain\libraries\lvgl\src\core/lv_obj_class.c **** 
 487              		.loc 1 113 0
 488 0020 4FF6FF72 		movw	r2, #65535
 489 0024 4FF47021 		mov	r1, #983040
 490 0028 2046     		mov	r0, r4
 491 002a FFF7FEFF 		bl	lv_obj_refresh_style
 492              	.LVL56:
 115:..\..\..\arduinoLCD\test\Pain Drain\libraries\lvgl\src\core/lv_obj_class.c **** 
 493              		.loc 1 115 0
 494 002e 2046     		mov	r0, r4
 495 0030 FFF7FEFF 		bl	lv_obj_refresh_self_size
 496              	.LVL57:
 117:..\..\..\arduinoLCD\test\Pain Drain\libraries\lvgl\src\core/lv_obj_class.c ****     if(def_group && lv_obj_is_group_def(obj)) {
 497              		.loc 1 117 0
 498 0034 FFF7FEFF 		bl	lv_group_get_default
 499              	.LVL58:
 118:..\..\..\arduinoLCD\test\Pain Drain\libraries\lvgl\src\core/lv_obj_class.c ****         lv_group_add_obj(def_group, obj);
 500              		.loc 1 118 0
 501 0038 40B1     		cbz	r0, .L40
 502 003a 0546     		mov	r5, r0
 118:..\..\..\arduinoLCD\test\Pain Drain\libraries\lvgl\src\core/lv_obj_class.c ****         lv_group_add_obj(def_group, obj);
 503              		.loc 1 118 0 is_stmt 0 discriminator 1
 504 003c 2046     		mov	r0, r4
 505              	.LVL59:
 506 003e FFF7FEFF 		bl	lv_obj_is_group_def
 507              	.LVL60:
 508 0042 18B1     		cbz	r0, .L40
 119:..\..\..\arduinoLCD\test\Pain Drain\libraries\lvgl\src\core/lv_obj_class.c ****     }
 509              		.loc 1 119 0 is_stmt 1
 510 0044 2146     		mov	r1, r4
 511 0046 2846     		mov	r0, r5
 512 0048 FFF7FEFF 		bl	lv_group_add_obj
 513              	.LVL61:
 514              	.L40:
 122:..\..\..\arduinoLCD\test\Pain Drain\libraries\lvgl\src\core/lv_obj_class.c ****     if(parent) {
 515              		.loc 1 122 0
 516 004c 2046     		mov	r0, r4
 517 004e FFF7FEFF 		bl	lv_obj_get_parent
ARM GAS  C:\Users\haske\AppData\Local\Temp\ccRnOnFL.s 			page 15


 518              	.LVL62:
 123:..\..\..\arduinoLCD\test\Pain Drain\libraries\lvgl\src\core/lv_obj_class.c ****         /*Call the ancestor's event handler to the parent to notify it about the new child.
 519              		.loc 1 123 0
 520 0052 0546     		mov	r5, r0
 521 0054 58B1     		cbz	r0, .L39
 126:..\..\..\arduinoLCD\test\Pain Drain\libraries\lvgl\src\core/lv_obj_class.c ****         lv_event_send(parent, LV_EVENT_CHILD_CREATED, obj);
 522              		.loc 1 126 0
 523 0056 2246     		mov	r2, r4
 524 0058 2221     		movs	r1, #34
 525 005a FFF7FEFF 		bl	lv_event_send
 526              	.LVL63:
 127:..\..\..\arduinoLCD\test\Pain Drain\libraries\lvgl\src\core/lv_obj_class.c **** 
 527              		.loc 1 127 0
 528 005e 2246     		mov	r2, r4
 529 0060 2321     		movs	r1, #35
 530 0062 2846     		mov	r0, r5
 531 0064 FFF7FEFF 		bl	lv_event_send
 532              	.LVL64:
 130:..\..\..\arduinoLCD\test\Pain Drain\libraries\lvgl\src\core/lv_obj_class.c ****     }
 533              		.loc 1 130 0
 534 0068 2046     		mov	r0, r4
 535 006a FFF7FEFF 		bl	lv_obj_invalidate
 536              	.LVL65:
 537              	.L39:
 538 006e 38BD     		pop	{r3, r4, r5, pc}
 539              		.cfi_endproc
 540              	.LFE160:
 541              		.size	lv_obj_class_init_obj, .-lv_obj_class_init_obj
 542              		.text
 543              	.Letext0:
 544              		.file 2 "c:\\program files (x86)\\cypress\\psoc creator\\4.4\\psoc creator\\import\\gnu\\arm\\5.4.
 545              		.file 3 "c:\\program files (x86)\\cypress\\psoc creator\\4.4\\psoc creator\\import\\gnu\\arm\\5.4.
 546              		.file 4 "c:\\program files (x86)\\cypress\\psoc creator\\4.4\\psoc creator\\import\\gnu\\arm\\5.4.
 547              		.file 5 "c:\\projects\\paindrain\\arduinolcd\\test\\pain drain\\libraries\\lvgl\\src\\misc\\lv_are
 548              		.file 6 "c:\\projects\\paindrain\\arduinolcd\\test\\pain drain\\libraries\\lvgl\\src\\font\\lv_fon
 549              		.file 7 "..\\..\\..\\arduinoLCD\\test\\Pain Drain\\libraries\\lvgl\\src\\core\\../misc/lv_types.h"
 550              		.file 8 "..\\..\\..\\arduinoLCD\\test\\Pain Drain\\libraries\\lvgl\\src\\core\\../misc/lv_color.h"
 551              		.file 9 "..\\..\\..\\arduinoLCD\\test\\Pain Drain\\libraries\\lvgl\\src\\core\\../misc/lv_txt.h"
 552              		.file 10 "..\\..\\..\\arduinoLCD\\test\\Pain Drain\\libraries\\lvgl\\src\\core\\../misc/lv_bidi.h"
 553              		.file 11 "..\\..\\..\\arduinoLCD\\test\\Pain Drain\\libraries\\lvgl\\src\\core\\../misc/lv_style.h
 554              		.file 12 "c:\\projects\\paindrain\\arduinolcd\\test\\pain drain\\libraries\\lvgl\\src\\draw\\lv_im
 555              		.file 13 "..\\..\\..\\arduinoLCD\\test\\Pain Drain\\libraries\\lvgl\\src\\core\\lv_obj.h"
 556              		.file 14 "c:\\projects\\paindrain\\arduinolcd\\test\\pain drain\\libraries\\lvgl\\src\\draw\\lv_dr
 557              		.file 15 "c:\\projects\\paindrain\\arduinolcd\\test\\pain drain\\libraries\\lvgl\\src\\draw\\lv_dr
 558              		.file 16 "c:\\projects\\paindrain\\arduinolcd\\test\\pain drain\\libraries\\lvgl\\src\\draw\\lv_dr
 559              		.file 17 "c:\\projects\\paindrain\\arduinolcd\\test\\pain drain\\libraries\\lvgl\\src\\draw\\lv_dr
 560              		.file 18 "c:\\projects\\paindrain\\arduinolcd\\test\\pain drain\\libraries\\lvgl\\src\\draw\\lv_dr
 561              		.file 19 "c:\\projects\\paindrain\\arduinolcd\\test\\pain drain\\libraries\\lvgl\\src\\draw\\lv_dr
 562              		.file 20 "c:\\projects\\paindrain\\arduinolcd\\test\\pain drain\\libraries\\lvgl\\src\\draw\\lv_dr
 563              		.file 21 "c:\\projects\\paindrain\\arduinolcd\\test\\pain drain\\libraries\\lvgl\\src\\misc\\lv_ll
 564              		.file 22 "c:\\projects\\paindrain\\arduinolcd\\test\\pain drain\\libraries\\lvgl\\src\\misc\\lv_ti
 565              		.file 23 "..\\..\\..\\arduinoLCD\\test\\Pain Drain\\libraries\\lvgl\\src\\core\\../hal/lv_hal_disp
 566              		.file 24 "..\\..\\..\\arduinoLCD\\test\\Pain Drain\\libraries\\lvgl\\src\\core\\lv_theme.h"
 567              		.file 25 "..\\..\\..\\arduinoLCD\\test\\Pain Drain\\libraries\\lvgl\\src\\core\\lv_group.h"
 568              		.file 26 "..\\..\\..\\arduinoLCD\\test\\Pain Drain\\libraries\\lvgl\\src\\core\\lv_obj_scroll.h"
 569              		.file 27 "..\\..\\..\\arduinoLCD\\test\\Pain Drain\\libraries\\lvgl\\src\\core\\lv_obj_style.h"
 570              		.file 28 "..\\..\\..\\arduinoLCD\\test\\Pain Drain\\libraries\\lvgl\\src\\core\\lv_obj_class.h"
ARM GAS  C:\Users\haske\AppData\Local\Temp\ccRnOnFL.s 			page 16


 571              		.file 29 "..\\..\\..\\arduinoLCD\\test\\Pain Drain\\libraries\\lvgl\\src\\core\\lv_event.h"
 572              		.file 30 "..\\..\\..\\arduinoLCD\\test\\Pain Drain\\libraries\\lvgl\\src\\core\\../misc/lv_mem.h"
 573              		.file 31 "c:\\projects\\paindrain\\arduinolcd\\test\\pain drain\\libraries\\lvgl\\src\\core\\lv_ob
 574              		.file 32 "..\\..\\..\\arduinoLCD\\test\\Pain Drain\\libraries\\lvgl\\src\\core\\lv_obj_tree.h"