ARM GAS  C:\Users\haske\AppData\Local\Temp\ccFGJ08j.s 			page 1


   1              		.syntax unified
   2              		.cpu cortex-m4
   3              		.eabi_attribute 27, 1
   4              		.fpu fpv4-sp-d16
   5              		.eabi_attribute 20, 1
   6              		.eabi_attribute 21, 1
   7              		.eabi_attribute 23, 3
   8              		.eabi_attribute 24, 1
   9              		.eabi_attribute 25, 1
  10              		.eabi_attribute 26, 1
  11              		.eabi_attribute 30, 1
  12              		.eabi_attribute 34, 1
  13              		.eabi_attribute 18, 4
  14              		.thumb
  15              		.syntax unified
  16              		.file	"lv_obj_tree.c"
  17              		.text
  18              	.Ltext0:
  19              		.cfi_sections	.debug_frame
  20              		.section	.text.lv_obj_del_delayed,"ax",%progbits
  21              		.align	2
  22              		.global	lv_obj_del_delayed
  23              		.thumb
  24              		.thumb_func
  25              		.type	lv_obj_del_delayed, %function
  26              	lv_obj_del_delayed:
  27              	.LFB161:
  28              		.file 1 "..\\..\\..\\arduinoLCD\\test\\Pain Drain\\libraries\\lvgl\\src\\core\\lv_obj_tree.c"
   1:..\..\..\arduinoLCD\test\Pain Drain\libraries\lvgl\src\core/lv_obj_tree.c **** /**
   2:..\..\..\arduinoLCD\test\Pain Drain\libraries\lvgl\src\core/lv_obj_tree.c ****  * @file lv_obj_tree.c
   3:..\..\..\arduinoLCD\test\Pain Drain\libraries\lvgl\src\core/lv_obj_tree.c ****  *
   4:..\..\..\arduinoLCD\test\Pain Drain\libraries\lvgl\src\core/lv_obj_tree.c ****  */
   5:..\..\..\arduinoLCD\test\Pain Drain\libraries\lvgl\src\core/lv_obj_tree.c **** 
   6:..\..\..\arduinoLCD\test\Pain Drain\libraries\lvgl\src\core/lv_obj_tree.c **** /*********************
   7:..\..\..\arduinoLCD\test\Pain Drain\libraries\lvgl\src\core/lv_obj_tree.c ****  *      INCLUDES
   8:..\..\..\arduinoLCD\test\Pain Drain\libraries\lvgl\src\core/lv_obj_tree.c ****  *********************/
   9:..\..\..\arduinoLCD\test\Pain Drain\libraries\lvgl\src\core/lv_obj_tree.c **** #include <stdlib.h>
  10:..\..\..\arduinoLCD\test\Pain Drain\libraries\lvgl\src\core/lv_obj_tree.c **** 
  11:..\..\..\arduinoLCD\test\Pain Drain\libraries\lvgl\src\core/lv_obj_tree.c **** #include "lv_obj.h"
  12:..\..\..\arduinoLCD\test\Pain Drain\libraries\lvgl\src\core/lv_obj_tree.c **** #include "lv_indev.h"
  13:..\..\..\arduinoLCD\test\Pain Drain\libraries\lvgl\src\core/lv_obj_tree.c **** #include "../misc/lv_anim.h"
  14:..\..\..\arduinoLCD\test\Pain Drain\libraries\lvgl\src\core/lv_obj_tree.c **** #include "../misc/lv_gc.h"
  15:..\..\..\arduinoLCD\test\Pain Drain\libraries\lvgl\src\core/lv_obj_tree.c **** #include "../misc/lv_async.h"
  16:..\..\..\arduinoLCD\test\Pain Drain\libraries\lvgl\src\core/lv_obj_tree.c **** 
  17:..\..\..\arduinoLCD\test\Pain Drain\libraries\lvgl\src\core/lv_obj_tree.c **** /*********************
  18:..\..\..\arduinoLCD\test\Pain Drain\libraries\lvgl\src\core/lv_obj_tree.c ****  *      DEFINES
  19:..\..\..\arduinoLCD\test\Pain Drain\libraries\lvgl\src\core/lv_obj_tree.c ****  *********************/
  20:..\..\..\arduinoLCD\test\Pain Drain\libraries\lvgl\src\core/lv_obj_tree.c **** #define MY_CLASS &lv_obj_class
  21:..\..\..\arduinoLCD\test\Pain Drain\libraries\lvgl\src\core/lv_obj_tree.c **** 
  22:..\..\..\arduinoLCD\test\Pain Drain\libraries\lvgl\src\core/lv_obj_tree.c **** /**********************
  23:..\..\..\arduinoLCD\test\Pain Drain\libraries\lvgl\src\core/lv_obj_tree.c ****  *      TYPEDEFS
  24:..\..\..\arduinoLCD\test\Pain Drain\libraries\lvgl\src\core/lv_obj_tree.c ****  **********************/
  25:..\..\..\arduinoLCD\test\Pain Drain\libraries\lvgl\src\core/lv_obj_tree.c **** 
  26:..\..\..\arduinoLCD\test\Pain Drain\libraries\lvgl\src\core/lv_obj_tree.c **** /**********************
  27:..\..\..\arduinoLCD\test\Pain Drain\libraries\lvgl\src\core/lv_obj_tree.c ****  *  STATIC PROTOTYPES
  28:..\..\..\arduinoLCD\test\Pain Drain\libraries\lvgl\src\core/lv_obj_tree.c ****  **********************/
  29:..\..\..\arduinoLCD\test\Pain Drain\libraries\lvgl\src\core/lv_obj_tree.c **** static void lv_obj_del_async_cb(void * obj);
ARM GAS  C:\Users\haske\AppData\Local\Temp\ccFGJ08j.s 			page 2


  30:..\..\..\arduinoLCD\test\Pain Drain\libraries\lvgl\src\core/lv_obj_tree.c **** static void obj_del_core(lv_obj_t * obj);
  31:..\..\..\arduinoLCD\test\Pain Drain\libraries\lvgl\src\core/lv_obj_tree.c **** static lv_obj_tree_walk_res_t walk_core(lv_obj_t * obj, lv_obj_tree_walk_cb_t cb, void * user_data)
  32:..\..\..\arduinoLCD\test\Pain Drain\libraries\lvgl\src\core/lv_obj_tree.c **** 
  33:..\..\..\arduinoLCD\test\Pain Drain\libraries\lvgl\src\core/lv_obj_tree.c **** /**********************
  34:..\..\..\arduinoLCD\test\Pain Drain\libraries\lvgl\src\core/lv_obj_tree.c ****  *  STATIC VARIABLES
  35:..\..\..\arduinoLCD\test\Pain Drain\libraries\lvgl\src\core/lv_obj_tree.c ****  **********************/
  36:..\..\..\arduinoLCD\test\Pain Drain\libraries\lvgl\src\core/lv_obj_tree.c **** 
  37:..\..\..\arduinoLCD\test\Pain Drain\libraries\lvgl\src\core/lv_obj_tree.c **** /**********************
  38:..\..\..\arduinoLCD\test\Pain Drain\libraries\lvgl\src\core/lv_obj_tree.c ****  *      MACROS
  39:..\..\..\arduinoLCD\test\Pain Drain\libraries\lvgl\src\core/lv_obj_tree.c ****  **********************/
  40:..\..\..\arduinoLCD\test\Pain Drain\libraries\lvgl\src\core/lv_obj_tree.c **** 
  41:..\..\..\arduinoLCD\test\Pain Drain\libraries\lvgl\src\core/lv_obj_tree.c **** /**********************
  42:..\..\..\arduinoLCD\test\Pain Drain\libraries\lvgl\src\core/lv_obj_tree.c ****  *   GLOBAL FUNCTIONS
  43:..\..\..\arduinoLCD\test\Pain Drain\libraries\lvgl\src\core/lv_obj_tree.c ****  **********************/
  44:..\..\..\arduinoLCD\test\Pain Drain\libraries\lvgl\src\core/lv_obj_tree.c **** 
  45:..\..\..\arduinoLCD\test\Pain Drain\libraries\lvgl\src\core/lv_obj_tree.c **** void lv_obj_del(lv_obj_t * obj)
  46:..\..\..\arduinoLCD\test\Pain Drain\libraries\lvgl\src\core/lv_obj_tree.c **** {
  47:..\..\..\arduinoLCD\test\Pain Drain\libraries\lvgl\src\core/lv_obj_tree.c ****     LV_LOG_TRACE("begin (delete %p)", (void *)obj);
  48:..\..\..\arduinoLCD\test\Pain Drain\libraries\lvgl\src\core/lv_obj_tree.c ****     LV_ASSERT_OBJ(obj, MY_CLASS);
  49:..\..\..\arduinoLCD\test\Pain Drain\libraries\lvgl\src\core/lv_obj_tree.c ****     lv_obj_invalidate(obj);
  50:..\..\..\arduinoLCD\test\Pain Drain\libraries\lvgl\src\core/lv_obj_tree.c **** 
  51:..\..\..\arduinoLCD\test\Pain Drain\libraries\lvgl\src\core/lv_obj_tree.c ****     lv_obj_t * par = lv_obj_get_parent(obj);
  52:..\..\..\arduinoLCD\test\Pain Drain\libraries\lvgl\src\core/lv_obj_tree.c ****     if(par) {
  53:..\..\..\arduinoLCD\test\Pain Drain\libraries\lvgl\src\core/lv_obj_tree.c ****         lv_obj_scrollbar_invalidate(par);
  54:..\..\..\arduinoLCD\test\Pain Drain\libraries\lvgl\src\core/lv_obj_tree.c ****     }
  55:..\..\..\arduinoLCD\test\Pain Drain\libraries\lvgl\src\core/lv_obj_tree.c **** 
  56:..\..\..\arduinoLCD\test\Pain Drain\libraries\lvgl\src\core/lv_obj_tree.c ****     lv_disp_t * disp = NULL;
  57:..\..\..\arduinoLCD\test\Pain Drain\libraries\lvgl\src\core/lv_obj_tree.c ****     bool act_scr_del = false;
  58:..\..\..\arduinoLCD\test\Pain Drain\libraries\lvgl\src\core/lv_obj_tree.c ****     if(par == NULL) {
  59:..\..\..\arduinoLCD\test\Pain Drain\libraries\lvgl\src\core/lv_obj_tree.c ****         disp = lv_obj_get_disp(obj);
  60:..\..\..\arduinoLCD\test\Pain Drain\libraries\lvgl\src\core/lv_obj_tree.c ****         if(!disp) return;   /*Shouldn't happen*/
  61:..\..\..\arduinoLCD\test\Pain Drain\libraries\lvgl\src\core/lv_obj_tree.c ****         if(disp->act_scr == obj) act_scr_del = true;
  62:..\..\..\arduinoLCD\test\Pain Drain\libraries\lvgl\src\core/lv_obj_tree.c ****     }
  63:..\..\..\arduinoLCD\test\Pain Drain\libraries\lvgl\src\core/lv_obj_tree.c **** 
  64:..\..\..\arduinoLCD\test\Pain Drain\libraries\lvgl\src\core/lv_obj_tree.c ****     obj_del_core(obj);
  65:..\..\..\arduinoLCD\test\Pain Drain\libraries\lvgl\src\core/lv_obj_tree.c **** 
  66:..\..\..\arduinoLCD\test\Pain Drain\libraries\lvgl\src\core/lv_obj_tree.c ****     /*Call the ancestor's event handler to the parent to notify it about the child delete*/
  67:..\..\..\arduinoLCD\test\Pain Drain\libraries\lvgl\src\core/lv_obj_tree.c ****     if(par) {
  68:..\..\..\arduinoLCD\test\Pain Drain\libraries\lvgl\src\core/lv_obj_tree.c ****         lv_obj_update_layout(par);
  69:..\..\..\arduinoLCD\test\Pain Drain\libraries\lvgl\src\core/lv_obj_tree.c ****         lv_obj_readjust_scroll(par, LV_ANIM_OFF);
  70:..\..\..\arduinoLCD\test\Pain Drain\libraries\lvgl\src\core/lv_obj_tree.c ****         lv_obj_scrollbar_invalidate(par);
  71:..\..\..\arduinoLCD\test\Pain Drain\libraries\lvgl\src\core/lv_obj_tree.c ****         lv_event_send(par, LV_EVENT_CHILD_CHANGED, NULL);
  72:..\..\..\arduinoLCD\test\Pain Drain\libraries\lvgl\src\core/lv_obj_tree.c ****         lv_event_send(par, LV_EVENT_CHILD_DELETED, NULL);
  73:..\..\..\arduinoLCD\test\Pain Drain\libraries\lvgl\src\core/lv_obj_tree.c ****     }
  74:..\..\..\arduinoLCD\test\Pain Drain\libraries\lvgl\src\core/lv_obj_tree.c **** 
  75:..\..\..\arduinoLCD\test\Pain Drain\libraries\lvgl\src\core/lv_obj_tree.c ****     /*Handle if the active screen was deleted*/
  76:..\..\..\arduinoLCD\test\Pain Drain\libraries\lvgl\src\core/lv_obj_tree.c ****     if(act_scr_del) {
  77:..\..\..\arduinoLCD\test\Pain Drain\libraries\lvgl\src\core/lv_obj_tree.c ****         LV_LOG_WARN("the active screen was deleted");
  78:..\..\..\arduinoLCD\test\Pain Drain\libraries\lvgl\src\core/lv_obj_tree.c ****         disp->act_scr = NULL;
  79:..\..\..\arduinoLCD\test\Pain Drain\libraries\lvgl\src\core/lv_obj_tree.c ****     }
  80:..\..\..\arduinoLCD\test\Pain Drain\libraries\lvgl\src\core/lv_obj_tree.c **** 
  81:..\..\..\arduinoLCD\test\Pain Drain\libraries\lvgl\src\core/lv_obj_tree.c ****     LV_ASSERT_MEM_INTEGRITY();
  82:..\..\..\arduinoLCD\test\Pain Drain\libraries\lvgl\src\core/lv_obj_tree.c ****     LV_LOG_TRACE("finished (delete %p)", (void *)obj);
  83:..\..\..\arduinoLCD\test\Pain Drain\libraries\lvgl\src\core/lv_obj_tree.c **** }
  84:..\..\..\arduinoLCD\test\Pain Drain\libraries\lvgl\src\core/lv_obj_tree.c **** 
  85:..\..\..\arduinoLCD\test\Pain Drain\libraries\lvgl\src\core/lv_obj_tree.c **** void lv_obj_clean(lv_obj_t * obj)
  86:..\..\..\arduinoLCD\test\Pain Drain\libraries\lvgl\src\core/lv_obj_tree.c **** {
ARM GAS  C:\Users\haske\AppData\Local\Temp\ccFGJ08j.s 			page 3


  87:..\..\..\arduinoLCD\test\Pain Drain\libraries\lvgl\src\core/lv_obj_tree.c ****     LV_LOG_TRACE("begin (delete %p)", (void *)obj);
  88:..\..\..\arduinoLCD\test\Pain Drain\libraries\lvgl\src\core/lv_obj_tree.c ****     LV_ASSERT_OBJ(obj, MY_CLASS);
  89:..\..\..\arduinoLCD\test\Pain Drain\libraries\lvgl\src\core/lv_obj_tree.c **** 
  90:..\..\..\arduinoLCD\test\Pain Drain\libraries\lvgl\src\core/lv_obj_tree.c ****     lv_obj_invalidate(obj);
  91:..\..\..\arduinoLCD\test\Pain Drain\libraries\lvgl\src\core/lv_obj_tree.c **** 
  92:..\..\..\arduinoLCD\test\Pain Drain\libraries\lvgl\src\core/lv_obj_tree.c ****     lv_obj_t * child = lv_obj_get_child(obj, 0);
  93:..\..\..\arduinoLCD\test\Pain Drain\libraries\lvgl\src\core/lv_obj_tree.c ****     while(child) {
  94:..\..\..\arduinoLCD\test\Pain Drain\libraries\lvgl\src\core/lv_obj_tree.c ****         obj_del_core(child);
  95:..\..\..\arduinoLCD\test\Pain Drain\libraries\lvgl\src\core/lv_obj_tree.c ****         child = lv_obj_get_child(obj, 0);
  96:..\..\..\arduinoLCD\test\Pain Drain\libraries\lvgl\src\core/lv_obj_tree.c ****     }
  97:..\..\..\arduinoLCD\test\Pain Drain\libraries\lvgl\src\core/lv_obj_tree.c ****     /*Just to remove scroll animations if any*/
  98:..\..\..\arduinoLCD\test\Pain Drain\libraries\lvgl\src\core/lv_obj_tree.c ****     lv_obj_scroll_to(obj, 0, 0, LV_ANIM_OFF);
  99:..\..\..\arduinoLCD\test\Pain Drain\libraries\lvgl\src\core/lv_obj_tree.c ****     if(obj->spec_attr) {
 100:..\..\..\arduinoLCD\test\Pain Drain\libraries\lvgl\src\core/lv_obj_tree.c ****         obj->spec_attr->scroll.x = 0;
 101:..\..\..\arduinoLCD\test\Pain Drain\libraries\lvgl\src\core/lv_obj_tree.c ****         obj->spec_attr->scroll.y = 0;
 102:..\..\..\arduinoLCD\test\Pain Drain\libraries\lvgl\src\core/lv_obj_tree.c ****     }
 103:..\..\..\arduinoLCD\test\Pain Drain\libraries\lvgl\src\core/lv_obj_tree.c **** 
 104:..\..\..\arduinoLCD\test\Pain Drain\libraries\lvgl\src\core/lv_obj_tree.c ****     LV_ASSERT_MEM_INTEGRITY();
 105:..\..\..\arduinoLCD\test\Pain Drain\libraries\lvgl\src\core/lv_obj_tree.c **** 
 106:..\..\..\arduinoLCD\test\Pain Drain\libraries\lvgl\src\core/lv_obj_tree.c ****     LV_LOG_TRACE("finished (delete %p)", (void *)obj);
 107:..\..\..\arduinoLCD\test\Pain Drain\libraries\lvgl\src\core/lv_obj_tree.c **** }
 108:..\..\..\arduinoLCD\test\Pain Drain\libraries\lvgl\src\core/lv_obj_tree.c **** 
 109:..\..\..\arduinoLCD\test\Pain Drain\libraries\lvgl\src\core/lv_obj_tree.c **** void lv_obj_del_delayed(lv_obj_t * obj, uint32_t delay_ms)
 110:..\..\..\arduinoLCD\test\Pain Drain\libraries\lvgl\src\core/lv_obj_tree.c **** {
  29              		.loc 1 110 0
  30              		.cfi_startproc
  31              		@ args = 0, pretend = 0, frame = 72
  32              		@ frame_needed = 0, uses_anonymous_args = 0
  33              	.LVL0:
  34 0000 30B5     		push	{r4, r5, lr}
  35              		.cfi_def_cfa_offset 12
  36              		.cfi_offset 4, -12
  37              		.cfi_offset 5, -8
  38              		.cfi_offset 14, -4
  39 0002 93B0     		sub	sp, sp, #76
  40              		.cfi_def_cfa_offset 88
  41 0004 0546     		mov	r5, r0
  42 0006 0C46     		mov	r4, r1
 111:..\..\..\arduinoLCD\test\Pain Drain\libraries\lvgl\src\core/lv_obj_tree.c ****     lv_anim_t a;
 112:..\..\..\arduinoLCD\test\Pain Drain\libraries\lvgl\src\core/lv_obj_tree.c ****     lv_anim_init(&a);
  43              		.loc 1 112 0
  44 0008 01A8     		add	r0, sp, #4
  45              	.LVL1:
  46 000a FFF7FEFF 		bl	lv_anim_init
  47              	.LVL2:
  48              	.LBB12:
  49              	.LBB13:
  50              		.file 2 "..\\..\\..\\arduinoLCD\\test\\Pain Drain\\libraries\\lvgl\\src\\core\\../misc/lv_anim.h"
   1:..\..\..\arduinoLCD\test\Pain Drain\libraries\lvgl\src\core\../misc/lv_anim.h **** /**
   2:..\..\..\arduinoLCD\test\Pain Drain\libraries\lvgl\src\core\../misc/lv_anim.h ****  * @file lv_anim.h
   3:..\..\..\arduinoLCD\test\Pain Drain\libraries\lvgl\src\core\../misc/lv_anim.h ****  *
   4:..\..\..\arduinoLCD\test\Pain Drain\libraries\lvgl\src\core\../misc/lv_anim.h ****  */
   5:..\..\..\arduinoLCD\test\Pain Drain\libraries\lvgl\src\core\../misc/lv_anim.h **** 
   6:..\..\..\arduinoLCD\test\Pain Drain\libraries\lvgl\src\core\../misc/lv_anim.h **** #ifndef LV_ANIM_H
   7:..\..\..\arduinoLCD\test\Pain Drain\libraries\lvgl\src\core\../misc/lv_anim.h **** #define LV_ANIM_H
   8:..\..\..\arduinoLCD\test\Pain Drain\libraries\lvgl\src\core\../misc/lv_anim.h **** 
   9:..\..\..\arduinoLCD\test\Pain Drain\libraries\lvgl\src\core\../misc/lv_anim.h **** #ifdef __cplusplus
ARM GAS  C:\Users\haske\AppData\Local\Temp\ccFGJ08j.s 			page 4


  10:..\..\..\arduinoLCD\test\Pain Drain\libraries\lvgl\src\core\../misc/lv_anim.h **** extern "C" {
  11:..\..\..\arduinoLCD\test\Pain Drain\libraries\lvgl\src\core\../misc/lv_anim.h **** #endif
  12:..\..\..\arduinoLCD\test\Pain Drain\libraries\lvgl\src\core\../misc/lv_anim.h **** 
  13:..\..\..\arduinoLCD\test\Pain Drain\libraries\lvgl\src\core\../misc/lv_anim.h **** /*********************
  14:..\..\..\arduinoLCD\test\Pain Drain\libraries\lvgl\src\core\../misc/lv_anim.h ****  *      INCLUDES
  15:..\..\..\arduinoLCD\test\Pain Drain\libraries\lvgl\src\core\../misc/lv_anim.h ****  *********************/
  16:..\..\..\arduinoLCD\test\Pain Drain\libraries\lvgl\src\core\../misc/lv_anim.h **** #include "../lv_conf_internal.h"
  17:..\..\..\arduinoLCD\test\Pain Drain\libraries\lvgl\src\core\../misc/lv_anim.h **** 
  18:..\..\..\arduinoLCD\test\Pain Drain\libraries\lvgl\src\core\../misc/lv_anim.h **** #include <stdint.h>
  19:..\..\..\arduinoLCD\test\Pain Drain\libraries\lvgl\src\core\../misc/lv_anim.h **** #include <stdbool.h>
  20:..\..\..\arduinoLCD\test\Pain Drain\libraries\lvgl\src\core\../misc/lv_anim.h **** #include <stddef.h>
  21:..\..\..\arduinoLCD\test\Pain Drain\libraries\lvgl\src\core\../misc/lv_anim.h **** 
  22:..\..\..\arduinoLCD\test\Pain Drain\libraries\lvgl\src\core\../misc/lv_anim.h **** /*********************
  23:..\..\..\arduinoLCD\test\Pain Drain\libraries\lvgl\src\core\../misc/lv_anim.h ****  *      DEFINES
  24:..\..\..\arduinoLCD\test\Pain Drain\libraries\lvgl\src\core\../misc/lv_anim.h ****  *********************/
  25:..\..\..\arduinoLCD\test\Pain Drain\libraries\lvgl\src\core\../misc/lv_anim.h **** 
  26:..\..\..\arduinoLCD\test\Pain Drain\libraries\lvgl\src\core\../misc/lv_anim.h **** #define LV_ANIM_REPEAT_INFINITE      0xFFFF
  27:..\..\..\arduinoLCD\test\Pain Drain\libraries\lvgl\src\core\../misc/lv_anim.h **** #define LV_ANIM_PLAYTIME_INFINITE    0xFFFFFFFF
  28:..\..\..\arduinoLCD\test\Pain Drain\libraries\lvgl\src\core\../misc/lv_anim.h **** 
  29:..\..\..\arduinoLCD\test\Pain Drain\libraries\lvgl\src\core\../misc/lv_anim.h **** LV_EXPORT_CONST_INT(LV_ANIM_REPEAT_INFINITE);
  30:..\..\..\arduinoLCD\test\Pain Drain\libraries\lvgl\src\core\../misc/lv_anim.h **** LV_EXPORT_CONST_INT(LV_ANIM_PLAYTIME_INFINITE);
  31:..\..\..\arduinoLCD\test\Pain Drain\libraries\lvgl\src\core\../misc/lv_anim.h **** 
  32:..\..\..\arduinoLCD\test\Pain Drain\libraries\lvgl\src\core\../misc/lv_anim.h **** /**********************
  33:..\..\..\arduinoLCD\test\Pain Drain\libraries\lvgl\src\core\../misc/lv_anim.h ****  *      TYPEDEFS
  34:..\..\..\arduinoLCD\test\Pain Drain\libraries\lvgl\src\core\../misc/lv_anim.h ****  **********************/
  35:..\..\..\arduinoLCD\test\Pain Drain\libraries\lvgl\src\core\../misc/lv_anim.h **** 
  36:..\..\..\arduinoLCD\test\Pain Drain\libraries\lvgl\src\core\../misc/lv_anim.h **** /** Can be used to indicate if animations are enabled or disabled in a case*/
  37:..\..\..\arduinoLCD\test\Pain Drain\libraries\lvgl\src\core\../misc/lv_anim.h **** typedef enum {
  38:..\..\..\arduinoLCD\test\Pain Drain\libraries\lvgl\src\core\../misc/lv_anim.h ****     LV_ANIM_OFF,
  39:..\..\..\arduinoLCD\test\Pain Drain\libraries\lvgl\src\core\../misc/lv_anim.h ****     LV_ANIM_ON,
  40:..\..\..\arduinoLCD\test\Pain Drain\libraries\lvgl\src\core\../misc/lv_anim.h **** } lv_anim_enable_t;
  41:..\..\..\arduinoLCD\test\Pain Drain\libraries\lvgl\src\core\../misc/lv_anim.h **** 
  42:..\..\..\arduinoLCD\test\Pain Drain\libraries\lvgl\src\core\../misc/lv_anim.h **** struct _lv_anim_t;
  43:..\..\..\arduinoLCD\test\Pain Drain\libraries\lvgl\src\core\../misc/lv_anim.h **** struct _lv_timer_t;
  44:..\..\..\arduinoLCD\test\Pain Drain\libraries\lvgl\src\core\../misc/lv_anim.h **** 
  45:..\..\..\arduinoLCD\test\Pain Drain\libraries\lvgl\src\core\../misc/lv_anim.h **** /** Get the current value during an animation*/
  46:..\..\..\arduinoLCD\test\Pain Drain\libraries\lvgl\src\core\../misc/lv_anim.h **** typedef int32_t (*lv_anim_path_cb_t)(const struct _lv_anim_t *);
  47:..\..\..\arduinoLCD\test\Pain Drain\libraries\lvgl\src\core\../misc/lv_anim.h **** 
  48:..\..\..\arduinoLCD\test\Pain Drain\libraries\lvgl\src\core\../misc/lv_anim.h **** /** Generic prototype of "animator" functions.
  49:..\..\..\arduinoLCD\test\Pain Drain\libraries\lvgl\src\core\../misc/lv_anim.h ****  * First parameter is the variable to animate.
  50:..\..\..\arduinoLCD\test\Pain Drain\libraries\lvgl\src\core\../misc/lv_anim.h ****  * Second parameter is the value to set.
  51:..\..\..\arduinoLCD\test\Pain Drain\libraries\lvgl\src\core\../misc/lv_anim.h ****  * Compatible with `lv_xxx_set_yyy(obj, value)` functions
  52:..\..\..\arduinoLCD\test\Pain Drain\libraries\lvgl\src\core\../misc/lv_anim.h ****  * The `x` in `_xcb_t` means it's not a fully generic prototype because
  53:..\..\..\arduinoLCD\test\Pain Drain\libraries\lvgl\src\core\../misc/lv_anim.h ****  * it doesn't receive `lv_anim_t *` as its first argument*/
  54:..\..\..\arduinoLCD\test\Pain Drain\libraries\lvgl\src\core\../misc/lv_anim.h **** typedef void (*lv_anim_exec_xcb_t)(void *, int32_t);
  55:..\..\..\arduinoLCD\test\Pain Drain\libraries\lvgl\src\core\../misc/lv_anim.h **** 
  56:..\..\..\arduinoLCD\test\Pain Drain\libraries\lvgl\src\core\../misc/lv_anim.h **** /** Same as `lv_anim_exec_xcb_t` but receives `lv_anim_t *` as the first parameter.
  57:..\..\..\arduinoLCD\test\Pain Drain\libraries\lvgl\src\core\../misc/lv_anim.h ****  * It's more consistent but less convenient. Might be used by binding generator functions.*/
  58:..\..\..\arduinoLCD\test\Pain Drain\libraries\lvgl\src\core\../misc/lv_anim.h **** typedef void (*lv_anim_custom_exec_cb_t)(struct _lv_anim_t *, int32_t);
  59:..\..\..\arduinoLCD\test\Pain Drain\libraries\lvgl\src\core\../misc/lv_anim.h **** 
  60:..\..\..\arduinoLCD\test\Pain Drain\libraries\lvgl\src\core\../misc/lv_anim.h **** /** Callback to call when the animation is ready*/
  61:..\..\..\arduinoLCD\test\Pain Drain\libraries\lvgl\src\core\../misc/lv_anim.h **** typedef void (*lv_anim_ready_cb_t)(struct _lv_anim_t *);
  62:..\..\..\arduinoLCD\test\Pain Drain\libraries\lvgl\src\core\../misc/lv_anim.h **** 
  63:..\..\..\arduinoLCD\test\Pain Drain\libraries\lvgl\src\core\../misc/lv_anim.h **** /** Callback to call when the animation really stars (considering `delay`)*/
  64:..\..\..\arduinoLCD\test\Pain Drain\libraries\lvgl\src\core\../misc/lv_anim.h **** typedef void (*lv_anim_start_cb_t)(struct _lv_anim_t *);
  65:..\..\..\arduinoLCD\test\Pain Drain\libraries\lvgl\src\core\../misc/lv_anim.h **** 
  66:..\..\..\arduinoLCD\test\Pain Drain\libraries\lvgl\src\core\../misc/lv_anim.h **** /** Callback used when the animation values are relative to get the current value*/
ARM GAS  C:\Users\haske\AppData\Local\Temp\ccFGJ08j.s 			page 5


  67:..\..\..\arduinoLCD\test\Pain Drain\libraries\lvgl\src\core\../misc/lv_anim.h **** typedef int32_t (*lv_anim_get_value_cb_t)(struct _lv_anim_t *);
  68:..\..\..\arduinoLCD\test\Pain Drain\libraries\lvgl\src\core\../misc/lv_anim.h **** 
  69:..\..\..\arduinoLCD\test\Pain Drain\libraries\lvgl\src\core\../misc/lv_anim.h **** /** Callback used when the animation is deleted*/
  70:..\..\..\arduinoLCD\test\Pain Drain\libraries\lvgl\src\core\../misc/lv_anim.h **** typedef void (*lv_anim_deleted_cb_t)(struct _lv_anim_t *);
  71:..\..\..\arduinoLCD\test\Pain Drain\libraries\lvgl\src\core\../misc/lv_anim.h **** 
  72:..\..\..\arduinoLCD\test\Pain Drain\libraries\lvgl\src\core\../misc/lv_anim.h **** /** Describes an animation*/
  73:..\..\..\arduinoLCD\test\Pain Drain\libraries\lvgl\src\core\../misc/lv_anim.h **** typedef struct _lv_anim_t {
  74:..\..\..\arduinoLCD\test\Pain Drain\libraries\lvgl\src\core\../misc/lv_anim.h ****     void * var;                          /**<Variable to animate*/
  75:..\..\..\arduinoLCD\test\Pain Drain\libraries\lvgl\src\core\../misc/lv_anim.h ****     lv_anim_exec_xcb_t exec_cb;          /**< Function to execute to animate*/
  76:..\..\..\arduinoLCD\test\Pain Drain\libraries\lvgl\src\core\../misc/lv_anim.h ****     lv_anim_start_cb_t start_cb;         /**< Call it when the animation is starts (considering `de
  77:..\..\..\arduinoLCD\test\Pain Drain\libraries\lvgl\src\core\../misc/lv_anim.h ****     lv_anim_ready_cb_t ready_cb;         /**< Call it when the animation is ready*/
  78:..\..\..\arduinoLCD\test\Pain Drain\libraries\lvgl\src\core\../misc/lv_anim.h ****     lv_anim_deleted_cb_t deleted_cb;     /**< Call it when the animation is deleted*/
  79:..\..\..\arduinoLCD\test\Pain Drain\libraries\lvgl\src\core\../misc/lv_anim.h ****     lv_anim_get_value_cb_t get_value_cb; /**< Get the current value in relative mode*/
  80:..\..\..\arduinoLCD\test\Pain Drain\libraries\lvgl\src\core\../misc/lv_anim.h **** #if LV_USE_USER_DATA
  81:..\..\..\arduinoLCD\test\Pain Drain\libraries\lvgl\src\core\../misc/lv_anim.h ****     void * user_data; /**< Custom user data*/
  82:..\..\..\arduinoLCD\test\Pain Drain\libraries\lvgl\src\core\../misc/lv_anim.h **** #endif
  83:..\..\..\arduinoLCD\test\Pain Drain\libraries\lvgl\src\core\../misc/lv_anim.h ****     lv_anim_path_cb_t path_cb;         /**< Describe the path (curve) of animations*/
  84:..\..\..\arduinoLCD\test\Pain Drain\libraries\lvgl\src\core\../misc/lv_anim.h ****     int32_t start_value;               /**< Start value*/
  85:..\..\..\arduinoLCD\test\Pain Drain\libraries\lvgl\src\core\../misc/lv_anim.h ****     int32_t current_value;             /**< Current value*/
  86:..\..\..\arduinoLCD\test\Pain Drain\libraries\lvgl\src\core\../misc/lv_anim.h ****     int32_t end_value;                 /**< End value*/
  87:..\..\..\arduinoLCD\test\Pain Drain\libraries\lvgl\src\core\../misc/lv_anim.h ****     int32_t time;                /**< Animation time in ms*/
  88:..\..\..\arduinoLCD\test\Pain Drain\libraries\lvgl\src\core\../misc/lv_anim.h ****     int32_t act_time;            /**< Current time in animation. Set to negative to make delay.*/
  89:..\..\..\arduinoLCD\test\Pain Drain\libraries\lvgl\src\core\../misc/lv_anim.h ****     uint32_t playback_delay;     /**< Wait before play back*/
  90:..\..\..\arduinoLCD\test\Pain Drain\libraries\lvgl\src\core\../misc/lv_anim.h ****     uint32_t playback_time;      /**< Duration of playback animation*/
  91:..\..\..\arduinoLCD\test\Pain Drain\libraries\lvgl\src\core\../misc/lv_anim.h ****     uint32_t repeat_delay;       /**< Wait before repeat*/
  92:..\..\..\arduinoLCD\test\Pain Drain\libraries\lvgl\src\core\../misc/lv_anim.h ****     uint16_t repeat_cnt;         /**< Repeat count for the animation*/
  93:..\..\..\arduinoLCD\test\Pain Drain\libraries\lvgl\src\core\../misc/lv_anim.h ****     uint8_t early_apply  : 1;    /**< 1: Apply start value immediately even is there is `delay`*/
  94:..\..\..\arduinoLCD\test\Pain Drain\libraries\lvgl\src\core\../misc/lv_anim.h **** 
  95:..\..\..\arduinoLCD\test\Pain Drain\libraries\lvgl\src\core\../misc/lv_anim.h ****     /*Animation system use these - user shouldn't set*/
  96:..\..\..\arduinoLCD\test\Pain Drain\libraries\lvgl\src\core\../misc/lv_anim.h ****     uint8_t playback_now : 1; /**< Play back is in progress*/
  97:..\..\..\arduinoLCD\test\Pain Drain\libraries\lvgl\src\core\../misc/lv_anim.h ****     uint8_t run_round : 1;    /**< Indicates the animation has run in this round*/
  98:..\..\..\arduinoLCD\test\Pain Drain\libraries\lvgl\src\core\../misc/lv_anim.h ****     uint8_t start_cb_called : 1;    /**< Indicates that the `start_cb` was already called*/
  99:..\..\..\arduinoLCD\test\Pain Drain\libraries\lvgl\src\core\../misc/lv_anim.h **** } lv_anim_t;
 100:..\..\..\arduinoLCD\test\Pain Drain\libraries\lvgl\src\core\../misc/lv_anim.h **** 
 101:..\..\..\arduinoLCD\test\Pain Drain\libraries\lvgl\src\core\../misc/lv_anim.h **** /**********************
 102:..\..\..\arduinoLCD\test\Pain Drain\libraries\lvgl\src\core\../misc/lv_anim.h ****  * GLOBAL PROTOTYPES
 103:..\..\..\arduinoLCD\test\Pain Drain\libraries\lvgl\src\core\../misc/lv_anim.h ****  **********************/
 104:..\..\..\arduinoLCD\test\Pain Drain\libraries\lvgl\src\core\../misc/lv_anim.h **** 
 105:..\..\..\arduinoLCD\test\Pain Drain\libraries\lvgl\src\core\../misc/lv_anim.h **** /**
 106:..\..\..\arduinoLCD\test\Pain Drain\libraries\lvgl\src\core\../misc/lv_anim.h ****  * Init. the animation module
 107:..\..\..\arduinoLCD\test\Pain Drain\libraries\lvgl\src\core\../misc/lv_anim.h ****  */
 108:..\..\..\arduinoLCD\test\Pain Drain\libraries\lvgl\src\core\../misc/lv_anim.h **** void _lv_anim_core_init(void);
 109:..\..\..\arduinoLCD\test\Pain Drain\libraries\lvgl\src\core\../misc/lv_anim.h **** 
 110:..\..\..\arduinoLCD\test\Pain Drain\libraries\lvgl\src\core\../misc/lv_anim.h **** /**
 111:..\..\..\arduinoLCD\test\Pain Drain\libraries\lvgl\src\core\../misc/lv_anim.h ****  * Initialize an animation variable.
 112:..\..\..\arduinoLCD\test\Pain Drain\libraries\lvgl\src\core\../misc/lv_anim.h ****  * E.g.:
 113:..\..\..\arduinoLCD\test\Pain Drain\libraries\lvgl\src\core\../misc/lv_anim.h ****  * lv_anim_t a;
 114:..\..\..\arduinoLCD\test\Pain Drain\libraries\lvgl\src\core\../misc/lv_anim.h ****  * lv_anim_init(&a);
 115:..\..\..\arduinoLCD\test\Pain Drain\libraries\lvgl\src\core\../misc/lv_anim.h ****  * lv_anim_set_...(&a);
 116:..\..\..\arduinoLCD\test\Pain Drain\libraries\lvgl\src\core\../misc/lv_anim.h ****  * lv_anim_start(&a);
 117:..\..\..\arduinoLCD\test\Pain Drain\libraries\lvgl\src\core\../misc/lv_anim.h ****  * @param a     pointer to an `lv_anim_t` variable to initialize
 118:..\..\..\arduinoLCD\test\Pain Drain\libraries\lvgl\src\core\../misc/lv_anim.h ****  */
 119:..\..\..\arduinoLCD\test\Pain Drain\libraries\lvgl\src\core\../misc/lv_anim.h **** void lv_anim_init(lv_anim_t * a);
 120:..\..\..\arduinoLCD\test\Pain Drain\libraries\lvgl\src\core\../misc/lv_anim.h **** 
 121:..\..\..\arduinoLCD\test\Pain Drain\libraries\lvgl\src\core\../misc/lv_anim.h **** /**
 122:..\..\..\arduinoLCD\test\Pain Drain\libraries\lvgl\src\core\../misc/lv_anim.h ****  * Set a variable to animate
 123:..\..\..\arduinoLCD\test\Pain Drain\libraries\lvgl\src\core\../misc/lv_anim.h ****  * @param a     pointer to an initialized `lv_anim_t` variable
ARM GAS  C:\Users\haske\AppData\Local\Temp\ccFGJ08j.s 			page 6


 124:..\..\..\arduinoLCD\test\Pain Drain\libraries\lvgl\src\core\../misc/lv_anim.h ****  * @param var   pointer to a variable to animate
 125:..\..\..\arduinoLCD\test\Pain Drain\libraries\lvgl\src\core\../misc/lv_anim.h ****  */
 126:..\..\..\arduinoLCD\test\Pain Drain\libraries\lvgl\src\core\../misc/lv_anim.h **** static inline void lv_anim_set_var(lv_anim_t * a, void * var)
 127:..\..\..\arduinoLCD\test\Pain Drain\libraries\lvgl\src\core\../misc/lv_anim.h **** {
 128:..\..\..\arduinoLCD\test\Pain Drain\libraries\lvgl\src\core\../misc/lv_anim.h ****     a->var = var;
  51              		.loc 2 128 0
  52 000e 0195     		str	r5, [sp, #4]
  53              	.LVL3:
  54              	.LBE13:
  55              	.LBE12:
  56              	.LBB14:
  57              	.LBB15:
 129:..\..\..\arduinoLCD\test\Pain Drain\libraries\lvgl\src\core\../misc/lv_anim.h **** }
 130:..\..\..\arduinoLCD\test\Pain Drain\libraries\lvgl\src\core\../misc/lv_anim.h **** 
 131:..\..\..\arduinoLCD\test\Pain Drain\libraries\lvgl\src\core\../misc/lv_anim.h **** /**
 132:..\..\..\arduinoLCD\test\Pain Drain\libraries\lvgl\src\core\../misc/lv_anim.h ****  * Set a function to animate `var`
 133:..\..\..\arduinoLCD\test\Pain Drain\libraries\lvgl\src\core\../misc/lv_anim.h ****  * @param a         pointer to an initialized `lv_anim_t` variable
 134:..\..\..\arduinoLCD\test\Pain Drain\libraries\lvgl\src\core\../misc/lv_anim.h ****  * @param exec_cb   a function to execute during animation
 135:..\..\..\arduinoLCD\test\Pain Drain\libraries\lvgl\src\core\../misc/lv_anim.h ****  *                  LVGL's built-in functions can be used.
 136:..\..\..\arduinoLCD\test\Pain Drain\libraries\lvgl\src\core\../misc/lv_anim.h ****  *                  E.g. lv_obj_set_x
 137:..\..\..\arduinoLCD\test\Pain Drain\libraries\lvgl\src\core\../misc/lv_anim.h ****  */
 138:..\..\..\arduinoLCD\test\Pain Drain\libraries\lvgl\src\core\../misc/lv_anim.h **** static inline void lv_anim_set_exec_cb(lv_anim_t * a, lv_anim_exec_xcb_t exec_cb)
 139:..\..\..\arduinoLCD\test\Pain Drain\libraries\lvgl\src\core\../misc/lv_anim.h **** {
 140:..\..\..\arduinoLCD\test\Pain Drain\libraries\lvgl\src\core\../misc/lv_anim.h ****     a->exec_cb = exec_cb;
  58              		.loc 2 140 0
  59 0010 0023     		movs	r3, #0
  60 0012 0293     		str	r3, [sp, #8]
  61              	.LVL4:
  62              	.LBE15:
  63              	.LBE14:
  64              	.LBB16:
  65              	.LBB17:
 141:..\..\..\arduinoLCD\test\Pain Drain\libraries\lvgl\src\core\../misc/lv_anim.h **** }
 142:..\..\..\arduinoLCD\test\Pain Drain\libraries\lvgl\src\core\../misc/lv_anim.h **** 
 143:..\..\..\arduinoLCD\test\Pain Drain\libraries\lvgl\src\core\../misc/lv_anim.h **** /**
 144:..\..\..\arduinoLCD\test\Pain Drain\libraries\lvgl\src\core\../misc/lv_anim.h ****  * Set the duration of an animation
 145:..\..\..\arduinoLCD\test\Pain Drain\libraries\lvgl\src\core\../misc/lv_anim.h ****  * @param a         pointer to an initialized `lv_anim_t` variable
 146:..\..\..\arduinoLCD\test\Pain Drain\libraries\lvgl\src\core\../misc/lv_anim.h ****  * @param duration  duration of the animation in milliseconds
 147:..\..\..\arduinoLCD\test\Pain Drain\libraries\lvgl\src\core\../misc/lv_anim.h ****  */
 148:..\..\..\arduinoLCD\test\Pain Drain\libraries\lvgl\src\core\../misc/lv_anim.h **** static inline void lv_anim_set_time(lv_anim_t * a, uint32_t duration)
 149:..\..\..\arduinoLCD\test\Pain Drain\libraries\lvgl\src\core\../misc/lv_anim.h **** {
 150:..\..\..\arduinoLCD\test\Pain Drain\libraries\lvgl\src\core\../misc/lv_anim.h ****     a->time = duration;
  66              		.loc 2 150 0
  67 0014 0123     		movs	r3, #1
  68 0016 0C93     		str	r3, [sp, #48]
  69              	.LVL5:
  70              	.LBE17:
  71              	.LBE16:
  72              	.LBB18:
  73              	.LBB19:
 151:..\..\..\arduinoLCD\test\Pain Drain\libraries\lvgl\src\core\../misc/lv_anim.h **** }
 152:..\..\..\arduinoLCD\test\Pain Drain\libraries\lvgl\src\core\../misc/lv_anim.h **** 
 153:..\..\..\arduinoLCD\test\Pain Drain\libraries\lvgl\src\core\../misc/lv_anim.h **** /**
 154:..\..\..\arduinoLCD\test\Pain Drain\libraries\lvgl\src\core\../misc/lv_anim.h ****  * Set a delay before starting the animation
 155:..\..\..\arduinoLCD\test\Pain Drain\libraries\lvgl\src\core\../misc/lv_anim.h ****  * @param a         pointer to an initialized `lv_anim_t` variable
 156:..\..\..\arduinoLCD\test\Pain Drain\libraries\lvgl\src\core\../misc/lv_anim.h ****  * @param delay     delay before the animation in milliseconds
 157:..\..\..\arduinoLCD\test\Pain Drain\libraries\lvgl\src\core\../misc/lv_anim.h ****  */
ARM GAS  C:\Users\haske\AppData\Local\Temp\ccFGJ08j.s 			page 7


 158:..\..\..\arduinoLCD\test\Pain Drain\libraries\lvgl\src\core\../misc/lv_anim.h **** static inline void lv_anim_set_delay(lv_anim_t * a, uint32_t delay)
 159:..\..\..\arduinoLCD\test\Pain Drain\libraries\lvgl\src\core\../misc/lv_anim.h **** {
 160:..\..\..\arduinoLCD\test\Pain Drain\libraries\lvgl\src\core\../misc/lv_anim.h ****     a->act_time = -(int32_t)(delay);
  74              		.loc 2 160 0
  75 0018 6442     		negs	r4, r4
  76              	.LVL6:
  77 001a 0D94     		str	r4, [sp, #52]
  78              	.LVL7:
  79              	.LBE19:
  80              	.LBE18:
  81              	.LBB20:
  82              	.LBB21:
 161:..\..\..\arduinoLCD\test\Pain Drain\libraries\lvgl\src\core\../misc/lv_anim.h **** }
 162:..\..\..\arduinoLCD\test\Pain Drain\libraries\lvgl\src\core\../misc/lv_anim.h **** 
 163:..\..\..\arduinoLCD\test\Pain Drain\libraries\lvgl\src\core\../misc/lv_anim.h **** /**
 164:..\..\..\arduinoLCD\test\Pain Drain\libraries\lvgl\src\core\../misc/lv_anim.h ****  * Set the start and end values of an animation
 165:..\..\..\arduinoLCD\test\Pain Drain\libraries\lvgl\src\core\../misc/lv_anim.h ****  * @param a         pointer to an initialized `lv_anim_t` variable
 166:..\..\..\arduinoLCD\test\Pain Drain\libraries\lvgl\src\core\../misc/lv_anim.h ****  * @param start     the start value
 167:..\..\..\arduinoLCD\test\Pain Drain\libraries\lvgl\src\core\../misc/lv_anim.h ****  * @param end       the end value
 168:..\..\..\arduinoLCD\test\Pain Drain\libraries\lvgl\src\core\../misc/lv_anim.h ****  */
 169:..\..\..\arduinoLCD\test\Pain Drain\libraries\lvgl\src\core\../misc/lv_anim.h **** static inline void lv_anim_set_values(lv_anim_t * a, int32_t start, int32_t end)
 170:..\..\..\arduinoLCD\test\Pain Drain\libraries\lvgl\src\core\../misc/lv_anim.h **** {
 171:..\..\..\arduinoLCD\test\Pain Drain\libraries\lvgl\src\core\../misc/lv_anim.h ****     a->start_value = start;
 172:..\..\..\arduinoLCD\test\Pain Drain\libraries\lvgl\src\core\../misc/lv_anim.h ****     a->current_value = start;
 173:..\..\..\arduinoLCD\test\Pain Drain\libraries\lvgl\src\core\../misc/lv_anim.h ****     a->end_value = end;
 174:..\..\..\arduinoLCD\test\Pain Drain\libraries\lvgl\src\core\../misc/lv_anim.h **** }
 175:..\..\..\arduinoLCD\test\Pain Drain\libraries\lvgl\src\core\../misc/lv_anim.h **** 
 176:..\..\..\arduinoLCD\test\Pain Drain\libraries\lvgl\src\core\../misc/lv_anim.h **** /**
 177:..\..\..\arduinoLCD\test\Pain Drain\libraries\lvgl\src\core\../misc/lv_anim.h ****  * Similar to `lv_anim_set_exec_cb` but `lv_anim_custom_exec_cb_t` receives
 178:..\..\..\arduinoLCD\test\Pain Drain\libraries\lvgl\src\core\../misc/lv_anim.h ****  * `lv_anim_t * ` as its first parameter instead of `void *`.
 179:..\..\..\arduinoLCD\test\Pain Drain\libraries\lvgl\src\core\../misc/lv_anim.h ****  * This function might be used when LVGL is bound to other languages because
 180:..\..\..\arduinoLCD\test\Pain Drain\libraries\lvgl\src\core\../misc/lv_anim.h ****  * it's more consistent to have `lv_anim_t *` as first parameter.
 181:..\..\..\arduinoLCD\test\Pain Drain\libraries\lvgl\src\core\../misc/lv_anim.h ****  * The variable to animate can be stored in the animation's `user_data`
 182:..\..\..\arduinoLCD\test\Pain Drain\libraries\lvgl\src\core\../misc/lv_anim.h ****  * @param a         pointer to an initialized `lv_anim_t` variable
 183:..\..\..\arduinoLCD\test\Pain Drain\libraries\lvgl\src\core\../misc/lv_anim.h ****  * @param exec_cb   a function to execute.
 184:..\..\..\arduinoLCD\test\Pain Drain\libraries\lvgl\src\core\../misc/lv_anim.h ****  */
 185:..\..\..\arduinoLCD\test\Pain Drain\libraries\lvgl\src\core\../misc/lv_anim.h **** static inline void lv_anim_set_custom_exec_cb(lv_anim_t * a, lv_anim_custom_exec_cb_t exec_cb)
 186:..\..\..\arduinoLCD\test\Pain Drain\libraries\lvgl\src\core\../misc/lv_anim.h **** {
 187:..\..\..\arduinoLCD\test\Pain Drain\libraries\lvgl\src\core\../misc/lv_anim.h ****     a->var     = a;
 188:..\..\..\arduinoLCD\test\Pain Drain\libraries\lvgl\src\core\../misc/lv_anim.h ****     a->exec_cb = (lv_anim_exec_xcb_t)exec_cb;
 189:..\..\..\arduinoLCD\test\Pain Drain\libraries\lvgl\src\core\../misc/lv_anim.h **** }
 190:..\..\..\arduinoLCD\test\Pain Drain\libraries\lvgl\src\core\../misc/lv_anim.h **** 
 191:..\..\..\arduinoLCD\test\Pain Drain\libraries\lvgl\src\core\../misc/lv_anim.h **** /**
 192:..\..\..\arduinoLCD\test\Pain Drain\libraries\lvgl\src\core\../misc/lv_anim.h ****  * Set the path (curve) of the animation.
 193:..\..\..\arduinoLCD\test\Pain Drain\libraries\lvgl\src\core\../misc/lv_anim.h ****  * @param a         pointer to an initialized `lv_anim_t` variable
 194:..\..\..\arduinoLCD\test\Pain Drain\libraries\lvgl\src\core\../misc/lv_anim.h ****  * @param path_cb a function to set the current value of the animation.
 195:..\..\..\arduinoLCD\test\Pain Drain\libraries\lvgl\src\core\../misc/lv_anim.h ****  */
 196:..\..\..\arduinoLCD\test\Pain Drain\libraries\lvgl\src\core\../misc/lv_anim.h **** static inline void lv_anim_set_path_cb(lv_anim_t * a, lv_anim_path_cb_t path_cb)
 197:..\..\..\arduinoLCD\test\Pain Drain\libraries\lvgl\src\core\../misc/lv_anim.h **** {
 198:..\..\..\arduinoLCD\test\Pain Drain\libraries\lvgl\src\core\../misc/lv_anim.h ****     a->path_cb = path_cb;
 199:..\..\..\arduinoLCD\test\Pain Drain\libraries\lvgl\src\core\../misc/lv_anim.h **** }
 200:..\..\..\arduinoLCD\test\Pain Drain\libraries\lvgl\src\core\../misc/lv_anim.h **** 
 201:..\..\..\arduinoLCD\test\Pain Drain\libraries\lvgl\src\core\../misc/lv_anim.h **** /**
 202:..\..\..\arduinoLCD\test\Pain Drain\libraries\lvgl\src\core\../misc/lv_anim.h ****  * Set a function call when the animation really starts (considering `delay`)
 203:..\..\..\arduinoLCD\test\Pain Drain\libraries\lvgl\src\core\../misc/lv_anim.h ****  * @param a         pointer to an initialized `lv_anim_t` variable
 204:..\..\..\arduinoLCD\test\Pain Drain\libraries\lvgl\src\core\../misc/lv_anim.h ****  * @param start_cb  a function call when the animation starts
 205:..\..\..\arduinoLCD\test\Pain Drain\libraries\lvgl\src\core\../misc/lv_anim.h ****  */
ARM GAS  C:\Users\haske\AppData\Local\Temp\ccFGJ08j.s 			page 8


 206:..\..\..\arduinoLCD\test\Pain Drain\libraries\lvgl\src\core\../misc/lv_anim.h **** static inline void lv_anim_set_start_cb(lv_anim_t * a, lv_anim_start_cb_t start_cb)
 207:..\..\..\arduinoLCD\test\Pain Drain\libraries\lvgl\src\core\../misc/lv_anim.h **** {
 208:..\..\..\arduinoLCD\test\Pain Drain\libraries\lvgl\src\core\../misc/lv_anim.h ****     a->start_cb = start_cb;
 209:..\..\..\arduinoLCD\test\Pain Drain\libraries\lvgl\src\core\../misc/lv_anim.h **** }
 210:..\..\..\arduinoLCD\test\Pain Drain\libraries\lvgl\src\core\../misc/lv_anim.h **** 
 211:..\..\..\arduinoLCD\test\Pain Drain\libraries\lvgl\src\core\../misc/lv_anim.h **** /**
 212:..\..\..\arduinoLCD\test\Pain Drain\libraries\lvgl\src\core\../misc/lv_anim.h ****  * Set a function to use the current value of the variable and make start and end value
 213:..\..\..\arduinoLCD\test\Pain Drain\libraries\lvgl\src\core\../misc/lv_anim.h ****  * relative to the returned current value.
 214:..\..\..\arduinoLCD\test\Pain Drain\libraries\lvgl\src\core\../misc/lv_anim.h ****  * @param a             pointer to an initialized `lv_anim_t` variable
 215:..\..\..\arduinoLCD\test\Pain Drain\libraries\lvgl\src\core\../misc/lv_anim.h ****  * @param get_value_cb  a function call when the animation starts
 216:..\..\..\arduinoLCD\test\Pain Drain\libraries\lvgl\src\core\../misc/lv_anim.h ****  */
 217:..\..\..\arduinoLCD\test\Pain Drain\libraries\lvgl\src\core\../misc/lv_anim.h **** static inline void lv_anim_set_get_value_cb(lv_anim_t * a, lv_anim_get_value_cb_t get_value_cb)
 218:..\..\..\arduinoLCD\test\Pain Drain\libraries\lvgl\src\core\../misc/lv_anim.h **** {
 219:..\..\..\arduinoLCD\test\Pain Drain\libraries\lvgl\src\core\../misc/lv_anim.h ****     a->get_value_cb = get_value_cb;
 220:..\..\..\arduinoLCD\test\Pain Drain\libraries\lvgl\src\core\../misc/lv_anim.h **** }
 221:..\..\..\arduinoLCD\test\Pain Drain\libraries\lvgl\src\core\../misc/lv_anim.h **** 
 222:..\..\..\arduinoLCD\test\Pain Drain\libraries\lvgl\src\core\../misc/lv_anim.h **** /**
 223:..\..\..\arduinoLCD\test\Pain Drain\libraries\lvgl\src\core\../misc/lv_anim.h ****  * Set a function call when the animation is ready
 224:..\..\..\arduinoLCD\test\Pain Drain\libraries\lvgl\src\core\../misc/lv_anim.h ****  * @param a         pointer to an initialized `lv_anim_t` variable
 225:..\..\..\arduinoLCD\test\Pain Drain\libraries\lvgl\src\core\../misc/lv_anim.h ****  * @param ready_cb  a function call when the animation is ready
 226:..\..\..\arduinoLCD\test\Pain Drain\libraries\lvgl\src\core\../misc/lv_anim.h ****  */
 227:..\..\..\arduinoLCD\test\Pain Drain\libraries\lvgl\src\core\../misc/lv_anim.h **** static inline void lv_anim_set_ready_cb(lv_anim_t * a, lv_anim_ready_cb_t ready_cb)
 228:..\..\..\arduinoLCD\test\Pain Drain\libraries\lvgl\src\core\../misc/lv_anim.h **** {
 229:..\..\..\arduinoLCD\test\Pain Drain\libraries\lvgl\src\core\../misc/lv_anim.h ****     a->ready_cb = ready_cb;
  83              		.loc 2 229 0
  84 001c 034B     		ldr	r3, .L3
  85 001e 0493     		str	r3, [sp, #16]
  86              	.LVL8:
  87              	.LBE21:
  88              	.LBE20:
 113:..\..\..\arduinoLCD\test\Pain Drain\libraries\lvgl\src\core/lv_obj_tree.c ****     lv_anim_set_var(&a, obj);
 114:..\..\..\arduinoLCD\test\Pain Drain\libraries\lvgl\src\core/lv_obj_tree.c ****     lv_anim_set_exec_cb(&a, NULL);
 115:..\..\..\arduinoLCD\test\Pain Drain\libraries\lvgl\src\core/lv_obj_tree.c ****     lv_anim_set_time(&a, 1);
 116:..\..\..\arduinoLCD\test\Pain Drain\libraries\lvgl\src\core/lv_obj_tree.c ****     lv_anim_set_delay(&a, delay_ms);
 117:..\..\..\arduinoLCD\test\Pain Drain\libraries\lvgl\src\core/lv_obj_tree.c ****     lv_anim_set_ready_cb(&a, lv_obj_del_anim_ready_cb);
 118:..\..\..\arduinoLCD\test\Pain Drain\libraries\lvgl\src\core/lv_obj_tree.c ****     lv_anim_start(&a);
  89              		.loc 1 118 0
  90 0020 01A8     		add	r0, sp, #4
  91 0022 FFF7FEFF 		bl	lv_anim_start
  92              	.LVL9:
 119:..\..\..\arduinoLCD\test\Pain Drain\libraries\lvgl\src\core/lv_obj_tree.c **** }
  93              		.loc 1 119 0
  94 0026 13B0     		add	sp, sp, #76
  95              		.cfi_def_cfa_offset 12
  96              		@ sp needed
  97 0028 30BD     		pop	{r4, r5, pc}
  98              	.LVL10:
  99              	.L4:
 100 002a 00BF     		.align	2
 101              	.L3:
 102 002c 00000000 		.word	lv_obj_del_anim_ready_cb
 103              		.cfi_endproc
 104              	.LFE161:
 105              		.size	lv_obj_del_delayed, .-lv_obj_del_delayed
 106              		.section	.text.lv_obj_del_async,"ax",%progbits
 107              		.align	2
 108              		.global	lv_obj_del_async
ARM GAS  C:\Users\haske\AppData\Local\Temp\ccFGJ08j.s 			page 9


 109              		.thumb
 110              		.thumb_func
 111              		.type	lv_obj_del_async, %function
 112              	lv_obj_del_async:
 113              	.LFB163:
 120:..\..\..\arduinoLCD\test\Pain Drain\libraries\lvgl\src\core/lv_obj_tree.c **** 
 121:..\..\..\arduinoLCD\test\Pain Drain\libraries\lvgl\src\core/lv_obj_tree.c **** void lv_obj_del_anim_ready_cb(lv_anim_t * a)
 122:..\..\..\arduinoLCD\test\Pain Drain\libraries\lvgl\src\core/lv_obj_tree.c **** {
 123:..\..\..\arduinoLCD\test\Pain Drain\libraries\lvgl\src\core/lv_obj_tree.c ****     lv_obj_del(a->var);
 124:..\..\..\arduinoLCD\test\Pain Drain\libraries\lvgl\src\core/lv_obj_tree.c **** }
 125:..\..\..\arduinoLCD\test\Pain Drain\libraries\lvgl\src\core/lv_obj_tree.c **** 
 126:..\..\..\arduinoLCD\test\Pain Drain\libraries\lvgl\src\core/lv_obj_tree.c **** void lv_obj_del_async(lv_obj_t * obj)
 127:..\..\..\arduinoLCD\test\Pain Drain\libraries\lvgl\src\core/lv_obj_tree.c **** {
 114              		.loc 1 127 0
 115              		.cfi_startproc
 116              		@ args = 0, pretend = 0, frame = 0
 117              		@ frame_needed = 0, uses_anonymous_args = 0
 118              	.LVL11:
 119 0000 08B5     		push	{r3, lr}
 120              		.cfi_def_cfa_offset 8
 121              		.cfi_offset 3, -8
 122              		.cfi_offset 14, -4
 128:..\..\..\arduinoLCD\test\Pain Drain\libraries\lvgl\src\core/lv_obj_tree.c ****     LV_ASSERT_OBJ(obj, MY_CLASS);
 129:..\..\..\arduinoLCD\test\Pain Drain\libraries\lvgl\src\core/lv_obj_tree.c ****     lv_async_call(lv_obj_del_async_cb, obj);
 123              		.loc 1 129 0
 124 0002 0146     		mov	r1, r0
 125 0004 0148     		ldr	r0, .L7
 126              	.LVL12:
 127 0006 FFF7FEFF 		bl	lv_async_call
 128              	.LVL13:
 129 000a 08BD     		pop	{r3, pc}
 130              	.L8:
 131              		.align	2
 132              	.L7:
 133 000c 00000000 		.word	lv_obj_del_async_cb
 134              		.cfi_endproc
 135              	.LFE163:
 136              		.size	lv_obj_del_async, .-lv_obj_del_async
 137              		.section	.text.lv_obj_get_parent,"ax",%progbits
 138              		.align	2
 139              		.global	lv_obj_get_parent
 140              		.thumb
 141              		.thumb_func
 142              		.type	lv_obj_get_parent, %function
 143              	lv_obj_get_parent:
 144              	.LFB169:
 130:..\..\..\arduinoLCD\test\Pain Drain\libraries\lvgl\src\core/lv_obj_tree.c **** }
 131:..\..\..\arduinoLCD\test\Pain Drain\libraries\lvgl\src\core/lv_obj_tree.c **** 
 132:..\..\..\arduinoLCD\test\Pain Drain\libraries\lvgl\src\core/lv_obj_tree.c **** void lv_obj_set_parent(lv_obj_t * obj, lv_obj_t * parent)
 133:..\..\..\arduinoLCD\test\Pain Drain\libraries\lvgl\src\core/lv_obj_tree.c **** {
 134:..\..\..\arduinoLCD\test\Pain Drain\libraries\lvgl\src\core/lv_obj_tree.c ****     LV_ASSERT_OBJ(obj, MY_CLASS);
 135:..\..\..\arduinoLCD\test\Pain Drain\libraries\lvgl\src\core/lv_obj_tree.c ****     LV_ASSERT_OBJ(parent, MY_CLASS);
 136:..\..\..\arduinoLCD\test\Pain Drain\libraries\lvgl\src\core/lv_obj_tree.c **** 
 137:..\..\..\arduinoLCD\test\Pain Drain\libraries\lvgl\src\core/lv_obj_tree.c ****     if(obj->parent == NULL) {
 138:..\..\..\arduinoLCD\test\Pain Drain\libraries\lvgl\src\core/lv_obj_tree.c ****         LV_LOG_WARN("Can't set the parent of a screen");
 139:..\..\..\arduinoLCD\test\Pain Drain\libraries\lvgl\src\core/lv_obj_tree.c ****         return;
 140:..\..\..\arduinoLCD\test\Pain Drain\libraries\lvgl\src\core/lv_obj_tree.c ****     }
ARM GAS  C:\Users\haske\AppData\Local\Temp\ccFGJ08j.s 			page 10


 141:..\..\..\arduinoLCD\test\Pain Drain\libraries\lvgl\src\core/lv_obj_tree.c **** 
 142:..\..\..\arduinoLCD\test\Pain Drain\libraries\lvgl\src\core/lv_obj_tree.c ****     if(parent == NULL) {
 143:..\..\..\arduinoLCD\test\Pain Drain\libraries\lvgl\src\core/lv_obj_tree.c ****         LV_LOG_WARN("Can't set parent == NULL to an object");
 144:..\..\..\arduinoLCD\test\Pain Drain\libraries\lvgl\src\core/lv_obj_tree.c ****         return;
 145:..\..\..\arduinoLCD\test\Pain Drain\libraries\lvgl\src\core/lv_obj_tree.c ****     }
 146:..\..\..\arduinoLCD\test\Pain Drain\libraries\lvgl\src\core/lv_obj_tree.c **** 
 147:..\..\..\arduinoLCD\test\Pain Drain\libraries\lvgl\src\core/lv_obj_tree.c ****     lv_obj_invalidate(obj);
 148:..\..\..\arduinoLCD\test\Pain Drain\libraries\lvgl\src\core/lv_obj_tree.c **** 
 149:..\..\..\arduinoLCD\test\Pain Drain\libraries\lvgl\src\core/lv_obj_tree.c ****     lv_obj_allocate_spec_attr(parent);
 150:..\..\..\arduinoLCD\test\Pain Drain\libraries\lvgl\src\core/lv_obj_tree.c **** 
 151:..\..\..\arduinoLCD\test\Pain Drain\libraries\lvgl\src\core/lv_obj_tree.c ****     lv_obj_t * old_parent = obj->parent;
 152:..\..\..\arduinoLCD\test\Pain Drain\libraries\lvgl\src\core/lv_obj_tree.c ****     /*Remove the object from the old parent's child list*/
 153:..\..\..\arduinoLCD\test\Pain Drain\libraries\lvgl\src\core/lv_obj_tree.c ****     int32_t i;
 154:..\..\..\arduinoLCD\test\Pain Drain\libraries\lvgl\src\core/lv_obj_tree.c ****     for(i = lv_obj_get_index(obj); i <= (int32_t)lv_obj_get_child_cnt(old_parent) - 2; i++) {
 155:..\..\..\arduinoLCD\test\Pain Drain\libraries\lvgl\src\core/lv_obj_tree.c ****         old_parent->spec_attr->children[i] = old_parent->spec_attr->children[i + 1];
 156:..\..\..\arduinoLCD\test\Pain Drain\libraries\lvgl\src\core/lv_obj_tree.c ****     }
 157:..\..\..\arduinoLCD\test\Pain Drain\libraries\lvgl\src\core/lv_obj_tree.c ****     old_parent->spec_attr->child_cnt--;
 158:..\..\..\arduinoLCD\test\Pain Drain\libraries\lvgl\src\core/lv_obj_tree.c ****     if(old_parent->spec_attr->child_cnt) {
 159:..\..\..\arduinoLCD\test\Pain Drain\libraries\lvgl\src\core/lv_obj_tree.c ****         old_parent->spec_attr->children = lv_mem_realloc(old_parent->spec_attr->children,
 160:..\..\..\arduinoLCD\test\Pain Drain\libraries\lvgl\src\core/lv_obj_tree.c ****                                                          old_parent->spec_attr->child_cnt * (sizeof
 161:..\..\..\arduinoLCD\test\Pain Drain\libraries\lvgl\src\core/lv_obj_tree.c ****     }
 162:..\..\..\arduinoLCD\test\Pain Drain\libraries\lvgl\src\core/lv_obj_tree.c ****     else {
 163:..\..\..\arduinoLCD\test\Pain Drain\libraries\lvgl\src\core/lv_obj_tree.c ****         lv_mem_free(old_parent->spec_attr->children);
 164:..\..\..\arduinoLCD\test\Pain Drain\libraries\lvgl\src\core/lv_obj_tree.c ****         old_parent->spec_attr->children = NULL;
 165:..\..\..\arduinoLCD\test\Pain Drain\libraries\lvgl\src\core/lv_obj_tree.c ****     }
 166:..\..\..\arduinoLCD\test\Pain Drain\libraries\lvgl\src\core/lv_obj_tree.c **** 
 167:..\..\..\arduinoLCD\test\Pain Drain\libraries\lvgl\src\core/lv_obj_tree.c ****     /*Add the child to the new parent as the last (newest child)*/
 168:..\..\..\arduinoLCD\test\Pain Drain\libraries\lvgl\src\core/lv_obj_tree.c ****     parent->spec_attr->child_cnt++;
 169:..\..\..\arduinoLCD\test\Pain Drain\libraries\lvgl\src\core/lv_obj_tree.c ****     parent->spec_attr->children = lv_mem_realloc(parent->spec_attr->children,
 170:..\..\..\arduinoLCD\test\Pain Drain\libraries\lvgl\src\core/lv_obj_tree.c ****                                                  parent->spec_attr->child_cnt * (sizeof(lv_obj_t *)
 171:..\..\..\arduinoLCD\test\Pain Drain\libraries\lvgl\src\core/lv_obj_tree.c ****     parent->spec_attr->children[lv_obj_get_child_cnt(parent) - 1] = obj;
 172:..\..\..\arduinoLCD\test\Pain Drain\libraries\lvgl\src\core/lv_obj_tree.c **** 
 173:..\..\..\arduinoLCD\test\Pain Drain\libraries\lvgl\src\core/lv_obj_tree.c ****     obj->parent = parent;
 174:..\..\..\arduinoLCD\test\Pain Drain\libraries\lvgl\src\core/lv_obj_tree.c **** 
 175:..\..\..\arduinoLCD\test\Pain Drain\libraries\lvgl\src\core/lv_obj_tree.c ****     /*Notify the original parent because one of its children is lost*/
 176:..\..\..\arduinoLCD\test\Pain Drain\libraries\lvgl\src\core/lv_obj_tree.c ****     lv_obj_readjust_scroll(old_parent, LV_ANIM_OFF);
 177:..\..\..\arduinoLCD\test\Pain Drain\libraries\lvgl\src\core/lv_obj_tree.c ****     lv_obj_scrollbar_invalidate(old_parent);
 178:..\..\..\arduinoLCD\test\Pain Drain\libraries\lvgl\src\core/lv_obj_tree.c ****     lv_event_send(old_parent, LV_EVENT_CHILD_CHANGED, obj);
 179:..\..\..\arduinoLCD\test\Pain Drain\libraries\lvgl\src\core/lv_obj_tree.c ****     lv_event_send(old_parent, LV_EVENT_CHILD_DELETED, NULL);
 180:..\..\..\arduinoLCD\test\Pain Drain\libraries\lvgl\src\core/lv_obj_tree.c **** 
 181:..\..\..\arduinoLCD\test\Pain Drain\libraries\lvgl\src\core/lv_obj_tree.c ****     /*Notify the new parent about the child*/
 182:..\..\..\arduinoLCD\test\Pain Drain\libraries\lvgl\src\core/lv_obj_tree.c ****     lv_event_send(parent, LV_EVENT_CHILD_CHANGED, obj);
 183:..\..\..\arduinoLCD\test\Pain Drain\libraries\lvgl\src\core/lv_obj_tree.c ****     lv_event_send(parent, LV_EVENT_CHILD_CREATED, NULL);
 184:..\..\..\arduinoLCD\test\Pain Drain\libraries\lvgl\src\core/lv_obj_tree.c **** 
 185:..\..\..\arduinoLCD\test\Pain Drain\libraries\lvgl\src\core/lv_obj_tree.c ****     lv_obj_mark_layout_as_dirty(obj);
 186:..\..\..\arduinoLCD\test\Pain Drain\libraries\lvgl\src\core/lv_obj_tree.c **** 
 187:..\..\..\arduinoLCD\test\Pain Drain\libraries\lvgl\src\core/lv_obj_tree.c ****     lv_obj_invalidate(obj);
 188:..\..\..\arduinoLCD\test\Pain Drain\libraries\lvgl\src\core/lv_obj_tree.c **** }
 189:..\..\..\arduinoLCD\test\Pain Drain\libraries\lvgl\src\core/lv_obj_tree.c **** 
 190:..\..\..\arduinoLCD\test\Pain Drain\libraries\lvgl\src\core/lv_obj_tree.c **** void lv_obj_move_to_index(lv_obj_t * obj, int32_t index)
 191:..\..\..\arduinoLCD\test\Pain Drain\libraries\lvgl\src\core/lv_obj_tree.c **** {
 192:..\..\..\arduinoLCD\test\Pain Drain\libraries\lvgl\src\core/lv_obj_tree.c ****     LV_ASSERT_OBJ(obj, MY_CLASS);
 193:..\..\..\arduinoLCD\test\Pain Drain\libraries\lvgl\src\core/lv_obj_tree.c **** 
 194:..\..\..\arduinoLCD\test\Pain Drain\libraries\lvgl\src\core/lv_obj_tree.c ****     if(index < 0) {
 195:..\..\..\arduinoLCD\test\Pain Drain\libraries\lvgl\src\core/lv_obj_tree.c ****         index = lv_obj_get_child_cnt(lv_obj_get_parent(obj)) + index;
 196:..\..\..\arduinoLCD\test\Pain Drain\libraries\lvgl\src\core/lv_obj_tree.c ****     }
 197:..\..\..\arduinoLCD\test\Pain Drain\libraries\lvgl\src\core/lv_obj_tree.c **** 
ARM GAS  C:\Users\haske\AppData\Local\Temp\ccFGJ08j.s 			page 11


 198:..\..\..\arduinoLCD\test\Pain Drain\libraries\lvgl\src\core/lv_obj_tree.c ****     const int32_t old_index = lv_obj_get_index(obj);
 199:..\..\..\arduinoLCD\test\Pain Drain\libraries\lvgl\src\core/lv_obj_tree.c **** 
 200:..\..\..\arduinoLCD\test\Pain Drain\libraries\lvgl\src\core/lv_obj_tree.c ****     lv_obj_t * parent = lv_obj_get_parent(obj);
 201:..\..\..\arduinoLCD\test\Pain Drain\libraries\lvgl\src\core/lv_obj_tree.c **** 
 202:..\..\..\arduinoLCD\test\Pain Drain\libraries\lvgl\src\core/lv_obj_tree.c ****     if(index < 0) return;
 203:..\..\..\arduinoLCD\test\Pain Drain\libraries\lvgl\src\core/lv_obj_tree.c ****     if(index >= (int32_t) lv_obj_get_child_cnt(parent)) return;
 204:..\..\..\arduinoLCD\test\Pain Drain\libraries\lvgl\src\core/lv_obj_tree.c ****     if(index == old_index) return;
 205:..\..\..\arduinoLCD\test\Pain Drain\libraries\lvgl\src\core/lv_obj_tree.c **** 
 206:..\..\..\arduinoLCD\test\Pain Drain\libraries\lvgl\src\core/lv_obj_tree.c ****     int32_t i = old_index;
 207:..\..\..\arduinoLCD\test\Pain Drain\libraries\lvgl\src\core/lv_obj_tree.c ****     if(index < old_index) {
 208:..\..\..\arduinoLCD\test\Pain Drain\libraries\lvgl\src\core/lv_obj_tree.c ****         while(i > index)  {
 209:..\..\..\arduinoLCD\test\Pain Drain\libraries\lvgl\src\core/lv_obj_tree.c ****             parent->spec_attr->children[i] = parent->spec_attr->children[i - 1];
 210:..\..\..\arduinoLCD\test\Pain Drain\libraries\lvgl\src\core/lv_obj_tree.c ****             i--;
 211:..\..\..\arduinoLCD\test\Pain Drain\libraries\lvgl\src\core/lv_obj_tree.c ****         }
 212:..\..\..\arduinoLCD\test\Pain Drain\libraries\lvgl\src\core/lv_obj_tree.c ****     }
 213:..\..\..\arduinoLCD\test\Pain Drain\libraries\lvgl\src\core/lv_obj_tree.c ****     else {
 214:..\..\..\arduinoLCD\test\Pain Drain\libraries\lvgl\src\core/lv_obj_tree.c ****         while(i < index) {
 215:..\..\..\arduinoLCD\test\Pain Drain\libraries\lvgl\src\core/lv_obj_tree.c ****             parent->spec_attr->children[i] = parent->spec_attr->children[i + 1];
 216:..\..\..\arduinoLCD\test\Pain Drain\libraries\lvgl\src\core/lv_obj_tree.c ****             i++;
 217:..\..\..\arduinoLCD\test\Pain Drain\libraries\lvgl\src\core/lv_obj_tree.c ****         }
 218:..\..\..\arduinoLCD\test\Pain Drain\libraries\lvgl\src\core/lv_obj_tree.c ****     }
 219:..\..\..\arduinoLCD\test\Pain Drain\libraries\lvgl\src\core/lv_obj_tree.c **** 
 220:..\..\..\arduinoLCD\test\Pain Drain\libraries\lvgl\src\core/lv_obj_tree.c ****     parent->spec_attr->children[index] = obj;
 221:..\..\..\arduinoLCD\test\Pain Drain\libraries\lvgl\src\core/lv_obj_tree.c ****     lv_event_send(parent, LV_EVENT_CHILD_CHANGED, NULL);
 222:..\..\..\arduinoLCD\test\Pain Drain\libraries\lvgl\src\core/lv_obj_tree.c ****     lv_obj_invalidate(parent);
 223:..\..\..\arduinoLCD\test\Pain Drain\libraries\lvgl\src\core/lv_obj_tree.c **** }
 224:..\..\..\arduinoLCD\test\Pain Drain\libraries\lvgl\src\core/lv_obj_tree.c **** 
 225:..\..\..\arduinoLCD\test\Pain Drain\libraries\lvgl\src\core/lv_obj_tree.c **** void lv_obj_swap(lv_obj_t * obj1, lv_obj_t * obj2)
 226:..\..\..\arduinoLCD\test\Pain Drain\libraries\lvgl\src\core/lv_obj_tree.c **** {
 227:..\..\..\arduinoLCD\test\Pain Drain\libraries\lvgl\src\core/lv_obj_tree.c ****     LV_ASSERT_OBJ(obj1, MY_CLASS);
 228:..\..\..\arduinoLCD\test\Pain Drain\libraries\lvgl\src\core/lv_obj_tree.c ****     LV_ASSERT_OBJ(obj2, MY_CLASS);
 229:..\..\..\arduinoLCD\test\Pain Drain\libraries\lvgl\src\core/lv_obj_tree.c **** 
 230:..\..\..\arduinoLCD\test\Pain Drain\libraries\lvgl\src\core/lv_obj_tree.c ****     lv_obj_t * parent = lv_obj_get_parent(obj1);
 231:..\..\..\arduinoLCD\test\Pain Drain\libraries\lvgl\src\core/lv_obj_tree.c ****     lv_obj_t * parent2 = lv_obj_get_parent(obj2);
 232:..\..\..\arduinoLCD\test\Pain Drain\libraries\lvgl\src\core/lv_obj_tree.c **** 
 233:..\..\..\arduinoLCD\test\Pain Drain\libraries\lvgl\src\core/lv_obj_tree.c ****     uint_fast32_t index1 = lv_obj_get_index(obj1);
 234:..\..\..\arduinoLCD\test\Pain Drain\libraries\lvgl\src\core/lv_obj_tree.c ****     uint_fast32_t index2 = lv_obj_get_index(obj2);
 235:..\..\..\arduinoLCD\test\Pain Drain\libraries\lvgl\src\core/lv_obj_tree.c **** 
 236:..\..\..\arduinoLCD\test\Pain Drain\libraries\lvgl\src\core/lv_obj_tree.c ****     lv_event_send(parent2, LV_EVENT_CHILD_DELETED, obj2);
 237:..\..\..\arduinoLCD\test\Pain Drain\libraries\lvgl\src\core/lv_obj_tree.c ****     lv_event_send(parent, LV_EVENT_CHILD_DELETED, obj1);
 238:..\..\..\arduinoLCD\test\Pain Drain\libraries\lvgl\src\core/lv_obj_tree.c **** 
 239:..\..\..\arduinoLCD\test\Pain Drain\libraries\lvgl\src\core/lv_obj_tree.c ****     parent->spec_attr->children[index1] = obj2;
 240:..\..\..\arduinoLCD\test\Pain Drain\libraries\lvgl\src\core/lv_obj_tree.c ****     parent2->spec_attr->children[index2] = obj1;
 241:..\..\..\arduinoLCD\test\Pain Drain\libraries\lvgl\src\core/lv_obj_tree.c **** 
 242:..\..\..\arduinoLCD\test\Pain Drain\libraries\lvgl\src\core/lv_obj_tree.c ****     lv_event_send(parent, LV_EVENT_CHILD_CHANGED, obj2);
 243:..\..\..\arduinoLCD\test\Pain Drain\libraries\lvgl\src\core/lv_obj_tree.c ****     lv_event_send(parent, LV_EVENT_CHILD_CREATED, obj2);
 244:..\..\..\arduinoLCD\test\Pain Drain\libraries\lvgl\src\core/lv_obj_tree.c ****     lv_event_send(parent2, LV_EVENT_CHILD_CHANGED, obj1);
 245:..\..\..\arduinoLCD\test\Pain Drain\libraries\lvgl\src\core/lv_obj_tree.c ****     lv_event_send(parent2, LV_EVENT_CHILD_CREATED, obj1);
 246:..\..\..\arduinoLCD\test\Pain Drain\libraries\lvgl\src\core/lv_obj_tree.c **** 
 247:..\..\..\arduinoLCD\test\Pain Drain\libraries\lvgl\src\core/lv_obj_tree.c ****     lv_obj_invalidate(parent);
 248:..\..\..\arduinoLCD\test\Pain Drain\libraries\lvgl\src\core/lv_obj_tree.c **** 
 249:..\..\..\arduinoLCD\test\Pain Drain\libraries\lvgl\src\core/lv_obj_tree.c ****     if(parent != parent2) {
 250:..\..\..\arduinoLCD\test\Pain Drain\libraries\lvgl\src\core/lv_obj_tree.c ****         lv_obj_invalidate(parent2);
 251:..\..\..\arduinoLCD\test\Pain Drain\libraries\lvgl\src\core/lv_obj_tree.c ****     }
 252:..\..\..\arduinoLCD\test\Pain Drain\libraries\lvgl\src\core/lv_obj_tree.c ****     lv_group_swap_obj(obj1, obj2);
 253:..\..\..\arduinoLCD\test\Pain Drain\libraries\lvgl\src\core/lv_obj_tree.c **** }
 254:..\..\..\arduinoLCD\test\Pain Drain\libraries\lvgl\src\core/lv_obj_tree.c **** 
ARM GAS  C:\Users\haske\AppData\Local\Temp\ccFGJ08j.s 			page 12


 255:..\..\..\arduinoLCD\test\Pain Drain\libraries\lvgl\src\core/lv_obj_tree.c **** lv_obj_t * lv_obj_get_screen(const lv_obj_t * obj)
 256:..\..\..\arduinoLCD\test\Pain Drain\libraries\lvgl\src\core/lv_obj_tree.c **** {
 257:..\..\..\arduinoLCD\test\Pain Drain\libraries\lvgl\src\core/lv_obj_tree.c ****     LV_ASSERT_OBJ(obj, MY_CLASS);
 258:..\..\..\arduinoLCD\test\Pain Drain\libraries\lvgl\src\core/lv_obj_tree.c **** 
 259:..\..\..\arduinoLCD\test\Pain Drain\libraries\lvgl\src\core/lv_obj_tree.c ****     const lv_obj_t * par = obj;
 260:..\..\..\arduinoLCD\test\Pain Drain\libraries\lvgl\src\core/lv_obj_tree.c ****     const lv_obj_t * act_par;
 261:..\..\..\arduinoLCD\test\Pain Drain\libraries\lvgl\src\core/lv_obj_tree.c **** 
 262:..\..\..\arduinoLCD\test\Pain Drain\libraries\lvgl\src\core/lv_obj_tree.c ****     do {
 263:..\..\..\arduinoLCD\test\Pain Drain\libraries\lvgl\src\core/lv_obj_tree.c ****         act_par = par;
 264:..\..\..\arduinoLCD\test\Pain Drain\libraries\lvgl\src\core/lv_obj_tree.c ****         par = lv_obj_get_parent(act_par);
 265:..\..\..\arduinoLCD\test\Pain Drain\libraries\lvgl\src\core/lv_obj_tree.c ****     } while(par != NULL);
 266:..\..\..\arduinoLCD\test\Pain Drain\libraries\lvgl\src\core/lv_obj_tree.c **** 
 267:..\..\..\arduinoLCD\test\Pain Drain\libraries\lvgl\src\core/lv_obj_tree.c ****     return (lv_obj_t *)act_par;
 268:..\..\..\arduinoLCD\test\Pain Drain\libraries\lvgl\src\core/lv_obj_tree.c **** }
 269:..\..\..\arduinoLCD\test\Pain Drain\libraries\lvgl\src\core/lv_obj_tree.c **** 
 270:..\..\..\arduinoLCD\test\Pain Drain\libraries\lvgl\src\core/lv_obj_tree.c **** lv_disp_t * lv_obj_get_disp(const lv_obj_t * obj)
 271:..\..\..\arduinoLCD\test\Pain Drain\libraries\lvgl\src\core/lv_obj_tree.c **** {
 272:..\..\..\arduinoLCD\test\Pain Drain\libraries\lvgl\src\core/lv_obj_tree.c ****     LV_ASSERT_OBJ(obj, MY_CLASS);
 273:..\..\..\arduinoLCD\test\Pain Drain\libraries\lvgl\src\core/lv_obj_tree.c **** 
 274:..\..\..\arduinoLCD\test\Pain Drain\libraries\lvgl\src\core/lv_obj_tree.c ****     const lv_obj_t * scr;
 275:..\..\..\arduinoLCD\test\Pain Drain\libraries\lvgl\src\core/lv_obj_tree.c **** 
 276:..\..\..\arduinoLCD\test\Pain Drain\libraries\lvgl\src\core/lv_obj_tree.c ****     if(obj->parent == NULL) scr = obj;  /*`obj` is a screen*/
 277:..\..\..\arduinoLCD\test\Pain Drain\libraries\lvgl\src\core/lv_obj_tree.c ****     else scr = lv_obj_get_screen(obj);  /*get the screen of `obj`*/
 278:..\..\..\arduinoLCD\test\Pain Drain\libraries\lvgl\src\core/lv_obj_tree.c **** 
 279:..\..\..\arduinoLCD\test\Pain Drain\libraries\lvgl\src\core/lv_obj_tree.c ****     lv_disp_t * d;
 280:..\..\..\arduinoLCD\test\Pain Drain\libraries\lvgl\src\core/lv_obj_tree.c ****     _LV_LL_READ(&LV_GC_ROOT(_lv_disp_ll), d) {
 281:..\..\..\arduinoLCD\test\Pain Drain\libraries\lvgl\src\core/lv_obj_tree.c ****         uint32_t i;
 282:..\..\..\arduinoLCD\test\Pain Drain\libraries\lvgl\src\core/lv_obj_tree.c ****         for(i = 0; i < d->screen_cnt; i++) {
 283:..\..\..\arduinoLCD\test\Pain Drain\libraries\lvgl\src\core/lv_obj_tree.c ****             if(d->screens[i] == scr) return d;
 284:..\..\..\arduinoLCD\test\Pain Drain\libraries\lvgl\src\core/lv_obj_tree.c ****         }
 285:..\..\..\arduinoLCD\test\Pain Drain\libraries\lvgl\src\core/lv_obj_tree.c ****     }
 286:..\..\..\arduinoLCD\test\Pain Drain\libraries\lvgl\src\core/lv_obj_tree.c **** 
 287:..\..\..\arduinoLCD\test\Pain Drain\libraries\lvgl\src\core/lv_obj_tree.c ****     LV_LOG_WARN("No screen found");
 288:..\..\..\arduinoLCD\test\Pain Drain\libraries\lvgl\src\core/lv_obj_tree.c ****     return NULL;
 289:..\..\..\arduinoLCD\test\Pain Drain\libraries\lvgl\src\core/lv_obj_tree.c **** }
 290:..\..\..\arduinoLCD\test\Pain Drain\libraries\lvgl\src\core/lv_obj_tree.c **** 
 291:..\..\..\arduinoLCD\test\Pain Drain\libraries\lvgl\src\core/lv_obj_tree.c **** lv_obj_t * lv_obj_get_parent(const lv_obj_t * obj)
 292:..\..\..\arduinoLCD\test\Pain Drain\libraries\lvgl\src\core/lv_obj_tree.c **** {
 145              		.loc 1 292 0
 146              		.cfi_startproc
 147              		@ args = 0, pretend = 0, frame = 0
 148              		@ frame_needed = 0, uses_anonymous_args = 0
 149              		@ link register save eliminated.
 150              	.LVL14:
 293:..\..\..\arduinoLCD\test\Pain Drain\libraries\lvgl\src\core/lv_obj_tree.c ****     if(obj == NULL) return NULL;
 151              		.loc 1 293 0
 152 0000 08B1     		cbz	r0, .L11
 294:..\..\..\arduinoLCD\test\Pain Drain\libraries\lvgl\src\core/lv_obj_tree.c ****     LV_ASSERT_OBJ(obj, MY_CLASS);
 295:..\..\..\arduinoLCD\test\Pain Drain\libraries\lvgl\src\core/lv_obj_tree.c **** 
 296:..\..\..\arduinoLCD\test\Pain Drain\libraries\lvgl\src\core/lv_obj_tree.c ****     return obj->parent;
 153              		.loc 1 296 0
 154 0002 4068     		ldr	r0, [r0, #4]
 155              	.LVL15:
 156 0004 7047     		bx	lr
 157              	.LVL16:
 158              	.L11:
 293:..\..\..\arduinoLCD\test\Pain Drain\libraries\lvgl\src\core/lv_obj_tree.c ****     if(obj == NULL) return NULL;
ARM GAS  C:\Users\haske\AppData\Local\Temp\ccFGJ08j.s 			page 13


 159              		.loc 1 293 0
 160 0006 0020     		movs	r0, #0
 161              	.LVL17:
 297:..\..\..\arduinoLCD\test\Pain Drain\libraries\lvgl\src\core/lv_obj_tree.c **** }
 162              		.loc 1 297 0
 163 0008 7047     		bx	lr
 164              		.cfi_endproc
 165              	.LFE169:
 166              		.size	lv_obj_get_parent, .-lv_obj_get_parent
 167 000a 00BF     		.section	.text.lv_obj_get_screen,"ax",%progbits
 168              		.align	2
 169              		.global	lv_obj_get_screen
 170              		.thumb
 171              		.thumb_func
 172              		.type	lv_obj_get_screen, %function
 173              	lv_obj_get_screen:
 174              	.LFB167:
 256:..\..\..\arduinoLCD\test\Pain Drain\libraries\lvgl\src\core/lv_obj_tree.c ****     LV_ASSERT_OBJ(obj, MY_CLASS);
 175              		.loc 1 256 0
 176              		.cfi_startproc
 177              		@ args = 0, pretend = 0, frame = 0
 178              		@ frame_needed = 0, uses_anonymous_args = 0
 179              	.LVL18:
 180 0000 10B5     		push	{r4, lr}
 181              		.cfi_def_cfa_offset 8
 182              		.cfi_offset 4, -8
 183              		.cfi_offset 14, -4
 184 0002 0446     		mov	r4, r0
 185              	.LVL19:
 186 0004 00E0     		b	.L13
 187              	.LVL20:
 188              	.L14:
 264:..\..\..\arduinoLCD\test\Pain Drain\libraries\lvgl\src\core/lv_obj_tree.c ****     } while(par != NULL);
 189              		.loc 1 264 0
 190 0006 1C46     		mov	r4, r3
 191              	.LVL21:
 192              	.L13:
 264:..\..\..\arduinoLCD\test\Pain Drain\libraries\lvgl\src\core/lv_obj_tree.c ****     } while(par != NULL);
 193              		.loc 1 264 0 is_stmt 0 discriminator 1
 194 0008 2046     		mov	r0, r4
 195 000a FFF7FEFF 		bl	lv_obj_get_parent
 196              	.LVL22:
 265:..\..\..\arduinoLCD\test\Pain Drain\libraries\lvgl\src\core/lv_obj_tree.c **** 
 197              		.loc 1 265 0 is_stmt 1 discriminator 1
 198 000e 0346     		mov	r3, r0
 199 0010 0028     		cmp	r0, #0
 200 0012 F8D1     		bne	.L14
 268:..\..\..\arduinoLCD\test\Pain Drain\libraries\lvgl\src\core/lv_obj_tree.c **** 
 201              		.loc 1 268 0
 202 0014 2046     		mov	r0, r4
 203              	.LVL23:
 204 0016 10BD     		pop	{r4, pc}
 205              		.cfi_endproc
 206              	.LFE167:
 207              		.size	lv_obj_get_screen, .-lv_obj_get_screen
 208              		.section	.text.lv_obj_get_disp,"ax",%progbits
 209              		.align	2
ARM GAS  C:\Users\haske\AppData\Local\Temp\ccFGJ08j.s 			page 14


 210              		.global	lv_obj_get_disp
 211              		.thumb
 212              		.thumb_func
 213              		.type	lv_obj_get_disp, %function
 214              	lv_obj_get_disp:
 215              	.LFB168:
 271:..\..\..\arduinoLCD\test\Pain Drain\libraries\lvgl\src\core/lv_obj_tree.c ****     LV_ASSERT_OBJ(obj, MY_CLASS);
 216              		.loc 1 271 0
 217              		.cfi_startproc
 218              		@ args = 0, pretend = 0, frame = 0
 219              		@ frame_needed = 0, uses_anonymous_args = 0
 220              	.LVL24:
 221 0000 10B5     		push	{r4, lr}
 222              		.cfi_def_cfa_offset 8
 223              		.cfi_offset 4, -8
 224              		.cfi_offset 14, -4
 225 0002 0446     		mov	r4, r0
 276:..\..\..\arduinoLCD\test\Pain Drain\libraries\lvgl\src\core/lv_obj_tree.c ****     else scr = lv_obj_get_screen(obj);  /*get the screen of `obj`*/
 226              		.loc 1 276 0
 227 0004 4368     		ldr	r3, [r0, #4]
 228 0006 13B1     		cbz	r3, .L17
 277:..\..\..\arduinoLCD\test\Pain Drain\libraries\lvgl\src\core/lv_obj_tree.c **** 
 229              		.loc 1 277 0
 230 0008 FFF7FEFF 		bl	lv_obj_get_screen
 231              	.LVL25:
 232 000c 0446     		mov	r4, r0
 233              	.LVL26:
 234              	.L17:
 280:..\..\..\arduinoLCD\test\Pain Drain\libraries\lvgl\src\core/lv_obj_tree.c ****         uint32_t i;
 235              		.loc 1 280 0
 236 000e 0B48     		ldr	r0, .L25
 237 0010 FFF7FEFF 		bl	_lv_ll_get_head
 238              	.LVL27:
 239 0014 0EE0     		b	.L18
 240              	.LVL28:
 241              	.L20:
 242              	.LBB22:
 283:..\..\..\arduinoLCD\test\Pain Drain\libraries\lvgl\src\core/lv_obj_tree.c ****         }
 243              		.loc 1 283 0
 244 0016 C268     		ldr	r2, [r0, #12]
 245 0018 52F82320 		ldr	r2, [r2, r3, lsl #2]
 246 001c 9442     		cmp	r4, r2
 247 001e 0BD0     		beq	.L19
 282:..\..\..\arduinoLCD\test\Pain Drain\libraries\lvgl\src\core/lv_obj_tree.c ****             if(d->screens[i] == scr) return d;
 248              		.loc 1 282 0 discriminator 2
 249 0020 0133     		adds	r3, r3, #1
 250              	.LVL29:
 251 0022 00E0     		b	.L21
 252              	.LVL30:
 253              	.L23:
 254              	.LBE22:
 255 0024 0023     		movs	r3, #0
 256              	.L21:
 257              	.LVL31:
 258              	.LBB23:
 282:..\..\..\arduinoLCD\test\Pain Drain\libraries\lvgl\src\core/lv_obj_tree.c ****             if(d->screens[i] == scr) return d;
 259              		.loc 1 282 0 is_stmt 0 discriminator 1
ARM GAS  C:\Users\haske\AppData\Local\Temp\ccFGJ08j.s 			page 15


 260 0026 426A     		ldr	r2, [r0, #36]
 261 0028 9342     		cmp	r3, r2
 262 002a F4D3     		bcc	.L20
 263              	.LBE23:
 280:..\..\..\arduinoLCD\test\Pain Drain\libraries\lvgl\src\core/lv_obj_tree.c ****         uint32_t i;
 264              		.loc 1 280 0 is_stmt 1 discriminator 2
 265 002c 0146     		mov	r1, r0
 266 002e 0348     		ldr	r0, .L25
 267              	.LVL32:
 268 0030 FFF7FEFF 		bl	_lv_ll_get_next
 269              	.LVL33:
 270              	.L18:
 280:..\..\..\arduinoLCD\test\Pain Drain\libraries\lvgl\src\core/lv_obj_tree.c ****         uint32_t i;
 271              		.loc 1 280 0 is_stmt 0 discriminator 1
 272 0034 0028     		cmp	r0, #0
 273 0036 F5D1     		bne	.L23
 274              	.L19:
 289:..\..\..\arduinoLCD\test\Pain Drain\libraries\lvgl\src\core/lv_obj_tree.c **** 
 275              		.loc 1 289 0 is_stmt 1
 276 0038 10BD     		pop	{r4, pc}
 277              	.LVL34:
 278              	.L26:
 279 003a 00BF     		.align	2
 280              	.L25:
 281 003c 00000000 		.word	_lv_disp_ll
 282              		.cfi_endproc
 283              	.LFE168:
 284              		.size	lv_obj_get_disp, .-lv_obj_get_disp
 285              		.section	.text.lv_obj_get_child,"ax",%progbits
 286              		.align	2
 287              		.global	lv_obj_get_child
 288              		.thumb
 289              		.thumb_func
 290              		.type	lv_obj_get_child, %function
 291              	lv_obj_get_child:
 292              	.LFB170:
 298:..\..\..\arduinoLCD\test\Pain Drain\libraries\lvgl\src\core/lv_obj_tree.c **** 
 299:..\..\..\arduinoLCD\test\Pain Drain\libraries\lvgl\src\core/lv_obj_tree.c **** lv_obj_t * lv_obj_get_child(const lv_obj_t * obj, int32_t id)
 300:..\..\..\arduinoLCD\test\Pain Drain\libraries\lvgl\src\core/lv_obj_tree.c **** {
 293              		.loc 1 300 0
 294              		.cfi_startproc
 295              		@ args = 0, pretend = 0, frame = 0
 296              		@ frame_needed = 0, uses_anonymous_args = 0
 297              		@ link register save eliminated.
 298              	.LVL35:
 301:..\..\..\arduinoLCD\test\Pain Drain\libraries\lvgl\src\core/lv_obj_tree.c ****     LV_ASSERT_OBJ(obj, MY_CLASS);
 302:..\..\..\arduinoLCD\test\Pain Drain\libraries\lvgl\src\core/lv_obj_tree.c **** 
 303:..\..\..\arduinoLCD\test\Pain Drain\libraries\lvgl\src\core/lv_obj_tree.c ****     if(obj->spec_attr == NULL) return NULL;
 299              		.loc 1 303 0
 300 0000 8368     		ldr	r3, [r0, #8]
 301 0002 7BB1     		cbz	r3, .L31
 304:..\..\..\arduinoLCD\test\Pain Drain\libraries\lvgl\src\core/lv_obj_tree.c **** 
 305:..\..\..\arduinoLCD\test\Pain Drain\libraries\lvgl\src\core/lv_obj_tree.c ****     uint32_t idu;
 306:..\..\..\arduinoLCD\test\Pain Drain\libraries\lvgl\src\core/lv_obj_tree.c ****     if(id < 0) {
 302              		.loc 1 306 0
 303 0004 0029     		cmp	r1, #0
 304 0006 05DA     		bge	.L29
ARM GAS  C:\Users\haske\AppData\Local\Temp\ccFGJ08j.s 			page 16


 307:..\..\..\arduinoLCD\test\Pain Drain\libraries\lvgl\src\core/lv_obj_tree.c ****         id = obj->spec_attr->child_cnt + id;
 305              		.loc 1 307 0
 306 0008 5A68     		ldr	r2, [r3, #4]
 307 000a 1144     		add	r1, r1, r2
 308              	.LVL36:
 309 000c 0A46     		mov	r2, r1
 310              	.LVL37:
 308:..\..\..\arduinoLCD\test\Pain Drain\libraries\lvgl\src\core/lv_obj_tree.c ****         if(id < 0) return NULL;
 311              		.loc 1 308 0
 312 000e 0029     		cmp	r1, #0
 313 0010 01DA     		bge	.L30
 314 0012 09E0     		b	.L32
 315              	.L29:
 309:..\..\..\arduinoLCD\test\Pain Drain\libraries\lvgl\src\core/lv_obj_tree.c ****         idu = (uint32_t) id;
 310:..\..\..\arduinoLCD\test\Pain Drain\libraries\lvgl\src\core/lv_obj_tree.c ****     }
 311:..\..\..\arduinoLCD\test\Pain Drain\libraries\lvgl\src\core/lv_obj_tree.c ****     else {
 312:..\..\..\arduinoLCD\test\Pain Drain\libraries\lvgl\src\core/lv_obj_tree.c ****         idu = id;
 316              		.loc 1 312 0
 317 0014 0A46     		mov	r2, r1
 318              	.LVL38:
 319              	.L30:
 313:..\..\..\arduinoLCD\test\Pain Drain\libraries\lvgl\src\core/lv_obj_tree.c ****     }
 314:..\..\..\arduinoLCD\test\Pain Drain\libraries\lvgl\src\core/lv_obj_tree.c **** 
 315:..\..\..\arduinoLCD\test\Pain Drain\libraries\lvgl\src\core/lv_obj_tree.c ****     if(idu >= obj->spec_attr->child_cnt) return NULL;
 320              		.loc 1 315 0
 321 0016 5868     		ldr	r0, [r3, #4]
 322              	.LVL39:
 323 0018 8242     		cmp	r2, r0
 324 001a 07D2     		bcs	.L33
 316:..\..\..\arduinoLCD\test\Pain Drain\libraries\lvgl\src\core/lv_obj_tree.c ****     else return obj->spec_attr->children[id];
 325              		.loc 1 316 0
 326 001c 1B68     		ldr	r3, [r3]
 327 001e 53F82100 		ldr	r0, [r3, r1, lsl #2]
 328 0022 7047     		bx	lr
 329              	.LVL40:
 330              	.L31:
 303:..\..\..\arduinoLCD\test\Pain Drain\libraries\lvgl\src\core/lv_obj_tree.c **** 
 331              		.loc 1 303 0
 332 0024 0020     		movs	r0, #0
 333              	.LVL41:
 334 0026 7047     		bx	lr
 335              	.LVL42:
 336              	.L32:
 308:..\..\..\arduinoLCD\test\Pain Drain\libraries\lvgl\src\core/lv_obj_tree.c ****         idu = (uint32_t) id;
 337              		.loc 1 308 0
 338 0028 0020     		movs	r0, #0
 339              	.LVL43:
 340 002a 7047     		bx	lr
 341              	.LVL44:
 342              	.L33:
 315:..\..\..\arduinoLCD\test\Pain Drain\libraries\lvgl\src\core/lv_obj_tree.c ****     else return obj->spec_attr->children[id];
 343              		.loc 1 315 0
 344 002c 0020     		movs	r0, #0
 317:..\..\..\arduinoLCD\test\Pain Drain\libraries\lvgl\src\core/lv_obj_tree.c **** }
 345              		.loc 1 317 0
 346 002e 7047     		bx	lr
 347              		.cfi_endproc
ARM GAS  C:\Users\haske\AppData\Local\Temp\ccFGJ08j.s 			page 17


 348              	.LFE170:
 349              		.size	lv_obj_get_child, .-lv_obj_get_child
 350              		.section	.text.lv_obj_get_child_cnt,"ax",%progbits
 351              		.align	2
 352              		.global	lv_obj_get_child_cnt
 353              		.thumb
 354              		.thumb_func
 355              		.type	lv_obj_get_child_cnt, %function
 356              	lv_obj_get_child_cnt:
 357              	.LFB171:
 318:..\..\..\arduinoLCD\test\Pain Drain\libraries\lvgl\src\core/lv_obj_tree.c **** 
 319:..\..\..\arduinoLCD\test\Pain Drain\libraries\lvgl\src\core/lv_obj_tree.c **** uint32_t lv_obj_get_child_cnt(const lv_obj_t * obj)
 320:..\..\..\arduinoLCD\test\Pain Drain\libraries\lvgl\src\core/lv_obj_tree.c **** {
 358              		.loc 1 320 0
 359              		.cfi_startproc
 360              		@ args = 0, pretend = 0, frame = 0
 361              		@ frame_needed = 0, uses_anonymous_args = 0
 362              		@ link register save eliminated.
 363              	.LVL45:
 321:..\..\..\arduinoLCD\test\Pain Drain\libraries\lvgl\src\core/lv_obj_tree.c ****     LV_ASSERT_OBJ(obj, MY_CLASS);
 322:..\..\..\arduinoLCD\test\Pain Drain\libraries\lvgl\src\core/lv_obj_tree.c ****     if(obj->spec_attr == NULL) return 0;
 364              		.loc 1 322 0
 365 0000 8368     		ldr	r3, [r0, #8]
 366 0002 0BB1     		cbz	r3, .L36
 323:..\..\..\arduinoLCD\test\Pain Drain\libraries\lvgl\src\core/lv_obj_tree.c ****     return obj->spec_attr->child_cnt;
 367              		.loc 1 323 0
 368 0004 5868     		ldr	r0, [r3, #4]
 369              	.LVL46:
 370 0006 7047     		bx	lr
 371              	.LVL47:
 372              	.L36:
 322:..\..\..\arduinoLCD\test\Pain Drain\libraries\lvgl\src\core/lv_obj_tree.c ****     return obj->spec_attr->child_cnt;
 373              		.loc 1 322 0
 374 0008 0020     		movs	r0, #0
 375              	.LVL48:
 324:..\..\..\arduinoLCD\test\Pain Drain\libraries\lvgl\src\core/lv_obj_tree.c **** }
 376              		.loc 1 324 0
 377 000a 7047     		bx	lr
 378              		.cfi_endproc
 379              	.LFE171:
 380              		.size	lv_obj_get_child_cnt, .-lv_obj_get_child_cnt
 381              		.section	.text.walk_core,"ax",%progbits
 382              		.align	2
 383              		.thumb
 384              		.thumb_func
 385              		.type	walk_core, %function
 386              	walk_core:
 387              	.LFB176:
 325:..\..\..\arduinoLCD\test\Pain Drain\libraries\lvgl\src\core/lv_obj_tree.c **** 
 326:..\..\..\arduinoLCD\test\Pain Drain\libraries\lvgl\src\core/lv_obj_tree.c **** uint32_t lv_obj_get_index(const lv_obj_t * obj)
 327:..\..\..\arduinoLCD\test\Pain Drain\libraries\lvgl\src\core/lv_obj_tree.c **** {
 328:..\..\..\arduinoLCD\test\Pain Drain\libraries\lvgl\src\core/lv_obj_tree.c ****     LV_ASSERT_OBJ(obj, MY_CLASS);
 329:..\..\..\arduinoLCD\test\Pain Drain\libraries\lvgl\src\core/lv_obj_tree.c **** 
 330:..\..\..\arduinoLCD\test\Pain Drain\libraries\lvgl\src\core/lv_obj_tree.c ****     lv_obj_t * parent = lv_obj_get_parent(obj);
 331:..\..\..\arduinoLCD\test\Pain Drain\libraries\lvgl\src\core/lv_obj_tree.c ****     if(parent == NULL) return 0;
 332:..\..\..\arduinoLCD\test\Pain Drain\libraries\lvgl\src\core/lv_obj_tree.c **** 
 333:..\..\..\arduinoLCD\test\Pain Drain\libraries\lvgl\src\core/lv_obj_tree.c ****     uint32_t i = 0;
ARM GAS  C:\Users\haske\AppData\Local\Temp\ccFGJ08j.s 			page 18


 334:..\..\..\arduinoLCD\test\Pain Drain\libraries\lvgl\src\core/lv_obj_tree.c ****     for(i = 0; i < lv_obj_get_child_cnt(parent); i++) {
 335:..\..\..\arduinoLCD\test\Pain Drain\libraries\lvgl\src\core/lv_obj_tree.c ****         if(lv_obj_get_child(parent, i) == obj) return i;
 336:..\..\..\arduinoLCD\test\Pain Drain\libraries\lvgl\src\core/lv_obj_tree.c ****     }
 337:..\..\..\arduinoLCD\test\Pain Drain\libraries\lvgl\src\core/lv_obj_tree.c **** 
 338:..\..\..\arduinoLCD\test\Pain Drain\libraries\lvgl\src\core/lv_obj_tree.c ****     return 0xFFFFFFFF; /*Shouldn't happen*/
 339:..\..\..\arduinoLCD\test\Pain Drain\libraries\lvgl\src\core/lv_obj_tree.c **** }
 340:..\..\..\arduinoLCD\test\Pain Drain\libraries\lvgl\src\core/lv_obj_tree.c **** 
 341:..\..\..\arduinoLCD\test\Pain Drain\libraries\lvgl\src\core/lv_obj_tree.c **** void lv_obj_tree_walk(lv_obj_t * start_obj, lv_obj_tree_walk_cb_t cb, void * user_data)
 342:..\..\..\arduinoLCD\test\Pain Drain\libraries\lvgl\src\core/lv_obj_tree.c **** {
 343:..\..\..\arduinoLCD\test\Pain Drain\libraries\lvgl\src\core/lv_obj_tree.c ****     walk_core(start_obj, cb, user_data);
 344:..\..\..\arduinoLCD\test\Pain Drain\libraries\lvgl\src\core/lv_obj_tree.c **** }
 345:..\..\..\arduinoLCD\test\Pain Drain\libraries\lvgl\src\core/lv_obj_tree.c **** 
 346:..\..\..\arduinoLCD\test\Pain Drain\libraries\lvgl\src\core/lv_obj_tree.c **** /**********************
 347:..\..\..\arduinoLCD\test\Pain Drain\libraries\lvgl\src\core/lv_obj_tree.c ****  *   STATIC FUNCTIONS
 348:..\..\..\arduinoLCD\test\Pain Drain\libraries\lvgl\src\core/lv_obj_tree.c ****  **********************/
 349:..\..\..\arduinoLCD\test\Pain Drain\libraries\lvgl\src\core/lv_obj_tree.c **** 
 350:..\..\..\arduinoLCD\test\Pain Drain\libraries\lvgl\src\core/lv_obj_tree.c **** static void lv_obj_del_async_cb(void * obj)
 351:..\..\..\arduinoLCD\test\Pain Drain\libraries\lvgl\src\core/lv_obj_tree.c **** {
 352:..\..\..\arduinoLCD\test\Pain Drain\libraries\lvgl\src\core/lv_obj_tree.c ****     LV_ASSERT_OBJ(obj, MY_CLASS);
 353:..\..\..\arduinoLCD\test\Pain Drain\libraries\lvgl\src\core/lv_obj_tree.c **** 
 354:..\..\..\arduinoLCD\test\Pain Drain\libraries\lvgl\src\core/lv_obj_tree.c ****     lv_obj_del(obj);
 355:..\..\..\arduinoLCD\test\Pain Drain\libraries\lvgl\src\core/lv_obj_tree.c **** }
 356:..\..\..\arduinoLCD\test\Pain Drain\libraries\lvgl\src\core/lv_obj_tree.c **** 
 357:..\..\..\arduinoLCD\test\Pain Drain\libraries\lvgl\src\core/lv_obj_tree.c **** static void obj_del_core(lv_obj_t * obj)
 358:..\..\..\arduinoLCD\test\Pain Drain\libraries\lvgl\src\core/lv_obj_tree.c **** {
 359:..\..\..\arduinoLCD\test\Pain Drain\libraries\lvgl\src\core/lv_obj_tree.c ****     /*Let the user free the resources used in `LV_EVENT_DELETE`*/
 360:..\..\..\arduinoLCD\test\Pain Drain\libraries\lvgl\src\core/lv_obj_tree.c ****     lv_res_t res = lv_event_send(obj, LV_EVENT_DELETE, NULL);
 361:..\..\..\arduinoLCD\test\Pain Drain\libraries\lvgl\src\core/lv_obj_tree.c ****     if(res == LV_RES_INV) return;
 362:..\..\..\arduinoLCD\test\Pain Drain\libraries\lvgl\src\core/lv_obj_tree.c **** 
 363:..\..\..\arduinoLCD\test\Pain Drain\libraries\lvgl\src\core/lv_obj_tree.c ****     /*Recursively delete the children*/
 364:..\..\..\arduinoLCD\test\Pain Drain\libraries\lvgl\src\core/lv_obj_tree.c ****     lv_obj_t * child = lv_obj_get_child(obj, 0);
 365:..\..\..\arduinoLCD\test\Pain Drain\libraries\lvgl\src\core/lv_obj_tree.c ****     while(child) {
 366:..\..\..\arduinoLCD\test\Pain Drain\libraries\lvgl\src\core/lv_obj_tree.c ****         obj_del_core(child);
 367:..\..\..\arduinoLCD\test\Pain Drain\libraries\lvgl\src\core/lv_obj_tree.c ****         child = lv_obj_get_child(obj, 0);
 368:..\..\..\arduinoLCD\test\Pain Drain\libraries\lvgl\src\core/lv_obj_tree.c ****     }
 369:..\..\..\arduinoLCD\test\Pain Drain\libraries\lvgl\src\core/lv_obj_tree.c **** 
 370:..\..\..\arduinoLCD\test\Pain Drain\libraries\lvgl\src\core/lv_obj_tree.c ****     lv_group_t * group = lv_obj_get_group(obj);
 371:..\..\..\arduinoLCD\test\Pain Drain\libraries\lvgl\src\core/lv_obj_tree.c **** 
 372:..\..\..\arduinoLCD\test\Pain Drain\libraries\lvgl\src\core/lv_obj_tree.c ****     /*Reset all input devices if the object to delete is used*/
 373:..\..\..\arduinoLCD\test\Pain Drain\libraries\lvgl\src\core/lv_obj_tree.c ****     lv_indev_t * indev = lv_indev_get_next(NULL);
 374:..\..\..\arduinoLCD\test\Pain Drain\libraries\lvgl\src\core/lv_obj_tree.c ****     while(indev) {
 375:..\..\..\arduinoLCD\test\Pain Drain\libraries\lvgl\src\core/lv_obj_tree.c ****         if(indev->proc.types.pointer.act_obj == obj || indev->proc.types.pointer.last_obj == obj) {
 376:..\..\..\arduinoLCD\test\Pain Drain\libraries\lvgl\src\core/lv_obj_tree.c ****             lv_indev_reset(indev, obj);
 377:..\..\..\arduinoLCD\test\Pain Drain\libraries\lvgl\src\core/lv_obj_tree.c ****         }
 378:..\..\..\arduinoLCD\test\Pain Drain\libraries\lvgl\src\core/lv_obj_tree.c ****         if(indev->proc.types.pointer.last_pressed == obj) {
 379:..\..\..\arduinoLCD\test\Pain Drain\libraries\lvgl\src\core/lv_obj_tree.c ****             indev->proc.types.pointer.last_pressed = NULL;
 380:..\..\..\arduinoLCD\test\Pain Drain\libraries\lvgl\src\core/lv_obj_tree.c ****         }
 381:..\..\..\arduinoLCD\test\Pain Drain\libraries\lvgl\src\core/lv_obj_tree.c **** 
 382:..\..\..\arduinoLCD\test\Pain Drain\libraries\lvgl\src\core/lv_obj_tree.c ****         if(indev->group == group && obj == lv_indev_get_obj_act()) {
 383:..\..\..\arduinoLCD\test\Pain Drain\libraries\lvgl\src\core/lv_obj_tree.c ****             lv_indev_reset(indev, obj);
 384:..\..\..\arduinoLCD\test\Pain Drain\libraries\lvgl\src\core/lv_obj_tree.c ****         }
 385:..\..\..\arduinoLCD\test\Pain Drain\libraries\lvgl\src\core/lv_obj_tree.c ****         indev = lv_indev_get_next(indev);
 386:..\..\..\arduinoLCD\test\Pain Drain\libraries\lvgl\src\core/lv_obj_tree.c ****     }
 387:..\..\..\arduinoLCD\test\Pain Drain\libraries\lvgl\src\core/lv_obj_tree.c **** 
 388:..\..\..\arduinoLCD\test\Pain Drain\libraries\lvgl\src\core/lv_obj_tree.c ****     /*All children deleted. Now clean up the object specific data*/
 389:..\..\..\arduinoLCD\test\Pain Drain\libraries\lvgl\src\core/lv_obj_tree.c ****     _lv_obj_destruct(obj);
 390:..\..\..\arduinoLCD\test\Pain Drain\libraries\lvgl\src\core/lv_obj_tree.c **** 
ARM GAS  C:\Users\haske\AppData\Local\Temp\ccFGJ08j.s 			page 19


 391:..\..\..\arduinoLCD\test\Pain Drain\libraries\lvgl\src\core/lv_obj_tree.c ****     /*Remove the screen for the screen list*/
 392:..\..\..\arduinoLCD\test\Pain Drain\libraries\lvgl\src\core/lv_obj_tree.c ****     if(obj->parent == NULL) {
 393:..\..\..\arduinoLCD\test\Pain Drain\libraries\lvgl\src\core/lv_obj_tree.c ****         lv_disp_t * disp = lv_obj_get_disp(obj);
 394:..\..\..\arduinoLCD\test\Pain Drain\libraries\lvgl\src\core/lv_obj_tree.c ****         uint32_t i;
 395:..\..\..\arduinoLCD\test\Pain Drain\libraries\lvgl\src\core/lv_obj_tree.c ****         /*Find the screen in the list*/
 396:..\..\..\arduinoLCD\test\Pain Drain\libraries\lvgl\src\core/lv_obj_tree.c ****         for(i = 0; i < disp->screen_cnt; i++) {
 397:..\..\..\arduinoLCD\test\Pain Drain\libraries\lvgl\src\core/lv_obj_tree.c ****             if(disp->screens[i] == obj) break;
 398:..\..\..\arduinoLCD\test\Pain Drain\libraries\lvgl\src\core/lv_obj_tree.c ****         }
 399:..\..\..\arduinoLCD\test\Pain Drain\libraries\lvgl\src\core/lv_obj_tree.c **** 
 400:..\..\..\arduinoLCD\test\Pain Drain\libraries\lvgl\src\core/lv_obj_tree.c ****         uint32_t id = i;
 401:..\..\..\arduinoLCD\test\Pain Drain\libraries\lvgl\src\core/lv_obj_tree.c ****         for(i = id; i < disp->screen_cnt - 1; i++) {
 402:..\..\..\arduinoLCD\test\Pain Drain\libraries\lvgl\src\core/lv_obj_tree.c ****             disp->screens[i] = disp->screens[i + 1];
 403:..\..\..\arduinoLCD\test\Pain Drain\libraries\lvgl\src\core/lv_obj_tree.c ****         }
 404:..\..\..\arduinoLCD\test\Pain Drain\libraries\lvgl\src\core/lv_obj_tree.c ****         disp->screen_cnt--;
 405:..\..\..\arduinoLCD\test\Pain Drain\libraries\lvgl\src\core/lv_obj_tree.c ****         disp->screens = lv_mem_realloc(disp->screens, disp->screen_cnt * sizeof(lv_obj_t *));
 406:..\..\..\arduinoLCD\test\Pain Drain\libraries\lvgl\src\core/lv_obj_tree.c ****     }
 407:..\..\..\arduinoLCD\test\Pain Drain\libraries\lvgl\src\core/lv_obj_tree.c ****     /*Remove the object from the child list of its parent*/
 408:..\..\..\arduinoLCD\test\Pain Drain\libraries\lvgl\src\core/lv_obj_tree.c ****     else {
 409:..\..\..\arduinoLCD\test\Pain Drain\libraries\lvgl\src\core/lv_obj_tree.c ****         uint32_t id = lv_obj_get_index(obj);
 410:..\..\..\arduinoLCD\test\Pain Drain\libraries\lvgl\src\core/lv_obj_tree.c ****         uint32_t i;
 411:..\..\..\arduinoLCD\test\Pain Drain\libraries\lvgl\src\core/lv_obj_tree.c ****         for(i = id; i < obj->parent->spec_attr->child_cnt - 1; i++) {
 412:..\..\..\arduinoLCD\test\Pain Drain\libraries\lvgl\src\core/lv_obj_tree.c ****             obj->parent->spec_attr->children[i] = obj->parent->spec_attr->children[i + 1];
 413:..\..\..\arduinoLCD\test\Pain Drain\libraries\lvgl\src\core/lv_obj_tree.c ****         }
 414:..\..\..\arduinoLCD\test\Pain Drain\libraries\lvgl\src\core/lv_obj_tree.c ****         obj->parent->spec_attr->child_cnt--;
 415:..\..\..\arduinoLCD\test\Pain Drain\libraries\lvgl\src\core/lv_obj_tree.c ****         obj->parent->spec_attr->children = lv_mem_realloc(obj->parent->spec_attr->children,
 416:..\..\..\arduinoLCD\test\Pain Drain\libraries\lvgl\src\core/lv_obj_tree.c ****                                                           obj->parent->spec_attr->child_cnt * sizeo
 417:..\..\..\arduinoLCD\test\Pain Drain\libraries\lvgl\src\core/lv_obj_tree.c ****     }
 418:..\..\..\arduinoLCD\test\Pain Drain\libraries\lvgl\src\core/lv_obj_tree.c **** 
 419:..\..\..\arduinoLCD\test\Pain Drain\libraries\lvgl\src\core/lv_obj_tree.c ****     /*Free the object itself*/
 420:..\..\..\arduinoLCD\test\Pain Drain\libraries\lvgl\src\core/lv_obj_tree.c ****     lv_mem_free(obj);
 421:..\..\..\arduinoLCD\test\Pain Drain\libraries\lvgl\src\core/lv_obj_tree.c **** }
 422:..\..\..\arduinoLCD\test\Pain Drain\libraries\lvgl\src\core/lv_obj_tree.c **** 
 423:..\..\..\arduinoLCD\test\Pain Drain\libraries\lvgl\src\core/lv_obj_tree.c **** 
 424:..\..\..\arduinoLCD\test\Pain Drain\libraries\lvgl\src\core/lv_obj_tree.c **** static lv_obj_tree_walk_res_t walk_core(lv_obj_t * obj, lv_obj_tree_walk_cb_t cb, void * user_data)
 425:..\..\..\arduinoLCD\test\Pain Drain\libraries\lvgl\src\core/lv_obj_tree.c **** {
 388              		.loc 1 425 0
 389              		.cfi_startproc
 390              		@ args = 0, pretend = 0, frame = 0
 391              		@ frame_needed = 0, uses_anonymous_args = 0
 392              	.LVL49:
 393 0000 F8B5     		push	{r3, r4, r5, r6, r7, lr}
 394              		.cfi_def_cfa_offset 24
 395              		.cfi_offset 3, -24
 396              		.cfi_offset 4, -20
 397              		.cfi_offset 5, -16
 398              		.cfi_offset 6, -12
 399              		.cfi_offset 7, -8
 400              		.cfi_offset 14, -4
 401 0002 0E46     		mov	r6, r1
 402 0004 1746     		mov	r7, r2
 403              	.LVL50:
 426:..\..\..\arduinoLCD\test\Pain Drain\libraries\lvgl\src\core/lv_obj_tree.c ****     lv_obj_tree_walk_res_t res = LV_OBJ_TREE_WALK_NEXT;
 427:..\..\..\arduinoLCD\test\Pain Drain\libraries\lvgl\src\core/lv_obj_tree.c **** 
 428:..\..\..\arduinoLCD\test\Pain Drain\libraries\lvgl\src\core/lv_obj_tree.c ****     if(obj == NULL) {
 404              		.loc 1 428 0
 405 0006 C0B9     		cbnz	r0, .L38
 406              	.LBB24:
ARM GAS  C:\Users\haske\AppData\Local\Temp\ccFGJ08j.s 			page 20


 429:..\..\..\arduinoLCD\test\Pain Drain\libraries\lvgl\src\core/lv_obj_tree.c ****         lv_disp_t * disp = lv_disp_get_next(NULL);
 407              		.loc 1 429 0
 408 0008 FFF7FEFF 		bl	lv_disp_get_next
 409              	.LVL51:
 410 000c 0546     		mov	r5, r0
 411              	.LVL52:
 430:..\..\..\arduinoLCD\test\Pain Drain\libraries\lvgl\src\core/lv_obj_tree.c ****         while(disp) {
 412              		.loc 1 430 0
 413 000e 10E0     		b	.L39
 414              	.LVL53:
 415              	.L40:
 416              	.LBB25:
 431:..\..\..\arduinoLCD\test\Pain Drain\libraries\lvgl\src\core/lv_obj_tree.c ****             uint32_t i;
 432:..\..\..\arduinoLCD\test\Pain Drain\libraries\lvgl\src\core/lv_obj_tree.c ****             for(i = 0; i < disp->screen_cnt; i++) {
 433:..\..\..\arduinoLCD\test\Pain Drain\libraries\lvgl\src\core/lv_obj_tree.c ****                 walk_core(disp->screens[i], cb, user_data);
 417              		.loc 1 433 0 discriminator 3
 418 0010 EB68     		ldr	r3, [r5, #12]
 419 0012 3A46     		mov	r2, r7
 420 0014 3146     		mov	r1, r6
 421 0016 53F82400 		ldr	r0, [r3, r4, lsl #2]
 422 001a FFF7F1FF 		bl	walk_core
 423              	.LVL54:
 432:..\..\..\arduinoLCD\test\Pain Drain\libraries\lvgl\src\core/lv_obj_tree.c ****                 walk_core(disp->screens[i], cb, user_data);
 424              		.loc 1 432 0 discriminator 3
 425 001e 0134     		adds	r4, r4, #1
 426              	.LVL55:
 427 0020 00E0     		b	.L41
 428              	.LVL56:
 429              	.L45:
 430              	.LBE25:
 431 0022 0024     		movs	r4, #0
 432              	.LVL57:
 433              	.L41:
 434              	.LBB26:
 432:..\..\..\arduinoLCD\test\Pain Drain\libraries\lvgl\src\core/lv_obj_tree.c ****                 walk_core(disp->screens[i], cb, user_data);
 435              		.loc 1 432 0 is_stmt 0 discriminator 1
 436 0024 6B6A     		ldr	r3, [r5, #36]
 437 0026 9C42     		cmp	r4, r3
 438 0028 F2D3     		bcc	.L40
 434:..\..\..\arduinoLCD\test\Pain Drain\libraries\lvgl\src\core/lv_obj_tree.c ****             }
 435:..\..\..\arduinoLCD\test\Pain Drain\libraries\lvgl\src\core/lv_obj_tree.c ****             disp = lv_disp_get_next(disp);
 439              		.loc 1 435 0 is_stmt 1
 440 002a 2846     		mov	r0, r5
 441 002c FFF7FEFF 		bl	lv_disp_get_next
 442              	.LVL58:
 443 0030 0546     		mov	r5, r0
 444              	.LVL59:
 445              	.L39:
 446              	.LBE26:
 430:..\..\..\arduinoLCD\test\Pain Drain\libraries\lvgl\src\core/lv_obj_tree.c ****             uint32_t i;
 447              		.loc 1 430 0
 448 0032 002D     		cmp	r5, #0
 449 0034 F5D1     		bne	.L45
 436:..\..\..\arduinoLCD\test\Pain Drain\libraries\lvgl\src\core/lv_obj_tree.c ****         }
 437:..\..\..\arduinoLCD\test\Pain Drain\libraries\lvgl\src\core/lv_obj_tree.c ****         return LV_OBJ_TREE_WALK_END;    /*The value doesn't matter as it wasn't called recursively*
 450              		.loc 1 437 0
 451 0036 0220     		movs	r0, #2
ARM GAS  C:\Users\haske\AppData\Local\Temp\ccFGJ08j.s 			page 21


 452              	.LVL60:
 453 0038 F8BD     		pop	{r3, r4, r5, r6, r7, pc}
 454              	.LVL61:
 455              	.L38:
 456 003a 0546     		mov	r5, r0
 457              	.LBE24:
 438:..\..\..\arduinoLCD\test\Pain Drain\libraries\lvgl\src\core/lv_obj_tree.c ****     }
 439:..\..\..\arduinoLCD\test\Pain Drain\libraries\lvgl\src\core/lv_obj_tree.c **** 
 440:..\..\..\arduinoLCD\test\Pain Drain\libraries\lvgl\src\core/lv_obj_tree.c ****     res = cb(obj, user_data);
 458              		.loc 1 440 0
 459 003c 1146     		mov	r1, r2
 460              	.LVL62:
 461 003e B047     		blx	r6
 462              	.LVL63:
 441:..\..\..\arduinoLCD\test\Pain Drain\libraries\lvgl\src\core/lv_obj_tree.c **** 
 442:..\..\..\arduinoLCD\test\Pain Drain\libraries\lvgl\src\core/lv_obj_tree.c ****     if(res == LV_OBJ_TREE_WALK_END) return LV_OBJ_TREE_WALK_END;
 463              		.loc 1 442 0
 464 0040 0228     		cmp	r0, #2
 465 0042 17D0     		beq	.L46
 443:..\..\..\arduinoLCD\test\Pain Drain\libraries\lvgl\src\core/lv_obj_tree.c **** 
 444:..\..\..\arduinoLCD\test\Pain Drain\libraries\lvgl\src\core/lv_obj_tree.c ****     if(res != LV_OBJ_TREE_WALK_SKIP_CHILDREN) {
 466              		.loc 1 444 0
 467 0044 0128     		cmp	r0, #1
 468 0046 0DD1     		bne	.L47
 445:..\..\..\arduinoLCD\test\Pain Drain\libraries\lvgl\src\core/lv_obj_tree.c ****         uint32_t i;
 446:..\..\..\arduinoLCD\test\Pain Drain\libraries\lvgl\src\core/lv_obj_tree.c ****         for(i = 0; i < lv_obj_get_child_cnt(obj); i++) {
 447:..\..\..\arduinoLCD\test\Pain Drain\libraries\lvgl\src\core/lv_obj_tree.c ****             res = walk_core(lv_obj_get_child(obj, i), cb, user_data);
 448:..\..\..\arduinoLCD\test\Pain Drain\libraries\lvgl\src\core/lv_obj_tree.c ****             if(res == LV_OBJ_TREE_WALK_END) return LV_OBJ_TREE_WALK_END;
 449:..\..\..\arduinoLCD\test\Pain Drain\libraries\lvgl\src\core/lv_obj_tree.c ****         }
 450:..\..\..\arduinoLCD\test\Pain Drain\libraries\lvgl\src\core/lv_obj_tree.c ****     }
 451:..\..\..\arduinoLCD\test\Pain Drain\libraries\lvgl\src\core/lv_obj_tree.c ****     return LV_OBJ_TREE_WALK_NEXT;
 469              		.loc 1 451 0
 470 0048 0020     		movs	r0, #0
 471              	.LVL64:
 472 004a F8BD     		pop	{r3, r4, r5, r6, r7, pc}
 473              	.LVL65:
 474              	.L44:
 475              	.LBB27:
 447:..\..\..\arduinoLCD\test\Pain Drain\libraries\lvgl\src\core/lv_obj_tree.c ****             if(res == LV_OBJ_TREE_WALK_END) return LV_OBJ_TREE_WALK_END;
 476              		.loc 1 447 0
 477 004c 2146     		mov	r1, r4
 478 004e 2846     		mov	r0, r5
 479 0050 FFF7FEFF 		bl	lv_obj_get_child
 480              	.LVL66:
 481 0054 3A46     		mov	r2, r7
 482 0056 3146     		mov	r1, r6
 483 0058 FFF7D2FF 		bl	walk_core
 484              	.LVL67:
 448:..\..\..\arduinoLCD\test\Pain Drain\libraries\lvgl\src\core/lv_obj_tree.c ****         }
 485              		.loc 1 448 0
 486 005c 0228     		cmp	r0, #2
 487 005e 0BD0     		beq	.L48
 446:..\..\..\arduinoLCD\test\Pain Drain\libraries\lvgl\src\core/lv_obj_tree.c ****             res = walk_core(lv_obj_get_child(obj, i), cb, user_data);
 488              		.loc 1 446 0 discriminator 2
 489 0060 0134     		adds	r4, r4, #1
 490              	.LVL68:
 491 0062 00E0     		b	.L43
ARM GAS  C:\Users\haske\AppData\Local\Temp\ccFGJ08j.s 			page 22


 492              	.LVL69:
 493              	.L47:
 494              	.LBE27:
 495 0064 0024     		movs	r4, #0
 496              	.L43:
 497              	.LVL70:
 498              	.LBB28:
 446:..\..\..\arduinoLCD\test\Pain Drain\libraries\lvgl\src\core/lv_obj_tree.c ****             res = walk_core(lv_obj_get_child(obj, i), cb, user_data);
 499              		.loc 1 446 0 is_stmt 0 discriminator 1
 500 0066 2846     		mov	r0, r5
 501              	.LVL71:
 502 0068 FFF7FEFF 		bl	lv_obj_get_child_cnt
 503              	.LVL72:
 504 006c 8442     		cmp	r4, r0
 505 006e EDD3     		bcc	.L44
 506              	.LBE28:
 507              		.loc 1 451 0 is_stmt 1
 508 0070 0020     		movs	r0, #0
 509              	.LBB29:
 510 0072 F8BD     		pop	{r3, r4, r5, r6, r7, pc}
 511              	.LVL73:
 512              	.L46:
 513              	.LBE29:
 442:..\..\..\arduinoLCD\test\Pain Drain\libraries\lvgl\src\core/lv_obj_tree.c **** 
 514              		.loc 1 442 0
 515 0074 0220     		movs	r0, #2
 516              	.LVL74:
 517 0076 F8BD     		pop	{r3, r4, r5, r6, r7, pc}
 518              	.LVL75:
 519              	.L48:
 520              	.LBB30:
 448:..\..\..\arduinoLCD\test\Pain Drain\libraries\lvgl\src\core/lv_obj_tree.c ****         }
 521              		.loc 1 448 0
 522 0078 0220     		movs	r0, #2
 523              	.LVL76:
 524              	.LBE30:
 452:..\..\..\arduinoLCD\test\Pain Drain\libraries\lvgl\src\core/lv_obj_tree.c **** }
 525              		.loc 1 452 0
 526 007a F8BD     		pop	{r3, r4, r5, r6, r7, pc}
 527              		.cfi_endproc
 528              	.LFE176:
 529              		.size	walk_core, .-walk_core
 530              		.section	.text.lv_obj_get_index,"ax",%progbits
 531              		.align	2
 532              		.global	lv_obj_get_index
 533              		.thumb
 534              		.thumb_func
 535              		.type	lv_obj_get_index, %function
 536              	lv_obj_get_index:
 537              	.LFB172:
 327:..\..\..\arduinoLCD\test\Pain Drain\libraries\lvgl\src\core/lv_obj_tree.c ****     LV_ASSERT_OBJ(obj, MY_CLASS);
 538              		.loc 1 327 0
 539              		.cfi_startproc
 540              		@ args = 0, pretend = 0, frame = 0
 541              		@ frame_needed = 0, uses_anonymous_args = 0
 542              	.LVL77:
 543 0000 70B5     		push	{r4, r5, r6, lr}
ARM GAS  C:\Users\haske\AppData\Local\Temp\ccFGJ08j.s 			page 23


 544              		.cfi_def_cfa_offset 16
 545              		.cfi_offset 4, -16
 546              		.cfi_offset 5, -12
 547              		.cfi_offset 6, -8
 548              		.cfi_offset 14, -4
 549 0002 0646     		mov	r6, r0
 330:..\..\..\arduinoLCD\test\Pain Drain\libraries\lvgl\src\core/lv_obj_tree.c ****     if(parent == NULL) return 0;
 550              		.loc 1 330 0
 551 0004 FFF7FEFF 		bl	lv_obj_get_parent
 552              	.LVL78:
 331:..\..\..\arduinoLCD\test\Pain Drain\libraries\lvgl\src\core/lv_obj_tree.c **** 
 553              		.loc 1 331 0
 554 0008 88B1     		cbz	r0, .L54
 555 000a 0546     		mov	r5, r0
 556 000c 0024     		movs	r4, #0
 557 000e 06E0     		b	.L52
 558              	.LVL79:
 559              	.L53:
 335:..\..\..\arduinoLCD\test\Pain Drain\libraries\lvgl\src\core/lv_obj_tree.c ****     }
 560              		.loc 1 335 0
 561 0010 2146     		mov	r1, r4
 562 0012 2846     		mov	r0, r5
 563 0014 FFF7FEFF 		bl	lv_obj_get_child
 564              	.LVL80:
 565 0018 8642     		cmp	r6, r0
 566 001a 0AD0     		beq	.L55
 334:..\..\..\arduinoLCD\test\Pain Drain\libraries\lvgl\src\core/lv_obj_tree.c ****         if(lv_obj_get_child(parent, i) == obj) return i;
 567              		.loc 1 334 0 discriminator 2
 568 001c 0134     		adds	r4, r4, #1
 569              	.LVL81:
 570              	.L52:
 334:..\..\..\arduinoLCD\test\Pain Drain\libraries\lvgl\src\core/lv_obj_tree.c ****         if(lv_obj_get_child(parent, i) == obj) return i;
 571              		.loc 1 334 0 is_stmt 0 discriminator 1
 572 001e 2846     		mov	r0, r5
 573 0020 FFF7FEFF 		bl	lv_obj_get_child_cnt
 574              	.LVL82:
 575 0024 8442     		cmp	r4, r0
 576 0026 F3D3     		bcc	.L53
 338:..\..\..\arduinoLCD\test\Pain Drain\libraries\lvgl\src\core/lv_obj_tree.c **** }
 577              		.loc 1 338 0 is_stmt 1
 578 0028 4FF0FF30 		mov	r0, #-1
 579 002c 70BD     		pop	{r4, r5, r6, pc}
 580              	.LVL83:
 581              	.L54:
 331:..\..\..\arduinoLCD\test\Pain Drain\libraries\lvgl\src\core/lv_obj_tree.c **** 
 582              		.loc 1 331 0
 583 002e 0020     		movs	r0, #0
 584              	.LVL84:
 585 0030 70BD     		pop	{r4, r5, r6, pc}
 586              	.LVL85:
 587              	.L55:
 335:..\..\..\arduinoLCD\test\Pain Drain\libraries\lvgl\src\core/lv_obj_tree.c ****     }
 588              		.loc 1 335 0
 589 0032 2046     		mov	r0, r4
 339:..\..\..\arduinoLCD\test\Pain Drain\libraries\lvgl\src\core/lv_obj_tree.c **** 
 590              		.loc 1 339 0
 591 0034 70BD     		pop	{r4, r5, r6, pc}
ARM GAS  C:\Users\haske\AppData\Local\Temp\ccFGJ08j.s 			page 24


 592              		.cfi_endproc
 593              	.LFE172:
 594              		.size	lv_obj_get_index, .-lv_obj_get_index
 595 0036 00BF     		.section	.text.obj_del_core,"ax",%progbits
 596              		.align	2
 597              		.thumb
 598              		.thumb_func
 599              		.type	obj_del_core, %function
 600              	obj_del_core:
 601              	.LFB175:
 358:..\..\..\arduinoLCD\test\Pain Drain\libraries\lvgl\src\core/lv_obj_tree.c ****     /*Let the user free the resources used in `LV_EVENT_DELETE`*/
 602              		.loc 1 358 0
 603              		.cfi_startproc
 604              		@ args = 0, pretend = 0, frame = 0
 605              		@ frame_needed = 0, uses_anonymous_args = 0
 606              	.LVL86:
 607 0000 70B5     		push	{r4, r5, r6, lr}
 608              		.cfi_def_cfa_offset 16
 609              		.cfi_offset 4, -16
 610              		.cfi_offset 5, -12
 611              		.cfi_offset 6, -8
 612              		.cfi_offset 14, -4
 613 0002 0546     		mov	r5, r0
 360:..\..\..\arduinoLCD\test\Pain Drain\libraries\lvgl\src\core/lv_obj_tree.c ****     if(res == LV_RES_INV) return;
 614              		.loc 1 360 0
 615 0004 0022     		movs	r2, #0
 616 0006 2121     		movs	r1, #33
 617 0008 FFF7FEFF 		bl	lv_event_send
 618              	.LVL87:
 361:..\..\..\arduinoLCD\test\Pain Drain\libraries\lvgl\src\core/lv_obj_tree.c **** 
 619              		.loc 1 361 0
 620 000c 0028     		cmp	r0, #0
 621 000e 77D0     		beq	.L57
 364:..\..\..\arduinoLCD\test\Pain Drain\libraries\lvgl\src\core/lv_obj_tree.c ****     while(child) {
 622              		.loc 1 364 0
 623 0010 0021     		movs	r1, #0
 624 0012 2846     		mov	r0, r5
 625              	.LVL88:
 626 0014 FFF7FEFF 		bl	lv_obj_get_child
 627              	.LVL89:
 365:..\..\..\arduinoLCD\test\Pain Drain\libraries\lvgl\src\core/lv_obj_tree.c ****         obj_del_core(child);
 628              		.loc 1 365 0
 629 0018 05E0     		b	.L59
 630              	.L60:
 366:..\..\..\arduinoLCD\test\Pain Drain\libraries\lvgl\src\core/lv_obj_tree.c ****         child = lv_obj_get_child(obj, 0);
 631              		.loc 1 366 0
 632 001a FFF7F1FF 		bl	obj_del_core
 633              	.LVL90:
 367:..\..\..\arduinoLCD\test\Pain Drain\libraries\lvgl\src\core/lv_obj_tree.c ****     }
 634              		.loc 1 367 0
 635 001e 0021     		movs	r1, #0
 636 0020 2846     		mov	r0, r5
 637 0022 FFF7FEFF 		bl	lv_obj_get_child
 638              	.LVL91:
 639              	.L59:
 365:..\..\..\arduinoLCD\test\Pain Drain\libraries\lvgl\src\core/lv_obj_tree.c ****         obj_del_core(child);
 640              		.loc 1 365 0
ARM GAS  C:\Users\haske\AppData\Local\Temp\ccFGJ08j.s 			page 25


 641 0026 0028     		cmp	r0, #0
 642 0028 F7D1     		bne	.L60
 370:..\..\..\arduinoLCD\test\Pain Drain\libraries\lvgl\src\core/lv_obj_tree.c **** 
 643              		.loc 1 370 0
 644 002a 2846     		mov	r0, r5
 645              	.LVL92:
 646 002c FFF7FEFF 		bl	lv_obj_get_group
 647              	.LVL93:
 648 0030 0646     		mov	r6, r0
 649              	.LVL94:
 373:..\..\..\arduinoLCD\test\Pain Drain\libraries\lvgl\src\core/lv_obj_tree.c ****     while(indev) {
 650              		.loc 1 373 0
 651 0032 0020     		movs	r0, #0
 652              	.LVL95:
 653 0034 FFF7FEFF 		bl	lv_indev_get_next
 654              	.LVL96:
 655 0038 0446     		mov	r4, r0
 656              	.LVL97:
 374:..\..\..\arduinoLCD\test\Pain Drain\libraries\lvgl\src\core/lv_obj_tree.c ****         if(indev->proc.types.pointer.act_obj == obj || indev->proc.types.pointer.last_obj == obj) {
 657              		.loc 1 374 0
 658 003a 1DE0     		b	.L61
 659              	.L66:
 375:..\..\..\arduinoLCD\test\Pain Drain\libraries\lvgl\src\core/lv_obj_tree.c ****             lv_indev_reset(indev, obj);
 660              		.loc 1 375 0
 661 003c A36A     		ldr	r3, [r4, #40]
 662 003e 9D42     		cmp	r5, r3
 663 0040 02D0     		beq	.L62
 375:..\..\..\arduinoLCD\test\Pain Drain\libraries\lvgl\src\core/lv_obj_tree.c ****             lv_indev_reset(indev, obj);
 664              		.loc 1 375 0 is_stmt 0 discriminator 1
 665 0042 E36A     		ldr	r3, [r4, #44]
 666 0044 9D42     		cmp	r5, r3
 667 0046 03D1     		bne	.L63
 668              	.L62:
 376:..\..\..\arduinoLCD\test\Pain Drain\libraries\lvgl\src\core/lv_obj_tree.c ****         }
 669              		.loc 1 376 0 is_stmt 1
 670 0048 2946     		mov	r1, r5
 671 004a 2046     		mov	r0, r4
 672              	.LVL98:
 673 004c FFF7FEFF 		bl	lv_indev_reset
 674              	.LVL99:
 675              	.L63:
 378:..\..\..\arduinoLCD\test\Pain Drain\libraries\lvgl\src\core/lv_obj_tree.c ****             indev->proc.types.pointer.last_pressed = NULL;
 676              		.loc 1 378 0
 677 0050 636B     		ldr	r3, [r4, #52]
 678 0052 9D42     		cmp	r5, r3
 679 0054 01D1     		bne	.L64
 379:..\..\..\arduinoLCD\test\Pain Drain\libraries\lvgl\src\core/lv_obj_tree.c ****         }
 680              		.loc 1 379 0
 681 0056 0023     		movs	r3, #0
 682 0058 6363     		str	r3, [r4, #52]
 683              	.L64:
 382:..\..\..\arduinoLCD\test\Pain Drain\libraries\lvgl\src\core/lv_obj_tree.c ****             lv_indev_reset(indev, obj);
 684              		.loc 1 382 0
 685 005a 636D     		ldr	r3, [r4, #84]
 686 005c 9E42     		cmp	r6, r3
 687 005e 07D1     		bne	.L65
 382:..\..\..\arduinoLCD\test\Pain Drain\libraries\lvgl\src\core/lv_obj_tree.c ****             lv_indev_reset(indev, obj);
ARM GAS  C:\Users\haske\AppData\Local\Temp\ccFGJ08j.s 			page 26


 688              		.loc 1 382 0 is_stmt 0 discriminator 1
 689 0060 FFF7FEFF 		bl	lv_indev_get_obj_act
 690              	.LVL100:
 691 0064 8542     		cmp	r5, r0
 692 0066 03D1     		bne	.L65
 383:..\..\..\arduinoLCD\test\Pain Drain\libraries\lvgl\src\core/lv_obj_tree.c ****         }
 693              		.loc 1 383 0 is_stmt 1
 694 0068 2946     		mov	r1, r5
 695 006a 2046     		mov	r0, r4
 696 006c FFF7FEFF 		bl	lv_indev_reset
 697              	.LVL101:
 698              	.L65:
 385:..\..\..\arduinoLCD\test\Pain Drain\libraries\lvgl\src\core/lv_obj_tree.c ****     }
 699              		.loc 1 385 0
 700 0070 2046     		mov	r0, r4
 701 0072 FFF7FEFF 		bl	lv_indev_get_next
 702              	.LVL102:
 703 0076 0446     		mov	r4, r0
 704              	.LVL103:
 705              	.L61:
 374:..\..\..\arduinoLCD\test\Pain Drain\libraries\lvgl\src\core/lv_obj_tree.c ****         if(indev->proc.types.pointer.act_obj == obj || indev->proc.types.pointer.last_obj == obj) {
 706              		.loc 1 374 0
 707 0078 002C     		cmp	r4, #0
 708 007a DFD1     		bne	.L66
 389:..\..\..\arduinoLCD\test\Pain Drain\libraries\lvgl\src\core/lv_obj_tree.c **** 
 709              		.loc 1 389 0
 710 007c 2846     		mov	r0, r5
 711              	.LVL104:
 712 007e FFF7FEFF 		bl	_lv_obj_destruct
 713              	.LVL105:
 392:..\..\..\arduinoLCD\test\Pain Drain\libraries\lvgl\src\core/lv_obj_tree.c ****         lv_disp_t * disp = lv_obj_get_disp(obj);
 714              		.loc 1 392 0
 715 0082 6B68     		ldr	r3, [r5, #4]
 716 0084 03BB     		cbnz	r3, .L67
 717              	.LBB31:
 393:..\..\..\arduinoLCD\test\Pain Drain\libraries\lvgl\src\core/lv_obj_tree.c ****         uint32_t i;
 718              		.loc 1 393 0
 719 0086 2846     		mov	r0, r5
 720 0088 FFF7FEFF 		bl	lv_obj_get_disp
 721              	.LVL106:
 722 008c 0446     		mov	r4, r0
 723              	.LVL107:
 396:..\..\..\arduinoLCD\test\Pain Drain\libraries\lvgl\src\core/lv_obj_tree.c ****             if(disp->screens[i] == obj) break;
 724              		.loc 1 396 0
 725 008e 0023     		movs	r3, #0
 726 0090 05E0     		b	.L68
 727              	.LVL108:
 728              	.L70:
 397:..\..\..\arduinoLCD\test\Pain Drain\libraries\lvgl\src\core/lv_obj_tree.c ****         }
 729              		.loc 1 397 0
 730 0092 E268     		ldr	r2, [r4, #12]
 731 0094 52F82320 		ldr	r2, [r2, r3, lsl #2]
 732 0098 9542     		cmp	r5, r2
 733 009a 0AD0     		beq	.L69
 396:..\..\..\arduinoLCD\test\Pain Drain\libraries\lvgl\src\core/lv_obj_tree.c ****             if(disp->screens[i] == obj) break;
 734              		.loc 1 396 0 discriminator 2
 735 009c 0133     		adds	r3, r3, #1
ARM GAS  C:\Users\haske\AppData\Local\Temp\ccFGJ08j.s 			page 27


 736              	.LVL109:
 737              	.L68:
 396:..\..\..\arduinoLCD\test\Pain Drain\libraries\lvgl\src\core/lv_obj_tree.c ****             if(disp->screens[i] == obj) break;
 738              		.loc 1 396 0 is_stmt 0 discriminator 1
 739 009e 626A     		ldr	r2, [r4, #36]
 740 00a0 9342     		cmp	r3, r2
 741 00a2 F6D3     		bcc	.L70
 742 00a4 05E0     		b	.L69
 743              	.LVL110:
 744              	.L71:
 402:..\..\..\arduinoLCD\test\Pain Drain\libraries\lvgl\src\core/lv_obj_tree.c ****         }
 745              		.loc 1 402 0 is_stmt 1 discriminator 3
 746 00a6 E268     		ldr	r2, [r4, #12]
 747 00a8 9900     		lsls	r1, r3, #2
 748 00aa 0133     		adds	r3, r3, #1
 749              	.LVL111:
 750 00ac 52F82300 		ldr	r0, [r2, r3, lsl #2]
 751 00b0 5050     		str	r0, [r2, r1]
 752              	.LVL112:
 753              	.L69:
 401:..\..\..\arduinoLCD\test\Pain Drain\libraries\lvgl\src\core/lv_obj_tree.c ****             disp->screens[i] = disp->screens[i + 1];
 754              		.loc 1 401 0 discriminator 1
 755 00b2 616A     		ldr	r1, [r4, #36]
 756 00b4 0139     		subs	r1, r1, #1
 757 00b6 8B42     		cmp	r3, r1
 758 00b8 F5D3     		bcc	.L71
 404:..\..\..\arduinoLCD\test\Pain Drain\libraries\lvgl\src\core/lv_obj_tree.c ****         disp->screens = lv_mem_realloc(disp->screens, disp->screen_cnt * sizeof(lv_obj_t *));
 759              		.loc 1 404 0
 760 00ba 6162     		str	r1, [r4, #36]
 405:..\..\..\arduinoLCD\test\Pain Drain\libraries\lvgl\src\core/lv_obj_tree.c ****     }
 761              		.loc 1 405 0
 762 00bc 8900     		lsls	r1, r1, #2
 763 00be E068     		ldr	r0, [r4, #12]
 764 00c0 FFF7FEFF 		bl	lv_mem_realloc
 765              	.LVL113:
 766 00c4 E060     		str	r0, [r4, #12]
 767              	.LBE31:
 768 00c6 18E0     		b	.L72
 769              	.LVL114:
 770              	.L67:
 771              	.LBB32:
 409:..\..\..\arduinoLCD\test\Pain Drain\libraries\lvgl\src\core/lv_obj_tree.c ****         uint32_t i;
 772              		.loc 1 409 0
 773 00c8 2846     		mov	r0, r5
 774 00ca FFF7FEFF 		bl	lv_obj_get_index
 775              	.LVL115:
 411:..\..\..\arduinoLCD\test\Pain Drain\libraries\lvgl\src\core/lv_obj_tree.c ****             obj->parent->spec_attr->children[i] = obj->parent->spec_attr->children[i + 1];
 776              		.loc 1 411 0
 777 00ce 05E0     		b	.L73
 778              	.LVL116:
 779              	.L74:
 412:..\..\..\arduinoLCD\test\Pain Drain\libraries\lvgl\src\core/lv_obj_tree.c ****         }
 780              		.loc 1 412 0 discriminator 3
 781 00d0 1368     		ldr	r3, [r2]
 782 00d2 8200     		lsls	r2, r0, #2
 783 00d4 0130     		adds	r0, r0, #1
 784              	.LVL117:
ARM GAS  C:\Users\haske\AppData\Local\Temp\ccFGJ08j.s 			page 28


 785 00d6 53F82010 		ldr	r1, [r3, r0, lsl #2]
 786 00da 9950     		str	r1, [r3, r2]
 787              	.LVL118:
 788              	.L73:
 411:..\..\..\arduinoLCD\test\Pain Drain\libraries\lvgl\src\core/lv_obj_tree.c ****             obj->parent->spec_attr->children[i] = obj->parent->spec_attr->children[i + 1];
 789              		.loc 1 411 0 discriminator 1
 790 00dc 6B68     		ldr	r3, [r5, #4]
 791 00de 9A68     		ldr	r2, [r3, #8]
 792 00e0 5368     		ldr	r3, [r2, #4]
 793 00e2 013B     		subs	r3, r3, #1
 794 00e4 9842     		cmp	r0, r3
 795 00e6 F3D3     		bcc	.L74
 414:..\..\..\arduinoLCD\test\Pain Drain\libraries\lvgl\src\core/lv_obj_tree.c ****         obj->parent->spec_attr->children = lv_mem_realloc(obj->parent->spec_attr->children,
 796              		.loc 1 414 0
 797 00e8 5360     		str	r3, [r2, #4]
 415:..\..\..\arduinoLCD\test\Pain Drain\libraries\lvgl\src\core/lv_obj_tree.c ****                                                           obj->parent->spec_attr->child_cnt * sizeo
 798              		.loc 1 415 0
 799 00ea 6B68     		ldr	r3, [r5, #4]
 800 00ec 9C68     		ldr	r4, [r3, #8]
 801              	.LVL119:
 416:..\..\..\arduinoLCD\test\Pain Drain\libraries\lvgl\src\core/lv_obj_tree.c ****     }
 802              		.loc 1 416 0
 803 00ee 6168     		ldr	r1, [r4, #4]
 415:..\..\..\arduinoLCD\test\Pain Drain\libraries\lvgl\src\core/lv_obj_tree.c ****                                                           obj->parent->spec_attr->child_cnt * sizeo
 804              		.loc 1 415 0
 805 00f0 8900     		lsls	r1, r1, #2
 806 00f2 2068     		ldr	r0, [r4]
 807              	.LVL120:
 808 00f4 FFF7FEFF 		bl	lv_mem_realloc
 809              	.LVL121:
 810 00f8 2060     		str	r0, [r4]
 811              	.L72:
 812              	.LBE32:
 420:..\..\..\arduinoLCD\test\Pain Drain\libraries\lvgl\src\core/lv_obj_tree.c **** }
 813              		.loc 1 420 0
 814 00fa 2846     		mov	r0, r5
 815 00fc FFF7FEFF 		bl	lv_mem_free
 816              	.LVL122:
 817              	.L57:
 818 0100 70BD     		pop	{r4, r5, r6, pc}
 819              		.cfi_endproc
 820              	.LFE175:
 821              		.size	obj_del_core, .-obj_del_core
 822 0102 00BF     		.section	.text.lv_obj_del,"ax",%progbits
 823              		.align	2
 824              		.global	lv_obj_del
 825              		.thumb
 826              		.thumb_func
 827              		.type	lv_obj_del, %function
 828              	lv_obj_del:
 829              	.LFB159:
  46:..\..\..\arduinoLCD\test\Pain Drain\libraries\lvgl\src\core/lv_obj_tree.c ****     LV_LOG_TRACE("begin (delete %p)", (void *)obj);
 830              		.loc 1 46 0
 831              		.cfi_startproc
 832              		@ args = 0, pretend = 0, frame = 0
 833              		@ frame_needed = 0, uses_anonymous_args = 0
 834              	.LVL123:
ARM GAS  C:\Users\haske\AppData\Local\Temp\ccFGJ08j.s 			page 29


 835 0000 F8B5     		push	{r3, r4, r5, r6, r7, lr}
 836              		.cfi_def_cfa_offset 24
 837              		.cfi_offset 3, -24
 838              		.cfi_offset 4, -20
 839              		.cfi_offset 5, -16
 840              		.cfi_offset 6, -12
 841              		.cfi_offset 7, -8
 842              		.cfi_offset 14, -4
 843 0002 0546     		mov	r5, r0
  49:..\..\..\arduinoLCD\test\Pain Drain\libraries\lvgl\src\core/lv_obj_tree.c **** 
 844              		.loc 1 49 0
 845 0004 FFF7FEFF 		bl	lv_obj_invalidate
 846              	.LVL124:
  51:..\..\..\arduinoLCD\test\Pain Drain\libraries\lvgl\src\core/lv_obj_tree.c ****     if(par) {
 847              		.loc 1 51 0
 848 0008 2846     		mov	r0, r5
 849 000a FFF7FEFF 		bl	lv_obj_get_parent
 850              	.LVL125:
  52:..\..\..\arduinoLCD\test\Pain Drain\libraries\lvgl\src\core/lv_obj_tree.c ****         lv_obj_scrollbar_invalidate(par);
 851              		.loc 1 52 0
 852 000e 0446     		mov	r4, r0
 853 0010 08B1     		cbz	r0, .L77
  53:..\..\..\arduinoLCD\test\Pain Drain\libraries\lvgl\src\core/lv_obj_tree.c ****     }
 854              		.loc 1 53 0
 855 0012 FFF7FEFF 		bl	lv_obj_scrollbar_invalidate
 856              	.LVL126:
 857              	.L77:
  58:..\..\..\arduinoLCD\test\Pain Drain\libraries\lvgl\src\core/lv_obj_tree.c ****         disp = lv_obj_get_disp(obj);
 858              		.loc 1 58 0
 859 0016 4CB9     		cbnz	r4, .L81
  59:..\..\..\arduinoLCD\test\Pain Drain\libraries\lvgl\src\core/lv_obj_tree.c ****         if(!disp) return;   /*Shouldn't happen*/
 860              		.loc 1 59 0
 861 0018 2846     		mov	r0, r5
 862 001a FFF7FEFF 		bl	lv_obj_get_disp
 863              	.LVL127:
  60:..\..\..\arduinoLCD\test\Pain Drain\libraries\lvgl\src\core/lv_obj_tree.c ****         if(disp->act_scr == obj) act_scr_del = true;
 864              		.loc 1 60 0
 865 001e 0746     		mov	r7, r0
 866 0020 18B3     		cbz	r0, .L76
  61:..\..\..\arduinoLCD\test\Pain Drain\libraries\lvgl\src\core/lv_obj_tree.c ****     }
 867              		.loc 1 61 0
 868 0022 0369     		ldr	r3, [r0, #16]
 869 0024 9D42     		cmp	r5, r3
 870 0026 04D0     		beq	.L82
  57:..\..\..\arduinoLCD\test\Pain Drain\libraries\lvgl\src\core/lv_obj_tree.c ****     if(par == NULL) {
 871              		.loc 1 57 0
 872 0028 0026     		movs	r6, #0
 873 002a 03E0     		b	.L78
 874              	.LVL128:
 875              	.L81:
 876 002c 0026     		movs	r6, #0
  56:..\..\..\arduinoLCD\test\Pain Drain\libraries\lvgl\src\core/lv_obj_tree.c ****     bool act_scr_del = false;
 877              		.loc 1 56 0
 878 002e 3746     		mov	r7, r6
 879 0030 00E0     		b	.L78
 880              	.LVL129:
 881              	.L82:
ARM GAS  C:\Users\haske\AppData\Local\Temp\ccFGJ08j.s 			page 30


  61:..\..\..\arduinoLCD\test\Pain Drain\libraries\lvgl\src\core/lv_obj_tree.c ****     }
 882              		.loc 1 61 0
 883 0032 0126     		movs	r6, #1
 884              	.LVL130:
 885              	.L78:
  64:..\..\..\arduinoLCD\test\Pain Drain\libraries\lvgl\src\core/lv_obj_tree.c **** 
 886              		.loc 1 64 0
 887 0034 2846     		mov	r0, r5
 888 0036 FFF7FEFF 		bl	obj_del_core
 889              	.LVL131:
  67:..\..\..\arduinoLCD\test\Pain Drain\libraries\lvgl\src\core/lv_obj_tree.c ****         lv_obj_update_layout(par);
 890              		.loc 1 67 0
 891 003a 9CB1     		cbz	r4, .L80
  68:..\..\..\arduinoLCD\test\Pain Drain\libraries\lvgl\src\core/lv_obj_tree.c ****         lv_obj_readjust_scroll(par, LV_ANIM_OFF);
 892              		.loc 1 68 0
 893 003c 2046     		mov	r0, r4
 894 003e FFF7FEFF 		bl	lv_obj_update_layout
 895              	.LVL132:
  69:..\..\..\arduinoLCD\test\Pain Drain\libraries\lvgl\src\core/lv_obj_tree.c ****         lv_obj_scrollbar_invalidate(par);
 896              		.loc 1 69 0
 897 0042 0021     		movs	r1, #0
 898 0044 2046     		mov	r0, r4
 899 0046 FFF7FEFF 		bl	lv_obj_readjust_scroll
 900              	.LVL133:
  70:..\..\..\arduinoLCD\test\Pain Drain\libraries\lvgl\src\core/lv_obj_tree.c ****         lv_event_send(par, LV_EVENT_CHILD_CHANGED, NULL);
 901              		.loc 1 70 0
 902 004a 2046     		mov	r0, r4
 903 004c FFF7FEFF 		bl	lv_obj_scrollbar_invalidate
 904              	.LVL134:
  71:..\..\..\arduinoLCD\test\Pain Drain\libraries\lvgl\src\core/lv_obj_tree.c ****         lv_event_send(par, LV_EVENT_CHILD_DELETED, NULL);
 905              		.loc 1 71 0
 906 0050 0022     		movs	r2, #0
 907 0052 2221     		movs	r1, #34
 908 0054 2046     		mov	r0, r4
 909 0056 FFF7FEFF 		bl	lv_event_send
 910              	.LVL135:
  72:..\..\..\arduinoLCD\test\Pain Drain\libraries\lvgl\src\core/lv_obj_tree.c ****     }
 911              		.loc 1 72 0
 912 005a 0022     		movs	r2, #0
 913 005c 2421     		movs	r1, #36
 914 005e 2046     		mov	r0, r4
 915 0060 FFF7FEFF 		bl	lv_event_send
 916              	.LVL136:
 917              	.L80:
  76:..\..\..\arduinoLCD\test\Pain Drain\libraries\lvgl\src\core/lv_obj_tree.c ****         LV_LOG_WARN("the active screen was deleted");
 918              		.loc 1 76 0
 919 0064 0EB1     		cbz	r6, .L76
  78:..\..\..\arduinoLCD\test\Pain Drain\libraries\lvgl\src\core/lv_obj_tree.c ****     }
 920              		.loc 1 78 0
 921 0066 0023     		movs	r3, #0
 922 0068 3B61     		str	r3, [r7, #16]
 923              	.LVL137:
 924              	.L76:
 925 006a F8BD     		pop	{r3, r4, r5, r6, r7, pc}
 926              		.cfi_endproc
 927              	.LFE159:
 928              		.size	lv_obj_del, .-lv_obj_del
ARM GAS  C:\Users\haske\AppData\Local\Temp\ccFGJ08j.s 			page 31


 929              		.section	.text.lv_obj_del_anim_ready_cb,"ax",%progbits
 930              		.align	2
 931              		.global	lv_obj_del_anim_ready_cb
 932              		.thumb
 933              		.thumb_func
 934              		.type	lv_obj_del_anim_ready_cb, %function
 935              	lv_obj_del_anim_ready_cb:
 936              	.LFB162:
 122:..\..\..\arduinoLCD\test\Pain Drain\libraries\lvgl\src\core/lv_obj_tree.c ****     lv_obj_del(a->var);
 937              		.loc 1 122 0
 938              		.cfi_startproc
 939              		@ args = 0, pretend = 0, frame = 0
 940              		@ frame_needed = 0, uses_anonymous_args = 0
 941              	.LVL138:
 942 0000 08B5     		push	{r3, lr}
 943              		.cfi_def_cfa_offset 8
 944              		.cfi_offset 3, -8
 945              		.cfi_offset 14, -4
 123:..\..\..\arduinoLCD\test\Pain Drain\libraries\lvgl\src\core/lv_obj_tree.c **** }
 946              		.loc 1 123 0
 947 0002 0068     		ldr	r0, [r0]
 948              	.LVL139:
 949 0004 FFF7FEFF 		bl	lv_obj_del
 950              	.LVL140:
 951 0008 08BD     		pop	{r3, pc}
 952              		.cfi_endproc
 953              	.LFE162:
 954              		.size	lv_obj_del_anim_ready_cb, .-lv_obj_del_anim_ready_cb
 955 000a 00BF     		.section	.text.lv_obj_del_async_cb,"ax",%progbits
 956              		.align	2
 957              		.thumb
 958              		.thumb_func
 959              		.type	lv_obj_del_async_cb, %function
 960              	lv_obj_del_async_cb:
 961              	.LFB174:
 351:..\..\..\arduinoLCD\test\Pain Drain\libraries\lvgl\src\core/lv_obj_tree.c ****     LV_ASSERT_OBJ(obj, MY_CLASS);
 962              		.loc 1 351 0
 963              		.cfi_startproc
 964              		@ args = 0, pretend = 0, frame = 0
 965              		@ frame_needed = 0, uses_anonymous_args = 0
 966              	.LVL141:
 967 0000 08B5     		push	{r3, lr}
 968              		.cfi_def_cfa_offset 8
 969              		.cfi_offset 3, -8
 970              		.cfi_offset 14, -4
 354:..\..\..\arduinoLCD\test\Pain Drain\libraries\lvgl\src\core/lv_obj_tree.c **** }
 971              		.loc 1 354 0
 972 0002 FFF7FEFF 		bl	lv_obj_del
 973              	.LVL142:
 974 0006 08BD     		pop	{r3, pc}
 975              		.cfi_endproc
 976              	.LFE174:
 977              		.size	lv_obj_del_async_cb, .-lv_obj_del_async_cb
 978              		.section	.text.lv_obj_clean,"ax",%progbits
 979              		.align	2
 980              		.global	lv_obj_clean
 981              		.thumb
ARM GAS  C:\Users\haske\AppData\Local\Temp\ccFGJ08j.s 			page 32


 982              		.thumb_func
 983              		.type	lv_obj_clean, %function
 984              	lv_obj_clean:
 985              	.LFB160:
  86:..\..\..\arduinoLCD\test\Pain Drain\libraries\lvgl\src\core/lv_obj_tree.c ****     LV_LOG_TRACE("begin (delete %p)", (void *)obj);
 986              		.loc 1 86 0
 987              		.cfi_startproc
 988              		@ args = 0, pretend = 0, frame = 0
 989              		@ frame_needed = 0, uses_anonymous_args = 0
 990              	.LVL143:
 991 0000 10B5     		push	{r4, lr}
 992              		.cfi_def_cfa_offset 8
 993              		.cfi_offset 4, -8
 994              		.cfi_offset 14, -4
 995 0002 0446     		mov	r4, r0
  90:..\..\..\arduinoLCD\test\Pain Drain\libraries\lvgl\src\core/lv_obj_tree.c **** 
 996              		.loc 1 90 0
 997 0004 FFF7FEFF 		bl	lv_obj_invalidate
 998              	.LVL144:
  92:..\..\..\arduinoLCD\test\Pain Drain\libraries\lvgl\src\core/lv_obj_tree.c ****     while(child) {
 999              		.loc 1 92 0
 1000 0008 0021     		movs	r1, #0
 1001 000a 2046     		mov	r0, r4
 1002 000c FFF7FEFF 		bl	lv_obj_get_child
 1003              	.LVL145:
  93:..\..\..\arduinoLCD\test\Pain Drain\libraries\lvgl\src\core/lv_obj_tree.c ****         obj_del_core(child);
 1004              		.loc 1 93 0
 1005 0010 05E0     		b	.L89
 1006              	.L90:
  94:..\..\..\arduinoLCD\test\Pain Drain\libraries\lvgl\src\core/lv_obj_tree.c ****         child = lv_obj_get_child(obj, 0);
 1007              		.loc 1 94 0
 1008 0012 FFF7FEFF 		bl	obj_del_core
 1009              	.LVL146:
  95:..\..\..\arduinoLCD\test\Pain Drain\libraries\lvgl\src\core/lv_obj_tree.c ****     }
 1010              		.loc 1 95 0
 1011 0016 0021     		movs	r1, #0
 1012 0018 2046     		mov	r0, r4
 1013 001a FFF7FEFF 		bl	lv_obj_get_child
 1014              	.LVL147:
 1015              	.L89:
  93:..\..\..\arduinoLCD\test\Pain Drain\libraries\lvgl\src\core/lv_obj_tree.c ****         obj_del_core(child);
 1016              		.loc 1 93 0
 1017 001e 0028     		cmp	r0, #0
 1018 0020 F7D1     		bne	.L90
  98:..\..\..\arduinoLCD\test\Pain Drain\libraries\lvgl\src\core/lv_obj_tree.c ****     if(obj->spec_attr) {
 1019              		.loc 1 98 0
 1020 0022 0023     		movs	r3, #0
 1021 0024 1A46     		mov	r2, r3
 1022 0026 1946     		mov	r1, r3
 1023 0028 2046     		mov	r0, r4
 1024              	.LVL148:
 1025 002a FFF7FEFF 		bl	lv_obj_scroll_to
 1026              	.LVL149:
  99:..\..\..\arduinoLCD\test\Pain Drain\libraries\lvgl\src\core/lv_obj_tree.c ****         obj->spec_attr->scroll.x = 0;
 1027              		.loc 1 99 0
 1028 002e A368     		ldr	r3, [r4, #8]
 1029 0030 1BB1     		cbz	r3, .L88
ARM GAS  C:\Users\haske\AppData\Local\Temp\ccFGJ08j.s 			page 33


 100:..\..\..\arduinoLCD\test\Pain Drain\libraries\lvgl\src\core/lv_obj_tree.c ****         obj->spec_attr->scroll.y = 0;
 1030              		.loc 1 100 0
 1031 0032 0022     		movs	r2, #0
 1032 0034 1A82     		strh	r2, [r3, #16]	@ movhi
 101:..\..\..\arduinoLCD\test\Pain Drain\libraries\lvgl\src\core/lv_obj_tree.c ****     }
 1033              		.loc 1 101 0
 1034 0036 A368     		ldr	r3, [r4, #8]
 1035 0038 5A82     		strh	r2, [r3, #18]	@ movhi
 1036              	.L88:
 1037 003a 10BD     		pop	{r4, pc}
 1038              		.cfi_endproc
 1039              	.LFE160:
 1040              		.size	lv_obj_clean, .-lv_obj_clean
 1041              		.section	.text.lv_obj_set_parent,"ax",%progbits
 1042              		.align	2
 1043              		.global	lv_obj_set_parent
 1044              		.thumb
 1045              		.thumb_func
 1046              		.type	lv_obj_set_parent, %function
 1047              	lv_obj_set_parent:
 1048              	.LFB164:
 133:..\..\..\arduinoLCD\test\Pain Drain\libraries\lvgl\src\core/lv_obj_tree.c ****     LV_ASSERT_OBJ(obj, MY_CLASS);
 1049              		.loc 1 133 0
 1050              		.cfi_startproc
 1051              		@ args = 0, pretend = 0, frame = 0
 1052              		@ frame_needed = 0, uses_anonymous_args = 0
 1053              	.LVL150:
 1054 0000 F8B5     		push	{r3, r4, r5, r6, r7, lr}
 1055              		.cfi_def_cfa_offset 24
 1056              		.cfi_offset 3, -24
 1057              		.cfi_offset 4, -20
 1058              		.cfi_offset 5, -16
 1059              		.cfi_offset 6, -12
 1060              		.cfi_offset 7, -8
 1061              		.cfi_offset 14, -4
 137:..\..\..\arduinoLCD\test\Pain Drain\libraries\lvgl\src\core/lv_obj_tree.c ****         LV_LOG_WARN("Can't set the parent of a screen");
 1062              		.loc 1 137 0
 1063 0002 4368     		ldr	r3, [r0, #4]
 1064 0004 002B     		cmp	r3, #0
 1065 0006 66D0     		beq	.L93
 142:..\..\..\arduinoLCD\test\Pain Drain\libraries\lvgl\src\core/lv_obj_tree.c ****         LV_LOG_WARN("Can't set parent == NULL to an object");
 1066              		.loc 1 142 0
 1067 0008 0029     		cmp	r1, #0
 1068 000a 64D0     		beq	.L93
 1069 000c 0E46     		mov	r6, r1
 1070 000e 0746     		mov	r7, r0
 147:..\..\..\arduinoLCD\test\Pain Drain\libraries\lvgl\src\core/lv_obj_tree.c **** 
 1071              		.loc 1 147 0
 1072 0010 FFF7FEFF 		bl	lv_obj_invalidate
 1073              	.LVL151:
 149:..\..\..\arduinoLCD\test\Pain Drain\libraries\lvgl\src\core/lv_obj_tree.c **** 
 1074              		.loc 1 149 0
 1075 0014 3046     		mov	r0, r6
 1076 0016 FFF7FEFF 		bl	lv_obj_allocate_spec_attr
 1077              	.LVL152:
 151:..\..\..\arduinoLCD\test\Pain Drain\libraries\lvgl\src\core/lv_obj_tree.c ****     /*Remove the object from the old parent's child list*/
 1078              		.loc 1 151 0
ARM GAS  C:\Users\haske\AppData\Local\Temp\ccFGJ08j.s 			page 34


 1079 001a 7D68     		ldr	r5, [r7, #4]
 1080              	.LVL153:
 154:..\..\..\arduinoLCD\test\Pain Drain\libraries\lvgl\src\core/lv_obj_tree.c ****         old_parent->spec_attr->children[i] = old_parent->spec_attr->children[i + 1];
 1081              		.loc 1 154 0
 1082 001c 3846     		mov	r0, r7
 1083 001e FFF7FEFF 		bl	lv_obj_get_index
 1084              	.LVL154:
 1085 0022 0446     		mov	r4, r0
 1086              	.LVL155:
 1087 0024 07E0     		b	.L95
 1088              	.LVL156:
 1089              	.L96:
 155:..\..\..\arduinoLCD\test\Pain Drain\libraries\lvgl\src\core/lv_obj_tree.c ****     }
 1090              		.loc 1 155 0 discriminator 3
 1091 0026 AB68     		ldr	r3, [r5, #8]
 1092 0028 1A68     		ldr	r2, [r3]
 1093 002a 631C     		adds	r3, r4, #1
 1094 002c 52F82310 		ldr	r1, [r2, r3, lsl #2]
 1095 0030 42F82410 		str	r1, [r2, r4, lsl #2]
 154:..\..\..\arduinoLCD\test\Pain Drain\libraries\lvgl\src\core/lv_obj_tree.c ****         old_parent->spec_attr->children[i] = old_parent->spec_attr->children[i + 1];
 1096              		.loc 1 154 0 discriminator 3
 1097 0034 1C46     		mov	r4, r3
 1098              	.LVL157:
 1099              	.L95:
 154:..\..\..\arduinoLCD\test\Pain Drain\libraries\lvgl\src\core/lv_obj_tree.c ****         old_parent->spec_attr->children[i] = old_parent->spec_attr->children[i + 1];
 1100              		.loc 1 154 0 is_stmt 0 discriminator 1
 1101 0036 2846     		mov	r0, r5
 1102 0038 FFF7FEFF 		bl	lv_obj_get_child_cnt
 1103              	.LVL158:
 1104 003c 0238     		subs	r0, r0, #2
 1105 003e 8442     		cmp	r4, r0
 1106 0040 F1DD     		ble	.L96
 157:..\..\..\arduinoLCD\test\Pain Drain\libraries\lvgl\src\core/lv_obj_tree.c ****     if(old_parent->spec_attr->child_cnt) {
 1107              		.loc 1 157 0 is_stmt 1
 1108 0042 AA68     		ldr	r2, [r5, #8]
 1109 0044 5368     		ldr	r3, [r2, #4]
 1110 0046 013B     		subs	r3, r3, #1
 1111 0048 5360     		str	r3, [r2, #4]
 158:..\..\..\arduinoLCD\test\Pain Drain\libraries\lvgl\src\core/lv_obj_tree.c ****         old_parent->spec_attr->children = lv_mem_realloc(old_parent->spec_attr->children,
 1112              		.loc 1 158 0
 1113 004a AC68     		ldr	r4, [r5, #8]
 1114              	.LVL159:
 1115 004c 6168     		ldr	r1, [r4, #4]
 1116 004e 29B1     		cbz	r1, .L97
 159:..\..\..\arduinoLCD\test\Pain Drain\libraries\lvgl\src\core/lv_obj_tree.c ****                                                          old_parent->spec_attr->child_cnt * (sizeof
 1117              		.loc 1 159 0
 1118 0050 8900     		lsls	r1, r1, #2
 1119 0052 2068     		ldr	r0, [r4]
 1120 0054 FFF7FEFF 		bl	lv_mem_realloc
 1121              	.LVL160:
 1122 0058 2060     		str	r0, [r4]
 1123 005a 05E0     		b	.L98
 1124              	.L97:
 163:..\..\..\arduinoLCD\test\Pain Drain\libraries\lvgl\src\core/lv_obj_tree.c ****         old_parent->spec_attr->children = NULL;
 1125              		.loc 1 163 0
 1126 005c 2068     		ldr	r0, [r4]
 1127 005e FFF7FEFF 		bl	lv_mem_free
ARM GAS  C:\Users\haske\AppData\Local\Temp\ccFGJ08j.s 			page 35


 1128              	.LVL161:
 164:..\..\..\arduinoLCD\test\Pain Drain\libraries\lvgl\src\core/lv_obj_tree.c ****     }
 1129              		.loc 1 164 0
 1130 0062 AB68     		ldr	r3, [r5, #8]
 1131 0064 0022     		movs	r2, #0
 1132 0066 1A60     		str	r2, [r3]
 1133              	.L98:
 168:..\..\..\arduinoLCD\test\Pain Drain\libraries\lvgl\src\core/lv_obj_tree.c ****     parent->spec_attr->children = lv_mem_realloc(parent->spec_attr->children,
 1134              		.loc 1 168 0
 1135 0068 B268     		ldr	r2, [r6, #8]
 1136 006a 5368     		ldr	r3, [r2, #4]
 1137 006c 0133     		adds	r3, r3, #1
 1138 006e 5360     		str	r3, [r2, #4]
 169:..\..\..\arduinoLCD\test\Pain Drain\libraries\lvgl\src\core/lv_obj_tree.c ****                                                  parent->spec_attr->child_cnt * (sizeof(lv_obj_t *)
 1139              		.loc 1 169 0
 1140 0070 B468     		ldr	r4, [r6, #8]
 170:..\..\..\arduinoLCD\test\Pain Drain\libraries\lvgl\src\core/lv_obj_tree.c ****     parent->spec_attr->children[lv_obj_get_child_cnt(parent) - 1] = obj;
 1141              		.loc 1 170 0
 1142 0072 6168     		ldr	r1, [r4, #4]
 169:..\..\..\arduinoLCD\test\Pain Drain\libraries\lvgl\src\core/lv_obj_tree.c ****                                                  parent->spec_attr->child_cnt * (sizeof(lv_obj_t *)
 1143              		.loc 1 169 0
 1144 0074 8900     		lsls	r1, r1, #2
 1145 0076 2068     		ldr	r0, [r4]
 1146 0078 FFF7FEFF 		bl	lv_mem_realloc
 1147              	.LVL162:
 1148 007c 2060     		str	r0, [r4]
 171:..\..\..\arduinoLCD\test\Pain Drain\libraries\lvgl\src\core/lv_obj_tree.c **** 
 1149              		.loc 1 171 0
 1150 007e B368     		ldr	r3, [r6, #8]
 1151 0080 1C68     		ldr	r4, [r3]
 1152 0082 3046     		mov	r0, r6
 1153 0084 FFF7FEFF 		bl	lv_obj_get_child_cnt
 1154              	.LVL163:
 1155 0088 00F18040 		add	r0, r0, #1073741824
 1156 008c 0138     		subs	r0, r0, #1
 1157 008e 44F82070 		str	r7, [r4, r0, lsl #2]
 173:..\..\..\arduinoLCD\test\Pain Drain\libraries\lvgl\src\core/lv_obj_tree.c **** 
 1158              		.loc 1 173 0
 1159 0092 7E60     		str	r6, [r7, #4]
 176:..\..\..\arduinoLCD\test\Pain Drain\libraries\lvgl\src\core/lv_obj_tree.c ****     lv_obj_scrollbar_invalidate(old_parent);
 1160              		.loc 1 176 0
 1161 0094 0021     		movs	r1, #0
 1162 0096 2846     		mov	r0, r5
 1163 0098 FFF7FEFF 		bl	lv_obj_readjust_scroll
 1164              	.LVL164:
 177:..\..\..\arduinoLCD\test\Pain Drain\libraries\lvgl\src\core/lv_obj_tree.c ****     lv_event_send(old_parent, LV_EVENT_CHILD_CHANGED, obj);
 1165              		.loc 1 177 0
 1166 009c 2846     		mov	r0, r5
 1167 009e FFF7FEFF 		bl	lv_obj_scrollbar_invalidate
 1168              	.LVL165:
 178:..\..\..\arduinoLCD\test\Pain Drain\libraries\lvgl\src\core/lv_obj_tree.c ****     lv_event_send(old_parent, LV_EVENT_CHILD_DELETED, NULL);
 1169              		.loc 1 178 0
 1170 00a2 3A46     		mov	r2, r7
 1171 00a4 2221     		movs	r1, #34
 1172 00a6 2846     		mov	r0, r5
 1173 00a8 FFF7FEFF 		bl	lv_event_send
 1174              	.LVL166:
ARM GAS  C:\Users\haske\AppData\Local\Temp\ccFGJ08j.s 			page 36


 179:..\..\..\arduinoLCD\test\Pain Drain\libraries\lvgl\src\core/lv_obj_tree.c **** 
 1175              		.loc 1 179 0
 1176 00ac 0022     		movs	r2, #0
 1177 00ae 2421     		movs	r1, #36
 1178 00b0 2846     		mov	r0, r5
 1179 00b2 FFF7FEFF 		bl	lv_event_send
 1180              	.LVL167:
 182:..\..\..\arduinoLCD\test\Pain Drain\libraries\lvgl\src\core/lv_obj_tree.c ****     lv_event_send(parent, LV_EVENT_CHILD_CREATED, NULL);
 1181              		.loc 1 182 0
 1182 00b6 3A46     		mov	r2, r7
 1183 00b8 2221     		movs	r1, #34
 1184 00ba 3046     		mov	r0, r6
 1185 00bc FFF7FEFF 		bl	lv_event_send
 1186              	.LVL168:
 183:..\..\..\arduinoLCD\test\Pain Drain\libraries\lvgl\src\core/lv_obj_tree.c **** 
 1187              		.loc 1 183 0
 1188 00c0 0022     		movs	r2, #0
 1189 00c2 2321     		movs	r1, #35
 1190 00c4 3046     		mov	r0, r6
 1191 00c6 FFF7FEFF 		bl	lv_event_send
 1192              	.LVL169:
 185:..\..\..\arduinoLCD\test\Pain Drain\libraries\lvgl\src\core/lv_obj_tree.c **** 
 1193              		.loc 1 185 0
 1194 00ca 3846     		mov	r0, r7
 1195 00cc FFF7FEFF 		bl	lv_obj_mark_layout_as_dirty
 1196              	.LVL170:
 187:..\..\..\arduinoLCD\test\Pain Drain\libraries\lvgl\src\core/lv_obj_tree.c **** }
 1197              		.loc 1 187 0
 1198 00d0 3846     		mov	r0, r7
 1199 00d2 FFF7FEFF 		bl	lv_obj_invalidate
 1200              	.LVL171:
 1201              	.L93:
 1202 00d6 F8BD     		pop	{r3, r4, r5, r6, r7, pc}
 1203              		.cfi_endproc
 1204              	.LFE164:
 1205              		.size	lv_obj_set_parent, .-lv_obj_set_parent
 1206              		.section	.text.lv_obj_move_to_index,"ax",%progbits
 1207              		.align	2
 1208              		.global	lv_obj_move_to_index
 1209              		.thumb
 1210              		.thumb_func
 1211              		.type	lv_obj_move_to_index, %function
 1212              	lv_obj_move_to_index:
 1213              	.LFB165:
 191:..\..\..\arduinoLCD\test\Pain Drain\libraries\lvgl\src\core/lv_obj_tree.c ****     LV_ASSERT_OBJ(obj, MY_CLASS);
 1214              		.loc 1 191 0
 1215              		.cfi_startproc
 1216              		@ args = 0, pretend = 0, frame = 0
 1217              		@ frame_needed = 0, uses_anonymous_args = 0
 1218              	.LVL172:
 1219 0000 F8B5     		push	{r3, r4, r5, r6, r7, lr}
 1220              		.cfi_def_cfa_offset 24
 1221              		.cfi_offset 3, -24
 1222              		.cfi_offset 4, -20
 1223              		.cfi_offset 5, -16
 1224              		.cfi_offset 6, -12
 1225              		.cfi_offset 7, -8
ARM GAS  C:\Users\haske\AppData\Local\Temp\ccFGJ08j.s 			page 37


 1226              		.cfi_offset 14, -4
 1227 0002 0746     		mov	r7, r0
 194:..\..\..\arduinoLCD\test\Pain Drain\libraries\lvgl\src\core/lv_obj_tree.c ****         index = lv_obj_get_child_cnt(lv_obj_get_parent(obj)) + index;
 1228              		.loc 1 194 0
 1229 0004 0D1E     		subs	r5, r1, #0
 1230 0006 04DA     		bge	.L101
 195:..\..\..\arduinoLCD\test\Pain Drain\libraries\lvgl\src\core/lv_obj_tree.c ****     }
 1231              		.loc 1 195 0
 1232 0008 FFF7FEFF 		bl	lv_obj_get_parent
 1233              	.LVL173:
 1234 000c FFF7FEFF 		bl	lv_obj_get_child_cnt
 1235              	.LVL174:
 1236 0010 0544     		add	r5, r5, r0
 1237              	.LVL175:
 1238              	.L101:
 198:..\..\..\arduinoLCD\test\Pain Drain\libraries\lvgl\src\core/lv_obj_tree.c **** 
 1239              		.loc 1 198 0
 1240 0012 3846     		mov	r0, r7
 1241 0014 FFF7FEFF 		bl	lv_obj_get_index
 1242              	.LVL176:
 1243 0018 0446     		mov	r4, r0
 1244              	.LVL177:
 200:..\..\..\arduinoLCD\test\Pain Drain\libraries\lvgl\src\core/lv_obj_tree.c **** 
 1245              		.loc 1 200 0
 1246 001a 3846     		mov	r0, r7
 1247              	.LVL178:
 1248 001c FFF7FEFF 		bl	lv_obj_get_parent
 1249              	.LVL179:
 1250 0020 0646     		mov	r6, r0
 1251              	.LVL180:
 202:..\..\..\arduinoLCD\test\Pain Drain\libraries\lvgl\src\core/lv_obj_tree.c ****     if(index >= (int32_t) lv_obj_get_child_cnt(parent)) return;
 1252              		.loc 1 202 0
 1253 0022 002D     		cmp	r5, #0
 1254 0024 2ADB     		blt	.L100
 203:..\..\..\arduinoLCD\test\Pain Drain\libraries\lvgl\src\core/lv_obj_tree.c ****     if(index == old_index) return;
 1255              		.loc 1 203 0
 1256 0026 FFF7FEFF 		bl	lv_obj_get_child_cnt
 1257              	.LVL181:
 1258 002a 8542     		cmp	r5, r0
 1259 002c 26DA     		bge	.L100
 204:..\..\..\arduinoLCD\test\Pain Drain\libraries\lvgl\src\core/lv_obj_tree.c **** 
 1260              		.loc 1 204 0
 1261 002e A542     		cmp	r5, r4
 1262 0030 24D0     		beq	.L100
 1263              	.LVL182:
 207:..\..\..\arduinoLCD\test\Pain Drain\libraries\lvgl\src\core/lv_obj_tree.c ****         while(i > index)  {
 1264              		.loc 1 207 0
 1265 0032 0ADB     		blt	.L103
 1266 0034 14E0     		b	.L104
 1267              	.LVL183:
 1268              	.L105:
 209:..\..\..\arduinoLCD\test\Pain Drain\libraries\lvgl\src\core/lv_obj_tree.c ****             i--;
 1269              		.loc 1 209 0
 1270 0036 B368     		ldr	r3, [r6, #8]
 1271 0038 1A68     		ldr	r2, [r3]
 1272 003a 04F18043 		add	r3, r4, #1073741824
 1273 003e 013B     		subs	r3, r3, #1
ARM GAS  C:\Users\haske\AppData\Local\Temp\ccFGJ08j.s 			page 38


 1274 0040 52F82330 		ldr	r3, [r2, r3, lsl #2]
 1275 0044 42F82430 		str	r3, [r2, r4, lsl #2]
 210:..\..\..\arduinoLCD\test\Pain Drain\libraries\lvgl\src\core/lv_obj_tree.c ****         }
 1276              		.loc 1 210 0
 1277 0048 013C     		subs	r4, r4, #1
 1278              	.LVL184:
 1279              	.L103:
 208:..\..\..\arduinoLCD\test\Pain Drain\libraries\lvgl\src\core/lv_obj_tree.c ****             parent->spec_attr->children[i] = parent->spec_attr->children[i - 1];
 1280              		.loc 1 208 0
 1281 004a A542     		cmp	r5, r4
 1282 004c F3DB     		blt	.L105
 1283 004e 09E0     		b	.L106
 1284              	.L107:
 215:..\..\..\arduinoLCD\test\Pain Drain\libraries\lvgl\src\core/lv_obj_tree.c ****             i++;
 1285              		.loc 1 215 0
 1286 0050 B368     		ldr	r3, [r6, #8]
 1287 0052 1A68     		ldr	r2, [r3]
 1288 0054 631C     		adds	r3, r4, #1
 1289 0056 52F82310 		ldr	r1, [r2, r3, lsl #2]
 1290 005a 42F82410 		str	r1, [r2, r4, lsl #2]
 216:..\..\..\arduinoLCD\test\Pain Drain\libraries\lvgl\src\core/lv_obj_tree.c ****         }
 1291              		.loc 1 216 0
 1292 005e 1C46     		mov	r4, r3
 1293              	.LVL185:
 1294              	.L104:
 214:..\..\..\arduinoLCD\test\Pain Drain\libraries\lvgl\src\core/lv_obj_tree.c ****             parent->spec_attr->children[i] = parent->spec_attr->children[i + 1];
 1295              		.loc 1 214 0
 1296 0060 A542     		cmp	r5, r4
 1297 0062 F5DC     		bgt	.L107
 1298              	.L106:
 220:..\..\..\arduinoLCD\test\Pain Drain\libraries\lvgl\src\core/lv_obj_tree.c ****     lv_event_send(parent, LV_EVENT_CHILD_CHANGED, NULL);
 1299              		.loc 1 220 0
 1300 0064 B368     		ldr	r3, [r6, #8]
 1301 0066 1B68     		ldr	r3, [r3]
 1302 0068 43F82570 		str	r7, [r3, r5, lsl #2]
 221:..\..\..\arduinoLCD\test\Pain Drain\libraries\lvgl\src\core/lv_obj_tree.c ****     lv_obj_invalidate(parent);
 1303              		.loc 1 221 0
 1304 006c 0022     		movs	r2, #0
 1305 006e 2221     		movs	r1, #34
 1306 0070 3046     		mov	r0, r6
 1307 0072 FFF7FEFF 		bl	lv_event_send
 1308              	.LVL186:
 222:..\..\..\arduinoLCD\test\Pain Drain\libraries\lvgl\src\core/lv_obj_tree.c **** }
 1309              		.loc 1 222 0
 1310 0076 3046     		mov	r0, r6
 1311 0078 FFF7FEFF 		bl	lv_obj_invalidate
 1312              	.LVL187:
 1313              	.L100:
 1314 007c F8BD     		pop	{r3, r4, r5, r6, r7, pc}
 1315              		.cfi_endproc
 1316              	.LFE165:
 1317              		.size	lv_obj_move_to_index, .-lv_obj_move_to_index
 1318 007e 00BF     		.section	.text.lv_obj_swap,"ax",%progbits
 1319              		.align	2
 1320              		.global	lv_obj_swap
 1321              		.thumb
 1322              		.thumb_func
ARM GAS  C:\Users\haske\AppData\Local\Temp\ccFGJ08j.s 			page 39


 1323              		.type	lv_obj_swap, %function
 1324              	lv_obj_swap:
 1325              	.LFB166:
 226:..\..\..\arduinoLCD\test\Pain Drain\libraries\lvgl\src\core/lv_obj_tree.c ****     LV_ASSERT_OBJ(obj1, MY_CLASS);
 1326              		.loc 1 226 0
 1327              		.cfi_startproc
 1328              		@ args = 0, pretend = 0, frame = 0
 1329              		@ frame_needed = 0, uses_anonymous_args = 0
 1330              	.LVL188:
 1331 0000 2DE9F843 		push	{r3, r4, r5, r6, r7, r8, r9, lr}
 1332              		.cfi_def_cfa_offset 32
 1333              		.cfi_offset 3, -32
 1334              		.cfi_offset 4, -28
 1335              		.cfi_offset 5, -24
 1336              		.cfi_offset 6, -20
 1337              		.cfi_offset 7, -16
 1338              		.cfi_offset 8, -12
 1339              		.cfi_offset 9, -8
 1340              		.cfi_offset 14, -4
 1341 0004 0546     		mov	r5, r0
 1342 0006 0C46     		mov	r4, r1
 230:..\..\..\arduinoLCD\test\Pain Drain\libraries\lvgl\src\core/lv_obj_tree.c ****     lv_obj_t * parent2 = lv_obj_get_parent(obj2);
 1343              		.loc 1 230 0
 1344 0008 FFF7FEFF 		bl	lv_obj_get_parent
 1345              	.LVL189:
 1346 000c 0646     		mov	r6, r0
 1347              	.LVL190:
 231:..\..\..\arduinoLCD\test\Pain Drain\libraries\lvgl\src\core/lv_obj_tree.c **** 
 1348              		.loc 1 231 0
 1349 000e 2046     		mov	r0, r4
 1350              	.LVL191:
 1351 0010 FFF7FEFF 		bl	lv_obj_get_parent
 1352              	.LVL192:
 1353 0014 0746     		mov	r7, r0
 1354              	.LVL193:
 233:..\..\..\arduinoLCD\test\Pain Drain\libraries\lvgl\src\core/lv_obj_tree.c ****     uint_fast32_t index2 = lv_obj_get_index(obj2);
 1355              		.loc 1 233 0
 1356 0016 2846     		mov	r0, r5
 1357              	.LVL194:
 1358 0018 FFF7FEFF 		bl	lv_obj_get_index
 1359              	.LVL195:
 1360 001c 8146     		mov	r9, r0
 1361              	.LVL196:
 234:..\..\..\arduinoLCD\test\Pain Drain\libraries\lvgl\src\core/lv_obj_tree.c **** 
 1362              		.loc 1 234 0
 1363 001e 2046     		mov	r0, r4
 1364              	.LVL197:
 1365 0020 FFF7FEFF 		bl	lv_obj_get_index
 1366              	.LVL198:
 1367 0024 8046     		mov	r8, r0
 1368              	.LVL199:
 236:..\..\..\arduinoLCD\test\Pain Drain\libraries\lvgl\src\core/lv_obj_tree.c ****     lv_event_send(parent, LV_EVENT_CHILD_DELETED, obj1);
 1369              		.loc 1 236 0
 1370 0026 2246     		mov	r2, r4
 1371 0028 2421     		movs	r1, #36
 1372 002a 3846     		mov	r0, r7
 1373              	.LVL200:
ARM GAS  C:\Users\haske\AppData\Local\Temp\ccFGJ08j.s 			page 40


 1374 002c FFF7FEFF 		bl	lv_event_send
 1375              	.LVL201:
 237:..\..\..\arduinoLCD\test\Pain Drain\libraries\lvgl\src\core/lv_obj_tree.c **** 
 1376              		.loc 1 237 0
 1377 0030 2A46     		mov	r2, r5
 1378 0032 2421     		movs	r1, #36
 1379 0034 3046     		mov	r0, r6
 1380 0036 FFF7FEFF 		bl	lv_event_send
 1381              	.LVL202:
 239:..\..\..\arduinoLCD\test\Pain Drain\libraries\lvgl\src\core/lv_obj_tree.c ****     parent2->spec_attr->children[index2] = obj1;
 1382              		.loc 1 239 0
 1383 003a B368     		ldr	r3, [r6, #8]
 1384 003c 1B68     		ldr	r3, [r3]
 1385 003e 43F82940 		str	r4, [r3, r9, lsl #2]
 240:..\..\..\arduinoLCD\test\Pain Drain\libraries\lvgl\src\core/lv_obj_tree.c **** 
 1386              		.loc 1 240 0
 1387 0042 BB68     		ldr	r3, [r7, #8]
 1388 0044 1B68     		ldr	r3, [r3]
 1389 0046 43F82850 		str	r5, [r3, r8, lsl #2]
 242:..\..\..\arduinoLCD\test\Pain Drain\libraries\lvgl\src\core/lv_obj_tree.c ****     lv_event_send(parent, LV_EVENT_CHILD_CREATED, obj2);
 1390              		.loc 1 242 0
 1391 004a 2246     		mov	r2, r4
 1392 004c 2221     		movs	r1, #34
 1393 004e 3046     		mov	r0, r6
 1394 0050 FFF7FEFF 		bl	lv_event_send
 1395              	.LVL203:
 243:..\..\..\arduinoLCD\test\Pain Drain\libraries\lvgl\src\core/lv_obj_tree.c ****     lv_event_send(parent2, LV_EVENT_CHILD_CHANGED, obj1);
 1396              		.loc 1 243 0
 1397 0054 2246     		mov	r2, r4
 1398 0056 2321     		movs	r1, #35
 1399 0058 3046     		mov	r0, r6
 1400 005a FFF7FEFF 		bl	lv_event_send
 1401              	.LVL204:
 244:..\..\..\arduinoLCD\test\Pain Drain\libraries\lvgl\src\core/lv_obj_tree.c ****     lv_event_send(parent2, LV_EVENT_CHILD_CREATED, obj1);
 1402              		.loc 1 244 0
 1403 005e 2A46     		mov	r2, r5
 1404 0060 2221     		movs	r1, #34
 1405 0062 3846     		mov	r0, r7
 1406 0064 FFF7FEFF 		bl	lv_event_send
 1407              	.LVL205:
 245:..\..\..\arduinoLCD\test\Pain Drain\libraries\lvgl\src\core/lv_obj_tree.c **** 
 1408              		.loc 1 245 0
 1409 0068 2A46     		mov	r2, r5
 1410 006a 2321     		movs	r1, #35
 1411 006c 3846     		mov	r0, r7
 1412 006e FFF7FEFF 		bl	lv_event_send
 1413              	.LVL206:
 247:..\..\..\arduinoLCD\test\Pain Drain\libraries\lvgl\src\core/lv_obj_tree.c **** 
 1414              		.loc 1 247 0
 1415 0072 3046     		mov	r0, r6
 1416 0074 FFF7FEFF 		bl	lv_obj_invalidate
 1417              	.LVL207:
 249:..\..\..\arduinoLCD\test\Pain Drain\libraries\lvgl\src\core/lv_obj_tree.c ****         lv_obj_invalidate(parent2);
 1418              		.loc 1 249 0
 1419 0078 BE42     		cmp	r6, r7
 1420 007a 02D0     		beq	.L110
 250:..\..\..\arduinoLCD\test\Pain Drain\libraries\lvgl\src\core/lv_obj_tree.c ****     }
ARM GAS  C:\Users\haske\AppData\Local\Temp\ccFGJ08j.s 			page 41


 1421              		.loc 1 250 0
 1422 007c 3846     		mov	r0, r7
 1423 007e FFF7FEFF 		bl	lv_obj_invalidate
 1424              	.LVL208:
 1425              	.L110:
 252:..\..\..\arduinoLCD\test\Pain Drain\libraries\lvgl\src\core/lv_obj_tree.c **** }
 1426              		.loc 1 252 0
 1427 0082 2146     		mov	r1, r4
 1428 0084 2846     		mov	r0, r5
 1429 0086 FFF7FEFF 		bl	lv_group_swap_obj
 1430              	.LVL209:
 1431 008a BDE8F883 		pop	{r3, r4, r5, r6, r7, r8, r9, pc}
 1432              		.cfi_endproc
 1433              	.LFE166:
 1434              		.size	lv_obj_swap, .-lv_obj_swap
 1435 008e 00BF     		.section	.text.lv_obj_tree_walk,"ax",%progbits
 1436              		.align	2
 1437              		.global	lv_obj_tree_walk
 1438              		.thumb
 1439              		.thumb_func
 1440              		.type	lv_obj_tree_walk, %function
 1441              	lv_obj_tree_walk:
 1442              	.LFB173:
 342:..\..\..\arduinoLCD\test\Pain Drain\libraries\lvgl\src\core/lv_obj_tree.c ****     walk_core(start_obj, cb, user_data);
 1443              		.loc 1 342 0
 1444              		.cfi_startproc
 1445              		@ args = 0, pretend = 0, frame = 0
 1446              		@ frame_needed = 0, uses_anonymous_args = 0
 1447              	.LVL210:
 1448 0000 08B5     		push	{r3, lr}
 1449              		.cfi_def_cfa_offset 8
 1450              		.cfi_offset 3, -8
 1451              		.cfi_offset 14, -4
 343:..\..\..\arduinoLCD\test\Pain Drain\libraries\lvgl\src\core/lv_obj_tree.c **** }
 1452              		.loc 1 343 0
 1453 0002 FFF7FEFF 		bl	walk_core
 1454              	.LVL211:
 1455 0006 08BD     		pop	{r3, pc}
 1456              		.cfi_endproc
 1457              	.LFE173:
 1458              		.size	lv_obj_tree_walk, .-lv_obj_tree_walk
 1459              		.text
 1460              	.Letext0:
 1461              		.file 3 "c:\\program files (x86)\\cypress\\psoc creator\\4.4\\psoc creator\\import\\gnu\\arm\\5.4.
 1462              		.file 4 "c:\\program files (x86)\\cypress\\psoc creator\\4.4\\psoc creator\\import\\gnu\\arm\\5.4.
 1463              		.file 5 "c:\\program files (x86)\\cypress\\psoc creator\\4.4\\psoc creator\\import\\gnu\\arm\\5.4.
 1464              		.file 6 "c:\\program files (x86)\\cypress\\psoc creator\\4.4\\psoc creator\\import\\gnu\\arm\\5.4.
 1465              		.file 7 "c:\\projects\\paindrain\\arduinolcd\\test\\pain drain\\libraries\\lvgl\\src\\misc\\lv_are
 1466              		.file 8 "c:\\projects\\paindrain\\arduinolcd\\test\\pain drain\\libraries\\lvgl\\src\\font\\lv_fon
 1467              		.file 9 "..\\..\\..\\arduinoLCD\\test\\Pain Drain\\libraries\\lvgl\\src\\core\\../misc/lv_types.h"
 1468              		.file 10 "..\\..\\..\\arduinoLCD\\test\\Pain Drain\\libraries\\lvgl\\src\\core\\../misc/lv_color.h
 1469              		.file 11 "..\\..\\..\\arduinoLCD\\test\\Pain Drain\\libraries\\lvgl\\src\\core\\../misc/lv_txt.h"
 1470              		.file 12 "..\\..\\..\\arduinoLCD\\test\\Pain Drain\\libraries\\lvgl\\src\\core\\../misc/lv_bidi.h"
 1471              		.file 13 "..\\..\\..\\arduinoLCD\\test\\Pain Drain\\libraries\\lvgl\\src\\core\\../misc/lv_style.h
 1472              		.file 14 "c:\\projects\\paindrain\\arduinolcd\\test\\pain drain\\libraries\\lvgl\\src\\draw\\lv_im
 1473              		.file 15 "..\\..\\..\\arduinoLCD\\test\\Pain Drain\\libraries\\lvgl\\src\\core\\lv_obj.h"
 1474              		.file 16 "c:\\projects\\paindrain\\arduinolcd\\test\\pain drain\\libraries\\lvgl\\src\\draw\\lv_dr
ARM GAS  C:\Users\haske\AppData\Local\Temp\ccFGJ08j.s 			page 42


 1475              		.file 17 "c:\\projects\\paindrain\\arduinolcd\\test\\pain drain\\libraries\\lvgl\\src\\draw\\lv_dr
 1476              		.file 18 "c:\\projects\\paindrain\\arduinolcd\\test\\pain drain\\libraries\\lvgl\\src\\draw\\lv_dr
 1477              		.file 19 "c:\\projects\\paindrain\\arduinolcd\\test\\pain drain\\libraries\\lvgl\\src\\draw\\lv_dr
 1478              		.file 20 "c:\\projects\\paindrain\\arduinolcd\\test\\pain drain\\libraries\\lvgl\\src\\draw\\lv_dr
 1479              		.file 21 "c:\\projects\\paindrain\\arduinolcd\\test\\pain drain\\libraries\\lvgl\\src\\draw\\lv_dr
 1480              		.file 22 "c:\\projects\\paindrain\\arduinolcd\\test\\pain drain\\libraries\\lvgl\\src\\draw\\lv_dr
 1481              		.file 23 "c:\\projects\\paindrain\\arduinolcd\\test\\pain drain\\libraries\\lvgl\\src\\misc\\lv_ll
 1482              		.file 24 "c:\\projects\\paindrain\\arduinolcd\\test\\pain drain\\libraries\\lvgl\\src\\misc\\lv_ti
 1483              		.file 25 "..\\..\\..\\arduinoLCD\\test\\Pain Drain\\libraries\\lvgl\\src\\core\\../hal/lv_hal_disp
 1484              		.file 26 "..\\..\\..\\arduinoLCD\\test\\Pain Drain\\libraries\\lvgl\\src\\core\\../hal/lv_hal_inde
 1485              		.file 27 "..\\..\\..\\arduinoLCD\\test\\Pain Drain\\libraries\\lvgl\\src\\core\\lv_group.h"
 1486              		.file 28 "..\\..\\..\\arduinoLCD\\test\\Pain Drain\\libraries\\lvgl\\src\\core\\lv_obj_tree.h"
 1487              		.file 29 "..\\..\\..\\arduinoLCD\\test\\Pain Drain\\libraries\\lvgl\\src\\core\\lv_obj_scroll.h"
 1488              		.file 30 "..\\..\\..\\arduinoLCD\\test\\Pain Drain\\libraries\\lvgl\\src\\core\\lv_obj_style.h"
 1489              		.file 31 "..\\..\\..\\arduinoLCD\\test\\Pain Drain\\libraries\\lvgl\\src\\core\\lv_obj_class.h"
 1490              		.file 32 "..\\..\\..\\arduinoLCD\\test\\Pain Drain\\libraries\\lvgl\\src\\core\\lv_event.h"
 1491              		.file 33 "..\\..\\..\\arduinoLCD\\test\\Pain Drain\\libraries\\lvgl\\src\\core\\../misc/lv_gc.h"
 1492              		.file 34 "..\\..\\..\\arduinoLCD\\test\\Pain Drain\\libraries\\lvgl\\src\\core\\../misc/lv_async.h
 1493              		.file 35 "..\\..\\..\\arduinoLCD\\test\\Pain Drain\\libraries\\lvgl\\src\\core\\../misc/lv_mem.h"
 1494              		.file 36 "..\\..\\..\\arduinoLCD\\test\\Pain Drain\\libraries\\lvgl\\src\\core\\lv_indev.h"
 1495              		.file 37 "c:\\projects\\paindrain\\arduinolcd\\test\\pain drain\\libraries\\lvgl\\src\\core\\lv_ob