ARM GAS  C:\Users\dev\AppData\Local\Temp\ccUIeHeA.s 			page 1


   1              		.syntax unified
   2              		.cpu cortex-m4
   3              		.eabi_attribute 27, 1
   4              		.fpu fpv4-sp-d16
   5              		.eabi_attribute 20, 1
   6              		.eabi_attribute 21, 1
   7              		.eabi_attribute 23, 3
   8              		.eabi_attribute 24, 1
   9              		.eabi_attribute 25, 1
  10              		.eabi_attribute 26, 1
  11              		.eabi_attribute 30, 1
  12              		.eabi_attribute 34, 1
  13              		.eabi_attribute 18, 4
  14              		.thumb
  15              		.syntax unified
  16              		.file	"my_i2c.c"
  17              		.text
  18              	.Ltext0:
  19              		.cfi_sections	.debug_frame
  20              		.section	.text.myI2C_SCLidle,"ax",%progbits
  21              		.align	2
  22              		.global	myI2C_SCLidle
  23              		.thumb
  24              		.thumb_func
  25              		.type	myI2C_SCLidle, %function
  26              	myI2C_SCLidle:
  27              	.LFB719:
  28              		.file 1 "my_i2c.c"
   1:my_i2c.c      **** /* ========================================
   2:my_i2c.c      ****  *
   3:my_i2c.c      ****  * Copyright YOUR COMPANY, THE YEAR
   4:my_i2c.c      ****  * All Rights Reserved
   5:my_i2c.c      ****  * UNPUBLISHED, LICENSED SOFTWARE.
   6:my_i2c.c      ****  *
   7:my_i2c.c      ****  * CONFIDENTIAL AND PROPRIETARY INFORMATION
   8:my_i2c.c      ****  * WHICH IS THE PROPERTY OF your company.
   9:my_i2c.c      ****  *
  10:my_i2c.c      ****  * ========================================
  11:my_i2c.c      **** */
  12:my_i2c.c      **** 
  13:my_i2c.c      **** #include <my_i2c.h>
  14:my_i2c.c      **** #include "power.h"
  15:my_i2c.c      **** 
  16:my_i2c.c      **** int myI2C_state = myI2C_IDLE;
  17:my_i2c.c      **** 
  18:my_i2c.c      **** 
  19:my_i2c.c      **** /*******************************************************************************
  20:my_i2c.c      **** * Function Name: myI2C_SCLidle
  21:my_i2c.c      **** ********************************************************************************
  22:my_i2c.c      **** *
  23:my_i2c.c      **** * Summary:
  24:my_i2c.c      **** *  Checks if SCL is idle, fails if longer than 50us
  25:my_i2c.c      **** *
  26:my_i2c.c      **** * Parameters:
  27:my_i2c.c      **** * 	none
  28:my_i2c.c      **** *
  29:my_i2c.c      **** * Return:
ARM GAS  C:\Users\dev\AppData\Local\Temp\ccUIeHeA.s 			page 2


  30:my_i2c.c      **** *  error
  31:my_i2c.c      **** *
  32:my_i2c.c      **** *******************************************************************************/
  33:my_i2c.c      **** uint32 myI2C_SCLidle( void ) {
  29              		.loc 1 33 0
  30              		.cfi_startproc
  31              		@ args = 0, pretend = 0, frame = 0
  32              		@ frame_needed = 0, uses_anonymous_args = 0
  33 0000 10B5     		push	{r4, lr}
  34              		.cfi_def_cfa_offset 8
  35              		.cfi_offset 4, -8
  36              		.cfi_offset 14, -4
  37              	.LVL0:
  34:my_i2c.c      **** 	int i;
  35:my_i2c.c      **** 	
  36:my_i2c.c      **** 	for (i=0; i<50; i++) {
  38              		.loc 1 36 0
  39 0002 0024     		movs	r4, #0
  40 0004 07E0     		b	.L2
  41              	.LVL1:
  42              	.L4:
  37:my_i2c.c      **** 		if (I2C_SCL_Read() == 1) return myI2C_SUCCESS;
  43              		.loc 1 37 0
  44 0006 FFF7FEFF 		bl	I2C_SCL_Read
  45              	.LVL2:
  46 000a 0128     		cmp	r0, #1
  47 000c 07D0     		beq	.L5
  38:my_i2c.c      **** 		CyDelayUs(1);
  48              		.loc 1 38 0 discriminator 2
  49 000e 0120     		movs	r0, #1
  50 0010 FFF7FEFF 		bl	Cy_SysLib_DelayUs
  51              	.LVL3:
  36:my_i2c.c      **** 		if (I2C_SCL_Read() == 1) return myI2C_SUCCESS;
  52              		.loc 1 36 0 discriminator 2
  53 0014 0134     		adds	r4, r4, #1
  54              	.LVL4:
  55              	.L2:
  36:my_i2c.c      **** 		if (I2C_SCL_Read() == 1) return myI2C_SUCCESS;
  56              		.loc 1 36 0 is_stmt 0 discriminator 1
  57 0016 312C     		cmp	r4, #49
  58 0018 F5DD     		ble	.L4
  39:my_i2c.c      **** 	}
  40:my_i2c.c      **** 	
  41:my_i2c.c      **** 	return myI2C_FAILED;
  59              		.loc 1 41 0 is_stmt 1
  60 001a 0120     		movs	r0, #1
  61 001c 10BD     		pop	{r4, pc}
  62              	.LVL5:
  63              	.L5:
  37:my_i2c.c      **** 		CyDelayUs(1);
  64              		.loc 1 37 0
  65 001e 0020     		movs	r0, #0
  42:my_i2c.c      **** }
  66              		.loc 1 42 0
  67 0020 10BD     		pop	{r4, pc}
  68              		.cfi_endproc
  69              	.LFE719:
ARM GAS  C:\Users\dev\AppData\Local\Temp\ccUIeHeA.s 			page 3


  70              		.size	myI2C_SCLidle, .-myI2C_SCLidle
  71 0022 00BF     		.section	.text.myI2C_SDAidle,"ax",%progbits
  72              		.align	2
  73              		.global	myI2C_SDAidle
  74              		.thumb
  75              		.thumb_func
  76              		.type	myI2C_SDAidle, %function
  77              	myI2C_SDAidle:
  78              	.LFB720:
  43:my_i2c.c      **** 	
  44:my_i2c.c      **** /*******************************************************************************
  45:my_i2c.c      **** * Function Name: myI2C_SDAidle
  46:my_i2c.c      **** ********************************************************************************
  47:my_i2c.c      **** *
  48:my_i2c.c      **** * Summary:
  49:my_i2c.c      **** *  Checks if SDA is idle, fails if longer than 50us
  50:my_i2c.c      **** *
  51:my_i2c.c      **** * Parameters:
  52:my_i2c.c      **** * 	none
  53:my_i2c.c      **** *
  54:my_i2c.c      **** * Return:
  55:my_i2c.c      **** *  error
  56:my_i2c.c      **** *
  57:my_i2c.c      **** *******************************************************************************/
  58:my_i2c.c      **** uint32 myI2C_SDAidle( void ) {
  79              		.loc 1 58 0
  80              		.cfi_startproc
  81              		@ args = 0, pretend = 0, frame = 0
  82              		@ frame_needed = 0, uses_anonymous_args = 0
  83 0000 10B5     		push	{r4, lr}
  84              		.cfi_def_cfa_offset 8
  85              		.cfi_offset 4, -8
  86              		.cfi_offset 14, -4
  87              	.LVL6:
  59:my_i2c.c      **** 	int i;
  60:my_i2c.c      **** 	
  61:my_i2c.c      **** 	for (i=0; i<50; i++) {
  88              		.loc 1 61 0
  89 0002 0024     		movs	r4, #0
  90 0004 07E0     		b	.L8
  91              	.LVL7:
  92              	.L10:
  62:my_i2c.c      **** 		if (I2C_SDA_Read() == 1) return myI2C_SUCCESS;
  93              		.loc 1 62 0
  94 0006 FFF7FEFF 		bl	I2C_SDA_Read
  95              	.LVL8:
  96 000a 0128     		cmp	r0, #1
  97 000c 07D0     		beq	.L11
  63:my_i2c.c      **** 		CyDelayUs(1);
  98              		.loc 1 63 0 discriminator 2
  99 000e 0120     		movs	r0, #1
 100 0010 FFF7FEFF 		bl	Cy_SysLib_DelayUs
 101              	.LVL9:
  61:my_i2c.c      **** 		if (I2C_SDA_Read() == 1) return myI2C_SUCCESS;
 102              		.loc 1 61 0 discriminator 2
 103 0014 0134     		adds	r4, r4, #1
 104              	.LVL10:
ARM GAS  C:\Users\dev\AppData\Local\Temp\ccUIeHeA.s 			page 4


 105              	.L8:
  61:my_i2c.c      **** 		if (I2C_SDA_Read() == 1) return myI2C_SUCCESS;
 106              		.loc 1 61 0 is_stmt 0 discriminator 1
 107 0016 312C     		cmp	r4, #49
 108 0018 F5DD     		ble	.L10
  64:my_i2c.c      **** 	}
  65:my_i2c.c      **** 	
  66:my_i2c.c      **** 	return myI2C_FAILED;	
 109              		.loc 1 66 0 is_stmt 1
 110 001a 0120     		movs	r0, #1
 111 001c 10BD     		pop	{r4, pc}
 112              	.LVL11:
 113              	.L11:
  62:my_i2c.c      **** 		CyDelayUs(1);
 114              		.loc 1 62 0
 115 001e 0020     		movs	r0, #0
  67:my_i2c.c      **** }
 116              		.loc 1 67 0
 117 0020 10BD     		pop	{r4, pc}
 118              		.cfi_endproc
 119              	.LFE720:
 120              		.size	myI2C_SDAidle, .-myI2C_SDAidle
 121 0022 00BF     		.section	.text.myI2C_I2CMasterSendStop,"ax",%progbits
 122              		.align	2
 123              		.global	myI2C_I2CMasterSendStop
 124              		.thumb
 125              		.thumb_func
 126              		.type	myI2C_I2CMasterSendStop, %function
 127              	myI2C_I2CMasterSendStop:
 128              	.LFB725:
  68:my_i2c.c      **** 
  69:my_i2c.c      **** /*******************************************************************************
  70:my_i2c.c      **** * Function Name: myI2C_Start
  71:my_i2c.c      **** ********************************************************************************
  72:my_i2c.c      **** *
  73:my_i2c.c      **** * Summary:
  74:my_i2c.c      **** *  Initializes myI2C code
  75:my_i2c.c      **** *
  76:my_i2c.c      **** * Parameters:
  77:my_i2c.c      **** * 	none
  78:my_i2c.c      **** *
  79:my_i2c.c      **** * Return:
  80:my_i2c.c      **** *  error
  81:my_i2c.c      **** *
  82:my_i2c.c      **** *******************************************************************************/
  83:my_i2c.c      **** void myI2C_Start( void ) {
  84:my_i2c.c      **** 	
  85:my_i2c.c      **** 	myI2C_I2CMasterClearStatus();
  86:my_i2c.c      **** 	
  87:my_i2c.c      **** }
  88:my_i2c.c      **** 
  89:my_i2c.c      **** /*******************************************************************************
  90:my_i2c.c      **** * Function Name: myI2C_Stop
  91:my_i2c.c      **** ********************************************************************************
  92:my_i2c.c      **** *
  93:my_i2c.c      **** * Summary:
  94:my_i2c.c      **** *  Clears myI2C code
ARM GAS  C:\Users\dev\AppData\Local\Temp\ccUIeHeA.s 			page 5


  95:my_i2c.c      **** *
  96:my_i2c.c      **** * Parameters:
  97:my_i2c.c      **** * 	none
  98:my_i2c.c      **** *
  99:my_i2c.c      **** * Return:
 100:my_i2c.c      **** *  none
 101:my_i2c.c      **** *
 102:my_i2c.c      **** *******************************************************************************/
 103:my_i2c.c      **** void myI2C_Stop( void ) {
 104:my_i2c.c      **** 	
 105:my_i2c.c      **** 	myI2C_I2CMasterClearStatus();
 106:my_i2c.c      **** }
 107:my_i2c.c      **** 
 108:my_i2c.c      **** /*******************************************************************************
 109:my_i2c.c      **** * Function Name: myI2C_I2CMasterSendStart
 110:my_i2c.c      **** ********************************************************************************
 111:my_i2c.c      **** *
 112:my_i2c.c      **** * Summary:
 113:my_i2c.c      **** *  Sends start condition and slave device address
 114:my_i2c.c      **** *
 115:my_i2c.c      **** * Parameters:
 116:my_i2c.c      **** * 	slaveAddress - 7-bit slave address
 117:my_i2c.c      **** *   bitRnW - 0 = write, 1 = read
 118:my_i2c.c      **** *
 119:my_i2c.c      **** * Return:
 120:my_i2c.c      **** *  none
 121:my_i2c.c      **** *
 122:my_i2c.c      **** *******************************************************************************/
 123:my_i2c.c      **** uint32 myI2C_I2CMasterSendStart(uint32 slaveAddress, uint32 bitRnW) {
 124:my_i2c.c      **** 	
 125:my_i2c.c      **** 	if (myI2C_state != myI2C_IDLE) {
 126:my_i2c.c      **** 		return myI2C_FAILED;  //I should be in idle state when called
 127:my_i2c.c      **** 	}
 128:my_i2c.c      **** 	
 129:my_i2c.c      **** 	return myI2C_I2CMasterSendRestart(slaveAddress, bitRnW);
 130:my_i2c.c      **** 	
 131:my_i2c.c      **** }
 132:my_i2c.c      **** 
 133:my_i2c.c      **** /*******************************************************************************
 134:my_i2c.c      **** * Function Name: myI2C_I2CMasterSendRestart
 135:my_i2c.c      **** ********************************************************************************
 136:my_i2c.c      **** *
 137:my_i2c.c      **** * Summary:
 138:my_i2c.c      **** *  Sends start condition and slave device address
 139:my_i2c.c      **** *
 140:my_i2c.c      **** * Parameters:
 141:my_i2c.c      **** * 	slaveAddress - 7-bit slave address
 142:my_i2c.c      **** *   bitRnW - 0 = write, 1 = read
 143:my_i2c.c      **** *
 144:my_i2c.c      **** * Return:
 145:my_i2c.c      **** *  error
 146:my_i2c.c      **** *
 147:my_i2c.c      **** *******************************************************************************/
 148:my_i2c.c      **** uint32 myI2C_I2CMasterSendRestart(uint32 slaveAddress, uint32 bitRnW) {
 149:my_i2c.c      **** 	uint8 sa;
 150:my_i2c.c      **** 	uint32 ack;
 151:my_i2c.c      **** 	
ARM GAS  C:\Users\dev\AppData\Local\Temp\ccUIeHeA.s 			page 6


 152:my_i2c.c      **** 	sa = (slaveAddress<<1 & 0xFE) | (bitRnW & 0x1);
 153:my_i2c.c      **** 		
 154:my_i2c.c      **** 	I2C_SDA_Write(1);
 155:my_i2c.c      **** 	if (myI2C_SDAidle() == myI2C_FAILED)
 156:my_i2c.c      **** 		return myI2C_FAILED;
 157:my_i2c.c      **** 	
 158:my_i2c.c      **** 	CyDelayUs(8);
 159:my_i2c.c      **** 	
 160:my_i2c.c      **** 	I2C_SCL_Write(1);
 161:my_i2c.c      **** 	if (myI2C_SCLidle() == myI2C_FAILED)
 162:my_i2c.c      **** 		return myI2C_FAILED;
 163:my_i2c.c      **** 	
 164:my_i2c.c      **** 	CyDelayUs(8);
 165:my_i2c.c      **** 	
 166:my_i2c.c      **** 	I2C_SDA_Write(0);
 167:my_i2c.c      **** 	if (I2C_SDA_Read() != 0) {
 168:my_i2c.c      **** 		
 169:my_i2c.c      **** 		I2C_SCL_Write(1);
 170:my_i2c.c      **** 		I2C_SDA_Write(1);
 171:my_i2c.c      **** 		
 172:my_i2c.c      **** 		return myI2C_FAILED;
 173:my_i2c.c      **** 	}
 174:my_i2c.c      **** 		
 175:my_i2c.c      **** 	CyDelayUs(8);
 176:my_i2c.c      **** 	
 177:my_i2c.c      **** 	I2C_SCL_Write(0);
 178:my_i2c.c      **** 	if (I2C_SCL_Read() != 0) {
 179:my_i2c.c      **** 		
 180:my_i2c.c      **** 		I2C_SCL_Write(1);
 181:my_i2c.c      **** 		I2C_SDA_Write(1);
 182:my_i2c.c      **** 		
 183:my_i2c.c      **** 		return myI2C_FAILED;
 184:my_i2c.c      **** 	}
 185:my_i2c.c      **** 	
 186:my_i2c.c      **** 	CyDelayUs(8);
 187:my_i2c.c      **** 	
 188:my_i2c.c      **** 	myI2C_state = myI2C_ADDR;
 189:my_i2c.c      **** 	
 190:my_i2c.c      **** 	ack = myI2C_I2CMasterWriteByte(sa);
 191:my_i2c.c      **** 	
 192:my_i2c.c      **** 	if (ack) {
 193:my_i2c.c      **** 		myI2C_I2CMasterSendStop();
 194:my_i2c.c      **** 		myI2C_I2CMasterClearStatus();
 195:my_i2c.c      **** 	} else {
 196:my_i2c.c      **** 		if (bitRnW == 0) {
 197:my_i2c.c      **** 			myI2C_state = myI2C_WRITE;
 198:my_i2c.c      **** 		} else {
 199:my_i2c.c      **** 			myI2C_state = myI2C_READ;
 200:my_i2c.c      **** 		}
 201:my_i2c.c      **** 	}
 202:my_i2c.c      **** 	
 203:my_i2c.c      **** 	return ack;
 204:my_i2c.c      **** }
 205:my_i2c.c      **** 	
 206:my_i2c.c      **** 
 207:my_i2c.c      **** 
 208:my_i2c.c      **** /*******************************************************************************
ARM GAS  C:\Users\dev\AppData\Local\Temp\ccUIeHeA.s 			page 7


 209:my_i2c.c      **** * Function Name: myI2C_I2CMasterSendStop
 210:my_i2c.c      **** ********************************************************************************
 211:my_i2c.c      **** *
 212:my_i2c.c      **** * Summary:
 213:my_i2c.c      **** *  Sends stop condition
 214:my_i2c.c      **** *
 215:my_i2c.c      **** * Parameters:
 216:my_i2c.c      **** *	none
 217:my_i2c.c      **** *
 218:my_i2c.c      **** * Return:
 219:my_i2c.c      **** *  error
 220:my_i2c.c      **** *
 221:my_i2c.c      **** *******************************************************************************/
 222:my_i2c.c      **** uint32 myI2C_I2CMasterSendStop( void ) {
 129              		.loc 1 222 0
 130              		.cfi_startproc
 131              		@ args = 0, pretend = 0, frame = 0
 132              		@ frame_needed = 0, uses_anonymous_args = 0
 133 0000 08B5     		push	{r3, lr}
 134              		.cfi_def_cfa_offset 8
 135              		.cfi_offset 3, -8
 136              		.cfi_offset 14, -4
 223:my_i2c.c      **** 	
 224:my_i2c.c      **** 	CyDelayUs(8);
 137              		.loc 1 224 0
 138 0002 0820     		movs	r0, #8
 139 0004 FFF7FEFF 		bl	Cy_SysLib_DelayUs
 140              	.LVL12:
 225:my_i2c.c      **** 	
 226:my_i2c.c      **** 	I2C_SCL_Write(0); //SCL must start low
 141              		.loc 1 226 0
 142 0008 0020     		movs	r0, #0
 143 000a FFF7FEFF 		bl	I2C_SCL_Write
 144              	.LVL13:
 227:my_i2c.c      **** 	
 228:my_i2c.c      **** 	CyDelayUs(8);
 145              		.loc 1 228 0
 146 000e 0820     		movs	r0, #8
 147 0010 FFF7FEFF 		bl	Cy_SysLib_DelayUs
 148              	.LVL14:
 229:my_i2c.c      **** 	
 230:my_i2c.c      **** 	I2C_SDA_Write(0); //SDA must start low
 149              		.loc 1 230 0
 150 0014 0020     		movs	r0, #0
 151 0016 FFF7FEFF 		bl	I2C_SDA_Write
 152              	.LVL15:
 231:my_i2c.c      **** 	
 232:my_i2c.c      **** 	CyDelayUs(8);
 153              		.loc 1 232 0
 154 001a 0820     		movs	r0, #8
 155 001c FFF7FEFF 		bl	Cy_SysLib_DelayUs
 156              	.LVL16:
 233:my_i2c.c      **** 	
 234:my_i2c.c      **** 	I2C_SCL_Write(1);
 157              		.loc 1 234 0
 158 0020 0120     		movs	r0, #1
 159 0022 FFF7FEFF 		bl	I2C_SCL_Write
ARM GAS  C:\Users\dev\AppData\Local\Temp\ccUIeHeA.s 			page 8


 160              	.LVL17:
 235:my_i2c.c      **** 	if (myI2C_SCLidle() == myI2C_FAILED)
 161              		.loc 1 235 0
 162 0026 FFF7FEFF 		bl	myI2C_SCLidle
 163              	.LVL18:
 164 002a 0128     		cmp	r0, #1
 165 002c 0FD0     		beq	.L14
 236:my_i2c.c      **** 		return myI2C_FAILED;
 237:my_i2c.c      **** 	
 238:my_i2c.c      **** 	CyDelayUs(8);
 166              		.loc 1 238 0
 167 002e 0820     		movs	r0, #8
 168 0030 FFF7FEFF 		bl	Cy_SysLib_DelayUs
 169              	.LVL19:
 239:my_i2c.c      **** 	
 240:my_i2c.c      **** 	I2C_SDA_Write(1);
 170              		.loc 1 240 0
 171 0034 0120     		movs	r0, #1
 172 0036 FFF7FEFF 		bl	I2C_SDA_Write
 173              	.LVL20:
 241:my_i2c.c      **** 	if (myI2C_SDAidle() == myI2C_FAILED)
 174              		.loc 1 241 0
 175 003a FFF7FEFF 		bl	myI2C_SDAidle
 176              	.LVL21:
 177 003e 0128     		cmp	r0, #1
 178 0040 05D0     		beq	.L14
 242:my_i2c.c      **** 		return myI2C_FAILED;
 243:my_i2c.c      **** 	
 244:my_i2c.c      **** 	
 245:my_i2c.c      **** 	CyDelayUs(8);
 179              		.loc 1 245 0
 180 0042 0820     		movs	r0, #8
 181 0044 FFF7FEFF 		bl	Cy_SysLib_DelayUs
 182              	.LVL22:
 246:my_i2c.c      **** 	
 247:my_i2c.c      **** 	myI2C_state = myI2C_IDLE;
 183              		.loc 1 247 0
 184 0048 0020     		movs	r0, #0
 185 004a 014B     		ldr	r3, .L16
 186 004c 1860     		str	r0, [r3]
 187              	.L14:
 248:my_i2c.c      **** 	
 249:my_i2c.c      **** 	return myI2C_SUCCESS;
 250:my_i2c.c      **** 	
 251:my_i2c.c      **** }
 188              		.loc 1 251 0
 189 004e 08BD     		pop	{r3, pc}
 190              	.L17:
 191              		.align	2
 192              	.L16:
 193 0050 00000000 		.word	.LANCHOR0
 194              		.cfi_endproc
 195              	.LFE725:
 196              		.size	myI2C_I2CMasterSendStop, .-myI2C_I2CMasterSendStop
 197              		.section	.text.myI2C_I2CMasterClearStatus,"ax",%progbits
 198              		.align	2
 199              		.global	myI2C_I2CMasterClearStatus
ARM GAS  C:\Users\dev\AppData\Local\Temp\ccUIeHeA.s 			page 9


 200              		.thumb
 201              		.thumb_func
 202              		.type	myI2C_I2CMasterClearStatus, %function
 203              	myI2C_I2CMasterClearStatus:
 204              	.LFB726:
 252:my_i2c.c      **** 
 253:my_i2c.c      **** /*******************************************************************************
 254:my_i2c.c      **** * Function Name: myI2C_I2CMasterClearStatus
 255:my_i2c.c      **** ********************************************************************************
 256:my_i2c.c      **** *
 257:my_i2c.c      **** * Summary:
 258:my_i2c.c      **** *  Clears state
 259:my_i2c.c      **** *
 260:my_i2c.c      **** * Parameters:
 261:my_i2c.c      **** *	none
 262:my_i2c.c      **** *
 263:my_i2c.c      **** * Return:
 264:my_i2c.c      **** *  error
 265:my_i2c.c      **** *
 266:my_i2c.c      **** *******************************************************************************/
 267:my_i2c.c      **** uint32 myI2C_I2CMasterClearStatus( void ) {
 205              		.loc 1 267 0
 206              		.cfi_startproc
 207              		@ args = 0, pretend = 0, frame = 0
 208              		@ frame_needed = 0, uses_anonymous_args = 0
 209 0000 08B5     		push	{r3, lr}
 210              		.cfi_def_cfa_offset 8
 211              		.cfi_offset 3, -8
 212              		.cfi_offset 14, -4
 268:my_i2c.c      **** 	
 269:my_i2c.c      **** 	I2C_SDA_Write(1);
 213              		.loc 1 269 0
 214 0002 0120     		movs	r0, #1
 215 0004 FFF7FEFF 		bl	I2C_SDA_Write
 216              	.LVL23:
 270:my_i2c.c      **** 	I2C_SCL_Write(1);
 217              		.loc 1 270 0
 218 0008 0120     		movs	r0, #1
 219 000a FFF7FEFF 		bl	I2C_SCL_Write
 220              	.LVL24:
 271:my_i2c.c      **** 	CyDelayUs(4);
 221              		.loc 1 271 0
 222 000e 0420     		movs	r0, #4
 223 0010 FFF7FEFF 		bl	Cy_SysLib_DelayUs
 224              	.LVL25:
 272:my_i2c.c      **** 	
 273:my_i2c.c      **** 	myI2C_state = myI2C_IDLE;
 225              		.loc 1 273 0
 226 0014 0020     		movs	r0, #0
 227 0016 014B     		ldr	r3, .L20
 228 0018 1860     		str	r0, [r3]
 274:my_i2c.c      **** 	
 275:my_i2c.c      **** 	return myI2C_SUCCESS;
 276:my_i2c.c      **** 
 277:my_i2c.c      **** }
 229              		.loc 1 277 0
 230 001a 08BD     		pop	{r3, pc}
ARM GAS  C:\Users\dev\AppData\Local\Temp\ccUIeHeA.s 			page 10


 231              	.L21:
 232              		.align	2
 233              	.L20:
 234 001c 00000000 		.word	.LANCHOR0
 235              		.cfi_endproc
 236              	.LFE726:
 237              		.size	myI2C_I2CMasterClearStatus, .-myI2C_I2CMasterClearStatus
 238              		.section	.text.myI2C_Start,"ax",%progbits
 239              		.align	2
 240              		.global	myI2C_Start
 241              		.thumb
 242              		.thumb_func
 243              		.type	myI2C_Start, %function
 244              	myI2C_Start:
 245              	.LFB721:
  83:my_i2c.c      **** 	
 246              		.loc 1 83 0
 247              		.cfi_startproc
 248              		@ args = 0, pretend = 0, frame = 0
 249              		@ frame_needed = 0, uses_anonymous_args = 0
 250 0000 08B5     		push	{r3, lr}
 251              		.cfi_def_cfa_offset 8
 252              		.cfi_offset 3, -8
 253              		.cfi_offset 14, -4
  85:my_i2c.c      **** 	
 254              		.loc 1 85 0
 255 0002 FFF7FEFF 		bl	myI2C_I2CMasterClearStatus
 256              	.LVL26:
 257 0006 08BD     		pop	{r3, pc}
 258              		.cfi_endproc
 259              	.LFE721:
 260              		.size	myI2C_Start, .-myI2C_Start
 261              		.section	.text.myI2C_Stop,"ax",%progbits
 262              		.align	2
 263              		.global	myI2C_Stop
 264              		.thumb
 265              		.thumb_func
 266              		.type	myI2C_Stop, %function
 267              	myI2C_Stop:
 268              	.LFB722:
 103:my_i2c.c      **** 	
 269              		.loc 1 103 0
 270              		.cfi_startproc
 271              		@ args = 0, pretend = 0, frame = 0
 272              		@ frame_needed = 0, uses_anonymous_args = 0
 273 0000 08B5     		push	{r3, lr}
 274              		.cfi_def_cfa_offset 8
 275              		.cfi_offset 3, -8
 276              		.cfi_offset 14, -4
 105:my_i2c.c      **** }
 277              		.loc 1 105 0
 278 0002 FFF7FEFF 		bl	myI2C_I2CMasterClearStatus
 279              	.LVL27:
 280 0006 08BD     		pop	{r3, pc}
 281              		.cfi_endproc
 282              	.LFE722:
 283              		.size	myI2C_Stop, .-myI2C_Stop
ARM GAS  C:\Users\dev\AppData\Local\Temp\ccUIeHeA.s 			page 11


 284              		.section	.text.myI2C_I2CMasterWriteByte,"ax",%progbits
 285              		.align	2
 286              		.global	myI2C_I2CMasterWriteByte
 287              		.thumb
 288              		.thumb_func
 289              		.type	myI2C_I2CMasterWriteByte, %function
 290              	myI2C_I2CMasterWriteByte:
 291              	.LFB727:
 278:my_i2c.c      **** 
 279:my_i2c.c      **** /*******************************************************************************
 280:my_i2c.c      **** * Function Name: myI2C_I2CMasterWriteByte
 281:my_i2c.c      **** ********************************************************************************
 282:my_i2c.c      **** *
 283:my_i2c.c      **** * Summary:
 284:my_i2c.c      **** *  Sends a byte and checks the ack
 285:my_i2c.c      **** *
 286:my_i2c.c      **** * Parameters:
 287:my_i2c.c      **** * 	theByte - data
 288:my_i2c.c      **** *
 289:my_i2c.c      **** * Return:
 290:my_i2c.c      **** *  error
 291:my_i2c.c      **** *
 292:my_i2c.c      **** *******************************************************************************/
 293:my_i2c.c      **** uint32 myI2C_I2CMasterWriteByte(uint32 theByte) 
 294:my_i2c.c      **** {
 292              		.loc 1 294 0
 293              		.cfi_startproc
 294              		@ args = 0, pretend = 0, frame = 0
 295              		@ frame_needed = 0, uses_anonymous_args = 0
 296              	.LVL28:
 297 0000 38B5     		push	{r3, r4, r5, lr}
 298              		.cfi_def_cfa_offset 16
 299              		.cfi_offset 3, -16
 300              		.cfi_offset 4, -12
 301              		.cfi_offset 5, -8
 302              		.cfi_offset 14, -4
 303 0002 0546     		mov	r5, r0
 304              	.LVL29:
 295:my_i2c.c      **** 	int i;
 296:my_i2c.c      **** 	uint32 d;
 297:my_i2c.c      **** 	uint32 ack;
 298:my_i2c.c      **** 	uint32 b;
 299:my_i2c.c      **** 	
 300:my_i2c.c      **** 	d = theByte;
 301:my_i2c.c      **** 	
 302:my_i2c.c      **** 	//SCL and SDA should be low
 303:my_i2c.c      **** 	
 304:my_i2c.c      **** 	for (i=0; i<8; i++) 
 305              		.loc 1 304 0
 306 0004 0024     		movs	r4, #0
 307 0006 15E0     		b	.L27
 308              	.LVL30:
 309              	.L29:
 305:my_i2c.c      ****     {
 306:my_i2c.c      **** 		b = ( (d & 0x80) == 0x80);
 307:my_i2c.c      **** 		I2C_SDA_Write(b);
 310              		.loc 1 307 0
ARM GAS  C:\Users\dev\AppData\Local\Temp\ccUIeHeA.s 			page 12


 311 0008 C5F3C010 		ubfx	r0, r5, #7, #1
 312              	.LVL31:
 313 000c FFF7FEFF 		bl	I2C_SDA_Write
 314              	.LVL32:
 308:my_i2c.c      **** 		CyDelayUs(4);
 315              		.loc 1 308 0
 316 0010 0420     		movs	r0, #4
 317 0012 FFF7FEFF 		bl	Cy_SysLib_DelayUs
 318              	.LVL33:
 309:my_i2c.c      **** 		I2C_SCL_Write(1);
 319              		.loc 1 309 0
 320 0016 0120     		movs	r0, #1
 321 0018 FFF7FEFF 		bl	I2C_SCL_Write
 322              	.LVL34:
 310:my_i2c.c      **** 		
 311:my_i2c.c      **** 		if (myI2C_SCLidle() == myI2C_FAILED)
 323              		.loc 1 311 0
 324 001c FFF7FEFF 		bl	myI2C_SCLidle
 325              	.LVL35:
 326 0020 0128     		cmp	r0, #1
 327 0022 23D0     		beq	.L28
 312:my_i2c.c      **** 			return myI2C_FAILED;
 313:my_i2c.c      **** 		
 314:my_i2c.c      **** 		CyDelayUs(4);
 328              		.loc 1 314 0 discriminator 2
 329 0024 0420     		movs	r0, #4
 330 0026 FFF7FEFF 		bl	Cy_SysLib_DelayUs
 331              	.LVL36:
 315:my_i2c.c      **** 		I2C_SCL_Write(0);
 332              		.loc 1 315 0 discriminator 2
 333 002a 0020     		movs	r0, #0
 334 002c FFF7FEFF 		bl	I2C_SCL_Write
 335              	.LVL37:
 316:my_i2c.c      **** 		
 317:my_i2c.c      **** 		d <<= 1;
 336              		.loc 1 317 0 discriminator 2
 337 0030 6D00     		lsls	r5, r5, #1
 338              	.LVL38:
 304:my_i2c.c      ****     {
 339              		.loc 1 304 0 discriminator 2
 340 0032 0134     		adds	r4, r4, #1
 341              	.LVL39:
 342              	.L27:
 304:my_i2c.c      ****     {
 343              		.loc 1 304 0 is_stmt 0 discriminator 1
 344 0034 072C     		cmp	r4, #7
 345 0036 E7DD     		ble	.L29
 318:my_i2c.c      **** 	}
 319:my_i2c.c      **** 	
 320:my_i2c.c      **** 	//Ack
 321:my_i2c.c      **** 	I2C_SDA_Write(1);
 346              		.loc 1 321 0 is_stmt 1
 347 0038 0120     		movs	r0, #1
 348 003a FFF7FEFF 		bl	I2C_SDA_Write
 349              	.LVL40:
 322:my_i2c.c      **** 	
 323:my_i2c.c      **** 	CyDelayUs(4);
ARM GAS  C:\Users\dev\AppData\Local\Temp\ccUIeHeA.s 			page 13


 350              		.loc 1 323 0
 351 003e 0420     		movs	r0, #4
 352 0040 FFF7FEFF 		bl	Cy_SysLib_DelayUs
 353              	.LVL41:
 324:my_i2c.c      **** 	I2C_SCL_Write(1);
 354              		.loc 1 324 0
 355 0044 0120     		movs	r0, #1
 356 0046 FFF7FEFF 		bl	I2C_SCL_Write
 357              	.LVL42:
 325:my_i2c.c      **** 	CyDelayUs(4);
 358              		.loc 1 325 0
 359 004a 0420     		movs	r0, #4
 360 004c FFF7FEFF 		bl	Cy_SysLib_DelayUs
 361              	.LVL43:
 326:my_i2c.c      **** 	
 327:my_i2c.c      **** 	ack = I2C_SDA_Read();
 362              		.loc 1 327 0
 363 0050 FFF7FEFF 		bl	I2C_SDA_Read
 364              	.LVL44:
 365 0054 0446     		mov	r4, r0
 366              	.LVL45:
 328:my_i2c.c      **** 	
 329:my_i2c.c      **** 	I2C_SCL_Write(0);
 367              		.loc 1 329 0
 368 0056 0020     		movs	r0, #0
 369              	.LVL46:
 370 0058 FFF7FEFF 		bl	I2C_SCL_Write
 371              	.LVL47:
 330:my_i2c.c      **** 	
 331:my_i2c.c      **** 	if (ack) 
 372              		.loc 1 331 0
 373 005c 2CB1     		cbz	r4, .L30
 332:my_i2c.c      ****     {
 333:my_i2c.c      **** 		myI2C_I2CMasterSendStop();
 374              		.loc 1 333 0
 375 005e FFF7FEFF 		bl	myI2C_I2CMasterSendStop
 376              	.LVL48:
 334:my_i2c.c      **** 		myI2C_I2CMasterClearStatus();
 377              		.loc 1 334 0
 378 0062 FFF7FEFF 		bl	myI2C_I2CMasterClearStatus
 379              	.LVL49:
 335:my_i2c.c      **** 	}
 336:my_i2c.c      **** 		
 337:my_i2c.c      **** 	return ack;
 380              		.loc 1 337 0
 381 0066 2046     		mov	r0, r4
 382 0068 38BD     		pop	{r3, r4, r5, pc}
 383              	.LVL50:
 384              	.L30:
 385 006a 2046     		mov	r0, r4
 386              	.LVL51:
 387              	.L28:
 338:my_i2c.c      **** 	
 339:my_i2c.c      **** }
 388              		.loc 1 339 0
 389 006c 38BD     		pop	{r3, r4, r5, pc}
 390              		.cfi_endproc
ARM GAS  C:\Users\dev\AppData\Local\Temp\ccUIeHeA.s 			page 14


 391              	.LFE727:
 392              		.size	myI2C_I2CMasterWriteByte, .-myI2C_I2CMasterWriteByte
 393 006e 00BF     		.section	.text.myI2C_I2CMasterSendRestart,"ax",%progbits
 394              		.align	2
 395              		.global	myI2C_I2CMasterSendRestart
 396              		.thumb
 397              		.thumb_func
 398              		.type	myI2C_I2CMasterSendRestart, %function
 399              	myI2C_I2CMasterSendRestart:
 400              	.LFB724:
 148:my_i2c.c      **** 	uint8 sa;
 401              		.loc 1 148 0
 402              		.cfi_startproc
 403              		@ args = 0, pretend = 0, frame = 0
 404              		@ frame_needed = 0, uses_anonymous_args = 0
 405              	.LVL52:
 406 0000 38B5     		push	{r3, r4, r5, lr}
 407              		.cfi_def_cfa_offset 16
 408              		.cfi_offset 3, -16
 409              		.cfi_offset 4, -12
 410              		.cfi_offset 5, -8
 411              		.cfi_offset 14, -4
 412 0002 0D46     		mov	r5, r1
 152:my_i2c.c      **** 		
 413              		.loc 1 152 0
 414 0004 01F00103 		and	r3, r1, #1
 415 0008 43EA4000 		orr	r0, r3, r0, lsl #1
 416              	.LVL53:
 417 000c C4B2     		uxtb	r4, r0
 418              	.LVL54:
 154:my_i2c.c      **** 	if (myI2C_SDAidle() == myI2C_FAILED)
 419              		.loc 1 154 0
 420 000e 0120     		movs	r0, #1
 421 0010 FFF7FEFF 		bl	I2C_SDA_Write
 422              	.LVL55:
 155:my_i2c.c      **** 		return myI2C_FAILED;
 423              		.loc 1 155 0
 424 0014 FFF7FEFF 		bl	myI2C_SDAidle
 425              	.LVL56:
 426 0018 0128     		cmp	r0, #1
 427 001a 44D0     		beq	.L33
 158:my_i2c.c      **** 	
 428              		.loc 1 158 0
 429 001c 0820     		movs	r0, #8
 430 001e FFF7FEFF 		bl	Cy_SysLib_DelayUs
 431              	.LVL57:
 160:my_i2c.c      **** 	if (myI2C_SCLidle() == myI2C_FAILED)
 432              		.loc 1 160 0
 433 0022 0120     		movs	r0, #1
 434 0024 FFF7FEFF 		bl	I2C_SCL_Write
 435              	.LVL58:
 161:my_i2c.c      **** 		return myI2C_FAILED;
 436              		.loc 1 161 0
 437 0028 FFF7FEFF 		bl	myI2C_SCLidle
 438              	.LVL59:
 439 002c 0128     		cmp	r0, #1
 440 002e 3AD0     		beq	.L33
ARM GAS  C:\Users\dev\AppData\Local\Temp\ccUIeHeA.s 			page 15


 164:my_i2c.c      **** 	
 441              		.loc 1 164 0
 442 0030 0820     		movs	r0, #8
 443 0032 FFF7FEFF 		bl	Cy_SysLib_DelayUs
 444              	.LVL60:
 166:my_i2c.c      **** 	if (I2C_SDA_Read() != 0) {
 445              		.loc 1 166 0
 446 0036 0020     		movs	r0, #0
 447 0038 FFF7FEFF 		bl	I2C_SDA_Write
 448              	.LVL61:
 167:my_i2c.c      **** 		
 449              		.loc 1 167 0
 450 003c FFF7FEFF 		bl	I2C_SDA_Read
 451              	.LVL62:
 452 0040 38B1     		cbz	r0, .L34
 169:my_i2c.c      **** 		I2C_SDA_Write(1);
 453              		.loc 1 169 0
 454 0042 0120     		movs	r0, #1
 455 0044 FFF7FEFF 		bl	I2C_SCL_Write
 456              	.LVL63:
 170:my_i2c.c      **** 		
 457              		.loc 1 170 0
 458 0048 0120     		movs	r0, #1
 459 004a FFF7FEFF 		bl	I2C_SDA_Write
 460              	.LVL64:
 172:my_i2c.c      **** 	}
 461              		.loc 1 172 0
 462 004e 0120     		movs	r0, #1
 463 0050 38BD     		pop	{r3, r4, r5, pc}
 464              	.LVL65:
 465              	.L34:
 175:my_i2c.c      **** 	
 466              		.loc 1 175 0
 467 0052 0820     		movs	r0, #8
 468 0054 FFF7FEFF 		bl	Cy_SysLib_DelayUs
 469              	.LVL66:
 177:my_i2c.c      **** 	if (I2C_SCL_Read() != 0) {
 470              		.loc 1 177 0
 471 0058 0020     		movs	r0, #0
 472 005a FFF7FEFF 		bl	I2C_SCL_Write
 473              	.LVL67:
 178:my_i2c.c      **** 		
 474              		.loc 1 178 0
 475 005e FFF7FEFF 		bl	I2C_SCL_Read
 476              	.LVL68:
 477 0062 38B1     		cbz	r0, .L35
 180:my_i2c.c      **** 		I2C_SDA_Write(1);
 478              		.loc 1 180 0
 479 0064 0120     		movs	r0, #1
 480 0066 FFF7FEFF 		bl	I2C_SCL_Write
 481              	.LVL69:
 181:my_i2c.c      **** 		
 482              		.loc 1 181 0
 483 006a 0120     		movs	r0, #1
 484 006c FFF7FEFF 		bl	I2C_SDA_Write
 485              	.LVL70:
 183:my_i2c.c      **** 	}
ARM GAS  C:\Users\dev\AppData\Local\Temp\ccUIeHeA.s 			page 16


 486              		.loc 1 183 0
 487 0070 0120     		movs	r0, #1
 488 0072 38BD     		pop	{r3, r4, r5, pc}
 489              	.LVL71:
 490              	.L35:
 186:my_i2c.c      **** 	
 491              		.loc 1 186 0
 492 0074 0820     		movs	r0, #8
 493 0076 FFF7FEFF 		bl	Cy_SysLib_DelayUs
 494              	.LVL72:
 188:my_i2c.c      **** 	
 495              		.loc 1 188 0
 496 007a 0122     		movs	r2, #1
 497 007c 0A4B     		ldr	r3, .L39
 498 007e 1A60     		str	r2, [r3]
 190:my_i2c.c      **** 	
 499              		.loc 1 190 0
 500 0080 2046     		mov	r0, r4
 501 0082 FFF7FEFF 		bl	myI2C_I2CMasterWriteByte
 502              	.LVL73:
 192:my_i2c.c      **** 		myI2C_I2CMasterSendStop();
 503              		.loc 1 192 0
 504 0086 0446     		mov	r4, r0
 505              	.LVL74:
 506 0088 28B1     		cbz	r0, .L36
 193:my_i2c.c      **** 		myI2C_I2CMasterClearStatus();
 507              		.loc 1 193 0
 508 008a FFF7FEFF 		bl	myI2C_I2CMasterSendStop
 509              	.LVL75:
 194:my_i2c.c      **** 	} else {
 510              		.loc 1 194 0
 511 008e FFF7FEFF 		bl	myI2C_I2CMasterClearStatus
 512              	.LVL76:
 203:my_i2c.c      **** }
 513              		.loc 1 203 0
 514 0092 2046     		mov	r0, r4
 515 0094 38BD     		pop	{r3, r4, r5, pc}
 516              	.LVL77:
 517              	.L36:
 196:my_i2c.c      **** 			myI2C_state = myI2C_WRITE;
 518              		.loc 1 196 0
 519 0096 1DB9     		cbnz	r5, .L37
 197:my_i2c.c      **** 		} else {
 520              		.loc 1 197 0
 521 0098 0222     		movs	r2, #2
 522 009a 034B     		ldr	r3, .L39
 523 009c 1A60     		str	r2, [r3]
 524 009e 38BD     		pop	{r3, r4, r5, pc}
 525              	.LVL78:
 526              	.L37:
 199:my_i2c.c      **** 		}
 527              		.loc 1 199 0
 528 00a0 0322     		movs	r2, #3
 529 00a2 014B     		ldr	r3, .L39
 530 00a4 1A60     		str	r2, [r3]
 531              	.LVL79:
 532              	.L33:
ARM GAS  C:\Users\dev\AppData\Local\Temp\ccUIeHeA.s 			page 17


 204:my_i2c.c      **** 	
 533              		.loc 1 204 0
 534 00a6 38BD     		pop	{r3, r4, r5, pc}
 535              	.LVL80:
 536              	.L40:
 537              		.align	2
 538              	.L39:
 539 00a8 00000000 		.word	.LANCHOR0
 540              		.cfi_endproc
 541              	.LFE724:
 542              		.size	myI2C_I2CMasterSendRestart, .-myI2C_I2CMasterSendRestart
 543              		.section	.text.myI2C_I2CMasterSendStart,"ax",%progbits
 544              		.align	2
 545              		.global	myI2C_I2CMasterSendStart
 546              		.thumb
 547              		.thumb_func
 548              		.type	myI2C_I2CMasterSendStart, %function
 549              	myI2C_I2CMasterSendStart:
 550              	.LFB723:
 123:my_i2c.c      **** 	
 551              		.loc 1 123 0
 552              		.cfi_startproc
 553              		@ args = 0, pretend = 0, frame = 0
 554              		@ frame_needed = 0, uses_anonymous_args = 0
 555              	.LVL81:
 556 0000 08B5     		push	{r3, lr}
 557              		.cfi_def_cfa_offset 8
 558              		.cfi_offset 3, -8
 559              		.cfi_offset 14, -4
 125:my_i2c.c      **** 		return myI2C_FAILED;  //I should be in idle state when called
 560              		.loc 1 125 0
 561 0002 044B     		ldr	r3, .L45
 562 0004 1B68     		ldr	r3, [r3]
 563 0006 13B9     		cbnz	r3, .L43
 129:my_i2c.c      **** 	
 564              		.loc 1 129 0
 565 0008 FFF7FEFF 		bl	myI2C_I2CMasterSendRestart
 566              	.LVL82:
 567 000c 08BD     		pop	{r3, pc}
 568              	.LVL83:
 569              	.L43:
 126:my_i2c.c      **** 	}
 570              		.loc 1 126 0
 571 000e 0120     		movs	r0, #1
 572              	.LVL84:
 131:my_i2c.c      **** 
 573              		.loc 1 131 0
 574 0010 08BD     		pop	{r3, pc}
 575              	.L46:
 576 0012 00BF     		.align	2
 577              	.L45:
 578 0014 00000000 		.word	.LANCHOR0
 579              		.cfi_endproc
 580              	.LFE723:
 581              		.size	myI2C_I2CMasterSendStart, .-myI2C_I2CMasterSendStart
 582              		.section	.text.myI2C_I2CMasterReadByte,"ax",%progbits
 583              		.align	2
ARM GAS  C:\Users\dev\AppData\Local\Temp\ccUIeHeA.s 			page 18


 584              		.global	myI2C_I2CMasterReadByte
 585              		.thumb
 586              		.thumb_func
 587              		.type	myI2C_I2CMasterReadByte, %function
 588              	myI2C_I2CMasterReadByte:
 589              	.LFB728:
 340:my_i2c.c      **** 
 341:my_i2c.c      **** /*******************************************************************************
 342:my_i2c.c      **** * Function Name: myI2C_I2CMasterReadByte
 343:my_i2c.c      **** ********************************************************************************
 344:my_i2c.c      **** *
 345:my_i2c.c      **** * Summary:
 346:my_i2c.c      **** *  Reads a byte and asserts ack or nack
 347:my_i2c.c      **** *
 348:my_i2c.c      **** * Parameters:
 349:my_i2c.c      **** * 	ackNack - 1 assert ACK, 0 assert NACK
 350:my_i2c.c      **** *
 351:my_i2c.c      **** * Return:
 352:my_i2c.c      **** *  read data
 353:my_i2c.c      **** *
 354:my_i2c.c      **** *******************************************************************************/
 355:my_i2c.c      **** uint32  myI2C_I2CMasterReadByte(uint32 ackNack) {
 590              		.loc 1 355 0
 591              		.cfi_startproc
 592              		@ args = 0, pretend = 0, frame = 0
 593              		@ frame_needed = 0, uses_anonymous_args = 0
 594              	.LVL85:
 595 0000 70B5     		push	{r4, r5, r6, lr}
 596              		.cfi_def_cfa_offset 16
 597              		.cfi_offset 4, -16
 598              		.cfi_offset 5, -12
 599              		.cfi_offset 6, -8
 600              		.cfi_offset 14, -4
 601 0002 0646     		mov	r6, r0
 602              	.LVL86:
 356:my_i2c.c      **** 	
 357:my_i2c.c      **** 	int i;
 358:my_i2c.c      **** 	uint32 d = 0;
 359:my_i2c.c      **** 	
 360:my_i2c.c      **** 	//SCL and SDA should be low
 361:my_i2c.c      **** 	
 362:my_i2c.c      **** 	//Release SDA
 363:my_i2c.c      **** 	I2C_SDA_Write(1);
 603              		.loc 1 363 0
 604 0004 0120     		movs	r0, #1
 605              	.LVL87:
 606 0006 FFF7FEFF 		bl	I2C_SDA_Write
 607              	.LVL88:
 358:my_i2c.c      **** 	
 608              		.loc 1 358 0
 609 000a 0024     		movs	r4, #0
 364:my_i2c.c      **** 	
 365:my_i2c.c      **** 	for (i=0; i<8; i++) {
 610              		.loc 1 365 0
 611 000c 2546     		mov	r5, r4
 612 000e 14E0     		b	.L48
 613              	.LVL89:
ARM GAS  C:\Users\dev\AppData\Local\Temp\ccUIeHeA.s 			page 19


 614              	.L50:
 366:my_i2c.c      **** 		CyDelayUs(4);
 615              		.loc 1 366 0
 616 0010 0420     		movs	r0, #4
 617 0012 FFF7FEFF 		bl	Cy_SysLib_DelayUs
 618              	.LVL90:
 367:my_i2c.c      **** 		I2C_SCL_Write(1);
 619              		.loc 1 367 0
 620 0016 0120     		movs	r0, #1
 621 0018 FFF7FEFF 		bl	I2C_SCL_Write
 622              	.LVL91:
 368:my_i2c.c      **** 		
 369:my_i2c.c      **** 		if (myI2C_SCLidle() == myI2C_FAILED)
 623              		.loc 1 369 0
 624 001c FFF7FEFF 		bl	myI2C_SCLidle
 625              	.LVL92:
 626 0020 0128     		cmp	r0, #1
 627 0022 21D0     		beq	.L49
 370:my_i2c.c      **** 			return myI2C_FAILED;
 371:my_i2c.c      **** 		
 372:my_i2c.c      **** 		CyDelayUs(4);
 628              		.loc 1 372 0 discriminator 2
 629 0024 0420     		movs	r0, #4
 630 0026 FFF7FEFF 		bl	Cy_SysLib_DelayUs
 631              	.LVL93:
 373:my_i2c.c      **** 		
 374:my_i2c.c      **** 		//Sample SDA
 375:my_i2c.c      **** 		d <<= 1;
 632              		.loc 1 375 0 discriminator 2
 633 002a 6400     		lsls	r4, r4, #1
 634              	.LVL94:
 376:my_i2c.c      **** 		d |= I2C_SDA_Read();
 635              		.loc 1 376 0 discriminator 2
 636 002c FFF7FEFF 		bl	I2C_SDA_Read
 637              	.LVL95:
 638 0030 0443     		orrs	r4, r4, r0
 639              	.LVL96:
 377:my_i2c.c      **** 		
 378:my_i2c.c      **** 		I2C_SCL_Write(0);
 640              		.loc 1 378 0 discriminator 2
 641 0032 0020     		movs	r0, #0
 642 0034 FFF7FEFF 		bl	I2C_SCL_Write
 643              	.LVL97:
 365:my_i2c.c      **** 		CyDelayUs(4);
 644              		.loc 1 365 0 discriminator 2
 645 0038 0135     		adds	r5, r5, #1
 646              	.LVL98:
 647              	.L48:
 365:my_i2c.c      **** 		CyDelayUs(4);
 648              		.loc 1 365 0 is_stmt 0 discriminator 1
 649 003a 072D     		cmp	r5, #7
 650 003c E8DD     		ble	.L50
 379:my_i2c.c      **** 	}
 380:my_i2c.c      **** 	
 381:my_i2c.c      **** 	//Ack
 382:my_i2c.c      **** 	if (ackNack) {
 651              		.loc 1 382 0 is_stmt 1
ARM GAS  C:\Users\dev\AppData\Local\Temp\ccUIeHeA.s 			page 20


 652 003e 1EB1     		cbz	r6, .L51
 383:my_i2c.c      **** 		I2C_SDA_Write(0);
 653              		.loc 1 383 0
 654 0040 0020     		movs	r0, #0
 655 0042 FFF7FEFF 		bl	I2C_SDA_Write
 656              	.LVL99:
 657 0046 02E0     		b	.L52
 658              	.L51:
 384:my_i2c.c      **** 	} else {
 385:my_i2c.c      **** 		I2C_SDA_Write(1);
 659              		.loc 1 385 0
 660 0048 0120     		movs	r0, #1
 661 004a FFF7FEFF 		bl	I2C_SDA_Write
 662              	.LVL100:
 663              	.L52:
 386:my_i2c.c      **** 	}
 387:my_i2c.c      **** 	
 388:my_i2c.c      **** 	CyDelayUs(4);
 664              		.loc 1 388 0
 665 004e 0420     		movs	r0, #4
 666 0050 FFF7FEFF 		bl	Cy_SysLib_DelayUs
 667              	.LVL101:
 389:my_i2c.c      **** 	I2C_SCL_Write(1);
 668              		.loc 1 389 0
 669 0054 0120     		movs	r0, #1
 670 0056 FFF7FEFF 		bl	I2C_SCL_Write
 671              	.LVL102:
 390:my_i2c.c      **** 	CyDelayUs(4);
 672              		.loc 1 390 0
 673 005a 0420     		movs	r0, #4
 674 005c FFF7FEFF 		bl	Cy_SysLib_DelayUs
 675              	.LVL103:
 391:my_i2c.c      **** 	I2C_SCL_Write(0);
 676              		.loc 1 391 0
 677 0060 0020     		movs	r0, #0
 678 0062 FFF7FEFF 		bl	I2C_SCL_Write
 679              	.LVL104:
 392:my_i2c.c      **** 	
 393:my_i2c.c      **** 	return d;
 680              		.loc 1 393 0
 681 0066 2046     		mov	r0, r4
 682              	.L49:
 394:my_i2c.c      **** 		
 395:my_i2c.c      **** }
 683              		.loc 1 395 0
 684 0068 70BD     		pop	{r4, r5, r6, pc}
 685              		.cfi_endproc
 686              	.LFE728:
 687              		.size	myI2C_I2CMasterReadByte, .-myI2C_I2CMasterReadByte
 688              		.global	myI2C_state
 689 006a 00BF     		.bss
 690              		.align	2
 691              		.set	.LANCHOR0,. + 0
 692              		.type	myI2C_state, %object
 693              		.size	myI2C_state, 4
 694              	myI2C_state:
 695 0000 00000000 		.space	4
ARM GAS  C:\Users\dev\AppData\Local\Temp\ccUIeHeA.s 			page 21


 696              		.text
 697              	.Letext0:
 698              		.file 2 "c:\\program files (x86)\\cypress\\psoc creator\\4.4\\psoc creator\\import\\gnu\\arm\\5.4.
 699              		.file 3 "c:\\program files (x86)\\cypress\\psoc creator\\4.4\\psoc creator\\import\\gnu\\arm\\5.4.
 700              		.file 4 "Generated_Source\\PSoC6\\pdl\\drivers/peripheral/device/cy_device.h"
 701              		.file 5 "Generated_Source\\PSoC6\\pdl\\drivers/peripheral/syslib/cy_syslib.h"
 702              		.file 6 "Generated_Source\\PSoC6\\pdl\\drivers/peripheral/i2s/cy_i2s.h"
 703              		.file 7 "Generated_Source\\PSoC6\\pdl\\drivers/peripheral/sar/cy_sar.h"
 704              		.file 8 "Generated_Source\\PSoC6\\pdl\\drivers/peripheral/tcpwm/cy_tcpwm_pwm.h"
 705              		.file 9 "Generated_Source\\PSoC6\\pdl\\middleware/ble/cy_ble_stack.h"
 706              		.file 10 "Generated_Source\\PSoC6\\pdl\\middleware/ble/cy_ble_stack_host_main.h"
 707              		.file 11 "Generated_Source\\PSoC6\\pdl\\middleware/ble/cy_ble_gap.h"
 708              		.file 12 "Generated_Source\\PSoC6/ADC.h"
 709              		.file 13 "Generated_Source\\PSoC6\\pdl\\cmsis/include/core_cm4.h"
 710              		.file 14 "Generated_Source\\PSoC6/PWM_TENS2.h"
 711              		.file 15 "Generated_Source\\PSoC6/AMP_PWM.h"
 712              		.file 16 "Generated_Source\\PSoC6/PWM_TENS.h"
 713              		.file 17 "Generated_Source\\PSoC6/PWM_FAN.h"
 714              		.file 18 "Generated_Source\\PSoC6/LCD_PWM.h"
 715              		.file 19 "Generated_Source\\PSoC6/I2S.h"
 716              		.file 20 "Generated_Source\\PSoC6/PWM_PEL1.h"
 717              		.file 21 "Generated_Source\\PSoC6/PWM_PEL2.h"
 718              		.file 22 "power.h"