ARM GAS  C:\Users\dev\AppData\Local\Temp\ccrbWUIQ.s 			page 1


   1              		.syntax unified
   2              		.cpu cortex-m4
   3              		.eabi_attribute 27, 1
   4              		.fpu fpv4-sp-d16
   5              		.eabi_attribute 20, 1
   6              		.eabi_attribute 21, 1
   7              		.eabi_attribute 23, 3
   8              		.eabi_attribute 24, 1
   9              		.eabi_attribute 25, 1
  10              		.eabi_attribute 26, 1
  11              		.eabi_attribute 30, 1
  12              		.eabi_attribute 34, 1
  13              		.eabi_attribute 18, 4
  14              		.thumb
  15              		.syntax unified
  16              		.file	"myprintf.c"
  17              		.text
  18              	.Ltext0:
  19              		.cfi_sections	.debug_frame
  20              		.section	.text.change,"ax",%progbits
  21              		.align	2
  22              		.thumb
  23              		.thumb_func
  24              		.type	change, %function
  25              	change:
  26              	.LFB720:
  27              		.file 1 "myprintf.c"
   1:myprintf.c    **** /******************************************************************************
   2:myprintf.c    **** *This file is for myprintf()
   3:myprintf.c    **** *The myprintf() is a simple myprintf() and only can print string with %s,%d,%c,%x.
   4:myprintf.c    **** *******************************************************************************/
   5:myprintf.c    **** 
   6:myprintf.c    **** #include "myUART.h"
   7:myprintf.c    **** #include "myprintf.h"
   8:myprintf.c    **** 
   9:myprintf.c    **** //static int len = 0;
  10:myprintf.c    **** //static char8 iprintstr[256];
  11:myprintf.c    **** 
  12:myprintf.c    **** static void iputc(char8 ch)
  13:myprintf.c    **** {
  14:myprintf.c    **** 	/*This function has to be replaced by user*/	
  15:myprintf.c    **** 	myUART_PutChar(ch);
  16:myprintf.c    **** 	//add to the fifo
  17:myprintf.c    **** 	//iprintstr[len++] = ch;
  18:myprintf.c    **** }
  19:myprintf.c    **** 
  20:myprintf.c    **** static uint8* change(uint32 Index)
  21:myprintf.c    **** {
  28              		.loc 1 21 0
  29              		.cfi_startproc
  30              		@ args = 0, pretend = 0, frame = 0
  31              		@ frame_needed = 0, uses_anonymous_args = 0
  32              		@ link register save eliminated.
  33              	.LVL0:
  22:myprintf.c    ****     return (uint8*)("0123456789abcdef"+Index);
  23:myprintf.c    **** }
  34              		.loc 1 23 0
ARM GAS  C:\Users\dev\AppData\Local\Temp\ccrbWUIQ.s 			page 2


  35 0000 014B     		ldr	r3, .L2
  36 0002 1844     		add	r0, r0, r3
  37              	.LVL1:
  38 0004 7047     		bx	lr
  39              	.L3:
  40 0006 00BF     		.align	2
  41              	.L2:
  42 0008 00000000 		.word	.LC0
  43              		.cfi_endproc
  44              	.LFE720:
  45              		.size	change, .-change
  46              		.section	.text.iputc,"ax",%progbits
  47              		.align	2
  48              		.thumb
  49              		.thumb_func
  50              		.type	iputc, %function
  51              	iputc:
  52              	.LFB719:
  13:myprintf.c    **** 	/*This function has to be replaced by user*/	
  53              		.loc 1 13 0
  54              		.cfi_startproc
  55              		@ args = 0, pretend = 0, frame = 0
  56              		@ frame_needed = 0, uses_anonymous_args = 0
  57              	.LVL2:
  58 0000 08B5     		push	{r3, lr}
  59              		.cfi_def_cfa_offset 8
  60              		.cfi_offset 3, -8
  61              		.cfi_offset 14, -4
  15:myprintf.c    **** 	//add to the fifo
  62              		.loc 1 15 0
  63 0002 FFF7FEFF 		bl	myUART_PutChar
  64              	.LVL3:
  65 0006 08BD     		pop	{r3, pc}
  66              		.cfi_endproc
  67              	.LFE719:
  68              		.size	iputc, .-iputc
  69              		.section	.text.myprintf,"ax",%progbits
  70              		.align	2
  71              		.global	myprintf
  72              		.thumb
  73              		.thumb_func
  74              		.type	myprintf, %function
  75              	myprintf:
  76              	.LFB721:
  24:myprintf.c    **** 
  25:myprintf.c    **** 
  26:myprintf.c    **** void myprintf(char8 *pszFmt,...)
  27:myprintf.c    **** {
  77              		.loc 1 27 0
  78              		.cfi_startproc
  79              		@ args = 4, pretend = 16, frame = 96
  80              		@ frame_needed = 0, uses_anonymous_args = 1
  81              	.LVL4:
  82 0000 0FB4     		push	{r0, r1, r2, r3}
  83              		.cfi_def_cfa_offset 16
  84              		.cfi_offset 0, -16
  85              		.cfi_offset 1, -12
ARM GAS  C:\Users\dev\AppData\Local\Temp\ccrbWUIQ.s 			page 3


  86              		.cfi_offset 2, -8
  87              		.cfi_offset 3, -4
  88 0002 70B5     		push	{r4, r5, r6, lr}
  89              		.cfi_def_cfa_offset 32
  90              		.cfi_offset 4, -32
  91              		.cfi_offset 5, -28
  92              		.cfi_offset 6, -24
  93              		.cfi_offset 14, -20
  94 0004 98B0     		sub	sp, sp, #96
  95              		.cfi_def_cfa_offset 128
  96              	.LVL5:
  28:myprintf.c    ****     uint8 *pszVal;
  29:myprintf.c    ****     uint32 xVal, i = 0, buffer[24], index = 1;
  97              		.loc 1 29 0
  98 0006 0124     		movs	r4, #1
  30:myprintf.c    ****     int32 iVal;
  31:myprintf.c    ****     uint8 cVal;
  32:myprintf.c    ****     uint32 *pArg;
  33:myprintf.c    ****     pArg =(uint32 *)&pszFmt;
  34:myprintf.c    **** 	
  35:myprintf.c    **** 	//len = 0;
  36:myprintf.c    **** 
  37:myprintf.c    ****     while(*pszFmt)
  99              		.loc 1 37 0
 100 0008 98E0     		b	.L7
 101              	.LVL6:
 102              	.L26:
  38:myprintf.c    ****     {
  39:myprintf.c    ****         if('%' != *pszFmt)
 103              		.loc 1 39 0
 104 000a 2528     		cmp	r0, #37
 105 000c 05D0     		beq	.L8
  40:myprintf.c    ****         {
  41:myprintf.c    ****             iputc(*pszFmt);
 106              		.loc 1 41 0
 107 000e FFF7FEFF 		bl	iputc
 108              	.LVL7:
  42:myprintf.c    ****             pszFmt++;
 109              		.loc 1 42 0
 110 0012 1C9B     		ldr	r3, [sp, #112]
 111 0014 0133     		adds	r3, r3, #1
 112 0016 1C93     		str	r3, [sp, #112]
  43:myprintf.c    ****             continue;
 113              		.loc 1 43 0
 114 0018 90E0     		b	.L7
 115              	.L8:
  44:myprintf.c    ****         }
  45:myprintf.c    ****         pszFmt++;
 116              		.loc 1 45 0
 117 001a 5A1C     		adds	r2, r3, #1
 118 001c 1C92     		str	r2, [sp, #112]
  46:myprintf.c    **** 
  47:myprintf.c    ****         if(*pszFmt == 's')
 119              		.loc 1 47 0
 120 001e 5B78     		ldrb	r3, [r3, #1]	@ zero_extendqisi2
 121 0020 732B     		cmp	r3, #115
 122 0022 0FD1     		bne	.L10
ARM GAS  C:\Users\dev\AppData\Local\Temp\ccrbWUIQ.s 			page 4


  48:myprintf.c    ****         {
  49:myprintf.c    ****             pszVal = (uint8*)pArg[index++];
 123              		.loc 1 49 0
 124 0024 651C     		adds	r5, r4, #1
 125              	.LVL8:
 126 0026 1CAB     		add	r3, sp, #112
 127              	.LVL9:
 128 0028 53F82440 		ldr	r4, [r3, r4, lsl #2]
 129              	.LVL10:
  50:myprintf.c    ****             for(; *pszVal != '\0'; pszVal++)
 130              		.loc 1 50 0
 131 002c 02E0     		b	.L11
 132              	.LVL11:
 133              	.L12:
  51:myprintf.c    ****                 iputc(*pszVal);
 134              		.loc 1 51 0 discriminator 2
 135 002e FFF7FEFF 		bl	iputc
 136              	.LVL12:
  50:myprintf.c    ****             for(; *pszVal != '\0'; pszVal++)
 137              		.loc 1 50 0 discriminator 2
 138 0032 0134     		adds	r4, r4, #1
 139              	.LVL13:
 140              	.L11:
  50:myprintf.c    ****             for(; *pszVal != '\0'; pszVal++)
 141              		.loc 1 50 0 is_stmt 0 discriminator 1
 142 0034 2078     		ldrb	r0, [r4]	@ zero_extendqisi2
 143 0036 0028     		cmp	r0, #0
 144 0038 F9D1     		bne	.L12
  52:myprintf.c    ****             pszFmt++;
 145              		.loc 1 52 0 is_stmt 1
 146 003a 1C9B     		ldr	r3, [sp, #112]
 147 003c 0133     		adds	r3, r3, #1
 148 003e 1C93     		str	r3, [sp, #112]
  49:myprintf.c    ****             for(; *pszVal != '\0'; pszVal++)
 149              		.loc 1 49 0
 150 0040 2C46     		mov	r4, r5
 151              	.LVL14:
  53:myprintf.c    ****             continue;
 152              		.loc 1 53 0
 153 0042 7BE0     		b	.L7
 154              	.LVL15:
 155              	.L10:
  54:myprintf.c    ****         }
  55:myprintf.c    ****         if(*pszFmt == 'd')
 156              		.loc 1 55 0
 157 0044 642B     		cmp	r3, #100
 158 0046 32D1     		bne	.L13
  56:myprintf.c    ****         {
  57:myprintf.c    ****             iVal = pArg[index++];
 159              		.loc 1 57 0
 160 0048 661C     		adds	r6, r4, #1
 161              	.LVL16:
 162 004a 1CAB     		add	r3, sp, #112
 163              	.LVL17:
 164 004c 53F82450 		ldr	r5, [r3, r4, lsl #2]
 165              	.LVL18:
  58:myprintf.c    ****             
ARM GAS  C:\Users\dev\AppData\Local\Temp\ccrbWUIQ.s 			page 5


  59:myprintf.c    ****             if (iVal < 0) {
 166              		.loc 1 59 0
 167 0050 002D     		cmp	r5, #0
 168 0052 03DA     		bge	.L14
  60:myprintf.c    ****                 iputc('-'); 
 169              		.loc 1 60 0
 170 0054 2D20     		movs	r0, #45
 171 0056 FFF7FEFF 		bl	iputc
 172              	.LVL19:
  61:myprintf.c    ****                 iVal = ~iVal; 
  62:myprintf.c    ****                 iVal++;   
 173              		.loc 1 62 0
 174 005a 6D42     		negs	r5, r5
 175              	.LVL20:
 176              	.L14:
  27:myprintf.c    ****     uint8 *pszVal;
 177              		.loc 1 27 0 discriminator 1
 178 005c 0022     		movs	r2, #0
 179              	.L15:
 180              	.LVL21:
  63:myprintf.c    ****             }
  64:myprintf.c    ****                        
  65:myprintf.c    ****             i = 0;
  66:myprintf.c    ****             do{
  67:myprintf.c    ****                 buffer[i++] = iVal % 10;
 181              		.loc 1 67 0 discriminator 1
 182 005e 541C     		adds	r4, r2, #1
 183              	.LVL22:
 184 0060 3B4B     		ldr	r3, .L29
 185 0062 83FB0531 		smull	r3, r1, r3, r5
 186 0066 EB17     		asrs	r3, r5, #31
 187 0068 C3EBA103 		rsb	r3, r3, r1, asr #2
 188 006c 1946     		mov	r1, r3
 189 006e 03EB8303 		add	r3, r3, r3, lsl #2
 190 0072 5800     		lsls	r0, r3, #1
 191 0074 2B1A     		subs	r3, r5, r0
 192 0076 18A8     		add	r0, sp, #96
 193 0078 00EB8202 		add	r2, r0, r2, lsl #2
 194 007c 42F8603C 		str	r3, [r2, #-96]
  68:myprintf.c    ****                 iVal /= 10;
 195              		.loc 1 68 0 discriminator 1
 196 0080 0D46     		mov	r5, r1
 197              	.LVL23:
  67:myprintf.c    ****                 iVal /= 10;
 198              		.loc 1 67 0 discriminator 1
 199 0082 2246     		mov	r2, r4
  69:myprintf.c    ****             }while(iVal);
 200              		.loc 1 69 0 discriminator 1
 201 0084 0029     		cmp	r1, #0
 202 0086 EAD1     		bne	.L15
 203 0088 0AE0     		b	.L16
 204              	.LVL24:
 205              	.L17:
  70:myprintf.c    ****             while(i > 0)
  71:myprintf.c    ****             {
  72:myprintf.c    ****                 i--;
 206              		.loc 1 72 0
ARM GAS  C:\Users\dev\AppData\Local\Temp\ccrbWUIQ.s 			page 6


 207 008a 013C     		subs	r4, r4, #1
 208              	.LVL25:
  73:myprintf.c    ****                 iputc(*change(buffer[i]));
 209              		.loc 1 73 0
 210 008c 18AB     		add	r3, sp, #96
 211 008e 03EB8403 		add	r3, r3, r4, lsl #2
 212 0092 53F8600C 		ldr	r0, [r3, #-96]
 213 0096 FFF7FEFF 		bl	change
 214              	.LVL26:
 215 009a 0078     		ldrb	r0, [r0]	@ zero_extendqisi2
 216 009c FFF7FEFF 		bl	iputc
 217              	.LVL27:
 218              	.L16:
  70:myprintf.c    ****             while(i > 0)
 219              		.loc 1 70 0
 220 00a0 002C     		cmp	r4, #0
 221 00a2 F2D1     		bne	.L17
  74:myprintf.c    ****             }
  75:myprintf.c    ****             pszFmt++;
 222              		.loc 1 75 0
 223 00a4 1C9B     		ldr	r3, [sp, #112]
 224 00a6 0133     		adds	r3, r3, #1
 225 00a8 1C93     		str	r3, [sp, #112]
  57:myprintf.c    ****             
 226              		.loc 1 57 0
 227 00aa 3446     		mov	r4, r6
 228              	.LVL28:
  76:myprintf.c    ****             continue;
 229              		.loc 1 76 0
 230 00ac 46E0     		b	.L7
 231              	.LVL29:
 232              	.L13:
  77:myprintf.c    ****         }
  78:myprintf.c    ****         if(*pszFmt == 'c')
 233              		.loc 1 78 0
 234 00ae 632B     		cmp	r3, #99
 235 00b0 0AD1     		bne	.L18
  79:myprintf.c    ****         {
  80:myprintf.c    ****             cVal = (uint8)pArg[index++];
 236              		.loc 1 80 0
 237 00b2 651C     		adds	r5, r4, #1
 238              	.LVL30:
  81:myprintf.c    ****             iputc(cVal);
 239              		.loc 1 81 0
 240 00b4 1CAB     		add	r3, sp, #112
 241              	.LVL31:
 242 00b6 13F82400 		ldrb	r0, [r3, r4, lsl #2]	@ zero_extendqisi2
 243 00ba FFF7FEFF 		bl	iputc
 244              	.LVL32:
  82:myprintf.c    ****             pszFmt++;
 245              		.loc 1 82 0
 246 00be 1C9B     		ldr	r3, [sp, #112]
 247 00c0 0133     		adds	r3, r3, #1
 248 00c2 1C93     		str	r3, [sp, #112]
  80:myprintf.c    ****             iputc(cVal);
 249              		.loc 1 80 0
 250 00c4 2C46     		mov	r4, r5
ARM GAS  C:\Users\dev\AppData\Local\Temp\ccrbWUIQ.s 			page 7


  83:myprintf.c    ****             continue;
 251              		.loc 1 83 0
 252 00c6 39E0     		b	.L7
 253              	.LVL33:
 254              	.L18:
  84:myprintf.c    ****         }
  85:myprintf.c    ****         if(*pszFmt == 'x')
 255              		.loc 1 85 0
 256 00c8 782B     		cmp	r3, #120
 257 00ca 36D1     		bne	.L19
  86:myprintf.c    ****         {
  87:myprintf.c    ****             xVal = pArg[index++];
 258              		.loc 1 87 0
 259 00cc 651C     		adds	r5, r4, #1
 260              	.LVL34:
 261 00ce 1CAB     		add	r3, sp, #112
 262              	.LVL35:
 263 00d0 53F82430 		ldr	r3, [r3, r4, lsl #2]
 264              	.LVL36:
  88:myprintf.c    ****             i = 0;
 265              		.loc 1 88 0
 266 00d4 0022     		movs	r2, #0
 267 00d6 00E0     		b	.L20
 268              	.LVL37:
 269              	.L27:
  89:myprintf.c    ****             do{
  90:myprintf.c    ****                 buffer[i++] = xVal % 16;
 270              		.loc 1 90 0
 271 00d8 2246     		mov	r2, r4
 272              	.LVL38:
 273              	.L20:
 274              		.loc 1 90 0 is_stmt 0 discriminator 1
 275 00da 541C     		adds	r4, r2, #1
 276              	.LVL39:
 277 00dc 03F00F00 		and	r0, r3, #15
 278 00e0 18A9     		add	r1, sp, #96
 279 00e2 01EB8201 		add	r1, r1, r2, lsl #2
 280 00e6 41F8600C 		str	r0, [r1, #-96]
 281              	.LVL40:
  91:myprintf.c    ****                 xVal /= 16;
  92:myprintf.c    ****             }while(xVal);
 282              		.loc 1 92 0 is_stmt 1 discriminator 1
 283 00ea 1B09     		lsrs	r3, r3, #4
 284              	.LVL41:
 285 00ec F4D1     		bne	.L27
  93:myprintf.c    ****             if(i%2!=0)
 286              		.loc 1 93 0
 287 00ee 14F0010F 		tst	r4, #1
 288 00f2 06D0     		beq	.L21
 289              	.LVL42:
  94:myprintf.c    ****                 buffer[i++]=0;
 290              		.loc 1 94 0
 291 00f4 18AB     		add	r3, sp, #96
 292              	.LVL43:
 293 00f6 03EB8404 		add	r4, r3, r4, lsl #2
 294 00fa 0023     		movs	r3, #0
 295 00fc 44F8603C 		str	r3, [r4, #-96]
ARM GAS  C:\Users\dev\AppData\Local\Temp\ccrbWUIQ.s 			page 8


 296 0100 941C     		adds	r4, r2, #2
 297              	.LVL44:
 298              	.L21:
  95:myprintf.c    ****             if(i<2)
 299              		.loc 1 95 0
 300 0102 012C     		cmp	r4, #1
 301 0104 12D8     		bhi	.L23
 302              	.LVL45:
  96:myprintf.c    ****                 buffer[i++]=0;
 303              		.loc 1 96 0
 304 0106 18AB     		add	r3, sp, #96
 305 0108 03EB8403 		add	r3, r3, r4, lsl #2
 306 010c 0022     		movs	r2, #0
 307 010e 43F8602C 		str	r2, [r3, #-96]
 308 0112 0134     		adds	r4, r4, #1
 309              	.LVL46:
 310 0114 0AE0     		b	.L23
 311              	.L24:
  97:myprintf.c    **** 
  98:myprintf.c    ****             while(i > 0)
  99:myprintf.c    ****             {
 100:myprintf.c    ****                 i--;
 312              		.loc 1 100 0
 313 0116 013C     		subs	r4, r4, #1
 314              	.LVL47:
 101:myprintf.c    ****                 iputc(*change(buffer[i]));
 315              		.loc 1 101 0
 316 0118 18AB     		add	r3, sp, #96
 317 011a 03EB8403 		add	r3, r3, r4, lsl #2
 318 011e 53F8600C 		ldr	r0, [r3, #-96]
 319 0122 FFF7FEFF 		bl	change
 320              	.LVL48:
 321 0126 0078     		ldrb	r0, [r0]	@ zero_extendqisi2
 322 0128 FFF7FEFF 		bl	iputc
 323              	.LVL49:
 324              	.L23:
  98:myprintf.c    ****             {
 325              		.loc 1 98 0
 326 012c 002C     		cmp	r4, #0
 327 012e F2D1     		bne	.L24
 102:myprintf.c    ****             }
 103:myprintf.c    ****             pszFmt++;
 328              		.loc 1 103 0
 329 0130 1C9B     		ldr	r3, [sp, #112]
 330 0132 0133     		adds	r3, r3, #1
 331 0134 1C93     		str	r3, [sp, #112]
  87:myprintf.c    ****             i = 0;
 332              		.loc 1 87 0
 333 0136 2C46     		mov	r4, r5
 334              	.LVL50:
 104:myprintf.c    ****             continue;
 335              		.loc 1 104 0
 336 0138 00E0     		b	.L7
 337              	.LVL51:
 338              	.L19:
 105:myprintf.c    ****         }
 106:myprintf.c    ****         if(pszFmt == '\0')
ARM GAS  C:\Users\dev\AppData\Local\Temp\ccrbWUIQ.s 			page 9


 339              		.loc 1 106 0
 340 013a 22B1     		cbz	r2, .L6
 341              	.LVL52:
 342              	.L7:
  37:myprintf.c    ****     {
 343              		.loc 1 37 0
 344 013c 1C9B     		ldr	r3, [sp, #112]
 345 013e 1878     		ldrb	r0, [r3]	@ zero_extendqisi2
 346 0140 0028     		cmp	r0, #0
 347 0142 7FF462AF 		bne	.L26
 348              	.L6:
 107:myprintf.c    ****         {
 108:myprintf.c    ****             break;
 109:myprintf.c    ****         }
 110:myprintf.c    **** 
 111:myprintf.c    **** 			
 112:myprintf.c    ****     }
 113:myprintf.c    **** 	
 114:myprintf.c    **** 	//len = usb_put_data(iprintstr, len);
 115:myprintf.c    **** 	
 116:myprintf.c    **** }...
 349              		.loc 1 116 0
 350 0146 18B0     		add	sp, sp, #96
 351              		.cfi_def_cfa_offset 32
 352              		@ sp needed
 353 0148 BDE87040 		pop	{r4, r5, r6, lr}
 354              		.cfi_restore 14
 355              		.cfi_restore 6
 356              		.cfi_restore 5
 357              		.cfi_restore 4
 358              		.cfi_def_cfa_offset 16
 359              	.LVL53:
 360 014c 04B0     		add	sp, sp, #16
 361              		.cfi_restore 3
 362              		.cfi_restore 2
 363              		.cfi_restore 1
 364              		.cfi_restore 0
 365              		.cfi_def_cfa_offset 0
 366              	.LVL54:
 367 014e 7047     		bx	lr
 368              	.L30:
 369              		.align	2
 370              	.L29:
 371 0150 67666666 		.word	1717986919
 372              		.cfi_endproc
 373              	.LFE721:
 374              		.size	myprintf, .-myprintf
 375              		.section	.rodata.str1.4,"aMS",%progbits,1
 376              		.align	2
 377              	.LC0:
 378 0000 30313233 		.ascii	"0123456789abcdef\000"
 378      34353637 
 378      38396162 
 378      63646566 
 378      00
 379              		.text
 380              	.Letext0:
ARM GAS  C:\Users\dev\AppData\Local\Temp\ccrbWUIQ.s 			page 10


 381              		.file 2 "c:\\program files (x86)\\cypress\\psoc creator\\4.4\\psoc creator\\import\\gnu\\arm\\5.4.
 382              		.file 3 "c:\\program files (x86)\\cypress\\psoc creator\\4.4\\psoc creator\\import\\gnu\\arm\\5.4.
 383              		.file 4 "Generated_Source\\PSoC6\\pdl\\drivers/peripheral/device/cy_device.h"
 384              		.file 5 "Generated_Source\\PSoC6\\pdl\\drivers/peripheral/syslib/cy_syslib.h"
 385              		.file 6 "Generated_Source\\PSoC6\\pdl\\drivers/peripheral/i2s/cy_i2s.h"
 386              		.file 7 "Generated_Source\\PSoC6\\pdl\\drivers/peripheral/sar/cy_sar.h"
 387              		.file 8 "Generated_Source\\PSoC6\\pdl\\drivers/peripheral/tcpwm/cy_tcpwm_pwm.h"
 388              		.file 9 "Generated_Source\\PSoC6\\pdl\\middleware/ble/cy_ble_stack_host_main.h"
 389              		.file 10 "Generated_Source\\PSoC6\\pdl\\middleware/ble/cy_ble_gap.h"
 390              		.file 11 "Generated_Source\\PSoC6/ADC.h"
 391              		.file 12 "Generated_Source\\PSoC6\\pdl\\cmsis/include/core_cm4.h"
 392              		.file 13 "Generated_Source\\PSoC6/PWM_TENS2.h"
 393              		.file 14 "Generated_Source\\PSoC6/AMP_PWM.h"
 394              		.file 15 "Generated_Source\\PSoC6/PWM_TENS.h"
 395              		.file 16 "Generated_Source\\PSoC6/PWM_FAN.h"
 396              		.file 17 "Generated_Source\\PSoC6/LCD_PWM.h"
 397              		.file 18 "Generated_Source\\PSoC6/I2S.h"
 398              		.file 19 "Generated_Source\\PSoC6/PWM_PEL1.h"
 399              		.file 20 "Generated_Source\\PSoC6/PWM_PEL2.h"
 400              		.file 21 "myUART.h"