ARM GAS  C:\Users\haske\AppData\Local\Temp\ccElDw6m.s 			page 1


   1              		.syntax unified
   2              		.cpu cortex-m4
   3              		.eabi_attribute 27, 1
   4              		.fpu fpv4-sp-d16
   5              		.eabi_attribute 20, 1
   6              		.eabi_attribute 21, 1
   7              		.eabi_attribute 23, 3
   8              		.eabi_attribute 24, 1
   9              		.eabi_attribute 25, 1
  10              		.eabi_attribute 26, 1
  11              		.eabi_attribute 30, 1
  12              		.eabi_attribute 34, 1
  13              		.eabi_attribute 18, 4
  14              		.thumb
  15              		.syntax unified
  16              		.file	"st7789_pt2.c"
  17              		.text
  18              	.Ltext0:
  19              		.cfi_sections	.debug_frame
  20              		.section	.text.write_command,"ax",%progbits
  21              		.align	2
  22              		.thumb
  23              		.thumb_func
  24              		.type	write_command, %function
  25              	write_command:
  26              	.LFB0:
  27              		.file 1 "st7789_pt2.c"
   1:st7789_pt2.c  **** #include "st7789_pt2.h"
   2:st7789_pt2.c  **** 
   3:st7789_pt2.c  **** typedef enum {
   4:st7789_pt2.c  **** 	CMD_MADCTL_MY  = 0x80,
   5:st7789_pt2.c  **** 	CMD_MADCTL_MX  = 0x40,
   6:st7789_pt2.c  **** 	CMD_MADCTL_MV  = 0x20,
   7:st7789_pt2.c  **** 	CMD_MADCTL_ML  = 0x10,
   8:st7789_pt2.c  **** 	CMD_MADCTL_RGB = 0x00,
   9:st7789_pt2.c  **** 	CMD_MADCTL_BGR = 0x08,
  10:st7789_pt2.c  **** 	CMD_MADCTL_MH  = 0x04,
  11:st7789_pt2.c  **** 	CMD_NOP        = 0x00,
  12:st7789_pt2.c  **** 	CMD_SWRESET    = 0x01,
  13:st7789_pt2.c  **** 	CMD_RDDID      = 0x04,
  14:st7789_pt2.c  **** 	CMD_RDDST      = 0x09,
  15:st7789_pt2.c  **** 	CMD_SLPIN      = 0x10,
  16:st7789_pt2.c  **** 	CMD_SLPOUT     = 0x11,
  17:st7789_pt2.c  **** 	CMD_PTLON      = 0x12,
  18:st7789_pt2.c  **** 	CMD_NORON      = 0x13,
  19:st7789_pt2.c  **** 	CMD_INVOFF     = 0x20,
  20:st7789_pt2.c  **** 	CMD_INVON      = 0x21,
  21:st7789_pt2.c  **** 	CMD_GAMSET     = 0x26,
  22:st7789_pt2.c  **** 	CMD_DISPOFF    = 0x28,
  23:st7789_pt2.c  **** 	CMD_DISPON     = 0x29,
  24:st7789_pt2.c  **** 	CMD_CASET      = 0x2A,
  25:st7789_pt2.c  **** 	CMD_RASET      = 0x2B,
  26:st7789_pt2.c  **** 	CMD_RAMWR      = 0x2C,
  27:st7789_pt2.c  **** 	CMD_RAMRD      = 0x2E,
  28:st7789_pt2.c  **** 	CMD_PTLAR      = 0x30,
  29:st7789_pt2.c  **** 	CMD_MADCTL     = 0x36,
  30:st7789_pt2.c  **** 	CMD_IDMOFF     = 0x38,
ARM GAS  C:\Users\haske\AppData\Local\Temp\ccElDw6m.s 			page 2


  31:st7789_pt2.c  **** 	CMD_IDMON      = 0x39,
  32:st7789_pt2.c  **** 	CMD_COLMOD     = 0x3A,
  33:st7789_pt2.c  **** 	CMD_RAMCTRL    = 0xB0,
  34:st7789_pt2.c  **** 	CMD_FRMCTR1    = 0xB1,
  35:st7789_pt2.c  **** 	CMD_RGBCTRL    = 0xB1,
  36:st7789_pt2.c  **** 	CMD_FRMCTR2    = 0xB2,
  37:st7789_pt2.c  **** 	CMD_PORCTRL    = 0xB2,
  38:st7789_pt2.c  **** 	CMD_FRMCTR3    = 0xB3,
  39:st7789_pt2.c  **** 	CMD_FRCTRL1    = 0xB3,
  40:st7789_pt2.c  **** 	CMD_INVCTR     = 0xB4,
  41:st7789_pt2.c  **** 	CMD_PARCTRL    = 0xB5,
  42:st7789_pt2.c  **** 	CMD_DISSET5    = 0xB6,
  43:st7789_pt2.c  **** 	CMD_GCTRL      = 0xB7,
  44:st7789_pt2.c  **** 	CMD_VCOMS      = 0xBB,
  45:st7789_pt2.c  **** 	CMD_PWCTR1     = 0xC0,
  46:st7789_pt2.c  **** 	CMD_LCMCTRL    = 0xC0,
  47:st7789_pt2.c  **** 	CMD_PWCTR2     = 0xC1,
  48:st7789_pt2.c  **** 	CMD_IDSET      = 0xC1,
  49:st7789_pt2.c  **** 	CMD_PWCTR3     = 0xC2,
  50:st7789_pt2.c  **** 	CMD_VDVVRHEN   = 0xC2,
  51:st7789_pt2.c  **** 	CMD_PWCTR4     = 0xC3,
  52:st7789_pt2.c  **** 	CMD_VRHS       = 0xC3,
  53:st7789_pt2.c  **** 	CMD_PWCTR5     = 0xC4,
  54:st7789_pt2.c  **** 	CMD_VDVS       = 0xC4,
  55:st7789_pt2.c  **** 	CMD_VMCTR1     = 0xC5,
  56:st7789_pt2.c  **** 	CMD_VCMOFSET   = 0xC5,
  57:st7789_pt2.c  **** 	CMD_FRCTRL2    = 0xC6,
  58:st7789_pt2.c  **** 	CMD_PWCTRL1     = 0xD0,
  59:st7789_pt2.c  **** 	CMD_RDID1      = 0xDA,
  60:st7789_pt2.c  **** 	CMD_RDID2      = 0xDB,
  61:st7789_pt2.c  **** 	CMD_RDID3      = 0xDC,
  62:st7789_pt2.c  **** 	CMD_RDID4      = 0xDD,
  63:st7789_pt2.c  **** 	CMD_PWCTR6     = 0xFC,
  64:st7789_pt2.c  **** 	CMD_GMCTRP1    = 0xE0,
  65:st7789_pt2.c  **** 	CMD_GMCTRN1    = 0xE1,
  66:st7789_pt2.c  **** 	CMD_COLOR_MODE_16bit = 0x55,
  67:st7789_pt2.c  **** 	CMD_COLOR_MODE_18bit = 0x66,
  68:st7789_pt2.c  **** } lcd_cmds;
  69:st7789_pt2.c  **** #define ST7789_LCD_240x320
  70:st7789_pt2.c  **** #define ST7789_LCD_ROTATION 0 // You can adjust the rotation as needed (0, 1, 2, or 3)
  71:st7789_pt2.c  **** 
  72:st7789_pt2.c  **** #if defined(ST7789_LCD_135x240)
  73:st7789_pt2.c  ****   #if (ST7789_LCD_ROTATION == 0) || (ST7789_LCD_ROTATION == 2)
  74:st7789_pt2.c  ****     #define ST7789_LCD_WIDTH  135
  75:st7789_pt2.c  ****     #define ST7789_LCD_HEIGHT 240
  76:st7789_pt2.c  ****   #elif (ST7789_LCD_ROTATION == 1) || (ST7789_LCD_ROTATION == 3)
  77:st7789_pt2.c  ****     #define ST7789_LCD_WIDTH  240
  78:st7789_pt2.c  ****     #define ST7789_LCD_HEIGHT 135
  79:st7789_pt2.c  ****    #endif
  80:st7789_pt2.c  **** #elif defined(ST7789_LCD_240x240)
  81:st7789_pt2.c  ****   #define ST7789_LCD_WIDTH  240
  82:st7789_pt2.c  ****   #define ST7789_LCD_HEIGHT 240
  83:st7789_pt2.c  **** #elif defined(ST7789_LCD_240x280)
  84:st7789_pt2.c  ****   #if (ST7789_LCD_ROTATION == 0) || (ST7789_LCD_ROTATION == 2)
  85:st7789_pt2.c  ****     #define ST7789_LCD_WIDTH  240
  86:st7789_pt2.c  ****     #define ST7789_LCD_HEIGHT 280
  87:st7789_pt2.c  ****   #elif (ST7789_LCD_ROTATION == 1) || (ST7789_LCD_ROTATION == 3)
ARM GAS  C:\Users\haske\AppData\Local\Temp\ccElDw6m.s 			page 3


  88:st7789_pt2.c  ****     #define ST7789_LCD_WIDTH  280
  89:st7789_pt2.c  ****     #define ST7789_LCD_HEIGHT 240
  90:st7789_pt2.c  ****   #endif
  91:st7789_pt2.c  **** #elif defined (ST7789_LCD_240x320)
  92:st7789_pt2.c  ****   #if (ST7789_LCD_ROTATION == 0) || (ST7789_LCD_ROTATION == 2)
  93:st7789_pt2.c  ****     #define ST7789_LCD_WIDTH  240
  94:st7789_pt2.c  ****     #define ST7789_LCD_HEIGHT 320
  95:st7789_pt2.c  ****   #elif (ST7789_LCD_ROTATION == 1) || (ST7789_LCD_ROTATION == 3)
  96:st7789_pt2.c  ****     #define ST7789_LCD_WIDTH  320
  97:st7789_pt2.c  ****     #define ST7789_LCD_HEIGHT 240
  98:st7789_pt2.c  ****   #endif
  99:st7789_pt2.c  **** #else
 100:st7789_pt2.c  ****   #error "Set display type in build flags"
 101:st7789_pt2.c  **** #endif
 102:st7789_pt2.c  **** 
 103:st7789_pt2.c  **** #ifndef ST7789_LCD_ROTATION
 104:st7789_pt2.c  ****   #error "Set rotation in build flags"
 105:st7789_pt2.c  **** #endif
 106:st7789_pt2.c  **** 
 107:st7789_pt2.c  **** #if (ST7789_LCD_ROTATION == 0)
 108:st7789_pt2.c  ****   #define ROTATION_CMD (CMD_MADCTL_MX | CMD_MADCTL_MY | CMD_MADCTL_RGB)
 109:st7789_pt2.c  **** #elif (ST7789_LCD_ROTATION == 1)
 110:st7789_pt2.c  ****   #define ROTATION_CMD (CMD_MADCTL_MY | CMD_MADCTL_MV | CMD_MADCTL_RGB)
 111:st7789_pt2.c  **** #elif (ST7789_LCD_ROTATION == 2)
 112:st7789_pt2.c  ****   #define ROTATION_CMD (CMD_MADCTL_RGB)
 113:st7789_pt2.c  **** #elif (ST7789_LCD_ROTATION == 3)
 114:st7789_pt2.c  ****   #define ROTATION_CMD (CMD_MADCTL_MX | CMD_MADCTL_MV | CMD_MADCTL_RGB)
 115:st7789_pt2.c  **** #endif
 116:st7789_pt2.c  **** 
 117:st7789_pt2.c  **** static const uint8_t init_cmd[] = {
 118:st7789_pt2.c  **** 	0,  CMD_SLPOUT,
 119:st7789_pt2.c  **** 	1,  CMD_COLMOD,  CMD_COLOR_MODE_16bit,
 120:st7789_pt2.c  **** 	5,  CMD_PORCTRL, 0x0C, 0x0C, 0x00, 0x33, 0x33,   // Standard porch
 121:st7789_pt2.c  **** 	//5,  CMD_PORCTRL, 0x01, 0x01, 0x00, 0x11, 0x11, // Minimum porch (7% faster screen refresh rate)
 122:st7789_pt2.c  **** 	1,  CMD_GCTRL,   0x35,                           // Gate Control, Default value
 123:st7789_pt2.c  **** 	1,  CMD_VCOMS,   0x19,                           // VCOM setting 0.725v (default 0.75v for 0x20)
 124:st7789_pt2.c  **** 	1,  CMD_LCMCTRL, 0X2C,                           // LCMCTRL, Default value
 125:st7789_pt2.c  **** 	1,  CMD_VDVVRHEN,0x01,                           // VDV and VRH command Enable, Default value
 126:st7789_pt2.c  **** 	1,  CMD_VRHS,    0x12,                           // VRH set, +-4.45v (default +-4.1v for 0x0B)
 127:st7789_pt2.c  **** 	1,  CMD_VDVS,    0x20,                           // VDV set, Default value
 128:st7789_pt2.c  **** 	1,  CMD_FRCTRL2, 0x0F,                           // Frame rate control in normal mode, Default ref
 129:st7789_pt2.c  **** 	//1,  CMD_FRCTRL2, 0x01,                         // Frame rate control in normal mode, Max refresh
 130:st7789_pt2.c  **** 	2,  CMD_PWCTRL1, 0xA4, 0xA1,
 131:st7789_pt2.c  **** 	1,  CMD_MADCTL,  ROTATION_CMD,
 132:st7789_pt2.c  **** 	14, CMD_GMCTRP1, 0xD0, 0x04, 0x0D, 0x11, 0x13, 0x2B, 0x3F, 0x54, 0x4C, 0x18, 0x0D, 0x0B, 0x1F, 0x2
 133:st7789_pt2.c  **** 	14, CMD_GMCTRN1, 0xD0, 0x04, 0x0C, 0x11, 0x13, 0x2C, 0x3F, 0x44, 0x51, 0x2F, 0x1F, 0x1F, 0x20, 0x2
 134:st7789_pt2.c  **** 	0,  CMD_INVOFF,
 135:st7789_pt2.c  **** 	0,  CMD_NORON
 136:st7789_pt2.c  **** };
 137:st7789_pt2.c  **** 
 138:st7789_pt2.c  **** static void write_command(st7789_dev_t *dev, uint8_t cmd)
 139:st7789_pt2.c  **** {
  28              		.loc 1 139 0
  29              		.cfi_startproc
  30              		@ args = 0, pretend = 0, frame = 8
  31              		@ frame_needed = 0, uses_anonymous_args = 0
  32              	.LVL0:
ARM GAS  C:\Users\haske\AppData\Local\Temp\ccElDw6m.s 			page 4


  33 0000 30B5     		push	{r4, r5, lr}
  34              		.cfi_def_cfa_offset 12
  35              		.cfi_offset 4, -12
  36              		.cfi_offset 5, -8
  37              		.cfi_offset 14, -4
  38 0002 83B0     		sub	sp, sp, #12
  39              		.cfi_def_cfa_offset 24
  40 0004 0446     		mov	r4, r0
  41 0006 02AD     		add	r5, sp, #8
  42 0008 05F8011D 		strb	r1, [r5, #-1]!
 140:st7789_pt2.c  **** 	dev->ll->cs_pin_reset();
  43              		.loc 1 140 0
  44 000c C368     		ldr	r3, [r0, #12]
  45 000e 1B69     		ldr	r3, [r3, #16]
  46 0010 9847     		blx	r3
  47              	.LVL1:
 141:st7789_pt2.c  **** 	dev->ll->dc_pin_reset();
  48              		.loc 1 141 0
  49 0012 E368     		ldr	r3, [r4, #12]
  50 0014 9B69     		ldr	r3, [r3, #24]
  51 0016 9847     		blx	r3
  52              	.LVL2:
 142:st7789_pt2.c  **** 	dev->ll->spi_send_data8(&cmd, sizeof(cmd));
  53              		.loc 1 142 0
  54 0018 E368     		ldr	r3, [r4, #12]
  55 001a DB69     		ldr	r3, [r3, #28]
  56 001c 0121     		movs	r1, #1
  57 001e 2846     		mov	r0, r5
  58 0020 9847     		blx	r3
  59              	.LVL3:
 143:st7789_pt2.c  **** 	dev->ll->cs_pin_set();
  60              		.loc 1 143 0
  61 0022 E368     		ldr	r3, [r4, #12]
  62 0024 DB68     		ldr	r3, [r3, #12]
  63 0026 9847     		blx	r3
  64              	.LVL4:
 144:st7789_pt2.c  **** }
  65              		.loc 1 144 0
  66 0028 03B0     		add	sp, sp, #12
  67              		.cfi_def_cfa_offset 12
  68              		@ sp needed
  69 002a 30BD     		pop	{r4, r5, pc}
  70              		.cfi_endproc
  71              	.LFE0:
  72              		.size	write_command, .-write_command
  73              		.section	.text.write_command_with_data8,"ax",%progbits
  74              		.align	2
  75              		.thumb
  76              		.thumb_func
  77              		.type	write_command_with_data8, %function
  78              	write_command_with_data8:
  79              	.LFB1:
 145:st7789_pt2.c  **** 
 146:st7789_pt2.c  **** static void write_command_with_data8(st7789_dev_t *dev, uint8_t *cmd, uint8_t argc)
 147:st7789_pt2.c  **** {
  80              		.loc 1 147 0
  81              		.cfi_startproc
ARM GAS  C:\Users\haske\AppData\Local\Temp\ccElDw6m.s 			page 5


  82              		@ args = 0, pretend = 0, frame = 0
  83              		@ frame_needed = 0, uses_anonymous_args = 0
  84              	.LVL5:
  85 0000 70B5     		push	{r4, r5, r6, lr}
  86              		.cfi_def_cfa_offset 16
  87              		.cfi_offset 4, -16
  88              		.cfi_offset 5, -12
  89              		.cfi_offset 6, -8
  90              		.cfi_offset 14, -4
  91 0002 0446     		mov	r4, r0
  92 0004 0D46     		mov	r5, r1
  93 0006 1646     		mov	r6, r2
 148:st7789_pt2.c  **** 	dev->ll->cs_pin_reset();
  94              		.loc 1 148 0
  95 0008 C368     		ldr	r3, [r0, #12]
  96 000a 1B69     		ldr	r3, [r3, #16]
  97 000c 9847     		blx	r3
  98              	.LVL6:
 149:st7789_pt2.c  **** 	dev->ll->dc_pin_reset();
  99              		.loc 1 149 0
 100 000e E368     		ldr	r3, [r4, #12]
 101 0010 9B69     		ldr	r3, [r3, #24]
 102 0012 9847     		blx	r3
 103              	.LVL7:
 150:st7789_pt2.c  **** 	dev->ll->spi_send_data8(cmd, 1);
 104              		.loc 1 150 0
 105 0014 E368     		ldr	r3, [r4, #12]
 106 0016 DB69     		ldr	r3, [r3, #28]
 107 0018 0121     		movs	r1, #1
 108 001a 2846     		mov	r0, r5
 109 001c 9847     		blx	r3
 110              	.LVL8:
 151:st7789_pt2.c  **** 	if (argc) {
 111              		.loc 1 151 0
 112 001e 3EB1     		cbz	r6, .L4
 152:st7789_pt2.c  **** 		dev->ll->dc_pin_set();
 113              		.loc 1 152 0
 114 0020 E368     		ldr	r3, [r4, #12]
 115 0022 5B69     		ldr	r3, [r3, #20]
 116 0024 9847     		blx	r3
 117              	.LVL9:
 153:st7789_pt2.c  **** 		dev->ll->spi_send_data8(cmd + 1, argc);
 118              		.loc 1 153 0
 119 0026 E368     		ldr	r3, [r4, #12]
 120 0028 DB69     		ldr	r3, [r3, #28]
 121 002a 3146     		mov	r1, r6
 122 002c 681C     		adds	r0, r5, #1
 123 002e 9847     		blx	r3
 124              	.LVL10:
 125              	.L4:
 154:st7789_pt2.c  **** 	}
 155:st7789_pt2.c  **** 	dev->ll->cs_pin_set();
 126              		.loc 1 155 0
 127 0030 E368     		ldr	r3, [r4, #12]
 128 0032 DB68     		ldr	r3, [r3, #12]
 129 0034 9847     		blx	r3
 130              	.LVL11:
ARM GAS  C:\Users\haske\AppData\Local\Temp\ccElDw6m.s 			page 6


 131 0036 70BD     		pop	{r4, r5, r6, pc}
 132              		.cfi_endproc
 133              	.LFE1:
 134              		.size	write_command_with_data8, .-write_command_with_data8
 135              		.section	.text.write_data16,"ax",%progbits
 136              		.align	2
 137              		.thumb
 138              		.thumb_func
 139              		.type	write_data16, %function
 140              	write_data16:
 141              	.LFB2:
 156:st7789_pt2.c  **** }
 157:st7789_pt2.c  **** 
 158:st7789_pt2.c  **** static void write_data16(st7789_dev_t *dev, uint16_t *data, size_t len)
 159:st7789_pt2.c  **** {
 142              		.loc 1 159 0
 143              		.cfi_startproc
 144              		@ args = 0, pretend = 0, frame = 0
 145              		@ frame_needed = 0, uses_anonymous_args = 0
 146              	.LVL12:
 147 0000 70B5     		push	{r4, r5, r6, lr}
 148              		.cfi_def_cfa_offset 16
 149              		.cfi_offset 4, -16
 150              		.cfi_offset 5, -12
 151              		.cfi_offset 6, -8
 152              		.cfi_offset 14, -4
 153 0002 0446     		mov	r4, r0
 154 0004 0D46     		mov	r5, r1
 155 0006 1646     		mov	r6, r2
 160:st7789_pt2.c  **** 	dev->ll->cs_pin_reset();
 156              		.loc 1 160 0
 157 0008 C368     		ldr	r3, [r0, #12]
 158 000a 1B69     		ldr	r3, [r3, #16]
 159 000c 9847     		blx	r3
 160              	.LVL13:
 161:st7789_pt2.c  **** 	dev->ll->dc_pin_set();
 161              		.loc 1 161 0
 162 000e E368     		ldr	r3, [r4, #12]
 163 0010 5B69     		ldr	r3, [r3, #20]
 164 0012 9847     		blx	r3
 165              	.LVL14:
 162:st7789_pt2.c  **** 	dev->ll->spi_send_data16(data, len);
 166              		.loc 1 162 0
 167 0014 E368     		ldr	r3, [r4, #12]
 168 0016 1B6A     		ldr	r3, [r3, #32]
 169 0018 3146     		mov	r1, r6
 170 001a 2846     		mov	r0, r5
 171 001c 9847     		blx	r3
 172              	.LVL15:
 163:st7789_pt2.c  **** 	dev->ll->cs_pin_set();
 173              		.loc 1 163 0
 174 001e E368     		ldr	r3, [r4, #12]
 175 0020 DB68     		ldr	r3, [r3, #12]
 176 0022 9847     		blx	r3
 177              	.LVL16:
 178 0024 70BD     		pop	{r4, r5, r6, pc}
 179              		.cfi_endproc
ARM GAS  C:\Users\haske\AppData\Local\Temp\ccElDw6m.s 			page 7


 180              	.LFE2:
 181              		.size	write_data16, .-write_data16
 182 0026 00BF     		.section	.text.hw_reset,"ax",%progbits
 183              		.align	2
 184              		.thumb
 185              		.thumb_func
 186              		.type	hw_reset, %function
 187              	hw_reset:
 188              	.LFB3:
 164:st7789_pt2.c  **** }
 165:st7789_pt2.c  **** 
 166:st7789_pt2.c  **** static void hw_reset(st7789_dev_t *dev)
 167:st7789_pt2.c  **** {
 189              		.loc 1 167 0
 190              		.cfi_startproc
 191              		@ args = 0, pretend = 0, frame = 0
 192              		@ frame_needed = 0, uses_anonymous_args = 0
 193              	.LVL17:
 194 0000 10B5     		push	{r4, lr}
 195              		.cfi_def_cfa_offset 8
 196              		.cfi_offset 4, -8
 197              		.cfi_offset 14, -4
 198 0002 0446     		mov	r4, r0
 168:st7789_pt2.c  **** 	dev->ll->rst_pin_set();
 199              		.loc 1 168 0
 200 0004 C368     		ldr	r3, [r0, #12]
 201 0006 5B68     		ldr	r3, [r3, #4]
 202 0008 9847     		blx	r3
 203              	.LVL18:
 169:st7789_pt2.c  **** 	dev->ll->delay_ms(200);
 204              		.loc 1 169 0
 205 000a E368     		ldr	r3, [r4, #12]
 206 000c 1B68     		ldr	r3, [r3]
 207 000e C820     		movs	r0, #200
 208 0010 9847     		blx	r3
 209              	.LVL19:
 170:st7789_pt2.c  **** 	dev->ll->rst_pin_reset();
 210              		.loc 1 170 0
 211 0012 E368     		ldr	r3, [r4, #12]
 212 0014 9B68     		ldr	r3, [r3, #8]
 213 0016 9847     		blx	r3
 214              	.LVL20:
 171:st7789_pt2.c  **** 	dev->ll->delay_ms(200);
 215              		.loc 1 171 0
 216 0018 E368     		ldr	r3, [r4, #12]
 217 001a 1B68     		ldr	r3, [r3]
 218 001c C820     		movs	r0, #200
 219 001e 9847     		blx	r3
 220              	.LVL21:
 172:st7789_pt2.c  **** 	dev->ll->rst_pin_set();
 221              		.loc 1 172 0
 222 0020 E368     		ldr	r3, [r4, #12]
 223 0022 5B68     		ldr	r3, [r3, #4]
 224 0024 9847     		blx	r3
 225              	.LVL22:
 173:st7789_pt2.c  **** 	dev->ll->delay_ms(200);
 226              		.loc 1 173 0
ARM GAS  C:\Users\haske\AppData\Local\Temp\ccElDw6m.s 			page 8


 227 0026 E368     		ldr	r3, [r4, #12]
 228 0028 1B68     		ldr	r3, [r3]
 229 002a C820     		movs	r0, #200
 230 002c 9847     		blx	r3
 231              	.LVL23:
 232 002e 10BD     		pop	{r4, pc}
 233              		.cfi_endproc
 234              	.LFE3:
 235              		.size	hw_reset, .-hw_reset
 236              		.section	.text.sw_reset,"ax",%progbits
 237              		.align	2
 238              		.thumb
 239              		.thumb_func
 240              		.type	sw_reset, %function
 241              	sw_reset:
 242              	.LFB4:
 174:st7789_pt2.c  **** }
 175:st7789_pt2.c  **** 
 176:st7789_pt2.c  **** static void sw_reset(st7789_dev_t *dev)
 177:st7789_pt2.c  **** {
 243              		.loc 1 177 0
 244              		.cfi_startproc
 245              		@ args = 0, pretend = 0, frame = 8
 246              		@ frame_needed = 0, uses_anonymous_args = 0
 247              	.LVL24:
 248 0000 10B5     		push	{r4, lr}
 249              		.cfi_def_cfa_offset 8
 250              		.cfi_offset 4, -8
 251              		.cfi_offset 14, -4
 252 0002 82B0     		sub	sp, sp, #8
 253              		.cfi_def_cfa_offset 16
 254 0004 0446     		mov	r4, r0
 178:st7789_pt2.c  **** 	uint8_t cmd = CMD_SWRESET;
 255              		.loc 1 178 0
 256 0006 02A9     		add	r1, sp, #8
 257 0008 0123     		movs	r3, #1
 258 000a 01F8013D 		strb	r3, [r1, #-1]!
 179:st7789_pt2.c  **** 
 180:st7789_pt2.c  **** 	write_command_with_data8(dev, &cmd, 0);
 259              		.loc 1 180 0
 260 000e 0022     		movs	r2, #0
 261 0010 FFF7FEFF 		bl	write_command_with_data8
 262              	.LVL25:
 181:st7789_pt2.c  **** 	dev->ll->delay_ms(200);
 263              		.loc 1 181 0
 264 0014 E368     		ldr	r3, [r4, #12]
 265 0016 1B68     		ldr	r3, [r3]
 266 0018 C820     		movs	r0, #200
 267 001a 9847     		blx	r3
 268              	.LVL26:
 182:st7789_pt2.c  **** }
 269              		.loc 1 182 0
 270 001c 02B0     		add	sp, sp, #8
 271              		.cfi_def_cfa_offset 8
 272              		@ sp needed
 273 001e 10BD     		pop	{r4, pc}
 274              		.cfi_endproc
ARM GAS  C:\Users\haske\AppData\Local\Temp\ccElDw6m.s 			page 9


 275              	.LFE4:
 276              		.size	sw_reset, .-sw_reset
 277              		.section	.text.set_address_window,"ax",%progbits
 278              		.align	2
 279              		.thumb
 280              		.thumb_func
 281              		.type	set_address_window, %function
 282              	set_address_window:
 283              	.LFB5:
 183:st7789_pt2.c  **** 
 184:st7789_pt2.c  **** static void set_address_window(st7789_dev_t *dev,
 185:st7789_pt2.c  **** 							   uint16_t x0, uint16_t y0,
 186:st7789_pt2.c  **** 							   uint16_t x1, uint16_t y1)
 187:st7789_pt2.c  **** {
 284              		.loc 1 187 0
 285              		.cfi_startproc
 286              		@ args = 4, pretend = 0, frame = 8
 287              		@ frame_needed = 0, uses_anonymous_args = 0
 288              	.LVL27:
 289 0000 F0B5     		push	{r4, r5, r6, r7, lr}
 290              		.cfi_def_cfa_offset 20
 291              		.cfi_offset 4, -20
 292              		.cfi_offset 5, -16
 293              		.cfi_offset 6, -12
 294              		.cfi_offset 7, -8
 295              		.cfi_offset 14, -4
 296 0002 83B0     		sub	sp, sp, #12
 297              		.cfi_def_cfa_offset 32
 298 0004 0546     		mov	r5, r0
 188:st7789_pt2.c  **** 	uint16_t x_start = x0 + dev->x_shift;
 299              		.loc 1 188 0
 300 0006 8488     		ldrh	r4, [r0, #4]
 301 0008 2144     		add	r1, r1, r4
 302              	.LVL28:
 303 000a 89B2     		uxth	r1, r1
 304              	.LVL29:
 189:st7789_pt2.c  **** 	uint16_t x_end = x1 + dev->x_shift;
 305              		.loc 1 189 0
 306 000c 2344     		add	r3, r3, r4
 307              	.LVL30:
 308 000e 9BB2     		uxth	r3, r3
 309              	.LVL31:
 190:st7789_pt2.c  **** 	uint16_t y_start = y0 + dev->y_shift;
 310              		.loc 1 190 0
 311 0010 C788     		ldrh	r7, [r0, #6]
 312 0012 3A44     		add	r2, r2, r7
 313              	.LVL32:
 314 0014 96B2     		uxth	r6, r2
 315              	.LVL33:
 191:st7789_pt2.c  **** 	uint16_t y_end = y1 + dev->y_shift;
 316              		.loc 1 191 0
 317 0016 BDF82040 		ldrh	r4, [sp, #32]
 318 001a 3C44     		add	r4, r4, r7
 319 001c A4B2     		uxth	r4, r4
 320              	.LVL34:
 321              	.LBB2:
 192:st7789_pt2.c  **** 
ARM GAS  C:\Users\haske\AppData\Local\Temp\ccElDw6m.s 			page 10


 193:st7789_pt2.c  **** 
 194:st7789_pt2.c  **** 	/* Column Address set */
 195:st7789_pt2.c  **** 	{
 196:st7789_pt2.c  **** 		uint8_t cmd[] = { CMD_CASET, x_start >> 8, x_start & 0xFF, x_end >> 8, x_end & 0xFF };
 322              		.loc 1 196 0
 323 001e 2A22     		movs	r2, #42
 324 0020 8DF80020 		strb	r2, [sp]
 325 0024 0A0A     		lsrs	r2, r1, #8
 326 0026 8DF80120 		strb	r2, [sp, #1]
 327 002a 8DF80210 		strb	r1, [sp, #2]
 328 002e 1A0A     		lsrs	r2, r3, #8
 329 0030 8DF80320 		strb	r2, [sp, #3]
 330 0034 8DF80430 		strb	r3, [sp, #4]
 197:st7789_pt2.c  **** 		write_command_with_data8(dev, cmd, sizeof(cmd) - 1);
 331              		.loc 1 197 0
 332 0038 0422     		movs	r2, #4
 333 003a 6946     		mov	r1, sp
 334              	.LVL35:
 335 003c FFF7FEFF 		bl	write_command_with_data8
 336              	.LVL36:
 337              	.LBE2:
 338              	.LBB3:
 198:st7789_pt2.c  **** 	}
 199:st7789_pt2.c  **** 
 200:st7789_pt2.c  **** 	/* Row Address set */
 201:st7789_pt2.c  **** 	{
 202:st7789_pt2.c  **** 		uint8_t cmd[] = { CMD_RASET, y_start >> 8, y_start & 0xFF, y_end >> 8, y_end & 0xFF };
 339              		.loc 1 202 0
 340 0040 2B23     		movs	r3, #43
 341 0042 8DF80030 		strb	r3, [sp]
 342 0046 330A     		lsrs	r3, r6, #8
 343 0048 8DF80130 		strb	r3, [sp, #1]
 344 004c 8DF80260 		strb	r6, [sp, #2]
 345 0050 230A     		lsrs	r3, r4, #8
 346 0052 8DF80330 		strb	r3, [sp, #3]
 347 0056 8DF80440 		strb	r4, [sp, #4]
 203:st7789_pt2.c  **** 		write_command_with_data8(dev, cmd, sizeof(cmd) - 1);
 348              		.loc 1 203 0
 349 005a 0422     		movs	r2, #4
 350 005c 6946     		mov	r1, sp
 351 005e 2846     		mov	r0, r5
 352 0060 FFF7FEFF 		bl	write_command_with_data8
 353              	.LVL37:
 354              	.LBE3:
 355              	.LBB4:
 204:st7789_pt2.c  **** 	}
 205:st7789_pt2.c  **** 
 206:st7789_pt2.c  **** 	/* Write to RAM */
 207:st7789_pt2.c  **** 	{
 208:st7789_pt2.c  **** 		uint8_t cmd[] = { CMD_RAMWR };
 356              		.loc 1 208 0
 357 0064 2C23     		movs	r3, #44
 358 0066 8DF80030 		strb	r3, [sp]
 209:st7789_pt2.c  **** 		write_command_with_data8(dev, cmd, sizeof(cmd) - 1);
 359              		.loc 1 209 0
 360 006a 0022     		movs	r2, #0
 361 006c 6946     		mov	r1, sp
ARM GAS  C:\Users\haske\AppData\Local\Temp\ccElDw6m.s 			page 11


 362 006e 2846     		mov	r0, r5
 363 0070 FFF7FEFF 		bl	write_command_with_data8
 364              	.LVL38:
 365              	.LBE4:
 210:st7789_pt2.c  **** 	}
 211:st7789_pt2.c  **** }
 366              		.loc 1 211 0
 367 0074 03B0     		add	sp, sp, #12
 368              		.cfi_def_cfa_offset 20
 369              		@ sp needed
 370 0076 F0BD     		pop	{r4, r5, r6, r7, pc}
 371              		.cfi_endproc
 372              	.LFE5:
 373              		.size	set_address_window, .-set_address_window
 374              		.section	.text.st7789_init2,"ax",%progbits
 375              		.align	2
 376              		.global	st7789_init2
 377              		.thumb
 378              		.thumb_func
 379              		.type	st7789_init2, %function
 380              	st7789_init2:
 381              	.LFB6:
 212:st7789_pt2.c  **** 
 213:st7789_pt2.c  **** void st7789_init2(st7789_dev_t *dev, st7789_ll_t *ll)
 214:st7789_pt2.c  **** {
 382              		.loc 1 214 0
 383              		.cfi_startproc
 384              		@ args = 0, pretend = 0, frame = 0
 385              		@ frame_needed = 0, uses_anonymous_args = 0
 386              	.LVL39:
 215:st7789_pt2.c  **** 	if (!dev || !ll) {
 387              		.loc 1 215 0
 388 0000 30B3     		cbz	r0, .L19
 214:st7789_pt2.c  **** 	if (!dev || !ll) {
 389              		.loc 1 214 0 discriminator 1
 390 0002 70B5     		push	{r4, r5, r6, lr}
 391              		.cfi_def_cfa_offset 16
 392              		.cfi_offset 4, -16
 393              		.cfi_offset 5, -12
 394              		.cfi_offset 6, -8
 395              		.cfi_offset 14, -4
 396 0004 0646     		mov	r6, r0
 397              		.loc 1 215 0 discriminator 1
 398 0006 11B3     		cbz	r1, .L14
 216:st7789_pt2.c  **** 		return;
 217:st7789_pt2.c  **** 	}
 218:st7789_pt2.c  **** 
 219:st7789_pt2.c  **** 	dev->ll = ll;
 399              		.loc 1 219 0
 400 0008 C160     		str	r1, [r0, #12]
 220:st7789_pt2.c  **** 	dev->width = ST7789_LCD_WIDTH;
 401              		.loc 1 220 0
 402 000a F023     		movs	r3, #240
 403 000c 0380     		strh	r3, [r0]	@ movhi
 221:st7789_pt2.c  **** 	dev->height = ST7789_LCD_HEIGHT;
 404              		.loc 1 221 0
 405 000e 4FF4A073 		mov	r3, #320
ARM GAS  C:\Users\haske\AppData\Local\Temp\ccElDw6m.s 			page 12


 406 0012 4380     		strh	r3, [r0, #2]	@ movhi
 222:st7789_pt2.c  **** 	dev->rotation = ST7789_LCD_ROTATION;
 407              		.loc 1 222 0
 408 0014 0024     		movs	r4, #0
 409 0016 0472     		strb	r4, [r0, #8]
 223:st7789_pt2.c  **** 	dev->x_shift = 0;
 410              		.loc 1 223 0
 411 0018 8480     		strh	r4, [r0, #4]	@ movhi
 224:st7789_pt2.c  **** 	dev->y_shift = 0;
 412              		.loc 1 224 0
 413 001a C480     		strh	r4, [r0, #6]	@ movhi
 225:st7789_pt2.c  **** 
 226:st7789_pt2.c  **** 	hw_reset(dev);
 414              		.loc 1 226 0
 415 001c FFF7FEFF 		bl	hw_reset
 416              	.LVL40:
 227:st7789_pt2.c  **** 	sw_reset(dev);
 417              		.loc 1 227 0
 418 0020 3046     		mov	r0, r6
 419 0022 FFF7FEFF 		bl	sw_reset
 420              	.LVL41:
 421              	.LBB5:
 228:st7789_pt2.c  **** 
 229:st7789_pt2.c  **** 	for (uint16_t i = 0; i < sizeof(init_cmd); ) {
 422              		.loc 1 229 0
 423 0026 2546     		mov	r5, r4
 424 0028 0BE0     		b	.L16
 425              	.LVL42:
 426              	.L17:
 230:st7789_pt2.c  **** 		write_command_with_data8(dev, (uint8_t*)&init_cmd[i + 1], init_cmd[i]);
 427              		.loc 1 230 0
 428 002a 691C     		adds	r1, r5, #1
 429 002c 094B     		ldr	r3, .L20
 430 002e 5C5D     		ldrb	r4, [r3, r5]	@ zero_extendqisi2
 431 0030 2246     		mov	r2, r4
 432 0032 1944     		add	r1, r1, r3
 433 0034 3046     		mov	r0, r6
 434 0036 FFF7FEFF 		bl	write_command_with_data8
 435              	.LVL43:
 231:st7789_pt2.c  **** 		i += init_cmd[i] + 2;
 436              		.loc 1 231 0
 437 003a 2C44     		add	r4, r4, r5
 438 003c A4B2     		uxth	r4, r4
 439 003e 0234     		adds	r4, r4, #2
 440 0040 A5B2     		uxth	r5, r4
 441              	.LVL44:
 442              	.L16:
 229:st7789_pt2.c  **** 		write_command_with_data8(dev, (uint8_t*)&init_cmd[i + 1], init_cmd[i]);
 443              		.loc 1 229 0 discriminator 1
 444 0042 4B2D     		cmp	r5, #75
 445 0044 F1D9     		bls	.L17
 446              	.LBE5:
 232:st7789_pt2.c  **** 	}
 233:st7789_pt2.c  **** 
 234:st7789_pt2.c  **** 	/* Enable power */
 235:st7789_pt2.c  **** 	write_command(dev, CMD_DISPON);
 447              		.loc 1 235 0
ARM GAS  C:\Users\haske\AppData\Local\Temp\ccElDw6m.s 			page 13


 448 0046 2921     		movs	r1, #41
 449 0048 3046     		mov	r0, r6
 450 004a FFF7FEFF 		bl	write_command
 451              	.LVL45:
 452              	.L14:
 453 004e 70BD     		pop	{r4, r5, r6, pc}
 454              	.LVL46:
 455              	.L19:
 456              		.cfi_def_cfa_offset 0
 457              		.cfi_restore 4
 458              		.cfi_restore 5
 459              		.cfi_restore 6
 460              		.cfi_restore 14
 461 0050 7047     		bx	lr
 462              	.L21:
 463 0052 00BF     		.align	2
 464              	.L20:
 465 0054 00000000 		.word	.LANCHOR0
 466              		.cfi_endproc
 467              	.LFE6:
 468              		.size	st7789_init2, .-st7789_init2
 469              		.section	.text.st7789_fill_color,"ax",%progbits
 470              		.align	2
 471              		.global	st7789_fill_color
 472              		.thumb
 473              		.thumb_func
 474              		.type	st7789_fill_color, %function
 475              	st7789_fill_color:
 476              	.LFB7:
 236:st7789_pt2.c  **** }
 237:st7789_pt2.c  **** 
 238:st7789_pt2.c  **** void st7789_fill_color(st7789_dev_t *dev, uint16_t color)
 239:st7789_pt2.c  **** {
 477              		.loc 1 239 0
 478              		.cfi_startproc
 479              		@ args = 0, pretend = 0, frame = 8
 480              		@ frame_needed = 0, uses_anonymous_args = 0
 481              	.LVL47:
 482 0000 70B5     		push	{r4, r5, r6, lr}
 483              		.cfi_def_cfa_offset 16
 484              		.cfi_offset 4, -16
 485              		.cfi_offset 5, -12
 486              		.cfi_offset 6, -8
 487              		.cfi_offset 14, -4
 488 0002 84B0     		sub	sp, sp, #16
 489              		.cfi_def_cfa_offset 32
 490 0004 0546     		mov	r5, r0
 491 0006 ADF80E10 		strh	r1, [sp, #14]	@ movhi
 240:st7789_pt2.c  **** 	uint16_t i, j;
 241:st7789_pt2.c  **** 
 242:st7789_pt2.c  **** 	set_address_window(dev, 0, 0, dev->width - 1, dev->height - 1);
 492              		.loc 1 242 0
 493 000a 0388     		ldrh	r3, [r0]
 494 000c 4288     		ldrh	r2, [r0, #2]
 495 000e 013B     		subs	r3, r3, #1
 496 0010 013A     		subs	r2, r2, #1
 497 0012 92B2     		uxth	r2, r2
ARM GAS  C:\Users\haske\AppData\Local\Temp\ccElDw6m.s 			page 14


 498 0014 0092     		str	r2, [sp]
 499 0016 9BB2     		uxth	r3, r3
 500 0018 0022     		movs	r2, #0
 501 001a 1146     		mov	r1, r2
 502              	.LVL48:
 503 001c FFF7FEFF 		bl	set_address_window
 504              	.LVL49:
 243:st7789_pt2.c  **** 
 244:st7789_pt2.c  **** 	for (i = 0; i < dev->width; i++) {
 505              		.loc 1 244 0
 506 0020 0026     		movs	r6, #0
 507 0022 0EE0     		b	.L23
 508              	.LVL50:
 509              	.L24:
 245:st7789_pt2.c  **** 		for (j = 0; j < dev->height; j++) {
 246:st7789_pt2.c  **** 			write_data16(dev, &color, 1);
 510              		.loc 1 246 0 discriminator 3
 511 0024 0122     		movs	r2, #1
 512 0026 0DF10E01 		add	r1, sp, #14
 513              	.LVL51:
 514 002a 2846     		mov	r0, r5
 515 002c FFF7FEFF 		bl	write_data16
 516              	.LVL52:
 245:st7789_pt2.c  **** 		for (j = 0; j < dev->height; j++) {
 517              		.loc 1 245 0 discriminator 3
 518 0030 0134     		adds	r4, r4, #1
 519              	.LVL53:
 520 0032 A4B2     		uxth	r4, r4
 521              	.LVL54:
 522 0034 00E0     		b	.L25
 523              	.LVL55:
 524              	.L26:
 525 0036 0024     		movs	r4, #0
 526              	.L25:
 527              	.LVL56:
 245:st7789_pt2.c  **** 		for (j = 0; j < dev->height; j++) {
 528              		.loc 1 245 0 is_stmt 0 discriminator 1
 529 0038 6B88     		ldrh	r3, [r5, #2]
 530 003a 9C42     		cmp	r4, r3
 531 003c F2D3     		bcc	.L24
 244:st7789_pt2.c  **** 		for (j = 0; j < dev->height; j++) {
 532              		.loc 1 244 0 is_stmt 1 discriminator 2
 533 003e 0136     		adds	r6, r6, #1
 534              	.LVL57:
 535 0040 B6B2     		uxth	r6, r6
 536              	.LVL58:
 537              	.L23:
 244:st7789_pt2.c  **** 		for (j = 0; j < dev->height; j++) {
 538              		.loc 1 244 0 is_stmt 0 discriminator 1
 539 0042 2B88     		ldrh	r3, [r5]
 540 0044 9E42     		cmp	r6, r3
 541 0046 F6D3     		bcc	.L26
 247:st7789_pt2.c  **** 		}
 248:st7789_pt2.c  **** 	}
 249:st7789_pt2.c  **** }
 542              		.loc 1 249 0 is_stmt 1
 543 0048 04B0     		add	sp, sp, #16
ARM GAS  C:\Users\haske\AppData\Local\Temp\ccElDw6m.s 			page 15


 544              		.cfi_def_cfa_offset 16
 545              		@ sp needed
 546 004a 70BD     		pop	{r4, r5, r6, pc}
 547              		.cfi_endproc
 548              	.LFE7:
 549              		.size	st7789_fill_color, .-st7789_fill_color
 550              		.section	.text.st7789_set_pixel,"ax",%progbits
 551              		.align	2
 552              		.global	st7789_set_pixel
 553              		.thumb
 554              		.thumb_func
 555              		.type	st7789_set_pixel, %function
 556              	st7789_set_pixel:
 557              	.LFB8:
 250:st7789_pt2.c  **** 
 251:st7789_pt2.c  **** void st7789_set_pixel(st7789_dev_t *dev, uint16_t x, uint16_t y, uint16_t color)
 252:st7789_pt2.c  **** {
 558              		.loc 1 252 0
 559              		.cfi_startproc
 560              		@ args = 0, pretend = 0, frame = 8
 561              		@ frame_needed = 0, uses_anonymous_args = 0
 562              	.LVL59:
 563 0000 10B5     		push	{r4, lr}
 564              		.cfi_def_cfa_offset 8
 565              		.cfi_offset 4, -8
 566              		.cfi_offset 14, -4
 567 0002 84B0     		sub	sp, sp, #16
 568              		.cfi_def_cfa_offset 24
 569 0004 ADF80E30 		strh	r3, [sp, #14]	@ movhi
 253:st7789_pt2.c  **** 	if ((x < 0) || (x > dev->width - 1) || (y < 0) || (y > dev->height - 1)) {
 570              		.loc 1 253 0
 571 0008 0488     		ldrh	r4, [r0]
 572 000a 013C     		subs	r4, r4, #1
 573 000c A142     		cmp	r1, r4
 574 000e 0EDC     		bgt	.L28
 575              		.loc 1 253 0 is_stmt 0 discriminator 1
 576 0010 4388     		ldrh	r3, [r0, #2]
 577              	.LVL60:
 578 0012 013B     		subs	r3, r3, #1
 579 0014 9A42     		cmp	r2, r3
 580 0016 0ADC     		bgt	.L28
 581 0018 0446     		mov	r4, r0
 254:st7789_pt2.c  **** 		return;
 255:st7789_pt2.c  **** 	}
 256:st7789_pt2.c  **** 
 257:st7789_pt2.c  **** 	set_address_window(dev, x, y, x, y);
 582              		.loc 1 257 0 is_stmt 1
 583 001a 0092     		str	r2, [sp]
 584 001c 0B46     		mov	r3, r1
 585 001e FFF7FEFF 		bl	set_address_window
 586              	.LVL61:
 258:st7789_pt2.c  **** 	write_data16(dev, &color, 1);
 587              		.loc 1 258 0
 588 0022 0122     		movs	r2, #1
 589 0024 0DF10E01 		add	r1, sp, #14
 590              	.LVL62:
 591 0028 2046     		mov	r0, r4
ARM GAS  C:\Users\haske\AppData\Local\Temp\ccElDw6m.s 			page 16


 592 002a FFF7FEFF 		bl	write_data16
 593              	.LVL63:
 594              	.L28:
 259:st7789_pt2.c  **** }
 595              		.loc 1 259 0
 596 002e 04B0     		add	sp, sp, #16
 597              		.cfi_def_cfa_offset 8
 598              		@ sp needed
 599 0030 10BD     		pop	{r4, pc}
 600              		.cfi_endproc
 601              	.LFE8:
 602              		.size	st7789_set_pixel, .-st7789_set_pixel
 603 0032 00BF     		.section	.text.st7789_fill_area_with_raw_data,"ax",%progbits
 604              		.align	2
 605              		.global	st7789_fill_area_with_raw_data
 606              		.thumb
 607              		.thumb_func
 608              		.type	st7789_fill_area_with_raw_data, %function
 609              	st7789_fill_area_with_raw_data:
 610              	.LFB9:
 260:st7789_pt2.c  **** 
 261:st7789_pt2.c  **** void st7789_fill_area_with_raw_data(st7789_dev_t *dev,
 262:st7789_pt2.c  **** 									uint16_t x0, uint16_t y0,
 263:st7789_pt2.c  **** 									uint16_t x1, uint16_t y1,
 264:st7789_pt2.c  **** 									uint16_t *color_data, size_t len)
 265:st7789_pt2.c  **** {
 611              		.loc 1 265 0
 612              		.cfi_startproc
 613              		@ args = 12, pretend = 0, frame = 0
 614              		@ frame_needed = 0, uses_anonymous_args = 0
 615              	.LVL64:
 616 0000 30B5     		push	{r4, r5, lr}
 617              		.cfi_def_cfa_offset 12
 618              		.cfi_offset 4, -12
 619              		.cfi_offset 5, -8
 620              		.cfi_offset 14, -4
 621 0002 83B0     		sub	sp, sp, #12
 622              		.cfi_def_cfa_offset 24
 623 0004 0446     		mov	r4, r0
 266:st7789_pt2.c  **** 	set_address_window(dev, x0, y0, x1, y1);
 624              		.loc 1 266 0
 625 0006 BDF81850 		ldrh	r5, [sp, #24]
 626 000a 0095     		str	r5, [sp]
 627 000c FFF7FEFF 		bl	set_address_window
 628              	.LVL65:
 267:st7789_pt2.c  **** 	write_data16(dev, color_data, len);
 629              		.loc 1 267 0
 630 0010 089A     		ldr	r2, [sp, #32]
 631 0012 0799     		ldr	r1, [sp, #28]
 632 0014 2046     		mov	r0, r4
 633 0016 FFF7FEFF 		bl	write_data16
 634              	.LVL66:
 268:st7789_pt2.c  **** }
 635              		.loc 1 268 0
 636 001a 03B0     		add	sp, sp, #12
 637              		.cfi_def_cfa_offset 12
 638              		@ sp needed
ARM GAS  C:\Users\haske\AppData\Local\Temp\ccElDw6m.s 			page 17


 639 001c 30BD     		pop	{r4, r5, pc}
 640              		.cfi_endproc
 641              	.LFE9:
 642              		.size	st7789_fill_area_with_raw_data, .-st7789_fill_area_with_raw_data
 643 001e 00BF     		.section	.text.st7789_set_rotation,"ax",%progbits
 644              		.align	2
 645              		.global	st7789_set_rotation
 646              		.thumb
 647              		.thumb_func
 648              		.type	st7789_set_rotation, %function
 649              	st7789_set_rotation:
 650              	.LFB10:
 269:st7789_pt2.c  **** 
 270:st7789_pt2.c  **** void st7789_set_rotation(st7789_dev_t *dev, st7789_rotation_t new_rot)
 271:st7789_pt2.c  **** {
 651              		.loc 1 271 0
 652              		.cfi_startproc
 653              		@ args = 0, pretend = 0, frame = 8
 654              		@ frame_needed = 0, uses_anonymous_args = 0
 655              	.LVL67:
 656 0000 00B5     		push	{lr}
 657              		.cfi_def_cfa_offset 4
 658              		.cfi_offset 14, -4
 659 0002 83B0     		sub	sp, sp, #12
 660              		.cfi_def_cfa_offset 16
 272:st7789_pt2.c  **** 	uint8_t rot_cmd[2] = { [0] = CMD_MADCTL, [1] = 0};
 661              		.loc 1 272 0
 662 0004 3623     		movs	r3, #54
 663 0006 8DF80430 		strb	r3, [sp, #4]
 664 000a 0023     		movs	r3, #0
 665 000c 8DF80530 		strb	r3, [sp, #5]
 273:st7789_pt2.c  **** 
 274:st7789_pt2.c  **** 	dev->rotation = new_rot;
 666              		.loc 1 274 0
 667 0010 0172     		strb	r1, [r0, #8]
 275:st7789_pt2.c  **** 
 276:st7789_pt2.c  **** 	switch (new_rot)
 668              		.loc 1 276 0
 669 0012 0129     		cmp	r1, #1
 670 0014 07D0     		beq	.L35
 671 0016 11B1     		cbz	r1, .L36
 672 0018 0329     		cmp	r1, #3
 673 001a 08D0     		beq	.L37
 674 001c 0AE0     		b	.L34
 675              	.L36:
 277:st7789_pt2.c  **** 	{
 278:st7789_pt2.c  **** 	case ST7789_ROTATION_0:
 279:st7789_pt2.c  **** 		rot_cmd[1] = CMD_MADCTL_MX | CMD_MADCTL_MY | CMD_MADCTL_RGB;
 676              		.loc 1 279 0
 677 001e C023     		movs	r3, #192
 678 0020 8DF80530 		strb	r3, [sp, #5]
 280:st7789_pt2.c  **** 		break;
 679              		.loc 1 280 0
 680 0024 06E0     		b	.L34
 681              	.L35:
 281:st7789_pt2.c  **** 
 282:st7789_pt2.c  **** 	case ST7789_ROTATION_1:
ARM GAS  C:\Users\haske\AppData\Local\Temp\ccElDw6m.s 			page 18


 283:st7789_pt2.c  **** 		rot_cmd[1] = CMD_MADCTL_MY | CMD_MADCTL_MV | CMD_MADCTL_RGB;
 682              		.loc 1 283 0
 683 0026 A023     		movs	r3, #160
 684 0028 8DF80530 		strb	r3, [sp, #5]
 284:st7789_pt2.c  **** 		break;
 685              		.loc 1 284 0
 686 002c 02E0     		b	.L34
 687              	.L37:
 285:st7789_pt2.c  **** 
 286:st7789_pt2.c  **** 	case ST7789_ROTATION_2:
 287:st7789_pt2.c  **** 		rot_cmd[1] = CMD_MADCTL_RGB;
 288:st7789_pt2.c  **** 		break;
 289:st7789_pt2.c  **** 
 290:st7789_pt2.c  **** 	case ST7789_ROTATION_3:
 291:st7789_pt2.c  **** 		rot_cmd[1] = CMD_MADCTL_MX | CMD_MADCTL_MV | CMD_MADCTL_RGB;
 688              		.loc 1 291 0
 689 002e 6023     		movs	r3, #96
 690 0030 8DF80530 		strb	r3, [sp, #5]
 691              	.L34:
 292:st7789_pt2.c  **** 		break;
 293:st7789_pt2.c  **** 
 294:st7789_pt2.c  **** 	default:
 295:st7789_pt2.c  **** 		break;
 296:st7789_pt2.c  **** 	}
 297:st7789_pt2.c  **** 
 298:st7789_pt2.c  **** 	write_command_with_data8(dev, rot_cmd, 1);
 692              		.loc 1 298 0
 693 0034 0122     		movs	r2, #1
 694 0036 01A9     		add	r1, sp, #4
 695              	.LVL68:
 696 0038 FFF7FEFF 		bl	write_command_with_data8
 697              	.LVL69:
 299:st7789_pt2.c  **** }
 698              		.loc 1 299 0
 699 003c 03B0     		add	sp, sp, #12
 700              		.cfi_def_cfa_offset 4
 701              		@ sp needed
 702 003e 5DF804FB 		ldr	pc, [sp], #4
 703              		.cfi_endproc
 704              	.LFE10:
 705              		.size	st7789_set_rotation, .-st7789_set_rotation
 706 0042 00BF     		.section	.rodata
 707              		.align	2
 708              		.set	.LANCHOR0,. + 0
 709              		.type	init_cmd, %object
 710              		.size	init_cmd, 76
 711              	init_cmd:
 712 0000 00       		.byte	0
 713 0001 11       		.byte	17
 714 0002 01       		.byte	1
 715 0003 3A       		.byte	58
 716 0004 55       		.byte	85
 717 0005 05       		.byte	5
 718 0006 B2       		.byte	-78
 719 0007 0C       		.byte	12
 720 0008 0C       		.byte	12
 721 0009 00       		.byte	0
ARM GAS  C:\Users\haske\AppData\Local\Temp\ccElDw6m.s 			page 19


 722 000a 33       		.byte	51
 723 000b 33       		.byte	51
 724 000c 01       		.byte	1
 725 000d B7       		.byte	-73
 726 000e 35       		.byte	53
 727 000f 01       		.byte	1
 728 0010 BB       		.byte	-69
 729 0011 19       		.byte	25
 730 0012 01       		.byte	1
 731 0013 C0       		.byte	-64
 732 0014 2C       		.byte	44
 733 0015 01       		.byte	1
 734 0016 C2       		.byte	-62
 735 0017 01       		.byte	1
 736 0018 01       		.byte	1
 737 0019 C3       		.byte	-61
 738 001a 12       		.byte	18
 739 001b 01       		.byte	1
 740 001c C4       		.byte	-60
 741 001d 20       		.byte	32
 742 001e 01       		.byte	1
 743 001f C6       		.byte	-58
 744 0020 0F       		.byte	15
 745 0021 02       		.byte	2
 746 0022 D0       		.byte	-48
 747 0023 A4       		.byte	-92
 748 0024 A1       		.byte	-95
 749 0025 01       		.byte	1
 750 0026 36       		.byte	54
 751 0027 C0       		.byte	-64
 752 0028 0E       		.byte	14
 753 0029 E0       		.byte	-32
 754 002a D0       		.byte	-48
 755 002b 04       		.byte	4
 756 002c 0D       		.byte	13
 757 002d 11       		.byte	17
 758 002e 13       		.byte	19
 759 002f 2B       		.byte	43
 760 0030 3F       		.byte	63
 761 0031 54       		.byte	84
 762 0032 4C       		.byte	76
 763 0033 18       		.byte	24
 764 0034 0D       		.byte	13
 765 0035 0B       		.byte	11
 766 0036 1F       		.byte	31
 767 0037 23       		.byte	35
 768 0038 0E       		.byte	14
 769 0039 E1       		.byte	-31
 770 003a D0       		.byte	-48
 771 003b 04       		.byte	4
 772 003c 0C       		.byte	12
 773 003d 11       		.byte	17
 774 003e 13       		.byte	19
 775 003f 2C       		.byte	44
 776 0040 3F       		.byte	63
 777 0041 44       		.byte	68
 778 0042 51       		.byte	81
ARM GAS  C:\Users\haske\AppData\Local\Temp\ccElDw6m.s 			page 20


 779 0043 2F       		.byte	47
 780 0044 1F       		.byte	31
 781 0045 1F       		.byte	31
 782 0046 20       		.byte	32
 783 0047 23       		.byte	35
 784 0048 00       		.byte	0
 785 0049 20       		.byte	32
 786 004a 00       		.byte	0
 787 004b 13       		.byte	19
 788              		.text
 789              	.Letext0:
 790              		.file 2 "c:\\program files (x86)\\cypress\\psoc creator\\4.4\\psoc creator\\import\\gnu\\arm\\5.4.
 791              		.file 3 "c:\\program files (x86)\\cypress\\psoc creator\\4.4\\psoc creator\\import\\gnu\\arm\\5.4.
 792              		.file 4 "c:\\program files (x86)\\cypress\\psoc creator\\4.4\\psoc creator\\import\\gnu\\arm\\5.4.
 793              		.file 5 "st7789_pt2.h"