ARM GAS  C:\Users\haske\AppData\Local\Temp\ccBqPlca.s 			page 1


   1              		.syntax unified
   2              		.cpu cortex-m4
   3              		.eabi_attribute 27, 1
   4              		.fpu fpv4-sp-d16
   5              		.eabi_attribute 20, 1
   6              		.eabi_attribute 21, 1
   7              		.eabi_attribute 23, 3
   8              		.eabi_attribute 24, 1
   9              		.eabi_attribute 25, 1
  10              		.eabi_attribute 26, 1
  11              		.eabi_attribute 30, 1
  12              		.eabi_attribute 34, 1
  13              		.eabi_attribute 18, 4
  14              		.thumb
  15              		.syntax unified
  16              		.file	"ui.c"
  17              		.text
  18              	.Ltext0:
  19              		.cfi_sections	.debug_frame
  20              		.section	.text.up_Animation,"ax",%progbits
  21              		.align	2
  22              		.global	up_Animation
  23              		.thumb
  24              		.thumb_func
  25              		.type	up_Animation, %function
  26              	up_Animation:
  27              	.LFB202:
  28              		.file 1 "ui\\ui.c"
   1:ui\ui.c       **** // This file was generated by SquareLine Studio
   2:ui\ui.c       **** // SquareLine Studio version: SquareLine Studio 1.3.1
   3:ui\ui.c       **** // LVGL version: 8.3.6
   4:ui\ui.c       **** // Project name: Pain Drain
   5:ui\ui.c       **** 
   6:ui\ui.c       **** #include "ui.h"
   7:ui\ui.c       **** #include "ui_helpers.h"
   8:ui\ui.c       **** 
   9:ui\ui.c       **** ///////////////////// VARIABLES ////////////////////
  10:ui\ui.c       **** void up_Animation(lv_obj_t * TargetObject, int delay);
  11:ui\ui.c       **** 
  12:ui\ui.c       **** // SCREEN: ui_Splash_screen
  13:ui\ui.c       **** void ui_Splash_screen_screen_init(void);
  14:ui\ui.c       **** void ui_event_Splash_screen(lv_event_t * e);
  15:ui\ui.c       **** lv_obj_t * ui_Splash_screen;
  16:ui\ui.c       **** lv_obj_t * ui_logo_label;
  17:ui\ui.c       **** lv_obj_t * ui_pain_drain_logo;
  18:ui\ui.c       **** 
  19:ui\ui.c       **** // SCREEN: ui_TENS_screen
  20:ui\ui.c       **** void ui_TENS_screen_screen_init(void);
  21:ui\ui.c       **** void ui_event_TENS_screen(lv_event_t * e);
  22:ui\ui.c       **** lv_obj_t * ui_TENS_screen;
  23:ui\ui.c       **** lv_obj_t * ui_TENS_label;
  24:ui\ui.c       **** lv_obj_t * ui_TENS_slider;
  25:ui\ui.c       **** lv_obj_t * ui_low_label;
  26:ui\ui.c       **** lv_obj_t * ui_high_label;
  27:ui\ui.c       **** lv_obj_t * ui_scrollDotsPg1;
  28:ui\ui.c       **** lv_obj_t * ui_dot1Pg1;
  29:ui\ui.c       **** lv_obj_t * ui_dot2Pg1;
ARM GAS  C:\Users\haske\AppData\Local\Temp\ccBqPlca.s 			page 2


  30:ui\ui.c       **** lv_obj_t * ui_dot3Pg1;
  31:ui\ui.c       **** lv_obj_t * ui_dot4Pg1;
  32:ui\ui.c       **** lv_obj_t * ui_dot5Pg1;
  33:ui\ui.c       **** 
  34:ui\ui.c       **** // SCREEN: ui_Temperature_screen
  35:ui\ui.c       **** void ui_Temperature_screen_screen_init(void);
  36:ui\ui.c       **** void ui_event_Temperature_screen(lv_event_t * e);
  37:ui\ui.c       **** lv_obj_t * ui_Temperature_screen;
  38:ui\ui.c       **** lv_obj_t * ui_Temperature_label;
  39:ui\ui.c       **** lv_obj_t * ui_scrollDotsPg2;
  40:ui\ui.c       **** lv_obj_t * ui_dot1Pg2;
  41:ui\ui.c       **** lv_obj_t * ui_dot2Pg2;
  42:ui\ui.c       **** lv_obj_t * ui_dot3Pg2;
  43:ui\ui.c       **** lv_obj_t * ui_dot4Pg2;
  44:ui\ui.c       **** lv_obj_t * ui_dot5Pg2;
  45:ui\ui.c       **** lv_obj_t * ui_Temperature_slider;
  46:ui\ui.c       **** lv_obj_t * ui_snowflake;
  47:ui\ui.c       **** lv_obj_t * ui_fire;
  48:ui\ui.c       **** 
  49:ui\ui.c       **** // SCREEN: ui_Vibration_screen
  50:ui\ui.c       **** void ui_Vibration_screen_screen_init(void);
  51:ui\ui.c       **** void ui_event_Vibration_screen(lv_event_t * e);
  52:ui\ui.c       **** lv_obj_t * ui_Vibration_screen;
  53:ui\ui.c       **** lv_obj_t * ui_Vibration_label;
  54:ui\ui.c       **** lv_obj_t * ui_scrollDotsPg3;
  55:ui\ui.c       **** lv_obj_t * ui_dot1Pg3;
  56:ui\ui.c       **** lv_obj_t * ui_dot2Pg3;
  57:ui\ui.c       **** lv_obj_t * ui_dot3Pg3;
  58:ui\ui.c       **** lv_obj_t * ui_dot4Pg3;
  59:ui\ui.c       **** lv_obj_t * ui_dot5Pg3;
  60:ui\ui.c       **** lv_obj_t * ui_Amplitude_slider;
  61:ui\ui.c       **** lv_obj_t * ui_Frequency_slider;
  62:ui\ui.c       **** lv_obj_t * ui_Waveform_slider;
  63:ui\ui.c       **** lv_obj_t * ui_Amplitude_label;
  64:ui\ui.c       **** lv_obj_t * ui_Frequency_label;
  65:ui\ui.c       **** lv_obj_t * ui_Waveform_label;
  66:ui\ui.c       **** lv_obj_t * ui_Waveform_drop_down_menu;
  67:ui\ui.c       **** 
  68:ui\ui.c       **** // SCREEN: ui_Presets_screen
  69:ui\ui.c       **** void ui_Presets_screen_screen_init(void);
  70:ui\ui.c       **** void ui_event_Presets_screen(lv_event_t * e);
  71:ui\ui.c       **** lv_obj_t * ui_Presets_screen;
  72:ui\ui.c       **** lv_obj_t * ui_Presets_label;
  73:ui\ui.c       **** lv_obj_t * ui_scrollDotsPg4;
  74:ui\ui.c       **** lv_obj_t * ui_dot1Pg4;
  75:ui\ui.c       **** lv_obj_t * ui_dot2Pg4;
  76:ui\ui.c       **** lv_obj_t * ui_dot3Pg4;
  77:ui\ui.c       **** lv_obj_t * ui_dot4Pg4;
  78:ui\ui.c       **** lv_obj_t * ui_dot5Pg4;
  79:ui\ui.c       **** lv_obj_t * ui_Preset_drop_down_menu;
  80:ui\ui.c       **** void ui_event_Save_setting_button(lv_event_t * e);
  81:ui\ui.c       **** lv_obj_t * ui_Save_setting_button;
  82:ui\ui.c       **** lv_obj_t * ui_Save_setting_label;
  83:ui\ui.c       **** lv_obj_t * ui_Keyboard;
  84:ui\ui.c       **** lv_obj_t * ui_TextArea;
  85:ui\ui.c       **** 
  86:ui\ui.c       **** // SCREEN: ui_Brigtness_screen
ARM GAS  C:\Users\haske\AppData\Local\Temp\ccBqPlca.s 			page 3


  87:ui\ui.c       **** void ui_Brigtness_screen_screen_init(void);
  88:ui\ui.c       **** void ui_event_Brigtness_screen(lv_event_t * e);
  89:ui\ui.c       **** lv_obj_t * ui_Brigtness_screen;
  90:ui\ui.c       **** lv_obj_t * ui_Brightness_screen;
  91:ui\ui.c       **** lv_obj_t * ui_scrollDotsPg5;
  92:ui\ui.c       **** lv_obj_t * ui_dot1Pg5;
  93:ui\ui.c       **** lv_obj_t * ui_dot2Pg5;
  94:ui\ui.c       **** lv_obj_t * ui_dot3Pg5;
  95:ui\ui.c       **** lv_obj_t * ui_dot4Pg5;
  96:ui\ui.c       **** lv_obj_t * ui_dot5Pg5;
  97:ui\ui.c       **** lv_obj_t * ui_Brightness_slider;
  98:ui\ui.c       **** void ui_event____initial_actions0(lv_event_t * e);
  99:ui\ui.c       **** lv_obj_t * ui____initial_actions0;
 100:ui\ui.c       **** 
 101:ui\ui.c       **** ///////////////////// TEST LVGL SETTINGS ////////////////////
 102:ui\ui.c       **** #if LV_COLOR_DEPTH != 32
 103:ui\ui.c       ****     #error "LV_COLOR_DEPTH should be 32bit to match SquareLine Studio's settings"
 104:ui\ui.c       **** #endif
 105:ui\ui.c       **** #if LV_COLOR_16_SWAP !=0
 106:ui\ui.c       ****     #error "LV_COLOR_16_SWAP should be 0 to match SquareLine Studio's settings"
 107:ui\ui.c       **** #endif
 108:ui\ui.c       **** 
 109:ui\ui.c       **** ///////////////////// ANIMATIONS ////////////////////
 110:ui\ui.c       **** void up_Animation(lv_obj_t * TargetObject, int delay)
 111:ui\ui.c       **** {
  29              		.loc 1 111 0
  30              		.cfi_startproc
  31              		@ args = 0, pretend = 0, frame = 136
  32              		@ frame_needed = 0, uses_anonymous_args = 0
  33              	.LVL0:
  34 0000 2DE9F043 		push	{r4, r5, r6, r7, r8, r9, lr}
  35              		.cfi_def_cfa_offset 28
  36              		.cfi_offset 4, -28
  37              		.cfi_offset 5, -24
  38              		.cfi_offset 6, -20
  39              		.cfi_offset 7, -16
  40              		.cfi_offset 8, -12
  41              		.cfi_offset 9, -8
  42              		.cfi_offset 14, -4
  43 0004 A3B0     		sub	sp, sp, #140
  44              		.cfi_def_cfa_offset 168
  45 0006 8146     		mov	r9, r0
  46 0008 0D46     		mov	r5, r1
 112:ui\ui.c       ****     ui_anim_user_data_t * PropertyAnimation_0_user_data = lv_mem_alloc(sizeof(ui_anim_user_data_t))
  47              		.loc 1 112 0
  48 000a 1020     		movs	r0, #16
  49              	.LVL1:
  50 000c FFF7FEFF 		bl	lv_mem_alloc
  51              	.LVL2:
  52 0010 0446     		mov	r4, r0
  53              	.LVL3:
 113:ui\ui.c       ****     PropertyAnimation_0_user_data->target = TargetObject;
  54              		.loc 1 113 0
  55 0012 C0F80090 		str	r9, [r0]
 114:ui\ui.c       ****     PropertyAnimation_0_user_data->val = -1;
  56              		.loc 1 114 0
  57 0016 4FF0FF38 		mov	r8, #-1
ARM GAS  C:\Users\haske\AppData\Local\Temp\ccBqPlca.s 			page 4


  58 001a C0F80C80 		str	r8, [r0, #12]
 115:ui\ui.c       ****     lv_anim_t PropertyAnimation_0;
 116:ui\ui.c       ****     lv_anim_init(&PropertyAnimation_0);
  59              		.loc 1 116 0
  60 001e 11AE     		add	r6, sp, #68
  61 0020 3046     		mov	r0, r6
  62              	.LVL4:
  63 0022 FFF7FEFF 		bl	lv_anim_init
  64              	.LVL5:
  65              	.LBB52:
  66              	.LBB53:
  67              		.file 2 ".\\lvgl-release-v8.3/./src/misc/lv_anim.h"
   1:.\lvgl-release-v8.3/./src/misc/lv_anim.h **** /**
   2:.\lvgl-release-v8.3/./src/misc/lv_anim.h ****  * @file lv_anim.h
   3:.\lvgl-release-v8.3/./src/misc/lv_anim.h ****  *
   4:.\lvgl-release-v8.3/./src/misc/lv_anim.h ****  */
   5:.\lvgl-release-v8.3/./src/misc/lv_anim.h **** 
   6:.\lvgl-release-v8.3/./src/misc/lv_anim.h **** #ifndef LV_ANIM_H
   7:.\lvgl-release-v8.3/./src/misc/lv_anim.h **** #define LV_ANIM_H
   8:.\lvgl-release-v8.3/./src/misc/lv_anim.h **** 
   9:.\lvgl-release-v8.3/./src/misc/lv_anim.h **** #ifdef __cplusplus
  10:.\lvgl-release-v8.3/./src/misc/lv_anim.h **** extern "C" {
  11:.\lvgl-release-v8.3/./src/misc/lv_anim.h **** #endif
  12:.\lvgl-release-v8.3/./src/misc/lv_anim.h **** 
  13:.\lvgl-release-v8.3/./src/misc/lv_anim.h **** /*********************
  14:.\lvgl-release-v8.3/./src/misc/lv_anim.h ****  *      INCLUDES
  15:.\lvgl-release-v8.3/./src/misc/lv_anim.h ****  *********************/
  16:.\lvgl-release-v8.3/./src/misc/lv_anim.h **** #include "../lv_conf_internal.h"
  17:.\lvgl-release-v8.3/./src/misc/lv_anim.h **** 
  18:.\lvgl-release-v8.3/./src/misc/lv_anim.h **** #include <stdint.h>
  19:.\lvgl-release-v8.3/./src/misc/lv_anim.h **** #include <stdbool.h>
  20:.\lvgl-release-v8.3/./src/misc/lv_anim.h **** #include <stddef.h>
  21:.\lvgl-release-v8.3/./src/misc/lv_anim.h **** 
  22:.\lvgl-release-v8.3/./src/misc/lv_anim.h **** /*********************
  23:.\lvgl-release-v8.3/./src/misc/lv_anim.h ****  *      DEFINES
  24:.\lvgl-release-v8.3/./src/misc/lv_anim.h ****  *********************/
  25:.\lvgl-release-v8.3/./src/misc/lv_anim.h **** 
  26:.\lvgl-release-v8.3/./src/misc/lv_anim.h **** #define LV_ANIM_REPEAT_INFINITE      0xFFFF
  27:.\lvgl-release-v8.3/./src/misc/lv_anim.h **** #define LV_ANIM_PLAYTIME_INFINITE    0xFFFFFFFF
  28:.\lvgl-release-v8.3/./src/misc/lv_anim.h **** 
  29:.\lvgl-release-v8.3/./src/misc/lv_anim.h **** LV_EXPORT_CONST_INT(LV_ANIM_REPEAT_INFINITE);
  30:.\lvgl-release-v8.3/./src/misc/lv_anim.h **** LV_EXPORT_CONST_INT(LV_ANIM_PLAYTIME_INFINITE);
  31:.\lvgl-release-v8.3/./src/misc/lv_anim.h **** 
  32:.\lvgl-release-v8.3/./src/misc/lv_anim.h **** /**********************
  33:.\lvgl-release-v8.3/./src/misc/lv_anim.h ****  *      TYPEDEFS
  34:.\lvgl-release-v8.3/./src/misc/lv_anim.h ****  **********************/
  35:.\lvgl-release-v8.3/./src/misc/lv_anim.h **** 
  36:.\lvgl-release-v8.3/./src/misc/lv_anim.h **** /** Can be used to indicate if animations are enabled or disabled in a case*/
  37:.\lvgl-release-v8.3/./src/misc/lv_anim.h **** typedef enum {
  38:.\lvgl-release-v8.3/./src/misc/lv_anim.h ****     LV_ANIM_OFF,
  39:.\lvgl-release-v8.3/./src/misc/lv_anim.h ****     LV_ANIM_ON,
  40:.\lvgl-release-v8.3/./src/misc/lv_anim.h **** } lv_anim_enable_t;
  41:.\lvgl-release-v8.3/./src/misc/lv_anim.h **** 
  42:.\lvgl-release-v8.3/./src/misc/lv_anim.h **** struct _lv_anim_t;
  43:.\lvgl-release-v8.3/./src/misc/lv_anim.h **** struct _lv_timer_t;
  44:.\lvgl-release-v8.3/./src/misc/lv_anim.h **** 
  45:.\lvgl-release-v8.3/./src/misc/lv_anim.h **** /** Get the current value during an animation*/
ARM GAS  C:\Users\haske\AppData\Local\Temp\ccBqPlca.s 			page 5


  46:.\lvgl-release-v8.3/./src/misc/lv_anim.h **** typedef int32_t (*lv_anim_path_cb_t)(const struct _lv_anim_t *);
  47:.\lvgl-release-v8.3/./src/misc/lv_anim.h **** 
  48:.\lvgl-release-v8.3/./src/misc/lv_anim.h **** /** Generic prototype of "animator" functions.
  49:.\lvgl-release-v8.3/./src/misc/lv_anim.h ****  * First parameter is the variable to animate.
  50:.\lvgl-release-v8.3/./src/misc/lv_anim.h ****  * Second parameter is the value to set.
  51:.\lvgl-release-v8.3/./src/misc/lv_anim.h ****  * Compatible with `lv_xxx_set_yyy(obj, value)` functions
  52:.\lvgl-release-v8.3/./src/misc/lv_anim.h ****  * The `x` in `_xcb_t` means it's not a fully generic prototype because
  53:.\lvgl-release-v8.3/./src/misc/lv_anim.h ****  * it doesn't receive `lv_anim_t *` as its first argument*/
  54:.\lvgl-release-v8.3/./src/misc/lv_anim.h **** typedef void (*lv_anim_exec_xcb_t)(void *, int32_t);
  55:.\lvgl-release-v8.3/./src/misc/lv_anim.h **** 
  56:.\lvgl-release-v8.3/./src/misc/lv_anim.h **** /** Same as `lv_anim_exec_xcb_t` but receives `lv_anim_t *` as the first parameter.
  57:.\lvgl-release-v8.3/./src/misc/lv_anim.h ****  * It's more consistent but less convenient. Might be used by binding generator functions.*/
  58:.\lvgl-release-v8.3/./src/misc/lv_anim.h **** typedef void (*lv_anim_custom_exec_cb_t)(struct _lv_anim_t *, int32_t);
  59:.\lvgl-release-v8.3/./src/misc/lv_anim.h **** 
  60:.\lvgl-release-v8.3/./src/misc/lv_anim.h **** /** Callback to call when the animation is ready*/
  61:.\lvgl-release-v8.3/./src/misc/lv_anim.h **** typedef void (*lv_anim_ready_cb_t)(struct _lv_anim_t *);
  62:.\lvgl-release-v8.3/./src/misc/lv_anim.h **** 
  63:.\lvgl-release-v8.3/./src/misc/lv_anim.h **** /** Callback to call when the animation really stars (considering `delay`)*/
  64:.\lvgl-release-v8.3/./src/misc/lv_anim.h **** typedef void (*lv_anim_start_cb_t)(struct _lv_anim_t *);
  65:.\lvgl-release-v8.3/./src/misc/lv_anim.h **** 
  66:.\lvgl-release-v8.3/./src/misc/lv_anim.h **** /** Callback used when the animation values are relative to get the current value*/
  67:.\lvgl-release-v8.3/./src/misc/lv_anim.h **** typedef int32_t (*lv_anim_get_value_cb_t)(struct _lv_anim_t *);
  68:.\lvgl-release-v8.3/./src/misc/lv_anim.h **** 
  69:.\lvgl-release-v8.3/./src/misc/lv_anim.h **** /** Callback used when the animation is deleted*/
  70:.\lvgl-release-v8.3/./src/misc/lv_anim.h **** typedef void (*lv_anim_deleted_cb_t)(struct _lv_anim_t *);
  71:.\lvgl-release-v8.3/./src/misc/lv_anim.h **** 
  72:.\lvgl-release-v8.3/./src/misc/lv_anim.h **** /** Describes an animation*/
  73:.\lvgl-release-v8.3/./src/misc/lv_anim.h **** typedef struct _lv_anim_t {
  74:.\lvgl-release-v8.3/./src/misc/lv_anim.h ****     void * var;                          /**<Variable to animate*/
  75:.\lvgl-release-v8.3/./src/misc/lv_anim.h ****     lv_anim_exec_xcb_t exec_cb;          /**< Function to execute to animate*/
  76:.\lvgl-release-v8.3/./src/misc/lv_anim.h ****     lv_anim_start_cb_t start_cb;         /**< Call it when the animation is starts (considering `de
  77:.\lvgl-release-v8.3/./src/misc/lv_anim.h ****     lv_anim_ready_cb_t ready_cb;         /**< Call it when the animation is ready*/
  78:.\lvgl-release-v8.3/./src/misc/lv_anim.h ****     lv_anim_deleted_cb_t deleted_cb;     /**< Call it when the animation is deleted*/
  79:.\lvgl-release-v8.3/./src/misc/lv_anim.h ****     lv_anim_get_value_cb_t get_value_cb; /**< Get the current value in relative mode*/
  80:.\lvgl-release-v8.3/./src/misc/lv_anim.h **** #if LV_USE_USER_DATA
  81:.\lvgl-release-v8.3/./src/misc/lv_anim.h ****     void * user_data; /**< Custom user data*/
  82:.\lvgl-release-v8.3/./src/misc/lv_anim.h **** #endif
  83:.\lvgl-release-v8.3/./src/misc/lv_anim.h ****     lv_anim_path_cb_t path_cb;         /**< Describe the path (curve) of animations*/
  84:.\lvgl-release-v8.3/./src/misc/lv_anim.h ****     int32_t start_value;               /**< Start value*/
  85:.\lvgl-release-v8.3/./src/misc/lv_anim.h ****     int32_t current_value;             /**< Current value*/
  86:.\lvgl-release-v8.3/./src/misc/lv_anim.h ****     int32_t end_value;                 /**< End value*/
  87:.\lvgl-release-v8.3/./src/misc/lv_anim.h ****     int32_t time;                /**< Animation time in ms*/
  88:.\lvgl-release-v8.3/./src/misc/lv_anim.h ****     int32_t act_time;            /**< Current time in animation. Set to negative to make delay.*/
  89:.\lvgl-release-v8.3/./src/misc/lv_anim.h ****     uint32_t playback_delay;     /**< Wait before play back*/
  90:.\lvgl-release-v8.3/./src/misc/lv_anim.h ****     uint32_t playback_time;      /**< Duration of playback animation*/
  91:.\lvgl-release-v8.3/./src/misc/lv_anim.h ****     uint32_t repeat_delay;       /**< Wait before repeat*/
  92:.\lvgl-release-v8.3/./src/misc/lv_anim.h ****     uint16_t repeat_cnt;         /**< Repeat count for the animation*/
  93:.\lvgl-release-v8.3/./src/misc/lv_anim.h ****     uint8_t early_apply  : 1;    /**< 1: Apply start value immediately even is there is `delay`*/
  94:.\lvgl-release-v8.3/./src/misc/lv_anim.h **** 
  95:.\lvgl-release-v8.3/./src/misc/lv_anim.h ****     /*Animation system use these - user shouldn't set*/
  96:.\lvgl-release-v8.3/./src/misc/lv_anim.h ****     uint8_t playback_now : 1; /**< Play back is in progress*/
  97:.\lvgl-release-v8.3/./src/misc/lv_anim.h ****     uint8_t run_round : 1;    /**< Indicates the animation has run in this round*/
  98:.\lvgl-release-v8.3/./src/misc/lv_anim.h ****     uint8_t start_cb_called : 1;    /**< Indicates that the `start_cb` was already called*/
  99:.\lvgl-release-v8.3/./src/misc/lv_anim.h **** } lv_anim_t;
 100:.\lvgl-release-v8.3/./src/misc/lv_anim.h **** 
 101:.\lvgl-release-v8.3/./src/misc/lv_anim.h **** /**********************
 102:.\lvgl-release-v8.3/./src/misc/lv_anim.h ****  * GLOBAL PROTOTYPES
ARM GAS  C:\Users\haske\AppData\Local\Temp\ccBqPlca.s 			page 6


 103:.\lvgl-release-v8.3/./src/misc/lv_anim.h ****  **********************/
 104:.\lvgl-release-v8.3/./src/misc/lv_anim.h **** 
 105:.\lvgl-release-v8.3/./src/misc/lv_anim.h **** /**
 106:.\lvgl-release-v8.3/./src/misc/lv_anim.h ****  * Init. the animation module
 107:.\lvgl-release-v8.3/./src/misc/lv_anim.h ****  */
 108:.\lvgl-release-v8.3/./src/misc/lv_anim.h **** void _lv_anim_core_init(void);
 109:.\lvgl-release-v8.3/./src/misc/lv_anim.h **** 
 110:.\lvgl-release-v8.3/./src/misc/lv_anim.h **** /**
 111:.\lvgl-release-v8.3/./src/misc/lv_anim.h ****  * Initialize an animation variable.
 112:.\lvgl-release-v8.3/./src/misc/lv_anim.h ****  * E.g.:
 113:.\lvgl-release-v8.3/./src/misc/lv_anim.h ****  * lv_anim_t a;
 114:.\lvgl-release-v8.3/./src/misc/lv_anim.h ****  * lv_anim_init(&a);
 115:.\lvgl-release-v8.3/./src/misc/lv_anim.h ****  * lv_anim_set_...(&a);
 116:.\lvgl-release-v8.3/./src/misc/lv_anim.h ****  * lv_anim_start(&a);
 117:.\lvgl-release-v8.3/./src/misc/lv_anim.h ****  * @param a     pointer to an `lv_anim_t` variable to initialize
 118:.\lvgl-release-v8.3/./src/misc/lv_anim.h ****  */
 119:.\lvgl-release-v8.3/./src/misc/lv_anim.h **** void lv_anim_init(lv_anim_t * a);
 120:.\lvgl-release-v8.3/./src/misc/lv_anim.h **** 
 121:.\lvgl-release-v8.3/./src/misc/lv_anim.h **** /**
 122:.\lvgl-release-v8.3/./src/misc/lv_anim.h ****  * Set a variable to animate
 123:.\lvgl-release-v8.3/./src/misc/lv_anim.h ****  * @param a     pointer to an initialized `lv_anim_t` variable
 124:.\lvgl-release-v8.3/./src/misc/lv_anim.h ****  * @param var   pointer to a variable to animate
 125:.\lvgl-release-v8.3/./src/misc/lv_anim.h ****  */
 126:.\lvgl-release-v8.3/./src/misc/lv_anim.h **** static inline void lv_anim_set_var(lv_anim_t * a, void * var)
 127:.\lvgl-release-v8.3/./src/misc/lv_anim.h **** {
 128:.\lvgl-release-v8.3/./src/misc/lv_anim.h ****     a->var = var;
 129:.\lvgl-release-v8.3/./src/misc/lv_anim.h **** }
 130:.\lvgl-release-v8.3/./src/misc/lv_anim.h **** 
 131:.\lvgl-release-v8.3/./src/misc/lv_anim.h **** /**
 132:.\lvgl-release-v8.3/./src/misc/lv_anim.h ****  * Set a function to animate `var`
 133:.\lvgl-release-v8.3/./src/misc/lv_anim.h ****  * @param a         pointer to an initialized `lv_anim_t` variable
 134:.\lvgl-release-v8.3/./src/misc/lv_anim.h ****  * @param exec_cb   a function to execute during animation
 135:.\lvgl-release-v8.3/./src/misc/lv_anim.h ****  *                  LVGL's built-in functions can be used.
 136:.\lvgl-release-v8.3/./src/misc/lv_anim.h ****  *                  E.g. lv_obj_set_x
 137:.\lvgl-release-v8.3/./src/misc/lv_anim.h ****  */
 138:.\lvgl-release-v8.3/./src/misc/lv_anim.h **** static inline void lv_anim_set_exec_cb(lv_anim_t * a, lv_anim_exec_xcb_t exec_cb)
 139:.\lvgl-release-v8.3/./src/misc/lv_anim.h **** {
 140:.\lvgl-release-v8.3/./src/misc/lv_anim.h ****     a->exec_cb = exec_cb;
 141:.\lvgl-release-v8.3/./src/misc/lv_anim.h **** }
 142:.\lvgl-release-v8.3/./src/misc/lv_anim.h **** 
 143:.\lvgl-release-v8.3/./src/misc/lv_anim.h **** /**
 144:.\lvgl-release-v8.3/./src/misc/lv_anim.h ****  * Set the duration of an animation
 145:.\lvgl-release-v8.3/./src/misc/lv_anim.h ****  * @param a         pointer to an initialized `lv_anim_t` variable
 146:.\lvgl-release-v8.3/./src/misc/lv_anim.h ****  * @param duration  duration of the animation in milliseconds
 147:.\lvgl-release-v8.3/./src/misc/lv_anim.h ****  */
 148:.\lvgl-release-v8.3/./src/misc/lv_anim.h **** static inline void lv_anim_set_time(lv_anim_t * a, uint32_t duration)
 149:.\lvgl-release-v8.3/./src/misc/lv_anim.h **** {
 150:.\lvgl-release-v8.3/./src/misc/lv_anim.h ****     a->time = duration;
  68              		.loc 2 150 0
  69 0026 C823     		movs	r3, #200
  70 0028 1C93     		str	r3, [sp, #112]
  71              	.LVL6:
  72              	.LBE53:
  73              	.LBE52:
  74              	.LBB54:
  75              	.LBB55:
 151:.\lvgl-release-v8.3/./src/misc/lv_anim.h **** }
ARM GAS  C:\Users\haske\AppData\Local\Temp\ccBqPlca.s 			page 7


 152:.\lvgl-release-v8.3/./src/misc/lv_anim.h **** 
 153:.\lvgl-release-v8.3/./src/misc/lv_anim.h **** /**
 154:.\lvgl-release-v8.3/./src/misc/lv_anim.h ****  * Set a delay before starting the animation
 155:.\lvgl-release-v8.3/./src/misc/lv_anim.h ****  * @param a         pointer to an initialized `lv_anim_t` variable
 156:.\lvgl-release-v8.3/./src/misc/lv_anim.h ****  * @param delay     delay before the animation in milliseconds
 157:.\lvgl-release-v8.3/./src/misc/lv_anim.h ****  */
 158:.\lvgl-release-v8.3/./src/misc/lv_anim.h **** static inline void lv_anim_set_delay(lv_anim_t * a, uint32_t delay)
 159:.\lvgl-release-v8.3/./src/misc/lv_anim.h **** {
 160:.\lvgl-release-v8.3/./src/misc/lv_anim.h ****     a->act_time = -(int32_t)(delay);
 161:.\lvgl-release-v8.3/./src/misc/lv_anim.h **** }
 162:.\lvgl-release-v8.3/./src/misc/lv_anim.h **** 
 163:.\lvgl-release-v8.3/./src/misc/lv_anim.h **** /**
 164:.\lvgl-release-v8.3/./src/misc/lv_anim.h ****  * Set the start and end values of an animation
 165:.\lvgl-release-v8.3/./src/misc/lv_anim.h ****  * @param a         pointer to an initialized `lv_anim_t` variable
 166:.\lvgl-release-v8.3/./src/misc/lv_anim.h ****  * @param start     the start value
 167:.\lvgl-release-v8.3/./src/misc/lv_anim.h ****  * @param end       the end value
 168:.\lvgl-release-v8.3/./src/misc/lv_anim.h ****  */
 169:.\lvgl-release-v8.3/./src/misc/lv_anim.h **** static inline void lv_anim_set_values(lv_anim_t * a, int32_t start, int32_t end)
 170:.\lvgl-release-v8.3/./src/misc/lv_anim.h **** {
 171:.\lvgl-release-v8.3/./src/misc/lv_anim.h ****     a->start_value = start;
 172:.\lvgl-release-v8.3/./src/misc/lv_anim.h ****     a->current_value = start;
 173:.\lvgl-release-v8.3/./src/misc/lv_anim.h ****     a->end_value = end;
 174:.\lvgl-release-v8.3/./src/misc/lv_anim.h **** }
 175:.\lvgl-release-v8.3/./src/misc/lv_anim.h **** 
 176:.\lvgl-release-v8.3/./src/misc/lv_anim.h **** /**
 177:.\lvgl-release-v8.3/./src/misc/lv_anim.h ****  * Similar to `lv_anim_set_exec_cb` but `lv_anim_custom_exec_cb_t` receives
 178:.\lvgl-release-v8.3/./src/misc/lv_anim.h ****  * `lv_anim_t * ` as its first parameter instead of `void *`.
 179:.\lvgl-release-v8.3/./src/misc/lv_anim.h ****  * This function might be used when LVGL is bound to other languages because
 180:.\lvgl-release-v8.3/./src/misc/lv_anim.h ****  * it's more consistent to have `lv_anim_t *` as first parameter.
 181:.\lvgl-release-v8.3/./src/misc/lv_anim.h ****  * The variable to animate can be stored in the animation's `user_data`
 182:.\lvgl-release-v8.3/./src/misc/lv_anim.h ****  * @param a         pointer to an initialized `lv_anim_t` variable
 183:.\lvgl-release-v8.3/./src/misc/lv_anim.h ****  * @param exec_cb   a function to execute.
 184:.\lvgl-release-v8.3/./src/misc/lv_anim.h ****  */
 185:.\lvgl-release-v8.3/./src/misc/lv_anim.h **** static inline void lv_anim_set_custom_exec_cb(lv_anim_t * a, lv_anim_custom_exec_cb_t exec_cb)
 186:.\lvgl-release-v8.3/./src/misc/lv_anim.h **** {
 187:.\lvgl-release-v8.3/./src/misc/lv_anim.h ****     a->var     = a;
 188:.\lvgl-release-v8.3/./src/misc/lv_anim.h ****     a->exec_cb = (lv_anim_exec_xcb_t)exec_cb;
 189:.\lvgl-release-v8.3/./src/misc/lv_anim.h **** }
 190:.\lvgl-release-v8.3/./src/misc/lv_anim.h **** 
 191:.\lvgl-release-v8.3/./src/misc/lv_anim.h **** /**
 192:.\lvgl-release-v8.3/./src/misc/lv_anim.h ****  * Set the path (curve) of the animation.
 193:.\lvgl-release-v8.3/./src/misc/lv_anim.h ****  * @param a         pointer to an initialized `lv_anim_t` variable
 194:.\lvgl-release-v8.3/./src/misc/lv_anim.h ****  * @param path_cb a function to set the current value of the animation.
 195:.\lvgl-release-v8.3/./src/misc/lv_anim.h ****  */
 196:.\lvgl-release-v8.3/./src/misc/lv_anim.h **** static inline void lv_anim_set_path_cb(lv_anim_t * a, lv_anim_path_cb_t path_cb)
 197:.\lvgl-release-v8.3/./src/misc/lv_anim.h **** {
 198:.\lvgl-release-v8.3/./src/misc/lv_anim.h ****     a->path_cb = path_cb;
 199:.\lvgl-release-v8.3/./src/misc/lv_anim.h **** }
 200:.\lvgl-release-v8.3/./src/misc/lv_anim.h **** 
 201:.\lvgl-release-v8.3/./src/misc/lv_anim.h **** /**
 202:.\lvgl-release-v8.3/./src/misc/lv_anim.h ****  * Set a function call when the animation really starts (considering `delay`)
 203:.\lvgl-release-v8.3/./src/misc/lv_anim.h ****  * @param a         pointer to an initialized `lv_anim_t` variable
 204:.\lvgl-release-v8.3/./src/misc/lv_anim.h ****  * @param start_cb  a function call when the animation starts
 205:.\lvgl-release-v8.3/./src/misc/lv_anim.h ****  */
 206:.\lvgl-release-v8.3/./src/misc/lv_anim.h **** static inline void lv_anim_set_start_cb(lv_anim_t * a, lv_anim_start_cb_t start_cb)
 207:.\lvgl-release-v8.3/./src/misc/lv_anim.h **** {
 208:.\lvgl-release-v8.3/./src/misc/lv_anim.h ****     a->start_cb = start_cb;
ARM GAS  C:\Users\haske\AppData\Local\Temp\ccBqPlca.s 			page 8


 209:.\lvgl-release-v8.3/./src/misc/lv_anim.h **** }
 210:.\lvgl-release-v8.3/./src/misc/lv_anim.h **** 
 211:.\lvgl-release-v8.3/./src/misc/lv_anim.h **** /**
 212:.\lvgl-release-v8.3/./src/misc/lv_anim.h ****  * Set a function to use the current value of the variable and make start and end value
 213:.\lvgl-release-v8.3/./src/misc/lv_anim.h ****  * relative to the returned current value.
 214:.\lvgl-release-v8.3/./src/misc/lv_anim.h ****  * @param a             pointer to an initialized `lv_anim_t` variable
 215:.\lvgl-release-v8.3/./src/misc/lv_anim.h ****  * @param get_value_cb  a function call when the animation starts
 216:.\lvgl-release-v8.3/./src/misc/lv_anim.h ****  */
 217:.\lvgl-release-v8.3/./src/misc/lv_anim.h **** static inline void lv_anim_set_get_value_cb(lv_anim_t * a, lv_anim_get_value_cb_t get_value_cb)
 218:.\lvgl-release-v8.3/./src/misc/lv_anim.h **** {
 219:.\lvgl-release-v8.3/./src/misc/lv_anim.h ****     a->get_value_cb = get_value_cb;
 220:.\lvgl-release-v8.3/./src/misc/lv_anim.h **** }
 221:.\lvgl-release-v8.3/./src/misc/lv_anim.h **** 
 222:.\lvgl-release-v8.3/./src/misc/lv_anim.h **** /**
 223:.\lvgl-release-v8.3/./src/misc/lv_anim.h ****  * Set a function call when the animation is ready
 224:.\lvgl-release-v8.3/./src/misc/lv_anim.h ****  * @param a         pointer to an initialized `lv_anim_t` variable
 225:.\lvgl-release-v8.3/./src/misc/lv_anim.h ****  * @param ready_cb  a function call when the animation is ready
 226:.\lvgl-release-v8.3/./src/misc/lv_anim.h ****  */
 227:.\lvgl-release-v8.3/./src/misc/lv_anim.h **** static inline void lv_anim_set_ready_cb(lv_anim_t * a, lv_anim_ready_cb_t ready_cb)
 228:.\lvgl-release-v8.3/./src/misc/lv_anim.h **** {
 229:.\lvgl-release-v8.3/./src/misc/lv_anim.h ****     a->ready_cb = ready_cb;
 230:.\lvgl-release-v8.3/./src/misc/lv_anim.h **** }
 231:.\lvgl-release-v8.3/./src/misc/lv_anim.h **** 
 232:.\lvgl-release-v8.3/./src/misc/lv_anim.h **** /**
 233:.\lvgl-release-v8.3/./src/misc/lv_anim.h ****  * Set a function call when the animation is deleted.
 234:.\lvgl-release-v8.3/./src/misc/lv_anim.h ****  * @param a         pointer to an initialized `lv_anim_t` variable
 235:.\lvgl-release-v8.3/./src/misc/lv_anim.h ****  * @param deleted_cb  a function call when the animation is deleted
 236:.\lvgl-release-v8.3/./src/misc/lv_anim.h ****  */
 237:.\lvgl-release-v8.3/./src/misc/lv_anim.h **** static inline void lv_anim_set_deleted_cb(lv_anim_t * a, lv_anim_deleted_cb_t deleted_cb)
 238:.\lvgl-release-v8.3/./src/misc/lv_anim.h **** {
 239:.\lvgl-release-v8.3/./src/misc/lv_anim.h ****     a->deleted_cb = deleted_cb;
 240:.\lvgl-release-v8.3/./src/misc/lv_anim.h **** }
 241:.\lvgl-release-v8.3/./src/misc/lv_anim.h **** 
 242:.\lvgl-release-v8.3/./src/misc/lv_anim.h **** /**
 243:.\lvgl-release-v8.3/./src/misc/lv_anim.h ****  * Make the animation to play back to when the forward direction is ready
 244:.\lvgl-release-v8.3/./src/misc/lv_anim.h ****  * @param a         pointer to an initialized `lv_anim_t` variable
 245:.\lvgl-release-v8.3/./src/misc/lv_anim.h ****  * @param time      the duration of the playback animation in milliseconds. 0: disable playback
 246:.\lvgl-release-v8.3/./src/misc/lv_anim.h ****  */
 247:.\lvgl-release-v8.3/./src/misc/lv_anim.h **** static inline void lv_anim_set_playback_time(lv_anim_t * a, uint32_t time)
 248:.\lvgl-release-v8.3/./src/misc/lv_anim.h **** {
 249:.\lvgl-release-v8.3/./src/misc/lv_anim.h ****     a->playback_time = time;
 250:.\lvgl-release-v8.3/./src/misc/lv_anim.h **** }
 251:.\lvgl-release-v8.3/./src/misc/lv_anim.h **** 
 252:.\lvgl-release-v8.3/./src/misc/lv_anim.h **** /**
 253:.\lvgl-release-v8.3/./src/misc/lv_anim.h ****  * Make the animation to play back to when the forward direction is ready
 254:.\lvgl-release-v8.3/./src/misc/lv_anim.h ****  * @param a         pointer to an initialized `lv_anim_t` variable
 255:.\lvgl-release-v8.3/./src/misc/lv_anim.h ****  * @param delay     delay in milliseconds before starting the playback animation.
 256:.\lvgl-release-v8.3/./src/misc/lv_anim.h ****  */
 257:.\lvgl-release-v8.3/./src/misc/lv_anim.h **** static inline void lv_anim_set_playback_delay(lv_anim_t * a, uint32_t delay)
 258:.\lvgl-release-v8.3/./src/misc/lv_anim.h **** {
 259:.\lvgl-release-v8.3/./src/misc/lv_anim.h ****     a->playback_delay = delay;
 260:.\lvgl-release-v8.3/./src/misc/lv_anim.h **** }
 261:.\lvgl-release-v8.3/./src/misc/lv_anim.h **** 
 262:.\lvgl-release-v8.3/./src/misc/lv_anim.h **** /**
 263:.\lvgl-release-v8.3/./src/misc/lv_anim.h ****  * Make the animation repeat itself.
 264:.\lvgl-release-v8.3/./src/misc/lv_anim.h ****  * @param a         pointer to an initialized `lv_anim_t` variable
 265:.\lvgl-release-v8.3/./src/misc/lv_anim.h ****  * @param cnt       repeat count or `LV_ANIM_REPEAT_INFINITE` for infinite repetition. 0: to disabl
ARM GAS  C:\Users\haske\AppData\Local\Temp\ccBqPlca.s 			page 9


 266:.\lvgl-release-v8.3/./src/misc/lv_anim.h ****  */
 267:.\lvgl-release-v8.3/./src/misc/lv_anim.h **** static inline void lv_anim_set_repeat_count(lv_anim_t * a, uint16_t cnt)
 268:.\lvgl-release-v8.3/./src/misc/lv_anim.h **** {
 269:.\lvgl-release-v8.3/./src/misc/lv_anim.h ****     a->repeat_cnt = cnt;
 270:.\lvgl-release-v8.3/./src/misc/lv_anim.h **** }
 271:.\lvgl-release-v8.3/./src/misc/lv_anim.h **** 
 272:.\lvgl-release-v8.3/./src/misc/lv_anim.h **** /**
 273:.\lvgl-release-v8.3/./src/misc/lv_anim.h ****  * Set a delay before repeating the animation.
 274:.\lvgl-release-v8.3/./src/misc/lv_anim.h ****  * @param a         pointer to an initialized `lv_anim_t` variable
 275:.\lvgl-release-v8.3/./src/misc/lv_anim.h ****  * @param delay     delay in milliseconds before repeating the animation.
 276:.\lvgl-release-v8.3/./src/misc/lv_anim.h ****  */
 277:.\lvgl-release-v8.3/./src/misc/lv_anim.h **** static inline void lv_anim_set_repeat_delay(lv_anim_t * a, uint32_t delay)
 278:.\lvgl-release-v8.3/./src/misc/lv_anim.h **** {
 279:.\lvgl-release-v8.3/./src/misc/lv_anim.h ****     a->repeat_delay = delay;
 280:.\lvgl-release-v8.3/./src/misc/lv_anim.h **** }
 281:.\lvgl-release-v8.3/./src/misc/lv_anim.h **** 
 282:.\lvgl-release-v8.3/./src/misc/lv_anim.h **** /**
 283:.\lvgl-release-v8.3/./src/misc/lv_anim.h ****  * Set a whether the animation's should be applied immediately or only when the delay expired.
 284:.\lvgl-release-v8.3/./src/misc/lv_anim.h ****  * @param a         pointer to an initialized `lv_anim_t` variable
 285:.\lvgl-release-v8.3/./src/misc/lv_anim.h ****  * @param en        true: apply the start value immediately in `lv_anim_start`;
 286:.\lvgl-release-v8.3/./src/misc/lv_anim.h ****  *                  false: apply the start value only when `delay` ms is elapsed and the animations
 287:.\lvgl-release-v8.3/./src/misc/lv_anim.h ****  */
 288:.\lvgl-release-v8.3/./src/misc/lv_anim.h **** static inline void lv_anim_set_early_apply(lv_anim_t * a, bool en)
 289:.\lvgl-release-v8.3/./src/misc/lv_anim.h **** {
 290:.\lvgl-release-v8.3/./src/misc/lv_anim.h ****     a->early_apply = en;
 291:.\lvgl-release-v8.3/./src/misc/lv_anim.h **** }
 292:.\lvgl-release-v8.3/./src/misc/lv_anim.h **** 
 293:.\lvgl-release-v8.3/./src/misc/lv_anim.h **** /**
 294:.\lvgl-release-v8.3/./src/misc/lv_anim.h ****  * Set the custom user data field of the animation.
 295:.\lvgl-release-v8.3/./src/misc/lv_anim.h ****  * @param a           pointer to an initialized `lv_anim_t` variable
 296:.\lvgl-release-v8.3/./src/misc/lv_anim.h ****  * @param user_data   pointer to the new user_data.
 297:.\lvgl-release-v8.3/./src/misc/lv_anim.h ****  */
 298:.\lvgl-release-v8.3/./src/misc/lv_anim.h **** #if LV_USE_USER_DATA
 299:.\lvgl-release-v8.3/./src/misc/lv_anim.h **** static inline void lv_anim_set_user_data(lv_anim_t * a, void * user_data)
 300:.\lvgl-release-v8.3/./src/misc/lv_anim.h **** {
 301:.\lvgl-release-v8.3/./src/misc/lv_anim.h ****     a->user_data = user_data;
  76              		.loc 2 301 0
  77 002a 1794     		str	r4, [sp, #92]
  78              	.LVL7:
  79              	.LBE55:
  80              	.LBE54:
  81              	.LBB56:
  82              	.LBB57:
 187:.\lvgl-release-v8.3/./src/misc/lv_anim.h ****     a->exec_cb = (lv_anim_exec_xcb_t)exec_cb;
  83              		.loc 2 187 0
  84 002c 1196     		str	r6, [sp, #68]
 188:.\lvgl-release-v8.3/./src/misc/lv_anim.h **** }
  85              		.loc 2 188 0
  86 002e 244B     		ldr	r3, .L3
  87 0030 1293     		str	r3, [sp, #72]
  88              	.LVL8:
  89              	.LBE57:
  90              	.LBE56:
  91              	.LBB58:
  92              	.LBB59:
 171:.\lvgl-release-v8.3/./src/misc/lv_anim.h ****     a->current_value = start;
  93              		.loc 2 171 0
ARM GAS  C:\Users\haske\AppData\Local\Temp\ccBqPlca.s 			page 10


  94 0032 6FF01D03 		mvn	r3, #29
  95 0036 1993     		str	r3, [sp, #100]
 172:.\lvgl-release-v8.3/./src/misc/lv_anim.h ****     a->end_value = end;
  96              		.loc 2 172 0
  97 0038 1A93     		str	r3, [sp, #104]
 173:.\lvgl-release-v8.3/./src/misc/lv_anim.h **** }
  98              		.loc 2 173 0
  99 003a 0024     		movs	r4, #0
 100              	.LVL9:
 101 003c 1B94     		str	r4, [sp, #108]
 102              	.LVL10:
 103              	.LBE59:
 104              	.LBE58:
 105              	.LBB60:
 106              	.LBB61:
 198:.\lvgl-release-v8.3/./src/misc/lv_anim.h **** }
 107              		.loc 2 198 0
 108 003e 214B     		ldr	r3, .L3+4
 109 0040 1893     		str	r3, [sp, #96]
 110              	.LVL11:
 111              	.LBE61:
 112              	.LBE60:
 113              	.LBB62:
 114              	.LBB63:
 160:.\lvgl-release-v8.3/./src/misc/lv_anim.h **** }
 115              		.loc 2 160 0
 116 0042 6D42     		negs	r5, r5
 117              	.LVL12:
 118 0044 1D95     		str	r5, [sp, #116]
 119              	.LVL13:
 120              	.LBE63:
 121              	.LBE62:
 122              	.LBB64:
 123              	.LBB65:
 239:.\lvgl-release-v8.3/./src/misc/lv_anim.h **** }
 124              		.loc 2 239 0
 125 0046 204F     		ldr	r7, .L3+8
 126 0048 1597     		str	r7, [sp, #84]
 127              	.LVL14:
 128              	.LBE65:
 129              	.LBE64:
 130              	.LBB66:
 131              	.LBB67:
 249:.\lvgl-release-v8.3/./src/misc/lv_anim.h **** }
 132              		.loc 2 249 0
 133 004a 1F94     		str	r4, [sp, #124]
 134              	.LVL15:
 135              	.LBE67:
 136              	.LBE66:
 137              	.LBB68:
 138              	.LBB69:
 259:.\lvgl-release-v8.3/./src/misc/lv_anim.h **** }
 139              		.loc 2 259 0
 140 004c 1E94     		str	r4, [sp, #120]
 141              	.LVL16:
 142              	.LBE69:
 143              	.LBE68:
ARM GAS  C:\Users\haske\AppData\Local\Temp\ccBqPlca.s 			page 11


 144              	.LBB70:
 145              	.LBB71:
 269:.\lvgl-release-v8.3/./src/misc/lv_anim.h **** }
 146              		.loc 2 269 0
 147 004e ADF88440 		strh	r4, [sp, #132]	@ movhi
 148              	.LVL17:
 149              	.LBE71:
 150              	.LBE70:
 151              	.LBB72:
 152              	.LBB73:
 279:.\lvgl-release-v8.3/./src/misc/lv_anim.h **** }
 153              		.loc 2 279 0
 154 0052 2094     		str	r4, [sp, #128]
 155              	.LVL18:
 156              	.LBE73:
 157              	.LBE72:
 158              	.LBB74:
 159              	.LBB75:
 290:.\lvgl-release-v8.3/./src/misc/lv_anim.h **** }
 160              		.loc 2 290 0
 161 0054 9DF88630 		ldrb	r3, [sp, #134]	@ zero_extendqisi2
 162 0058 64F30003 		bfi	r3, r4, #0, #1
 163 005c 8DF88630 		strb	r3, [sp, #134]
 164              	.LVL19:
 165              	.LBE75:
 166              	.LBE74:
 167              	.LBB76:
 168              	.LBB77:
 219:.\lvgl-release-v8.3/./src/misc/lv_anim.h **** }
 169              		.loc 2 219 0
 170 0060 1A4B     		ldr	r3, .L3+12
 171 0062 1693     		str	r3, [sp, #88]
 172              	.LVL20:
 173              	.LBE77:
 174              	.LBE76:
 117:ui\ui.c       ****     lv_anim_set_time(&PropertyAnimation_0, 200);
 118:ui\ui.c       ****     lv_anim_set_user_data(&PropertyAnimation_0, PropertyAnimation_0_user_data);
 119:ui\ui.c       ****     lv_anim_set_custom_exec_cb(&PropertyAnimation_0, _ui_anim_callback_set_y);
 120:ui\ui.c       ****     lv_anim_set_values(&PropertyAnimation_0, -30, 0);
 121:ui\ui.c       ****     lv_anim_set_path_cb(&PropertyAnimation_0, lv_anim_path_ease_out);
 122:ui\ui.c       ****     lv_anim_set_delay(&PropertyAnimation_0, delay + 0);
 123:ui\ui.c       ****     lv_anim_set_deleted_cb(&PropertyAnimation_0, _ui_anim_callback_free_user_data);
 124:ui\ui.c       ****     lv_anim_set_playback_time(&PropertyAnimation_0, 0);
 125:ui\ui.c       ****     lv_anim_set_playback_delay(&PropertyAnimation_0, 0);
 126:ui\ui.c       ****     lv_anim_set_repeat_count(&PropertyAnimation_0, 0);
 127:ui\ui.c       ****     lv_anim_set_repeat_delay(&PropertyAnimation_0, 0);
 128:ui\ui.c       ****     lv_anim_set_early_apply(&PropertyAnimation_0, false);
 129:ui\ui.c       ****     lv_anim_set_get_value_cb(&PropertyAnimation_0, &_ui_anim_callback_get_y);
 130:ui\ui.c       ****     lv_anim_start(&PropertyAnimation_0);
 175              		.loc 1 130 0
 176 0064 3046     		mov	r0, r6
 177 0066 FFF7FEFF 		bl	lv_anim_start
 178              	.LVL21:
 131:ui\ui.c       ****     ui_anim_user_data_t * PropertyAnimation_1_user_data = lv_mem_alloc(sizeof(ui_anim_user_data_t))
 179              		.loc 1 131 0
 180 006a 1020     		movs	r0, #16
 181 006c FFF7FEFF 		bl	lv_mem_alloc
ARM GAS  C:\Users\haske\AppData\Local\Temp\ccBqPlca.s 			page 12


 182              	.LVL22:
 183 0070 0646     		mov	r6, r0
 184              	.LVL23:
 132:ui\ui.c       ****     PropertyAnimation_1_user_data->target = TargetObject;
 185              		.loc 1 132 0
 186 0072 C0F80090 		str	r9, [r0]
 133:ui\ui.c       ****     PropertyAnimation_1_user_data->val = -1;
 187              		.loc 1 133 0
 188 0076 C0F80C80 		str	r8, [r0, #12]
 134:ui\ui.c       ****     lv_anim_t PropertyAnimation_1;
 135:ui\ui.c       ****     lv_anim_init(&PropertyAnimation_1);
 189              		.loc 1 135 0
 190 007a 6846     		mov	r0, sp
 191              	.LVL24:
 192 007c FFF7FEFF 		bl	lv_anim_init
 193              	.LVL25:
 194              	.LBB78:
 195              	.LBB79:
 150:.\lvgl-release-v8.3/./src/misc/lv_anim.h **** }
 196              		.loc 2 150 0
 197 0080 6423     		movs	r3, #100
 198 0082 0B93     		str	r3, [sp, #44]
 199              	.LVL26:
 200              	.LBE79:
 201              	.LBE78:
 202              	.LBB80:
 203              	.LBB81:
 204              		.loc 2 301 0
 205 0084 0696     		str	r6, [sp, #24]
 206              	.LVL27:
 207              	.LBE81:
 208              	.LBE80:
 209              	.LBB82:
 210              	.LBB83:
 187:.\lvgl-release-v8.3/./src/misc/lv_anim.h ****     a->exec_cb = (lv_anim_exec_xcb_t)exec_cb;
 211              		.loc 2 187 0
 212 0086 CDF800D0 		str	sp, [sp]
 188:.\lvgl-release-v8.3/./src/misc/lv_anim.h **** }
 213              		.loc 2 188 0
 214 008a 114B     		ldr	r3, .L3+16
 215 008c 0193     		str	r3, [sp, #4]
 216              	.LVL28:
 217              	.LBE83:
 218              	.LBE82:
 219              	.LBB84:
 220              	.LBB85:
 171:.\lvgl-release-v8.3/./src/misc/lv_anim.h ****     a->current_value = start;
 221              		.loc 2 171 0
 222 008e 0894     		str	r4, [sp, #32]
 172:.\lvgl-release-v8.3/./src/misc/lv_anim.h ****     a->end_value = end;
 223              		.loc 2 172 0
 224 0090 0994     		str	r4, [sp, #36]
 173:.\lvgl-release-v8.3/./src/misc/lv_anim.h **** }
 225              		.loc 2 173 0
 226 0092 FF23     		movs	r3, #255
 227 0094 0A93     		str	r3, [sp, #40]
 228              	.LVL29:
ARM GAS  C:\Users\haske\AppData\Local\Temp\ccBqPlca.s 			page 13


 229              	.LBE85:
 230              	.LBE84:
 231              	.LBB86:
 232              	.LBB87:
 198:.\lvgl-release-v8.3/./src/misc/lv_anim.h **** }
 233              		.loc 2 198 0
 234 0096 0F4B     		ldr	r3, .L3+20
 235 0098 0793     		str	r3, [sp, #28]
 236              	.LVL30:
 237              	.LBE87:
 238              	.LBE86:
 239              	.LBB88:
 240              	.LBB89:
 160:.\lvgl-release-v8.3/./src/misc/lv_anim.h **** }
 241              		.loc 2 160 0
 242 009a 0C95     		str	r5, [sp, #48]
 243              	.LVL31:
 244              	.LBE89:
 245              	.LBE88:
 246              	.LBB90:
 247              	.LBB91:
 239:.\lvgl-release-v8.3/./src/misc/lv_anim.h **** }
 248              		.loc 2 239 0
 249 009c 0497     		str	r7, [sp, #16]
 250              	.LVL32:
 251              	.LBE91:
 252              	.LBE90:
 253              	.LBB92:
 254              	.LBB93:
 249:.\lvgl-release-v8.3/./src/misc/lv_anim.h **** }
 255              		.loc 2 249 0
 256 009e 0E94     		str	r4, [sp, #56]
 257              	.LVL33:
 258              	.LBE93:
 259              	.LBE92:
 260              	.LBB94:
 261              	.LBB95:
 259:.\lvgl-release-v8.3/./src/misc/lv_anim.h **** }
 262              		.loc 2 259 0
 263 00a0 0D94     		str	r4, [sp, #52]
 264              	.LVL34:
 265              	.LBE95:
 266              	.LBE94:
 267              	.LBB96:
 268              	.LBB97:
 269:.\lvgl-release-v8.3/./src/misc/lv_anim.h **** }
 269              		.loc 2 269 0
 270 00a2 ADF84040 		strh	r4, [sp, #64]	@ movhi
 271              	.LVL35:
 272              	.LBE97:
 273              	.LBE96:
 274              	.LBB98:
 275              	.LBB99:
 279:.\lvgl-release-v8.3/./src/misc/lv_anim.h **** }
 276              		.loc 2 279 0
 277 00a6 0F94     		str	r4, [sp, #60]
 278              	.LVL36:
ARM GAS  C:\Users\haske\AppData\Local\Temp\ccBqPlca.s 			page 14


 279              	.LBE99:
 280              	.LBE98:
 281              	.LBB100:
 282              	.LBB101:
 290:.\lvgl-release-v8.3/./src/misc/lv_anim.h **** }
 283              		.loc 2 290 0
 284 00a8 9DF84230 		ldrb	r3, [sp, #66]	@ zero_extendqisi2
 285 00ac 43F00103 		orr	r3, r3, #1
 286 00b0 8DF84230 		strb	r3, [sp, #66]
 287              	.LVL37:
 288              	.LBE101:
 289              	.LBE100:
 136:ui\ui.c       ****     lv_anim_set_time(&PropertyAnimation_1, 100);
 137:ui\ui.c       ****     lv_anim_set_user_data(&PropertyAnimation_1, PropertyAnimation_1_user_data);
 138:ui\ui.c       ****     lv_anim_set_custom_exec_cb(&PropertyAnimation_1, _ui_anim_callback_set_opacity);
 139:ui\ui.c       ****     lv_anim_set_values(&PropertyAnimation_1, 0, 255);
 140:ui\ui.c       ****     lv_anim_set_path_cb(&PropertyAnimation_1, lv_anim_path_linear);
 141:ui\ui.c       ****     lv_anim_set_delay(&PropertyAnimation_1, delay + 0);
 142:ui\ui.c       ****     lv_anim_set_deleted_cb(&PropertyAnimation_1, _ui_anim_callback_free_user_data);
 143:ui\ui.c       ****     lv_anim_set_playback_time(&PropertyAnimation_1, 0);
 144:ui\ui.c       ****     lv_anim_set_playback_delay(&PropertyAnimation_1, 0);
 145:ui\ui.c       ****     lv_anim_set_repeat_count(&PropertyAnimation_1, 0);
 146:ui\ui.c       ****     lv_anim_set_repeat_delay(&PropertyAnimation_1, 0);
 147:ui\ui.c       ****     lv_anim_set_early_apply(&PropertyAnimation_1, true);
 148:ui\ui.c       ****     lv_anim_start(&PropertyAnimation_1);
 290              		.loc 1 148 0
 291 00b4 6846     		mov	r0, sp
 292 00b6 FFF7FEFF 		bl	lv_anim_start
 293              	.LVL38:
 149:ui\ui.c       **** 
 150:ui\ui.c       **** }
 294              		.loc 1 150 0
 295 00ba 23B0     		add	sp, sp, #140
 296              		.cfi_def_cfa_offset 28
 297              		@ sp needed
 298 00bc BDE8F083 		pop	{r4, r5, r6, r7, r8, r9, pc}
 299              	.LVL39:
 300              	.L4:
 301              		.align	2
 302              	.L3:
 303 00c0 00000000 		.word	_ui_anim_callback_set_y
 304 00c4 00000000 		.word	lv_anim_path_ease_out
 305 00c8 00000000 		.word	_ui_anim_callback_free_user_data
 306 00cc 00000000 		.word	_ui_anim_callback_get_y
 307 00d0 00000000 		.word	_ui_anim_callback_set_opacity
 308 00d4 00000000 		.word	lv_anim_path_linear
 309              		.cfi_endproc
 310              	.LFE202:
 311              		.size	up_Animation, .-up_Animation
 312              		.section	.text.ui_event____initial_actions0,"ax",%progbits
 313              		.align	2
 314              		.global	ui_event____initial_actions0
 315              		.thumb
 316              		.thumb_func
 317              		.type	ui_event____initial_actions0, %function
 318              	ui_event____initial_actions0:
 319              	.LFB210:
ARM GAS  C:\Users\haske\AppData\Local\Temp\ccBqPlca.s 			page 15


 151:ui\ui.c       **** 
 152:ui\ui.c       **** ///////////////////// FUNCTIONS ////////////////////
 153:ui\ui.c       **** void ui_event_Splash_screen(lv_event_t * e)
 154:ui\ui.c       **** {
 155:ui\ui.c       ****     lv_event_code_t event_code = lv_event_get_code(e);
 156:ui\ui.c       ****     lv_obj_t * target = lv_event_get_target(e);
 157:ui\ui.c       ****     if(event_code == LV_EVENT_SCREEN_LOADED) {
 158:ui\ui.c       ****         _ui_screen_change(&ui_TENS_screen, LV_SCR_LOAD_ANIM_FADE_ON, 200, 2000, &ui_TENS_screen_scr
 159:ui\ui.c       ****     }
 160:ui\ui.c       **** }
 161:ui\ui.c       **** void ui_event_TENS_screen(lv_event_t * e)
 162:ui\ui.c       **** {
 163:ui\ui.c       ****     lv_event_code_t event_code = lv_event_get_code(e);
 164:ui\ui.c       ****     lv_obj_t * target = lv_event_get_target(e);
 165:ui\ui.c       ****     if(event_code == LV_EVENT_GESTURE &&  lv_indev_get_gesture_dir(lv_indev_get_act()) == LV_DIR_LE
 166:ui\ui.c       ****         lv_indev_wait_release(lv_indev_get_act());
 167:ui\ui.c       ****         _ui_screen_change(&ui_Temperature_screen, LV_SCR_LOAD_ANIM_FADE_ON, 500, 0, &ui_Temperature
 168:ui\ui.c       ****     }
 169:ui\ui.c       ****     if(event_code == LV_EVENT_GESTURE &&  lv_indev_get_gesture_dir(lv_indev_get_act()) == LV_DIR_RI
 170:ui\ui.c       ****         lv_indev_wait_release(lv_indev_get_act());
 171:ui\ui.c       ****         _ui_screen_change(&ui_Vibration_screen, LV_SCR_LOAD_ANIM_FADE_ON, 500, 0, &ui_Vibration_scr
 172:ui\ui.c       ****     }
 173:ui\ui.c       **** }
 174:ui\ui.c       **** void ui_event_Temperature_screen(lv_event_t * e)
 175:ui\ui.c       **** {
 176:ui\ui.c       ****     lv_event_code_t event_code = lv_event_get_code(e);
 177:ui\ui.c       ****     lv_obj_t * target = lv_event_get_target(e);
 178:ui\ui.c       ****     if(event_code == LV_EVENT_GESTURE &&  lv_indev_get_gesture_dir(lv_indev_get_act()) == LV_DIR_RI
 179:ui\ui.c       ****         lv_indev_wait_release(lv_indev_get_act());
 180:ui\ui.c       ****         _ui_screen_change(&ui_TENS_screen, LV_SCR_LOAD_ANIM_FADE_ON, 500, 0, &ui_TENS_screen_screen
 181:ui\ui.c       ****     }
 182:ui\ui.c       ****     if(event_code == LV_EVENT_GESTURE &&  lv_indev_get_gesture_dir(lv_indev_get_act()) == LV_DIR_LE
 183:ui\ui.c       ****         lv_indev_wait_release(lv_indev_get_act());
 184:ui\ui.c       ****         _ui_screen_change(&ui_Vibration_screen, LV_SCR_LOAD_ANIM_FADE_ON, 500, 0, &ui_Vibration_scr
 185:ui\ui.c       ****     }
 186:ui\ui.c       **** }
 187:ui\ui.c       **** void ui_event_Vibration_screen(lv_event_t * e)
 188:ui\ui.c       **** {
 189:ui\ui.c       ****     lv_event_code_t event_code = lv_event_get_code(e);
 190:ui\ui.c       ****     lv_obj_t * target = lv_event_get_target(e);
 191:ui\ui.c       ****     if(event_code == LV_EVENT_GESTURE &&  lv_indev_get_gesture_dir(lv_indev_get_act()) == LV_DIR_RI
 192:ui\ui.c       ****         lv_indev_wait_release(lv_indev_get_act());
 193:ui\ui.c       ****         _ui_screen_change(&ui_Temperature_screen, LV_SCR_LOAD_ANIM_FADE_ON, 500, 0, &ui_Temperature
 194:ui\ui.c       ****     }
 195:ui\ui.c       ****     if(event_code == LV_EVENT_GESTURE &&  lv_indev_get_gesture_dir(lv_indev_get_act()) == LV_DIR_LE
 196:ui\ui.c       ****         lv_indev_wait_release(lv_indev_get_act());
 197:ui\ui.c       ****         _ui_screen_change(&ui_Presets_screen, LV_SCR_LOAD_ANIM_FADE_ON, 500, 0, &ui_Presets_screen_
 198:ui\ui.c       ****     }
 199:ui\ui.c       **** }
 200:ui\ui.c       **** void ui_event_Presets_screen(lv_event_t * e)
 201:ui\ui.c       **** {
 202:ui\ui.c       ****     lv_event_code_t event_code = lv_event_get_code(e);
 203:ui\ui.c       ****     lv_obj_t * target = lv_event_get_target(e);
 204:ui\ui.c       ****     if(event_code == LV_EVENT_GESTURE &&  lv_indev_get_gesture_dir(lv_indev_get_act()) == LV_DIR_RI
 205:ui\ui.c       ****         lv_indev_wait_release(lv_indev_get_act());
 206:ui\ui.c       ****         _ui_screen_change(&ui_Vibration_screen, LV_SCR_LOAD_ANIM_FADE_ON, 500, 0, &ui_Vibration_scr
 207:ui\ui.c       ****     }
ARM GAS  C:\Users\haske\AppData\Local\Temp\ccBqPlca.s 			page 16


 208:ui\ui.c       ****     if(event_code == LV_EVENT_GESTURE &&  lv_indev_get_gesture_dir(lv_indev_get_act()) == LV_DIR_LE
 209:ui\ui.c       ****         lv_indev_wait_release(lv_indev_get_act());
 210:ui\ui.c       ****         _ui_screen_change(&ui_Brigtness_screen, LV_SCR_LOAD_ANIM_FADE_ON, 500, 0, &ui_Brigtness_scr
 211:ui\ui.c       ****     }
 212:ui\ui.c       **** }
 213:ui\ui.c       **** void ui_event_Save_setting_button(lv_event_t * e)
 214:ui\ui.c       **** {
 215:ui\ui.c       ****     lv_event_code_t event_code = lv_event_get_code(e);
 216:ui\ui.c       ****     lv_obj_t * target = lv_event_get_target(e);
 217:ui\ui.c       ****     if(event_code == LV_EVENT_CLICKED) {
 218:ui\ui.c       ****         _ui_flag_modify(ui_Keyboard, LV_OBJ_FLAG_HIDDEN, _UI_MODIFY_FLAG_REMOVE);
 219:ui\ui.c       ****     }
 220:ui\ui.c       ****     if(event_code == LV_EVENT_CLICKED) {
 221:ui\ui.c       ****         _ui_flag_modify(ui_TextArea, LV_OBJ_FLAG_HIDDEN, _UI_MODIFY_FLAG_REMOVE);
 222:ui\ui.c       ****     }
 223:ui\ui.c       **** }
 224:ui\ui.c       **** void ui_event_Brigtness_screen(lv_event_t * e)
 225:ui\ui.c       **** {
 226:ui\ui.c       ****     lv_event_code_t event_code = lv_event_get_code(e);
 227:ui\ui.c       ****     lv_obj_t * target = lv_event_get_target(e);
 228:ui\ui.c       ****     if(event_code == LV_EVENT_GESTURE &&  lv_indev_get_gesture_dir(lv_indev_get_act()) == LV_DIR_LE
 229:ui\ui.c       ****         lv_indev_wait_release(lv_indev_get_act());
 230:ui\ui.c       ****         _ui_screen_change(&ui_TENS_screen, LV_SCR_LOAD_ANIM_FADE_ON, 500, 0, &ui_TENS_screen_screen
 231:ui\ui.c       ****     }
 232:ui\ui.c       ****     if(event_code == LV_EVENT_GESTURE &&  lv_indev_get_gesture_dir(lv_indev_get_act()) == LV_DIR_RI
 233:ui\ui.c       ****         lv_indev_wait_release(lv_indev_get_act());
 234:ui\ui.c       ****         _ui_screen_change(&ui_Presets_screen, LV_SCR_LOAD_ANIM_FADE_ON, 500, 0, &ui_Presets_screen_
 235:ui\ui.c       ****     }
 236:ui\ui.c       **** }
 237:ui\ui.c       **** void ui_event____initial_actions0(lv_event_t * e)
 238:ui\ui.c       **** {
 320              		.loc 1 238 0
 321              		.cfi_startproc
 322              		@ args = 0, pretend = 0, frame = 0
 323              		@ frame_needed = 0, uses_anonymous_args = 0
 324              	.LVL40:
 325 0000 38B5     		push	{r3, r4, r5, lr}
 326              		.cfi_def_cfa_offset 16
 327              		.cfi_offset 3, -16
 328              		.cfi_offset 4, -12
 329              		.cfi_offset 5, -8
 330              		.cfi_offset 14, -4
 331 0002 0546     		mov	r5, r0
 239:ui\ui.c       ****     lv_event_code_t event_code = lv_event_get_code(e);
 332              		.loc 1 239 0
 333 0004 FFF7FEFF 		bl	lv_event_get_code
 334              	.LVL41:
 335 0008 0446     		mov	r4, r0
 336              	.LVL42:
 240:ui\ui.c       ****     lv_obj_t * target = lv_event_get_target(e);
 337              		.loc 1 240 0
 338 000a 2846     		mov	r0, r5
 339 000c FFF7FEFF 		bl	lv_event_get_target
 340              	.LVL43:
 241:ui\ui.c       ****     if(event_code == LV_EVENT_SCREEN_LOAD_START) {
 341              		.loc 1 241 0
 342 0010 262C     		cmp	r4, #38
ARM GAS  C:\Users\haske\AppData\Local\Temp\ccBqPlca.s 			page 17


 343 0012 0BD1     		bne	.L5
 242:ui\ui.c       ****         up_Animation(ui_pain_drain_logo, 500);
 344              		.loc 1 242 0
 345 0014 4FF4FA71 		mov	r1, #500
 346 0018 054B     		ldr	r3, .L8
 347 001a 1868     		ldr	r0, [r3]
 348 001c FFF7FEFF 		bl	up_Animation
 349              	.LVL44:
 243:ui\ui.c       ****         up_Animation(ui_logo_label, 500);
 350              		.loc 1 243 0
 351 0020 4FF4FA71 		mov	r1, #500
 352 0024 034B     		ldr	r3, .L8+4
 353 0026 1868     		ldr	r0, [r3]
 354 0028 FFF7FEFF 		bl	up_Animation
 355              	.LVL45:
 356              	.L5:
 357 002c 38BD     		pop	{r3, r4, r5, pc}
 358              	.LVL46:
 359              	.L9:
 360 002e 00BF     		.align	2
 361              	.L8:
 362 0030 00000000 		.word	ui_pain_drain_logo
 363 0034 00000000 		.word	ui_logo_label
 364              		.cfi_endproc
 365              	.LFE210:
 366              		.size	ui_event____initial_actions0, .-ui_event____initial_actions0
 367              		.section	.text.ui_event_Splash_screen,"ax",%progbits
 368              		.align	2
 369              		.global	ui_event_Splash_screen
 370              		.thumb
 371              		.thumb_func
 372              		.type	ui_event_Splash_screen, %function
 373              	ui_event_Splash_screen:
 374              	.LFB203:
 154:ui\ui.c       ****     lv_event_code_t event_code = lv_event_get_code(e);
 375              		.loc 1 154 0
 376              		.cfi_startproc
 377              		@ args = 0, pretend = 0, frame = 0
 378              		@ frame_needed = 0, uses_anonymous_args = 0
 379              	.LVL47:
 380 0000 30B5     		push	{r4, r5, lr}
 381              		.cfi_def_cfa_offset 12
 382              		.cfi_offset 4, -12
 383              		.cfi_offset 5, -8
 384              		.cfi_offset 14, -4
 385 0002 83B0     		sub	sp, sp, #12
 386              		.cfi_def_cfa_offset 24
 387 0004 0546     		mov	r5, r0
 155:ui\ui.c       ****     lv_obj_t * target = lv_event_get_target(e);
 388              		.loc 1 155 0
 389 0006 FFF7FEFF 		bl	lv_event_get_code
 390              	.LVL48:
 391 000a 0446     		mov	r4, r0
 392              	.LVL49:
 156:ui\ui.c       ****     if(event_code == LV_EVENT_SCREEN_LOADED) {
 393              		.loc 1 156 0
 394 000c 2846     		mov	r0, r5
ARM GAS  C:\Users\haske\AppData\Local\Temp\ccBqPlca.s 			page 18


 395 000e FFF7FEFF 		bl	lv_event_get_target
 396              	.LVL50:
 157:ui\ui.c       ****         _ui_screen_change(&ui_TENS_screen, LV_SCR_LOAD_ANIM_FADE_ON, 200, 2000, &ui_TENS_screen_scr
 397              		.loc 1 157 0
 398 0012 272C     		cmp	r4, #39
 399 0014 08D1     		bne	.L10
 158:ui\ui.c       ****     }
 400              		.loc 1 158 0
 401 0016 054B     		ldr	r3, .L13
 402 0018 0093     		str	r3, [sp]
 403 001a 4FF4FA63 		mov	r3, #2000
 404 001e C822     		movs	r2, #200
 405 0020 0921     		movs	r1, #9
 406 0022 0348     		ldr	r0, .L13+4
 407 0024 FFF7FEFF 		bl	_ui_screen_change
 408              	.LVL51:
 409              	.L10:
 160:ui\ui.c       **** void ui_event_TENS_screen(lv_event_t * e)
 410              		.loc 1 160 0
 411 0028 03B0     		add	sp, sp, #12
 412              		.cfi_def_cfa_offset 12
 413              		@ sp needed
 414 002a 30BD     		pop	{r4, r5, pc}
 415              	.LVL52:
 416              	.L14:
 417              		.align	2
 418              	.L13:
 419 002c 00000000 		.word	ui_TENS_screen_screen_init
 420 0030 00000000 		.word	ui_TENS_screen
 421              		.cfi_endproc
 422              	.LFE203:
 423              		.size	ui_event_Splash_screen, .-ui_event_Splash_screen
 424              		.section	.text.ui_event_TENS_screen,"ax",%progbits
 425              		.align	2
 426              		.global	ui_event_TENS_screen
 427              		.thumb
 428              		.thumb_func
 429              		.type	ui_event_TENS_screen, %function
 430              	ui_event_TENS_screen:
 431              	.LFB204:
 162:ui\ui.c       ****     lv_event_code_t event_code = lv_event_get_code(e);
 432              		.loc 1 162 0
 433              		.cfi_startproc
 434              		@ args = 0, pretend = 0, frame = 0
 435              		@ frame_needed = 0, uses_anonymous_args = 0
 436              	.LVL53:
 437 0000 30B5     		push	{r4, r5, lr}
 438              		.cfi_def_cfa_offset 12
 439              		.cfi_offset 4, -12
 440              		.cfi_offset 5, -8
 441              		.cfi_offset 14, -4
 442 0002 83B0     		sub	sp, sp, #12
 443              		.cfi_def_cfa_offset 24
 444 0004 0546     		mov	r5, r0
 163:ui\ui.c       ****     lv_obj_t * target = lv_event_get_target(e);
 445              		.loc 1 163 0
 446 0006 FFF7FEFF 		bl	lv_event_get_code
ARM GAS  C:\Users\haske\AppData\Local\Temp\ccBqPlca.s 			page 19


 447              	.LVL54:
 448 000a 0446     		mov	r4, r0
 449              	.LVL55:
 164:ui\ui.c       ****     if(event_code == LV_EVENT_GESTURE &&  lv_indev_get_gesture_dir(lv_indev_get_act()) == LV_DIR_LE
 450              		.loc 1 164 0
 451 000c 2846     		mov	r0, r5
 452 000e FFF7FEFF 		bl	lv_event_get_target
 453              	.LVL56:
 165:ui\ui.c       ****         lv_indev_wait_release(lv_indev_get_act());
 454              		.loc 1 165 0
 455 0012 0C2C     		cmp	r4, #12
 456 0014 12D1     		bne	.L16
 165:ui\ui.c       ****         lv_indev_wait_release(lv_indev_get_act());
 457              		.loc 1 165 0 is_stmt 0 discriminator 1
 458 0016 FFF7FEFF 		bl	lv_indev_get_act
 459              	.LVL57:
 460 001a FFF7FEFF 		bl	lv_indev_get_gesture_dir
 461              	.LVL58:
 462 001e 0128     		cmp	r0, #1
 463 0020 0CD1     		bne	.L16
 166:ui\ui.c       ****         _ui_screen_change(&ui_Temperature_screen, LV_SCR_LOAD_ANIM_FADE_ON, 500, 0, &ui_Temperature
 464              		.loc 1 166 0 is_stmt 1
 465 0022 FFF7FEFF 		bl	lv_indev_get_act
 466              	.LVL59:
 467 0026 FFF7FEFF 		bl	lv_indev_wait_release
 468              	.LVL60:
 167:ui\ui.c       ****     }
 469              		.loc 1 167 0
 470 002a 104B     		ldr	r3, .L19
 471 002c 0093     		str	r3, [sp]
 472 002e 0023     		movs	r3, #0
 473 0030 4FF4FA72 		mov	r2, #500
 474 0034 0921     		movs	r1, #9
 475 0036 0E48     		ldr	r0, .L19+4
 476 0038 FFF7FEFF 		bl	_ui_screen_change
 477              	.LVL61:
 478              	.L16:
 169:ui\ui.c       ****         lv_indev_wait_release(lv_indev_get_act());
 479              		.loc 1 169 0
 480 003c 0C2C     		cmp	r4, #12
 481 003e 12D1     		bne	.L15
 169:ui\ui.c       ****         lv_indev_wait_release(lv_indev_get_act());
 482              		.loc 1 169 0 is_stmt 0 discriminator 1
 483 0040 FFF7FEFF 		bl	lv_indev_get_act
 484              	.LVL62:
 485 0044 FFF7FEFF 		bl	lv_indev_get_gesture_dir
 486              	.LVL63:
 487 0048 0228     		cmp	r0, #2
 488 004a 0CD1     		bne	.L15
 170:ui\ui.c       ****         _ui_screen_change(&ui_Vibration_screen, LV_SCR_LOAD_ANIM_FADE_ON, 500, 0, &ui_Vibration_scr
 489              		.loc 1 170 0 is_stmt 1
 490 004c FFF7FEFF 		bl	lv_indev_get_act
 491              	.LVL64:
 492 0050 FFF7FEFF 		bl	lv_indev_wait_release
 493              	.LVL65:
 171:ui\ui.c       ****     }
 494              		.loc 1 171 0
ARM GAS  C:\Users\haske\AppData\Local\Temp\ccBqPlca.s 			page 20


 495 0054 074B     		ldr	r3, .L19+8
 496 0056 0093     		str	r3, [sp]
 497 0058 0023     		movs	r3, #0
 498 005a 4FF4FA72 		mov	r2, #500
 499 005e 0921     		movs	r1, #9
 500 0060 0548     		ldr	r0, .L19+12
 501 0062 FFF7FEFF 		bl	_ui_screen_change
 502              	.LVL66:
 503              	.L15:
 173:ui\ui.c       **** void ui_event_Temperature_screen(lv_event_t * e)
 504              		.loc 1 173 0
 505 0066 03B0     		add	sp, sp, #12
 506              		.cfi_def_cfa_offset 12
 507              		@ sp needed
 508 0068 30BD     		pop	{r4, r5, pc}
 509              	.LVL67:
 510              	.L20:
 511 006a 00BF     		.align	2
 512              	.L19:
 513 006c 00000000 		.word	ui_Temperature_screen_screen_init
 514 0070 00000000 		.word	ui_Temperature_screen
 515 0074 00000000 		.word	ui_Vibration_screen_screen_init
 516 0078 00000000 		.word	ui_Vibration_screen
 517              		.cfi_endproc
 518              	.LFE204:
 519              		.size	ui_event_TENS_screen, .-ui_event_TENS_screen
 520              		.section	.text.ui_event_Temperature_screen,"ax",%progbits
 521              		.align	2
 522              		.global	ui_event_Temperature_screen
 523              		.thumb
 524              		.thumb_func
 525              		.type	ui_event_Temperature_screen, %function
 526              	ui_event_Temperature_screen:
 527              	.LFB205:
 175:ui\ui.c       ****     lv_event_code_t event_code = lv_event_get_code(e);
 528              		.loc 1 175 0
 529              		.cfi_startproc
 530              		@ args = 0, pretend = 0, frame = 0
 531              		@ frame_needed = 0, uses_anonymous_args = 0
 532              	.LVL68:
 533 0000 30B5     		push	{r4, r5, lr}
 534              		.cfi_def_cfa_offset 12
 535              		.cfi_offset 4, -12
 536              		.cfi_offset 5, -8
 537              		.cfi_offset 14, -4
 538 0002 83B0     		sub	sp, sp, #12
 539              		.cfi_def_cfa_offset 24
 540 0004 0546     		mov	r5, r0
 176:ui\ui.c       ****     lv_obj_t * target = lv_event_get_target(e);
 541              		.loc 1 176 0
 542 0006 FFF7FEFF 		bl	lv_event_get_code
 543              	.LVL69:
 544 000a 0446     		mov	r4, r0
 545              	.LVL70:
 177:ui\ui.c       ****     if(event_code == LV_EVENT_GESTURE &&  lv_indev_get_gesture_dir(lv_indev_get_act()) == LV_DIR_RI
 546              		.loc 1 177 0
 547 000c 2846     		mov	r0, r5
ARM GAS  C:\Users\haske\AppData\Local\Temp\ccBqPlca.s 			page 21


 548 000e FFF7FEFF 		bl	lv_event_get_target
 549              	.LVL71:
 178:ui\ui.c       ****         lv_indev_wait_release(lv_indev_get_act());
 550              		.loc 1 178 0
 551 0012 0C2C     		cmp	r4, #12
 552 0014 12D1     		bne	.L22
 178:ui\ui.c       ****         lv_indev_wait_release(lv_indev_get_act());
 553              		.loc 1 178 0 is_stmt 0 discriminator 1
 554 0016 FFF7FEFF 		bl	lv_indev_get_act
 555              	.LVL72:
 556 001a FFF7FEFF 		bl	lv_indev_get_gesture_dir
 557              	.LVL73:
 558 001e 0228     		cmp	r0, #2
 559 0020 0CD1     		bne	.L22
 179:ui\ui.c       ****         _ui_screen_change(&ui_TENS_screen, LV_SCR_LOAD_ANIM_FADE_ON, 500, 0, &ui_TENS_screen_screen
 560              		.loc 1 179 0 is_stmt 1
 561 0022 FFF7FEFF 		bl	lv_indev_get_act
 562              	.LVL74:
 563 0026 FFF7FEFF 		bl	lv_indev_wait_release
 564              	.LVL75:
 180:ui\ui.c       ****     }
 565              		.loc 1 180 0
 566 002a 104B     		ldr	r3, .L25
 567 002c 0093     		str	r3, [sp]
 568 002e 0023     		movs	r3, #0
 569 0030 4FF4FA72 		mov	r2, #500
 570 0034 0921     		movs	r1, #9
 571 0036 0E48     		ldr	r0, .L25+4
 572 0038 FFF7FEFF 		bl	_ui_screen_change
 573              	.LVL76:
 574              	.L22:
 182:ui\ui.c       ****         lv_indev_wait_release(lv_indev_get_act());
 575              		.loc 1 182 0
 576 003c 0C2C     		cmp	r4, #12
 577 003e 12D1     		bne	.L21
 182:ui\ui.c       ****         lv_indev_wait_release(lv_indev_get_act());
 578              		.loc 1 182 0 is_stmt 0 discriminator 1
 579 0040 FFF7FEFF 		bl	lv_indev_get_act
 580              	.LVL77:
 581 0044 FFF7FEFF 		bl	lv_indev_get_gesture_dir
 582              	.LVL78:
 583 0048 0128     		cmp	r0, #1
 584 004a 0CD1     		bne	.L21
 183:ui\ui.c       ****         _ui_screen_change(&ui_Vibration_screen, LV_SCR_LOAD_ANIM_FADE_ON, 500, 0, &ui_Vibration_scr
 585              		.loc 1 183 0 is_stmt 1
 586 004c FFF7FEFF 		bl	lv_indev_get_act
 587              	.LVL79:
 588 0050 FFF7FEFF 		bl	lv_indev_wait_release
 589              	.LVL80:
 184:ui\ui.c       ****     }
 590              		.loc 1 184 0
 591 0054 074B     		ldr	r3, .L25+8
 592 0056 0093     		str	r3, [sp]
 593 0058 0023     		movs	r3, #0
 594 005a 4FF4FA72 		mov	r2, #500
 595 005e 0921     		movs	r1, #9
 596 0060 0548     		ldr	r0, .L25+12
ARM GAS  C:\Users\haske\AppData\Local\Temp\ccBqPlca.s 			page 22


 597 0062 FFF7FEFF 		bl	_ui_screen_change
 598              	.LVL81:
 599              	.L21:
 186:ui\ui.c       **** void ui_event_Vibration_screen(lv_event_t * e)
 600              		.loc 1 186 0
 601 0066 03B0     		add	sp, sp, #12
 602              		.cfi_def_cfa_offset 12
 603              		@ sp needed
 604 0068 30BD     		pop	{r4, r5, pc}
 605              	.LVL82:
 606              	.L26:
 607 006a 00BF     		.align	2
 608              	.L25:
 609 006c 00000000 		.word	ui_TENS_screen_screen_init
 610 0070 00000000 		.word	ui_TENS_screen
 611 0074 00000000 		.word	ui_Vibration_screen_screen_init
 612 0078 00000000 		.word	ui_Vibration_screen
 613              		.cfi_endproc
 614              	.LFE205:
 615              		.size	ui_event_Temperature_screen, .-ui_event_Temperature_screen
 616              		.section	.text.ui_event_Vibration_screen,"ax",%progbits
 617              		.align	2
 618              		.global	ui_event_Vibration_screen
 619              		.thumb
 620              		.thumb_func
 621              		.type	ui_event_Vibration_screen, %function
 622              	ui_event_Vibration_screen:
 623              	.LFB206:
 188:ui\ui.c       ****     lv_event_code_t event_code = lv_event_get_code(e);
 624              		.loc 1 188 0
 625              		.cfi_startproc
 626              		@ args = 0, pretend = 0, frame = 0
 627              		@ frame_needed = 0, uses_anonymous_args = 0
 628              	.LVL83:
 629 0000 30B5     		push	{r4, r5, lr}
 630              		.cfi_def_cfa_offset 12
 631              		.cfi_offset 4, -12
 632              		.cfi_offset 5, -8
 633              		.cfi_offset 14, -4
 634 0002 83B0     		sub	sp, sp, #12
 635              		.cfi_def_cfa_offset 24
 636 0004 0546     		mov	r5, r0
 189:ui\ui.c       ****     lv_obj_t * target = lv_event_get_target(e);
 637              		.loc 1 189 0
 638 0006 FFF7FEFF 		bl	lv_event_get_code
 639              	.LVL84:
 640 000a 0446     		mov	r4, r0
 641              	.LVL85:
 190:ui\ui.c       ****     if(event_code == LV_EVENT_GESTURE &&  lv_indev_get_gesture_dir(lv_indev_get_act()) == LV_DIR_RI
 642              		.loc 1 190 0
 643 000c 2846     		mov	r0, r5
 644 000e FFF7FEFF 		bl	lv_event_get_target
 645              	.LVL86:
 191:ui\ui.c       ****         lv_indev_wait_release(lv_indev_get_act());
 646              		.loc 1 191 0
 647 0012 0C2C     		cmp	r4, #12
 648 0014 12D1     		bne	.L28
ARM GAS  C:\Users\haske\AppData\Local\Temp\ccBqPlca.s 			page 23


 191:ui\ui.c       ****         lv_indev_wait_release(lv_indev_get_act());
 649              		.loc 1 191 0 is_stmt 0 discriminator 1
 650 0016 FFF7FEFF 		bl	lv_indev_get_act
 651              	.LVL87:
 652 001a FFF7FEFF 		bl	lv_indev_get_gesture_dir
 653              	.LVL88:
 654 001e 0228     		cmp	r0, #2
 655 0020 0CD1     		bne	.L28
 192:ui\ui.c       ****         _ui_screen_change(&ui_Temperature_screen, LV_SCR_LOAD_ANIM_FADE_ON, 500, 0, &ui_Temperature
 656              		.loc 1 192 0 is_stmt 1
 657 0022 FFF7FEFF 		bl	lv_indev_get_act
 658              	.LVL89:
 659 0026 FFF7FEFF 		bl	lv_indev_wait_release
 660              	.LVL90:
 193:ui\ui.c       ****     }
 661              		.loc 1 193 0
 662 002a 104B     		ldr	r3, .L31
 663 002c 0093     		str	r3, [sp]
 664 002e 0023     		movs	r3, #0
 665 0030 4FF4FA72 		mov	r2, #500
 666 0034 0921     		movs	r1, #9
 667 0036 0E48     		ldr	r0, .L31+4
 668 0038 FFF7FEFF 		bl	_ui_screen_change
 669              	.LVL91:
 670              	.L28:
 195:ui\ui.c       ****         lv_indev_wait_release(lv_indev_get_act());
 671              		.loc 1 195 0
 672 003c 0C2C     		cmp	r4, #12
 673 003e 12D1     		bne	.L27
 195:ui\ui.c       ****         lv_indev_wait_release(lv_indev_get_act());
 674              		.loc 1 195 0 is_stmt 0 discriminator 1
 675 0040 FFF7FEFF 		bl	lv_indev_get_act
 676              	.LVL92:
 677 0044 FFF7FEFF 		bl	lv_indev_get_gesture_dir
 678              	.LVL93:
 679 0048 0128     		cmp	r0, #1
 680 004a 0CD1     		bne	.L27
 196:ui\ui.c       ****         _ui_screen_change(&ui_Presets_screen, LV_SCR_LOAD_ANIM_FADE_ON, 500, 0, &ui_Presets_screen_
 681              		.loc 1 196 0 is_stmt 1
 682 004c FFF7FEFF 		bl	lv_indev_get_act
 683              	.LVL94:
 684 0050 FFF7FEFF 		bl	lv_indev_wait_release
 685              	.LVL95:
 197:ui\ui.c       ****     }
 686              		.loc 1 197 0
 687 0054 074B     		ldr	r3, .L31+8
 688 0056 0093     		str	r3, [sp]
 689 0058 0023     		movs	r3, #0
 690 005a 4FF4FA72 		mov	r2, #500
 691 005e 0921     		movs	r1, #9
 692 0060 0548     		ldr	r0, .L31+12
 693 0062 FFF7FEFF 		bl	_ui_screen_change
 694              	.LVL96:
 695              	.L27:
 199:ui\ui.c       **** void ui_event_Presets_screen(lv_event_t * e)
 696              		.loc 1 199 0
 697 0066 03B0     		add	sp, sp, #12
ARM GAS  C:\Users\haske\AppData\Local\Temp\ccBqPlca.s 			page 24


 698              		.cfi_def_cfa_offset 12
 699              		@ sp needed
 700 0068 30BD     		pop	{r4, r5, pc}
 701              	.LVL97:
 702              	.L32:
 703 006a 00BF     		.align	2
 704              	.L31:
 705 006c 00000000 		.word	ui_Temperature_screen_screen_init
 706 0070 00000000 		.word	ui_Temperature_screen
 707 0074 00000000 		.word	ui_Presets_screen_screen_init
 708 0078 00000000 		.word	ui_Presets_screen
 709              		.cfi_endproc
 710              	.LFE206:
 711              		.size	ui_event_Vibration_screen, .-ui_event_Vibration_screen
 712              		.section	.text.ui_event_Presets_screen,"ax",%progbits
 713              		.align	2
 714              		.global	ui_event_Presets_screen
 715              		.thumb
 716              		.thumb_func
 717              		.type	ui_event_Presets_screen, %function
 718              	ui_event_Presets_screen:
 719              	.LFB207:
 201:ui\ui.c       ****     lv_event_code_t event_code = lv_event_get_code(e);
 720              		.loc 1 201 0
 721              		.cfi_startproc
 722              		@ args = 0, pretend = 0, frame = 0
 723              		@ frame_needed = 0, uses_anonymous_args = 0
 724              	.LVL98:
 725 0000 30B5     		push	{r4, r5, lr}
 726              		.cfi_def_cfa_offset 12
 727              		.cfi_offset 4, -12
 728              		.cfi_offset 5, -8
 729              		.cfi_offset 14, -4
 730 0002 83B0     		sub	sp, sp, #12
 731              		.cfi_def_cfa_offset 24
 732 0004 0546     		mov	r5, r0
 202:ui\ui.c       ****     lv_obj_t * target = lv_event_get_target(e);
 733              		.loc 1 202 0
 734 0006 FFF7FEFF 		bl	lv_event_get_code
 735              	.LVL99:
 736 000a 0446     		mov	r4, r0
 737              	.LVL100:
 203:ui\ui.c       ****     if(event_code == LV_EVENT_GESTURE &&  lv_indev_get_gesture_dir(lv_indev_get_act()) == LV_DIR_RI
 738              		.loc 1 203 0
 739 000c 2846     		mov	r0, r5
 740 000e FFF7FEFF 		bl	lv_event_get_target
 741              	.LVL101:
 204:ui\ui.c       ****         lv_indev_wait_release(lv_indev_get_act());
 742              		.loc 1 204 0
 743 0012 0C2C     		cmp	r4, #12
 744 0014 12D1     		bne	.L34
 204:ui\ui.c       ****         lv_indev_wait_release(lv_indev_get_act());
 745              		.loc 1 204 0 is_stmt 0 discriminator 1
 746 0016 FFF7FEFF 		bl	lv_indev_get_act
 747              	.LVL102:
 748 001a FFF7FEFF 		bl	lv_indev_get_gesture_dir
 749              	.LVL103:
ARM GAS  C:\Users\haske\AppData\Local\Temp\ccBqPlca.s 			page 25


 750 001e 0228     		cmp	r0, #2
 751 0020 0CD1     		bne	.L34
 205:ui\ui.c       ****         _ui_screen_change(&ui_Vibration_screen, LV_SCR_LOAD_ANIM_FADE_ON, 500, 0, &ui_Vibration_scr
 752              		.loc 1 205 0 is_stmt 1
 753 0022 FFF7FEFF 		bl	lv_indev_get_act
 754              	.LVL104:
 755 0026 FFF7FEFF 		bl	lv_indev_wait_release
 756              	.LVL105:
 206:ui\ui.c       ****     }
 757              		.loc 1 206 0
 758 002a 104B     		ldr	r3, .L37
 759 002c 0093     		str	r3, [sp]
 760 002e 0023     		movs	r3, #0
 761 0030 4FF4FA72 		mov	r2, #500
 762 0034 0921     		movs	r1, #9
 763 0036 0E48     		ldr	r0, .L37+4
 764 0038 FFF7FEFF 		bl	_ui_screen_change
 765              	.LVL106:
 766              	.L34:
 208:ui\ui.c       ****         lv_indev_wait_release(lv_indev_get_act());
 767              		.loc 1 208 0
 768 003c 0C2C     		cmp	r4, #12
 769 003e 12D1     		bne	.L33
 208:ui\ui.c       ****         lv_indev_wait_release(lv_indev_get_act());
 770              		.loc 1 208 0 is_stmt 0 discriminator 1
 771 0040 FFF7FEFF 		bl	lv_indev_get_act
 772              	.LVL107:
 773 0044 FFF7FEFF 		bl	lv_indev_get_gesture_dir
 774              	.LVL108:
 775 0048 0128     		cmp	r0, #1
 776 004a 0CD1     		bne	.L33
 209:ui\ui.c       ****         _ui_screen_change(&ui_Brigtness_screen, LV_SCR_LOAD_ANIM_FADE_ON, 500, 0, &ui_Brigtness_scr
 777              		.loc 1 209 0 is_stmt 1
 778 004c FFF7FEFF 		bl	lv_indev_get_act
 779              	.LVL109:
 780 0050 FFF7FEFF 		bl	lv_indev_wait_release
 781              	.LVL110:
 210:ui\ui.c       ****     }
 782              		.loc 1 210 0
 783 0054 074B     		ldr	r3, .L37+8
 784 0056 0093     		str	r3, [sp]
 785 0058 0023     		movs	r3, #0
 786 005a 4FF4FA72 		mov	r2, #500
 787 005e 0921     		movs	r1, #9
 788 0060 0548     		ldr	r0, .L37+12
 789 0062 FFF7FEFF 		bl	_ui_screen_change
 790              	.LVL111:
 791              	.L33:
 212:ui\ui.c       **** void ui_event_Save_setting_button(lv_event_t * e)
 792              		.loc 1 212 0
 793 0066 03B0     		add	sp, sp, #12
 794              		.cfi_def_cfa_offset 12
 795              		@ sp needed
 796 0068 30BD     		pop	{r4, r5, pc}
 797              	.LVL112:
 798              	.L38:
 799 006a 00BF     		.align	2
ARM GAS  C:\Users\haske\AppData\Local\Temp\ccBqPlca.s 			page 26


 800              	.L37:
 801 006c 00000000 		.word	ui_Vibration_screen_screen_init
 802 0070 00000000 		.word	ui_Vibration_screen
 803 0074 00000000 		.word	ui_Brigtness_screen_screen_init
 804 0078 00000000 		.word	ui_Brigtness_screen
 805              		.cfi_endproc
 806              	.LFE207:
 807              		.size	ui_event_Presets_screen, .-ui_event_Presets_screen
 808              		.section	.text.ui_event_Save_setting_button,"ax",%progbits
 809              		.align	2
 810              		.global	ui_event_Save_setting_button
 811              		.thumb
 812              		.thumb_func
 813              		.type	ui_event_Save_setting_button, %function
 814              	ui_event_Save_setting_button:
 815              	.LFB208:
 214:ui\ui.c       ****     lv_event_code_t event_code = lv_event_get_code(e);
 816              		.loc 1 214 0
 817              		.cfi_startproc
 818              		@ args = 0, pretend = 0, frame = 0
 819              		@ frame_needed = 0, uses_anonymous_args = 0
 820              	.LVL113:
 821 0000 38B5     		push	{r3, r4, r5, lr}
 822              		.cfi_def_cfa_offset 16
 823              		.cfi_offset 3, -16
 824              		.cfi_offset 4, -12
 825              		.cfi_offset 5, -8
 826              		.cfi_offset 14, -4
 827 0002 0546     		mov	r5, r0
 215:ui\ui.c       ****     lv_obj_t * target = lv_event_get_target(e);
 828              		.loc 1 215 0
 829 0004 FFF7FEFF 		bl	lv_event_get_code
 830              	.LVL114:
 831 0008 0446     		mov	r4, r0
 832              	.LVL115:
 216:ui\ui.c       ****     if(event_code == LV_EVENT_CLICKED) {
 833              		.loc 1 216 0
 834 000a 2846     		mov	r0, r5
 835 000c FFF7FEFF 		bl	lv_event_get_target
 836              	.LVL116:
 217:ui\ui.c       ****         _ui_flag_modify(ui_Keyboard, LV_OBJ_FLAG_HIDDEN, _UI_MODIFY_FLAG_REMOVE);
 837              		.loc 1 217 0
 838 0010 072C     		cmp	r4, #7
 839 0012 05D1     		bne	.L40
 218:ui\ui.c       ****     }
 840              		.loc 1 218 0
 841 0014 0122     		movs	r2, #1
 842 0016 1146     		mov	r1, r2
 843 0018 064B     		ldr	r3, .L43
 844 001a 1868     		ldr	r0, [r3]
 845 001c FFF7FEFF 		bl	_ui_flag_modify
 846              	.LVL117:
 847              	.L40:
 220:ui\ui.c       ****         _ui_flag_modify(ui_TextArea, LV_OBJ_FLAG_HIDDEN, _UI_MODIFY_FLAG_REMOVE);
 848              		.loc 1 220 0
 849 0020 072C     		cmp	r4, #7
 850 0022 05D1     		bne	.L39
ARM GAS  C:\Users\haske\AppData\Local\Temp\ccBqPlca.s 			page 27


 221:ui\ui.c       ****     }
 851              		.loc 1 221 0
 852 0024 0122     		movs	r2, #1
 853 0026 1146     		mov	r1, r2
 854 0028 034B     		ldr	r3, .L43+4
 855 002a 1868     		ldr	r0, [r3]
 856 002c FFF7FEFF 		bl	_ui_flag_modify
 857              	.LVL118:
 858              	.L39:
 859 0030 38BD     		pop	{r3, r4, r5, pc}
 860              	.LVL119:
 861              	.L44:
 862 0032 00BF     		.align	2
 863              	.L43:
 864 0034 00000000 		.word	ui_Keyboard
 865 0038 00000000 		.word	ui_TextArea
 866              		.cfi_endproc
 867              	.LFE208:
 868              		.size	ui_event_Save_setting_button, .-ui_event_Save_setting_button
 869              		.section	.text.ui_event_Brigtness_screen,"ax",%progbits
 870              		.align	2
 871              		.global	ui_event_Brigtness_screen
 872              		.thumb
 873              		.thumb_func
 874              		.type	ui_event_Brigtness_screen, %function
 875              	ui_event_Brigtness_screen:
 876              	.LFB209:
 225:ui\ui.c       ****     lv_event_code_t event_code = lv_event_get_code(e);
 877              		.loc 1 225 0
 878              		.cfi_startproc
 879              		@ args = 0, pretend = 0, frame = 0
 880              		@ frame_needed = 0, uses_anonymous_args = 0
 881              	.LVL120:
 882 0000 30B5     		push	{r4, r5, lr}
 883              		.cfi_def_cfa_offset 12
 884              		.cfi_offset 4, -12
 885              		.cfi_offset 5, -8
 886              		.cfi_offset 14, -4
 887 0002 83B0     		sub	sp, sp, #12
 888              		.cfi_def_cfa_offset 24
 889 0004 0546     		mov	r5, r0
 226:ui\ui.c       ****     lv_obj_t * target = lv_event_get_target(e);
 890              		.loc 1 226 0
 891 0006 FFF7FEFF 		bl	lv_event_get_code
 892              	.LVL121:
 893 000a 0446     		mov	r4, r0
 894              	.LVL122:
 227:ui\ui.c       ****     if(event_code == LV_EVENT_GESTURE &&  lv_indev_get_gesture_dir(lv_indev_get_act()) == LV_DIR_LE
 895              		.loc 1 227 0
 896 000c 2846     		mov	r0, r5
 897 000e FFF7FEFF 		bl	lv_event_get_target
 898              	.LVL123:
 228:ui\ui.c       ****         lv_indev_wait_release(lv_indev_get_act());
 899              		.loc 1 228 0
 900 0012 0C2C     		cmp	r4, #12
 901 0014 12D1     		bne	.L46
 228:ui\ui.c       ****         lv_indev_wait_release(lv_indev_get_act());
ARM GAS  C:\Users\haske\AppData\Local\Temp\ccBqPlca.s 			page 28


 902              		.loc 1 228 0 is_stmt 0 discriminator 1
 903 0016 FFF7FEFF 		bl	lv_indev_get_act
 904              	.LVL124:
 905 001a FFF7FEFF 		bl	lv_indev_get_gesture_dir
 906              	.LVL125:
 907 001e 0128     		cmp	r0, #1
 908 0020 0CD1     		bne	.L46
 229:ui\ui.c       ****         _ui_screen_change(&ui_TENS_screen, LV_SCR_LOAD_ANIM_FADE_ON, 500, 0, &ui_TENS_screen_screen
 909              		.loc 1 229 0 is_stmt 1
 910 0022 FFF7FEFF 		bl	lv_indev_get_act
 911              	.LVL126:
 912 0026 FFF7FEFF 		bl	lv_indev_wait_release
 913              	.LVL127:
 230:ui\ui.c       ****     }
 914              		.loc 1 230 0
 915 002a 104B     		ldr	r3, .L49
 916 002c 0093     		str	r3, [sp]
 917 002e 0023     		movs	r3, #0
 918 0030 4FF4FA72 		mov	r2, #500
 919 0034 0921     		movs	r1, #9
 920 0036 0E48     		ldr	r0, .L49+4
 921 0038 FFF7FEFF 		bl	_ui_screen_change
 922              	.LVL128:
 923              	.L46:
 232:ui\ui.c       ****         lv_indev_wait_release(lv_indev_get_act());
 924              		.loc 1 232 0
 925 003c 0C2C     		cmp	r4, #12
 926 003e 12D1     		bne	.L45
 232:ui\ui.c       ****         lv_indev_wait_release(lv_indev_get_act());
 927              		.loc 1 232 0 is_stmt 0 discriminator 1
 928 0040 FFF7FEFF 		bl	lv_indev_get_act
 929              	.LVL129:
 930 0044 FFF7FEFF 		bl	lv_indev_get_gesture_dir
 931              	.LVL130:
 932 0048 0228     		cmp	r0, #2
 933 004a 0CD1     		bne	.L45
 233:ui\ui.c       ****         _ui_screen_change(&ui_Presets_screen, LV_SCR_LOAD_ANIM_FADE_ON, 500, 0, &ui_Presets_screen_
 934              		.loc 1 233 0 is_stmt 1
 935 004c FFF7FEFF 		bl	lv_indev_get_act
 936              	.LVL131:
 937 0050 FFF7FEFF 		bl	lv_indev_wait_release
 938              	.LVL132:
 234:ui\ui.c       ****     }
 939              		.loc 1 234 0
 940 0054 074B     		ldr	r3, .L49+8
 941 0056 0093     		str	r3, [sp]
 942 0058 0023     		movs	r3, #0
 943 005a 4FF4FA72 		mov	r2, #500
 944 005e 0921     		movs	r1, #9
 945 0060 0548     		ldr	r0, .L49+12
 946 0062 FFF7FEFF 		bl	_ui_screen_change
 947              	.LVL133:
 948              	.L45:
 236:ui\ui.c       **** void ui_event____initial_actions0(lv_event_t * e)
 949              		.loc 1 236 0
 950 0066 03B0     		add	sp, sp, #12
 951              		.cfi_def_cfa_offset 12
ARM GAS  C:\Users\haske\AppData\Local\Temp\ccBqPlca.s 			page 29


 952              		@ sp needed
 953 0068 30BD     		pop	{r4, r5, pc}
 954              	.LVL134:
 955              	.L50:
 956 006a 00BF     		.align	2
 957              	.L49:
 958 006c 00000000 		.word	ui_TENS_screen_screen_init
 959 0070 00000000 		.word	ui_TENS_screen
 960 0074 00000000 		.word	ui_Presets_screen_screen_init
 961 0078 00000000 		.word	ui_Presets_screen
 962              		.cfi_endproc
 963              	.LFE209:
 964              		.size	ui_event_Brigtness_screen, .-ui_event_Brigtness_screen
 965              		.section	.text.ui_init,"ax",%progbits
 966              		.align	2
 967              		.global	ui_init
 968              		.thumb
 969              		.thumb_func
 970              		.type	ui_init, %function
 971              	ui_init:
 972              	.LFB211:
 244:ui\ui.c       ****     }
 245:ui\ui.c       **** }
 246:ui\ui.c       **** 
 247:ui\ui.c       **** ///////////////////// SCREENS ////////////////////
 248:ui\ui.c       **** 
 249:ui\ui.c       **** void ui_init(void)
 250:ui\ui.c       **** {
 973              		.loc 1 250 0
 974              		.cfi_startproc
 975              		@ args = 0, pretend = 0, frame = 0
 976              		@ frame_needed = 0, uses_anonymous_args = 0
 977 0000 30B5     		push	{r4, r5, lr}
 978              		.cfi_def_cfa_offset 12
 979              		.cfi_offset 4, -12
 980              		.cfi_offset 5, -8
 981              		.cfi_offset 14, -4
 982 0002 83B0     		sub	sp, sp, #12
 983              		.cfi_def_cfa_offset 24
 251:ui\ui.c       ****     lv_disp_t * dispp = lv_disp_get_default();
 984              		.loc 1 251 0
 985 0004 FFF7FEFF 		bl	lv_disp_get_default
 986              	.LVL135:
 987 0008 0446     		mov	r4, r0
 988              	.LVL136:
 252:ui\ui.c       ****     lv_theme_t * theme = lv_theme_default_init(dispp, lv_palette_main(LV_PALETTE_BLUE), lv_palette_
 989              		.loc 1 252 0
 990 000a 0520     		movs	r0, #5
 991              	.LVL137:
 992 000c FFF7FEFF 		bl	lv_palette_main
 993              	.LVL138:
 994 0010 0546     		mov	r5, r0
 995 0012 0020     		movs	r0, #0
 996 0014 FFF7FEFF 		bl	lv_palette_main
 997              	.LVL139:
 998 0018 154B     		ldr	r3, .L53
 999 001a 0093     		str	r3, [sp]
ARM GAS  C:\Users\haske\AppData\Local\Temp\ccBqPlca.s 			page 30


 1000 001c 0023     		movs	r3, #0
 1001 001e 0246     		mov	r2, r0
 1002 0020 2946     		mov	r1, r5
 1003 0022 2046     		mov	r0, r4
 1004 0024 FFF7FEFF 		bl	lv_theme_default_init
 1005              	.LVL140:
 253:ui\ui.c       ****                                                false, LV_FONT_DEFAULT);
 254:ui\ui.c       ****     lv_disp_set_theme(dispp, theme);
 1006              		.loc 1 254 0
 1007 0028 0146     		mov	r1, r0
 1008 002a 2046     		mov	r0, r4
 1009              	.LVL141:
 1010 002c FFF7FEFF 		bl	lv_disp_set_theme
 1011              	.LVL142:
 255:ui\ui.c       ****     ui_Splash_screen_screen_init();
 1012              		.loc 1 255 0
 1013 0030 FFF7FEFF 		bl	ui_Splash_screen_screen_init
 1014              	.LVL143:
 256:ui\ui.c       ****     ui_TENS_screen_screen_init();
 1015              		.loc 1 256 0
 1016 0034 FFF7FEFF 		bl	ui_TENS_screen_screen_init
 1017              	.LVL144:
 257:ui\ui.c       ****     ui_Temperature_screen_screen_init();
 1018              		.loc 1 257 0
 1019 0038 FFF7FEFF 		bl	ui_Temperature_screen_screen_init
 1020              	.LVL145:
 258:ui\ui.c       ****     ui_Vibration_screen_screen_init();
 1021              		.loc 1 258 0
 1022 003c FFF7FEFF 		bl	ui_Vibration_screen_screen_init
 1023              	.LVL146:
 259:ui\ui.c       ****     ui_Presets_screen_screen_init();
 1024              		.loc 1 259 0
 1025 0040 FFF7FEFF 		bl	ui_Presets_screen_screen_init
 1026              	.LVL147:
 260:ui\ui.c       ****     ui_Brigtness_screen_screen_init();
 1027              		.loc 1 260 0
 1028 0044 FFF7FEFF 		bl	ui_Brigtness_screen_screen_init
 1029              	.LVL148:
 261:ui\ui.c       ****     ui____initial_actions0 = lv_obj_create(NULL);
 1030              		.loc 1 261 0
 1031 0048 0020     		movs	r0, #0
 1032 004a FFF7FEFF 		bl	lv_obj_create
 1033              	.LVL149:
 1034 004e 094C     		ldr	r4, .L53+4
 1035              	.LVL150:
 1036 0050 2060     		str	r0, [r4]
 262:ui\ui.c       ****     lv_obj_add_event_cb(ui____initial_actions0, ui_event____initial_actions0, LV_EVENT_ALL, NULL);
 1037              		.loc 1 262 0
 1038 0052 0023     		movs	r3, #0
 1039 0054 1A46     		mov	r2, r3
 1040 0056 0849     		ldr	r1, .L53+8
 1041 0058 FFF7FEFF 		bl	lv_obj_add_event_cb
 1042              	.LVL151:
 263:ui\ui.c       **** 
 264:ui\ui.c       ****     lv_disp_load_scr(ui____initial_actions0);
 1043              		.loc 1 264 0
 1044 005c 2068     		ldr	r0, [r4]
ARM GAS  C:\Users\haske\AppData\Local\Temp\ccBqPlca.s 			page 31


 1045 005e FFF7FEFF 		bl	lv_disp_load_scr
 1046              	.LVL152:
 265:ui\ui.c       ****     lv_disp_load_scr(ui_Splash_screen);
 1047              		.loc 1 265 0
 1048 0062 064B     		ldr	r3, .L53+12
 1049 0064 1868     		ldr	r0, [r3]
 1050 0066 FFF7FEFF 		bl	lv_disp_load_scr
 1051              	.LVL153:
 266:ui\ui.c       **** }
 1052              		.loc 1 266 0
 1053 006a 03B0     		add	sp, sp, #12
 1054              		.cfi_def_cfa_offset 12
 1055              		@ sp needed
 1056 006c 30BD     		pop	{r4, r5, pc}
 1057              	.L54:
 1058 006e 00BF     		.align	2
 1059              	.L53:
 1060 0070 00000000 		.word	lv_font_montserrat_14
 1061 0074 00000000 		.word	ui____initial_actions0
 1062 0078 00000000 		.word	ui_event____initial_actions0
 1063 007c 00000000 		.word	ui_Splash_screen
 1064              		.cfi_endproc
 1065              	.LFE211:
 1066              		.size	ui_init, .-ui_init
 1067              		.comm	ui____initial_actions0,4,4
 1068              		.comm	ui_Brightness_slider,4,4
 1069              		.comm	ui_dot5Pg5,4,4
 1070              		.comm	ui_dot4Pg5,4,4
 1071              		.comm	ui_dot3Pg5,4,4
 1072              		.comm	ui_dot2Pg5,4,4
 1073              		.comm	ui_dot1Pg5,4,4
 1074              		.comm	ui_scrollDotsPg5,4,4
 1075              		.comm	ui_Brightness_screen,4,4
 1076              		.comm	ui_Brigtness_screen,4,4
 1077              		.comm	ui_TextArea,4,4
 1078              		.comm	ui_Keyboard,4,4
 1079              		.comm	ui_Save_setting_label,4,4
 1080              		.comm	ui_Save_setting_button,4,4
 1081              		.comm	ui_Preset_drop_down_menu,4,4
 1082              		.comm	ui_dot5Pg4,4,4
 1083              		.comm	ui_dot4Pg4,4,4
 1084              		.comm	ui_dot3Pg4,4,4
 1085              		.comm	ui_dot2Pg4,4,4
 1086              		.comm	ui_dot1Pg4,4,4
 1087              		.comm	ui_scrollDotsPg4,4,4
 1088              		.comm	ui_Presets_label,4,4
 1089              		.comm	ui_Presets_screen,4,4
 1090              		.comm	ui_Waveform_drop_down_menu,4,4
 1091              		.comm	ui_Waveform_label,4,4
 1092              		.comm	ui_Frequency_label,4,4
 1093              		.comm	ui_Amplitude_label,4,4
 1094              		.comm	ui_Waveform_slider,4,4
 1095              		.comm	ui_Frequency_slider,4,4
 1096              		.comm	ui_Amplitude_slider,4,4
 1097              		.comm	ui_dot5Pg3,4,4
 1098              		.comm	ui_dot4Pg3,4,4
 1099              		.comm	ui_dot3Pg3,4,4
ARM GAS  C:\Users\haske\AppData\Local\Temp\ccBqPlca.s 			page 32


 1100              		.comm	ui_dot2Pg3,4,4
 1101              		.comm	ui_dot1Pg3,4,4
 1102              		.comm	ui_scrollDotsPg3,4,4
 1103              		.comm	ui_Vibration_label,4,4
 1104              		.comm	ui_Vibration_screen,4,4
 1105              		.comm	ui_fire,4,4
 1106              		.comm	ui_snowflake,4,4
 1107              		.comm	ui_Temperature_slider,4,4
 1108              		.comm	ui_dot5Pg2,4,4
 1109              		.comm	ui_dot4Pg2,4,4
 1110              		.comm	ui_dot3Pg2,4,4
 1111              		.comm	ui_dot2Pg2,4,4
 1112              		.comm	ui_dot1Pg2,4,4
 1113              		.comm	ui_scrollDotsPg2,4,4
 1114              		.comm	ui_Temperature_label,4,4
 1115              		.comm	ui_Temperature_screen,4,4
 1116              		.comm	ui_dot5Pg1,4,4
 1117              		.comm	ui_dot4Pg1,4,4
 1118              		.comm	ui_dot3Pg1,4,4
 1119              		.comm	ui_dot2Pg1,4,4
 1120              		.comm	ui_dot1Pg1,4,4
 1121              		.comm	ui_scrollDotsPg1,4,4
 1122              		.comm	ui_high_label,4,4
 1123              		.comm	ui_low_label,4,4
 1124              		.comm	ui_TENS_slider,4,4
 1125              		.comm	ui_TENS_label,4,4
 1126              		.comm	ui_TENS_screen,4,4
 1127              		.comm	ui_pain_drain_logo,4,4
 1128              		.comm	ui_logo_label,4,4
 1129              		.comm	ui_Splash_screen,4,4
 1130              		.text
 1131              	.Letext0:
 1132              		.file 3 "c:\\program files (x86)\\cypress\\psoc creator\\4.4\\psoc creator\\import\\gnu\\arm\\5.4.
 1133              		.file 4 "c:\\program files (x86)\\cypress\\psoc creator\\4.4\\psoc creator\\import\\gnu\\arm\\5.4.
 1134              		.file 5 ".\\lvgl-release-v8.3/./src/misc/lv_types.h"
 1135              		.file 6 ".\\lvgl-release-v8.3/./src/misc/lv_timer.h"
 1136              		.file 7 "c:\\program files (x86)\\cypress\\psoc creator\\4.4\\psoc creator\\import\\gnu\\arm\\5.4.
 1137              		.file 8 ".\\lvgl-release-v8.3/./src/hal/../draw/../misc/../font/../misc/lv_area.h"
 1138              		.file 9 ".\\lvgl-release-v8.3/./src/hal/../draw/../misc/../font/lv_font.h"
 1139              		.file 10 ".\\lvgl-release-v8.3/./src/hal/../draw/../misc/lv_color.h"
 1140              		.file 11 ".\\lvgl-release-v8.3/./src/hal/../draw/../misc/lv_txt.h"
 1141              		.file 12 ".\\lvgl-release-v8.3/./src/hal/../draw/../misc/lv_bidi.h"
 1142              		.file 13 ".\\lvgl-release-v8.3/./src/hal/../draw/../misc/lv_style.h"
 1143              		.file 14 ".\\lvgl-release-v8.3/./src/hal/../draw/lv_img_buf.h"
 1144              		.file 15 ".\\lvgl-release-v8.3/./src/core/lv_obj.h"
 1145              		.file 16 ".\\lvgl-release-v8.3/./src/hal/../draw/lv_draw_rect.h"
 1146              		.file 17 ".\\lvgl-release-v8.3/./src/hal/../draw/lv_draw_label.h"
 1147              		.file 18 ".\\lvgl-release-v8.3/./src/hal/../draw/lv_draw_img.h"
 1148              		.file 19 ".\\lvgl-release-v8.3/./src/hal/../draw/lv_draw_line.h"
 1149              		.file 20 ".\\lvgl-release-v8.3/./src/hal/../draw/lv_draw_arc.h"
 1150              		.file 21 ".\\lvgl-release-v8.3/./src/hal/../draw/lv_draw_layer.h"
 1151              		.file 22 ".\\lvgl-release-v8.3/./src/hal/../draw/lv_draw.h"
 1152              		.file 23 ".\\lvgl-release-v8.3/./src/hal/../misc/lv_ll.h"
 1153              		.file 24 ".\\lvgl-release-v8.3/./src/hal/lv_hal_disp.h"
 1154              		.file 25 ".\\lvgl-release-v8.3/./src/core/lv_theme.h"
 1155              		.file 26 ".\\lvgl-release-v8.3/./src/core/lv_group.h"
 1156              		.file 27 ".\\lvgl-release-v8.3/./src/core/lv_obj_scroll.h"
ARM GAS  C:\Users\haske\AppData\Local\Temp\ccBqPlca.s 			page 33


 1157              		.file 28 ".\\lvgl-release-v8.3/./src/core/lv_obj_style.h"
 1158              		.file 29 ".\\lvgl-release-v8.3/./src/core/lv_obj_class.h"
 1159              		.file 30 ".\\lvgl-release-v8.3/./src/core/lv_event.h"
 1160              		.file 31 ".\\lvgl-release-v8.3/./src/core/lv_disp.h"
 1161              		.file 32 ".\\lvgl-release-v8.3/./src/widgets/lv_bar.h"
 1162              		.file 33 ".\\lvgl-release-v8.3/./src/extra/widgets/imgbtn/lv_imgbtn.h"
 1163              		.file 34 "ui\\ui_helpers.h"
 1164              		.file 35 ".\\lvgl-release-v8.3/./src/extra/layouts/flex/lv_flex.h"
 1165              		.file 36 ".\\lvgl-release-v8.3/./src/extra/layouts/grid/lv_grid.h"
 1166              		.file 37 ".\\lvgl-release-v8.3/./src/misc/lv_mem.h"
 1167              		.file 38 ".\\lvgl-release-v8.3/./src/core/lv_indev.h"
 1168              		.file 39 ".\\lvgl-release-v8.3/./src/extra/themes/default/lv_theme_default.h"