ARM GAS  C:\Users\haske\AppData\Local\Temp\ccWs1cKl.s 			page 1


   1              		.syntax unified
   2              		.cpu cortex-m4
   3              		.eabi_attribute 27, 1
   4              		.fpu fpv4-sp-d16
   5              		.eabi_attribute 20, 1
   6              		.eabi_attribute 21, 1
   7              		.eabi_attribute 23, 3
   8              		.eabi_attribute 24, 1
   9              		.eabi_attribute 25, 1
  10              		.eabi_attribute 26, 1
  11              		.eabi_attribute 30, 1
  12              		.eabi_attribute 34, 1
  13              		.eabi_attribute 18, 4
  14              		.thumb
  15              		.syntax unified
  16              		.file	"ui_helpers.c"
  17              		.text
  18              	.Ltext0:
  19              		.cfi_sections	.debug_frame
  20              		.section	.text._ui_bar_set_property,"ax",%progbits
  21              		.align	2
  22              		.global	_ui_bar_set_property
  23              		.thumb
  24              		.thumb_func
  25              		.type	_ui_bar_set_property, %function
  26              	_ui_bar_set_property:
  27              	.LFB202:
  28              		.file 1 "ui\\ui_helpers.c"
   1:ui\ui_helpers.c **** // This file was generated by SquareLine Studio
   2:ui\ui_helpers.c **** // SquareLine Studio version: SquareLine Studio 1.3.1
   3:ui\ui_helpers.c **** // LVGL version: 8.3.6
   4:ui\ui_helpers.c **** // Project name: Pain Drain
   5:ui\ui_helpers.c **** 
   6:ui\ui_helpers.c **** #include "ui_helpers.h"
   7:ui\ui_helpers.c **** 
   8:ui\ui_helpers.c **** void _ui_bar_set_property(lv_obj_t * target, int id, int val)
   9:ui\ui_helpers.c **** {
  29              		.loc 1 9 0
  30              		.cfi_startproc
  31              		@ args = 0, pretend = 0, frame = 0
  32              		@ frame_needed = 0, uses_anonymous_args = 0
  33              	.LVL0:
  34 0000 70B5     		push	{r4, r5, r6, lr}
  35              		.cfi_def_cfa_offset 16
  36              		.cfi_offset 4, -16
  37              		.cfi_offset 5, -12
  38              		.cfi_offset 6, -8
  39              		.cfi_offset 14, -4
  40 0002 0546     		mov	r5, r0
  41 0004 0C46     		mov	r4, r1
  42 0006 1646     		mov	r6, r2
  10:ui\ui_helpers.c ****     if(id == _UI_BAR_PROPERTY_VALUE_WITH_ANIM) lv_bar_set_value(target, val, LV_ANIM_ON);
  43              		.loc 1 10 0
  44 0008 0129     		cmp	r1, #1
  45 000a 03D1     		bne	.L2
  46              		.loc 1 10 0 is_stmt 0 discriminator 1
  47 000c 0122     		movs	r2, #1
ARM GAS  C:\Users\haske\AppData\Local\Temp\ccWs1cKl.s 			page 2


  48              	.LVL1:
  49 000e 3146     		mov	r1, r6
  50              	.LVL2:
  51 0010 FFF7FEFF 		bl	lv_bar_set_value
  52              	.LVL3:
  53              	.L2:
  11:ui\ui_helpers.c ****     if(id == _UI_BAR_PROPERTY_VALUE) lv_bar_set_value(target, val, LV_ANIM_OFF);
  54              		.loc 1 11 0 is_stmt 1
  55 0014 24B9     		cbnz	r4, .L1
  56              		.loc 1 11 0 is_stmt 0 discriminator 1
  57 0016 0022     		movs	r2, #0
  58 0018 3146     		mov	r1, r6
  59 001a 2846     		mov	r0, r5
  60 001c FFF7FEFF 		bl	lv_bar_set_value
  61              	.LVL4:
  62              	.L1:
  63 0020 70BD     		pop	{r4, r5, r6, pc}
  64              		.cfi_endproc
  65              	.LFE202:
  66              		.size	_ui_bar_set_property, .-_ui_bar_set_property
  67 0022 00BF     		.section	.text._ui_basic_set_property,"ax",%progbits
  68              		.align	2
  69              		.global	_ui_basic_set_property
  70              		.thumb
  71              		.thumb_func
  72              		.type	_ui_basic_set_property, %function
  73              	_ui_basic_set_property:
  74              	.LFB203:
  12:ui\ui_helpers.c **** }
  13:ui\ui_helpers.c **** 
  14:ui\ui_helpers.c **** void _ui_basic_set_property(lv_obj_t * target, int id, int val)
  15:ui\ui_helpers.c **** {
  75              		.loc 1 15 0 is_stmt 1
  76              		.cfi_startproc
  77              		@ args = 0, pretend = 0, frame = 0
  78              		@ frame_needed = 0, uses_anonymous_args = 0
  79              	.LVL5:
  80 0000 70B5     		push	{r4, r5, r6, lr}
  81              		.cfi_def_cfa_offset 16
  82              		.cfi_offset 4, -16
  83              		.cfi_offset 5, -12
  84              		.cfi_offset 6, -8
  85              		.cfi_offset 14, -4
  86 0002 0546     		mov	r5, r0
  87 0004 1646     		mov	r6, r2
  16:ui\ui_helpers.c ****     if(id == _UI_BASIC_PROPERTY_POSITION_X) lv_obj_set_x(target, val);
  88              		.loc 1 16 0
  89 0006 0C46     		mov	r4, r1
  90 0008 11B9     		cbnz	r1, .L6
  91              		.loc 1 16 0 is_stmt 0 discriminator 1
  92 000a 11B2     		sxth	r1, r2
  93              	.LVL6:
  94 000c FFF7FEFF 		bl	lv_obj_set_x
  95              	.LVL7:
  96              	.L6:
  17:ui\ui_helpers.c ****     if(id == _UI_BASIC_PROPERTY_POSITION_Y) lv_obj_set_y(target, val);
  97              		.loc 1 17 0 is_stmt 1
ARM GAS  C:\Users\haske\AppData\Local\Temp\ccWs1cKl.s 			page 3


  98 0010 012C     		cmp	r4, #1
  99 0012 03D1     		bne	.L7
 100              		.loc 1 17 0 is_stmt 0 discriminator 1
 101 0014 31B2     		sxth	r1, r6
 102 0016 2846     		mov	r0, r5
 103 0018 FFF7FEFF 		bl	lv_obj_set_y
 104              	.LVL8:
 105              	.L7:
  18:ui\ui_helpers.c ****     if(id == _UI_BASIC_PROPERTY_WIDTH) lv_obj_set_width(target, val);
 106              		.loc 1 18 0 is_stmt 1
 107 001c 022C     		cmp	r4, #2
 108 001e 03D1     		bne	.L8
 109              		.loc 1 18 0 is_stmt 0 discriminator 1
 110 0020 31B2     		sxth	r1, r6
 111 0022 2846     		mov	r0, r5
 112 0024 FFF7FEFF 		bl	lv_obj_set_width
 113              	.LVL9:
 114              	.L8:
  19:ui\ui_helpers.c ****     if(id == _UI_BASIC_PROPERTY_HEIGHT) lv_obj_set_height(target, val);
 115              		.loc 1 19 0 is_stmt 1
 116 0028 032C     		cmp	r4, #3
 117 002a 03D1     		bne	.L5
 118              		.loc 1 19 0 is_stmt 0 discriminator 1
 119 002c 31B2     		sxth	r1, r6
 120 002e 2846     		mov	r0, r5
 121 0030 FFF7FEFF 		bl	lv_obj_set_height
 122              	.LVL10:
 123              	.L5:
 124 0034 70BD     		pop	{r4, r5, r6, pc}
 125              		.cfi_endproc
 126              	.LFE203:
 127              		.size	_ui_basic_set_property, .-_ui_basic_set_property
 128 0036 00BF     		.section	.text._ui_dropdown_set_property,"ax",%progbits
 129              		.align	2
 130              		.global	_ui_dropdown_set_property
 131              		.thumb
 132              		.thumb_func
 133              		.type	_ui_dropdown_set_property, %function
 134              	_ui_dropdown_set_property:
 135              	.LFB204:
  20:ui\ui_helpers.c **** }
  21:ui\ui_helpers.c **** 
  22:ui\ui_helpers.c **** void _ui_dropdown_set_property(lv_obj_t * target, int id, int val)
  23:ui\ui_helpers.c **** {
 136              		.loc 1 23 0 is_stmt 1
 137              		.cfi_startproc
 138              		@ args = 0, pretend = 0, frame = 0
 139              		@ frame_needed = 0, uses_anonymous_args = 0
 140              	.LVL11:
  24:ui\ui_helpers.c ****     if(id == _UI_DROPDOWN_PROPERTY_SELECTED) lv_dropdown_set_selected(target, val);
 141              		.loc 1 24 0
 142 0000 21B9     		cbnz	r1, .L14
  23:ui\ui_helpers.c ****     if(id == _UI_DROPDOWN_PROPERTY_SELECTED) lv_dropdown_set_selected(target, val);
 143              		.loc 1 23 0 discriminator 1
 144 0002 08B5     		push	{r3, lr}
 145              		.cfi_def_cfa_offset 8
 146              		.cfi_offset 3, -8
ARM GAS  C:\Users\haske\AppData\Local\Temp\ccWs1cKl.s 			page 4


 147              		.cfi_offset 14, -4
 148              		.loc 1 24 0 discriminator 1
 149 0004 91B2     		uxth	r1, r2
 150              	.LVL12:
 151 0006 FFF7FEFF 		bl	lv_dropdown_set_selected
 152              	.LVL13:
 153 000a 08BD     		pop	{r3, pc}
 154              	.LVL14:
 155              	.L14:
 156              		.cfi_def_cfa_offset 0
 157              		.cfi_restore 3
 158              		.cfi_restore 14
 159 000c 7047     		bx	lr
 160              		.cfi_endproc
 161              	.LFE204:
 162              		.size	_ui_dropdown_set_property, .-_ui_dropdown_set_property
 163 000e 00BF     		.section	.text._ui_image_set_property,"ax",%progbits
 164              		.align	2
 165              		.global	_ui_image_set_property
 166              		.thumb
 167              		.thumb_func
 168              		.type	_ui_image_set_property, %function
 169              	_ui_image_set_property:
 170              	.LFB205:
  25:ui\ui_helpers.c **** }
  26:ui\ui_helpers.c **** 
  27:ui\ui_helpers.c **** void _ui_image_set_property(lv_obj_t * target, int id, uint8_t * val)
  28:ui\ui_helpers.c **** {
 171              		.loc 1 28 0
 172              		.cfi_startproc
 173              		@ args = 0, pretend = 0, frame = 0
 174              		@ frame_needed = 0, uses_anonymous_args = 0
 175              	.LVL15:
  29:ui\ui_helpers.c ****     if(id == _UI_IMAGE_PROPERTY_IMAGE) lv_img_set_src(target, val);
 176              		.loc 1 29 0
 177 0000 21B9     		cbnz	r1, .L18
  28:ui\ui_helpers.c ****     if(id == _UI_IMAGE_PROPERTY_IMAGE) lv_img_set_src(target, val);
 178              		.loc 1 28 0 discriminator 1
 179 0002 08B5     		push	{r3, lr}
 180              		.cfi_def_cfa_offset 8
 181              		.cfi_offset 3, -8
 182              		.cfi_offset 14, -4
 183 0004 1146     		mov	r1, r2
 184              	.LVL16:
 185              		.loc 1 29 0 discriminator 1
 186 0006 FFF7FEFF 		bl	lv_img_set_src
 187              	.LVL17:
 188 000a 08BD     		pop	{r3, pc}
 189              	.LVL18:
 190              	.L18:
 191              		.cfi_def_cfa_offset 0
 192              		.cfi_restore 3
 193              		.cfi_restore 14
 194 000c 7047     		bx	lr
 195              		.cfi_endproc
 196              	.LFE205:
 197              		.size	_ui_image_set_property, .-_ui_image_set_property
ARM GAS  C:\Users\haske\AppData\Local\Temp\ccWs1cKl.s 			page 5


 198 000e 00BF     		.section	.text._ui_label_set_property,"ax",%progbits
 199              		.align	2
 200              		.global	_ui_label_set_property
 201              		.thumb
 202              		.thumb_func
 203              		.type	_ui_label_set_property, %function
 204              	_ui_label_set_property:
 205              	.LFB206:
  30:ui\ui_helpers.c **** }
  31:ui\ui_helpers.c **** 
  32:ui\ui_helpers.c **** void _ui_label_set_property(lv_obj_t * target, int id, const char * val)
  33:ui\ui_helpers.c **** {
 206              		.loc 1 33 0
 207              		.cfi_startproc
 208              		@ args = 0, pretend = 0, frame = 0
 209              		@ frame_needed = 0, uses_anonymous_args = 0
 210              	.LVL19:
  34:ui\ui_helpers.c ****     if(id == _UI_LABEL_PROPERTY_TEXT) lv_label_set_text(target, val);
 211              		.loc 1 34 0
 212 0000 21B9     		cbnz	r1, .L22
  33:ui\ui_helpers.c ****     if(id == _UI_LABEL_PROPERTY_TEXT) lv_label_set_text(target, val);
 213              		.loc 1 33 0 discriminator 1
 214 0002 08B5     		push	{r3, lr}
 215              		.cfi_def_cfa_offset 8
 216              		.cfi_offset 3, -8
 217              		.cfi_offset 14, -4
 218 0004 1146     		mov	r1, r2
 219              	.LVL20:
 220              		.loc 1 34 0 discriminator 1
 221 0006 FFF7FEFF 		bl	lv_label_set_text
 222              	.LVL21:
 223 000a 08BD     		pop	{r3, pc}
 224              	.LVL22:
 225              	.L22:
 226              		.cfi_def_cfa_offset 0
 227              		.cfi_restore 3
 228              		.cfi_restore 14
 229 000c 7047     		bx	lr
 230              		.cfi_endproc
 231              	.LFE206:
 232              		.size	_ui_label_set_property, .-_ui_label_set_property
 233 000e 00BF     		.section	.text._ui_roller_set_property,"ax",%progbits
 234              		.align	2
 235              		.global	_ui_roller_set_property
 236              		.thumb
 237              		.thumb_func
 238              		.type	_ui_roller_set_property, %function
 239              	_ui_roller_set_property:
 240              	.LFB207:
  35:ui\ui_helpers.c **** }
  36:ui\ui_helpers.c **** 
  37:ui\ui_helpers.c **** void _ui_roller_set_property(lv_obj_t * target, int id, int val)
  38:ui\ui_helpers.c **** {
 241              		.loc 1 38 0
 242              		.cfi_startproc
 243              		@ args = 0, pretend = 0, frame = 0
 244              		@ frame_needed = 0, uses_anonymous_args = 0
ARM GAS  C:\Users\haske\AppData\Local\Temp\ccWs1cKl.s 			page 6


 245              	.LVL23:
 246 0000 70B5     		push	{r4, r5, r6, lr}
 247              		.cfi_def_cfa_offset 16
 248              		.cfi_offset 4, -16
 249              		.cfi_offset 5, -12
 250              		.cfi_offset 6, -8
 251              		.cfi_offset 14, -4
 252 0002 0546     		mov	r5, r0
 253 0004 0C46     		mov	r4, r1
 254 0006 1646     		mov	r6, r2
  39:ui\ui_helpers.c ****     if(id == _UI_ROLLER_PROPERTY_SELECTED_WITH_ANIM) lv_roller_set_selected(target, val, LV_ANIM_ON
 255              		.loc 1 39 0
 256 0008 0129     		cmp	r1, #1
 257 000a 03D1     		bne	.L24
 258              		.loc 1 39 0 is_stmt 0 discriminator 1
 259 000c 0122     		movs	r2, #1
 260              	.LVL24:
 261 000e B1B2     		uxth	r1, r6
 262              	.LVL25:
 263 0010 FFF7FEFF 		bl	lv_roller_set_selected
 264              	.LVL26:
 265              	.L24:
  40:ui\ui_helpers.c ****     if(id == _UI_ROLLER_PROPERTY_SELECTED) lv_roller_set_selected(target, val, LV_ANIM_OFF);
 266              		.loc 1 40 0 is_stmt 1
 267 0014 24B9     		cbnz	r4, .L23
 268              		.loc 1 40 0 is_stmt 0 discriminator 1
 269 0016 0022     		movs	r2, #0
 270 0018 B1B2     		uxth	r1, r6
 271 001a 2846     		mov	r0, r5
 272 001c FFF7FEFF 		bl	lv_roller_set_selected
 273              	.LVL27:
 274              	.L23:
 275 0020 70BD     		pop	{r4, r5, r6, pc}
 276              		.cfi_endproc
 277              	.LFE207:
 278              		.size	_ui_roller_set_property, .-_ui_roller_set_property
 279 0022 00BF     		.section	.text._ui_slider_set_property,"ax",%progbits
 280              		.align	2
 281              		.global	_ui_slider_set_property
 282              		.thumb
 283              		.thumb_func
 284              		.type	_ui_slider_set_property, %function
 285              	_ui_slider_set_property:
 286              	.LFB208:
  41:ui\ui_helpers.c **** }
  42:ui\ui_helpers.c **** 
  43:ui\ui_helpers.c **** void _ui_slider_set_property(lv_obj_t * target, int id, int val)
  44:ui\ui_helpers.c **** {
 287              		.loc 1 44 0 is_stmt 1
 288              		.cfi_startproc
 289              		@ args = 0, pretend = 0, frame = 0
 290              		@ frame_needed = 0, uses_anonymous_args = 0
 291              	.LVL28:
 292 0000 70B5     		push	{r4, r5, r6, lr}
 293              		.cfi_def_cfa_offset 16
 294              		.cfi_offset 4, -16
 295              		.cfi_offset 5, -12
ARM GAS  C:\Users\haske\AppData\Local\Temp\ccWs1cKl.s 			page 7


 296              		.cfi_offset 6, -8
 297              		.cfi_offset 14, -4
 298 0002 0546     		mov	r5, r0
 299 0004 0C46     		mov	r4, r1
 300 0006 1646     		mov	r6, r2
  45:ui\ui_helpers.c ****     if(id == _UI_SLIDER_PROPERTY_VALUE_WITH_ANIM) lv_slider_set_value(target, val, LV_ANIM_ON);
 301              		.loc 1 45 0
 302 0008 0129     		cmp	r1, #1
 303 000a 03D1     		bne	.L28
 304              	.LVL29:
 305              	.LBB14:
 306              	.LBB15:
 307              		.file 2 ".\\lvgl-release-v8.3/./src/widgets/lv_slider.h"
   1:.\lvgl-release-v8.3/./src/widgets/lv_slider.h **** /**
   2:.\lvgl-release-v8.3/./src/widgets/lv_slider.h ****  * @file lv_slider.h
   3:.\lvgl-release-v8.3/./src/widgets/lv_slider.h ****  *
   4:.\lvgl-release-v8.3/./src/widgets/lv_slider.h ****  */
   5:.\lvgl-release-v8.3/./src/widgets/lv_slider.h **** 
   6:.\lvgl-release-v8.3/./src/widgets/lv_slider.h **** #ifndef LV_SLIDER_H
   7:.\lvgl-release-v8.3/./src/widgets/lv_slider.h **** #define LV_SLIDER_H
   8:.\lvgl-release-v8.3/./src/widgets/lv_slider.h **** 
   9:.\lvgl-release-v8.3/./src/widgets/lv_slider.h **** #ifdef __cplusplus
  10:.\lvgl-release-v8.3/./src/widgets/lv_slider.h **** extern "C" {
  11:.\lvgl-release-v8.3/./src/widgets/lv_slider.h **** #endif
  12:.\lvgl-release-v8.3/./src/widgets/lv_slider.h **** 
  13:.\lvgl-release-v8.3/./src/widgets/lv_slider.h **** /*********************
  14:.\lvgl-release-v8.3/./src/widgets/lv_slider.h ****  *      INCLUDES
  15:.\lvgl-release-v8.3/./src/widgets/lv_slider.h ****  *********************/
  16:.\lvgl-release-v8.3/./src/widgets/lv_slider.h **** #include "../lv_conf_internal.h"
  17:.\lvgl-release-v8.3/./src/widgets/lv_slider.h **** 
  18:.\lvgl-release-v8.3/./src/widgets/lv_slider.h **** #if LV_USE_SLIDER != 0
  19:.\lvgl-release-v8.3/./src/widgets/lv_slider.h **** 
  20:.\lvgl-release-v8.3/./src/widgets/lv_slider.h **** /*Testing of dependencies*/
  21:.\lvgl-release-v8.3/./src/widgets/lv_slider.h **** #if LV_USE_BAR == 0
  22:.\lvgl-release-v8.3/./src/widgets/lv_slider.h **** #error "lv_slider: lv_bar is required. Enable it in lv_conf.h (LV_USE_BAR 1)"
  23:.\lvgl-release-v8.3/./src/widgets/lv_slider.h **** #endif
  24:.\lvgl-release-v8.3/./src/widgets/lv_slider.h **** 
  25:.\lvgl-release-v8.3/./src/widgets/lv_slider.h **** #include "../core/lv_obj.h"
  26:.\lvgl-release-v8.3/./src/widgets/lv_slider.h **** #include "lv_bar.h"
  27:.\lvgl-release-v8.3/./src/widgets/lv_slider.h **** 
  28:.\lvgl-release-v8.3/./src/widgets/lv_slider.h **** /*********************
  29:.\lvgl-release-v8.3/./src/widgets/lv_slider.h ****  *      DEFINES
  30:.\lvgl-release-v8.3/./src/widgets/lv_slider.h ****  *********************/
  31:.\lvgl-release-v8.3/./src/widgets/lv_slider.h **** 
  32:.\lvgl-release-v8.3/./src/widgets/lv_slider.h **** /**********************
  33:.\lvgl-release-v8.3/./src/widgets/lv_slider.h ****  *      TYPEDEFS
  34:.\lvgl-release-v8.3/./src/widgets/lv_slider.h ****  **********************/
  35:.\lvgl-release-v8.3/./src/widgets/lv_slider.h **** 
  36:.\lvgl-release-v8.3/./src/widgets/lv_slider.h **** enum {
  37:.\lvgl-release-v8.3/./src/widgets/lv_slider.h ****     LV_SLIDER_MODE_NORMAL = LV_BAR_MODE_NORMAL,
  38:.\lvgl-release-v8.3/./src/widgets/lv_slider.h ****     LV_SLIDER_MODE_SYMMETRICAL = LV_BAR_MODE_SYMMETRICAL,
  39:.\lvgl-release-v8.3/./src/widgets/lv_slider.h ****     LV_SLIDER_MODE_RANGE = LV_BAR_MODE_RANGE
  40:.\lvgl-release-v8.3/./src/widgets/lv_slider.h **** };
  41:.\lvgl-release-v8.3/./src/widgets/lv_slider.h **** typedef uint8_t lv_slider_mode_t;
  42:.\lvgl-release-v8.3/./src/widgets/lv_slider.h **** 
  43:.\lvgl-release-v8.3/./src/widgets/lv_slider.h **** typedef struct {
  44:.\lvgl-release-v8.3/./src/widgets/lv_slider.h ****     lv_bar_t bar;       /*Add the ancestor's type first*/
ARM GAS  C:\Users\haske\AppData\Local\Temp\ccWs1cKl.s 			page 8


  45:.\lvgl-release-v8.3/./src/widgets/lv_slider.h ****     lv_area_t left_knob_area;
  46:.\lvgl-release-v8.3/./src/widgets/lv_slider.h ****     lv_area_t right_knob_area;
  47:.\lvgl-release-v8.3/./src/widgets/lv_slider.h ****     int32_t * value_to_set; /*Which bar value to set*/
  48:.\lvgl-release-v8.3/./src/widgets/lv_slider.h ****     uint8_t dragging : 1;       /*1: the slider is being dragged*/
  49:.\lvgl-release-v8.3/./src/widgets/lv_slider.h ****     uint8_t left_knob_focus : 1; /*1: with encoder now the right knob can be adjusted*/
  50:.\lvgl-release-v8.3/./src/widgets/lv_slider.h **** } lv_slider_t;
  51:.\lvgl-release-v8.3/./src/widgets/lv_slider.h **** 
  52:.\lvgl-release-v8.3/./src/widgets/lv_slider.h **** extern const lv_obj_class_t lv_slider_class;
  53:.\lvgl-release-v8.3/./src/widgets/lv_slider.h **** 
  54:.\lvgl-release-v8.3/./src/widgets/lv_slider.h **** /**
  55:.\lvgl-release-v8.3/./src/widgets/lv_slider.h ****  * `type` field in `lv_obj_draw_part_dsc_t` if `class_p = lv_slider_class`
  56:.\lvgl-release-v8.3/./src/widgets/lv_slider.h ****  * Used in `LV_EVENT_DRAW_PART_BEGIN` and `LV_EVENT_DRAW_PART_END`
  57:.\lvgl-release-v8.3/./src/widgets/lv_slider.h ****  */
  58:.\lvgl-release-v8.3/./src/widgets/lv_slider.h **** typedef enum {
  59:.\lvgl-release-v8.3/./src/widgets/lv_slider.h ****     LV_SLIDER_DRAW_PART_KNOB,           /**< The main (right) knob's rectangle*/
  60:.\lvgl-release-v8.3/./src/widgets/lv_slider.h ****     LV_SLIDER_DRAW_PART_KNOB_LEFT,      /**< The left knob's rectangle*/
  61:.\lvgl-release-v8.3/./src/widgets/lv_slider.h **** } lv_slider_draw_part_type_t;
  62:.\lvgl-release-v8.3/./src/widgets/lv_slider.h **** 
  63:.\lvgl-release-v8.3/./src/widgets/lv_slider.h **** /**********************
  64:.\lvgl-release-v8.3/./src/widgets/lv_slider.h ****  * GLOBAL PROTOTYPES
  65:.\lvgl-release-v8.3/./src/widgets/lv_slider.h ****  **********************/
  66:.\lvgl-release-v8.3/./src/widgets/lv_slider.h **** 
  67:.\lvgl-release-v8.3/./src/widgets/lv_slider.h **** /**
  68:.\lvgl-release-v8.3/./src/widgets/lv_slider.h ****  * Create a slider object
  69:.\lvgl-release-v8.3/./src/widgets/lv_slider.h ****  * @param parent    pointer to an object, it will be the parent of the new slider.
  70:.\lvgl-release-v8.3/./src/widgets/lv_slider.h ****  * @return          pointer to the created slider
  71:.\lvgl-release-v8.3/./src/widgets/lv_slider.h ****  */
  72:.\lvgl-release-v8.3/./src/widgets/lv_slider.h **** lv_obj_t * lv_slider_create(lv_obj_t * parent);
  73:.\lvgl-release-v8.3/./src/widgets/lv_slider.h **** 
  74:.\lvgl-release-v8.3/./src/widgets/lv_slider.h **** /*=====================
  75:.\lvgl-release-v8.3/./src/widgets/lv_slider.h ****  * Setter functions
  76:.\lvgl-release-v8.3/./src/widgets/lv_slider.h ****  *====================*/
  77:.\lvgl-release-v8.3/./src/widgets/lv_slider.h **** 
  78:.\lvgl-release-v8.3/./src/widgets/lv_slider.h **** /**
  79:.\lvgl-release-v8.3/./src/widgets/lv_slider.h ****  * Set a new value on the slider
  80:.\lvgl-release-v8.3/./src/widgets/lv_slider.h ****  * @param obj       pointer to a slider object
  81:.\lvgl-release-v8.3/./src/widgets/lv_slider.h ****  * @param value     the new value
  82:.\lvgl-release-v8.3/./src/widgets/lv_slider.h ****  * @param anim      LV_ANIM_ON: set the value with an animation; LV_ANIM_OFF: change the value imme
  83:.\lvgl-release-v8.3/./src/widgets/lv_slider.h ****  */
  84:.\lvgl-release-v8.3/./src/widgets/lv_slider.h **** static inline void lv_slider_set_value(lv_obj_t * obj, int32_t value, lv_anim_enable_t anim)
  85:.\lvgl-release-v8.3/./src/widgets/lv_slider.h **** {
  86:.\lvgl-release-v8.3/./src/widgets/lv_slider.h ****     lv_bar_set_value(obj, value, anim);
 308              		.loc 2 86 0
 309 000c 0122     		movs	r2, #1
 310              	.LVL30:
 311 000e 3146     		mov	r1, r6
 312              	.LVL31:
 313 0010 FFF7FEFF 		bl	lv_bar_set_value
 314              	.LVL32:
 315              	.L28:
 316              	.LBE15:
 317              	.LBE14:
  46:ui\ui_helpers.c ****     if(id == _UI_SLIDER_PROPERTY_VALUE) lv_slider_set_value(target, val, LV_ANIM_OFF);
 318              		.loc 1 46 0
 319 0014 24B9     		cbnz	r4, .L27
 320              	.LVL33:
 321              	.LBB16:
ARM GAS  C:\Users\haske\AppData\Local\Temp\ccWs1cKl.s 			page 9


 322              	.LBB17:
 323              		.loc 2 86 0
 324 0016 0022     		movs	r2, #0
 325 0018 3146     		mov	r1, r6
 326 001a 2846     		mov	r0, r5
 327 001c FFF7FEFF 		bl	lv_bar_set_value
 328              	.LVL34:
 329              	.L27:
 330 0020 70BD     		pop	{r4, r5, r6, pc}
 331              	.LBE17:
 332              	.LBE16:
 333              		.cfi_endproc
 334              	.LFE208:
 335              		.size	_ui_slider_set_property, .-_ui_slider_set_property
 336 0022 00BF     		.section	.text._ui_screen_change,"ax",%progbits
 337              		.align	2
 338              		.global	_ui_screen_change
 339              		.thumb
 340              		.thumb_func
 341              		.type	_ui_screen_change, %function
 342              	_ui_screen_change:
 343              	.LFB209:
  47:ui\ui_helpers.c **** }
  48:ui\ui_helpers.c **** 
  49:ui\ui_helpers.c **** void _ui_screen_change(lv_obj_t ** target, lv_scr_load_anim_t fademode, int spd, int delay, void (*
  50:ui\ui_helpers.c **** {
 344              		.loc 1 50 0
 345              		.cfi_startproc
 346              		@ args = 4, pretend = 0, frame = 0
 347              		@ frame_needed = 0, uses_anonymous_args = 0
 348              	.LVL35:
 349 0000 F0B5     		push	{r4, r5, r6, r7, lr}
 350              		.cfi_def_cfa_offset 20
 351              		.cfi_offset 4, -20
 352              		.cfi_offset 5, -16
 353              		.cfi_offset 6, -12
 354              		.cfi_offset 7, -8
 355              		.cfi_offset 14, -4
 356 0002 83B0     		sub	sp, sp, #12
 357              		.cfi_def_cfa_offset 32
 358 0004 0446     		mov	r4, r0
 359 0006 0D46     		mov	r5, r1
 360 0008 1646     		mov	r6, r2
 361 000a 1F46     		mov	r7, r3
  51:ui\ui_helpers.c ****     if(*target == NULL)
 362              		.loc 1 51 0
 363 000c 0368     		ldr	r3, [r0]
 364              	.LVL36:
 365 000e 0BB9     		cbnz	r3, .L32
  52:ui\ui_helpers.c ****         target_init();
 366              		.loc 1 52 0
 367 0010 089B     		ldr	r3, [sp, #32]
 368 0012 9847     		blx	r3
 369              	.LVL37:
 370              	.L32:
  53:ui\ui_helpers.c ****     lv_scr_load_anim(*target, fademode, spd, delay, false);
 371              		.loc 1 53 0
ARM GAS  C:\Users\haske\AppData\Local\Temp\ccWs1cKl.s 			page 10


 372 0014 2068     		ldr	r0, [r4]
 373 0016 0023     		movs	r3, #0
 374 0018 0093     		str	r3, [sp]
 375 001a 3B46     		mov	r3, r7
 376 001c 3246     		mov	r2, r6
 377 001e 2946     		mov	r1, r5
 378 0020 FFF7FEFF 		bl	lv_scr_load_anim
 379              	.LVL38:
  54:ui\ui_helpers.c **** }
 380              		.loc 1 54 0
 381 0024 03B0     		add	sp, sp, #12
 382              		.cfi_def_cfa_offset 20
 383              		@ sp needed
 384 0026 F0BD     		pop	{r4, r5, r6, r7, pc}
 385              		.cfi_endproc
 386              	.LFE209:
 387              		.size	_ui_screen_change, .-_ui_screen_change
 388              		.section	.text._ui_screen_delete,"ax",%progbits
 389              		.align	2
 390              		.global	_ui_screen_delete
 391              		.thumb
 392              		.thumb_func
 393              		.type	_ui_screen_delete, %function
 394              	_ui_screen_delete:
 395              	.LFB210:
  55:ui\ui_helpers.c **** 
  56:ui\ui_helpers.c **** void _ui_screen_delete(lv_obj_t ** target)
  57:ui\ui_helpers.c **** {
 396              		.loc 1 57 0
 397              		.cfi_startproc
 398              		@ args = 0, pretend = 0, frame = 0
 399              		@ frame_needed = 0, uses_anonymous_args = 0
 400              	.LVL39:
  58:ui\ui_helpers.c ****     if(*target == NULL) {
 401              		.loc 1 58 0
 402 0000 0068     		ldr	r0, [r0]
 403              	.LVL40:
 404 0002 18B9     		cbnz	r0, .L37
  57:ui\ui_helpers.c ****     if(*target == NULL) {
 405              		.loc 1 57 0
 406 0004 08B5     		push	{r3, lr}
 407              		.cfi_def_cfa_offset 8
 408              		.cfi_offset 3, -8
 409              		.cfi_offset 14, -4
  59:ui\ui_helpers.c ****         lv_obj_del(*target);
 410              		.loc 1 59 0
 411 0006 FFF7FEFF 		bl	lv_obj_del
 412              	.LVL41:
 413 000a 08BD     		pop	{r3, pc}
 414              	.LVL42:
 415              	.L37:
 416              		.cfi_def_cfa_offset 0
 417              		.cfi_restore 3
 418              		.cfi_restore 14
 419 000c 7047     		bx	lr
 420              		.cfi_endproc
 421              	.LFE210:
ARM GAS  C:\Users\haske\AppData\Local\Temp\ccWs1cKl.s 			page 11


 422              		.size	_ui_screen_delete, .-_ui_screen_delete
 423 000e 00BF     		.section	.text._ui_arc_increment,"ax",%progbits
 424              		.align	2
 425              		.global	_ui_arc_increment
 426              		.thumb
 427              		.thumb_func
 428              		.type	_ui_arc_increment, %function
 429              	_ui_arc_increment:
 430              	.LFB211:
  60:ui\ui_helpers.c ****         target = NULL;
  61:ui\ui_helpers.c ****     }
  62:ui\ui_helpers.c **** }
  63:ui\ui_helpers.c **** 
  64:ui\ui_helpers.c **** void _ui_arc_increment(lv_obj_t * target, int val)
  65:ui\ui_helpers.c **** {
 431              		.loc 1 65 0
 432              		.cfi_startproc
 433              		@ args = 0, pretend = 0, frame = 0
 434              		@ frame_needed = 0, uses_anonymous_args = 0
 435              	.LVL43:
 436 0000 38B5     		push	{r3, r4, r5, lr}
 437              		.cfi_def_cfa_offset 16
 438              		.cfi_offset 3, -16
 439              		.cfi_offset 4, -12
 440              		.cfi_offset 5, -8
 441              		.cfi_offset 14, -4
 442 0002 0546     		mov	r5, r0
 443 0004 0C46     		mov	r4, r1
  66:ui\ui_helpers.c ****     int old = lv_arc_get_value(target);
 444              		.loc 1 66 0
 445 0006 FFF7FEFF 		bl	lv_arc_get_value
 446              	.LVL44:
  67:ui\ui_helpers.c ****     lv_arc_set_value(target, old + val);
 447              		.loc 1 67 0
 448 000a 0119     		adds	r1, r0, r4
 449 000c 09B2     		sxth	r1, r1
 450 000e 2846     		mov	r0, r5
 451              	.LVL45:
 452 0010 FFF7FEFF 		bl	lv_arc_set_value
 453              	.LVL46:
  68:ui\ui_helpers.c ****     lv_event_send(target, LV_EVENT_VALUE_CHANGED, 0);
 454              		.loc 1 68 0
 455 0014 0022     		movs	r2, #0
 456 0016 1C21     		movs	r1, #28
 457 0018 2846     		mov	r0, r5
 458 001a FFF7FEFF 		bl	lv_event_send
 459              	.LVL47:
 460 001e 38BD     		pop	{r3, r4, r5, pc}
 461              		.cfi_endproc
 462              	.LFE211:
 463              		.size	_ui_arc_increment, .-_ui_arc_increment
 464              		.section	.text._ui_bar_increment,"ax",%progbits
 465              		.align	2
 466              		.global	_ui_bar_increment
 467              		.thumb
 468              		.thumb_func
 469              		.type	_ui_bar_increment, %function
ARM GAS  C:\Users\haske\AppData\Local\Temp\ccWs1cKl.s 			page 12


 470              	_ui_bar_increment:
 471              	.LFB212:
  69:ui\ui_helpers.c **** }
  70:ui\ui_helpers.c **** 
  71:ui\ui_helpers.c **** void _ui_bar_increment(lv_obj_t * target, int val, int anm)
  72:ui\ui_helpers.c **** {
 472              		.loc 1 72 0
 473              		.cfi_startproc
 474              		@ args = 0, pretend = 0, frame = 0
 475              		@ frame_needed = 0, uses_anonymous_args = 0
 476              	.LVL48:
 477 0000 70B5     		push	{r4, r5, r6, lr}
 478              		.cfi_def_cfa_offset 16
 479              		.cfi_offset 4, -16
 480              		.cfi_offset 5, -12
 481              		.cfi_offset 6, -8
 482              		.cfi_offset 14, -4
 483 0002 0446     		mov	r4, r0
 484 0004 0D46     		mov	r5, r1
 485 0006 1646     		mov	r6, r2
  73:ui\ui_helpers.c ****     int old = lv_bar_get_value(target);
 486              		.loc 1 73 0
 487 0008 FFF7FEFF 		bl	lv_bar_get_value
 488              	.LVL49:
  74:ui\ui_helpers.c ****     lv_bar_set_value(target, old + val, anm);
 489              		.loc 1 74 0
 490 000c F2B2     		uxtb	r2, r6
 491 000e 4119     		adds	r1, r0, r5
 492 0010 2046     		mov	r0, r4
 493              	.LVL50:
 494 0012 FFF7FEFF 		bl	lv_bar_set_value
 495              	.LVL51:
 496 0016 70BD     		pop	{r4, r5, r6, pc}
 497              		.cfi_endproc
 498              	.LFE212:
 499              		.size	_ui_bar_increment, .-_ui_bar_increment
 500              		.section	.text._ui_slider_increment,"ax",%progbits
 501              		.align	2
 502              		.global	_ui_slider_increment
 503              		.thumb
 504              		.thumb_func
 505              		.type	_ui_slider_increment, %function
 506              	_ui_slider_increment:
 507              	.LFB213:
  75:ui\ui_helpers.c **** }
  76:ui\ui_helpers.c **** 
  77:ui\ui_helpers.c **** void _ui_slider_increment(lv_obj_t * target, int val, int anm)
  78:ui\ui_helpers.c **** {
 508              		.loc 1 78 0
 509              		.cfi_startproc
 510              		@ args = 0, pretend = 0, frame = 0
 511              		@ frame_needed = 0, uses_anonymous_args = 0
 512              	.LVL52:
 513 0000 70B5     		push	{r4, r5, r6, lr}
 514              		.cfi_def_cfa_offset 16
 515              		.cfi_offset 4, -16
 516              		.cfi_offset 5, -12
ARM GAS  C:\Users\haske\AppData\Local\Temp\ccWs1cKl.s 			page 13


 517              		.cfi_offset 6, -8
 518              		.cfi_offset 14, -4
 519 0002 0446     		mov	r4, r0
 520 0004 0D46     		mov	r5, r1
 521 0006 1646     		mov	r6, r2
 522              	.LVL53:
 523              	.LBB18:
 524              	.LBB19:
  87:.\lvgl-release-v8.3/./src/widgets/lv_slider.h **** }
  88:.\lvgl-release-v8.3/./src/widgets/lv_slider.h **** 
  89:.\lvgl-release-v8.3/./src/widgets/lv_slider.h **** /**
  90:.\lvgl-release-v8.3/./src/widgets/lv_slider.h ****  * Set a new value for the left knob of a slider
  91:.\lvgl-release-v8.3/./src/widgets/lv_slider.h ****  * @param obj       pointer to a slider object
  92:.\lvgl-release-v8.3/./src/widgets/lv_slider.h ****  * @param value     new value
  93:.\lvgl-release-v8.3/./src/widgets/lv_slider.h ****  * @param anim      LV_ANIM_ON: set the value with an animation; LV_ANIM_OFF: change the value imme
  94:.\lvgl-release-v8.3/./src/widgets/lv_slider.h ****  */
  95:.\lvgl-release-v8.3/./src/widgets/lv_slider.h **** static inline void lv_slider_set_left_value(lv_obj_t * obj, int32_t value, lv_anim_enable_t anim)
  96:.\lvgl-release-v8.3/./src/widgets/lv_slider.h **** {
  97:.\lvgl-release-v8.3/./src/widgets/lv_slider.h ****     lv_bar_set_start_value(obj, value, anim);
  98:.\lvgl-release-v8.3/./src/widgets/lv_slider.h **** }
  99:.\lvgl-release-v8.3/./src/widgets/lv_slider.h **** 
 100:.\lvgl-release-v8.3/./src/widgets/lv_slider.h **** /**
 101:.\lvgl-release-v8.3/./src/widgets/lv_slider.h ****  * Set minimum and the maximum values of a bar
 102:.\lvgl-release-v8.3/./src/widgets/lv_slider.h ****  * @param obj       pointer to the slider object
 103:.\lvgl-release-v8.3/./src/widgets/lv_slider.h ****  * @param min       minimum value
 104:.\lvgl-release-v8.3/./src/widgets/lv_slider.h ****  * @param max       maximum value
 105:.\lvgl-release-v8.3/./src/widgets/lv_slider.h ****  */
 106:.\lvgl-release-v8.3/./src/widgets/lv_slider.h **** static inline void lv_slider_set_range(lv_obj_t * obj, int32_t min, int32_t max)
 107:.\lvgl-release-v8.3/./src/widgets/lv_slider.h **** {
 108:.\lvgl-release-v8.3/./src/widgets/lv_slider.h ****     lv_bar_set_range(obj, min, max);
 109:.\lvgl-release-v8.3/./src/widgets/lv_slider.h **** }
 110:.\lvgl-release-v8.3/./src/widgets/lv_slider.h **** 
 111:.\lvgl-release-v8.3/./src/widgets/lv_slider.h **** /**
 112:.\lvgl-release-v8.3/./src/widgets/lv_slider.h ****  * Set the mode of slider.
 113:.\lvgl-release-v8.3/./src/widgets/lv_slider.h ****  * @param obj       pointer to a slider object
 114:.\lvgl-release-v8.3/./src/widgets/lv_slider.h ****  * @param mode      the mode of the slider. See ::lv_slider_mode_t
 115:.\lvgl-release-v8.3/./src/widgets/lv_slider.h ****  */
 116:.\lvgl-release-v8.3/./src/widgets/lv_slider.h **** static inline void lv_slider_set_mode(lv_obj_t * obj, lv_slider_mode_t mode)
 117:.\lvgl-release-v8.3/./src/widgets/lv_slider.h **** {
 118:.\lvgl-release-v8.3/./src/widgets/lv_slider.h ****     lv_bar_set_mode(obj, (lv_bar_mode_t)mode);
 119:.\lvgl-release-v8.3/./src/widgets/lv_slider.h **** }
 120:.\lvgl-release-v8.3/./src/widgets/lv_slider.h **** 
 121:.\lvgl-release-v8.3/./src/widgets/lv_slider.h **** /*=====================
 122:.\lvgl-release-v8.3/./src/widgets/lv_slider.h ****  * Getter functions
 123:.\lvgl-release-v8.3/./src/widgets/lv_slider.h ****  *====================*/
 124:.\lvgl-release-v8.3/./src/widgets/lv_slider.h **** 
 125:.\lvgl-release-v8.3/./src/widgets/lv_slider.h **** /**
 126:.\lvgl-release-v8.3/./src/widgets/lv_slider.h ****  * Get the value of the main knob of a slider
 127:.\lvgl-release-v8.3/./src/widgets/lv_slider.h ****  * @param obj       pointer to a slider object
 128:.\lvgl-release-v8.3/./src/widgets/lv_slider.h ****  * @return          the value of the main knob of the slider
 129:.\lvgl-release-v8.3/./src/widgets/lv_slider.h ****  */
 130:.\lvgl-release-v8.3/./src/widgets/lv_slider.h **** static inline int32_t lv_slider_get_value(const lv_obj_t * obj)
 131:.\lvgl-release-v8.3/./src/widgets/lv_slider.h **** {
 132:.\lvgl-release-v8.3/./src/widgets/lv_slider.h ****     return lv_bar_get_value(obj);
 525              		.loc 2 132 0
 526 0008 FFF7FEFF 		bl	lv_bar_get_value
 527              	.LVL54:
ARM GAS  C:\Users\haske\AppData\Local\Temp\ccWs1cKl.s 			page 14


 528              	.LBE19:
 529              	.LBE18:
 530              	.LBB20:
 531              	.LBB21:
  86:.\lvgl-release-v8.3/./src/widgets/lv_slider.h **** }
 532              		.loc 2 86 0
 533 000c F2B2     		uxtb	r2, r6
 534 000e 2918     		adds	r1, r5, r0
 535              	.LVL55:
 536 0010 2046     		mov	r0, r4
 537 0012 FFF7FEFF 		bl	lv_bar_set_value
 538              	.LVL56:
 539              	.LBE21:
 540              	.LBE20:
  79:ui\ui_helpers.c ****     int old = lv_slider_get_value(target);
  80:ui\ui_helpers.c ****     lv_slider_set_value(target, old + val, anm);
  81:ui\ui_helpers.c ****     lv_event_send(target, LV_EVENT_VALUE_CHANGED, 0);
 541              		.loc 1 81 0
 542 0016 0022     		movs	r2, #0
 543 0018 1C21     		movs	r1, #28
 544 001a 2046     		mov	r0, r4
 545 001c FFF7FEFF 		bl	lv_event_send
 546              	.LVL57:
 547 0020 70BD     		pop	{r4, r5, r6, pc}
 548              		.cfi_endproc
 549              	.LFE213:
 550              		.size	_ui_slider_increment, .-_ui_slider_increment
 551 0022 00BF     		.section	.text._ui_keyboard_set_target,"ax",%progbits
 552              		.align	2
 553              		.global	_ui_keyboard_set_target
 554              		.thumb
 555              		.thumb_func
 556              		.type	_ui_keyboard_set_target, %function
 557              	_ui_keyboard_set_target:
 558              	.LFB214:
  82:ui\ui_helpers.c **** }
  83:ui\ui_helpers.c **** 
  84:ui\ui_helpers.c **** void _ui_keyboard_set_target(lv_obj_t * keyboard, lv_obj_t * textarea)
  85:ui\ui_helpers.c **** {
 559              		.loc 1 85 0
 560              		.cfi_startproc
 561              		@ args = 0, pretend = 0, frame = 0
 562              		@ frame_needed = 0, uses_anonymous_args = 0
 563              	.LVL58:
 564 0000 08B5     		push	{r3, lr}
 565              		.cfi_def_cfa_offset 8
 566              		.cfi_offset 3, -8
 567              		.cfi_offset 14, -4
  86:ui\ui_helpers.c ****     lv_keyboard_set_textarea(keyboard, textarea);
 568              		.loc 1 86 0
 569 0002 FFF7FEFF 		bl	lv_keyboard_set_textarea
 570              	.LVL59:
 571 0006 08BD     		pop	{r3, pc}
 572              		.cfi_endproc
 573              	.LFE214:
 574              		.size	_ui_keyboard_set_target, .-_ui_keyboard_set_target
 575              		.section	.text._ui_flag_modify,"ax",%progbits
ARM GAS  C:\Users\haske\AppData\Local\Temp\ccWs1cKl.s 			page 15


 576              		.align	2
 577              		.global	_ui_flag_modify
 578              		.thumb
 579              		.thumb_func
 580              		.type	_ui_flag_modify, %function
 581              	_ui_flag_modify:
 582              	.LFB215:
  87:ui\ui_helpers.c **** }
  88:ui\ui_helpers.c **** 
  89:ui\ui_helpers.c **** void _ui_flag_modify(lv_obj_t * target, int32_t flag, int value)
  90:ui\ui_helpers.c **** {
 583              		.loc 1 90 0
 584              		.cfi_startproc
 585              		@ args = 0, pretend = 0, frame = 0
 586              		@ frame_needed = 0, uses_anonymous_args = 0
 587              	.LVL60:
 588 0000 38B5     		push	{r3, r4, r5, lr}
 589              		.cfi_def_cfa_offset 16
 590              		.cfi_offset 3, -16
 591              		.cfi_offset 4, -12
 592              		.cfi_offset 5, -8
 593              		.cfi_offset 14, -4
 594 0002 0446     		mov	r4, r0
 595 0004 0D46     		mov	r5, r1
  91:ui\ui_helpers.c ****     if(value == _UI_MODIFY_FLAG_TOGGLE) {
 596              		.loc 1 91 0
 597 0006 022A     		cmp	r2, #2
 598 0008 0CD1     		bne	.L47
  92:ui\ui_helpers.c ****         if(lv_obj_has_flag(target, flag)) lv_obj_clear_flag(target, flag);
 599              		.loc 1 92 0
 600 000a FFF7FEFF 		bl	lv_obj_has_flag
 601              	.LVL61:
 602 000e 20B1     		cbz	r0, .L48
 603              		.loc 1 92 0 is_stmt 0 discriminator 1
 604 0010 2946     		mov	r1, r5
 605 0012 2046     		mov	r0, r4
 606 0014 FFF7FEFF 		bl	lv_obj_clear_flag
 607              	.LVL62:
 608 0018 38BD     		pop	{r3, r4, r5, pc}
 609              	.LVL63:
 610              	.L48:
  93:ui\ui_helpers.c ****         else lv_obj_add_flag(target, flag);
 611              		.loc 1 93 0 is_stmt 1
 612 001a 2946     		mov	r1, r5
 613 001c 2046     		mov	r0, r4
 614 001e FFF7FEFF 		bl	lv_obj_add_flag
 615              	.LVL64:
 616 0022 38BD     		pop	{r3, r4, r5, pc}
 617              	.LVL65:
 618              	.L47:
  94:ui\ui_helpers.c ****     }
  95:ui\ui_helpers.c ****     else if(value == _UI_MODIFY_FLAG_ADD) lv_obj_add_flag(target, flag);
 619              		.loc 1 95 0
 620 0024 12B9     		cbnz	r2, .L50
 621              		.loc 1 95 0 is_stmt 0 discriminator 1
 622 0026 FFF7FEFF 		bl	lv_obj_add_flag
 623              	.LVL66:
ARM GAS  C:\Users\haske\AppData\Local\Temp\ccWs1cKl.s 			page 16


 624 002a 38BD     		pop	{r3, r4, r5, pc}
 625              	.LVL67:
 626              	.L50:
  96:ui\ui_helpers.c ****     else lv_obj_clear_flag(target, flag);
 627              		.loc 1 96 0 is_stmt 1
 628 002c FFF7FEFF 		bl	lv_obj_clear_flag
 629              	.LVL68:
 630 0030 38BD     		pop	{r3, r4, r5, pc}
 631              		.cfi_endproc
 632              	.LFE215:
 633              		.size	_ui_flag_modify, .-_ui_flag_modify
 634 0032 00BF     		.section	.text._ui_state_modify,"ax",%progbits
 635              		.align	2
 636              		.global	_ui_state_modify
 637              		.thumb
 638              		.thumb_func
 639              		.type	_ui_state_modify, %function
 640              	_ui_state_modify:
 641              	.LFB216:
  97:ui\ui_helpers.c **** }
  98:ui\ui_helpers.c **** void _ui_state_modify(lv_obj_t * target, int32_t state, int value)
  99:ui\ui_helpers.c **** {
 642              		.loc 1 99 0
 643              		.cfi_startproc
 644              		@ args = 0, pretend = 0, frame = 0
 645              		@ frame_needed = 0, uses_anonymous_args = 0
 646              	.LVL69:
 647 0000 38B5     		push	{r3, r4, r5, lr}
 648              		.cfi_def_cfa_offset 16
 649              		.cfi_offset 3, -16
 650              		.cfi_offset 4, -12
 651              		.cfi_offset 5, -8
 652              		.cfi_offset 14, -4
 653 0002 0546     		mov	r5, r0
 100:ui\ui_helpers.c ****     if(value == _UI_MODIFY_STATE_TOGGLE) {
 654              		.loc 1 100 0
 655 0004 022A     		cmp	r2, #2
 656 0006 0ED1     		bne	.L53
 101:ui\ui_helpers.c ****         if(lv_obj_has_state(target, state)) lv_obj_clear_state(target, state);
 657              		.loc 1 101 0
 658 0008 8CB2     		uxth	r4, r1
 659 000a 2146     		mov	r1, r4
 660              	.LVL70:
 661 000c FFF7FEFF 		bl	lv_obj_has_state
 662              	.LVL71:
 663 0010 20B1     		cbz	r0, .L54
 664              		.loc 1 101 0 is_stmt 0 discriminator 1
 665 0012 2146     		mov	r1, r4
 666 0014 2846     		mov	r0, r5
 667 0016 FFF7FEFF 		bl	lv_obj_clear_state
 668              	.LVL72:
 669 001a 38BD     		pop	{r3, r4, r5, pc}
 670              	.LVL73:
 671              	.L54:
 102:ui\ui_helpers.c ****         else lv_obj_add_state(target, state);
 672              		.loc 1 102 0 is_stmt 1
 673 001c 2146     		mov	r1, r4
ARM GAS  C:\Users\haske\AppData\Local\Temp\ccWs1cKl.s 			page 17


 674 001e 2846     		mov	r0, r5
 675 0020 FFF7FEFF 		bl	lv_obj_add_state
 676              	.LVL74:
 677 0024 38BD     		pop	{r3, r4, r5, pc}
 678              	.LVL75:
 679              	.L53:
 103:ui\ui_helpers.c ****     }
 104:ui\ui_helpers.c ****     else if(value == _UI_MODIFY_STATE_ADD) lv_obj_add_state(target, state);
 680              		.loc 1 104 0
 681 0026 1AB9     		cbnz	r2, .L56
 682              		.loc 1 104 0 is_stmt 0 discriminator 1
 683 0028 89B2     		uxth	r1, r1
 684              	.LVL76:
 685 002a FFF7FEFF 		bl	lv_obj_add_state
 686              	.LVL77:
 687 002e 38BD     		pop	{r3, r4, r5, pc}
 688              	.LVL78:
 689              	.L56:
 105:ui\ui_helpers.c ****     else lv_obj_clear_state(target, state);
 690              		.loc 1 105 0 is_stmt 1
 691 0030 89B2     		uxth	r1, r1
 692              	.LVL79:
 693 0032 FFF7FEFF 		bl	lv_obj_clear_state
 694              	.LVL80:
 695 0036 38BD     		pop	{r3, r4, r5, pc}
 696              		.cfi_endproc
 697              	.LFE216:
 698              		.size	_ui_state_modify, .-_ui_state_modify
 699              		.section	.text.scr_unloaded_delete_cb,"ax",%progbits
 700              		.align	2
 701              		.global	scr_unloaded_delete_cb
 702              		.thumb
 703              		.thumb_func
 704              		.type	scr_unloaded_delete_cb, %function
 705              	scr_unloaded_delete_cb:
 706              	.LFB217:
 106:ui\ui_helpers.c **** }
 107:ui\ui_helpers.c **** 
 108:ui\ui_helpers.c **** void scr_unloaded_delete_cb(lv_event_t * e)
 109:ui\ui_helpers.c **** {
 707              		.loc 1 109 0
 708              		.cfi_startproc
 709              		@ args = 0, pretend = 0, frame = 0
 710              		@ frame_needed = 0, uses_anonymous_args = 0
 711              	.LVL81:
 712 0000 10B5     		push	{r4, lr}
 713              		.cfi_def_cfa_offset 8
 714              		.cfi_offset 4, -8
 715              		.cfi_offset 14, -4
 110:ui\ui_helpers.c ****     lv_obj_t ** var = lv_event_get_user_data(e);
 716              		.loc 1 110 0
 717 0002 FFF7FEFF 		bl	lv_event_get_user_data
 718              	.LVL82:
 719 0006 0446     		mov	r4, r0
 720              	.LVL83:
 111:ui\ui_helpers.c ****     lv_obj_del(*var);
 721              		.loc 1 111 0
ARM GAS  C:\Users\haske\AppData\Local\Temp\ccWs1cKl.s 			page 18


 722 0008 0068     		ldr	r0, [r0]
 723              	.LVL84:
 724 000a FFF7FEFF 		bl	lv_obj_del
 725              	.LVL85:
 112:ui\ui_helpers.c ****     (*var) = NULL;
 726              		.loc 1 112 0
 727 000e 0023     		movs	r3, #0
 728 0010 2360     		str	r3, [r4]
 729 0012 10BD     		pop	{r4, pc}
 730              		.cfi_endproc
 731              	.LFE217:
 732              		.size	scr_unloaded_delete_cb, .-scr_unloaded_delete_cb
 733              		.section	.text._ui_opacity_set,"ax",%progbits
 734              		.align	2
 735              		.global	_ui_opacity_set
 736              		.thumb
 737              		.thumb_func
 738              		.type	_ui_opacity_set, %function
 739              	_ui_opacity_set:
 740              	.LFB218:
 113:ui\ui_helpers.c **** }
 114:ui\ui_helpers.c **** 
 115:ui\ui_helpers.c **** void _ui_opacity_set(lv_obj_t * target, int val)
 116:ui\ui_helpers.c **** {
 741              		.loc 1 116 0
 742              		.cfi_startproc
 743              		@ args = 0, pretend = 0, frame = 0
 744              		@ frame_needed = 0, uses_anonymous_args = 0
 745              	.LVL86:
 746 0000 08B5     		push	{r3, lr}
 747              		.cfi_def_cfa_offset 8
 748              		.cfi_offset 3, -8
 749              		.cfi_offset 14, -4
 117:ui\ui_helpers.c ****     lv_obj_set_style_opa(target, val, 0);
 750              		.loc 1 117 0
 751 0002 0022     		movs	r2, #0
 752 0004 C9B2     		uxtb	r1, r1
 753              	.LVL87:
 754 0006 FFF7FEFF 		bl	lv_obj_set_style_opa
 755              	.LVL88:
 756 000a 08BD     		pop	{r3, pc}
 757              		.cfi_endproc
 758              	.LFE218:
 759              		.size	_ui_opacity_set, .-_ui_opacity_set
 760              		.section	.text._ui_anim_callback_free_user_data,"ax",%progbits
 761              		.align	2
 762              		.global	_ui_anim_callback_free_user_data
 763              		.thumb
 764              		.thumb_func
 765              		.type	_ui_anim_callback_free_user_data, %function
 766              	_ui_anim_callback_free_user_data:
 767              	.LFB219:
 118:ui\ui_helpers.c **** }
 119:ui\ui_helpers.c **** 
 120:ui\ui_helpers.c **** void _ui_anim_callback_free_user_data(lv_anim_t * a)
 121:ui\ui_helpers.c **** {
 768              		.loc 1 121 0
ARM GAS  C:\Users\haske\AppData\Local\Temp\ccWs1cKl.s 			page 19


 769              		.cfi_startproc
 770              		@ args = 0, pretend = 0, frame = 0
 771              		@ frame_needed = 0, uses_anonymous_args = 0
 772              	.LVL89:
 773 0000 10B5     		push	{r4, lr}
 774              		.cfi_def_cfa_offset 8
 775              		.cfi_offset 4, -8
 776              		.cfi_offset 14, -4
 777 0002 0446     		mov	r4, r0
 122:ui\ui_helpers.c ****     lv_mem_free(a->user_data);
 778              		.loc 1 122 0
 779 0004 8069     		ldr	r0, [r0, #24]
 780              	.LVL90:
 781 0006 FFF7FEFF 		bl	lv_mem_free
 782              	.LVL91:
 123:ui\ui_helpers.c ****     a->user_data = NULL;
 783              		.loc 1 123 0
 784 000a 0023     		movs	r3, #0
 785 000c A361     		str	r3, [r4, #24]
 786 000e 10BD     		pop	{r4, pc}
 787              		.cfi_endproc
 788              	.LFE219:
 789              		.size	_ui_anim_callback_free_user_data, .-_ui_anim_callback_free_user_data
 790              		.section	.text._ui_anim_callback_set_x,"ax",%progbits
 791              		.align	2
 792              		.global	_ui_anim_callback_set_x
 793              		.thumb
 794              		.thumb_func
 795              		.type	_ui_anim_callback_set_x, %function
 796              	_ui_anim_callback_set_x:
 797              	.LFB220:
 124:ui\ui_helpers.c **** }
 125:ui\ui_helpers.c **** 
 126:ui\ui_helpers.c **** void _ui_anim_callback_set_x(lv_anim_t * a, int32_t v)
 127:ui\ui_helpers.c **** {
 798              		.loc 1 127 0
 799              		.cfi_startproc
 800              		@ args = 0, pretend = 0, frame = 0
 801              		@ frame_needed = 0, uses_anonymous_args = 0
 802              	.LVL92:
 803 0000 08B5     		push	{r3, lr}
 804              		.cfi_def_cfa_offset 8
 805              		.cfi_offset 3, -8
 806              		.cfi_offset 14, -4
 128:ui\ui_helpers.c ****     ui_anim_user_data_t * usr = (ui_anim_user_data_t *)a->user_data;
 807              		.loc 1 128 0
 808 0002 8369     		ldr	r3, [r0, #24]
 809              	.LVL93:
 129:ui\ui_helpers.c ****     lv_obj_set_x(usr->target, v);
 810              		.loc 1 129 0
 811 0004 09B2     		sxth	r1, r1
 812              	.LVL94:
 813 0006 1868     		ldr	r0, [r3]
 814              	.LVL95:
 815 0008 FFF7FEFF 		bl	lv_obj_set_x
 816              	.LVL96:
 817 000c 08BD     		pop	{r3, pc}
ARM GAS  C:\Users\haske\AppData\Local\Temp\ccWs1cKl.s 			page 20


 818              		.cfi_endproc
 819              	.LFE220:
 820              		.size	_ui_anim_callback_set_x, .-_ui_anim_callback_set_x
 821 000e 00BF     		.section	.text._ui_anim_callback_set_y,"ax",%progbits
 822              		.align	2
 823              		.global	_ui_anim_callback_set_y
 824              		.thumb
 825              		.thumb_func
 826              		.type	_ui_anim_callback_set_y, %function
 827              	_ui_anim_callback_set_y:
 828              	.LFB221:
 130:ui\ui_helpers.c **** }
 131:ui\ui_helpers.c **** 
 132:ui\ui_helpers.c **** void _ui_anim_callback_set_y(lv_anim_t * a, int32_t v)
 133:ui\ui_helpers.c **** {
 829              		.loc 1 133 0
 830              		.cfi_startproc
 831              		@ args = 0, pretend = 0, frame = 0
 832              		@ frame_needed = 0, uses_anonymous_args = 0
 833              	.LVL97:
 834 0000 08B5     		push	{r3, lr}
 835              		.cfi_def_cfa_offset 8
 836              		.cfi_offset 3, -8
 837              		.cfi_offset 14, -4
 134:ui\ui_helpers.c ****     ui_anim_user_data_t * usr = (ui_anim_user_data_t *)a->user_data;
 838              		.loc 1 134 0
 839 0002 8369     		ldr	r3, [r0, #24]
 840              	.LVL98:
 135:ui\ui_helpers.c ****     lv_obj_set_y(usr->target, v);
 841              		.loc 1 135 0
 842 0004 09B2     		sxth	r1, r1
 843              	.LVL99:
 844 0006 1868     		ldr	r0, [r3]
 845              	.LVL100:
 846 0008 FFF7FEFF 		bl	lv_obj_set_y
 847              	.LVL101:
 848 000c 08BD     		pop	{r3, pc}
 849              		.cfi_endproc
 850              	.LFE221:
 851              		.size	_ui_anim_callback_set_y, .-_ui_anim_callback_set_y
 852 000e 00BF     		.section	.text._ui_anim_callback_set_width,"ax",%progbits
 853              		.align	2
 854              		.global	_ui_anim_callback_set_width
 855              		.thumb
 856              		.thumb_func
 857              		.type	_ui_anim_callback_set_width, %function
 858              	_ui_anim_callback_set_width:
 859              	.LFB222:
 136:ui\ui_helpers.c **** }
 137:ui\ui_helpers.c **** 
 138:ui\ui_helpers.c **** void _ui_anim_callback_set_width(lv_anim_t * a, int32_t v)
 139:ui\ui_helpers.c **** {
 860              		.loc 1 139 0
 861              		.cfi_startproc
 862              		@ args = 0, pretend = 0, frame = 0
 863              		@ frame_needed = 0, uses_anonymous_args = 0
 864              	.LVL102:
ARM GAS  C:\Users\haske\AppData\Local\Temp\ccWs1cKl.s 			page 21


 865 0000 08B5     		push	{r3, lr}
 866              		.cfi_def_cfa_offset 8
 867              		.cfi_offset 3, -8
 868              		.cfi_offset 14, -4
 140:ui\ui_helpers.c ****     ui_anim_user_data_t * usr = (ui_anim_user_data_t *)a->user_data;
 869              		.loc 1 140 0
 870 0002 8369     		ldr	r3, [r0, #24]
 871              	.LVL103:
 141:ui\ui_helpers.c ****     lv_obj_set_width(usr->target, v);
 872              		.loc 1 141 0
 873 0004 09B2     		sxth	r1, r1
 874              	.LVL104:
 875 0006 1868     		ldr	r0, [r3]
 876              	.LVL105:
 877 0008 FFF7FEFF 		bl	lv_obj_set_width
 878              	.LVL106:
 879 000c 08BD     		pop	{r3, pc}
 880              		.cfi_endproc
 881              	.LFE222:
 882              		.size	_ui_anim_callback_set_width, .-_ui_anim_callback_set_width
 883 000e 00BF     		.section	.text._ui_anim_callback_set_height,"ax",%progbits
 884              		.align	2
 885              		.global	_ui_anim_callback_set_height
 886              		.thumb
 887              		.thumb_func
 888              		.type	_ui_anim_callback_set_height, %function
 889              	_ui_anim_callback_set_height:
 890              	.LFB223:
 142:ui\ui_helpers.c **** }
 143:ui\ui_helpers.c **** 
 144:ui\ui_helpers.c **** void _ui_anim_callback_set_height(lv_anim_t * a, int32_t v)
 145:ui\ui_helpers.c **** {
 891              		.loc 1 145 0
 892              		.cfi_startproc
 893              		@ args = 0, pretend = 0, frame = 0
 894              		@ frame_needed = 0, uses_anonymous_args = 0
 895              	.LVL107:
 896 0000 08B5     		push	{r3, lr}
 897              		.cfi_def_cfa_offset 8
 898              		.cfi_offset 3, -8
 899              		.cfi_offset 14, -4
 146:ui\ui_helpers.c ****     ui_anim_user_data_t * usr = (ui_anim_user_data_t *)a->user_data;
 900              		.loc 1 146 0
 901 0002 8369     		ldr	r3, [r0, #24]
 902              	.LVL108:
 147:ui\ui_helpers.c ****     lv_obj_set_height(usr->target, v);
 903              		.loc 1 147 0
 904 0004 09B2     		sxth	r1, r1
 905              	.LVL109:
 906 0006 1868     		ldr	r0, [r3]
 907              	.LVL110:
 908 0008 FFF7FEFF 		bl	lv_obj_set_height
 909              	.LVL111:
 910 000c 08BD     		pop	{r3, pc}
 911              		.cfi_endproc
 912              	.LFE223:
 913              		.size	_ui_anim_callback_set_height, .-_ui_anim_callback_set_height
ARM GAS  C:\Users\haske\AppData\Local\Temp\ccWs1cKl.s 			page 22


 914 000e 00BF     		.section	.text._ui_anim_callback_set_opacity,"ax",%progbits
 915              		.align	2
 916              		.global	_ui_anim_callback_set_opacity
 917              		.thumb
 918              		.thumb_func
 919              		.type	_ui_anim_callback_set_opacity, %function
 920              	_ui_anim_callback_set_opacity:
 921              	.LFB224:
 148:ui\ui_helpers.c **** }
 149:ui\ui_helpers.c **** 
 150:ui\ui_helpers.c **** void _ui_anim_callback_set_opacity(lv_anim_t * a, int32_t v)
 151:ui\ui_helpers.c **** {
 922              		.loc 1 151 0
 923              		.cfi_startproc
 924              		@ args = 0, pretend = 0, frame = 0
 925              		@ frame_needed = 0, uses_anonymous_args = 0
 926              	.LVL112:
 927 0000 08B5     		push	{r3, lr}
 928              		.cfi_def_cfa_offset 8
 929              		.cfi_offset 3, -8
 930              		.cfi_offset 14, -4
 152:ui\ui_helpers.c ****     ui_anim_user_data_t * usr = (ui_anim_user_data_t *)a->user_data;
 931              		.loc 1 152 0
 932 0002 8369     		ldr	r3, [r0, #24]
 933              	.LVL113:
 153:ui\ui_helpers.c ****     lv_obj_set_style_opa(usr->target, v, 0);
 934              		.loc 1 153 0
 935 0004 0022     		movs	r2, #0
 936 0006 C9B2     		uxtb	r1, r1
 937              	.LVL114:
 938 0008 1868     		ldr	r0, [r3]
 939              	.LVL115:
 940 000a FFF7FEFF 		bl	lv_obj_set_style_opa
 941              	.LVL116:
 942 000e 08BD     		pop	{r3, pc}
 943              		.cfi_endproc
 944              	.LFE224:
 945              		.size	_ui_anim_callback_set_opacity, .-_ui_anim_callback_set_opacity
 946              		.section	.text._ui_anim_callback_set_image_zoom,"ax",%progbits
 947              		.align	2
 948              		.global	_ui_anim_callback_set_image_zoom
 949              		.thumb
 950              		.thumb_func
 951              		.type	_ui_anim_callback_set_image_zoom, %function
 952              	_ui_anim_callback_set_image_zoom:
 953              	.LFB225:
 154:ui\ui_helpers.c **** }
 155:ui\ui_helpers.c **** 
 156:ui\ui_helpers.c **** void _ui_anim_callback_set_image_zoom(lv_anim_t * a, int32_t v)
 157:ui\ui_helpers.c **** {
 954              		.loc 1 157 0
 955              		.cfi_startproc
 956              		@ args = 0, pretend = 0, frame = 0
 957              		@ frame_needed = 0, uses_anonymous_args = 0
 958              	.LVL117:
 959 0000 08B5     		push	{r3, lr}
 960              		.cfi_def_cfa_offset 8
ARM GAS  C:\Users\haske\AppData\Local\Temp\ccWs1cKl.s 			page 23


 961              		.cfi_offset 3, -8
 962              		.cfi_offset 14, -4
 158:ui\ui_helpers.c ****     ui_anim_user_data_t * usr = (ui_anim_user_data_t *)a->user_data;
 963              		.loc 1 158 0
 964 0002 8369     		ldr	r3, [r0, #24]
 965              	.LVL118:
 159:ui\ui_helpers.c ****     lv_img_set_zoom(usr->target, v);
 966              		.loc 1 159 0
 967 0004 89B2     		uxth	r1, r1
 968              	.LVL119:
 969 0006 1868     		ldr	r0, [r3]
 970              	.LVL120:
 971 0008 FFF7FEFF 		bl	lv_img_set_zoom
 972              	.LVL121:
 973 000c 08BD     		pop	{r3, pc}
 974              		.cfi_endproc
 975              	.LFE225:
 976              		.size	_ui_anim_callback_set_image_zoom, .-_ui_anim_callback_set_image_zoom
 977 000e 00BF     		.section	.text._ui_anim_callback_set_image_angle,"ax",%progbits
 978              		.align	2
 979              		.global	_ui_anim_callback_set_image_angle
 980              		.thumb
 981              		.thumb_func
 982              		.type	_ui_anim_callback_set_image_angle, %function
 983              	_ui_anim_callback_set_image_angle:
 984              	.LFB226:
 160:ui\ui_helpers.c **** }
 161:ui\ui_helpers.c **** 
 162:ui\ui_helpers.c **** void _ui_anim_callback_set_image_angle(lv_anim_t * a, int32_t v)
 163:ui\ui_helpers.c **** {
 985              		.loc 1 163 0
 986              		.cfi_startproc
 987              		@ args = 0, pretend = 0, frame = 0
 988              		@ frame_needed = 0, uses_anonymous_args = 0
 989              	.LVL122:
 990 0000 08B5     		push	{r3, lr}
 991              		.cfi_def_cfa_offset 8
 992              		.cfi_offset 3, -8
 993              		.cfi_offset 14, -4
 164:ui\ui_helpers.c ****     ui_anim_user_data_t * usr = (ui_anim_user_data_t *)a->user_data;
 994              		.loc 1 164 0
 995 0002 8369     		ldr	r3, [r0, #24]
 996              	.LVL123:
 165:ui\ui_helpers.c ****     lv_img_set_angle(usr->target, v);
 997              		.loc 1 165 0
 998 0004 09B2     		sxth	r1, r1
 999              	.LVL124:
 1000 0006 1868     		ldr	r0, [r3]
 1001              	.LVL125:
 1002 0008 FFF7FEFF 		bl	lv_img_set_angle
 1003              	.LVL126:
 1004 000c 08BD     		pop	{r3, pc}
 1005              		.cfi_endproc
 1006              	.LFE226:
 1007              		.size	_ui_anim_callback_set_image_angle, .-_ui_anim_callback_set_image_angle
 1008 000e 00BF     		.section	.text._ui_anim_callback_set_image_frame,"ax",%progbits
 1009              		.align	2
ARM GAS  C:\Users\haske\AppData\Local\Temp\ccWs1cKl.s 			page 24


 1010              		.global	_ui_anim_callback_set_image_frame
 1011              		.thumb
 1012              		.thumb_func
 1013              		.type	_ui_anim_callback_set_image_frame, %function
 1014              	_ui_anim_callback_set_image_frame:
 1015              	.LFB227:
 166:ui\ui_helpers.c **** }
 167:ui\ui_helpers.c **** 
 168:ui\ui_helpers.c **** void _ui_anim_callback_set_image_frame(lv_anim_t * a, int32_t v)
 169:ui\ui_helpers.c **** {
 1016              		.loc 1 169 0
 1017              		.cfi_startproc
 1018              		@ args = 0, pretend = 0, frame = 0
 1019              		@ frame_needed = 0, uses_anonymous_args = 0
 1020              	.LVL127:
 1021 0000 08B5     		push	{r3, lr}
 1022              		.cfi_def_cfa_offset 8
 1023              		.cfi_offset 3, -8
 1024              		.cfi_offset 14, -4
 170:ui\ui_helpers.c ****     ui_anim_user_data_t * usr = (ui_anim_user_data_t *)a->user_data;
 1025              		.loc 1 170 0
 1026 0002 8369     		ldr	r3, [r0, #24]
 1027              	.LVL128:
 171:ui\ui_helpers.c ****     usr->val = v;
 1028              		.loc 1 171 0
 1029 0004 D960     		str	r1, [r3, #12]
 172:ui\ui_helpers.c ****     if(v < 0) v = 0;
 1030              		.loc 1 172 0
 1031 0006 0029     		cmp	r1, #0
 1032 0008 00DA     		bge	.L79
 1033 000a 0021     		movs	r1, #0
 1034              	.LVL129:
 1035              	.L79:
 173:ui\ui_helpers.c ****     if(v >= usr->imgset_size) v = usr->imgset_size - 1;
 1036              		.loc 1 173 0
 1037 000c 9A68     		ldr	r2, [r3, #8]
 1038 000e 9142     		cmp	r1, r2
 1039 0010 00DB     		blt	.L80
 1040              		.loc 1 173 0 is_stmt 0 discriminator 1
 1041 0012 511E     		subs	r1, r2, #1
 1042              	.LVL130:
 1043              	.L80:
 174:ui\ui_helpers.c ****     lv_img_set_src(usr->target, usr->imgset[v]);
 1044              		.loc 1 174 0 is_stmt 1
 1045 0014 5A68     		ldr	r2, [r3, #4]
 1046 0016 52F82110 		ldr	r1, [r2, r1, lsl #2]
 1047              	.LVL131:
 1048 001a 1868     		ldr	r0, [r3]
 1049              	.LVL132:
 1050 001c FFF7FEFF 		bl	lv_img_set_src
 1051              	.LVL133:
 1052 0020 08BD     		pop	{r3, pc}
 1053              		.cfi_endproc
 1054              	.LFE227:
 1055              		.size	_ui_anim_callback_set_image_frame, .-_ui_anim_callback_set_image_frame
 1056 0022 00BF     		.section	.text._ui_anim_callback_get_x,"ax",%progbits
 1057              		.align	2
ARM GAS  C:\Users\haske\AppData\Local\Temp\ccWs1cKl.s 			page 25


 1058              		.global	_ui_anim_callback_get_x
 1059              		.thumb
 1060              		.thumb_func
 1061              		.type	_ui_anim_callback_get_x, %function
 1062              	_ui_anim_callback_get_x:
 1063              	.LFB228:
 175:ui\ui_helpers.c **** }
 176:ui\ui_helpers.c **** 
 177:ui\ui_helpers.c **** int32_t _ui_anim_callback_get_x(lv_anim_t * a)
 178:ui\ui_helpers.c **** {
 1064              		.loc 1 178 0
 1065              		.cfi_startproc
 1066              		@ args = 0, pretend = 0, frame = 0
 1067              		@ frame_needed = 0, uses_anonymous_args = 0
 1068              	.LVL134:
 1069 0000 08B5     		push	{r3, lr}
 1070              		.cfi_def_cfa_offset 8
 1071              		.cfi_offset 3, -8
 1072              		.cfi_offset 14, -4
 179:ui\ui_helpers.c ****     ui_anim_user_data_t * usr = (ui_anim_user_data_t *)a->user_data;
 1073              		.loc 1 179 0
 1074 0002 8369     		ldr	r3, [r0, #24]
 1075              	.LVL135:
 180:ui\ui_helpers.c ****     return lv_obj_get_x_aligned(usr->target);
 1076              		.loc 1 180 0
 1077 0004 1868     		ldr	r0, [r3]
 1078              	.LVL136:
 1079 0006 FFF7FEFF 		bl	lv_obj_get_x_aligned
 1080              	.LVL137:
 181:ui\ui_helpers.c **** }
 1081              		.loc 1 181 0
 1082 000a 08BD     		pop	{r3, pc}
 1083              		.cfi_endproc
 1084              	.LFE228:
 1085              		.size	_ui_anim_callback_get_x, .-_ui_anim_callback_get_x
 1086              		.section	.text._ui_anim_callback_get_y,"ax",%progbits
 1087              		.align	2
 1088              		.global	_ui_anim_callback_get_y
 1089              		.thumb
 1090              		.thumb_func
 1091              		.type	_ui_anim_callback_get_y, %function
 1092              	_ui_anim_callback_get_y:
 1093              	.LFB229:
 182:ui\ui_helpers.c **** 
 183:ui\ui_helpers.c **** int32_t _ui_anim_callback_get_y(lv_anim_t * a)
 184:ui\ui_helpers.c **** {
 1094              		.loc 1 184 0
 1095              		.cfi_startproc
 1096              		@ args = 0, pretend = 0, frame = 0
 1097              		@ frame_needed = 0, uses_anonymous_args = 0
 1098              	.LVL138:
 1099 0000 08B5     		push	{r3, lr}
 1100              		.cfi_def_cfa_offset 8
 1101              		.cfi_offset 3, -8
 1102              		.cfi_offset 14, -4
 185:ui\ui_helpers.c ****     ui_anim_user_data_t * usr = (ui_anim_user_data_t *)a->user_data;
 1103              		.loc 1 185 0
ARM GAS  C:\Users\haske\AppData\Local\Temp\ccWs1cKl.s 			page 26


 1104 0002 8369     		ldr	r3, [r0, #24]
 1105              	.LVL139:
 186:ui\ui_helpers.c ****     return lv_obj_get_y_aligned(usr->target);
 1106              		.loc 1 186 0
 1107 0004 1868     		ldr	r0, [r3]
 1108              	.LVL140:
 1109 0006 FFF7FEFF 		bl	lv_obj_get_y_aligned
 1110              	.LVL141:
 187:ui\ui_helpers.c **** }
 1111              		.loc 1 187 0
 1112 000a 08BD     		pop	{r3, pc}
 1113              		.cfi_endproc
 1114              	.LFE229:
 1115              		.size	_ui_anim_callback_get_y, .-_ui_anim_callback_get_y
 1116              		.section	.text._ui_anim_callback_get_width,"ax",%progbits
 1117              		.align	2
 1118              		.global	_ui_anim_callback_get_width
 1119              		.thumb
 1120              		.thumb_func
 1121              		.type	_ui_anim_callback_get_width, %function
 1122              	_ui_anim_callback_get_width:
 1123              	.LFB230:
 188:ui\ui_helpers.c **** 
 189:ui\ui_helpers.c **** int32_t _ui_anim_callback_get_width(lv_anim_t * a)
 190:ui\ui_helpers.c **** {
 1124              		.loc 1 190 0
 1125              		.cfi_startproc
 1126              		@ args = 0, pretend = 0, frame = 0
 1127              		@ frame_needed = 0, uses_anonymous_args = 0
 1128              	.LVL142:
 1129 0000 08B5     		push	{r3, lr}
 1130              		.cfi_def_cfa_offset 8
 1131              		.cfi_offset 3, -8
 1132              		.cfi_offset 14, -4
 191:ui\ui_helpers.c ****     ui_anim_user_data_t * usr = (ui_anim_user_data_t *)a->user_data;
 1133              		.loc 1 191 0
 1134 0002 8369     		ldr	r3, [r0, #24]
 1135              	.LVL143:
 192:ui\ui_helpers.c ****     return lv_obj_get_width(usr->target);
 1136              		.loc 1 192 0
 1137 0004 1868     		ldr	r0, [r3]
 1138              	.LVL144:
 1139 0006 FFF7FEFF 		bl	lv_obj_get_width
 1140              	.LVL145:
 193:ui\ui_helpers.c **** }
 1141              		.loc 1 193 0
 1142 000a 08BD     		pop	{r3, pc}
 1143              		.cfi_endproc
 1144              	.LFE230:
 1145              		.size	_ui_anim_callback_get_width, .-_ui_anim_callback_get_width
 1146              		.section	.text._ui_anim_callback_get_height,"ax",%progbits
 1147              		.align	2
 1148              		.global	_ui_anim_callback_get_height
 1149              		.thumb
 1150              		.thumb_func
 1151              		.type	_ui_anim_callback_get_height, %function
 1152              	_ui_anim_callback_get_height:
ARM GAS  C:\Users\haske\AppData\Local\Temp\ccWs1cKl.s 			page 27


 1153              	.LFB231:
 194:ui\ui_helpers.c **** 
 195:ui\ui_helpers.c **** int32_t _ui_anim_callback_get_height(lv_anim_t * a)
 196:ui\ui_helpers.c **** {
 1154              		.loc 1 196 0
 1155              		.cfi_startproc
 1156              		@ args = 0, pretend = 0, frame = 0
 1157              		@ frame_needed = 0, uses_anonymous_args = 0
 1158              	.LVL146:
 1159 0000 08B5     		push	{r3, lr}
 1160              		.cfi_def_cfa_offset 8
 1161              		.cfi_offset 3, -8
 1162              		.cfi_offset 14, -4
 197:ui\ui_helpers.c ****     ui_anim_user_data_t * usr = (ui_anim_user_data_t *)a->user_data;
 1163              		.loc 1 197 0
 1164 0002 8369     		ldr	r3, [r0, #24]
 1165              	.LVL147:
 198:ui\ui_helpers.c ****     return lv_obj_get_height(usr->target);
 1166              		.loc 1 198 0
 1167 0004 1868     		ldr	r0, [r3]
 1168              	.LVL148:
 1169 0006 FFF7FEFF 		bl	lv_obj_get_height
 1170              	.LVL149:
 199:ui\ui_helpers.c **** }
 1171              		.loc 1 199 0
 1172 000a 08BD     		pop	{r3, pc}
 1173              		.cfi_endproc
 1174              	.LFE231:
 1175              		.size	_ui_anim_callback_get_height, .-_ui_anim_callback_get_height
 1176              		.section	.text._ui_anim_callback_get_opacity,"ax",%progbits
 1177              		.align	2
 1178              		.global	_ui_anim_callback_get_opacity
 1179              		.thumb
 1180              		.thumb_func
 1181              		.type	_ui_anim_callback_get_opacity, %function
 1182              	_ui_anim_callback_get_opacity:
 1183              	.LFB232:
 200:ui\ui_helpers.c **** 
 201:ui\ui_helpers.c **** int32_t _ui_anim_callback_get_opacity(lv_anim_t * a)
 202:ui\ui_helpers.c **** {
 1184              		.loc 1 202 0
 1185              		.cfi_startproc
 1186              		@ args = 0, pretend = 0, frame = 0
 1187              		@ frame_needed = 0, uses_anonymous_args = 0
 1188              	.LVL150:
 1189 0000 08B5     		push	{r3, lr}
 1190              		.cfi_def_cfa_offset 8
 1191              		.cfi_offset 3, -8
 1192              		.cfi_offset 14, -4
 203:ui\ui_helpers.c ****     ui_anim_user_data_t * usr = (ui_anim_user_data_t *)a->user_data;
 1193              		.loc 1 203 0
 1194 0002 8369     		ldr	r3, [r0, #24]
 1195              	.LVL151:
 1196              	.LBB22:
 1197              	.LBB23:
 1198              		.file 3 ".\\lvgl-release-v8.3/./src/core/lv_obj_style_gen.h"
   1:.\lvgl-release-v8.3/./src/core/lv_obj_style_gen.h **** static inline lv_coord_t lv_obj_get_style_width(const struct _lv_obj_t * obj, uint32_t part)
ARM GAS  C:\Users\haske\AppData\Local\Temp\ccWs1cKl.s 			page 28


   2:.\lvgl-release-v8.3/./src/core/lv_obj_style_gen.h **** {
   3:.\lvgl-release-v8.3/./src/core/lv_obj_style_gen.h ****     lv_style_value_t v = lv_obj_get_style_prop(obj, part, LV_STYLE_WIDTH);
   4:.\lvgl-release-v8.3/./src/core/lv_obj_style_gen.h ****     return (lv_coord_t)v.num;
   5:.\lvgl-release-v8.3/./src/core/lv_obj_style_gen.h **** }
   6:.\lvgl-release-v8.3/./src/core/lv_obj_style_gen.h **** 
   7:.\lvgl-release-v8.3/./src/core/lv_obj_style_gen.h **** static inline lv_coord_t lv_obj_get_style_min_width(const struct _lv_obj_t * obj, uint32_t part)
   8:.\lvgl-release-v8.3/./src/core/lv_obj_style_gen.h **** {
   9:.\lvgl-release-v8.3/./src/core/lv_obj_style_gen.h ****     lv_style_value_t v = lv_obj_get_style_prop(obj, part, LV_STYLE_MIN_WIDTH);
  10:.\lvgl-release-v8.3/./src/core/lv_obj_style_gen.h ****     return (lv_coord_t)v.num;
  11:.\lvgl-release-v8.3/./src/core/lv_obj_style_gen.h **** }
  12:.\lvgl-release-v8.3/./src/core/lv_obj_style_gen.h **** 
  13:.\lvgl-release-v8.3/./src/core/lv_obj_style_gen.h **** static inline lv_coord_t lv_obj_get_style_max_width(const struct _lv_obj_t * obj, uint32_t part)
  14:.\lvgl-release-v8.3/./src/core/lv_obj_style_gen.h **** {
  15:.\lvgl-release-v8.3/./src/core/lv_obj_style_gen.h ****     lv_style_value_t v = lv_obj_get_style_prop(obj, part, LV_STYLE_MAX_WIDTH);
  16:.\lvgl-release-v8.3/./src/core/lv_obj_style_gen.h ****     return (lv_coord_t)v.num;
  17:.\lvgl-release-v8.3/./src/core/lv_obj_style_gen.h **** }
  18:.\lvgl-release-v8.3/./src/core/lv_obj_style_gen.h **** 
  19:.\lvgl-release-v8.3/./src/core/lv_obj_style_gen.h **** static inline lv_coord_t lv_obj_get_style_height(const struct _lv_obj_t * obj, uint32_t part)
  20:.\lvgl-release-v8.3/./src/core/lv_obj_style_gen.h **** {
  21:.\lvgl-release-v8.3/./src/core/lv_obj_style_gen.h ****     lv_style_value_t v = lv_obj_get_style_prop(obj, part, LV_STYLE_HEIGHT);
  22:.\lvgl-release-v8.3/./src/core/lv_obj_style_gen.h ****     return (lv_coord_t)v.num;
  23:.\lvgl-release-v8.3/./src/core/lv_obj_style_gen.h **** }
  24:.\lvgl-release-v8.3/./src/core/lv_obj_style_gen.h **** 
  25:.\lvgl-release-v8.3/./src/core/lv_obj_style_gen.h **** static inline lv_coord_t lv_obj_get_style_min_height(const struct _lv_obj_t * obj, uint32_t part)
  26:.\lvgl-release-v8.3/./src/core/lv_obj_style_gen.h **** {
  27:.\lvgl-release-v8.3/./src/core/lv_obj_style_gen.h ****     lv_style_value_t v = lv_obj_get_style_prop(obj, part, LV_STYLE_MIN_HEIGHT);
  28:.\lvgl-release-v8.3/./src/core/lv_obj_style_gen.h ****     return (lv_coord_t)v.num;
  29:.\lvgl-release-v8.3/./src/core/lv_obj_style_gen.h **** }
  30:.\lvgl-release-v8.3/./src/core/lv_obj_style_gen.h **** 
  31:.\lvgl-release-v8.3/./src/core/lv_obj_style_gen.h **** static inline lv_coord_t lv_obj_get_style_max_height(const struct _lv_obj_t * obj, uint32_t part)
  32:.\lvgl-release-v8.3/./src/core/lv_obj_style_gen.h **** {
  33:.\lvgl-release-v8.3/./src/core/lv_obj_style_gen.h ****     lv_style_value_t v = lv_obj_get_style_prop(obj, part, LV_STYLE_MAX_HEIGHT);
  34:.\lvgl-release-v8.3/./src/core/lv_obj_style_gen.h ****     return (lv_coord_t)v.num;
  35:.\lvgl-release-v8.3/./src/core/lv_obj_style_gen.h **** }
  36:.\lvgl-release-v8.3/./src/core/lv_obj_style_gen.h **** 
  37:.\lvgl-release-v8.3/./src/core/lv_obj_style_gen.h **** static inline lv_coord_t lv_obj_get_style_x(const struct _lv_obj_t * obj, uint32_t part)
  38:.\lvgl-release-v8.3/./src/core/lv_obj_style_gen.h **** {
  39:.\lvgl-release-v8.3/./src/core/lv_obj_style_gen.h ****     lv_style_value_t v = lv_obj_get_style_prop(obj, part, LV_STYLE_X);
  40:.\lvgl-release-v8.3/./src/core/lv_obj_style_gen.h ****     return (lv_coord_t)v.num;
  41:.\lvgl-release-v8.3/./src/core/lv_obj_style_gen.h **** }
  42:.\lvgl-release-v8.3/./src/core/lv_obj_style_gen.h **** 
  43:.\lvgl-release-v8.3/./src/core/lv_obj_style_gen.h **** static inline lv_coord_t lv_obj_get_style_y(const struct _lv_obj_t * obj, uint32_t part)
  44:.\lvgl-release-v8.3/./src/core/lv_obj_style_gen.h **** {
  45:.\lvgl-release-v8.3/./src/core/lv_obj_style_gen.h ****     lv_style_value_t v = lv_obj_get_style_prop(obj, part, LV_STYLE_Y);
  46:.\lvgl-release-v8.3/./src/core/lv_obj_style_gen.h ****     return (lv_coord_t)v.num;
  47:.\lvgl-release-v8.3/./src/core/lv_obj_style_gen.h **** }
  48:.\lvgl-release-v8.3/./src/core/lv_obj_style_gen.h **** 
  49:.\lvgl-release-v8.3/./src/core/lv_obj_style_gen.h **** static inline lv_align_t lv_obj_get_style_align(const struct _lv_obj_t * obj, uint32_t part)
  50:.\lvgl-release-v8.3/./src/core/lv_obj_style_gen.h **** {
  51:.\lvgl-release-v8.3/./src/core/lv_obj_style_gen.h ****     lv_style_value_t v = lv_obj_get_style_prop(obj, part, LV_STYLE_ALIGN);
  52:.\lvgl-release-v8.3/./src/core/lv_obj_style_gen.h ****     return (lv_align_t)v.num;
  53:.\lvgl-release-v8.3/./src/core/lv_obj_style_gen.h **** }
  54:.\lvgl-release-v8.3/./src/core/lv_obj_style_gen.h **** 
  55:.\lvgl-release-v8.3/./src/core/lv_obj_style_gen.h **** static inline lv_coord_t lv_obj_get_style_transform_width(const struct _lv_obj_t * obj, uint32_t pa
  56:.\lvgl-release-v8.3/./src/core/lv_obj_style_gen.h **** {
  57:.\lvgl-release-v8.3/./src/core/lv_obj_style_gen.h ****     lv_style_value_t v = lv_obj_get_style_prop(obj, part, LV_STYLE_TRANSFORM_WIDTH);
  58:.\lvgl-release-v8.3/./src/core/lv_obj_style_gen.h ****     return (lv_coord_t)v.num;
ARM GAS  C:\Users\haske\AppData\Local\Temp\ccWs1cKl.s 			page 29


  59:.\lvgl-release-v8.3/./src/core/lv_obj_style_gen.h **** }
  60:.\lvgl-release-v8.3/./src/core/lv_obj_style_gen.h **** 
  61:.\lvgl-release-v8.3/./src/core/lv_obj_style_gen.h **** static inline lv_coord_t lv_obj_get_style_transform_height(const struct _lv_obj_t * obj, uint32_t p
  62:.\lvgl-release-v8.3/./src/core/lv_obj_style_gen.h **** {
  63:.\lvgl-release-v8.3/./src/core/lv_obj_style_gen.h ****     lv_style_value_t v = lv_obj_get_style_prop(obj, part, LV_STYLE_TRANSFORM_HEIGHT);
  64:.\lvgl-release-v8.3/./src/core/lv_obj_style_gen.h ****     return (lv_coord_t)v.num;
  65:.\lvgl-release-v8.3/./src/core/lv_obj_style_gen.h **** }
  66:.\lvgl-release-v8.3/./src/core/lv_obj_style_gen.h **** 
  67:.\lvgl-release-v8.3/./src/core/lv_obj_style_gen.h **** static inline lv_coord_t lv_obj_get_style_translate_x(const struct _lv_obj_t * obj, uint32_t part)
  68:.\lvgl-release-v8.3/./src/core/lv_obj_style_gen.h **** {
  69:.\lvgl-release-v8.3/./src/core/lv_obj_style_gen.h ****     lv_style_value_t v = lv_obj_get_style_prop(obj, part, LV_STYLE_TRANSLATE_X);
  70:.\lvgl-release-v8.3/./src/core/lv_obj_style_gen.h ****     return (lv_coord_t)v.num;
  71:.\lvgl-release-v8.3/./src/core/lv_obj_style_gen.h **** }
  72:.\lvgl-release-v8.3/./src/core/lv_obj_style_gen.h **** 
  73:.\lvgl-release-v8.3/./src/core/lv_obj_style_gen.h **** static inline lv_coord_t lv_obj_get_style_translate_y(const struct _lv_obj_t * obj, uint32_t part)
  74:.\lvgl-release-v8.3/./src/core/lv_obj_style_gen.h **** {
  75:.\lvgl-release-v8.3/./src/core/lv_obj_style_gen.h ****     lv_style_value_t v = lv_obj_get_style_prop(obj, part, LV_STYLE_TRANSLATE_Y);
  76:.\lvgl-release-v8.3/./src/core/lv_obj_style_gen.h ****     return (lv_coord_t)v.num;
  77:.\lvgl-release-v8.3/./src/core/lv_obj_style_gen.h **** }
  78:.\lvgl-release-v8.3/./src/core/lv_obj_style_gen.h **** 
  79:.\lvgl-release-v8.3/./src/core/lv_obj_style_gen.h **** static inline lv_coord_t lv_obj_get_style_transform_zoom(const struct _lv_obj_t * obj, uint32_t par
  80:.\lvgl-release-v8.3/./src/core/lv_obj_style_gen.h **** {
  81:.\lvgl-release-v8.3/./src/core/lv_obj_style_gen.h ****     lv_style_value_t v = lv_obj_get_style_prop(obj, part, LV_STYLE_TRANSFORM_ZOOM);
  82:.\lvgl-release-v8.3/./src/core/lv_obj_style_gen.h ****     return (lv_coord_t)v.num;
  83:.\lvgl-release-v8.3/./src/core/lv_obj_style_gen.h **** }
  84:.\lvgl-release-v8.3/./src/core/lv_obj_style_gen.h **** 
  85:.\lvgl-release-v8.3/./src/core/lv_obj_style_gen.h **** static inline lv_coord_t lv_obj_get_style_transform_angle(const struct _lv_obj_t * obj, uint32_t pa
  86:.\lvgl-release-v8.3/./src/core/lv_obj_style_gen.h **** {
  87:.\lvgl-release-v8.3/./src/core/lv_obj_style_gen.h ****     lv_style_value_t v = lv_obj_get_style_prop(obj, part, LV_STYLE_TRANSFORM_ANGLE);
  88:.\lvgl-release-v8.3/./src/core/lv_obj_style_gen.h ****     return (lv_coord_t)v.num;
  89:.\lvgl-release-v8.3/./src/core/lv_obj_style_gen.h **** }
  90:.\lvgl-release-v8.3/./src/core/lv_obj_style_gen.h **** 
  91:.\lvgl-release-v8.3/./src/core/lv_obj_style_gen.h **** static inline lv_coord_t lv_obj_get_style_transform_pivot_x(const struct _lv_obj_t * obj, uint32_t 
  92:.\lvgl-release-v8.3/./src/core/lv_obj_style_gen.h **** {
  93:.\lvgl-release-v8.3/./src/core/lv_obj_style_gen.h ****     lv_style_value_t v = lv_obj_get_style_prop(obj, part, LV_STYLE_TRANSFORM_PIVOT_X);
  94:.\lvgl-release-v8.3/./src/core/lv_obj_style_gen.h ****     return (lv_coord_t)v.num;
  95:.\lvgl-release-v8.3/./src/core/lv_obj_style_gen.h **** }
  96:.\lvgl-release-v8.3/./src/core/lv_obj_style_gen.h **** 
  97:.\lvgl-release-v8.3/./src/core/lv_obj_style_gen.h **** static inline lv_coord_t lv_obj_get_style_transform_pivot_y(const struct _lv_obj_t * obj, uint32_t 
  98:.\lvgl-release-v8.3/./src/core/lv_obj_style_gen.h **** {
  99:.\lvgl-release-v8.3/./src/core/lv_obj_style_gen.h ****     lv_style_value_t v = lv_obj_get_style_prop(obj, part, LV_STYLE_TRANSFORM_PIVOT_Y);
 100:.\lvgl-release-v8.3/./src/core/lv_obj_style_gen.h ****     return (lv_coord_t)v.num;
 101:.\lvgl-release-v8.3/./src/core/lv_obj_style_gen.h **** }
 102:.\lvgl-release-v8.3/./src/core/lv_obj_style_gen.h **** 
 103:.\lvgl-release-v8.3/./src/core/lv_obj_style_gen.h **** static inline lv_coord_t lv_obj_get_style_pad_top(const struct _lv_obj_t * obj, uint32_t part)
 104:.\lvgl-release-v8.3/./src/core/lv_obj_style_gen.h **** {
 105:.\lvgl-release-v8.3/./src/core/lv_obj_style_gen.h ****     lv_style_value_t v = lv_obj_get_style_prop(obj, part, LV_STYLE_PAD_TOP);
 106:.\lvgl-release-v8.3/./src/core/lv_obj_style_gen.h ****     return (lv_coord_t)v.num;
 107:.\lvgl-release-v8.3/./src/core/lv_obj_style_gen.h **** }
 108:.\lvgl-release-v8.3/./src/core/lv_obj_style_gen.h **** 
 109:.\lvgl-release-v8.3/./src/core/lv_obj_style_gen.h **** static inline lv_coord_t lv_obj_get_style_pad_bottom(const struct _lv_obj_t * obj, uint32_t part)
 110:.\lvgl-release-v8.3/./src/core/lv_obj_style_gen.h **** {
 111:.\lvgl-release-v8.3/./src/core/lv_obj_style_gen.h ****     lv_style_value_t v = lv_obj_get_style_prop(obj, part, LV_STYLE_PAD_BOTTOM);
 112:.\lvgl-release-v8.3/./src/core/lv_obj_style_gen.h ****     return (lv_coord_t)v.num;
 113:.\lvgl-release-v8.3/./src/core/lv_obj_style_gen.h **** }
 114:.\lvgl-release-v8.3/./src/core/lv_obj_style_gen.h **** 
 115:.\lvgl-release-v8.3/./src/core/lv_obj_style_gen.h **** static inline lv_coord_t lv_obj_get_style_pad_left(const struct _lv_obj_t * obj, uint32_t part)
ARM GAS  C:\Users\haske\AppData\Local\Temp\ccWs1cKl.s 			page 30


 116:.\lvgl-release-v8.3/./src/core/lv_obj_style_gen.h **** {
 117:.\lvgl-release-v8.3/./src/core/lv_obj_style_gen.h ****     lv_style_value_t v = lv_obj_get_style_prop(obj, part, LV_STYLE_PAD_LEFT);
 118:.\lvgl-release-v8.3/./src/core/lv_obj_style_gen.h ****     return (lv_coord_t)v.num;
 119:.\lvgl-release-v8.3/./src/core/lv_obj_style_gen.h **** }
 120:.\lvgl-release-v8.3/./src/core/lv_obj_style_gen.h **** 
 121:.\lvgl-release-v8.3/./src/core/lv_obj_style_gen.h **** static inline lv_coord_t lv_obj_get_style_pad_right(const struct _lv_obj_t * obj, uint32_t part)
 122:.\lvgl-release-v8.3/./src/core/lv_obj_style_gen.h **** {
 123:.\lvgl-release-v8.3/./src/core/lv_obj_style_gen.h ****     lv_style_value_t v = lv_obj_get_style_prop(obj, part, LV_STYLE_PAD_RIGHT);
 124:.\lvgl-release-v8.3/./src/core/lv_obj_style_gen.h ****     return (lv_coord_t)v.num;
 125:.\lvgl-release-v8.3/./src/core/lv_obj_style_gen.h **** }
 126:.\lvgl-release-v8.3/./src/core/lv_obj_style_gen.h **** 
 127:.\lvgl-release-v8.3/./src/core/lv_obj_style_gen.h **** static inline lv_coord_t lv_obj_get_style_pad_row(const struct _lv_obj_t * obj, uint32_t part)
 128:.\lvgl-release-v8.3/./src/core/lv_obj_style_gen.h **** {
 129:.\lvgl-release-v8.3/./src/core/lv_obj_style_gen.h ****     lv_style_value_t v = lv_obj_get_style_prop(obj, part, LV_STYLE_PAD_ROW);
 130:.\lvgl-release-v8.3/./src/core/lv_obj_style_gen.h ****     return (lv_coord_t)v.num;
 131:.\lvgl-release-v8.3/./src/core/lv_obj_style_gen.h **** }
 132:.\lvgl-release-v8.3/./src/core/lv_obj_style_gen.h **** 
 133:.\lvgl-release-v8.3/./src/core/lv_obj_style_gen.h **** static inline lv_coord_t lv_obj_get_style_pad_column(const struct _lv_obj_t * obj, uint32_t part)
 134:.\lvgl-release-v8.3/./src/core/lv_obj_style_gen.h **** {
 135:.\lvgl-release-v8.3/./src/core/lv_obj_style_gen.h ****     lv_style_value_t v = lv_obj_get_style_prop(obj, part, LV_STYLE_PAD_COLUMN);
 136:.\lvgl-release-v8.3/./src/core/lv_obj_style_gen.h ****     return (lv_coord_t)v.num;
 137:.\lvgl-release-v8.3/./src/core/lv_obj_style_gen.h **** }
 138:.\lvgl-release-v8.3/./src/core/lv_obj_style_gen.h **** 
 139:.\lvgl-release-v8.3/./src/core/lv_obj_style_gen.h **** static inline lv_color_t lv_obj_get_style_bg_color(const struct _lv_obj_t * obj, uint32_t part)
 140:.\lvgl-release-v8.3/./src/core/lv_obj_style_gen.h **** {
 141:.\lvgl-release-v8.3/./src/core/lv_obj_style_gen.h ****     lv_style_value_t v = lv_obj_get_style_prop(obj, part, LV_STYLE_BG_COLOR);
 142:.\lvgl-release-v8.3/./src/core/lv_obj_style_gen.h ****     return v.color;
 143:.\lvgl-release-v8.3/./src/core/lv_obj_style_gen.h **** }
 144:.\lvgl-release-v8.3/./src/core/lv_obj_style_gen.h **** 
 145:.\lvgl-release-v8.3/./src/core/lv_obj_style_gen.h **** static inline lv_color_t lv_obj_get_style_bg_color_filtered(const struct _lv_obj_t * obj, uint32_t 
 146:.\lvgl-release-v8.3/./src/core/lv_obj_style_gen.h **** {
 147:.\lvgl-release-v8.3/./src/core/lv_obj_style_gen.h ****     lv_style_value_t v = _lv_obj_style_apply_color_filter(obj, part, lv_obj_get_style_prop(obj, par
 148:.\lvgl-release-v8.3/./src/core/lv_obj_style_gen.h ****     return v.color;
 149:.\lvgl-release-v8.3/./src/core/lv_obj_style_gen.h **** }
 150:.\lvgl-release-v8.3/./src/core/lv_obj_style_gen.h **** 
 151:.\lvgl-release-v8.3/./src/core/lv_obj_style_gen.h **** static inline lv_opa_t lv_obj_get_style_bg_opa(const struct _lv_obj_t * obj, uint32_t part)
 152:.\lvgl-release-v8.3/./src/core/lv_obj_style_gen.h **** {
 153:.\lvgl-release-v8.3/./src/core/lv_obj_style_gen.h ****     lv_style_value_t v = lv_obj_get_style_prop(obj, part, LV_STYLE_BG_OPA);
 154:.\lvgl-release-v8.3/./src/core/lv_obj_style_gen.h ****     return (lv_opa_t)v.num;
 155:.\lvgl-release-v8.3/./src/core/lv_obj_style_gen.h **** }
 156:.\lvgl-release-v8.3/./src/core/lv_obj_style_gen.h **** 
 157:.\lvgl-release-v8.3/./src/core/lv_obj_style_gen.h **** static inline lv_color_t lv_obj_get_style_bg_grad_color(const struct _lv_obj_t * obj, uint32_t part
 158:.\lvgl-release-v8.3/./src/core/lv_obj_style_gen.h **** {
 159:.\lvgl-release-v8.3/./src/core/lv_obj_style_gen.h ****     lv_style_value_t v = lv_obj_get_style_prop(obj, part, LV_STYLE_BG_GRAD_COLOR);
 160:.\lvgl-release-v8.3/./src/core/lv_obj_style_gen.h ****     return v.color;
 161:.\lvgl-release-v8.3/./src/core/lv_obj_style_gen.h **** }
 162:.\lvgl-release-v8.3/./src/core/lv_obj_style_gen.h **** 
 163:.\lvgl-release-v8.3/./src/core/lv_obj_style_gen.h **** static inline lv_color_t lv_obj_get_style_bg_grad_color_filtered(const struct _lv_obj_t * obj, uint
 164:.\lvgl-release-v8.3/./src/core/lv_obj_style_gen.h **** {
 165:.\lvgl-release-v8.3/./src/core/lv_obj_style_gen.h ****     lv_style_value_t v = _lv_obj_style_apply_color_filter(obj, part, lv_obj_get_style_prop(obj, par
 166:.\lvgl-release-v8.3/./src/core/lv_obj_style_gen.h ****     return v.color;
 167:.\lvgl-release-v8.3/./src/core/lv_obj_style_gen.h **** }
 168:.\lvgl-release-v8.3/./src/core/lv_obj_style_gen.h **** 
 169:.\lvgl-release-v8.3/./src/core/lv_obj_style_gen.h **** static inline lv_grad_dir_t lv_obj_get_style_bg_grad_dir(const struct _lv_obj_t * obj, uint32_t par
 170:.\lvgl-release-v8.3/./src/core/lv_obj_style_gen.h **** {
 171:.\lvgl-release-v8.3/./src/core/lv_obj_style_gen.h ****     lv_style_value_t v = lv_obj_get_style_prop(obj, part, LV_STYLE_BG_GRAD_DIR);
 172:.\lvgl-release-v8.3/./src/core/lv_obj_style_gen.h ****     return (lv_grad_dir_t)v.num;
ARM GAS  C:\Users\haske\AppData\Local\Temp\ccWs1cKl.s 			page 31


 173:.\lvgl-release-v8.3/./src/core/lv_obj_style_gen.h **** }
 174:.\lvgl-release-v8.3/./src/core/lv_obj_style_gen.h **** 
 175:.\lvgl-release-v8.3/./src/core/lv_obj_style_gen.h **** static inline lv_coord_t lv_obj_get_style_bg_main_stop(const struct _lv_obj_t * obj, uint32_t part)
 176:.\lvgl-release-v8.3/./src/core/lv_obj_style_gen.h **** {
 177:.\lvgl-release-v8.3/./src/core/lv_obj_style_gen.h ****     lv_style_value_t v = lv_obj_get_style_prop(obj, part, LV_STYLE_BG_MAIN_STOP);
 178:.\lvgl-release-v8.3/./src/core/lv_obj_style_gen.h ****     return (lv_coord_t)v.num;
 179:.\lvgl-release-v8.3/./src/core/lv_obj_style_gen.h **** }
 180:.\lvgl-release-v8.3/./src/core/lv_obj_style_gen.h **** 
 181:.\lvgl-release-v8.3/./src/core/lv_obj_style_gen.h **** static inline lv_coord_t lv_obj_get_style_bg_grad_stop(const struct _lv_obj_t * obj, uint32_t part)
 182:.\lvgl-release-v8.3/./src/core/lv_obj_style_gen.h **** {
 183:.\lvgl-release-v8.3/./src/core/lv_obj_style_gen.h ****     lv_style_value_t v = lv_obj_get_style_prop(obj, part, LV_STYLE_BG_GRAD_STOP);
 184:.\lvgl-release-v8.3/./src/core/lv_obj_style_gen.h ****     return (lv_coord_t)v.num;
 185:.\lvgl-release-v8.3/./src/core/lv_obj_style_gen.h **** }
 186:.\lvgl-release-v8.3/./src/core/lv_obj_style_gen.h **** 
 187:.\lvgl-release-v8.3/./src/core/lv_obj_style_gen.h **** static inline const lv_grad_dsc_t * lv_obj_get_style_bg_grad(const struct _lv_obj_t * obj, uint32_t
 188:.\lvgl-release-v8.3/./src/core/lv_obj_style_gen.h **** {
 189:.\lvgl-release-v8.3/./src/core/lv_obj_style_gen.h ****     lv_style_value_t v = lv_obj_get_style_prop(obj, part, LV_STYLE_BG_GRAD);
 190:.\lvgl-release-v8.3/./src/core/lv_obj_style_gen.h ****     return (const lv_grad_dsc_t *)v.ptr;
 191:.\lvgl-release-v8.3/./src/core/lv_obj_style_gen.h **** }
 192:.\lvgl-release-v8.3/./src/core/lv_obj_style_gen.h **** 
 193:.\lvgl-release-v8.3/./src/core/lv_obj_style_gen.h **** static inline lv_dither_mode_t lv_obj_get_style_bg_dither_mode(const struct _lv_obj_t * obj, uint32
 194:.\lvgl-release-v8.3/./src/core/lv_obj_style_gen.h **** {
 195:.\lvgl-release-v8.3/./src/core/lv_obj_style_gen.h ****     lv_style_value_t v = lv_obj_get_style_prop(obj, part, LV_STYLE_BG_DITHER_MODE);
 196:.\lvgl-release-v8.3/./src/core/lv_obj_style_gen.h ****     return (lv_dither_mode_t)v.num;
 197:.\lvgl-release-v8.3/./src/core/lv_obj_style_gen.h **** }
 198:.\lvgl-release-v8.3/./src/core/lv_obj_style_gen.h **** 
 199:.\lvgl-release-v8.3/./src/core/lv_obj_style_gen.h **** static inline const void * lv_obj_get_style_bg_img_src(const struct _lv_obj_t * obj, uint32_t part)
 200:.\lvgl-release-v8.3/./src/core/lv_obj_style_gen.h **** {
 201:.\lvgl-release-v8.3/./src/core/lv_obj_style_gen.h ****     lv_style_value_t v = lv_obj_get_style_prop(obj, part, LV_STYLE_BG_IMG_SRC);
 202:.\lvgl-release-v8.3/./src/core/lv_obj_style_gen.h ****     return (const void *)v.ptr;
 203:.\lvgl-release-v8.3/./src/core/lv_obj_style_gen.h **** }
 204:.\lvgl-release-v8.3/./src/core/lv_obj_style_gen.h **** 
 205:.\lvgl-release-v8.3/./src/core/lv_obj_style_gen.h **** static inline lv_opa_t lv_obj_get_style_bg_img_opa(const struct _lv_obj_t * obj, uint32_t part)
 206:.\lvgl-release-v8.3/./src/core/lv_obj_style_gen.h **** {
 207:.\lvgl-release-v8.3/./src/core/lv_obj_style_gen.h ****     lv_style_value_t v = lv_obj_get_style_prop(obj, part, LV_STYLE_BG_IMG_OPA);
 208:.\lvgl-release-v8.3/./src/core/lv_obj_style_gen.h ****     return (lv_opa_t)v.num;
 209:.\lvgl-release-v8.3/./src/core/lv_obj_style_gen.h **** }
 210:.\lvgl-release-v8.3/./src/core/lv_obj_style_gen.h **** 
 211:.\lvgl-release-v8.3/./src/core/lv_obj_style_gen.h **** static inline lv_color_t lv_obj_get_style_bg_img_recolor(const struct _lv_obj_t * obj, uint32_t par
 212:.\lvgl-release-v8.3/./src/core/lv_obj_style_gen.h **** {
 213:.\lvgl-release-v8.3/./src/core/lv_obj_style_gen.h ****     lv_style_value_t v = lv_obj_get_style_prop(obj, part, LV_STYLE_BG_IMG_RECOLOR);
 214:.\lvgl-release-v8.3/./src/core/lv_obj_style_gen.h ****     return v.color;
 215:.\lvgl-release-v8.3/./src/core/lv_obj_style_gen.h **** }
 216:.\lvgl-release-v8.3/./src/core/lv_obj_style_gen.h **** 
 217:.\lvgl-release-v8.3/./src/core/lv_obj_style_gen.h **** static inline lv_color_t lv_obj_get_style_bg_img_recolor_filtered(const struct _lv_obj_t * obj, uin
 218:.\lvgl-release-v8.3/./src/core/lv_obj_style_gen.h **** {
 219:.\lvgl-release-v8.3/./src/core/lv_obj_style_gen.h ****     lv_style_value_t v = _lv_obj_style_apply_color_filter(obj, part, lv_obj_get_style_prop(obj, par
 220:.\lvgl-release-v8.3/./src/core/lv_obj_style_gen.h ****     return v.color;
 221:.\lvgl-release-v8.3/./src/core/lv_obj_style_gen.h **** }
 222:.\lvgl-release-v8.3/./src/core/lv_obj_style_gen.h **** 
 223:.\lvgl-release-v8.3/./src/core/lv_obj_style_gen.h **** static inline lv_opa_t lv_obj_get_style_bg_img_recolor_opa(const struct _lv_obj_t * obj, uint32_t p
 224:.\lvgl-release-v8.3/./src/core/lv_obj_style_gen.h **** {
 225:.\lvgl-release-v8.3/./src/core/lv_obj_style_gen.h ****     lv_style_value_t v = lv_obj_get_style_prop(obj, part, LV_STYLE_BG_IMG_RECOLOR_OPA);
 226:.\lvgl-release-v8.3/./src/core/lv_obj_style_gen.h ****     return (lv_opa_t)v.num;
 227:.\lvgl-release-v8.3/./src/core/lv_obj_style_gen.h **** }
 228:.\lvgl-release-v8.3/./src/core/lv_obj_style_gen.h **** 
 229:.\lvgl-release-v8.3/./src/core/lv_obj_style_gen.h **** static inline bool lv_obj_get_style_bg_img_tiled(const struct _lv_obj_t * obj, uint32_t part)
ARM GAS  C:\Users\haske\AppData\Local\Temp\ccWs1cKl.s 			page 32


 230:.\lvgl-release-v8.3/./src/core/lv_obj_style_gen.h **** {
 231:.\lvgl-release-v8.3/./src/core/lv_obj_style_gen.h ****     lv_style_value_t v = lv_obj_get_style_prop(obj, part, LV_STYLE_BG_IMG_TILED);
 232:.\lvgl-release-v8.3/./src/core/lv_obj_style_gen.h ****     return (bool)v.num;
 233:.\lvgl-release-v8.3/./src/core/lv_obj_style_gen.h **** }
 234:.\lvgl-release-v8.3/./src/core/lv_obj_style_gen.h **** 
 235:.\lvgl-release-v8.3/./src/core/lv_obj_style_gen.h **** static inline lv_color_t lv_obj_get_style_border_color(const struct _lv_obj_t * obj, uint32_t part)
 236:.\lvgl-release-v8.3/./src/core/lv_obj_style_gen.h **** {
 237:.\lvgl-release-v8.3/./src/core/lv_obj_style_gen.h ****     lv_style_value_t v = lv_obj_get_style_prop(obj, part, LV_STYLE_BORDER_COLOR);
 238:.\lvgl-release-v8.3/./src/core/lv_obj_style_gen.h ****     return v.color;
 239:.\lvgl-release-v8.3/./src/core/lv_obj_style_gen.h **** }
 240:.\lvgl-release-v8.3/./src/core/lv_obj_style_gen.h **** 
 241:.\lvgl-release-v8.3/./src/core/lv_obj_style_gen.h **** static inline lv_color_t lv_obj_get_style_border_color_filtered(const struct _lv_obj_t * obj, uint3
 242:.\lvgl-release-v8.3/./src/core/lv_obj_style_gen.h **** {
 243:.\lvgl-release-v8.3/./src/core/lv_obj_style_gen.h ****     lv_style_value_t v = _lv_obj_style_apply_color_filter(obj, part, lv_obj_get_style_prop(obj, par
 244:.\lvgl-release-v8.3/./src/core/lv_obj_style_gen.h ****     return v.color;
 245:.\lvgl-release-v8.3/./src/core/lv_obj_style_gen.h **** }
 246:.\lvgl-release-v8.3/./src/core/lv_obj_style_gen.h **** 
 247:.\lvgl-release-v8.3/./src/core/lv_obj_style_gen.h **** static inline lv_opa_t lv_obj_get_style_border_opa(const struct _lv_obj_t * obj, uint32_t part)
 248:.\lvgl-release-v8.3/./src/core/lv_obj_style_gen.h **** {
 249:.\lvgl-release-v8.3/./src/core/lv_obj_style_gen.h ****     lv_style_value_t v = lv_obj_get_style_prop(obj, part, LV_STYLE_BORDER_OPA);
 250:.\lvgl-release-v8.3/./src/core/lv_obj_style_gen.h ****     return (lv_opa_t)v.num;
 251:.\lvgl-release-v8.3/./src/core/lv_obj_style_gen.h **** }
 252:.\lvgl-release-v8.3/./src/core/lv_obj_style_gen.h **** 
 253:.\lvgl-release-v8.3/./src/core/lv_obj_style_gen.h **** static inline lv_coord_t lv_obj_get_style_border_width(const struct _lv_obj_t * obj, uint32_t part)
 254:.\lvgl-release-v8.3/./src/core/lv_obj_style_gen.h **** {
 255:.\lvgl-release-v8.3/./src/core/lv_obj_style_gen.h ****     lv_style_value_t v = lv_obj_get_style_prop(obj, part, LV_STYLE_BORDER_WIDTH);
 256:.\lvgl-release-v8.3/./src/core/lv_obj_style_gen.h ****     return (lv_coord_t)v.num;
 257:.\lvgl-release-v8.3/./src/core/lv_obj_style_gen.h **** }
 258:.\lvgl-release-v8.3/./src/core/lv_obj_style_gen.h **** 
 259:.\lvgl-release-v8.3/./src/core/lv_obj_style_gen.h **** static inline lv_border_side_t lv_obj_get_style_border_side(const struct _lv_obj_t * obj, uint32_t 
 260:.\lvgl-release-v8.3/./src/core/lv_obj_style_gen.h **** {
 261:.\lvgl-release-v8.3/./src/core/lv_obj_style_gen.h ****     lv_style_value_t v = lv_obj_get_style_prop(obj, part, LV_STYLE_BORDER_SIDE);
 262:.\lvgl-release-v8.3/./src/core/lv_obj_style_gen.h ****     return (lv_border_side_t)v.num;
 263:.\lvgl-release-v8.3/./src/core/lv_obj_style_gen.h **** }
 264:.\lvgl-release-v8.3/./src/core/lv_obj_style_gen.h **** 
 265:.\lvgl-release-v8.3/./src/core/lv_obj_style_gen.h **** static inline bool lv_obj_get_style_border_post(const struct _lv_obj_t * obj, uint32_t part)
 266:.\lvgl-release-v8.3/./src/core/lv_obj_style_gen.h **** {
 267:.\lvgl-release-v8.3/./src/core/lv_obj_style_gen.h ****     lv_style_value_t v = lv_obj_get_style_prop(obj, part, LV_STYLE_BORDER_POST);
 268:.\lvgl-release-v8.3/./src/core/lv_obj_style_gen.h ****     return (bool)v.num;
 269:.\lvgl-release-v8.3/./src/core/lv_obj_style_gen.h **** }
 270:.\lvgl-release-v8.3/./src/core/lv_obj_style_gen.h **** 
 271:.\lvgl-release-v8.3/./src/core/lv_obj_style_gen.h **** static inline lv_coord_t lv_obj_get_style_outline_width(const struct _lv_obj_t * obj, uint32_t part
 272:.\lvgl-release-v8.3/./src/core/lv_obj_style_gen.h **** {
 273:.\lvgl-release-v8.3/./src/core/lv_obj_style_gen.h ****     lv_style_value_t v = lv_obj_get_style_prop(obj, part, LV_STYLE_OUTLINE_WIDTH);
 274:.\lvgl-release-v8.3/./src/core/lv_obj_style_gen.h ****     return (lv_coord_t)v.num;
 275:.\lvgl-release-v8.3/./src/core/lv_obj_style_gen.h **** }
 276:.\lvgl-release-v8.3/./src/core/lv_obj_style_gen.h **** 
 277:.\lvgl-release-v8.3/./src/core/lv_obj_style_gen.h **** static inline lv_color_t lv_obj_get_style_outline_color(const struct _lv_obj_t * obj, uint32_t part
 278:.\lvgl-release-v8.3/./src/core/lv_obj_style_gen.h **** {
 279:.\lvgl-release-v8.3/./src/core/lv_obj_style_gen.h ****     lv_style_value_t v = lv_obj_get_style_prop(obj, part, LV_STYLE_OUTLINE_COLOR);
 280:.\lvgl-release-v8.3/./src/core/lv_obj_style_gen.h ****     return v.color;
 281:.\lvgl-release-v8.3/./src/core/lv_obj_style_gen.h **** }
 282:.\lvgl-release-v8.3/./src/core/lv_obj_style_gen.h **** 
 283:.\lvgl-release-v8.3/./src/core/lv_obj_style_gen.h **** static inline lv_color_t lv_obj_get_style_outline_color_filtered(const struct _lv_obj_t * obj, uint
 284:.\lvgl-release-v8.3/./src/core/lv_obj_style_gen.h **** {
 285:.\lvgl-release-v8.3/./src/core/lv_obj_style_gen.h ****     lv_style_value_t v = _lv_obj_style_apply_color_filter(obj, part, lv_obj_get_style_prop(obj, par
 286:.\lvgl-release-v8.3/./src/core/lv_obj_style_gen.h ****     return v.color;
ARM GAS  C:\Users\haske\AppData\Local\Temp\ccWs1cKl.s 			page 33


 287:.\lvgl-release-v8.3/./src/core/lv_obj_style_gen.h **** }
 288:.\lvgl-release-v8.3/./src/core/lv_obj_style_gen.h **** 
 289:.\lvgl-release-v8.3/./src/core/lv_obj_style_gen.h **** static inline lv_opa_t lv_obj_get_style_outline_opa(const struct _lv_obj_t * obj, uint32_t part)
 290:.\lvgl-release-v8.3/./src/core/lv_obj_style_gen.h **** {
 291:.\lvgl-release-v8.3/./src/core/lv_obj_style_gen.h ****     lv_style_value_t v = lv_obj_get_style_prop(obj, part, LV_STYLE_OUTLINE_OPA);
 292:.\lvgl-release-v8.3/./src/core/lv_obj_style_gen.h ****     return (lv_opa_t)v.num;
 293:.\lvgl-release-v8.3/./src/core/lv_obj_style_gen.h **** }
 294:.\lvgl-release-v8.3/./src/core/lv_obj_style_gen.h **** 
 295:.\lvgl-release-v8.3/./src/core/lv_obj_style_gen.h **** static inline lv_coord_t lv_obj_get_style_outline_pad(const struct _lv_obj_t * obj, uint32_t part)
 296:.\lvgl-release-v8.3/./src/core/lv_obj_style_gen.h **** {
 297:.\lvgl-release-v8.3/./src/core/lv_obj_style_gen.h ****     lv_style_value_t v = lv_obj_get_style_prop(obj, part, LV_STYLE_OUTLINE_PAD);
 298:.\lvgl-release-v8.3/./src/core/lv_obj_style_gen.h ****     return (lv_coord_t)v.num;
 299:.\lvgl-release-v8.3/./src/core/lv_obj_style_gen.h **** }
 300:.\lvgl-release-v8.3/./src/core/lv_obj_style_gen.h **** 
 301:.\lvgl-release-v8.3/./src/core/lv_obj_style_gen.h **** static inline lv_coord_t lv_obj_get_style_shadow_width(const struct _lv_obj_t * obj, uint32_t part)
 302:.\lvgl-release-v8.3/./src/core/lv_obj_style_gen.h **** {
 303:.\lvgl-release-v8.3/./src/core/lv_obj_style_gen.h ****     lv_style_value_t v = lv_obj_get_style_prop(obj, part, LV_STYLE_SHADOW_WIDTH);
 304:.\lvgl-release-v8.3/./src/core/lv_obj_style_gen.h ****     return (lv_coord_t)v.num;
 305:.\lvgl-release-v8.3/./src/core/lv_obj_style_gen.h **** }
 306:.\lvgl-release-v8.3/./src/core/lv_obj_style_gen.h **** 
 307:.\lvgl-release-v8.3/./src/core/lv_obj_style_gen.h **** static inline lv_coord_t lv_obj_get_style_shadow_ofs_x(const struct _lv_obj_t * obj, uint32_t part)
 308:.\lvgl-release-v8.3/./src/core/lv_obj_style_gen.h **** {
 309:.\lvgl-release-v8.3/./src/core/lv_obj_style_gen.h ****     lv_style_value_t v = lv_obj_get_style_prop(obj, part, LV_STYLE_SHADOW_OFS_X);
 310:.\lvgl-release-v8.3/./src/core/lv_obj_style_gen.h ****     return (lv_coord_t)v.num;
 311:.\lvgl-release-v8.3/./src/core/lv_obj_style_gen.h **** }
 312:.\lvgl-release-v8.3/./src/core/lv_obj_style_gen.h **** 
 313:.\lvgl-release-v8.3/./src/core/lv_obj_style_gen.h **** static inline lv_coord_t lv_obj_get_style_shadow_ofs_y(const struct _lv_obj_t * obj, uint32_t part)
 314:.\lvgl-release-v8.3/./src/core/lv_obj_style_gen.h **** {
 315:.\lvgl-release-v8.3/./src/core/lv_obj_style_gen.h ****     lv_style_value_t v = lv_obj_get_style_prop(obj, part, LV_STYLE_SHADOW_OFS_Y);
 316:.\lvgl-release-v8.3/./src/core/lv_obj_style_gen.h ****     return (lv_coord_t)v.num;
 317:.\lvgl-release-v8.3/./src/core/lv_obj_style_gen.h **** }
 318:.\lvgl-release-v8.3/./src/core/lv_obj_style_gen.h **** 
 319:.\lvgl-release-v8.3/./src/core/lv_obj_style_gen.h **** static inline lv_coord_t lv_obj_get_style_shadow_spread(const struct _lv_obj_t * obj, uint32_t part
 320:.\lvgl-release-v8.3/./src/core/lv_obj_style_gen.h **** {
 321:.\lvgl-release-v8.3/./src/core/lv_obj_style_gen.h ****     lv_style_value_t v = lv_obj_get_style_prop(obj, part, LV_STYLE_SHADOW_SPREAD);
 322:.\lvgl-release-v8.3/./src/core/lv_obj_style_gen.h ****     return (lv_coord_t)v.num;
 323:.\lvgl-release-v8.3/./src/core/lv_obj_style_gen.h **** }
 324:.\lvgl-release-v8.3/./src/core/lv_obj_style_gen.h **** 
 325:.\lvgl-release-v8.3/./src/core/lv_obj_style_gen.h **** static inline lv_color_t lv_obj_get_style_shadow_color(const struct _lv_obj_t * obj, uint32_t part)
 326:.\lvgl-release-v8.3/./src/core/lv_obj_style_gen.h **** {
 327:.\lvgl-release-v8.3/./src/core/lv_obj_style_gen.h ****     lv_style_value_t v = lv_obj_get_style_prop(obj, part, LV_STYLE_SHADOW_COLOR);
 328:.\lvgl-release-v8.3/./src/core/lv_obj_style_gen.h ****     return v.color;
 329:.\lvgl-release-v8.3/./src/core/lv_obj_style_gen.h **** }
 330:.\lvgl-release-v8.3/./src/core/lv_obj_style_gen.h **** 
 331:.\lvgl-release-v8.3/./src/core/lv_obj_style_gen.h **** static inline lv_color_t lv_obj_get_style_shadow_color_filtered(const struct _lv_obj_t * obj, uint3
 332:.\lvgl-release-v8.3/./src/core/lv_obj_style_gen.h **** {
 333:.\lvgl-release-v8.3/./src/core/lv_obj_style_gen.h ****     lv_style_value_t v = _lv_obj_style_apply_color_filter(obj, part, lv_obj_get_style_prop(obj, par
 334:.\lvgl-release-v8.3/./src/core/lv_obj_style_gen.h ****     return v.color;
 335:.\lvgl-release-v8.3/./src/core/lv_obj_style_gen.h **** }
 336:.\lvgl-release-v8.3/./src/core/lv_obj_style_gen.h **** 
 337:.\lvgl-release-v8.3/./src/core/lv_obj_style_gen.h **** static inline lv_opa_t lv_obj_get_style_shadow_opa(const struct _lv_obj_t * obj, uint32_t part)
 338:.\lvgl-release-v8.3/./src/core/lv_obj_style_gen.h **** {
 339:.\lvgl-release-v8.3/./src/core/lv_obj_style_gen.h ****     lv_style_value_t v = lv_obj_get_style_prop(obj, part, LV_STYLE_SHADOW_OPA);
 340:.\lvgl-release-v8.3/./src/core/lv_obj_style_gen.h ****     return (lv_opa_t)v.num;
 341:.\lvgl-release-v8.3/./src/core/lv_obj_style_gen.h **** }
 342:.\lvgl-release-v8.3/./src/core/lv_obj_style_gen.h **** 
 343:.\lvgl-release-v8.3/./src/core/lv_obj_style_gen.h **** static inline lv_opa_t lv_obj_get_style_img_opa(const struct _lv_obj_t * obj, uint32_t part)
ARM GAS  C:\Users\haske\AppData\Local\Temp\ccWs1cKl.s 			page 34


 344:.\lvgl-release-v8.3/./src/core/lv_obj_style_gen.h **** {
 345:.\lvgl-release-v8.3/./src/core/lv_obj_style_gen.h ****     lv_style_value_t v = lv_obj_get_style_prop(obj, part, LV_STYLE_IMG_OPA);
 346:.\lvgl-release-v8.3/./src/core/lv_obj_style_gen.h ****     return (lv_opa_t)v.num;
 347:.\lvgl-release-v8.3/./src/core/lv_obj_style_gen.h **** }
 348:.\lvgl-release-v8.3/./src/core/lv_obj_style_gen.h **** 
 349:.\lvgl-release-v8.3/./src/core/lv_obj_style_gen.h **** static inline lv_color_t lv_obj_get_style_img_recolor(const struct _lv_obj_t * obj, uint32_t part)
 350:.\lvgl-release-v8.3/./src/core/lv_obj_style_gen.h **** {
 351:.\lvgl-release-v8.3/./src/core/lv_obj_style_gen.h ****     lv_style_value_t v = lv_obj_get_style_prop(obj, part, LV_STYLE_IMG_RECOLOR);
 352:.\lvgl-release-v8.3/./src/core/lv_obj_style_gen.h ****     return v.color;
 353:.\lvgl-release-v8.3/./src/core/lv_obj_style_gen.h **** }
 354:.\lvgl-release-v8.3/./src/core/lv_obj_style_gen.h **** 
 355:.\lvgl-release-v8.3/./src/core/lv_obj_style_gen.h **** static inline lv_color_t lv_obj_get_style_img_recolor_filtered(const struct _lv_obj_t * obj, uint32
 356:.\lvgl-release-v8.3/./src/core/lv_obj_style_gen.h **** {
 357:.\lvgl-release-v8.3/./src/core/lv_obj_style_gen.h ****     lv_style_value_t v = _lv_obj_style_apply_color_filter(obj, part, lv_obj_get_style_prop(obj, par
 358:.\lvgl-release-v8.3/./src/core/lv_obj_style_gen.h ****     return v.color;
 359:.\lvgl-release-v8.3/./src/core/lv_obj_style_gen.h **** }
 360:.\lvgl-release-v8.3/./src/core/lv_obj_style_gen.h **** 
 361:.\lvgl-release-v8.3/./src/core/lv_obj_style_gen.h **** static inline lv_opa_t lv_obj_get_style_img_recolor_opa(const struct _lv_obj_t * obj, uint32_t part
 362:.\lvgl-release-v8.3/./src/core/lv_obj_style_gen.h **** {
 363:.\lvgl-release-v8.3/./src/core/lv_obj_style_gen.h ****     lv_style_value_t v = lv_obj_get_style_prop(obj, part, LV_STYLE_IMG_RECOLOR_OPA);
 364:.\lvgl-release-v8.3/./src/core/lv_obj_style_gen.h ****     return (lv_opa_t)v.num;
 365:.\lvgl-release-v8.3/./src/core/lv_obj_style_gen.h **** }
 366:.\lvgl-release-v8.3/./src/core/lv_obj_style_gen.h **** 
 367:.\lvgl-release-v8.3/./src/core/lv_obj_style_gen.h **** static inline lv_coord_t lv_obj_get_style_line_width(const struct _lv_obj_t * obj, uint32_t part)
 368:.\lvgl-release-v8.3/./src/core/lv_obj_style_gen.h **** {
 369:.\lvgl-release-v8.3/./src/core/lv_obj_style_gen.h ****     lv_style_value_t v = lv_obj_get_style_prop(obj, part, LV_STYLE_LINE_WIDTH);
 370:.\lvgl-release-v8.3/./src/core/lv_obj_style_gen.h ****     return (lv_coord_t)v.num;
 371:.\lvgl-release-v8.3/./src/core/lv_obj_style_gen.h **** }
 372:.\lvgl-release-v8.3/./src/core/lv_obj_style_gen.h **** 
 373:.\lvgl-release-v8.3/./src/core/lv_obj_style_gen.h **** static inline lv_coord_t lv_obj_get_style_line_dash_width(const struct _lv_obj_t * obj, uint32_t pa
 374:.\lvgl-release-v8.3/./src/core/lv_obj_style_gen.h **** {
 375:.\lvgl-release-v8.3/./src/core/lv_obj_style_gen.h ****     lv_style_value_t v = lv_obj_get_style_prop(obj, part, LV_STYLE_LINE_DASH_WIDTH);
 376:.\lvgl-release-v8.3/./src/core/lv_obj_style_gen.h ****     return (lv_coord_t)v.num;
 377:.\lvgl-release-v8.3/./src/core/lv_obj_style_gen.h **** }
 378:.\lvgl-release-v8.3/./src/core/lv_obj_style_gen.h **** 
 379:.\lvgl-release-v8.3/./src/core/lv_obj_style_gen.h **** static inline lv_coord_t lv_obj_get_style_line_dash_gap(const struct _lv_obj_t * obj, uint32_t part
 380:.\lvgl-release-v8.3/./src/core/lv_obj_style_gen.h **** {
 381:.\lvgl-release-v8.3/./src/core/lv_obj_style_gen.h ****     lv_style_value_t v = lv_obj_get_style_prop(obj, part, LV_STYLE_LINE_DASH_GAP);
 382:.\lvgl-release-v8.3/./src/core/lv_obj_style_gen.h ****     return (lv_coord_t)v.num;
 383:.\lvgl-release-v8.3/./src/core/lv_obj_style_gen.h **** }
 384:.\lvgl-release-v8.3/./src/core/lv_obj_style_gen.h **** 
 385:.\lvgl-release-v8.3/./src/core/lv_obj_style_gen.h **** static inline bool lv_obj_get_style_line_rounded(const struct _lv_obj_t * obj, uint32_t part)
 386:.\lvgl-release-v8.3/./src/core/lv_obj_style_gen.h **** {
 387:.\lvgl-release-v8.3/./src/core/lv_obj_style_gen.h ****     lv_style_value_t v = lv_obj_get_style_prop(obj, part, LV_STYLE_LINE_ROUNDED);
 388:.\lvgl-release-v8.3/./src/core/lv_obj_style_gen.h ****     return (bool)v.num;
 389:.\lvgl-release-v8.3/./src/core/lv_obj_style_gen.h **** }
 390:.\lvgl-release-v8.3/./src/core/lv_obj_style_gen.h **** 
 391:.\lvgl-release-v8.3/./src/core/lv_obj_style_gen.h **** static inline lv_color_t lv_obj_get_style_line_color(const struct _lv_obj_t * obj, uint32_t part)
 392:.\lvgl-release-v8.3/./src/core/lv_obj_style_gen.h **** {
 393:.\lvgl-release-v8.3/./src/core/lv_obj_style_gen.h ****     lv_style_value_t v = lv_obj_get_style_prop(obj, part, LV_STYLE_LINE_COLOR);
 394:.\lvgl-release-v8.3/./src/core/lv_obj_style_gen.h ****     return v.color;
 395:.\lvgl-release-v8.3/./src/core/lv_obj_style_gen.h **** }
 396:.\lvgl-release-v8.3/./src/core/lv_obj_style_gen.h **** 
 397:.\lvgl-release-v8.3/./src/core/lv_obj_style_gen.h **** static inline lv_color_t lv_obj_get_style_line_color_filtered(const struct _lv_obj_t * obj, uint32_
 398:.\lvgl-release-v8.3/./src/core/lv_obj_style_gen.h **** {
 399:.\lvgl-release-v8.3/./src/core/lv_obj_style_gen.h ****     lv_style_value_t v = _lv_obj_style_apply_color_filter(obj, part, lv_obj_get_style_prop(obj, par
 400:.\lvgl-release-v8.3/./src/core/lv_obj_style_gen.h ****     return v.color;
ARM GAS  C:\Users\haske\AppData\Local\Temp\ccWs1cKl.s 			page 35


 401:.\lvgl-release-v8.3/./src/core/lv_obj_style_gen.h **** }
 402:.\lvgl-release-v8.3/./src/core/lv_obj_style_gen.h **** 
 403:.\lvgl-release-v8.3/./src/core/lv_obj_style_gen.h **** static inline lv_opa_t lv_obj_get_style_line_opa(const struct _lv_obj_t * obj, uint32_t part)
 404:.\lvgl-release-v8.3/./src/core/lv_obj_style_gen.h **** {
 405:.\lvgl-release-v8.3/./src/core/lv_obj_style_gen.h ****     lv_style_value_t v = lv_obj_get_style_prop(obj, part, LV_STYLE_LINE_OPA);
 406:.\lvgl-release-v8.3/./src/core/lv_obj_style_gen.h ****     return (lv_opa_t)v.num;
 407:.\lvgl-release-v8.3/./src/core/lv_obj_style_gen.h **** }
 408:.\lvgl-release-v8.3/./src/core/lv_obj_style_gen.h **** 
 409:.\lvgl-release-v8.3/./src/core/lv_obj_style_gen.h **** static inline lv_coord_t lv_obj_get_style_arc_width(const struct _lv_obj_t * obj, uint32_t part)
 410:.\lvgl-release-v8.3/./src/core/lv_obj_style_gen.h **** {
 411:.\lvgl-release-v8.3/./src/core/lv_obj_style_gen.h ****     lv_style_value_t v = lv_obj_get_style_prop(obj, part, LV_STYLE_ARC_WIDTH);
 412:.\lvgl-release-v8.3/./src/core/lv_obj_style_gen.h ****     return (lv_coord_t)v.num;
 413:.\lvgl-release-v8.3/./src/core/lv_obj_style_gen.h **** }
 414:.\lvgl-release-v8.3/./src/core/lv_obj_style_gen.h **** 
 415:.\lvgl-release-v8.3/./src/core/lv_obj_style_gen.h **** static inline bool lv_obj_get_style_arc_rounded(const struct _lv_obj_t * obj, uint32_t part)
 416:.\lvgl-release-v8.3/./src/core/lv_obj_style_gen.h **** {
 417:.\lvgl-release-v8.3/./src/core/lv_obj_style_gen.h ****     lv_style_value_t v = lv_obj_get_style_prop(obj, part, LV_STYLE_ARC_ROUNDED);
 418:.\lvgl-release-v8.3/./src/core/lv_obj_style_gen.h ****     return (bool)v.num;
 419:.\lvgl-release-v8.3/./src/core/lv_obj_style_gen.h **** }
 420:.\lvgl-release-v8.3/./src/core/lv_obj_style_gen.h **** 
 421:.\lvgl-release-v8.3/./src/core/lv_obj_style_gen.h **** static inline lv_color_t lv_obj_get_style_arc_color(const struct _lv_obj_t * obj, uint32_t part)
 422:.\lvgl-release-v8.3/./src/core/lv_obj_style_gen.h **** {
 423:.\lvgl-release-v8.3/./src/core/lv_obj_style_gen.h ****     lv_style_value_t v = lv_obj_get_style_prop(obj, part, LV_STYLE_ARC_COLOR);
 424:.\lvgl-release-v8.3/./src/core/lv_obj_style_gen.h ****     return v.color;
 425:.\lvgl-release-v8.3/./src/core/lv_obj_style_gen.h **** }
 426:.\lvgl-release-v8.3/./src/core/lv_obj_style_gen.h **** 
 427:.\lvgl-release-v8.3/./src/core/lv_obj_style_gen.h **** static inline lv_color_t lv_obj_get_style_arc_color_filtered(const struct _lv_obj_t * obj, uint32_t
 428:.\lvgl-release-v8.3/./src/core/lv_obj_style_gen.h **** {
 429:.\lvgl-release-v8.3/./src/core/lv_obj_style_gen.h ****     lv_style_value_t v = _lv_obj_style_apply_color_filter(obj, part, lv_obj_get_style_prop(obj, par
 430:.\lvgl-release-v8.3/./src/core/lv_obj_style_gen.h ****     return v.color;
 431:.\lvgl-release-v8.3/./src/core/lv_obj_style_gen.h **** }
 432:.\lvgl-release-v8.3/./src/core/lv_obj_style_gen.h **** 
 433:.\lvgl-release-v8.3/./src/core/lv_obj_style_gen.h **** static inline lv_opa_t lv_obj_get_style_arc_opa(const struct _lv_obj_t * obj, uint32_t part)
 434:.\lvgl-release-v8.3/./src/core/lv_obj_style_gen.h **** {
 435:.\lvgl-release-v8.3/./src/core/lv_obj_style_gen.h ****     lv_style_value_t v = lv_obj_get_style_prop(obj, part, LV_STYLE_ARC_OPA);
 436:.\lvgl-release-v8.3/./src/core/lv_obj_style_gen.h ****     return (lv_opa_t)v.num;
 437:.\lvgl-release-v8.3/./src/core/lv_obj_style_gen.h **** }
 438:.\lvgl-release-v8.3/./src/core/lv_obj_style_gen.h **** 
 439:.\lvgl-release-v8.3/./src/core/lv_obj_style_gen.h **** static inline const void * lv_obj_get_style_arc_img_src(const struct _lv_obj_t * obj, uint32_t part
 440:.\lvgl-release-v8.3/./src/core/lv_obj_style_gen.h **** {
 441:.\lvgl-release-v8.3/./src/core/lv_obj_style_gen.h ****     lv_style_value_t v = lv_obj_get_style_prop(obj, part, LV_STYLE_ARC_IMG_SRC);
 442:.\lvgl-release-v8.3/./src/core/lv_obj_style_gen.h ****     return (const void *)v.ptr;
 443:.\lvgl-release-v8.3/./src/core/lv_obj_style_gen.h **** }
 444:.\lvgl-release-v8.3/./src/core/lv_obj_style_gen.h **** 
 445:.\lvgl-release-v8.3/./src/core/lv_obj_style_gen.h **** static inline lv_color_t lv_obj_get_style_text_color(const struct _lv_obj_t * obj, uint32_t part)
 446:.\lvgl-release-v8.3/./src/core/lv_obj_style_gen.h **** {
 447:.\lvgl-release-v8.3/./src/core/lv_obj_style_gen.h ****     lv_style_value_t v = lv_obj_get_style_prop(obj, part, LV_STYLE_TEXT_COLOR);
 448:.\lvgl-release-v8.3/./src/core/lv_obj_style_gen.h ****     return v.color;
 449:.\lvgl-release-v8.3/./src/core/lv_obj_style_gen.h **** }
 450:.\lvgl-release-v8.3/./src/core/lv_obj_style_gen.h **** 
 451:.\lvgl-release-v8.3/./src/core/lv_obj_style_gen.h **** static inline lv_color_t lv_obj_get_style_text_color_filtered(const struct _lv_obj_t * obj, uint32_
 452:.\lvgl-release-v8.3/./src/core/lv_obj_style_gen.h **** {
 453:.\lvgl-release-v8.3/./src/core/lv_obj_style_gen.h ****     lv_style_value_t v = _lv_obj_style_apply_color_filter(obj, part, lv_obj_get_style_prop(obj, par
 454:.\lvgl-release-v8.3/./src/core/lv_obj_style_gen.h ****     return v.color;
 455:.\lvgl-release-v8.3/./src/core/lv_obj_style_gen.h **** }
 456:.\lvgl-release-v8.3/./src/core/lv_obj_style_gen.h **** 
 457:.\lvgl-release-v8.3/./src/core/lv_obj_style_gen.h **** static inline lv_opa_t lv_obj_get_style_text_opa(const struct _lv_obj_t * obj, uint32_t part)
ARM GAS  C:\Users\haske\AppData\Local\Temp\ccWs1cKl.s 			page 36


 458:.\lvgl-release-v8.3/./src/core/lv_obj_style_gen.h **** {
 459:.\lvgl-release-v8.3/./src/core/lv_obj_style_gen.h ****     lv_style_value_t v = lv_obj_get_style_prop(obj, part, LV_STYLE_TEXT_OPA);
 460:.\lvgl-release-v8.3/./src/core/lv_obj_style_gen.h ****     return (lv_opa_t)v.num;
 461:.\lvgl-release-v8.3/./src/core/lv_obj_style_gen.h **** }
 462:.\lvgl-release-v8.3/./src/core/lv_obj_style_gen.h **** 
 463:.\lvgl-release-v8.3/./src/core/lv_obj_style_gen.h **** static inline const lv_font_t * lv_obj_get_style_text_font(const struct _lv_obj_t * obj, uint32_t p
 464:.\lvgl-release-v8.3/./src/core/lv_obj_style_gen.h **** {
 465:.\lvgl-release-v8.3/./src/core/lv_obj_style_gen.h ****     lv_style_value_t v = lv_obj_get_style_prop(obj, part, LV_STYLE_TEXT_FONT);
 466:.\lvgl-release-v8.3/./src/core/lv_obj_style_gen.h ****     return (const lv_font_t *)v.ptr;
 467:.\lvgl-release-v8.3/./src/core/lv_obj_style_gen.h **** }
 468:.\lvgl-release-v8.3/./src/core/lv_obj_style_gen.h **** 
 469:.\lvgl-release-v8.3/./src/core/lv_obj_style_gen.h **** static inline lv_coord_t lv_obj_get_style_text_letter_space(const struct _lv_obj_t * obj, uint32_t 
 470:.\lvgl-release-v8.3/./src/core/lv_obj_style_gen.h **** {
 471:.\lvgl-release-v8.3/./src/core/lv_obj_style_gen.h ****     lv_style_value_t v = lv_obj_get_style_prop(obj, part, LV_STYLE_TEXT_LETTER_SPACE);
 472:.\lvgl-release-v8.3/./src/core/lv_obj_style_gen.h ****     return (lv_coord_t)v.num;
 473:.\lvgl-release-v8.3/./src/core/lv_obj_style_gen.h **** }
 474:.\lvgl-release-v8.3/./src/core/lv_obj_style_gen.h **** 
 475:.\lvgl-release-v8.3/./src/core/lv_obj_style_gen.h **** static inline lv_coord_t lv_obj_get_style_text_line_space(const struct _lv_obj_t * obj, uint32_t pa
 476:.\lvgl-release-v8.3/./src/core/lv_obj_style_gen.h **** {
 477:.\lvgl-release-v8.3/./src/core/lv_obj_style_gen.h ****     lv_style_value_t v = lv_obj_get_style_prop(obj, part, LV_STYLE_TEXT_LINE_SPACE);
 478:.\lvgl-release-v8.3/./src/core/lv_obj_style_gen.h ****     return (lv_coord_t)v.num;
 479:.\lvgl-release-v8.3/./src/core/lv_obj_style_gen.h **** }
 480:.\lvgl-release-v8.3/./src/core/lv_obj_style_gen.h **** 
 481:.\lvgl-release-v8.3/./src/core/lv_obj_style_gen.h **** static inline lv_text_decor_t lv_obj_get_style_text_decor(const struct _lv_obj_t * obj, uint32_t pa
 482:.\lvgl-release-v8.3/./src/core/lv_obj_style_gen.h **** {
 483:.\lvgl-release-v8.3/./src/core/lv_obj_style_gen.h ****     lv_style_value_t v = lv_obj_get_style_prop(obj, part, LV_STYLE_TEXT_DECOR);
 484:.\lvgl-release-v8.3/./src/core/lv_obj_style_gen.h ****     return (lv_text_decor_t)v.num;
 485:.\lvgl-release-v8.3/./src/core/lv_obj_style_gen.h **** }
 486:.\lvgl-release-v8.3/./src/core/lv_obj_style_gen.h **** 
 487:.\lvgl-release-v8.3/./src/core/lv_obj_style_gen.h **** static inline lv_text_align_t lv_obj_get_style_text_align(const struct _lv_obj_t * obj, uint32_t pa
 488:.\lvgl-release-v8.3/./src/core/lv_obj_style_gen.h **** {
 489:.\lvgl-release-v8.3/./src/core/lv_obj_style_gen.h ****     lv_style_value_t v = lv_obj_get_style_prop(obj, part, LV_STYLE_TEXT_ALIGN);
 490:.\lvgl-release-v8.3/./src/core/lv_obj_style_gen.h ****     return (lv_text_align_t)v.num;
 491:.\lvgl-release-v8.3/./src/core/lv_obj_style_gen.h **** }
 492:.\lvgl-release-v8.3/./src/core/lv_obj_style_gen.h **** 
 493:.\lvgl-release-v8.3/./src/core/lv_obj_style_gen.h **** static inline lv_coord_t lv_obj_get_style_radius(const struct _lv_obj_t * obj, uint32_t part)
 494:.\lvgl-release-v8.3/./src/core/lv_obj_style_gen.h **** {
 495:.\lvgl-release-v8.3/./src/core/lv_obj_style_gen.h ****     lv_style_value_t v = lv_obj_get_style_prop(obj, part, LV_STYLE_RADIUS);
 496:.\lvgl-release-v8.3/./src/core/lv_obj_style_gen.h ****     return (lv_coord_t)v.num;
 497:.\lvgl-release-v8.3/./src/core/lv_obj_style_gen.h **** }
 498:.\lvgl-release-v8.3/./src/core/lv_obj_style_gen.h **** 
 499:.\lvgl-release-v8.3/./src/core/lv_obj_style_gen.h **** static inline bool lv_obj_get_style_clip_corner(const struct _lv_obj_t * obj, uint32_t part)
 500:.\lvgl-release-v8.3/./src/core/lv_obj_style_gen.h **** {
 501:.\lvgl-release-v8.3/./src/core/lv_obj_style_gen.h ****     lv_style_value_t v = lv_obj_get_style_prop(obj, part, LV_STYLE_CLIP_CORNER);
 502:.\lvgl-release-v8.3/./src/core/lv_obj_style_gen.h ****     return (bool)v.num;
 503:.\lvgl-release-v8.3/./src/core/lv_obj_style_gen.h **** }
 504:.\lvgl-release-v8.3/./src/core/lv_obj_style_gen.h **** 
 505:.\lvgl-release-v8.3/./src/core/lv_obj_style_gen.h **** static inline lv_opa_t lv_obj_get_style_opa(const struct _lv_obj_t * obj, uint32_t part)
 506:.\lvgl-release-v8.3/./src/core/lv_obj_style_gen.h **** {
 507:.\lvgl-release-v8.3/./src/core/lv_obj_style_gen.h ****     lv_style_value_t v = lv_obj_get_style_prop(obj, part, LV_STYLE_OPA);
 1199              		.loc 3 507 0
 1200 0004 6022     		movs	r2, #96
 1201 0006 0021     		movs	r1, #0
 1202 0008 1868     		ldr	r0, [r3]
 1203              	.LVL152:
 1204 000a FFF7FEFF 		bl	lv_obj_get_style_prop
 1205              	.LVL153:
ARM GAS  C:\Users\haske\AppData\Local\Temp\ccWs1cKl.s 			page 37


 1206              	.LBE23:
 1207              	.LBE22:
 204:ui\ui_helpers.c ****     return lv_obj_get_style_opa(usr->target, 0);
 205:ui\ui_helpers.c **** }
 1208              		.loc 1 205 0
 1209 000e C0B2     		uxtb	r0, r0
 1210 0010 08BD     		pop	{r3, pc}
 1211              		.cfi_endproc
 1212              	.LFE232:
 1213              		.size	_ui_anim_callback_get_opacity, .-_ui_anim_callback_get_opacity
 1214 0012 00BF     		.section	.text._ui_anim_callback_get_image_zoom,"ax",%progbits
 1215              		.align	2
 1216              		.global	_ui_anim_callback_get_image_zoom
 1217              		.thumb
 1218              		.thumb_func
 1219              		.type	_ui_anim_callback_get_image_zoom, %function
 1220              	_ui_anim_callback_get_image_zoom:
 1221              	.LFB233:
 206:ui\ui_helpers.c **** 
 207:ui\ui_helpers.c **** int32_t _ui_anim_callback_get_image_zoom(lv_anim_t * a)
 208:ui\ui_helpers.c **** {
 1222              		.loc 1 208 0
 1223              		.cfi_startproc
 1224              		@ args = 0, pretend = 0, frame = 0
 1225              		@ frame_needed = 0, uses_anonymous_args = 0
 1226              	.LVL154:
 1227 0000 08B5     		push	{r3, lr}
 1228              		.cfi_def_cfa_offset 8
 1229              		.cfi_offset 3, -8
 1230              		.cfi_offset 14, -4
 209:ui\ui_helpers.c ****     ui_anim_user_data_t * usr = (ui_anim_user_data_t *)a->user_data;
 1231              		.loc 1 209 0
 1232 0002 8369     		ldr	r3, [r0, #24]
 1233              	.LVL155:
 210:ui\ui_helpers.c ****     return lv_img_get_zoom(usr->target);
 1234              		.loc 1 210 0
 1235 0004 1868     		ldr	r0, [r3]
 1236              	.LVL156:
 1237 0006 FFF7FEFF 		bl	lv_img_get_zoom
 1238              	.LVL157:
 211:ui\ui_helpers.c **** }
 1239              		.loc 1 211 0
 1240 000a 08BD     		pop	{r3, pc}
 1241              		.cfi_endproc
 1242              	.LFE233:
 1243              		.size	_ui_anim_callback_get_image_zoom, .-_ui_anim_callback_get_image_zoom
 1244              		.section	.text._ui_anim_callback_get_image_angle,"ax",%progbits
 1245              		.align	2
 1246              		.global	_ui_anim_callback_get_image_angle
 1247              		.thumb
 1248              		.thumb_func
 1249              		.type	_ui_anim_callback_get_image_angle, %function
 1250              	_ui_anim_callback_get_image_angle:
 1251              	.LFB234:
 212:ui\ui_helpers.c **** 
 213:ui\ui_helpers.c **** int32_t _ui_anim_callback_get_image_angle(lv_anim_t * a)
 214:ui\ui_helpers.c **** {
ARM GAS  C:\Users\haske\AppData\Local\Temp\ccWs1cKl.s 			page 38


 1252              		.loc 1 214 0
 1253              		.cfi_startproc
 1254              		@ args = 0, pretend = 0, frame = 0
 1255              		@ frame_needed = 0, uses_anonymous_args = 0
 1256              	.LVL158:
 1257 0000 08B5     		push	{r3, lr}
 1258              		.cfi_def_cfa_offset 8
 1259              		.cfi_offset 3, -8
 1260              		.cfi_offset 14, -4
 215:ui\ui_helpers.c ****     ui_anim_user_data_t * usr = (ui_anim_user_data_t *)a->user_data;
 1261              		.loc 1 215 0
 1262 0002 8369     		ldr	r3, [r0, #24]
 1263              	.LVL159:
 216:ui\ui_helpers.c ****     return lv_img_get_angle(usr->target);
 1264              		.loc 1 216 0
 1265 0004 1868     		ldr	r0, [r3]
 1266              	.LVL160:
 1267 0006 FFF7FEFF 		bl	lv_img_get_angle
 1268              	.LVL161:
 217:ui\ui_helpers.c **** }
 1269              		.loc 1 217 0
 1270 000a 08BD     		pop	{r3, pc}
 1271              		.cfi_endproc
 1272              	.LFE234:
 1273              		.size	_ui_anim_callback_get_image_angle, .-_ui_anim_callback_get_image_angle
 1274              		.section	.text._ui_anim_callback_get_image_frame,"ax",%progbits
 1275              		.align	2
 1276              		.global	_ui_anim_callback_get_image_frame
 1277              		.thumb
 1278              		.thumb_func
 1279              		.type	_ui_anim_callback_get_image_frame, %function
 1280              	_ui_anim_callback_get_image_frame:
 1281              	.LFB235:
 218:ui\ui_helpers.c **** 
 219:ui\ui_helpers.c **** int32_t _ui_anim_callback_get_image_frame(lv_anim_t * a)
 220:ui\ui_helpers.c **** {
 1282              		.loc 1 220 0
 1283              		.cfi_startproc
 1284              		@ args = 0, pretend = 0, frame = 0
 1285              		@ frame_needed = 0, uses_anonymous_args = 0
 1286              		@ link register save eliminated.
 1287              	.LVL162:
 221:ui\ui_helpers.c ****     ui_anim_user_data_t * usr = (ui_anim_user_data_t *)a->user_data;
 1288              		.loc 1 221 0
 1289 0000 8369     		ldr	r3, [r0, #24]
 1290              	.LVL163:
 222:ui\ui_helpers.c ****     return usr->val;
 223:ui\ui_helpers.c **** }
 1291              		.loc 1 223 0
 1292 0002 D868     		ldr	r0, [r3, #12]
 1293              	.LVL164:
 1294 0004 7047     		bx	lr
 1295              		.cfi_endproc
 1296              	.LFE235:
 1297              		.size	_ui_anim_callback_get_image_frame, .-_ui_anim_callback_get_image_frame
 1298              		.section	.text._ui_arc_set_text_value,"ax",%progbits
 1299              		.align	2
ARM GAS  C:\Users\haske\AppData\Local\Temp\ccWs1cKl.s 			page 39


 1300              		.global	_ui_arc_set_text_value
 1301              		.thumb
 1302              		.thumb_func
 1303              		.type	_ui_arc_set_text_value, %function
 1304              	_ui_arc_set_text_value:
 1305              	.LFB236:
 224:ui\ui_helpers.c **** 
 225:ui\ui_helpers.c **** void _ui_arc_set_text_value(lv_obj_t * trg, lv_obj_t * src, const char * prefix, const char * postf
 226:ui\ui_helpers.c **** {
 1306              		.loc 1 226 0
 1307              		.cfi_startproc
 1308              		@ args = 0, pretend = 0, frame = 32
 1309              		@ frame_needed = 0, uses_anonymous_args = 0
 1310              	.LVL165:
 1311 0000 70B5     		push	{r4, r5, r6, lr}
 1312              		.cfi_def_cfa_offset 16
 1313              		.cfi_offset 4, -16
 1314              		.cfi_offset 5, -12
 1315              		.cfi_offset 6, -8
 1316              		.cfi_offset 14, -4
 1317 0002 8AB0     		sub	sp, sp, #40
 1318              		.cfi_def_cfa_offset 56
 1319 0004 0446     		mov	r4, r0
 1320 0006 1546     		mov	r5, r2
 1321 0008 1E46     		mov	r6, r3
 227:ui\ui_helpers.c ****     char buf[_UI_TEMPORARY_STRING_BUFFER_SIZE];
 228:ui\ui_helpers.c ****     lv_snprintf(buf, sizeof(buf), "%s%d%s", prefix, (int)lv_arc_get_value(src), postfix);
 1322              		.loc 1 228 0
 1323 000a 0846     		mov	r0, r1
 1324              	.LVL166:
 1325 000c FFF7FEFF 		bl	lv_arc_get_value
 1326              	.LVL167:
 1327 0010 0196     		str	r6, [sp, #4]
 1328 0012 0090     		str	r0, [sp]
 1329 0014 2B46     		mov	r3, r5
 1330 0016 054A     		ldr	r2, .L100
 1331 0018 2021     		movs	r1, #32
 1332 001a 02A8     		add	r0, sp, #8
 1333 001c FFF7FEFF 		bl	lv_snprintf
 1334              	.LVL168:
 229:ui\ui_helpers.c ****     lv_label_set_text(trg, buf);
 1335              		.loc 1 229 0
 1336 0020 02A9     		add	r1, sp, #8
 1337 0022 2046     		mov	r0, r4
 1338 0024 FFF7FEFF 		bl	lv_label_set_text
 1339              	.LVL169:
 230:ui\ui_helpers.c **** }
 1340              		.loc 1 230 0
 1341 0028 0AB0     		add	sp, sp, #40
 1342              		.cfi_def_cfa_offset 16
 1343              		@ sp needed
 1344 002a 70BD     		pop	{r4, r5, r6, pc}
 1345              	.LVL170:
 1346              	.L101:
 1347              		.align	2
 1348              	.L100:
 1349 002c 00000000 		.word	.LC0
ARM GAS  C:\Users\haske\AppData\Local\Temp\ccWs1cKl.s 			page 40


 1350              		.cfi_endproc
 1351              	.LFE236:
 1352              		.size	_ui_arc_set_text_value, .-_ui_arc_set_text_value
 1353              		.section	.text._ui_slider_set_text_value,"ax",%progbits
 1354              		.align	2
 1355              		.global	_ui_slider_set_text_value
 1356              		.thumb
 1357              		.thumb_func
 1358              		.type	_ui_slider_set_text_value, %function
 1359              	_ui_slider_set_text_value:
 1360              	.LFB237:
 231:ui\ui_helpers.c **** 
 232:ui\ui_helpers.c **** void _ui_slider_set_text_value(lv_obj_t * trg, lv_obj_t * src, const char * prefix, const char * po
 233:ui\ui_helpers.c **** {
 1361              		.loc 1 233 0
 1362              		.cfi_startproc
 1363              		@ args = 0, pretend = 0, frame = 32
 1364              		@ frame_needed = 0, uses_anonymous_args = 0
 1365              	.LVL171:
 1366 0000 70B5     		push	{r4, r5, r6, lr}
 1367              		.cfi_def_cfa_offset 16
 1368              		.cfi_offset 4, -16
 1369              		.cfi_offset 5, -12
 1370              		.cfi_offset 6, -8
 1371              		.cfi_offset 14, -4
 1372 0002 8AB0     		sub	sp, sp, #40
 1373              		.cfi_def_cfa_offset 56
 1374 0004 0446     		mov	r4, r0
 1375 0006 1546     		mov	r5, r2
 1376 0008 1E46     		mov	r6, r3
 1377              	.LVL172:
 1378              	.LBB24:
 1379              	.LBB25:
 1380              		.loc 2 132 0
 1381 000a 0846     		mov	r0, r1
 1382              	.LVL173:
 1383 000c FFF7FEFF 		bl	lv_bar_get_value
 1384              	.LVL174:
 1385              	.LBE25:
 1386              	.LBE24:
 234:ui\ui_helpers.c ****     char buf[_UI_TEMPORARY_STRING_BUFFER_SIZE];
 235:ui\ui_helpers.c ****     lv_snprintf(buf, sizeof(buf), "%s%d%s", prefix, (int)lv_slider_get_value(src), postfix);
 1387              		.loc 1 235 0
 1388 0010 0196     		str	r6, [sp, #4]
 1389 0012 0090     		str	r0, [sp]
 1390 0014 2B46     		mov	r3, r5
 1391 0016 054A     		ldr	r2, .L104
 1392 0018 2021     		movs	r1, #32
 1393 001a 02A8     		add	r0, sp, #8
 1394 001c FFF7FEFF 		bl	lv_snprintf
 1395              	.LVL175:
 236:ui\ui_helpers.c ****     lv_label_set_text(trg, buf);
 1396              		.loc 1 236 0
 1397 0020 02A9     		add	r1, sp, #8
 1398 0022 2046     		mov	r0, r4
 1399 0024 FFF7FEFF 		bl	lv_label_set_text
 1400              	.LVL176:
ARM GAS  C:\Users\haske\AppData\Local\Temp\ccWs1cKl.s 			page 41


 237:ui\ui_helpers.c **** }
 1401              		.loc 1 237 0
 1402 0028 0AB0     		add	sp, sp, #40
 1403              		.cfi_def_cfa_offset 16
 1404              		@ sp needed
 1405 002a 70BD     		pop	{r4, r5, r6, pc}
 1406              	.LVL177:
 1407              	.L105:
 1408              		.align	2
 1409              	.L104:
 1410 002c 00000000 		.word	.LC0
 1411              		.cfi_endproc
 1412              	.LFE237:
 1413              		.size	_ui_slider_set_text_value, .-_ui_slider_set_text_value
 1414              		.section	.text._ui_checked_set_text_value,"ax",%progbits
 1415              		.align	2
 1416              		.global	_ui_checked_set_text_value
 1417              		.thumb
 1418              		.thumb_func
 1419              		.type	_ui_checked_set_text_value, %function
 1420              	_ui_checked_set_text_value:
 1421              	.LFB238:
 238:ui\ui_helpers.c **** void _ui_checked_set_text_value(lv_obj_t * trg, lv_obj_t * src, const char * txt_on, const char * t
 239:ui\ui_helpers.c **** {
 1422              		.loc 1 239 0
 1423              		.cfi_startproc
 1424              		@ args = 0, pretend = 0, frame = 0
 1425              		@ frame_needed = 0, uses_anonymous_args = 0
 1426              	.LVL178:
 1427 0000 70B5     		push	{r4, r5, r6, lr}
 1428              		.cfi_def_cfa_offset 16
 1429              		.cfi_offset 4, -16
 1430              		.cfi_offset 5, -12
 1431              		.cfi_offset 6, -8
 1432              		.cfi_offset 14, -4
 1433 0002 0446     		mov	r4, r0
 1434 0004 0846     		mov	r0, r1
 1435              	.LVL179:
 1436 0006 1646     		mov	r6, r2
 1437 0008 1D46     		mov	r5, r3
 240:ui\ui_helpers.c ****     if(lv_obj_has_state(src, LV_STATE_CHECKED)) lv_label_set_text(trg, txt_on);
 1438              		.loc 1 240 0
 1439 000a 0121     		movs	r1, #1
 1440              	.LVL180:
 1441 000c FFF7FEFF 		bl	lv_obj_has_state
 1442              	.LVL181:
 1443 0010 20B1     		cbz	r0, .L107
 1444              		.loc 1 240 0 is_stmt 0 discriminator 1
 1445 0012 3146     		mov	r1, r6
 1446 0014 2046     		mov	r0, r4
 1447 0016 FFF7FEFF 		bl	lv_label_set_text
 1448              	.LVL182:
 1449 001a 70BD     		pop	{r4, r5, r6, pc}
 1450              	.LVL183:
 1451              	.L107:
 241:ui\ui_helpers.c ****     else lv_label_set_text(trg, txt_off);
 1452              		.loc 1 241 0 is_stmt 1
ARM GAS  C:\Users\haske\AppData\Local\Temp\ccWs1cKl.s 			page 42


 1453 001c 2946     		mov	r1, r5
 1454 001e 2046     		mov	r0, r4
 1455 0020 FFF7FEFF 		bl	lv_label_set_text
 1456              	.LVL184:
 1457 0024 70BD     		pop	{r4, r5, r6, pc}
 1458              		.cfi_endproc
 1459              	.LFE238:
 1460              		.size	_ui_checked_set_text_value, .-_ui_checked_set_text_value
 1461 0026 00BF     		.section	.text._ui_spinbox_step,"ax",%progbits
 1462              		.align	2
 1463              		.global	_ui_spinbox_step
 1464              		.thumb
 1465              		.thumb_func
 1466              		.type	_ui_spinbox_step, %function
 1467              	_ui_spinbox_step:
 1468              	.LFB239:
 242:ui\ui_helpers.c **** }
 243:ui\ui_helpers.c **** 
 244:ui\ui_helpers.c **** void _ui_spinbox_step(lv_obj_t * target, int val)
 245:ui\ui_helpers.c **** {
 1469              		.loc 1 245 0
 1470              		.cfi_startproc
 1471              		@ args = 0, pretend = 0, frame = 0
 1472              		@ frame_needed = 0, uses_anonymous_args = 0
 1473              	.LVL185:
 1474 0000 10B5     		push	{r4, lr}
 1475              		.cfi_def_cfa_offset 8
 1476              		.cfi_offset 4, -8
 1477              		.cfi_offset 14, -4
 1478 0002 0446     		mov	r4, r0
 246:ui\ui_helpers.c ****     if(val > 0) lv_spinbox_increment(target);
 1479              		.loc 1 246 0
 1480 0004 0029     		cmp	r1, #0
 1481 0006 02DD     		ble	.L111
 1482              		.loc 1 246 0 is_stmt 0 discriminator 1
 1483 0008 FFF7FEFF 		bl	lv_spinbox_increment
 1484              	.LVL186:
 1485 000c 01E0     		b	.L112
 1486              	.LVL187:
 1487              	.L111:
 247:ui\ui_helpers.c ****     else lv_spinbox_decrement(target);
 1488              		.loc 1 247 0 is_stmt 1
 1489 000e FFF7FEFF 		bl	lv_spinbox_decrement
 1490              	.LVL188:
 1491              	.L112:
 248:ui\ui_helpers.c **** 
 249:ui\ui_helpers.c ****     lv_event_send(target, LV_EVENT_VALUE_CHANGED, 0);
 1492              		.loc 1 249 0
 1493 0012 0022     		movs	r2, #0
 1494 0014 1C21     		movs	r1, #28
 1495 0016 2046     		mov	r0, r4
 1496 0018 FFF7FEFF 		bl	lv_event_send
 1497              	.LVL189:
 1498 001c 10BD     		pop	{r4, pc}
 1499              		.cfi_endproc
 1500              	.LFE239:
 1501              		.size	_ui_spinbox_step, .-_ui_spinbox_step
ARM GAS  C:\Users\haske\AppData\Local\Temp\ccWs1cKl.s 			page 43


 1502 001e 00BF     		.section	.rodata.str1.4,"aMS",%progbits,1
 1503              		.align	2
 1504              	.LC0:
 1505 0000 25732564 		.ascii	"%s%d%s\000"
 1505      257300
 1506              		.text
 1507              	.Letext0:
 1508              		.file 4 "c:\\program files (x86)\\cypress\\psoc creator\\4.4\\psoc creator\\import\\gnu\\arm\\5.4.
 1509              		.file 5 "c:\\program files (x86)\\cypress\\psoc creator\\4.4\\psoc creator\\import\\gnu\\arm\\5.4.
 1510              		.file 6 ".\\lvgl-release-v8.3/./src/misc/lv_anim.h"
 1511              		.file 7 ".\\lvgl-release-v8.3/./src/hal/../draw/../misc/../font/../misc/lv_area.h"
 1512              		.file 8 ".\\lvgl-release-v8.3/./src/hal/../draw/../misc/../font/lv_font.h"
 1513              		.file 9 ".\\lvgl-release-v8.3/./src/hal/../draw/../misc/lv_color.h"
 1514              		.file 10 ".\\lvgl-release-v8.3/./src/hal/../draw/../misc/lv_style.h"
 1515              		.file 11 ".\\lvgl-release-v8.3/./src/hal/../draw/lv_img_buf.h"
 1516              		.file 12 ".\\lvgl-release-v8.3/./src/core/lv_obj.h"
 1517              		.file 13 ".\\lvgl-release-v8.3/./src/hal/../misc/lv_ll.h"
 1518              		.file 14 ".\\lvgl-release-v8.3/./src/core/lv_group.h"
 1519              		.file 15 ".\\lvgl-release-v8.3/./src/core/lv_obj_scroll.h"
 1520              		.file 16 ".\\lvgl-release-v8.3/./src/core/lv_obj_style.h"
 1521              		.file 17 ".\\lvgl-release-v8.3/./src/core/lv_obj_class.h"
 1522              		.file 18 ".\\lvgl-release-v8.3/./src/core/lv_event.h"
 1523              		.file 19 ".\\lvgl-release-v8.3/./src/core/lv_disp.h"
 1524              		.file 20 "ui\\ui_helpers.h"
 1525              		.file 21 ".\\lvgl-release-v8.3/./src/extra/layouts/flex/lv_flex.h"
 1526              		.file 22 ".\\lvgl-release-v8.3/./src/extra/layouts/grid/lv_grid.h"
 1527              		.file 23 ".\\lvgl-release-v8.3/./src/widgets/lv_bar.h"
 1528              		.file 24 ".\\lvgl-release-v8.3/./src/hal/../draw/sw/../../core/lv_obj_pos.h"
 1529              		.file 25 ".\\lvgl-release-v8.3/./src/widgets/lv_dropdown.h"
 1530              		.file 26 ".\\lvgl-release-v8.3/./src/widgets/lv_img.h"
 1531              		.file 27 ".\\lvgl-release-v8.3/./src/widgets/lv_label.h"
 1532              		.file 28 ".\\lvgl-release-v8.3/./src/widgets/lv_roller.h"
 1533              		.file 29 ".\\lvgl-release-v8.3/./src/core/lv_obj_tree.h"
 1534              		.file 30 ".\\lvgl-release-v8.3/./src/widgets/lv_arc.h"
 1535              		.file 31 ".\\lvgl-release-v8.3/./src/extra/widgets/keyboard/lv_keyboard.h"
 1536              		.file 32 ".\\lvgl-release-v8.3/./src/misc/lv_mem.h"
 1537              		.file 33 ".\\lvgl-release-v8.3/./src/misc/lv_printf.h"
 1538              		.file 34 ".\\lvgl-release-v8.3/./src/extra/widgets/spinbox/lv_spinbox.h"