ARM GAS  C:\Users\haske\AppData\Local\Temp\ccumZSsE.s 			page 1


   1              		.syntax unified
   2              		.cpu cortex-m4
   3              		.eabi_attribute 27, 1
   4              		.fpu fpv4-sp-d16
   5              		.eabi_attribute 20, 1
   6              		.eabi_attribute 21, 1
   7              		.eabi_attribute 23, 3
   8              		.eabi_attribute 24, 1
   9              		.eabi_attribute 25, 1
  10              		.eabi_attribute 26, 1
  11              		.eabi_attribute 30, 1
  12              		.eabi_attribute 34, 1
  13              		.eabi_attribute 18, 4
  14              		.thumb
  15              		.syntax unified
  16              		.file	"ui_Splash_screen.c"
  17              		.text
  18              	.Ltext0:
  19              		.cfi_sections	.debug_frame
  20              		.section	.text.ui_Splash_screen_screen_init,"ax",%progbits
  21              		.align	2
  22              		.global	ui_Splash_screen_screen_init
  23              		.thumb
  24              		.thumb_func
  25              		.type	ui_Splash_screen_screen_init, %function
  26              	ui_Splash_screen_screen_init:
  27              	.LFB202:
  28              		.file 1 "ui\\screens\\ui_Splash_screen.c"
   1:ui\screens/ui_Splash_screen.c **** // This file was generated by SquareLine Studio
   2:ui\screens/ui_Splash_screen.c **** // SquareLine Studio version: SquareLine Studio 1.3.1
   3:ui\screens/ui_Splash_screen.c **** // LVGL version: 8.3.6
   4:ui\screens/ui_Splash_screen.c **** // Project name: Pain Drain
   5:ui\screens/ui_Splash_screen.c **** 
   6:ui\screens/ui_Splash_screen.c **** #include "../ui.h"
   7:ui\screens/ui_Splash_screen.c **** 
   8:ui\screens/ui_Splash_screen.c **** void ui_Splash_screen_screen_init(void)
   9:ui\screens/ui_Splash_screen.c **** {
  29              		.loc 1 9 0
  30              		.cfi_startproc
  31              		@ args = 0, pretend = 0, frame = 0
  32              		@ frame_needed = 0, uses_anonymous_args = 0
  33 0000 38B5     		push	{r3, r4, r5, lr}
  34              		.cfi_def_cfa_offset 16
  35              		.cfi_offset 3, -16
  36              		.cfi_offset 4, -12
  37              		.cfi_offset 5, -8
  38              		.cfi_offset 14, -4
  10:ui\screens/ui_Splash_screen.c ****     ui_Splash_screen = lv_obj_create(NULL);
  39              		.loc 1 10 0
  40 0002 0020     		movs	r0, #0
  41 0004 FFF7FEFF 		bl	lv_obj_create
  42              	.LVL0:
  43 0008 354C     		ldr	r4, .L3
  44 000a 2060     		str	r0, [r4]
  11:ui\screens/ui_Splash_screen.c ****     lv_obj_clear_flag(ui_Splash_screen, LV_OBJ_FLAG_SCROLLABLE);      /// Flags
  45              		.loc 1 11 0
  46 000c 1021     		movs	r1, #16
ARM GAS  C:\Users\haske\AppData\Local\Temp\ccumZSsE.s 			page 2


  47 000e FFF7FEFF 		bl	lv_obj_clear_flag
  48              	.LVL1:
  12:ui\screens/ui_Splash_screen.c ****     lv_obj_set_style_bg_color(ui_Splash_screen, lv_color_hex(0x615A5A), LV_PART_MAIN | LV_STATE_DEF
  49              		.loc 1 12 0
  50 0012 0022     		movs	r2, #0
  51 0014 3349     		ldr	r1, .L3+4
  52 0016 2068     		ldr	r0, [r4]
  53 0018 FFF7FEFF 		bl	lv_obj_set_style_bg_color
  54              	.LVL2:
  13:ui\screens/ui_Splash_screen.c ****     lv_obj_set_style_bg_opa(ui_Splash_screen, 255, LV_PART_MAIN | LV_STATE_DEFAULT);
  55              		.loc 1 13 0
  56 001c 0022     		movs	r2, #0
  57 001e FF21     		movs	r1, #255
  58 0020 2068     		ldr	r0, [r4]
  59 0022 FFF7FEFF 		bl	lv_obj_set_style_bg_opa
  60              	.LVL3:
  14:ui\screens/ui_Splash_screen.c ****     lv_obj_set_style_bg_grad_color(ui_Splash_screen, lv_color_hex(0xEFEFEF), LV_PART_MAIN | LV_STAT
  61              		.loc 1 14 0
  62 0026 0022     		movs	r2, #0
  63 0028 2F49     		ldr	r1, .L3+8
  64 002a 2068     		ldr	r0, [r4]
  65 002c FFF7FEFF 		bl	lv_obj_set_style_bg_grad_color
  66              	.LVL4:
  15:ui\screens/ui_Splash_screen.c ****     lv_obj_set_style_bg_grad_dir(ui_Splash_screen, LV_GRAD_DIR_VER, LV_PART_MAIN | LV_STATE_DEFAULT
  67              		.loc 1 15 0
  68 0030 0022     		movs	r2, #0
  69 0032 0121     		movs	r1, #1
  70 0034 2068     		ldr	r0, [r4]
  71 0036 FFF7FEFF 		bl	lv_obj_set_style_bg_grad_dir
  72              	.LVL5:
  16:ui\screens/ui_Splash_screen.c **** 
  17:ui\screens/ui_Splash_screen.c ****     ui_logo_label = lv_label_create(ui_Splash_screen);
  73              		.loc 1 17 0
  74 003a 2068     		ldr	r0, [r4]
  75 003c FFF7FEFF 		bl	lv_label_create
  76              	.LVL6:
  77 0040 2A4D     		ldr	r5, .L3+12
  78 0042 2860     		str	r0, [r5]
  18:ui\screens/ui_Splash_screen.c ****     lv_obj_set_width(ui_logo_label, LV_SIZE_CONTENT);   /// 15
  79              		.loc 1 18 0
  80 0044 42F2D171 		movw	r1, #10193
  81 0048 FFF7FEFF 		bl	lv_obj_set_width
  82              	.LVL7:
  19:ui\screens/ui_Splash_screen.c ****     lv_obj_set_height(ui_logo_label, LV_SIZE_CONTENT);    /// 5
  83              		.loc 1 19 0
  84 004c 42F2D171 		movw	r1, #10193
  85 0050 2868     		ldr	r0, [r5]
  86 0052 FFF7FEFF 		bl	lv_obj_set_height
  87              	.LVL8:
  20:ui\screens/ui_Splash_screen.c ****     lv_obj_set_x(ui_logo_label, 0);
  88              		.loc 1 20 0
  89 0056 0021     		movs	r1, #0
  90 0058 2868     		ldr	r0, [r5]
  91 005a FFF7FEFF 		bl	lv_obj_set_x
  92              	.LVL9:
  21:ui\screens/ui_Splash_screen.c ****     lv_obj_set_y(ui_logo_label, lv_pct(20));
  93              		.loc 1 21 0
ARM GAS  C:\Users\haske\AppData\Local\Temp\ccumZSsE.s 			page 3


  94 005e 42F21401 		movw	r1, #8212
  95 0062 2868     		ldr	r0, [r5]
  96 0064 FFF7FEFF 		bl	lv_obj_set_y
  97              	.LVL10:
  22:ui\screens/ui_Splash_screen.c ****     lv_obj_set_align(ui_logo_label, LV_ALIGN_CENTER);
  98              		.loc 1 22 0
  99 0068 0921     		movs	r1, #9
 100 006a 2868     		ldr	r0, [r5]
 101 006c FFF7FEFF 		bl	lv_obj_set_align
 102              	.LVL11:
  23:ui\screens/ui_Splash_screen.c ****     lv_label_set_text(ui_logo_label, "Pain Drain");
 103              		.loc 1 23 0
 104 0070 1F49     		ldr	r1, .L3+16
 105 0072 2868     		ldr	r0, [r5]
 106 0074 FFF7FEFF 		bl	lv_label_set_text
 107              	.LVL12:
  24:ui\screens/ui_Splash_screen.c ****     lv_obj_set_style_text_font(ui_logo_label, &lv_font_montserrat_30, LV_PART_MAIN | LV_STATE_DEFAU
 108              		.loc 1 24 0
 109 0078 0022     		movs	r2, #0
 110 007a 1E49     		ldr	r1, .L3+20
 111 007c 2868     		ldr	r0, [r5]
 112 007e FFF7FEFF 		bl	lv_obj_set_style_text_font
 113              	.LVL13:
  25:ui\screens/ui_Splash_screen.c **** 
  26:ui\screens/ui_Splash_screen.c ****     ui_pain_drain_logo = lv_img_create(ui_Splash_screen);
 114              		.loc 1 26 0
 115 0082 2068     		ldr	r0, [r4]
 116 0084 FFF7FEFF 		bl	lv_img_create
 117              	.LVL14:
 118 0088 1B4D     		ldr	r5, .L3+24
 119 008a 2860     		str	r0, [r5]
  27:ui\screens/ui_Splash_screen.c ****     lv_img_set_src(ui_pain_drain_logo, &ui_img_paindraindevicewithoutbackgroundresized_png);
 120              		.loc 1 27 0
 121 008c 1B49     		ldr	r1, .L3+28
 122 008e FFF7FEFF 		bl	lv_img_set_src
 123              	.LVL15:
  28:ui\screens/ui_Splash_screen.c ****     lv_obj_set_width(ui_pain_drain_logo, LV_SIZE_CONTENT);   /// 167
 124              		.loc 1 28 0
 125 0092 42F2D171 		movw	r1, #10193
 126 0096 2868     		ldr	r0, [r5]
 127 0098 FFF7FEFF 		bl	lv_obj_set_width
 128              	.LVL16:
  29:ui\screens/ui_Splash_screen.c ****     lv_obj_set_height(ui_pain_drain_logo, LV_SIZE_CONTENT);    /// 127
 129              		.loc 1 29 0
 130 009c 42F2D171 		movw	r1, #10193
 131 00a0 2868     		ldr	r0, [r5]
 132 00a2 FFF7FEFF 		bl	lv_obj_set_height
 133              	.LVL17:
  30:ui\screens/ui_Splash_screen.c ****     lv_obj_set_x(ui_pain_drain_logo, 0);
 134              		.loc 1 30 0
 135 00a6 0021     		movs	r1, #0
 136 00a8 2868     		ldr	r0, [r5]
 137 00aa FFF7FEFF 		bl	lv_obj_set_x
 138              	.LVL18:
  31:ui\screens/ui_Splash_screen.c ****     lv_obj_set_y(ui_pain_drain_logo, -55);
 139              		.loc 1 31 0
 140 00ae 6FF03601 		mvn	r1, #54
ARM GAS  C:\Users\haske\AppData\Local\Temp\ccumZSsE.s 			page 4


 141 00b2 2868     		ldr	r0, [r5]
 142 00b4 FFF7FEFF 		bl	lv_obj_set_y
 143              	.LVL19:
  32:ui\screens/ui_Splash_screen.c ****     lv_obj_set_align(ui_pain_drain_logo, LV_ALIGN_CENTER);
 144              		.loc 1 32 0
 145 00b8 0921     		movs	r1, #9
 146 00ba 2868     		ldr	r0, [r5]
 147 00bc FFF7FEFF 		bl	lv_obj_set_align
 148              	.LVL20:
  33:ui\screens/ui_Splash_screen.c ****     lv_obj_add_flag(ui_pain_drain_logo, LV_OBJ_FLAG_ADV_HITTEST);     /// Flags
 149              		.loc 1 33 0
 150 00c0 4FF48031 		mov	r1, #65536
 151 00c4 2868     		ldr	r0, [r5]
 152 00c6 FFF7FEFF 		bl	lv_obj_add_flag
 153              	.LVL21:
  34:ui\screens/ui_Splash_screen.c ****     lv_obj_clear_flag(ui_pain_drain_logo, LV_OBJ_FLAG_SCROLLABLE);      /// Flags
 154              		.loc 1 34 0
 155 00ca 1021     		movs	r1, #16
 156 00cc 2868     		ldr	r0, [r5]
 157 00ce FFF7FEFF 		bl	lv_obj_clear_flag
 158              	.LVL22:
  35:ui\screens/ui_Splash_screen.c **** 
  36:ui\screens/ui_Splash_screen.c ****     lv_obj_add_event_cb(ui_Splash_screen, ui_event_Splash_screen, LV_EVENT_ALL, NULL);
 159              		.loc 1 36 0
 160 00d2 0023     		movs	r3, #0
 161 00d4 1A46     		mov	r2, r3
 162 00d6 0A49     		ldr	r1, .L3+32
 163 00d8 2068     		ldr	r0, [r4]
 164 00da FFF7FEFF 		bl	lv_obj_add_event_cb
 165              	.LVL23:
 166 00de 38BD     		pop	{r3, r4, r5, pc}
 167              	.L4:
 168              		.align	2
 169              	.L3:
 170 00e0 00000000 		.word	ui_Splash_screen
 171 00e4 5A5A61FF 		.word	-10397094
 172 00e8 EFEFEFFF 		.word	-1052689
 173 00ec 00000000 		.word	ui_logo_label
 174 00f0 00000000 		.word	.LC0
 175 00f4 00000000 		.word	lv_font_montserrat_30
 176 00f8 00000000 		.word	ui_pain_drain_logo
 177 00fc 00000000 		.word	ui_img_paindraindevicewithoutbackgroundresized_png
 178 0100 00000000 		.word	ui_event_Splash_screen
 179              		.cfi_endproc
 180              	.LFE202:
 181              		.size	ui_Splash_screen_screen_init, .-ui_Splash_screen_screen_init
 182              		.section	.rodata.str1.4,"aMS",%progbits,1
 183              		.align	2
 184              	.LC0:
 185 0000 5061696E 		.ascii	"Pain Drain\000"
 185      20447261 
 185      696E00
 186              		.text
 187              	.Letext0:
 188              		.file 2 "c:\\program files (x86)\\cypress\\psoc creator\\4.4\\psoc creator\\import\\gnu\\arm\\5.4.
 189              		.file 3 "c:\\program files (x86)\\cypress\\psoc creator\\4.4\\psoc creator\\import\\gnu\\arm\\5.4.
 190              		.file 4 ".\\lvgl-release-v8.3/./src/hal/../draw/../misc/../font/../misc/lv_area.h"
ARM GAS  C:\Users\haske\AppData\Local\Temp\ccumZSsE.s 			page 5


 191              		.file 5 ".\\lvgl-release-v8.3/./src/hal/../draw/../misc/../font/lv_font.h"
 192              		.file 6 ".\\lvgl-release-v8.3/./src/hal/../draw/../misc/lv_color.h"
 193              		.file 7 ".\\lvgl-release-v8.3/./src/hal/../draw/../misc/lv_style.h"
 194              		.file 8 ".\\lvgl-release-v8.3/./src/hal/../draw/lv_img_buf.h"
 195              		.file 9 ".\\lvgl-release-v8.3/./src/core/lv_obj.h"
 196              		.file 10 ".\\lvgl-release-v8.3/./src/hal/../misc/lv_ll.h"
 197              		.file 11 ".\\lvgl-release-v8.3/./src/core/lv_group.h"
 198              		.file 12 ".\\lvgl-release-v8.3/./src/core/lv_obj_scroll.h"
 199              		.file 13 ".\\lvgl-release-v8.3/./src/core/lv_obj_style.h"
 200              		.file 14 ".\\lvgl-release-v8.3/./src/core/lv_obj_class.h"
 201              		.file 15 ".\\lvgl-release-v8.3/./src/core/lv_event.h"
 202              		.file 16 ".\\lvgl-release-v8.3/./src/extra/layouts/flex/lv_flex.h"
 203              		.file 17 ".\\lvgl-release-v8.3/./src/extra/layouts/grid/lv_grid.h"
 204              		.file 18 "ui\\screens\\../ui.h"
 205              		.file 19 ".\\lvgl-release-v8.3/./src/core/lv_obj_style_gen.h"
 206              		.file 20 ".\\lvgl-release-v8.3/./src/widgets/lv_label.h"
 207              		.file 21 ".\\lvgl-release-v8.3/./src/hal/../draw/sw/../../core/lv_obj_pos.h"
 208              		.file 22 ".\\lvgl-release-v8.3/./src/widgets/lv_img.h"