ARM GAS  C:\Users\haske\AppData\Local\Temp\ccTvh5jR.s 			page 1


   1              		.syntax unified
   2              		.cpu cortex-m4
   3              		.eabi_attribute 27, 1
   4              		.fpu fpv4-sp-d16
   5              		.eabi_attribute 20, 1
   6              		.eabi_attribute 21, 1
   7              		.eabi_attribute 23, 3
   8              		.eabi_attribute 24, 1
   9              		.eabi_attribute 25, 1
  10              		.eabi_attribute 26, 1
  11              		.eabi_attribute 30, 1
  12              		.eabi_attribute 34, 1
  13              		.eabi_attribute 18, 4
  14              		.thumb
  15              		.syntax unified
  16              		.file	"ui_Temperature_screen.c"
  17              		.text
  18              	.Ltext0:
  19              		.cfi_sections	.debug_frame
  20              		.section	.text.ui_Temperature_screen_screen_init,"ax",%progbits
  21              		.align	2
  22              		.global	ui_Temperature_screen_screen_init
  23              		.thumb
  24              		.thumb_func
  25              		.type	ui_Temperature_screen_screen_init, %function
  26              	ui_Temperature_screen_screen_init:
  27              	.LFB202:
  28              		.file 1 "ui\\screens\\ui_Temperature_screen.c"
   1:ui\screens/ui_Temperature_screen.c **** // This file was generated by SquareLine Studio
   2:ui\screens/ui_Temperature_screen.c **** // SquareLine Studio version: SquareLine Studio 1.3.1
   3:ui\screens/ui_Temperature_screen.c **** // LVGL version: 8.3.6
   4:ui\screens/ui_Temperature_screen.c **** // Project name: Pain Drain
   5:ui\screens/ui_Temperature_screen.c **** 
   6:ui\screens/ui_Temperature_screen.c **** #include "../ui.h"
   7:ui\screens/ui_Temperature_screen.c **** 
   8:ui\screens/ui_Temperature_screen.c **** void ui_Temperature_screen_screen_init(void)
   9:ui\screens/ui_Temperature_screen.c **** {
  29              		.loc 1 9 0
  30              		.cfi_startproc
  31              		@ args = 0, pretend = 0, frame = 0
  32              		@ frame_needed = 0, uses_anonymous_args = 0
  33 0000 F8B5     		push	{r3, r4, r5, r6, r7, lr}
  34              		.cfi_def_cfa_offset 24
  35              		.cfi_offset 3, -24
  36              		.cfi_offset 4, -20
  37              		.cfi_offset 5, -16
  38              		.cfi_offset 6, -12
  39              		.cfi_offset 7, -8
  40              		.cfi_offset 14, -4
  10:ui\screens/ui_Temperature_screen.c ****     ui_Temperature_screen = lv_obj_create(NULL);
  41              		.loc 1 10 0
  42 0002 0020     		movs	r0, #0
  43 0004 FFF7FEFF 		bl	lv_obj_create
  44              	.LVL0:
  45 0008 C74D     		ldr	r5, .L3
  46 000a 2860     		str	r0, [r5]
  11:ui\screens/ui_Temperature_screen.c ****     lv_obj_clear_flag(ui_Temperature_screen, LV_OBJ_FLAG_SCROLLABLE);      /// Flags
ARM GAS  C:\Users\haske\AppData\Local\Temp\ccTvh5jR.s 			page 2


  47              		.loc 1 11 0
  48 000c 1021     		movs	r1, #16
  49 000e FFF7FEFF 		bl	lv_obj_clear_flag
  50              	.LVL1:
  12:ui\screens/ui_Temperature_screen.c ****     lv_obj_set_style_bg_color(ui_Temperature_screen, lv_color_hex(0x615A5A), LV_PART_MAIN | LV_STAT
  51              		.loc 1 12 0
  52 0012 0022     		movs	r2, #0
  53 0014 C549     		ldr	r1, .L3+4
  54 0016 2868     		ldr	r0, [r5]
  55 0018 FFF7FEFF 		bl	lv_obj_set_style_bg_color
  56              	.LVL2:
  13:ui\screens/ui_Temperature_screen.c ****     lv_obj_set_style_bg_opa(ui_Temperature_screen, 255, LV_PART_MAIN | LV_STATE_DEFAULT);
  57              		.loc 1 13 0
  58 001c 0022     		movs	r2, #0
  59 001e FF21     		movs	r1, #255
  60 0020 2868     		ldr	r0, [r5]
  61 0022 FFF7FEFF 		bl	lv_obj_set_style_bg_opa
  62              	.LVL3:
  14:ui\screens/ui_Temperature_screen.c ****     lv_obj_set_style_bg_grad_color(ui_Temperature_screen, lv_color_hex(0xEFEFEF), LV_PART_MAIN | LV
  63              		.loc 1 14 0
  64 0026 0022     		movs	r2, #0
  65 0028 C149     		ldr	r1, .L3+8
  66 002a 2868     		ldr	r0, [r5]
  67 002c FFF7FEFF 		bl	lv_obj_set_style_bg_grad_color
  68              	.LVL4:
  15:ui\screens/ui_Temperature_screen.c ****     lv_obj_set_style_bg_grad_dir(ui_Temperature_screen, LV_GRAD_DIR_VER, LV_PART_MAIN | LV_STATE_DE
  69              		.loc 1 15 0
  70 0030 0022     		movs	r2, #0
  71 0032 0121     		movs	r1, #1
  72 0034 2868     		ldr	r0, [r5]
  73 0036 FFF7FEFF 		bl	lv_obj_set_style_bg_grad_dir
  74              	.LVL5:
  16:ui\screens/ui_Temperature_screen.c **** 
  17:ui\screens/ui_Temperature_screen.c ****     ui_Temperature_label = lv_label_create(ui_Temperature_screen);
  75              		.loc 1 17 0
  76 003a 2868     		ldr	r0, [r5]
  77 003c FFF7FEFF 		bl	lv_label_create
  78              	.LVL6:
  79 0040 BC4C     		ldr	r4, .L3+12
  80 0042 2060     		str	r0, [r4]
  18:ui\screens/ui_Temperature_screen.c ****     lv_obj_set_width(ui_Temperature_label, LV_SIZE_CONTENT);   /// 15
  81              		.loc 1 18 0
  82 0044 42F2D171 		movw	r1, #10193
  83 0048 FFF7FEFF 		bl	lv_obj_set_width
  84              	.LVL7:
  19:ui\screens/ui_Temperature_screen.c ****     lv_obj_set_height(ui_Temperature_label, LV_SIZE_CONTENT);    /// 5
  85              		.loc 1 19 0
  86 004c 42F2D171 		movw	r1, #10193
  87 0050 2068     		ldr	r0, [r4]
  88 0052 FFF7FEFF 		bl	lv_obj_set_height
  89              	.LVL8:
  20:ui\screens/ui_Temperature_screen.c ****     lv_obj_set_x(ui_Temperature_label, -4);
  90              		.loc 1 20 0
  91 0056 6FF00301 		mvn	r1, #3
  92 005a 2068     		ldr	r0, [r4]
  93 005c FFF7FEFF 		bl	lv_obj_set_x
  94              	.LVL9:
ARM GAS  C:\Users\haske\AppData\Local\Temp\ccTvh5jR.s 			page 3


  21:ui\screens/ui_Temperature_screen.c ****     lv_obj_set_y(ui_Temperature_label, lv_pct(12));
  95              		.loc 1 21 0
  96 0060 42F20C01 		movw	r1, #8204
  97 0064 2068     		ldr	r0, [r4]
  98 0066 FFF7FEFF 		bl	lv_obj_set_y
  99              	.LVL10:
  22:ui\screens/ui_Temperature_screen.c ****     lv_obj_set_align(ui_Temperature_label, LV_ALIGN_TOP_MID);
 100              		.loc 1 22 0
 101 006a 0221     		movs	r1, #2
 102 006c 2068     		ldr	r0, [r4]
 103 006e FFF7FEFF 		bl	lv_obj_set_align
 104              	.LVL11:
  23:ui\screens/ui_Temperature_screen.c ****     lv_label_set_text(ui_Temperature_label, "Temperature");
 105              		.loc 1 23 0
 106 0072 B149     		ldr	r1, .L3+16
 107 0074 2068     		ldr	r0, [r4]
 108 0076 FFF7FEFF 		bl	lv_label_set_text
 109              	.LVL12:
  24:ui\screens/ui_Temperature_screen.c ****     lv_obj_set_style_text_font(ui_Temperature_label, &lv_font_montserrat_20, LV_PART_MAIN | LV_STAT
 110              		.loc 1 24 0
 111 007a 0022     		movs	r2, #0
 112 007c AF49     		ldr	r1, .L3+20
 113 007e 2068     		ldr	r0, [r4]
 114 0080 FFF7FEFF 		bl	lv_obj_set_style_text_font
 115              	.LVL13:
  25:ui\screens/ui_Temperature_screen.c **** 
  26:ui\screens/ui_Temperature_screen.c ****     ui_scrollDotsPg2 = lv_obj_create(ui_Temperature_screen);
 116              		.loc 1 26 0
 117 0084 2868     		ldr	r0, [r5]
 118 0086 FFF7FEFF 		bl	lv_obj_create
 119              	.LVL14:
 120 008a AD4C     		ldr	r4, .L3+24
 121 008c 2060     		str	r0, [r4]
  27:ui\screens/ui_Temperature_screen.c ****     lv_obj_set_width(ui_scrollDotsPg2, 145);
 122              		.loc 1 27 0
 123 008e 9121     		movs	r1, #145
 124 0090 FFF7FEFF 		bl	lv_obj_set_width
 125              	.LVL15:
  28:ui\screens/ui_Temperature_screen.c ****     lv_obj_set_height(ui_scrollDotsPg2, 30);
 126              		.loc 1 28 0
 127 0094 1E21     		movs	r1, #30
 128 0096 2068     		ldr	r0, [r4]
 129 0098 FFF7FEFF 		bl	lv_obj_set_height
 130              	.LVL16:
  29:ui\screens/ui_Temperature_screen.c ****     lv_obj_set_x(ui_scrollDotsPg2, 0);
 131              		.loc 1 29 0
 132 009c 0021     		movs	r1, #0
 133 009e 2068     		ldr	r0, [r4]
 134 00a0 FFF7FEFF 		bl	lv_obj_set_x
 135              	.LVL17:
  30:ui\screens/ui_Temperature_screen.c ****     lv_obj_set_y(ui_scrollDotsPg2, -15);
 136              		.loc 1 30 0
 137 00a4 6FF00E01 		mvn	r1, #14
 138 00a8 2068     		ldr	r0, [r4]
 139 00aa FFF7FEFF 		bl	lv_obj_set_y
 140              	.LVL18:
  31:ui\screens/ui_Temperature_screen.c ****     lv_obj_set_align(ui_scrollDotsPg2, LV_ALIGN_BOTTOM_MID);
ARM GAS  C:\Users\haske\AppData\Local\Temp\ccTvh5jR.s 			page 4


 141              		.loc 1 31 0
 142 00ae 0521     		movs	r1, #5
 143 00b0 2068     		ldr	r0, [r4]
 144 00b2 FFF7FEFF 		bl	lv_obj_set_align
 145              	.LVL19:
  32:ui\screens/ui_Temperature_screen.c ****     lv_obj_clear_flag(ui_scrollDotsPg2, LV_OBJ_FLAG_SCROLLABLE);      /// Flags
 146              		.loc 1 32 0
 147 00b6 1021     		movs	r1, #16
 148 00b8 2068     		ldr	r0, [r4]
 149 00ba FFF7FEFF 		bl	lv_obj_clear_flag
 150              	.LVL20:
  33:ui\screens/ui_Temperature_screen.c ****     lv_obj_set_style_bg_color(ui_scrollDotsPg2, lv_color_hex(0x000000), LV_PART_MAIN | LV_STATE_DEF
 151              		.loc 1 33 0
 152 00be 0022     		movs	r2, #0
 153 00c0 4FF07F41 		mov	r1, #-16777216
 154 00c4 2068     		ldr	r0, [r4]
 155 00c6 FFF7FEFF 		bl	lv_obj_set_style_bg_color
 156              	.LVL21:
  34:ui\screens/ui_Temperature_screen.c ****     lv_obj_set_style_bg_opa(ui_scrollDotsPg2, 0, LV_PART_MAIN | LV_STATE_DEFAULT);
 157              		.loc 1 34 0
 158 00ca 0022     		movs	r2, #0
 159 00cc 1146     		mov	r1, r2
 160 00ce 2068     		ldr	r0, [r4]
 161 00d0 FFF7FEFF 		bl	lv_obj_set_style_bg_opa
 162              	.LVL22:
  35:ui\screens/ui_Temperature_screen.c ****     lv_obj_set_style_bg_grad_dir(ui_scrollDotsPg2, LV_GRAD_DIR_HOR, LV_PART_MAIN | LV_STATE_DEFAULT
 163              		.loc 1 35 0
 164 00d4 0022     		movs	r2, #0
 165 00d6 0221     		movs	r1, #2
 166 00d8 2068     		ldr	r0, [r4]
 167 00da FFF7FEFF 		bl	lv_obj_set_style_bg_grad_dir
 168              	.LVL23:
  36:ui\screens/ui_Temperature_screen.c ****     lv_obj_set_style_border_color(ui_scrollDotsPg2, lv_color_hex(0xFEFDFD), LV_PART_MAIN | LV_STATE
 169              		.loc 1 36 0
 170 00de 0022     		movs	r2, #0
 171 00e0 9849     		ldr	r1, .L3+28
 172 00e2 2068     		ldr	r0, [r4]
 173 00e4 FFF7FEFF 		bl	lv_obj_set_style_border_color
 174              	.LVL24:
  37:ui\screens/ui_Temperature_screen.c ****     lv_obj_set_style_border_opa(ui_scrollDotsPg2, 0, LV_PART_MAIN | LV_STATE_DEFAULT);
 175              		.loc 1 37 0
 176 00e8 0022     		movs	r2, #0
 177 00ea 1146     		mov	r1, r2
 178 00ec 2068     		ldr	r0, [r4]
 179 00ee FFF7FEFF 		bl	lv_obj_set_style_border_opa
 180              	.LVL25:
  38:ui\screens/ui_Temperature_screen.c ****     lv_obj_set_style_blend_mode(ui_scrollDotsPg2, LV_BLEND_MODE_NORMAL, LV_PART_MAIN | LV_STATE_DEF
 181              		.loc 1 38 0
 182 00f2 0022     		movs	r2, #0
 183 00f4 1146     		mov	r1, r2
 184 00f6 2068     		ldr	r0, [r4]
 185 00f8 FFF7FEFF 		bl	lv_obj_set_style_blend_mode
 186              	.LVL26:
  39:ui\screens/ui_Temperature_screen.c ****     lv_obj_set_style_opa(ui_scrollDotsPg2, 255, LV_PART_MAIN | LV_STATE_DEFAULT);
 187              		.loc 1 39 0
 188 00fc 0022     		movs	r2, #0
 189 00fe FF21     		movs	r1, #255
ARM GAS  C:\Users\haske\AppData\Local\Temp\ccTvh5jR.s 			page 5


 190 0100 2068     		ldr	r0, [r4]
 191 0102 FFF7FEFF 		bl	lv_obj_set_style_opa
 192              	.LVL27:
  40:ui\screens/ui_Temperature_screen.c **** 
  41:ui\screens/ui_Temperature_screen.c ****     ui_dot1Pg2 = lv_obj_create(ui_scrollDotsPg2);
 193              		.loc 1 41 0
 194 0106 2068     		ldr	r0, [r4]
 195 0108 FFF7FEFF 		bl	lv_obj_create
 196              	.LVL28:
 197 010c 8E4E     		ldr	r6, .L3+32
 198 010e 3060     		str	r0, [r6]
  42:ui\screens/ui_Temperature_screen.c ****     lv_obj_set_width(ui_dot1Pg2, 20);
 199              		.loc 1 42 0
 200 0110 1421     		movs	r1, #20
 201 0112 FFF7FEFF 		bl	lv_obj_set_width
 202              	.LVL29:
  43:ui\screens/ui_Temperature_screen.c ****     lv_obj_set_height(ui_dot1Pg2, 20);
 203              		.loc 1 43 0
 204 0116 1421     		movs	r1, #20
 205 0118 3068     		ldr	r0, [r6]
 206 011a FFF7FEFF 		bl	lv_obj_set_height
 207              	.LVL30:
  44:ui\screens/ui_Temperature_screen.c ****     lv_obj_set_x(ui_dot1Pg2, -60);
 208              		.loc 1 44 0
 209 011e 6FF03B01 		mvn	r1, #59
 210 0122 3068     		ldr	r0, [r6]
 211 0124 FFF7FEFF 		bl	lv_obj_set_x
 212              	.LVL31:
  45:ui\screens/ui_Temperature_screen.c ****     lv_obj_set_y(ui_dot1Pg2, 10);
 213              		.loc 1 45 0
 214 0128 0A21     		movs	r1, #10
 215 012a 3068     		ldr	r0, [r6]
 216 012c FFF7FEFF 		bl	lv_obj_set_y
 217              	.LVL32:
  46:ui\screens/ui_Temperature_screen.c ****     lv_obj_set_align(ui_dot1Pg2, LV_ALIGN_BOTTOM_MID);
 218              		.loc 1 46 0
 219 0130 0521     		movs	r1, #5
 220 0132 3068     		ldr	r0, [r6]
 221 0134 FFF7FEFF 		bl	lv_obj_set_align
 222              	.LVL33:
  47:ui\screens/ui_Temperature_screen.c ****     lv_obj_clear_flag(ui_dot1Pg2, LV_OBJ_FLAG_SCROLLABLE);      /// Flags
 223              		.loc 1 47 0
 224 0138 1021     		movs	r1, #16
 225 013a 3068     		ldr	r0, [r6]
 226 013c FFF7FEFF 		bl	lv_obj_clear_flag
 227              	.LVL34:
  48:ui\screens/ui_Temperature_screen.c ****     lv_obj_set_style_radius(ui_dot1Pg2, 20, LV_PART_MAIN | LV_STATE_DEFAULT);
 228              		.loc 1 48 0
 229 0140 0022     		movs	r2, #0
 230 0142 1421     		movs	r1, #20
 231 0144 3068     		ldr	r0, [r6]
 232 0146 FFF7FEFF 		bl	lv_obj_set_style_radius
 233              	.LVL35:
 234              	.LBB22:
 235              	.LBB23:
 236              		.file 2 ".\\lvgl-release-v8.3/./src/hal/../draw/../misc/lv_color.h"
   1:.\lvgl-release-v8.3/./src/hal/../draw/../misc/lv_color.h **** /**
ARM GAS  C:\Users\haske\AppData\Local\Temp\ccTvh5jR.s 			page 6


   2:.\lvgl-release-v8.3/./src/hal/../draw/../misc/lv_color.h ****  * @file lv_color.h
   3:.\lvgl-release-v8.3/./src/hal/../draw/../misc/lv_color.h ****  *
   4:.\lvgl-release-v8.3/./src/hal/../draw/../misc/lv_color.h ****  */
   5:.\lvgl-release-v8.3/./src/hal/../draw/../misc/lv_color.h **** 
   6:.\lvgl-release-v8.3/./src/hal/../draw/../misc/lv_color.h **** #ifndef LV_COLOR_H
   7:.\lvgl-release-v8.3/./src/hal/../draw/../misc/lv_color.h **** #define LV_COLOR_H
   8:.\lvgl-release-v8.3/./src/hal/../draw/../misc/lv_color.h **** 
   9:.\lvgl-release-v8.3/./src/hal/../draw/../misc/lv_color.h **** #ifdef __cplusplus
  10:.\lvgl-release-v8.3/./src/hal/../draw/../misc/lv_color.h **** extern "C" {
  11:.\lvgl-release-v8.3/./src/hal/../draw/../misc/lv_color.h **** #endif
  12:.\lvgl-release-v8.3/./src/hal/../draw/../misc/lv_color.h **** 
  13:.\lvgl-release-v8.3/./src/hal/../draw/../misc/lv_color.h **** /*********************
  14:.\lvgl-release-v8.3/./src/hal/../draw/../misc/lv_color.h ****  *      INCLUDES
  15:.\lvgl-release-v8.3/./src/hal/../draw/../misc/lv_color.h ****  *********************/
  16:.\lvgl-release-v8.3/./src/hal/../draw/../misc/lv_color.h **** #include "../lv_conf_internal.h"
  17:.\lvgl-release-v8.3/./src/hal/../draw/../misc/lv_color.h **** #include "lv_assert.h"
  18:.\lvgl-release-v8.3/./src/hal/../draw/../misc/lv_color.h **** #include "lv_math.h"
  19:.\lvgl-release-v8.3/./src/hal/../draw/../misc/lv_color.h **** #include "lv_types.h"
  20:.\lvgl-release-v8.3/./src/hal/../draw/../misc/lv_color.h **** 
  21:.\lvgl-release-v8.3/./src/hal/../draw/../misc/lv_color.h **** /*Error checking*/
  22:.\lvgl-release-v8.3/./src/hal/../draw/../misc/lv_color.h **** #if LV_COLOR_DEPTH == 24
  23:.\lvgl-release-v8.3/./src/hal/../draw/../misc/lv_color.h **** #error "LV_COLOR_DEPTH 24 is deprecated. Use LV_COLOR_DEPTH 32 instead (lv_conf.h)"
  24:.\lvgl-release-v8.3/./src/hal/../draw/../misc/lv_color.h **** #endif
  25:.\lvgl-release-v8.3/./src/hal/../draw/../misc/lv_color.h **** 
  26:.\lvgl-release-v8.3/./src/hal/../draw/../misc/lv_color.h **** #if LV_COLOR_DEPTH != 16 && LV_COLOR_16_SWAP != 0
  27:.\lvgl-release-v8.3/./src/hal/../draw/../misc/lv_color.h **** #error "LV_COLOR_16_SWAP requires LV_COLOR_DEPTH == 16. Set it in lv_conf.h"
  28:.\lvgl-release-v8.3/./src/hal/../draw/../misc/lv_color.h **** #endif
  29:.\lvgl-release-v8.3/./src/hal/../draw/../misc/lv_color.h **** 
  30:.\lvgl-release-v8.3/./src/hal/../draw/../misc/lv_color.h **** #include <stdint.h>
  31:.\lvgl-release-v8.3/./src/hal/../draw/../misc/lv_color.h **** 
  32:.\lvgl-release-v8.3/./src/hal/../draw/../misc/lv_color.h **** /*********************
  33:.\lvgl-release-v8.3/./src/hal/../draw/../misc/lv_color.h ****  *      DEFINES
  34:.\lvgl-release-v8.3/./src/hal/../draw/../misc/lv_color.h ****  *********************/
  35:.\lvgl-release-v8.3/./src/hal/../draw/../misc/lv_color.h **** LV_EXPORT_CONST_INT(LV_COLOR_DEPTH);
  36:.\lvgl-release-v8.3/./src/hal/../draw/../misc/lv_color.h **** LV_EXPORT_CONST_INT(LV_COLOR_16_SWAP);
  37:.\lvgl-release-v8.3/./src/hal/../draw/../misc/lv_color.h **** 
  38:.\lvgl-release-v8.3/./src/hal/../draw/../misc/lv_color.h **** /**
  39:.\lvgl-release-v8.3/./src/hal/../draw/../misc/lv_color.h ****  * Opacity percentages.
  40:.\lvgl-release-v8.3/./src/hal/../draw/../misc/lv_color.h ****  */
  41:.\lvgl-release-v8.3/./src/hal/../draw/../misc/lv_color.h **** enum {
  42:.\lvgl-release-v8.3/./src/hal/../draw/../misc/lv_color.h ****     LV_OPA_TRANSP = 0,
  43:.\lvgl-release-v8.3/./src/hal/../draw/../misc/lv_color.h ****     LV_OPA_0      = 0,
  44:.\lvgl-release-v8.3/./src/hal/../draw/../misc/lv_color.h ****     LV_OPA_10     = 25,
  45:.\lvgl-release-v8.3/./src/hal/../draw/../misc/lv_color.h ****     LV_OPA_20     = 51,
  46:.\lvgl-release-v8.3/./src/hal/../draw/../misc/lv_color.h ****     LV_OPA_30     = 76,
  47:.\lvgl-release-v8.3/./src/hal/../draw/../misc/lv_color.h ****     LV_OPA_40     = 102,
  48:.\lvgl-release-v8.3/./src/hal/../draw/../misc/lv_color.h ****     LV_OPA_50     = 127,
  49:.\lvgl-release-v8.3/./src/hal/../draw/../misc/lv_color.h ****     LV_OPA_60     = 153,
  50:.\lvgl-release-v8.3/./src/hal/../draw/../misc/lv_color.h ****     LV_OPA_70     = 178,
  51:.\lvgl-release-v8.3/./src/hal/../draw/../misc/lv_color.h ****     LV_OPA_80     = 204,
  52:.\lvgl-release-v8.3/./src/hal/../draw/../misc/lv_color.h ****     LV_OPA_90     = 229,
  53:.\lvgl-release-v8.3/./src/hal/../draw/../misc/lv_color.h ****     LV_OPA_100    = 255,
  54:.\lvgl-release-v8.3/./src/hal/../draw/../misc/lv_color.h ****     LV_OPA_COVER  = 255,
  55:.\lvgl-release-v8.3/./src/hal/../draw/../misc/lv_color.h **** };
  56:.\lvgl-release-v8.3/./src/hal/../draw/../misc/lv_color.h **** 
  57:.\lvgl-release-v8.3/./src/hal/../draw/../misc/lv_color.h **** #define LV_OPA_MIN 2    /*Opacities below this will be transparent*/
  58:.\lvgl-release-v8.3/./src/hal/../draw/../misc/lv_color.h **** #define LV_OPA_MAX 253  /*Opacities above this will fully cover*/
ARM GAS  C:\Users\haske\AppData\Local\Temp\ccTvh5jR.s 			page 7


  59:.\lvgl-release-v8.3/./src/hal/../draw/../misc/lv_color.h **** 
  60:.\lvgl-release-v8.3/./src/hal/../draw/../misc/lv_color.h **** #if LV_COLOR_DEPTH == 1
  61:.\lvgl-release-v8.3/./src/hal/../draw/../misc/lv_color.h **** #define LV_COLOR_SIZE 8
  62:.\lvgl-release-v8.3/./src/hal/../draw/../misc/lv_color.h **** #elif LV_COLOR_DEPTH == 8
  63:.\lvgl-release-v8.3/./src/hal/../draw/../misc/lv_color.h **** #define LV_COLOR_SIZE 8
  64:.\lvgl-release-v8.3/./src/hal/../draw/../misc/lv_color.h **** #elif LV_COLOR_DEPTH == 16
  65:.\lvgl-release-v8.3/./src/hal/../draw/../misc/lv_color.h **** #define LV_COLOR_SIZE 16
  66:.\lvgl-release-v8.3/./src/hal/../draw/../misc/lv_color.h **** #elif LV_COLOR_DEPTH == 32
  67:.\lvgl-release-v8.3/./src/hal/../draw/../misc/lv_color.h **** #define LV_COLOR_SIZE 32
  68:.\lvgl-release-v8.3/./src/hal/../draw/../misc/lv_color.h **** #else
  69:.\lvgl-release-v8.3/./src/hal/../draw/../misc/lv_color.h **** #error "Invalid LV_COLOR_DEPTH in lv_conf.h! Set it to 1, 8, 16 or 32!"
  70:.\lvgl-release-v8.3/./src/hal/../draw/../misc/lv_color.h **** #endif
  71:.\lvgl-release-v8.3/./src/hal/../draw/../misc/lv_color.h **** 
  72:.\lvgl-release-v8.3/./src/hal/../draw/../misc/lv_color.h **** #if defined(__cplusplus) && !defined(_LV_COLOR_HAS_MODERN_CPP)
  73:.\lvgl-release-v8.3/./src/hal/../draw/../misc/lv_color.h **** /**
  74:.\lvgl-release-v8.3/./src/hal/../draw/../misc/lv_color.h **** * MSVC compiler's definition of the __cplusplus indicating 199711L regardless to C++ standard versi
  75:.\lvgl-release-v8.3/./src/hal/../draw/../misc/lv_color.h **** * see https://devblogs.microsoft.com/cppblog/msvc-now-correctly-reports-cplusplus
  76:.\lvgl-release-v8.3/./src/hal/../draw/../misc/lv_color.h **** * so we use _MSC_VER macro instead of __cplusplus
  77:.\lvgl-release-v8.3/./src/hal/../draw/../misc/lv_color.h **** */
  78:.\lvgl-release-v8.3/./src/hal/../draw/../misc/lv_color.h **** #ifdef _MSC_VER
  79:.\lvgl-release-v8.3/./src/hal/../draw/../misc/lv_color.h **** #if _MSC_VER >= 1900 /*Visual Studio 2015*/
  80:.\lvgl-release-v8.3/./src/hal/../draw/../misc/lv_color.h **** #define _LV_COLOR_HAS_MODERN_CPP 1
  81:.\lvgl-release-v8.3/./src/hal/../draw/../misc/lv_color.h **** #endif
  82:.\lvgl-release-v8.3/./src/hal/../draw/../misc/lv_color.h **** #else
  83:.\lvgl-release-v8.3/./src/hal/../draw/../misc/lv_color.h **** #if __cplusplus >= 201103L
  84:.\lvgl-release-v8.3/./src/hal/../draw/../misc/lv_color.h **** #define _LV_COLOR_HAS_MODERN_CPP 1
  85:.\lvgl-release-v8.3/./src/hal/../draw/../misc/lv_color.h **** #endif
  86:.\lvgl-release-v8.3/./src/hal/../draw/../misc/lv_color.h **** #endif
  87:.\lvgl-release-v8.3/./src/hal/../draw/../misc/lv_color.h **** #endif /*__cplusplus*/
  88:.\lvgl-release-v8.3/./src/hal/../draw/../misc/lv_color.h **** 
  89:.\lvgl-release-v8.3/./src/hal/../draw/../misc/lv_color.h **** #ifndef _LV_COLOR_HAS_MODERN_CPP
  90:.\lvgl-release-v8.3/./src/hal/../draw/../misc/lv_color.h **** #define _LV_COLOR_HAS_MODERN_CPP 0
  91:.\lvgl-release-v8.3/./src/hal/../draw/../misc/lv_color.h **** #endif
  92:.\lvgl-release-v8.3/./src/hal/../draw/../misc/lv_color.h **** 
  93:.\lvgl-release-v8.3/./src/hal/../draw/../misc/lv_color.h **** #if _LV_COLOR_HAS_MODERN_CPP
  94:.\lvgl-release-v8.3/./src/hal/../draw/../misc/lv_color.h **** /*Fix msvc compiler error C4576 inside C++ code*/
  95:.\lvgl-release-v8.3/./src/hal/../draw/../misc/lv_color.h **** #define _LV_COLOR_MAKE_TYPE_HELPER lv_color_t
  96:.\lvgl-release-v8.3/./src/hal/../draw/../misc/lv_color.h **** #else
  97:.\lvgl-release-v8.3/./src/hal/../draw/../misc/lv_color.h **** #define _LV_COLOR_MAKE_TYPE_HELPER (lv_color_t)
  98:.\lvgl-release-v8.3/./src/hal/../draw/../misc/lv_color.h **** #endif
  99:.\lvgl-release-v8.3/./src/hal/../draw/../misc/lv_color.h **** 
 100:.\lvgl-release-v8.3/./src/hal/../draw/../misc/lv_color.h **** /*---------------------------------------
 101:.\lvgl-release-v8.3/./src/hal/../draw/../misc/lv_color.h ****  * Macros for all existing color depths
 102:.\lvgl-release-v8.3/./src/hal/../draw/../misc/lv_color.h ****  * to set/get values of the color channels
 103:.\lvgl-release-v8.3/./src/hal/../draw/../misc/lv_color.h ****  *------------------------------------------*/
 104:.\lvgl-release-v8.3/./src/hal/../draw/../misc/lv_color.h **** # define LV_COLOR_SET_R1(c, v) (c).ch.red = (uint8_t)((v) & 0x1)
 105:.\lvgl-release-v8.3/./src/hal/../draw/../misc/lv_color.h **** # define LV_COLOR_SET_G1(c, v) (c).ch.green = (uint8_t)((v) & 0x1)
 106:.\lvgl-release-v8.3/./src/hal/../draw/../misc/lv_color.h **** # define LV_COLOR_SET_B1(c, v) (c).ch.blue = (uint8_t)((v) & 0x1)
 107:.\lvgl-release-v8.3/./src/hal/../draw/../misc/lv_color.h **** # define LV_COLOR_SET_A1(c, v) do {} while(0)
 108:.\lvgl-release-v8.3/./src/hal/../draw/../misc/lv_color.h **** 
 109:.\lvgl-release-v8.3/./src/hal/../draw/../misc/lv_color.h **** # define LV_COLOR_GET_R1(c) (c).ch.red
 110:.\lvgl-release-v8.3/./src/hal/../draw/../misc/lv_color.h **** # define LV_COLOR_GET_G1(c) (c).ch.green
 111:.\lvgl-release-v8.3/./src/hal/../draw/../misc/lv_color.h **** # define LV_COLOR_GET_B1(c) (c).ch.blue
 112:.\lvgl-release-v8.3/./src/hal/../draw/../misc/lv_color.h **** # define LV_COLOR_GET_A1(c) 0xFF
 113:.\lvgl-release-v8.3/./src/hal/../draw/../misc/lv_color.h **** 
 114:.\lvgl-release-v8.3/./src/hal/../draw/../misc/lv_color.h **** # define _LV_COLOR_ZERO_INITIALIZER1 {0x00}
 115:.\lvgl-release-v8.3/./src/hal/../draw/../misc/lv_color.h **** # define LV_COLOR_MAKE1(r8, g8, b8)  {(uint8_t)((b8 >> 7) | (g8 >> 7) | (r8 >> 7))}
ARM GAS  C:\Users\haske\AppData\Local\Temp\ccTvh5jR.s 			page 8


 116:.\lvgl-release-v8.3/./src/hal/../draw/../misc/lv_color.h **** 
 117:.\lvgl-release-v8.3/./src/hal/../draw/../misc/lv_color.h **** # define LV_COLOR_SET_R8(c, v) (c).ch.red = (uint8_t)((v) & 0x7U)
 118:.\lvgl-release-v8.3/./src/hal/../draw/../misc/lv_color.h **** # define LV_COLOR_SET_G8(c, v) (c).ch.green = (uint8_t)((v) & 0x7U)
 119:.\lvgl-release-v8.3/./src/hal/../draw/../misc/lv_color.h **** # define LV_COLOR_SET_B8(c, v) (c).ch.blue = (uint8_t)((v) & 0x3U)
 120:.\lvgl-release-v8.3/./src/hal/../draw/../misc/lv_color.h **** # define LV_COLOR_SET_A8(c, v) do {} while(0)
 121:.\lvgl-release-v8.3/./src/hal/../draw/../misc/lv_color.h **** 
 122:.\lvgl-release-v8.3/./src/hal/../draw/../misc/lv_color.h **** # define LV_COLOR_GET_R8(c) (c).ch.red
 123:.\lvgl-release-v8.3/./src/hal/../draw/../misc/lv_color.h **** # define LV_COLOR_GET_G8(c) (c).ch.green
 124:.\lvgl-release-v8.3/./src/hal/../draw/../misc/lv_color.h **** # define LV_COLOR_GET_B8(c) (c).ch.blue
 125:.\lvgl-release-v8.3/./src/hal/../draw/../misc/lv_color.h **** # define LV_COLOR_GET_A8(c) 0xFF
 126:.\lvgl-release-v8.3/./src/hal/../draw/../misc/lv_color.h **** 
 127:.\lvgl-release-v8.3/./src/hal/../draw/../misc/lv_color.h **** # define _LV_COLOR_ZERO_INITIALIZER8 {{0x00, 0x00, 0x00}}
 128:.\lvgl-release-v8.3/./src/hal/../draw/../misc/lv_color.h **** # define LV_COLOR_MAKE8(r8, g8, b8) {{(uint8_t)((b8 >> 6) & 0x3U), (uint8_t)((g8 >> 5) & 0x7U), (ui
 129:.\lvgl-release-v8.3/./src/hal/../draw/../misc/lv_color.h **** 
 130:.\lvgl-release-v8.3/./src/hal/../draw/../misc/lv_color.h **** # define LV_COLOR_SET_R16(c, v) (c).ch.red = (uint8_t)((v) & 0x1FU)
 131:.\lvgl-release-v8.3/./src/hal/../draw/../misc/lv_color.h **** #if LV_COLOR_16_SWAP == 0
 132:.\lvgl-release-v8.3/./src/hal/../draw/../misc/lv_color.h **** # define LV_COLOR_SET_G16(c, v) (c).ch.green = (uint8_t)((v) & 0x3FU)
 133:.\lvgl-release-v8.3/./src/hal/../draw/../misc/lv_color.h **** #else
 134:.\lvgl-release-v8.3/./src/hal/../draw/../misc/lv_color.h **** # define LV_COLOR_SET_G16(c, v) {(c).ch.green_h = (uint8_t)(((v) >> 3) & 0x7); (c).ch.green_l = (ui
 135:.\lvgl-release-v8.3/./src/hal/../draw/../misc/lv_color.h **** #endif
 136:.\lvgl-release-v8.3/./src/hal/../draw/../misc/lv_color.h **** # define LV_COLOR_SET_B16(c, v) (c).ch.blue = (uint8_t)((v) & 0x1FU)
 137:.\lvgl-release-v8.3/./src/hal/../draw/../misc/lv_color.h **** # define LV_COLOR_SET_A16(c, v) do {} while(0)
 138:.\lvgl-release-v8.3/./src/hal/../draw/../misc/lv_color.h **** 
 139:.\lvgl-release-v8.3/./src/hal/../draw/../misc/lv_color.h **** # define LV_COLOR_GET_R16(c) (c).ch.red
 140:.\lvgl-release-v8.3/./src/hal/../draw/../misc/lv_color.h **** #if LV_COLOR_16_SWAP == 0
 141:.\lvgl-release-v8.3/./src/hal/../draw/../misc/lv_color.h **** # define LV_COLOR_GET_G16(c) (c).ch.green
 142:.\lvgl-release-v8.3/./src/hal/../draw/../misc/lv_color.h **** #else
 143:.\lvgl-release-v8.3/./src/hal/../draw/../misc/lv_color.h **** # define LV_COLOR_GET_G16(c) (((c).ch.green_h << 3) + (c).ch.green_l)
 144:.\lvgl-release-v8.3/./src/hal/../draw/../misc/lv_color.h **** #endif
 145:.\lvgl-release-v8.3/./src/hal/../draw/../misc/lv_color.h **** # define LV_COLOR_GET_B16(c) (c).ch.blue
 146:.\lvgl-release-v8.3/./src/hal/../draw/../misc/lv_color.h **** # define LV_COLOR_GET_A16(c) 0xFF
 147:.\lvgl-release-v8.3/./src/hal/../draw/../misc/lv_color.h **** 
 148:.\lvgl-release-v8.3/./src/hal/../draw/../misc/lv_color.h **** #if LV_COLOR_16_SWAP == 0
 149:.\lvgl-release-v8.3/./src/hal/../draw/../misc/lv_color.h **** # define _LV_COLOR_ZERO_INITIALIZER16  {{0x00, 0x00, 0x00}}
 150:.\lvgl-release-v8.3/./src/hal/../draw/../misc/lv_color.h **** # define LV_COLOR_MAKE16(r8, g8, b8) {{(uint8_t)((b8 >> 3) & 0x1FU), (uint8_t)((g8 >> 2) & 0x3FU), 
 151:.\lvgl-release-v8.3/./src/hal/../draw/../misc/lv_color.h **** #else
 152:.\lvgl-release-v8.3/./src/hal/../draw/../misc/lv_color.h **** # define _LV_COLOR_ZERO_INITIALIZER16 {{0x00, 0x00, 0x00, 0x00}}
 153:.\lvgl-release-v8.3/./src/hal/../draw/../misc/lv_color.h **** # define LV_COLOR_MAKE16(r8, g8, b8) {{(uint8_t)((g8 >> 5) & 0x7U), (uint8_t)((r8 >> 3) & 0x1FU), (
 154:.\lvgl-release-v8.3/./src/hal/../draw/../misc/lv_color.h **** #endif
 155:.\lvgl-release-v8.3/./src/hal/../draw/../misc/lv_color.h **** 
 156:.\lvgl-release-v8.3/./src/hal/../draw/../misc/lv_color.h **** # define LV_COLOR_SET_R32(c, v) (c).ch.red = (uint8_t)((v) & 0xFF)
 157:.\lvgl-release-v8.3/./src/hal/../draw/../misc/lv_color.h **** # define LV_COLOR_SET_G32(c, v) (c).ch.green = (uint8_t)((v) & 0xFF)
 158:.\lvgl-release-v8.3/./src/hal/../draw/../misc/lv_color.h **** # define LV_COLOR_SET_B32(c, v) (c).ch.blue = (uint8_t)((v) & 0xFF)
 159:.\lvgl-release-v8.3/./src/hal/../draw/../misc/lv_color.h **** # define LV_COLOR_SET_A32(c, v) (c).ch.alpha = (uint8_t)((v) & 0xFF)
 160:.\lvgl-release-v8.3/./src/hal/../draw/../misc/lv_color.h **** 
 161:.\lvgl-release-v8.3/./src/hal/../draw/../misc/lv_color.h **** # define LV_COLOR_GET_R32(c) (c).ch.red
 162:.\lvgl-release-v8.3/./src/hal/../draw/../misc/lv_color.h **** # define LV_COLOR_GET_G32(c) (c).ch.green
 163:.\lvgl-release-v8.3/./src/hal/../draw/../misc/lv_color.h **** # define LV_COLOR_GET_B32(c) (c).ch.blue
 164:.\lvgl-release-v8.3/./src/hal/../draw/../misc/lv_color.h **** # define LV_COLOR_GET_A32(c) (c).ch.alpha
 165:.\lvgl-release-v8.3/./src/hal/../draw/../misc/lv_color.h **** 
 166:.\lvgl-release-v8.3/./src/hal/../draw/../misc/lv_color.h **** # define _LV_COLOR_ZERO_INITIALIZER32  {{0x00, 0x00, 0x00, 0x00}}
 167:.\lvgl-release-v8.3/./src/hal/../draw/../misc/lv_color.h **** # define LV_COLOR_MAKE32(r8, g8, b8) {{b8, g8, r8, 0xff}} /*Fix 0xff alpha*/
 168:.\lvgl-release-v8.3/./src/hal/../draw/../misc/lv_color.h **** 
 169:.\lvgl-release-v8.3/./src/hal/../draw/../misc/lv_color.h **** /*---------------------------------------
 170:.\lvgl-release-v8.3/./src/hal/../draw/../misc/lv_color.h ****  * Macros for the current color depth
 171:.\lvgl-release-v8.3/./src/hal/../draw/../misc/lv_color.h ****  * to set/get values of the color channels
 172:.\lvgl-release-v8.3/./src/hal/../draw/../misc/lv_color.h ****  *------------------------------------------*/
ARM GAS  C:\Users\haske\AppData\Local\Temp\ccTvh5jR.s 			page 9


 173:.\lvgl-release-v8.3/./src/hal/../draw/../misc/lv_color.h **** #define LV_COLOR_SET_R(c, v) LV_CONCAT(LV_COLOR_SET_R, LV_COLOR_DEPTH)(c, v)
 174:.\lvgl-release-v8.3/./src/hal/../draw/../misc/lv_color.h **** #define LV_COLOR_SET_G(c, v) LV_CONCAT(LV_COLOR_SET_G, LV_COLOR_DEPTH)(c, v)
 175:.\lvgl-release-v8.3/./src/hal/../draw/../misc/lv_color.h **** #define LV_COLOR_SET_B(c, v) LV_CONCAT(LV_COLOR_SET_B, LV_COLOR_DEPTH)(c, v)
 176:.\lvgl-release-v8.3/./src/hal/../draw/../misc/lv_color.h **** #define LV_COLOR_SET_A(c, v) LV_CONCAT(LV_COLOR_SET_A, LV_COLOR_DEPTH)(c, v)
 177:.\lvgl-release-v8.3/./src/hal/../draw/../misc/lv_color.h **** 
 178:.\lvgl-release-v8.3/./src/hal/../draw/../misc/lv_color.h **** #define LV_COLOR_GET_R(c) LV_CONCAT(LV_COLOR_GET_R, LV_COLOR_DEPTH)(c)
 179:.\lvgl-release-v8.3/./src/hal/../draw/../misc/lv_color.h **** #define LV_COLOR_GET_G(c) LV_CONCAT(LV_COLOR_GET_G, LV_COLOR_DEPTH)(c)
 180:.\lvgl-release-v8.3/./src/hal/../draw/../misc/lv_color.h **** #define LV_COLOR_GET_B(c) LV_CONCAT(LV_COLOR_GET_B, LV_COLOR_DEPTH)(c)
 181:.\lvgl-release-v8.3/./src/hal/../draw/../misc/lv_color.h **** #define LV_COLOR_GET_A(c) LV_CONCAT(LV_COLOR_GET_A, LV_COLOR_DEPTH)(c)
 182:.\lvgl-release-v8.3/./src/hal/../draw/../misc/lv_color.h **** 
 183:.\lvgl-release-v8.3/./src/hal/../draw/../misc/lv_color.h **** #define _LV_COLOR_ZERO_INITIALIZER LV_CONCAT(_LV_COLOR_ZERO_INITIALIZER, LV_COLOR_DEPTH)
 184:.\lvgl-release-v8.3/./src/hal/../draw/../misc/lv_color.h **** #define LV_COLOR_MAKE(r8, g8, b8) LV_CONCAT(LV_COLOR_MAKE, LV_COLOR_DEPTH)(r8, g8, b8)
 185:.\lvgl-release-v8.3/./src/hal/../draw/../misc/lv_color.h **** 
 186:.\lvgl-release-v8.3/./src/hal/../draw/../misc/lv_color.h **** /**********************
 187:.\lvgl-release-v8.3/./src/hal/../draw/../misc/lv_color.h ****  *      TYPEDEFS
 188:.\lvgl-release-v8.3/./src/hal/../draw/../misc/lv_color.h ****  **********************/
 189:.\lvgl-release-v8.3/./src/hal/../draw/../misc/lv_color.h **** 
 190:.\lvgl-release-v8.3/./src/hal/../draw/../misc/lv_color.h **** typedef union {
 191:.\lvgl-release-v8.3/./src/hal/../draw/../misc/lv_color.h ****     uint8_t full; /*must be declared first to set all bits of byte via initializer list*/
 192:.\lvgl-release-v8.3/./src/hal/../draw/../misc/lv_color.h ****     union {
 193:.\lvgl-release-v8.3/./src/hal/../draw/../misc/lv_color.h ****         uint8_t blue : 1;
 194:.\lvgl-release-v8.3/./src/hal/../draw/../misc/lv_color.h ****         uint8_t green : 1;
 195:.\lvgl-release-v8.3/./src/hal/../draw/../misc/lv_color.h ****         uint8_t red : 1;
 196:.\lvgl-release-v8.3/./src/hal/../draw/../misc/lv_color.h ****     } ch;
 197:.\lvgl-release-v8.3/./src/hal/../draw/../misc/lv_color.h **** } lv_color1_t;
 198:.\lvgl-release-v8.3/./src/hal/../draw/../misc/lv_color.h **** 
 199:.\lvgl-release-v8.3/./src/hal/../draw/../misc/lv_color.h **** typedef union {
 200:.\lvgl-release-v8.3/./src/hal/../draw/../misc/lv_color.h ****     struct {
 201:.\lvgl-release-v8.3/./src/hal/../draw/../misc/lv_color.h ****         uint8_t blue : 2;
 202:.\lvgl-release-v8.3/./src/hal/../draw/../misc/lv_color.h ****         uint8_t green : 3;
 203:.\lvgl-release-v8.3/./src/hal/../draw/../misc/lv_color.h ****         uint8_t red : 3;
 204:.\lvgl-release-v8.3/./src/hal/../draw/../misc/lv_color.h ****     } ch;
 205:.\lvgl-release-v8.3/./src/hal/../draw/../misc/lv_color.h ****     uint8_t full;
 206:.\lvgl-release-v8.3/./src/hal/../draw/../misc/lv_color.h **** } lv_color8_t;
 207:.\lvgl-release-v8.3/./src/hal/../draw/../misc/lv_color.h **** 
 208:.\lvgl-release-v8.3/./src/hal/../draw/../misc/lv_color.h **** typedef union {
 209:.\lvgl-release-v8.3/./src/hal/../draw/../misc/lv_color.h ****     struct {
 210:.\lvgl-release-v8.3/./src/hal/../draw/../misc/lv_color.h **** #if LV_COLOR_16_SWAP == 0
 211:.\lvgl-release-v8.3/./src/hal/../draw/../misc/lv_color.h ****         uint16_t blue : 5;
 212:.\lvgl-release-v8.3/./src/hal/../draw/../misc/lv_color.h ****         uint16_t green : 6;
 213:.\lvgl-release-v8.3/./src/hal/../draw/../misc/lv_color.h ****         uint16_t red : 5;
 214:.\lvgl-release-v8.3/./src/hal/../draw/../misc/lv_color.h **** #else
 215:.\lvgl-release-v8.3/./src/hal/../draw/../misc/lv_color.h ****         uint16_t green_h : 3;
 216:.\lvgl-release-v8.3/./src/hal/../draw/../misc/lv_color.h ****         uint16_t red : 5;
 217:.\lvgl-release-v8.3/./src/hal/../draw/../misc/lv_color.h ****         uint16_t blue : 5;
 218:.\lvgl-release-v8.3/./src/hal/../draw/../misc/lv_color.h ****         uint16_t green_l : 3;
 219:.\lvgl-release-v8.3/./src/hal/../draw/../misc/lv_color.h **** #endif
 220:.\lvgl-release-v8.3/./src/hal/../draw/../misc/lv_color.h ****     } ch;
 221:.\lvgl-release-v8.3/./src/hal/../draw/../misc/lv_color.h ****     uint16_t full;
 222:.\lvgl-release-v8.3/./src/hal/../draw/../misc/lv_color.h **** } lv_color16_t;
 223:.\lvgl-release-v8.3/./src/hal/../draw/../misc/lv_color.h **** 
 224:.\lvgl-release-v8.3/./src/hal/../draw/../misc/lv_color.h **** typedef union {
 225:.\lvgl-release-v8.3/./src/hal/../draw/../misc/lv_color.h ****     struct {
 226:.\lvgl-release-v8.3/./src/hal/../draw/../misc/lv_color.h ****         uint8_t blue;
 227:.\lvgl-release-v8.3/./src/hal/../draw/../misc/lv_color.h ****         uint8_t green;
 228:.\lvgl-release-v8.3/./src/hal/../draw/../misc/lv_color.h ****         uint8_t red;
 229:.\lvgl-release-v8.3/./src/hal/../draw/../misc/lv_color.h ****         uint8_t alpha;
ARM GAS  C:\Users\haske\AppData\Local\Temp\ccTvh5jR.s 			page 10


 230:.\lvgl-release-v8.3/./src/hal/../draw/../misc/lv_color.h ****     } ch;
 231:.\lvgl-release-v8.3/./src/hal/../draw/../misc/lv_color.h ****     uint32_t full;
 232:.\lvgl-release-v8.3/./src/hal/../draw/../misc/lv_color.h **** } lv_color32_t;
 233:.\lvgl-release-v8.3/./src/hal/../draw/../misc/lv_color.h **** 
 234:.\lvgl-release-v8.3/./src/hal/../draw/../misc/lv_color.h **** typedef LV_CONCAT3(uint, LV_COLOR_SIZE, _t) lv_color_int_t;
 235:.\lvgl-release-v8.3/./src/hal/../draw/../misc/lv_color.h **** typedef LV_CONCAT3(lv_color, LV_COLOR_DEPTH, _t) lv_color_t;
 236:.\lvgl-release-v8.3/./src/hal/../draw/../misc/lv_color.h **** 
 237:.\lvgl-release-v8.3/./src/hal/../draw/../misc/lv_color.h **** typedef struct {
 238:.\lvgl-release-v8.3/./src/hal/../draw/../misc/lv_color.h ****     uint16_t h;
 239:.\lvgl-release-v8.3/./src/hal/../draw/../misc/lv_color.h ****     uint8_t s;
 240:.\lvgl-release-v8.3/./src/hal/../draw/../misc/lv_color.h ****     uint8_t v;
 241:.\lvgl-release-v8.3/./src/hal/../draw/../misc/lv_color.h **** } lv_color_hsv_t;
 242:.\lvgl-release-v8.3/./src/hal/../draw/../misc/lv_color.h **** 
 243:.\lvgl-release-v8.3/./src/hal/../draw/../misc/lv_color.h **** //! @cond Doxygen_Suppress
 244:.\lvgl-release-v8.3/./src/hal/../draw/../misc/lv_color.h **** /*No idea where the guard is required but else throws warnings in the docs*/
 245:.\lvgl-release-v8.3/./src/hal/../draw/../misc/lv_color.h **** typedef uint8_t lv_opa_t;
 246:.\lvgl-release-v8.3/./src/hal/../draw/../misc/lv_color.h **** //! @endcond
 247:.\lvgl-release-v8.3/./src/hal/../draw/../misc/lv_color.h **** 
 248:.\lvgl-release-v8.3/./src/hal/../draw/../misc/lv_color.h **** struct _lv_color_filter_dsc_t;
 249:.\lvgl-release-v8.3/./src/hal/../draw/../misc/lv_color.h **** 
 250:.\lvgl-release-v8.3/./src/hal/../draw/../misc/lv_color.h **** typedef lv_color_t (*lv_color_filter_cb_t)(const struct _lv_color_filter_dsc_t *, lv_color_t, lv_op
 251:.\lvgl-release-v8.3/./src/hal/../draw/../misc/lv_color.h **** 
 252:.\lvgl-release-v8.3/./src/hal/../draw/../misc/lv_color.h **** typedef struct _lv_color_filter_dsc_t {
 253:.\lvgl-release-v8.3/./src/hal/../draw/../misc/lv_color.h ****     lv_color_filter_cb_t filter_cb;
 254:.\lvgl-release-v8.3/./src/hal/../draw/../misc/lv_color.h ****     void * user_data;
 255:.\lvgl-release-v8.3/./src/hal/../draw/../misc/lv_color.h **** } lv_color_filter_dsc_t;
 256:.\lvgl-release-v8.3/./src/hal/../draw/../misc/lv_color.h **** 
 257:.\lvgl-release-v8.3/./src/hal/../draw/../misc/lv_color.h **** 
 258:.\lvgl-release-v8.3/./src/hal/../draw/../misc/lv_color.h **** typedef enum {
 259:.\lvgl-release-v8.3/./src/hal/../draw/../misc/lv_color.h ****     LV_PALETTE_RED,
 260:.\lvgl-release-v8.3/./src/hal/../draw/../misc/lv_color.h ****     LV_PALETTE_PINK,
 261:.\lvgl-release-v8.3/./src/hal/../draw/../misc/lv_color.h ****     LV_PALETTE_PURPLE,
 262:.\lvgl-release-v8.3/./src/hal/../draw/../misc/lv_color.h ****     LV_PALETTE_DEEP_PURPLE,
 263:.\lvgl-release-v8.3/./src/hal/../draw/../misc/lv_color.h ****     LV_PALETTE_INDIGO,
 264:.\lvgl-release-v8.3/./src/hal/../draw/../misc/lv_color.h ****     LV_PALETTE_BLUE,
 265:.\lvgl-release-v8.3/./src/hal/../draw/../misc/lv_color.h ****     LV_PALETTE_LIGHT_BLUE,
 266:.\lvgl-release-v8.3/./src/hal/../draw/../misc/lv_color.h ****     LV_PALETTE_CYAN,
 267:.\lvgl-release-v8.3/./src/hal/../draw/../misc/lv_color.h ****     LV_PALETTE_TEAL,
 268:.\lvgl-release-v8.3/./src/hal/../draw/../misc/lv_color.h ****     LV_PALETTE_GREEN,
 269:.\lvgl-release-v8.3/./src/hal/../draw/../misc/lv_color.h ****     LV_PALETTE_LIGHT_GREEN,
 270:.\lvgl-release-v8.3/./src/hal/../draw/../misc/lv_color.h ****     LV_PALETTE_LIME,
 271:.\lvgl-release-v8.3/./src/hal/../draw/../misc/lv_color.h ****     LV_PALETTE_YELLOW,
 272:.\lvgl-release-v8.3/./src/hal/../draw/../misc/lv_color.h ****     LV_PALETTE_AMBER,
 273:.\lvgl-release-v8.3/./src/hal/../draw/../misc/lv_color.h ****     LV_PALETTE_ORANGE,
 274:.\lvgl-release-v8.3/./src/hal/../draw/../misc/lv_color.h ****     LV_PALETTE_DEEP_ORANGE,
 275:.\lvgl-release-v8.3/./src/hal/../draw/../misc/lv_color.h ****     LV_PALETTE_BROWN,
 276:.\lvgl-release-v8.3/./src/hal/../draw/../misc/lv_color.h ****     LV_PALETTE_BLUE_GREY,
 277:.\lvgl-release-v8.3/./src/hal/../draw/../misc/lv_color.h ****     LV_PALETTE_GREY,
 278:.\lvgl-release-v8.3/./src/hal/../draw/../misc/lv_color.h ****     _LV_PALETTE_LAST,
 279:.\lvgl-release-v8.3/./src/hal/../draw/../misc/lv_color.h ****     LV_PALETTE_NONE = 0xff,
 280:.\lvgl-release-v8.3/./src/hal/../draw/../misc/lv_color.h **** } lv_palette_t;
 281:.\lvgl-release-v8.3/./src/hal/../draw/../misc/lv_color.h **** 
 282:.\lvgl-release-v8.3/./src/hal/../draw/../misc/lv_color.h **** /**********************
 283:.\lvgl-release-v8.3/./src/hal/../draw/../misc/lv_color.h ****  * GLOBAL PROTOTYPES
 284:.\lvgl-release-v8.3/./src/hal/../draw/../misc/lv_color.h ****  **********************/
 285:.\lvgl-release-v8.3/./src/hal/../draw/../misc/lv_color.h **** 
 286:.\lvgl-release-v8.3/./src/hal/../draw/../misc/lv_color.h **** /*In color conversations:
ARM GAS  C:\Users\haske\AppData\Local\Temp\ccTvh5jR.s 			page 11


 287:.\lvgl-release-v8.3/./src/hal/../draw/../misc/lv_color.h ****  * - When converting to bigger color type the LSB weight of 1 LSB is calculated
 288:.\lvgl-release-v8.3/./src/hal/../draw/../misc/lv_color.h ****  *   E.g. 16 bit Red has 5 bits
 289:.\lvgl-release-v8.3/./src/hal/../draw/../misc/lv_color.h ****  *         8 bit Red has 3 bits
 290:.\lvgl-release-v8.3/./src/hal/../draw/../misc/lv_color.h ****  *        ----------------------
 291:.\lvgl-release-v8.3/./src/hal/../draw/../misc/lv_color.h ****  *        8 bit red LSB = (2^5 - 1) / (2^3 - 1) = 31 / 7 = 4
 292:.\lvgl-release-v8.3/./src/hal/../draw/../misc/lv_color.h ****  *
 293:.\lvgl-release-v8.3/./src/hal/../draw/../misc/lv_color.h ****  * - When calculating to smaller color type simply shift out the LSBs
 294:.\lvgl-release-v8.3/./src/hal/../draw/../misc/lv_color.h ****  *   E.g.  8 bit Red has 3 bits
 295:.\lvgl-release-v8.3/./src/hal/../draw/../misc/lv_color.h ****  *        16 bit Red has 5 bits
 296:.\lvgl-release-v8.3/./src/hal/../draw/../misc/lv_color.h ****  *        ----------------------
 297:.\lvgl-release-v8.3/./src/hal/../draw/../misc/lv_color.h ****  *         Shift right with 5 - 3 = 2
 298:.\lvgl-release-v8.3/./src/hal/../draw/../misc/lv_color.h ****  */
 299:.\lvgl-release-v8.3/./src/hal/../draw/../misc/lv_color.h **** static inline uint8_t lv_color_to1(lv_color_t color)
 300:.\lvgl-release-v8.3/./src/hal/../draw/../misc/lv_color.h **** {
 301:.\lvgl-release-v8.3/./src/hal/../draw/../misc/lv_color.h **** #if LV_COLOR_DEPTH == 1
 302:.\lvgl-release-v8.3/./src/hal/../draw/../misc/lv_color.h ****     return color.full;
 303:.\lvgl-release-v8.3/./src/hal/../draw/../misc/lv_color.h **** #elif LV_COLOR_DEPTH == 8
 304:.\lvgl-release-v8.3/./src/hal/../draw/../misc/lv_color.h ****     if((LV_COLOR_GET_R(color) & 0x4) || (LV_COLOR_GET_G(color) & 0x4) || (LV_COLOR_GET_B(color) & 0
 305:.\lvgl-release-v8.3/./src/hal/../draw/../misc/lv_color.h ****         return 1;
 306:.\lvgl-release-v8.3/./src/hal/../draw/../misc/lv_color.h ****     }
 307:.\lvgl-release-v8.3/./src/hal/../draw/../misc/lv_color.h ****     else {
 308:.\lvgl-release-v8.3/./src/hal/../draw/../misc/lv_color.h ****         return 0;
 309:.\lvgl-release-v8.3/./src/hal/../draw/../misc/lv_color.h ****     }
 310:.\lvgl-release-v8.3/./src/hal/../draw/../misc/lv_color.h **** #elif LV_COLOR_DEPTH == 16
 311:.\lvgl-release-v8.3/./src/hal/../draw/../misc/lv_color.h ****     if((LV_COLOR_GET_R(color) & 0x10) || (LV_COLOR_GET_G(color) & 0x20) || (LV_COLOR_GET_B(color) &
 312:.\lvgl-release-v8.3/./src/hal/../draw/../misc/lv_color.h ****         return 1;
 313:.\lvgl-release-v8.3/./src/hal/../draw/../misc/lv_color.h ****     }
 314:.\lvgl-release-v8.3/./src/hal/../draw/../misc/lv_color.h ****     else {
 315:.\lvgl-release-v8.3/./src/hal/../draw/../misc/lv_color.h ****         return 0;
 316:.\lvgl-release-v8.3/./src/hal/../draw/../misc/lv_color.h ****     }
 317:.\lvgl-release-v8.3/./src/hal/../draw/../misc/lv_color.h **** #elif LV_COLOR_DEPTH == 32
 318:.\lvgl-release-v8.3/./src/hal/../draw/../misc/lv_color.h ****     if((LV_COLOR_GET_R(color) & 0x80) || (LV_COLOR_GET_G(color) & 0x80) || (LV_COLOR_GET_B(color) &
 319:.\lvgl-release-v8.3/./src/hal/../draw/../misc/lv_color.h ****         return 1;
 320:.\lvgl-release-v8.3/./src/hal/../draw/../misc/lv_color.h ****     }
 321:.\lvgl-release-v8.3/./src/hal/../draw/../misc/lv_color.h ****     else {
 322:.\lvgl-release-v8.3/./src/hal/../draw/../misc/lv_color.h ****         return 0;
 323:.\lvgl-release-v8.3/./src/hal/../draw/../misc/lv_color.h ****     }
 324:.\lvgl-release-v8.3/./src/hal/../draw/../misc/lv_color.h **** #endif
 325:.\lvgl-release-v8.3/./src/hal/../draw/../misc/lv_color.h **** }
 326:.\lvgl-release-v8.3/./src/hal/../draw/../misc/lv_color.h **** 
 327:.\lvgl-release-v8.3/./src/hal/../draw/../misc/lv_color.h **** static inline uint8_t lv_color_to8(lv_color_t color)
 328:.\lvgl-release-v8.3/./src/hal/../draw/../misc/lv_color.h **** {
 329:.\lvgl-release-v8.3/./src/hal/../draw/../misc/lv_color.h **** #if LV_COLOR_DEPTH == 1
 330:.\lvgl-release-v8.3/./src/hal/../draw/../misc/lv_color.h ****     if(color.full == 0)
 331:.\lvgl-release-v8.3/./src/hal/../draw/../misc/lv_color.h ****         return 0;
 332:.\lvgl-release-v8.3/./src/hal/../draw/../misc/lv_color.h ****     else
 333:.\lvgl-release-v8.3/./src/hal/../draw/../misc/lv_color.h ****         return 0xFF;
 334:.\lvgl-release-v8.3/./src/hal/../draw/../misc/lv_color.h **** #elif LV_COLOR_DEPTH == 8
 335:.\lvgl-release-v8.3/./src/hal/../draw/../misc/lv_color.h ****     return color.full;
 336:.\lvgl-release-v8.3/./src/hal/../draw/../misc/lv_color.h **** #elif LV_COLOR_DEPTH == 16
 337:.\lvgl-release-v8.3/./src/hal/../draw/../misc/lv_color.h ****     lv_color8_t ret;
 338:.\lvgl-release-v8.3/./src/hal/../draw/../misc/lv_color.h ****     LV_COLOR_SET_R8(ret, LV_COLOR_GET_R(color) >> 2); /*5 - 3  = 2*/
 339:.\lvgl-release-v8.3/./src/hal/../draw/../misc/lv_color.h ****     LV_COLOR_SET_G8(ret, LV_COLOR_GET_G(color) >> 3); /*6 - 3  = 3*/
 340:.\lvgl-release-v8.3/./src/hal/../draw/../misc/lv_color.h ****     LV_COLOR_SET_B8(ret, LV_COLOR_GET_B(color) >> 3); /*5 - 2  = 3*/
 341:.\lvgl-release-v8.3/./src/hal/../draw/../misc/lv_color.h ****     return ret.full;
 342:.\lvgl-release-v8.3/./src/hal/../draw/../misc/lv_color.h **** #elif LV_COLOR_DEPTH == 32
 343:.\lvgl-release-v8.3/./src/hal/../draw/../misc/lv_color.h ****     lv_color8_t ret;
ARM GAS  C:\Users\haske\AppData\Local\Temp\ccTvh5jR.s 			page 12


 344:.\lvgl-release-v8.3/./src/hal/../draw/../misc/lv_color.h ****     LV_COLOR_SET_R8(ret, LV_COLOR_GET_R(color) >> 5); /*8 - 3  = 5*/
 345:.\lvgl-release-v8.3/./src/hal/../draw/../misc/lv_color.h ****     LV_COLOR_SET_G8(ret, LV_COLOR_GET_G(color) >> 5); /*8 - 3  = 5*/
 346:.\lvgl-release-v8.3/./src/hal/../draw/../misc/lv_color.h ****     LV_COLOR_SET_B8(ret, LV_COLOR_GET_B(color) >> 6); /*8 - 2  = 6*/
 347:.\lvgl-release-v8.3/./src/hal/../draw/../misc/lv_color.h ****     return ret.full;
 348:.\lvgl-release-v8.3/./src/hal/../draw/../misc/lv_color.h **** #endif
 349:.\lvgl-release-v8.3/./src/hal/../draw/../misc/lv_color.h **** }
 350:.\lvgl-release-v8.3/./src/hal/../draw/../misc/lv_color.h **** 
 351:.\lvgl-release-v8.3/./src/hal/../draw/../misc/lv_color.h **** static inline uint16_t lv_color_to16(lv_color_t color)
 352:.\lvgl-release-v8.3/./src/hal/../draw/../misc/lv_color.h **** {
 353:.\lvgl-release-v8.3/./src/hal/../draw/../misc/lv_color.h **** #if LV_COLOR_DEPTH == 1
 354:.\lvgl-release-v8.3/./src/hal/../draw/../misc/lv_color.h ****     if(color.full == 0)
 355:.\lvgl-release-v8.3/./src/hal/../draw/../misc/lv_color.h ****         return 0;
 356:.\lvgl-release-v8.3/./src/hal/../draw/../misc/lv_color.h ****     else
 357:.\lvgl-release-v8.3/./src/hal/../draw/../misc/lv_color.h ****         return 0xFFFF;
 358:.\lvgl-release-v8.3/./src/hal/../draw/../misc/lv_color.h **** #elif LV_COLOR_DEPTH == 8
 359:.\lvgl-release-v8.3/./src/hal/../draw/../misc/lv_color.h ****     lv_color16_t ret;
 360:.\lvgl-release-v8.3/./src/hal/../draw/../misc/lv_color.h ****     LV_COLOR_SET_R16(ret, LV_COLOR_GET_R(color) * 4);  /*(2^5 - 1)/(2^3 - 1) = 31/7 = 4*/
 361:.\lvgl-release-v8.3/./src/hal/../draw/../misc/lv_color.h ****     LV_COLOR_SET_G16(ret, LV_COLOR_GET_G(color) * 9);  /*(2^6 - 1)/(2^3 - 1) = 63/7 = 9*/
 362:.\lvgl-release-v8.3/./src/hal/../draw/../misc/lv_color.h ****     LV_COLOR_SET_B16(ret, LV_COLOR_GET_B(color) * 10); /*(2^5 - 1)/(2^2 - 1) = 31/3 = 10*/
 363:.\lvgl-release-v8.3/./src/hal/../draw/../misc/lv_color.h ****     return ret.full;
 364:.\lvgl-release-v8.3/./src/hal/../draw/../misc/lv_color.h **** #elif LV_COLOR_DEPTH == 16
 365:.\lvgl-release-v8.3/./src/hal/../draw/../misc/lv_color.h ****     return color.full;
 366:.\lvgl-release-v8.3/./src/hal/../draw/../misc/lv_color.h **** #elif LV_COLOR_DEPTH == 32
 367:.\lvgl-release-v8.3/./src/hal/../draw/../misc/lv_color.h ****     lv_color16_t ret;
 368:.\lvgl-release-v8.3/./src/hal/../draw/../misc/lv_color.h ****     LV_COLOR_SET_R16(ret, LV_COLOR_GET_R(color) >> 3); /*8 - 5  = 3*/
 369:.\lvgl-release-v8.3/./src/hal/../draw/../misc/lv_color.h ****     LV_COLOR_SET_G16(ret, LV_COLOR_GET_G(color) >> 2); /*8 - 6  = 2*/
 370:.\lvgl-release-v8.3/./src/hal/../draw/../misc/lv_color.h ****     LV_COLOR_SET_B16(ret, LV_COLOR_GET_B(color) >> 3); /*8 - 5  = 3*/
 371:.\lvgl-release-v8.3/./src/hal/../draw/../misc/lv_color.h ****     return ret.full;
 372:.\lvgl-release-v8.3/./src/hal/../draw/../misc/lv_color.h **** #endif
 373:.\lvgl-release-v8.3/./src/hal/../draw/../misc/lv_color.h **** }
 374:.\lvgl-release-v8.3/./src/hal/../draw/../misc/lv_color.h **** 
 375:.\lvgl-release-v8.3/./src/hal/../draw/../misc/lv_color.h **** static inline uint32_t lv_color_to32(lv_color_t color)
 376:.\lvgl-release-v8.3/./src/hal/../draw/../misc/lv_color.h **** {
 377:.\lvgl-release-v8.3/./src/hal/../draw/../misc/lv_color.h **** #if LV_COLOR_DEPTH == 1
 378:.\lvgl-release-v8.3/./src/hal/../draw/../misc/lv_color.h ****     if(color.full == 0)
 379:.\lvgl-release-v8.3/./src/hal/../draw/../misc/lv_color.h ****         return 0xFF000000;
 380:.\lvgl-release-v8.3/./src/hal/../draw/../misc/lv_color.h ****     else
 381:.\lvgl-release-v8.3/./src/hal/../draw/../misc/lv_color.h ****         return 0xFFFFFFFF;
 382:.\lvgl-release-v8.3/./src/hal/../draw/../misc/lv_color.h **** #elif LV_COLOR_DEPTH == 8
 383:.\lvgl-release-v8.3/./src/hal/../draw/../misc/lv_color.h ****     lv_color32_t ret;
 384:.\lvgl-release-v8.3/./src/hal/../draw/../misc/lv_color.h ****     LV_COLOR_SET_R32(ret, LV_COLOR_GET_R(color) * 36); /*(2^8 - 1)/(2^3 - 1) = 255/7 = 36*/
 385:.\lvgl-release-v8.3/./src/hal/../draw/../misc/lv_color.h ****     LV_COLOR_SET_G32(ret, LV_COLOR_GET_G(color) * 36); /*(2^8 - 1)/(2^3 - 1) = 255/7 = 36*/
 386:.\lvgl-release-v8.3/./src/hal/../draw/../misc/lv_color.h ****     LV_COLOR_SET_B32(ret, LV_COLOR_GET_B(color) * 85); /*(2^8 - 1)/(2^2 - 1) = 255/3 = 85*/
 387:.\lvgl-release-v8.3/./src/hal/../draw/../misc/lv_color.h ****     LV_COLOR_SET_A32(ret, 0xFF);
 388:.\lvgl-release-v8.3/./src/hal/../draw/../misc/lv_color.h ****     return ret.full;
 389:.\lvgl-release-v8.3/./src/hal/../draw/../misc/lv_color.h **** #elif LV_COLOR_DEPTH == 16
 390:.\lvgl-release-v8.3/./src/hal/../draw/../misc/lv_color.h ****     /**
 391:.\lvgl-release-v8.3/./src/hal/../draw/../misc/lv_color.h ****      * The floating point math for conversion is:
 392:.\lvgl-release-v8.3/./src/hal/../draw/../misc/lv_color.h ****      *  valueto = valuefrom * ( (2^bitsto - 1) / (float)(2^bitsfrom - 1) )
 393:.\lvgl-release-v8.3/./src/hal/../draw/../misc/lv_color.h ****      * The faster integer math for conversion is:
 394:.\lvgl-release-v8.3/./src/hal/../draw/../misc/lv_color.h ****      *  valueto = ( valuefrom * multiplier + adder ) >> divisor
 395:.\lvgl-release-v8.3/./src/hal/../draw/../misc/lv_color.h ****      *   multiplier = FLOOR( ( (2^bitsto - 1) << divisor ) / (float)(2^bitsfrom - 1) )
 396:.\lvgl-release-v8.3/./src/hal/../draw/../misc/lv_color.h ****      *
 397:.\lvgl-release-v8.3/./src/hal/../draw/../misc/lv_color.h ****      * Find the first divisor where ( adder >> divisor ) <= 0
 398:.\lvgl-release-v8.3/./src/hal/../draw/../misc/lv_color.h ****      *
 399:.\lvgl-release-v8.3/./src/hal/../draw/../misc/lv_color.h ****      * 5-bit to 8-bit: ( 31 * multiplier + adder ) >> divisor = 255
 400:.\lvgl-release-v8.3/./src/hal/../draw/../misc/lv_color.h ****      * divisor  multiplier  adder  min (0)  max (31)
ARM GAS  C:\Users\haske\AppData\Local\Temp\ccTvh5jR.s 			page 13


 401:.\lvgl-release-v8.3/./src/hal/../draw/../misc/lv_color.h ****      *       0           8      7        7       255
 402:.\lvgl-release-v8.3/./src/hal/../draw/../misc/lv_color.h ****      *       1          16     14        7       255
 403:.\lvgl-release-v8.3/./src/hal/../draw/../misc/lv_color.h ****      *       2          32     28        7       255
 404:.\lvgl-release-v8.3/./src/hal/../draw/../misc/lv_color.h ****      *       3          65     25        3       255
 405:.\lvgl-release-v8.3/./src/hal/../draw/../misc/lv_color.h ****      *       4         131     19        1       255
 406:.\lvgl-release-v8.3/./src/hal/../draw/../misc/lv_color.h ****      *       5         263      7        0       255
 407:.\lvgl-release-v8.3/./src/hal/../draw/../misc/lv_color.h ****      *
 408:.\lvgl-release-v8.3/./src/hal/../draw/../misc/lv_color.h ****      * 6-bit to 8-bit: 255 = ( 63 * multiplier + adder ) >> divisor
 409:.\lvgl-release-v8.3/./src/hal/../draw/../misc/lv_color.h ****      * divisor  multiplier  adder  min (0)  max (63)
 410:.\lvgl-release-v8.3/./src/hal/../draw/../misc/lv_color.h ****      *       0           4      3        3       255
 411:.\lvgl-release-v8.3/./src/hal/../draw/../misc/lv_color.h ****      *       1           8      6        3       255
 412:.\lvgl-release-v8.3/./src/hal/../draw/../misc/lv_color.h ****      *       2          16     12        3       255
 413:.\lvgl-release-v8.3/./src/hal/../draw/../misc/lv_color.h ****      *       3          32     24        3       255
 414:.\lvgl-release-v8.3/./src/hal/../draw/../misc/lv_color.h ****      *       4          64     48        3       255
 415:.\lvgl-release-v8.3/./src/hal/../draw/../misc/lv_color.h ****      *       5         129     33        1       255
 416:.\lvgl-release-v8.3/./src/hal/../draw/../misc/lv_color.h ****      *       6         259      3        0       255
 417:.\lvgl-release-v8.3/./src/hal/../draw/../misc/lv_color.h ****      */
 418:.\lvgl-release-v8.3/./src/hal/../draw/../misc/lv_color.h **** 
 419:.\lvgl-release-v8.3/./src/hal/../draw/../misc/lv_color.h ****     lv_color32_t ret;
 420:.\lvgl-release-v8.3/./src/hal/../draw/../misc/lv_color.h ****     LV_COLOR_SET_R32(ret, (LV_COLOR_GET_R(color) * 263 + 7) >> 5);
 421:.\lvgl-release-v8.3/./src/hal/../draw/../misc/lv_color.h ****     LV_COLOR_SET_G32(ret, (LV_COLOR_GET_G(color) * 259 + 3) >> 6);
 422:.\lvgl-release-v8.3/./src/hal/../draw/../misc/lv_color.h ****     LV_COLOR_SET_B32(ret, (LV_COLOR_GET_B(color) * 263 + 7) >> 5);
 423:.\lvgl-release-v8.3/./src/hal/../draw/../misc/lv_color.h ****     LV_COLOR_SET_A32(ret, 0xFF);
 424:.\lvgl-release-v8.3/./src/hal/../draw/../misc/lv_color.h ****     return ret.full;
 425:.\lvgl-release-v8.3/./src/hal/../draw/../misc/lv_color.h **** #elif LV_COLOR_DEPTH == 32
 426:.\lvgl-release-v8.3/./src/hal/../draw/../misc/lv_color.h ****     return color.full;
 427:.\lvgl-release-v8.3/./src/hal/../draw/../misc/lv_color.h **** #endif
 428:.\lvgl-release-v8.3/./src/hal/../draw/../misc/lv_color.h **** }
 429:.\lvgl-release-v8.3/./src/hal/../draw/../misc/lv_color.h **** 
 430:.\lvgl-release-v8.3/./src/hal/../draw/../misc/lv_color.h **** //! @cond Doxygen_Suppress
 431:.\lvgl-release-v8.3/./src/hal/../draw/../misc/lv_color.h **** 
 432:.\lvgl-release-v8.3/./src/hal/../draw/../misc/lv_color.h **** /**
 433:.\lvgl-release-v8.3/./src/hal/../draw/../misc/lv_color.h ****  * Mix two colors with a given ratio.
 434:.\lvgl-release-v8.3/./src/hal/../draw/../misc/lv_color.h ****  * @param c1 the first color to mix (usually the foreground)
 435:.\lvgl-release-v8.3/./src/hal/../draw/../misc/lv_color.h ****  * @param c2 the second color to mix (usually the background)
 436:.\lvgl-release-v8.3/./src/hal/../draw/../misc/lv_color.h ****  * @param mix The ratio of the colors. 0: full `c2`, 255: full `c1`, 127: half `c1` and half`c2`
 437:.\lvgl-release-v8.3/./src/hal/../draw/../misc/lv_color.h ****  * @return the mixed color
 438:.\lvgl-release-v8.3/./src/hal/../draw/../misc/lv_color.h ****  */
 439:.\lvgl-release-v8.3/./src/hal/../draw/../misc/lv_color.h **** static inline lv_color_t LV_ATTRIBUTE_FAST_MEM lv_color_mix(lv_color_t c1, lv_color_t c2, uint8_t m
 440:.\lvgl-release-v8.3/./src/hal/../draw/../misc/lv_color.h **** {
 441:.\lvgl-release-v8.3/./src/hal/../draw/../misc/lv_color.h ****     lv_color_t ret;
 442:.\lvgl-release-v8.3/./src/hal/../draw/../misc/lv_color.h **** 
 443:.\lvgl-release-v8.3/./src/hal/../draw/../misc/lv_color.h **** #if LV_COLOR_DEPTH == 16 && LV_COLOR_MIX_ROUND_OFS == 0
 444:.\lvgl-release-v8.3/./src/hal/../draw/../misc/lv_color.h **** #if LV_COLOR_16_SWAP == 1
 445:.\lvgl-release-v8.3/./src/hal/../draw/../misc/lv_color.h ****     c1.full = c1.full << 8 | c1.full >> 8;
 446:.\lvgl-release-v8.3/./src/hal/../draw/../misc/lv_color.h ****     c2.full = c2.full << 8 | c2.full >> 8;
 447:.\lvgl-release-v8.3/./src/hal/../draw/../misc/lv_color.h **** #endif
 448:.\lvgl-release-v8.3/./src/hal/../draw/../misc/lv_color.h ****     /*Source: https://stackoverflow.com/a/50012418/1999969*/
 449:.\lvgl-release-v8.3/./src/hal/../draw/../misc/lv_color.h ****     mix = (uint32_t)((uint32_t)mix + 4) >> 3;
 450:.\lvgl-release-v8.3/./src/hal/../draw/../misc/lv_color.h ****     uint32_t bg = (uint32_t)((uint32_t)c2.full | ((uint32_t)c2.full << 16)) &
 451:.\lvgl-release-v8.3/./src/hal/../draw/../misc/lv_color.h ****                   0x7E0F81F; /*0b00000111111000001111100000011111*/
 452:.\lvgl-release-v8.3/./src/hal/../draw/../misc/lv_color.h ****     uint32_t fg = (uint32_t)((uint32_t)c1.full | ((uint32_t)c1.full << 16)) & 0x7E0F81F;
 453:.\lvgl-release-v8.3/./src/hal/../draw/../misc/lv_color.h ****     uint32_t result = ((((fg - bg) * mix) >> 5) + bg) & 0x7E0F81F;
 454:.\lvgl-release-v8.3/./src/hal/../draw/../misc/lv_color.h ****     ret.full = (uint16_t)((result >> 16) | result);
 455:.\lvgl-release-v8.3/./src/hal/../draw/../misc/lv_color.h **** #if LV_COLOR_16_SWAP == 1
 456:.\lvgl-release-v8.3/./src/hal/../draw/../misc/lv_color.h ****     ret.full = ret.full << 8 | ret.full >> 8;
 457:.\lvgl-release-v8.3/./src/hal/../draw/../misc/lv_color.h **** #endif
ARM GAS  C:\Users\haske\AppData\Local\Temp\ccTvh5jR.s 			page 14


 458:.\lvgl-release-v8.3/./src/hal/../draw/../misc/lv_color.h **** #elif LV_COLOR_DEPTH != 1
 459:.\lvgl-release-v8.3/./src/hal/../draw/../misc/lv_color.h ****     /*LV_COLOR_DEPTH == 8, 16 or 32*/
 460:.\lvgl-release-v8.3/./src/hal/../draw/../misc/lv_color.h ****     LV_COLOR_SET_R(ret, LV_UDIV255((uint16_t)LV_COLOR_GET_R(c1) * mix + LV_COLOR_GET_R(c2) *
 461:.\lvgl-release-v8.3/./src/hal/../draw/../misc/lv_color.h ****                                    (255 - mix) + LV_COLOR_MIX_ROUND_OFS));
 462:.\lvgl-release-v8.3/./src/hal/../draw/../misc/lv_color.h ****     LV_COLOR_SET_G(ret, LV_UDIV255((uint16_t)LV_COLOR_GET_G(c1) * mix + LV_COLOR_GET_G(c2) *
 463:.\lvgl-release-v8.3/./src/hal/../draw/../misc/lv_color.h ****                                    (255 - mix) + LV_COLOR_MIX_ROUND_OFS));
 464:.\lvgl-release-v8.3/./src/hal/../draw/../misc/lv_color.h ****     LV_COLOR_SET_B(ret, LV_UDIV255((uint16_t)LV_COLOR_GET_B(c1) * mix + LV_COLOR_GET_B(c2) *
 465:.\lvgl-release-v8.3/./src/hal/../draw/../misc/lv_color.h ****                                    (255 - mix) + LV_COLOR_MIX_ROUND_OFS));
 466:.\lvgl-release-v8.3/./src/hal/../draw/../misc/lv_color.h ****     LV_COLOR_SET_A(ret, 0xFF);
 467:.\lvgl-release-v8.3/./src/hal/../draw/../misc/lv_color.h **** #else
 468:.\lvgl-release-v8.3/./src/hal/../draw/../misc/lv_color.h ****     /*LV_COLOR_DEPTH == 1*/
 469:.\lvgl-release-v8.3/./src/hal/../draw/../misc/lv_color.h ****     ret.full = mix > LV_OPA_50 ? c1.full : c2.full;
 470:.\lvgl-release-v8.3/./src/hal/../draw/../misc/lv_color.h **** #endif
 471:.\lvgl-release-v8.3/./src/hal/../draw/../misc/lv_color.h **** 
 472:.\lvgl-release-v8.3/./src/hal/../draw/../misc/lv_color.h ****     return ret;
 473:.\lvgl-release-v8.3/./src/hal/../draw/../misc/lv_color.h **** }
 474:.\lvgl-release-v8.3/./src/hal/../draw/../misc/lv_color.h **** 
 475:.\lvgl-release-v8.3/./src/hal/../draw/../misc/lv_color.h **** static inline void LV_ATTRIBUTE_FAST_MEM lv_color_premult(lv_color_t c, uint8_t mix, uint16_t * out
 476:.\lvgl-release-v8.3/./src/hal/../draw/../misc/lv_color.h **** {
 477:.\lvgl-release-v8.3/./src/hal/../draw/../misc/lv_color.h **** #if LV_COLOR_DEPTH != 1
 478:.\lvgl-release-v8.3/./src/hal/../draw/../misc/lv_color.h ****     out[0] = (uint16_t)LV_COLOR_GET_R(c) * mix;
 479:.\lvgl-release-v8.3/./src/hal/../draw/../misc/lv_color.h ****     out[1] = (uint16_t)LV_COLOR_GET_G(c) * mix;
 480:.\lvgl-release-v8.3/./src/hal/../draw/../misc/lv_color.h ****     out[2] = (uint16_t)LV_COLOR_GET_B(c) * mix;
 481:.\lvgl-release-v8.3/./src/hal/../draw/../misc/lv_color.h **** #else
 482:.\lvgl-release-v8.3/./src/hal/../draw/../misc/lv_color.h ****     (void) mix;
 483:.\lvgl-release-v8.3/./src/hal/../draw/../misc/lv_color.h ****     /*Pre-multiplication can't be used with 1 bpp*/
 484:.\lvgl-release-v8.3/./src/hal/../draw/../misc/lv_color.h ****     out[0] = LV_COLOR_GET_R(c);
 485:.\lvgl-release-v8.3/./src/hal/../draw/../misc/lv_color.h ****     out[1] = LV_COLOR_GET_G(c);
 486:.\lvgl-release-v8.3/./src/hal/../draw/../misc/lv_color.h ****     out[2] = LV_COLOR_GET_B(c);
 487:.\lvgl-release-v8.3/./src/hal/../draw/../misc/lv_color.h **** #endif
 488:.\lvgl-release-v8.3/./src/hal/../draw/../misc/lv_color.h **** 
 489:.\lvgl-release-v8.3/./src/hal/../draw/../misc/lv_color.h **** }
 490:.\lvgl-release-v8.3/./src/hal/../draw/../misc/lv_color.h **** 
 491:.\lvgl-release-v8.3/./src/hal/../draw/../misc/lv_color.h **** /**
 492:.\lvgl-release-v8.3/./src/hal/../draw/../misc/lv_color.h ****  * Mix two colors with a given ratio. It runs faster then `lv_color_mix` but requires some pre comp
 493:.\lvgl-release-v8.3/./src/hal/../draw/../misc/lv_color.h ****  * @param premult_c1 The first color. Should be preprocessed with `lv_color_premult(c1)`
 494:.\lvgl-release-v8.3/./src/hal/../draw/../misc/lv_color.h ****  * @param c2 The second color. As it is no pre computation required on it
 495:.\lvgl-release-v8.3/./src/hal/../draw/../misc/lv_color.h ****  * @param mix The ratio of the colors. 0: full `c1`, 255: full `c2`, 127: half `c1` and half `c2`.
 496:.\lvgl-release-v8.3/./src/hal/../draw/../misc/lv_color.h ****  *            Should be modified like mix = `255 - mix`
 497:.\lvgl-release-v8.3/./src/hal/../draw/../misc/lv_color.h ****  * @return the mixed color
 498:.\lvgl-release-v8.3/./src/hal/../draw/../misc/lv_color.h ****  * @note 255 won't give clearly `c1`.
 499:.\lvgl-release-v8.3/./src/hal/../draw/../misc/lv_color.h ****  */
 500:.\lvgl-release-v8.3/./src/hal/../draw/../misc/lv_color.h **** static inline lv_color_t LV_ATTRIBUTE_FAST_MEM lv_color_mix_premult(uint16_t * premult_c1, lv_color
 501:.\lvgl-release-v8.3/./src/hal/../draw/../misc/lv_color.h **** {
 502:.\lvgl-release-v8.3/./src/hal/../draw/../misc/lv_color.h ****     lv_color_t ret;
 503:.\lvgl-release-v8.3/./src/hal/../draw/../misc/lv_color.h **** #if LV_COLOR_DEPTH != 1
 504:.\lvgl-release-v8.3/./src/hal/../draw/../misc/lv_color.h ****     /*LV_COLOR_DEPTH == 8 or 32*/
 505:.\lvgl-release-v8.3/./src/hal/../draw/../misc/lv_color.h ****     LV_COLOR_SET_R(ret, LV_UDIV255(premult_c1[0] + LV_COLOR_GET_R(c2) * mix + LV_COLOR_MIX_ROUND_OF
 506:.\lvgl-release-v8.3/./src/hal/../draw/../misc/lv_color.h ****     LV_COLOR_SET_G(ret, LV_UDIV255(premult_c1[1] + LV_COLOR_GET_G(c2) * mix + LV_COLOR_MIX_ROUND_OF
 507:.\lvgl-release-v8.3/./src/hal/../draw/../misc/lv_color.h ****     LV_COLOR_SET_B(ret, LV_UDIV255(premult_c1[2] + LV_COLOR_GET_B(c2) * mix + LV_COLOR_MIX_ROUND_OF
 508:.\lvgl-release-v8.3/./src/hal/../draw/../misc/lv_color.h ****     LV_COLOR_SET_A(ret, 0xFF);
 509:.\lvgl-release-v8.3/./src/hal/../draw/../misc/lv_color.h **** #else
 510:.\lvgl-release-v8.3/./src/hal/../draw/../misc/lv_color.h ****     /*LV_COLOR_DEPTH == 1*/
 511:.\lvgl-release-v8.3/./src/hal/../draw/../misc/lv_color.h ****     /*Restore color1*/
 512:.\lvgl-release-v8.3/./src/hal/../draw/../misc/lv_color.h ****     lv_color_t c1;
 513:.\lvgl-release-v8.3/./src/hal/../draw/../misc/lv_color.h ****     LV_COLOR_SET_R(c1, premult_c1[0]);
 514:.\lvgl-release-v8.3/./src/hal/../draw/../misc/lv_color.h ****     LV_COLOR_SET_G(c1, premult_c1[1]);
ARM GAS  C:\Users\haske\AppData\Local\Temp\ccTvh5jR.s 			page 15


 515:.\lvgl-release-v8.3/./src/hal/../draw/../misc/lv_color.h ****     LV_COLOR_SET_B(c1, premult_c1[2]);
 516:.\lvgl-release-v8.3/./src/hal/../draw/../misc/lv_color.h ****     ret.full = mix > LV_OPA_50 ? c2.full : c1.full;
 517:.\lvgl-release-v8.3/./src/hal/../draw/../misc/lv_color.h **** #endif
 518:.\lvgl-release-v8.3/./src/hal/../draw/../misc/lv_color.h **** 
 519:.\lvgl-release-v8.3/./src/hal/../draw/../misc/lv_color.h ****     return ret;
 520:.\lvgl-release-v8.3/./src/hal/../draw/../misc/lv_color.h **** }
 521:.\lvgl-release-v8.3/./src/hal/../draw/../misc/lv_color.h **** 
 522:.\lvgl-release-v8.3/./src/hal/../draw/../misc/lv_color.h **** /**
 523:.\lvgl-release-v8.3/./src/hal/../draw/../misc/lv_color.h ****  * Mix two colors. Both color can have alpha value.
 524:.\lvgl-release-v8.3/./src/hal/../draw/../misc/lv_color.h ****  * @param bg_color background color
 525:.\lvgl-release-v8.3/./src/hal/../draw/../misc/lv_color.h ****  * @param bg_opa alpha of the background color
 526:.\lvgl-release-v8.3/./src/hal/../draw/../misc/lv_color.h ****  * @param fg_color foreground color
 527:.\lvgl-release-v8.3/./src/hal/../draw/../misc/lv_color.h ****  * @param fg_opa alpha of the foreground color
 528:.\lvgl-release-v8.3/./src/hal/../draw/../misc/lv_color.h ****  * @param res_color the result color
 529:.\lvgl-release-v8.3/./src/hal/../draw/../misc/lv_color.h ****  * @param res_opa the result opacity
 530:.\lvgl-release-v8.3/./src/hal/../draw/../misc/lv_color.h ****  */
 531:.\lvgl-release-v8.3/./src/hal/../draw/../misc/lv_color.h **** static inline void LV_ATTRIBUTE_FAST_MEM lv_color_mix_with_alpha(lv_color_t bg_color, lv_opa_t bg_o
 532:.\lvgl-release-v8.3/./src/hal/../draw/../misc/lv_color.h ****                                                                  lv_color_t fg_color, lv_opa_t fg_o
 533:.\lvgl-release-v8.3/./src/hal/../draw/../misc/lv_color.h ****                                                                  lv_color_t * res_color, lv_opa_t *
 534:.\lvgl-release-v8.3/./src/hal/../draw/../misc/lv_color.h **** {
 535:.\lvgl-release-v8.3/./src/hal/../draw/../misc/lv_color.h ****     /*Pick the foreground if it's fully opaque or the Background is fully transparent*/
 536:.\lvgl-release-v8.3/./src/hal/../draw/../misc/lv_color.h ****     if(fg_opa >= LV_OPA_MAX || bg_opa <= LV_OPA_MIN) {
 537:.\lvgl-release-v8.3/./src/hal/../draw/../misc/lv_color.h ****         res_color->full = fg_color.full;
 538:.\lvgl-release-v8.3/./src/hal/../draw/../misc/lv_color.h ****         *res_opa = fg_opa;
 539:.\lvgl-release-v8.3/./src/hal/../draw/../misc/lv_color.h ****     }
 540:.\lvgl-release-v8.3/./src/hal/../draw/../misc/lv_color.h ****     /*Transparent foreground: use the Background*/
 541:.\lvgl-release-v8.3/./src/hal/../draw/../misc/lv_color.h ****     else if(fg_opa <= LV_OPA_MIN) {
 542:.\lvgl-release-v8.3/./src/hal/../draw/../misc/lv_color.h ****         res_color->full = bg_color.full;
 543:.\lvgl-release-v8.3/./src/hal/../draw/../misc/lv_color.h ****         *res_opa = bg_opa;
 544:.\lvgl-release-v8.3/./src/hal/../draw/../misc/lv_color.h ****     }
 545:.\lvgl-release-v8.3/./src/hal/../draw/../misc/lv_color.h ****     /*Opaque background: use simple mix*/
 546:.\lvgl-release-v8.3/./src/hal/../draw/../misc/lv_color.h ****     else if(bg_opa >= LV_OPA_MAX) {
 547:.\lvgl-release-v8.3/./src/hal/../draw/../misc/lv_color.h ****         *res_color = lv_color_mix(fg_color, bg_color, fg_opa);
 548:.\lvgl-release-v8.3/./src/hal/../draw/../misc/lv_color.h ****         *res_opa = LV_OPA_COVER;
 549:.\lvgl-release-v8.3/./src/hal/../draw/../misc/lv_color.h ****     }
 550:.\lvgl-release-v8.3/./src/hal/../draw/../misc/lv_color.h ****     /*Both colors have alpha. Expensive calculation need to be applied*/
 551:.\lvgl-release-v8.3/./src/hal/../draw/../misc/lv_color.h ****     else {
 552:.\lvgl-release-v8.3/./src/hal/../draw/../misc/lv_color.h ****         /*Save the parameters and the result. If they will be asked again don't compute again*/
 553:.\lvgl-release-v8.3/./src/hal/../draw/../misc/lv_color.h ****         static lv_opa_t fg_opa_save     = 0;
 554:.\lvgl-release-v8.3/./src/hal/../draw/../misc/lv_color.h ****         static lv_opa_t bg_opa_save     = 0;
 555:.\lvgl-release-v8.3/./src/hal/../draw/../misc/lv_color.h ****         static lv_color_t fg_color_save = _LV_COLOR_ZERO_INITIALIZER;
 556:.\lvgl-release-v8.3/./src/hal/../draw/../misc/lv_color.h ****         static lv_color_t bg_color_save = _LV_COLOR_ZERO_INITIALIZER;
 557:.\lvgl-release-v8.3/./src/hal/../draw/../misc/lv_color.h ****         static lv_color_t res_color_saved = _LV_COLOR_ZERO_INITIALIZER;
 558:.\lvgl-release-v8.3/./src/hal/../draw/../misc/lv_color.h ****         static lv_opa_t res_opa_saved = 0;
 559:.\lvgl-release-v8.3/./src/hal/../draw/../misc/lv_color.h **** 
 560:.\lvgl-release-v8.3/./src/hal/../draw/../misc/lv_color.h ****         if(fg_opa != fg_opa_save || bg_opa != bg_opa_save || fg_color.full != fg_color_save.full ||
 561:.\lvgl-release-v8.3/./src/hal/../draw/../misc/lv_color.h ****            bg_color.full != bg_color_save.full) {
 562:.\lvgl-release-v8.3/./src/hal/../draw/../misc/lv_color.h ****             fg_opa_save        = fg_opa;
 563:.\lvgl-release-v8.3/./src/hal/../draw/../misc/lv_color.h ****             bg_opa_save        = bg_opa;
 564:.\lvgl-release-v8.3/./src/hal/../draw/../misc/lv_color.h ****             fg_color_save.full = fg_color.full;
 565:.\lvgl-release-v8.3/./src/hal/../draw/../misc/lv_color.h ****             bg_color_save.full = bg_color.full;
 566:.\lvgl-release-v8.3/./src/hal/../draw/../misc/lv_color.h ****             /*Info:
 567:.\lvgl-release-v8.3/./src/hal/../draw/../misc/lv_color.h ****              * https://en.wikipedia.org/wiki/Alpha_compositing#Analytical_derivation_of_the_over_op
 568:.\lvgl-release-v8.3/./src/hal/../draw/../misc/lv_color.h ****             res_opa_saved = 255 - ((uint16_t)((uint16_t)(255 - fg_opa) * (255 - bg_opa)) >> 8);
 569:.\lvgl-release-v8.3/./src/hal/../draw/../misc/lv_color.h ****             LV_ASSERT(res_opa_saved != 0);
 570:.\lvgl-release-v8.3/./src/hal/../draw/../misc/lv_color.h ****             lv_opa_t ratio = (uint16_t)((uint16_t)fg_opa * 255) / res_opa_saved;
 571:.\lvgl-release-v8.3/./src/hal/../draw/../misc/lv_color.h ****             res_color_saved = lv_color_mix(fg_color, bg_color, ratio);
ARM GAS  C:\Users\haske\AppData\Local\Temp\ccTvh5jR.s 			page 16


 572:.\lvgl-release-v8.3/./src/hal/../draw/../misc/lv_color.h **** 
 573:.\lvgl-release-v8.3/./src/hal/../draw/../misc/lv_color.h ****         }
 574:.\lvgl-release-v8.3/./src/hal/../draw/../misc/lv_color.h **** 
 575:.\lvgl-release-v8.3/./src/hal/../draw/../misc/lv_color.h ****         res_color->full = res_color_saved.full;
 576:.\lvgl-release-v8.3/./src/hal/../draw/../misc/lv_color.h ****         *res_opa = res_opa_saved;
 577:.\lvgl-release-v8.3/./src/hal/../draw/../misc/lv_color.h ****     }
 578:.\lvgl-release-v8.3/./src/hal/../draw/../misc/lv_color.h **** }
 579:.\lvgl-release-v8.3/./src/hal/../draw/../misc/lv_color.h **** 
 580:.\lvgl-release-v8.3/./src/hal/../draw/../misc/lv_color.h **** //! @endcond
 581:.\lvgl-release-v8.3/./src/hal/../draw/../misc/lv_color.h **** 
 582:.\lvgl-release-v8.3/./src/hal/../draw/../misc/lv_color.h **** /**
 583:.\lvgl-release-v8.3/./src/hal/../draw/../misc/lv_color.h ****  * Get the brightness of a color
 584:.\lvgl-release-v8.3/./src/hal/../draw/../misc/lv_color.h ****  * @param color a color
 585:.\lvgl-release-v8.3/./src/hal/../draw/../misc/lv_color.h ****  * @return the brightness [0..255]
 586:.\lvgl-release-v8.3/./src/hal/../draw/../misc/lv_color.h ****  */
 587:.\lvgl-release-v8.3/./src/hal/../draw/../misc/lv_color.h **** static inline uint8_t lv_color_brightness(lv_color_t color)
 588:.\lvgl-release-v8.3/./src/hal/../draw/../misc/lv_color.h **** {
 589:.\lvgl-release-v8.3/./src/hal/../draw/../misc/lv_color.h ****     lv_color32_t c32;
 590:.\lvgl-release-v8.3/./src/hal/../draw/../misc/lv_color.h ****     c32.full        = lv_color_to32(color);
 591:.\lvgl-release-v8.3/./src/hal/../draw/../misc/lv_color.h ****     uint16_t bright = (uint16_t)(3u * LV_COLOR_GET_R32(c32) + LV_COLOR_GET_B32(c32) + 4u * LV_COLOR
 592:.\lvgl-release-v8.3/./src/hal/../draw/../misc/lv_color.h ****     return (uint8_t)(bright >> 3);
 593:.\lvgl-release-v8.3/./src/hal/../draw/../misc/lv_color.h **** }
 594:.\lvgl-release-v8.3/./src/hal/../draw/../misc/lv_color.h **** 
 595:.\lvgl-release-v8.3/./src/hal/../draw/../misc/lv_color.h **** static inline lv_color_t lv_color_make(uint8_t r, uint8_t g, uint8_t b)
 596:.\lvgl-release-v8.3/./src/hal/../draw/../misc/lv_color.h **** {
 597:.\lvgl-release-v8.3/./src/hal/../draw/../misc/lv_color.h ****     return _LV_COLOR_MAKE_TYPE_HELPER LV_COLOR_MAKE(r, g, b);
 598:.\lvgl-release-v8.3/./src/hal/../draw/../misc/lv_color.h **** }
 599:.\lvgl-release-v8.3/./src/hal/../draw/../misc/lv_color.h **** 
 600:.\lvgl-release-v8.3/./src/hal/../draw/../misc/lv_color.h **** static inline lv_color_t lv_color_hex(uint32_t c)
 601:.\lvgl-release-v8.3/./src/hal/../draw/../misc/lv_color.h **** {
 602:.\lvgl-release-v8.3/./src/hal/../draw/../misc/lv_color.h **** #if LV_COLOR_DEPTH == 16
 603:.\lvgl-release-v8.3/./src/hal/../draw/../misc/lv_color.h ****     lv_color_t r;
 604:.\lvgl-release-v8.3/./src/hal/../draw/../misc/lv_color.h **** #if LV_COLOR_16_SWAP == 0
 605:.\lvgl-release-v8.3/./src/hal/../draw/../misc/lv_color.h ****     /* Convert a 4 bytes per pixel in format ARGB32 to R5G6B5 format
 606:.\lvgl-release-v8.3/./src/hal/../draw/../misc/lv_color.h ****         naive way (by calling lv_color_make with components):
 607:.\lvgl-release-v8.3/./src/hal/../draw/../misc/lv_color.h ****                     r = ((c & 0xFF0000) >> 19)
 608:.\lvgl-release-v8.3/./src/hal/../draw/../misc/lv_color.h ****                     g = ((c & 0xFF00) >> 10)
 609:.\lvgl-release-v8.3/./src/hal/../draw/../misc/lv_color.h ****                     b = ((c & 0xFF) >> 3)
 610:.\lvgl-release-v8.3/./src/hal/../draw/../misc/lv_color.h ****                     rgb565 = (r << 11) | (g << 5) | b
 611:.\lvgl-release-v8.3/./src/hal/../draw/../misc/lv_color.h ****         That's 3 mask, 5 bitshift and 2 or operations
 612:.\lvgl-release-v8.3/./src/hal/../draw/../misc/lv_color.h **** 
 613:.\lvgl-release-v8.3/./src/hal/../draw/../misc/lv_color.h ****         A bit better:
 614:.\lvgl-release-v8.3/./src/hal/../draw/../misc/lv_color.h ****                     r = ((c & 0xF80000) >> 8)
 615:.\lvgl-release-v8.3/./src/hal/../draw/../misc/lv_color.h ****                     g = ((c & 0xFC00) >> 5)
 616:.\lvgl-release-v8.3/./src/hal/../draw/../misc/lv_color.h ****                     b = ((c & 0xFF) >> 3)
 617:.\lvgl-release-v8.3/./src/hal/../draw/../misc/lv_color.h ****                     rgb565 = r | g | b
 618:.\lvgl-release-v8.3/./src/hal/../draw/../misc/lv_color.h ****         That's 3 mask, 3 bitshifts and 2 or operations */
 619:.\lvgl-release-v8.3/./src/hal/../draw/../misc/lv_color.h ****     r.full = (uint16_t)(((c & 0xF80000) >> 8) | ((c & 0xFC00) >> 5) | ((c & 0xFF) >> 3));
 620:.\lvgl-release-v8.3/./src/hal/../draw/../misc/lv_color.h **** #else
 621:.\lvgl-release-v8.3/./src/hal/../draw/../misc/lv_color.h ****     /* We want: rrrr rrrr GGGg gggg bbbb bbbb => gggb bbbb rrrr rGGG */
 622:.\lvgl-release-v8.3/./src/hal/../draw/../misc/lv_color.h ****     r.full = (uint16_t)(((c & 0xF80000) >> 16) | ((c & 0xFC00) >> 13) | ((c & 0x1C00) << 3) | ((c &
 623:.\lvgl-release-v8.3/./src/hal/../draw/../misc/lv_color.h **** #endif
 624:.\lvgl-release-v8.3/./src/hal/../draw/../misc/lv_color.h ****     return r;
 625:.\lvgl-release-v8.3/./src/hal/../draw/../misc/lv_color.h **** #elif LV_COLOR_DEPTH == 32
 626:.\lvgl-release-v8.3/./src/hal/../draw/../misc/lv_color.h ****     lv_color_t r;
 627:.\lvgl-release-v8.3/./src/hal/../draw/../misc/lv_color.h ****     r.full = c | 0xFF000000;
 237              		.loc 2 627 0
ARM GAS  C:\Users\haske\AppData\Local\Temp\ccTvh5jR.s 			page 17


 238 014a 804F     		ldr	r7, .L3+36
 239              	.LVL36:
 240              	.LBE23:
 241              	.LBE22:
  49:ui\screens/ui_Temperature_screen.c ****     lv_obj_set_style_bg_color(ui_dot1Pg2, lv_color_hex(0x979797), LV_PART_MAIN | LV_STATE_DEFAULT);
 242              		.loc 1 49 0
 243 014c 0022     		movs	r2, #0
 244              	.LVL37:
 245 014e 3946     		mov	r1, r7
 246 0150 3068     		ldr	r0, [r6]
 247 0152 FFF7FEFF 		bl	lv_obj_set_style_bg_color
 248              	.LVL38:
  50:ui\screens/ui_Temperature_screen.c ****     lv_obj_set_style_bg_opa(ui_dot1Pg2, 255, LV_PART_MAIN | LV_STATE_DEFAULT);
 249              		.loc 1 50 0
 250 0156 0022     		movs	r2, #0
 251 0158 FF21     		movs	r1, #255
 252 015a 3068     		ldr	r0, [r6]
 253 015c FFF7FEFF 		bl	lv_obj_set_style_bg_opa
 254              	.LVL39:
  51:ui\screens/ui_Temperature_screen.c **** 
  52:ui\screens/ui_Temperature_screen.c ****     ui_dot2Pg2 = lv_obj_create(ui_scrollDotsPg2);
 255              		.loc 1 52 0
 256 0160 2068     		ldr	r0, [r4]
 257 0162 FFF7FEFF 		bl	lv_obj_create
 258              	.LVL40:
 259 0166 7A4E     		ldr	r6, .L3+40
 260 0168 3060     		str	r0, [r6]
  53:ui\screens/ui_Temperature_screen.c ****     lv_obj_set_width(ui_dot2Pg2, 20);
 261              		.loc 1 53 0
 262 016a 1421     		movs	r1, #20
 263 016c FFF7FEFF 		bl	lv_obj_set_width
 264              	.LVL41:
  54:ui\screens/ui_Temperature_screen.c ****     lv_obj_set_height(ui_dot2Pg2, 20);
 265              		.loc 1 54 0
 266 0170 1421     		movs	r1, #20
 267 0172 3068     		ldr	r0, [r6]
 268 0174 FFF7FEFF 		bl	lv_obj_set_height
 269              	.LVL42:
  55:ui\screens/ui_Temperature_screen.c ****     lv_obj_set_x(ui_dot2Pg2, -30);
 270              		.loc 1 55 0
 271 0178 6FF01D01 		mvn	r1, #29
 272 017c 3068     		ldr	r0, [r6]
 273 017e FFF7FEFF 		bl	lv_obj_set_x
 274              	.LVL43:
  56:ui\screens/ui_Temperature_screen.c ****     lv_obj_set_y(ui_dot2Pg2, 10);
 275              		.loc 1 56 0
 276 0182 0A21     		movs	r1, #10
 277 0184 3068     		ldr	r0, [r6]
 278 0186 FFF7FEFF 		bl	lv_obj_set_y
 279              	.LVL44:
  57:ui\screens/ui_Temperature_screen.c ****     lv_obj_set_align(ui_dot2Pg2, LV_ALIGN_BOTTOM_MID);
 280              		.loc 1 57 0
 281 018a 0521     		movs	r1, #5
 282 018c 3068     		ldr	r0, [r6]
 283 018e FFF7FEFF 		bl	lv_obj_set_align
 284              	.LVL45:
  58:ui\screens/ui_Temperature_screen.c ****     lv_obj_clear_flag(ui_dot2Pg2, LV_OBJ_FLAG_SCROLLABLE);      /// Flags
ARM GAS  C:\Users\haske\AppData\Local\Temp\ccTvh5jR.s 			page 18


 285              		.loc 1 58 0
 286 0192 1021     		movs	r1, #16
 287 0194 3068     		ldr	r0, [r6]
 288 0196 FFF7FEFF 		bl	lv_obj_clear_flag
 289              	.LVL46:
  59:ui\screens/ui_Temperature_screen.c ****     lv_obj_set_style_radius(ui_dot2Pg2, 20, LV_PART_MAIN | LV_STATE_DEFAULT);
 290              		.loc 1 59 0
 291 019a 0022     		movs	r2, #0
 292 019c 1421     		movs	r1, #20
 293 019e 3068     		ldr	r0, [r6]
 294 01a0 FFF7FEFF 		bl	lv_obj_set_style_radius
 295              	.LVL47:
  60:ui\screens/ui_Temperature_screen.c ****     lv_obj_set_style_bg_color(ui_dot2Pg2, lv_color_hex(0x383838), LV_PART_MAIN | LV_STATE_DEFAULT);
 296              		.loc 1 60 0
 297 01a4 0022     		movs	r2, #0
 298 01a6 6B49     		ldr	r1, .L3+44
 299 01a8 3068     		ldr	r0, [r6]
 300 01aa FFF7FEFF 		bl	lv_obj_set_style_bg_color
 301              	.LVL48:
  61:ui\screens/ui_Temperature_screen.c ****     lv_obj_set_style_bg_opa(ui_dot2Pg2, 255, LV_PART_MAIN | LV_STATE_DEFAULT);
 302              		.loc 1 61 0
 303 01ae 0022     		movs	r2, #0
 304 01b0 FF21     		movs	r1, #255
 305 01b2 3068     		ldr	r0, [r6]
 306 01b4 FFF7FEFF 		bl	lv_obj_set_style_bg_opa
 307              	.LVL49:
  62:ui\screens/ui_Temperature_screen.c **** 
  63:ui\screens/ui_Temperature_screen.c ****     ui_dot3Pg2 = lv_obj_create(ui_scrollDotsPg2);
 308              		.loc 1 63 0
 309 01b8 2068     		ldr	r0, [r4]
 310 01ba FFF7FEFF 		bl	lv_obj_create
 311              	.LVL50:
 312 01be 664E     		ldr	r6, .L3+48
 313 01c0 3060     		str	r0, [r6]
  64:ui\screens/ui_Temperature_screen.c ****     lv_obj_set_width(ui_dot3Pg2, 20);
 314              		.loc 1 64 0
 315 01c2 1421     		movs	r1, #20
 316 01c4 FFF7FEFF 		bl	lv_obj_set_width
 317              	.LVL51:
  65:ui\screens/ui_Temperature_screen.c ****     lv_obj_set_height(ui_dot3Pg2, 20);
 318              		.loc 1 65 0
 319 01c8 1421     		movs	r1, #20
 320 01ca 3068     		ldr	r0, [r6]
 321 01cc FFF7FEFF 		bl	lv_obj_set_height
 322              	.LVL52:
  66:ui\screens/ui_Temperature_screen.c ****     lv_obj_set_x(ui_dot3Pg2, 0);
 323              		.loc 1 66 0
 324 01d0 0021     		movs	r1, #0
 325 01d2 3068     		ldr	r0, [r6]
 326 01d4 FFF7FEFF 		bl	lv_obj_set_x
 327              	.LVL53:
  67:ui\screens/ui_Temperature_screen.c ****     lv_obj_set_y(ui_dot3Pg2, 10);
 328              		.loc 1 67 0
 329 01d8 0A21     		movs	r1, #10
 330 01da 3068     		ldr	r0, [r6]
 331 01dc FFF7FEFF 		bl	lv_obj_set_y
 332              	.LVL54:
ARM GAS  C:\Users\haske\AppData\Local\Temp\ccTvh5jR.s 			page 19


  68:ui\screens/ui_Temperature_screen.c ****     lv_obj_set_align(ui_dot3Pg2, LV_ALIGN_BOTTOM_MID);
 333              		.loc 1 68 0
 334 01e0 0521     		movs	r1, #5
 335 01e2 3068     		ldr	r0, [r6]
 336 01e4 FFF7FEFF 		bl	lv_obj_set_align
 337              	.LVL55:
  69:ui\screens/ui_Temperature_screen.c ****     lv_obj_clear_flag(ui_dot3Pg2, LV_OBJ_FLAG_SCROLLABLE);      /// Flags
 338              		.loc 1 69 0
 339 01e8 1021     		movs	r1, #16
 340 01ea 3068     		ldr	r0, [r6]
 341 01ec FFF7FEFF 		bl	lv_obj_clear_flag
 342              	.LVL56:
  70:ui\screens/ui_Temperature_screen.c ****     lv_obj_set_style_radius(ui_dot3Pg2, 20, LV_PART_MAIN | LV_STATE_DEFAULT);
 343              		.loc 1 70 0
 344 01f0 0022     		movs	r2, #0
 345 01f2 1421     		movs	r1, #20
 346 01f4 3068     		ldr	r0, [r6]
 347 01f6 FFF7FEFF 		bl	lv_obj_set_style_radius
 348              	.LVL57:
  71:ui\screens/ui_Temperature_screen.c ****     lv_obj_set_style_bg_color(ui_dot3Pg2, lv_color_hex(0x979797), LV_PART_MAIN | LV_STATE_DEFAULT);
 349              		.loc 1 71 0
 350 01fa 0022     		movs	r2, #0
 351 01fc 3946     		mov	r1, r7
 352 01fe 3068     		ldr	r0, [r6]
 353 0200 FFF7FEFF 		bl	lv_obj_set_style_bg_color
 354              	.LVL58:
  72:ui\screens/ui_Temperature_screen.c ****     lv_obj_set_style_bg_opa(ui_dot3Pg2, 255, LV_PART_MAIN | LV_STATE_DEFAULT);
 355              		.loc 1 72 0
 356 0204 0022     		movs	r2, #0
 357 0206 FF21     		movs	r1, #255
 358 0208 3068     		ldr	r0, [r6]
 359 020a FFF7FEFF 		bl	lv_obj_set_style_bg_opa
 360              	.LVL59:
  73:ui\screens/ui_Temperature_screen.c **** 
  74:ui\screens/ui_Temperature_screen.c ****     ui_dot4Pg2 = lv_obj_create(ui_scrollDotsPg2);
 361              		.loc 1 74 0
 362 020e 2068     		ldr	r0, [r4]
 363 0210 FFF7FEFF 		bl	lv_obj_create
 364              	.LVL60:
 365 0214 514E     		ldr	r6, .L3+52
 366 0216 3060     		str	r0, [r6]
  75:ui\screens/ui_Temperature_screen.c ****     lv_obj_set_width(ui_dot4Pg2, 20);
 367              		.loc 1 75 0
 368 0218 1421     		movs	r1, #20
 369 021a FFF7FEFF 		bl	lv_obj_set_width
 370              	.LVL61:
  76:ui\screens/ui_Temperature_screen.c ****     lv_obj_set_height(ui_dot4Pg2, 20);
 371              		.loc 1 76 0
 372 021e 1421     		movs	r1, #20
 373 0220 3068     		ldr	r0, [r6]
 374 0222 FFF7FEFF 		bl	lv_obj_set_height
 375              	.LVL62:
  77:ui\screens/ui_Temperature_screen.c ****     lv_obj_set_x(ui_dot4Pg2, 30);
 376              		.loc 1 77 0
 377 0226 1E21     		movs	r1, #30
 378 0228 3068     		ldr	r0, [r6]
 379 022a FFF7FEFF 		bl	lv_obj_set_x
ARM GAS  C:\Users\haske\AppData\Local\Temp\ccTvh5jR.s 			page 20


 380              	.LVL63:
  78:ui\screens/ui_Temperature_screen.c ****     lv_obj_set_y(ui_dot4Pg2, 10);
 381              		.loc 1 78 0
 382 022e 0A21     		movs	r1, #10
 383 0230 3068     		ldr	r0, [r6]
 384 0232 FFF7FEFF 		bl	lv_obj_set_y
 385              	.LVL64:
  79:ui\screens/ui_Temperature_screen.c ****     lv_obj_set_align(ui_dot4Pg2, LV_ALIGN_BOTTOM_MID);
 386              		.loc 1 79 0
 387 0236 0521     		movs	r1, #5
 388 0238 3068     		ldr	r0, [r6]
 389 023a FFF7FEFF 		bl	lv_obj_set_align
 390              	.LVL65:
  80:ui\screens/ui_Temperature_screen.c ****     lv_obj_clear_flag(ui_dot4Pg2, LV_OBJ_FLAG_SCROLLABLE);      /// Flags
 391              		.loc 1 80 0
 392 023e 1021     		movs	r1, #16
 393 0240 3068     		ldr	r0, [r6]
 394 0242 FFF7FEFF 		bl	lv_obj_clear_flag
 395              	.LVL66:
  81:ui\screens/ui_Temperature_screen.c ****     lv_obj_set_style_radius(ui_dot4Pg2, 20, LV_PART_MAIN | LV_STATE_DEFAULT);
 396              		.loc 1 81 0
 397 0246 0022     		movs	r2, #0
 398 0248 1421     		movs	r1, #20
 399 024a 3068     		ldr	r0, [r6]
 400 024c FFF7FEFF 		bl	lv_obj_set_style_radius
 401              	.LVL67:
  82:ui\screens/ui_Temperature_screen.c ****     lv_obj_set_style_bg_color(ui_dot4Pg2, lv_color_hex(0x979797), LV_PART_MAIN | LV_STATE_DEFAULT);
 402              		.loc 1 82 0
 403 0250 0022     		movs	r2, #0
 404 0252 3946     		mov	r1, r7
 405 0254 3068     		ldr	r0, [r6]
 406 0256 FFF7FEFF 		bl	lv_obj_set_style_bg_color
 407              	.LVL68:
  83:ui\screens/ui_Temperature_screen.c ****     lv_obj_set_style_bg_opa(ui_dot4Pg2, 255, LV_PART_MAIN | LV_STATE_DEFAULT);
 408              		.loc 1 83 0
 409 025a 0022     		movs	r2, #0
 410 025c FF21     		movs	r1, #255
 411 025e 3068     		ldr	r0, [r6]
 412 0260 FFF7FEFF 		bl	lv_obj_set_style_bg_opa
 413              	.LVL69:
  84:ui\screens/ui_Temperature_screen.c **** 
  85:ui\screens/ui_Temperature_screen.c ****     ui_dot5Pg2 = lv_obj_create(ui_scrollDotsPg2);
 414              		.loc 1 85 0
 415 0264 2068     		ldr	r0, [r4]
 416 0266 FFF7FEFF 		bl	lv_obj_create
 417              	.LVL70:
 418 026a 3D4C     		ldr	r4, .L3+56
 419 026c 2060     		str	r0, [r4]
  86:ui\screens/ui_Temperature_screen.c ****     lv_obj_set_width(ui_dot5Pg2, 20);
 420              		.loc 1 86 0
 421 026e 1421     		movs	r1, #20
 422 0270 FFF7FEFF 		bl	lv_obj_set_width
 423              	.LVL71:
  87:ui\screens/ui_Temperature_screen.c ****     lv_obj_set_height(ui_dot5Pg2, 20);
 424              		.loc 1 87 0
 425 0274 1421     		movs	r1, #20
 426 0276 2068     		ldr	r0, [r4]
ARM GAS  C:\Users\haske\AppData\Local\Temp\ccTvh5jR.s 			page 21


 427 0278 FFF7FEFF 		bl	lv_obj_set_height
 428              	.LVL72:
  88:ui\screens/ui_Temperature_screen.c ****     lv_obj_set_x(ui_dot5Pg2, 60);
 429              		.loc 1 88 0
 430 027c 3C21     		movs	r1, #60
 431 027e 2068     		ldr	r0, [r4]
 432 0280 FFF7FEFF 		bl	lv_obj_set_x
 433              	.LVL73:
  89:ui\screens/ui_Temperature_screen.c ****     lv_obj_set_y(ui_dot5Pg2, 10);
 434              		.loc 1 89 0
 435 0284 0A21     		movs	r1, #10
 436 0286 2068     		ldr	r0, [r4]
 437 0288 FFF7FEFF 		bl	lv_obj_set_y
 438              	.LVL74:
  90:ui\screens/ui_Temperature_screen.c ****     lv_obj_set_align(ui_dot5Pg2, LV_ALIGN_BOTTOM_MID);
 439              		.loc 1 90 0
 440 028c 0521     		movs	r1, #5
 441 028e 2068     		ldr	r0, [r4]
 442 0290 FFF7FEFF 		bl	lv_obj_set_align
 443              	.LVL75:
  91:ui\screens/ui_Temperature_screen.c ****     lv_obj_clear_flag(ui_dot5Pg2, LV_OBJ_FLAG_SCROLLABLE);      /// Flags
 444              		.loc 1 91 0
 445 0294 1021     		movs	r1, #16
 446 0296 2068     		ldr	r0, [r4]
 447 0298 FFF7FEFF 		bl	lv_obj_clear_flag
 448              	.LVL76:
  92:ui\screens/ui_Temperature_screen.c ****     lv_obj_set_style_radius(ui_dot5Pg2, 20, LV_PART_MAIN | LV_STATE_DEFAULT);
 449              		.loc 1 92 0
 450 029c 0022     		movs	r2, #0
 451 029e 1421     		movs	r1, #20
 452 02a0 2068     		ldr	r0, [r4]
 453 02a2 FFF7FEFF 		bl	lv_obj_set_style_radius
 454              	.LVL77:
  93:ui\screens/ui_Temperature_screen.c ****     lv_obj_set_style_bg_color(ui_dot5Pg2, lv_color_hex(0x979797), LV_PART_MAIN | LV_STATE_DEFAULT);
 455              		.loc 1 93 0
 456 02a6 0022     		movs	r2, #0
 457 02a8 3946     		mov	r1, r7
 458 02aa 2068     		ldr	r0, [r4]
 459 02ac FFF7FEFF 		bl	lv_obj_set_style_bg_color
 460              	.LVL78:
  94:ui\screens/ui_Temperature_screen.c ****     lv_obj_set_style_bg_opa(ui_dot5Pg2, 255, LV_PART_MAIN | LV_STATE_DEFAULT);
 461              		.loc 1 94 0
 462 02b0 0022     		movs	r2, #0
 463 02b2 FF21     		movs	r1, #255
 464 02b4 2068     		ldr	r0, [r4]
 465 02b6 FFF7FEFF 		bl	lv_obj_set_style_bg_opa
 466              	.LVL79:
  95:ui\screens/ui_Temperature_screen.c **** 
  96:ui\screens/ui_Temperature_screen.c ****     ui_Temperature_slider = lv_arc_create(ui_Temperature_screen);
 467              		.loc 1 96 0
 468 02ba 2868     		ldr	r0, [r5]
 469 02bc FFF7FEFF 		bl	lv_arc_create
 470              	.LVL80:
 471 02c0 284C     		ldr	r4, .L3+60
 472 02c2 2060     		str	r0, [r4]
  97:ui\screens/ui_Temperature_screen.c ****     lv_obj_set_width(ui_Temperature_slider, 150);
 473              		.loc 1 97 0
ARM GAS  C:\Users\haske\AppData\Local\Temp\ccTvh5jR.s 			page 22


 474 02c4 9621     		movs	r1, #150
 475 02c6 FFF7FEFF 		bl	lv_obj_set_width
 476              	.LVL81:
  98:ui\screens/ui_Temperature_screen.c ****     lv_obj_set_height(ui_Temperature_slider, 150);
 477              		.loc 1 98 0
 478 02ca 9621     		movs	r1, #150
 479 02cc 2068     		ldr	r0, [r4]
 480 02ce FFF7FEFF 		bl	lv_obj_set_height
 481              	.LVL82:
  99:ui\screens/ui_Temperature_screen.c ****     lv_obj_set_align(ui_Temperature_slider, LV_ALIGN_CENTER);
 482              		.loc 1 99 0
 483 02d2 0921     		movs	r1, #9
 484 02d4 2068     		ldr	r0, [r4]
 485 02d6 FFF7FEFF 		bl	lv_obj_set_align
 486              	.LVL83:
 100:ui\screens/ui_Temperature_screen.c ****     lv_arc_set_range(ui_Temperature_slider, 0, 10);
 487              		.loc 1 100 0
 488 02da 0A22     		movs	r2, #10
 489 02dc 0021     		movs	r1, #0
 490 02de 2068     		ldr	r0, [r4]
 491 02e0 FFF7FEFF 		bl	lv_arc_set_range
 492              	.LVL84:
 101:ui\screens/ui_Temperature_screen.c ****     lv_arc_set_value(ui_Temperature_slider, 5);
 493              		.loc 1 101 0
 494 02e4 0521     		movs	r1, #5
 495 02e6 2068     		ldr	r0, [r4]
 496 02e8 FFF7FEFF 		bl	lv_arc_set_value
 497              	.LVL85:
 102:ui\screens/ui_Temperature_screen.c ****     lv_arc_set_mode(ui_Temperature_slider, LV_ARC_MODE_SYMMETRICAL);
 498              		.loc 1 102 0
 499 02ec 0121     		movs	r1, #1
 500 02ee 2068     		ldr	r0, [r4]
 501 02f0 FFF7FEFF 		bl	lv_arc_set_mode
 502              	.LVL86:
 103:ui\screens/ui_Temperature_screen.c **** 
 104:ui\screens/ui_Temperature_screen.c ****     ui_snowflake = lv_img_create(ui_Temperature_screen);
 503              		.loc 1 104 0
 504 02f4 2868     		ldr	r0, [r5]
 505 02f6 FFF7FEFF 		bl	lv_img_create
 506              	.LVL87:
 507 02fa 1B4C     		ldr	r4, .L3+64
 508 02fc 2060     		str	r0, [r4]
 105:ui\screens/ui_Temperature_screen.c ****     lv_img_set_src(ui_snowflake, &ui_img_snowflake_icon_small_png);
 509              		.loc 1 105 0
 510 02fe 1B49     		ldr	r1, .L3+68
 511 0300 FFF7FEFF 		bl	lv_img_set_src
 512              	.LVL88:
 106:ui\screens/ui_Temperature_screen.c ****     lv_obj_set_width(ui_snowflake, LV_SIZE_CONTENT);   /// 30
 513              		.loc 1 106 0
 514 0304 42F2D171 		movw	r1, #10193
 515 0308 2068     		ldr	r0, [r4]
 516 030a FFF7FEFF 		bl	lv_obj_set_width
 517              	.LVL89:
 107:ui\screens/ui_Temperature_screen.c ****     lv_obj_set_height(ui_snowflake, LV_SIZE_CONTENT);    /// 30
 518              		.loc 1 107 0
 519 030e 42F2D171 		movw	r1, #10193
 520 0312 2068     		ldr	r0, [r4]
ARM GAS  C:\Users\haske\AppData\Local\Temp\ccTvh5jR.s 			page 23


 521 0314 FFF7FEFF 		bl	lv_obj_set_height
 522              	.LVL90:
 108:ui\screens/ui_Temperature_screen.c ****     lv_obj_set_x(ui_snowflake, -50);
 523              		.loc 1 108 0
 524 0318 6FF03101 		mvn	r1, #49
 525 031c 2068     		ldr	r0, [r4]
 526 031e FFF7FEFF 		bl	lv_obj_set_x
 527              	.LVL91:
 109:ui\screens/ui_Temperature_screen.c ****     lv_obj_set_y(ui_snowflake, 80);
 528              		.loc 1 109 0
 529 0322 5021     		movs	r1, #80
 530 0324 2068     		ldr	r0, [r4]
 531 0326 23E0     		b	.L4
 532              	.L5:
 533              		.align	2
 534              	.L3:
 535 0328 00000000 		.word	ui_Temperature_screen
 536 032c 5A5A61FF 		.word	-10397094
 537 0330 EFEFEFFF 		.word	-1052689
 538 0334 00000000 		.word	ui_Temperature_label
 539 0338 00000000 		.word	.LC0
 540 033c 00000000 		.word	lv_font_montserrat_20
 541 0340 00000000 		.word	ui_scrollDotsPg2
 542 0344 FDFDFEFF 		.word	-66051
 543 0348 00000000 		.word	ui_dot1Pg2
 544 034c 979797FF 		.word	-6842473
 545 0350 00000000 		.word	ui_dot2Pg2
 546 0354 383838FF 		.word	-13092808
 547 0358 00000000 		.word	ui_dot3Pg2
 548 035c 00000000 		.word	ui_dot4Pg2
 549 0360 00000000 		.word	ui_dot5Pg2
 550 0364 00000000 		.word	ui_Temperature_slider
 551 0368 00000000 		.word	ui_snowflake
 552 036c 00000000 		.word	ui_img_snowflake_icon_small_png
 553              	.L4:
 554 0370 FFF7FEFF 		bl	lv_obj_set_y
 555              	.LVL92:
 110:ui\screens/ui_Temperature_screen.c ****     lv_obj_set_align(ui_snowflake, LV_ALIGN_CENTER);
 556              		.loc 1 110 0
 557 0374 0921     		movs	r1, #9
 558 0376 2068     		ldr	r0, [r4]
 559 0378 FFF7FEFF 		bl	lv_obj_set_align
 560              	.LVL93:
 111:ui\screens/ui_Temperature_screen.c ****     lv_obj_add_flag(ui_snowflake, LV_OBJ_FLAG_ADV_HITTEST);     /// Flags
 561              		.loc 1 111 0
 562 037c 4FF48031 		mov	r1, #65536
 563 0380 2068     		ldr	r0, [r4]
 564 0382 FFF7FEFF 		bl	lv_obj_add_flag
 565              	.LVL94:
 112:ui\screens/ui_Temperature_screen.c ****     lv_obj_clear_flag(ui_snowflake, LV_OBJ_FLAG_SCROLLABLE);      /// Flags
 566              		.loc 1 112 0
 567 0386 1021     		movs	r1, #16
 568 0388 2068     		ldr	r0, [r4]
 569 038a FFF7FEFF 		bl	lv_obj_clear_flag
 570              	.LVL95:
 113:ui\screens/ui_Temperature_screen.c **** 
 114:ui\screens/ui_Temperature_screen.c ****     ui_fire = lv_img_create(ui_Temperature_screen);
ARM GAS  C:\Users\haske\AppData\Local\Temp\ccTvh5jR.s 			page 24


 571              		.loc 1 114 0
 572 038e 2868     		ldr	r0, [r5]
 573 0390 FFF7FEFF 		bl	lv_img_create
 574              	.LVL96:
 575 0394 154C     		ldr	r4, .L6
 576 0396 2060     		str	r0, [r4]
 115:ui\screens/ui_Temperature_screen.c ****     lv_img_set_src(ui_fire, &ui_img_fire_icon_small_png);
 577              		.loc 1 115 0
 578 0398 1549     		ldr	r1, .L6+4
 579 039a FFF7FEFF 		bl	lv_img_set_src
 580              	.LVL97:
 116:ui\screens/ui_Temperature_screen.c ****     lv_obj_set_width(ui_fire, LV_SIZE_CONTENT);   /// 30
 581              		.loc 1 116 0
 582 039e 42F2D171 		movw	r1, #10193
 583 03a2 2068     		ldr	r0, [r4]
 584 03a4 FFF7FEFF 		bl	lv_obj_set_width
 585              	.LVL98:
 117:ui\screens/ui_Temperature_screen.c ****     lv_obj_set_height(ui_fire, LV_SIZE_CONTENT);    /// 30
 586              		.loc 1 117 0
 587 03a8 42F2D171 		movw	r1, #10193
 588 03ac 2068     		ldr	r0, [r4]
 589 03ae FFF7FEFF 		bl	lv_obj_set_height
 590              	.LVL99:
 118:ui\screens/ui_Temperature_screen.c ****     lv_obj_set_x(ui_fire, 50);
 591              		.loc 1 118 0
 592 03b2 3221     		movs	r1, #50
 593 03b4 2068     		ldr	r0, [r4]
 594 03b6 FFF7FEFF 		bl	lv_obj_set_x
 595              	.LVL100:
 119:ui\screens/ui_Temperature_screen.c ****     lv_obj_set_y(ui_fire, 80);
 596              		.loc 1 119 0
 597 03ba 5021     		movs	r1, #80
 598 03bc 2068     		ldr	r0, [r4]
 599 03be FFF7FEFF 		bl	lv_obj_set_y
 600              	.LVL101:
 120:ui\screens/ui_Temperature_screen.c ****     lv_obj_set_align(ui_fire, LV_ALIGN_CENTER);
 601              		.loc 1 120 0
 602 03c2 0921     		movs	r1, #9
 603 03c4 2068     		ldr	r0, [r4]
 604 03c6 FFF7FEFF 		bl	lv_obj_set_align
 605              	.LVL102:
 121:ui\screens/ui_Temperature_screen.c ****     lv_obj_add_flag(ui_fire, LV_OBJ_FLAG_ADV_HITTEST);     /// Flags
 606              		.loc 1 121 0
 607 03ca 4FF48031 		mov	r1, #65536
 608 03ce 2068     		ldr	r0, [r4]
 609 03d0 FFF7FEFF 		bl	lv_obj_add_flag
 610              	.LVL103:
 122:ui\screens/ui_Temperature_screen.c ****     lv_obj_clear_flag(ui_fire, LV_OBJ_FLAG_SCROLLABLE);      /// Flags
 611              		.loc 1 122 0
 612 03d4 1021     		movs	r1, #16
 613 03d6 2068     		ldr	r0, [r4]
 614 03d8 FFF7FEFF 		bl	lv_obj_clear_flag
 615              	.LVL104:
 123:ui\screens/ui_Temperature_screen.c **** 
 124:ui\screens/ui_Temperature_screen.c ****     lv_obj_add_event_cb(ui_Temperature_screen, ui_event_Temperature_screen, LV_EVENT_ALL, NULL);
 616              		.loc 1 124 0
 617 03dc 0023     		movs	r3, #0
ARM GAS  C:\Users\haske\AppData\Local\Temp\ccTvh5jR.s 			page 25


 618 03de 1A46     		mov	r2, r3
 619 03e0 0449     		ldr	r1, .L6+8
 620 03e2 2868     		ldr	r0, [r5]
 621 03e4 FFF7FEFF 		bl	lv_obj_add_event_cb
 622              	.LVL105:
 623 03e8 F8BD     		pop	{r3, r4, r5, r6, r7, pc}
 624              	.LVL106:
 625              	.L7:
 626 03ea 00BF     		.align	2
 627              	.L6:
 628 03ec 00000000 		.word	ui_fire
 629 03f0 00000000 		.word	ui_img_fire_icon_small_png
 630 03f4 00000000 		.word	ui_event_Temperature_screen
 631              		.cfi_endproc
 632              	.LFE202:
 633              		.size	ui_Temperature_screen_screen_init, .-ui_Temperature_screen_screen_init
 634              		.section	.rodata.str1.4,"aMS",%progbits,1
 635              		.align	2
 636              	.LC0:
 637 0000 54656D70 		.ascii	"Temperature\000"
 637      65726174 
 637      75726500 
 638              		.text
 639              	.Letext0:
 640              		.file 3 "c:\\program files (x86)\\cypress\\psoc creator\\4.4\\psoc creator\\import\\gnu\\arm\\5.4.
 641              		.file 4 "c:\\program files (x86)\\cypress\\psoc creator\\4.4\\psoc creator\\import\\gnu\\arm\\5.4.
 642              		.file 5 ".\\lvgl-release-v8.3/./src/hal/../draw/../misc/../font/../misc/lv_area.h"
 643              		.file 6 ".\\lvgl-release-v8.3/./src/hal/../draw/../misc/../font/lv_font.h"
 644              		.file 7 ".\\lvgl-release-v8.3/./src/hal/../draw/../misc/lv_style.h"
 645              		.file 8 ".\\lvgl-release-v8.3/./src/hal/../draw/lv_img_buf.h"
 646              		.file 9 ".\\lvgl-release-v8.3/./src/core/lv_obj.h"
 647              		.file 10 ".\\lvgl-release-v8.3/./src/hal/../misc/lv_ll.h"
 648              		.file 11 ".\\lvgl-release-v8.3/./src/core/lv_group.h"
 649              		.file 12 ".\\lvgl-release-v8.3/./src/core/lv_obj_scroll.h"
 650              		.file 13 ".\\lvgl-release-v8.3/./src/core/lv_obj_style.h"
 651              		.file 14 ".\\lvgl-release-v8.3/./src/core/lv_obj_class.h"
 652              		.file 15 ".\\lvgl-release-v8.3/./src/core/lv_event.h"
 653              		.file 16 ".\\lvgl-release-v8.3/./src/widgets/lv_arc.h"
 654              		.file 17 ".\\lvgl-release-v8.3/./src/extra/layouts/flex/lv_flex.h"
 655              		.file 18 ".\\lvgl-release-v8.3/./src/extra/layouts/grid/lv_grid.h"
 656              		.file 19 "ui\\screens\\../ui.h"
 657              		.file 20 ".\\lvgl-release-v8.3/./src/core/lv_obj_style_gen.h"
 658              		.file 21 ".\\lvgl-release-v8.3/./src/widgets/lv_label.h"
 659              		.file 22 ".\\lvgl-release-v8.3/./src/hal/../draw/sw/../../core/lv_obj_pos.h"
 660              		.file 23 ".\\lvgl-release-v8.3/./src/widgets/lv_img.h"