ARM GAS  C:\Users\dev\AppData\Local\Temp\ccC4nFKO.s 			page 1


   1              		.syntax unified
   2              		.cpu cortex-m4
   3              		.eabi_attribute 27, 1
   4              		.fpu fpv4-sp-d16
   5              		.eabi_attribute 20, 1
   6              		.eabi_attribute 21, 1
   7              		.eabi_attribute 23, 3
   8              		.eabi_attribute 24, 1
   9              		.eabi_attribute 25, 1
  10              		.eabi_attribute 26, 1
  11              		.eabi_attribute 30, 1
  12              		.eabi_attribute 34, 1
  13              		.eabi_attribute 18, 4
  14              		.thumb
  15              		.syntax unified
  16              		.file	"user_interface.c"
  17              		.text
  18              	.Ltext0:
  19              		.cfi_sections	.debug_frame
  20              		.section	.text.ui_timer,"ax",%progbits
  21              		.align	2
  22              		.global	ui_timer
  23              		.thumb
  24              		.thumb_func
  25              		.type	ui_timer, %function
  26              	ui_timer:
  27              	.LFB720:
  28              		.file 1 "user_interface.c"
   1:user_interface.c **** /*******************************************************************************
   2:user_interface.c **** * File Name: user_interface.c
   3:user_interface.c **** *
   4:user_interface.c **** * Version: 1.10
   5:user_interface.c **** *
   6:user_interface.c **** * Description:
   7:user_interface.c **** *  This file contains user interface related source.
   8:user_interface.c **** *
   9:user_interface.c **** * Hardware Dependency:
  10:user_interface.c **** *  CY8CKIT-062 PSoC6 BLE Pioneer Kit
  11:user_interface.c **** *  CY8CPROTO-063-BLE PSoC 6 BLE Prototyping Kit
  12:user_interface.c **** *
  13:user_interface.c **** ********************************************************************************
  14:user_interface.c **** * Copyright (2018), Cypress Semiconductor Corporation.  All rights reserved.
  15:user_interface.c **** * You may use this file only in accordance with the license, terms, conditions,
  16:user_interface.c **** * disclaimers, and limitations in the end user license agreement accompanying
  17:user_interface.c **** * the software package with which this file was provided.
  18:user_interface.c **** *******************************************************************************/
  19:user_interface.c **** 
  20:user_interface.c **** #include <project.h>
  21:user_interface.c **** #include "user_interface.h"
  22:user_interface.c **** #include "st7735.h"
  23:user_interface.c **** #include "power.h"
  24:user_interface.c **** #include <stdio.h>
  25:user_interface.c **** #include "bq24298.h"
  26:user_interface.c **** #include <stdlib.h>
  27:user_interface.c **** 
  28:user_interface.c **** static int32_t ui_timeout = 0;
  29:user_interface.c **** #define UI_TIMER_INTERVAL_MS 10
ARM GAS  C:\Users\dev\AppData\Local\Temp\ccC4nFKO.s 			page 2


  30:user_interface.c **** 
  31:user_interface.c **** static int32 tens_timeout = -1;
  32:user_interface.c **** static int32 tens_interval_ms = 0;
  33:user_interface.c **** static int32 tens_dur_us = 0;
  34:user_interface.c **** 
  35:user_interface.c **** #define UI_STATE_INIT 0
  36:user_interface.c **** #define UI_STATE_DRAW_SPLASH_SCREEN 1
  37:user_interface.c **** #define UI_STATE_SPLASH_SCREEN_DELAY 2
  38:user_interface.c **** #define UI_STATE_IDLE 10
  39:user_interface.c **** static int ui_state = 0;
  40:user_interface.c **** 
  41:user_interface.c **** #define UI_MENU_MAX 10
  42:user_interface.c **** #define UI_MENU_MAIN 0
  43:user_interface.c **** #define UI_MENU_PRESET 1
  44:user_interface.c **** #define UI_MENU_TEMP 2
  45:user_interface.c **** #define UI_MENU_VIBE_AMP 3
  46:user_interface.c **** #define UI_MENU_VIBE_FREQ 4
  47:user_interface.c **** #define UI_MENU_TENS_FREQ 5
  48:user_interface.c **** #define UI_MENU_TENS_AMP 6
  49:user_interface.c **** #define UI_MENU_TENS_DUR 7
  50:user_interface.c **** #define UI_MENU_BLUETOOTH 8
  51:user_interface.c **** #define UI_MENU_DIAG 9
  52:user_interface.c **** 
  53:user_interface.c **** static int ui_menu = 0;
  54:user_interface.c **** static int ui_menu_state = 0;
  55:user_interface.c **** static int ui_menu_item[UI_MENU_MAX] = {0};
  56:user_interface.c **** 
  57:user_interface.c **** const char* const UI_TITLES[] = {"Main Menu", "Presets Menu", "Temperature Menu", "Vibration Amplit
  58:user_interface.c **** 
  59:user_interface.c **** const char* const UI_MAIN_MENU_ITEMS[] = {"Pre-sets", "Temper-ature", "Vibe-amp", "Vibe-freq", "TEN
  60:user_interface.c **** const char* const UI_PRESETS_MENU_ITEMS[] = {"Preset-1", "Preset-2", "Preset-3", "Preset-4", "Prese
  61:user_interface.c **** const char* const UI_TEMP_MENU_ITEMS[] = {"Cold-7", "Cold-6", "Cold-5", "Cold-4", "Cold-3", "Cold-2
  62:user_interface.c **** const char* const UI_VIBE_AMP_MENU_ITEMS[] = {"Off", "Amp-1", "Amp-2", "Amp-3", "Amp-4", "Amp-5", "
  63:user_interface.c **** const char* const UI_VIBE_FREQ_MENU_ITEMS[] = {"Freq-1", "Freq-2", "Freq-3", "Freq-4", "Freq-5", "F
  64:user_interface.c **** const char* const UI_TENS_FREQ_MENU_ITEMS[] = {"1 Hz", "2 Hz", "3 Hz", "4 Hz", "5 Hz", "6 Hz", "7 H
  65:user_interface.c **** const char* const UI_TENS_AMP_MENU_ITEMS[] = {"Off", "Amp-1", "Amp-2", "Amp-3", "Amp-4", "Amp-5", "
  66:user_interface.c **** const char* const UI_TENS_DUR_MENU_ITEMS[] = {"300", "400", "500", "600", "700", "800", "900", "100
  67:user_interface.c **** const char* const UI_BLUETOOTH_MENU_ITEMS[] = {"Pair"};
  68:user_interface.c **** const char* const UI_DIAG_MENU_ITEMS[] = {""};
  69:user_interface.c **** 
  70:user_interface.c **** 
  71:user_interface.c **** 
  72:user_interface.c **** const int UI_MENU_ITEMS_INIT[UI_MENU_MAX] = {1,             1,  0,  0,  1,  1,  0,  1,  0, 0};
  73:user_interface.c **** const int UI_MENU_ITEMS_MAX[UI_MENU_MAX] =  {UI_MENU_MAX-1, 10, 7,  10, 10, 10, 10, 10, 0, 0}; 
  74:user_interface.c **** const int UI_MENU_ITEMS_MIN[UI_MENU_MAX] =  {1,             1,  -7, 0,  1,  1,  0,  1,  0, 0};
  75:user_interface.c **** 
  76:user_interface.c **** static int btn_state[UI_NUM_BUTTONS] = {0};
  77:user_interface.c **** static int btn_events[UI_NUM_BUTTONS] = {0};
  78:user_interface.c **** static int btn_timeout[UI_NUM_BUTTONS] = {0};
  79:user_interface.c **** 
  80:user_interface.c **** static int vibe_freq = 0;
  81:user_interface.c **** static int vibe_amp = 0;
  82:user_interface.c **** static int vibe_timeout = 0;
  83:user_interface.c **** //static int vibe_on_time = 0;
  84:user_interface.c **** static int vibe_state = 0;
  85:user_interface.c **** #define VIBE_PERIOD_MS 100 
  86:user_interface.c **** 
ARM GAS  C:\Users\dev\AppData\Local\Temp\ccC4nFKO.s 			page 3


  87:user_interface.c **** 
  88:user_interface.c **** 
  89:user_interface.c **** 
  90:user_interface.c **** /*******************************************************************************
  91:user_interface.c **** * Function Name: void ui_timer()
  92:user_interface.c **** ********************************************************************************
  93:user_interface.c **** *
  94:user_interface.c **** * Summary:
  95:user_interface.c **** *   user interface timer called every 100ms right now
  96:user_interface.c **** *
  97:user_interface.c **** *******************************************************************************/
  98:user_interface.c **** void ui_timer( void ) {
  29              		.loc 1 98 0
  30              		.cfi_startproc
  31              		@ args = 0, pretend = 0, frame = 0
  32              		@ frame_needed = 0, uses_anonymous_args = 0
  33              		@ link register save eliminated.
  99:user_interface.c ****     int i;
 100:user_interface.c ****     
 101:user_interface.c ****     if (tens_timeout > 0) {
  34              		.loc 1 101 0
  35 0000 1C4B     		ldr	r3, .L8
  36 0002 1B68     		ldr	r3, [r3]
  37 0004 002B     		cmp	r3, #0
  38 0006 07DD     		ble	.L2
 102:user_interface.c ****         tens_timeout -= UI_TIMER_INTERVAL_MS;
  39              		.loc 1 102 0
  40 0008 0A3B     		subs	r3, r3, #10
  41 000a 1A4A     		ldr	r2, .L8
  42 000c 1360     		str	r3, [r2]
 103:user_interface.c ****         
 104:user_interface.c ****         if (tens_timeout < 0) {
  43              		.loc 1 104 0
  44 000e 002B     		cmp	r3, #0
  45 0010 02DA     		bge	.L2
 105:user_interface.c ****             tens_timeout = 0;
  46              		.loc 1 105 0
  47 0012 0022     		movs	r2, #0
  48 0014 174B     		ldr	r3, .L8
  49 0016 1A60     		str	r2, [r3]
  50              	.L2:
 106:user_interface.c ****         }
 107:user_interface.c ****     }
 108:user_interface.c ****     
 109:user_interface.c ****     if (ui_timeout > 0) {
  51              		.loc 1 109 0
  52 0018 174B     		ldr	r3, .L8+4
  53 001a 1B68     		ldr	r3, [r3]
  54 001c 002B     		cmp	r3, #0
  55 001e 07DD     		ble	.L3
 110:user_interface.c ****         ui_timeout -= UI_TIMER_INTERVAL_MS;
  56              		.loc 1 110 0
  57 0020 0A3B     		subs	r3, r3, #10
  58 0022 154A     		ldr	r2, .L8+4
  59 0024 1360     		str	r3, [r2]
 111:user_interface.c ****         
 112:user_interface.c ****         if (ui_timeout < 0) {
ARM GAS  C:\Users\dev\AppData\Local\Temp\ccC4nFKO.s 			page 4


  60              		.loc 1 112 0
  61 0026 002B     		cmp	r3, #0
  62 0028 02DA     		bge	.L3
 113:user_interface.c ****             ui_timeout = 0;
  63              		.loc 1 113 0
  64 002a 0022     		movs	r2, #0
  65 002c 124B     		ldr	r3, .L8+4
  66 002e 1A60     		str	r2, [r3]
  67              	.L3:
  98:user_interface.c ****     int i;
  68              		.loc 1 98 0 discriminator 1
  69 0030 0023     		movs	r3, #0
  70 0032 10E0     		b	.L4
  71              	.LVL0:
  72              	.L6:
 114:user_interface.c ****         }
 115:user_interface.c ****     }
 116:user_interface.c ****     
 117:user_interface.c ****     for (i=0;i<UI_NUM_BUTTONS;i++) {
 118:user_interface.c ****         if (btn_timeout[i] > 0) {
  73              		.loc 1 118 0
  74 0034 104A     		ldr	r2, .L8+4
  75 0036 02EB8302 		add	r2, r2, r3, lsl #2
  76 003a 5268     		ldr	r2, [r2, #4]
  77 003c 002A     		cmp	r2, #0
  78 003e 09DD     		ble	.L5
 119:user_interface.c ****             btn_timeout[i] -= UI_TIMER_INTERVAL_MS;
  79              		.loc 1 119 0
  80 0040 0A3A     		subs	r2, r2, #10
  81 0042 0D49     		ldr	r1, .L8+4
  82 0044 01EB8301 		add	r1, r1, r3, lsl #2
  83 0048 4A60     		str	r2, [r1, #4]
 120:user_interface.c ****             
 121:user_interface.c ****             if (btn_timeout[i] < 0) {
  84              		.loc 1 121 0
  85 004a 002A     		cmp	r2, #0
  86 004c 02DA     		bge	.L5
 122:user_interface.c ****                 btn_timeout[i] = 0;
  87              		.loc 1 122 0
  88 004e 0A46     		mov	r2, r1
  89 0050 0021     		movs	r1, #0
  90 0052 5160     		str	r1, [r2, #4]
  91              	.L5:
 117:user_interface.c ****         if (btn_timeout[i] > 0) {
  92              		.loc 1 117 0 discriminator 2
  93 0054 0133     		adds	r3, r3, #1
  94              	.LVL1:
  95              	.L4:
 117:user_interface.c ****         if (btn_timeout[i] > 0) {
  96              		.loc 1 117 0 is_stmt 0 discriminator 1
  97 0056 022B     		cmp	r3, #2
  98 0058 ECDD     		ble	.L6
 123:user_interface.c ****             }
 124:user_interface.c ****         }
 125:user_interface.c ****     }
 126:user_interface.c ****     
 127:user_interface.c ****     
ARM GAS  C:\Users\dev\AppData\Local\Temp\ccC4nFKO.s 			page 5


 128:user_interface.c ****     if (vibe_timeout > 0) {
  99              		.loc 1 128 0 is_stmt 1
 100 005a 074B     		ldr	r3, .L8+4
 101              	.LVL2:
 102 005c 1B69     		ldr	r3, [r3, #16]
 103 005e 002B     		cmp	r3, #0
 104 0060 07DD     		ble	.L1
 129:user_interface.c ****         vibe_timeout -= UI_TIMER_INTERVAL_MS;
 105              		.loc 1 129 0
 106 0062 0A3B     		subs	r3, r3, #10
 107 0064 044A     		ldr	r2, .L8+4
 108 0066 1361     		str	r3, [r2, #16]
 130:user_interface.c ****         
 131:user_interface.c ****         if (vibe_timeout < 0) {
 109              		.loc 1 131 0
 110 0068 002B     		cmp	r3, #0
 111 006a 02DA     		bge	.L1
 132:user_interface.c ****             vibe_timeout = 0;
 112              		.loc 1 132 0
 113 006c 0022     		movs	r2, #0
 114 006e 024B     		ldr	r3, .L8+4
 115 0070 1A61     		str	r2, [r3, #16]
 116              	.L1:
 117 0072 7047     		bx	lr
 118              	.L9:
 119              		.align	2
 120              	.L8:
 121 0074 00000000 		.word	.LANCHOR0
 122 0078 00000000 		.word	.LANCHOR1
 123              		.cfi_endproc
 124              	.LFE720:
 125              		.size	ui_timer, .-ui_timer
 126              		.section	.text.ui_draw_splash_screen,"ax",%progbits
 127              		.align	2
 128              		.global	ui_draw_splash_screen
 129              		.thumb
 130              		.thumb_func
 131              		.type	ui_draw_splash_screen, %function
 132              	ui_draw_splash_screen:
 133              	.LFB721:
 133:user_interface.c ****         }
 134:user_interface.c ****     }
 135:user_interface.c ****     
 136:user_interface.c **** }
 137:user_interface.c **** 
 138:user_interface.c **** 
 139:user_interface.c **** /*******************************************************************************
 140:user_interface.c **** * Function Name: void ui_draw_splash_screen()
 141:user_interface.c **** ********************************************************************************
 142:user_interface.c **** *
 143:user_interface.c **** * Summary:
 144:user_interface.c **** *   Draws splash screen
 145:user_interface.c **** *
 146:user_interface.c **** *******************************************************************************/
 147:user_interface.c **** void ui_draw_splash_screen( void ) {
 134              		.loc 1 147 0
 135              		.cfi_startproc
ARM GAS  C:\Users\dev\AppData\Local\Temp\ccC4nFKO.s 			page 6


 136              		@ args = 0, pretend = 0, frame = 0
 137              		@ frame_needed = 0, uses_anonymous_args = 0
 138              		@ link register save eliminated.
 139 0000 7047     		bx	lr
 140              		.cfi_endproc
 141              	.LFE721:
 142              		.size	ui_draw_splash_screen, .-ui_draw_splash_screen
 143 0002 00BF     		.section	.text.ui_draw_title,"ax",%progbits
 144              		.align	2
 145              		.global	ui_draw_title
 146              		.thumb
 147              		.thumb_func
 148              		.type	ui_draw_title, %function
 149              	ui_draw_title:
 150              	.LFB722:
 148:user_interface.c ****     //ST7735_SetPosition (53, 23);  
 149:user_interface.c ****     //ST7735_DrawString ("PAIN DRAIN", BLUE, X2);
 150:user_interface.c ****     //ST7735_SetPosition (47, 41);  
 151:user_interface.c ****     //ST7735_DrawString ("SPLASH SCREEN", BLUE, X2);
 152:user_interface.c ****     //ST7735_RAM_Content_Show();
 153:user_interface.c **** }
 154:user_interface.c **** 
 155:user_interface.c **** /*******************************************************************************
 156:user_interface.c **** * Function Name: void ui_draw_title()
 157:user_interface.c **** ********************************************************************************
 158:user_interface.c **** *
 159:user_interface.c **** * Summary:
 160:user_interface.c **** *   Draws title
 161:user_interface.c **** *
 162:user_interface.c **** *******************************************************************************/
 163:user_interface.c **** void ui_draw_title(char text[]) {
 151              		.loc 1 163 0
 152              		.cfi_startproc
 153              		@ args = 0, pretend = 0, frame = 0
 154              		@ frame_needed = 0, uses_anonymous_args = 0
 155              		@ link register save eliminated.
 156              	.LVL3:
 157 0000 7047     		bx	lr
 158              		.cfi_endproc
 159              	.LFE722:
 160              		.size	ui_draw_title, .-ui_draw_title
 161 0002 00BF     		.section	.text.ui_draw_buttons,"ax",%progbits
 162              		.align	2
 163              		.global	ui_draw_buttons
 164              		.thumb
 165              		.thumb_func
 166              		.type	ui_draw_buttons, %function
 167              	ui_draw_buttons:
 168              	.LFB723:
 164:user_interface.c ****     //ST7735_DrawRectangle (1, 1+UI_TITLE_WIDTH, 1, 1+UI_TITLE_HEIGHT, UI_COLOR_BACKGROUND);
 165:user_interface.c ****     //ST7735_SetPosition (1, 1);  
 166:user_interface.c ****     //ST7735_DrawString (text, UI_COLOR_TITLE_TEXT, X2);
 167:user_interface.c **** }
 168:user_interface.c **** 
 169:user_interface.c **** /*******************************************************************************
 170:user_interface.c **** * Function Name: void ui_draw_buttons()
 171:user_interface.c **** ********************************************************************************
ARM GAS  C:\Users\dev\AppData\Local\Temp\ccC4nFKO.s 			page 7


 172:user_interface.c **** *
 173:user_interface.c **** * Summary:
 174:user_interface.c **** *   Draws buttons
 175:user_interface.c **** *
 176:user_interface.c **** *******************************************************************************/
 177:user_interface.c **** void ui_draw_buttons(char left[], char center[], char right[] ) {
 169              		.loc 1 177 0
 170              		.cfi_startproc
 171              		@ args = 0, pretend = 0, frame = 0
 172              		@ frame_needed = 0, uses_anonymous_args = 0
 173              		@ link register save eliminated.
 174              	.LVL4:
 175 0000 7047     		bx	lr
 176              		.cfi_endproc
 177              	.LFE723:
 178              		.size	ui_draw_buttons, .-ui_draw_buttons
 179 0002 00BF     		.section	.text.ui_draw_select_window,"ax",%progbits
 180              		.align	2
 181              		.global	ui_draw_select_window
 182              		.thumb
 183              		.thumb_func
 184              		.type	ui_draw_select_window, %function
 185              	ui_draw_select_window:
 186              	.LFB724:
 178:user_interface.c ****     
 179:user_interface.c ****     //Draw Left Button
 180:user_interface.c ****     //ST7735_DrawRectangle (UI_LEFT_BUTTON_X, UI_LEFT_BUTTON_X+UI_BUTTON_WIDTH, UI_BUTTON_Y, UI_BUT
 181:user_interface.c ****     //ST7735_SetPosition (UI_LEFT_BUTTON_X+(UI_BUTTON_WIDTH-(CHARS_COLS_LEN+1)*strlen(left))/2, UI_
 182:user_interface.c ****     //ST7735_DrawString (left, UI_COLOR_BUTTON_TEXT, X2);
 183:user_interface.c ****     
 184:user_interface.c ****     //Draw Center Button
 185:user_interface.c ****     //ST7735_DrawRectangle (UI_CENTER_BUTTON_X, UI_CENTER_BUTTON_X+UI_BUTTON_WIDTH, UI_BUTTON_Y, UI
 186:user_interface.c ****     //ST7735_SetPosition (UI_CENTER_BUTTON_X+(UI_BUTTON_WIDTH-(CHARS_COLS_LEN+1)*strlen(center))/2,
 187:user_interface.c ****     //ST7735_DrawString (center, UI_COLOR_BUTTON_TEXT, X2);
 188:user_interface.c ****     
 189:user_interface.c ****     //Draw Right Button
 190:user_interface.c ****     //ST7735_DrawRectangle (UI_RIGHT_BUTTON_X, UI_RIGHT_BUTTON_X+UI_BUTTON_WIDTH, UI_BUTTON_Y, UI_B
 191:user_interface.c ****     //ST7735_SetPosition (UI_RIGHT_BUTTON_X+(UI_BUTTON_WIDTH-(CHARS_COLS_LEN+1)*strlen(right))/2, U
 192:user_interface.c ****     //ST7735_DrawString (right, UI_COLOR_BUTTON_TEXT, X2);
 193:user_interface.c **** }
 194:user_interface.c **** 
 195:user_interface.c **** /*******************************************************************************
 196:user_interface.c **** * Function Name: void ui_draw_select_window()
 197:user_interface.c **** ********************************************************************************
 198:user_interface.c **** *
 199:user_interface.c **** * Summary:
 200:user_interface.c **** *   Select window
 201:user_interface.c **** *
 202:user_interface.c **** *******************************************************************************/
 203:user_interface.c **** void ui_draw_select_window( void ) {
 187              		.loc 1 203 0
 188              		.cfi_startproc
 189              		@ args = 0, pretend = 0, frame = 0
 190              		@ frame_needed = 0, uses_anonymous_args = 0
 191              		@ link register save eliminated.
 192 0000 7047     		bx	lr
 193              		.cfi_endproc
ARM GAS  C:\Users\dev\AppData\Local\Temp\ccC4nFKO.s 			page 8


 194              	.LFE724:
 195              		.size	ui_draw_select_window, .-ui_draw_select_window
 196 0002 00BF     		.section	.text.ui_clear_icon,"ax",%progbits
 197              		.align	2
 198              		.global	ui_clear_icon
 199              		.thumb
 200              		.thumb_func
 201              		.type	ui_clear_icon, %function
 202              	ui_clear_icon:
 203              	.LFB725:
 204:user_interface.c ****     
 205:user_interface.c ****     //ST7735_DrawLine((UI_SCREEN_WIDTH-UI_SELECT_WINDOW_WIDTH)/2,     (UI_SCREEN_WIDTH-UI_SELECT_WI
 206:user_interface.c ****     //ST7735_DrawLine((UI_SCREEN_WIDTH-UI_SELECT_WINDOW_WIDTH)/2+1,   (UI_SCREEN_WIDTH-UI_SELECT_WI
 207:user_interface.c ****     //ST7735_DrawLine((UI_SCREEN_WIDTH-UI_SELECT_WINDOW_WIDTH)/2,     (UI_SCREEN_WIDTH-UI_SELECT_WI
 208:user_interface.c ****     //ST7735_DrawLine((UI_SCREEN_WIDTH-UI_SELECT_WINDOW_WIDTH)/2+1,   (UI_SCREEN_WIDTH-UI_SELECT_WI
 209:user_interface.c **** 
 210:user_interface.c ****     //ST7735_DrawLine((UI_SCREEN_WIDTH-UI_SELECT_WINDOW_WIDTH)/2,     (UI_SCREEN_WIDTH-UI_SELECT_WI
 211:user_interface.c ****     //ST7735_DrawLine((UI_SCREEN_WIDTH-UI_SELECT_WINDOW_WIDTH)/2+1,   (UI_SCREEN_WIDTH-UI_SELECT_WI
 212:user_interface.c ****     //ST7735_DrawLine((UI_SCREEN_WIDTH-UI_SELECT_WINDOW_WIDTH)/2+UI_SELECT_WINDOW_WIDTH,     (UI_SC
 213:user_interface.c ****     //ST7735_DrawLine((UI_SCREEN_WIDTH-UI_SELECT_WINDOW_WIDTH)/2+UI_SELECT_WINDOW_WIDTH-1,   (UI_SC
 214:user_interface.c **** 
 215:user_interface.c ****  
 216:user_interface.c **** }
 217:user_interface.c **** 
 218:user_interface.c **** /*******************************************************************************
 219:user_interface.c **** * Function Name: void ui_clear_icon()
 220:user_interface.c **** ********************************************************************************
 221:user_interface.c **** *
 222:user_interface.c **** * Summary:
 223:user_interface.c **** *   Clears icon area
 224:user_interface.c **** *
 225:user_interface.c **** *******************************************************************************/
 226:user_interface.c **** void ui_clear_icon(int loc) {
 204              		.loc 1 226 0
 205              		.cfi_startproc
 206              		@ args = 0, pretend = 0, frame = 0
 207              		@ frame_needed = 0, uses_anonymous_args = 0
 208              		@ link register save eliminated.
 209              	.LVL5:
 210 0000 7047     		bx	lr
 211              		.cfi_endproc
 212              	.LFE725:
 213              		.size	ui_clear_icon, .-ui_clear_icon
 214 0002 00BF     		.section	.text.ui_draw_icon_text,"ax",%progbits
 215              		.align	2
 216              		.global	ui_draw_icon_text
 217              		.thumb
 218              		.thumb_func
 219              		.type	ui_draw_icon_text, %function
 220              	ui_draw_icon_text:
 221              	.LFB726:
 227:user_interface.c ****    //ST7735_DrawRectangle (loc+2, loc+UI_SELECT_WINDOW_WIDTH-4, (UI_SCREEN_HEIGHT-UI_SELECT_WINDOW_
 228:user_interface.c **** }
 229:user_interface.c **** 
 230:user_interface.c **** /*******************************************************************************
 231:user_interface.c **** * Function Name: void ui_draw_icon_text()
 232:user_interface.c **** ********************************************************************************
ARM GAS  C:\Users\dev\AppData\Local\Temp\ccC4nFKO.s 			page 9


 233:user_interface.c **** *
 234:user_interface.c **** * Summary:
 235:user_interface.c **** *   Draws icon text
 236:user_interface.c **** *
 237:user_interface.c **** *******************************************************************************/
 238:user_interface.c **** void ui_draw_icon_text(int loc, char text[]) {
 222              		.loc 1 238 0
 223              		.cfi_startproc
 224              		@ args = 0, pretend = 0, frame = 16
 225              		@ frame_needed = 0, uses_anonymous_args = 0
 226              	.LVL6:
 227              		.loc 1 238 0
 228 0000 10B5     		push	{r4, lr}
 229              		.cfi_def_cfa_offset 8
 230              		.cfi_offset 4, -8
 231              		.cfi_offset 14, -4
 232 0002 84B0     		sub	sp, sp, #16
 233              		.cfi_def_cfa_offset 24
 239:user_interface.c ****     char s[10];
 240:user_interface.c ****     strcpy(s, text);
 234              		.loc 1 240 0
 235 0004 01A8     		add	r0, sp, #4
 236              	.LVL7:
 237 0006 FFF7FEFF 		bl	strcpy
 238              	.LVL8:
 241:user_interface.c ****     char* top = strtok(s, "-");
 239              		.loc 1 241 0
 240 000a 054C     		ldr	r4, .L17
 241 000c 2146     		mov	r1, r4
 242 000e 01A8     		add	r0, sp, #4
 243 0010 FFF7FEFF 		bl	strtok
 244              	.LVL9:
 242:user_interface.c ****     char* bot = strtok(NULL, "-");
 245              		.loc 1 242 0
 246 0014 2146     		mov	r1, r4
 247 0016 0020     		movs	r0, #0
 248 0018 FFF7FEFF 		bl	strtok
 249              	.LVL10:
 243:user_interface.c ****     
 244:user_interface.c ****     //ST7735_SetPosition (loc+(UI_SELECT_WINDOW_WIDTH-(CHARS_COLS_LEN+1)*strlen(top) )/2, (UI_SCREE
 245:user_interface.c ****     //ST7735_DrawString (top, UI_COLOR_ICON_TEXT, X2);
 246:user_interface.c ****     //ST7735_SetPosition (loc+(UI_SELECT_WINDOW_WIDTH-(CHARS_COLS_LEN+1)*strlen(bot) )/2, (UI_SCREE
 247:user_interface.c ****     //ST7735_DrawString (bot, UI_COLOR_ICON_TEXT, X2); 
 248:user_interface.c **** }
 250              		.loc 1 248 0
 251 001c 04B0     		add	sp, sp, #16
 252              		.cfi_def_cfa_offset 8
 253              		@ sp needed
 254 001e 10BD     		pop	{r4, pc}
 255              	.L18:
 256              		.align	2
 257              	.L17:
 258 0020 00000000 		.word	.LC0
 259              		.cfi_endproc
 260              	.LFE726:
 261              		.size	ui_draw_icon_text, .-ui_draw_icon_text
 262              		.section	.text.ui_draw_icons,"ax",%progbits
ARM GAS  C:\Users\dev\AppData\Local\Temp\ccC4nFKO.s 			page 10


 263              		.align	2
 264              		.global	ui_draw_icons
 265              		.thumb
 266              		.thumb_func
 267              		.type	ui_draw_icons, %function
 268              	ui_draw_icons:
 269              	.LFB727:
 249:user_interface.c **** 
 250:user_interface.c **** 
 251:user_interface.c **** 
 252:user_interface.c **** /*******************************************************************************
 253:user_interface.c **** * Function Name: void ui_draw_icons()
 254:user_interface.c **** ********************************************************************************
 255:user_interface.c **** *
 256:user_interface.c **** * Summary:
 257:user_interface.c **** *   Draws an icon
 258:user_interface.c **** *
 259:user_interface.c **** *******************************************************************************/
 260:user_interface.c **** void ui_draw_icons (int menu, int loc, int item) {
 270              		.loc 1 260 0
 271              		.cfi_startproc
 272              		@ args = 0, pretend = 0, frame = 0
 273              		@ frame_needed = 0, uses_anonymous_args = 0
 274              	.LVL11:
 275 0000 38B5     		push	{r3, r4, r5, lr}
 276              		.cfi_def_cfa_offset 16
 277              		.cfi_offset 3, -16
 278              		.cfi_offset 4, -12
 279              		.cfi_offset 5, -8
 280              		.cfi_offset 14, -4
 261:user_interface.c ****     ui_clear_icon(loc);  
 262:user_interface.c ****     if (item < UI_MENU_ITEMS_MIN[menu]) return;
 281              		.loc 1 262 0
 282 0002 364B     		ldr	r3, .L33
 283 0004 53F82040 		ldr	r4, [r3, r0, lsl #2]
 284 0008 9442     		cmp	r4, r2
 285 000a 65DC     		bgt	.L19
 263:user_interface.c ****     if (item > UI_MENU_ITEMS_MAX[menu]) return;
 286              		.loc 1 263 0
 287 000c 03EB8003 		add	r3, r3, r0, lsl #2
 288 0010 9B6A     		ldr	r3, [r3, #40]
 289 0012 9A42     		cmp	r2, r3
 290 0014 60DC     		bgt	.L19
 291 0016 0D46     		mov	r5, r1
 264:user_interface.c ****     
 265:user_interface.c ****     switch (menu) {
 292              		.loc 1 265 0
 293 0018 0928     		cmp	r0, #9
 294 001a 5DD8     		bhi	.L19
 295 001c DFE800F0 		tbb	[pc, r0]
 296              	.LVL12:
 297              	.L22:
 298 0020 05       		.byte	(.L21-.L22)/2
 299 0021 0E       		.byte	(.L23-.L22)/2
 300 0022 17       		.byte	(.L24-.L22)/2
 301 0023 21       		.byte	(.L25-.L22)/2
 302 0024 2B       		.byte	(.L26-.L22)/2
ARM GAS  C:\Users\dev\AppData\Local\Temp\ccC4nFKO.s 			page 11


 303 0025 35       		.byte	(.L27-.L22)/2
 304 0026 3F       		.byte	(.L28-.L22)/2
 305 0027 49       		.byte	(.L29-.L22)/2
 306 0028 53       		.byte	(.L30-.L22)/2
 307 0029 58       		.byte	(.L31-.L22)/2
 308              		.p2align 1
 309              	.L21:
 266:user_interface.c ****         default: break;
 267:user_interface.c ****         case UI_MENU_MAIN:          ui_draw_icon_text(loc, (char*) UI_MAIN_MENU_ITEMS[item-UI_MENU_
 310              		.loc 1 267 0
 311 002a 121B     		subs	r2, r2, r4
 312              	.LVL13:
 313 002c 2B4B     		ldr	r3, .L33
 314 002e 03EB8202 		add	r2, r3, r2, lsl #2
 315 0032 116D     		ldr	r1, [r2, #80]
 316 0034 2846     		mov	r0, r5
 317              	.LVL14:
 318 0036 FFF7FEFF 		bl	ui_draw_icon_text
 319              	.LVL15:
 320 003a 38BD     		pop	{r3, r4, r5, pc}
 321              	.LVL16:
 322              	.L23:
 268:user_interface.c ****         case UI_MENU_PRESET:        ui_draw_icon_text(loc, (char*) UI_PRESETS_MENU_ITEMS[item-UI_ME
 323              		.loc 1 268 0
 324 003c 121B     		subs	r2, r2, r4
 325              	.LVL17:
 326 003e 274B     		ldr	r3, .L33
 327 0040 03EB8202 		add	r2, r3, r2, lsl #2
 328 0044 516F     		ldr	r1, [r2, #116]
 329 0046 2846     		mov	r0, r5
 330              	.LVL18:
 331 0048 FFF7FEFF 		bl	ui_draw_icon_text
 332              	.LVL19:
 333 004c 38BD     		pop	{r3, r4, r5, pc}
 334              	.LVL20:
 335              	.L24:
 269:user_interface.c ****         case UI_MENU_TEMP:          ui_draw_icon_text(loc, (char*) UI_TEMP_MENU_ITEMS[item-UI_MENU_
 336              		.loc 1 269 0
 337 004e 121B     		subs	r2, r2, r4
 338              	.LVL21:
 339 0050 224B     		ldr	r3, .L33
 340 0052 03EB8202 		add	r2, r3, r2, lsl #2
 341 0056 D2F89C10 		ldr	r1, [r2, #156]
 342 005a 2846     		mov	r0, r5
 343              	.LVL22:
 344 005c FFF7FEFF 		bl	ui_draw_icon_text
 345              	.LVL23:
 346 0060 38BD     		pop	{r3, r4, r5, pc}
 347              	.LVL24:
 348              	.L25:
 270:user_interface.c ****         case UI_MENU_VIBE_AMP:      ui_draw_icon_text(loc, (char*) UI_VIBE_AMP_MENU_ITEMS[item-UI_M
 349              		.loc 1 270 0
 350 0062 121B     		subs	r2, r2, r4
 351              	.LVL25:
 352 0064 1D4B     		ldr	r3, .L33
 353 0066 03EB8202 		add	r2, r3, r2, lsl #2
 354 006a D2F8D810 		ldr	r1, [r2, #216]
ARM GAS  C:\Users\dev\AppData\Local\Temp\ccC4nFKO.s 			page 12


 355 006e 2846     		mov	r0, r5
 356              	.LVL26:
 357 0070 FFF7FEFF 		bl	ui_draw_icon_text
 358              	.LVL27:
 359 0074 38BD     		pop	{r3, r4, r5, pc}
 360              	.LVL28:
 361              	.L26:
 271:user_interface.c ****         case UI_MENU_VIBE_FREQ:     ui_draw_icon_text(loc, (char*) UI_VIBE_FREQ_MENU_ITEMS[item-UI_
 362              		.loc 1 271 0
 363 0076 121B     		subs	r2, r2, r4
 364              	.LVL29:
 365 0078 184B     		ldr	r3, .L33
 366 007a 03EB8202 		add	r2, r3, r2, lsl #2
 367 007e D2F80411 		ldr	r1, [r2, #260]
 368 0082 2846     		mov	r0, r5
 369              	.LVL30:
 370 0084 FFF7FEFF 		bl	ui_draw_icon_text
 371              	.LVL31:
 372 0088 38BD     		pop	{r3, r4, r5, pc}
 373              	.LVL32:
 374              	.L27:
 272:user_interface.c ****         case UI_MENU_TENS_FREQ:     ui_draw_icon_text(loc, (char*) UI_TENS_FREQ_MENU_ITEMS[item-UI_
 375              		.loc 1 272 0
 376 008a 121B     		subs	r2, r2, r4
 377              	.LVL33:
 378 008c 134B     		ldr	r3, .L33
 379 008e 03EB8202 		add	r2, r3, r2, lsl #2
 380 0092 D2F82C11 		ldr	r1, [r2, #300]
 381 0096 2846     		mov	r0, r5
 382              	.LVL34:
 383 0098 FFF7FEFF 		bl	ui_draw_icon_text
 384              	.LVL35:
 385 009c 38BD     		pop	{r3, r4, r5, pc}
 386              	.LVL36:
 387              	.L28:
 273:user_interface.c ****         case UI_MENU_TENS_AMP:      ui_draw_icon_text(loc, (char*) UI_TENS_AMP_MENU_ITEMS[item-UI_M
 388              		.loc 1 273 0
 389 009e 121B     		subs	r2, r2, r4
 390              	.LVL37:
 391 00a0 0E4B     		ldr	r3, .L33
 392 00a2 03EB8202 		add	r2, r3, r2, lsl #2
 393 00a6 D2F85411 		ldr	r1, [r2, #340]
 394 00aa 2846     		mov	r0, r5
 395              	.LVL38:
 396 00ac FFF7FEFF 		bl	ui_draw_icon_text
 397              	.LVL39:
 398 00b0 38BD     		pop	{r3, r4, r5, pc}
 399              	.LVL40:
 400              	.L29:
 274:user_interface.c ****         case UI_MENU_TENS_DUR:      ui_draw_icon_text(loc, (char*) UI_TENS_DUR_MENU_ITEMS[item-UI_M
 401              		.loc 1 274 0
 402 00b2 121B     		subs	r2, r2, r4
 403              	.LVL41:
 404 00b4 094B     		ldr	r3, .L33
 405 00b6 03EB8202 		add	r2, r3, r2, lsl #2
 406 00ba D2F88011 		ldr	r1, [r2, #384]
 407 00be 2846     		mov	r0, r5
ARM GAS  C:\Users\dev\AppData\Local\Temp\ccC4nFKO.s 			page 13


 408              	.LVL42:
 409 00c0 FFF7FEFF 		bl	ui_draw_icon_text
 410              	.LVL43:
 411 00c4 38BD     		pop	{r3, r4, r5, pc}
 412              	.LVL44:
 413              	.L30:
 275:user_interface.c ****         case UI_MENU_BLUETOOTH:     ui_draw_icon_text(loc, (char*) UI_BLUETOOTH_MENU_ITEMS[item-UI_
 414              		.loc 1 275 0
 415 00c6 0649     		ldr	r1, .L33+4
 416 00c8 2846     		mov	r0, r5
 417              	.LVL45:
 418 00ca FFF7FEFF 		bl	ui_draw_icon_text
 419              	.LVL46:
 420 00ce 38BD     		pop	{r3, r4, r5, pc}
 421              	.LVL47:
 422              	.L31:
 276:user_interface.c ****         case UI_MENU_DIAG:          ui_draw_icon_text(loc, (char*) UI_DIAG_MENU_ITEMS[item-UI_MENU_
 423              		.loc 1 276 0
 424 00d0 0449     		ldr	r1, .L33+8
 425 00d2 2846     		mov	r0, r5
 426              	.LVL48:
 427 00d4 FFF7FEFF 		bl	ui_draw_icon_text
 428              	.LVL49:
 429              	.L19:
 430 00d8 38BD     		pop	{r3, r4, r5, pc}
 431              	.L34:
 432 00da 00BF     		.align	2
 433              	.L33:
 434 00dc 00000000 		.word	.LANCHOR2
 435 00e0 04000000 		.word	.LC1
 436 00e4 0C000000 		.word	.LC2
 437              		.cfi_endproc
 438              	.LFE727:
 439              		.size	ui_draw_icons, .-ui_draw_icons
 440              		.section	.text.ui_draw_diag,"ax",%progbits
 441              		.align	2
 442              		.global	ui_draw_diag
 443              		.thumb
 444              		.thumb_func
 445              		.type	ui_draw_diag, %function
 446              	ui_draw_diag:
 447              	.LFB728:
 277:user_interface.c ****     }
 278:user_interface.c **** }
 279:user_interface.c **** 
 280:user_interface.c **** /*******************************************************************************
 281:user_interface.c **** * Function Name: void ui_draw_diag()
 282:user_interface.c **** ********************************************************************************
 283:user_interface.c **** *
 284:user_interface.c **** * Summary:
 285:user_interface.c **** *   Draws diagnostics
 286:user_interface.c **** *
 287:user_interface.c **** *******************************************************************************/
 288:user_interface.c **** void ui_draw_diag( void ) {
 448              		.loc 1 288 0
 449              		.cfi_startproc
 450              		@ args = 0, pretend = 0, frame = 32
ARM GAS  C:\Users\dev\AppData\Local\Temp\ccC4nFKO.s 			page 14


 451              		@ frame_needed = 0, uses_anonymous_args = 0
 452 0000 2DE9F041 		push	{r4, r5, r6, r7, r8, lr}
 453              		.cfi_def_cfa_offset 24
 454              		.cfi_offset 4, -24
 455              		.cfi_offset 5, -20
 456              		.cfi_offset 6, -16
 457              		.cfi_offset 7, -12
 458              		.cfi_offset 8, -8
 459              		.cfi_offset 14, -4
 460 0004 88B0     		sub	sp, sp, #32
 461              		.cfi_def_cfa_offset 56
 289:user_interface.c ****     uint8 d[POWER_DIAG_DATA_SIZE];
 290:user_interface.c ****     char s0[16];
 291:user_interface.c ****     //char s1[16];
 292:user_interface.c ****     
 293:user_interface.c ****     int vbus_stat;
 294:user_interface.c ****     int chrg_stat;
 295:user_interface.c ****     int dpm_stat;
 296:user_interface.c ****     int pg_stat;
 297:user_interface.c ****     int therm_stat;
 298:user_interface.c ****     int vsys_stat;
 299:user_interface.c ****     
 300:user_interface.c ****     int wtd_fault;
 301:user_interface.c ****     int otg_fault;
 302:user_interface.c ****     int chrg_fault;
 303:user_interface.c ****     int bat_fault;
 304:user_interface.c ****     int ntc_fault;
 305:user_interface.c ****     
 306:user_interface.c ****     power_get_diag_data(d);
 462              		.loc 1 306 0
 463 0006 05A8     		add	r0, sp, #20
 464 0008 FFF7FEFF 		bl	power_get_diag_data
 465              	.LVL50:
 307:user_interface.c **** 
 308:user_interface.c **** //#define CHG_REG_DUMP
 309:user_interface.c **** #ifdef CHG_REG_DUMP
 310:user_interface.c ****     
 311:user_interface.c ****     sprintf(s0, "%02X%02X%02X%02X%02X%02X%02X%02X", d[0], d[1], d[2], d[3], d[4], d[5], d[6], d[7])
 312:user_interface.c ****     sprintf(s1, "%02X%02X%02X", d[8], d[9], d[10]);
 313:user_interface.c ****     
 314:user_interface.c ****     
 315:user_interface.c ****     ST7735_DrawRectangle (2, 1+UI_TITLE_WIDTH, 1+UI_TITLE_HEIGHT+1, 2*(1+UI_TITLE_HEIGHT), UI_COLOR
 316:user_interface.c ****     ST7735_SetPosition (2, 1+UI_TITLE_HEIGHT+1);  
 317:user_interface.c ****     ST7735_DrawString (s0, UI_COLOR_ICON_TEXT, X2);
 318:user_interface.c ****     
 319:user_interface.c ****     
 320:user_interface.c ****     ST7735_DrawRectangle (2, 1+UI_TITLE_WIDTH, 2*(1+UI_TITLE_HEIGHT)+1, 3*(1+UI_TITLE_HEIGHT), UI_C
 321:user_interface.c ****     ST7735_SetPosition (2, 2*(1+UI_TITLE_HEIGHT)+1);  
 322:user_interface.c ****     ST7735_DrawString (s1, UI_COLOR_ICON_TEXT, X2);
 323:user_interface.c ****     
 324:user_interface.c **** #else
 325:user_interface.c ****   
 326:user_interface.c ****     vbus_stat = (d[CHG_SYS_STAT_REG] & CHG_SYS_STAT_VBUS_MASK)>>CHG_SYS_STAT_VBUS_START;
 466              		.loc 1 326 0
 467 000c 9DF81C20 		ldrb	r2, [sp, #28]	@ zero_extendqisi2
 468              	.LVL51:
 327:user_interface.c ****     chrg_stat = (d[CHG_SYS_STAT_REG] & CHG_SYS_STAT_CHG_MASK)>>CHG_SYS_STAT_CHG_START;
ARM GAS  C:\Users\dev\AppData\Local\Temp\ccC4nFKO.s 			page 15


 469              		.loc 1 327 0
 470 0010 C2F30118 		ubfx	r8, r2, #4, #2
 471              	.LVL52:
 328:user_interface.c ****     dpm_stat =  (d[CHG_SYS_STAT_REG] & CHG_SYS_STAT_DPM_MASK)>>CHG_SYS_STAT_DPM_START;
 472              		.loc 1 328 0
 473 0014 C2F3C007 		ubfx	r7, r2, #3, #1
 474              	.LVL53:
 329:user_interface.c ****     pg_stat =   (d[CHG_SYS_STAT_REG] & CHG_SYS_STAT_PGM_MASK)>>CHG_SYS_STAT_PGM_START;
 475              		.loc 1 329 0
 476 0018 C2F38006 		ubfx	r6, r2, #2, #1
 477              	.LVL54:
 330:user_interface.c ****     therm_stat = (d[CHG_SYS_STAT_REG] & CHG_SYS_STAT_THERM_MASK)>>CHG_SYS_STAT_THERM_START;
 478              		.loc 1 330 0
 479 001c C2F34005 		ubfx	r5, r2, #1, #1
 480              	.LVL55:
 331:user_interface.c ****     vsys_stat = (d[CHG_SYS_STAT_REG] & CHG_SYS_STAT_VSYS_MASK)>>CHG_SYS_STAT_VSYS_START;
 481              		.loc 1 331 0
 482 0020 02F00104 		and	r4, r2, #1
 483              	.LVL56:
 332:user_interface.c ****     
 333:user_interface.c ****     sprintf(s0, "VBUS:%d", vbus_stat);
 484              		.loc 1 333 0
 485 0024 9209     		lsrs	r2, r2, #6
 486              	.LVL57:
 487 0026 2049     		ldr	r1, .L37
 488 0028 01A8     		add	r0, sp, #4
 489 002a FFF7FEFF 		bl	sprintf
 490              	.LVL58:
 334:user_interface.c ****     //ST7735_DrawRectangle (2, 1+UI_TITLE_WIDTH, 1+UI_TITLE_HEIGHT+1, 2*(1+UI_TITLE_HEIGHT), UI_COL
 335:user_interface.c ****     //ST7735_SetPosition (2, 1+UI_TITLE_HEIGHT+1);  
 336:user_interface.c ****     //ST7735_DrawString (s0, UI_COLOR_ICON_TEXT, X2);
 337:user_interface.c ****     
 338:user_interface.c ****     sprintf(s0, "CHRG:%d", chrg_stat);
 491              		.loc 1 338 0
 492 002e 4246     		mov	r2, r8
 493 0030 1E49     		ldr	r1, .L37+4
 494 0032 01A8     		add	r0, sp, #4
 495 0034 FFF7FEFF 		bl	sprintf
 496              	.LVL59:
 339:user_interface.c ****     //ST7735_DrawRectangle (2, 1+UI_TITLE_WIDTH, 2*(1+UI_TITLE_HEIGHT)+1, 3*(1+UI_TITLE_HEIGHT), UI
 340:user_interface.c ****     //ST7735_SetPosition (2, 2*(1+UI_TITLE_HEIGHT)+1);  
 341:user_interface.c ****     //ST7735_DrawString (s0, UI_COLOR_ICON_TEXT, X2);
 342:user_interface.c ****     
 343:user_interface.c ****     sprintf(s0, "DPM:%d", dpm_stat);
 497              		.loc 1 343 0
 498 0038 3A46     		mov	r2, r7
 499 003a 1D49     		ldr	r1, .L37+8
 500 003c 01A8     		add	r0, sp, #4
 501 003e FFF7FEFF 		bl	sprintf
 502              	.LVL60:
 344:user_interface.c ****     //ST7735_DrawRectangle (2, 1+UI_TITLE_WIDTH, 3*(1+UI_TITLE_HEIGHT)+1, 4*(1+UI_TITLE_HEIGHT), UI
 345:user_interface.c ****     //ST7735_SetPosition (2, 3*(1+UI_TITLE_HEIGHT)+1);  
 346:user_interface.c ****     //ST7735_DrawString (s0, UI_COLOR_ICON_TEXT, X2);
 347:user_interface.c ****     
 348:user_interface.c ****     sprintf(s0, "PG:%d", pg_stat);
 503              		.loc 1 348 0
 504 0042 3246     		mov	r2, r6
ARM GAS  C:\Users\dev\AppData\Local\Temp\ccC4nFKO.s 			page 16


 505 0044 1B49     		ldr	r1, .L37+12
 506 0046 01A8     		add	r0, sp, #4
 507 0048 FFF7FEFF 		bl	sprintf
 508              	.LVL61:
 349:user_interface.c ****     //ST7735_DrawRectangle (2, 1+UI_TITLE_WIDTH, 4*(1+UI_TITLE_HEIGHT)+1, 5*(1+UI_TITLE_HEIGHT), UI
 350:user_interface.c ****     //ST7735_SetPosition (2, 4*(1+UI_TITLE_HEIGHT)+1);  
 351:user_interface.c ****     //ST7735_DrawString (s0, UI_COLOR_ICON_TEXT, X2);
 352:user_interface.c ****     
 353:user_interface.c ****     
 354:user_interface.c ****     sprintf(s0, "THERM:%d", therm_stat);
 509              		.loc 1 354 0
 510 004c 2A46     		mov	r2, r5
 511 004e 1A49     		ldr	r1, .L37+16
 512 0050 01A8     		add	r0, sp, #4
 513 0052 FFF7FEFF 		bl	sprintf
 514              	.LVL62:
 355:user_interface.c ****     //ST7735_DrawRectangle (2+UI_TITLE_WIDTH/2, 1+UI_TITLE_WIDTH/2, 1+UI_TITLE_HEIGHT+1, 2*(1+UI_TI
 356:user_interface.c ****     //ST7735_SetPosition (2+UI_TITLE_WIDTH/2, 1+UI_TITLE_HEIGHT+1);  
 357:user_interface.c ****     //ST7735_DrawString (s0, UI_COLOR_ICON_TEXT, X2);
 358:user_interface.c ****     
 359:user_interface.c ****     sprintf(s0, "VSYS:%d", vsys_stat);
 515              		.loc 1 359 0
 516 0056 2246     		mov	r2, r4
 517 0058 1849     		ldr	r1, .L37+20
 518 005a 01A8     		add	r0, sp, #4
 519 005c FFF7FEFF 		bl	sprintf
 520              	.LVL63:
 360:user_interface.c ****     //ST7735_DrawRectangle (2+UI_TITLE_WIDTH/2, 1+UI_TITLE_WIDTH/2, 2*(1+UI_TITLE_HEIGHT)+1, 3*(1+U
 361:user_interface.c ****     //ST7735_SetPosition (2+UI_TITLE_WIDTH/2, 2*(1+UI_TITLE_HEIGHT)+1);  
 362:user_interface.c ****     //ST7735_DrawString (s0, UI_COLOR_ICON_TEXT, X2);
 363:user_interface.c ****     
 364:user_interface.c ****     wtd_fault = (d[CHG_NEW_FAULT_REG] & CHG_NEW_FAULT_WDT_MASK)>>CHG_NEW_FAULT_WDT_START;
 521              		.loc 1 364 0
 522 0060 9DF81D20 		ldrb	r2, [sp, #29]	@ zero_extendqisi2
 523              	.LVL64:
 365:user_interface.c ****     otg_fault = (d[CHG_NEW_FAULT_REG] & CHG_NEW_FAULT_OTG_MASK)>>CHG_NEW_FAULT_OTG_START;
 524              		.loc 1 365 0
 525 0064 C2F38016 		ubfx	r6, r2, #6, #1
 526              	.LVL65:
 366:user_interface.c ****     chrg_fault = (d[CHG_NEW_FAULT_REG] & CHG_NEW_FAULT_CHG_MASK)>>CHG_NEW_FAULT_CHG_START;
 367:user_interface.c ****     bat_fault = (d[CHG_NEW_FAULT_REG] & CHG_NEW_FAULT_BATT_MASK)>>CHG_NEW_FAULT_BATT_START;
 527              		.loc 1 367 0
 528 0068 C2F3C005 		ubfx	r5, r2, #3, #1
 529              	.LVL66:
 368:user_interface.c ****     ntc_fault = (d[CHG_NEW_FAULT_REG] & CHG_NEW_FAULT_NTC_MASK)>>CHG_NEW_FAULT_NTC_START;
 530              		.loc 1 368 0
 531 006c 02F00304 		and	r4, r2, #3
 532              	.LVL67:
 369:user_interface.c ****     
 370:user_interface.c ****     sprintf(s0, "WTDF:%d", wtd_fault);
 533              		.loc 1 370 0
 534 0070 D209     		lsrs	r2, r2, #7
 535              	.LVL68:
 536 0072 1349     		ldr	r1, .L37+24
 537 0074 01A8     		add	r0, sp, #4
 538 0076 FFF7FEFF 		bl	sprintf
 539              	.LVL69:
ARM GAS  C:\Users\dev\AppData\Local\Temp\ccC4nFKO.s 			page 17


 371:user_interface.c ****     //ST7735_DrawRectangle (2+UI_TITLE_WIDTH/2, 1+UI_TITLE_WIDTH, 3*(1+UI_TITLE_HEIGHT)+1, 4*(1+UI_
 372:user_interface.c ****     //ST7735_SetPosition (2+UI_TITLE_WIDTH/2, 3*(1+UI_TITLE_HEIGHT)+1);  
 373:user_interface.c ****     //ST7735_DrawString (s0, UI_COLOR_ICON_TEXT, X2);
 374:user_interface.c ****     
 375:user_interface.c ****     sprintf(s0, "OTGF:%d", otg_fault);
 540              		.loc 1 375 0
 541 007a 3246     		mov	r2, r6
 542 007c 1149     		ldr	r1, .L37+28
 543 007e 01A8     		add	r0, sp, #4
 544 0080 FFF7FEFF 		bl	sprintf
 545              	.LVL70:
 376:user_interface.c ****     //ST7735_DrawRectangle (2+UI_TITLE_WIDTH/2, 1+UI_TITLE_WIDTH, 4*(1+UI_TITLE_HEIGHT)+1, 5*(1+UI_
 377:user_interface.c ****     //ST7735_SetPosition (2+UI_TITLE_WIDTH/2, 4*(1+UI_TITLE_HEIGHT)+1);  
 378:user_interface.c ****     //ST7735_DrawString (s0, UI_COLOR_ICON_TEXT, X2);
 379:user_interface.c ****     
 380:user_interface.c ****     
 381:user_interface.c ****     
 382:user_interface.c ****     sprintf(s0, "CHGF:%d", chrg_fault);
 546              		.loc 1 382 0
 547 0084 0022     		movs	r2, #0
 548 0086 1049     		ldr	r1, .L37+32
 549 0088 01A8     		add	r0, sp, #4
 550 008a FFF7FEFF 		bl	sprintf
 551              	.LVL71:
 383:user_interface.c ****     //ST7735_DrawRectangle (2+2*(UI_TITLE_WIDTH/2), 1+UI_TITLE_WIDTH/2, 1+UI_TITLE_HEIGHT+1, 2*(1+U
 384:user_interface.c ****     //ST7735_SetPosition (2+2*(UI_TITLE_WIDTH/2), 1+UI_TITLE_HEIGHT+1);  
 385:user_interface.c ****     //ST7735_DrawString (s0, UI_COLOR_ICON_TEXT, X2);
 386:user_interface.c ****     
 387:user_interface.c ****     sprintf(s0, "BATF:%d", bat_fault);
 552              		.loc 1 387 0
 553 008e 2A46     		mov	r2, r5
 554 0090 0E49     		ldr	r1, .L37+36
 555 0092 01A8     		add	r0, sp, #4
 556 0094 FFF7FEFF 		bl	sprintf
 557              	.LVL72:
 388:user_interface.c ****     //ST7735_DrawRectangle (2+2*(UI_TITLE_WIDTH/2), 1+UI_TITLE_WIDTH/2, 2*(1+UI_TITLE_HEIGHT)+1, 3*
 389:user_interface.c ****     //ST7735_SetPosition (2+2*(UI_TITLE_WIDTH/2), 2*(1+UI_TITLE_HEIGHT)+1);  
 390:user_interface.c ****     //ST7735_DrawString (s0, UI_COLOR_ICON_TEXT, X2);
 391:user_interface.c ****     
 392:user_interface.c ****     sprintf(s0, "NTCF:%d", ntc_fault);
 558              		.loc 1 392 0
 559 0098 2246     		mov	r2, r4
 560 009a 0D49     		ldr	r1, .L37+40
 561 009c 01A8     		add	r0, sp, #4
 562 009e FFF7FEFF 		bl	sprintf
 563              	.LVL73:
 393:user_interface.c ****     //ST7735_DrawRectangle (2+2*(UI_TITLE_WIDTH/2), 1+UI_TITLE_WIDTH, 3*(1+UI_TITLE_HEIGHT)+1, 4*(1
 394:user_interface.c ****     //ST7735_SetPosition (2+2*(UI_TITLE_WIDTH/2), 3*(1+UI_TITLE_HEIGHT)+1);  
 395:user_interface.c ****     //ST7735_DrawString (s0, UI_COLOR_ICON_TEXT, X2);
 396:user_interface.c **** 
 397:user_interface.c **** #endif
 398:user_interface.c ****     
 399:user_interface.c **** }
 564              		.loc 1 399 0
 565 00a2 08B0     		add	sp, sp, #32
 566              		.cfi_def_cfa_offset 24
 567              		@ sp needed
ARM GAS  C:\Users\dev\AppData\Local\Temp\ccC4nFKO.s 			page 18


 568 00a4 BDE8F081 		pop	{r4, r5, r6, r7, r8, pc}
 569              	.LVL74:
 570              	.L38:
 571              		.align	2
 572              	.L37:
 573 00a8 10000000 		.word	.LC3
 574 00ac 18000000 		.word	.LC4
 575 00b0 20000000 		.word	.LC5
 576 00b4 28000000 		.word	.LC6
 577 00b8 30000000 		.word	.LC7
 578 00bc 3C000000 		.word	.LC8
 579 00c0 44000000 		.word	.LC9
 580 00c4 4C000000 		.word	.LC10
 581 00c8 54000000 		.word	.LC11
 582 00cc 5C000000 		.word	.LC12
 583 00d0 64000000 		.word	.LC13
 584              		.cfi_endproc
 585              	.LFE728:
 586              		.size	ui_draw_diag, .-ui_draw_diag
 587              		.section	.text.ui_tens_task,"ax",%progbits
 588              		.align	2
 589              		.global	ui_tens_task
 590              		.thumb
 591              		.thumb_func
 592              		.type	ui_tens_task, %function
 593              	ui_tens_task:
 594              	.LFB729:
 400:user_interface.c **** 
 401:user_interface.c **** 
 402:user_interface.c **** /*******************************************************************************
 403:user_interface.c **** * Function Name: void tens_task
 404:user_interface.c **** ********************************************************************************
 405:user_interface.c **** *
 406:user_interface.c **** * Parameter:    None
 407:user_interface.c **** *
 408:user_interface.c **** * Summary:
 409:user_interface.c **** *   TENS task
 410:user_interface.c **** *
 411:user_interface.c **** *******************************************************************************/
 412:user_interface.c **** void ui_tens_task( void ) {
 595              		.loc 1 412 0
 596              		.cfi_startproc
 597              		@ args = 0, pretend = 0, frame = 0
 598              		@ frame_needed = 0, uses_anonymous_args = 0
 599 0000 2DE9F84F 		push	{r3, r4, r5, r6, r7, r8, r9, r10, fp, lr}
 600              		.cfi_def_cfa_offset 40
 601              		.cfi_offset 3, -40
 602              		.cfi_offset 4, -36
 603              		.cfi_offset 5, -32
 604              		.cfi_offset 6, -28
 605              		.cfi_offset 7, -24
 606              		.cfi_offset 8, -20
 607              		.cfi_offset 9, -16
 608              		.cfi_offset 10, -12
 609              		.cfi_offset 11, -8
 610              		.cfi_offset 14, -4
 413:user_interface.c ****     
ARM GAS  C:\Users\dev\AppData\Local\Temp\ccC4nFKO.s 			page 19


 414:user_interface.c ****     if (tens_timeout == 0) {
 611              		.loc 1 414 0
 612 0004 204B     		ldr	r3, .L42
 613 0006 1B68     		ldr	r3, [r3]
 614 0008 002B     		cmp	r3, #0
 615 000a 3BD1     		bne	.L39
 616              	.LVL75:
 617              	.LBB98:
 618              	.LBB99:
 619              		.file 2 "Generated_Source\\PSoC6\\pdl\\drivers/peripheral/gpio/cy_gpio.h"
   1:Generated_Source\PSoC6\pdl\drivers/peripheral/gpio/cy_gpio.h **** /***************************************************************************//**
   2:Generated_Source\PSoC6\pdl\drivers/peripheral/gpio/cy_gpio.h **** * \file cy_gpio.h
   3:Generated_Source\PSoC6\pdl\drivers/peripheral/gpio/cy_gpio.h **** * \version 1.20
   4:Generated_Source\PSoC6\pdl\drivers/peripheral/gpio/cy_gpio.h **** *
   5:Generated_Source\PSoC6\pdl\drivers/peripheral/gpio/cy_gpio.h **** * Provides an API declaration of the GPIO driver
   6:Generated_Source\PSoC6\pdl\drivers/peripheral/gpio/cy_gpio.h **** *
   7:Generated_Source\PSoC6\pdl\drivers/peripheral/gpio/cy_gpio.h **** ********************************************************************************
   8:Generated_Source\PSoC6\pdl\drivers/peripheral/gpio/cy_gpio.h **** * \copyright
   9:Generated_Source\PSoC6\pdl\drivers/peripheral/gpio/cy_gpio.h **** * Copyright 2016-2018, Cypress Semiconductor Corporation. All rights reserved.
  10:Generated_Source\PSoC6\pdl\drivers/peripheral/gpio/cy_gpio.h **** * You may use this file only in accordance with the license, terms, conditions,
  11:Generated_Source\PSoC6\pdl\drivers/peripheral/gpio/cy_gpio.h **** * disclaimers, and limitations in the end user license agreement accompanying
  12:Generated_Source\PSoC6\pdl\drivers/peripheral/gpio/cy_gpio.h **** * the software package with which this file was provided.
  13:Generated_Source\PSoC6\pdl\drivers/peripheral/gpio/cy_gpio.h **** *******************************************************************************/
  14:Generated_Source\PSoC6\pdl\drivers/peripheral/gpio/cy_gpio.h **** 
  15:Generated_Source\PSoC6\pdl\drivers/peripheral/gpio/cy_gpio.h **** /**
  16:Generated_Source\PSoC6\pdl\drivers/peripheral/gpio/cy_gpio.h **** * \addtogroup group_gpio
  17:Generated_Source\PSoC6\pdl\drivers/peripheral/gpio/cy_gpio.h **** * \{
  18:Generated_Source\PSoC6\pdl\drivers/peripheral/gpio/cy_gpio.h **** * The GPIO driver provides an API to configure and access device Input/Output pins.
  19:Generated_Source\PSoC6\pdl\drivers/peripheral/gpio/cy_gpio.h **** *
  20:Generated_Source\PSoC6\pdl\drivers/peripheral/gpio/cy_gpio.h **** * The functions and other declarations used in this driver are in cy_gpio.h. 
  21:Generated_Source\PSoC6\pdl\drivers/peripheral/gpio/cy_gpio.h **** * You can include cy_pdl.h (ModusToolbox only) to get access to all functions 
  22:Generated_Source\PSoC6\pdl\drivers/peripheral/gpio/cy_gpio.h **** * and declarations in the PDL.
  23:Generated_Source\PSoC6\pdl\drivers/peripheral/gpio/cy_gpio.h **** *
  24:Generated_Source\PSoC6\pdl\drivers/peripheral/gpio/cy_gpio.h **** * IO pins include all general purpose types such as GPIO, SIO, HSIO, AUXIO, and
  25:Generated_Source\PSoC6\pdl\drivers/peripheral/gpio/cy_gpio.h **** * their variants.
  26:Generated_Source\PSoC6\pdl\drivers/peripheral/gpio/cy_gpio.h **** *
  27:Generated_Source\PSoC6\pdl\drivers/peripheral/gpio/cy_gpio.h **** * Initialization can be performed either at the port level or by configuring the
  28:Generated_Source\PSoC6\pdl\drivers/peripheral/gpio/cy_gpio.h **** * individual pins. For efficient use of code space, port
  29:Generated_Source\PSoC6\pdl\drivers/peripheral/gpio/cy_gpio.h **** * configuration should be used in the field. Refer to the product device header files 
  30:Generated_Source\PSoC6\pdl\drivers/peripheral/gpio/cy_gpio.h **** * for the list of supported ports and pins.
  31:Generated_Source\PSoC6\pdl\drivers/peripheral/gpio/cy_gpio.h **** * 
  32:Generated_Source\PSoC6\pdl\drivers/peripheral/gpio/cy_gpio.h **** * - Single pin configuration is performed by using \ref Cy_GPIO_Pin_FastInit 
  33:Generated_Source\PSoC6\pdl\drivers/peripheral/gpio/cy_gpio.h **** *   (provide specific values) or \ref Cy_GPIO_Pin_Init (provide a filled
  34:Generated_Source\PSoC6\pdl\drivers/peripheral/gpio/cy_gpio.h **** *   cy_stc_gpio_pin_config_t structure).
  35:Generated_Source\PSoC6\pdl\drivers/peripheral/gpio/cy_gpio.h **** * - An entire port can be configured using \ref Cy_GPIO_Port_Init. Provide a filled 
  36:Generated_Source\PSoC6\pdl\drivers/peripheral/gpio/cy_gpio.h **** *   cy_stc_gpio_prt_config_t structure. The values in the structure are 
  37:Generated_Source\PSoC6\pdl\drivers/peripheral/gpio/cy_gpio.h **** *   bitfields representing the desired value for each pin in the port.
  38:Generated_Source\PSoC6\pdl\drivers/peripheral/gpio/cy_gpio.h **** * - Pin configuration and management is based on the port address and pin number.
  39:Generated_Source\PSoC6\pdl\drivers/peripheral/gpio/cy_gpio.h **** *   \ref Cy_GPIO_PortToAddr function can optionally be used to calculate the port
  40:Generated_Source\PSoC6\pdl\drivers/peripheral/gpio/cy_gpio.h **** *   address from the port number at run-time.
  41:Generated_Source\PSoC6\pdl\drivers/peripheral/gpio/cy_gpio.h **** *
  42:Generated_Source\PSoC6\pdl\drivers/peripheral/gpio/cy_gpio.h **** * Once the pin/port initialization is complete, each pin can be accessed by 
  43:Generated_Source\PSoC6\pdl\drivers/peripheral/gpio/cy_gpio.h **** * specifying the port (GPIO_PRT_Type) and the pin (0-7) in the provided API 
  44:Generated_Source\PSoC6\pdl\drivers/peripheral/gpio/cy_gpio.h **** * functions.
  45:Generated_Source\PSoC6\pdl\drivers/peripheral/gpio/cy_gpio.h **** *
  46:Generated_Source\PSoC6\pdl\drivers/peripheral/gpio/cy_gpio.h **** * \section group_gpio_configuration Configuration Considerations
  47:Generated_Source\PSoC6\pdl\drivers/peripheral/gpio/cy_gpio.h **** *
ARM GAS  C:\Users\dev\AppData\Local\Temp\ccC4nFKO.s 			page 20


  48:Generated_Source\PSoC6\pdl\drivers/peripheral/gpio/cy_gpio.h **** * 1. Pin multiplexing is controlled through the High-Speed IO Matrix (HSIOM) selection.
  49:Generated_Source\PSoC6\pdl\drivers/peripheral/gpio/cy_gpio.h **** *    This allows the pin to connect to signal sources/sinks throughout the device,
  50:Generated_Source\PSoC6\pdl\drivers/peripheral/gpio/cy_gpio.h **** *    as defined by the pin HSIOM selection options (en_hsiom_sel_t).
  51:Generated_Source\PSoC6\pdl\drivers/peripheral/gpio/cy_gpio.h **** * 2. All pins are initialized to High-Z drive mode with HSIOM connected to CPU (SW
  52:Generated_Source\PSoC6\pdl\drivers/peripheral/gpio/cy_gpio.h **** *    control digital pin only) at Power-On-Reset(POR).
  53:Generated_Source\PSoC6\pdl\drivers/peripheral/gpio/cy_gpio.h **** * 3. Some API functions perform read-modify-write operations on shared port
  54:Generated_Source\PSoC6\pdl\drivers/peripheral/gpio/cy_gpio.h **** *    registers. These functions are not thread safe and care must be taken when
  55:Generated_Source\PSoC6\pdl\drivers/peripheral/gpio/cy_gpio.h **** *    called by the application.
  56:Generated_Source\PSoC6\pdl\drivers/peripheral/gpio/cy_gpio.h **** * 4. Digital input buffer provides a high-impedance buffer for the external 
  57:Generated_Source\PSoC6\pdl\drivers/peripheral/gpio/cy_gpio.h **** *    digital input. The input buffer is connected to the HSIOM for routing to 
  58:Generated_Source\PSoC6\pdl\drivers/peripheral/gpio/cy_gpio.h **** *    the CPU port registers and selected peripheral. Enabling the input 
  59:Generated_Source\PSoC6\pdl\drivers/peripheral/gpio/cy_gpio.h **** *    buffer provides possibility to read the pin state via the CPU.
  60:Generated_Source\PSoC6\pdl\drivers/peripheral/gpio/cy_gpio.h **** *    If pin is connected to an analog signal, the input buffer should be 
  61:Generated_Source\PSoC6\pdl\drivers/peripheral/gpio/cy_gpio.h **** *    disabled to avoid crowbar currents. For more information refer to device 
  62:Generated_Source\PSoC6\pdl\drivers/peripheral/gpio/cy_gpio.h **** *    TRM and the device datasheet.
  63:Generated_Source\PSoC6\pdl\drivers/peripheral/gpio/cy_gpio.h **** *
  64:Generated_Source\PSoC6\pdl\drivers/peripheral/gpio/cy_gpio.h **** * Multiple pins on a port can be updated using direct port register writes with an
  65:Generated_Source\PSoC6\pdl\drivers/peripheral/gpio/cy_gpio.h **** * appropriate port mask. An example is shown below, highlighting the different ways of 
  66:Generated_Source\PSoC6\pdl\drivers/peripheral/gpio/cy_gpio.h **** * configuring Port 1 pins using:
  67:Generated_Source\PSoC6\pdl\drivers/peripheral/gpio/cy_gpio.h **** * 
  68:Generated_Source\PSoC6\pdl\drivers/peripheral/gpio/cy_gpio.h **** * - Port output data register
  69:Generated_Source\PSoC6\pdl\drivers/peripheral/gpio/cy_gpio.h **** * - Port output data set register
  70:Generated_Source\PSoC6\pdl\drivers/peripheral/gpio/cy_gpio.h **** * - Port output data clear register
  71:Generated_Source\PSoC6\pdl\drivers/peripheral/gpio/cy_gpio.h **** *
  72:Generated_Source\PSoC6\pdl\drivers/peripheral/gpio/cy_gpio.h **** * \snippet gpio/gpio_v1_10_sut_01.cydsn/main_cm4.c Cy_GPIO_Snippet
  73:Generated_Source\PSoC6\pdl\drivers/peripheral/gpio/cy_gpio.h **** *
  74:Generated_Source\PSoC6\pdl\drivers/peripheral/gpio/cy_gpio.h **** * \section group_gpio_more_information More Information
  75:Generated_Source\PSoC6\pdl\drivers/peripheral/gpio/cy_gpio.h **** *
  76:Generated_Source\PSoC6\pdl\drivers/peripheral/gpio/cy_gpio.h **** * Refer to the technical reference manual (TRM) and the device datasheet.
  77:Generated_Source\PSoC6\pdl\drivers/peripheral/gpio/cy_gpio.h **** *
  78:Generated_Source\PSoC6\pdl\drivers/peripheral/gpio/cy_gpio.h **** * \section group_gpio_MISRA MISRA-C Compliance
  79:Generated_Source\PSoC6\pdl\drivers/peripheral/gpio/cy_gpio.h **** * The GPIO driver has the following specific deviations:
  80:Generated_Source\PSoC6\pdl\drivers/peripheral/gpio/cy_gpio.h **** *
  81:Generated_Source\PSoC6\pdl\drivers/peripheral/gpio/cy_gpio.h **** * <table class="doxtable">
  82:Generated_Source\PSoC6\pdl\drivers/peripheral/gpio/cy_gpio.h **** *   <tr>
  83:Generated_Source\PSoC6\pdl\drivers/peripheral/gpio/cy_gpio.h **** *     <th>MISRA Rule</th>
  84:Generated_Source\PSoC6\pdl\drivers/peripheral/gpio/cy_gpio.h **** *     <th>Rule Class (Required/Advisory)</th>
  85:Generated_Source\PSoC6\pdl\drivers/peripheral/gpio/cy_gpio.h **** *     <th>Rule Description</th>
  86:Generated_Source\PSoC6\pdl\drivers/peripheral/gpio/cy_gpio.h **** *     <th>Description of Deviation(s)</th>
  87:Generated_Source\PSoC6\pdl\drivers/peripheral/gpio/cy_gpio.h **** *   </tr>
  88:Generated_Source\PSoC6\pdl\drivers/peripheral/gpio/cy_gpio.h **** *   <tr>
  89:Generated_Source\PSoC6\pdl\drivers/peripheral/gpio/cy_gpio.h **** *     <td>11.4</td>
  90:Generated_Source\PSoC6\pdl\drivers/peripheral/gpio/cy_gpio.h **** *     <td>A</td>
  91:Generated_Source\PSoC6\pdl\drivers/peripheral/gpio/cy_gpio.h **** *     <td>A cast should not be performed between a pointer to object type and
  92:Generated_Source\PSoC6\pdl\drivers/peripheral/gpio/cy_gpio.h **** *         a different pointer to object type.</td>
  93:Generated_Source\PSoC6\pdl\drivers/peripheral/gpio/cy_gpio.h **** *     <td> This code is safe because the elements of both GPIO_PRT_V1_Type and GPIO_PRT_V2_Type 
  94:Generated_Source\PSoC6\pdl\drivers/peripheral/gpio/cy_gpio.h **** *          types have identical alignment.</td>
  95:Generated_Source\PSoC6\pdl\drivers/peripheral/gpio/cy_gpio.h **** *   </tr>
  96:Generated_Source\PSoC6\pdl\drivers/peripheral/gpio/cy_gpio.h **** *   <tr>
  97:Generated_Source\PSoC6\pdl\drivers/peripheral/gpio/cy_gpio.h **** *     <td>16.7</td>
  98:Generated_Source\PSoC6\pdl\drivers/peripheral/gpio/cy_gpio.h **** *     <td>A</td>
  99:Generated_Source\PSoC6\pdl\drivers/peripheral/gpio/cy_gpio.h **** *     <td>A pointer parameter in a function prototype should be declared as pointer 
 100:Generated_Source\PSoC6\pdl\drivers/peripheral/gpio/cy_gpio.h **** *         to const if the pointer is not used to modify the addressed object.</td>
 101:Generated_Source\PSoC6\pdl\drivers/peripheral/gpio/cy_gpio.h **** *     <td>The objects pointed to by the base addresses of the GPIO port are not always modified.
 102:Generated_Source\PSoC6\pdl\drivers/peripheral/gpio/cy_gpio.h **** *         While a const qualifier can be used in select scenarios, it brings little benefit
 103:Generated_Source\PSoC6\pdl\drivers/peripheral/gpio/cy_gpio.h **** *         in adding this to the affected functions. </td>
 104:Generated_Source\PSoC6\pdl\drivers/peripheral/gpio/cy_gpio.h **** *   </tr>
ARM GAS  C:\Users\dev\AppData\Local\Temp\ccC4nFKO.s 			page 21


 105:Generated_Source\PSoC6\pdl\drivers/peripheral/gpio/cy_gpio.h **** * </table>
 106:Generated_Source\PSoC6\pdl\drivers/peripheral/gpio/cy_gpio.h **** *
 107:Generated_Source\PSoC6\pdl\drivers/peripheral/gpio/cy_gpio.h **** * \section group_gpio_changelog Changelog
 108:Generated_Source\PSoC6\pdl\drivers/peripheral/gpio/cy_gpio.h **** * <table class="doxtable">
 109:Generated_Source\PSoC6\pdl\drivers/peripheral/gpio/cy_gpio.h **** *   <tr><th>Version</th><th>Changes</th><th>Reason for Change</th></tr>
 110:Generated_Source\PSoC6\pdl\drivers/peripheral/gpio/cy_gpio.h **** *   <tr>
 111:Generated_Source\PSoC6\pdl\drivers/peripheral/gpio/cy_gpio.h **** *     <td rowspan="3">1.20</td>
 112:Generated_Source\PSoC6\pdl\drivers/peripheral/gpio/cy_gpio.h **** *     <td>Flattened the organization of the driver source code into the single source directory and
 113:Generated_Source\PSoC6\pdl\drivers/peripheral/gpio/cy_gpio.h **** *     <td>Driver library directory-structure simplification.</td>
 114:Generated_Source\PSoC6\pdl\drivers/peripheral/gpio/cy_gpio.h **** *   </tr>
 115:Generated_Source\PSoC6\pdl\drivers/peripheral/gpio/cy_gpio.h **** *   <tr>
 116:Generated_Source\PSoC6\pdl\drivers/peripheral/gpio/cy_gpio.h **** *     <td>Added the functions for configuring the AMux bus splitter switch cells:
 117:Generated_Source\PSoC6\pdl\drivers/peripheral/gpio/cy_gpio.h **** *     - \ref Cy_GPIO_SetAmuxSplit
 118:Generated_Source\PSoC6\pdl\drivers/peripheral/gpio/cy_gpio.h **** *     - \ref Cy_GPIO_GetAmuxSplit
 119:Generated_Source\PSoC6\pdl\drivers/peripheral/gpio/cy_gpio.h **** *     </td>
 120:Generated_Source\PSoC6\pdl\drivers/peripheral/gpio/cy_gpio.h **** *     <td>Added a new functionality related to AMux bus.</td>
 121:Generated_Source\PSoC6\pdl\drivers/peripheral/gpio/cy_gpio.h **** *   </tr>
 122:Generated_Source\PSoC6\pdl\drivers/peripheral/gpio/cy_gpio.h **** *   <tr>
 123:Generated_Source\PSoC6\pdl\drivers/peripheral/gpio/cy_gpio.h **** *     <td>Added register access layer. Use register access macros instead
 124:Generated_Source\PSoC6\pdl\drivers/peripheral/gpio/cy_gpio.h **** *         of direct register access using dereferenced pointers.</td>
 125:Generated_Source\PSoC6\pdl\drivers/peripheral/gpio/cy_gpio.h **** *     <td>Makes register access device-independent, so that the PDL does 
 126:Generated_Source\PSoC6\pdl\drivers/peripheral/gpio/cy_gpio.h **** *         not need to be recompiled for each supported part number.</td>
 127:Generated_Source\PSoC6\pdl\drivers/peripheral/gpio/cy_gpio.h **** *   </tr>
 128:Generated_Source\PSoC6\pdl\drivers/peripheral/gpio/cy_gpio.h **** *   <tr>
 129:Generated_Source\PSoC6\pdl\drivers/peripheral/gpio/cy_gpio.h **** *     <td>1.10.1</td>
 130:Generated_Source\PSoC6\pdl\drivers/peripheral/gpio/cy_gpio.h **** *     <td>Updated description for the functions: \ref Cy_GPIO_GetInterruptStatus, 
 131:Generated_Source\PSoC6\pdl\drivers/peripheral/gpio/cy_gpio.h **** *         \ref Cy_GPIO_GetInterruptMask, \ref Cy_GPIO_GetInterruptStatusMasked.
 132:Generated_Source\PSoC6\pdl\drivers/peripheral/gpio/cy_gpio.h **** *
 133:Generated_Source\PSoC6\pdl\drivers/peripheral/gpio/cy_gpio.h **** *         Minor documentation edits.
 134:Generated_Source\PSoC6\pdl\drivers/peripheral/gpio/cy_gpio.h **** *     </td>
 135:Generated_Source\PSoC6\pdl\drivers/peripheral/gpio/cy_gpio.h **** *     <td>Documentation update and clarification</td>
 136:Generated_Source\PSoC6\pdl\drivers/peripheral/gpio/cy_gpio.h **** *   </tr>
 137:Generated_Source\PSoC6\pdl\drivers/peripheral/gpio/cy_gpio.h **** *   <tr>
 138:Generated_Source\PSoC6\pdl\drivers/peripheral/gpio/cy_gpio.h **** *     <td>1.10</td>
 139:Generated_Source\PSoC6\pdl\drivers/peripheral/gpio/cy_gpio.h **** *     <td>Added input parameter validation to the API functions</td>
 140:Generated_Source\PSoC6\pdl\drivers/peripheral/gpio/cy_gpio.h **** *     <td></td>
 141:Generated_Source\PSoC6\pdl\drivers/peripheral/gpio/cy_gpio.h **** *   </tr>
 142:Generated_Source\PSoC6\pdl\drivers/peripheral/gpio/cy_gpio.h **** *   <tr>
 143:Generated_Source\PSoC6\pdl\drivers/peripheral/gpio/cy_gpio.h **** *     <td>1.0</td>
 144:Generated_Source\PSoC6\pdl\drivers/peripheral/gpio/cy_gpio.h **** *     <td>Initial version</td>
 145:Generated_Source\PSoC6\pdl\drivers/peripheral/gpio/cy_gpio.h **** *     <td></td>
 146:Generated_Source\PSoC6\pdl\drivers/peripheral/gpio/cy_gpio.h **** *   </tr>
 147:Generated_Source\PSoC6\pdl\drivers/peripheral/gpio/cy_gpio.h **** * </table>
 148:Generated_Source\PSoC6\pdl\drivers/peripheral/gpio/cy_gpio.h **** *
 149:Generated_Source\PSoC6\pdl\drivers/peripheral/gpio/cy_gpio.h **** * \defgroup group_gpio_macros Macros
 150:Generated_Source\PSoC6\pdl\drivers/peripheral/gpio/cy_gpio.h **** * \defgroup group_gpio_functions Functions
 151:Generated_Source\PSoC6\pdl\drivers/peripheral/gpio/cy_gpio.h **** * \{
 152:Generated_Source\PSoC6\pdl\drivers/peripheral/gpio/cy_gpio.h **** *   \defgroup group_gpio_functions_init       Initialization Functions
 153:Generated_Source\PSoC6\pdl\drivers/peripheral/gpio/cy_gpio.h **** *   \defgroup group_gpio_functions_gpio       GPIO Functions
 154:Generated_Source\PSoC6\pdl\drivers/peripheral/gpio/cy_gpio.h **** *   \defgroup group_gpio_functions_sio        SIO Functions
 155:Generated_Source\PSoC6\pdl\drivers/peripheral/gpio/cy_gpio.h **** *   \defgroup group_gpio_functions_interrupt  Port Interrupt Functions
 156:Generated_Source\PSoC6\pdl\drivers/peripheral/gpio/cy_gpio.h **** * \}
 157:Generated_Source\PSoC6\pdl\drivers/peripheral/gpio/cy_gpio.h **** * \defgroup group_gpio_data_structures Data Structures
 158:Generated_Source\PSoC6\pdl\drivers/peripheral/gpio/cy_gpio.h **** * \defgroup group_gpio_enums Enumerated Types
 159:Generated_Source\PSoC6\pdl\drivers/peripheral/gpio/cy_gpio.h **** */
 160:Generated_Source\PSoC6\pdl\drivers/peripheral/gpio/cy_gpio.h **** 
 161:Generated_Source\PSoC6\pdl\drivers/peripheral/gpio/cy_gpio.h **** #if !defined(CY_GPIO_H)
ARM GAS  C:\Users\dev\AppData\Local\Temp\ccC4nFKO.s 			page 22


 162:Generated_Source\PSoC6\pdl\drivers/peripheral/gpio/cy_gpio.h **** #define CY_GPIO_H
 163:Generated_Source\PSoC6\pdl\drivers/peripheral/gpio/cy_gpio.h **** 
 164:Generated_Source\PSoC6\pdl\drivers/peripheral/gpio/cy_gpio.h **** #include <stddef.h>
 165:Generated_Source\PSoC6\pdl\drivers/peripheral/gpio/cy_gpio.h **** #include "cy_device.h"
 166:Generated_Source\PSoC6\pdl\drivers/peripheral/gpio/cy_gpio.h **** #include "cy_device_headers.h"
 167:Generated_Source\PSoC6\pdl\drivers/peripheral/gpio/cy_gpio.h **** #include "cy_syslib.h"
 168:Generated_Source\PSoC6\pdl\drivers/peripheral/gpio/cy_gpio.h **** 
 169:Generated_Source\PSoC6\pdl\drivers/peripheral/gpio/cy_gpio.h **** #if defined(__cplusplus)
 170:Generated_Source\PSoC6\pdl\drivers/peripheral/gpio/cy_gpio.h **** extern "C" {
 171:Generated_Source\PSoC6\pdl\drivers/peripheral/gpio/cy_gpio.h **** #endif
 172:Generated_Source\PSoC6\pdl\drivers/peripheral/gpio/cy_gpio.h **** 
 173:Generated_Source\PSoC6\pdl\drivers/peripheral/gpio/cy_gpio.h **** /** \addtogroup group_gpio_macros
 174:Generated_Source\PSoC6\pdl\drivers/peripheral/gpio/cy_gpio.h **** * \{
 175:Generated_Source\PSoC6\pdl\drivers/peripheral/gpio/cy_gpio.h **** */
 176:Generated_Source\PSoC6\pdl\drivers/peripheral/gpio/cy_gpio.h **** 
 177:Generated_Source\PSoC6\pdl\drivers/peripheral/gpio/cy_gpio.h **** /** Driver major version */
 178:Generated_Source\PSoC6\pdl\drivers/peripheral/gpio/cy_gpio.h **** #define CY_GPIO_DRV_VERSION_MAJOR       1
 179:Generated_Source\PSoC6\pdl\drivers/peripheral/gpio/cy_gpio.h **** 
 180:Generated_Source\PSoC6\pdl\drivers/peripheral/gpio/cy_gpio.h **** /** Driver minor version */
 181:Generated_Source\PSoC6\pdl\drivers/peripheral/gpio/cy_gpio.h **** #define CY_GPIO_DRV_VERSION_MINOR       20
 182:Generated_Source\PSoC6\pdl\drivers/peripheral/gpio/cy_gpio.h **** 
 183:Generated_Source\PSoC6\pdl\drivers/peripheral/gpio/cy_gpio.h **** /** GPIO driver ID */
 184:Generated_Source\PSoC6\pdl\drivers/peripheral/gpio/cy_gpio.h **** #define CY_GPIO_ID CY_PDL_DRV_ID(0x16U)
 185:Generated_Source\PSoC6\pdl\drivers/peripheral/gpio/cy_gpio.h **** 
 186:Generated_Source\PSoC6\pdl\drivers/peripheral/gpio/cy_gpio.h **** /** \} group_gpio_macros */
 187:Generated_Source\PSoC6\pdl\drivers/peripheral/gpio/cy_gpio.h **** 
 188:Generated_Source\PSoC6\pdl\drivers/peripheral/gpio/cy_gpio.h **** 
 189:Generated_Source\PSoC6\pdl\drivers/peripheral/gpio/cy_gpio.h **** /***************************************
 190:Generated_Source\PSoC6\pdl\drivers/peripheral/gpio/cy_gpio.h **** *       Enumerations
 191:Generated_Source\PSoC6\pdl\drivers/peripheral/gpio/cy_gpio.h **** ***************************************/
 192:Generated_Source\PSoC6\pdl\drivers/peripheral/gpio/cy_gpio.h **** /**
 193:Generated_Source\PSoC6\pdl\drivers/peripheral/gpio/cy_gpio.h **** * \addtogroup group_gpio_enums
 194:Generated_Source\PSoC6\pdl\drivers/peripheral/gpio/cy_gpio.h **** * \{
 195:Generated_Source\PSoC6\pdl\drivers/peripheral/gpio/cy_gpio.h **** */
 196:Generated_Source\PSoC6\pdl\drivers/peripheral/gpio/cy_gpio.h **** 
 197:Generated_Source\PSoC6\pdl\drivers/peripheral/gpio/cy_gpio.h **** /** GPIO Driver error codes */
 198:Generated_Source\PSoC6\pdl\drivers/peripheral/gpio/cy_gpio.h **** typedef enum 
 199:Generated_Source\PSoC6\pdl\drivers/peripheral/gpio/cy_gpio.h **** {
 200:Generated_Source\PSoC6\pdl\drivers/peripheral/gpio/cy_gpio.h ****     CY_GPIO_SUCCESS   = 0x00U,                                    /**< Returned successful */
 201:Generated_Source\PSoC6\pdl\drivers/peripheral/gpio/cy_gpio.h ****     CY_GPIO_BAD_PARAM = CY_GPIO_ID | CY_PDL_STATUS_ERROR | 0x01U, /**< Bad parameter was passed */
 202:Generated_Source\PSoC6\pdl\drivers/peripheral/gpio/cy_gpio.h **** } cy_en_gpio_status_t;
 203:Generated_Source\PSoC6\pdl\drivers/peripheral/gpio/cy_gpio.h **** 
 204:Generated_Source\PSoC6\pdl\drivers/peripheral/gpio/cy_gpio.h **** /** AMux switch open/close config */
 205:Generated_Source\PSoC6\pdl\drivers/peripheral/gpio/cy_gpio.h **** typedef enum
 206:Generated_Source\PSoC6\pdl\drivers/peripheral/gpio/cy_gpio.h **** {
 207:Generated_Source\PSoC6\pdl\drivers/peripheral/gpio/cy_gpio.h ****     CY_GPIO_AMUX_OPENALL,   /**< Open ground switch. Open right switch. Open left switch */
 208:Generated_Source\PSoC6\pdl\drivers/peripheral/gpio/cy_gpio.h ****     CY_GPIO_AMUX_L,         /**< Open ground switch. Open right switch. Close left switch */
 209:Generated_Source\PSoC6\pdl\drivers/peripheral/gpio/cy_gpio.h ****     CY_GPIO_AMUX_R,         /**< Open ground switch. Close right switch. Open left switch */
 210:Generated_Source\PSoC6\pdl\drivers/peripheral/gpio/cy_gpio.h ****     CY_GPIO_AMUX_LR,        /**< Open ground switch. Close right switch. Close left switch */
 211:Generated_Source\PSoC6\pdl\drivers/peripheral/gpio/cy_gpio.h ****     CY_GPIO_AMUX_G,         /**< Close ground switch. Open right switch. Open left switch */
 212:Generated_Source\PSoC6\pdl\drivers/peripheral/gpio/cy_gpio.h ****     CY_GPIO_AMUX_GL,        /**< Close ground switch. Open right switch. Close left switch */
 213:Generated_Source\PSoC6\pdl\drivers/peripheral/gpio/cy_gpio.h ****     CY_GPIO_AMUX_GR,        /**< Close ground switch. Close right switch. Open left switch */
 214:Generated_Source\PSoC6\pdl\drivers/peripheral/gpio/cy_gpio.h ****     CY_GPIO_AMUX_GLR,       /**< Close ground switch. Close right switch. Close left switch */
 215:Generated_Source\PSoC6\pdl\drivers/peripheral/gpio/cy_gpio.h **** }cy_en_gpio_amuxconnect_t;
 216:Generated_Source\PSoC6\pdl\drivers/peripheral/gpio/cy_gpio.h **** 
 217:Generated_Source\PSoC6\pdl\drivers/peripheral/gpio/cy_gpio.h **** /**
 218:Generated_Source\PSoC6\pdl\drivers/peripheral/gpio/cy_gpio.h **** * AMux Bus selection
ARM GAS  C:\Users\dev\AppData\Local\Temp\ccC4nFKO.s 			page 23


 219:Generated_Source\PSoC6\pdl\drivers/peripheral/gpio/cy_gpio.h **** */
 220:Generated_Source\PSoC6\pdl\drivers/peripheral/gpio/cy_gpio.h **** typedef enum
 221:Generated_Source\PSoC6\pdl\drivers/peripheral/gpio/cy_gpio.h **** {
 222:Generated_Source\PSoC6\pdl\drivers/peripheral/gpio/cy_gpio.h ****     CY_GPIO_AMUXBUSA,       /**< AMuxBus A */
 223:Generated_Source\PSoC6\pdl\drivers/peripheral/gpio/cy_gpio.h ****     CY_GPIO_AMUXBUSB        /**< AMuxBus B */
 224:Generated_Source\PSoC6\pdl\drivers/peripheral/gpio/cy_gpio.h **** }cy_en_gpio_amuxselect_t;
 225:Generated_Source\PSoC6\pdl\drivers/peripheral/gpio/cy_gpio.h **** 
 226:Generated_Source\PSoC6\pdl\drivers/peripheral/gpio/cy_gpio.h **** /** \} group_gpio_enums */
 227:Generated_Source\PSoC6\pdl\drivers/peripheral/gpio/cy_gpio.h **** 
 228:Generated_Source\PSoC6\pdl\drivers/peripheral/gpio/cy_gpio.h **** 
 229:Generated_Source\PSoC6\pdl\drivers/peripheral/gpio/cy_gpio.h **** /***************************************
 230:Generated_Source\PSoC6\pdl\drivers/peripheral/gpio/cy_gpio.h **** *       Configuration Structures
 231:Generated_Source\PSoC6\pdl\drivers/peripheral/gpio/cy_gpio.h **** ***************************************/
 232:Generated_Source\PSoC6\pdl\drivers/peripheral/gpio/cy_gpio.h **** 
 233:Generated_Source\PSoC6\pdl\drivers/peripheral/gpio/cy_gpio.h **** /**
 234:Generated_Source\PSoC6\pdl\drivers/peripheral/gpio/cy_gpio.h **** * \addtogroup group_gpio_data_structures
 235:Generated_Source\PSoC6\pdl\drivers/peripheral/gpio/cy_gpio.h **** * \{
 236:Generated_Source\PSoC6\pdl\drivers/peripheral/gpio/cy_gpio.h **** */
 237:Generated_Source\PSoC6\pdl\drivers/peripheral/gpio/cy_gpio.h **** 
 238:Generated_Source\PSoC6\pdl\drivers/peripheral/gpio/cy_gpio.h **** /** This structure is used to initialize a port of GPIO pins */
 239:Generated_Source\PSoC6\pdl\drivers/peripheral/gpio/cy_gpio.h **** typedef struct 
 240:Generated_Source\PSoC6\pdl\drivers/peripheral/gpio/cy_gpio.h **** {
 241:Generated_Source\PSoC6\pdl\drivers/peripheral/gpio/cy_gpio.h ****     uint32_t out;           /**< Initial output data for the IO pins in the port */
 242:Generated_Source\PSoC6\pdl\drivers/peripheral/gpio/cy_gpio.h ****     uint32_t intrMask;      /**< Interrupt enable mask for the port interrupt */
 243:Generated_Source\PSoC6\pdl\drivers/peripheral/gpio/cy_gpio.h ****     uint32_t intrCfg;       /**< Port pin interrupt edge detection configuration */
 244:Generated_Source\PSoC6\pdl\drivers/peripheral/gpio/cy_gpio.h ****     uint32_t cfg;           /**< Port pin drive modes and input buffer enable configuration */
 245:Generated_Source\PSoC6\pdl\drivers/peripheral/gpio/cy_gpio.h ****     uint32_t cfgIn;         /**< Port pin input buffer configuration */
 246:Generated_Source\PSoC6\pdl\drivers/peripheral/gpio/cy_gpio.h ****     uint32_t cfgOut;        /**< Port pin output buffer configuration */
 247:Generated_Source\PSoC6\pdl\drivers/peripheral/gpio/cy_gpio.h ****     uint32_t cfgSIO;        /**< Port SIO pins configuration */
 248:Generated_Source\PSoC6\pdl\drivers/peripheral/gpio/cy_gpio.h ****     uint32_t sel0Active;    /**< HSIOM selection for port pins 0,1,2,3 */
 249:Generated_Source\PSoC6\pdl\drivers/peripheral/gpio/cy_gpio.h ****     uint32_t sel1Active;    /**< HSIOM selection for port pins 4,5,6,7 */
 250:Generated_Source\PSoC6\pdl\drivers/peripheral/gpio/cy_gpio.h **** } cy_stc_gpio_prt_config_t;
 251:Generated_Source\PSoC6\pdl\drivers/peripheral/gpio/cy_gpio.h **** 
 252:Generated_Source\PSoC6\pdl\drivers/peripheral/gpio/cy_gpio.h **** /** This structure is used to initialize a single GPIO pin */
 253:Generated_Source\PSoC6\pdl\drivers/peripheral/gpio/cy_gpio.h **** typedef struct
 254:Generated_Source\PSoC6\pdl\drivers/peripheral/gpio/cy_gpio.h **** {
 255:Generated_Source\PSoC6\pdl\drivers/peripheral/gpio/cy_gpio.h ****     uint32_t outVal;         /**< Pin output state */
 256:Generated_Source\PSoC6\pdl\drivers/peripheral/gpio/cy_gpio.h ****     uint32_t driveMode;      /**< Drive mode */
 257:Generated_Source\PSoC6\pdl\drivers/peripheral/gpio/cy_gpio.h ****     en_hsiom_sel_t hsiom;    /**< HSIOM selection */
 258:Generated_Source\PSoC6\pdl\drivers/peripheral/gpio/cy_gpio.h ****     uint32_t intEdge;        /**< Interrupt Edge type */
 259:Generated_Source\PSoC6\pdl\drivers/peripheral/gpio/cy_gpio.h ****     uint32_t intMask;        /**< Interrupt enable mask */
 260:Generated_Source\PSoC6\pdl\drivers/peripheral/gpio/cy_gpio.h ****     uint32_t vtrip;          /**< Input buffer voltage trip type */
 261:Generated_Source\PSoC6\pdl\drivers/peripheral/gpio/cy_gpio.h ****     uint32_t slewRate;       /**< Output buffer slew rate */
 262:Generated_Source\PSoC6\pdl\drivers/peripheral/gpio/cy_gpio.h ****     uint32_t driveSel;       /**< Drive strength */
 263:Generated_Source\PSoC6\pdl\drivers/peripheral/gpio/cy_gpio.h ****     uint32_t vregEn;         /**< SIO pair output buffer mode */
 264:Generated_Source\PSoC6\pdl\drivers/peripheral/gpio/cy_gpio.h ****     uint32_t ibufMode;       /**< SIO pair input buffer mode */
 265:Generated_Source\PSoC6\pdl\drivers/peripheral/gpio/cy_gpio.h ****     uint32_t vtripSel;       /**< SIO pair input buffer trip point */
 266:Generated_Source\PSoC6\pdl\drivers/peripheral/gpio/cy_gpio.h ****     uint32_t vrefSel;        /**< SIO pair reference voltage for input buffer trip point */
 267:Generated_Source\PSoC6\pdl\drivers/peripheral/gpio/cy_gpio.h ****     uint32_t vohSel;         /**< SIO pair regulated voltage output level */
 268:Generated_Source\PSoC6\pdl\drivers/peripheral/gpio/cy_gpio.h **** } cy_stc_gpio_pin_config_t;
 269:Generated_Source\PSoC6\pdl\drivers/peripheral/gpio/cy_gpio.h **** 
 270:Generated_Source\PSoC6\pdl\drivers/peripheral/gpio/cy_gpio.h **** /** \} group_gpio_data_structures */
 271:Generated_Source\PSoC6\pdl\drivers/peripheral/gpio/cy_gpio.h **** 
 272:Generated_Source\PSoC6\pdl\drivers/peripheral/gpio/cy_gpio.h **** /***************************************
 273:Generated_Source\PSoC6\pdl\drivers/peripheral/gpio/cy_gpio.h **** *        Constants
 274:Generated_Source\PSoC6\pdl\drivers/peripheral/gpio/cy_gpio.h **** ***************************************/
 275:Generated_Source\PSoC6\pdl\drivers/peripheral/gpio/cy_gpio.h **** 
ARM GAS  C:\Users\dev\AppData\Local\Temp\ccC4nFKO.s 			page 24


 276:Generated_Source\PSoC6\pdl\drivers/peripheral/gpio/cy_gpio.h **** /** \cond INTERNAL */
 277:Generated_Source\PSoC6\pdl\drivers/peripheral/gpio/cy_gpio.h **** 
 278:Generated_Source\PSoC6\pdl\drivers/peripheral/gpio/cy_gpio.h **** /* General Constants */
 279:Generated_Source\PSoC6\pdl\drivers/peripheral/gpio/cy_gpio.h **** #define CY_GPIO_PRT_HALF                       (4UL)      /**< Half-way point of a GPIO port */
 280:Generated_Source\PSoC6\pdl\drivers/peripheral/gpio/cy_gpio.h **** #define CY_GPIO_PRT_DEINIT                     (0UL)      /**< De-init value for port registers */
 281:Generated_Source\PSoC6\pdl\drivers/peripheral/gpio/cy_gpio.h **** 
 282:Generated_Source\PSoC6\pdl\drivers/peripheral/gpio/cy_gpio.h **** /* GPIO Masks */
 283:Generated_Source\PSoC6\pdl\drivers/peripheral/gpio/cy_gpio.h **** #define CY_GPIO_HSIOM_MASK                     (0x1FUL)   /**< HSIOM selection mask */
 284:Generated_Source\PSoC6\pdl\drivers/peripheral/gpio/cy_gpio.h **** #define CY_GPIO_OUT_MASK                       (0x01UL)   /**< Single pin mask for OUT register */
 285:Generated_Source\PSoC6\pdl\drivers/peripheral/gpio/cy_gpio.h **** #define CY_GPIO_IN_MASK                        (0x01UL)   /**< Single pin mask for IN register */
 286:Generated_Source\PSoC6\pdl\drivers/peripheral/gpio/cy_gpio.h **** #define CY_GPIO_CFG_DM_MASK                    (0x0FUL)   /**< Single pin mask for drive mode in CF
 287:Generated_Source\PSoC6\pdl\drivers/peripheral/gpio/cy_gpio.h **** #define CY_GPIO_CFG_IN_VTRIP_SEL_MASK          (0x01UL)   /**< Single pin mask for VTRIP selection 
 288:Generated_Source\PSoC6\pdl\drivers/peripheral/gpio/cy_gpio.h **** #define CY_GPIO_CFG_OUT_SLOW_MASK              (0x01UL)   /**< Single pin mask for slew rate in CFG
 289:Generated_Source\PSoC6\pdl\drivers/peripheral/gpio/cy_gpio.h **** #define CY_GPIO_CFG_OUT_DRIVE_SEL_MASK         (0x03UL)   /**< Single pin mask for drive strength i
 290:Generated_Source\PSoC6\pdl\drivers/peripheral/gpio/cy_gpio.h **** #define CY_GPIO_INTR_STATUS_MASK               (0x01UL)   /**< Single pin mask for interrupt status
 291:Generated_Source\PSoC6\pdl\drivers/peripheral/gpio/cy_gpio.h **** #define CY_GPIO_INTR_EN_MASK                   (0x01UL)   /**< Single pin mask for interrupt status
 292:Generated_Source\PSoC6\pdl\drivers/peripheral/gpio/cy_gpio.h **** #define CY_GPIO_INTR_MASKED_MASK               (0x01UL)   /**< Single pin mask for masked interrupt
 293:Generated_Source\PSoC6\pdl\drivers/peripheral/gpio/cy_gpio.h **** #define CY_GPIO_INTR_SET_MASK                  (0x01UL)   /**< Single pin mask for setting the inte
 294:Generated_Source\PSoC6\pdl\drivers/peripheral/gpio/cy_gpio.h **** #define CY_GPIO_INTR_EDGE_MASK                 (0x03UL)   /**< Single pin mask for interrupt edge t
 295:Generated_Source\PSoC6\pdl\drivers/peripheral/gpio/cy_gpio.h **** #define CY_GPIO_INTR_FLT_EDGE_MASK             (0x07UL)   /**< Single pin mask for setting filtered
 296:Generated_Source\PSoC6\pdl\drivers/peripheral/gpio/cy_gpio.h **** 
 297:Generated_Source\PSoC6\pdl\drivers/peripheral/gpio/cy_gpio.h **** /* SIO Masks */
 298:Generated_Source\PSoC6\pdl\drivers/peripheral/gpio/cy_gpio.h **** #define CY_GPIO_VREG_EN_MASK                   (0x01UL)   /**< Single SIO pin mask for voltage regu
 299:Generated_Source\PSoC6\pdl\drivers/peripheral/gpio/cy_gpio.h **** #define CY_GPIO_IBUF_MASK                      (0x01UL)   /**< Single SIO pin mask for input buffer
 300:Generated_Source\PSoC6\pdl\drivers/peripheral/gpio/cy_gpio.h **** #define CY_GPIO_IBUF_SHIFT                     (0x01UL)   /**< Single SIO pin shift for input buffe
 301:Generated_Source\PSoC6\pdl\drivers/peripheral/gpio/cy_gpio.h **** #define CY_GPIO_VTRIP_SEL_MASK                 (0x01UL)   /**< Single SIO pin mask for the input bu
 302:Generated_Source\PSoC6\pdl\drivers/peripheral/gpio/cy_gpio.h **** #define CY_GPIO_VTRIP_SEL_SHIFT                (0x02UL)   /**< Single SIO pin shift for the input b
 303:Generated_Source\PSoC6\pdl\drivers/peripheral/gpio/cy_gpio.h **** #define CY_GPIO_VREF_SEL_MASK                  (0x03UL)   /**< Single SIO pin mask for voltage refe
 304:Generated_Source\PSoC6\pdl\drivers/peripheral/gpio/cy_gpio.h **** #define CY_GPIO_VREF_SEL_SHIFT                 (0x03UL)   /**< Single SIO pin shift for voltage ref
 305:Generated_Source\PSoC6\pdl\drivers/peripheral/gpio/cy_gpio.h **** #define CY_GPIO_VOH_SEL_MASK                   (0x07UL)   /**< Single SIO pin mask for VOH */
 306:Generated_Source\PSoC6\pdl\drivers/peripheral/gpio/cy_gpio.h **** #define CY_GPIO_VOH_SEL_SHIFT                  (0x05UL)   /**< Single SIO pin shift for VOH */
 307:Generated_Source\PSoC6\pdl\drivers/peripheral/gpio/cy_gpio.h **** 
 308:Generated_Source\PSoC6\pdl\drivers/peripheral/gpio/cy_gpio.h **** /* Special mask for SIO pin pair setting */
 309:Generated_Source\PSoC6\pdl\drivers/peripheral/gpio/cy_gpio.h **** #define CY_GPIO_SIO_ODD_PIN_MASK               (0x00FEUL) /**< SIO pin pair selection mask */
 310:Generated_Source\PSoC6\pdl\drivers/peripheral/gpio/cy_gpio.h **** #define CY_GPIO_SIO_PIN_MASK                   (0x00FFUL) /**< SIO pin pair mask */
 311:Generated_Source\PSoC6\pdl\drivers/peripheral/gpio/cy_gpio.h **** 
 312:Generated_Source\PSoC6\pdl\drivers/peripheral/gpio/cy_gpio.h **** /* Offsets */
 313:Generated_Source\PSoC6\pdl\drivers/peripheral/gpio/cy_gpio.h **** #define CY_GPIO_HSIOM_OFFSET                   (3UL)      /**< Offset for HSIOM */
 314:Generated_Source\PSoC6\pdl\drivers/peripheral/gpio/cy_gpio.h **** #define CY_GPIO_DRIVE_MODE_OFFSET              (2UL)      /**< Offset for Drive mode */
 315:Generated_Source\PSoC6\pdl\drivers/peripheral/gpio/cy_gpio.h **** #define CY_GPIO_INBUF_OFFSET                   (3UL)      /**< Offset for input buffer */
 316:Generated_Source\PSoC6\pdl\drivers/peripheral/gpio/cy_gpio.h **** #define CY_GPIO_CFG_OUT_DRIVE_OFFSET           (16UL)     /**< Offset for drive strength */
 317:Generated_Source\PSoC6\pdl\drivers/peripheral/gpio/cy_gpio.h **** #define CY_GPIO_INTR_CFG_OFFSET                (1UL)      /**< Offset for interrupt config */
 318:Generated_Source\PSoC6\pdl\drivers/peripheral/gpio/cy_gpio.h **** #define CY_GPIO_INTR_FILT_OFFSET               (18UL)     /**< Offset for filtered interrupt config
 319:Generated_Source\PSoC6\pdl\drivers/peripheral/gpio/cy_gpio.h **** #define CY_GPIO_CFG_SIO_OFFSET                 (2UL)      /**< Offset for SIO config */
 320:Generated_Source\PSoC6\pdl\drivers/peripheral/gpio/cy_gpio.h **** 
 321:Generated_Source\PSoC6\pdl\drivers/peripheral/gpio/cy_gpio.h **** /* Parameter validation constants */
 322:Generated_Source\PSoC6\pdl\drivers/peripheral/gpio/cy_gpio.h **** #define CY_GPIO_PINS_MAX                       (8UL)      /**< Number of pins in the port */
 323:Generated_Source\PSoC6\pdl\drivers/peripheral/gpio/cy_gpio.h **** #define CY_GPIO_PRT_PINS_MASK                  (0x0000000FFUL)
 324:Generated_Source\PSoC6\pdl\drivers/peripheral/gpio/cy_gpio.h **** #define CY_GPIO_PRT_INTR_CFG_EDGE_SEL_MASK     (GPIO_PRT_INTR_CFG_EDGE0_SEL_Msk | \
 325:Generated_Source\PSoC6\pdl\drivers/peripheral/gpio/cy_gpio.h ****                                                 GPIO_PRT_INTR_CFG_EDGE1_SEL_Msk | \
 326:Generated_Source\PSoC6\pdl\drivers/peripheral/gpio/cy_gpio.h ****                                                 GPIO_PRT_INTR_CFG_EDGE2_SEL_Msk | \
 327:Generated_Source\PSoC6\pdl\drivers/peripheral/gpio/cy_gpio.h ****                                                 GPIO_PRT_INTR_CFG_EDGE3_SEL_Msk | \
 328:Generated_Source\PSoC6\pdl\drivers/peripheral/gpio/cy_gpio.h ****                                                 GPIO_PRT_INTR_CFG_EDGE4_SEL_Msk | \
 329:Generated_Source\PSoC6\pdl\drivers/peripheral/gpio/cy_gpio.h ****                                                 GPIO_PRT_INTR_CFG_EDGE5_SEL_Msk | \
 330:Generated_Source\PSoC6\pdl\drivers/peripheral/gpio/cy_gpio.h ****                                                 GPIO_PRT_INTR_CFG_EDGE6_SEL_Msk | \
 331:Generated_Source\PSoC6\pdl\drivers/peripheral/gpio/cy_gpio.h ****                                                 GPIO_PRT_INTR_CFG_EDGE7_SEL_Msk)
 332:Generated_Source\PSoC6\pdl\drivers/peripheral/gpio/cy_gpio.h **** #define CY_GPIO_PRT_INTR_CFG_RANGE_MASK        (CY_GPIO_PRT_INTR_CFG_EDGE_SEL_MASK | \
ARM GAS  C:\Users\dev\AppData\Local\Temp\ccC4nFKO.s 			page 25


 333:Generated_Source\PSoC6\pdl\drivers/peripheral/gpio/cy_gpio.h ****                                                 GPIO_PRT_INTR_CFG_FLT_EDGE_SEL_Msk | \
 334:Generated_Source\PSoC6\pdl\drivers/peripheral/gpio/cy_gpio.h ****                                                 GPIO_PRT_INTR_CFG_FLT_SEL_Msk)
 335:Generated_Source\PSoC6\pdl\drivers/peripheral/gpio/cy_gpio.h **** #define CY_GPIO_PRT_INT_MASK_MASK              (0x0000001FFUL)
 336:Generated_Source\PSoC6\pdl\drivers/peripheral/gpio/cy_gpio.h **** #define CY_GPIO_PRT_SEL_ACTIVE_MASK            (0x1FFFFFFFUL)
 337:Generated_Source\PSoC6\pdl\drivers/peripheral/gpio/cy_gpio.h **** 
 338:Generated_Source\PSoC6\pdl\drivers/peripheral/gpio/cy_gpio.h **** #define GPIO_MAX_SPLIT_CELL_SEGMENTS           (9U)
 339:Generated_Source\PSoC6\pdl\drivers/peripheral/gpio/cy_gpio.h **** 
 340:Generated_Source\PSoC6\pdl\drivers/peripheral/gpio/cy_gpio.h **** /* Parameter validation macros */
 341:Generated_Source\PSoC6\pdl\drivers/peripheral/gpio/cy_gpio.h **** #define CY_GPIO_IS_PIN_VALID(pinNum)           (CY_GPIO_PINS_MAX > (pinNum))
 342:Generated_Source\PSoC6\pdl\drivers/peripheral/gpio/cy_gpio.h **** #define CY_GPIO_IS_FILTER_PIN_VALID(pinNum)    (CY_GPIO_PINS_MAX >= (pinNum))
 343:Generated_Source\PSoC6\pdl\drivers/peripheral/gpio/cy_gpio.h **** #define CY_GPIO_IS_VALUE_VALID(outVal)         (1UL >= (outVal))
 344:Generated_Source\PSoC6\pdl\drivers/peripheral/gpio/cy_gpio.h **** #define CY_GPIO_IS_DM_VALID(driveMode)         (0U == ((driveMode) & (uint32_t)~CY_GPIO_CFG_DM_MASK
 345:Generated_Source\PSoC6\pdl\drivers/peripheral/gpio/cy_gpio.h **** 
 346:Generated_Source\PSoC6\pdl\drivers/peripheral/gpio/cy_gpio.h **** #define CY_GPIO_IS_HSIOM_VALID(hsiom)          (0U == ((hsiom) & (uint32_t)~CY_GPIO_HSIOM_MASK))
 347:Generated_Source\PSoC6\pdl\drivers/peripheral/gpio/cy_gpio.h **** 
 348:Generated_Source\PSoC6\pdl\drivers/peripheral/gpio/cy_gpio.h **** #define CY_GPIO_IS_INT_EDGE_VALID(intEdge)     ((CY_GPIO_INTR_DISABLE  == (intEdge)) || \
 349:Generated_Source\PSoC6\pdl\drivers/peripheral/gpio/cy_gpio.h ****                                                 (CY_GPIO_INTR_RISING   == (intEdge)) || \
 350:Generated_Source\PSoC6\pdl\drivers/peripheral/gpio/cy_gpio.h ****                                                 (CY_GPIO_INTR_FALLING  == (intEdge)) || \
 351:Generated_Source\PSoC6\pdl\drivers/peripheral/gpio/cy_gpio.h ****                                                 (CY_GPIO_INTR_BOTH     == (intEdge)))
 352:Generated_Source\PSoC6\pdl\drivers/peripheral/gpio/cy_gpio.h **** 
 353:Generated_Source\PSoC6\pdl\drivers/peripheral/gpio/cy_gpio.h **** #define CY_GPIO_IS_DRIVE_SEL_VALID(driveSel)   ((CY_GPIO_DRIVE_FULL    == (driveSel)) || \
 354:Generated_Source\PSoC6\pdl\drivers/peripheral/gpio/cy_gpio.h ****                                                 (CY_GPIO_DRIVE_1_2     == (driveSel)) || \
 355:Generated_Source\PSoC6\pdl\drivers/peripheral/gpio/cy_gpio.h ****                                                 (CY_GPIO_DRIVE_1_4     == (driveSel)) || \
 356:Generated_Source\PSoC6\pdl\drivers/peripheral/gpio/cy_gpio.h ****                                                 (CY_GPIO_DRIVE_1_8     == (driveSel)))
 357:Generated_Source\PSoC6\pdl\drivers/peripheral/gpio/cy_gpio.h **** 
 358:Generated_Source\PSoC6\pdl\drivers/peripheral/gpio/cy_gpio.h **** #define CY_GPIO_IS_VREF_SEL_VALID(vrefSel)     ((CY_SIO_VREF_PINREF    == (vrefSel)) || \
 359:Generated_Source\PSoC6\pdl\drivers/peripheral/gpio/cy_gpio.h ****                                                 (CY_SIO_VREF_1_2V      == (vrefSel)) || \
 360:Generated_Source\PSoC6\pdl\drivers/peripheral/gpio/cy_gpio.h ****                                                 (CY_SIO_VREF_AMUX_A    == (vrefSel)) || \
 361:Generated_Source\PSoC6\pdl\drivers/peripheral/gpio/cy_gpio.h ****                                                 (CY_SIO_VREF_AMUX_B    == (vrefSel)))
 362:Generated_Source\PSoC6\pdl\drivers/peripheral/gpio/cy_gpio.h **** 
 363:Generated_Source\PSoC6\pdl\drivers/peripheral/gpio/cy_gpio.h **** #define CY_GPIO_IS_VOH_SEL_VALID(vrefSel)      ((CY_SIO_VOH_1_00       == (vrefSel)) || \
 364:Generated_Source\PSoC6\pdl\drivers/peripheral/gpio/cy_gpio.h ****                                                 (CY_SIO_VOH_1_25       == (vrefSel)) || \
 365:Generated_Source\PSoC6\pdl\drivers/peripheral/gpio/cy_gpio.h ****                                                 (CY_SIO_VOH_1_49       == (vrefSel)) || \
 366:Generated_Source\PSoC6\pdl\drivers/peripheral/gpio/cy_gpio.h ****                                                 (CY_SIO_VOH_1_67       == (vrefSel)) || \
 367:Generated_Source\PSoC6\pdl\drivers/peripheral/gpio/cy_gpio.h ****                                                 (CY_SIO_VOH_2_08       == (vrefSel)) || \
 368:Generated_Source\PSoC6\pdl\drivers/peripheral/gpio/cy_gpio.h ****                                                 (CY_SIO_VOH_2_50       == (vrefSel)) || \
 369:Generated_Source\PSoC6\pdl\drivers/peripheral/gpio/cy_gpio.h ****                                                 (CY_SIO_VOH_2_78       == (vrefSel)) || \
 370:Generated_Source\PSoC6\pdl\drivers/peripheral/gpio/cy_gpio.h ****                                                 (CY_SIO_VOH_4_16       == (vrefSel)))
 371:Generated_Source\PSoC6\pdl\drivers/peripheral/gpio/cy_gpio.h ****                    
 372:Generated_Source\PSoC6\pdl\drivers/peripheral/gpio/cy_gpio.h **** #define CY_GPIO_IS_PIN_BIT_VALID(pinBit)       (0U == ((pinBit) & (uint32_t)~CY_GPIO_PRT_PINS_MASK)
 373:Generated_Source\PSoC6\pdl\drivers/peripheral/gpio/cy_gpio.h **** #define CY_GPIO_IS_INTR_CFG_VALID(intrCfg)     (0U == ((intrCfg) & (uint32_t)~CY_GPIO_PRT_INTR_CFG_
 374:Generated_Source\PSoC6\pdl\drivers/peripheral/gpio/cy_gpio.h **** #define CY_GPIO_IS_INTR_MASK_VALID(intrMask)   (0U == ((intrMask) & (uint32_t)~CY_GPIO_PRT_INT_MASK
 375:Generated_Source\PSoC6\pdl\drivers/peripheral/gpio/cy_gpio.h **** #define CY_GPIO_IS_SEL_ACT_VALID(selActive)    (0U == ((selActive) & (uint32_t)~CY_GPIO_PRT_SEL_ACT
 376:Generated_Source\PSoC6\pdl\drivers/peripheral/gpio/cy_gpio.h **** 
 377:Generated_Source\PSoC6\pdl\drivers/peripheral/gpio/cy_gpio.h **** #define CY_GPIO_IS_AMUX_SPLIT_VALID(switchCtrl)       (((uint32_t) (switchCtrl)) < GPIO_MAX_SPLIT_C
 378:Generated_Source\PSoC6\pdl\drivers/peripheral/gpio/cy_gpio.h **** 
 379:Generated_Source\PSoC6\pdl\drivers/peripheral/gpio/cy_gpio.h **** #define CY_GPIO_IS_AMUX_CONNECT_VALID(amuxConnect)    ((CY_GPIO_AMUX_OPENALL == (amuxConnect)) || \
 380:Generated_Source\PSoC6\pdl\drivers/peripheral/gpio/cy_gpio.h ****                                                        (CY_GPIO_AMUX_L       == (amuxConnect)) || \
 381:Generated_Source\PSoC6\pdl\drivers/peripheral/gpio/cy_gpio.h ****                                                        (CY_GPIO_AMUX_R       == (amuxConnect)) || \
 382:Generated_Source\PSoC6\pdl\drivers/peripheral/gpio/cy_gpio.h ****                                                        (CY_GPIO_AMUX_LR      == (amuxConnect)) || \
 383:Generated_Source\PSoC6\pdl\drivers/peripheral/gpio/cy_gpio.h ****                                                        (CY_GPIO_AMUX_G       == (amuxConnect)) || \
 384:Generated_Source\PSoC6\pdl\drivers/peripheral/gpio/cy_gpio.h ****                                                        (CY_GPIO_AMUX_GL      == (amuxConnect)) || \
 385:Generated_Source\PSoC6\pdl\drivers/peripheral/gpio/cy_gpio.h ****                                                        (CY_GPIO_AMUX_GR      == (amuxConnect)) || \
 386:Generated_Source\PSoC6\pdl\drivers/peripheral/gpio/cy_gpio.h ****                                                        (CY_GPIO_AMUX_GLR     == (amuxConnect)))
 387:Generated_Source\PSoC6\pdl\drivers/peripheral/gpio/cy_gpio.h **** 
 388:Generated_Source\PSoC6\pdl\drivers/peripheral/gpio/cy_gpio.h **** #define CY_GPIO_IS_AMUX_SELECT_VALID(amuxBus)       ((CY_GPIO_AMUXBUSA       == (amuxBus)) || \
 389:Generated_Source\PSoC6\pdl\drivers/peripheral/gpio/cy_gpio.h ****                                                      (CY_GPIO_AMUXBUSB       == (amuxBus)))
ARM GAS  C:\Users\dev\AppData\Local\Temp\ccC4nFKO.s 			page 26


 390:Generated_Source\PSoC6\pdl\drivers/peripheral/gpio/cy_gpio.h **** /** \endcond */
 391:Generated_Source\PSoC6\pdl\drivers/peripheral/gpio/cy_gpio.h **** 
 392:Generated_Source\PSoC6\pdl\drivers/peripheral/gpio/cy_gpio.h **** 
 393:Generated_Source\PSoC6\pdl\drivers/peripheral/gpio/cy_gpio.h **** /***************************************
 394:Generated_Source\PSoC6\pdl\drivers/peripheral/gpio/cy_gpio.h **** *        Function Constants
 395:Generated_Source\PSoC6\pdl\drivers/peripheral/gpio/cy_gpio.h **** ***************************************/
 396:Generated_Source\PSoC6\pdl\drivers/peripheral/gpio/cy_gpio.h **** 
 397:Generated_Source\PSoC6\pdl\drivers/peripheral/gpio/cy_gpio.h **** /**
 398:Generated_Source\PSoC6\pdl\drivers/peripheral/gpio/cy_gpio.h **** * \addtogroup group_gpio_macros
 399:Generated_Source\PSoC6\pdl\drivers/peripheral/gpio/cy_gpio.h **** * \{
 400:Generated_Source\PSoC6\pdl\drivers/peripheral/gpio/cy_gpio.h **** */
 401:Generated_Source\PSoC6\pdl\drivers/peripheral/gpio/cy_gpio.h **** 
 402:Generated_Source\PSoC6\pdl\drivers/peripheral/gpio/cy_gpio.h **** /**
 403:Generated_Source\PSoC6\pdl\drivers/peripheral/gpio/cy_gpio.h **** * \defgroup group_gpio_driveModes Pin drive mode
 404:Generated_Source\PSoC6\pdl\drivers/peripheral/gpio/cy_gpio.h **** * \{
 405:Generated_Source\PSoC6\pdl\drivers/peripheral/gpio/cy_gpio.h **** * Constants to be used for setting the drive mode of the pin.
 406:Generated_Source\PSoC6\pdl\drivers/peripheral/gpio/cy_gpio.h **** */
 407:Generated_Source\PSoC6\pdl\drivers/peripheral/gpio/cy_gpio.h **** #define CY_GPIO_DM_ANALOG                      (0x00UL) /**< Analog High-Z. Input buffer off */
 408:Generated_Source\PSoC6\pdl\drivers/peripheral/gpio/cy_gpio.h **** #define CY_GPIO_DM_PULLUP_IN_OFF               (0x02UL) /**< Resistive Pull-Up. Input buffer off */
 409:Generated_Source\PSoC6\pdl\drivers/peripheral/gpio/cy_gpio.h **** #define CY_GPIO_DM_PULLDOWN_IN_OFF             (0x03UL) /**< Resistive Pull-Down. Input buffer off 
 410:Generated_Source\PSoC6\pdl\drivers/peripheral/gpio/cy_gpio.h **** #define CY_GPIO_DM_OD_DRIVESLOW_IN_OFF         (0x04UL) /**< Open Drain, Drives Low. Input buffer o
 411:Generated_Source\PSoC6\pdl\drivers/peripheral/gpio/cy_gpio.h **** #define CY_GPIO_DM_OD_DRIVESHIGH_IN_OFF        (0x05UL) /**< Open Drain, Drives High. Input buffer 
 412:Generated_Source\PSoC6\pdl\drivers/peripheral/gpio/cy_gpio.h **** #define CY_GPIO_DM_STRONG_IN_OFF               (0x06UL) /**< Strong Drive. Input buffer off */
 413:Generated_Source\PSoC6\pdl\drivers/peripheral/gpio/cy_gpio.h **** #define CY_GPIO_DM_PULLUP_DOWN_IN_OFF          (0x07UL) /**< Resistive Pull-Up/Down. Input buffer o
 414:Generated_Source\PSoC6\pdl\drivers/peripheral/gpio/cy_gpio.h **** #define CY_GPIO_DM_HIGHZ                       (0x08UL) /**< Digital High-Z. Input buffer on */
 415:Generated_Source\PSoC6\pdl\drivers/peripheral/gpio/cy_gpio.h **** #define CY_GPIO_DM_PULLUP                      (0x0AUL) /**< Resistive Pull-Up. Input buffer on */
 416:Generated_Source\PSoC6\pdl\drivers/peripheral/gpio/cy_gpio.h **** #define CY_GPIO_DM_PULLDOWN                    (0x0BUL) /**< Resistive Pull-Down. Input buffer on *
 417:Generated_Source\PSoC6\pdl\drivers/peripheral/gpio/cy_gpio.h **** #define CY_GPIO_DM_OD_DRIVESLOW                (0x0CUL) /**< Open Drain, Drives Low. Input buffer o
 418:Generated_Source\PSoC6\pdl\drivers/peripheral/gpio/cy_gpio.h **** #define CY_GPIO_DM_OD_DRIVESHIGH               (0x0DUL) /**< Open Drain, Drives High. Input buffer 
 419:Generated_Source\PSoC6\pdl\drivers/peripheral/gpio/cy_gpio.h **** #define CY_GPIO_DM_STRONG                      (0x0EUL) /**< Strong Drive. Input buffer on */
 420:Generated_Source\PSoC6\pdl\drivers/peripheral/gpio/cy_gpio.h **** #define CY_GPIO_DM_PULLUP_DOWN                 (0x0FUL) /**< Resistive Pull-Up/Down. Input buffer o
 421:Generated_Source\PSoC6\pdl\drivers/peripheral/gpio/cy_gpio.h **** /** \} */
 422:Generated_Source\PSoC6\pdl\drivers/peripheral/gpio/cy_gpio.h **** 
 423:Generated_Source\PSoC6\pdl\drivers/peripheral/gpio/cy_gpio.h **** /**
 424:Generated_Source\PSoC6\pdl\drivers/peripheral/gpio/cy_gpio.h **** * \defgroup group_gpio_vtrip Voltage trip mode
 425:Generated_Source\PSoC6\pdl\drivers/peripheral/gpio/cy_gpio.h **** * \{
 426:Generated_Source\PSoC6\pdl\drivers/peripheral/gpio/cy_gpio.h **** * Constants to be used for setting the voltage trip type on the pin.
 427:Generated_Source\PSoC6\pdl\drivers/peripheral/gpio/cy_gpio.h **** */
 428:Generated_Source\PSoC6\pdl\drivers/peripheral/gpio/cy_gpio.h **** #define CY_GPIO_VTRIP_CMOS                     (0x00UL) /**< Input buffer compatible with CMOS and 
 429:Generated_Source\PSoC6\pdl\drivers/peripheral/gpio/cy_gpio.h **** #define CY_GPIO_VTRIP_TTL                      (0x01UL) /**< Input buffer compatible with TTL and M
 430:Generated_Source\PSoC6\pdl\drivers/peripheral/gpio/cy_gpio.h **** /** \} */
 431:Generated_Source\PSoC6\pdl\drivers/peripheral/gpio/cy_gpio.h **** 
 432:Generated_Source\PSoC6\pdl\drivers/peripheral/gpio/cy_gpio.h **** /**
 433:Generated_Source\PSoC6\pdl\drivers/peripheral/gpio/cy_gpio.h **** * \defgroup group_gpio_slewRate Slew Rate Mode
 434:Generated_Source\PSoC6\pdl\drivers/peripheral/gpio/cy_gpio.h **** * \{
 435:Generated_Source\PSoC6\pdl\drivers/peripheral/gpio/cy_gpio.h **** * Constants to be used for setting the slew rate of the pin.
 436:Generated_Source\PSoC6\pdl\drivers/peripheral/gpio/cy_gpio.h **** */
 437:Generated_Source\PSoC6\pdl\drivers/peripheral/gpio/cy_gpio.h **** #define CY_GPIO_SLEW_FAST                      (0x00UL) /**< Fast slew rate */
 438:Generated_Source\PSoC6\pdl\drivers/peripheral/gpio/cy_gpio.h **** #define CY_GPIO_SLEW_SLOW                      (0x01UL) /**< Slow slew rate */
 439:Generated_Source\PSoC6\pdl\drivers/peripheral/gpio/cy_gpio.h **** /** \} */
 440:Generated_Source\PSoC6\pdl\drivers/peripheral/gpio/cy_gpio.h **** 
 441:Generated_Source\PSoC6\pdl\drivers/peripheral/gpio/cy_gpio.h **** /**
 442:Generated_Source\PSoC6\pdl\drivers/peripheral/gpio/cy_gpio.h **** * \defgroup group_gpio_driveStrength Pin drive strength
 443:Generated_Source\PSoC6\pdl\drivers/peripheral/gpio/cy_gpio.h **** * \{
 444:Generated_Source\PSoC6\pdl\drivers/peripheral/gpio/cy_gpio.h **** * Constants to be used for setting the drive strength of the pin.
 445:Generated_Source\PSoC6\pdl\drivers/peripheral/gpio/cy_gpio.h **** */
 446:Generated_Source\PSoC6\pdl\drivers/peripheral/gpio/cy_gpio.h **** #define CY_GPIO_DRIVE_FULL                     (0x00UL) /**< Full drive strength: Max drive current
ARM GAS  C:\Users\dev\AppData\Local\Temp\ccC4nFKO.s 			page 27


 447:Generated_Source\PSoC6\pdl\drivers/peripheral/gpio/cy_gpio.h **** #define CY_GPIO_DRIVE_1_2                      (0x01UL) /**< 1/2 drive strength: 1/2 drive current 
 448:Generated_Source\PSoC6\pdl\drivers/peripheral/gpio/cy_gpio.h **** #define CY_GPIO_DRIVE_1_4                      (0x02UL) /**< 1/4 drive strength: 1/4 drive current 
 449:Generated_Source\PSoC6\pdl\drivers/peripheral/gpio/cy_gpio.h **** #define CY_GPIO_DRIVE_1_8                      (0x03UL) /**< 1/8 drive strength: 1/8 drive current 
 450:Generated_Source\PSoC6\pdl\drivers/peripheral/gpio/cy_gpio.h **** /** \} */
 451:Generated_Source\PSoC6\pdl\drivers/peripheral/gpio/cy_gpio.h **** 
 452:Generated_Source\PSoC6\pdl\drivers/peripheral/gpio/cy_gpio.h **** /**
 453:Generated_Source\PSoC6\pdl\drivers/peripheral/gpio/cy_gpio.h **** * \defgroup group_gpio_interruptTrigger Interrupt trigger type
 454:Generated_Source\PSoC6\pdl\drivers/peripheral/gpio/cy_gpio.h **** * \{
 455:Generated_Source\PSoC6\pdl\drivers/peripheral/gpio/cy_gpio.h **** * Constants to be used for setting the interrupt trigger type on the pin.
 456:Generated_Source\PSoC6\pdl\drivers/peripheral/gpio/cy_gpio.h **** */
 457:Generated_Source\PSoC6\pdl\drivers/peripheral/gpio/cy_gpio.h **** #define CY_GPIO_INTR_DISABLE                   (0x00UL) /**< Disable the pin interrupt generation *
 458:Generated_Source\PSoC6\pdl\drivers/peripheral/gpio/cy_gpio.h **** #define CY_GPIO_INTR_RISING                    (0x01UL) /**< Rising-Edge interrupt */
 459:Generated_Source\PSoC6\pdl\drivers/peripheral/gpio/cy_gpio.h **** #define CY_GPIO_INTR_FALLING                   (0x02UL) /**< Falling-Edge interrupt */
 460:Generated_Source\PSoC6\pdl\drivers/peripheral/gpio/cy_gpio.h **** #define CY_GPIO_INTR_BOTH                      (0x03UL) /**< Both-Edge interrupt */
 461:Generated_Source\PSoC6\pdl\drivers/peripheral/gpio/cy_gpio.h **** /** \} */
 462:Generated_Source\PSoC6\pdl\drivers/peripheral/gpio/cy_gpio.h **** 
 463:Generated_Source\PSoC6\pdl\drivers/peripheral/gpio/cy_gpio.h **** /**
 464:Generated_Source\PSoC6\pdl\drivers/peripheral/gpio/cy_gpio.h **** * \defgroup group_gpio_sioVreg SIO output buffer mode
 465:Generated_Source\PSoC6\pdl\drivers/peripheral/gpio/cy_gpio.h **** * \{
 466:Generated_Source\PSoC6\pdl\drivers/peripheral/gpio/cy_gpio.h **** * Constants to be used for setting the SIO output buffer mode on the pin.
 467:Generated_Source\PSoC6\pdl\drivers/peripheral/gpio/cy_gpio.h **** */
 468:Generated_Source\PSoC6\pdl\drivers/peripheral/gpio/cy_gpio.h **** #define CY_SIO_VREG_UNREGULATED                (0x00UL) /**< Unregulated output buffer */
 469:Generated_Source\PSoC6\pdl\drivers/peripheral/gpio/cy_gpio.h **** #define CY_SIO_VREG_REGULATED                  (0x01UL) /**< Regulated output buffer */
 470:Generated_Source\PSoC6\pdl\drivers/peripheral/gpio/cy_gpio.h **** /** \} */
 471:Generated_Source\PSoC6\pdl\drivers/peripheral/gpio/cy_gpio.h **** 
 472:Generated_Source\PSoC6\pdl\drivers/peripheral/gpio/cy_gpio.h **** /**
 473:Generated_Source\PSoC6\pdl\drivers/peripheral/gpio/cy_gpio.h **** * \defgroup group_gpio_sioIbuf SIO input buffer mode
 474:Generated_Source\PSoC6\pdl\drivers/peripheral/gpio/cy_gpio.h **** * \{
 475:Generated_Source\PSoC6\pdl\drivers/peripheral/gpio/cy_gpio.h **** * Constants to be used for setting the SIO input buffer mode on the pin.
 476:Generated_Source\PSoC6\pdl\drivers/peripheral/gpio/cy_gpio.h **** */
 477:Generated_Source\PSoC6\pdl\drivers/peripheral/gpio/cy_gpio.h **** #define CY_SIO_IBUF_SINGLEENDED                (0x00UL) /**< Single ended input buffer */
 478:Generated_Source\PSoC6\pdl\drivers/peripheral/gpio/cy_gpio.h **** #define CY_SIO_IBUF_DIFFERENTIAL               (0x01UL) /**< Differential input buffer */
 479:Generated_Source\PSoC6\pdl\drivers/peripheral/gpio/cy_gpio.h **** /** \} */
 480:Generated_Source\PSoC6\pdl\drivers/peripheral/gpio/cy_gpio.h **** 
 481:Generated_Source\PSoC6\pdl\drivers/peripheral/gpio/cy_gpio.h **** /**
 482:Generated_Source\PSoC6\pdl\drivers/peripheral/gpio/cy_gpio.h **** * \defgroup group_gpio_sioVtrip SIO input buffer trip-point
 483:Generated_Source\PSoC6\pdl\drivers/peripheral/gpio/cy_gpio.h **** * \{
 484:Generated_Source\PSoC6\pdl\drivers/peripheral/gpio/cy_gpio.h **** * Constants to be used for setting the SIO input buffer trip-point of the pin.
 485:Generated_Source\PSoC6\pdl\drivers/peripheral/gpio/cy_gpio.h **** */
 486:Generated_Source\PSoC6\pdl\drivers/peripheral/gpio/cy_gpio.h **** #define CY_SIO_VTRIP_CMOS                      (0x00UL) /**< CMOS input buffer (single-ended) */
 487:Generated_Source\PSoC6\pdl\drivers/peripheral/gpio/cy_gpio.h **** #define CY_SIO_VTRIP_TTL                       (0x01UL) /**< TTL input buffer (single-ended) */
 488:Generated_Source\PSoC6\pdl\drivers/peripheral/gpio/cy_gpio.h **** #define CY_SIO_VTRIP_0_5VDDIO_0_5VOH           (0x00UL) /**< 0.5xVddio or 0.5xVoh (differential) */
 489:Generated_Source\PSoC6\pdl\drivers/peripheral/gpio/cy_gpio.h **** #define CY_SIO_VTRIP_0_4VDDIO_1_0VREF          (0x01UL) /**< 0.4xVddio or 0.4xVoh (differential) */
 490:Generated_Source\PSoC6\pdl\drivers/peripheral/gpio/cy_gpio.h **** /** \} */
 491:Generated_Source\PSoC6\pdl\drivers/peripheral/gpio/cy_gpio.h **** 
 492:Generated_Source\PSoC6\pdl\drivers/peripheral/gpio/cy_gpio.h **** /**
 493:Generated_Source\PSoC6\pdl\drivers/peripheral/gpio/cy_gpio.h **** * \defgroup group_gpio_sioVref SIO reference voltage for input buffer trip-point
 494:Generated_Source\PSoC6\pdl\drivers/peripheral/gpio/cy_gpio.h **** * \{
 495:Generated_Source\PSoC6\pdl\drivers/peripheral/gpio/cy_gpio.h **** * Constants to be used for setting the reference voltage of SIO input buffer trip-point.
 496:Generated_Source\PSoC6\pdl\drivers/peripheral/gpio/cy_gpio.h **** */
 497:Generated_Source\PSoC6\pdl\drivers/peripheral/gpio/cy_gpio.h **** #define CY_SIO_VREF_PINREF                     (0x00UL) /**< Vref from analog pin */
 498:Generated_Source\PSoC6\pdl\drivers/peripheral/gpio/cy_gpio.h **** #define CY_SIO_VREF_1_2V                       (0x01UL) /**< Vref from internal 1.2V reference */
 499:Generated_Source\PSoC6\pdl\drivers/peripheral/gpio/cy_gpio.h **** #define CY_SIO_VREF_AMUX_A                     (0x02UL) /**< Vref from AMUXBUS_A */
 500:Generated_Source\PSoC6\pdl\drivers/peripheral/gpio/cy_gpio.h **** #define CY_SIO_VREF_AMUX_B                     (0x03UL) /**< Vref from AMUXBUS_B */
 501:Generated_Source\PSoC6\pdl\drivers/peripheral/gpio/cy_gpio.h **** /** \} */
 502:Generated_Source\PSoC6\pdl\drivers/peripheral/gpio/cy_gpio.h **** 
 503:Generated_Source\PSoC6\pdl\drivers/peripheral/gpio/cy_gpio.h **** /**
ARM GAS  C:\Users\dev\AppData\Local\Temp\ccC4nFKO.s 			page 28


 504:Generated_Source\PSoC6\pdl\drivers/peripheral/gpio/cy_gpio.h **** * \defgroup group_gpio_sioVoh Regulated output voltage level (Voh) and input buffer trip-point of a
 505:Generated_Source\PSoC6\pdl\drivers/peripheral/gpio/cy_gpio.h **** * \{
 506:Generated_Source\PSoC6\pdl\drivers/peripheral/gpio/cy_gpio.h **** * Constants to be used for setting the Voh and input buffer trip-point of an SIO pair
 507:Generated_Source\PSoC6\pdl\drivers/peripheral/gpio/cy_gpio.h **** */
 508:Generated_Source\PSoC6\pdl\drivers/peripheral/gpio/cy_gpio.h **** #define CY_SIO_VOH_1_00                        (0x00UL) /**< Voh = 1 x Reference */
 509:Generated_Source\PSoC6\pdl\drivers/peripheral/gpio/cy_gpio.h **** #define CY_SIO_VOH_1_25                        (0x01UL) /**< Voh = 1.25 x Reference */
 510:Generated_Source\PSoC6\pdl\drivers/peripheral/gpio/cy_gpio.h **** #define CY_SIO_VOH_1_49                        (0x02UL) /**< Voh = 1.49 x Reference */
 511:Generated_Source\PSoC6\pdl\drivers/peripheral/gpio/cy_gpio.h **** #define CY_SIO_VOH_1_67                        (0x03UL) /**< Voh = 1.67 x Reference */
 512:Generated_Source\PSoC6\pdl\drivers/peripheral/gpio/cy_gpio.h **** #define CY_SIO_VOH_2_08                        (0x04UL) /**< Voh = 2.08 x Reference */
 513:Generated_Source\PSoC6\pdl\drivers/peripheral/gpio/cy_gpio.h **** #define CY_SIO_VOH_2_50                        (0x05UL) /**< Voh = 2.50 x Reference */
 514:Generated_Source\PSoC6\pdl\drivers/peripheral/gpio/cy_gpio.h **** #define CY_SIO_VOH_2_78                        (0x06UL) /**< Voh = 2.78 x Reference */
 515:Generated_Source\PSoC6\pdl\drivers/peripheral/gpio/cy_gpio.h **** #define CY_SIO_VOH_4_16                        (0x07UL) /**< Voh = 4.16 x Reference */
 516:Generated_Source\PSoC6\pdl\drivers/peripheral/gpio/cy_gpio.h **** /** \} */
 517:Generated_Source\PSoC6\pdl\drivers/peripheral/gpio/cy_gpio.h **** 
 518:Generated_Source\PSoC6\pdl\drivers/peripheral/gpio/cy_gpio.h **** /** \} group_gpio_macros */
 519:Generated_Source\PSoC6\pdl\drivers/peripheral/gpio/cy_gpio.h **** 
 520:Generated_Source\PSoC6\pdl\drivers/peripheral/gpio/cy_gpio.h **** /***************************************
 521:Generated_Source\PSoC6\pdl\drivers/peripheral/gpio/cy_gpio.h **** *        Function Prototypes
 522:Generated_Source\PSoC6\pdl\drivers/peripheral/gpio/cy_gpio.h **** ***************************************/
 523:Generated_Source\PSoC6\pdl\drivers/peripheral/gpio/cy_gpio.h **** 
 524:Generated_Source\PSoC6\pdl\drivers/peripheral/gpio/cy_gpio.h **** /**
 525:Generated_Source\PSoC6\pdl\drivers/peripheral/gpio/cy_gpio.h **** * \addtogroup group_gpio_functions
 526:Generated_Source\PSoC6\pdl\drivers/peripheral/gpio/cy_gpio.h **** * \{
 527:Generated_Source\PSoC6\pdl\drivers/peripheral/gpio/cy_gpio.h **** */
 528:Generated_Source\PSoC6\pdl\drivers/peripheral/gpio/cy_gpio.h **** 
 529:Generated_Source\PSoC6\pdl\drivers/peripheral/gpio/cy_gpio.h **** /**
 530:Generated_Source\PSoC6\pdl\drivers/peripheral/gpio/cy_gpio.h **** * \addtogroup group_gpio_functions_init
 531:Generated_Source\PSoC6\pdl\drivers/peripheral/gpio/cy_gpio.h **** * \{
 532:Generated_Source\PSoC6\pdl\drivers/peripheral/gpio/cy_gpio.h **** */
 533:Generated_Source\PSoC6\pdl\drivers/peripheral/gpio/cy_gpio.h **** 
 534:Generated_Source\PSoC6\pdl\drivers/peripheral/gpio/cy_gpio.h **** cy_en_gpio_status_t Cy_GPIO_Pin_Init(GPIO_PRT_Type* base, uint32_t pinNum, const cy_stc_gpio_pin_co
 535:Generated_Source\PSoC6\pdl\drivers/peripheral/gpio/cy_gpio.h **** cy_en_gpio_status_t Cy_GPIO_Port_Init(GPIO_PRT_Type* base, const cy_stc_gpio_prt_config_t *config);
 536:Generated_Source\PSoC6\pdl\drivers/peripheral/gpio/cy_gpio.h **** void Cy_GPIO_Pin_FastInit(GPIO_PRT_Type* base, uint32_t pinNum, uint32_t driveMode, uint32_t outVal
 537:Generated_Source\PSoC6\pdl\drivers/peripheral/gpio/cy_gpio.h **** void Cy_GPIO_Port_Deinit(GPIO_PRT_Type* base);
 538:Generated_Source\PSoC6\pdl\drivers/peripheral/gpio/cy_gpio.h **** __STATIC_INLINE void Cy_GPIO_SetHSIOM(GPIO_PRT_Type* base, uint32_t pinNum, en_hsiom_sel_t value);
 539:Generated_Source\PSoC6\pdl\drivers/peripheral/gpio/cy_gpio.h **** __STATIC_INLINE en_hsiom_sel_t Cy_GPIO_GetHSIOM(GPIO_PRT_Type* base, uint32_t pinNum);
 540:Generated_Source\PSoC6\pdl\drivers/peripheral/gpio/cy_gpio.h **** __STATIC_INLINE GPIO_PRT_Type* Cy_GPIO_PortToAddr(uint32_t portNum);
 541:Generated_Source\PSoC6\pdl\drivers/peripheral/gpio/cy_gpio.h **** 
 542:Generated_Source\PSoC6\pdl\drivers/peripheral/gpio/cy_gpio.h **** /** \} group_gpio_functions_init */
 543:Generated_Source\PSoC6\pdl\drivers/peripheral/gpio/cy_gpio.h **** 
 544:Generated_Source\PSoC6\pdl\drivers/peripheral/gpio/cy_gpio.h **** /**
 545:Generated_Source\PSoC6\pdl\drivers/peripheral/gpio/cy_gpio.h **** * \addtogroup group_gpio_functions_gpio
 546:Generated_Source\PSoC6\pdl\drivers/peripheral/gpio/cy_gpio.h **** * \{
 547:Generated_Source\PSoC6\pdl\drivers/peripheral/gpio/cy_gpio.h **** */
 548:Generated_Source\PSoC6\pdl\drivers/peripheral/gpio/cy_gpio.h **** 
 549:Generated_Source\PSoC6\pdl\drivers/peripheral/gpio/cy_gpio.h **** void Cy_GPIO_SetAmuxSplit(cy_en_amux_split_t switchCtrl, cy_en_gpio_amuxconnect_t amuxConnect, cy_e
 550:Generated_Source\PSoC6\pdl\drivers/peripheral/gpio/cy_gpio.h **** cy_en_gpio_amuxconnect_t Cy_GPIO_GetAmuxSplit(cy_en_amux_split_t switchCtrl, cy_en_gpio_amuxselect_
 551:Generated_Source\PSoC6\pdl\drivers/peripheral/gpio/cy_gpio.h **** 
 552:Generated_Source\PSoC6\pdl\drivers/peripheral/gpio/cy_gpio.h **** __STATIC_INLINE uint32_t Cy_GPIO_Read(GPIO_PRT_Type* base, uint32_t pinNum);
 553:Generated_Source\PSoC6\pdl\drivers/peripheral/gpio/cy_gpio.h **** __STATIC_INLINE void Cy_GPIO_Write(GPIO_PRT_Type* base, uint32_t pinNum, uint32_t value);
 554:Generated_Source\PSoC6\pdl\drivers/peripheral/gpio/cy_gpio.h **** __STATIC_INLINE uint32_t Cy_GPIO_ReadOut(GPIO_PRT_Type* base, uint32_t pinNum);
 555:Generated_Source\PSoC6\pdl\drivers/peripheral/gpio/cy_gpio.h **** __STATIC_INLINE void Cy_GPIO_Set(GPIO_PRT_Type* base, uint32_t pinNum);
 556:Generated_Source\PSoC6\pdl\drivers/peripheral/gpio/cy_gpio.h **** __STATIC_INLINE void Cy_GPIO_Clr(GPIO_PRT_Type* base, uint32_t pinNum);
 557:Generated_Source\PSoC6\pdl\drivers/peripheral/gpio/cy_gpio.h **** __STATIC_INLINE void Cy_GPIO_Inv(GPIO_PRT_Type* base, uint32_t pinNum);
 558:Generated_Source\PSoC6\pdl\drivers/peripheral/gpio/cy_gpio.h **** __STATIC_INLINE void Cy_GPIO_SetDrivemode(GPIO_PRT_Type* base, uint32_t pinNum, uint32_t value);
 559:Generated_Source\PSoC6\pdl\drivers/peripheral/gpio/cy_gpio.h **** __STATIC_INLINE uint32_t Cy_GPIO_GetDrivemode(GPIO_PRT_Type* base, uint32_t pinNum);
 560:Generated_Source\PSoC6\pdl\drivers/peripheral/gpio/cy_gpio.h **** __STATIC_INLINE void Cy_GPIO_SetVtrip(GPIO_PRT_Type* base, uint32_t pinNum, uint32_t value);
ARM GAS  C:\Users\dev\AppData\Local\Temp\ccC4nFKO.s 			page 29


 561:Generated_Source\PSoC6\pdl\drivers/peripheral/gpio/cy_gpio.h **** __STATIC_INLINE uint32_t Cy_GPIO_GetVtrip(GPIO_PRT_Type* base, uint32_t pinNum);
 562:Generated_Source\PSoC6\pdl\drivers/peripheral/gpio/cy_gpio.h **** __STATIC_INLINE void Cy_GPIO_SetSlewRate(GPIO_PRT_Type* base, uint32_t pinNum, uint32_t value);
 563:Generated_Source\PSoC6\pdl\drivers/peripheral/gpio/cy_gpio.h **** __STATIC_INLINE uint32_t Cy_GPIO_GetSlewRate(GPIO_PRT_Type* base, uint32_t pinNum);
 564:Generated_Source\PSoC6\pdl\drivers/peripheral/gpio/cy_gpio.h **** __STATIC_INLINE void Cy_GPIO_SetDriveSel(GPIO_PRT_Type* base, uint32_t pinNum, uint32_t value);
 565:Generated_Source\PSoC6\pdl\drivers/peripheral/gpio/cy_gpio.h **** __STATIC_INLINE uint32_t Cy_GPIO_GetDriveSel(GPIO_PRT_Type* base, uint32_t pinNum);
 566:Generated_Source\PSoC6\pdl\drivers/peripheral/gpio/cy_gpio.h **** 
 567:Generated_Source\PSoC6\pdl\drivers/peripheral/gpio/cy_gpio.h **** /** \} group_gpio_functions_gpio */
 568:Generated_Source\PSoC6\pdl\drivers/peripheral/gpio/cy_gpio.h **** 
 569:Generated_Source\PSoC6\pdl\drivers/peripheral/gpio/cy_gpio.h **** /**
 570:Generated_Source\PSoC6\pdl\drivers/peripheral/gpio/cy_gpio.h **** * \addtogroup group_gpio_functions_sio
 571:Generated_Source\PSoC6\pdl\drivers/peripheral/gpio/cy_gpio.h **** * \{
 572:Generated_Source\PSoC6\pdl\drivers/peripheral/gpio/cy_gpio.h **** */
 573:Generated_Source\PSoC6\pdl\drivers/peripheral/gpio/cy_gpio.h **** 
 574:Generated_Source\PSoC6\pdl\drivers/peripheral/gpio/cy_gpio.h **** __STATIC_INLINE void Cy_GPIO_SetVregEn(GPIO_PRT_Type* base, uint32_t pinNum, uint32_t value);
 575:Generated_Source\PSoC6\pdl\drivers/peripheral/gpio/cy_gpio.h **** __STATIC_INLINE uint32_t Cy_GPIO_GetVregEn(GPIO_PRT_Type* base, uint32_t pinNum);
 576:Generated_Source\PSoC6\pdl\drivers/peripheral/gpio/cy_gpio.h **** __STATIC_INLINE void Cy_GPIO_SetIbufMode(GPIO_PRT_Type* base, uint32_t pinNum, uint32_t value);
 577:Generated_Source\PSoC6\pdl\drivers/peripheral/gpio/cy_gpio.h **** __STATIC_INLINE uint32_t Cy_GPIO_GetIbufMode(GPIO_PRT_Type* base, uint32_t pinNum);
 578:Generated_Source\PSoC6\pdl\drivers/peripheral/gpio/cy_gpio.h **** __STATIC_INLINE void Cy_GPIO_SetVtripSel(GPIO_PRT_Type* base, uint32_t pinNum, uint32_t value);
 579:Generated_Source\PSoC6\pdl\drivers/peripheral/gpio/cy_gpio.h **** __STATIC_INLINE uint32_t Cy_GPIO_GetVtripSel(GPIO_PRT_Type* base, uint32_t pinNum);
 580:Generated_Source\PSoC6\pdl\drivers/peripheral/gpio/cy_gpio.h **** __STATIC_INLINE void Cy_GPIO_SetVrefSel(GPIO_PRT_Type* base, uint32_t pinNum, uint32_t value);
 581:Generated_Source\PSoC6\pdl\drivers/peripheral/gpio/cy_gpio.h **** __STATIC_INLINE uint32_t Cy_GPIO_GetVrefSel(GPIO_PRT_Type* base, uint32_t pinNum);
 582:Generated_Source\PSoC6\pdl\drivers/peripheral/gpio/cy_gpio.h **** __STATIC_INLINE void Cy_GPIO_SetVohSel(GPIO_PRT_Type* base, uint32_t pinNum, uint32_t value);
 583:Generated_Source\PSoC6\pdl\drivers/peripheral/gpio/cy_gpio.h **** __STATIC_INLINE uint32_t Cy_GPIO_GetVohSel(GPIO_PRT_Type* base, uint32_t pinNum);
 584:Generated_Source\PSoC6\pdl\drivers/peripheral/gpio/cy_gpio.h **** 
 585:Generated_Source\PSoC6\pdl\drivers/peripheral/gpio/cy_gpio.h **** /** \} group_gpio_functions_sio */
 586:Generated_Source\PSoC6\pdl\drivers/peripheral/gpio/cy_gpio.h **** 
 587:Generated_Source\PSoC6\pdl\drivers/peripheral/gpio/cy_gpio.h **** /**
 588:Generated_Source\PSoC6\pdl\drivers/peripheral/gpio/cy_gpio.h **** * \addtogroup group_gpio_functions_interrupt
 589:Generated_Source\PSoC6\pdl\drivers/peripheral/gpio/cy_gpio.h **** * \{
 590:Generated_Source\PSoC6\pdl\drivers/peripheral/gpio/cy_gpio.h **** */
 591:Generated_Source\PSoC6\pdl\drivers/peripheral/gpio/cy_gpio.h **** 
 592:Generated_Source\PSoC6\pdl\drivers/peripheral/gpio/cy_gpio.h **** __STATIC_INLINE uint32_t Cy_GPIO_GetInterruptStatus(GPIO_PRT_Type* base, uint32_t pinNum);
 593:Generated_Source\PSoC6\pdl\drivers/peripheral/gpio/cy_gpio.h **** __STATIC_INLINE void Cy_GPIO_ClearInterrupt(GPIO_PRT_Type* base, uint32_t pinNum);
 594:Generated_Source\PSoC6\pdl\drivers/peripheral/gpio/cy_gpio.h **** __STATIC_INLINE void Cy_GPIO_SetInterruptMask(GPIO_PRT_Type* base, uint32_t pinNum, uint32_t value)
 595:Generated_Source\PSoC6\pdl\drivers/peripheral/gpio/cy_gpio.h **** __STATIC_INLINE uint32_t Cy_GPIO_GetInterruptMask(GPIO_PRT_Type* base, uint32_t pinNum);
 596:Generated_Source\PSoC6\pdl\drivers/peripheral/gpio/cy_gpio.h **** __STATIC_INLINE uint32_t Cy_GPIO_GetInterruptStatusMasked(GPIO_PRT_Type* base, uint32_t pinNum);
 597:Generated_Source\PSoC6\pdl\drivers/peripheral/gpio/cy_gpio.h **** __STATIC_INLINE void Cy_GPIO_SetSwInterrupt(GPIO_PRT_Type* base, uint32_t pinNum);
 598:Generated_Source\PSoC6\pdl\drivers/peripheral/gpio/cy_gpio.h **** __STATIC_INLINE void Cy_GPIO_SetInterruptEdge(GPIO_PRT_Type* base, uint32_t pinNum, uint32_t value)
 599:Generated_Source\PSoC6\pdl\drivers/peripheral/gpio/cy_gpio.h **** __STATIC_INLINE uint32_t Cy_GPIO_GetInterruptEdge(GPIO_PRT_Type* base, uint32_t pinNum);
 600:Generated_Source\PSoC6\pdl\drivers/peripheral/gpio/cy_gpio.h **** __STATIC_INLINE void Cy_GPIO_SetFilter(GPIO_PRT_Type* base, uint32_t value);
 601:Generated_Source\PSoC6\pdl\drivers/peripheral/gpio/cy_gpio.h **** __STATIC_INLINE uint32_t Cy_GPIO_GetFilter(GPIO_PRT_Type* base);
 602:Generated_Source\PSoC6\pdl\drivers/peripheral/gpio/cy_gpio.h **** 
 603:Generated_Source\PSoC6\pdl\drivers/peripheral/gpio/cy_gpio.h **** __STATIC_INLINE uint32_t Cy_GPIO_GetInterruptCause0(void);
 604:Generated_Source\PSoC6\pdl\drivers/peripheral/gpio/cy_gpio.h **** __STATIC_INLINE uint32_t Cy_GPIO_GetInterruptCause1(void);
 605:Generated_Source\PSoC6\pdl\drivers/peripheral/gpio/cy_gpio.h **** __STATIC_INLINE uint32_t Cy_GPIO_GetInterruptCause2(void);
 606:Generated_Source\PSoC6\pdl\drivers/peripheral/gpio/cy_gpio.h **** __STATIC_INLINE uint32_t Cy_GPIO_GetInterruptCause3(void);
 607:Generated_Source\PSoC6\pdl\drivers/peripheral/gpio/cy_gpio.h **** 
 608:Generated_Source\PSoC6\pdl\drivers/peripheral/gpio/cy_gpio.h **** /** \} group_gpio_functions_interrupt */
 609:Generated_Source\PSoC6\pdl\drivers/peripheral/gpio/cy_gpio.h **** 
 610:Generated_Source\PSoC6\pdl\drivers/peripheral/gpio/cy_gpio.h **** 
 611:Generated_Source\PSoC6\pdl\drivers/peripheral/gpio/cy_gpio.h **** /**
 612:Generated_Source\PSoC6\pdl\drivers/peripheral/gpio/cy_gpio.h **** * \addtogroup group_gpio_functions_init
 613:Generated_Source\PSoC6\pdl\drivers/peripheral/gpio/cy_gpio.h **** * \{
 614:Generated_Source\PSoC6\pdl\drivers/peripheral/gpio/cy_gpio.h **** */
 615:Generated_Source\PSoC6\pdl\drivers/peripheral/gpio/cy_gpio.h **** 
 616:Generated_Source\PSoC6\pdl\drivers/peripheral/gpio/cy_gpio.h **** /*******************************************************************************
 617:Generated_Source\PSoC6\pdl\drivers/peripheral/gpio/cy_gpio.h **** * Function Name: Cy_GPIO_SetHSIOM
ARM GAS  C:\Users\dev\AppData\Local\Temp\ccC4nFKO.s 			page 30


 618:Generated_Source\PSoC6\pdl\drivers/peripheral/gpio/cy_gpio.h **** ****************************************************************************//**
 619:Generated_Source\PSoC6\pdl\drivers/peripheral/gpio/cy_gpio.h **** *
 620:Generated_Source\PSoC6\pdl\drivers/peripheral/gpio/cy_gpio.h **** * Configures the HSIOM connection to the pin.
 621:Generated_Source\PSoC6\pdl\drivers/peripheral/gpio/cy_gpio.h **** *
 622:Generated_Source\PSoC6\pdl\drivers/peripheral/gpio/cy_gpio.h **** * Connects the specified High-Speed Input Output Multiplexer (HSIOM) selection
 623:Generated_Source\PSoC6\pdl\drivers/peripheral/gpio/cy_gpio.h **** * to the pin.
 624:Generated_Source\PSoC6\pdl\drivers/peripheral/gpio/cy_gpio.h **** *
 625:Generated_Source\PSoC6\pdl\drivers/peripheral/gpio/cy_gpio.h **** * \param base
 626:Generated_Source\PSoC6\pdl\drivers/peripheral/gpio/cy_gpio.h **** * Pointer to the pin's port register base address
 627:Generated_Source\PSoC6\pdl\drivers/peripheral/gpio/cy_gpio.h **** *
 628:Generated_Source\PSoC6\pdl\drivers/peripheral/gpio/cy_gpio.h **** * \param pinNum
 629:Generated_Source\PSoC6\pdl\drivers/peripheral/gpio/cy_gpio.h **** * Position of the pin bit-field within the port register
 630:Generated_Source\PSoC6\pdl\drivers/peripheral/gpio/cy_gpio.h **** *
 631:Generated_Source\PSoC6\pdl\drivers/peripheral/gpio/cy_gpio.h **** * \param value
 632:Generated_Source\PSoC6\pdl\drivers/peripheral/gpio/cy_gpio.h **** * HSIOM input selection
 633:Generated_Source\PSoC6\pdl\drivers/peripheral/gpio/cy_gpio.h **** *
 634:Generated_Source\PSoC6\pdl\drivers/peripheral/gpio/cy_gpio.h **** * \note 
 635:Generated_Source\PSoC6\pdl\drivers/peripheral/gpio/cy_gpio.h **** * This function modifies a port register in a read-modify-write operation. It is
 636:Generated_Source\PSoC6\pdl\drivers/peripheral/gpio/cy_gpio.h **** * not thread safe as the resource is shared among multiple pins on a port.
 637:Generated_Source\PSoC6\pdl\drivers/peripheral/gpio/cy_gpio.h **** *
 638:Generated_Source\PSoC6\pdl\drivers/peripheral/gpio/cy_gpio.h **** * \funcusage
 639:Generated_Source\PSoC6\pdl\drivers/peripheral/gpio/cy_gpio.h **** * \snippet gpio/gpio_v1_10_sut_01.cydsn/main_cm4.c snippet_Cy_GPIO_SetHSIOM
 640:Generated_Source\PSoC6\pdl\drivers/peripheral/gpio/cy_gpio.h **** *
 641:Generated_Source\PSoC6\pdl\drivers/peripheral/gpio/cy_gpio.h **** *******************************************************************************/
 642:Generated_Source\PSoC6\pdl\drivers/peripheral/gpio/cy_gpio.h **** __STATIC_INLINE void Cy_GPIO_SetHSIOM(GPIO_PRT_Type* base, uint32_t pinNum, en_hsiom_sel_t value)
 643:Generated_Source\PSoC6\pdl\drivers/peripheral/gpio/cy_gpio.h **** {
 644:Generated_Source\PSoC6\pdl\drivers/peripheral/gpio/cy_gpio.h ****     uint32_t portNum;
 645:Generated_Source\PSoC6\pdl\drivers/peripheral/gpio/cy_gpio.h ****     uint32_t tempReg;
 646:Generated_Source\PSoC6\pdl\drivers/peripheral/gpio/cy_gpio.h ****     HSIOM_PRT_V1_Type* portAddrHSIOM;
 647:Generated_Source\PSoC6\pdl\drivers/peripheral/gpio/cy_gpio.h **** 
 648:Generated_Source\PSoC6\pdl\drivers/peripheral/gpio/cy_gpio.h ****     CY_ASSERT_L2(CY_GPIO_IS_PIN_VALID(pinNum));
 649:Generated_Source\PSoC6\pdl\drivers/peripheral/gpio/cy_gpio.h ****     CY_ASSERT_L2(CY_GPIO_IS_HSIOM_VALID(value));
 650:Generated_Source\PSoC6\pdl\drivers/peripheral/gpio/cy_gpio.h **** 
 651:Generated_Source\PSoC6\pdl\drivers/peripheral/gpio/cy_gpio.h ****     portNum = ((uint32_t)(base) - CY_GPIO_BASE) / GPIO_PRT_SECTION_SIZE;
 652:Generated_Source\PSoC6\pdl\drivers/peripheral/gpio/cy_gpio.h ****     portAddrHSIOM = (HSIOM_PRT_V1_Type*)(CY_HSIOM_BASE + (HSIOM_PRT_SECTION_SIZE * portNum));
 653:Generated_Source\PSoC6\pdl\drivers/peripheral/gpio/cy_gpio.h **** 
 654:Generated_Source\PSoC6\pdl\drivers/peripheral/gpio/cy_gpio.h ****     if(pinNum < CY_GPIO_PRT_HALF)
 655:Generated_Source\PSoC6\pdl\drivers/peripheral/gpio/cy_gpio.h ****     {
 656:Generated_Source\PSoC6\pdl\drivers/peripheral/gpio/cy_gpio.h ****         tempReg = HSIOM_PRT_PORT_SEL0(portAddrHSIOM) & ~(CY_GPIO_HSIOM_MASK << (pinNum << CY_GPIO_H
 657:Generated_Source\PSoC6\pdl\drivers/peripheral/gpio/cy_gpio.h ****         HSIOM_PRT_PORT_SEL0(portAddrHSIOM) = tempReg | ((value & CY_GPIO_HSIOM_MASK) << (pinNum << 
 658:Generated_Source\PSoC6\pdl\drivers/peripheral/gpio/cy_gpio.h ****     }
 659:Generated_Source\PSoC6\pdl\drivers/peripheral/gpio/cy_gpio.h ****     else
 660:Generated_Source\PSoC6\pdl\drivers/peripheral/gpio/cy_gpio.h ****     {
 661:Generated_Source\PSoC6\pdl\drivers/peripheral/gpio/cy_gpio.h ****         pinNum -= CY_GPIO_PRT_HALF;
 662:Generated_Source\PSoC6\pdl\drivers/peripheral/gpio/cy_gpio.h ****         tempReg = HSIOM_PRT_PORT_SEL1(portAddrHSIOM) & ~(CY_GPIO_HSIOM_MASK << (pinNum << CY_GPIO_H
 663:Generated_Source\PSoC6\pdl\drivers/peripheral/gpio/cy_gpio.h ****         HSIOM_PRT_PORT_SEL1(portAddrHSIOM) = tempReg | ((value & CY_GPIO_HSIOM_MASK) << (pinNum << 
 664:Generated_Source\PSoC6\pdl\drivers/peripheral/gpio/cy_gpio.h ****     }
 665:Generated_Source\PSoC6\pdl\drivers/peripheral/gpio/cy_gpio.h **** }
 666:Generated_Source\PSoC6\pdl\drivers/peripheral/gpio/cy_gpio.h **** 
 667:Generated_Source\PSoC6\pdl\drivers/peripheral/gpio/cy_gpio.h **** 
 668:Generated_Source\PSoC6\pdl\drivers/peripheral/gpio/cy_gpio.h **** /*******************************************************************************
 669:Generated_Source\PSoC6\pdl\drivers/peripheral/gpio/cy_gpio.h **** * Function Name: Cy_GPIO_GetHSIOM
 670:Generated_Source\PSoC6\pdl\drivers/peripheral/gpio/cy_gpio.h **** ****************************************************************************//**
 671:Generated_Source\PSoC6\pdl\drivers/peripheral/gpio/cy_gpio.h **** *
 672:Generated_Source\PSoC6\pdl\drivers/peripheral/gpio/cy_gpio.h **** * Returns the current HSIOM multiplexer connection to the pin.
 673:Generated_Source\PSoC6\pdl\drivers/peripheral/gpio/cy_gpio.h **** *
 674:Generated_Source\PSoC6\pdl\drivers/peripheral/gpio/cy_gpio.h **** * \param base
ARM GAS  C:\Users\dev\AppData\Local\Temp\ccC4nFKO.s 			page 31


 675:Generated_Source\PSoC6\pdl\drivers/peripheral/gpio/cy_gpio.h **** * Pointer to the pin's port register base address
 676:Generated_Source\PSoC6\pdl\drivers/peripheral/gpio/cy_gpio.h **** *
 677:Generated_Source\PSoC6\pdl\drivers/peripheral/gpio/cy_gpio.h **** * \param pinNum
 678:Generated_Source\PSoC6\pdl\drivers/peripheral/gpio/cy_gpio.h **** * Position of the pin bit-field within the port register
 679:Generated_Source\PSoC6\pdl\drivers/peripheral/gpio/cy_gpio.h **** *
 680:Generated_Source\PSoC6\pdl\drivers/peripheral/gpio/cy_gpio.h **** * \return
 681:Generated_Source\PSoC6\pdl\drivers/peripheral/gpio/cy_gpio.h **** * HSIOM input selection
 682:Generated_Source\PSoC6\pdl\drivers/peripheral/gpio/cy_gpio.h **** *
 683:Generated_Source\PSoC6\pdl\drivers/peripheral/gpio/cy_gpio.h **** * \funcusage
 684:Generated_Source\PSoC6\pdl\drivers/peripheral/gpio/cy_gpio.h **** * \snippet gpio/gpio_v1_10_sut_01.cydsn/main_cm4.c snippet_Cy_GPIO_SetHSIOM
 685:Generated_Source\PSoC6\pdl\drivers/peripheral/gpio/cy_gpio.h **** *
 686:Generated_Source\PSoC6\pdl\drivers/peripheral/gpio/cy_gpio.h **** *******************************************************************************/
 687:Generated_Source\PSoC6\pdl\drivers/peripheral/gpio/cy_gpio.h **** __STATIC_INLINE en_hsiom_sel_t Cy_GPIO_GetHSIOM(GPIO_PRT_Type* base, uint32_t pinNum)
 688:Generated_Source\PSoC6\pdl\drivers/peripheral/gpio/cy_gpio.h **** {
 689:Generated_Source\PSoC6\pdl\drivers/peripheral/gpio/cy_gpio.h ****     uint32_t returnValue;
 690:Generated_Source\PSoC6\pdl\drivers/peripheral/gpio/cy_gpio.h ****     uint32_t portNum;
 691:Generated_Source\PSoC6\pdl\drivers/peripheral/gpio/cy_gpio.h ****     HSIOM_PRT_V1_Type* portAddrHSIOM;
 692:Generated_Source\PSoC6\pdl\drivers/peripheral/gpio/cy_gpio.h ****     
 693:Generated_Source\PSoC6\pdl\drivers/peripheral/gpio/cy_gpio.h ****     CY_ASSERT_L2(CY_GPIO_IS_PIN_VALID(pinNum));
 694:Generated_Source\PSoC6\pdl\drivers/peripheral/gpio/cy_gpio.h **** 
 695:Generated_Source\PSoC6\pdl\drivers/peripheral/gpio/cy_gpio.h ****     portNum = ((uint32_t)(base) - CY_GPIO_BASE) / GPIO_PRT_SECTION_SIZE;
 696:Generated_Source\PSoC6\pdl\drivers/peripheral/gpio/cy_gpio.h ****     portAddrHSIOM = (HSIOM_PRT_V1_Type*)(CY_HSIOM_BASE + (HSIOM_PRT_SECTION_SIZE * portNum));
 697:Generated_Source\PSoC6\pdl\drivers/peripheral/gpio/cy_gpio.h **** 
 698:Generated_Source\PSoC6\pdl\drivers/peripheral/gpio/cy_gpio.h ****     if(pinNum < CY_GPIO_PRT_HALF)
 699:Generated_Source\PSoC6\pdl\drivers/peripheral/gpio/cy_gpio.h ****     {
 700:Generated_Source\PSoC6\pdl\drivers/peripheral/gpio/cy_gpio.h ****         returnValue = (HSIOM_PRT_PORT_SEL0(portAddrHSIOM) >> (pinNum << CY_GPIO_HSIOM_OFFSET)) & CY
 701:Generated_Source\PSoC6\pdl\drivers/peripheral/gpio/cy_gpio.h ****     }
 702:Generated_Source\PSoC6\pdl\drivers/peripheral/gpio/cy_gpio.h ****     else
 703:Generated_Source\PSoC6\pdl\drivers/peripheral/gpio/cy_gpio.h ****     {
 704:Generated_Source\PSoC6\pdl\drivers/peripheral/gpio/cy_gpio.h ****         pinNum -= CY_GPIO_PRT_HALF;
 705:Generated_Source\PSoC6\pdl\drivers/peripheral/gpio/cy_gpio.h ****         returnValue = (HSIOM_PRT_PORT_SEL1(portAddrHSIOM) >> (pinNum << CY_GPIO_HSIOM_OFFSET)) & CY
 706:Generated_Source\PSoC6\pdl\drivers/peripheral/gpio/cy_gpio.h ****     }
 707:Generated_Source\PSoC6\pdl\drivers/peripheral/gpio/cy_gpio.h **** 
 708:Generated_Source\PSoC6\pdl\drivers/peripheral/gpio/cy_gpio.h ****     return (en_hsiom_sel_t)returnValue;
 709:Generated_Source\PSoC6\pdl\drivers/peripheral/gpio/cy_gpio.h **** }
 710:Generated_Source\PSoC6\pdl\drivers/peripheral/gpio/cy_gpio.h **** 
 711:Generated_Source\PSoC6\pdl\drivers/peripheral/gpio/cy_gpio.h **** 
 712:Generated_Source\PSoC6\pdl\drivers/peripheral/gpio/cy_gpio.h **** /*******************************************************************************
 713:Generated_Source\PSoC6\pdl\drivers/peripheral/gpio/cy_gpio.h **** * Function Name: Cy_GPIO_PortToAddr
 714:Generated_Source\PSoC6\pdl\drivers/peripheral/gpio/cy_gpio.h **** ****************************************************************************//**
 715:Generated_Source\PSoC6\pdl\drivers/peripheral/gpio/cy_gpio.h **** *
 716:Generated_Source\PSoC6\pdl\drivers/peripheral/gpio/cy_gpio.h **** * Retrieves the port address based on the given port number.
 717:Generated_Source\PSoC6\pdl\drivers/peripheral/gpio/cy_gpio.h **** *
 718:Generated_Source\PSoC6\pdl\drivers/peripheral/gpio/cy_gpio.h **** * This is a helper function to calculate the port base address when given a port
 719:Generated_Source\PSoC6\pdl\drivers/peripheral/gpio/cy_gpio.h **** * number. It is to be used when pin access needs to be calculated at runtime.
 720:Generated_Source\PSoC6\pdl\drivers/peripheral/gpio/cy_gpio.h **** *
 721:Generated_Source\PSoC6\pdl\drivers/peripheral/gpio/cy_gpio.h **** * \param portNum
 722:Generated_Source\PSoC6\pdl\drivers/peripheral/gpio/cy_gpio.h **** * Port number
 723:Generated_Source\PSoC6\pdl\drivers/peripheral/gpio/cy_gpio.h **** *
 724:Generated_Source\PSoC6\pdl\drivers/peripheral/gpio/cy_gpio.h **** * \return
 725:Generated_Source\PSoC6\pdl\drivers/peripheral/gpio/cy_gpio.h **** * Base address of the port register structure
 726:Generated_Source\PSoC6\pdl\drivers/peripheral/gpio/cy_gpio.h **** *
 727:Generated_Source\PSoC6\pdl\drivers/peripheral/gpio/cy_gpio.h **** * \funcusage
 728:Generated_Source\PSoC6\pdl\drivers/peripheral/gpio/cy_gpio.h **** * \snippet gpio/gpio_v1_10_sut_01.cydsn/main_cm4.c snippet_Cy_GPIO_PortToAddr
 729:Generated_Source\PSoC6\pdl\drivers/peripheral/gpio/cy_gpio.h **** *
 730:Generated_Source\PSoC6\pdl\drivers/peripheral/gpio/cy_gpio.h **** *******************************************************************************/
 731:Generated_Source\PSoC6\pdl\drivers/peripheral/gpio/cy_gpio.h **** __STATIC_INLINE GPIO_PRT_Type* Cy_GPIO_PortToAddr(uint32_t portNum)
ARM GAS  C:\Users\dev\AppData\Local\Temp\ccC4nFKO.s 			page 32


 732:Generated_Source\PSoC6\pdl\drivers/peripheral/gpio/cy_gpio.h **** {
 733:Generated_Source\PSoC6\pdl\drivers/peripheral/gpio/cy_gpio.h ****     GPIO_PRT_Type* portBase;
 734:Generated_Source\PSoC6\pdl\drivers/peripheral/gpio/cy_gpio.h ****     
 735:Generated_Source\PSoC6\pdl\drivers/peripheral/gpio/cy_gpio.h ****     if(portNum < (uint32_t)IOSS_GPIO_GPIO_PORT_NR)
 736:Generated_Source\PSoC6\pdl\drivers/peripheral/gpio/cy_gpio.h ****     {
 737:Generated_Source\PSoC6\pdl\drivers/peripheral/gpio/cy_gpio.h ****         portBase = (GPIO_PRT_Type *)(CY_GPIO_BASE + (GPIO_PRT_SECTION_SIZE * portNum));
 738:Generated_Source\PSoC6\pdl\drivers/peripheral/gpio/cy_gpio.h ****     }
 739:Generated_Source\PSoC6\pdl\drivers/peripheral/gpio/cy_gpio.h ****     else
 740:Generated_Source\PSoC6\pdl\drivers/peripheral/gpio/cy_gpio.h ****     {
 741:Generated_Source\PSoC6\pdl\drivers/peripheral/gpio/cy_gpio.h ****         /* Error: Return default base address */
 742:Generated_Source\PSoC6\pdl\drivers/peripheral/gpio/cy_gpio.h ****         portBase = (GPIO_PRT_Type *)(CY_GPIO_BASE);
 743:Generated_Source\PSoC6\pdl\drivers/peripheral/gpio/cy_gpio.h ****     }
 744:Generated_Source\PSoC6\pdl\drivers/peripheral/gpio/cy_gpio.h **** 
 745:Generated_Source\PSoC6\pdl\drivers/peripheral/gpio/cy_gpio.h ****     return (portBase);
 746:Generated_Source\PSoC6\pdl\drivers/peripheral/gpio/cy_gpio.h **** }
 747:Generated_Source\PSoC6\pdl\drivers/peripheral/gpio/cy_gpio.h **** 
 748:Generated_Source\PSoC6\pdl\drivers/peripheral/gpio/cy_gpio.h **** /** \} group_gpio_functions_init */
 749:Generated_Source\PSoC6\pdl\drivers/peripheral/gpio/cy_gpio.h **** 
 750:Generated_Source\PSoC6\pdl\drivers/peripheral/gpio/cy_gpio.h **** /**
 751:Generated_Source\PSoC6\pdl\drivers/peripheral/gpio/cy_gpio.h **** * \addtogroup group_gpio_functions_gpio
 752:Generated_Source\PSoC6\pdl\drivers/peripheral/gpio/cy_gpio.h **** * \{
 753:Generated_Source\PSoC6\pdl\drivers/peripheral/gpio/cy_gpio.h **** */
 754:Generated_Source\PSoC6\pdl\drivers/peripheral/gpio/cy_gpio.h **** 
 755:Generated_Source\PSoC6\pdl\drivers/peripheral/gpio/cy_gpio.h **** /*******************************************************************************
 756:Generated_Source\PSoC6\pdl\drivers/peripheral/gpio/cy_gpio.h **** * Function Name: Cy_GPIO_Read
 757:Generated_Source\PSoC6\pdl\drivers/peripheral/gpio/cy_gpio.h **** ****************************************************************************//**
 758:Generated_Source\PSoC6\pdl\drivers/peripheral/gpio/cy_gpio.h **** *
 759:Generated_Source\PSoC6\pdl\drivers/peripheral/gpio/cy_gpio.h **** * Reads the current logic level on the input buffer of the pin.
 760:Generated_Source\PSoC6\pdl\drivers/peripheral/gpio/cy_gpio.h **** *
 761:Generated_Source\PSoC6\pdl\drivers/peripheral/gpio/cy_gpio.h **** * \param base
 762:Generated_Source\PSoC6\pdl\drivers/peripheral/gpio/cy_gpio.h **** * Pointer to the pin's port register base address
 763:Generated_Source\PSoC6\pdl\drivers/peripheral/gpio/cy_gpio.h **** *
 764:Generated_Source\PSoC6\pdl\drivers/peripheral/gpio/cy_gpio.h **** * \param pinNum
 765:Generated_Source\PSoC6\pdl\drivers/peripheral/gpio/cy_gpio.h **** * Position of the pin bit-field within the port register.
 766:Generated_Source\PSoC6\pdl\drivers/peripheral/gpio/cy_gpio.h **** * Bit position 8 is the routed pin through the port glitch filter.
 767:Generated_Source\PSoC6\pdl\drivers/peripheral/gpio/cy_gpio.h **** *
 768:Generated_Source\PSoC6\pdl\drivers/peripheral/gpio/cy_gpio.h **** * \return
 769:Generated_Source\PSoC6\pdl\drivers/peripheral/gpio/cy_gpio.h **** * Logic level present on the pin
 770:Generated_Source\PSoC6\pdl\drivers/peripheral/gpio/cy_gpio.h **** *
 771:Generated_Source\PSoC6\pdl\drivers/peripheral/gpio/cy_gpio.h **** * \funcusage
 772:Generated_Source\PSoC6\pdl\drivers/peripheral/gpio/cy_gpio.h **** * \snippet gpio/gpio_v1_10_sut_01.cydsn/main_cm4.c snippet_Cy_GPIO_Read
 773:Generated_Source\PSoC6\pdl\drivers/peripheral/gpio/cy_gpio.h **** *
 774:Generated_Source\PSoC6\pdl\drivers/peripheral/gpio/cy_gpio.h **** *******************************************************************************/
 775:Generated_Source\PSoC6\pdl\drivers/peripheral/gpio/cy_gpio.h **** __STATIC_INLINE uint32_t Cy_GPIO_Read(GPIO_PRT_Type* base, uint32_t pinNum)
 776:Generated_Source\PSoC6\pdl\drivers/peripheral/gpio/cy_gpio.h **** {
 777:Generated_Source\PSoC6\pdl\drivers/peripheral/gpio/cy_gpio.h ****     CY_ASSERT_L2(CY_GPIO_IS_FILTER_PIN_VALID(pinNum));
 778:Generated_Source\PSoC6\pdl\drivers/peripheral/gpio/cy_gpio.h ****     
 779:Generated_Source\PSoC6\pdl\drivers/peripheral/gpio/cy_gpio.h ****     return (GPIO_PRT_IN(base) >> (pinNum)) & CY_GPIO_IN_MASK;
 780:Generated_Source\PSoC6\pdl\drivers/peripheral/gpio/cy_gpio.h **** }
 781:Generated_Source\PSoC6\pdl\drivers/peripheral/gpio/cy_gpio.h **** 
 782:Generated_Source\PSoC6\pdl\drivers/peripheral/gpio/cy_gpio.h **** 
 783:Generated_Source\PSoC6\pdl\drivers/peripheral/gpio/cy_gpio.h **** /*******************************************************************************
 784:Generated_Source\PSoC6\pdl\drivers/peripheral/gpio/cy_gpio.h **** * Function Name: Cy_GPIO_Write
 785:Generated_Source\PSoC6\pdl\drivers/peripheral/gpio/cy_gpio.h **** ****************************************************************************//**
 786:Generated_Source\PSoC6\pdl\drivers/peripheral/gpio/cy_gpio.h **** *
 787:Generated_Source\PSoC6\pdl\drivers/peripheral/gpio/cy_gpio.h **** * Write a logic 0 or logic 1 state to the output driver.
 788:Generated_Source\PSoC6\pdl\drivers/peripheral/gpio/cy_gpio.h **** *
ARM GAS  C:\Users\dev\AppData\Local\Temp\ccC4nFKO.s 			page 33


 789:Generated_Source\PSoC6\pdl\drivers/peripheral/gpio/cy_gpio.h **** * This function should be used only for software driven pins. It does not have
 790:Generated_Source\PSoC6\pdl\drivers/peripheral/gpio/cy_gpio.h **** * any effect on peripheral driven pins.
 791:Generated_Source\PSoC6\pdl\drivers/peripheral/gpio/cy_gpio.h **** *
 792:Generated_Source\PSoC6\pdl\drivers/peripheral/gpio/cy_gpio.h **** * \param base
 793:Generated_Source\PSoC6\pdl\drivers/peripheral/gpio/cy_gpio.h **** * Pointer to the pin's port register base address
 794:Generated_Source\PSoC6\pdl\drivers/peripheral/gpio/cy_gpio.h **** *
 795:Generated_Source\PSoC6\pdl\drivers/peripheral/gpio/cy_gpio.h **** * \param pinNum
 796:Generated_Source\PSoC6\pdl\drivers/peripheral/gpio/cy_gpio.h **** * Position of the pin bit-field within the port register
 797:Generated_Source\PSoC6\pdl\drivers/peripheral/gpio/cy_gpio.h **** *
 798:Generated_Source\PSoC6\pdl\drivers/peripheral/gpio/cy_gpio.h **** * \param value
 799:Generated_Source\PSoC6\pdl\drivers/peripheral/gpio/cy_gpio.h **** * Logic level to drive out on the pin
 800:Generated_Source\PSoC6\pdl\drivers/peripheral/gpio/cy_gpio.h **** *
 801:Generated_Source\PSoC6\pdl\drivers/peripheral/gpio/cy_gpio.h **** * \funcusage
 802:Generated_Source\PSoC6\pdl\drivers/peripheral/gpio/cy_gpio.h **** * \snippet gpio/gpio_v1_10_sut_01.cydsn/main_cm4.c snippet_Cy_GPIO_Write
 803:Generated_Source\PSoC6\pdl\drivers/peripheral/gpio/cy_gpio.h **** *
 804:Generated_Source\PSoC6\pdl\drivers/peripheral/gpio/cy_gpio.h **** *******************************************************************************/
 805:Generated_Source\PSoC6\pdl\drivers/peripheral/gpio/cy_gpio.h **** __STATIC_INLINE void Cy_GPIO_Write(GPIO_PRT_Type* base, uint32_t pinNum, uint32_t value)
 806:Generated_Source\PSoC6\pdl\drivers/peripheral/gpio/cy_gpio.h **** {
 807:Generated_Source\PSoC6\pdl\drivers/peripheral/gpio/cy_gpio.h ****     CY_ASSERT_L2(CY_GPIO_IS_PIN_VALID(pinNum));
 808:Generated_Source\PSoC6\pdl\drivers/peripheral/gpio/cy_gpio.h ****     CY_ASSERT_L2(CY_GPIO_IS_VALUE_VALID(value));
 809:Generated_Source\PSoC6\pdl\drivers/peripheral/gpio/cy_gpio.h **** 
 810:Generated_Source\PSoC6\pdl\drivers/peripheral/gpio/cy_gpio.h ****     /* Thread-safe: Directly access the pin registers instead of base->OUT */
 811:Generated_Source\PSoC6\pdl\drivers/peripheral/gpio/cy_gpio.h ****     if(0UL == value)
 812:Generated_Source\PSoC6\pdl\drivers/peripheral/gpio/cy_gpio.h ****     {
 813:Generated_Source\PSoC6\pdl\drivers/peripheral/gpio/cy_gpio.h ****         GPIO_PRT_OUT_CLR(base) = CY_GPIO_OUT_MASK << pinNum;
 814:Generated_Source\PSoC6\pdl\drivers/peripheral/gpio/cy_gpio.h ****     }
 815:Generated_Source\PSoC6\pdl\drivers/peripheral/gpio/cy_gpio.h ****     else
 816:Generated_Source\PSoC6\pdl\drivers/peripheral/gpio/cy_gpio.h ****     {
 817:Generated_Source\PSoC6\pdl\drivers/peripheral/gpio/cy_gpio.h ****         GPIO_PRT_OUT_SET(base) = CY_GPIO_OUT_MASK << pinNum;
 620              		.loc 2 817 0
 621 000c 1F4F     		ldr	r7, .L42+4
 622 000e 4FF00808 		mov	r8, #8
 623 0012 C7F80880 		str	r8, [r7, #8]
 624              	.LVL76:
 625              	.LBE99:
 626              	.LBE98:
 627              	.LBB100:
 628              	.LBB101:
 629 0016 1E4E     		ldr	r6, .L42+8
 630 0018 8024     		movs	r4, #128
 631 001a B460     		str	r4, [r6, #8]
 632              	.LVL77:
 633              	.LBE101:
 634              	.LBE100:
 635              	.LBB102:
 636              	.LBB103:
 637 001c DFF878A0 		ldr	r10, .L42+16
 638 0020 4FF0040B 		mov	fp, #4
 639 0024 CAF808B0 		str	fp, [r10, #8]
 640              	.LVL78:
 641              	.LBE103:
 642              	.LBE102:
 643              	.LBB104:
 644              	.LBB105:
 645 0028 DFF87090 		ldr	r9, .L42+20
 646 002c C9F80840 		str	r4, [r9, #8]
 647              	.LVL79:
ARM GAS  C:\Users\dev\AppData\Local\Temp\ccC4nFKO.s 			page 34


 648              	.LBE105:
 649              	.LBE104:
 415:user_interface.c ****         
 416:user_interface.c ****         //On positive direction
 417:user_interface.c ****         Cy_GPIO_Write(TENS_USER_EN1_PORT, TENS_USER_EN1_NUM, 1);
 418:user_interface.c ****         Cy_GPIO_Write(TENS_USER_EN2_PORT, TENS_USER_EN2_NUM, 1);
 419:user_interface.c ****         Cy_GPIO_Write(TENS_POS1_PORT, TENS_POS1_NUM, 1);
 420:user_interface.c ****         Cy_GPIO_Write(TENS_POS2_PORT, TENS_POS2_NUM, 1);
 421:user_interface.c ****         
 422:user_interface.c ****         CyDelayUs(tens_dur_us);
 650              		.loc 1 422 0
 651 0030 184D     		ldr	r5, .L42+12
 652 0032 A88A     		ldrh	r0, [r5, #20]
 653 0034 FFF7FEFF 		bl	Cy_SysLib_DelayUs
 654              	.LVL80:
 655              	.LBB106:
 656              	.LBB107:
 813:Generated_Source\PSoC6\pdl\drivers/peripheral/gpio/cy_gpio.h ****     }
 657              		.loc 2 813 0
 658 0038 CAF804B0 		str	fp, [r10, #4]
 659              	.LVL81:
 660              	.LBE107:
 661              	.LBE106:
 662              	.LBB108:
 663              	.LBB109:
 664 003c C9F80440 		str	r4, [r9, #4]
 665              	.LVL82:
 666              	.LBE109:
 667              	.LBE108:
 668              	.LBB110:
 669              	.LBB111:
 670 0040 C7F80480 		str	r8, [r7, #4]
 671              	.LVL83:
 672              	.LBE111:
 673              	.LBE110:
 674              	.LBB112:
 675              	.LBB113:
 676 0044 7460     		str	r4, [r6, #4]
 677              	.LVL84:
 678              	.LBE113:
 679              	.LBE112:
 423:user_interface.c ****         
 424:user_interface.c ****         //Off state in between
 425:user_interface.c ****         Cy_GPIO_Write(TENS_POS1_PORT, TENS_POS1_NUM, 0);
 426:user_interface.c ****         Cy_GPIO_Write(TENS_POS2_PORT, TENS_POS2_NUM, 0);
 427:user_interface.c ****         Cy_GPIO_Write(TENS_USER_EN1_PORT, TENS_USER_EN1_NUM, 0);
 428:user_interface.c ****         Cy_GPIO_Write(TENS_USER_EN2_PORT, TENS_USER_EN2_NUM, 0);
 429:user_interface.c ****         
 430:user_interface.c ****         CyDelayUs(tens_dur_us);
 680              		.loc 1 430 0
 681 0046 A88A     		ldrh	r0, [r5, #20]
 682 0048 FFF7FEFF 		bl	Cy_SysLib_DelayUs
 683              	.LVL85:
 684              	.LBB114:
 685              	.LBB115:
 686              		.loc 2 817 0
 687 004c C7F80880 		str	r8, [r7, #8]
ARM GAS  C:\Users\dev\AppData\Local\Temp\ccC4nFKO.s 			page 35


 688              	.LVL86:
 689              	.LBE115:
 690              	.LBE114:
 691              	.LBB116:
 692              	.LBB117:
 693 0050 B460     		str	r4, [r6, #8]
 694              	.LVL87:
 695              	.LBE117:
 696              	.LBE116:
 697              	.LBB118:
 698              	.LBB119:
 699 0052 4FF0400B 		mov	fp, #64
 700 0056 C9F808B0 		str	fp, [r9, #8]
 701              	.LVL88:
 702              	.LBE119:
 703              	.LBE118:
 704              	.LBB120:
 705              	.LBB121:
 706 005a AAF5207A 		sub	r10, r10, #640
 707 005e 2023     		movs	r3, #32
 708 0060 CAF80830 		str	r3, [r10, #8]
 709              	.LVL89:
 710              	.LBE121:
 711              	.LBE120:
 431:user_interface.c ****         
 432:user_interface.c ****         //On negative direction
 433:user_interface.c ****         Cy_GPIO_Write(TENS_USER_EN1_PORT, TENS_USER_EN1_NUM, 1);
 434:user_interface.c ****         Cy_GPIO_Write(TENS_USER_EN2_PORT, TENS_USER_EN2_NUM, 1);
 435:user_interface.c ****         Cy_GPIO_Write(TENS_NEG1_PORT, TENS_NEG1_NUM, 1);
 436:user_interface.c ****         Cy_GPIO_Write(TENS_NEG2_PORT, TENS_NEG2_NUM, 1);
 437:user_interface.c ****         
 438:user_interface.c ****         CyDelayUs(tens_dur_us);
 712              		.loc 1 438 0
 713 0064 A88A     		ldrh	r0, [r5, #20]
 714 0066 FFF7FEFF 		bl	Cy_SysLib_DelayUs
 715              	.LVL90:
 716              	.LBB122:
 717              	.LBB123:
 813:Generated_Source\PSoC6\pdl\drivers/peripheral/gpio/cy_gpio.h ****     }
 718              		.loc 2 813 0
 719 006a C9F804B0 		str	fp, [r9, #4]
 720              	.LVL91:
 721              	.LBE123:
 722              	.LBE122:
 723              	.LBB124:
 724              	.LBB125:
 725 006e 2023     		movs	r3, #32
 726 0070 CAF80430 		str	r3, [r10, #4]
 727              	.LVL92:
 728              	.LBE125:
 729              	.LBE124:
 730              	.LBB126:
 731              	.LBB127:
 732 0074 C7F80480 		str	r8, [r7, #4]
 733              	.LVL93:
 734              	.LBE127:
 735              	.LBE126:
ARM GAS  C:\Users\dev\AppData\Local\Temp\ccC4nFKO.s 			page 36


 736              	.LBB128:
 737              	.LBB129:
 738 0078 7460     		str	r4, [r6, #4]
 739              	.LVL94:
 740              	.LBE129:
 741              	.LBE128:
 439:user_interface.c ****         
 440:user_interface.c ****         //Off state in between
 441:user_interface.c ****         Cy_GPIO_Write(TENS_NEG1_PORT, TENS_NEG1_NUM, 0);
 442:user_interface.c ****         Cy_GPIO_Write(TENS_NEG2_PORT, TENS_NEG2_NUM, 0);
 443:user_interface.c ****         Cy_GPIO_Write(TENS_USER_EN1_PORT, TENS_USER_EN1_NUM, 0);
 444:user_interface.c ****         Cy_GPIO_Write(TENS_USER_EN2_PORT, TENS_USER_EN2_NUM, 0);
 445:user_interface.c ****         
 446:user_interface.c ****         if (tens_interval_ms > 0) 
 742              		.loc 1 446 0
 743 007a AB69     		ldr	r3, [r5, #24]
 744 007c 002B     		cmp	r3, #0
 745 007e 01DD     		ble	.L39
 447:user_interface.c ****             tens_timeout = tens_interval_ms;
 746              		.loc 1 447 0
 747 0080 014A     		ldr	r2, .L42
 748 0082 1360     		str	r3, [r2]
 749              	.L39:
 750 0084 BDE8F88F 		pop	{r3, r4, r5, r6, r7, r8, r9, r10, fp, pc}
 751              	.L43:
 752              		.align	2
 753              	.L42:
 754 0088 00000000 		.word	.LANCHOR0
 755 008c 00033240 		.word	1077019392
 756 0090 80033240 		.word	1077019520
 757 0094 00000000 		.word	.LANCHOR1
 758 0098 00053240 		.word	1077019904
 759 009c 00063240 		.word	1077020160
 760              		.cfi_endproc
 761              	.LFE729:
 762              		.size	ui_tens_task, .-ui_tens_task
 763              		.section	.text.ui_settings_tens_freq,"ax",%progbits
 764              		.align	2
 765              		.global	ui_settings_tens_freq
 766              		.thumb
 767              		.thumb_func
 768              		.type	ui_settings_tens_freq, %function
 769              	ui_settings_tens_freq:
 770              	.LFB730:
 448:user_interface.c ****     }
 449:user_interface.c ****     
 450:user_interface.c **** }
 451:user_interface.c **** 
 452:user_interface.c **** /*******************************************************************************
 453:user_interface.c **** * Function Name: void ui_settings_tens_freq(int item)
 454:user_interface.c **** ********************************************************************************
 455:user_interface.c **** *
 456:user_interface.c **** * Parameter:    item
 457:user_interface.c **** *
 458:user_interface.c **** * Summary:
 459:user_interface.c **** *   TENS freq
 460:user_interface.c **** *
ARM GAS  C:\Users\dev\AppData\Local\Temp\ccC4nFKO.s 			page 37


 461:user_interface.c **** *******************************************************************************/
 462:user_interface.c **** void ui_settings_tens_freq (int item) {
 771              		.loc 1 462 0
 772              		.cfi_startproc
 773              		@ args = 0, pretend = 0, frame = 0
 774              		@ frame_needed = 0, uses_anonymous_args = 0
 775              		@ link register save eliminated.
 776              	.LVL95:
 463:user_interface.c ****     
 464:user_interface.c ****     switch (item) {
 777              		.loc 1 464 0
 778 0000 0138     		subs	r0, r0, #1
 779              	.LVL96:
 780 0002 0928     		cmp	r0, #9
 781 0004 06D8     		bhi	.L45
 782 0006 DFE800F0 		tbb	[pc, r0]
 783              	.L47:
 784 000a 0A       		.byte	(.L46-.L47)/2
 785 000b 0F       		.byte	(.L48-.L47)/2
 786 000c 14       		.byte	(.L49-.L47)/2
 787 000d 19       		.byte	(.L50-.L47)/2
 788 000e 1D       		.byte	(.L51-.L47)/2
 789 000f 21       		.byte	(.L52-.L47)/2
 790 0010 25       		.byte	(.L53-.L47)/2
 791 0011 29       		.byte	(.L54-.L47)/2
 792 0012 2D       		.byte	(.L55-.L47)/2
 793 0013 31       		.byte	(.L56-.L47)/2
 794              		.p2align 1
 795              	.L45:
 465:user_interface.c ****         default: tens_interval_ms = -1; break;   
 796              		.loc 1 465 0
 797 0014 4FF0FF32 		mov	r2, #-1
 798 0018 194B     		ldr	r3, .L59
 799 001a 9A61     		str	r2, [r3, #24]
 800 001c 29E0     		b	.L57
 801              	.L46:
 466:user_interface.c ****         case 1: tens_interval_ms = 1000; break;
 802              		.loc 1 466 0
 803 001e 4FF47A72 		mov	r2, #1000
 804 0022 174B     		ldr	r3, .L59
 805 0024 9A61     		str	r2, [r3, #24]
 806 0026 24E0     		b	.L57
 807              	.L48:
 467:user_interface.c ****         case 2: tens_interval_ms = 500; break;
 808              		.loc 1 467 0
 809 0028 4FF4FA72 		mov	r2, #500
 810 002c 144B     		ldr	r3, .L59
 811 002e 9A61     		str	r2, [r3, #24]
 812 0030 1FE0     		b	.L57
 813              	.L49:
 468:user_interface.c ****         case 3: tens_interval_ms = 333; break;
 814              		.loc 1 468 0
 815 0032 40F24D12 		movw	r2, #333
 816 0036 124B     		ldr	r3, .L59
 817 0038 9A61     		str	r2, [r3, #24]
 818 003a 1AE0     		b	.L57
 819              	.L50:
ARM GAS  C:\Users\dev\AppData\Local\Temp\ccC4nFKO.s 			page 38


 469:user_interface.c ****         case 4: tens_interval_ms = 250; break;
 820              		.loc 1 469 0
 821 003c FA22     		movs	r2, #250
 822 003e 104B     		ldr	r3, .L59
 823 0040 9A61     		str	r2, [r3, #24]
 824 0042 16E0     		b	.L57
 825              	.L51:
 470:user_interface.c ****         case 5: tens_interval_ms = 200; break;
 826              		.loc 1 470 0
 827 0044 C822     		movs	r2, #200
 828 0046 0E4B     		ldr	r3, .L59
 829 0048 9A61     		str	r2, [r3, #24]
 830 004a 12E0     		b	.L57
 831              	.L52:
 471:user_interface.c ****         case 6: tens_interval_ms = 167; break;
 832              		.loc 1 471 0
 833 004c A722     		movs	r2, #167
 834 004e 0C4B     		ldr	r3, .L59
 835 0050 9A61     		str	r2, [r3, #24]
 836 0052 0EE0     		b	.L57
 837              	.L53:
 472:user_interface.c ****         case 7: tens_interval_ms = 143; break;
 838              		.loc 1 472 0
 839 0054 8F22     		movs	r2, #143
 840 0056 0A4B     		ldr	r3, .L59
 841 0058 9A61     		str	r2, [r3, #24]
 842 005a 0AE0     		b	.L57
 843              	.L54:
 473:user_interface.c ****         case 8: tens_interval_ms = 125; break;
 844              		.loc 1 473 0
 845 005c 7D22     		movs	r2, #125
 846 005e 084B     		ldr	r3, .L59
 847 0060 9A61     		str	r2, [r3, #24]
 848 0062 06E0     		b	.L57
 849              	.L55:
 474:user_interface.c ****         case 9: tens_interval_ms = 111; break;
 850              		.loc 1 474 0
 851 0064 6F22     		movs	r2, #111
 852 0066 064B     		ldr	r3, .L59
 853 0068 9A61     		str	r2, [r3, #24]
 854 006a 02E0     		b	.L57
 855              	.L56:
 475:user_interface.c ****         case 10: tens_interval_ms = 100; break;
 856              		.loc 1 475 0
 857 006c 6422     		movs	r2, #100
 858 006e 044B     		ldr	r3, .L59
 859 0070 9A61     		str	r2, [r3, #24]
 860              	.L57:
 476:user_interface.c ****     }
 477:user_interface.c ****     
 478:user_interface.c ****     if (tens_interval_ms > 0) 
 861              		.loc 1 478 0
 862 0072 034B     		ldr	r3, .L59
 863 0074 9B69     		ldr	r3, [r3, #24]
 864 0076 002B     		cmp	r3, #0
 865 0078 01DD     		ble	.L44
 479:user_interface.c ****         tens_timeout = tens_interval_ms;
ARM GAS  C:\Users\dev\AppData\Local\Temp\ccC4nFKO.s 			page 39


 866              		.loc 1 479 0
 867 007a 024A     		ldr	r2, .L59+4
 868 007c 1360     		str	r3, [r2]
 869              	.L44:
 870 007e 7047     		bx	lr
 871              	.L60:
 872              		.align	2
 873              	.L59:
 874 0080 00000000 		.word	.LANCHOR1
 875 0084 00000000 		.word	.LANCHOR0
 876              		.cfi_endproc
 877              	.LFE730:
 878              		.size	ui_settings_tens_freq, .-ui_settings_tens_freq
 879              		.section	.text.ui_settings_tens_dur,"ax",%progbits
 880              		.align	2
 881              		.global	ui_settings_tens_dur
 882              		.thumb
 883              		.thumb_func
 884              		.type	ui_settings_tens_dur, %function
 885              	ui_settings_tens_dur:
 886              	.LFB731:
 480:user_interface.c **** }
 481:user_interface.c **** 
 482:user_interface.c **** /*******************************************************************************
 483:user_interface.c **** * Function Name: void ui_settings_tens_dur(int item)
 484:user_interface.c **** ********************************************************************************
 485:user_interface.c **** *
 486:user_interface.c **** * Parameter:    item
 487:user_interface.c **** *
 488:user_interface.c **** * Summary:
 489:user_interface.c **** *   TENS duration
 490:user_interface.c **** *
 491:user_interface.c **** *******************************************************************************/
 492:user_interface.c **** void ui_settings_tens_dur (int item) {
 887              		.loc 1 492 0
 888              		.cfi_startproc
 889              		@ args = 0, pretend = 0, frame = 0
 890              		@ frame_needed = 0, uses_anonymous_args = 0
 891              		@ link register save eliminated.
 892              	.LVL97:
 493:user_interface.c ****     
 494:user_interface.c ****     switch (item) {
 893              		.loc 1 494 0
 894 0000 0138     		subs	r0, r0, #1
 895              	.LVL98:
 896 0002 0928     		cmp	r0, #9
 897 0004 06D8     		bhi	.L62
 898 0006 DFE800F0 		tbb	[pc, r0]
 899              	.L64:
 900 000a 09       		.byte	(.L63-.L64)/2
 901 000b 0E       		.byte	(.L65-.L64)/2
 902 000c 13       		.byte	(.L66-.L64)/2
 903 000d 18       		.byte	(.L67-.L64)/2
 904 000e 1D       		.byte	(.L68-.L64)/2
 905 000f 22       		.byte	(.L69-.L64)/2
 906 0010 27       		.byte	(.L70-.L64)/2
 907 0011 2C       		.byte	(.L71-.L64)/2
ARM GAS  C:\Users\dev\AppData\Local\Temp\ccC4nFKO.s 			page 40


 908 0012 31       		.byte	(.L72-.L64)/2
 909 0013 36       		.byte	(.L73-.L64)/2
 910              		.p2align 1
 911              	.L62:
 495:user_interface.c ****         default: tens_dur_us = 0; break;   
 912              		.loc 1 495 0
 913 0014 0022     		movs	r2, #0
 914 0016 1A4B     		ldr	r3, .L75
 915 0018 5A61     		str	r2, [r3, #20]
 916 001a 7047     		bx	lr
 917              	.L63:
 496:user_interface.c ****         case 1: tens_dur_us = 300; break;
 918              		.loc 1 496 0
 919 001c 4FF49672 		mov	r2, #300
 920 0020 174B     		ldr	r3, .L75
 921 0022 5A61     		str	r2, [r3, #20]
 922 0024 7047     		bx	lr
 923              	.L65:
 497:user_interface.c ****         case 2: tens_dur_us = 400; break;
 924              		.loc 1 497 0
 925 0026 4FF4C872 		mov	r2, #400
 926 002a 154B     		ldr	r3, .L75
 927 002c 5A61     		str	r2, [r3, #20]
 928 002e 7047     		bx	lr
 929              	.L66:
 498:user_interface.c ****         case 3: tens_dur_us = 500; break;
 930              		.loc 1 498 0
 931 0030 4FF4FA72 		mov	r2, #500
 932 0034 124B     		ldr	r3, .L75
 933 0036 5A61     		str	r2, [r3, #20]
 934 0038 7047     		bx	lr
 935              	.L67:
 499:user_interface.c ****         case 4: tens_dur_us = 600; break;
 936              		.loc 1 499 0
 937 003a 4FF41672 		mov	r2, #600
 938 003e 104B     		ldr	r3, .L75
 939 0040 5A61     		str	r2, [r3, #20]
 940 0042 7047     		bx	lr
 941              	.L68:
 500:user_interface.c ****         case 5: tens_dur_us = 700; break;
 942              		.loc 1 500 0
 943 0044 4FF42F72 		mov	r2, #700
 944 0048 0D4B     		ldr	r3, .L75
 945 004a 5A61     		str	r2, [r3, #20]
 946 004c 7047     		bx	lr
 947              	.L69:
 501:user_interface.c ****         case 6: tens_dur_us = 800; break;
 948              		.loc 1 501 0
 949 004e 4FF44872 		mov	r2, #800
 950 0052 0B4B     		ldr	r3, .L75
 951 0054 5A61     		str	r2, [r3, #20]
 952 0056 7047     		bx	lr
 953              	.L70:
 502:user_interface.c ****         case 7: tens_dur_us = 900; break;
 954              		.loc 1 502 0
 955 0058 4FF46172 		mov	r2, #900
 956 005c 084B     		ldr	r3, .L75
ARM GAS  C:\Users\dev\AppData\Local\Temp\ccC4nFKO.s 			page 41


 957 005e 5A61     		str	r2, [r3, #20]
 958 0060 7047     		bx	lr
 959              	.L71:
 503:user_interface.c ****         case 8: tens_dur_us = 1000; break;
 960              		.loc 1 503 0
 961 0062 4FF47A72 		mov	r2, #1000
 962 0066 064B     		ldr	r3, .L75
 963 0068 5A61     		str	r2, [r3, #20]
 964 006a 7047     		bx	lr
 965              	.L72:
 504:user_interface.c ****         case 9: tens_dur_us = 1100; break;
 966              		.loc 1 504 0
 967 006c 40F24C42 		movw	r2, #1100
 968 0070 034B     		ldr	r3, .L75
 969 0072 5A61     		str	r2, [r3, #20]
 970 0074 7047     		bx	lr
 971              	.L73:
 505:user_interface.c ****         case 10: tens_dur_us = 1200; break;
 972              		.loc 1 505 0
 973 0076 4FF49662 		mov	r2, #1200
 974 007a 014B     		ldr	r3, .L75
 975 007c 5A61     		str	r2, [r3, #20]
 976 007e 7047     		bx	lr
 977              	.L76:
 978              		.align	2
 979              	.L75:
 980 0080 00000000 		.word	.LANCHOR1
 981              		.cfi_endproc
 982              	.LFE731:
 983              		.size	ui_settings_tens_dur, .-ui_settings_tens_dur
 984              		.section	.text.ui_settings_tens_amp,"ax",%progbits
 985              		.align	2
 986              		.global	ui_settings_tens_amp
 987              		.thumb
 988              		.thumb_func
 989              		.type	ui_settings_tens_amp, %function
 990              	ui_settings_tens_amp:
 991              	.LFB732:
 506:user_interface.c ****     }
 507:user_interface.c **** }
 508:user_interface.c **** 
 509:user_interface.c **** /*******************************************************************************
 510:user_interface.c **** * Function Name: void ui_settings_tens_amp(int item)
 511:user_interface.c **** ********************************************************************************
 512:user_interface.c **** *
 513:user_interface.c **** * Parameter:    item
 514:user_interface.c **** *
 515:user_interface.c **** * Summary:
 516:user_interface.c **** *   TENS amp
 517:user_interface.c **** *
 518:user_interface.c **** *******************************************************************************/
 519:user_interface.c **** void ui_settings_tens_amp(int item) {
 992              		.loc 1 519 0
 993              		.cfi_startproc
 994              		@ args = 0, pretend = 0, frame = 0
 995              		@ frame_needed = 0, uses_anonymous_args = 0
 996              	.LVL99:
ARM GAS  C:\Users\dev\AppData\Local\Temp\ccC4nFKO.s 			page 42


 997 0000 38B5     		push	{r3, r4, r5, lr}
 998              		.cfi_def_cfa_offset 16
 999              		.cfi_offset 3, -16
 1000              		.cfi_offset 4, -12
 1001              		.cfi_offset 5, -8
 1002              		.cfi_offset 14, -4
 520:user_interface.c **** 
 521:user_interface.c ****     //300 us on, 300 us off and 300 us in reverse direction
 522:user_interface.c ****     
 523:user_interface.c ****     
 524:user_interface.c ****     if (item == 0) {
 1003              		.loc 1 524 0
 1004 0002 68B9     		cbnz	r0, .L78
 525:user_interface.c ****         power_5v_off(); // Not need for new version
 1005              		.loc 1 525 0
 1006 0004 FFF7FEFF 		bl	power_5v_off
 1007              	.LVL100:
 1008              	.LBB130:
 1009              	.LBB131:
 1010              	.LBB132:
 1011              		.file 3 "Generated_Source\\PSoC6\\pdl\\drivers/peripheral/tcpwm/cy_tcpwm_pwm.h"
   1:Generated_Source\PSoC6\pdl\drivers/peripheral/tcpwm/cy_tcpwm_pwm.h **** /***************************************************************************//**
   2:Generated_Source\PSoC6\pdl\drivers/peripheral/tcpwm/cy_tcpwm_pwm.h **** * \file cy_tcpwm_pwm.h
   3:Generated_Source\PSoC6\pdl\drivers/peripheral/tcpwm/cy_tcpwm_pwm.h **** * \version 1.10
   4:Generated_Source\PSoC6\pdl\drivers/peripheral/tcpwm/cy_tcpwm_pwm.h **** *
   5:Generated_Source\PSoC6\pdl\drivers/peripheral/tcpwm/cy_tcpwm_pwm.h **** * \brief
   6:Generated_Source\PSoC6\pdl\drivers/peripheral/tcpwm/cy_tcpwm_pwm.h **** * The header file of the TCPWM PWM driver.
   7:Generated_Source\PSoC6\pdl\drivers/peripheral/tcpwm/cy_tcpwm_pwm.h **** *
   8:Generated_Source\PSoC6\pdl\drivers/peripheral/tcpwm/cy_tcpwm_pwm.h **** ********************************************************************************
   9:Generated_Source\PSoC6\pdl\drivers/peripheral/tcpwm/cy_tcpwm_pwm.h **** * \copyright
  10:Generated_Source\PSoC6\pdl\drivers/peripheral/tcpwm/cy_tcpwm_pwm.h **** * Copyright 2016-2018, Cypress Semiconductor Corporation. All rights reserved.
  11:Generated_Source\PSoC6\pdl\drivers/peripheral/tcpwm/cy_tcpwm_pwm.h **** * You may use this file only in accordance with the license, terms, conditions,
  12:Generated_Source\PSoC6\pdl\drivers/peripheral/tcpwm/cy_tcpwm_pwm.h **** * disclaimers, and limitations in the end user license agreement accompanying
  13:Generated_Source\PSoC6\pdl\drivers/peripheral/tcpwm/cy_tcpwm_pwm.h **** * the software package with which this file was provided.
  14:Generated_Source\PSoC6\pdl\drivers/peripheral/tcpwm/cy_tcpwm_pwm.h **** *******************************************************************************/
  15:Generated_Source\PSoC6\pdl\drivers/peripheral/tcpwm/cy_tcpwm_pwm.h **** 
  16:Generated_Source\PSoC6\pdl\drivers/peripheral/tcpwm/cy_tcpwm_pwm.h **** #if !defined(CY_TCPWM_PWM_H)
  17:Generated_Source\PSoC6\pdl\drivers/peripheral/tcpwm/cy_tcpwm_pwm.h **** #define CY_TCPWM_PWM_H
  18:Generated_Source\PSoC6\pdl\drivers/peripheral/tcpwm/cy_tcpwm_pwm.h **** 
  19:Generated_Source\PSoC6\pdl\drivers/peripheral/tcpwm/cy_tcpwm_pwm.h **** #include "cy_tcpwm.h"
  20:Generated_Source\PSoC6\pdl\drivers/peripheral/tcpwm/cy_tcpwm_pwm.h **** 
  21:Generated_Source\PSoC6\pdl\drivers/peripheral/tcpwm/cy_tcpwm_pwm.h **** #if defined(__cplusplus)
  22:Generated_Source\PSoC6\pdl\drivers/peripheral/tcpwm/cy_tcpwm_pwm.h **** extern "C" {
  23:Generated_Source\PSoC6\pdl\drivers/peripheral/tcpwm/cy_tcpwm_pwm.h **** #endif
  24:Generated_Source\PSoC6\pdl\drivers/peripheral/tcpwm/cy_tcpwm_pwm.h **** 
  25:Generated_Source\PSoC6\pdl\drivers/peripheral/tcpwm/cy_tcpwm_pwm.h **** /**
  26:Generated_Source\PSoC6\pdl\drivers/peripheral/tcpwm/cy_tcpwm_pwm.h **** * \addtogroup group_tcpwm_pwm
  27:Generated_Source\PSoC6\pdl\drivers/peripheral/tcpwm/cy_tcpwm_pwm.h **** * Driver API for PWM.
  28:Generated_Source\PSoC6\pdl\drivers/peripheral/tcpwm/cy_tcpwm_pwm.h **** *
  29:Generated_Source\PSoC6\pdl\drivers/peripheral/tcpwm/cy_tcpwm_pwm.h **** * The functions and other declarations used in this part of the driver are in cy_tcpwm_pwm.h. 
  30:Generated_Source\PSoC6\pdl\drivers/peripheral/tcpwm/cy_tcpwm_pwm.h **** * You can also include cy_pdl.h (ModusToolbox only) to get access to all  
  31:Generated_Source\PSoC6\pdl\drivers/peripheral/tcpwm/cy_tcpwm_pwm.h **** * functions and declarations in the PDL.
  32:Generated_Source\PSoC6\pdl\drivers/peripheral/tcpwm/cy_tcpwm_pwm.h **** * \{
  33:Generated_Source\PSoC6\pdl\drivers/peripheral/tcpwm/cy_tcpwm_pwm.h **** */
  34:Generated_Source\PSoC6\pdl\drivers/peripheral/tcpwm/cy_tcpwm_pwm.h **** 
  35:Generated_Source\PSoC6\pdl\drivers/peripheral/tcpwm/cy_tcpwm_pwm.h **** /**
  36:Generated_Source\PSoC6\pdl\drivers/peripheral/tcpwm/cy_tcpwm_pwm.h **** * \defgroup group_tcpwm_macros_pwm          Macros
ARM GAS  C:\Users\dev\AppData\Local\Temp\ccC4nFKO.s 			page 43


  37:Generated_Source\PSoC6\pdl\drivers/peripheral/tcpwm/cy_tcpwm_pwm.h **** * \defgroup group_tcpwm_functions_pwm       Functions
  38:Generated_Source\PSoC6\pdl\drivers/peripheral/tcpwm/cy_tcpwm_pwm.h **** * \defgroup group_tcpwm_data_structures_pwm Data Structures
  39:Generated_Source\PSoC6\pdl\drivers/peripheral/tcpwm/cy_tcpwm_pwm.h **** * \} */
  40:Generated_Source\PSoC6\pdl\drivers/peripheral/tcpwm/cy_tcpwm_pwm.h **** 
  41:Generated_Source\PSoC6\pdl\drivers/peripheral/tcpwm/cy_tcpwm_pwm.h **** /**
  42:Generated_Source\PSoC6\pdl\drivers/peripheral/tcpwm/cy_tcpwm_pwm.h **** * \addtogroup group_tcpwm_data_structures_pwm
  43:Generated_Source\PSoC6\pdl\drivers/peripheral/tcpwm/cy_tcpwm_pwm.h **** * \{
  44:Generated_Source\PSoC6\pdl\drivers/peripheral/tcpwm/cy_tcpwm_pwm.h **** */
  45:Generated_Source\PSoC6\pdl\drivers/peripheral/tcpwm/cy_tcpwm_pwm.h **** 
  46:Generated_Source\PSoC6\pdl\drivers/peripheral/tcpwm/cy_tcpwm_pwm.h **** /** PWM configuration structure */
  47:Generated_Source\PSoC6\pdl\drivers/peripheral/tcpwm/cy_tcpwm_pwm.h **** typedef struct cy_stc_tcpwm_pwm_config
  48:Generated_Source\PSoC6\pdl\drivers/peripheral/tcpwm/cy_tcpwm_pwm.h **** {
  49:Generated_Source\PSoC6\pdl\drivers/peripheral/tcpwm/cy_tcpwm_pwm.h ****     uint32_t    pwmMode;            /**< Sets the PWM mode. See \ref group_tcpwm_pwm_modes */
  50:Generated_Source\PSoC6\pdl\drivers/peripheral/tcpwm/cy_tcpwm_pwm.h ****     /** Sets the clock prescaler inside the TCWPM block. See \ref group_tcpwm_pwm_clk_prescalers */
  51:Generated_Source\PSoC6\pdl\drivers/peripheral/tcpwm/cy_tcpwm_pwm.h ****     uint32_t     clockPrescaler;
  52:Generated_Source\PSoC6\pdl\drivers/peripheral/tcpwm/cy_tcpwm_pwm.h ****     uint32_t    pwmAlignment;       /**< Sets the PWM alignment. See \ref group_tcpwm_pwm_alignment
  53:Generated_Source\PSoC6\pdl\drivers/peripheral/tcpwm/cy_tcpwm_pwm.h ****     uint32_t    deadTimeClocks;     /**< The number of dead time-clocks if PWM with dead time is ch
  54:Generated_Source\PSoC6\pdl\drivers/peripheral/tcpwm/cy_tcpwm_pwm.h ****     uint32_t    runMode;            /**< Sets the PWM run mode. See \ref group_tcpwm_pwm_run_modes 
  55:Generated_Source\PSoC6\pdl\drivers/peripheral/tcpwm/cy_tcpwm_pwm.h ****     uint32_t    period0;            /**< Sets the period0 of the pwm */
  56:Generated_Source\PSoC6\pdl\drivers/peripheral/tcpwm/cy_tcpwm_pwm.h ****     uint32_t    period1;            /**< Sets the period1 of the pwm */
  57:Generated_Source\PSoC6\pdl\drivers/peripheral/tcpwm/cy_tcpwm_pwm.h ****     bool        enablePeriodSwap;   /**< Enables swapping of period 0 and period 1 on terminal coun
  58:Generated_Source\PSoC6\pdl\drivers/peripheral/tcpwm/cy_tcpwm_pwm.h ****     uint32_t    compare0;           /**< Sets the value for Compare0 */
  59:Generated_Source\PSoC6\pdl\drivers/peripheral/tcpwm/cy_tcpwm_pwm.h ****     uint32_t    compare1;           /**< Sets the value for Compare1 */
  60:Generated_Source\PSoC6\pdl\drivers/peripheral/tcpwm/cy_tcpwm_pwm.h ****     bool        enableCompareSwap;  /**< If enabled, the compare values are swapped on the terminal
  61:Generated_Source\PSoC6\pdl\drivers/peripheral/tcpwm/cy_tcpwm_pwm.h ****     /** Enables an interrupt on the terminal count, capture or compare. See \ref group_tcpwm_interr
  62:Generated_Source\PSoC6\pdl\drivers/peripheral/tcpwm/cy_tcpwm_pwm.h ****     uint32_t    interruptSources;
  63:Generated_Source\PSoC6\pdl\drivers/peripheral/tcpwm/cy_tcpwm_pwm.h ****     uint32_t    invertPWMOut;       /**< Inverts the PWM output */
  64:Generated_Source\PSoC6\pdl\drivers/peripheral/tcpwm/cy_tcpwm_pwm.h ****     uint32_t    invertPWMOutN;      /**< Inverts the PWM_n output */
  65:Generated_Source\PSoC6\pdl\drivers/peripheral/tcpwm/cy_tcpwm_pwm.h ****     uint32_t    killMode;           /**< Configures the PWM kill modes. See \ref group_tcpwm_pwm_ki
  66:Generated_Source\PSoC6\pdl\drivers/peripheral/tcpwm/cy_tcpwm_pwm.h ****     uint32_t    swapInputMode;      /**< Configures how the swap input behaves. See \ref group_tcpw
  67:Generated_Source\PSoC6\pdl\drivers/peripheral/tcpwm/cy_tcpwm_pwm.h ****     /** Selects which input the swap uses. Inputs are device-specific. See \ref group_tcpwm_input_s
  68:Generated_Source\PSoC6\pdl\drivers/peripheral/tcpwm/cy_tcpwm_pwm.h ****     uint32_t    swapInput;
  69:Generated_Source\PSoC6\pdl\drivers/peripheral/tcpwm/cy_tcpwm_pwm.h ****     uint32_t    reloadInputMode;    /**< Configures how the reload input behaves. See \ref group_tc
  70:Generated_Source\PSoC6\pdl\drivers/peripheral/tcpwm/cy_tcpwm_pwm.h ****     /** Selects which input the reload uses. The inputs are device-specific. See \ref group_tcpwm_i
  71:Generated_Source\PSoC6\pdl\drivers/peripheral/tcpwm/cy_tcpwm_pwm.h ****     uint32_t    reloadInput;            
  72:Generated_Source\PSoC6\pdl\drivers/peripheral/tcpwm/cy_tcpwm_pwm.h ****     uint32_t    startInputMode;     /**< Configures how the start input behaves. See \ref group_tcp
  73:Generated_Source\PSoC6\pdl\drivers/peripheral/tcpwm/cy_tcpwm_pwm.h ****     /** Selects which input the start uses. The inputs are device-specific. See \ref group_tcpwm_in
  74:Generated_Source\PSoC6\pdl\drivers/peripheral/tcpwm/cy_tcpwm_pwm.h ****     uint32_t    startInput;                
  75:Generated_Source\PSoC6\pdl\drivers/peripheral/tcpwm/cy_tcpwm_pwm.h ****     uint32_t    killInputMode;      /**< Configures how the kill input behaves. See \ref group_tcpw
  76:Generated_Source\PSoC6\pdl\drivers/peripheral/tcpwm/cy_tcpwm_pwm.h ****     /** Selects which input the kill uses. The inputs are device-specific. See \ref group_tcpwm_inp
  77:Generated_Source\PSoC6\pdl\drivers/peripheral/tcpwm/cy_tcpwm_pwm.h ****     uint32_t    killInput;
  78:Generated_Source\PSoC6\pdl\drivers/peripheral/tcpwm/cy_tcpwm_pwm.h ****     uint32_t    countInputMode;     /**< Configures how the count input behaves. See \ref group_tcp
  79:Generated_Source\PSoC6\pdl\drivers/peripheral/tcpwm/cy_tcpwm_pwm.h ****     /** Selects which input the count uses. The inputs are device-specific. See \ref group_tcpwm_in
  80:Generated_Source\PSoC6\pdl\drivers/peripheral/tcpwm/cy_tcpwm_pwm.h ****     uint32_t    countInput;
  81:Generated_Source\PSoC6\pdl\drivers/peripheral/tcpwm/cy_tcpwm_pwm.h **** }cy_stc_tcpwm_pwm_config_t;
  82:Generated_Source\PSoC6\pdl\drivers/peripheral/tcpwm/cy_tcpwm_pwm.h **** /** \} group_tcpwm_data_structures_pwm */
  83:Generated_Source\PSoC6\pdl\drivers/peripheral/tcpwm/cy_tcpwm_pwm.h **** 
  84:Generated_Source\PSoC6\pdl\drivers/peripheral/tcpwm/cy_tcpwm_pwm.h **** /**
  85:Generated_Source\PSoC6\pdl\drivers/peripheral/tcpwm/cy_tcpwm_pwm.h **** * \addtogroup group_tcpwm_macros_pwm
  86:Generated_Source\PSoC6\pdl\drivers/peripheral/tcpwm/cy_tcpwm_pwm.h **** * \{
  87:Generated_Source\PSoC6\pdl\drivers/peripheral/tcpwm/cy_tcpwm_pwm.h **** * \defgroup group_tcpwm_pwm_run_modes PWM run modes
  88:Generated_Source\PSoC6\pdl\drivers/peripheral/tcpwm/cy_tcpwm_pwm.h **** * \{
  89:Generated_Source\PSoC6\pdl\drivers/peripheral/tcpwm/cy_tcpwm_pwm.h **** * Run modes for the pwm timer.
  90:Generated_Source\PSoC6\pdl\drivers/peripheral/tcpwm/cy_tcpwm_pwm.h **** */
  91:Generated_Source\PSoC6\pdl\drivers/peripheral/tcpwm/cy_tcpwm_pwm.h **** #define CY_TCPWM_PWM_ONESHOT            (1U)    /**< Counter runs once and then stops */
  92:Generated_Source\PSoC6\pdl\drivers/peripheral/tcpwm/cy_tcpwm_pwm.h **** #define CY_TCPWM_PWM_CONTINUOUS         (0U)    /**< Counter runs forever */
  93:Generated_Source\PSoC6\pdl\drivers/peripheral/tcpwm/cy_tcpwm_pwm.h **** /** \} group_tcpwm_pwm_run_modes */
ARM GAS  C:\Users\dev\AppData\Local\Temp\ccC4nFKO.s 			page 44


  94:Generated_Source\PSoC6\pdl\drivers/peripheral/tcpwm/cy_tcpwm_pwm.h **** 
  95:Generated_Source\PSoC6\pdl\drivers/peripheral/tcpwm/cy_tcpwm_pwm.h **** /** \defgroup group_tcpwm_pwm_modes PWM modes 
  96:Generated_Source\PSoC6\pdl\drivers/peripheral/tcpwm/cy_tcpwm_pwm.h **** * \{
  97:Generated_Source\PSoC6\pdl\drivers/peripheral/tcpwm/cy_tcpwm_pwm.h **** * Sets the PWM modes.
  98:Generated_Source\PSoC6\pdl\drivers/peripheral/tcpwm/cy_tcpwm_pwm.h **** */
  99:Generated_Source\PSoC6\pdl\drivers/peripheral/tcpwm/cy_tcpwm_pwm.h **** #define CY_TCPWM_PWM_MODE_PWM           (4U) /**< Standard PWM Mode*/
 100:Generated_Source\PSoC6\pdl\drivers/peripheral/tcpwm/cy_tcpwm_pwm.h **** #define CY_TCPWM_PWM_MODE_DEADTIME      (5U)    /**< PWM with deadtime mode*/
 101:Generated_Source\PSoC6\pdl\drivers/peripheral/tcpwm/cy_tcpwm_pwm.h **** #define CY_TCPWM_PWM_MODE_PSEUDORANDOM  (6U)    /**< Pseudo Random PWM */
 102:Generated_Source\PSoC6\pdl\drivers/peripheral/tcpwm/cy_tcpwm_pwm.h **** /** \} group_tcpwm_pwm_modes */
 103:Generated_Source\PSoC6\pdl\drivers/peripheral/tcpwm/cy_tcpwm_pwm.h **** 
 104:Generated_Source\PSoC6\pdl\drivers/peripheral/tcpwm/cy_tcpwm_pwm.h **** /** \defgroup group_tcpwm_pwm_alignment PWM Alignment
 105:Generated_Source\PSoC6\pdl\drivers/peripheral/tcpwm/cy_tcpwm_pwm.h **** * Sets the alignment of the PWM.
 106:Generated_Source\PSoC6\pdl\drivers/peripheral/tcpwm/cy_tcpwm_pwm.h **** * \{
 107:Generated_Source\PSoC6\pdl\drivers/peripheral/tcpwm/cy_tcpwm_pwm.h **** */
 108:Generated_Source\PSoC6\pdl\drivers/peripheral/tcpwm/cy_tcpwm_pwm.h **** #define CY_TCPWM_PWM_LEFT_ALIGN         (0U)     /**< PWM is left aligned, meaning it starts high *
 109:Generated_Source\PSoC6\pdl\drivers/peripheral/tcpwm/cy_tcpwm_pwm.h **** #define CY_TCPWM_PWM_RIGHT_ALIGN        (1U)        /**< PWM is right aligned, meaning it starts lo
 110:Generated_Source\PSoC6\pdl\drivers/peripheral/tcpwm/cy_tcpwm_pwm.h **** /** PWM is centered aligned, terminal count only occurs on underflow */
 111:Generated_Source\PSoC6\pdl\drivers/peripheral/tcpwm/cy_tcpwm_pwm.h **** #define CY_TCPWM_PWM_CENTER_ALIGN       (2U)
 112:Generated_Source\PSoC6\pdl\drivers/peripheral/tcpwm/cy_tcpwm_pwm.h **** /** PWM is asymmetrically aligned, terminal count occurs on overflow and underflow */
 113:Generated_Source\PSoC6\pdl\drivers/peripheral/tcpwm/cy_tcpwm_pwm.h **** #define CY_TCPWM_PWM_ASYMMETRIC_ALIGN   (3U)
 114:Generated_Source\PSoC6\pdl\drivers/peripheral/tcpwm/cy_tcpwm_pwm.h **** /** \} group_tcpwm_pwm_alignment */
 115:Generated_Source\PSoC6\pdl\drivers/peripheral/tcpwm/cy_tcpwm_pwm.h **** 
 116:Generated_Source\PSoC6\pdl\drivers/peripheral/tcpwm/cy_tcpwm_pwm.h **** /** \defgroup group_tcpwm_pwm_kill_modes PWM kill modes
 117:Generated_Source\PSoC6\pdl\drivers/peripheral/tcpwm/cy_tcpwm_pwm.h **** * Sets the kill mode for the PWM.
 118:Generated_Source\PSoC6\pdl\drivers/peripheral/tcpwm/cy_tcpwm_pwm.h **** * \{
 119:Generated_Source\PSoC6\pdl\drivers/peripheral/tcpwm/cy_tcpwm_pwm.h **** */
 120:Generated_Source\PSoC6\pdl\drivers/peripheral/tcpwm/cy_tcpwm_pwm.h **** #define CY_TCPWM_PWM_STOP_ON_KILL       (2U)    /**< PWM stops counting on kill */
 121:Generated_Source\PSoC6\pdl\drivers/peripheral/tcpwm/cy_tcpwm_pwm.h **** #define CY_TCPWM_PWM_SYNCH_KILL         (1U)    /**< PWM output is killed after next TC*/
 122:Generated_Source\PSoC6\pdl\drivers/peripheral/tcpwm/cy_tcpwm_pwm.h **** #define CY_TCPWM_PWM_ASYNC_KILL         (0U)    /**< PWM output is killed instantly */
 123:Generated_Source\PSoC6\pdl\drivers/peripheral/tcpwm/cy_tcpwm_pwm.h **** /** \} group_tcpwm_pwm_kill_modes */
 124:Generated_Source\PSoC6\pdl\drivers/peripheral/tcpwm/cy_tcpwm_pwm.h **** 
 125:Generated_Source\PSoC6\pdl\drivers/peripheral/tcpwm/cy_tcpwm_pwm.h **** /** \defgroup group_tcpwm_pwm_clk_prescalers PWM CLK Prescaler values
 126:Generated_Source\PSoC6\pdl\drivers/peripheral/tcpwm/cy_tcpwm_pwm.h **** * \{
 127:Generated_Source\PSoC6\pdl\drivers/peripheral/tcpwm/cy_tcpwm_pwm.h **** * Clock prescaler values.
 128:Generated_Source\PSoC6\pdl\drivers/peripheral/tcpwm/cy_tcpwm_pwm.h **** */
 129:Generated_Source\PSoC6\pdl\drivers/peripheral/tcpwm/cy_tcpwm_pwm.h **** #define CY_TCPWM_PWM_PRESCALER_DIVBY_1      (0U) /**< Divide by 1 */
 130:Generated_Source\PSoC6\pdl\drivers/peripheral/tcpwm/cy_tcpwm_pwm.h **** #define CY_TCPWM_PWM_PRESCALER_DIVBY_2      (1U) /**< Divide by 2 */
 131:Generated_Source\PSoC6\pdl\drivers/peripheral/tcpwm/cy_tcpwm_pwm.h **** #define CY_TCPWM_PWM_PRESCALER_DIVBY_4      (2U) /**< Divide by 4 */
 132:Generated_Source\PSoC6\pdl\drivers/peripheral/tcpwm/cy_tcpwm_pwm.h **** #define CY_TCPWM_PWM_PRESCALER_DIVBY_8      (3U) /**< Divide by 8 */
 133:Generated_Source\PSoC6\pdl\drivers/peripheral/tcpwm/cy_tcpwm_pwm.h **** #define CY_TCPWM_PWM_PRESCALER_DIVBY_16     (4U) /**< Divide by 16 */
 134:Generated_Source\PSoC6\pdl\drivers/peripheral/tcpwm/cy_tcpwm_pwm.h **** #define CY_TCPWM_PWM_PRESCALER_DIVBY_32     (5U) /**< Divide by 32 */
 135:Generated_Source\PSoC6\pdl\drivers/peripheral/tcpwm/cy_tcpwm_pwm.h **** #define CY_TCPWM_PWM_PRESCALER_DIVBY_64     (6U) /**< Divide by 64 */
 136:Generated_Source\PSoC6\pdl\drivers/peripheral/tcpwm/cy_tcpwm_pwm.h **** #define CY_TCPWM_PWM_PRESCALER_DIVBY_128    (7U) /**< Divide by 128 */
 137:Generated_Source\PSoC6\pdl\drivers/peripheral/tcpwm/cy_tcpwm_pwm.h **** /** \} group_tcpwm_pwm_clk_prescalers */
 138:Generated_Source\PSoC6\pdl\drivers/peripheral/tcpwm/cy_tcpwm_pwm.h **** 
 139:Generated_Source\PSoC6\pdl\drivers/peripheral/tcpwm/cy_tcpwm_pwm.h **** /** \defgroup group_tcpwm_pwm_output_invert PWM output invert
 140:Generated_Source\PSoC6\pdl\drivers/peripheral/tcpwm/cy_tcpwm_pwm.h **** * \{
 141:Generated_Source\PSoC6\pdl\drivers/peripheral/tcpwm/cy_tcpwm_pwm.h **** * Output invert modes.
 142:Generated_Source\PSoC6\pdl\drivers/peripheral/tcpwm/cy_tcpwm_pwm.h **** */
 143:Generated_Source\PSoC6\pdl\drivers/peripheral/tcpwm/cy_tcpwm_pwm.h **** #define CY_TCPWM_PWM_INVERT_ENABLE          (1U)  /**< Invert the output mode */
 144:Generated_Source\PSoC6\pdl\drivers/peripheral/tcpwm/cy_tcpwm_pwm.h **** #define CY_TCPWM_PWM_INVERT_DISABLE         (0U)  /**< Do not invert the output mode */
 145:Generated_Source\PSoC6\pdl\drivers/peripheral/tcpwm/cy_tcpwm_pwm.h **** /** \} group_tcpwm_pwm_output_invert */
 146:Generated_Source\PSoC6\pdl\drivers/peripheral/tcpwm/cy_tcpwm_pwm.h **** 
 147:Generated_Source\PSoC6\pdl\drivers/peripheral/tcpwm/cy_tcpwm_pwm.h **** /** \defgroup group_tcpwm_pwm_status PWM Status
 148:Generated_Source\PSoC6\pdl\drivers/peripheral/tcpwm/cy_tcpwm_pwm.h **** * \{
 149:Generated_Source\PSoC6\pdl\drivers/peripheral/tcpwm/cy_tcpwm_pwm.h **** * The counter status.
 150:Generated_Source\PSoC6\pdl\drivers/peripheral/tcpwm/cy_tcpwm_pwm.h **** */
ARM GAS  C:\Users\dev\AppData\Local\Temp\ccC4nFKO.s 			page 45


 151:Generated_Source\PSoC6\pdl\drivers/peripheral/tcpwm/cy_tcpwm_pwm.h **** #define CY_TCPWM_PWM_STATUS_DOWN_COUNTING   (0x1UL)        /**< PWM is down counting */
 152:Generated_Source\PSoC6\pdl\drivers/peripheral/tcpwm/cy_tcpwm_pwm.h **** #define CY_TCPWM_PWM_STATUS_UP_COUNTING     (0x2UL)        /**< PWM is up counting */
 153:Generated_Source\PSoC6\pdl\drivers/peripheral/tcpwm/cy_tcpwm_pwm.h **** #define CY_TCPWM_PWM_STATUS_COUNTER_RUNNING (TCPWM_CNT_STATUS_RUNNING_Msk)     /**< PWM counter is 
 154:Generated_Source\PSoC6\pdl\drivers/peripheral/tcpwm/cy_tcpwm_pwm.h **** /** \} group_tcpwm_pwm_status */
 155:Generated_Source\PSoC6\pdl\drivers/peripheral/tcpwm/cy_tcpwm_pwm.h **** /** \} group_tcpwm_macros_pwm */
 156:Generated_Source\PSoC6\pdl\drivers/peripheral/tcpwm/cy_tcpwm_pwm.h **** 
 157:Generated_Source\PSoC6\pdl\drivers/peripheral/tcpwm/cy_tcpwm_pwm.h **** 
 158:Generated_Source\PSoC6\pdl\drivers/peripheral/tcpwm/cy_tcpwm_pwm.h **** /***************************************
 159:Generated_Source\PSoC6\pdl\drivers/peripheral/tcpwm/cy_tcpwm_pwm.h **** *        Registers Constants
 160:Generated_Source\PSoC6\pdl\drivers/peripheral/tcpwm/cy_tcpwm_pwm.h **** ***************************************/
 161:Generated_Source\PSoC6\pdl\drivers/peripheral/tcpwm/cy_tcpwm_pwm.h **** 
 162:Generated_Source\PSoC6\pdl\drivers/peripheral/tcpwm/cy_tcpwm_pwm.h **** /** \cond INTERNAL */
 163:Generated_Source\PSoC6\pdl\drivers/peripheral/tcpwm/cy_tcpwm_pwm.h **** #define CY_TCPWM_PWM_CTRL_SYNC_KILL_OR_STOP_ON_KILL_POS  (2U)
 164:Generated_Source\PSoC6\pdl\drivers/peripheral/tcpwm/cy_tcpwm_pwm.h **** #define CY_TCPWM_PWM_CTRL_SYNC_KILL_OR_STOP_ON_KILL_MASK (0x3UL << CY_TCPWM_PWM_CTRL_SYNC_KILL_OR_S
 165:Generated_Source\PSoC6\pdl\drivers/peripheral/tcpwm/cy_tcpwm_pwm.h **** 
 166:Generated_Source\PSoC6\pdl\drivers/peripheral/tcpwm/cy_tcpwm_pwm.h **** #define CY_TCPWM_PWM_TR_CTRL2_SET           (0UL) /**< Set define for PWM output signal configurati
 167:Generated_Source\PSoC6\pdl\drivers/peripheral/tcpwm/cy_tcpwm_pwm.h **** #define CY_TCPWM_PWM_TR_CTRL2_CLEAR         (1UL) /**< Clear define for PWM output signal configura
 168:Generated_Source\PSoC6\pdl\drivers/peripheral/tcpwm/cy_tcpwm_pwm.h **** #define CY_TCPWM_PWM_TR_CTRL2_INVERT        (2UL) /**< Invert define for PWM output signal configur
 169:Generated_Source\PSoC6\pdl\drivers/peripheral/tcpwm/cy_tcpwm_pwm.h **** #define CY_TCPWM_PWM_TR_CTRL2_NO_CHANGE     (3UL) /**< No change define for PWM output signal confi
 170:Generated_Source\PSoC6\pdl\drivers/peripheral/tcpwm/cy_tcpwm_pwm.h **** 
 171:Generated_Source\PSoC6\pdl\drivers/peripheral/tcpwm/cy_tcpwm_pwm.h **** /** The configuration of PWM output signal in Pseudo Random Mode */
 172:Generated_Source\PSoC6\pdl\drivers/peripheral/tcpwm/cy_tcpwm_pwm.h **** #define CY_TCPWM_PWM_MODE_PR         (_VAL2FLD(TCPWM_CNT_TR_CTRL2_CC_MATCH_MODE, CY_TCPWM_PWM_TR_CT
 173:Generated_Source\PSoC6\pdl\drivers/peripheral/tcpwm/cy_tcpwm_pwm.h ****                                       _VAL2FLD(TCPWM_CNT_TR_CTRL2_OVERFLOW_MODE, CY_TCPWM_PWM_TR_CT
 174:Generated_Source\PSoC6\pdl\drivers/peripheral/tcpwm/cy_tcpwm_pwm.h ****                                       _VAL2FLD(TCPWM_CNT_TR_CTRL2_UNDERFLOW_MODE, CY_TCPWM_PWM_TR_C
 175:Generated_Source\PSoC6\pdl\drivers/peripheral/tcpwm/cy_tcpwm_pwm.h **** 
 176:Generated_Source\PSoC6\pdl\drivers/peripheral/tcpwm/cy_tcpwm_pwm.h **** /** The configuration of PWM output signal for Left alignment */
 177:Generated_Source\PSoC6\pdl\drivers/peripheral/tcpwm/cy_tcpwm_pwm.h **** #define CY_TCPWM_PWM_MODE_LEFT       (_VAL2FLD(TCPWM_CNT_TR_CTRL2_CC_MATCH_MODE, CY_TCPWM_PWM_TR_CT
 178:Generated_Source\PSoC6\pdl\drivers/peripheral/tcpwm/cy_tcpwm_pwm.h ****                                       _VAL2FLD(TCPWM_CNT_TR_CTRL2_OVERFLOW_MODE, CY_TCPWM_PWM_TR_CT
 179:Generated_Source\PSoC6\pdl\drivers/peripheral/tcpwm/cy_tcpwm_pwm.h ****                                       _VAL2FLD(TCPWM_CNT_TR_CTRL2_UNDERFLOW_MODE, CY_TCPWM_PWM_TR_C
 180:Generated_Source\PSoC6\pdl\drivers/peripheral/tcpwm/cy_tcpwm_pwm.h **** 
 181:Generated_Source\PSoC6\pdl\drivers/peripheral/tcpwm/cy_tcpwm_pwm.h **** /** The configuration of PWM output signal for Right alignment */
 182:Generated_Source\PSoC6\pdl\drivers/peripheral/tcpwm/cy_tcpwm_pwm.h **** #define CY_TCPWM_PWM_MODE_RIGHT      (_VAL2FLD(TCPWM_CNT_TR_CTRL2_CC_MATCH_MODE, CY_TCPWM_PWM_TR_CT
 183:Generated_Source\PSoC6\pdl\drivers/peripheral/tcpwm/cy_tcpwm_pwm.h ****                                       _VAL2FLD(TCPWM_CNT_TR_CTRL2_OVERFLOW_MODE, CY_TCPWM_PWM_TR_CT
 184:Generated_Source\PSoC6\pdl\drivers/peripheral/tcpwm/cy_tcpwm_pwm.h ****                                       _VAL2FLD(TCPWM_CNT_TR_CTRL2_UNDERFLOW_MODE, CY_TCPWM_PWM_TR_C
 185:Generated_Source\PSoC6\pdl\drivers/peripheral/tcpwm/cy_tcpwm_pwm.h **** 
 186:Generated_Source\PSoC6\pdl\drivers/peripheral/tcpwm/cy_tcpwm_pwm.h **** /** The configuration of PWM output signal for Center and Asymmetric alignment */
 187:Generated_Source\PSoC6\pdl\drivers/peripheral/tcpwm/cy_tcpwm_pwm.h **** #define CY_TCPWM_PWM_MODE_CNTR_OR_ASYMM (_VAL2FLD(TCPWM_CNT_TR_CTRL2_CC_MATCH_MODE, CY_TCPWM_PWM_TR
 188:Generated_Source\PSoC6\pdl\drivers/peripheral/tcpwm/cy_tcpwm_pwm.h ****                                          _VAL2FLD(TCPWM_CNT_TR_CTRL2_OVERFLOW_MODE, CY_TCPWM_PWM_TR
 189:Generated_Source\PSoC6\pdl\drivers/peripheral/tcpwm/cy_tcpwm_pwm.h ****                                          _VAL2FLD(TCPWM_CNT_TR_CTRL2_UNDERFLOW_MODE, CY_TCPWM_PWM_T
 190:Generated_Source\PSoC6\pdl\drivers/peripheral/tcpwm/cy_tcpwm_pwm.h **** /** \endcond */
 191:Generated_Source\PSoC6\pdl\drivers/peripheral/tcpwm/cy_tcpwm_pwm.h **** 
 192:Generated_Source\PSoC6\pdl\drivers/peripheral/tcpwm/cy_tcpwm_pwm.h **** 
 193:Generated_Source\PSoC6\pdl\drivers/peripheral/tcpwm/cy_tcpwm_pwm.h **** /*******************************************************************************
 194:Generated_Source\PSoC6\pdl\drivers/peripheral/tcpwm/cy_tcpwm_pwm.h **** *        Function Prototypes
 195:Generated_Source\PSoC6\pdl\drivers/peripheral/tcpwm/cy_tcpwm_pwm.h **** *******************************************************************************/
 196:Generated_Source\PSoC6\pdl\drivers/peripheral/tcpwm/cy_tcpwm_pwm.h **** 
 197:Generated_Source\PSoC6\pdl\drivers/peripheral/tcpwm/cy_tcpwm_pwm.h **** /**
 198:Generated_Source\PSoC6\pdl\drivers/peripheral/tcpwm/cy_tcpwm_pwm.h **** * \addtogroup group_tcpwm_functions_pwm
 199:Generated_Source\PSoC6\pdl\drivers/peripheral/tcpwm/cy_tcpwm_pwm.h **** * \{
 200:Generated_Source\PSoC6\pdl\drivers/peripheral/tcpwm/cy_tcpwm_pwm.h **** */
 201:Generated_Source\PSoC6\pdl\drivers/peripheral/tcpwm/cy_tcpwm_pwm.h **** 
 202:Generated_Source\PSoC6\pdl\drivers/peripheral/tcpwm/cy_tcpwm_pwm.h **** cy_en_tcpwm_status_t Cy_TCPWM_PWM_Init(TCPWM_Type *base, uint32_t cntNum, cy_stc_tcpwm_pwm_config_t
 203:Generated_Source\PSoC6\pdl\drivers/peripheral/tcpwm/cy_tcpwm_pwm.h **** void Cy_TCPWM_PWM_DeInit(TCPWM_Type *base, uint32_t cntNum, cy_stc_tcpwm_pwm_config_t const *config
 204:Generated_Source\PSoC6\pdl\drivers/peripheral/tcpwm/cy_tcpwm_pwm.h **** __STATIC_INLINE void Cy_TCPWM_PWM_Enable(TCPWM_Type *base, uint32_t cntNum);
 205:Generated_Source\PSoC6\pdl\drivers/peripheral/tcpwm/cy_tcpwm_pwm.h **** __STATIC_INLINE void Cy_TCPWM_PWM_Disable(TCPWM_Type *base, uint32_t cntNum);
 206:Generated_Source\PSoC6\pdl\drivers/peripheral/tcpwm/cy_tcpwm_pwm.h **** __STATIC_INLINE uint32_t Cy_TCPWM_PWM_GetStatus(TCPWM_Type const *base, uint32_t cntNum);
 207:Generated_Source\PSoC6\pdl\drivers/peripheral/tcpwm/cy_tcpwm_pwm.h **** __STATIC_INLINE void Cy_TCPWM_PWM_SetCompare0(TCPWM_Type *base, uint32_t cntNum, uint32_t compare0)
ARM GAS  C:\Users\dev\AppData\Local\Temp\ccC4nFKO.s 			page 46


 208:Generated_Source\PSoC6\pdl\drivers/peripheral/tcpwm/cy_tcpwm_pwm.h **** __STATIC_INLINE uint32_t Cy_TCPWM_PWM_GetCompare0(TCPWM_Type const *base, uint32_t cntNum);
 209:Generated_Source\PSoC6\pdl\drivers/peripheral/tcpwm/cy_tcpwm_pwm.h **** __STATIC_INLINE void Cy_TCPWM_PWM_SetCompare1(TCPWM_Type *base, uint32_t cntNum, uint32_t compare1)
 210:Generated_Source\PSoC6\pdl\drivers/peripheral/tcpwm/cy_tcpwm_pwm.h **** __STATIC_INLINE uint32_t Cy_TCPWM_PWM_GetCompare1(TCPWM_Type const *base, uint32_t cntNum);
 211:Generated_Source\PSoC6\pdl\drivers/peripheral/tcpwm/cy_tcpwm_pwm.h **** __STATIC_INLINE void Cy_TCPWM_PWM_EnableCompareSwap(TCPWM_Type *base, uint32_t cntNum, bool enable)
 212:Generated_Source\PSoC6\pdl\drivers/peripheral/tcpwm/cy_tcpwm_pwm.h **** __STATIC_INLINE void Cy_TCPWM_PWM_SetCounter(TCPWM_Type *base, uint32_t cntNum, uint32_t count);
 213:Generated_Source\PSoC6\pdl\drivers/peripheral/tcpwm/cy_tcpwm_pwm.h **** __STATIC_INLINE uint32_t Cy_TCPWM_PWM_GetCounter(TCPWM_Type const *base, uint32_t cntNum);
 214:Generated_Source\PSoC6\pdl\drivers/peripheral/tcpwm/cy_tcpwm_pwm.h **** __STATIC_INLINE void Cy_TCPWM_PWM_SetPeriod0(TCPWM_Type *base, uint32_t cntNum, uint32_t period0);
 215:Generated_Source\PSoC6\pdl\drivers/peripheral/tcpwm/cy_tcpwm_pwm.h **** __STATIC_INLINE uint32_t Cy_TCPWM_PWM_GetPeriod0(TCPWM_Type const *base, uint32_t cntNum);
 216:Generated_Source\PSoC6\pdl\drivers/peripheral/tcpwm/cy_tcpwm_pwm.h **** __STATIC_INLINE void Cy_TCPWM_PWM_SetPeriod1(TCPWM_Type *base, uint32_t cntNum, uint32_t period1);
 217:Generated_Source\PSoC6\pdl\drivers/peripheral/tcpwm/cy_tcpwm_pwm.h **** __STATIC_INLINE uint32_t Cy_TCPWM_PWM_GetPeriod1(TCPWM_Type const *base, uint32_t cntNum);
 218:Generated_Source\PSoC6\pdl\drivers/peripheral/tcpwm/cy_tcpwm_pwm.h **** __STATIC_INLINE void Cy_TCPWM_PWM_EnablePeriodSwap(TCPWM_Type *base, uint32_t cntNum, bool enable);
 219:Generated_Source\PSoC6\pdl\drivers/peripheral/tcpwm/cy_tcpwm_pwm.h **** 
 220:Generated_Source\PSoC6\pdl\drivers/peripheral/tcpwm/cy_tcpwm_pwm.h **** 
 221:Generated_Source\PSoC6\pdl\drivers/peripheral/tcpwm/cy_tcpwm_pwm.h **** /*******************************************************************************
 222:Generated_Source\PSoC6\pdl\drivers/peripheral/tcpwm/cy_tcpwm_pwm.h **** * Function Name: Cy_TCPWM_PWM_Enable
 223:Generated_Source\PSoC6\pdl\drivers/peripheral/tcpwm/cy_tcpwm_pwm.h **** ****************************************************************************//**
 224:Generated_Source\PSoC6\pdl\drivers/peripheral/tcpwm/cy_tcpwm_pwm.h **** *
 225:Generated_Source\PSoC6\pdl\drivers/peripheral/tcpwm/cy_tcpwm_pwm.h **** * Enables the counter in the TCPWM block for the PWM operation.
 226:Generated_Source\PSoC6\pdl\drivers/peripheral/tcpwm/cy_tcpwm_pwm.h **** *
 227:Generated_Source\PSoC6\pdl\drivers/peripheral/tcpwm/cy_tcpwm_pwm.h **** * \param base
 228:Generated_Source\PSoC6\pdl\drivers/peripheral/tcpwm/cy_tcpwm_pwm.h **** * The pointer to a TCPWM instance.
 229:Generated_Source\PSoC6\pdl\drivers/peripheral/tcpwm/cy_tcpwm_pwm.h **** *
 230:Generated_Source\PSoC6\pdl\drivers/peripheral/tcpwm/cy_tcpwm_pwm.h **** * \param cntNum 
 231:Generated_Source\PSoC6\pdl\drivers/peripheral/tcpwm/cy_tcpwm_pwm.h **** * The Counter instance number in the selected TCPWM.
 232:Generated_Source\PSoC6\pdl\drivers/peripheral/tcpwm/cy_tcpwm_pwm.h **** *
 233:Generated_Source\PSoC6\pdl\drivers/peripheral/tcpwm/cy_tcpwm_pwm.h **** * \funcusage
 234:Generated_Source\PSoC6\pdl\drivers/peripheral/tcpwm/cy_tcpwm_pwm.h **** * \snippet tcpwm\1.10\pwm\snippet\main.c snippet_Cy_TCPWM_PWM_Init
 235:Generated_Source\PSoC6\pdl\drivers/peripheral/tcpwm/cy_tcpwm_pwm.h **** *
 236:Generated_Source\PSoC6\pdl\drivers/peripheral/tcpwm/cy_tcpwm_pwm.h **** *******************************************************************************/
 237:Generated_Source\PSoC6\pdl\drivers/peripheral/tcpwm/cy_tcpwm_pwm.h **** __STATIC_INLINE void Cy_TCPWM_PWM_Enable(TCPWM_Type *base, uint32_t cntNum)
 238:Generated_Source\PSoC6\pdl\drivers/peripheral/tcpwm/cy_tcpwm_pwm.h **** {
 239:Generated_Source\PSoC6\pdl\drivers/peripheral/tcpwm/cy_tcpwm_pwm.h ****     TCPWM_CTRL_SET(base) = (1UL << cntNum);
 240:Generated_Source\PSoC6\pdl\drivers/peripheral/tcpwm/cy_tcpwm_pwm.h **** }
 241:Generated_Source\PSoC6\pdl\drivers/peripheral/tcpwm/cy_tcpwm_pwm.h **** 
 242:Generated_Source\PSoC6\pdl\drivers/peripheral/tcpwm/cy_tcpwm_pwm.h **** /*******************************************************************************
 243:Generated_Source\PSoC6\pdl\drivers/peripheral/tcpwm/cy_tcpwm_pwm.h **** * Function Name: Cy_TCPWM_PWM_Disable
 244:Generated_Source\PSoC6\pdl\drivers/peripheral/tcpwm/cy_tcpwm_pwm.h **** ****************************************************************************//**
 245:Generated_Source\PSoC6\pdl\drivers/peripheral/tcpwm/cy_tcpwm_pwm.h **** *
 246:Generated_Source\PSoC6\pdl\drivers/peripheral/tcpwm/cy_tcpwm_pwm.h **** * Disables the counter in the TCPWM block.
 247:Generated_Source\PSoC6\pdl\drivers/peripheral/tcpwm/cy_tcpwm_pwm.h **** *
 248:Generated_Source\PSoC6\pdl\drivers/peripheral/tcpwm/cy_tcpwm_pwm.h **** * \param base
 249:Generated_Source\PSoC6\pdl\drivers/peripheral/tcpwm/cy_tcpwm_pwm.h **** * The pointer to a TCPWM instance.
 250:Generated_Source\PSoC6\pdl\drivers/peripheral/tcpwm/cy_tcpwm_pwm.h **** *
 251:Generated_Source\PSoC6\pdl\drivers/peripheral/tcpwm/cy_tcpwm_pwm.h **** * \param cntNum 
 252:Generated_Source\PSoC6\pdl\drivers/peripheral/tcpwm/cy_tcpwm_pwm.h **** * The Counter instance number in the selected TCPWM.
 253:Generated_Source\PSoC6\pdl\drivers/peripheral/tcpwm/cy_tcpwm_pwm.h **** *
 254:Generated_Source\PSoC6\pdl\drivers/peripheral/tcpwm/cy_tcpwm_pwm.h **** * \funcusage
 255:Generated_Source\PSoC6\pdl\drivers/peripheral/tcpwm/cy_tcpwm_pwm.h **** * \snippet tcpwm\1.10\pwm\snippet\main.c snippet_Cy_TCPWM_PWM_DeInit
 256:Generated_Source\PSoC6\pdl\drivers/peripheral/tcpwm/cy_tcpwm_pwm.h **** *
 257:Generated_Source\PSoC6\pdl\drivers/peripheral/tcpwm/cy_tcpwm_pwm.h **** *******************************************************************************/
 258:Generated_Source\PSoC6\pdl\drivers/peripheral/tcpwm/cy_tcpwm_pwm.h **** __STATIC_INLINE void Cy_TCPWM_PWM_Disable(TCPWM_Type *base, uint32_t cntNum)
 259:Generated_Source\PSoC6\pdl\drivers/peripheral/tcpwm/cy_tcpwm_pwm.h **** {
 260:Generated_Source\PSoC6\pdl\drivers/peripheral/tcpwm/cy_tcpwm_pwm.h ****     TCPWM_CTRL_CLR(base) = (1UL << cntNum);
 261:Generated_Source\PSoC6\pdl\drivers/peripheral/tcpwm/cy_tcpwm_pwm.h **** }
 262:Generated_Source\PSoC6\pdl\drivers/peripheral/tcpwm/cy_tcpwm_pwm.h **** 
 263:Generated_Source\PSoC6\pdl\drivers/peripheral/tcpwm/cy_tcpwm_pwm.h **** 
 264:Generated_Source\PSoC6\pdl\drivers/peripheral/tcpwm/cy_tcpwm_pwm.h **** /*******************************************************************************
ARM GAS  C:\Users\dev\AppData\Local\Temp\ccC4nFKO.s 			page 47


 265:Generated_Source\PSoC6\pdl\drivers/peripheral/tcpwm/cy_tcpwm_pwm.h **** * Function Name: Cy_TCPWM_PWM_GetStatus
 266:Generated_Source\PSoC6\pdl\drivers/peripheral/tcpwm/cy_tcpwm_pwm.h **** ****************************************************************************//**
 267:Generated_Source\PSoC6\pdl\drivers/peripheral/tcpwm/cy_tcpwm_pwm.h **** *
 268:Generated_Source\PSoC6\pdl\drivers/peripheral/tcpwm/cy_tcpwm_pwm.h **** * Returns the status of the PWM.
 269:Generated_Source\PSoC6\pdl\drivers/peripheral/tcpwm/cy_tcpwm_pwm.h **** *
 270:Generated_Source\PSoC6\pdl\drivers/peripheral/tcpwm/cy_tcpwm_pwm.h **** * \param base
 271:Generated_Source\PSoC6\pdl\drivers/peripheral/tcpwm/cy_tcpwm_pwm.h **** * The pointer to a TCPWM instance.
 272:Generated_Source\PSoC6\pdl\drivers/peripheral/tcpwm/cy_tcpwm_pwm.h **** *
 273:Generated_Source\PSoC6\pdl\drivers/peripheral/tcpwm/cy_tcpwm_pwm.h **** * \param cntNum 
 274:Generated_Source\PSoC6\pdl\drivers/peripheral/tcpwm/cy_tcpwm_pwm.h **** * The Counter instance number in the selected TCPWM.
 275:Generated_Source\PSoC6\pdl\drivers/peripheral/tcpwm/cy_tcpwm_pwm.h **** *
 276:Generated_Source\PSoC6\pdl\drivers/peripheral/tcpwm/cy_tcpwm_pwm.h **** * \return
 277:Generated_Source\PSoC6\pdl\drivers/peripheral/tcpwm/cy_tcpwm_pwm.h **** * The status. See \ref group_tcpwm_pwm_status
 278:Generated_Source\PSoC6\pdl\drivers/peripheral/tcpwm/cy_tcpwm_pwm.h **** *
 279:Generated_Source\PSoC6\pdl\drivers/peripheral/tcpwm/cy_tcpwm_pwm.h **** * \funcusage
 280:Generated_Source\PSoC6\pdl\drivers/peripheral/tcpwm/cy_tcpwm_pwm.h **** * \snippet tcpwm\1.10\pwm\snippet\main.c snippet_Cy_TCPWM_PWM_GetStatus
 281:Generated_Source\PSoC6\pdl\drivers/peripheral/tcpwm/cy_tcpwm_pwm.h **** *
 282:Generated_Source\PSoC6\pdl\drivers/peripheral/tcpwm/cy_tcpwm_pwm.h **** *******************************************************************************/
 283:Generated_Source\PSoC6\pdl\drivers/peripheral/tcpwm/cy_tcpwm_pwm.h **** __STATIC_INLINE uint32_t Cy_TCPWM_PWM_GetStatus(TCPWM_Type const *base, uint32_t cntNum)
 284:Generated_Source\PSoC6\pdl\drivers/peripheral/tcpwm/cy_tcpwm_pwm.h **** {
 285:Generated_Source\PSoC6\pdl\drivers/peripheral/tcpwm/cy_tcpwm_pwm.h ****     uint32_t status = TCPWM_CNT_STATUS(base, cntNum);
 286:Generated_Source\PSoC6\pdl\drivers/peripheral/tcpwm/cy_tcpwm_pwm.h ****     
 287:Generated_Source\PSoC6\pdl\drivers/peripheral/tcpwm/cy_tcpwm_pwm.h ****     /* Generates proper up counting status, does not generated by HW */
 288:Generated_Source\PSoC6\pdl\drivers/peripheral/tcpwm/cy_tcpwm_pwm.h ****     status &= ~CY_TCPWM_PWM_STATUS_UP_COUNTING;
 289:Generated_Source\PSoC6\pdl\drivers/peripheral/tcpwm/cy_tcpwm_pwm.h ****     status |= ((~status & CY_TCPWM_PWM_STATUS_DOWN_COUNTING & (status >> TCPWM_CNT_STATUS_RUNNING_P
 290:Generated_Source\PSoC6\pdl\drivers/peripheral/tcpwm/cy_tcpwm_pwm.h ****                CY_TCPWM_CNT_STATUS_UP_POS);
 291:Generated_Source\PSoC6\pdl\drivers/peripheral/tcpwm/cy_tcpwm_pwm.h ****     
 292:Generated_Source\PSoC6\pdl\drivers/peripheral/tcpwm/cy_tcpwm_pwm.h ****     return(status);
 293:Generated_Source\PSoC6\pdl\drivers/peripheral/tcpwm/cy_tcpwm_pwm.h **** }
 294:Generated_Source\PSoC6\pdl\drivers/peripheral/tcpwm/cy_tcpwm_pwm.h **** 
 295:Generated_Source\PSoC6\pdl\drivers/peripheral/tcpwm/cy_tcpwm_pwm.h **** 
 296:Generated_Source\PSoC6\pdl\drivers/peripheral/tcpwm/cy_tcpwm_pwm.h **** /*******************************************************************************
 297:Generated_Source\PSoC6\pdl\drivers/peripheral/tcpwm/cy_tcpwm_pwm.h **** * Function Name: Cy_TCPWM_PWM_SetCompare0
 298:Generated_Source\PSoC6\pdl\drivers/peripheral/tcpwm/cy_tcpwm_pwm.h **** ****************************************************************************//**
 299:Generated_Source\PSoC6\pdl\drivers/peripheral/tcpwm/cy_tcpwm_pwm.h **** *
 300:Generated_Source\PSoC6\pdl\drivers/peripheral/tcpwm/cy_tcpwm_pwm.h **** * Sets the compare value for Compare0 when the compare mode enabled.
 301:Generated_Source\PSoC6\pdl\drivers/peripheral/tcpwm/cy_tcpwm_pwm.h **** *
 302:Generated_Source\PSoC6\pdl\drivers/peripheral/tcpwm/cy_tcpwm_pwm.h **** * \param base
 303:Generated_Source\PSoC6\pdl\drivers/peripheral/tcpwm/cy_tcpwm_pwm.h **** * The pointer to a TCPWM instance.
 304:Generated_Source\PSoC6\pdl\drivers/peripheral/tcpwm/cy_tcpwm_pwm.h **** *
 305:Generated_Source\PSoC6\pdl\drivers/peripheral/tcpwm/cy_tcpwm_pwm.h **** * \param cntNum 
 306:Generated_Source\PSoC6\pdl\drivers/peripheral/tcpwm/cy_tcpwm_pwm.h **** * The Counter instance number in the selected TCPWM.
 307:Generated_Source\PSoC6\pdl\drivers/peripheral/tcpwm/cy_tcpwm_pwm.h **** *
 308:Generated_Source\PSoC6\pdl\drivers/peripheral/tcpwm/cy_tcpwm_pwm.h **** * \param compare0
 309:Generated_Source\PSoC6\pdl\drivers/peripheral/tcpwm/cy_tcpwm_pwm.h **** * The Compare0 value.
 310:Generated_Source\PSoC6\pdl\drivers/peripheral/tcpwm/cy_tcpwm_pwm.h **** *
 311:Generated_Source\PSoC6\pdl\drivers/peripheral/tcpwm/cy_tcpwm_pwm.h **** * \funcusage
 312:Generated_Source\PSoC6\pdl\drivers/peripheral/tcpwm/cy_tcpwm_pwm.h **** * \snippet tcpwm\1.10\pwm\snippet\main.c snippet_Cy_TCPWM_PWM_SetCompare0
 313:Generated_Source\PSoC6\pdl\drivers/peripheral/tcpwm/cy_tcpwm_pwm.h **** *
 314:Generated_Source\PSoC6\pdl\drivers/peripheral/tcpwm/cy_tcpwm_pwm.h **** *******************************************************************************/
 315:Generated_Source\PSoC6\pdl\drivers/peripheral/tcpwm/cy_tcpwm_pwm.h **** __STATIC_INLINE void Cy_TCPWM_PWM_SetCompare0(TCPWM_Type *base, uint32_t cntNum,  uint32_t compare0
 316:Generated_Source\PSoC6\pdl\drivers/peripheral/tcpwm/cy_tcpwm_pwm.h **** {
 317:Generated_Source\PSoC6\pdl\drivers/peripheral/tcpwm/cy_tcpwm_pwm.h ****     TCPWM_CNT_CC(base, cntNum) = compare0;
 1012              		.loc 3 317 0
 1013 0008 0021     		movs	r1, #0
 1014 000a 2D4B     		ldr	r3, .L93
 1015 000c C3F8CC12 		str	r1, [r3, #716]
ARM GAS  C:\Users\dev\AppData\Local\Temp\ccC4nFKO.s 			page 48


 1016              	.LVL101:
 1017              	.LBE132:
 1018              	.LBE131:
 1019              	.LBE130:
 526:user_interface.c ****         PWM_TENS_SetCompare0(0);
 527:user_interface.c ****         power_flags_update(UI_MENU_TENS_AMP, 0);
 1020              		.loc 1 527 0
 1021 0010 0620     		movs	r0, #6
 1022 0012 FFF7FEFF 		bl	power_flags_update
 1023              	.LVL102:
 528:user_interface.c ****         
 529:user_interface.c ****         tens_interval_ms = -1; //Disable timer
 1024              		.loc 1 529 0
 1025 0016 4FF0FF32 		mov	r2, #-1
 1026 001a 2A4B     		ldr	r3, .L93+4
 1027 001c 9A61     		str	r2, [r3, #24]
 1028 001e 38BD     		pop	{r3, r4, r5, pc}
 1029              	.LVL103:
 1030              	.L78:
 1031 0020 0446     		mov	r4, r0
 530:user_interface.c ****         
 531:user_interface.c ****     } else {
 532:user_interface.c ****         power_5v_on(); // Not need for new version
 1032              		.loc 1 532 0
 1033 0022 FFF7FEFF 		bl	power_5v_on
 1034              	.LVL104:
 533:user_interface.c ****         //PWM_TENS_SetCompare0(257 * item/ 10);
 534:user_interface.c ****         //PWM_TENS_SetCompare0(624 * item / 10);
 535:user_interface.c ****         power_flags_update(UI_MENU_TENS_AMP, 1);
 1035              		.loc 1 535 0
 1036 0026 0121     		movs	r1, #1
 1037 0028 0620     		movs	r0, #6
 1038 002a FFF7FEFF 		bl	power_flags_update
 1039              	.LVL105:
 536:user_interface.c ****         
 537:user_interface.c ****         ui_settings_tens_dur(ui_menu_item[UI_MENU_TENS_DUR]); 
 1040              		.loc 1 537 0
 1041 002e 254D     		ldr	r5, .L93+4
 1042 0030 A86B     		ldr	r0, [r5, #56]
 1043 0032 FFF7FEFF 		bl	ui_settings_tens_dur
 1044              	.LVL106:
 538:user_interface.c ****         
 539:user_interface.c ****         ui_settings_tens_freq(ui_menu_item[UI_MENU_TENS_FREQ]); //Enable tens timer
 1045              		.loc 1 539 0
 1046 0036 286B     		ldr	r0, [r5, #48]
 1047 0038 FFF7FEFF 		bl	ui_settings_tens_freq
 1048              	.LVL107:
 540:user_interface.c ****         
 541:user_interface.c ****         switch (item) {
 1049              		.loc 1 541 0
 1050 003c 601E     		subs	r0, r4, #1
 1051 003e 0928     		cmp	r0, #9
 1052 0040 39D8     		bhi	.L80
 1053 0042 DFE800F0 		tbb	[pc, r0]
 1054              	.L82:
 1055 0046 05       		.byte	(.L81-.L82)/2
 1056 0047 0A       		.byte	(.L83-.L82)/2
ARM GAS  C:\Users\dev\AppData\Local\Temp\ccC4nFKO.s 			page 49


 1057 0048 0F       		.byte	(.L84-.L82)/2
 1058 0049 14       		.byte	(.L85-.L82)/2
 1059 004a 19       		.byte	(.L86-.L82)/2
 1060 004b 1E       		.byte	(.L87-.L82)/2
 1061 004c 23       		.byte	(.L88-.L82)/2
 1062 004d 28       		.byte	(.L89-.L82)/2
 1063 004e 2D       		.byte	(.L90-.L82)/2
 1064 004f 32       		.byte	(.L91-.L82)/2
 1065              		.p2align 1
 1066              	.L81:
 1067              	.LVL108:
 1068              	.LBB133:
 1069              	.LBB134:
 1070              	.LBB135:
 1071              		.loc 3 317 0
 1072 0050 0122     		movs	r2, #1
 1073 0052 1B4B     		ldr	r3, .L93
 1074 0054 C3F8CC22 		str	r2, [r3, #716]
 1075              	.LVL109:
 1076 0058 38BD     		pop	{r3, r4, r5, pc}
 1077              	.LVL110:
 1078              	.L83:
 1079              	.LBE135:
 1080              	.LBE134:
 1081              	.LBE133:
 1082              	.LBB136:
 1083              	.LBB137:
 1084              	.LBB138:
 1085 005a 0822     		movs	r2, #8
 1086 005c 184B     		ldr	r3, .L93
 1087 005e C3F8CC22 		str	r2, [r3, #716]
 1088              	.LVL111:
 1089 0062 38BD     		pop	{r3, r4, r5, pc}
 1090              	.LVL112:
 1091              	.L84:
 1092              	.LBE138:
 1093              	.LBE137:
 1094              	.LBE136:
 1095              	.LBB139:
 1096              	.LBB140:
 1097              	.LBB141:
 1098 0064 1522     		movs	r2, #21
 1099 0066 164B     		ldr	r3, .L93
 1100 0068 C3F8CC22 		str	r2, [r3, #716]
 1101              	.LVL113:
 1102 006c 38BD     		pop	{r3, r4, r5, pc}
 1103              	.LVL114:
 1104              	.L85:
 1105              	.LBE141:
 1106              	.LBE140:
 1107              	.LBE139:
 1108              	.LBB142:
 1109              	.LBB143:
 1110              	.LBB144:
 1111 006e 2122     		movs	r2, #33
 1112 0070 134B     		ldr	r3, .L93
 1113 0072 C3F8CC22 		str	r2, [r3, #716]
ARM GAS  C:\Users\dev\AppData\Local\Temp\ccC4nFKO.s 			page 50


 1114              	.LVL115:
 1115 0076 38BD     		pop	{r3, r4, r5, pc}
 1116              	.LVL116:
 1117              	.L86:
 1118              	.LBE144:
 1119              	.LBE143:
 1120              	.LBE142:
 1121              	.LBB145:
 1122              	.LBB146:
 1123              	.LBB147:
 1124 0078 2D22     		movs	r2, #45
 1125 007a 114B     		ldr	r3, .L93
 1126 007c C3F8CC22 		str	r2, [r3, #716]
 1127              	.LVL117:
 1128 0080 38BD     		pop	{r3, r4, r5, pc}
 1129              	.LVL118:
 1130              	.L87:
 1131              	.LBE147:
 1132              	.LBE146:
 1133              	.LBE145:
 1134              	.LBB148:
 1135              	.LBB149:
 1136              	.LBB150:
 1137 0082 3A22     		movs	r2, #58
 1138 0084 0E4B     		ldr	r3, .L93
 1139 0086 C3F8CC22 		str	r2, [r3, #716]
 1140              	.LVL119:
 1141 008a 38BD     		pop	{r3, r4, r5, pc}
 1142              	.LVL120:
 1143              	.L88:
 1144              	.LBE150:
 1145              	.LBE149:
 1146              	.LBE148:
 1147              	.LBB151:
 1148              	.LBB152:
 1149              	.LBB153:
 1150 008c 4722     		movs	r2, #71
 1151 008e 0C4B     		ldr	r3, .L93
 1152 0090 C3F8CC22 		str	r2, [r3, #716]
 1153              	.LVL121:
 1154 0094 38BD     		pop	{r3, r4, r5, pc}
 1155              	.LVL122:
 1156              	.L89:
 1157              	.LBE153:
 1158              	.LBE152:
 1159              	.LBE151:
 1160              	.LBB154:
 1161              	.LBB155:
 1162              	.LBB156:
 1163 0096 5322     		movs	r2, #83
 1164 0098 094B     		ldr	r3, .L93
 1165 009a C3F8CC22 		str	r2, [r3, #716]
 1166              	.LVL123:
 1167 009e 38BD     		pop	{r3, r4, r5, pc}
 1168              	.LVL124:
 1169              	.L90:
 1170              	.LBE156:
ARM GAS  C:\Users\dev\AppData\Local\Temp\ccC4nFKO.s 			page 51


 1171              	.LBE155:
 1172              	.LBE154:
 1173              	.LBB157:
 1174              	.LBB158:
 1175              	.LBB159:
 1176 00a0 7C22     		movs	r2, #124
 1177 00a2 074B     		ldr	r3, .L93
 1178 00a4 C3F8CC22 		str	r2, [r3, #716]
 1179              	.LVL125:
 1180 00a8 38BD     		pop	{r3, r4, r5, pc}
 1181              	.LVL126:
 1182              	.L91:
 1183              	.LBE159:
 1184              	.LBE158:
 1185              	.LBE157:
 1186              	.LBB160:
 1187              	.LBB161:
 1188              	.LBB162:
 1189 00aa 40F22E22 		movw	r2, #558
 1190 00ae 044B     		ldr	r3, .L93
 1191 00b0 C3F8CC22 		str	r2, [r3, #716]
 1192              	.LVL127:
 1193 00b4 38BD     		pop	{r3, r4, r5, pc}
 1194              	.LVL128:
 1195              	.L80:
 1196              	.LBE162:
 1197              	.LBE161:
 1198              	.LBE160:
 1199              	.LBB163:
 1200              	.LBB164:
 1201              	.LBB165:
 1202 00b6 0022     		movs	r2, #0
 1203 00b8 014B     		ldr	r3, .L93
 1204 00ba C3F8CC22 		str	r2, [r3, #716]
 1205              	.LVL129:
 1206 00be 38BD     		pop	{r3, r4, r5, pc}
 1207              	.LVL130:
 1208              	.L94:
 1209              		.align	2
 1210              	.L93:
 1211 00c0 00003940 		.word	1077477376
 1212 00c4 00000000 		.word	.LANCHOR1
 1213              	.LBE165:
 1214              	.LBE164:
 1215              	.LBE163:
 1216              		.cfi_endproc
 1217              	.LFE732:
 1218              		.size	ui_settings_tens_amp, .-ui_settings_tens_amp
 1219              		.section	.text.ui_vibe_task,"ax",%progbits
 1220              		.align	2
 1221              		.global	ui_vibe_task
 1222              		.thumb
 1223              		.thumb_func
 1224              		.type	ui_vibe_task, %function
 1225              	ui_vibe_task:
 1226              	.LFB733:
 542:user_interface.c ****             case 1: PWM_TENS_SetCompare0(1); break;             
ARM GAS  C:\Users\dev\AppData\Local\Temp\ccC4nFKO.s 			page 52


 543:user_interface.c ****             case 2: PWM_TENS_SetCompare0(8); break; 
 544:user_interface.c ****             case 3: PWM_TENS_SetCompare0(21); break;             
 545:user_interface.c ****             case 4: PWM_TENS_SetCompare0(33); break;
 546:user_interface.c ****             case 5: PWM_TENS_SetCompare0(45); break;             
 547:user_interface.c ****             case 6: PWM_TENS_SetCompare0(58); break; 
 548:user_interface.c ****             case 7: PWM_TENS_SetCompare0(71); break;             
 549:user_interface.c ****             case 8: PWM_TENS_SetCompare0(83); break;
 550:user_interface.c ****             case 9: PWM_TENS_SetCompare0(124); break;             
 551:user_interface.c ****             case 10: PWM_TENS_SetCompare0(558); break;
 552:user_interface.c ****             default: PWM_TENS_SetCompare0(0); break;
 553:user_interface.c ****         }
 554:user_interface.c ****     }
 555:user_interface.c ****     
 556:user_interface.c **** }
 557:user_interface.c **** 
 558:user_interface.c **** 
 559:user_interface.c **** 
 560:user_interface.c **** /*******************************************************************************
 561:user_interface.c **** * Function Name: void ui_vibe_task( void )
 562:user_interface.c **** ********************************************************************************
 563:user_interface.c **** *
 564:user_interface.c **** * Parameter:    None
 565:user_interface.c **** *
 566:user_interface.c **** * Summary:
 567:user_interface.c **** *   vibe task
 568:user_interface.c **** *
 569:user_interface.c **** *******************************************************************************/
 570:user_interface.c **** void ui_vibe_task( void ) {
 1227              		.loc 1 570 0
 1228              		.cfi_startproc
 1229              		@ args = 0, pretend = 0, frame = 0
 1230              		@ frame_needed = 0, uses_anonymous_args = 0
 1231              		@ link register save eliminated.
 571:user_interface.c ****     
 572:user_interface.c ****     switch (vibe_state) {
 1232              		.loc 1 572 0
 1233 0000 164B     		ldr	r3, .L101
 1234 0002 5B6C     		ldr	r3, [r3, #68]
 1235 0004 012B     		cmp	r3, #1
 1236 0006 0AD0     		beq	.L97
 1237 0008 022B     		cmp	r3, #2
 1238 000a 17D0     		beq	.L98
 573:user_interface.c ****         
 574:user_interface.c ****         default:
 575:user_interface.c ****             if (vibe_amp > 0) {
 1239              		.loc 1 575 0
 1240 000c 134B     		ldr	r3, .L101
 1241 000e 9B6C     		ldr	r3, [r3, #72]
 1242 0010 002B     		cmp	r3, #0
 1243 0012 21DD     		ble	.L95
 576:user_interface.c ****                 vibe_state = 1;
 1244              		.loc 1 576 0
 1245 0014 114A     		ldr	r2, .L101
 1246 0016 0121     		movs	r1, #1
 1247 0018 5164     		str	r1, [r2, #68]
 577:user_interface.c ****                 vibe_timeout = vibe_amp;
 1248              		.loc 1 577 0
ARM GAS  C:\Users\dev\AppData\Local\Temp\ccC4nFKO.s 			page 53


 1249 001a 1361     		str	r3, [r2, #16]
 1250 001c 7047     		bx	lr
 1251              	.L97:
 578:user_interface.c ****                 //PWM_VIBE_SetCompare0(vibe_freq);
 579:user_interface.c ****             }
 580:user_interface.c ****         break;
 581:user_interface.c ****             
 582:user_interface.c ****         case 1: //on time
 583:user_interface.c ****             if (vibe_timeout == 0) {
 1252              		.loc 1 583 0
 1253 001e 0F4B     		ldr	r3, .L101
 1254 0020 1B69     		ldr	r3, [r3, #16]
 1255 0022 5BB9     		cbnz	r3, .L98
 584:user_interface.c ****                 vibe_state = 2;
 1256              		.loc 1 584 0
 1257 0024 0D4A     		ldr	r2, .L101
 1258 0026 0223     		movs	r3, #2
 1259 0028 5364     		str	r3, [r2, #68]
 585:user_interface.c ****                 vibe_timeout = VIBE_PERIOD_MS - vibe_amp;
 1260              		.loc 1 585 0
 1261 002a 936C     		ldr	r3, [r2, #72]
 1262 002c C3F16403 		rsb	r3, r3, #100
 1263 0030 1361     		str	r3, [r2, #16]
 586:user_interface.c ****                 if (vibe_timeout < 0) vibe_timeout = 0;
 1264              		.loc 1 586 0
 1265 0032 002B     		cmp	r3, #0
 1266 0034 02DA     		bge	.L98
 1267              		.loc 1 586 0 is_stmt 0 discriminator 1
 1268 0036 0022     		movs	r2, #0
 1269 0038 084B     		ldr	r3, .L101
 1270 003a 1A61     		str	r2, [r3, #16]
 1271              	.L98:
 587:user_interface.c ****                 //PWM_VIBE_SetCompare0(0);
 588:user_interface.c ****             }
 589:user_interface.c **** 
 590:user_interface.c ****         case 2: //off time
 591:user_interface.c ****             if (vibe_amp == 0) {
 1272              		.loc 1 591 0 is_stmt 1
 1273 003c 074B     		ldr	r3, .L101
 1274 003e 9B6C     		ldr	r3, [r3, #72]
 1275 0040 1BB9     		cbnz	r3, .L100
 592:user_interface.c ****                 vibe_state = 0;
 1276              		.loc 1 592 0
 1277 0042 0022     		movs	r2, #0
 1278 0044 054B     		ldr	r3, .L101
 1279 0046 5A64     		str	r2, [r3, #68]
 1280 0048 7047     		bx	lr
 1281              	.L100:
 593:user_interface.c ****             } else if (vibe_timeout == 0) {
 1282              		.loc 1 593 0
 1283 004a 044A     		ldr	r2, .L101
 1284 004c 1269     		ldr	r2, [r2, #16]
 1285 004e 1AB9     		cbnz	r2, .L95
 594:user_interface.c ****                 vibe_state = 1;
 1286              		.loc 1 594 0
 1287 0050 024A     		ldr	r2, .L101
 1288 0052 0121     		movs	r1, #1
ARM GAS  C:\Users\dev\AppData\Local\Temp\ccC4nFKO.s 			page 54


 1289 0054 5164     		str	r1, [r2, #68]
 595:user_interface.c ****                 vibe_timeout = vibe_amp;
 1290              		.loc 1 595 0
 1291 0056 1361     		str	r3, [r2, #16]
 1292              	.L95:
 1293 0058 7047     		bx	lr
 1294              	.L102:
 1295 005a 00BF     		.align	2
 1296              	.L101:
 1297 005c 00000000 		.word	.LANCHOR1
 1298              		.cfi_endproc
 1299              	.LFE733:
 1300              		.size	ui_vibe_task, .-ui_vibe_task
 1301              		.section	.text.ui_settings_vibe_freq,"ax",%progbits
 1302              		.align	2
 1303              		.global	ui_settings_vibe_freq
 1304              		.thumb
 1305              		.thumb_func
 1306              		.type	ui_settings_vibe_freq, %function
 1307              	ui_settings_vibe_freq:
 1308              	.LFB734:
 596:user_interface.c ****                 //PWM_VIBE_SetCompare0(vibe_freq);
 597:user_interface.c ****             }
 598:user_interface.c ****         break;
 599:user_interface.c ****     }
 600:user_interface.c **** }    
 601:user_interface.c **** 
 602:user_interface.c **** /*******************************************************************************
 603:user_interface.c **** * Function Name: void ui_settings_vibe_freq(int item)
 604:user_interface.c **** ********************************************************************************
 605:user_interface.c **** *
 606:user_interface.c **** * Parameter:    item
 607:user_interface.c **** *
 608:user_interface.c **** * Summary:
 609:user_interface.c **** *   Update vibe settings
 610:user_interface.c **** *
 611:user_interface.c **** *******************************************************************************/
 612:user_interface.c **** void ui_settings_vibe_freq(int item) {
 1309              		.loc 1 612 0
 1310              		.cfi_startproc
 1311              		@ args = 0, pretend = 0, frame = 0
 1312              		@ frame_needed = 0, uses_anonymous_args = 0
 1313              		@ link register save eliminated.
 1314              	.LVL131:
 1315 0000 7047     		bx	lr
 1316              		.cfi_endproc
 1317              	.LFE734:
 1318              		.size	ui_settings_vibe_freq, .-ui_settings_vibe_freq
 1319 0002 00BF     		.section	.text.ui_settings_vibe_amp,"ax",%progbits
 1320              		.align	2
 1321              		.global	ui_settings_vibe_amp
 1322              		.thumb
 1323              		.thumb_func
 1324              		.type	ui_settings_vibe_amp, %function
 1325              	ui_settings_vibe_amp:
 1326              	.LFB735:
 613:user_interface.c ****     
ARM GAS  C:\Users\dev\AppData\Local\Temp\ccC4nFKO.s 			page 55


 614:user_interface.c ****     //min freq was 4 which is 102
 615:user_interface.c ****     if (item > 0) {
 616:user_interface.c ****         vibe_freq = (257 - 102) * item / 10 + 102;
 617:user_interface.c ****     } else {
 618:user_interface.c ****         vibe_freq = 0;
 619:user_interface.c ****     }
 620:user_interface.c **** }
 621:user_interface.c **** 
 622:user_interface.c **** /*******************************************************************************
 623:user_interface.c **** * Function Name: void ui_settings_vibe_amp(int item)
 624:user_interface.c **** ********************************************************************************
 625:user_interface.c **** *
 626:user_interface.c **** * Parameter:    item
 627:user_interface.c **** *
 628:user_interface.c **** * Summary:
 629:user_interface.c **** *   Update vibe settings
 630:user_interface.c **** *
 631:user_interface.c **** *******************************************************************************/
 632:user_interface.c **** void ui_settings_vibe_amp(int item) {
 1327              		.loc 1 632 0
 1328              		.cfi_startproc
 1329              		@ args = 0, pretend = 0, frame = 0
 1330              		@ frame_needed = 0, uses_anonymous_args = 0
 1331              	.LVL132:
 1332              		.loc 1 632 0
 1333 0000 08B5     		push	{r3, lr}
 1334              		.cfi_def_cfa_offset 8
 1335              		.cfi_offset 3, -8
 1336              		.cfi_offset 14, -4
 633:user_interface.c ****     
 634:user_interface.c ****     //Min speed was 5 which is 50%
 635:user_interface.c ****     
 636:user_interface.c ****     if (item > 0) {
 1337              		.loc 1 636 0
 1338 0002 0028     		cmp	r0, #0
 1339 0004 10DD     		ble	.L105
 637:user_interface.c ****         vibe_amp = (VIBE_PERIOD_MS/2) * item / 10 + VIBE_PERIOD_MS/2;
 1340              		.loc 1 637 0
 1341 0006 3223     		movs	r3, #50
 1342 0008 03FB00F0 		mul	r0, r3, r0
 1343              	.LVL133:
 1344 000c 0A4B     		ldr	r3, .L108
 1345 000e 83FB0023 		smull	r2, r3, r3, r0
 1346 0012 C017     		asrs	r0, r0, #31
 1347 0014 C0EBA300 		rsb	r0, r0, r3, asr #2
 1348 0018 3230     		adds	r0, r0, #50
 1349 001a 084B     		ldr	r3, .L108+4
 1350 001c 9864     		str	r0, [r3, #72]
 638:user_interface.c ****         power_flags_update(UI_MENU_VIBE_AMP, 1);
 1351              		.loc 1 638 0
 1352 001e 0121     		movs	r1, #1
 1353 0020 0320     		movs	r0, #3
 1354 0022 FFF7FEFF 		bl	power_flags_update
 1355              	.LVL134:
 1356 0026 08BD     		pop	{r3, pc}
 1357              	.LVL135:
 1358              	.L105:
ARM GAS  C:\Users\dev\AppData\Local\Temp\ccC4nFKO.s 			page 56


 639:user_interface.c ****     } else {
 640:user_interface.c ****         vibe_amp = 0;
 1359              		.loc 1 640 0
 1360 0028 0021     		movs	r1, #0
 1361 002a 044B     		ldr	r3, .L108+4
 1362 002c 9964     		str	r1, [r3, #72]
 641:user_interface.c ****         power_flags_update(UI_MENU_VIBE_AMP, 0);
 1363              		.loc 1 641 0
 1364 002e 0320     		movs	r0, #3
 1365              	.LVL136:
 1366 0030 FFF7FEFF 		bl	power_flags_update
 1367              	.LVL137:
 1368 0034 08BD     		pop	{r3, pc}
 1369              	.L109:
 1370 0036 00BF     		.align	2
 1371              	.L108:
 1372 0038 67666666 		.word	1717986919
 1373 003c 00000000 		.word	.LANCHOR1
 1374              		.cfi_endproc
 1375              	.LFE735:
 1376              		.size	ui_settings_vibe_amp, .-ui_settings_vibe_amp
 1377              		.section	.text.ui_settings_temp,"ax",%progbits
 1378              		.align	2
 1379              		.global	ui_settings_temp
 1380              		.thumb
 1381              		.thumb_func
 1382              		.type	ui_settings_temp, %function
 1383              	ui_settings_temp:
 1384              	.LFB736:
 642:user_interface.c ****     }
 643:user_interface.c ****   
 644:user_interface.c **** }
 645:user_interface.c **** 
 646:user_interface.c **** /*******************************************************************************
 647:user_interface.c **** * Function Name: void ui_settings_temp(int item)
 648:user_interface.c **** ********************************************************************************
 649:user_interface.c **** *
 650:user_interface.c **** * Parameter:    item
 651:user_interface.c **** *
 652:user_interface.c **** * Summary:
 653:user_interface.c **** *   Update temp settings
 654:user_interface.c **** *
 655:user_interface.c **** *******************************************************************************/
 656:user_interface.c ****     void ui_settings_temp(int item) {
 1385              		.loc 1 656 0
 1386              		.cfi_startproc
 1387              		@ args = 0, pretend = 0, frame = 0
 1388              		@ frame_needed = 0, uses_anonymous_args = 0
 1389              	.LVL138:
 1390 0000 08B5     		push	{r3, lr}
 1391              		.cfi_def_cfa_offset 8
 1392              		.cfi_offset 3, -8
 1393              		.cfi_offset 14, -4
 657:user_interface.c ****         
 658:user_interface.c ****   //void ui_settings_temp(int item, int direction, int dutyCyle) {
 659:user_interface.c ****  
 660:user_interface.c ****     //Update Fan
ARM GAS  C:\Users\dev\AppData\Local\Temp\ccC4nFKO.s 			page 57


 661:user_interface.c ****     if (item == 0) {
 1394              		.loc 1 661 0
 1395 0002 0346     		mov	r3, r0
 1396 0004 20B9     		cbnz	r0, .L111
 1397              	.LVL139:
 1398              	.LBB166:
 1399              	.LBB167:
 1400              	.LBB168:
 1401              		.loc 3 317 0
 1402 0006 0021     		movs	r1, #0
 1403 0008 094A     		ldr	r2, .L116
 1404 000a C2F80C11 		str	r1, [r2, #268]
 1405              	.LVL140:
 1406 000e 04E0     		b	.L112
 1407              	.LVL141:
 1408              	.L111:
 1409              	.LBE168:
 1410              	.LBE167:
 1411              	.LBE166:
 1412              	.LBB169:
 1413              	.LBB170:
 1414              	.LBB171:
 1415 0010 40F20111 		movw	r1, #257
 1416 0014 064A     		ldr	r2, .L116
 1417 0016 C2F80C11 		str	r1, [r2, #268]
 1418              	.LVL142:
 1419              	.L112:
 1420              	.LBE171:
 1421              	.LBE170:
 1422              	.LBE169:
 662:user_interface.c ****         //Turn fan off
 663:user_interface.c ****         PWM_FAN_SetCompare0(0);
 664:user_interface.c ****     } else {
 665:user_interface.c ****         //Set fan on max   
 666:user_interface.c ****         PWM_FAN_SetCompare0(257);
 667:user_interface.c ****     }
 668:user_interface.c ****     
 669:user_interface.c ****     
 670:user_interface.c ****     /* NEED TO WORK ON THIS
 671:user_interface.c ****     //Update Peltier
 672:user_interface.c ****     if(direction == 0){
 673:user_interface.c ****         Cy_GPIO_Write(PEL_1_0_PORT, PEL_1_0_NUM, dutyCyle);
 674:user_interface.c ****         Cy_GPIO_Write(PEL_2_0_PORT, PEL_2_0_NUM, 0);
 675:user_interface.c ****     } else {
 676:user_interface.c ****         Cy_GPIO_Write(PEL_1_0_PORT, PEL_1_0_NUM, 0);
 677:user_interface.c ****         Cy_GPIO_Write(PEL_2_0_PORT, PEL_2_0_NUM, dutyCyle);
 678:user_interface.c ****     }
 679:user_interface.c ****     */
 680:user_interface.c ****             
 681:user_interface.c ****     if (item == 0) {
 1423              		.loc 1 681 0
 1424 001a 23B9     		cbnz	r3, .L113
 682:user_interface.c ****         power_flags_update(UI_MENU_TEMP, 0);
 1425              		.loc 1 682 0
 1426 001c 0021     		movs	r1, #0
 1427 001e 0220     		movs	r0, #2
 1428              	.LVL143:
ARM GAS  C:\Users\dev\AppData\Local\Temp\ccC4nFKO.s 			page 58


 1429 0020 FFF7FEFF 		bl	power_flags_update
 1430              	.LVL144:
 1431 0024 08BD     		pop	{r3, pc}
 1432              	.LVL145:
 1433              	.L113:
 683:user_interface.c ****     } else {
 684:user_interface.c ****         power_flags_update(UI_MENU_TEMP, 1);
 1434              		.loc 1 684 0
 1435 0026 0121     		movs	r1, #1
 1436 0028 0220     		movs	r0, #2
 1437              	.LVL146:
 1438 002a FFF7FEFF 		bl	power_flags_update
 1439              	.LVL147:
 1440 002e 08BD     		pop	{r3, pc}
 1441              	.L117:
 1442              		.align	2
 1443              	.L116:
 1444 0030 00003840 		.word	1077411840
 1445              		.cfi_endproc
 1446              	.LFE736:
 1447              		.size	ui_settings_temp, .-ui_settings_temp
 1448              		.section	.text.ui_settings,"ax",%progbits
 1449              		.align	2
 1450              		.global	ui_settings
 1451              		.thumb
 1452              		.thumb_func
 1453              		.type	ui_settings, %function
 1454              	ui_settings:
 1455              	.LFB737:
 685:user_interface.c ****     }    
 686:user_interface.c **** }
 687:user_interface.c **** 
 688:user_interface.c **** 
 689:user_interface.c **** /*******************************************************************************
 690:user_interface.c **** * Function Name: void ui_setting(int menu, item)
 691:user_interface.c **** ********************************************************************************
 692:user_interface.c **** *
 693:user_interface.c **** * Parameter:    menu 
 694:user_interface.c **** *               item
 695:user_interface.c **** *
 696:user_interface.c **** * Summary:
 697:user_interface.c **** *   Update menu settings
 698:user_interface.c **** *
 699:user_interface.c **** *******************************************************************************/
 700:user_interface.c **** void ui_settings(int menu, int item) {
 1456              		.loc 1 700 0
 1457              		.cfi_startproc
 1458              		@ args = 0, pretend = 0, frame = 0
 1459              		@ frame_needed = 0, uses_anonymous_args = 0
 1460              	.LVL148:
 1461 0000 08B5     		push	{r3, lr}
 1462              		.cfi_def_cfa_offset 8
 1463              		.cfi_offset 3, -8
 1464              		.cfi_offset 14, -4
 701:user_interface.c ****  
 702:user_interface.c ****     switch (menu) {
 1465              		.loc 1 702 0
ARM GAS  C:\Users\dev\AppData\Local\Temp\ccC4nFKO.s 			page 59


 1466 0002 0238     		subs	r0, r0, #2
 1467              	.LVL149:
 1468 0004 0528     		cmp	r0, #5
 1469 0006 17D8     		bhi	.L118
 1470 0008 DFE800F0 		tbb	[pc, r0]
 1471              	.L121:
 1472 000c 03       		.byte	(.L120-.L121)/2
 1473 000d 07       		.byte	(.L122-.L121)/2
 1474 000e 16       		.byte	(.L118-.L121)/2
 1475 000f 0B       		.byte	(.L123-.L121)/2
 1476 0010 0F       		.byte	(.L124-.L121)/2
 1477 0011 13       		.byte	(.L125-.L121)/2
 1478              		.p2align 1
 1479              	.L120:
 703:user_interface.c ****         default: break;
 704:user_interface.c ****         case UI_MENU_MAIN:             break;
 705:user_interface.c ****         case UI_MENU_PRESET:              break;
 706:user_interface.c ****         case UI_MENU_TEMP:          ui_settings_temp(item);   break;
 1480              		.loc 1 706 0
 1481 0012 0846     		mov	r0, r1
 1482              	.LVL150:
 1483 0014 FFF7FEFF 		bl	ui_settings_temp
 1484              	.LVL151:
 1485 0018 08BD     		pop	{r3, pc}
 1486              	.LVL152:
 1487              	.L122:
 707:user_interface.c ****         case UI_MENU_VIBE_AMP:      ui_settings_vibe_amp(item);     break;
 1488              		.loc 1 707 0
 1489 001a 0846     		mov	r0, r1
 1490 001c FFF7FEFF 		bl	ui_settings_vibe_amp
 1491              	.LVL153:
 1492 0020 08BD     		pop	{r3, pc}
 1493              	.LVL154:
 1494              	.L123:
 708:user_interface.c ****         case UI_MENU_VIBE_FREQ:     ui_settings_vibe_freq(item);      break;
 709:user_interface.c ****         case UI_MENU_TENS_FREQ:     ui_settings_tens_freq(item);      break;
 1495              		.loc 1 709 0
 1496 0022 0846     		mov	r0, r1
 1497 0024 FFF7FEFF 		bl	ui_settings_tens_freq
 1498              	.LVL155:
 1499 0028 08BD     		pop	{r3, pc}
 1500              	.LVL156:
 1501              	.L124:
 710:user_interface.c ****         case UI_MENU_TENS_AMP:      ui_settings_tens_amp(item);     break;
 1502              		.loc 1 710 0
 1503 002a 0846     		mov	r0, r1
 1504 002c FFF7FEFF 		bl	ui_settings_tens_amp
 1505              	.LVL157:
 1506 0030 08BD     		pop	{r3, pc}
 1507              	.LVL158:
 1508              	.L125:
 711:user_interface.c ****         case UI_MENU_TENS_DUR:      ui_settings_tens_dur(item);        break;
 1509              		.loc 1 711 0
 1510 0032 0846     		mov	r0, r1
 1511 0034 FFF7FEFF 		bl	ui_settings_tens_dur
 1512              	.LVL159:
 1513              	.L118:
ARM GAS  C:\Users\dev\AppData\Local\Temp\ccC4nFKO.s 			page 60


 1514 0038 08BD     		pop	{r3, pc}
 1515              		.cfi_endproc
 1516              	.LFE737:
 1517              		.size	ui_settings, .-ui_settings
 1518 003a 00BF     		.section	.text.ui_menu_task,"ax",%progbits
 1519              		.align	2
 1520              		.global	ui_menu_task
 1521              		.thumb
 1522              		.thumb_func
 1523              		.type	ui_menu_task, %function
 1524              	ui_menu_task:
 1525              	.LFB738:
 712:user_interface.c ****         case UI_MENU_BLUETOOTH:           break;
 713:user_interface.c ****         case UI_MENU_DIAG:           break;
 714:user_interface.c ****     }
 715:user_interface.c ****     
 716:user_interface.c **** }
 717:user_interface.c **** 
 718:user_interface.c **** 
 719:user_interface.c **** /*******************************************************************************
 720:user_interface.c **** * Function Name: void ui_menu()
 721:user_interface.c **** ********************************************************************************
 722:user_interface.c **** *
 723:user_interface.c **** * Summary:
 724:user_interface.c **** *   Menu task
 725:user_interface.c **** *
 726:user_interface.c **** *******************************************************************************/
 727:user_interface.c **** void ui_menu_task(int btn_events[]) {
 1526              		.loc 1 727 0
 1527              		.cfi_startproc
 1528              		@ args = 0, pretend = 0, frame = 0
 1529              		@ frame_needed = 0, uses_anonymous_args = 0
 1530              	.LVL160:
 1531 0000 10B5     		push	{r4, lr}
 1532              		.cfi_def_cfa_offset 8
 1533              		.cfi_offset 4, -8
 1534              		.cfi_offset 14, -4
 1535 0002 0446     		mov	r4, r0
 728:user_interface.c ****     
 729:user_interface.c ****     ui_vibe_task();
 1536              		.loc 1 729 0
 1537 0004 FFF7FEFF 		bl	ui_vibe_task
 1538              	.LVL161:
 730:user_interface.c ****     ui_tens_task();
 1539              		.loc 1 730 0
 1540 0008 FFF7FEFF 		bl	ui_tens_task
 1541              	.LVL162:
 731:user_interface.c ****             
 732:user_interface.c ****     switch (ui_menu_state) {
 1542              		.loc 1 732 0
 1543 000c 434B     		ldr	r3, .L141
 1544 000e DB6C     		ldr	r3, [r3, #76]
 1545 0010 012B     		cmp	r3, #1
 1546 0012 05D0     		beq	.L129
 1547 0014 022B     		cmp	r3, #2
 1548 0016 2BD0     		beq	.L130
 733:user_interface.c ****         default: 
ARM GAS  C:\Users\dev\AppData\Local\Temp\ccC4nFKO.s 			page 61


 734:user_interface.c ****             //ST7735_ClearScreen (WHITE);
 735:user_interface.c ****             //Render main menu screen    
 736:user_interface.c ****             ui_draw_title( (char*) UI_TITLES[ui_menu]);
 737:user_interface.c ****             if (ui_menu == UI_MENU_MAIN) {
 738:user_interface.c ****                 ui_draw_buttons("<", "SELECT", ">");
 739:user_interface.c ****             } else if (ui_menu == UI_MENU_BLUETOOTH) {
 740:user_interface.c ****                 ui_draw_buttons("BACK", "PAIR", "RESET");
 741:user_interface.c ****             } else if (ui_menu == UI_MENU_DIAG) {
 742:user_interface.c ****                 ui_draw_buttons(" ", " ", " ");
 743:user_interface.c ****             } else {
 744:user_interface.c ****                 ui_draw_buttons("<", "BACK", ">");
 745:user_interface.c ****             }
 746:user_interface.c ****             
 747:user_interface.c ****             ui_draw_select_window();
 748:user_interface.c ****                                         
 749:user_interface.c ****             ui_menu_state = 1;
 1549              		.loc 1 749 0
 1550 0018 0122     		movs	r2, #1
 1551 001a 404B     		ldr	r3, .L141
 1552 001c DA64     		str	r2, [r3, #76]
 750:user_interface.c ****         break;
 1553              		.loc 1 750 0
 1554 001e 10BD     		pop	{r4, pc}
 1555              	.LVL163:
 1556              	.L129:
 751:user_interface.c ****     
 752:user_interface.c ****         case 1:  
 753:user_interface.c ****             
 754:user_interface.c ****             //Draw menu items left
 755:user_interface.c ****             ui_draw_icons(ui_menu, UI_ITEM_LEFT_X, ui_menu_item[ui_menu]-1);
 1557              		.loc 1 755 0
 1558 0020 3E4C     		ldr	r4, .L141
 1559              	.LVL164:
 1560 0022 206D     		ldr	r0, [r4, #80]
 1561 0024 04EB8003 		add	r3, r4, r0, lsl #2
 1562 0028 DA69     		ldr	r2, [r3, #28]
 1563 002a 013A     		subs	r2, r2, #1
 1564 002c 0721     		movs	r1, #7
 1565 002e FFF7FEFF 		bl	ui_draw_icons
 1566              	.LVL165:
 756:user_interface.c ****             
 757:user_interface.c ****             //Draw menu items center
 758:user_interface.c ****             ui_draw_icons(ui_menu, UI_ITEM_CENTER_X, ui_menu_item[ui_menu]);
 1567              		.loc 1 758 0
 1568 0032 206D     		ldr	r0, [r4, #80]
 1569 0034 04EB8003 		add	r3, r4, r0, lsl #2
 1570 0038 DA69     		ldr	r2, [r3, #28]
 1571 003a 3A21     		movs	r1, #58
 1572 003c FFF7FEFF 		bl	ui_draw_icons
 1573              	.LVL166:
 759:user_interface.c ****             
 760:user_interface.c ****             //Draw menu items right
 761:user_interface.c ****             ui_draw_icons(ui_menu, UI_ITEM_RIGHT_X, ui_menu_item[ui_menu]+1); 
 1574              		.loc 1 761 0
 1575 0040 206D     		ldr	r0, [r4, #80]
 1576 0042 04EB8003 		add	r3, r4, r0, lsl #2
 1577 0046 DA69     		ldr	r2, [r3, #28]
ARM GAS  C:\Users\dev\AppData\Local\Temp\ccC4nFKO.s 			page 62


 1578 0048 0132     		adds	r2, r2, #1
 1579 004a 6D21     		movs	r1, #109
 1580 004c FFF7FEFF 		bl	ui_draw_icons
 1581              	.LVL167:
 762:user_interface.c ****             
 763:user_interface.c ****             if (ui_menu == UI_MENU_DIAG) {
 1582              		.loc 1 763 0
 1583 0050 206D     		ldr	r0, [r4, #80]
 1584 0052 0928     		cmp	r0, #9
 1585 0054 02D1     		bne	.L132
 764:user_interface.c ****                 ui_draw_diag();
 1586              		.loc 1 764 0
 1587 0056 FFF7FEFF 		bl	ui_draw_diag
 1588              	.LVL168:
 1589 005a 05E0     		b	.L133
 1590              	.L132:
 765:user_interface.c ****             } else {
 766:user_interface.c ****                 ui_settings(ui_menu, ui_menu_item[ui_menu]);
 1591              		.loc 1 766 0
 1592 005c 2F4B     		ldr	r3, .L141
 1593 005e 03EB8003 		add	r3, r3, r0, lsl #2
 1594 0062 D969     		ldr	r1, [r3, #28]
 1595 0064 FFF7FEFF 		bl	ui_settings
 1596              	.LVL169:
 1597              	.L133:
 767:user_interface.c ****             }
 768:user_interface.c ****             
 769:user_interface.c ****             ui_menu_state = 2;
 1598              		.loc 1 769 0
 1599 0068 0222     		movs	r2, #2
 1600 006a 2C4B     		ldr	r3, .L141
 1601 006c DA64     		str	r2, [r3, #76]
 770:user_interface.c ****         break;
 1602              		.loc 1 770 0
 1603 006e 10BD     		pop	{r4, pc}
 1604              	.LVL170:
 1605              	.L130:
 771:user_interface.c ****         
 772:user_interface.c ****         case 2:
 773:user_interface.c ****             //Wait for button input
 774:user_interface.c ****             
 775:user_interface.c ****             //Left button
 776:user_interface.c ****             if (btn_events[0]) {
 1606              		.loc 1 776 0
 1607 0070 2368     		ldr	r3, [r4]
 1608 0072 EBB1     		cbz	r3, .L134
 777:user_interface.c ****                 btn_events[0] = 0;
 1609              		.loc 1 777 0
 1610 0074 0023     		movs	r3, #0
 1611 0076 2360     		str	r3, [r4]
 778:user_interface.c ****                 
 779:user_interface.c ****                 //Exception for bluetooth and diagnostics
 780:user_interface.c ****                 if (ui_menu == UI_MENU_BLUETOOTH || ui_menu == UI_MENU_DIAG) {
 1612              		.loc 1 780 0
 1613 0078 284B     		ldr	r3, .L141
 1614 007a 1B6D     		ldr	r3, [r3, #80]
 1615 007c A3F10802 		sub	r2, r3, #8
ARM GAS  C:\Users\dev\AppData\Local\Temp\ccC4nFKO.s 			page 63


 1616 0080 012A     		cmp	r2, #1
 1617 0082 04D8     		bhi	.L135
 781:user_interface.c ****                     ui_menu = 0;
 1618              		.loc 1 781 0
 1619 0084 254B     		ldr	r3, .L141
 1620 0086 0022     		movs	r2, #0
 1621 0088 1A65     		str	r2, [r3, #80]
 782:user_interface.c ****                     ui_menu_state = 0;
 1622              		.loc 1 782 0
 1623 008a DA64     		str	r2, [r3, #76]
 783:user_interface.c ****                     break;
 1624              		.loc 1 783 0
 1625 008c 10BD     		pop	{r4, pc}
 1626              	.LVL171:
 1627              	.L135:
 784:user_interface.c ****                 }
 785:user_interface.c ****                 
 786:user_interface.c ****                 if (ui_menu_item[ui_menu] > UI_MENU_ITEMS_MIN[ui_menu]) {
 1628              		.loc 1 786 0
 1629 008e 234A     		ldr	r2, .L141
 1630 0090 02EB8302 		add	r2, r2, r3, lsl #2
 1631 0094 D269     		ldr	r2, [r2, #28]
 1632 0096 2249     		ldr	r1, .L141+4
 1633 0098 51F82310 		ldr	r1, [r1, r3, lsl #2]
 1634 009c 8A42     		cmp	r2, r1
 1635 009e 07DD     		ble	.L134
 787:user_interface.c ****                     ui_menu_item[ui_menu]--;
 1636              		.loc 1 787 0
 1637 00a0 1E49     		ldr	r1, .L141
 1638 00a2 01EB8303 		add	r3, r1, r3, lsl #2
 1639 00a6 013A     		subs	r2, r2, #1
 1640 00a8 DA61     		str	r2, [r3, #28]
 788:user_interface.c ****                     ui_menu_state = 1;
 1641              		.loc 1 788 0
 1642 00aa 0123     		movs	r3, #1
 1643 00ac CB64     		str	r3, [r1, #76]
 789:user_interface.c ****                     break;
 1644              		.loc 1 789 0
 1645 00ae 10BD     		pop	{r4, pc}
 1646              	.LVL172:
 1647              	.L134:
 790:user_interface.c ****                 }
 791:user_interface.c ****             }
 792:user_interface.c ****             
 793:user_interface.c ****             //Center button
 794:user_interface.c ****             if (btn_events[1]) {
 1648              		.loc 1 794 0
 1649 00b0 6368     		ldr	r3, [r4, #4]
 1650 00b2 93B1     		cbz	r3, .L136
 795:user_interface.c ****                btn_events[1] = 0;
 1651              		.loc 1 795 0
 1652 00b4 0023     		movs	r3, #0
 1653 00b6 6360     		str	r3, [r4, #4]
 796:user_interface.c ****                 if (ui_menu > 0) {
 1654              		.loc 1 796 0
 1655 00b8 184B     		ldr	r3, .L141
 1656 00ba 1B6D     		ldr	r3, [r3, #80]
ARM GAS  C:\Users\dev\AppData\Local\Temp\ccC4nFKO.s 			page 64


 1657 00bc 002B     		cmp	r3, #0
 1658 00be 03DD     		ble	.L137
 797:user_interface.c ****                     ui_menu = 0;
 1659              		.loc 1 797 0
 1660 00c0 0022     		movs	r2, #0
 1661 00c2 164B     		ldr	r3, .L141
 1662 00c4 1A65     		str	r2, [r3, #80]
 1663 00c6 04E0     		b	.L138
 1664              	.L137:
 798:user_interface.c ****                 } else {
 799:user_interface.c ****                     ui_menu = ui_menu_item[ui_menu];
 1665              		.loc 1 799 0
 1666 00c8 144A     		ldr	r2, .L141
 1667 00ca 02EB8303 		add	r3, r2, r3, lsl #2
 1668 00ce DB69     		ldr	r3, [r3, #28]
 1669 00d0 1365     		str	r3, [r2, #80]
 1670              	.L138:
 800:user_interface.c ****                 }
 801:user_interface.c ****                 ui_menu_state = 0;
 1671              		.loc 1 801 0
 1672 00d2 0022     		movs	r2, #0
 1673 00d4 114B     		ldr	r3, .L141
 1674 00d6 DA64     		str	r2, [r3, #76]
 802:user_interface.c ****                 break;
 1675              		.loc 1 802 0
 1676 00d8 10BD     		pop	{r4, pc}
 1677              	.LVL173:
 1678              	.L136:
 803:user_interface.c ****             }
 804:user_interface.c ****             
 805:user_interface.c ****             //Right button
 806:user_interface.c ****             if (btn_events[2]) {
 1679              		.loc 1 806 0
 1680 00da A368     		ldr	r3, [r4, #8]
 1681 00dc E3B1     		cbz	r3, .L127
 807:user_interface.c ****                 btn_events[2] = 0;
 1682              		.loc 1 807 0
 1683 00de 0023     		movs	r3, #0
 1684 00e0 A360     		str	r3, [r4, #8]
 808:user_interface.c ****                 
 809:user_interface.c ****                 //Exception for bluetooth
 810:user_interface.c ****                 if (ui_menu == UI_MENU_BLUETOOTH || ui_menu == UI_MENU_DIAG) {
 1685              		.loc 1 810 0
 1686 00e2 0E4B     		ldr	r3, .L141
 1687 00e4 1B6D     		ldr	r3, [r3, #80]
 1688 00e6 A3F10802 		sub	r2, r3, #8
 1689 00ea 012A     		cmp	r2, #1
 1690 00ec 04D8     		bhi	.L139
 811:user_interface.c ****                     ui_menu = 0;
 1691              		.loc 1 811 0
 1692 00ee 0B4B     		ldr	r3, .L141
 1693 00f0 0022     		movs	r2, #0
 1694 00f2 1A65     		str	r2, [r3, #80]
 812:user_interface.c ****                     ui_menu_state = 0;
 1695              		.loc 1 812 0
 1696 00f4 DA64     		str	r2, [r3, #76]
 813:user_interface.c ****                     break;
ARM GAS  C:\Users\dev\AppData\Local\Temp\ccC4nFKO.s 			page 65


 1697              		.loc 1 813 0
 1698 00f6 10BD     		pop	{r4, pc}
 1699              	.LVL174:
 1700              	.L139:
 814:user_interface.c ****                 }
 815:user_interface.c ****                 
 816:user_interface.c ****                 if (ui_menu_item[ui_menu] < UI_MENU_ITEMS_MAX[ui_menu]) {
 1701              		.loc 1 816 0
 1702 00f8 9A00     		lsls	r2, r3, #2
 1703 00fa 0849     		ldr	r1, .L141
 1704 00fc 1144     		add	r1, r1, r2
 1705 00fe C969     		ldr	r1, [r1, #28]
 1706 0100 0748     		ldr	r0, .L141+4
 1707 0102 0244     		add	r2, r2, r0
 1708 0104 926A     		ldr	r2, [r2, #40]
 1709 0106 9142     		cmp	r1, r2
 1710 0108 06DA     		bge	.L127
 817:user_interface.c ****                     ui_menu_item[ui_menu]++;
 1711              		.loc 1 817 0
 1712 010a 044A     		ldr	r2, .L141
 1713 010c 02EB8303 		add	r3, r2, r3, lsl #2
 1714 0110 0131     		adds	r1, r1, #1
 1715 0112 D961     		str	r1, [r3, #28]
 818:user_interface.c ****                     ui_menu_state = 1;
 1716              		.loc 1 818 0
 1717 0114 0123     		movs	r3, #1
 1718 0116 D364     		str	r3, [r2, #76]
 1719              	.L127:
 1720 0118 10BD     		pop	{r4, pc}
 1721              	.LVL175:
 1722              	.L142:
 1723 011a 00BF     		.align	2
 1724              	.L141:
 1725 011c 00000000 		.word	.LANCHOR1
 1726 0120 00000000 		.word	.LANCHOR2
 1727              		.cfi_endproc
 1728              	.LFE738:
 1729              		.size	ui_menu_task, .-ui_menu_task
 1730              		.section	.text.ui_task,"ax",%progbits
 1731              		.align	2
 1732              		.global	ui_task
 1733              		.thumb
 1734              		.thumb_func
 1735              		.type	ui_task, %function
 1736              	ui_task:
 1737              	.LFB739:
